
build/ch.elf:     file format elf32-littlearm


Disassembly of section .vectors:

08000000 <__vectors_base__>:
 8000000:	20000400 	.word	0x20000400
 8000004:	080003b9 	.word	0x080003b9
 8000008:	080003bb 	.word	0x080003bb
 800000c:	080003bb 	.word	0x080003bb
 8000010:	080003bb 	.word	0x080003bb
 8000014:	080003bb 	.word	0x080003bb
 8000018:	080003bb 	.word	0x080003bb
 800001c:	080003bb 	.word	0x080003bb
 8000020:	080003bb 	.word	0x080003bb
 8000024:	080003bb 	.word	0x080003bb
 8000028:	080003bb 	.word	0x080003bb
 800002c:	080045c1 	.word	0x080045c1
 8000030:	080003bb 	.word	0x080003bb
 8000034:	080003bb 	.word	0x080003bb
 8000038:	080003bb 	.word	0x080003bb
 800003c:	080003bb 	.word	0x080003bb
 8000040:	080003bb 	.word	0x080003bb
 8000044:	080003bb 	.word	0x080003bb
 8000048:	080003bb 	.word	0x080003bb
 800004c:	080003bb 	.word	0x080003bb
 8000050:	080003bb 	.word	0x080003bb
 8000054:	080003bb 	.word	0x080003bb
 8000058:	080003bb 	.word	0x080003bb
 800005c:	080003bb 	.word	0x080003bb
 8000060:	080003bb 	.word	0x080003bb
 8000064:	080003bb 	.word	0x080003bb
 8000068:	080003bb 	.word	0x080003bb
 800006c:	080019f1 	.word	0x080019f1
 8000070:	08001a31 	.word	0x08001a31
 8000074:	08001a71 	.word	0x08001a71
 8000078:	08001ab1 	.word	0x08001ab1
 800007c:	08001af1 	.word	0x08001af1
 8000080:	08001b31 	.word	0x08001b31
 8000084:	08001b71 	.word	0x08001b71
 8000088:	08001701 	.word	0x08001701
 800008c:	080003bb 	.word	0x080003bb
 8000090:	080003bb 	.word	0x080003bb
 8000094:	080003bb 	.word	0x080003bb
 8000098:	080003bb 	.word	0x080003bb
 800009c:	080003bb 	.word	0x080003bb
 80000a0:	080003bb 	.word	0x080003bb
 80000a4:	080003bb 	.word	0x080003bb
 80000a8:	080003bb 	.word	0x080003bb
 80000ac:	080003bb 	.word	0x080003bb
 80000b0:	08001311 	.word	0x08001311
 80000b4:	080003bb 	.word	0x080003bb
 80000b8:	080003bb 	.word	0x080003bb
 80000bc:	080003bb 	.word	0x080003bb
 80000c0:	080003bb 	.word	0x080003bb
 80000c4:	08002071 	.word	0x08002071
 80000c8:	08002251 	.word	0x08002251
 80000cc:	08002ea1 	.word	0x08002ea1
 80000d0:	08002f11 	.word	0x08002f11
 80000d4:	080012b1 	.word	0x080012b1
 80000d8:	080003bb 	.word	0x080003bb
 80000dc:	080003bb 	.word	0x080003bb
 80000e0:	080003bb 	.word	0x080003bb
 80000e4:	080003bb 	.word	0x080003bb
 80000e8:	080003bb 	.word	0x080003bb
 80000ec:	080003bb 	.word	0x080003bb
 80000f0:	080003bb 	.word	0x080003bb
 80000f4:	080003bb 	.word	0x080003bb
 80000f8:	080003bb 	.word	0x080003bb
 80000fc:	08001bb1 	.word	0x08001bb1
 8000100:	08001261 	.word	0x08001261
 8000104:	080003bb 	.word	0x080003bb
 8000108:	080003bb 	.word	0x080003bb
 800010c:	08002f81 	.word	0x08002f81
 8000110:	080003bb 	.word	0x080003bb
 8000114:	080012e1 	.word	0x080012e1
 8000118:	080003bb 	.word	0x080003bb
 800011c:	080003bb 	.word	0x080003bb
 8000120:	08001bf1 	.word	0x08001bf1
 8000124:	08001c31 	.word	0x08001c31
 8000128:	08001c71 	.word	0x08001c71
 800012c:	08001cb1 	.word	0x08001cb1
 8000130:	08001cf1 	.word	0x08001cf1
 8000134:	080003bb 	.word	0x080003bb
 8000138:	080003bb 	.word	0x080003bb
 800013c:	080003bb 	.word	0x080003bb
 8000140:	080003bb 	.word	0x080003bb
 8000144:	080003bb 	.word	0x080003bb
 8000148:	080003bb 	.word	0x080003bb
 800014c:	080003bb 	.word	0x080003bb
 8000150:	08001d31 	.word	0x08001d31
 8000154:	08001d71 	.word	0x08001d71
 8000158:	08001db1 	.word	0x08001db1
 800015c:	080003bb 	.word	0x080003bb
 8000160:	080003bb 	.word	0x080003bb
 8000164:	080003bb 	.word	0x080003bb
 8000168:	080003bb 	.word	0x080003bb
 800016c:	080003bb 	.word	0x080003bb
 8000170:	080003bb 	.word	0x080003bb
 8000174:	080003bb 	.word	0x080003bb
 8000178:	080003bb 	.word	0x080003bb
 800017c:	080003bb 	.word	0x080003bb
 8000180:	080003bb 	.word	0x080003bb
 8000184:	080003bb 	.word	0x080003bb
 8000188:	080003bb 	.word	0x080003bb
 800018c:	080003bb 	.word	0x080003bb
 8000190:	080003bb 	.word	0x080003bb
 8000194:	08002ff1 	.word	0x08002ff1
 8000198:	08003061 	.word	0x08003061
 800019c:	080003bb 	.word	0x080003bb
 80001a0:	080003bb 	.word	0x080003bb
 80001a4:	080003bb 	.word	0x080003bb
 80001a8:	080003bb 	.word	0x080003bb
 80001ac:	080003bb 	.word	0x080003bb
 80001b0:	080003bb 	.word	0x080003bb
 80001b4:	080003bb 	.word	0x080003bb
 80001b8:	080003bb 	.word	0x080003bb
 80001bc:	080003bb 	.word	0x080003bb
 80001c0:	080003bb 	.word	0x080003bb
 80001c4:	080003bb 	.word	0x080003bb
 80001c8:	080003bb 	.word	0x080003bb
 80001cc:	080003bb 	.word	0x080003bb
 80001d0:	080003bb 	.word	0x080003bb
 80001d4:	08002871 	.word	0x08002871
 80001d8:	080003bb 	.word	0x080003bb
 80001dc:	080003bb 	.word	0x080003bb
 80001e0:	080003bb 	.word	0x080003bb
 80001e4:	080003bb 	.word	0x080003bb
 80001e8:	080003bb 	.word	0x080003bb
 80001ec:	080003bb 	.word	0x080003bb
 80001f0:	080003bb 	.word	0x080003bb
 80001f4:	080003bb 	.word	0x080003bb
 80001f8:	080003bb 	.word	0x080003bb
 80001fc:	080003bb 	.word	0x080003bb
 8000200:	080003bb 	.word	0x080003bb
 8000204:	080003bb 	.word	0x080003bb
 8000208:	080003bb 	.word	0x080003bb
 800020c:	080003bb 	.word	0x080003bb
 8000210:	080003bb 	.word	0x080003bb
 8000214:	080003bb 	.word	0x080003bb
 8000218:	080003bb 	.word	0x080003bb
 800021c:	080003bb 	.word	0x080003bb
 8000220:	080003bb 	.word	0x080003bb
 8000224:	080003bb 	.word	0x080003bb
 8000228:	080003bb 	.word	0x080003bb
 800022c:	080003bb 	.word	0x080003bb
 8000230:	080003bb 	.word	0x080003bb
 8000234:	080003bb 	.word	0x080003bb
 8000238:	080003bb 	.word	0x080003bb
 800023c:	080003bb 	.word	0x080003bb
 8000240:	080003bb 	.word	0x080003bb
 8000244:	080017b1 	.word	0x080017b1
 8000248:	080017f1 	.word	0x080017f1
 800024c:	08001831 	.word	0x08001831
 8000250:	08001871 	.word	0x08001871
 8000254:	080018b1 	.word	0x080018b1
 8000258:	080018f1 	.word	0x080018f1
 800025c:	08001931 	.word	0x08001931
 8000260:	08001971 	.word	0x08001971
 8000264:	080003bb 	.word	0x080003bb
 8000268:	080003bb 	.word	0x080003bb
 800026c:	080003bb 	.word	0x080003bb
 8000270:	080003bb 	.word	0x080003bb
 8000274:	080003bb 	.word	0x080003bb
 8000278:	080003bb 	.word	0x080003bb
 800027c:	080003bb 	.word	0x080003bb
 8000280:	080003bb 	.word	0x080003bb
 8000284:	080003bb 	.word	0x080003bb
 8000288:	080003bb 	.word	0x080003bb
 800028c:	080003bb 	.word	0x080003bb
 8000290:	080003bb 	.word	0x080003bb
 8000294:	080003bb 	.word	0x080003bb
 8000298:	080003bb 	.word	0x080003bb
 800029c:	080003bb 	.word	0x080003bb
 80002a0:	080003bb 	.word	0x080003bb
 80002a4:	080003bb 	.word	0x080003bb
 80002a8:	080003bb 	.word	0x080003bb
 80002ac:	080003bb 	.word	0x080003bb
 80002b0:	080003bb 	.word	0x080003bb
 80002b4:	080003bb 	.word	0x080003bb
 80002b8:	080003bb 	.word	0x080003bb
 80002bc:	080003bb 	.word	0x080003bb
 80002c0:	080003bb 	.word	0x080003bb
 80002c4:	080003bb 	.word	0x080003bb
 80002c8:	080003bb 	.word	0x080003bb
 80002cc:	080003bb 	.word	0x080003bb
 80002d0:	080003bb 	.word	0x080003bb
 80002d4:	080003bb 	.word	0x080003bb
 80002d8:	080003bb 	.word	0x080003bb
 80002dc:	080003bb 	.word	0x080003bb

Disassembly of section .text:

080002e0 <_crt0_entry>:
                .align  2
                .thumb_func
                .global _crt0_entry
_crt0_entry:
                /* Interrupts are globally masked initially.*/
                cpsid   i
 80002e0:	b672      	cpsid	i

#if CRT0_FORCE_MSP_INIT == TRUE
                /* MSP stack pointers initialization.*/
                ldr     r0, =__main_stack_end__
 80002e2:	4826      	ldr	r0, [pc, #152]	; (800037c <_crt0_entry+0x9c>)
                msr     MSP, r0
 80002e4:	f380 8808 	msr	MSP, r0
#endif

                /* PSP stack pointers initialization.*/
                ldr     r0, =__process_stack_end__
 80002e8:	4825      	ldr	r0, [pc, #148]	; (8000380 <_crt0_entry+0xa0>)
                msr     PSP, r0
 80002ea:	f380 8809 	msr	PSP, r0

#if CRT0_VTOR_INIT == TRUE
                /* Initial VTOR position enforced.*/
                ldr     r0, =_vectors
 80002ee:	4825      	ldr	r0, [pc, #148]	; (8000384 <_crt0_entry+0xa4>)
                ldr     r1, =SCB_VTOR
 80002f0:	4925      	ldr	r1, [pc, #148]	; (8000388 <_crt0_entry+0xa8>)
                str     r0, [r1]
 80002f2:	6008      	str	r0, [r1, #0]
                movt    r1, #SCB_FPDSCR >> 16
                str     r0, [r1]
#endif

                /* CONTROL register initialization as configured.*/
                movs    r0, #CRT0_CONTROL_INIT
 80002f4:	2002      	movs	r0, #2
                msr     CONTROL, r0
 80002f6:	f380 8814 	msr	CONTROL, r0
                isb
 80002fa:	f3bf 8f6f 	isb	sy

#if CRT0_INIT_CORE == TRUE
                /* Core initialization.*/
                bl      __cpu_init
 80002fe:	f000 f90f 	bl	8000520 <__cpu_init>
#endif

                /* Early initialization.*/
                bl      __early_init
 8000302:	f003 faa5 	bl	8003850 <__early_init>

#if CRT0_INIT_STACKS == TRUE
                ldr     r0, =CRT0_STACKS_FILL_PATTERN
 8000306:	f04f 3055 	mov.w	r0, #1431655765	; 0x55555555
                /* Main Stack initialization. Note, it assumes that the
                   stack size is a multiple of 4 so the linker file must
                   ensure this.*/
                ldr     r1, =__main_stack_base__
 800030a:	4920      	ldr	r1, [pc, #128]	; (800038c <_crt0_entry+0xac>)
                ldr     r2, =__main_stack_end__
 800030c:	4a1b      	ldr	r2, [pc, #108]	; (800037c <_crt0_entry+0x9c>)
.Lmsloop:
                cmp     r1, r2
 800030e:	4291      	cmp	r1, r2
                itt     lo
 8000310:	bf3c      	itt	cc
                strlo   r0, [r1], #4
 8000312:	f841 0b04 	strcc.w	r0, [r1], #4
                blo     .Lmsloop
 8000316:	e7fa      	bcc.n	800030e <_crt0_entry+0x2e>

                /* Process Stack initialization. Note, it assumes that the
                   stack size is a multiple of 4 so the linker file must
                   ensure this.*/
                ldr     r1, =__process_stack_base__
 8000318:	491d      	ldr	r1, [pc, #116]	; (8000390 <_crt0_entry+0xb0>)
                ldr     r2, =__process_stack_end__
 800031a:	4a19      	ldr	r2, [pc, #100]	; (8000380 <_crt0_entry+0xa0>)
.Lpsloop:
                cmp     r1, r2
 800031c:	4291      	cmp	r1, r2
                itt     lo
 800031e:	bf3c      	itt	cc
                strlo   r0, [r1], #4
 8000320:	f841 0b04 	strcc.w	r0, [r1], #4
                blo     .Lpsloop
 8000324:	e7fa      	bcc.n	800031c <_crt0_entry+0x3c>

#if CRT0_INIT_DATA == TRUE
                /* Data initialization. Note, it assumes that the DATA
                   size is a multiple of 4 so the linker file must ensure
                   this.*/
                ldr     r1, =__textdata_base__
 8000326:	491b      	ldr	r1, [pc, #108]	; (8000394 <_crt0_entry+0xb4>)
                ldr     r2, =__data_base__
 8000328:	4a1b      	ldr	r2, [pc, #108]	; (8000398 <_crt0_entry+0xb8>)
                ldr     r3, =__data_end__
 800032a:	4b1c      	ldr	r3, [pc, #112]	; (800039c <_crt0_entry+0xbc>)
.Ldloop:
                cmp     r2, r3
 800032c:	429a      	cmp	r2, r3
                ittt    lo
 800032e:	bf3e      	ittt	cc
                ldrlo   r0, [r1], #4
 8000330:	f851 0b04 	ldrcc.w	r0, [r1], #4
                strlo   r0, [r2], #4
 8000334:	f842 0b04 	strcc.w	r0, [r2], #4
                blo     .Ldloop
 8000338:	e7f8      	bcc.n	800032c <_crt0_entry+0x4c>

#if CRT0_INIT_BSS == TRUE
                /* BSS initialization. Note, it assumes that the BSS
                   size is a multiple of 4 so the linker file must ensure
                   this.*/
                movs    r0, #0
 800033a:	2000      	movs	r0, #0
                ldr     r1, =__bss_base__
 800033c:	4918      	ldr	r1, [pc, #96]	; (80003a0 <_crt0_entry+0xc0>)
                ldr     r2, =__bss_end__
 800033e:	4a19      	ldr	r2, [pc, #100]	; (80003a4 <_crt0_entry+0xc4>)
.Lbloop:
                cmp     r1, r2
 8000340:	4291      	cmp	r1, r2
                itt     lo
 8000342:	bf3c      	itt	cc
                strlo   r0, [r1], #4
 8000344:	f841 0b04 	strcc.w	r0, [r1], #4
                blo     .Lbloop
 8000348:	e7fa      	bcc.n	8000340 <_crt0_entry+0x60>
#endif

#if CRT0_INIT_RAM_AREAS == TRUE
                /* RAM areas initialization.*/
                bl      __init_ram_areas
 800034a:	f000 f939 	bl	80005c0 <__init_ram_areas>
#endif

                /* Late initialization..*/
                bl      __late_init
 800034e:	f000 f927 	bl	80005a0 <__late_init>

#if CRT0_CALL_CONSTRUCTORS == TRUE
                /* Constructors invocation.*/
                ldr     r4, =__init_array_base__
 8000352:	4c15      	ldr	r4, [pc, #84]	; (80003a8 <_crt0_entry+0xc8>)
                ldr     r5, =__init_array_end__
 8000354:	4d15      	ldr	r5, [pc, #84]	; (80003ac <_crt0_entry+0xcc>)
.Linitloop:
                cmp     r4, r5
 8000356:	42ac      	cmp	r4, r5
                bge     .Lendinitloop
 8000358:	da03      	bge.n	8000362 <_crt0_entry+0x82>
                ldr     r1, [r4], #4
 800035a:	f854 1b04 	ldr.w	r1, [r4], #4
                blx     r1
 800035e:	4788      	blx	r1
                b       .Linitloop
 8000360:	e7f9      	b.n	8000356 <_crt0_entry+0x76>
.Lendinitloop:
#endif

                /* Main program invocation, r0 contains the returned value.*/
                bl      main
 8000362:	f004 f9bd 	bl	80046e0 <main>

#if CRT0_CALL_DESTRUCTORS == TRUE
                /* Destructors invocation.*/
                ldr     r4, =__fini_array_base__
 8000366:	4c12      	ldr	r4, [pc, #72]	; (80003b0 <_crt0_entry+0xd0>)
                ldr     r5, =__fini_array_end__
 8000368:	4d12      	ldr	r5, [pc, #72]	; (80003b4 <_crt0_entry+0xd4>)
.Lfiniloop:
                cmp     r4, r5
 800036a:	42ac      	cmp	r4, r5
                bge     .Lendfiniloop
 800036c:	da03      	bge.n	8000376 <_crt0_entry+0x96>
                ldr     r1, [r4], #4
 800036e:	f854 1b04 	ldr.w	r1, [r4], #4
                blx     r1
 8000372:	4788      	blx	r1
                b       .Lfiniloop
 8000374:	e7f9      	b.n	800036a <_crt0_entry+0x8a>
.Lendfiniloop:
#endif

                /* Branching to the defined exit handler.*/
                b       __default_exit
 8000376:	f000 b91b 	b.w	80005b0 <__default_exit>
 800037a:	0000      	.short	0x0000
                ldr     r0, =__main_stack_end__
 800037c:	20000400 	.word	0x20000400
                ldr     r0, =__process_stack_end__
 8000380:	20000800 	.word	0x20000800
                ldr     r0, =_vectors
 8000384:	08000000 	.word	0x08000000
                ldr     r1, =SCB_VTOR
 8000388:	e000ed08 	.word	0xe000ed08
                ldr     r1, =__main_stack_base__
 800038c:	20000000 	.word	0x20000000
                ldr     r1, =__process_stack_base__
 8000390:	20000400 	.word	0x20000400
                ldr     r1, =__textdata_base__
 8000394:	08004dd0 	.word	0x08004dd0
                ldr     r2, =__data_base__
 8000398:	24000000 	.word	0x24000000
                ldr     r3, =__data_end__
 800039c:	24000000 	.word	0x24000000
                ldr     r1, =__bss_base__
 80003a0:	24000400 	.word	0x24000400
                ldr     r2, =__bss_end__
 80003a4:	240012a8 	.word	0x240012a8
                ldr     r4, =__init_array_base__
 80003a8:	080002e0 	.word	0x080002e0
                ldr     r5, =__init_array_end__
 80003ac:	080002e0 	.word	0x080002e0
                ldr     r4, =__fini_array_base__
 80003b0:	080002e0 	.word	0x080002e0
                ldr     r5, =__fini_array_end__
 80003b4:	080002e0 	.word	0x080002e0

080003b8 <Reset_Handler>:

        .align      2
        .thumb_func
        .weak       Reset_Handler
Reset_Handler:
         b          _crt0_entry
 80003b8:	e792      	b.n	80002e0 <_crt0_entry>

080003ba <BusFault_Handler>:
        .thumb_func
Vector3F8:
        .thumb_func
Vector3FC:
#endif
        bl          _unhandled_exception
 80003ba:	f000 f800 	bl	80003be <_unhandled_exception>

080003be <_unhandled_exception>:

        .thumb_func
        .weak       _unhandled_exception
_unhandled_exception:
.stay:
        b           .stay
 80003be:	e7fe      	b.n	80003be <_unhandled_exception>

080003c0 <__port_switch>:
 * Performs a context switch between two threads.
 *--------------------------------------------------------------------------*/
                .thumb_func
                .globl  __port_switch
__port_switch:
                push    {r4, r5, r6, r7, r8, r9, r10, r11, lr}
 80003c0:	e92d 4ff0 	stmdb	sp!, {r4, r5, r6, r7, r8, r9, sl, fp, lr}
#if PORT_SWITCHED_REGIONS_NUMBER == 4
                push    {r4, r5, r6, r7, r8, r9, r10, r11}
#endif
#endif

                str     sp, [r1, #CONTEXT_OFFSET]
 80003c4:	f8c1 d00c 	str.w	sp, [r1, #12]
                /* Workaround for ARM errata 752419, only applied if
                   condition exists for it to be triggered.*/
                ldr     r3, [r0, #CONTEXT_OFFSET]
                mov     sp, r3
#else
                ldr     sp, [r0, #CONTEXT_OFFSET]
 80003c8:	f8d0 d00c 	ldr.w	sp, [r0, #12]

#if CORTEX_USE_FPU
                /* Restoring FPU context.*/
                vpop    {s16-s31}
#endif
                pop     {r4, r5, r6, r7, r8, r9, r10, r11, pc}
 80003cc:	e8bd 8ff0 	ldmia.w	sp!, {r4, r5, r6, r7, r8, r9, sl, fp, pc}

080003d0 <__port_thread_start>:
                bl      __stats_stop_measure_crit_thd
#endif
#if CORTEX_SIMPLIFIED_PRIORITY
                cpsie   i
#else
                movs    r3, #0              /* CORTEX_BASEPRI_DISABLED */
 80003d0:	2300      	movs	r3, #0
                msr     BASEPRI, r3
 80003d2:	f383 8811 	msr	BASEPRI, r3
#endif
                mov     r0, r5
 80003d6:	4628      	mov	r0, r5
                blx     r4
 80003d8:	47a0      	blx	r4
                movs    r0, #0              /* MSG_OK */
 80003da:	2000      	movs	r0, #0
                bl      chThdExit
 80003dc:	f003 ff68 	bl	80042b0 <chThdExit>

080003e0 <.zombies>:
.zombies:       b       .zombies
 80003e0:	e7fe      	b.n	80003e0 <.zombies>

080003e2 <__port_switch_from_isr>:
                bl      __stats_start_measure_crit_thd
#endif
#if CH_DBG_SYSTEM_STATE_CHECK
                bl      __dbg_check_lock
#endif
                bl      chSchDoPreemption
 80003e2:	f003 fe6d 	bl	80040c0 <chSchDoPreemption>

080003e6 <__port_exit_from_isr>:
                movt    r3, #:upper16:SCB_ICSR
                mov     r2, ICSR_PENDSVSET
                str     r2, [r3, #0]
                cpsie   i
#else /* !CORTEX_SIMPLIFIED_PRIORITY */
                svc     #0
 80003e6:	df00      	svc	0
#endif /* !CORTEX_SIMPLIFIED_PRIORITY */
.L1:            b       .L1
 80003e8:	e7fe      	b.n	80003e8 <__port_exit_from_isr+0x2>
	...

080003ec <memcpy>:
 80003ec:	4684      	mov	ip, r0
 80003ee:	ea41 0300 	orr.w	r3, r1, r0
 80003f2:	f013 0303 	ands.w	r3, r3, #3
 80003f6:	d16d      	bne.n	80004d4 <memcpy+0xe8>
 80003f8:	3a40      	subs	r2, #64	; 0x40
 80003fa:	d341      	bcc.n	8000480 <memcpy+0x94>
 80003fc:	f851 3b04 	ldr.w	r3, [r1], #4
 8000400:	f840 3b04 	str.w	r3, [r0], #4
 8000404:	f851 3b04 	ldr.w	r3, [r1], #4
 8000408:	f840 3b04 	str.w	r3, [r0], #4
 800040c:	f851 3b04 	ldr.w	r3, [r1], #4
 8000410:	f840 3b04 	str.w	r3, [r0], #4
 8000414:	f851 3b04 	ldr.w	r3, [r1], #4
 8000418:	f840 3b04 	str.w	r3, [r0], #4
 800041c:	f851 3b04 	ldr.w	r3, [r1], #4
 8000420:	f840 3b04 	str.w	r3, [r0], #4
 8000424:	f851 3b04 	ldr.w	r3, [r1], #4
 8000428:	f840 3b04 	str.w	r3, [r0], #4
 800042c:	f851 3b04 	ldr.w	r3, [r1], #4
 8000430:	f840 3b04 	str.w	r3, [r0], #4
 8000434:	f851 3b04 	ldr.w	r3, [r1], #4
 8000438:	f840 3b04 	str.w	r3, [r0], #4
 800043c:	f851 3b04 	ldr.w	r3, [r1], #4
 8000440:	f840 3b04 	str.w	r3, [r0], #4
 8000444:	f851 3b04 	ldr.w	r3, [r1], #4
 8000448:	f840 3b04 	str.w	r3, [r0], #4
 800044c:	f851 3b04 	ldr.w	r3, [r1], #4
 8000450:	f840 3b04 	str.w	r3, [r0], #4
 8000454:	f851 3b04 	ldr.w	r3, [r1], #4
 8000458:	f840 3b04 	str.w	r3, [r0], #4
 800045c:	f851 3b04 	ldr.w	r3, [r1], #4
 8000460:	f840 3b04 	str.w	r3, [r0], #4
 8000464:	f851 3b04 	ldr.w	r3, [r1], #4
 8000468:	f840 3b04 	str.w	r3, [r0], #4
 800046c:	f851 3b04 	ldr.w	r3, [r1], #4
 8000470:	f840 3b04 	str.w	r3, [r0], #4
 8000474:	f851 3b04 	ldr.w	r3, [r1], #4
 8000478:	f840 3b04 	str.w	r3, [r0], #4
 800047c:	3a40      	subs	r2, #64	; 0x40
 800047e:	d2bd      	bcs.n	80003fc <memcpy+0x10>
 8000480:	3230      	adds	r2, #48	; 0x30
 8000482:	d311      	bcc.n	80004a8 <memcpy+0xbc>
 8000484:	f851 3b04 	ldr.w	r3, [r1], #4
 8000488:	f840 3b04 	str.w	r3, [r0], #4
 800048c:	f851 3b04 	ldr.w	r3, [r1], #4
 8000490:	f840 3b04 	str.w	r3, [r0], #4
 8000494:	f851 3b04 	ldr.w	r3, [r1], #4
 8000498:	f840 3b04 	str.w	r3, [r0], #4
 800049c:	f851 3b04 	ldr.w	r3, [r1], #4
 80004a0:	f840 3b04 	str.w	r3, [r0], #4
 80004a4:	3a10      	subs	r2, #16
 80004a6:	d2ed      	bcs.n	8000484 <memcpy+0x98>
 80004a8:	320c      	adds	r2, #12
 80004aa:	d305      	bcc.n	80004b8 <memcpy+0xcc>
 80004ac:	f851 3b04 	ldr.w	r3, [r1], #4
 80004b0:	f840 3b04 	str.w	r3, [r0], #4
 80004b4:	3a04      	subs	r2, #4
 80004b6:	d2f9      	bcs.n	80004ac <memcpy+0xc0>
 80004b8:	3204      	adds	r2, #4
 80004ba:	d008      	beq.n	80004ce <memcpy+0xe2>
 80004bc:	07d2      	lsls	r2, r2, #31
 80004be:	bf1c      	itt	ne
 80004c0:	f811 3b01 	ldrbne.w	r3, [r1], #1
 80004c4:	f800 3b01 	strbne.w	r3, [r0], #1
 80004c8:	d301      	bcc.n	80004ce <memcpy+0xe2>
 80004ca:	880b      	ldrh	r3, [r1, #0]
 80004cc:	8003      	strh	r3, [r0, #0]
 80004ce:	4660      	mov	r0, ip
 80004d0:	4770      	bx	lr
 80004d2:	bf00      	nop
 80004d4:	2a08      	cmp	r2, #8
 80004d6:	d313      	bcc.n	8000500 <memcpy+0x114>
 80004d8:	078b      	lsls	r3, r1, #30
 80004da:	d08d      	beq.n	80003f8 <memcpy+0xc>
 80004dc:	f010 0303 	ands.w	r3, r0, #3
 80004e0:	d08a      	beq.n	80003f8 <memcpy+0xc>
 80004e2:	f1c3 0304 	rsb	r3, r3, #4
 80004e6:	1ad2      	subs	r2, r2, r3
 80004e8:	07db      	lsls	r3, r3, #31
 80004ea:	bf1c      	itt	ne
 80004ec:	f811 3b01 	ldrbne.w	r3, [r1], #1
 80004f0:	f800 3b01 	strbne.w	r3, [r0], #1
 80004f4:	d380      	bcc.n	80003f8 <memcpy+0xc>
 80004f6:	f831 3b02 	ldrh.w	r3, [r1], #2
 80004fa:	f820 3b02 	strh.w	r3, [r0], #2
 80004fe:	e77b      	b.n	80003f8 <memcpy+0xc>
 8000500:	3a04      	subs	r2, #4
 8000502:	d3d9      	bcc.n	80004b8 <memcpy+0xcc>
 8000504:	3a01      	subs	r2, #1
 8000506:	f811 3b01 	ldrb.w	r3, [r1], #1
 800050a:	f800 3b01 	strb.w	r3, [r0], #1
 800050e:	d2f9      	bcs.n	8000504 <memcpy+0x118>
 8000510:	780b      	ldrb	r3, [r1, #0]
 8000512:	7003      	strb	r3, [r0, #0]
 8000514:	784b      	ldrb	r3, [r1, #1]
 8000516:	7043      	strb	r3, [r0, #1]
 8000518:	788b      	ldrb	r3, [r1, #2]
 800051a:	7083      	strb	r3, [r0, #2]
 800051c:	4660      	mov	r0, ip
 800051e:	4770      	bx	lr

08000520 <__cpu_init>:
 */
#if !defined(__DOXYGEN__)
__attribute__((weak))
#endif
/*lint -save -e9075 [8.4] All symbols are invoked from asm context.*/
void __cpu_init(void) {
 8000520:	b510      	push	{r4, lr}
  \details Acts as a special kind of Data Memory Barrier.
           It completes when all explicit memory accesses before this instruction complete.
 */
__STATIC_FORCEINLINE void __DSB(void)
{
  __ASM volatile ("dsb 0xF":::"memory");
 8000522:	f3bf 8f4f 	dsb	sy
  __ASM volatile ("isb 0xF":::"memory");
 8000526:	f3bf 8f6f 	isb	sy
__STATIC_INLINE void SCB_EnableICache (void)
{
  #if defined (__ICACHE_PRESENT) && (__ICACHE_PRESENT == 1U)
    __DSB();
    __ISB();
    SCB->ICIALLU = 0UL;                     /* invalidate I-Cache */
 800052a:	481c      	ldr	r0, [pc, #112]	; (800059c <__cpu_init+0x7c>)
 800052c:	2200      	movs	r2, #0
 800052e:	f8c0 2250 	str.w	r2, [r0, #592]	; 0x250
  __ASM volatile ("dsb 0xF":::"memory");
 8000532:	f3bf 8f4f 	dsb	sy
  __ASM volatile ("isb 0xF":::"memory");
 8000536:	f3bf 8f6f 	isb	sy
    __DSB();
    __ISB();
    SCB->CCR |=  (uint32_t)SCB_CCR_IC_Msk;  /* enable I-Cache */
 800053a:	6943      	ldr	r3, [r0, #20]
 800053c:	f443 3300 	orr.w	r3, r3, #131072	; 0x20000
 8000540:	6143      	str	r3, [r0, #20]
  __ASM volatile ("dsb 0xF":::"memory");
 8000542:	f3bf 8f4f 	dsb	sy
  __ASM volatile ("isb 0xF":::"memory");
 8000546:	f3bf 8f6f 	isb	sy
  #if defined (__DCACHE_PRESENT) && (__DCACHE_PRESENT == 1U)
    uint32_t ccsidr;
    uint32_t sets;
    uint32_t ways;

    SCB->CSSELR = 0U; /*(0U << 1U) | 0U;*/  /* Level 1 data cache */
 800054a:	f8c0 2084 	str.w	r2, [r0, #132]	; 0x84
  __ASM volatile ("dsb 0xF":::"memory");
 800054e:	f3bf 8f4f 	dsb	sy
    __DSB();

    ccsidr = SCB->CCSIDR;
 8000552:	f8d0 3080 	ldr.w	r3, [r0, #128]	; 0x80
                                            /* invalidate D-Cache */
    sets = (uint32_t)(CCSIDR_SETS(ccsidr));
    do {
      ways = (uint32_t)(CCSIDR_WAYS(ccsidr));
      do {
        SCB->DCISW = (((sets << SCB_DCISW_SET_Pos) & SCB_DCISW_SET_Msk) |
 8000556:	f643 74e0 	movw	r4, #16352	; 0x3fe0
    sets = (uint32_t)(CCSIDR_SETS(ccsidr));
 800055a:	f3c3 3c4e 	ubfx	ip, r3, #13, #15
      ways = (uint32_t)(CCSIDR_WAYS(ccsidr));
 800055e:	f3c3 0ec9 	ubfx	lr, r3, #3, #10
 8000562:	ea4f 1c4c 	mov.w	ip, ip, lsl #5
        SCB->DCISW = (((sets << SCB_DCISW_SET_Pos) & SCB_DCISW_SET_Msk) |
 8000566:	ea0c 0104 	and.w	r1, ip, r4
      ways = (uint32_t)(CCSIDR_WAYS(ccsidr));
 800056a:	4673      	mov	r3, lr
        SCB->DCISW = (((sets << SCB_DCISW_SET_Pos) & SCB_DCISW_SET_Msk) |
 800056c:	ea41 7283 	orr.w	r2, r1, r3, lsl #30
                      ((ways << SCB_DCISW_WAY_Pos) & SCB_DCISW_WAY_Msk)  );
        #if defined ( __CC_ARM )
          __schedule_barrier();
        #endif
      } while (ways-- != 0U);
 8000570:	3b01      	subs	r3, #1
        SCB->DCISW = (((sets << SCB_DCISW_SET_Pos) & SCB_DCISW_SET_Msk) |
 8000572:	f8c0 2260 	str.w	r2, [r0, #608]	; 0x260
      } while (ways-- != 0U);
 8000576:	1c5a      	adds	r2, r3, #1
 8000578:	d1f8      	bne.n	800056c <__cpu_init+0x4c>
    } while(sets-- != 0U);
 800057a:	f1ac 0c20 	sub.w	ip, ip, #32
 800057e:	f11c 0f20 	cmn.w	ip, #32
 8000582:	d1f0      	bne.n	8000566 <__cpu_init+0x46>
 8000584:	f3bf 8f4f 	dsb	sy
    __DSB();

    SCB->CCR |=  (uint32_t)SCB_CCR_DC_Msk;  /* enable D-Cache */
 8000588:	6943      	ldr	r3, [r0, #20]
 800058a:	f443 3380 	orr.w	r3, r3, #65536	; 0x10000
 800058e:	6143      	str	r3, [r0, #20]
 8000590:	f3bf 8f4f 	dsb	sy
  __ASM volatile ("isb 0xF":::"memory");
 8000594:	f3bf 8f6f 	isb	sy

#if CORTEX_MODEL == 7
  SCB_EnableICache();
  SCB_EnableDCache();
#endif
}
 8000598:	bd10      	pop	{r4, pc}
 800059a:	bf00      	nop
 800059c:	e000ed00 	.word	0xe000ed00

080005a0 <__late_init>:
 80005a0:	4770      	bx	lr
 80005a2:	bf00      	nop
	...

080005b0 <__default_exit>:
#endif
/*lint -save -e9075 [8.4] All symbols are invoked from asm context.*/
void __default_exit(void) {
/*lint -restore*/

  while (true) {
 80005b0:	e7fe      	b.n	80005b0 <__default_exit>
 80005b2:	bf00      	nop
	...

080005c0 <__init_ram_areas>:
#endif

/**
 * @brief   Performs the initialization of the various RAM areas.
 */
void __init_ram_areas(void) {
 80005c0:	b5f8      	push	{r3, r4, r5, r6, r7, lr}
 80005c2:	4d2b      	ldr	r5, [pc, #172]	; (8000670 <__init_ram_areas+0xb0>)
 80005c4:	4f2b      	ldr	r7, [pc, #172]	; (8000674 <__init_ram_areas+0xb4>)
 80005c6:	492c      	ldr	r1, [pc, #176]	; (8000678 <__init_ram_areas+0xb8>)
 80005c8:	f105 0470 	add.w	r4, r5, #112	; 0x70
 80005cc:	482b      	ldr	r0, [pc, #172]	; (800067c <__init_ram_areas+0xbc>)
 80005ce:	4a2c      	ldr	r2, [pc, #176]	; (8000680 <__init_ram_areas+0xc0>)
  do {
    uint32_t *tp = rap->init_text_area;
    uint32_t *p = rap->init_area;

    /* Copying initialization data.*/
    while (p < rap->clear_area) {
 80005d0:	4288      	cmp	r0, r1
 80005d2:	d20d      	bcs.n	80005f0 <__init_ram_areas+0x30>
 80005d4:	3a04      	subs	r2, #4
 80005d6:	4603      	mov	r3, r0
      *p = *tp;
 80005d8:	f852 6f04 	ldr.w	r6, [r2, #4]!
 80005dc:	f843 6b04 	str.w	r6, [r3], #4
    while (p < rap->clear_area) {
 80005e0:	428b      	cmp	r3, r1
 80005e2:	d3f9      	bcc.n	80005d8 <__init_ram_areas+0x18>
      p++;
 80005e4:	1e4b      	subs	r3, r1, #1
 80005e6:	1a1b      	subs	r3, r3, r0
 80005e8:	f023 0303 	bic.w	r3, r3, #3
 80005ec:	3304      	adds	r3, #4
 80005ee:	4418      	add	r0, r3
      tp++;
    }

    /* Zeroing clear area.*/
    while (p < rap->no_init_area) {
 80005f0:	42b8      	cmp	r0, r7
 80005f2:	d207      	bcs.n	8000604 <__init_ram_areas+0x44>
      *p = 0;
 80005f4:	3f01      	subs	r7, #1
 80005f6:	2100      	movs	r1, #0
 80005f8:	1a3f      	subs	r7, r7, r0
 80005fa:	f027 0203 	bic.w	r2, r7, #3
 80005fe:	3204      	adds	r2, #4
 8000600:	f004 f902 	bl	8004808 <memset>
      p++;
    }
    rap++;
  }
  while (rap < &ram_areas[CRT0_AREAS_NUMBER]);
 8000604:	42a5      	cmp	r5, r4
 8000606:	d005      	beq.n	8000614 <__init_ram_areas+0x54>
    uint32_t *p = rap->init_area;
 8000608:	e9d5 2004 	ldrd	r2, r0, [r5, #16]
    while (p < rap->no_init_area) {
 800060c:	e9d5 1706 	ldrd	r1, r7, [r5, #24]
 8000610:	3510      	adds	r5, #16
 8000612:	e7dd      	b.n	80005d0 <__init_ram_areas+0x10>
  #if defined (__DCACHE_PRESENT) && (__DCACHE_PRESENT == 1U)
    uint32_t ccsidr;
    uint32_t sets;
    uint32_t ways;

     SCB->CSSELR = 0U; /*(0U << 1U) | 0U;*/  /* Level 1 data cache */
 8000614:	481b      	ldr	r0, [pc, #108]	; (8000684 <__init_ram_areas+0xc4>)
 8000616:	2300      	movs	r3, #0
 8000618:	f8c0 3084 	str.w	r3, [r0, #132]	; 0x84
  __ASM volatile ("dsb 0xF":::"memory");
 800061c:	f3bf 8f4f 	dsb	sy
   __DSB();

    ccsidr = SCB->CCSIDR;
 8000620:	f8d0 5080 	ldr.w	r5, [r0, #128]	; 0x80
                                            /* clean D-Cache */
    sets = (uint32_t)(CCSIDR_SETS(ccsidr));
    do {
      ways = (uint32_t)(CCSIDR_WAYS(ccsidr));
      do {
        SCB->DCCSW = (((sets << SCB_DCCSW_SET_Pos) & SCB_DCCSW_SET_Msk) |
 8000624:	f643 76e0 	movw	r6, #16352	; 0x3fe0
    sets = (uint32_t)(CCSIDR_SETS(ccsidr));
 8000628:	f3c5 344e 	ubfx	r4, r5, #13, #15
      ways = (uint32_t)(CCSIDR_WAYS(ccsidr));
 800062c:	f3c5 05c9 	ubfx	r5, r5, #3, #10
 8000630:	0164      	lsls	r4, r4, #5
        SCB->DCCSW = (((sets << SCB_DCCSW_SET_Pos) & SCB_DCCSW_SET_Msk) |
 8000632:	ea04 0106 	and.w	r1, r4, r6
      ways = (uint32_t)(CCSIDR_WAYS(ccsidr));
 8000636:	462b      	mov	r3, r5
        SCB->DCCSW = (((sets << SCB_DCCSW_SET_Pos) & SCB_DCCSW_SET_Msk) |
 8000638:	ea41 7283 	orr.w	r2, r1, r3, lsl #30
                      ((ways << SCB_DCCSW_WAY_Pos) & SCB_DCCSW_WAY_Msk)  );
        #if defined ( __CC_ARM )
          __schedule_barrier();
        #endif
      } while (ways-- != 0U);
 800063c:	3b01      	subs	r3, #1
        SCB->DCCSW = (((sets << SCB_DCCSW_SET_Pos) & SCB_DCCSW_SET_Msk) |
 800063e:	f8c0 226c 	str.w	r2, [r0, #620]	; 0x26c
      } while (ways-- != 0U);
 8000642:	1c5a      	adds	r2, r3, #1
 8000644:	d1f8      	bne.n	8000638 <__init_ram_areas+0x78>
    } while(sets-- != 0U);
 8000646:	3c20      	subs	r4, #32
 8000648:	f114 0f20 	cmn.w	r4, #32
 800064c:	d1f1      	bne.n	8000632 <__init_ram_areas+0x72>
 800064e:	f3bf 8f4f 	dsb	sy
  __ASM volatile ("isb 0xF":::"memory");
 8000652:	f3bf 8f6f 	isb	sy
  __ASM volatile ("dsb 0xF":::"memory");
 8000656:	f3bf 8f4f 	dsb	sy
  __ASM volatile ("isb 0xF":::"memory");
 800065a:	f3bf 8f6f 	isb	sy
    SCB->ICIALLU = 0UL;
 800065e:	2300      	movs	r3, #0
 8000660:	f8c0 3250 	str.w	r3, [r0, #592]	; 0x250
  __ASM volatile ("dsb 0xF":::"memory");
 8000664:	f3bf 8f4f 	dsb	sy
  __ASM volatile ("isb 0xF":::"memory");
 8000668:	f3bf 8f6f 	isb	sy
     for self-modifying code.*/
  SCB_CleanDCache();
  SCB_InvalidateICache();
#endif
#endif
}
 800066c:	bdf8      	pop	{r3, r4, r5, r6, r7, pc}
 800066e:	bf00      	nop
 8000670:	080048ac 	.word	0x080048ac
 8000674:	240012a8 	.word	0x240012a8
 8000678:	240012a8 	.word	0x240012a8
 800067c:	240012a8 	.word	0x240012a8
 8000680:	080051d0 	.word	0x080051d0
 8000684:	e000ed00 	.word	0xe000ed00
	...

08000690 <halInit>:
 *          board-specific initialization is performed by invoking
 *          @p boardInit() (usually defined in @p board.c).
 *
 * @init
 */
void halInit(void) {
 8000690:	b508      	push	{r3, lr}

  /* Initializes the OS Abstraction Layer.*/
  osalInit();

  /* Platform low level initializations.*/
  hal_lld_init();
 8000692:	f000 fe65 	bl	8001360 <hal_lld_init>

#if (HAL_USE_PAL == TRUE) || defined(__DOXYGEN__)
#if defined(PAL_NEW_INIT)
  palInit();
 8000696:	f001 fc6b 	bl	8001f70 <_pal_lld_init>
#else
  palInit(&pal_default_config);
#endif
#endif
#if (HAL_USE_ADC == TRUE) || defined(__DOXYGEN__)
  adcInit();
 800069a:	f000 f9e1 	bl	8000a60 <adcInit>
#endif
#if (HAL_USE_GPT == TRUE) || defined(__DOXYGEN__)
  gptInit();
#endif
#if (HAL_USE_I2C == TRUE) || defined(__DOXYGEN__)
  i2cInit();
 800069e:	f000 f9f7 	bl	8000a90 <i2cInit>
#endif
#if (HAL_USE_PWM == TRUE) || defined(__DOXYGEN__)
  pwmInit();
#endif
#if (HAL_USE_SERIAL == TRUE) || defined(__DOXYGEN__)
  sdInit();
 80006a2:	f000 fa95 	bl	8000bd0 <sdInit>
#endif
#if (HAL_USE_SIO == TRUE) || defined(__DOXYGEN__)
  sioInit();
#endif
#if (HAL_USE_SPI == TRUE) || defined(__DOXYGEN__)
  spiInit();
 80006a6:	f000 fadb 	bl	8000c60 <spiInit>
#endif
#if (HAL_USE_UART == TRUE) || defined(__DOXYGEN__)
  uartInit();
#endif
#if (HAL_USE_USB == TRUE) || defined(__DOXYGEN__)
  usbInit();
 80006aa:	f000 faf1 	bl	8000c90 <usbInit>
#endif
#if (HAL_USE_MMC_SPI == TRUE) || defined(__DOXYGEN__)
  mmcInit();
 80006ae:	f000 f9ff 	bl	8000ab0 <mmcInit>
#endif

  /* Community driver overlay initialization.*/
#if defined(HAL_USE_COMMUNITY) || defined(__DOXYGEN__)
#if (HAL_USE_COMMUNITY == TRUE) || defined(__DOXYGEN__)
  halCommunityInit();
 80006b2:	f000 fdbd 	bl	8001230 <halCommunityInit>
#endif
#endif

  /* Board specific initialization.*/
  boardInit();
 80006b6:	f003 f9eb 	bl	8003a90 <boardInit>
 *  configured to require it.
 */
#if OSAL_ST_MODE != OSAL_ST_MODE_NONE
  stInit();
#endif
}
 80006ba:	e8bd 4008 	ldmia.w	sp!, {r3, lr}
  stInit();
 80006be:	f000 b807 	b.w	80006d0 <stInit>
 80006c2:	bf00      	nop
	...

080006d0 <stInit>:

  for (i = 0U; i < (unsigned)ST_LLD_NUM_ALARMS; i++) {
    st_callbacks[i] = NULL;
  }
#endif
  st_lld_init();
 80006d0:	f002 bee6 	b.w	80034a0 <st_lld_init>
	...

080006e0 <stGetCounter>:
 *
 * @notapi
 */
static inline systime_t st_lld_get_counter(void) {

  return (systime_t)STM32_ST_TIM->CNT;
 80006e0:	f04f 4380 	mov.w	r3, #1073741824	; 0x40000000
 80006e4:	6a58      	ldr	r0, [r3, #36]	; 0x24
 * @api
 */
systime_t stGetCounter(void) {

  return st_lld_get_counter();
}
 80006e6:	4770      	bx	lr
	...

080006f0 <stStartAlarm>:
 *
 * @notapi
 */
static inline void st_lld_start_alarm(systime_t abstime) {

  STM32_ST_TIM->CCR[0] = (uint32_t)abstime;
 80006f0:	f04f 4380 	mov.w	r3, #1073741824	; 0x40000000
  STM32_ST_TIM->SR     = 0;
 80006f4:	2100      	movs	r1, #0
#if ST_LLD_NUM_ALARMS == 1
  STM32_ST_TIM->DIER   = STM32_TIM_DIER_CC1IE;
 80006f6:	2202      	movs	r2, #2
  STM32_ST_TIM->CCR[0] = (uint32_t)abstime;
 80006f8:	6358      	str	r0, [r3, #52]	; 0x34
  STM32_ST_TIM->SR     = 0;
 80006fa:	6119      	str	r1, [r3, #16]
  STM32_ST_TIM->DIER   = STM32_TIM_DIER_CC1IE;
 80006fc:	60da      	str	r2, [r3, #12]
void stStartAlarm(systime_t abstime) {

  osalDbgAssert(stIsAlarmActive() == false, "already active");

  st_lld_start_alarm(abstime);
}
 80006fe:	4770      	bx	lr

08000700 <stStopAlarm>:
 * @notapi
 */
static inline void st_lld_stop_alarm(void) {

#if ST_LLD_NUM_ALARMS == 1
  STM32_ST_TIM->DIER = 0U;
 8000700:	f04f 4380 	mov.w	r3, #1073741824	; 0x40000000
 8000704:	2200      	movs	r2, #0
 8000706:	60da      	str	r2, [r3, #12]
 * @api
 */
void stStopAlarm(void) {

  st_lld_stop_alarm();
}
 8000708:	4770      	bx	lr
 800070a:	bf00      	nop
 800070c:	0000      	movs	r0, r0
	...

08000710 <stSetAlarm>:
 *
 * @notapi
 */
static inline void st_lld_set_alarm(systime_t abstime) {

  STM32_ST_TIM->CCR[0] = (uint32_t)abstime;
 8000710:	f04f 4380 	mov.w	r3, #1073741824	; 0x40000000
 8000714:	6358      	str	r0, [r3, #52]	; 0x34
void stSetAlarm(systime_t abstime) {

  osalDbgAssert(stIsAlarmActive() != false, "not active");

  st_lld_set_alarm(abstime);
}
 8000716:	4770      	bx	lr
	...

08000720 <iq_read>:
 *                      value 0 is reserved
 * @return              The number of bytes effectively transferred.
 *
 * @notapi
 */
static size_t iq_read(input_queue_t *iqp, uint8_t *bp, size_t n) {
 8000720:	b5f8      	push	{r3, r4, r5, r6, r7, lr}
 8000722:	4615      	mov	r5, r2
  size_t s1, s2;

  osalDbgCheck(n > 0U);

  /* Number of bytes that can be read in a single atomic operation.*/
  if (n > iqGetFullI(iqp)) {
 8000724:	6882      	ldr	r2, [r0, #8]
static size_t iq_read(input_queue_t *iqp, uint8_t *bp, size_t n) {
 8000726:	4604      	mov	r4, r0
 8000728:	460b      	mov	r3, r1
  if (n > iqGetFullI(iqp)) {
 800072a:	42aa      	cmp	r2, r5
 800072c:	d200      	bcs.n	8000730 <iq_read+0x10>
    n = iqGetFullI(iqp);
 800072e:	6885      	ldr	r5, [r0, #8]
  }

  /* Number of bytes before buffer limit.*/
  /*lint -save -e9033 [10.8] Checked to be safe.*/
  s1 = (size_t)(iqp->q_top - iqp->q_rdptr);
 8000730:	69a1      	ldr	r1, [r4, #24]
 8000732:	6926      	ldr	r6, [r4, #16]
 8000734:	1a76      	subs	r6, r6, r1
  /*lint -restore*/
  if (n < s1) {
 8000736:	42b5      	cmp	r5, r6
 8000738:	d318      	bcc.n	800076c <iq_read+0x4c>
    memcpy((void *)bp, (void *)iqp->q_rdptr, n);
    iqp->q_rdptr += n;
  }
  else if (n > s1) {
 800073a:	d80a      	bhi.n	8000752 <iq_read+0x32>
    s2 = n - s1;
    memcpy((void *)bp, (void *)iqp->q_buffer, s2);
    iqp->q_rdptr = iqp->q_buffer + s2;
  }
  else {
    memcpy((void *)bp, (void *)iqp->q_rdptr, n);
 800073c:	462a      	mov	r2, r5
 800073e:	4618      	mov	r0, r3
 8000740:	f7ff fe54 	bl	80003ec <memcpy>
    iqp->q_rdptr = iqp->q_buffer;
 8000744:	68e2      	ldr	r2, [r4, #12]
  }

  iqp->q_counter -= n;
 8000746:	68a3      	ldr	r3, [r4, #8]
  return n;
}
 8000748:	4628      	mov	r0, r5
    iqp->q_rdptr += n;
 800074a:	61a2      	str	r2, [r4, #24]
  iqp->q_counter -= n;
 800074c:	1b5b      	subs	r3, r3, r5
 800074e:	60a3      	str	r3, [r4, #8]
}
 8000750:	bdf8      	pop	{r3, r4, r5, r6, r7, pc}
    s2 = n - s1;
 8000752:	1baf      	subs	r7, r5, r6
    memcpy((void *)bp, (void *)iqp->q_rdptr, s1);
 8000754:	4632      	mov	r2, r6
 8000756:	4618      	mov	r0, r3
 8000758:	f7ff fe48 	bl	80003ec <memcpy>
    memcpy((void *)bp, (void *)iqp->q_buffer, s2);
 800075c:	463a      	mov	r2, r7
 800075e:	4430      	add	r0, r6
 8000760:	68e1      	ldr	r1, [r4, #12]
 8000762:	f7ff fe43 	bl	80003ec <memcpy>
    iqp->q_rdptr = iqp->q_buffer + s2;
 8000766:	68e2      	ldr	r2, [r4, #12]
 8000768:	443a      	add	r2, r7
 800076a:	e7ec      	b.n	8000746 <iq_read+0x26>
    memcpy((void *)bp, (void *)iqp->q_rdptr, n);
 800076c:	462a      	mov	r2, r5
 800076e:	4618      	mov	r0, r3
 8000770:	f7ff fe3c 	bl	80003ec <memcpy>
    iqp->q_rdptr += n;
 8000774:	69a2      	ldr	r2, [r4, #24]
 8000776:	442a      	add	r2, r5
 8000778:	e7e5      	b.n	8000746 <iq_read+0x26>
 800077a:	bf00      	nop
 800077c:	0000      	movs	r0, r0
	...

08000780 <oq_write>:
  size_t s1, s2;

  osalDbgCheck(n > 0U);

  /* Number of bytes that can be written in a single atomic operation.*/
  if (n > oqGetEmptyI(oqp)) {
 8000780:	6883      	ldr	r3, [r0, #8]
 8000782:	4293      	cmp	r3, r2
static size_t oq_write(output_queue_t *oqp, const uint8_t *bp, size_t n) {
 8000784:	e92d 41f0 	stmdb	sp!, {r4, r5, r6, r7, r8, lr}
 8000788:	4604      	mov	r4, r0
 800078a:	460f      	mov	r7, r1
  if (n > oqGetEmptyI(oqp)) {
 800078c:	d212      	bcs.n	80007b4 <oq_write+0x34>
    n = oqGetEmptyI(oqp);
 800078e:	6885      	ldr	r5, [r0, #8]
  }

  /* Number of bytes before buffer limit.*/
  /*lint -save -e9033 [10.8] Checked to be safe.*/
  s1 = (size_t)(oqp->q_top - oqp->q_wrptr);
 8000790:	e9d4 6004 	ldrd	r6, r0, [r4, #16]
 8000794:	1a36      	subs	r6, r6, r0
  /*lint -restore*/
  if (n < s1) {
 8000796:	42b5      	cmp	r5, r6
 8000798:	d312      	bcc.n	80007c0 <oq_write+0x40>
    memcpy((void *)oqp->q_wrptr, (const void *)bp, n);
    oqp->q_wrptr += n;
  }
  else if (n > s1) {
 800079a:	d818      	bhi.n	80007ce <oq_write+0x4e>
    s2 = n - s1;
    memcpy((void *)oqp->q_buffer, (const void *)bp, s2);
    oqp->q_wrptr = oqp->q_buffer + s2;
  }
  else {
    memcpy((void *)oqp->q_wrptr, (const void *)bp, n);
 800079c:	462a      	mov	r2, r5
 800079e:	4639      	mov	r1, r7
 80007a0:	f7ff fe24 	bl	80003ec <memcpy>
    oqp->q_wrptr = oqp->q_buffer;
 80007a4:	68e2      	ldr	r2, [r4, #12]
  }

  oqp->q_counter -= n;
 80007a6:	68a3      	ldr	r3, [r4, #8]
  return n;
}
 80007a8:	4628      	mov	r0, r5
    oqp->q_wrptr += n;
 80007aa:	6162      	str	r2, [r4, #20]
  oqp->q_counter -= n;
 80007ac:	1b5b      	subs	r3, r3, r5
 80007ae:	60a3      	str	r3, [r4, #8]
}
 80007b0:	e8bd 81f0 	ldmia.w	sp!, {r4, r5, r6, r7, r8, pc}
  s1 = (size_t)(oqp->q_top - oqp->q_wrptr);
 80007b4:	e9d4 6004 	ldrd	r6, r0, [r4, #16]
 80007b8:	4615      	mov	r5, r2
 80007ba:	1a36      	subs	r6, r6, r0
  if (n < s1) {
 80007bc:	42b5      	cmp	r5, r6
 80007be:	d2ec      	bcs.n	800079a <oq_write+0x1a>
    memcpy((void *)oqp->q_wrptr, (const void *)bp, n);
 80007c0:	462a      	mov	r2, r5
 80007c2:	4639      	mov	r1, r7
 80007c4:	f7ff fe12 	bl	80003ec <memcpy>
    oqp->q_wrptr += n;
 80007c8:	6962      	ldr	r2, [r4, #20]
 80007ca:	442a      	add	r2, r5
 80007cc:	e7eb      	b.n	80007a6 <oq_write+0x26>
    s2 = n - s1;
 80007ce:	eba5 0806 	sub.w	r8, r5, r6
    memcpy((void *)oqp->q_wrptr, (const void *)bp, s1);
 80007d2:	4632      	mov	r2, r6
 80007d4:	4639      	mov	r1, r7
 80007d6:	f7ff fe09 	bl	80003ec <memcpy>
    memcpy((void *)oqp->q_buffer, (const void *)bp, s2);
 80007da:	4642      	mov	r2, r8
 80007dc:	19b9      	adds	r1, r7, r6
 80007de:	68e0      	ldr	r0, [r4, #12]
 80007e0:	f7ff fe04 	bl	80003ec <memcpy>
    oqp->q_wrptr = oqp->q_buffer + s2;
 80007e4:	68e2      	ldr	r2, [r4, #12]
 80007e6:	4442      	add	r2, r8
 80007e8:	e7dd      	b.n	80007a6 <oq_write+0x26>
 80007ea:	bf00      	nop
 80007ec:	0000      	movs	r0, r0
	...

080007f0 <iqObjectInit>:
 * @param[in] link      application defined pointer
 *
 * @init
 */
void iqObjectInit(input_queue_t *iqp, uint8_t *bp, size_t size,
                  qnotify_t infy, void *link) {
 80007f0:	b410      	push	{r4}
  osalThreadQueueObjectInit(&iqp->q_waiting);
  iqp->q_counter = 0;
  iqp->q_buffer  = bp;
  iqp->q_rdptr   = bp;
  iqp->q_wrptr   = bp;
  iqp->q_top     = bp + size;
 80007f2:	440a      	add	r2, r1
  iqp->q_counter = 0;
 80007f4:	2400      	movs	r4, #0
  iqp->q_notify  = infy;
 80007f6:	61c3      	str	r3, [r0, #28]
                  qnotify_t infy, void *link) {
 80007f8:	9b01      	ldr	r3, [sp, #4]
  iqp->q_counter = 0;
 80007fa:	6084      	str	r4, [r0, #8]
  iqp->q_buffer  = bp;
 80007fc:	60c1      	str	r1, [r0, #12]
  iqp->q_link    = link;
}
 80007fe:	bc10      	pop	{r4}
  iqp->q_top     = bp + size;
 8000800:	6102      	str	r2, [r0, #16]
  iqp->q_link    = link;
 8000802:	6203      	str	r3, [r0, #32]
 * @notapi
 */
static inline void ch_queue_init(ch_queue_t *qp) {

  qp->next = qp;
  qp->prev = qp;
 8000804:	e9c0 0000 	strd	r0, r0, [r0]
  iqp->q_wrptr   = bp;
 8000808:	e9c0 1105 	strd	r1, r1, [r0, #20]
}
 800080c:	4770      	bx	lr
 800080e:	bf00      	nop

08000810 <iqPutI>:
msg_t iqPutI(input_queue_t *iqp, uint8_t b) {

  osalDbgCheckClassI();

  /* Queue space check.*/
  if (!iqIsFullI(iqp)) {
 8000810:	e9d0 3205 	ldrd	r3, r2, [r0, #20]
 8000814:	4293      	cmp	r3, r2
 8000816:	d011      	beq.n	800083c <iqPutI+0x2c>
    iqp->q_counter++;
 8000818:	6882      	ldr	r2, [r0, #8]
msg_t iqPutI(input_queue_t *iqp, uint8_t b) {
 800081a:	b510      	push	{r4, lr}
    iqp->q_counter++;
 800081c:	3201      	adds	r2, #1
    *iqp->q_wrptr++ = b;
 800081e:	1c5c      	adds	r4, r3, #1
    iqp->q_counter++;
 8000820:	6082      	str	r2, [r0, #8]
    *iqp->q_wrptr++ = b;
 8000822:	6144      	str	r4, [r0, #20]
 8000824:	7019      	strb	r1, [r3, #0]
    if (iqp->q_wrptr >= iqp->q_top) {
 8000826:	e9d0 3204 	ldrd	r3, r2, [r0, #16]
 800082a:	429a      	cmp	r2, r3
 800082c:	d301      	bcc.n	8000832 <iqPutI+0x22>
      iqp->q_wrptr = iqp->q_buffer;
 800082e:	68c3      	ldr	r3, [r0, #12]
 8000830:	6143      	str	r3, [r0, #20]
 *
 * @iclass
 */
static inline void osalThreadDequeueNextI(threads_queue_t *tqp, msg_t msg) {

  chThdDequeueNextI(tqp, msg);
 8000832:	2100      	movs	r1, #0
 8000834:	f003 fda4 	bl	8004380 <chThdDequeueNextI>
    }

    osalThreadDequeueNextI(&iqp->q_waiting, MSG_OK);

    return MSG_OK;
 8000838:	2000      	movs	r0, #0
  }

  return MSG_TIMEOUT;
}
 800083a:	bd10      	pop	{r4, pc}
  if (!iqIsFullI(iqp)) {
 800083c:	6882      	ldr	r2, [r0, #8]
 800083e:	2a00      	cmp	r2, #0
 8000840:	d0ea      	beq.n	8000818 <iqPutI+0x8>
  return MSG_TIMEOUT;
 8000842:	f04f 30ff 	mov.w	r0, #4294967295
}
 8000846:	4770      	bx	lr
	...

08000850 <iqGetTimeout>:
 * @retval MSG_TIMEOUT  if the specified time expired.
 * @retval MSG_RESET    if the queue has been reset.
 *
 * @api
 */
msg_t iqGetTimeout(input_queue_t *iqp, sysinterval_t timeout) {
 8000850:	b570      	push	{r4, r5, r6, lr}
  __ASM volatile ("MSR basepri, %0" : : "r" (basePri) : "memory");
 8000852:	2330      	movs	r3, #48	; 0x30
 8000854:	4605      	mov	r5, r0
 8000856:	460e      	mov	r6, r1
 8000858:	f383 8811 	msr	BASEPRI, r3
}
 800085c:	e003      	b.n	8000866 <iqGetTimeout+0x16>
  return chThdEnqueueTimeoutS(tqp, timeout);
 800085e:	f003 fd77 	bl	8004350 <chThdEnqueueTimeoutS>
  osalSysLock();

  /* Waiting until there is a character available or a timeout occurs.*/
  while (iqIsEmptyI(iqp)) {
    msg_t msg = osalThreadEnqueueTimeoutS(&iqp->q_waiting, timeout);
    if (msg < MSG_OK) {
 8000862:	2800      	cmp	r0, #0
 8000864:	db19      	blt.n	800089a <iqGetTimeout+0x4a>
  while (iqIsEmptyI(iqp)) {
 8000866:	68ac      	ldr	r4, [r5, #8]
 8000868:	4631      	mov	r1, r6
 800086a:	4628      	mov	r0, r5
 800086c:	2c00      	cmp	r4, #0
 800086e:	d0f6      	beq.n	800085e <iqGetTimeout+0xe>
      return msg;
    }
  }

  /* Getting the character from the queue.*/
  iqp->q_counter--;
 8000870:	68ab      	ldr	r3, [r5, #8]
  b = *iqp->q_rdptr++;
 8000872:	69a9      	ldr	r1, [r5, #24]
  iqp->q_counter--;
 8000874:	3b01      	subs	r3, #1
  b = *iqp->q_rdptr++;
 8000876:	1c4a      	adds	r2, r1, #1
  iqp->q_counter--;
 8000878:	60ab      	str	r3, [r5, #8]
  if (iqp->q_rdptr >= iqp->q_top) {
 800087a:	692b      	ldr	r3, [r5, #16]
  b = *iqp->q_rdptr++;
 800087c:	61aa      	str	r2, [r5, #24]
  if (iqp->q_rdptr >= iqp->q_top) {
 800087e:	429a      	cmp	r2, r3
  b = *iqp->q_rdptr++;
 8000880:	780c      	ldrb	r4, [r1, #0]
  if (iqp->q_rdptr >= iqp->q_top) {
 8000882:	d301      	bcc.n	8000888 <iqGetTimeout+0x38>
    iqp->q_rdptr = iqp->q_buffer;
 8000884:	68eb      	ldr	r3, [r5, #12]
 8000886:	61ab      	str	r3, [r5, #24]
  }

  /* Inform the low side that the queue has at least one slot available.*/
  if (iqp->q_notify != NULL) {
 8000888:	69eb      	ldr	r3, [r5, #28]
 800088a:	b10b      	cbz	r3, 8000890 <iqGetTimeout+0x40>
    iqp->q_notify(iqp);
 800088c:	4628      	mov	r0, r5
 800088e:	4798      	blx	r3
 8000890:	2300      	movs	r3, #0
 8000892:	f383 8811 	msr	BASEPRI, r3
  }

  osalSysUnlock();

  return (msg_t)b;
 8000896:	4620      	mov	r0, r4
}
 8000898:	bd70      	pop	{r4, r5, r6, pc}
 800089a:	f384 8811 	msr	BASEPRI, r4
 800089e:	bd70      	pop	{r4, r5, r6, pc}

080008a0 <iqReadTimeout>:
 * @return              The number of bytes effectively transferred.
 *
 * @api
 */
size_t iqReadTimeout(input_queue_t *iqp, uint8_t *bp,
                     size_t n, sysinterval_t timeout) {
 80008a0:	e92d 4ff0 	stmdb	sp!, {r4, r5, r6, r7, r8, r9, sl, fp, lr}
 80008a4:	b083      	sub	sp, #12
 80008a6:	469a      	mov	sl, r3
  qnotify_t nfy = iqp->q_notify;
 80008a8:	69c6      	ldr	r6, [r0, #28]
 80008aa:	2730      	movs	r7, #48	; 0x30
                     size_t n, sysinterval_t timeout) {
 80008ac:	9201      	str	r2, [sp, #4]
 80008ae:	f387 8811 	msr	BASEPRI, r7

  osalDbgCheck(n > 0U);

  osalSysLock();

  while (n > 0U) {
 80008b2:	b1ca      	cbz	r2, 80008e8 <iqReadTimeout+0x48>
 80008b4:	4683      	mov	fp, r0
 80008b6:	460d      	mov	r5, r1
 80008b8:	f8dd 9004 	ldr.w	r9, [sp, #4]
 80008bc:	f04f 0800 	mov.w	r8, #0
    size_t done;

    done = iq_read(iqp, bp, n);
 80008c0:	464a      	mov	r2, r9
 80008c2:	4629      	mov	r1, r5
 80008c4:	4658      	mov	r0, fp
 80008c6:	f7ff ff2b 	bl	8000720 <iq_read>
 80008ca:	4604      	mov	r4, r0
    }
    else {
      /* Inform the low side that the queue has at least one empty slot
         available.*/
      if (nfy != NULL) {
        nfy(iqp);
 80008cc:	4658      	mov	r0, fp
    if (done == (size_t)0) {
 80008ce:	b194      	cbz	r4, 80008f6 <iqReadTimeout+0x56>
      if (nfy != NULL) {
 80008d0:	b106      	cbz	r6, 80008d4 <iqReadTimeout+0x34>
        nfy(iqp);
 80008d2:	47b0      	blx	r6
 80008d4:	f388 8811 	msr	BASEPRI, r8
      }

      /* Giving a preemption chance in a controlled point.*/
      osalSysUnlock();

      n  -= done;
 80008d8:	eba9 0904 	sub.w	r9, r9, r4
      bp += done;
 80008dc:	4425      	add	r5, r4
 80008de:	f387 8811 	msr	BASEPRI, r7
  while (n > 0U) {
 80008e2:	f1b9 0f00 	cmp.w	r9, #0
 80008e6:	d1eb      	bne.n	80008c0 <iqReadTimeout+0x20>
 80008e8:	9801      	ldr	r0, [sp, #4]
 80008ea:	2300      	movs	r3, #0
 80008ec:	f383 8811 	msr	BASEPRI, r3
    }
  }

  osalSysUnlock();
  return max - n;
}
 80008f0:	b003      	add	sp, #12
 80008f2:	e8bd 8ff0 	ldmia.w	sp!, {r4, r5, r6, r7, r8, r9, sl, fp, pc}
 80008f6:	4651      	mov	r1, sl
 80008f8:	f003 fd2a 	bl	8004350 <chThdEnqueueTimeoutS>
      if (msg != MSG_OK) {
 80008fc:	2800      	cmp	r0, #0
 80008fe:	d0df      	beq.n	80008c0 <iqReadTimeout+0x20>
  return max - n;
 8000900:	9b01      	ldr	r3, [sp, #4]
 8000902:	eba3 0009 	sub.w	r0, r3, r9
 8000906:	2300      	movs	r3, #0
 8000908:	f383 8811 	msr	BASEPRI, r3
}
 800090c:	b003      	add	sp, #12
 800090e:	e8bd 8ff0 	ldmia.w	sp!, {r4, r5, r6, r7, r8, r9, sl, fp, pc}
 8000912:	bf00      	nop
	...

08000920 <oqObjectInit>:
 * @param[in] link      application defined pointer
 *
 * @init
 */
void oqObjectInit(output_queue_t *oqp, uint8_t *bp, size_t size,
                  qnotify_t onfy, void *link) {
 8000920:	b410      	push	{r4}
  oqp->q_counter = size;
  oqp->q_buffer  = bp;
  oqp->q_rdptr   = bp;
  oqp->q_wrptr   = bp;
  oqp->q_top     = bp + size;
  oqp->q_notify  = onfy;
 8000922:	61c3      	str	r3, [r0, #28]
  oqp->q_top     = bp + size;
 8000924:	188c      	adds	r4, r1, r2
                  qnotify_t onfy, void *link) {
 8000926:	9b01      	ldr	r3, [sp, #4]
  oqp->q_top     = bp + size;
 8000928:	6104      	str	r4, [r0, #16]
  oqp->q_counter = size;
 800092a:	6082      	str	r2, [r0, #8]
  oqp->q_link    = link;
}
 800092c:	bc10      	pop	{r4}
  oqp->q_buffer  = bp;
 800092e:	60c1      	str	r1, [r0, #12]
  oqp->q_link    = link;
 8000930:	6203      	str	r3, [r0, #32]
 8000932:	e9c0 0000 	strd	r0, r0, [r0]
  oqp->q_wrptr   = bp;
 8000936:	e9c0 1105 	strd	r1, r1, [r0, #20]
}
 800093a:	4770      	bx	lr
 800093c:	0000      	movs	r0, r0
	...

08000940 <oqPutTimeout>:
 * @retval MSG_TIMEOUT  if the specified time expired.
 * @retval MSG_RESET    if the queue has been reset.
 *
 * @api
 */
msg_t oqPutTimeout(output_queue_t *oqp, uint8_t b, sysinterval_t timeout) {
 8000940:	b5f8      	push	{r3, r4, r5, r6, r7, lr}
 8000942:	2330      	movs	r3, #48	; 0x30
 8000944:	4604      	mov	r4, r0
 8000946:	460f      	mov	r7, r1
 8000948:	4616      	mov	r6, r2
 800094a:	f383 8811 	msr	BASEPRI, r3
}
 800094e:	e003      	b.n	8000958 <oqPutTimeout+0x18>
  return chThdEnqueueTimeoutS(tqp, timeout);
 8000950:	f003 fcfe 	bl	8004350 <chThdEnqueueTimeoutS>
  osalSysLock();

  /* Waiting until there is a slot available or a timeout occurs.*/
  while (oqIsFullI(oqp)) {
    msg_t msg = osalThreadEnqueueTimeoutS(&oqp->q_waiting, timeout);
    if (msg < MSG_OK) {
 8000954:	2800      	cmp	r0, #0
 8000956:	db19      	blt.n	800098c <oqPutTimeout+0x4c>
  while (oqIsFullI(oqp)) {
 8000958:	68a5      	ldr	r5, [r4, #8]
 800095a:	4631      	mov	r1, r6
 800095c:	4620      	mov	r0, r4
 800095e:	2d00      	cmp	r5, #0
 8000960:	d0f6      	beq.n	8000950 <oqPutTimeout+0x10>
    }
  }

  /* Putting the character into the queue.*/
  oqp->q_counter--;
  *oqp->q_wrptr++ = b;
 8000962:	6962      	ldr	r2, [r4, #20]
  oqp->q_counter--;
 8000964:	68a3      	ldr	r3, [r4, #8]
  *oqp->q_wrptr++ = b;
 8000966:	1c51      	adds	r1, r2, #1
  oqp->q_counter--;
 8000968:	3b01      	subs	r3, #1
  *oqp->q_wrptr++ = b;
 800096a:	6161      	str	r1, [r4, #20]
  oqp->q_counter--;
 800096c:	60a3      	str	r3, [r4, #8]
  *oqp->q_wrptr++ = b;
 800096e:	7017      	strb	r7, [r2, #0]
  if (oqp->q_wrptr >= oqp->q_top) {
 8000970:	e9d4 3204 	ldrd	r3, r2, [r4, #16]
 8000974:	429a      	cmp	r2, r3
 8000976:	d301      	bcc.n	800097c <oqPutTimeout+0x3c>
    oqp->q_wrptr = oqp->q_buffer;
 8000978:	68e3      	ldr	r3, [r4, #12]
 800097a:	6163      	str	r3, [r4, #20]
  }

  /* Inform the low side that the queue has at least one character available.*/
  if (oqp->q_notify != NULL) {
 800097c:	69e3      	ldr	r3, [r4, #28]
 800097e:	b10b      	cbz	r3, 8000984 <oqPutTimeout+0x44>
    oqp->q_notify(oqp);
 8000980:	4620      	mov	r0, r4
 8000982:	4798      	blx	r3
 8000984:	2000      	movs	r0, #0
 8000986:	f380 8811 	msr	BASEPRI, r0
  }

  osalSysUnlock();

  return MSG_OK;
}
 800098a:	bdf8      	pop	{r3, r4, r5, r6, r7, pc}
 800098c:	f385 8811 	msr	BASEPRI, r5
 8000990:	bdf8      	pop	{r3, r4, r5, r6, r7, pc}
 8000992:	bf00      	nop
	...

080009a0 <oqGetI>:
msg_t oqGetI(output_queue_t *oqp) {

  osalDbgCheckClassI();

  /* Queue data check.*/
  if (!oqIsEmptyI(oqp)) {
 80009a0:	e9d0 2305 	ldrd	r2, r3, [r0, #20]
 80009a4:	429a      	cmp	r2, r3
 80009a6:	d010      	beq.n	80009ca <oqGetI+0x2a>
    uint8_t b;

    oqp->q_counter++;
 80009a8:	6882      	ldr	r2, [r0, #8]
    b = *oqp->q_rdptr++;
 80009aa:	1c59      	adds	r1, r3, #1
    oqp->q_counter++;
 80009ac:	3201      	adds	r2, #1
msg_t oqGetI(output_queue_t *oqp) {
 80009ae:	b510      	push	{r4, lr}
    b = *oqp->q_rdptr++;
 80009b0:	6181      	str	r1, [r0, #24]
    oqp->q_counter++;
 80009b2:	6082      	str	r2, [r0, #8]
    b = *oqp->q_rdptr++;
 80009b4:	781c      	ldrb	r4, [r3, #0]
    if (oqp->q_rdptr >= oqp->q_top) {
 80009b6:	6903      	ldr	r3, [r0, #16]
 80009b8:	4299      	cmp	r1, r3
 80009ba:	d301      	bcc.n	80009c0 <oqGetI+0x20>
      oqp->q_rdptr = oqp->q_buffer;
 80009bc:	68c3      	ldr	r3, [r0, #12]
 80009be:	6183      	str	r3, [r0, #24]
  chThdDequeueNextI(tqp, msg);
 80009c0:	2100      	movs	r1, #0
 80009c2:	f003 fcdd 	bl	8004380 <chThdDequeueNextI>
    }

    osalThreadDequeueNextI(&oqp->q_waiting, MSG_OK);

    return (msg_t)b;
 80009c6:	4620      	mov	r0, r4
  }

  return MSG_TIMEOUT;
}
 80009c8:	bd10      	pop	{r4, pc}
  if (!oqIsEmptyI(oqp)) {
 80009ca:	6882      	ldr	r2, [r0, #8]
 80009cc:	2a00      	cmp	r2, #0
 80009ce:	d0eb      	beq.n	80009a8 <oqGetI+0x8>
  return MSG_TIMEOUT;
 80009d0:	f04f 30ff 	mov.w	r0, #4294967295
}
 80009d4:	4770      	bx	lr
 80009d6:	bf00      	nop
	...

080009e0 <oqWriteTimeout>:
 * @return              The number of bytes effectively transferred.
 *
 * @api
 */
size_t oqWriteTimeout(output_queue_t *oqp, const uint8_t *bp,
                      size_t n, sysinterval_t timeout) {
 80009e0:	e92d 4ff0 	stmdb	sp!, {r4, r5, r6, r7, r8, r9, sl, fp, lr}
 80009e4:	b083      	sub	sp, #12
 80009e6:	469a      	mov	sl, r3
  qnotify_t nfy = oqp->q_notify;
 80009e8:	69c6      	ldr	r6, [r0, #28]
 80009ea:	2730      	movs	r7, #48	; 0x30
                      size_t n, sysinterval_t timeout) {
 80009ec:	9201      	str	r2, [sp, #4]
 80009ee:	f387 8811 	msr	BASEPRI, r7

  osalDbgCheck(n > 0U);

  osalSysLock();

  while (n > 0U) {
 80009f2:	b1ca      	cbz	r2, 8000a28 <oqWriteTimeout+0x48>
 80009f4:	4683      	mov	fp, r0
 80009f6:	460d      	mov	r5, r1
 80009f8:	f8dd 9004 	ldr.w	r9, [sp, #4]
 80009fc:	f04f 0800 	mov.w	r8, #0
    size_t done;

    done = oq_write(oqp, bp, n);
 8000a00:	464a      	mov	r2, r9
 8000a02:	4629      	mov	r1, r5
 8000a04:	4658      	mov	r0, fp
 8000a06:	f7ff febb 	bl	8000780 <oq_write>
 8000a0a:	4604      	mov	r4, r0
    }
    else {
      /* Inform the low side that the queue has at least one character
         available.*/
      if (nfy != NULL) {
        nfy(oqp);
 8000a0c:	4658      	mov	r0, fp
    if (done == (size_t)0) {
 8000a0e:	b194      	cbz	r4, 8000a36 <oqWriteTimeout+0x56>
      if (nfy != NULL) {
 8000a10:	b106      	cbz	r6, 8000a14 <oqWriteTimeout+0x34>
        nfy(oqp);
 8000a12:	47b0      	blx	r6
 8000a14:	f388 8811 	msr	BASEPRI, r8
      }

      /* Giving a preemption chance in a controlled point.*/
      osalSysUnlock();

      n  -= done;
 8000a18:	eba9 0904 	sub.w	r9, r9, r4
      bp += done;
 8000a1c:	4425      	add	r5, r4
 8000a1e:	f387 8811 	msr	BASEPRI, r7
  while (n > 0U) {
 8000a22:	f1b9 0f00 	cmp.w	r9, #0
 8000a26:	d1eb      	bne.n	8000a00 <oqWriteTimeout+0x20>
 8000a28:	9801      	ldr	r0, [sp, #4]
 8000a2a:	2300      	movs	r3, #0
 8000a2c:	f383 8811 	msr	BASEPRI, r3
    }
  }

  osalSysUnlock();
  return max - n;
}
 8000a30:	b003      	add	sp, #12
 8000a32:	e8bd 8ff0 	ldmia.w	sp!, {r4, r5, r6, r7, r8, r9, sl, fp, pc}
  return chThdEnqueueTimeoutS(tqp, timeout);
 8000a36:	4651      	mov	r1, sl
 8000a38:	f003 fc8a 	bl	8004350 <chThdEnqueueTimeoutS>
      if (msg != MSG_OK) {
 8000a3c:	2800      	cmp	r0, #0
 8000a3e:	d0df      	beq.n	8000a00 <oqWriteTimeout+0x20>
  return max - n;
 8000a40:	9b01      	ldr	r3, [sp, #4]
 8000a42:	eba3 0009 	sub.w	r0, r3, r9
 8000a46:	2300      	movs	r3, #0
 8000a48:	f383 8811 	msr	BASEPRI, r3
}
 8000a4c:	b003      	add	sp, #12
 8000a4e:	e8bd 8ff0 	ldmia.w	sp!, {r4, r5, r6, r7, r8, r9, sl, fp, pc}
 8000a52:	bf00      	nop
	...

08000a60 <adcInit>:
 *
 * @init
 */
void adcInit(void) {

  adc_lld_init();
 8000a60:	f000 bdde 	b.w	8001620 <adc_lld_init>
	...

08000a70 <adcObjectInit>:
 *
 * @param[out] adcp     pointer to the @p ADCDriver object
 *
 * @init
 */
void adcObjectInit(ADCDriver *adcp) {
 8000a70:	4603      	mov	r3, r0

  adcp->state    = ADC_STOP;
  adcp->config   = NULL;
 8000a72:	2200      	movs	r2, #0
  adcp->state    = ADC_STOP;
 8000a74:	2101      	movs	r1, #1
 * @init
 */
static inline void osalMutexObjectInit(mutex_t *mp) {

#if CH_CFG_USE_MUTEXES
  chMtxObjectInit(mp);
 8000a76:	3018      	adds	r0, #24
  adcp->samples  = NULL;
  adcp->depth    = 0;
  adcp->grpp     = NULL;
#if ADC_USE_WAIT == TRUE
  adcp->thread   = NULL;
 8000a78:	615a      	str	r2, [r3, #20]
  adcp->state    = ADC_STOP;
 8000a7a:	7019      	strb	r1, [r3, #0]
  adcp->samples  = NULL;
 8000a7c:	e9c3 2201 	strd	r2, r2, [r3, #4]
  adcp->grpp     = NULL;
 8000a80:	e9c3 2203 	strd	r2, r2, [r3, #12]
 8000a84:	f003 bccc 	b.w	8004420 <chMtxObjectInit>
	...

08000a90 <i2cInit>:
 *
 * @init
 */
void i2cInit(void) {

  i2c_lld_init();
 8000a90:	f001 bc3e 	b.w	8002310 <i2c_lld_init>
	...

08000aa0 <i2cObjectInit>:
 *
 * @param[out] i2cp     pointer to the @p I2CDriver object
 *
 * @init
 */
void i2cObjectInit(I2CDriver *i2cp) {
 8000aa0:	4603      	mov	r3, r0

  i2cp->state  = I2C_STOP;
 8000aa2:	2101      	movs	r1, #1
  i2cp->config = NULL;
 8000aa4:	2200      	movs	r2, #0
 8000aa6:	300c      	adds	r0, #12
  i2cp->state  = I2C_STOP;
 8000aa8:	7019      	strb	r1, [r3, #0]
  i2cp->config = NULL;
 8000aaa:	605a      	str	r2, [r3, #4]
 8000aac:	f003 bcb8 	b.w	8004420 <chMtxObjectInit>

08000ab0 <mmcInit>:
 *
 * @init
 */
void mmcInit(void) {

}
 8000ab0:	4770      	bx	lr
 8000ab2:	bf00      	nop
	...

08000ac0 <saiStart>:
 * @param[in] config    pointer to the @p SAIConfig object
 * @return              The operation status.
 *
 * @api
 */
msg_t saiStart(SAIDriver *saip, const SAIConfig *config) {
 8000ac0:	b510      	push	{r4, lr}
 8000ac2:	2330      	movs	r3, #48	; 0x30
 8000ac4:	4604      	mov	r4, r0
 8000ac6:	f383 8811 	msr	BASEPRI, r3

  osalSysLock();
  osalDbgAssert((saip->state == SAI_STOP) || (saip->state == SAI_READY),
                "invalid state");

  saip->config = config;
 8000aca:	6041      	str	r1, [r0, #4]
  }
  else {
    saip->state = SAI_STOP;
  }
#else
  sai_lld_start(saip);
 8000acc:	f002 fb98 	bl	8003200 <sai_lld_start>
  saip->state = SAI_READY;
 8000ad0:	2302      	movs	r3, #2
 8000ad2:	2000      	movs	r0, #0
 8000ad4:	7023      	strb	r3, [r4, #0]
 8000ad6:	f380 8811 	msr	BASEPRI, r0
#endif

  osalSysUnlock();

  return msg;
}
 8000ada:	bd10      	pop	{r4, pc}
 8000adc:	0000      	movs	r0, r0
	...

08000ae0 <saiSetBuffers>:
 8000ae0:	f04f 0c30 	mov.w	ip, #48	; 0x30
 * @api
 */
void saiSetBuffers(SAIDriver *saip,
                   const void *tx_buffer,
                   void *rx_buffer,
                   size_t size) {
 8000ae4:	b508      	push	{r3, lr}
 8000ae6:	f38c 8811 	msr	BASEPRI, ip
  osalDbgCheck(saip != NULL);

  osalSysLock();
  osalDbgAssert(saip->state == SAI_READY, "not ready");

  sai_lld_set_buffers(saip, tx_buffer, rx_buffer, size);
 8000aea:	f002 fc11 	bl	8003310 <sai_lld_set_buffers>
 8000aee:	2300      	movs	r3, #0
 8000af0:	f383 8811 	msr	BASEPRI, r3

  osalSysUnlock();
}
 8000af4:	bd08      	pop	{r3, pc}
 8000af6:	bf00      	nop
	...

08000b00 <saiStartExchange>:
 *
 * @param[in] saip      pointer to the @p SAIDriver object
 *
 * @api
 */
void saiStartExchange(SAIDriver *saip) {
 8000b00:	b510      	push	{r4, lr}
 8000b02:	2330      	movs	r3, #48	; 0x30
 8000b04:	4604      	mov	r4, r0
 8000b06:	f383 8811 	msr	BASEPRI, r3

  osalDbgCheck(saip != NULL);

  osalSysLock();
  osalDbgAssert(saip->state == SAI_READY, "not ready");
  saiStartExchangeI(saip);
 8000b0a:	f002 fc89 	bl	8003420 <sai_lld_start_exchange>
 8000b0e:	2203      	movs	r2, #3
 8000b10:	2300      	movs	r3, #0
 8000b12:	7022      	strb	r2, [r4, #0]
 8000b14:	f383 8811 	msr	BASEPRI, r3
  osalSysUnlock();
}
 8000b18:	bd10      	pop	{r4, pc}
 8000b1a:	bf00      	nop
 8000b1c:	0000      	movs	r0, r0
	...

08000b20 <saiStopExchange>:
 *
 * @param[in] saip      pointer to the @p SAIDriver object
 *
 * @api
 */
void saiStopExchange(SAIDriver *saip) {
 8000b20:	b510      	push	{r4, lr}
 8000b22:	2330      	movs	r3, #48	; 0x30
 8000b24:	4604      	mov	r4, r0
 8000b26:	f383 8811 	msr	BASEPRI, r3

  osalDbgCheck(saip != NULL);

  osalSysLock();
  osalDbgAssert(saip->state == SAI_ACTIVE, "not active");
  saiStopExchangeI(saip);
 8000b2a:	f002 fc89 	bl	8003440 <sai_lld_stop_exchange>
 8000b2e:	2202      	movs	r2, #2
 8000b30:	2300      	movs	r3, #0
 8000b32:	7022      	strb	r2, [r4, #0]
 8000b34:	f383 8811 	msr	BASEPRI, r3
  osalSysUnlock();
}
 8000b38:	bd10      	pop	{r4, pc}
 8000b3a:	bf00      	nop
 8000b3c:	0000      	movs	r0, r0
	...

08000b40 <_readt>:
}

static size_t _readt(void *ip, uint8_t *bp, size_t n,
                     sysinterval_t timeout) {

  return iqReadTimeout(&((SerialDriver *)ip)->iqueue, bp, n, timeout);
 8000b40:	300c      	adds	r0, #12
 8000b42:	f7ff bead 	b.w	80008a0 <iqReadTimeout>
 8000b46:	bf00      	nop
	...

08000b50 <_read>:
  return iqReadTimeout(&((SerialDriver *)ip)->iqueue, bp,
 8000b50:	f04f 33ff 	mov.w	r3, #4294967295
 8000b54:	300c      	adds	r0, #12
 8000b56:	f7ff bea3 	b.w	80008a0 <iqReadTimeout>
 8000b5a:	bf00      	nop
 8000b5c:	0000      	movs	r0, r0
	...

08000b60 <_writet>:
  return oqWriteTimeout(&((SerialDriver *)ip)->oqueue, bp, n, timeout);
 8000b60:	3030      	adds	r0, #48	; 0x30
 8000b62:	f7ff bf3d 	b.w	80009e0 <oqWriteTimeout>
 8000b66:	bf00      	nop
	...

08000b70 <_write>:
  return oqWriteTimeout(&((SerialDriver *)ip)->oqueue, bp,
 8000b70:	f04f 33ff 	mov.w	r3, #4294967295
 8000b74:	3030      	adds	r0, #48	; 0x30
 8000b76:	f7ff bf33 	b.w	80009e0 <oqWriteTimeout>
 8000b7a:	bf00      	nop
 8000b7c:	0000      	movs	r0, r0
	...

08000b80 <_gett>:
  return iqGetTimeout(&((SerialDriver *)ip)->iqueue, timeout);
 8000b80:	300c      	adds	r0, #12
 8000b82:	f7ff be65 	b.w	8000850 <iqGetTimeout>
 8000b86:	bf00      	nop
	...

08000b90 <_get>:
  return iqGetTimeout(&((SerialDriver *)ip)->iqueue, TIME_INFINITE);
 8000b90:	f04f 31ff 	mov.w	r1, #4294967295
 8000b94:	300c      	adds	r0, #12
 8000b96:	f7ff be5b 	b.w	8000850 <iqGetTimeout>
 8000b9a:	bf00      	nop
 8000b9c:	0000      	movs	r0, r0
	...

08000ba0 <_putt>:
  return oqPutTimeout(&((SerialDriver *)ip)->oqueue, b, timeout);
 8000ba0:	3030      	adds	r0, #48	; 0x30
 8000ba2:	f7ff becd 	b.w	8000940 <oqPutTimeout>
 8000ba6:	bf00      	nop
	...

08000bb0 <_put>:
  return oqPutTimeout(&((SerialDriver *)ip)->oqueue, b, TIME_INFINITE);
 8000bb0:	f04f 32ff 	mov.w	r2, #4294967295
 8000bb4:	3030      	adds	r0, #48	; 0x30
 8000bb6:	f7ff bec3 	b.w	8000940 <oqPutTimeout>
 8000bba:	bf00      	nop
 8000bbc:	0000      	movs	r0, r0
	...

08000bc0 <_ctl>:
 8000bc0:	2901      	cmp	r1, #1
 8000bc2:	bf14      	ite	ne
 8000bc4:	f06f 0013 	mvnne.w	r0, #19
 8000bc8:	2000      	moveq	r0, #0
 8000bca:	4770      	bx	lr
 8000bcc:	0000      	movs	r0, r0
	...

08000bd0 <sdInit>:
 *
 * @init
 */
void sdInit(void) {

  sd_lld_init();
 8000bd0:	f002 bcbe 	b.w	8003550 <sd_lld_init>
	...

08000be0 <sdObjectInit>:
  oqObjectInit(&sdp->oqueue, sdp->ob, SERIAL_BUFFERS_SIZE, onotify, sdp);
}
#else
void sdObjectInit(SerialDriver *sdp) {

  sdp->vmt = &vmt;
 8000be0:	4603      	mov	r3, r0
 8000be2:	4903      	ldr	r1, [pc, #12]	; (8000bf0 <sdObjectInit+0x10>)
  osalEventObjectInit(&sdp->event);
  sdp->state = SD_STOP;
 8000be4:	2201      	movs	r2, #1
  sdp->vmt = &vmt;
 8000be6:	f843 1b04 	str.w	r1, [r3], #4
  sdp->state = SD_STOP;
 8000bea:	7202      	strb	r2, [r0, #8]
 *
 * @init
 */
static inline void chEvtObjectInit(event_source_t *esp) {

  esp->next = (event_listener_t *)esp;
 8000bec:	6043      	str	r3, [r0, #4]
}
 8000bee:	4770      	bx	lr
 8000bf0:	0800492c 	.word	0x0800492c
	...

08000c00 <sdStart>:
 *                      configuration is used.
 * @return              The operation status.
 *
 * @api
 */
msg_t sdStart(SerialDriver *sdp, const SerialConfig *config) {
 8000c00:	b510      	push	{r4, lr}
 8000c02:	2330      	movs	r3, #48	; 0x30
 8000c04:	4604      	mov	r4, r0
 8000c06:	f383 8811 	msr	BASEPRI, r3
  }
  else {
    sdp->state = SD_STOP;
  }
#else
  sd_lld_start(sdp, config);
 8000c0a:	f002 fcf1 	bl	80035f0 <sd_lld_start>
  sdp->state = SD_READY;
 8000c0e:	2302      	movs	r3, #2
 8000c10:	2000      	movs	r0, #0
 8000c12:	7223      	strb	r3, [r4, #8]
 8000c14:	f380 8811 	msr	BASEPRI, r0
#endif

  osalSysUnlock();

  return msg;
}
 8000c18:	bd10      	pop	{r4, pc}
 8000c1a:	bf00      	nop
 8000c1c:	0000      	movs	r0, r0
	...

08000c20 <sdIncomingDataI>:
 * @param[in] sdp       pointer to a @p SerialDriver structure
 * @param[in] b         the byte to be written in the driver's Input Queue
 *
 * @iclass
 */
void sdIncomingDataI(SerialDriver *sdp, uint8_t b) {
 8000c20:	b538      	push	{r3, r4, r5, lr}

  osalDbgCheckClassI();
  osalDbgCheck(sdp != NULL);

  if (iqIsEmptyI(&sdp->iqueue))
 8000c22:	6943      	ldr	r3, [r0, #20]
void sdIncomingDataI(SerialDriver *sdp, uint8_t b) {
 8000c24:	4604      	mov	r4, r0
 8000c26:	460d      	mov	r5, r1
  if (iqIsEmptyI(&sdp->iqueue))
 8000c28:	b13b      	cbz	r3, 8000c3a <sdIncomingDataI+0x1a>
    chnAddFlagsI(sdp, CHN_INPUT_AVAILABLE);
  if (iqPutI(&sdp->iqueue, b) < MSG_OK)
 8000c2a:	4629      	mov	r1, r5
 8000c2c:	f104 000c 	add.w	r0, r4, #12
 8000c30:	f7ff fdee 	bl	8000810 <iqPutI>
 8000c34:	2800      	cmp	r0, #0
 8000c36:	db0b      	blt.n	8000c50 <sdIncomingDataI+0x30>
    chnAddFlagsI(sdp, SD_QUEUE_FULL_ERROR);
}
 8000c38:	bd38      	pop	{r3, r4, r5, pc}
  chEvtBroadcastFlagsI(esp, flags);
 8000c3a:	2104      	movs	r1, #4
 8000c3c:	4408      	add	r0, r1
 8000c3e:	f003 fbf7 	bl	8004430 <chEvtBroadcastFlagsI>
  if (iqPutI(&sdp->iqueue, b) < MSG_OK)
 8000c42:	4629      	mov	r1, r5
 8000c44:	f104 000c 	add.w	r0, r4, #12
 8000c48:	f7ff fde2 	bl	8000810 <iqPutI>
 8000c4c:	2800      	cmp	r0, #0
 8000c4e:	daf3      	bge.n	8000c38 <sdIncomingDataI+0x18>
 8000c50:	1d20      	adds	r0, r4, #4
 8000c52:	f44f 6100 	mov.w	r1, #2048	; 0x800
}
 8000c56:	e8bd 4038 	ldmia.w	sp!, {r3, r4, r5, lr}
 8000c5a:	f003 bbe9 	b.w	8004430 <chEvtBroadcastFlagsI>
 8000c5e:	bf00      	nop

08000c60 <spiInit>:
 *
 * @init
 */
void spiInit(void) {

  spi_lld_init();
 8000c60:	f002 ba36 	b.w	80030d0 <spi_lld_init>
	...

08000c70 <spiObjectInit>:
 *
 * @param[out] spip             pointer to the @p SPIDriver object
 *
 * @init
 */
void spiObjectInit(SPIDriver *spip) {
 8000c70:	4603      	mov	r3, r0

  spip->state           = SPI_STOP;
  spip->config          = NULL;
 8000c72:	2200      	movs	r2, #0
  spip->state           = SPI_STOP;
 8000c74:	2101      	movs	r1, #1
  chMtxObjectInit(mp);
 8000c76:	300c      	adds	r0, #12
 8000c78:	7019      	strb	r1, [r3, #0]
#if SPI_USE_SYNCHRONIZATION == TRUE
  spip->sync_transfer   = NULL;
 8000c7a:	e9c3 2201 	strd	r2, r2, [r3, #4]
 8000c7e:	f003 bbcf 	b.w	8004420 <chMtxObjectInit>
 8000c82:	bf00      	nop
	...

08000c90 <usbInit>:
 *
 * @init
 */
void usbInit(void) {

  usb_lld_init();
 8000c90:	f001 bbb6 	b.w	8002400 <usb_lld_init>
	...

08000ca0 <usbObjectInit>:
 * @init
 */
void usbObjectInit(USBDriver *usbp) {
  unsigned i;

  usbp->state        = USB_STOP;
 8000ca0:	2301      	movs	r3, #1
  usbp->config       = NULL;
  for (i = 0; i < (unsigned)USB_MAX_ENDPOINTS; i++) {
    usbp->in_params[i]  = NULL;
 8000ca2:	2240      	movs	r2, #64	; 0x40
 8000ca4:	2100      	movs	r1, #0
void usbObjectInit(USBDriver *usbp) {
 8000ca6:	b510      	push	{r4, lr}
 8000ca8:	4604      	mov	r4, r0
  usbp->state        = USB_STOP;
 8000caa:	f800 3b30 	strb.w	r3, [r0], #48
    usbp->in_params[i]  = NULL;
 8000cae:	f003 fdab 	bl	8004808 <memset>
  usbp->config       = NULL;
 8000cb2:	2300      	movs	r3, #0
    usbp->out_params[i] = NULL;
  }
  usbp->transmitting = 0;
 8000cb4:	e9c4 3301 	strd	r3, r3, [r4, #4]
  usbp->receiving    = 0;
}
 8000cb8:	bd10      	pop	{r4, pc}
 8000cba:	bf00      	nop
 8000cbc:	0000      	movs	r0, r0
	...

08000cc0 <_usb_reset>:
 *
 * @param[in] usbp      pointer to the @p USBDriver object
 *
 * @notapi
 */
void _usb_reset(USBDriver *usbp) {
 8000cc0:	b570      	push	{r4, r5, r6, lr}
  unsigned i;

  /* State transition.*/
  usbp->state         = USB_READY;
 8000cc2:	2302      	movs	r3, #2

  /* Resetting internal state.*/
  usbp->status        = 0;
 8000cc4:	2500      	movs	r5, #0
void _usb_reset(USBDriver *usbp) {
 8000cc6:	4604      	mov	r4, r0
        osalThreadResumeI(&usbp->epc[i]->out_state->thread, MSG_RESET);
      }
      osalSysUnlockFromISR();
    }
#endif
    usbp->epc[i] = NULL;
 8000cc8:	2224      	movs	r2, #36	; 0x24
  usbp->state         = USB_READY;
 8000cca:	7003      	strb	r3, [r0, #0]
    usbp->epc[i] = NULL;
 8000ccc:	4629      	mov	r1, r5
  usbp->status        = 0;
 8000cce:	f8c0 5088 	str.w	r5, [r0, #136]	; 0x88
    usbp->epc[i] = NULL;
 8000cd2:	300c      	adds	r0, #12
  usbp->transmitting  = 0;
 8000cd4:	f840 5c04 	str.w	r5, [r0, #-4]
    usbp->epc[i] = NULL;
 8000cd8:	f003 fd96 	bl	8004808 <memset>

  /* EP0 state machine initialization.*/
  usbp->ep0state = USB_EP0_STP_WAITING;

  /* Low level reset.*/
  usb_lld_reset(usbp);
 8000cdc:	4620      	mov	r0, r4
  usbp->ep0state = USB_EP0_STP_WAITING;
 8000cde:	f884 5070 	strb.w	r5, [r4, #112]	; 0x70
  usb_lld_reset(usbp);
 8000ce2:	f001 fb9d 	bl	8002420 <usb_lld_reset>

  /* Notification of reset event.*/
  _usb_isr_invoke_event_cb(usbp, USB_EVENT_RESET);
 8000ce6:	6863      	ldr	r3, [r4, #4]
 8000ce8:	681b      	ldr	r3, [r3, #0]
 8000cea:	b123      	cbz	r3, 8000cf6 <_usb_reset+0x36>
 8000cec:	4629      	mov	r1, r5
 8000cee:	4620      	mov	r0, r4
}
 8000cf0:	e8bd 4070 	ldmia.w	sp!, {r4, r5, r6, lr}
  _usb_isr_invoke_event_cb(usbp, USB_EVENT_RESET);
 8000cf4:	4718      	bx	r3
}
 8000cf6:	bd70      	pop	{r4, r5, r6, pc}
	...

08000d00 <_usb_suspend>:
 * @notapi
 */
void _usb_suspend(USBDriver *usbp) {

  /* It could happen that multiple suspend events are triggered.*/
  if (usbp->state != USB_SUSPENDED) {
 8000d00:	7803      	ldrb	r3, [r0, #0]
 8000d02:	2b05      	cmp	r3, #5
 8000d04:	d00d      	beq.n	8000d22 <_usb_suspend+0x22>

    /* State transition, saving the current state.*/
    usbp->saved_state = usbp->state;
    usbp->state       = USB_SUSPENDED;
 8000d06:	2105      	movs	r1, #5

    /* Notification of suspend event.*/
    _usb_isr_invoke_event_cb(usbp, USB_EVENT_SUSPEND);
 8000d08:	6842      	ldr	r2, [r0, #4]
    usbp->saved_state = usbp->state;
 8000d0a:	f880 308c 	strb.w	r3, [r0, #140]	; 0x8c
    usbp->state       = USB_SUSPENDED;
 8000d0e:	7001      	strb	r1, [r0, #0]
    _usb_isr_invoke_event_cb(usbp, USB_EVENT_SUSPEND);
 8000d10:	6813      	ldr	r3, [r2, #0]
void _usb_suspend(USBDriver *usbp) {
 8000d12:	b510      	push	{r4, lr}
 8000d14:	4604      	mov	r4, r0
    _usb_isr_invoke_event_cb(usbp, USB_EVENT_SUSPEND);
 8000d16:	b10b      	cbz	r3, 8000d1c <_usb_suspend+0x1c>
 8000d18:	2104      	movs	r1, #4
 8000d1a:	4798      	blx	r3

    /* Terminating all pending transactions.*/
    usbp->transmitting  = 0;
 8000d1c:	2300      	movs	r3, #0
 8000d1e:	60a3      	str	r3, [r4, #8]
        }
      }
    }
  #endif
  }
}
 8000d20:	bd10      	pop	{r4, pc}
 8000d22:	4770      	bx	lr
	...

08000d30 <_usb_wakeup>:
 * @notapi
 */
void _usb_wakeup(USBDriver *usbp) {

  /* It could happen that multiple waakeup events are triggered.*/
  if (usbp->state == USB_SUSPENDED) {
 8000d30:	7801      	ldrb	r1, [r0, #0]
 8000d32:	2905      	cmp	r1, #5
 8000d34:	d000      	beq.n	8000d38 <_usb_wakeup+0x8>
    usbp->state = usbp->saved_state;

    /* Notification of suspend event.*/
    _usb_isr_invoke_event_cb(usbp, USB_EVENT_WAKEUP);
  }
}
 8000d36:	4770      	bx	lr
    usbp->state = usbp->saved_state;
 8000d38:	f890 c08c 	ldrb.w	ip, [r0, #140]	; 0x8c
    _usb_isr_invoke_event_cb(usbp, USB_EVENT_WAKEUP);
 8000d3c:	6842      	ldr	r2, [r0, #4]
    usbp->state = usbp->saved_state;
 8000d3e:	f880 c000 	strb.w	ip, [r0]
    _usb_isr_invoke_event_cb(usbp, USB_EVENT_WAKEUP);
 8000d42:	6813      	ldr	r3, [r2, #0]
 8000d44:	2b00      	cmp	r3, #0
 8000d46:	d0f6      	beq.n	8000d36 <_usb_wakeup+0x6>
 8000d48:	4718      	bx	r3
 8000d4a:	bf00      	nop
 8000d4c:	0000      	movs	r0, r0
	...

08000d50 <_usb_ep0setup>:
 * @param[in] usbp      pointer to the @p USBDriver object
 * @param[in] ep        endpoint number, always zero
 *
 * @notapi
 */
void _usb_ep0setup(USBDriver *usbp, usbep_t ep) {
 8000d50:	b570      	push	{r4, r5, r6, lr}
  size_t max;

  /* Is the EP0 state machine in the correct state for handling setup
     packets?*/
  if (usbp->ep0state != USB_EP0_STP_WAITING) {
 8000d52:	f890 3070 	ldrb.w	r3, [r0, #112]	; 0x70
void _usb_ep0setup(USBDriver *usbp, usbep_t ep) {
 8000d56:	4604      	mov	r4, r0
  if (usbp->ep0state != USB_EP0_STP_WAITING) {
 8000d58:	b113      	cbz	r3, 8000d60 <_usb_ep0setup+0x10>
    /* This is unexpected could require handling with a warning event.*/
    /* CHTODO: handling here.*/

    /* Resetting the EP0 state machine and going ahead.*/
    usbp->ep0state = USB_EP0_STP_WAITING;
 8000d5a:	2300      	movs	r3, #0
 8000d5c:	f880 3070 	strb.w	r3, [r0, #112]	; 0x70
  }

  /* Reading the setup data into the driver buffer.*/
  usbReadSetup(usbp, ep, usbp->setup);
 8000d60:	f104 0280 	add.w	r2, r4, #128	; 0x80
 8000d64:	4620      	mov	r0, r4
 8000d66:	f001 fbfb 	bl	8002560 <usb_lld_read_setup>

  /* First verify if the application has an handler installed for this
     request.*/
  /*lint -save -e9007 [13.5] No side effects, it is intentional.*/
  if ((usbp->config->requests_hook_cb == NULL) ||
 8000d6a:	6863      	ldr	r3, [r4, #4]
 8000d6c:	689b      	ldr	r3, [r3, #8]
 8000d6e:	b353      	cbz	r3, 8000dc6 <_usb_ep0setup+0x76>
      !(usbp->config->requests_hook_cb(usbp))) {
 8000d70:	4620      	mov	r0, r4
 8000d72:	4798      	blx	r3
  if ((usbp->config->requests_hook_cb == NULL) ||
 8000d74:	b338      	cbz	r0, 8000dc6 <_usb_ep0setup+0x76>
  /* Transfer preparation. The request handler must have populated
     correctly the fields ep0next, ep0n and ep0endcb using the macro
     usbSetupTransfer().*/
  max = (size_t)get_hword(&usbp->setup[6]);
  /* The transfer size cannot exceed the specified amount.*/
  if (usbp->ep0n > max) {
 8000d76:	6fa5      	ldr	r5, [r4, #120]	; 0x78
 8000d78:	f894 3080 	ldrb.w	r3, [r4, #128]	; 0x80
  max = (size_t)get_hword(&usbp->setup[6]);
 8000d7c:	f8b4 2086 	ldrh.w	r2, [r4, #134]	; 0x86
  if (usbp->ep0n > max) {
 8000d80:	42aa      	cmp	r2, r5
    usbp->ep0n = max;
  }
  if ((usbp->setup[0] & USB_RTYPE_DIR_MASK) == USB_RTYPE_DIR_DEV2HOST) {
 8000d82:	bf2c      	ite	cs
 8000d84:	462a      	movcs	r2, r5
    usbp->ep0n = max;
 8000d86:	67a2      	strcc	r2, [r4, #120]	; 0x78
  if ((usbp->setup[0] & USB_RTYPE_DIR_MASK) == USB_RTYPE_DIR_DEV2HOST) {
 8000d88:	0619      	lsls	r1, r3, #24
 8000d8a:	f100 80da 	bmi.w	8000f42 <_usb_ep0setup+0x1f2>
#endif
    }
  }
  else {
    /* OUT phase.*/
    if (usbp->ep0n != 0U) {
 8000d8e:	2a00      	cmp	r2, #0
 8000d90:	f000 808d 	beq.w	8000eae <_usb_ep0setup+0x15e>
      /* Starts the receive phase.*/
      usbp->ep0state = USB_EP0_OUT_RX;
 8000d94:	2215      	movs	r2, #21
 8000d96:	2330      	movs	r3, #48	; 0x30
 8000d98:	f884 2070 	strb.w	r2, [r4, #112]	; 0x70
 8000d9c:	f383 8811 	msr	BASEPRI, r3
  usbp->receiving |= (uint16_t)((unsigned)1U << (unsigned)ep);
 8000da0:	8962      	ldrh	r2, [r4, #10]
  usb_lld_start_out(usbp, ep);
 8000da2:	4620      	mov	r0, r4
  osp = usbp->epc[ep]->out_state;
 8000da4:	68e3      	ldr	r3, [r4, #12]
  usbp->receiving |= (uint16_t)((unsigned)1U << (unsigned)ep);
 8000da6:	f042 0201 	orr.w	r2, r2, #1
  osp = usbp->epc[ep]->out_state;
 8000daa:	699b      	ldr	r3, [r3, #24]
  usbp->receiving |= (uint16_t)((unsigned)1U << (unsigned)ep);
 8000dac:	8162      	strh	r2, [r4, #10]
      osalSysLockFromISR();
      usbStartReceiveI(usbp, 0, (uint8_t *)usbp->ep0next, usbp->ep0n);
 8000dae:	e9d4 511d 	ldrd	r5, r1, [r4, #116]	; 0x74
  osp->rxcnt  = 0;
 8000db2:	2400      	movs	r4, #0
  osp->rxsize = n;
 8000db4:	6019      	str	r1, [r3, #0]
  osp->rxbuf  = buf;
 8000db6:	609d      	str	r5, [r3, #8]
  usb_lld_start_out(usbp, ep);
 8000db8:	4621      	mov	r1, r4
  osp->rxcnt  = 0;
 8000dba:	605c      	str	r4, [r3, #4]
  usb_lld_start_out(usbp, ep);
 8000dbc:	f001 fbe0 	bl	8002580 <usb_lld_start_out>
 8000dc0:	f384 8811 	msr	BASEPRI, r4
#else
      usb_lld_end_setup(usbp, ep);
#endif
    }
  }
}
 8000dc4:	bd70      	pop	{r4, r5, r6, pc}
    if (((usbp->setup[0] & USB_RTYPE_TYPE_MASK) != USB_RTYPE_TYPE_STD) ||
 8000dc6:	f894 3080 	ldrb.w	r3, [r4, #128]	; 0x80
 8000dca:	f013 0660 	ands.w	r6, r3, #96	; 0x60
 8000dce:	4618      	mov	r0, r3
 8000dd0:	d11c      	bne.n	8000e0c <_usb_ep0setup+0xbc>
           ((uint32_t)usbp->setup[1] << 8U))) {
 8000dd2:	f894 2081 	ldrb.w	r2, [r4, #129]	; 0x81
  switch ((((uint32_t)usbp->setup[0] & (USB_RTYPE_RECIPIENT_MASK |
 8000dd6:	f003 057f 	and.w	r5, r3, #127	; 0x7f
                                        USB_RTYPE_TYPE_MASK)) |
 8000dda:	ea45 2502 	orr.w	r5, r5, r2, lsl #8
  switch ((((uint32_t)usbp->setup[0] & (USB_RTYPE_RECIPIENT_MASK |
 8000dde:	f240 3202 	movw	r2, #770	; 0x302
 8000de2:	4295      	cmp	r5, r2
 8000de4:	f000 8151 	beq.w	800108a <_usb_ep0setup+0x33a>
 8000de8:	d840      	bhi.n	8000e6c <_usb_ep0setup+0x11c>
 8000dea:	f5b5 7f80 	cmp.w	r5, #256	; 0x100
 8000dee:	f000 8108 	beq.w	8001002 <_usb_ep0setup+0x2b2>
 8000df2:	d91d      	bls.n	8000e30 <_usb_ep0setup+0xe0>
 8000df4:	f5b5 7f81 	cmp.w	r5, #258	; 0x102
 8000df8:	f000 8112 	beq.w	8001020 <_usb_ep0setup+0x2d0>
 8000dfc:	f5b5 7f40 	cmp.w	r5, #768	; 0x300
 8000e00:	d104      	bne.n	8000e0c <_usb_ep0setup+0xbc>
    if (usbp->setup[2] == USB_FEATURE_DEVICE_REMOTE_WAKEUP) {
 8000e02:	f894 3082 	ldrb.w	r3, [r4, #130]	; 0x82
 8000e06:	2b01      	cmp	r3, #1
 8000e08:	f000 80d3 	beq.w	8000fb2 <_usb_ep0setup+0x262>
      usb_lld_stall_in(usbp, 0);
 8000e0c:	2100      	movs	r1, #0
 8000e0e:	4620      	mov	r0, r4
 8000e10:	f001 ff2e 	bl	8002c70 <usb_lld_stall_in>
      usb_lld_stall_out(usbp, 0);
 8000e14:	2100      	movs	r1, #0
 8000e16:	4620      	mov	r0, r4
 8000e18:	f001 ff1a 	bl	8002c50 <usb_lld_stall_out>
      _usb_isr_invoke_event_cb(usbp, USB_EVENT_STALLED);
 8000e1c:	6863      	ldr	r3, [r4, #4]
 8000e1e:	681b      	ldr	r3, [r3, #0]
 8000e20:	b113      	cbz	r3, 8000e28 <_usb_ep0setup+0xd8>
 8000e22:	2106      	movs	r1, #6
 8000e24:	4620      	mov	r0, r4
 8000e26:	4798      	blx	r3
      usbp->ep0state = USB_EP0_ERROR;
 8000e28:	2306      	movs	r3, #6
 8000e2a:	f884 3070 	strb.w	r3, [r4, #112]	; 0x70
}
 8000e2e:	bd70      	pop	{r4, r5, r6, pc}
  switch ((((uint32_t)usbp->setup[0] & (USB_RTYPE_RECIPIENT_MASK |
 8000e30:	2d01      	cmp	r5, #1
 8000e32:	d061      	beq.n	8000ef8 <_usb_ep0setup+0x1a8>
 8000e34:	2d02      	cmp	r5, #2
 8000e36:	d151      	bne.n	8000edc <_usb_ep0setup+0x18c>
    if ((usbp->setup[4] & 0x80U) != 0U) {
 8000e38:	f994 3084 	ldrsb.w	r3, [r4, #132]	; 0x84
      switch (usb_lld_get_status_in(usbp, usbp->setup[4] & 0x0FU)) {
 8000e3c:	4620      	mov	r0, r4
    if ((usbp->setup[4] & 0x80U) != 0U) {
 8000e3e:	f894 1084 	ldrb.w	r1, [r4, #132]	; 0x84
 8000e42:	2b00      	cmp	r3, #0
      switch (usb_lld_get_status_in(usbp, usbp->setup[4] & 0x0FU)) {
 8000e44:	f001 010f 	and.w	r1, r1, #15
    if ((usbp->setup[4] & 0x80U) != 0U) {
 8000e48:	f2c0 80ac 	blt.w	8000fa4 <_usb_ep0setup+0x254>
      switch (usb_lld_get_status_out(usbp, usbp->setup[4] & 0x0FU)) {
 8000e4c:	f001 fb68 	bl	8002520 <usb_lld_get_status_out>
 8000e50:	2801      	cmp	r0, #1
 8000e52:	f000 80ac 	beq.w	8000fae <_usb_ep0setup+0x25e>
 8000e56:	2802      	cmp	r0, #2
 8000e58:	d1d8      	bne.n	8000e0c <_usb_ep0setup+0xbc>
        usbSetupTransfer(usbp, (uint8_t *)active_status, 2, NULL);
 8000e5a:	499a      	ldr	r1, [pc, #616]	; (80010c4 <_usb_ep0setup+0x374>)
 8000e5c:	2302      	movs	r3, #2
 8000e5e:	2200      	movs	r2, #0
 8000e60:	e9c4 131d 	strd	r1, r3, [r4, #116]	; 0x74
 8000e64:	67e2      	str	r2, [r4, #124]	; 0x7c
        return true;
 8000e66:	f894 3080 	ldrb.w	r3, [r4, #128]	; 0x80
 8000e6a:	e787      	b.n	8000d7c <_usb_ep0setup+0x2c>
  switch ((((uint32_t)usbp->setup[0] & (USB_RTYPE_RECIPIENT_MASK |
 8000e6c:	f5b5 6f00 	cmp.w	r5, #2048	; 0x800
 8000e70:	f000 8103 	beq.w	800107a <_usb_ep0setup+0x32a>
 8000e74:	d947      	bls.n	8000f06 <_usb_ep0setup+0x1b6>
 8000e76:	f5b5 6f10 	cmp.w	r5, #2304	; 0x900
 8000e7a:	d139      	bne.n	8000ef0 <_usb_ep0setup+0x1a0>
      if (usbp->state == USB_ACTIVE) {
 8000e7c:	7823      	ldrb	r3, [r4, #0]
 8000e7e:	2b04      	cmp	r3, #4
 8000e80:	f000 80a1 	beq.w	8000fc6 <_usb_ep0setup+0x276>
      if (usbp->setup[2] != 0U) {
 8000e84:	f894 3082 	ldrb.w	r3, [r4, #130]	; 0x82
 8000e88:	b14b      	cbz	r3, 8000e9e <_usb_ep0setup+0x14e>
        usbp->state = USB_ACTIVE;
 8000e8a:	2104      	movs	r1, #4
        _usb_isr_invoke_event_cb(usbp, USB_EVENT_CONFIGURED);
 8000e8c:	6862      	ldr	r2, [r4, #4]
        usbp->configuration = usbp->setup[2];
 8000e8e:	f884 308b 	strb.w	r3, [r4, #139]	; 0x8b
        usbp->state = USB_ACTIVE;
 8000e92:	7021      	strb	r1, [r4, #0]
        _usb_isr_invoke_event_cb(usbp, USB_EVENT_CONFIGURED);
 8000e94:	6813      	ldr	r3, [r2, #0]
 8000e96:	b113      	cbz	r3, 8000e9e <_usb_ep0setup+0x14e>
 8000e98:	2102      	movs	r1, #2
 8000e9a:	4620      	mov	r0, r4
 8000e9c:	4798      	blx	r3
    usbSetupTransfer(usbp, NULL, 0, NULL);
 8000e9e:	2300      	movs	r3, #0
  if ((usbp->setup[0] & USB_RTYPE_DIR_MASK) == USB_RTYPE_DIR_DEV2HOST) {
 8000ea0:	f894 0080 	ldrb.w	r0, [r4, #128]	; 0x80
    usbSetupTransfer(usbp, NULL, 0, NULL);
 8000ea4:	e9c4 331d 	strd	r3, r3, [r4, #116]	; 0x74
 8000ea8:	67e3      	str	r3, [r4, #124]	; 0x7c
  if ((usbp->setup[0] & USB_RTYPE_DIR_MASK) == USB_RTYPE_DIR_DEV2HOST) {
 8000eaa:	0603      	lsls	r3, r0, #24
 8000eac:	d463      	bmi.n	8000f76 <_usb_ep0setup+0x226>
      usbp->ep0state = USB_EP0_IN_SENDING_STS;
 8000eae:	220b      	movs	r2, #11
 8000eb0:	2330      	movs	r3, #48	; 0x30
 8000eb2:	f884 2070 	strb.w	r2, [r4, #112]	; 0x70
 8000eb6:	f383 8811 	msr	BASEPRI, r3
  usbp->transmitting |= (uint16_t)((unsigned)1U << (unsigned)ep);
 8000eba:	8922      	ldrh	r2, [r4, #8]
  isp->txbuf  = buf;
 8000ebc:	2500      	movs	r5, #0
  isp = usbp->epc[ep]->in_state;
 8000ebe:	68e3      	ldr	r3, [r4, #12]
  usb_lld_start_in(usbp, ep);
 8000ec0:	4620      	mov	r0, r4
  usbp->transmitting |= (uint16_t)((unsigned)1U << (unsigned)ep);
 8000ec2:	f042 0201 	orr.w	r2, r2, #1
  usb_lld_start_in(usbp, ep);
 8000ec6:	4629      	mov	r1, r5
  isp = usbp->epc[ep]->in_state;
 8000ec8:	695b      	ldr	r3, [r3, #20]
  usbp->transmitting |= (uint16_t)((unsigned)1U << (unsigned)ep);
 8000eca:	8122      	strh	r2, [r4, #8]
  isp->txbuf  = buf;
 8000ecc:	609d      	str	r5, [r3, #8]
  isp->txcnt  = 0;
 8000ece:	e9c3 5500 	strd	r5, r5, [r3]
  usb_lld_start_in(usbp, ep);
 8000ed2:	f001 fbed 	bl	80026b0 <usb_lld_start_in>
 8000ed6:	f385 8811 	msr	BASEPRI, r5
}
 8000eda:	bd70      	pop	{r4, r5, r6, pc}
  switch ((((uint32_t)usbp->setup[0] & (USB_RTYPE_RECIPIENT_MASK |
 8000edc:	2d00      	cmp	r5, #0
 8000ede:	d195      	bne.n	8000e0c <_usb_ep0setup+0xbc>
    usbSetupTransfer(usbp, (uint8_t *)&usbp->status, 2, NULL);
 8000ee0:	2202      	movs	r2, #2
 8000ee2:	f104 0188 	add.w	r1, r4, #136	; 0x88
 8000ee6:	67e5      	str	r5, [r4, #124]	; 0x7c
 8000ee8:	6761      	str	r1, [r4, #116]	; 0x74
 8000eea:	4615      	mov	r5, r2
 8000eec:	67a2      	str	r2, [r4, #120]	; 0x78
    return true;
 8000eee:	e745      	b.n	8000d7c <_usb_ep0setup+0x2c>
  switch ((((uint32_t)usbp->setup[0] & (USB_RTYPE_RECIPIENT_MASK |
 8000ef0:	f640 4202 	movw	r2, #3074	; 0xc02
 8000ef4:	4295      	cmp	r5, r2
 8000ef6:	d189      	bne.n	8000e0c <_usb_ep0setup+0xbc>
    usbSetupTransfer(usbp, (uint8_t *)zero_status, 2, NULL);
 8000ef8:	2502      	movs	r5, #2
 8000efa:	4973      	ldr	r1, [pc, #460]	; (80010c8 <_usb_ep0setup+0x378>)
 8000efc:	2200      	movs	r2, #0
 8000efe:	e9c4 151d 	strd	r1, r5, [r4, #116]	; 0x74
 8000f02:	67e2      	str	r2, [r4, #124]	; 0x7c
    return true;
 8000f04:	e73a      	b.n	8000d7c <_usb_ep0setup+0x2c>
  switch ((((uint32_t)usbp->setup[0] & (USB_RTYPE_RECIPIENT_MASK |
 8000f06:	f5b5 6fa0 	cmp.w	r5, #1280	; 0x500
 8000f0a:	f000 809f 	beq.w	800104c <_usb_ep0setup+0x2fc>
 8000f0e:	f5a5 65c0 	sub.w	r5, r5, #1536	; 0x600
 8000f12:	2d01      	cmp	r5, #1
 8000f14:	f63f af7a 	bhi.w	8000e0c <_usb_ep0setup+0xbc>
    dp = usbp->config->get_descriptor_cb(usbp, usbp->setup[3],
 8000f18:	6861      	ldr	r1, [r4, #4]
 8000f1a:	4620      	mov	r0, r4
 8000f1c:	f8b4 3084 	ldrh.w	r3, [r4, #132]	; 0x84
 8000f20:	684d      	ldr	r5, [r1, #4]
 8000f22:	f894 2082 	ldrb.w	r2, [r4, #130]	; 0x82
 8000f26:	f894 1083 	ldrb.w	r1, [r4, #131]	; 0x83
 8000f2a:	47a8      	blx	r5
    if (dp == NULL) {
 8000f2c:	2800      	cmp	r0, #0
 8000f2e:	f43f af6d 	beq.w	8000e0c <_usb_ep0setup+0xbc>
    usbSetupTransfer(usbp, (uint8_t *)dp->ud_string, dp->ud_size, NULL);
 8000f32:	f894 3080 	ldrb.w	r3, [r4, #128]	; 0x80
 8000f36:	e9d0 5200 	ldrd	r5, r2, [r0]
 8000f3a:	67e6      	str	r6, [r4, #124]	; 0x7c
 8000f3c:	e9c4 251d 	strd	r2, r5, [r4, #116]	; 0x74
    return true;
 8000f40:	e71c      	b.n	8000d7c <_usb_ep0setup+0x2c>
    if (usbp->ep0n != 0U) {
 8000f42:	b1c2      	cbz	r2, 8000f76 <_usb_ep0setup+0x226>
      usbp->ep0state = USB_EP0_IN_TX;
 8000f44:	2209      	movs	r2, #9
 8000f46:	2330      	movs	r3, #48	; 0x30
 8000f48:	f884 2070 	strb.w	r2, [r4, #112]	; 0x70
 8000f4c:	f383 8811 	msr	BASEPRI, r3
  usbp->transmitting |= (uint16_t)((unsigned)1U << (unsigned)ep);
 8000f50:	8922      	ldrh	r2, [r4, #8]
  usb_lld_start_in(usbp, ep);
 8000f52:	4620      	mov	r0, r4
  isp = usbp->epc[ep]->in_state;
 8000f54:	68e3      	ldr	r3, [r4, #12]
  usbp->transmitting |= (uint16_t)((unsigned)1U << (unsigned)ep);
 8000f56:	f042 0201 	orr.w	r2, r2, #1
  isp = usbp->epc[ep]->in_state;
 8000f5a:	695b      	ldr	r3, [r3, #20]
  usbp->transmitting |= (uint16_t)((unsigned)1U << (unsigned)ep);
 8000f5c:	8122      	strh	r2, [r4, #8]
      usbStartTransmitI(usbp, 0, usbp->ep0next, usbp->ep0n);
 8000f5e:	e9d4 511d 	ldrd	r5, r1, [r4, #116]	; 0x74
  isp->txcnt  = 0;
 8000f62:	2400      	movs	r4, #0
  isp->txsize = n;
 8000f64:	6019      	str	r1, [r3, #0]
  isp->txbuf  = buf;
 8000f66:	609d      	str	r5, [r3, #8]
  usb_lld_start_in(usbp, ep);
 8000f68:	4621      	mov	r1, r4
  isp->txcnt  = 0;
 8000f6a:	605c      	str	r4, [r3, #4]
  usb_lld_start_in(usbp, ep);
 8000f6c:	f001 fba0 	bl	80026b0 <usb_lld_start_in>
 8000f70:	f384 8811 	msr	BASEPRI, r4
}
 8000f74:	bd70      	pop	{r4, r5, r6, pc}
      usbp->ep0state = USB_EP0_OUT_WAITING_STS;
 8000f76:	2214      	movs	r2, #20
 8000f78:	2330      	movs	r3, #48	; 0x30
 8000f7a:	f884 2070 	strb.w	r2, [r4, #112]	; 0x70
 8000f7e:	f383 8811 	msr	BASEPRI, r3
  usbp->receiving |= (uint16_t)((unsigned)1U << (unsigned)ep);
 8000f82:	8962      	ldrh	r2, [r4, #10]
  osp->rxbuf  = buf;
 8000f84:	2500      	movs	r5, #0
  osp = usbp->epc[ep]->out_state;
 8000f86:	68e3      	ldr	r3, [r4, #12]
  usb_lld_start_out(usbp, ep);
 8000f88:	4620      	mov	r0, r4
  usbp->receiving |= (uint16_t)((unsigned)1U << (unsigned)ep);
 8000f8a:	f042 0201 	orr.w	r2, r2, #1
  usb_lld_start_out(usbp, ep);
 8000f8e:	4629      	mov	r1, r5
  osp = usbp->epc[ep]->out_state;
 8000f90:	699b      	ldr	r3, [r3, #24]
  usbp->receiving |= (uint16_t)((unsigned)1U << (unsigned)ep);
 8000f92:	8162      	strh	r2, [r4, #10]
  osp->rxbuf  = buf;
 8000f94:	609d      	str	r5, [r3, #8]
  osp->rxcnt  = 0;
 8000f96:	e9c3 5500 	strd	r5, r5, [r3]
  usb_lld_start_out(usbp, ep);
 8000f9a:	f001 faf1 	bl	8002580 <usb_lld_start_out>
 8000f9e:	f385 8811 	msr	BASEPRI, r5
}
 8000fa2:	bd70      	pop	{r4, r5, r6, pc}
      switch (usb_lld_get_status_in(usbp, usbp->setup[4] & 0x0FU)) {
 8000fa4:	f001 facc 	bl	8002540 <usb_lld_get_status_in>
 8000fa8:	2801      	cmp	r0, #1
 8000faa:	f47f af54 	bne.w	8000e56 <_usb_ep0setup+0x106>
        usbSetupTransfer(usbp, (uint8_t *)halted_status, 2, NULL);
 8000fae:	4947      	ldr	r1, [pc, #284]	; (80010cc <_usb_ep0setup+0x37c>)
 8000fb0:	e754      	b.n	8000e5c <_usb_ep0setup+0x10c>
      usbp->status |= 2U;
 8000fb2:	f8b4 3088 	ldrh.w	r3, [r4, #136]	; 0x88
      usbSetupTransfer(usbp, NULL, 0, NULL);
 8000fb6:	67e6      	str	r6, [r4, #124]	; 0x7c
      usbp->status |= 2U;
 8000fb8:	f043 0302 	orr.w	r3, r3, #2
      usbSetupTransfer(usbp, NULL, 0, NULL);
 8000fbc:	e9c4 661d 	strd	r6, r6, [r4, #116]	; 0x74
      usbp->status |= 2U;
 8000fc0:	f8a4 3088 	strh.w	r3, [r4, #136]	; 0x88
      return true;
 8000fc4:	e771      	b.n	8000eaa <_usb_ep0setup+0x15a>
 8000fc6:	2330      	movs	r3, #48	; 0x30
 8000fc8:	f383 8811 	msr	BASEPRI, r3
  usbp->transmitting &= 1U;
 8000fcc:	68a3      	ldr	r3, [r4, #8]
    usbp->epc[i] = NULL;
 8000fce:	2220      	movs	r2, #32
 8000fd0:	4631      	mov	r1, r6
 8000fd2:	f104 0010 	add.w	r0, r4, #16
  usbp->transmitting &= 1U;
 8000fd6:	f003 1301 	and.w	r3, r3, #65537	; 0x10001
 8000fda:	60a3      	str	r3, [r4, #8]
    usbp->epc[i] = NULL;
 8000fdc:	f003 fc14 	bl	8004808 <memset>
  usb_lld_disable_endpoints(usbp);
 8000fe0:	4620      	mov	r0, r4
 8000fe2:	f001 fa95 	bl	8002510 <usb_lld_disable_endpoints>
 8000fe6:	f386 8811 	msr	BASEPRI, r6
        usbp->state = USB_SELECTED;
 8000fea:	2103      	movs	r1, #3
        _usb_isr_invoke_event_cb(usbp, USB_EVENT_UNCONFIGURED);
 8000fec:	6863      	ldr	r3, [r4, #4]
        usbp->configuration = 0U;
 8000fee:	f884 608b 	strb.w	r6, [r4, #139]	; 0x8b
        usbp->state = USB_SELECTED;
 8000ff2:	7021      	strb	r1, [r4, #0]
        _usb_isr_invoke_event_cb(usbp, USB_EVENT_UNCONFIGURED);
 8000ff4:	681b      	ldr	r3, [r3, #0]
 8000ff6:	2b00      	cmp	r3, #0
 8000ff8:	f43f af44 	beq.w	8000e84 <_usb_ep0setup+0x134>
 8000ffc:	4620      	mov	r0, r4
 8000ffe:	4798      	blx	r3
 8001000:	e740      	b.n	8000e84 <_usb_ep0setup+0x134>
    if (usbp->setup[2] == USB_FEATURE_DEVICE_REMOTE_WAKEUP) {
 8001002:	f894 3082 	ldrb.w	r3, [r4, #130]	; 0x82
 8001006:	2b01      	cmp	r3, #1
 8001008:	f47f af00 	bne.w	8000e0c <_usb_ep0setup+0xbc>
      usbp->status &= ~2U;
 800100c:	f8b4 3088 	ldrh.w	r3, [r4, #136]	; 0x88
      usbSetupTransfer(usbp, NULL, 0, NULL);
 8001010:	67e6      	str	r6, [r4, #124]	; 0x7c
      usbp->status &= ~2U;
 8001012:	f023 0302 	bic.w	r3, r3, #2
      usbSetupTransfer(usbp, NULL, 0, NULL);
 8001016:	e9c4 661d 	strd	r6, r6, [r4, #116]	; 0x74
      usbp->status &= ~2U;
 800101a:	f8a4 3088 	strh.w	r3, [r4, #136]	; 0x88
      return true;
 800101e:	e744      	b.n	8000eaa <_usb_ep0setup+0x15a>
    if (usbp->setup[2] != USB_FEATURE_ENDPOINT_HALT) {
 8001020:	f894 3082 	ldrb.w	r3, [r4, #130]	; 0x82
 8001024:	2b00      	cmp	r3, #0
 8001026:	f47f aef1 	bne.w	8000e0c <_usb_ep0setup+0xbc>
    if ((usbp->setup[4] & 0x0FU) != 0U) {
 800102a:	f894 3084 	ldrb.w	r3, [r4, #132]	; 0x84
 800102e:	f013 010f 	ands.w	r1, r3, #15
 8001032:	d006      	beq.n	8001042 <_usb_ep0setup+0x2f2>
      if ((usbp->setup[4] & 0x80U) != 0U) {
 8001034:	061e      	lsls	r6, r3, #24
        usb_lld_clear_in(usbp, usbp->setup[4] & 0x0FU);
 8001036:	4620      	mov	r0, r4
      if ((usbp->setup[4] & 0x80U) != 0U) {
 8001038:	d439      	bmi.n	80010ae <_usb_ep0setup+0x35e>
        usb_lld_clear_out(usbp, usbp->setup[4] & 0x0FU);
 800103a:	f001 fe29 	bl	8002c90 <usb_lld_clear_out>
  if ((usbp->setup[0] & USB_RTYPE_DIR_MASK) == USB_RTYPE_DIR_DEV2HOST) {
 800103e:	f894 0080 	ldrb.w	r0, [r4, #128]	; 0x80
    usbSetupTransfer(usbp, NULL, 0, NULL);
 8001042:	2300      	movs	r3, #0
 8001044:	e9c4 331d 	strd	r3, r3, [r4, #116]	; 0x74
 8001048:	67e3      	str	r3, [r4, #124]	; 0x7c
    return true;
 800104a:	e72e      	b.n	8000eaa <_usb_ep0setup+0x15a>
    if ((usbp->setup[0] == USB_RTYPE_RECIPIENT_DEVICE) &&
 800104c:	f8b4 3080 	ldrh.w	r3, [r4, #128]	; 0x80
 8001050:	f5b3 6fa0 	cmp.w	r3, #1280	; 0x500
 8001054:	d1f5      	bne.n	8001042 <_usb_ep0setup+0x2f2>
  usbp->address = usbp->setup[2];
 8001056:	f894 3082 	ldrb.w	r3, [r4, #130]	; 0x82
  usb_lld_set_address(usbp);
 800105a:	4620      	mov	r0, r4
  usbp->address = usbp->setup[2];
 800105c:	f884 308a 	strb.w	r3, [r4, #138]	; 0x8a
  usb_lld_set_address(usbp);
 8001060:	f001 fa46 	bl	80024f0 <usb_lld_set_address>
  _usb_isr_invoke_event_cb(usbp, USB_EVENT_ADDRESS);
 8001064:	6863      	ldr	r3, [r4, #4]
 8001066:	681b      	ldr	r3, [r3, #0]
 8001068:	b113      	cbz	r3, 8001070 <_usb_ep0setup+0x320>
 800106a:	2101      	movs	r1, #1
 800106c:	4620      	mov	r0, r4
 800106e:	4798      	blx	r3
  usbp->state = USB_SELECTED;
 8001070:	2303      	movs	r3, #3
  if ((usbp->setup[0] & USB_RTYPE_DIR_MASK) == USB_RTYPE_DIR_DEV2HOST) {
 8001072:	f894 0080 	ldrb.w	r0, [r4, #128]	; 0x80
  usbp->state = USB_SELECTED;
 8001076:	7023      	strb	r3, [r4, #0]
}
 8001078:	e7e3      	b.n	8001042 <_usb_ep0setup+0x2f2>
    usbSetupTransfer(usbp, &usbp->configuration, 1, NULL);
 800107a:	2201      	movs	r2, #1
 800107c:	f104 018b 	add.w	r1, r4, #139	; 0x8b
 8001080:	67e6      	str	r6, [r4, #124]	; 0x7c
 8001082:	4615      	mov	r5, r2
 8001084:	e9c4 121d 	strd	r1, r2, [r4, #116]	; 0x74
    return true;
 8001088:	e678      	b.n	8000d7c <_usb_ep0setup+0x2c>
    if (usbp->setup[2] != USB_FEATURE_ENDPOINT_HALT) {
 800108a:	f894 3082 	ldrb.w	r3, [r4, #130]	; 0x82
 800108e:	2b00      	cmp	r3, #0
 8001090:	f47f aebc 	bne.w	8000e0c <_usb_ep0setup+0xbc>
    if ((usbp->setup[4] & 0x0FU) != 0U) {
 8001094:	f894 3084 	ldrb.w	r3, [r4, #132]	; 0x84
 8001098:	f013 010f 	ands.w	r1, r3, #15
 800109c:	d0d1      	beq.n	8001042 <_usb_ep0setup+0x2f2>
      if ((usbp->setup[4] & 0x80U) != 0U) {
 800109e:	061d      	lsls	r5, r3, #24
        usb_lld_stall_in(usbp, usbp->setup[4] & 0x0FU);
 80010a0:	4620      	mov	r0, r4
      if ((usbp->setup[4] & 0x80U) != 0U) {
 80010a2:	d409      	bmi.n	80010b8 <_usb_ep0setup+0x368>
        usb_lld_stall_out(usbp, usbp->setup[4] & 0x0FU);
 80010a4:	f001 fdd4 	bl	8002c50 <usb_lld_stall_out>
  if ((usbp->setup[0] & USB_RTYPE_DIR_MASK) == USB_RTYPE_DIR_DEV2HOST) {
 80010a8:	f894 0080 	ldrb.w	r0, [r4, #128]	; 0x80
 80010ac:	e7c9      	b.n	8001042 <_usb_ep0setup+0x2f2>
        usb_lld_clear_in(usbp, usbp->setup[4] & 0x0FU);
 80010ae:	f001 fdff 	bl	8002cb0 <usb_lld_clear_in>
  if ((usbp->setup[0] & USB_RTYPE_DIR_MASK) == USB_RTYPE_DIR_DEV2HOST) {
 80010b2:	f894 0080 	ldrb.w	r0, [r4, #128]	; 0x80
 80010b6:	e7c4      	b.n	8001042 <_usb_ep0setup+0x2f2>
        usb_lld_stall_in(usbp, usbp->setup[4] & 0x0FU);
 80010b8:	f001 fdda 	bl	8002c70 <usb_lld_stall_in>
  if ((usbp->setup[0] & USB_RTYPE_DIR_MASK) == USB_RTYPE_DIR_DEV2HOST) {
 80010bc:	f894 0080 	ldrb.w	r0, [r4, #128]	; 0x80
 80010c0:	e7bf      	b.n	8001042 <_usb_ep0setup+0x2f2>
 80010c2:	bf00      	nop
 80010c4:	08004954 	.word	0x08004954
 80010c8:	0800495c 	.word	0x0800495c
 80010cc:	08004958 	.word	0x08004958

080010d0 <_usb_ep0in>:
 * @param[in] usbp      pointer to the @p USBDriver object
 * @param[in] ep        endpoint number, always zero
 *
 * @notapi
 */
void _usb_ep0in(USBDriver *usbp, usbep_t ep) {
 80010d0:	b538      	push	{r3, r4, r5, lr}
  size_t max;

  (void)ep;
  switch (usbp->ep0state) {
 80010d2:	f890 3070 	ldrb.w	r3, [r0, #112]	; 0x70
void _usb_ep0in(USBDriver *usbp, usbep_t ep) {
 80010d6:	4604      	mov	r4, r0
  switch (usbp->ep0state) {
 80010d8:	2b15      	cmp	r3, #21
 80010da:	d827      	bhi.n	800112c <_usb_ep0in+0x5c>
 80010dc:	e8df f003 	tbb	[pc, r3]
 80010e0:	26262627 	.word	0x26262627
 80010e4:	26272626 	.word	0x26272626
 80010e8:	38100b26 	.word	0x38100b26
 80010ec:	26262626 	.word	0x26262626
 80010f0:	26262626 	.word	0x26262626
 80010f4:	2727      	.short	0x2727
  case USB_EP0_IN_TX:
    max = (size_t)get_hword(&usbp->setup[6]);
    /* If the transmitted size is less than the requested size and it is a
       multiple of the maximum packet size then a zero size packet must be
       transmitted.*/
    if ((usbp->ep0n < max) &&
 80010f6:	6f85      	ldr	r5, [r0, #120]	; 0x78
    max = (size_t)get_hword(&usbp->setup[6]);
 80010f8:	f8b0 3086 	ldrh.w	r3, [r0, #134]	; 0x86
    if ((usbp->ep0n < max) &&
 80010fc:	429d      	cmp	r5, r3
 80010fe:	d32e      	bcc.n	800115e <_usb_ep0in+0x8e>
      return;
    }
    /* Falls through.*/
  case USB_EP0_IN_WAITING_TX0:
    /* Transmit phase over, receiving the zero sized status packet.*/
    usbp->ep0state = USB_EP0_OUT_WAITING_STS;
 8001100:	2214      	movs	r2, #20
 8001102:	2330      	movs	r3, #48	; 0x30
 8001104:	f884 2070 	strb.w	r2, [r4, #112]	; 0x70
 8001108:	f383 8811 	msr	BASEPRI, r3
  usbp->receiving |= (uint16_t)((unsigned)1U << (unsigned)ep);
 800110c:	8962      	ldrh	r2, [r4, #10]
  osp->rxbuf  = buf;
 800110e:	2500      	movs	r5, #0
  osp = usbp->epc[ep]->out_state;
 8001110:	68e3      	ldr	r3, [r4, #12]
  usb_lld_start_out(usbp, ep);
 8001112:	4620      	mov	r0, r4
  usbp->receiving |= (uint16_t)((unsigned)1U << (unsigned)ep);
 8001114:	f042 0201 	orr.w	r2, r2, #1
  usb_lld_start_out(usbp, ep);
 8001118:	4629      	mov	r1, r5
  osp = usbp->epc[ep]->out_state;
 800111a:	699b      	ldr	r3, [r3, #24]
  usbp->receiving |= (uint16_t)((unsigned)1U << (unsigned)ep);
 800111c:	8162      	strh	r2, [r4, #10]
  osp->rxbuf  = buf;
 800111e:	609d      	str	r5, [r3, #8]
  osp->rxcnt  = 0;
 8001120:	e9c3 5500 	strd	r5, r5, [r3]
  usb_lld_start_out(usbp, ep);
 8001124:	f001 fa2c 	bl	8002580 <usb_lld_start_out>
 8001128:	f385 8811 	msr	BASEPRI, r5
    usbp->ep0state = USB_EP0_ERROR;
    return;
  default:
    osalDbgAssert(false, "EP0 state machine invalid state");
  }
}
 800112c:	bd38      	pop	{r3, r4, r5, pc}
    usb_lld_stall_in(usbp, 0);
 800112e:	2100      	movs	r1, #0
 8001130:	f001 fd9e 	bl	8002c70 <usb_lld_stall_in>
    usb_lld_stall_out(usbp, 0);
 8001134:	2100      	movs	r1, #0
 8001136:	4620      	mov	r0, r4
 8001138:	f001 fd8a 	bl	8002c50 <usb_lld_stall_out>
    _usb_isr_invoke_event_cb(usbp, USB_EVENT_STALLED);
 800113c:	6863      	ldr	r3, [r4, #4]
 800113e:	681b      	ldr	r3, [r3, #0]
 8001140:	b113      	cbz	r3, 8001148 <_usb_ep0in+0x78>
 8001142:	2106      	movs	r1, #6
 8001144:	4620      	mov	r0, r4
 8001146:	4798      	blx	r3
    usbp->ep0state = USB_EP0_ERROR;
 8001148:	2306      	movs	r3, #6
 800114a:	f884 3070 	strb.w	r3, [r4, #112]	; 0x70
}
 800114e:	bd38      	pop	{r3, r4, r5, pc}
    if (usbp->ep0endcb != NULL) {
 8001150:	6fc3      	ldr	r3, [r0, #124]	; 0x7c
 8001152:	b103      	cbz	r3, 8001156 <_usb_ep0in+0x86>
      usbp->ep0endcb(usbp);
 8001154:	4798      	blx	r3
    usbp->ep0state = USB_EP0_STP_WAITING;
 8001156:	2300      	movs	r3, #0
 8001158:	f884 3070 	strb.w	r3, [r4, #112]	; 0x70
}
 800115c:	bd38      	pop	{r3, r4, r5, pc}
        ((usbp->ep0n % usbp->epc[0]->in_maxsize) == 0U)) {
 800115e:	68c3      	ldr	r3, [r0, #12]
 8001160:	8a1b      	ldrh	r3, [r3, #16]
 8001162:	fbb5 f2f3 	udiv	r2, r5, r3
 8001166:	fb03 5512 	mls	r5, r3, r2, r5
    if ((usbp->ep0n < max) &&
 800116a:	2d00      	cmp	r5, #0
 800116c:	d1c8      	bne.n	8001100 <_usb_ep0in+0x30>
 800116e:	2330      	movs	r3, #48	; 0x30
 8001170:	f383 8811 	msr	BASEPRI, r3
  usbp->transmitting |= (uint16_t)((unsigned)1U << (unsigned)ep);
 8001174:	8902      	ldrh	r2, [r0, #8]
  usb_lld_start_in(usbp, ep);
 8001176:	4629      	mov	r1, r5
  isp = usbp->epc[ep]->in_state;
 8001178:	68c3      	ldr	r3, [r0, #12]
  usbp->transmitting |= (uint16_t)((unsigned)1U << (unsigned)ep);
 800117a:	f042 0201 	orr.w	r2, r2, #1
  isp = usbp->epc[ep]->in_state;
 800117e:	695b      	ldr	r3, [r3, #20]
  usbp->transmitting |= (uint16_t)((unsigned)1U << (unsigned)ep);
 8001180:	8102      	strh	r2, [r0, #8]
  isp->txbuf  = buf;
 8001182:	609d      	str	r5, [r3, #8]
  isp->txcnt  = 0;
 8001184:	e9c3 5500 	strd	r5, r5, [r3]
  usb_lld_start_in(usbp, ep);
 8001188:	f001 fa92 	bl	80026b0 <usb_lld_start_in>
 800118c:	f385 8811 	msr	BASEPRI, r5
      usbp->ep0state = USB_EP0_IN_WAITING_TX0;
 8001190:	230a      	movs	r3, #10
 8001192:	f884 3070 	strb.w	r3, [r4, #112]	; 0x70
}
 8001196:	bd38      	pop	{r3, r4, r5, pc}
	...

080011a0 <_usb_ep0out>:
 * @param[in] usbp      pointer to the @p USBDriver object
 * @param[in] ep        endpoint number, always zero
 *
 * @notapi
 */
void _usb_ep0out(USBDriver *usbp, usbep_t ep) {
 80011a0:	b538      	push	{r3, r4, r5, lr}

  (void)ep;
  switch (usbp->ep0state) {
 80011a2:	f890 3070 	ldrb.w	r3, [r0, #112]	; 0x70
void _usb_ep0out(USBDriver *usbp, usbep_t ep) {
 80011a6:	4604      	mov	r4, r0
  switch (usbp->ep0state) {
 80011a8:	2b15      	cmp	r3, #21
 80011aa:	d821      	bhi.n	80011f0 <_usb_ep0out+0x50>
 80011ac:	e8df f003 	tbb	[pc, r3]
 80011b0:	20202021 	.word	0x20202021
 80011b4:	20212020 	.word	0x20212020
 80011b8:	21212120 	.word	0x21212120
 80011bc:	20202020 	.word	0x20202020
 80011c0:	20202020 	.word	0x20202020
 80011c4:	0b32      	.short	0x0b32
  case USB_EP0_OUT_RX:
    /* Receive phase over, sending the zero sized status packet.*/
    usbp->ep0state = USB_EP0_IN_SENDING_STS;
 80011c6:	220b      	movs	r2, #11
 80011c8:	2330      	movs	r3, #48	; 0x30
 80011ca:	f880 2070 	strb.w	r2, [r0, #112]	; 0x70
 80011ce:	f383 8811 	msr	BASEPRI, r3
  usbp->transmitting |= (uint16_t)((unsigned)1U << (unsigned)ep);
 80011d2:	8902      	ldrh	r2, [r0, #8]
  isp->txbuf  = buf;
 80011d4:	2500      	movs	r5, #0
  isp = usbp->epc[ep]->in_state;
 80011d6:	68c3      	ldr	r3, [r0, #12]
  usbp->transmitting |= (uint16_t)((unsigned)1U << (unsigned)ep);
 80011d8:	f042 0201 	orr.w	r2, r2, #1
  usb_lld_start_in(usbp, ep);
 80011dc:	4629      	mov	r1, r5
  isp = usbp->epc[ep]->in_state;
 80011de:	695b      	ldr	r3, [r3, #20]
  usbp->transmitting |= (uint16_t)((unsigned)1U << (unsigned)ep);
 80011e0:	8102      	strh	r2, [r0, #8]
  isp->txbuf  = buf;
 80011e2:	609d      	str	r5, [r3, #8]
  isp->txcnt  = 0;
 80011e4:	e9c3 5500 	strd	r5, r5, [r3]
  usb_lld_start_in(usbp, ep);
 80011e8:	f001 fa62 	bl	80026b0 <usb_lld_start_in>
 80011ec:	f385 8811 	msr	BASEPRI, r5
    usbp->ep0state = USB_EP0_ERROR;
    return;
  default:
    osalDbgAssert(false, "EP0 state machine invalid state");
  }
}
 80011f0:	bd38      	pop	{r3, r4, r5, pc}
    usb_lld_stall_in(usbp, 0);
 80011f2:	2100      	movs	r1, #0
 80011f4:	f001 fd3c 	bl	8002c70 <usb_lld_stall_in>
    usb_lld_stall_out(usbp, 0);
 80011f8:	2100      	movs	r1, #0
 80011fa:	4620      	mov	r0, r4
 80011fc:	f001 fd28 	bl	8002c50 <usb_lld_stall_out>
    _usb_isr_invoke_event_cb(usbp, USB_EVENT_STALLED);
 8001200:	6863      	ldr	r3, [r4, #4]
 8001202:	681b      	ldr	r3, [r3, #0]
 8001204:	b113      	cbz	r3, 800120c <_usb_ep0out+0x6c>
 8001206:	2106      	movs	r1, #6
 8001208:	4620      	mov	r0, r4
 800120a:	4798      	blx	r3
    usbp->ep0state = USB_EP0_ERROR;
 800120c:	2306      	movs	r3, #6
 800120e:	f884 3070 	strb.w	r3, [r4, #112]	; 0x70
}
 8001212:	bd38      	pop	{r3, r4, r5, pc}
    if (usbGetReceiveTransactionSizeX(usbp, 0) != 0U) {
 8001214:	68c3      	ldr	r3, [r0, #12]
 8001216:	699b      	ldr	r3, [r3, #24]
 8001218:	685b      	ldr	r3, [r3, #4]
 800121a:	2b00      	cmp	r3, #0
 800121c:	d1e8      	bne.n	80011f0 <_usb_ep0out+0x50>
    if (usbp->ep0endcb != NULL) {
 800121e:	6fc3      	ldr	r3, [r0, #124]	; 0x7c
 8001220:	b103      	cbz	r3, 8001224 <_usb_ep0out+0x84>
      usbp->ep0endcb(usbp);
 8001222:	4798      	blx	r3
    usbp->ep0state = USB_EP0_STP_WAITING;
 8001224:	2300      	movs	r3, #0
 8001226:	f884 3070 	strb.w	r3, [r4, #112]	; 0x70
}
 800122a:	bd38      	pop	{r3, r4, r5, pc}
 800122c:	0000      	movs	r0, r0
	...

08001230 <halCommunityInit>:
#if HAL_USE_COMP || defined(__DOXYGEN__)
  compInit();
#endif

#if HAL_USE_FSMC || defined(__DOXYGEN__)
  fsmcInit();
 8001230:	f000 b806 	b.w	8001240 <fsmcInit>
	...

08001240 <fsmcInit>:
 *
 * @notapi
 */
void fsmcInit(void) {

  if (FSMCD1.state == FSMC_UNINIT) {
 8001240:	4b03      	ldr	r3, [pc, #12]	; (8001250 <fsmcInit+0x10>)
 8001242:	781a      	ldrb	r2, [r3, #0]
 8001244:	b91a      	cbnz	r2, 800124e <fsmcInit+0xe>
    FSMCD1.state  = FSMC_STOP;
 8001246:	2101      	movs	r1, #1
     defined(STM32F745xx) || defined(STM32F746xx) || \
     defined(STM32F756xx) || defined(STM32F767xx) || \
     defined(STM32F769xx) || defined(STM32F777xx) || \
     defined(STM32F779xx)  || defined(STM32H743xx))
  #if STM32_SDRAM_USE_SDRAM1 || STM32_SDRAM_USE_SDRAM2
    FSMCD1.sdram = (FSMC_SDRAM_TypeDef *)FSMC_Bank5_6_R_BASE;
 8001248:	4a02      	ldr	r2, [pc, #8]	; (8001254 <fsmcInit+0x14>)
    FSMCD1.state  = FSMC_STOP;
 800124a:	7019      	strb	r1, [r3, #0]
    FSMCD1.sdram = (FSMC_SDRAM_TypeDef *)FSMC_Bank5_6_R_BASE;
 800124c:	605a      	str	r2, [r3, #4]
  #endif
#endif
#endif
  }
}
 800124e:	4770      	bx	lr
 8001250:	24000400 	.word	0x24000400
 8001254:	52004140 	.word	0x52004140
	...

08001260 <Vector100>:
/**
 * @brief   FSMC shared interrupt handler.
 *
 * @notapi
 */
CH_IRQ_HANDLER(STM32_FSMC_HANDLER) {
 8001260:	b510      	push	{r4, lr}

  CH_IRQ_PROLOGUE();
 8001262:	4c05      	ldr	r4, [pc, #20]	; (8001278 <Vector100+0x18>)
 8001264:	4620      	mov	r0, r4
 8001266:	f002 fcd3 	bl	8003c10 <__trace_isr_enter>
  if (FSMCD1.nand2->SR & FSMC_SR_ISR_MASK) {
    NANDD2.isr_handler(&NANDD2);
  }
#endif
#endif
  CH_IRQ_EPILOGUE();
 800126a:	4620      	mov	r0, r4
 800126c:	f002 fce8 	bl	8003c40 <__trace_isr_leave>
}
 8001270:	e8bd 4010 	ldmia.w	sp!, {r4, lr}
  CH_IRQ_EPILOGUE();
 8001274:	f003 b9e4 	b.w	8004640 <__port_irq_epilogue>
 8001278:	08004960 	.word	0x08004960
 800127c:	00000000 	.word	0x00000000

08001280 <nvicEnableVector>:
#if defined(__CORE_CM0_H_GENERIC) || defined(__CORE_CM0PLUS_H_GENERIC) ||   \
    defined(__CORE_CM23_H_GENERIC)
  NVIC->__IPR[_IP_IDX(n)] = (NVIC->__IPR[_IP_IDX(n)] & ~(0xFFU << _BIT_SHIFT(n))) |
                            (NVIC_PRIORITY_MASK(prio) << _BIT_SHIFT(n));
#else
  NVIC->__IPR[n] = NVIC_PRIORITY_MASK(prio);
 8001280:	4a0a      	ldr	r2, [pc, #40]	; (80012ac <nvicEnableVector+0x2c>)
 8001282:	0109      	lsls	r1, r1, #4
#endif
  NVIC->__ICPR[n >> 5U] = 1U << (n & 0x1FU);
 8001284:	ea4f 1c50 	mov.w	ip, r0, lsr #5
 8001288:	2301      	movs	r3, #1
  NVIC->__IPR[n] = NVIC_PRIORITY_MASK(prio);
 800128a:	b2c9      	uxtb	r1, r1
void nvicEnableVector(uint32_t n, uint32_t prio) {
 800128c:	b500      	push	{lr}
  NVIC->__ICPR[n >> 5U] = 1U << (n & 0x1FU);
 800128e:	f000 0e1f 	and.w	lr, r0, #31
  NVIC->__IPR[n] = NVIC_PRIORITY_MASK(prio);
 8001292:	4410      	add	r0, r2
  NVIC->__ICPR[n >> 5U] = 1U << (n & 0x1FU);
 8001294:	fa03 f30e 	lsl.w	r3, r3, lr
  NVIC->__IPR[n] = NVIC_PRIORITY_MASK(prio);
 8001298:	f880 1300 	strb.w	r1, [r0, #768]	; 0x300
  NVIC->__ICPR[n >> 5U] = 1U << (n & 0x1FU);
 800129c:	eb02 018c 	add.w	r1, r2, ip, lsl #2
 80012a0:	f8c1 3180 	str.w	r3, [r1, #384]	; 0x180
  NVIC->__ISER[n >> 5U] = 1U << (n & 0x1FU);
 80012a4:	f842 302c 	str.w	r3, [r2, ip, lsl #2]
#if defined(__ARM_FEATURE_CMSE) && (__ARM_FEATURE_CMSE == 3)
  /* If the IRQ is enabled from secure mode then it is marked as secure
     interrupt in ITNS.*/
  NVIC->__ITNS[n >> 5U] &= ~(1U << (n & 0x1FU));
#endif
}
 80012a8:	f85d fb04 	ldr.w	pc, [sp], #4
 80012ac:	e000e100 	.word	0xe000e100

080012b0 <VectorD4>:
/**
 * @brief   USART1 interrupt handler.
 *
 * @isr
 */
OSAL_IRQ_HANDLER(STM32_USART1_HANDLER) {
 80012b0:	b510      	push	{r4, lr}

  OSAL_IRQ_PROLOGUE();
 80012b2:	4c07      	ldr	r4, [pc, #28]	; (80012d0 <VectorD4+0x20>)
 80012b4:	4620      	mov	r0, r4
 80012b6:	f002 fcab 	bl	8003c10 <__trace_isr_enter>

#if HAL_USE_SERIAL
#if STM32_SERIAL_USE_USART1
  sd_lld_serve_interrupt(&SD1);
 80012ba:	4806      	ldr	r0, [pc, #24]	; (80012d4 <VectorD4+0x24>)
 80012bc:	f002 fa40 	bl	8003740 <sd_lld_serve_interrupt>
#if STM32_UART_USE_USART1
  uart_lld_serve_interrupt(&UARTD1);
#endif
#endif

  OSAL_IRQ_EPILOGUE();
 80012c0:	4620      	mov	r0, r4
 80012c2:	f002 fcbd 	bl	8003c40 <__trace_isr_leave>
}
 80012c6:	e8bd 4010 	ldmia.w	sp!, {r4, lr}
  OSAL_IRQ_EPILOGUE();
 80012ca:	f003 b9b9 	b.w	8004640 <__port_irq_epilogue>
 80012ce:	bf00      	nop
 80012d0:	08004984 	.word	0x08004984
 80012d4:	2400075c 	.word	0x2400075c
	...

080012e0 <Vector114>:
/**
 * @brief   UART5 interrupt handler.
 *
 * @isr
 */
OSAL_IRQ_HANDLER(STM32_UART5_HANDLER) {
 80012e0:	b510      	push	{r4, lr}

  OSAL_IRQ_PROLOGUE();
 80012e2:	4c07      	ldr	r4, [pc, #28]	; (8001300 <Vector114+0x20>)
 80012e4:	4620      	mov	r0, r4
 80012e6:	f002 fc93 	bl	8003c10 <__trace_isr_enter>

#if HAL_USE_SERIAL
#if STM32_SERIAL_USE_UART5
  sd_lld_serve_interrupt(&SD5);
 80012ea:	4806      	ldr	r0, [pc, #24]	; (8001304 <Vector114+0x24>)
 80012ec:	f002 fa28 	bl	8003740 <sd_lld_serve_interrupt>
#if STM32_UART_USE_UART5
  uart_lld_serve_interrupt(&UARTD5);
#endif
#endif

  OSAL_IRQ_EPILOGUE();
 80012f0:	4620      	mov	r0, r4
 80012f2:	f002 fca5 	bl	8003c40 <__trace_isr_leave>
}
 80012f6:	e8bd 4010 	ldmia.w	sp!, {r4, lr}
  OSAL_IRQ_EPILOGUE();
 80012fa:	f003 b9a1 	b.w	8004640 <__port_irq_epilogue>
 80012fe:	bf00      	nop
 8001300:	08004978 	.word	0x08004978
 8001304:	240007bc 	.word	0x240007bc
	...

08001310 <VectorB0>:
/**
 * @brief   TIM2 interrupt handler.
 *
 * @isr
 */
OSAL_IRQ_HANDLER(STM32_TIM2_HANDLER) {
 8001310:	b510      	push	{r4, lr}

  OSAL_IRQ_PROLOGUE();
 8001312:	4c06      	ldr	r4, [pc, #24]	; (800132c <VectorB0+0x1c>)
 8001314:	4620      	mov	r0, r4
 8001316:	f002 fc7b 	bl	8003c10 <__trace_isr_enter>
  pwm_lld_serve_interrupt(&PWMD2);
#endif
#endif
#if 1
#if STM32_ST_USE_TIM2
  st_lld_serve_interrupt();
 800131a:	f002 f8f1 	bl	8003500 <st_lld_serve_interrupt>
#endif
#endif

  OSAL_IRQ_EPILOGUE();
 800131e:	4620      	mov	r0, r4
 8001320:	f002 fc8e 	bl	8003c40 <__trace_isr_leave>
}
 8001324:	e8bd 4010 	ldmia.w	sp!, {r4, lr}
  OSAL_IRQ_EPILOGUE();
 8001328:	f003 b98a 	b.w	8004640 <__port_irq_epilogue>
 800132c:	0800496c 	.word	0x0800496c

08001330 <irqInit>:
/**
 * @brief   Enables IRQ sources.
 *
 * @notapi
 */
void irqInit(void) {
 8001330:	b508      	push	{r3, lr}

  fdcan1_irq_init();
  fdcan2_irq_init();
  fdcan3_irq_init();

  mdma_irq_init();
 8001332:	2109      	movs	r1, #9
 8001334:	207a      	movs	r0, #122	; 0x7a
 8001336:	f7ff ffa3 	bl	8001280 <nvicEnableVector>
  nvicEnableVector(STM32_TIM2_NUMBER, STM32_IRQ_TIM2_PRIORITY);
 800133a:	2107      	movs	r1, #7
 800133c:	201c      	movs	r0, #28
 800133e:	f7ff ff9f 	bl	8001280 <nvicEnableVector>
  nvicEnableVector(STM32_USART1_NUMBER, STM32_IRQ_USART1_PRIORITY);
 8001342:	210c      	movs	r1, #12
 8001344:	2025      	movs	r0, #37	; 0x25
 8001346:	f7ff ff9b 	bl	8001280 <nvicEnableVector>
  nvicEnableVector(STM32_UART5_NUMBER, STM32_IRQ_UART5_PRIORITY);
 800134a:	210c      	movs	r1, #12
 800134c:	2035      	movs	r0, #53	; 0x35
  uart7_irq_init();
  uart8_irq_init();
  uart9_irq_init();
  usart10_irq_init();
  lpuart1_irq_init();
}
 800134e:	e8bd 4008 	ldmia.w	sp!, {r3, lr}
 8001352:	f7ff bf95 	b.w	8001280 <nvicEnableVector>
 8001356:	bf00      	nop
	...

08001360 <hal_lld_init>:
/**
 * @brief   Low level HAL driver initialization.
 *
 * @notapi
 */
void hal_lld_init(void) {
 8001360:	b538      	push	{r3, r4, r5, lr}
}

__STATIC_INLINE void __rccResetAHB1(uint32_t mask) {

  /* Resetting the peripherals.*/
  RCC->AHB1RSTR |= mask;
 8001362:	4b36      	ldr	r3, [pc, #216]	; (800143c <hal_lld_init+0xdc>)

__STATIC_INLINE void __rccResetAHB2(uint32_t mask) {

  /* Resetting the peripherals.*/
  RCC->AHB2RSTR |= mask;
  RCC->AHB2RSTR &= ~mask;
 8001364:	2200      	movs	r2, #0
  RCC->AHB2RSTR |= mask;
 8001366:	f04f 31ff 	mov.w	r1, #4294967295
}

__STATIC_INLINE void __rccResetAHB3(uint32_t mask) {

  /* Resetting the peripherals.*/
  RCC->AHB3RSTR |= mask;
 800136a:	4c35      	ldr	r4, [pc, #212]	; (8001440 <hal_lld_init+0xe0>)
  RCC->AHB1RSTR |= mask;
 800136c:	f8d3 0080 	ldr.w	r0, [r3, #128]	; 0x80
  RCC->AHB3RSTR &= ~mask;
 8001370:	4d34      	ldr	r5, [pc, #208]	; (8001444 <hal_lld_init+0xe4>)
  RCC->AHB1RSTR |= mask;
 8001372:	f060 4000 	orn	r0, r0, #2147483648	; 0x80000000
 8001376:	f8c3 0080 	str.w	r0, [r3, #128]	; 0x80
  RCC->AHB1RSTR &= ~mask;
 800137a:	f8d3 0080 	ldr.w	r0, [r3, #128]	; 0x80
 800137e:	f000 4000 	and.w	r0, r0, #2147483648	; 0x80000000
 8001382:	f8c3 0080 	str.w	r0, [r3, #128]	; 0x80
  (void)RCC->AHB1RSTR;
 8001386:	f8d3 0080 	ldr.w	r0, [r3, #128]	; 0x80
  RCC->AHB2RSTR |= mask;
 800138a:	f8d3 0084 	ldr.w	r0, [r3, #132]	; 0x84
 800138e:	f8c3 1084 	str.w	r1, [r3, #132]	; 0x84
  RCC->AHB2RSTR &= ~mask;
 8001392:	f8d3 0084 	ldr.w	r0, [r3, #132]	; 0x84
 8001396:	f8c3 2084 	str.w	r2, [r3, #132]	; 0x84
  (void)RCC->AHB2RSTR;
 800139a:	f8d3 0084 	ldr.w	r0, [r3, #132]	; 0x84
  RCC->AHB3RSTR |= mask;
 800139e:	6fd8      	ldr	r0, [r3, #124]	; 0x7c
 80013a0:	4320      	orrs	r0, r4
 80013a2:	67d8      	str	r0, [r3, #124]	; 0x7c
  RCC->AHB3RSTR &= ~mask;
 80013a4:	6fdc      	ldr	r4, [r3, #124]	; 0x7c
}

__STATIC_INLINE void __rccResetAHB4(uint32_t mask) {

  /* Resetting the peripherals.*/
  RCC->AHB4RSTR |= mask;
 80013a6:	4828      	ldr	r0, [pc, #160]	; (8001448 <hal_lld_init+0xe8>)
  RCC->AHB3RSTR &= ~mask;
 80013a8:	402c      	ands	r4, r5
 80013aa:	67dc      	str	r4, [r3, #124]	; 0x7c
  (void)RCC->AHB3RSTR;
 80013ac:	6fdc      	ldr	r4, [r3, #124]	; 0x7c
  RCC->AHB4RSTR |= mask;
 80013ae:	f8d3 4088 	ldr.w	r4, [r3, #136]	; 0x88
 80013b2:	4320      	orrs	r0, r4
 80013b4:	f8c3 0088 	str.w	r0, [r3, #136]	; 0x88
  RCC->AHB4RSTR &= ~mask;
 80013b8:	f8d3 0088 	ldr.w	r0, [r3, #136]	; 0x88
 80013bc:	f3c0 000a 	ubfx	r0, r0, #0, #11
 80013c0:	f8c3 0088 	str.w	r0, [r3, #136]	; 0x88
  (void)RCC->AHB4RSTR;
 80013c4:	f8d3 0088 	ldr.w	r0, [r3, #136]	; 0x88
  RCC->APB1LRSTR |= mask;
 80013c8:	f8d3 0090 	ldr.w	r0, [r3, #144]	; 0x90
 80013cc:	f8c3 1090 	str.w	r1, [r3, #144]	; 0x90
  RCC->APB1LRSTR &= ~mask;
 80013d0:	f8d3 0090 	ldr.w	r0, [r3, #144]	; 0x90
 80013d4:	f8c3 2090 	str.w	r2, [r3, #144]	; 0x90
  (void)RCC->APB1LRSTR;
 80013d8:	f8d3 0090 	ldr.w	r0, [r3, #144]	; 0x90
  RCC->APB1HRSTR |= mask;
 80013dc:	f8d3 0094 	ldr.w	r0, [r3, #148]	; 0x94
 80013e0:	f8c3 1094 	str.w	r1, [r3, #148]	; 0x94
  RCC->APB1HRSTR &= ~mask;
 80013e4:	f8d3 0094 	ldr.w	r0, [r3, #148]	; 0x94
 80013e8:	f8c3 2094 	str.w	r2, [r3, #148]	; 0x94
  (void)RCC->APB1HRSTR;
 80013ec:	f8d3 0094 	ldr.w	r0, [r3, #148]	; 0x94
  RCC->APB2RSTR |= mask;
 80013f0:	f8d3 0098 	ldr.w	r0, [r3, #152]	; 0x98
 80013f4:	f8c3 1098 	str.w	r1, [r3, #152]	; 0x98
  RCC->APB2RSTR &= ~mask;
 80013f8:	f8d3 0098 	ldr.w	r0, [r3, #152]	; 0x98
 80013fc:	f8c3 2098 	str.w	r2, [r3, #152]	; 0x98
  (void)RCC->APB2RSTR;
 8001400:	f8d3 0098 	ldr.w	r0, [r3, #152]	; 0x98
  RCC->APB3RSTR |= mask;
 8001404:	f8d3 008c 	ldr.w	r0, [r3, #140]	; 0x8c
 8001408:	f8c3 108c 	str.w	r1, [r3, #140]	; 0x8c
  RCC->APB3RSTR &= ~mask;
 800140c:	f8d3 008c 	ldr.w	r0, [r3, #140]	; 0x8c
 8001410:	f8c3 208c 	str.w	r2, [r3, #140]	; 0x8c
  (void)RCC->APB3RSTR;
 8001414:	f8d3 008c 	ldr.w	r0, [r3, #140]	; 0x8c
  RCC->APB4RSTR |= mask;
 8001418:	f8d3 009c 	ldr.w	r0, [r3, #156]	; 0x9c
 800141c:	f8c3 109c 	str.w	r1, [r3, #156]	; 0x9c
  RCC->APB4RSTR &= ~mask;
 8001420:	f8d3 109c 	ldr.w	r1, [r3, #156]	; 0x9c
 8001424:	f8c3 209c 	str.w	r2, [r3, #156]	; 0x9c
  (void)RCC->APB4RSTR;
 8001428:	f8d3 309c 	ldr.w	r3, [r3, #156]	; 0x9c
  __rccResetAPB4(~0);
#endif /* STM32_NO_INIT == FALSE */

  /* DMA subsystems initialization.*/
#if defined(STM32_BDMA_REQUIRED)
  bdmaInit();
 800142c:	f000 fac0 	bl	80019b0 <bdmaInit>
#endif
#if defined(STM32_DMA_REQUIRED)
  dmaInit();
 8001430:	f000 fcde 	bl	8001df0 <dmaInit>
       immediately.*/
    SCB_CleanInvalidateDCache();
#endif
  }
#endif
}
 8001434:	e8bd 4038 	ldmia.w	sp!, {r3, r4, r5, lr}
  irqInit();
 8001438:	f7ff bf7a 	b.w	8001330 <irqInit>
 800143c:	58024400 	.word	0x58024400
 8001440:	7fffefff 	.word	0x7fffefff
 8001444:	80001000 	.word	0x80001000
 8001448:	fffff800 	.word	0xfffff800
 800144c:	00000000 	.word	0x00000000

08001450 <stm32_clock_init>:
 */
__STATIC_INLINE void rccEnableAPB4(uint32_t mask, bool lp) {

#if STM32_TARGET_CORE == 1
  /* Allocating and enabling the peripherals.*/
  RCC_C1->APB4ENR |= mask;
 8001450:	4b65      	ldr	r3, [pc, #404]	; (80015e8 <stm32_clock_init+0x198>)
  PWR->CR3   = STM32_PWR_CR3 & 0x000000FFU;
 8001452:	2002      	movs	r0, #2

#if defined(STM32_ENFORCE_H7_REV_XY)
  /* Fix for errata 2.2.15: Reading from AXI SRAM might lead to data
     read corruption.
     AXI->TARG7_FN_MOD.*/
  *((volatile uint32_t *)(0x51000000 + 0x1108 + 0x7000)) = 0x00000001U;
 8001454:	4965      	ldr	r1, [pc, #404]	; (80015ec <stm32_clock_init+0x19c>)
  PWR->CR3   = STM32_PWR_CR3 & 0x000000FFU;
 8001456:	4a66      	ldr	r2, [pc, #408]	; (80015f0 <stm32_clock_init+0x1a0>)
void stm32_clock_init(void) {
 8001458:	b410      	push	{r4}
  *((volatile uint32_t *)(0x51000000 + 0x1108 + 0x7000)) = 0x00000001U;
 800145a:	2401      	movs	r4, #1
 800145c:	f8c1 4108 	str.w	r4, [r1, #264]	; 0x108
 8001460:	f8d3 10f4 	ldr.w	r1, [r3, #244]	; 0xf4
 8001464:	4301      	orrs	r1, r0
 8001466:	f8c3 10f4 	str.w	r1, [r3, #244]	; 0xf4
  if (lp) {
    RCC_C1->APB4LPENR |= mask;
 800146a:	f8d3 111c 	ldr.w	r1, [r3, #284]	; 0x11c
 800146e:	4301      	orrs	r1, r0
 8001470:	f8c3 111c 	str.w	r1, [r3, #284]	; 0x11c
  }
  else {
    RCC_C1->APB4LPENR &= ~mask;
  }
  (void)RCC_C1->APB4LPENR;
 8001474:	f8d3 311c 	ldr.w	r3, [r3, #284]	; 0x11c
  PWR->CR3   = STM32_PWR_CR3 & 0x000000FFU;
 8001478:	60d0      	str	r0, [r2, #12]
  while ((PWR->CSR1 & PWR_CSR1_ACTVOSRDY) == 0)
 800147a:	6853      	ldr	r3, [r2, #4]
 800147c:	0499      	lsls	r1, r3, #18
 800147e:	d5fc      	bpl.n	800147a <stm32_clock_init+0x2a>
  PWR->CR1   = STM32_PWR_CR1 | 0xF0000000U;
 8001480:	495c      	ldr	r1, [pc, #368]	; (80015f4 <stm32_clock_init+0x1a4>)
  PWR->CR2   = STM32_PWR_CR2;
 8001482:	2301      	movs	r3, #1
  PWR->CR3   = STM32_PWR_CR3;   /* Other bits, lower byte is not changed.   */
 8001484:	4c5c      	ldr	r4, [pc, #368]	; (80015f8 <stm32_clock_init+0x1a8>)
  PWR->CPUCR = STM32_PWR_CPUCR;
 8001486:	2000      	movs	r0, #0
  PWR->CR1   = STM32_PWR_CR1 | 0xF0000000U;
 8001488:	6011      	str	r1, [r2, #0]
  PWR->CR2   = STM32_PWR_CR2;
 800148a:	6093      	str	r3, [r2, #8]
  PWR->D3CR  = STM32_VOS;
 800148c:	f44f 4340 	mov.w	r3, #49152	; 0xc000
  while ((PWR->D3CR & PWR_D3CR_VOSRDY) == 0)
 8001490:	4957      	ldr	r1, [pc, #348]	; (80015f0 <stm32_clock_init+0x1a0>)
  PWR->CR3   = STM32_PWR_CR3;   /* Other bits, lower byte is not changed.   */
 8001492:	60d4      	str	r4, [r2, #12]
  PWR->CPUCR = STM32_PWR_CPUCR;
 8001494:	6110      	str	r0, [r2, #16]
  PWR->D3CR  = STM32_VOS;
 8001496:	6193      	str	r3, [r2, #24]
  while ((PWR->D3CR & PWR_D3CR_VOSRDY) == 0)
 8001498:	698b      	ldr	r3, [r1, #24]
 800149a:	049b      	lsls	r3, r3, #18
 800149c:	d5fc      	bpl.n	8001498 <stm32_clock_init+0x48>
  PWR->CR1 |= PWR_CR1_DBP;
 800149e:	680b      	ldr	r3, [r1, #0]
  if ((RCC->BDCR & STM32_RTCSEL_MASK) != STM32_RTCSEL) {
 80014a0:	4a51      	ldr	r2, [pc, #324]	; (80015e8 <stm32_clock_init+0x198>)
  PWR->CR1 |= PWR_CR1_DBP;
 80014a2:	f443 7380 	orr.w	r3, r3, #256	; 0x100
 80014a6:	600b      	str	r3, [r1, #0]
  if ((RCC->BDCR & STM32_RTCSEL_MASK) != STM32_RTCSEL) {
 80014a8:	6f13      	ldr	r3, [r2, #112]	; 0x70
 80014aa:	f403 7340 	and.w	r3, r3, #768	; 0x300
 80014ae:	f5b3 7f00 	cmp.w	r3, #512	; 0x200
 80014b2:	d004      	beq.n	80014be <stm32_clock_init+0x6e>
    RCC->BDCR = RCC_BDCR_BDRST;
 80014b4:	f44f 3180 	mov.w	r1, #65536	; 0x10000
    RCC->BDCR = 0;
 80014b8:	2300      	movs	r3, #0
    RCC->BDCR = RCC_BDCR_BDRST;
 80014ba:	6711      	str	r1, [r2, #112]	; 0x70
    RCC->BDCR = 0;
 80014bc:	6713      	str	r3, [r2, #112]	; 0x70
  /* Backup domain initialization.*/
  init_bkp_domain();

  /* HSI setup, it enforces the reset situation in order to handle possible
     problems with JTAG probes and re-initializations.*/
  RCC->CR |= RCC_CR_HSION;                  /* Make sure HSI is ON.         */
 80014be:	494a      	ldr	r1, [pc, #296]	; (80015e8 <stm32_clock_init+0x198>)
 80014c0:	680b      	ldr	r3, [r1, #0]
 80014c2:	f043 0301 	orr.w	r3, r3, #1
 80014c6:	600b      	str	r3, [r1, #0]
  while (!(RCC->CR & RCC_CR_HSIRDY))
 80014c8:	680b      	ldr	r3, [r1, #0]
 80014ca:	075c      	lsls	r4, r3, #29
 80014cc:	d5fc      	bpl.n	80014c8 <stm32_clock_init+0x78>
    ;                                       /* Wait until HSI is stable.    */

  /* HSI is selected as new source without touching the other fields in
     CFGR. This is only required when using a debugger than can cause
     restarts.*/
  RCC->CFGR    = 0x00000000U;               /* Reset SW to HSI.             */
 80014ce:	2300      	movs	r3, #0
  while ((RCC->CFGR & RCC_CFGR_SWS) != RCC_CFGR_SWS_HSI)
 80014d0:	4a45      	ldr	r2, [pc, #276]	; (80015e8 <stm32_clock_init+0x198>)
  RCC->CFGR    = 0x00000000U;               /* Reset SW to HSI.             */
 80014d2:	610b      	str	r3, [r1, #16]
  while ((RCC->CFGR & RCC_CFGR_SWS) != RCC_CFGR_SWS_HSI)
 80014d4:	6913      	ldr	r3, [r2, #16]
 80014d6:	f013 0338 	ands.w	r3, r3, #56	; 0x38
 80014da:	d1fb      	bne.n	80014d4 <stm32_clock_init+0x84>
    ;                                       /* Wait until HSI is selected.  */

  /* Registers cleared to reset values.*/
  RCC->CR      = RCC_CR_HSION;             /* CR Reset value.              */
  RCC->HSICFGR = 0x40000000U;              /* HSICFGR Reset value.         */
 80014dc:	f04f 4080 	mov.w	r0, #1073741824	; 0x40000000
  RCC->CR      = RCC_CR_HSION;             /* CR Reset value.              */
 80014e0:	2401      	movs	r4, #1
#if !defined(STM32_ENFORCE_H7_REV_XY)
  RCC->CSICFGR = 0x20000000U;              /* CSICFGR Reset value.         */
#endif
  RCC->CSR     = 0x00000000U;              /* CSR reset value.             */
  RCC->PLLCFGR = 0x01FF0000U;              /* PLLCFGR reset value.         */
 80014e2:	4946      	ldr	r1, [pc, #280]	; (80015fc <stm32_clock_init+0x1ac>)
  RCC->CR      = RCC_CR_HSION;             /* CR Reset value.              */
 80014e4:	6014      	str	r4, [r2, #0]
  RCC->HSICFGR = 0x40000000U;              /* HSICFGR Reset value.         */
 80014e6:	6050      	str	r0, [r2, #4]
  cfgr |= STM32_HRTIMSEL;
#endif
#if STM32_TIMPRE_ENABLE == TRUE
  cfgr |= RCC_CFGR_TIMPRE;
#endif
  RCC->CFGR = cfgr;
 80014e8:	4845      	ldr	r0, [pc, #276]	; (8001600 <stm32_clock_init+0x1b0>)
  RCC->CSR     = 0x00000000U;              /* CSR reset value.             */
 80014ea:	6753      	str	r3, [r2, #116]	; 0x74
  RCC->PLLCFGR = 0x01FF0000U;              /* PLLCFGR reset value.         */
 80014ec:	62d1      	str	r1, [r2, #44]	; 0x2c
  RCC->CFGR = cfgr;
 80014ee:	6110      	str	r0, [r2, #16]
  /* HSE activation with optional bypass.*/
#if STM32_HSE_ENABLED == TRUE
#if defined(STM32_HSE_BYPASS)
  RCC->CR |= RCC_CR_HSEON | RCC_CR_HSEBYP;
#else
  RCC->CR |= RCC_CR_HSEON;
 80014f0:	6813      	ldr	r3, [r2, #0]
#endif
  while ((RCC->CR & RCC_CR_HSERDY) == 0)
 80014f2:	493d      	ldr	r1, [pc, #244]	; (80015e8 <stm32_clock_init+0x198>)
  RCC->CR |= RCC_CR_HSEON;
 80014f4:	f443 3380 	orr.w	r3, r3, #65536	; 0x10000
 80014f8:	6013      	str	r3, [r2, #0]
  while ((RCC->CR & RCC_CR_HSERDY) == 0)
 80014fa:	680b      	ldr	r3, [r1, #0]
 80014fc:	0398      	lsls	r0, r3, #14
 80014fe:	d5fc      	bpl.n	80014fa <stm32_clock_init+0xaa>
    ;                           /* Waits until HSE is stable.               */
#endif /* STM32_HSE_ENABLED == TRUE */

  /* HSI48 activation.*/
#if STM32_HSI48_ENABLED == TRUE
  RCC->CR |= RCC_CR_HSI48ON;
 8001500:	680a      	ldr	r2, [r1, #0]
  while ((RCC->CR & RCC_CR_HSI48RDY) == 0)
 8001502:	4b39      	ldr	r3, [pc, #228]	; (80015e8 <stm32_clock_init+0x198>)
  RCC->CR |= RCC_CR_HSI48ON;
 8001504:	f442 5280 	orr.w	r2, r2, #4096	; 0x1000
 8001508:	600a      	str	r2, [r1, #0]
  while ((RCC->CR & RCC_CR_HSI48RDY) == 0)
 800150a:	681a      	ldr	r2, [r3, #0]
 800150c:	0492      	lsls	r2, r2, #18
 800150e:	d5fc      	bpl.n	800150a <stm32_clock_init+0xba>
    cfgmask = STM32_PLLCFGR_PLL3RGE | STM32_PLLCFGR_PLL3VCOSEL | RCC_PLLCFGR_PLL3FRACEN |
              STM32_PLLCFGR_PLL2RGE | STM32_PLLCFGR_PLL2VCOSEL | RCC_PLLCFGR_PLL2FRACEN |
              STM32_PLLCFGR_PLL1RGE | STM32_PLLCFGR_PLL1VCOSEL | RCC_PLLCFGR_PLL1FRACEN;

#if STM32_PLL1_ENABLED == TRUE
    RCC->PLL1FRACR = STM32_PLL1_FRACN;
 8001510:	2200      	movs	r2, #0
    RCC->PLLCKSELR = RCC_PLLCKSELR_DIVM3_VALUE(STM32_PLL3_DIVM_VALUE) |
 8001512:	483c      	ldr	r0, [pc, #240]	; (8001604 <stm32_clock_init+0x1b4>)
    RCC->PLL1DIVR  = STM32_PLL1_DIVR | STM32_PLL1_DIVQ |
 8001514:	493c      	ldr	r1, [pc, #240]	; (8001608 <stm32_clock_init+0x1b8>)
    cfgmask |= RCC_PLLCFGR_DIVR1EN;
#endif
#endif /* STM32_PLL1_ENABLED == TRUE */

#if STM32_PLL2_ENABLED == TRUE
    RCC->PLL2FRACR = STM32_PLL2_FRACN;
 8001516:	f644 54f0 	movw	r4, #19952	; 0x4df0
    RCC->PLLCKSELR = RCC_PLLCKSELR_DIVM3_VALUE(STM32_PLL3_DIVM_VALUE) |
 800151a:	6298      	str	r0, [r3, #40]	; 0x28
    RCC->PLL1FRACR = STM32_PLL1_FRACN;
 800151c:	635a      	str	r2, [r3, #52]	; 0x34
    RCC->PLL1DIVR  = STM32_PLL1_DIVR | STM32_PLL1_DIVQ |
 800151e:	6319      	str	r1, [r3, #48]	; 0x30
    RCC->PLL2DIVR  = STM32_PLL2_DIVR | STM32_PLL2_DIVQ |
 8001520:	493a      	ldr	r1, [pc, #232]	; (800160c <stm32_clock_init+0x1bc>)
    RCC->PLL2FRACR = STM32_PLL2_FRACN;
 8001522:	63dc      	str	r4, [r3, #60]	; 0x3c
#endif
#endif /* STM32_PLL2_ENABLED == TRUE */

#if STM32_PLL3_ENABLED == TRUE
    RCC->PLL3FRACR = STM32_PLL3_FRACN;
    RCC->PLL3DIVR  = STM32_PLL3_DIVR | STM32_PLL3_DIVQ |
 8001524:	483a      	ldr	r0, [pc, #232]	; (8001610 <stm32_clock_init+0x1c0>)
    RCC->PLL2DIVR  = STM32_PLL2_DIVR | STM32_PLL2_DIVQ |
 8001526:	6399      	str	r1, [r3, #56]	; 0x38
    cfgmask |= RCC_PLLCFGR_DIVR3EN;
#endif
#endif /* STM32_PLL3_ENABLED == TRUE */

    /* Activating enabled PLLs and waiting for all of them to become ready.*/
    RCC->PLLCFGR = cfgmask & STM32_PLLCFGR_MASK;
 8001528:	493a      	ldr	r1, [pc, #232]	; (8001614 <stm32_clock_init+0x1c4>)
    RCC->PLL3FRACR = STM32_PLL3_FRACN;
 800152a:	645a      	str	r2, [r3, #68]	; 0x44
    RCC->PLL3DIVR  = STM32_PLL3_DIVR | STM32_PLL3_DIVQ |
 800152c:	6418      	str	r0, [r3, #64]	; 0x40
    RCC->PLLCFGR = cfgmask & STM32_PLLCFGR_MASK;
 800152e:	62d9      	str	r1, [r3, #44]	; 0x2c
    RCC->CR     |= onmask;
 8001530:	6819      	ldr	r1, [r3, #0]
    while ((RCC->CR & rdymask) != rdymask)
 8001532:	4a2d      	ldr	r2, [pc, #180]	; (80015e8 <stm32_clock_init+0x198>)
    RCC->CR     |= onmask;
 8001534:	f041 51a8 	orr.w	r1, r1, #352321536	; 0x15000000
 8001538:	6019      	str	r1, [r3, #0]
    while ((RCC->CR & rdymask) != rdymask)
 800153a:	6813      	ldr	r3, [r2, #0]
 800153c:	f003 5328 	and.w	r3, r3, #704643072	; 0x2a000000
 8001540:	f1b3 5f28 	cmp.w	r3, #704643072	; 0x2a000000
 8001544:	d1f9      	bne.n	800153a <stm32_clock_init+0xea>
#if defined(HAL_LLD_TYPE3_H)
  RCC->CDCFGR1 = STM32_CDCPRE  | STM32_CDPPRE | STM32_CDHPRE;
  RCC->CDCFGR2 = STM32_CDPPRE2 | STM32_CDPPRE1;
  RCC->SRDCFGR = STM32_SRDPPRE;
#else
  RCC->D1CFGR = STM32_D1CPRE  | STM32_D1PPRE3 | STM32_D1HPRE;
 8001546:	2448      	movs	r4, #72	; 0x48
  RCC->D2CFGR = STM32_D2PPRE2 | STM32_D2PPRE1;
 8001548:	f44f 6388 	mov.w	r3, #1088	; 0x440
  RCC->D3CFGR = STM32_D3PPRE4;
 800154c:	2040      	movs	r0, #64	; 0x40
#endif

  /* Peripherals clocks.*/
#if defined(HAL_LLD_TYPE1_H)
  RCC->D1CCIPR  = STM32_CKPERSEL   | STM32_SDMMCSEL    | STM32_QSPISEL       |
 800154e:	f44f 3180 	mov.w	r1, #65536	; 0x10000
  RCC->D1CFGR = STM32_D1CPRE  | STM32_D1PPRE3 | STM32_D1HPRE;
 8001552:	6194      	str	r4, [r2, #24]
  RCC->D2CFGR = STM32_D2PPRE2 | STM32_D2PPRE1;
 8001554:	61d3      	str	r3, [r2, #28]
                  STM32_FMCSEL;
  RCC->D2CCIP1R = STM32_SWPSEL     | STM32_FDCANSEL    | STM32_DFSDM1SEL     |
                  STM32_SPDIFSEL   | STM32_SPDIFSEL    | STM32_SPI45SEL      |
                  STM32_SPI123SEL  | STM32_SAI23SEL    | STM32_SAI1SEL;
  RCC->D2CCIP2R = STM32_LPTIM1SEL  | STM32_CECSEL      | STM32_USBSEL        |
 8001556:	f44f 03e0 	mov.w	r3, #7340032	; 0x700000
  RCC->D2CCIP1R = STM32_SWPSEL     | STM32_FDCANSEL    | STM32_DFSDM1SEL     |
 800155a:	4c2f      	ldr	r4, [pc, #188]	; (8001618 <stm32_clock_init+0x1c8>)
  RCC->D3CFGR = STM32_D3PPRE4;
 800155c:	6210      	str	r0, [r2, #32]
                  STM32_I2C123SEL  | STM32_RNGSEL      | STM32_USART16SEL    |
                  STM32_USART234578SEL;
  RCC->D3CCIPR  = STM32_SPI6SEL    | STM32_SAI4BSEL    | STM32_SAI4ASEL      |
 800155e:	f44f 3040 	mov.w	r0, #196608	; 0x30000
  RCC->D1CCIPR  = STM32_CKPERSEL   | STM32_SDMMCSEL    | STM32_QSPISEL       |
 8001562:	64d1      	str	r1, [r2, #76]	; 0x4c
  RCC->D2CCIP1R = STM32_SWPSEL     | STM32_FDCANSEL    | STM32_DFSDM1SEL     |
 8001564:	6514      	str	r4, [r2, #80]	; 0x50
                  STM32_LPTIM3SEL  | STM32_LPTIM2SEL   | STM32_I2C4SEL       |
                  STM32_LPUART1SEL;
#endif

  /* Flash setup.*/
  FLASH->ACR = FLASH_ACR_WRHIGHFREQ_1 | FLASH_ACR_WRHIGHFREQ_0 |
 8001566:	492d      	ldr	r1, [pc, #180]	; (800161c <stm32_clock_init+0x1cc>)
  RCC->D2CCIP2R = STM32_LPTIM1SEL  | STM32_CECSEL      | STM32_USBSEL        |
 8001568:	6553      	str	r3, [r2, #84]	; 0x54
  FLASH->ACR = FLASH_ACR_WRHIGHFREQ_1 | FLASH_ACR_WRHIGHFREQ_0 |
 800156a:	2332      	movs	r3, #50	; 0x32
  RCC->D3CCIPR  = STM32_SPI6SEL    | STM32_SAI4BSEL    | STM32_SAI4ASEL      |
 800156c:	6590      	str	r0, [r2, #88]	; 0x58
  FLASH->ACR = FLASH_ACR_WRHIGHFREQ_1 | FLASH_ACR_WRHIGHFREQ_0 |
 800156e:	600b      	str	r3, [r1, #0]
               STM32_FLASHBITS;
  while ((FLASH->ACR & FLASH_ACR_LATENCY) !=
 8001570:	680b      	ldr	r3, [r1, #0]
 8001572:	f003 030f 	and.w	r3, r3, #15
 8001576:	2b02      	cmp	r3, #2
 8001578:	d1fa      	bne.n	8001570 <stm32_clock_init+0x120>
  }

  /* Switching to the configured clock source if it is different
     from HSI.*/
#if STM32_SW != STM32_SW_HSI_CK
  RCC->CFGR |= STM32_SW;        /* Switches on the selected clock source.   */
 800157a:	4a1b      	ldr	r2, [pc, #108]	; (80015e8 <stm32_clock_init+0x198>)
 800157c:	6913      	ldr	r3, [r2, #16]
 800157e:	f043 0303 	orr.w	r3, r3, #3
 8001582:	6113      	str	r3, [r2, #16]
  while ((RCC->CFGR & RCC_CFGR_SWS_Msk) != (STM32_SW << RCC_CFGR_SWS_Pos))
 8001584:	6913      	ldr	r3, [r2, #16]
 8001586:	f003 0338 	and.w	r3, r3, #56	; 0x38
 800158a:	2b18      	cmp	r3, #24
 800158c:	d1fa      	bne.n	8001584 <stm32_clock_init+0x134>
 */
__STATIC_INLINE void rccEnableAHB2(uint32_t mask, bool lp) {

#if STM32_TARGET_CORE == 1
  /* Allocating and enabling the peripherals.*/
  RCC_C1->AHB2ENR |= mask;
 800158e:	f8d2 30dc 	ldr.w	r3, [r2, #220]	; 0xdc
  rccEnableSRAM2(true);
#if !(defined(HAL_LLD_TYPE2_H) || defined(HAL_LLD_TYPE3_H))
  rccEnableSRAM3(true);
#endif
#endif /* STM32_NO_INIT */
}
 8001592:	bc10      	pop	{r4}
 8001594:	f043 5300 	orr.w	r3, r3, #536870912	; 0x20000000
 8001598:	f8c2 30dc 	str.w	r3, [r2, #220]	; 0xdc
  if (lp) {
    RCC_C1->AHB2LPENR |= mask;
 800159c:	f8d2 3104 	ldr.w	r3, [r2, #260]	; 0x104
 80015a0:	f043 5300 	orr.w	r3, r3, #536870912	; 0x20000000
 80015a4:	f8c2 3104 	str.w	r3, [r2, #260]	; 0x104
  }
  else {
    RCC_C1->AHB2LPENR &= ~mask;
  }
  (void)RCC_C1->AHB2LPENR;
 80015a8:	f8d2 3104 	ldr.w	r3, [r2, #260]	; 0x104
  RCC_C1->AHB2ENR |= mask;
 80015ac:	f8d2 30dc 	ldr.w	r3, [r2, #220]	; 0xdc
 80015b0:	f043 4380 	orr.w	r3, r3, #1073741824	; 0x40000000
 80015b4:	f8c2 30dc 	str.w	r3, [r2, #220]	; 0xdc
    RCC_C1->AHB2LPENR |= mask;
 80015b8:	f8d2 3104 	ldr.w	r3, [r2, #260]	; 0x104
 80015bc:	f043 4380 	orr.w	r3, r3, #1073741824	; 0x40000000
 80015c0:	f8c2 3104 	str.w	r3, [r2, #260]	; 0x104
  (void)RCC_C1->AHB2LPENR;
 80015c4:	f8d2 3104 	ldr.w	r3, [r2, #260]	; 0x104
  RCC_C1->AHB2ENR |= mask;
 80015c8:	f8d2 30dc 	ldr.w	r3, [r2, #220]	; 0xdc
 80015cc:	f043 4300 	orr.w	r3, r3, #2147483648	; 0x80000000
 80015d0:	f8c2 30dc 	str.w	r3, [r2, #220]	; 0xdc
    RCC_C1->AHB2LPENR |= mask;
 80015d4:	f8d2 3104 	ldr.w	r3, [r2, #260]	; 0x104
 80015d8:	f043 4300 	orr.w	r3, r3, #2147483648	; 0x80000000
 80015dc:	f8c2 3104 	str.w	r3, [r2, #260]	; 0x104
  (void)RCC_C1->AHB2LPENR;
 80015e0:	f8d2 3104 	ldr.w	r3, [r2, #260]	; 0x104
 80015e4:	4770      	bx	lr
 80015e6:	bf00      	nop
 80015e8:	58024400 	.word	0x58024400
 80015ec:	51008000 	.word	0x51008000
 80015f0:	58024800 	.word	0x58024800
 80015f4:	f000c000 	.word	0xf000c000
 80015f8:	01000002 	.word	0x01000002
 80015fc:	01ff0000 	.word	0x01ff0000
 8001600:	08108800 	.word	0x08108800
 8001604:	01905052 	.word	0x01905052
 8001608:	0109029f 	.word	0x0109029f
 800160c:	0b011261 	.word	0x0b011261
 8001610:	0705071f 	.word	0x0705071f
 8001614:	016b0399 	.word	0x016b0399
 8001618:	10000040 	.word	0x10000040
 800161c:	52002000 	.word	0x52002000

08001620 <adc_lld_init>:
/**
 * @brief   Low level ADC driver initialization.
 *
 * @notapi
 */
void adc_lld_init(void) {
 8001620:	b570      	push	{r4, r5, r6, lr}

#if STM32_ADC_USE_ADC12 == TRUE
  /* Driver initialization.*/
  adcObjectInit(&ADCD1);
 8001622:	4c1e      	ldr	r4, [pc, #120]	; (800169c <adc_lld_init+0x7c>)
  ADCD1.adcc        = ADC12_COMMON;
  ADCD1.adcm        = ADC1;
#if STM32_ADC_DUAL_MODE
  ADCD1.adcs        = ADC2;
#endif
  ADCD1.data.dma    = NULL;
 8001624:	2600      	movs	r6, #0
  ADCD1.adcc        = ADC12_COMMON;
 8001626:	4d1e      	ldr	r5, [pc, #120]	; (80016a0 <adc_lld_init+0x80>)
  adcObjectInit(&ADCD1);
 8001628:	4620      	mov	r0, r4
 800162a:	f7ff fa21 	bl	8000a70 <adcObjectInit>
  ADCD1.adcm        = ADC1;
 800162e:	4a1d      	ldr	r2, [pc, #116]	; (80016a4 <adc_lld_init+0x84>)
  ADCD1.dmamode     = ADC12_DMA_SIZE |
 8001630:	4b1d      	ldr	r3, [pc, #116]	; (80016a8 <adc_lld_init+0x88>)
                      STM32_DMA_CR_PL(STM32_ADC_ADC12_DMA_PRIORITY) |
                      STM32_DMA_CR_DIR_P2M  |
                      STM32_DMA_CR_MINC     | STM32_DMA_CR_TCIE     |
                      STM32_DMA_CR_DMEIE    | STM32_DMA_CR_TEIE;
  nvicEnableVector(STM32_ADC12_NUMBER, STM32_ADC_ADC12_IRQ_PRIORITY);
 8001632:	2105      	movs	r1, #5
 8001634:	2012      	movs	r0, #18
  ADCD1.adcm        = ADC1;
 8001636:	e9c4 250a 	strd	r2, r5, [r4, #40]	; 0x28
  ADCD1.dmamode     = ADC12_DMA_SIZE |
 800163a:	e9c4 630c 	strd	r6, r3, [r4, #48]	; 0x30
  nvicEnableVector(STM32_ADC12_NUMBER, STM32_ADC_ADC12_IRQ_PRIORITY);
 800163e:	f7ff fe1f 	bl	8001280 <nvicEnableVector>
  RCC_C1->AHB1ENR |= mask;
 8001642:	4b1a      	ldr	r3, [pc, #104]	; (80016ac <adc_lld_init+0x8c>)
 8001644:	f8d3 20d8 	ldr.w	r2, [r3, #216]	; 0xd8
 8001648:	f042 0220 	orr.w	r2, r2, #32
 800164c:	f8c3 20d8 	str.w	r2, [r3, #216]	; 0xd8
    RCC_C1->AHB1LPENR |= mask;
 8001650:	f8d3 2100 	ldr.w	r2, [r3, #256]	; 0x100
 8001654:	f042 0220 	orr.w	r2, r2, #32
 8001658:	f8c3 2100 	str.w	r2, [r3, #256]	; 0x100
  (void)RCC_C1->AHB1LPENR;
 800165c:	f8d3 2100 	ldr.w	r2, [r3, #256]	; 0x100
  RCC->AHB1RSTR |= mask;
 8001660:	f8d3 2080 	ldr.w	r2, [r3, #128]	; 0x80
 8001664:	f042 0220 	orr.w	r2, r2, #32
 8001668:	f8c3 2080 	str.w	r2, [r3, #128]	; 0x80
  RCC->AHB1RSTR &= ~mask;
 800166c:	f8d3 2080 	ldr.w	r2, [r3, #128]	; 0x80
 8001670:	f022 0220 	bic.w	r2, r2, #32
 8001674:	f8c3 2080 	str.w	r2, [r3, #128]	; 0x80
  (void)RCC->AHB1RSTR;
 8001678:	f8d3 2080 	ldr.w	r2, [r3, #128]	; 0x80
  /* ADC units pre-initializations.*/
#if (STM32_HAS_ADC1 == TRUE) && (STM32_HAS_ADC2 == TRUE)
#if STM32_ADC_USE_ADC12 == TRUE
  rccEnableADC12(true);
  rccResetADC12();
  ADC12_COMMON->CCR = STM32_ADC_ADC12_CLOCK_MODE | ADC_DMA_DAMDF;
 800167c:	60ae      	str	r6, [r5, #8]
  RCC_C1->AHB1ENR &= ~mask;
 800167e:	f8d3 20d8 	ldr.w	r2, [r3, #216]	; 0xd8
 8001682:	f022 0220 	bic.w	r2, r2, #32
 8001686:	f8c3 20d8 	str.w	r2, [r3, #216]	; 0xd8
  RCC_C1->AHB1LPENR &= ~mask;
 800168a:	f8d3 2100 	ldr.w	r2, [r3, #256]	; 0x100
 800168e:	f022 0220 	bic.w	r2, r2, #32
 8001692:	f8c3 2100 	str.w	r2, [r3, #256]	; 0x100
  (void)RCC_C1->AHB1LPENR;
 8001696:	f8d3 3100 	ldr.w	r3, [r3, #256]	; 0x100
  rccResetADC3();
  ADC3_COMMON->CCR = STM32_ADC_ADC3_CLOCK_MODE;
  rccDisableADC3();
#endif
#endif
}
 800169a:	bd70      	pop	{r4, r5, r6, pc}
 800169c:	24000408 	.word	0x24000408
 80016a0:	40022300 	.word	0x40022300
 80016a4:	40022000 	.word	0x40022000
 80016a8:	00022c16 	.word	0x00022c16
 80016ac:	58024400 	.word	0x58024400

080016b0 <adc_lld_stop_conversion>:
 * @notapi
 */
void adc_lld_stop_conversion(ADCDriver *adcp) {

#if STM32_ADC_USE_ADC12 == TRUE
  if (&ADCD1 == adcp) {
 80016b0:	4b10      	ldr	r3, [pc, #64]	; (80016f4 <adc_lld_stop_conversion+0x44>)
 80016b2:	4298      	cmp	r0, r3
 80016b4:	d00d      	beq.n	80016d2 <adc_lld_stop_conversion+0x22>
    dmaStreamDisable(adcp->data.dma);
#endif
  }
#endif /* STM32_ADC_USE_ADC3 == TRUE */

  adc_lld_stop_adc(adcp);
 80016b6:	6a82      	ldr	r2, [r0, #40]	; 0x28
  if (adcp->adcm->CR & ADC_CR_ADSTART) {
 80016b8:	6893      	ldr	r3, [r2, #8]
 80016ba:	0759      	lsls	r1, r3, #29
 80016bc:	d506      	bpl.n	80016cc <adc_lld_stop_conversion+0x1c>
    adcp->adcm->CR |= ADC_CR_ADSTP;
 80016be:	6893      	ldr	r3, [r2, #8]
 80016c0:	f043 0310 	orr.w	r3, r3, #16
 80016c4:	6093      	str	r3, [r2, #8]
    while (adcp->adcm->CR & ADC_CR_ADSTP)
 80016c6:	6893      	ldr	r3, [r2, #8]
 80016c8:	06db      	lsls	r3, r3, #27
 80016ca:	d4fc      	bmi.n	80016c6 <adc_lld_stop_conversion+0x16>
  adcp->adcm->PCSEL = 0U;
 80016cc:	2300      	movs	r3, #0
 80016ce:	61d3      	str	r3, [r2, #28]
}
 80016d0:	4770      	bx	lr
    dmaStreamDisable(adcp->data.dma);
 80016d2:	6b01      	ldr	r1, [r0, #48]	; 0x30
 80016d4:	680a      	ldr	r2, [r1, #0]
 80016d6:	6813      	ldr	r3, [r2, #0]
 80016d8:	f023 031f 	bic.w	r3, r3, #31
 80016dc:	6013      	str	r3, [r2, #0]
 80016de:	6813      	ldr	r3, [r2, #0]
 80016e0:	07db      	lsls	r3, r3, #31
 80016e2:	d4fc      	bmi.n	80016de <adc_lld_stop_conversion+0x2e>
 80016e4:	f891 c00c 	ldrb.w	ip, [r1, #12]
 80016e8:	233d      	movs	r3, #61	; 0x3d
 80016ea:	684a      	ldr	r2, [r1, #4]
 80016ec:	fa03 f30c 	lsl.w	r3, r3, ip
 80016f0:	6013      	str	r3, [r2, #0]
 80016f2:	e7e0      	b.n	80016b6 <adc_lld_stop_conversion+0x6>
 80016f4:	24000408 	.word	0x24000408
	...

08001700 <Vector88>:
OSAL_IRQ_HANDLER(STM32_ADC12_HANDLER) {
 8001700:	b570      	push	{r4, r5, r6, lr}
  OSAL_IRQ_PROLOGUE();
 8001702:	4826      	ldr	r0, [pc, #152]	; (800179c <Vector88+0x9c>)
 8001704:	f002 fa84 	bl	8003c10 <__trace_isr_enter>
  if (adcp->grpp != NULL) {
 8001708:	4d25      	ldr	r5, [pc, #148]	; (80017a0 <Vector88+0xa0>)
  isr  = ADC1->ISR;
 800170a:	4a26      	ldr	r2, [pc, #152]	; (80017a4 <Vector88+0xa4>)
  if (adcp->grpp != NULL) {
 800170c:	692e      	ldr	r6, [r5, #16]
  isr  = ADC1->ISR;
 800170e:	6813      	ldr	r3, [r2, #0]
  ADC1->ISR = isr;
 8001710:	6013      	str	r3, [r2, #0]
  if (adcp->grpp != NULL) {
 8001712:	b366      	cbz	r6, 800176e <Vector88+0x6e>
    if ((isr & ADC_ISR_OVR) && (adcp->state == ADC_ACTIVE)) {
 8001714:	f013 0410 	ands.w	r4, r3, #16
 8001718:	d006      	beq.n	8001728 <Vector88+0x28>
 800171a:	782c      	ldrb	r4, [r5, #0]
 800171c:	f1a4 0403 	sub.w	r4, r4, #3
 8001720:	fab4 f484 	clz	r4, r4
 8001724:	0964      	lsrs	r4, r4, #5
 8001726:	0064      	lsls	r4, r4, #1
    if (isr & ADC_ISR_AWD1) {
 8001728:	0618      	lsls	r0, r3, #24
      emask |= ADC_ERR_AWD1;
 800172a:	bf48      	it	mi
 800172c:	f044 0404 	orrmi.w	r4, r4, #4
    if (isr & ADC_ISR_AWD2) {
 8001730:	05d9      	lsls	r1, r3, #23
 8001732:	d523      	bpl.n	800177c <Vector88+0x7c>
    if (isr & ADC_ISR_AWD3) {
 8001734:	059a      	lsls	r2, r3, #22
      emask |= ADC_ERR_AWD2;
 8001736:	f044 0408 	orr.w	r4, r4, #8
    if (isr & ADC_ISR_AWD3) {
 800173a:	d501      	bpl.n	8001740 <Vector88+0x40>
      emask |= ADC_ERR_AWD3;
 800173c:	f044 0410 	orr.w	r4, r4, #16
      _adc_isr_error_code(adcp, emask);
 8001740:	4817      	ldr	r0, [pc, #92]	; (80017a0 <Vector88+0xa0>)
 8001742:	f7ff ffb5 	bl	80016b0 <adc_lld_stop_conversion>
 8001746:	68f3      	ldr	r3, [r6, #12]
 8001748:	b31b      	cbz	r3, 8001792 <Vector88+0x92>
 800174a:	2205      	movs	r2, #5
 800174c:	4621      	mov	r1, r4
 800174e:	702a      	strb	r2, [r5, #0]
 8001750:	4798      	blx	r3
 8001752:	782b      	ldrb	r3, [r5, #0]
 8001754:	2b05      	cmp	r3, #5
 8001756:	d01c      	beq.n	8001792 <Vector88+0x92>
 8001758:	2330      	movs	r3, #48	; 0x30
 800175a:	f383 8811 	msr	BASEPRI, r3
  chThdResumeI(trp, msg);
 800175e:	f04f 31ff 	mov.w	r1, #4294967295
 8001762:	4811      	ldr	r0, [pc, #68]	; (80017a8 <Vector88+0xa8>)
 8001764:	f002 fde4 	bl	8004330 <chThdResumeI>
 8001768:	2300      	movs	r3, #0
 800176a:	f383 8811 	msr	BASEPRI, r3
  OSAL_IRQ_EPILOGUE();
 800176e:	480b      	ldr	r0, [pc, #44]	; (800179c <Vector88+0x9c>)
 8001770:	f002 fa66 	bl	8003c40 <__trace_isr_leave>
}
 8001774:	e8bd 4070 	ldmia.w	sp!, {r4, r5, r6, lr}
  OSAL_IRQ_EPILOGUE();
 8001778:	f002 bf62 	b.w	8004640 <__port_irq_epilogue>
    if (isr & ADC_ISR_AWD3) {
 800177c:	059b      	lsls	r3, r3, #22
 800177e:	d4dd      	bmi.n	800173c <Vector88+0x3c>
    if (emask != 0U) {
 8001780:	2c00      	cmp	r4, #0
 8001782:	d1dd      	bne.n	8001740 <Vector88+0x40>
  OSAL_IRQ_EPILOGUE();
 8001784:	4805      	ldr	r0, [pc, #20]	; (800179c <Vector88+0x9c>)
 8001786:	f002 fa5b 	bl	8003c40 <__trace_isr_leave>
}
 800178a:	e8bd 4070 	ldmia.w	sp!, {r4, r5, r6, lr}
  OSAL_IRQ_EPILOGUE();
 800178e:	f002 bf57 	b.w	8004640 <__port_irq_epilogue>
      _adc_isr_error_code(adcp, emask);
 8001792:	2202      	movs	r2, #2
 8001794:	2300      	movs	r3, #0
 8001796:	702a      	strb	r2, [r5, #0]
 8001798:	612b      	str	r3, [r5, #16]
 800179a:	e7dd      	b.n	8001758 <Vector88+0x58>
 800179c:	08004990 	.word	0x08004990
 80017a0:	24000408 	.word	0x24000408
 80017a4:	40022000 	.word	0x40022000
 80017a8:	2400041c 	.word	0x2400041c
 80017ac:	00000000 	.word	0x00000000

080017b0 <Vector244>:
 * @isr
 */
OSAL_IRQ_HANDLER(STM32_BDMA1_CH0_HANDLER) {
  uint32_t flags;

  OSAL_IRQ_PROLOGUE();
 80017b0:	480a      	ldr	r0, [pc, #40]	; (80017dc <Vector244+0x2c>)
OSAL_IRQ_HANDLER(STM32_BDMA1_CH0_HANDLER) {
 80017b2:	b508      	push	{r3, lr}
  OSAL_IRQ_PROLOGUE();
 80017b4:	f002 fa2c 	bl	8003c10 <__trace_isr_enter>

  flags = (BDMA->ISR >> 0U) & STM32_BDMA_ISR_MASK;
 80017b8:	4b09      	ldr	r3, [pc, #36]	; (80017e0 <Vector244+0x30>)
  BDMA->IFCR = flags << 0U;
  if (bdma.streams[0].func)
 80017ba:	480a      	ldr	r0, [pc, #40]	; (80017e4 <Vector244+0x34>)
  flags = (BDMA->ISR >> 0U) & STM32_BDMA_ISR_MASK;
 80017bc:	6819      	ldr	r1, [r3, #0]
  if (bdma.streams[0].func)
 80017be:	6842      	ldr	r2, [r0, #4]
  flags = (BDMA->ISR >> 0U) & STM32_BDMA_ISR_MASK;
 80017c0:	f001 010e 	and.w	r1, r1, #14
  BDMA->IFCR = flags << 0U;
 80017c4:	6059      	str	r1, [r3, #4]
  if (bdma.streams[0].func)
 80017c6:	b10a      	cbz	r2, 80017cc <Vector244+0x1c>
    bdma.streams[0].func(bdma.streams[0].param, flags);
 80017c8:	6880      	ldr	r0, [r0, #8]
 80017ca:	4790      	blx	r2

  OSAL_IRQ_EPILOGUE();
 80017cc:	4803      	ldr	r0, [pc, #12]	; (80017dc <Vector244+0x2c>)
 80017ce:	f002 fa37 	bl	8003c40 <__trace_isr_leave>
}
 80017d2:	e8bd 4008 	ldmia.w	sp!, {r3, lr}
  OSAL_IRQ_EPILOGUE();
 80017d6:	f002 bf33 	b.w	8004640 <__port_irq_epilogue>
 80017da:	bf00      	nop
 80017dc:	080049f0 	.word	0x080049f0
 80017e0:	58025400 	.word	0x58025400
 80017e4:	24000440 	.word	0x24000440
	...

080017f0 <Vector248>:
 * @isr
 */
OSAL_IRQ_HANDLER(STM32_BDMA1_CH1_HANDLER) {
  uint32_t flags;

  OSAL_IRQ_PROLOGUE();
 80017f0:	480b      	ldr	r0, [pc, #44]	; (8001820 <Vector248+0x30>)
OSAL_IRQ_HANDLER(STM32_BDMA1_CH1_HANDLER) {
 80017f2:	b510      	push	{r4, lr}
  OSAL_IRQ_PROLOGUE();
 80017f4:	f002 fa0c 	bl	8003c10 <__trace_isr_enter>

  flags = (BDMA->ISR >> 4U) & STM32_BDMA_ISR_MASK;
 80017f8:	4b0a      	ldr	r3, [pc, #40]	; (8001824 <Vector248+0x34>)
  BDMA->IFCR = flags << 4U;
  if (bdma.streams[1].func)
 80017fa:	480b      	ldr	r0, [pc, #44]	; (8001828 <Vector248+0x38>)
  flags = (BDMA->ISR >> 4U) & STM32_BDMA_ISR_MASK;
 80017fc:	6819      	ldr	r1, [r3, #0]
  if (bdma.streams[1].func)
 80017fe:	68c2      	ldr	r2, [r0, #12]
  flags = (BDMA->ISR >> 4U) & STM32_BDMA_ISR_MASK;
 8001800:	0909      	lsrs	r1, r1, #4
 8001802:	f001 010e 	and.w	r1, r1, #14
  BDMA->IFCR = flags << 4U;
 8001806:	010c      	lsls	r4, r1, #4
 8001808:	605c      	str	r4, [r3, #4]
  if (bdma.streams[1].func)
 800180a:	b10a      	cbz	r2, 8001810 <Vector248+0x20>
    bdma.streams[1].func(bdma.streams[1].param, flags);
 800180c:	6900      	ldr	r0, [r0, #16]
 800180e:	4790      	blx	r2

  OSAL_IRQ_EPILOGUE();
 8001810:	4803      	ldr	r0, [pc, #12]	; (8001820 <Vector248+0x30>)
 8001812:	f002 fa15 	bl	8003c40 <__trace_isr_leave>
}
 8001816:	e8bd 4010 	ldmia.w	sp!, {r4, lr}
  OSAL_IRQ_EPILOGUE();
 800181a:	f002 bf11 	b.w	8004640 <__port_irq_epilogue>
 800181e:	bf00      	nop
 8001820:	080049e4 	.word	0x080049e4
 8001824:	58025400 	.word	0x58025400
 8001828:	24000440 	.word	0x24000440
 800182c:	00000000 	.word	0x00000000

08001830 <Vector24C>:
 * @isr
 */
OSAL_IRQ_HANDLER(STM32_BDMA1_CH2_HANDLER) {
  uint32_t flags;

  OSAL_IRQ_PROLOGUE();
 8001830:	480b      	ldr	r0, [pc, #44]	; (8001860 <Vector24C+0x30>)
OSAL_IRQ_HANDLER(STM32_BDMA1_CH2_HANDLER) {
 8001832:	b510      	push	{r4, lr}
  OSAL_IRQ_PROLOGUE();
 8001834:	f002 f9ec 	bl	8003c10 <__trace_isr_enter>

  flags = (BDMA->ISR >> 8U) & STM32_BDMA_ISR_MASK;
 8001838:	4b0a      	ldr	r3, [pc, #40]	; (8001864 <Vector24C+0x34>)
  BDMA->IFCR = flags << 8U;
  if (bdma.streams[2].func)
 800183a:	480b      	ldr	r0, [pc, #44]	; (8001868 <Vector24C+0x38>)
  flags = (BDMA->ISR >> 8U) & STM32_BDMA_ISR_MASK;
 800183c:	6819      	ldr	r1, [r3, #0]
  if (bdma.streams[2].func)
 800183e:	6942      	ldr	r2, [r0, #20]
  flags = (BDMA->ISR >> 8U) & STM32_BDMA_ISR_MASK;
 8001840:	0a09      	lsrs	r1, r1, #8
 8001842:	f001 010e 	and.w	r1, r1, #14
  BDMA->IFCR = flags << 8U;
 8001846:	020c      	lsls	r4, r1, #8
 8001848:	605c      	str	r4, [r3, #4]
  if (bdma.streams[2].func)
 800184a:	b10a      	cbz	r2, 8001850 <Vector24C+0x20>
    bdma.streams[2].func(bdma.streams[2].param, flags);
 800184c:	6980      	ldr	r0, [r0, #24]
 800184e:	4790      	blx	r2

  OSAL_IRQ_EPILOGUE();
 8001850:	4803      	ldr	r0, [pc, #12]	; (8001860 <Vector24C+0x30>)
 8001852:	f002 f9f5 	bl	8003c40 <__trace_isr_leave>
}
 8001856:	e8bd 4010 	ldmia.w	sp!, {r4, lr}
  OSAL_IRQ_EPILOGUE();
 800185a:	f002 bef1 	b.w	8004640 <__port_irq_epilogue>
 800185e:	bf00      	nop
 8001860:	080049d8 	.word	0x080049d8
 8001864:	58025400 	.word	0x58025400
 8001868:	24000440 	.word	0x24000440
 800186c:	00000000 	.word	0x00000000

08001870 <Vector250>:
 * @isr
 */
OSAL_IRQ_HANDLER(STM32_BDMA1_CH3_HANDLER) {
  uint32_t flags;

  OSAL_IRQ_PROLOGUE();
 8001870:	480b      	ldr	r0, [pc, #44]	; (80018a0 <Vector250+0x30>)
OSAL_IRQ_HANDLER(STM32_BDMA1_CH3_HANDLER) {
 8001872:	b510      	push	{r4, lr}
  OSAL_IRQ_PROLOGUE();
 8001874:	f002 f9cc 	bl	8003c10 <__trace_isr_enter>

  flags = (BDMA->ISR >> 12U) & STM32_BDMA_ISR_MASK;
 8001878:	4b0a      	ldr	r3, [pc, #40]	; (80018a4 <Vector250+0x34>)
  BDMA->IFCR = flags << 12U;
  if (bdma.streams[3].func)
 800187a:	480b      	ldr	r0, [pc, #44]	; (80018a8 <Vector250+0x38>)
  flags = (BDMA->ISR >> 12U) & STM32_BDMA_ISR_MASK;
 800187c:	6819      	ldr	r1, [r3, #0]
  if (bdma.streams[3].func)
 800187e:	69c2      	ldr	r2, [r0, #28]
  flags = (BDMA->ISR >> 12U) & STM32_BDMA_ISR_MASK;
 8001880:	0b09      	lsrs	r1, r1, #12
 8001882:	f001 010e 	and.w	r1, r1, #14
  BDMA->IFCR = flags << 12U;
 8001886:	030c      	lsls	r4, r1, #12
 8001888:	605c      	str	r4, [r3, #4]
  if (bdma.streams[3].func)
 800188a:	b10a      	cbz	r2, 8001890 <Vector250+0x20>
    bdma.streams[3].func(bdma.streams[3].param, flags);
 800188c:	6a00      	ldr	r0, [r0, #32]
 800188e:	4790      	blx	r2

  OSAL_IRQ_EPILOGUE();
 8001890:	4803      	ldr	r0, [pc, #12]	; (80018a0 <Vector250+0x30>)
 8001892:	f002 f9d5 	bl	8003c40 <__trace_isr_leave>
}
 8001896:	e8bd 4010 	ldmia.w	sp!, {r4, lr}
  OSAL_IRQ_EPILOGUE();
 800189a:	f002 bed1 	b.w	8004640 <__port_irq_epilogue>
 800189e:	bf00      	nop
 80018a0:	080049cc 	.word	0x080049cc
 80018a4:	58025400 	.word	0x58025400
 80018a8:	24000440 	.word	0x24000440
 80018ac:	00000000 	.word	0x00000000

080018b0 <Vector254>:
 * @isr
 */
OSAL_IRQ_HANDLER(STM32_BDMA1_CH4_HANDLER) {
  uint32_t flags;

  OSAL_IRQ_PROLOGUE();
 80018b0:	480b      	ldr	r0, [pc, #44]	; (80018e0 <Vector254+0x30>)
OSAL_IRQ_HANDLER(STM32_BDMA1_CH4_HANDLER) {
 80018b2:	b510      	push	{r4, lr}
  OSAL_IRQ_PROLOGUE();
 80018b4:	f002 f9ac 	bl	8003c10 <__trace_isr_enter>

  flags = (BDMA->ISR >> 16U) & STM32_BDMA_ISR_MASK;
 80018b8:	4b0a      	ldr	r3, [pc, #40]	; (80018e4 <Vector254+0x34>)
  BDMA->IFCR = flags << 16U;
  if (bdma.streams[4].func)
 80018ba:	480b      	ldr	r0, [pc, #44]	; (80018e8 <Vector254+0x38>)
  flags = (BDMA->ISR >> 16U) & STM32_BDMA_ISR_MASK;
 80018bc:	6819      	ldr	r1, [r3, #0]
  if (bdma.streams[4].func)
 80018be:	6a42      	ldr	r2, [r0, #36]	; 0x24
  flags = (BDMA->ISR >> 16U) & STM32_BDMA_ISR_MASK;
 80018c0:	0c09      	lsrs	r1, r1, #16
 80018c2:	f001 010e 	and.w	r1, r1, #14
  BDMA->IFCR = flags << 16U;
 80018c6:	040c      	lsls	r4, r1, #16
 80018c8:	605c      	str	r4, [r3, #4]
  if (bdma.streams[4].func)
 80018ca:	b10a      	cbz	r2, 80018d0 <Vector254+0x20>
    bdma.streams[4].func(bdma.streams[4].param, flags);
 80018cc:	6a80      	ldr	r0, [r0, #40]	; 0x28
 80018ce:	4790      	blx	r2

  OSAL_IRQ_EPILOGUE();
 80018d0:	4803      	ldr	r0, [pc, #12]	; (80018e0 <Vector254+0x30>)
 80018d2:	f002 f9b5 	bl	8003c40 <__trace_isr_leave>
}
 80018d6:	e8bd 4010 	ldmia.w	sp!, {r4, lr}
  OSAL_IRQ_EPILOGUE();
 80018da:	f002 beb1 	b.w	8004640 <__port_irq_epilogue>
 80018de:	bf00      	nop
 80018e0:	080049c0 	.word	0x080049c0
 80018e4:	58025400 	.word	0x58025400
 80018e8:	24000440 	.word	0x24000440
 80018ec:	00000000 	.word	0x00000000

080018f0 <Vector258>:
 * @isr
 */
OSAL_IRQ_HANDLER(STM32_BDMA1_CH5_HANDLER) {
  uint32_t flags;

  OSAL_IRQ_PROLOGUE();
 80018f0:	480b      	ldr	r0, [pc, #44]	; (8001920 <Vector258+0x30>)
OSAL_IRQ_HANDLER(STM32_BDMA1_CH5_HANDLER) {
 80018f2:	b510      	push	{r4, lr}
  OSAL_IRQ_PROLOGUE();
 80018f4:	f002 f98c 	bl	8003c10 <__trace_isr_enter>

  flags = (BDMA->ISR >> 20U) & STM32_BDMA_ISR_MASK;
 80018f8:	4b0a      	ldr	r3, [pc, #40]	; (8001924 <Vector258+0x34>)
  BDMA->IFCR = flags << 20U;
  if (bdma.streams[5].func)
 80018fa:	480b      	ldr	r0, [pc, #44]	; (8001928 <Vector258+0x38>)
  flags = (BDMA->ISR >> 20U) & STM32_BDMA_ISR_MASK;
 80018fc:	6819      	ldr	r1, [r3, #0]
  if (bdma.streams[5].func)
 80018fe:	6ac2      	ldr	r2, [r0, #44]	; 0x2c
  flags = (BDMA->ISR >> 20U) & STM32_BDMA_ISR_MASK;
 8001900:	0d09      	lsrs	r1, r1, #20
 8001902:	f001 010e 	and.w	r1, r1, #14
  BDMA->IFCR = flags << 20U;
 8001906:	050c      	lsls	r4, r1, #20
 8001908:	605c      	str	r4, [r3, #4]
  if (bdma.streams[5].func)
 800190a:	b10a      	cbz	r2, 8001910 <Vector258+0x20>
    bdma.streams[5].func(bdma.streams[5].param, flags);
 800190c:	6b00      	ldr	r0, [r0, #48]	; 0x30
 800190e:	4790      	blx	r2

  OSAL_IRQ_EPILOGUE();
 8001910:	4803      	ldr	r0, [pc, #12]	; (8001920 <Vector258+0x30>)
 8001912:	f002 f995 	bl	8003c40 <__trace_isr_leave>
}
 8001916:	e8bd 4010 	ldmia.w	sp!, {r4, lr}
  OSAL_IRQ_EPILOGUE();
 800191a:	f002 be91 	b.w	8004640 <__port_irq_epilogue>
 800191e:	bf00      	nop
 8001920:	080049b4 	.word	0x080049b4
 8001924:	58025400 	.word	0x58025400
 8001928:	24000440 	.word	0x24000440
 800192c:	00000000 	.word	0x00000000

08001930 <Vector25C>:
 * @isr
 */
OSAL_IRQ_HANDLER(STM32_BDMA1_CH6_HANDLER) {
  uint32_t flags;

  OSAL_IRQ_PROLOGUE();
 8001930:	480b      	ldr	r0, [pc, #44]	; (8001960 <Vector25C+0x30>)
OSAL_IRQ_HANDLER(STM32_BDMA1_CH6_HANDLER) {
 8001932:	b510      	push	{r4, lr}
  OSAL_IRQ_PROLOGUE();
 8001934:	f002 f96c 	bl	8003c10 <__trace_isr_enter>

  flags = (BDMA->ISR >> 24U) & STM32_BDMA_ISR_MASK;
 8001938:	4b0a      	ldr	r3, [pc, #40]	; (8001964 <Vector25C+0x34>)
  BDMA->IFCR = flags << 24U;
  if (bdma.streams[6].func)
 800193a:	480b      	ldr	r0, [pc, #44]	; (8001968 <Vector25C+0x38>)
  flags = (BDMA->ISR >> 24U) & STM32_BDMA_ISR_MASK;
 800193c:	6819      	ldr	r1, [r3, #0]
  if (bdma.streams[6].func)
 800193e:	6b42      	ldr	r2, [r0, #52]	; 0x34
  flags = (BDMA->ISR >> 24U) & STM32_BDMA_ISR_MASK;
 8001940:	0e09      	lsrs	r1, r1, #24
 8001942:	f001 010e 	and.w	r1, r1, #14
  BDMA->IFCR = flags << 24U;
 8001946:	060c      	lsls	r4, r1, #24
 8001948:	605c      	str	r4, [r3, #4]
  if (bdma.streams[6].func)
 800194a:	b10a      	cbz	r2, 8001950 <Vector25C+0x20>
    bdma.streams[6].func(bdma.streams[6].param, flags);
 800194c:	6b80      	ldr	r0, [r0, #56]	; 0x38
 800194e:	4790      	blx	r2

  OSAL_IRQ_EPILOGUE();
 8001950:	4803      	ldr	r0, [pc, #12]	; (8001960 <Vector25C+0x30>)
 8001952:	f002 f975 	bl	8003c40 <__trace_isr_leave>
}
 8001956:	e8bd 4010 	ldmia.w	sp!, {r4, lr}
  OSAL_IRQ_EPILOGUE();
 800195a:	f002 be71 	b.w	8004640 <__port_irq_epilogue>
 800195e:	bf00      	nop
 8001960:	080049a8 	.word	0x080049a8
 8001964:	58025400 	.word	0x58025400
 8001968:	24000440 	.word	0x24000440
 800196c:	00000000 	.word	0x00000000

08001970 <Vector260>:
 * @isr
 */
OSAL_IRQ_HANDLER(STM32_BDMA1_CH7_HANDLER) {
  uint32_t flags;

  OSAL_IRQ_PROLOGUE();
 8001970:	480b      	ldr	r0, [pc, #44]	; (80019a0 <Vector260+0x30>)
OSAL_IRQ_HANDLER(STM32_BDMA1_CH7_HANDLER) {
 8001972:	b510      	push	{r4, lr}
  OSAL_IRQ_PROLOGUE();
 8001974:	f002 f94c 	bl	8003c10 <__trace_isr_enter>

  flags = (BDMA->ISR >> 28U) & STM32_BDMA_ISR_MASK;
 8001978:	4b0a      	ldr	r3, [pc, #40]	; (80019a4 <Vector260+0x34>)
  BDMA->IFCR = flags << 28U;
  if (bdma.streams[7].func)
 800197a:	480b      	ldr	r0, [pc, #44]	; (80019a8 <Vector260+0x38>)
  flags = (BDMA->ISR >> 28U) & STM32_BDMA_ISR_MASK;
 800197c:	6819      	ldr	r1, [r3, #0]
  if (bdma.streams[7].func)
 800197e:	6bc2      	ldr	r2, [r0, #60]	; 0x3c
  flags = (BDMA->ISR >> 28U) & STM32_BDMA_ISR_MASK;
 8001980:	0f09      	lsrs	r1, r1, #28
 8001982:	f001 010e 	and.w	r1, r1, #14
  BDMA->IFCR = flags << 28U;
 8001986:	070c      	lsls	r4, r1, #28
 8001988:	605c      	str	r4, [r3, #4]
  if (bdma.streams[7].func)
 800198a:	b10a      	cbz	r2, 8001990 <Vector260+0x20>
    bdma.streams[7].func(bdma.streams[7].param, flags);
 800198c:	6c00      	ldr	r0, [r0, #64]	; 0x40
 800198e:	4790      	blx	r2

  OSAL_IRQ_EPILOGUE();
 8001990:	4803      	ldr	r0, [pc, #12]	; (80019a0 <Vector260+0x30>)
 8001992:	f002 f955 	bl	8003c40 <__trace_isr_leave>
}
 8001996:	e8bd 4010 	ldmia.w	sp!, {r4, lr}
  OSAL_IRQ_EPILOGUE();
 800199a:	f002 be51 	b.w	8004640 <__port_irq_epilogue>
 800199e:	bf00      	nop
 80019a0:	0800499c 	.word	0x0800499c
 80019a4:	58025400 	.word	0x58025400
 80019a8:	24000440 	.word	0x24000440
 80019ac:	00000000 	.word	0x00000000

080019b0 <bdmaInit>:
 * @init
 */
void bdmaInit(void) {
  unsigned i;

  bdma.allocated_mask = 0U;
 80019b0:	480b      	ldr	r0, [pc, #44]	; (80019e0 <bdmaInit+0x30>)
 80019b2:	2200      	movs	r2, #0
 80019b4:	4b0b      	ldr	r3, [pc, #44]	; (80019e4 <bdmaInit+0x34>)
 80019b6:	4601      	mov	r1, r0
 80019b8:	6002      	str	r2, [r0, #0]
  for (i = 0; i < STM32_BDMA_STREAMS; i++) {
 80019ba:	f103 0ca0 	add.w	ip, r3, #160	; 0xa0
  bdma.allocated_mask = 0U;
 80019be:	480a      	ldr	r0, [pc, #40]	; (80019e8 <bdmaInit+0x38>)
 80019c0:	e001      	b.n	80019c6 <bdmaInit+0x16>
    _stm32_bdma_streams[i].channel->CCR = 0U;
 80019c2:	f853 0c14 	ldr.w	r0, [r3, #-20]
  for (i = 0; i < STM32_BDMA_STREAMS; i++) {
 80019c6:	3314      	adds	r3, #20
    _stm32_bdma_streams[i].channel->CCR = 0U;
 80019c8:	6002      	str	r2, [r0, #0]
    bdma.streams[i].func  = NULL;
 80019ca:	604a      	str	r2, [r1, #4]
  for (i = 0; i < STM32_BDMA_STREAMS; i++) {
 80019cc:	4563      	cmp	r3, ip
    bdma.streams[i].param = NULL;
 80019ce:	f841 2f08 	str.w	r2, [r1, #8]!
  for (i = 0; i < STM32_BDMA_STREAMS; i++) {
 80019d2:	d1f6      	bne.n	80019c2 <bdmaInit+0x12>
  }
  BDMA->IFCR = 0xFFFFFFFFU;
 80019d4:	4b05      	ldr	r3, [pc, #20]	; (80019ec <bdmaInit+0x3c>)
 80019d6:	f04f 32ff 	mov.w	r2, #4294967295
 80019da:	605a      	str	r2, [r3, #4]
}
 80019dc:	4770      	bx	lr
 80019de:	bf00      	nop
 80019e0:	24000440 	.word	0x24000440
 80019e4:	08004a14 	.word	0x08004a14
 80019e8:	58025408 	.word	0x58025408
 80019ec:	58025400 	.word	0x58025400

080019f0 <Vector6C>:
 * @isr
 */
OSAL_IRQ_HANDLER(STM32_DMA1_CH0_HANDLER) {
  uint32_t flags;

  OSAL_IRQ_PROLOGUE();
 80019f0:	480a      	ldr	r0, [pc, #40]	; (8001a1c <Vector6C+0x2c>)
OSAL_IRQ_HANDLER(STM32_DMA1_CH0_HANDLER) {
 80019f2:	b508      	push	{r3, lr}
  OSAL_IRQ_PROLOGUE();
 80019f4:	f002 f90c 	bl	8003c10 <__trace_isr_enter>

  flags = (DMA1->LISR >> 0U) & STM32_DMA_ISR_MASK;
 80019f8:	4b09      	ldr	r3, [pc, #36]	; (8001a20 <Vector6C+0x30>)
  DMA1->LIFCR = flags << 0U;
  if (dma.streams[0].func)
 80019fa:	480a      	ldr	r0, [pc, #40]	; (8001a24 <Vector6C+0x34>)
  flags = (DMA1->LISR >> 0U) & STM32_DMA_ISR_MASK;
 80019fc:	6819      	ldr	r1, [r3, #0]
  if (dma.streams[0].func)
 80019fe:	6842      	ldr	r2, [r0, #4]
  flags = (DMA1->LISR >> 0U) & STM32_DMA_ISR_MASK;
 8001a00:	f001 013d 	and.w	r1, r1, #61	; 0x3d
  DMA1->LIFCR = flags << 0U;
 8001a04:	6099      	str	r1, [r3, #8]
  if (dma.streams[0].func)
 8001a06:	b10a      	cbz	r2, 8001a0c <Vector6C+0x1c>
    dma.streams[0].func(dma.streams[0].param, flags);
 8001a08:	6880      	ldr	r0, [r0, #8]
 8001a0a:	4790      	blx	r2

  OSAL_IRQ_EPILOGUE();
 8001a0c:	4803      	ldr	r0, [pc, #12]	; (8001a1c <Vector6C+0x2c>)
 8001a0e:	f002 f917 	bl	8003c40 <__trace_isr_leave>
}
 8001a12:	e8bd 4008 	ldmia.w	sp!, {r3, lr}
  OSAL_IRQ_EPILOGUE();
 8001a16:	f002 be13 	b.w	8004640 <__port_irq_epilogue>
 8001a1a:	bf00      	nop
 8001a1c:	08004af0 	.word	0x08004af0
 8001a20:	40020000 	.word	0x40020000
 8001a24:	24000484 	.word	0x24000484
	...

08001a30 <Vector70>:
 * @isr
 */
OSAL_IRQ_HANDLER(STM32_DMA1_CH1_HANDLER) {
  uint32_t flags;

  OSAL_IRQ_PROLOGUE();
 8001a30:	480b      	ldr	r0, [pc, #44]	; (8001a60 <Vector70+0x30>)
OSAL_IRQ_HANDLER(STM32_DMA1_CH1_HANDLER) {
 8001a32:	b510      	push	{r4, lr}
  OSAL_IRQ_PROLOGUE();
 8001a34:	f002 f8ec 	bl	8003c10 <__trace_isr_enter>

  flags = (DMA1->LISR >> 6U) & STM32_DMA_ISR_MASK;
 8001a38:	4b0a      	ldr	r3, [pc, #40]	; (8001a64 <Vector70+0x34>)
  DMA1->LIFCR = flags << 6U;
  if (dma.streams[1].func)
 8001a3a:	480b      	ldr	r0, [pc, #44]	; (8001a68 <Vector70+0x38>)
  flags = (DMA1->LISR >> 6U) & STM32_DMA_ISR_MASK;
 8001a3c:	6819      	ldr	r1, [r3, #0]
  if (dma.streams[1].func)
 8001a3e:	68c2      	ldr	r2, [r0, #12]
  flags = (DMA1->LISR >> 6U) & STM32_DMA_ISR_MASK;
 8001a40:	0989      	lsrs	r1, r1, #6
 8001a42:	f001 013d 	and.w	r1, r1, #61	; 0x3d
  DMA1->LIFCR = flags << 6U;
 8001a46:	018c      	lsls	r4, r1, #6
 8001a48:	609c      	str	r4, [r3, #8]
  if (dma.streams[1].func)
 8001a4a:	b10a      	cbz	r2, 8001a50 <Vector70+0x20>
    dma.streams[1].func(dma.streams[1].param, flags);
 8001a4c:	6900      	ldr	r0, [r0, #16]
 8001a4e:	4790      	blx	r2

  OSAL_IRQ_EPILOGUE();
 8001a50:	4803      	ldr	r0, [pc, #12]	; (8001a60 <Vector70+0x30>)
 8001a52:	f002 f8f5 	bl	8003c40 <__trace_isr_leave>
}
 8001a56:	e8bd 4010 	ldmia.w	sp!, {r4, lr}
  OSAL_IRQ_EPILOGUE();
 8001a5a:	f002 bdf1 	b.w	8004640 <__port_irq_epilogue>
 8001a5e:	bf00      	nop
 8001a60:	08004ae4 	.word	0x08004ae4
 8001a64:	40020000 	.word	0x40020000
 8001a68:	24000484 	.word	0x24000484
 8001a6c:	00000000 	.word	0x00000000

08001a70 <Vector74>:
 * @isr
 */
OSAL_IRQ_HANDLER(STM32_DMA1_CH2_HANDLER) {
  uint32_t flags;

  OSAL_IRQ_PROLOGUE();
 8001a70:	480b      	ldr	r0, [pc, #44]	; (8001aa0 <Vector74+0x30>)
OSAL_IRQ_HANDLER(STM32_DMA1_CH2_HANDLER) {
 8001a72:	b510      	push	{r4, lr}
  OSAL_IRQ_PROLOGUE();
 8001a74:	f002 f8cc 	bl	8003c10 <__trace_isr_enter>

  flags = (DMA1->LISR >> 16U) & STM32_DMA_ISR_MASK;
 8001a78:	4b0a      	ldr	r3, [pc, #40]	; (8001aa4 <Vector74+0x34>)
  DMA1->LIFCR = flags << 16U;
  if (dma.streams[2].func)
 8001a7a:	480b      	ldr	r0, [pc, #44]	; (8001aa8 <Vector74+0x38>)
  flags = (DMA1->LISR >> 16U) & STM32_DMA_ISR_MASK;
 8001a7c:	6819      	ldr	r1, [r3, #0]
  if (dma.streams[2].func)
 8001a7e:	6942      	ldr	r2, [r0, #20]
  flags = (DMA1->LISR >> 16U) & STM32_DMA_ISR_MASK;
 8001a80:	0c09      	lsrs	r1, r1, #16
 8001a82:	f001 013d 	and.w	r1, r1, #61	; 0x3d
  DMA1->LIFCR = flags << 16U;
 8001a86:	040c      	lsls	r4, r1, #16
 8001a88:	609c      	str	r4, [r3, #8]
  if (dma.streams[2].func)
 8001a8a:	b10a      	cbz	r2, 8001a90 <Vector74+0x20>
    dma.streams[2].func(dma.streams[2].param, flags);
 8001a8c:	6980      	ldr	r0, [r0, #24]
 8001a8e:	4790      	blx	r2

  OSAL_IRQ_EPILOGUE();
 8001a90:	4803      	ldr	r0, [pc, #12]	; (8001aa0 <Vector74+0x30>)
 8001a92:	f002 f8d5 	bl	8003c40 <__trace_isr_leave>
}
 8001a96:	e8bd 4010 	ldmia.w	sp!, {r4, lr}
  OSAL_IRQ_EPILOGUE();
 8001a9a:	f002 bdd1 	b.w	8004640 <__port_irq_epilogue>
 8001a9e:	bf00      	nop
 8001aa0:	08004ad8 	.word	0x08004ad8
 8001aa4:	40020000 	.word	0x40020000
 8001aa8:	24000484 	.word	0x24000484
 8001aac:	00000000 	.word	0x00000000

08001ab0 <Vector78>:
 * @isr
 */
OSAL_IRQ_HANDLER(STM32_DMA1_CH3_HANDLER) {
  uint32_t flags;

  OSAL_IRQ_PROLOGUE();
 8001ab0:	480b      	ldr	r0, [pc, #44]	; (8001ae0 <Vector78+0x30>)
OSAL_IRQ_HANDLER(STM32_DMA1_CH3_HANDLER) {
 8001ab2:	b510      	push	{r4, lr}
  OSAL_IRQ_PROLOGUE();
 8001ab4:	f002 f8ac 	bl	8003c10 <__trace_isr_enter>

  flags = (DMA1->LISR >> 22U) & STM32_DMA_ISR_MASK;
 8001ab8:	4b0a      	ldr	r3, [pc, #40]	; (8001ae4 <Vector78+0x34>)
  DMA1->LIFCR = flags << 22U;
  if (dma.streams[3].func)
 8001aba:	480b      	ldr	r0, [pc, #44]	; (8001ae8 <Vector78+0x38>)
  flags = (DMA1->LISR >> 22U) & STM32_DMA_ISR_MASK;
 8001abc:	6819      	ldr	r1, [r3, #0]
  if (dma.streams[3].func)
 8001abe:	69c2      	ldr	r2, [r0, #28]
  flags = (DMA1->LISR >> 22U) & STM32_DMA_ISR_MASK;
 8001ac0:	0d89      	lsrs	r1, r1, #22
 8001ac2:	f001 013d 	and.w	r1, r1, #61	; 0x3d
  DMA1->LIFCR = flags << 22U;
 8001ac6:	058c      	lsls	r4, r1, #22
 8001ac8:	609c      	str	r4, [r3, #8]
  if (dma.streams[3].func)
 8001aca:	b10a      	cbz	r2, 8001ad0 <Vector78+0x20>
    dma.streams[3].func(dma.streams[3].param, flags);
 8001acc:	6a00      	ldr	r0, [r0, #32]
 8001ace:	4790      	blx	r2

  OSAL_IRQ_EPILOGUE();
 8001ad0:	4803      	ldr	r0, [pc, #12]	; (8001ae0 <Vector78+0x30>)
 8001ad2:	f002 f8b5 	bl	8003c40 <__trace_isr_leave>
}
 8001ad6:	e8bd 4010 	ldmia.w	sp!, {r4, lr}
  OSAL_IRQ_EPILOGUE();
 8001ada:	f002 bdb1 	b.w	8004640 <__port_irq_epilogue>
 8001ade:	bf00      	nop
 8001ae0:	08004acc 	.word	0x08004acc
 8001ae4:	40020000 	.word	0x40020000
 8001ae8:	24000484 	.word	0x24000484
 8001aec:	00000000 	.word	0x00000000

08001af0 <Vector7C>:
 * @isr
 */
OSAL_IRQ_HANDLER(STM32_DMA1_CH4_HANDLER) {
  uint32_t flags;

  OSAL_IRQ_PROLOGUE();
 8001af0:	480a      	ldr	r0, [pc, #40]	; (8001b1c <Vector7C+0x2c>)
OSAL_IRQ_HANDLER(STM32_DMA1_CH4_HANDLER) {
 8001af2:	b508      	push	{r3, lr}
  OSAL_IRQ_PROLOGUE();
 8001af4:	f002 f88c 	bl	8003c10 <__trace_isr_enter>

  flags = (DMA1->HISR >> 0U) & STM32_DMA_ISR_MASK;
 8001af8:	4b09      	ldr	r3, [pc, #36]	; (8001b20 <Vector7C+0x30>)
  DMA1->HIFCR = flags << 0U;
  if (dma.streams[4].func)
 8001afa:	480a      	ldr	r0, [pc, #40]	; (8001b24 <Vector7C+0x34>)
  flags = (DMA1->HISR >> 0U) & STM32_DMA_ISR_MASK;
 8001afc:	6859      	ldr	r1, [r3, #4]
  if (dma.streams[4].func)
 8001afe:	6a42      	ldr	r2, [r0, #36]	; 0x24
  flags = (DMA1->HISR >> 0U) & STM32_DMA_ISR_MASK;
 8001b00:	f001 013d 	and.w	r1, r1, #61	; 0x3d
  DMA1->HIFCR = flags << 0U;
 8001b04:	60d9      	str	r1, [r3, #12]
  if (dma.streams[4].func)
 8001b06:	b10a      	cbz	r2, 8001b0c <Vector7C+0x1c>
    dma.streams[4].func(dma.streams[4].param, flags);
 8001b08:	6a80      	ldr	r0, [r0, #40]	; 0x28
 8001b0a:	4790      	blx	r2

  OSAL_IRQ_EPILOGUE();
 8001b0c:	4803      	ldr	r0, [pc, #12]	; (8001b1c <Vector7C+0x2c>)
 8001b0e:	f002 f897 	bl	8003c40 <__trace_isr_leave>
}
 8001b12:	e8bd 4008 	ldmia.w	sp!, {r3, lr}
  OSAL_IRQ_EPILOGUE();
 8001b16:	f002 bd93 	b.w	8004640 <__port_irq_epilogue>
 8001b1a:	bf00      	nop
 8001b1c:	08004ac0 	.word	0x08004ac0
 8001b20:	40020000 	.word	0x40020000
 8001b24:	24000484 	.word	0x24000484
	...

08001b30 <Vector80>:
 * @isr
 */
OSAL_IRQ_HANDLER(STM32_DMA1_CH5_HANDLER) {
  uint32_t flags;

  OSAL_IRQ_PROLOGUE();
 8001b30:	480b      	ldr	r0, [pc, #44]	; (8001b60 <Vector80+0x30>)
OSAL_IRQ_HANDLER(STM32_DMA1_CH5_HANDLER) {
 8001b32:	b510      	push	{r4, lr}
  OSAL_IRQ_PROLOGUE();
 8001b34:	f002 f86c 	bl	8003c10 <__trace_isr_enter>

  flags = (DMA1->HISR >> 6U) & STM32_DMA_ISR_MASK;
 8001b38:	4b0a      	ldr	r3, [pc, #40]	; (8001b64 <Vector80+0x34>)
  DMA1->HIFCR = flags << 6U;
  if (dma.streams[5].func)
 8001b3a:	480b      	ldr	r0, [pc, #44]	; (8001b68 <Vector80+0x38>)
  flags = (DMA1->HISR >> 6U) & STM32_DMA_ISR_MASK;
 8001b3c:	6859      	ldr	r1, [r3, #4]
  if (dma.streams[5].func)
 8001b3e:	6ac2      	ldr	r2, [r0, #44]	; 0x2c
  flags = (DMA1->HISR >> 6U) & STM32_DMA_ISR_MASK;
 8001b40:	0989      	lsrs	r1, r1, #6
 8001b42:	f001 013d 	and.w	r1, r1, #61	; 0x3d
  DMA1->HIFCR = flags << 6U;
 8001b46:	018c      	lsls	r4, r1, #6
 8001b48:	60dc      	str	r4, [r3, #12]
  if (dma.streams[5].func)
 8001b4a:	b10a      	cbz	r2, 8001b50 <Vector80+0x20>
    dma.streams[5].func(dma.streams[5].param, flags);
 8001b4c:	6b00      	ldr	r0, [r0, #48]	; 0x30
 8001b4e:	4790      	blx	r2

  OSAL_IRQ_EPILOGUE();
 8001b50:	4803      	ldr	r0, [pc, #12]	; (8001b60 <Vector80+0x30>)
 8001b52:	f002 f875 	bl	8003c40 <__trace_isr_leave>
}
 8001b56:	e8bd 4010 	ldmia.w	sp!, {r4, lr}
  OSAL_IRQ_EPILOGUE();
 8001b5a:	f002 bd71 	b.w	8004640 <__port_irq_epilogue>
 8001b5e:	bf00      	nop
 8001b60:	08004ab4 	.word	0x08004ab4
 8001b64:	40020000 	.word	0x40020000
 8001b68:	24000484 	.word	0x24000484
 8001b6c:	00000000 	.word	0x00000000

08001b70 <Vector84>:
 * @isr
 */
OSAL_IRQ_HANDLER(STM32_DMA1_CH6_HANDLER) {
  uint32_t flags;

  OSAL_IRQ_PROLOGUE();
 8001b70:	480b      	ldr	r0, [pc, #44]	; (8001ba0 <Vector84+0x30>)
OSAL_IRQ_HANDLER(STM32_DMA1_CH6_HANDLER) {
 8001b72:	b510      	push	{r4, lr}
  OSAL_IRQ_PROLOGUE();
 8001b74:	f002 f84c 	bl	8003c10 <__trace_isr_enter>

  flags = (DMA1->HISR >> 16U) & STM32_DMA_ISR_MASK;
 8001b78:	4b0a      	ldr	r3, [pc, #40]	; (8001ba4 <Vector84+0x34>)
  DMA1->HIFCR = flags << 16U;
  if (dma.streams[6].func)
 8001b7a:	480b      	ldr	r0, [pc, #44]	; (8001ba8 <Vector84+0x38>)
  flags = (DMA1->HISR >> 16U) & STM32_DMA_ISR_MASK;
 8001b7c:	6859      	ldr	r1, [r3, #4]
  if (dma.streams[6].func)
 8001b7e:	6b42      	ldr	r2, [r0, #52]	; 0x34
  flags = (DMA1->HISR >> 16U) & STM32_DMA_ISR_MASK;
 8001b80:	0c09      	lsrs	r1, r1, #16
 8001b82:	f001 013d 	and.w	r1, r1, #61	; 0x3d
  DMA1->HIFCR = flags << 16U;
 8001b86:	040c      	lsls	r4, r1, #16
 8001b88:	60dc      	str	r4, [r3, #12]
  if (dma.streams[6].func)
 8001b8a:	b10a      	cbz	r2, 8001b90 <Vector84+0x20>
    dma.streams[6].func(dma.streams[6].param, flags);
 8001b8c:	6b80      	ldr	r0, [r0, #56]	; 0x38
 8001b8e:	4790      	blx	r2

  OSAL_IRQ_EPILOGUE();
 8001b90:	4803      	ldr	r0, [pc, #12]	; (8001ba0 <Vector84+0x30>)
 8001b92:	f002 f855 	bl	8003c40 <__trace_isr_leave>
}
 8001b96:	e8bd 4010 	ldmia.w	sp!, {r4, lr}
  OSAL_IRQ_EPILOGUE();
 8001b9a:	f002 bd51 	b.w	8004640 <__port_irq_epilogue>
 8001b9e:	bf00      	nop
 8001ba0:	08004b50 	.word	0x08004b50
 8001ba4:	40020000 	.word	0x40020000
 8001ba8:	24000484 	.word	0x24000484
 8001bac:	00000000 	.word	0x00000000

08001bb0 <VectorFC>:
 * @isr
 */
OSAL_IRQ_HANDLER(STM32_DMA1_CH7_HANDLER) {
  uint32_t flags;

  OSAL_IRQ_PROLOGUE();
 8001bb0:	480b      	ldr	r0, [pc, #44]	; (8001be0 <VectorFC+0x30>)
OSAL_IRQ_HANDLER(STM32_DMA1_CH7_HANDLER) {
 8001bb2:	b510      	push	{r4, lr}
  OSAL_IRQ_PROLOGUE();
 8001bb4:	f002 f82c 	bl	8003c10 <__trace_isr_enter>

  flags = (DMA1->HISR >> 22U) & STM32_DMA_ISR_MASK;
 8001bb8:	4b0a      	ldr	r3, [pc, #40]	; (8001be4 <VectorFC+0x34>)
  DMA1->HIFCR = flags << 22U;
  if (dma.streams[7].func)
 8001bba:	480b      	ldr	r0, [pc, #44]	; (8001be8 <VectorFC+0x38>)
  flags = (DMA1->HISR >> 22U) & STM32_DMA_ISR_MASK;
 8001bbc:	6859      	ldr	r1, [r3, #4]
  if (dma.streams[7].func)
 8001bbe:	6bc2      	ldr	r2, [r0, #60]	; 0x3c
  flags = (DMA1->HISR >> 22U) & STM32_DMA_ISR_MASK;
 8001bc0:	0d89      	lsrs	r1, r1, #22
 8001bc2:	f001 013d 	and.w	r1, r1, #61	; 0x3d
  DMA1->HIFCR = flags << 22U;
 8001bc6:	058c      	lsls	r4, r1, #22
 8001bc8:	60dc      	str	r4, [r3, #12]
  if (dma.streams[7].func)
 8001bca:	b10a      	cbz	r2, 8001bd0 <VectorFC+0x20>
    dma.streams[7].func(dma.streams[7].param, flags);
 8001bcc:	6c00      	ldr	r0, [r0, #64]	; 0x40
 8001bce:	4790      	blx	r2

  OSAL_IRQ_EPILOGUE();
 8001bd0:	4803      	ldr	r0, [pc, #12]	; (8001be0 <VectorFC+0x30>)
 8001bd2:	f002 f835 	bl	8003c40 <__trace_isr_leave>
}
 8001bd6:	e8bd 4010 	ldmia.w	sp!, {r4, lr}
  OSAL_IRQ_EPILOGUE();
 8001bda:	f002 bd31 	b.w	8004640 <__port_irq_epilogue>
 8001bde:	bf00      	nop
 8001be0:	08004b44 	.word	0x08004b44
 8001be4:	40020000 	.word	0x40020000
 8001be8:	24000484 	.word	0x24000484
 8001bec:	00000000 	.word	0x00000000

08001bf0 <Vector120>:
 * @isr
 */
OSAL_IRQ_HANDLER(STM32_DMA2_CH0_HANDLER) {
  uint32_t flags;

  OSAL_IRQ_PROLOGUE();
 8001bf0:	480a      	ldr	r0, [pc, #40]	; (8001c1c <Vector120+0x2c>)
OSAL_IRQ_HANDLER(STM32_DMA2_CH0_HANDLER) {
 8001bf2:	b508      	push	{r3, lr}
  OSAL_IRQ_PROLOGUE();
 8001bf4:	f002 f80c 	bl	8003c10 <__trace_isr_enter>

  flags = (DMA2->LISR >> 0U) & STM32_DMA_ISR_MASK;
 8001bf8:	4b09      	ldr	r3, [pc, #36]	; (8001c20 <Vector120+0x30>)
  DMA2->LIFCR = flags << 0U;
  if (dma.streams[8].func)
 8001bfa:	480a      	ldr	r0, [pc, #40]	; (8001c24 <Vector120+0x34>)
  flags = (DMA2->LISR >> 0U) & STM32_DMA_ISR_MASK;
 8001bfc:	6819      	ldr	r1, [r3, #0]
  if (dma.streams[8].func)
 8001bfe:	6c42      	ldr	r2, [r0, #68]	; 0x44
  flags = (DMA2->LISR >> 0U) & STM32_DMA_ISR_MASK;
 8001c00:	f001 013d 	and.w	r1, r1, #61	; 0x3d
  DMA2->LIFCR = flags << 0U;
 8001c04:	6099      	str	r1, [r3, #8]
  if (dma.streams[8].func)
 8001c06:	b10a      	cbz	r2, 8001c0c <Vector120+0x1c>
    dma.streams[8].func(dma.streams[8].param, flags);
 8001c08:	6c80      	ldr	r0, [r0, #72]	; 0x48
 8001c0a:	4790      	blx	r2

  OSAL_IRQ_EPILOGUE();
 8001c0c:	4803      	ldr	r0, [pc, #12]	; (8001c1c <Vector120+0x2c>)
 8001c0e:	f002 f817 	bl	8003c40 <__trace_isr_leave>
}
 8001c12:	e8bd 4008 	ldmia.w	sp!, {r3, lr}
  OSAL_IRQ_EPILOGUE();
 8001c16:	f002 bd13 	b.w	8004640 <__port_irq_epilogue>
 8001c1a:	bf00      	nop
 8001c1c:	08004b38 	.word	0x08004b38
 8001c20:	40020400 	.word	0x40020400
 8001c24:	24000484 	.word	0x24000484
	...

08001c30 <Vector124>:
 * @isr
 */
OSAL_IRQ_HANDLER(STM32_DMA2_CH1_HANDLER) {
  uint32_t flags;

  OSAL_IRQ_PROLOGUE();
 8001c30:	480b      	ldr	r0, [pc, #44]	; (8001c60 <Vector124+0x30>)
OSAL_IRQ_HANDLER(STM32_DMA2_CH1_HANDLER) {
 8001c32:	b510      	push	{r4, lr}
  OSAL_IRQ_PROLOGUE();
 8001c34:	f001 ffec 	bl	8003c10 <__trace_isr_enter>

  flags = (DMA2->LISR >> 6U) & STM32_DMA_ISR_MASK;
 8001c38:	4b0a      	ldr	r3, [pc, #40]	; (8001c64 <Vector124+0x34>)
  DMA2->LIFCR = flags << 6U;
  if (dma.streams[9].func)
 8001c3a:	480b      	ldr	r0, [pc, #44]	; (8001c68 <Vector124+0x38>)
  flags = (DMA2->LISR >> 6U) & STM32_DMA_ISR_MASK;
 8001c3c:	6819      	ldr	r1, [r3, #0]
  if (dma.streams[9].func)
 8001c3e:	6cc2      	ldr	r2, [r0, #76]	; 0x4c
  flags = (DMA2->LISR >> 6U) & STM32_DMA_ISR_MASK;
 8001c40:	0989      	lsrs	r1, r1, #6
 8001c42:	f001 013d 	and.w	r1, r1, #61	; 0x3d
  DMA2->LIFCR = flags << 6U;
 8001c46:	018c      	lsls	r4, r1, #6
 8001c48:	609c      	str	r4, [r3, #8]
  if (dma.streams[9].func)
 8001c4a:	b10a      	cbz	r2, 8001c50 <Vector124+0x20>
    dma.streams[9].func(dma.streams[9].param, flags);
 8001c4c:	6d00      	ldr	r0, [r0, #80]	; 0x50
 8001c4e:	4790      	blx	r2

  OSAL_IRQ_EPILOGUE();
 8001c50:	4803      	ldr	r0, [pc, #12]	; (8001c60 <Vector124+0x30>)
 8001c52:	f001 fff5 	bl	8003c40 <__trace_isr_leave>
}
 8001c56:	e8bd 4010 	ldmia.w	sp!, {r4, lr}
  OSAL_IRQ_EPILOGUE();
 8001c5a:	f002 bcf1 	b.w	8004640 <__port_irq_epilogue>
 8001c5e:	bf00      	nop
 8001c60:	08004b2c 	.word	0x08004b2c
 8001c64:	40020400 	.word	0x40020400
 8001c68:	24000484 	.word	0x24000484
 8001c6c:	00000000 	.word	0x00000000

08001c70 <Vector128>:
 * @isr
 */
OSAL_IRQ_HANDLER(STM32_DMA2_CH2_HANDLER) {
  uint32_t flags;

  OSAL_IRQ_PROLOGUE();
 8001c70:	480b      	ldr	r0, [pc, #44]	; (8001ca0 <Vector128+0x30>)
OSAL_IRQ_HANDLER(STM32_DMA2_CH2_HANDLER) {
 8001c72:	b510      	push	{r4, lr}
  OSAL_IRQ_PROLOGUE();
 8001c74:	f001 ffcc 	bl	8003c10 <__trace_isr_enter>

  flags = (DMA2->LISR >> 16U) & STM32_DMA_ISR_MASK;
 8001c78:	4b0a      	ldr	r3, [pc, #40]	; (8001ca4 <Vector128+0x34>)
  DMA2->LIFCR = flags << 16U;
  if (dma.streams[10].func)
 8001c7a:	480b      	ldr	r0, [pc, #44]	; (8001ca8 <Vector128+0x38>)
  flags = (DMA2->LISR >> 16U) & STM32_DMA_ISR_MASK;
 8001c7c:	6819      	ldr	r1, [r3, #0]
  if (dma.streams[10].func)
 8001c7e:	6d42      	ldr	r2, [r0, #84]	; 0x54
  flags = (DMA2->LISR >> 16U) & STM32_DMA_ISR_MASK;
 8001c80:	0c09      	lsrs	r1, r1, #16
 8001c82:	f001 013d 	and.w	r1, r1, #61	; 0x3d
  DMA2->LIFCR = flags << 16U;
 8001c86:	040c      	lsls	r4, r1, #16
 8001c88:	609c      	str	r4, [r3, #8]
  if (dma.streams[10].func)
 8001c8a:	b10a      	cbz	r2, 8001c90 <Vector128+0x20>
    dma.streams[10].func(dma.streams[10].param, flags);
 8001c8c:	6d80      	ldr	r0, [r0, #88]	; 0x58
 8001c8e:	4790      	blx	r2

  OSAL_IRQ_EPILOGUE();
 8001c90:	4803      	ldr	r0, [pc, #12]	; (8001ca0 <Vector128+0x30>)
 8001c92:	f001 ffd5 	bl	8003c40 <__trace_isr_leave>
}
 8001c96:	e8bd 4010 	ldmia.w	sp!, {r4, lr}
  OSAL_IRQ_EPILOGUE();
 8001c9a:	f002 bcd1 	b.w	8004640 <__port_irq_epilogue>
 8001c9e:	bf00      	nop
 8001ca0:	08004b20 	.word	0x08004b20
 8001ca4:	40020400 	.word	0x40020400
 8001ca8:	24000484 	.word	0x24000484
 8001cac:	00000000 	.word	0x00000000

08001cb0 <Vector12C>:
 * @isr
 */
OSAL_IRQ_HANDLER(STM32_DMA2_CH3_HANDLER) {
  uint32_t flags;

  OSAL_IRQ_PROLOGUE();
 8001cb0:	480b      	ldr	r0, [pc, #44]	; (8001ce0 <Vector12C+0x30>)
OSAL_IRQ_HANDLER(STM32_DMA2_CH3_HANDLER) {
 8001cb2:	b510      	push	{r4, lr}
  OSAL_IRQ_PROLOGUE();
 8001cb4:	f001 ffac 	bl	8003c10 <__trace_isr_enter>

  flags = (DMA2->LISR >> 22U) & STM32_DMA_ISR_MASK;
 8001cb8:	4b0a      	ldr	r3, [pc, #40]	; (8001ce4 <Vector12C+0x34>)
  DMA2->LIFCR = flags << 22U;
  if (dma.streams[11].func)
 8001cba:	480b      	ldr	r0, [pc, #44]	; (8001ce8 <Vector12C+0x38>)
  flags = (DMA2->LISR >> 22U) & STM32_DMA_ISR_MASK;
 8001cbc:	6819      	ldr	r1, [r3, #0]
  if (dma.streams[11].func)
 8001cbe:	6dc2      	ldr	r2, [r0, #92]	; 0x5c
  flags = (DMA2->LISR >> 22U) & STM32_DMA_ISR_MASK;
 8001cc0:	0d89      	lsrs	r1, r1, #22
 8001cc2:	f001 013d 	and.w	r1, r1, #61	; 0x3d
  DMA2->LIFCR = flags << 22U;
 8001cc6:	058c      	lsls	r4, r1, #22
 8001cc8:	609c      	str	r4, [r3, #8]
  if (dma.streams[11].func)
 8001cca:	b10a      	cbz	r2, 8001cd0 <Vector12C+0x20>
    dma.streams[11].func(dma.streams[11].param, flags);
 8001ccc:	6e00      	ldr	r0, [r0, #96]	; 0x60
 8001cce:	4790      	blx	r2

  OSAL_IRQ_EPILOGUE();
 8001cd0:	4803      	ldr	r0, [pc, #12]	; (8001ce0 <Vector12C+0x30>)
 8001cd2:	f001 ffb5 	bl	8003c40 <__trace_isr_leave>
}
 8001cd6:	e8bd 4010 	ldmia.w	sp!, {r4, lr}
  OSAL_IRQ_EPILOGUE();
 8001cda:	f002 bcb1 	b.w	8004640 <__port_irq_epilogue>
 8001cde:	bf00      	nop
 8001ce0:	08004b14 	.word	0x08004b14
 8001ce4:	40020400 	.word	0x40020400
 8001ce8:	24000484 	.word	0x24000484
 8001cec:	00000000 	.word	0x00000000

08001cf0 <Vector130>:
 * @isr
 */
OSAL_IRQ_HANDLER(STM32_DMA2_CH4_HANDLER) {
  uint32_t flags;

  OSAL_IRQ_PROLOGUE();
 8001cf0:	480a      	ldr	r0, [pc, #40]	; (8001d1c <Vector130+0x2c>)
OSAL_IRQ_HANDLER(STM32_DMA2_CH4_HANDLER) {
 8001cf2:	b508      	push	{r3, lr}
  OSAL_IRQ_PROLOGUE();
 8001cf4:	f001 ff8c 	bl	8003c10 <__trace_isr_enter>

  flags = (DMA2->HISR >> 0U) & STM32_DMA_ISR_MASK;
 8001cf8:	4b09      	ldr	r3, [pc, #36]	; (8001d20 <Vector130+0x30>)
  DMA2->HIFCR = flags << 0U;
  if (dma.streams[12].func)
 8001cfa:	480a      	ldr	r0, [pc, #40]	; (8001d24 <Vector130+0x34>)
  flags = (DMA2->HISR >> 0U) & STM32_DMA_ISR_MASK;
 8001cfc:	6859      	ldr	r1, [r3, #4]
  if (dma.streams[12].func)
 8001cfe:	6e42      	ldr	r2, [r0, #100]	; 0x64
  flags = (DMA2->HISR >> 0U) & STM32_DMA_ISR_MASK;
 8001d00:	f001 013d 	and.w	r1, r1, #61	; 0x3d
  DMA2->HIFCR = flags << 0U;
 8001d04:	60d9      	str	r1, [r3, #12]
  if (dma.streams[12].func)
 8001d06:	b10a      	cbz	r2, 8001d0c <Vector130+0x1c>
    dma.streams[12].func(dma.streams[12].param, flags);
 8001d08:	6e80      	ldr	r0, [r0, #104]	; 0x68
 8001d0a:	4790      	blx	r2

  OSAL_IRQ_EPILOGUE();
 8001d0c:	4803      	ldr	r0, [pc, #12]	; (8001d1c <Vector130+0x2c>)
 8001d0e:	f001 ff97 	bl	8003c40 <__trace_isr_leave>
}
 8001d12:	e8bd 4008 	ldmia.w	sp!, {r3, lr}
  OSAL_IRQ_EPILOGUE();
 8001d16:	f002 bc93 	b.w	8004640 <__port_irq_epilogue>
 8001d1a:	bf00      	nop
 8001d1c:	08004b08 	.word	0x08004b08
 8001d20:	40020400 	.word	0x40020400
 8001d24:	24000484 	.word	0x24000484
	...

08001d30 <Vector150>:
 * @isr
 */
OSAL_IRQ_HANDLER(STM32_DMA2_CH5_HANDLER) {
  uint32_t flags;

  OSAL_IRQ_PROLOGUE();
 8001d30:	480b      	ldr	r0, [pc, #44]	; (8001d60 <Vector150+0x30>)
OSAL_IRQ_HANDLER(STM32_DMA2_CH5_HANDLER) {
 8001d32:	b510      	push	{r4, lr}
  OSAL_IRQ_PROLOGUE();
 8001d34:	f001 ff6c 	bl	8003c10 <__trace_isr_enter>

  flags = (DMA2->HISR >> 6U) & STM32_DMA_ISR_MASK;
 8001d38:	4b0a      	ldr	r3, [pc, #40]	; (8001d64 <Vector150+0x34>)
  DMA2->HIFCR = flags << 6U;
  if (dma.streams[13].func)
 8001d3a:	480b      	ldr	r0, [pc, #44]	; (8001d68 <Vector150+0x38>)
  flags = (DMA2->HISR >> 6U) & STM32_DMA_ISR_MASK;
 8001d3c:	6859      	ldr	r1, [r3, #4]
  if (dma.streams[13].func)
 8001d3e:	6ec2      	ldr	r2, [r0, #108]	; 0x6c
  flags = (DMA2->HISR >> 6U) & STM32_DMA_ISR_MASK;
 8001d40:	0989      	lsrs	r1, r1, #6
 8001d42:	f001 013d 	and.w	r1, r1, #61	; 0x3d
  DMA2->HIFCR = flags << 6U;
 8001d46:	018c      	lsls	r4, r1, #6
 8001d48:	60dc      	str	r4, [r3, #12]
  if (dma.streams[13].func)
 8001d4a:	b10a      	cbz	r2, 8001d50 <Vector150+0x20>
    dma.streams[13].func(dma.streams[13].param, flags);
 8001d4c:	6f00      	ldr	r0, [r0, #112]	; 0x70
 8001d4e:	4790      	blx	r2

  OSAL_IRQ_EPILOGUE();
 8001d50:	4803      	ldr	r0, [pc, #12]	; (8001d60 <Vector150+0x30>)
 8001d52:	f001 ff75 	bl	8003c40 <__trace_isr_leave>
}
 8001d56:	e8bd 4010 	ldmia.w	sp!, {r4, lr}
  OSAL_IRQ_EPILOGUE();
 8001d5a:	f002 bc71 	b.w	8004640 <__port_irq_epilogue>
 8001d5e:	bf00      	nop
 8001d60:	08004afc 	.word	0x08004afc
 8001d64:	40020400 	.word	0x40020400
 8001d68:	24000484 	.word	0x24000484
 8001d6c:	00000000 	.word	0x00000000

08001d70 <Vector154>:
 * @isr
 */
OSAL_IRQ_HANDLER(STM32_DMA2_CH6_HANDLER) {
  uint32_t flags;

  OSAL_IRQ_PROLOGUE();
 8001d70:	480b      	ldr	r0, [pc, #44]	; (8001da0 <Vector154+0x30>)
OSAL_IRQ_HANDLER(STM32_DMA2_CH6_HANDLER) {
 8001d72:	b510      	push	{r4, lr}
  OSAL_IRQ_PROLOGUE();
 8001d74:	f001 ff4c 	bl	8003c10 <__trace_isr_enter>

  flags = (DMA2->HISR >> 16U) & STM32_DMA_ISR_MASK;
 8001d78:	4b0a      	ldr	r3, [pc, #40]	; (8001da4 <Vector154+0x34>)
  DMA2->HIFCR = flags << 16U;
  if (dma.streams[14].func)
 8001d7a:	480b      	ldr	r0, [pc, #44]	; (8001da8 <Vector154+0x38>)
  flags = (DMA2->HISR >> 16U) & STM32_DMA_ISR_MASK;
 8001d7c:	6859      	ldr	r1, [r3, #4]
  if (dma.streams[14].func)
 8001d7e:	6f42      	ldr	r2, [r0, #116]	; 0x74
  flags = (DMA2->HISR >> 16U) & STM32_DMA_ISR_MASK;
 8001d80:	0c09      	lsrs	r1, r1, #16
 8001d82:	f001 013d 	and.w	r1, r1, #61	; 0x3d
  DMA2->HIFCR = flags << 16U;
 8001d86:	040c      	lsls	r4, r1, #16
 8001d88:	60dc      	str	r4, [r3, #12]
  if (dma.streams[14].func)
 8001d8a:	b10a      	cbz	r2, 8001d90 <Vector154+0x20>
    dma.streams[14].func(dma.streams[14].param, flags);
 8001d8c:	6f80      	ldr	r0, [r0, #120]	; 0x78
 8001d8e:	4790      	blx	r2

  OSAL_IRQ_EPILOGUE();
 8001d90:	4803      	ldr	r0, [pc, #12]	; (8001da0 <Vector154+0x30>)
 8001d92:	f001 ff55 	bl	8003c40 <__trace_isr_leave>
}
 8001d96:	e8bd 4010 	ldmia.w	sp!, {r4, lr}
  OSAL_IRQ_EPILOGUE();
 8001d9a:	f002 bc51 	b.w	8004640 <__port_irq_epilogue>
 8001d9e:	bf00      	nop
 8001da0:	08004aa8 	.word	0x08004aa8
 8001da4:	40020400 	.word	0x40020400
 8001da8:	24000484 	.word	0x24000484
 8001dac:	00000000 	.word	0x00000000

08001db0 <Vector158>:
 * @isr
 */
OSAL_IRQ_HANDLER(STM32_DMA2_CH7_HANDLER) {
  uint32_t flags;

  OSAL_IRQ_PROLOGUE();
 8001db0:	480b      	ldr	r0, [pc, #44]	; (8001de0 <Vector158+0x30>)
OSAL_IRQ_HANDLER(STM32_DMA2_CH7_HANDLER) {
 8001db2:	b510      	push	{r4, lr}
  OSAL_IRQ_PROLOGUE();
 8001db4:	f001 ff2c 	bl	8003c10 <__trace_isr_enter>

  flags = (DMA2->HISR >> 22U) & STM32_DMA_ISR_MASK;
 8001db8:	4b0a      	ldr	r3, [pc, #40]	; (8001de4 <Vector158+0x34>)
  DMA2->HIFCR = flags << 22U;
  if (dma.streams[15].func)
 8001dba:	480b      	ldr	r0, [pc, #44]	; (8001de8 <Vector158+0x38>)
  flags = (DMA2->HISR >> 22U) & STM32_DMA_ISR_MASK;
 8001dbc:	6859      	ldr	r1, [r3, #4]
  if (dma.streams[15].func)
 8001dbe:	6fc2      	ldr	r2, [r0, #124]	; 0x7c
  flags = (DMA2->HISR >> 22U) & STM32_DMA_ISR_MASK;
 8001dc0:	0d89      	lsrs	r1, r1, #22
 8001dc2:	f001 013d 	and.w	r1, r1, #61	; 0x3d
  DMA2->HIFCR = flags << 22U;
 8001dc6:	058c      	lsls	r4, r1, #22
 8001dc8:	60dc      	str	r4, [r3, #12]
  if (dma.streams[15].func)
 8001dca:	b112      	cbz	r2, 8001dd2 <Vector158+0x22>
    dma.streams[15].func(dma.streams[15].param, flags);
 8001dcc:	f8d0 0080 	ldr.w	r0, [r0, #128]	; 0x80
 8001dd0:	4790      	blx	r2

  OSAL_IRQ_EPILOGUE();
 8001dd2:	4803      	ldr	r0, [pc, #12]	; (8001de0 <Vector158+0x30>)
 8001dd4:	f001 ff34 	bl	8003c40 <__trace_isr_leave>
}
 8001dd8:	e8bd 4010 	ldmia.w	sp!, {r4, lr}
  OSAL_IRQ_EPILOGUE();
 8001ddc:	f002 bc30 	b.w	8004640 <__port_irq_epilogue>
 8001de0:	08004a9c 	.word	0x08004a9c
 8001de4:	40020400 	.word	0x40020400
 8001de8:	24000484 	.word	0x24000484
 8001dec:	00000000 	.word	0x00000000

08001df0 <dmaInit>:
 * @init
 */
void dmaInit(void) {
  unsigned i;

  dma.allocated_mask = 0U;
 8001df0:	2200      	movs	r2, #0
 8001df2:	480d      	ldr	r0, [pc, #52]	; (8001e28 <dmaInit+0x38>)
void dmaInit(void) {
 8001df4:	b430      	push	{r4, r5}
  dma.allocated_mask = 0U;
 8001df6:	4c0d      	ldr	r4, [pc, #52]	; (8001e2c <dmaInit+0x3c>)
 8001df8:	4613      	mov	r3, r2
  for (i = 0U; i < STM32_DMA_STREAMS; i++) {
    _stm32_dma_streams[i].stream->CR = STM32_DMA_CR_RESET_VALUE;
 8001dfa:	4d0d      	ldr	r5, [pc, #52]	; (8001e30 <dmaInit+0x40>)
  dma.allocated_mask = 0U;
 8001dfc:	6022      	str	r2, [r4, #0]
  for (i = 0U; i < STM32_DMA_STREAMS; i++) {
 8001dfe:	e001      	b.n	8001e04 <dmaInit+0x14>
    _stm32_dma_streams[i].stream->CR = STM32_DMA_CR_RESET_VALUE;
 8001e00:	f855 0033 	ldr.w	r0, [r5, r3, lsl #3]
    dma.streams[i].func = NULL;
 8001e04:	eb04 0183 	add.w	r1, r4, r3, lsl #2
  for (i = 0U; i < STM32_DMA_STREAMS; i++) {
 8001e08:	3302      	adds	r3, #2
    _stm32_dma_streams[i].stream->CR = STM32_DMA_CR_RESET_VALUE;
 8001e0a:	6002      	str	r2, [r0, #0]
  for (i = 0U; i < STM32_DMA_STREAMS; i++) {
 8001e0c:	2b20      	cmp	r3, #32
    dma.streams[i].func = NULL;
 8001e0e:	604a      	str	r2, [r1, #4]
  for (i = 0U; i < STM32_DMA_STREAMS; i++) {
 8001e10:	d1f6      	bne.n	8001e00 <dmaInit+0x10>
  }
  DMA1->LIFCR = 0xFFFFFFFFU;
 8001e12:	f04f 33ff 	mov.w	r3, #4294967295
 8001e16:	4907      	ldr	r1, [pc, #28]	; (8001e34 <dmaInit+0x44>)
  DMA1->HIFCR = 0xFFFFFFFFU;
  DMA2->LIFCR = 0xFFFFFFFFU;
 8001e18:	4a07      	ldr	r2, [pc, #28]	; (8001e38 <dmaInit+0x48>)
  DMA1->LIFCR = 0xFFFFFFFFU;
 8001e1a:	608b      	str	r3, [r1, #8]
  DMA1->HIFCR = 0xFFFFFFFFU;
 8001e1c:	60cb      	str	r3, [r1, #12]
  DMA2->LIFCR = 0xFFFFFFFFU;
 8001e1e:	6093      	str	r3, [r2, #8]
  DMA2->HIFCR = 0xFFFFFFFFU;
 8001e20:	60d3      	str	r3, [r2, #12]
}
 8001e22:	bc30      	pop	{r4, r5}
 8001e24:	4770      	bx	lr
 8001e26:	bf00      	nop
 8001e28:	40020010 	.word	0x40020010
 8001e2c:	24000484 	.word	0x24000484
 8001e30:	08004b5c 	.word	0x08004b5c
 8001e34:	40020000 	.word	0x40020000
 8001e38:	40020400 	.word	0x40020400
 8001e3c:	00000000 	.word	0x00000000

08001e40 <dmaStreamAllocI>:
 * @iclass
 */
const stm32_dma_stream_t *dmaStreamAllocI(uint32_t id,
                                          uint32_t priority,
                                          stm32_dmaisr_t func,
                                          void *param) {
 8001e40:	b5f8      	push	{r3, r4, r5, r6, r7, lr}
 8001e42:	2812      	cmp	r0, #18
 8001e44:	d820      	bhi.n	8001e88 <dmaStreamAllocI+0x48>
 8001e46:	e8df f000 	tbb	[pc, r0]
 8001e4a:	0a0a      	.short	0x0a0a
 8001e4c:	0a0a0a0a 	.word	0x0a0a0a0a
 8001e50:	0a0a0a0a 	.word	0x0a0a0a0a
 8001e54:	0a0a0a0a 	.word	0x0a0a0a0a
 8001e58:	746f0a0a 	.word	0x746f0a0a
 8001e5c:	79          	.byte	0x79
 8001e5d:	00          	.byte	0x00
    osalDbgCheck(false);
    return NULL;
  }

  for (i = startid; i <= endid; i++) {
    uint32_t mask = (1U << i);
 8001e5e:	f04f 0c01 	mov.w	ip, #1
 8001e62:	4605      	mov	r5, r0
 8001e64:	fa0c fc00 	lsl.w	ip, ip, r0
    if ((dma.allocated_mask & mask) == 0U) {
 8001e68:	4e37      	ldr	r6, [pc, #220]	; (8001f48 <dmaStreamAllocI+0x108>)
 8001e6a:	6834      	ldr	r4, [r6, #0]
 8001e6c:	ea14 0f0c 	tst.w	r4, ip
 8001e70:	d00d      	beq.n	8001e8e <dmaStreamAllocI+0x4e>
    uint32_t mask = (1U << i);
 8001e72:	f04f 0e01 	mov.w	lr, #1
 8001e76:	e002      	b.n	8001e7e <dmaStreamAllocI+0x3e>
    if ((dma.allocated_mask & mask) == 0U) {
 8001e78:	ea14 0f0c 	tst.w	r4, ip
 8001e7c:	d007      	beq.n	8001e8e <dmaStreamAllocI+0x4e>
  for (i = startid; i <= endid; i++) {
 8001e7e:	3001      	adds	r0, #1
 8001e80:	42a8      	cmp	r0, r5
    uint32_t mask = (1U << i);
 8001e82:	fa0e fc00 	lsl.w	ip, lr, r0
  for (i = startid; i <= endid; i++) {
 8001e86:	d9f7      	bls.n	8001e78 <dmaStreamAllocI+0x38>
                                          void *param) {
 8001e88:	2500      	movs	r5, #0
      return dmastp;
    }
  }

  return NULL;
}
 8001e8a:	4628      	mov	r0, r5
 8001e8c:	bdf8      	pop	{r3, r4, r5, r6, r7, pc}
      dma.allocated_mask  |= mask;
 8001e8e:	ea44 040c 	orr.w	r4, r4, ip
 8001e92:	6034      	str	r4, [r6, #0]
      dma.streams[i].func  = func;
 8001e94:	eb06 06c0 	add.w	r6, r6, r0, lsl #3
      const stm32_dma_stream_t *dmastp = STM32_DMA_STREAM(i);
 8001e98:	4c2c      	ldr	r4, [pc, #176]	; (8001f4c <dmaStreamAllocI+0x10c>)
      dma.streams[i].func  = func;
 8001e9a:	e9c6 2301 	strd	r2, r3, [r6, #4]
      if ((STM32_DMA1_STREAMS_MASK & mask) != 0U) {
 8001e9e:	fa5f f38c 	uxtb.w	r3, ip
      const stm32_dma_stream_t *dmastp = STM32_DMA_STREAM(i);
 8001ea2:	0106      	lsls	r6, r0, #4
 8001ea4:	eb04 1500 	add.w	r5, r4, r0, lsl #4
      if ((STM32_DMA1_STREAMS_MASK & mask) != 0U) {
 8001ea8:	b173      	cbz	r3, 8001ec8 <dmaStreamAllocI+0x88>
  RCC_C1->AHB1ENR |= mask;
 8001eaa:	4b29      	ldr	r3, [pc, #164]	; (8001f50 <dmaStreamAllocI+0x110>)
 8001eac:	f8d3 00d8 	ldr.w	r0, [r3, #216]	; 0xd8
 8001eb0:	f040 0001 	orr.w	r0, r0, #1
 8001eb4:	f8c3 00d8 	str.w	r0, [r3, #216]	; 0xd8
    RCC_C1->AHB1LPENR |= mask;
 8001eb8:	f8d3 0100 	ldr.w	r0, [r3, #256]	; 0x100
 8001ebc:	f040 0001 	orr.w	r0, r0, #1
 8001ec0:	f8c3 0100 	str.w	r0, [r3, #256]	; 0x100
  (void)RCC_C1->AHB1LPENR;
 8001ec4:	f8d3 3100 	ldr.w	r3, [r3, #256]	; 0x100
      if ((STM32_DMA2_STREAMS_MASK & mask) != 0U) {
 8001ec8:	f41c 4f7f 	tst.w	ip, #65280	; 0xff00
 8001ecc:	d11c      	bne.n	8001f08 <dmaStreamAllocI+0xc8>
      dmaStreamDisable(dmastp);
 8001ece:	59a0      	ldr	r0, [r4, r6]
 8001ed0:	6803      	ldr	r3, [r0, #0]
 8001ed2:	f023 031f 	bic.w	r3, r3, #31
 8001ed6:	6003      	str	r3, [r0, #0]
 8001ed8:	6803      	ldr	r3, [r0, #0]
 8001eda:	f013 0301 	ands.w	r3, r3, #1
 8001ede:	d1fb      	bne.n	8001ed8 <dmaStreamAllocI+0x98>
 8001ee0:	4434      	add	r4, r6
 8001ee2:	263d      	movs	r6, #61	; 0x3d
      dmastp->stream->FCR = STM32_DMA_FCR_RESET_VALUE;
 8001ee4:	2721      	movs	r7, #33	; 0x21
      dmaStreamDisable(dmastp);
 8001ee6:	f894 c00c 	ldrb.w	ip, [r4, #12]
 8001eea:	fa06 f60c 	lsl.w	r6, r6, ip
 8001eee:	f8d4 c004 	ldr.w	ip, [r4, #4]
 8001ef2:	f8cc 6000 	str.w	r6, [ip]
      dmastp->stream->CR = STM32_DMA_CR_RESET_VALUE;
 8001ef6:	6003      	str	r3, [r0, #0]
      dmastp->stream->FCR = STM32_DMA_FCR_RESET_VALUE;
 8001ef8:	6147      	str	r7, [r0, #20]
      if (func != NULL) {
 8001efa:	2a00      	cmp	r2, #0
 8001efc:	d0c5      	beq.n	8001e8a <dmaStreamAllocI+0x4a>
        nvicEnableVector(dmastp->vector, priority);
 8001efe:	7ba0      	ldrb	r0, [r4, #14]
 8001f00:	f7ff f9be 	bl	8001280 <nvicEnableVector>
}
 8001f04:	4628      	mov	r0, r5
 8001f06:	bdf8      	pop	{r3, r4, r5, r6, r7, pc}
  RCC_C1->AHB1ENR |= mask;
 8001f08:	4b11      	ldr	r3, [pc, #68]	; (8001f50 <dmaStreamAllocI+0x110>)
 8001f0a:	f8d3 00d8 	ldr.w	r0, [r3, #216]	; 0xd8
 8001f0e:	f040 0002 	orr.w	r0, r0, #2
 8001f12:	f8c3 00d8 	str.w	r0, [r3, #216]	; 0xd8
    RCC_C1->AHB1LPENR |= mask;
 8001f16:	f8d3 0100 	ldr.w	r0, [r3, #256]	; 0x100
 8001f1a:	f040 0002 	orr.w	r0, r0, #2
 8001f1e:	f8c3 0100 	str.w	r0, [r3, #256]	; 0x100
  (void)RCC_C1->AHB1LPENR;
 8001f22:	f8d3 3100 	ldr.w	r3, [r3, #256]	; 0x100
}
 8001f26:	e7d2      	b.n	8001ece <dmaStreamAllocI+0x8e>
                                          void *param) {
 8001f28:	f04f 0c01 	mov.w	ip, #1
 8001f2c:	250f      	movs	r5, #15
 8001f2e:	2000      	movs	r0, #0
 8001f30:	e79a      	b.n	8001e68 <dmaStreamAllocI+0x28>
  return NULL;
 8001f32:	f04f 0c01 	mov.w	ip, #1
 8001f36:	2507      	movs	r5, #7
 8001f38:	2000      	movs	r0, #0
  for (i = startid; i <= endid; i++) {
 8001f3a:	e795      	b.n	8001e68 <dmaStreamAllocI+0x28>
  return NULL;
 8001f3c:	f04f 0c80 	mov.w	ip, #128	; 0x80
 8001f40:	250f      	movs	r5, #15
 8001f42:	2007      	movs	r0, #7
 8001f44:	e790      	b.n	8001e68 <dmaStreamAllocI+0x28>
 8001f46:	bf00      	nop
 8001f48:	24000484 	.word	0x24000484
 8001f4c:	08004b5c 	.word	0x08004b5c
 8001f50:	58024400 	.word	0x58024400
	...

08001f60 <dmaSetRequestSource>:
 */
void dmaSetRequestSource(const stm32_dma_stream_t *dmastp, uint32_t per) {

  osalDbgCheck(per < 256U);

  dmastp->mux->CCR = per;
 8001f60:	6883      	ldr	r3, [r0, #8]
 8001f62:	6019      	str	r1, [r3, #0]
}
 8001f64:	4770      	bx	lr
 8001f66:	bf00      	nop
	...

08001f70 <_pal_lld_init>:

  for (i = 0; i < 16; i++) {
    _pal_init_event(i);
  }
#endif
}
 8001f70:	4770      	bx	lr
 8001f72:	bf00      	nop
	...

08001f80 <_pal_lld_setgroupmode>:
 *
 * @notapi
 */
void _pal_lld_setgroupmode(ioportid_t port,
                           ioportmask_t mask,
                           iomode_t mode) {
 8001f80:	e92d 4ff0 	stmdb	sp!, {r4, r5, r6, r7, r8, r9, sl, fp, lr}

  uint32_t moder   = (mode & PAL_STM32_MODE_MASK) >> 0;
 8001f84:	f002 0903 	and.w	r9, r2, #3
  uint32_t otyper  = (mode & PAL_STM32_OTYPE_MASK) >> 2;
  uint32_t ospeedr = (mode & PAL_STM32_OSPEED_MASK) >> 3;
  uint32_t pupdr   = (mode & PAL_STM32_PUPDR_MASK) >> 5;
 8001f88:	f3c2 1441 	ubfx	r4, r2, #5, #2
  uint32_t otyper  = (mode & PAL_STM32_OTYPE_MASK) >> 2;
 8001f8c:	f3c2 0680 	ubfx	r6, r2, #2, #1
  uint32_t ospeedr = (mode & PAL_STM32_OSPEED_MASK) >> 3;
 8001f90:	f3c2 05c1 	ubfx	r5, r2, #3, #2
  uint32_t altr    = (mode & PAL_STM32_ALTERNATE_MASK) >> 7;
 8001f94:	f3c2 17c3 	ubfx	r7, r2, #7, #4
  uint32_t moder   = (mode & PAL_STM32_MODE_MASK) >> 0;
 8001f98:	46ce      	mov	lr, r9
  uint32_t bit     = 0;
 8001f9a:	2200      	movs	r2, #0
      uint32_t altrmask, m1, m2, m4;

      altrmask = altr << ((bit & 7) * 4);
      m1 = 1 << bit;
      m2 = 3 << (bit * 2);
      m4 = 15 << ((bit & 7) * 4);
 8001f9c:	f04f 0b0f 	mov.w	fp, #15
      m2 = 3 << (bit * 2);
 8001fa0:	46a0      	mov	r8, r4
 8001fa2:	e016      	b.n	8001fd2 <_pal_lld_setgroupmode+0x52>
        port->MODER   = (port->MODER & ~m2) | moder;
      }
      else {
        /* If going into a non-alternate mode then the mode is switched
           before setting the alternate mode in order to avoid glitches.*/
        port->MODER   = (port->MODER & ~m2) | moder;
 8001fa4:	6803      	ldr	r3, [r0, #0]
        if (bit < 8)
 8001fa6:	2a07      	cmp	r2, #7
        port->MODER   = (port->MODER & ~m2) | moder;
 8001fa8:	ea0a 0303 	and.w	r3, sl, r3
 8001fac:	ea43 030e 	orr.w	r3, r3, lr
 8001fb0:	6003      	str	r3, [r0, #0]
        if (bit < 8)
 8001fb2:	d84a      	bhi.n	800204a <_pal_lld_setgroupmode+0xca>
          port->AFRL = (port->AFRL & ~m4) | altrmask;
 8001fb4:	6a03      	ldr	r3, [r0, #32]
 8001fb6:	ea23 0304 	bic.w	r3, r3, r4
 8001fba:	ea43 030c 	orr.w	r3, r3, ip
 8001fbe:	6203      	str	r3, [r0, #32]
        else
          port->AFRH = (port->AFRH & ~m4) | altrmask;
      }
    }
    mask >>= 1;
    if (!mask)
 8001fc0:	0849      	lsrs	r1, r1, #1
 8001fc2:	d040      	beq.n	8002046 <_pal_lld_setgroupmode+0xc6>
      return;
    otyper <<= 1;
 8001fc4:	0076      	lsls	r6, r6, #1
    ospeedr <<= 2;
    pupdr <<= 2;
    moder <<= 2;
    bit++;
 8001fc6:	3201      	adds	r2, #1
    ospeedr <<= 2;
 8001fc8:	00ad      	lsls	r5, r5, #2
    pupdr <<= 2;
 8001fca:	ea4f 0888 	mov.w	r8, r8, lsl #2
    moder <<= 2;
 8001fce:	ea4f 0e8e 	mov.w	lr, lr, lsl #2
    if ((mask & 1) != 0) {
 8001fd2:	07cb      	lsls	r3, r1, #31
 8001fd4:	d5f4      	bpl.n	8001fc0 <_pal_lld_setgroupmode+0x40>
      m1 = 1 << bit;
 8001fd6:	2401      	movs	r4, #1
      port->OTYPER  = (port->OTYPER & ~m1) | otyper;
 8001fd8:	6843      	ldr	r3, [r0, #4]
      if ((mode & PAL_STM32_MODE_MASK) == PAL_STM32_MODE_ALTERNATE) {
 8001fda:	f1b9 0f02 	cmp.w	r9, #2
      m1 = 1 << bit;
 8001fde:	fa04 f402 	lsl.w	r4, r4, r2
      port->OTYPER  = (port->OTYPER & ~m1) | otyper;
 8001fe2:	ea23 0304 	bic.w	r3, r3, r4
      m2 = 3 << (bit * 2);
 8001fe6:	f04f 0403 	mov.w	r4, #3
      port->OTYPER  = (port->OTYPER & ~m1) | otyper;
 8001fea:	ea43 0306 	orr.w	r3, r3, r6
 8001fee:	6043      	str	r3, [r0, #4]
      m2 = 3 << (bit * 2);
 8001ff0:	ea4f 0342 	mov.w	r3, r2, lsl #1
 8001ff4:	fa04 f303 	lsl.w	r3, r4, r3
      port->OSPEEDR = (port->OSPEEDR & ~m2) | ospeedr;
 8001ff8:	6884      	ldr	r4, [r0, #8]
 8001ffa:	ea24 0403 	bic.w	r4, r4, r3
 8001ffe:	ea6f 0a03 	mvn.w	sl, r3
 8002002:	ea44 0405 	orr.w	r4, r4, r5
 8002006:	6084      	str	r4, [r0, #8]
      port->PUPDR   = (port->PUPDR & ~m2) | pupdr;
 8002008:	68c4      	ldr	r4, [r0, #12]
 800200a:	ea24 0c03 	bic.w	ip, r4, r3
      altrmask = altr << ((bit & 7) * 4);
 800200e:	f002 0407 	and.w	r4, r2, #7
      port->PUPDR   = (port->PUPDR & ~m2) | pupdr;
 8002012:	ea4c 0308 	orr.w	r3, ip, r8
      altrmask = altr << ((bit & 7) * 4);
 8002016:	ea4f 0484 	mov.w	r4, r4, lsl #2
      port->PUPDR   = (port->PUPDR & ~m2) | pupdr;
 800201a:	60c3      	str	r3, [r0, #12]
      altrmask = altr << ((bit & 7) * 4);
 800201c:	fa07 fc04 	lsl.w	ip, r7, r4
      m4 = 15 << ((bit & 7) * 4);
 8002020:	fa0b f404 	lsl.w	r4, fp, r4
      if ((mode & PAL_STM32_MODE_MASK) == PAL_STM32_MODE_ALTERNATE) {
 8002024:	d1be      	bne.n	8001fa4 <_pal_lld_setgroupmode+0x24>
        if (bit < 8)
 8002026:	2a07      	cmp	r2, #7
 8002028:	d816      	bhi.n	8002058 <_pal_lld_setgroupmode+0xd8>
          port->AFRL = (port->AFRL & ~m4) | altrmask;
 800202a:	6a03      	ldr	r3, [r0, #32]
 800202c:	ea23 0304 	bic.w	r3, r3, r4
 8002030:	ea43 030c 	orr.w	r3, r3, ip
 8002034:	6203      	str	r3, [r0, #32]
        port->MODER   = (port->MODER & ~m2) | moder;
 8002036:	6803      	ldr	r3, [r0, #0]
    if (!mask)
 8002038:	0849      	lsrs	r1, r1, #1
        port->MODER   = (port->MODER & ~m2) | moder;
 800203a:	ea0a 0303 	and.w	r3, sl, r3
 800203e:	ea43 030e 	orr.w	r3, r3, lr
 8002042:	6003      	str	r3, [r0, #0]
    if (!mask)
 8002044:	d1be      	bne.n	8001fc4 <_pal_lld_setgroupmode+0x44>
  }
}
 8002046:	e8bd 8ff0 	ldmia.w	sp!, {r4, r5, r6, r7, r8, r9, sl, fp, pc}
          port->AFRH = (port->AFRH & ~m4) | altrmask;
 800204a:	6a43      	ldr	r3, [r0, #36]	; 0x24
 800204c:	ea23 0304 	bic.w	r3, r3, r4
 8002050:	ea43 030c 	orr.w	r3, r3, ip
 8002054:	6243      	str	r3, [r0, #36]	; 0x24
 8002056:	e7b3      	b.n	8001fc0 <_pal_lld_setgroupmode+0x40>
          port->AFRH = (port->AFRH & ~m4) | altrmask;
 8002058:	6a43      	ldr	r3, [r0, #36]	; 0x24
 800205a:	ea23 0304 	bic.w	r3, r3, r4
 800205e:	ea43 030c 	orr.w	r3, r3, ip
 8002062:	6243      	str	r3, [r0, #36]	; 0x24
 8002064:	e7e7      	b.n	8002036 <_pal_lld_setgroupmode+0xb6>
 8002066:	bf00      	nop
	...

08002070 <VectorC4>:

  OSAL_IRQ_EPILOGUE();
}

#elif defined(STM32_I2C2_EVENT_HANDLER) && defined(STM32_I2C2_ERROR_HANDLER)
OSAL_IRQ_HANDLER(STM32_I2C2_EVENT_HANDLER) {
 8002070:	b570      	push	{r4, r5, r6, lr}
  uint32_t isr = I2CD2.i2c->ISR;
 8002072:	4d70      	ldr	r5, [pc, #448]	; (8002234 <VectorC4+0x1c4>)

  OSAL_IRQ_PROLOGUE();
 8002074:	4870      	ldr	r0, [pc, #448]	; (8002238 <VectorC4+0x1c8>)
  uint32_t isr = I2CD2.i2c->ISR;
 8002076:	6bab      	ldr	r3, [r5, #56]	; 0x38
 8002078:	699c      	ldr	r4, [r3, #24]
  OSAL_IRQ_PROLOGUE();
 800207a:	f001 fdc9 	bl	8003c10 <__trace_isr_enter>

  /* Clearing IRQ bits.*/
  I2CD2.i2c->ICR = isr & I2C_INT_MASK;
 800207e:	6baa      	ldr	r2, [r5, #56]	; 0x38
 8002080:	f004 03fe 	and.w	r3, r4, #254	; 0xfe
  if ((isr & I2C_ISR_NACKF) != 0U) {
 8002084:	f014 0110 	ands.w	r1, r4, #16
  I2CD2.i2c->ICR = isr & I2C_INT_MASK;
 8002088:	61d3      	str	r3, [r2, #28]
  if ((isr & I2C_ISR_NACKF) != 0U) {
 800208a:	d14a      	bne.n	8002122 <VectorC4+0xb2>
  if ((isr & I2C_ISR_TCR) != 0U) {
 800208c:	0620      	lsls	r0, r4, #24
 800208e:	d42c      	bmi.n	80020ea <VectorC4+0x7a>
  if ((isr & I2C_ISR_TC) != 0U) {
 8002090:	0661      	lsls	r1, r4, #25
 8002092:	d523      	bpl.n	80020dc <VectorC4+0x6c>
    if (i2cp->state == I2C_ACTIVE_TX) {
 8002094:	782b      	ldrb	r3, [r5, #0]
 8002096:	2b03      	cmp	r3, #3
 8002098:	f000 808d 	beq.w	80021b6 <VectorC4+0x146>
      i2c_lld_stop_rx_dma(i2cp);
 800209c:	6b28      	ldr	r0, [r5, #48]	; 0x30
    dmaStreamDisable(i2cp->rx.dma);
 800209e:	6801      	ldr	r1, [r0, #0]
 80020a0:	680b      	ldr	r3, [r1, #0]
 80020a2:	f023 031f 	bic.w	r3, r3, #31
 80020a6:	600b      	str	r3, [r1, #0]
 80020a8:	680b      	ldr	r3, [r1, #0]
 80020aa:	07db      	lsls	r3, r3, #31
 80020ac:	d4fc      	bmi.n	80020a8 <VectorC4+0x38>
 80020ae:	7b04      	ldrb	r4, [r0, #12]
 80020b0:	233d      	movs	r3, #61	; 0x3d
 80020b2:	6841      	ldr	r1, [r0, #4]
 80020b4:	40a3      	lsls	r3, r4
 80020b6:	600b      	str	r3, [r1, #0]
    dp->CR2 |= I2C_CR2_STOP;
 80020b8:	6853      	ldr	r3, [r2, #4]
 80020ba:	2130      	movs	r1, #48	; 0x30
 80020bc:	f443 4380 	orr.w	r3, r3, #16384	; 0x4000
 80020c0:	6053      	str	r3, [r2, #4]
    dp->CR1 &= ~I2C_CR1_TCIE;
 80020c2:	6813      	ldr	r3, [r2, #0]
 80020c4:	f023 0340 	bic.w	r3, r3, #64	; 0x40
 80020c8:	6013      	str	r3, [r2, #0]
 80020ca:	f381 8811 	msr	BASEPRI, r1
 80020ce:	2100      	movs	r1, #0
 80020d0:	485a      	ldr	r0, [pc, #360]	; (800223c <VectorC4+0x1cc>)
 80020d2:	f002 f92d 	bl	8004330 <chThdResumeI>
 80020d6:	2300      	movs	r3, #0
 80020d8:	f383 8811 	msr	BASEPRI, r3

  i2c_lld_serve_interrupt(&I2CD2, isr);

  OSAL_IRQ_EPILOGUE();
 80020dc:	4856      	ldr	r0, [pc, #344]	; (8002238 <VectorC4+0x1c8>)
 80020de:	f001 fdaf 	bl	8003c40 <__trace_isr_leave>
}
 80020e2:	e8bd 4070 	ldmia.w	sp!, {r4, r5, r6, lr}
  OSAL_IRQ_EPILOGUE();
 80020e6:	f002 baab 	b.w	8004640 <__port_irq_epilogue>
    if (i2cp->state == I2C_ACTIVE_TX) {
 80020ea:	782b      	ldrb	r3, [r5, #0]
 80020ec:	2b03      	cmp	r3, #3
 80020ee:	d052      	beq.n	8002196 <VectorC4+0x126>
    return dmaStreamGetTransactionSize((i2cp)->rx.dma);
 80020f0:	6b2b      	ldr	r3, [r5, #48]	; 0x30
 80020f2:	681b      	ldr	r3, [r3, #0]
 80020f4:	685b      	ldr	r3, [r3, #4]
  if (n > 255U) {
 80020f6:	2bff      	cmp	r3, #255	; 0xff
 80020f8:	f200 808c 	bhi.w	8002214 <VectorC4+0x1a4>
            I2C_CR2_RD_WRN | (n << 16U) | reload;
 80020fc:	041b      	lsls	r3, r3, #16
  dp->CR2 = (dp->CR2 & ~(I2C_CR2_NBYTES | I2C_CR2_RELOAD)) | i2cp->config->cr2 |
 80020fe:	6868      	ldr	r0, [r5, #4]
 8002100:	6854      	ldr	r4, [r2, #4]
            I2C_CR2_RD_WRN | (n << 16U) | reload;
 8002102:	6880      	ldr	r0, [r0, #8]
 8002104:	4303      	orrs	r3, r0
  dp->CR2 = (dp->CR2 & ~(I2C_CR2_NBYTES | I2C_CR2_RELOAD)) | i2cp->config->cr2 |
 8002106:	484e      	ldr	r0, [pc, #312]	; (8002240 <VectorC4+0x1d0>)
 8002108:	4020      	ands	r0, r4
            I2C_CR2_RD_WRN | (n << 16U) | reload;
 800210a:	4303      	orrs	r3, r0
  OSAL_IRQ_EPILOGUE();
 800210c:	484a      	ldr	r0, [pc, #296]	; (8002238 <VectorC4+0x1c8>)
            I2C_CR2_RD_WRN | (n << 16U) | reload;
 800210e:	430b      	orrs	r3, r1
 8002110:	f443 6380 	orr.w	r3, r3, #1024	; 0x400
  dp->CR2 = (dp->CR2 & ~(I2C_CR2_NBYTES | I2C_CR2_RELOAD)) | i2cp->config->cr2 |
 8002114:	6053      	str	r3, [r2, #4]
  OSAL_IRQ_EPILOGUE();
 8002116:	f001 fd93 	bl	8003c40 <__trace_isr_leave>
}
 800211a:	e8bd 4070 	ldmia.w	sp!, {r4, r5, r6, lr}
  OSAL_IRQ_EPILOGUE();
 800211e:	f002 ba8f 	b.w	8004640 <__port_irq_epilogue>
    i2c_lld_stop_rx_dma(i2cp);
 8002122:	6b28      	ldr	r0, [r5, #48]	; 0x30
    dmaStreamDisable(i2cp->rx.dma);
 8002124:	6801      	ldr	r1, [r0, #0]
 8002126:	680b      	ldr	r3, [r1, #0]
 8002128:	f023 031f 	bic.w	r3, r3, #31
 800212c:	600b      	str	r3, [r1, #0]
 800212e:	680b      	ldr	r3, [r1, #0]
 8002130:	07dc      	lsls	r4, r3, #31
 8002132:	d4fc      	bmi.n	800212e <VectorC4+0xbe>
 8002134:	7b04      	ldrb	r4, [r0, #12]
 8002136:	233d      	movs	r3, #61	; 0x3d
 8002138:	6841      	ldr	r1, [r0, #4]
 800213a:	40a3      	lsls	r3, r4
 800213c:	6b68      	ldr	r0, [r5, #52]	; 0x34
 800213e:	600b      	str	r3, [r1, #0]
    dmaStreamDisable(i2cp->tx.dma);
 8002140:	6801      	ldr	r1, [r0, #0]
 8002142:	680b      	ldr	r3, [r1, #0]
 8002144:	f023 031f 	bic.w	r3, r3, #31
 8002148:	600b      	str	r3, [r1, #0]
 800214a:	680c      	ldr	r4, [r1, #0]
 800214c:	f014 0401 	ands.w	r4, r4, #1
 8002150:	d1fb      	bne.n	800214a <VectorC4+0xda>
 8002152:	6841      	ldr	r1, [r0, #4]
 8002154:	233d      	movs	r3, #61	; 0x3d
 8002156:	7b00      	ldrb	r0, [r0, #12]
 8002158:	4083      	lsls	r3, r0
 800215a:	600b      	str	r3, [r1, #0]
    dp->CR2 |= I2C_CR2_STOP;
 800215c:	6853      	ldr	r3, [r2, #4]
    i2cp->errors |= I2C_ACK_FAILURE;
 800215e:	68a9      	ldr	r1, [r5, #8]
    dp->CR2 |= I2C_CR2_STOP;
 8002160:	f443 4380 	orr.w	r3, r3, #16384	; 0x4000
    i2cp->errors |= I2C_ACK_FAILURE;
 8002164:	f041 0104 	orr.w	r1, r1, #4
 8002168:	60a9      	str	r1, [r5, #8]
 800216a:	2130      	movs	r1, #48	; 0x30
    dp->CR2 |= I2C_CR2_STOP;
 800216c:	6053      	str	r3, [r2, #4]
    dp->CR1 &= ~(I2C_CR1_TCIE | I2C_CR1_TXIE | I2C_CR1_RXIE);
 800216e:	6813      	ldr	r3, [r2, #0]
 8002170:	f023 0346 	bic.w	r3, r3, #70	; 0x46
 8002174:	6013      	str	r3, [r2, #0]
 8002176:	f381 8811 	msr	BASEPRI, r1
 800217a:	f06f 0101 	mvn.w	r1, #1
 800217e:	482f      	ldr	r0, [pc, #188]	; (800223c <VectorC4+0x1cc>)
 8002180:	f002 f8d6 	bl	8004330 <chThdResumeI>
 8002184:	f384 8811 	msr	BASEPRI, r4
  OSAL_IRQ_EPILOGUE();
 8002188:	482b      	ldr	r0, [pc, #172]	; (8002238 <VectorC4+0x1c8>)
 800218a:	f001 fd59 	bl	8003c40 <__trace_isr_leave>
}
 800218e:	e8bd 4070 	ldmia.w	sp!, {r4, r5, r6, lr}
  OSAL_IRQ_EPILOGUE();
 8002192:	f002 ba55 	b.w	8004640 <__port_irq_epilogue>
    return dmaStreamGetTransactionSize((i2cp)->tx.dma);
 8002196:	6b6b      	ldr	r3, [r5, #52]	; 0x34
 8002198:	681b      	ldr	r3, [r3, #0]
 800219a:	6858      	ldr	r0, [r3, #4]
  if (n > 255U) {
 800219c:	28ff      	cmp	r0, #255	; 0xff
 800219e:	d83e      	bhi.n	800221e <VectorC4+0x1ae>
            (n << 16U) | reload;
 80021a0:	0400      	lsls	r0, r0, #16
  dp->CR2 = (dp->CR2 & ~(I2C_CR2_NBYTES | I2C_CR2_RELOAD)) | i2cp->config->cr2 |
 80021a2:	686b      	ldr	r3, [r5, #4]
 80021a4:	6856      	ldr	r6, [r2, #4]
 80021a6:	689c      	ldr	r4, [r3, #8]
 80021a8:	4b25      	ldr	r3, [pc, #148]	; (8002240 <VectorC4+0x1d0>)
 80021aa:	4033      	ands	r3, r6
 80021ac:	4323      	orrs	r3, r4
            (n << 16U) | reload;
 80021ae:	4303      	orrs	r3, r0
 80021b0:	430b      	orrs	r3, r1
  dp->CR2 = (dp->CR2 & ~(I2C_CR2_NBYTES | I2C_CR2_RELOAD)) | i2cp->config->cr2 |
 80021b2:	6053      	str	r3, [r2, #4]
}
 80021b4:	e792      	b.n	80020dc <VectorC4+0x6c>
      i2c_lld_stop_tx_dma(i2cp);
 80021b6:	6b68      	ldr	r0, [r5, #52]	; 0x34
    dmaStreamDisable(i2cp->tx.dma);
 80021b8:	6801      	ldr	r1, [r0, #0]
 80021ba:	680b      	ldr	r3, [r1, #0]
 80021bc:	f023 031f 	bic.w	r3, r3, #31
 80021c0:	600b      	str	r3, [r1, #0]
 80021c2:	680b      	ldr	r3, [r1, #0]
 80021c4:	f013 0301 	ands.w	r3, r3, #1
 80021c8:	d1fb      	bne.n	80021c2 <VectorC4+0x152>
 80021ca:	6844      	ldr	r4, [r0, #4]
 80021cc:	213d      	movs	r1, #61	; 0x3d
 80021ce:	7b00      	ldrb	r0, [r0, #12]
 80021d0:	4081      	lsls	r1, r0
 80021d2:	6021      	str	r1, [r4, #0]
    return dmaStreamGetTransactionSize((i2cp)->rx.dma);
 80021d4:	6b29      	ldr	r1, [r5, #48]	; 0x30
 80021d6:	6809      	ldr	r1, [r1, #0]
 80021d8:	6848      	ldr	r0, [r1, #4]
      if ((i2c_lld_get_rxbytes(i2cp)) > 0U) {
 80021da:	2800      	cmp	r0, #0
 80021dc:	f43f af6c 	beq.w	80020b8 <VectorC4+0x48>
    return dmaStreamGetTransactionSize((i2cp)->rx.dma);
 80021e0:	6848      	ldr	r0, [r1, #4]
  if (n > 255U) {
 80021e2:	28ff      	cmp	r0, #255	; 0xff
 80021e4:	d820      	bhi.n	8002228 <VectorC4+0x1b8>
            I2C_CR2_RD_WRN | (n << 16U) | reload;
 80021e6:	0400      	lsls	r0, r0, #16
  dp->CR2 = (dp->CR2 & ~(I2C_CR2_NBYTES | I2C_CR2_RELOAD)) | i2cp->config->cr2 |
 80021e8:	686c      	ldr	r4, [r5, #4]
 80021ea:	6856      	ldr	r6, [r2, #4]
            I2C_CR2_RD_WRN | (n << 16U) | reload;
 80021ec:	68a4      	ldr	r4, [r4, #8]
 80021ee:	4320      	orrs	r0, r4
  dp->CR2 = (dp->CR2 & ~(I2C_CR2_NBYTES | I2C_CR2_RELOAD)) | i2cp->config->cr2 |
 80021f0:	4c13      	ldr	r4, [pc, #76]	; (8002240 <VectorC4+0x1d0>)
 80021f2:	4034      	ands	r4, r6
            I2C_CR2_RD_WRN | (n << 16U) | reload;
 80021f4:	4320      	orrs	r0, r4
 80021f6:	4303      	orrs	r3, r0
        i2cp->state = I2C_ACTIVE_RX;
 80021f8:	2004      	movs	r0, #4
            I2C_CR2_RD_WRN | (n << 16U) | reload;
 80021fa:	f443 6380 	orr.w	r3, r3, #1024	; 0x400
  dp->CR2 = (dp->CR2 & ~(I2C_CR2_NBYTES | I2C_CR2_RELOAD)) | i2cp->config->cr2 |
 80021fe:	6053      	str	r3, [r2, #4]
    dmaStreamEnable(i2cp->rx.dma);
 8002200:	680b      	ldr	r3, [r1, #0]
 8002202:	f043 0301 	orr.w	r3, r3, #1
 8002206:	600b      	str	r3, [r1, #0]
        dp->CR2 |= I2C_CR2_START;
 8002208:	6853      	ldr	r3, [r2, #4]
        i2cp->state = I2C_ACTIVE_RX;
 800220a:	7028      	strb	r0, [r5, #0]
        dp->CR2 |= I2C_CR2_START;
 800220c:	f443 5300 	orr.w	r3, r3, #8192	; 0x2000
 8002210:	6053      	str	r3, [r2, #4]
        return;
 8002212:	e763      	b.n	80020dc <VectorC4+0x6c>
 8002214:	f44f 037f 	mov.w	r3, #16711680	; 0xff0000
    reload = I2C_CR2_RELOAD;
 8002218:	f04f 7180 	mov.w	r1, #16777216	; 0x1000000
 800221c:	e76f      	b.n	80020fe <VectorC4+0x8e>
 800221e:	f44f 007f 	mov.w	r0, #16711680	; 0xff0000
    reload = I2C_CR2_RELOAD;
 8002222:	f04f 7180 	mov.w	r1, #16777216	; 0x1000000
 8002226:	e7bc      	b.n	80021a2 <VectorC4+0x132>
 8002228:	f44f 007f 	mov.w	r0, #16711680	; 0xff0000
    reload = I2C_CR2_RELOAD;
 800222c:	f04f 7380 	mov.w	r3, #16777216	; 0x1000000
 8002230:	e7da      	b.n	80021e8 <VectorC4+0x178>
 8002232:	bf00      	nop
 8002234:	24000508 	.word	0x24000508
 8002238:	08004c68 	.word	0x08004c68
 800223c:	24000524 	.word	0x24000524
 8002240:	fe00ffff 	.word	0xfe00ffff
	...

08002250 <VectorC8>:

OSAL_IRQ_HANDLER(STM32_I2C2_ERROR_HANDLER) {
 8002250:	b538      	push	{r3, r4, r5, lr}
  uint32_t isr = I2CD2.i2c->ISR;
 8002252:	4c2c      	ldr	r4, [pc, #176]	; (8002304 <VectorC8+0xb4>)

  OSAL_IRQ_PROLOGUE();
 8002254:	482c      	ldr	r0, [pc, #176]	; (8002308 <VectorC8+0xb8>)
  uint32_t isr = I2CD2.i2c->ISR;
 8002256:	6ba3      	ldr	r3, [r4, #56]	; 0x38
 8002258:	699d      	ldr	r5, [r3, #24]
  OSAL_IRQ_PROLOGUE();
 800225a:	f001 fcd9 	bl	8003c10 <__trace_isr_enter>

  /* Clearing IRQ bits.*/
  I2CD2.i2c->ICR = isr & I2C_ERROR_MASK;
 800225e:	6b21      	ldr	r1, [r4, #48]	; 0x30
 8002260:	6ba3      	ldr	r3, [r4, #56]	; 0x38
 8002262:	f405 527c 	and.w	r2, r5, #16128	; 0x3f00
 8002266:	61da      	str	r2, [r3, #28]
    dmaStreamDisable(i2cp->rx.dma);
 8002268:	680a      	ldr	r2, [r1, #0]
 800226a:	6813      	ldr	r3, [r2, #0]
 800226c:	f023 031f 	bic.w	r3, r3, #31
 8002270:	6013      	str	r3, [r2, #0]
 8002272:	6813      	ldr	r3, [r2, #0]
 8002274:	07db      	lsls	r3, r3, #31
 8002276:	d4fc      	bmi.n	8002272 <VectorC8+0x22>
 8002278:	7b08      	ldrb	r0, [r1, #12]
 800227a:	233d      	movs	r3, #61	; 0x3d
 800227c:	684a      	ldr	r2, [r1, #4]
 800227e:	4083      	lsls	r3, r0
 8002280:	6b61      	ldr	r1, [r4, #52]	; 0x34
 8002282:	6013      	str	r3, [r2, #0]
    dmaStreamDisable(i2cp->tx.dma);
 8002284:	680a      	ldr	r2, [r1, #0]
 8002286:	6813      	ldr	r3, [r2, #0]
 8002288:	f023 031f 	bic.w	r3, r3, #31
 800228c:	6013      	str	r3, [r2, #0]
 800228e:	6813      	ldr	r3, [r2, #0]
 8002290:	07d8      	lsls	r0, r3, #31
 8002292:	d4fc      	bmi.n	800228e <VectorC8+0x3e>
 8002294:	7b08      	ldrb	r0, [r1, #12]
 8002296:	233d      	movs	r3, #61	; 0x3d
 8002298:	684a      	ldr	r2, [r1, #4]
  if (isr & I2C_ISR_BERR)
 800229a:	05e9      	lsls	r1, r5, #23
    dmaStreamDisable(i2cp->tx.dma);
 800229c:	fa03 f300 	lsl.w	r3, r3, r0
 80022a0:	6013      	str	r3, [r2, #0]
    i2cp->errors |= I2C_BUS_ERROR;
 80022a2:	68a3      	ldr	r3, [r4, #8]
 80022a4:	bf44      	itt	mi
 80022a6:	f043 0301 	orrmi.w	r3, r3, #1
 80022aa:	60a3      	strmi	r3, [r4, #8]
  if (isr & I2C_ISR_ARLO)
 80022ac:	05aa      	lsls	r2, r5, #22
 80022ae:	d502      	bpl.n	80022b6 <VectorC8+0x66>
    i2cp->errors |= I2C_ARBITRATION_LOST;
 80022b0:	f043 0302 	orr.w	r3, r3, #2
 80022b4:	60a3      	str	r3, [r4, #8]
  if (isr & I2C_ISR_OVR)
 80022b6:	0568      	lsls	r0, r5, #21
 80022b8:	d519      	bpl.n	80022ee <VectorC8+0x9e>
    i2cp->errors |= I2C_OVERRUN;
 80022ba:	f043 0308 	orr.w	r3, r3, #8
  if (isr & I2C_ISR_TIMEOUT)
 80022be:	04e9      	lsls	r1, r5, #19
    i2cp->errors |= I2C_OVERRUN;
 80022c0:	60a3      	str	r3, [r4, #8]
  if (isr & I2C_ISR_TIMEOUT)
 80022c2:	d502      	bpl.n	80022ca <VectorC8+0x7a>
    i2cp->errors |= I2C_TIMEOUT;
 80022c4:	f043 0320 	orr.w	r3, r3, #32
 80022c8:	60a3      	str	r3, [r4, #8]
 80022ca:	2330      	movs	r3, #48	; 0x30
 80022cc:	f383 8811 	msr	BASEPRI, r3
 80022d0:	f06f 0101 	mvn.w	r1, #1
 80022d4:	480d      	ldr	r0, [pc, #52]	; (800230c <VectorC8+0xbc>)
 80022d6:	f002 f82b 	bl	8004330 <chThdResumeI>
 80022da:	2300      	movs	r3, #0
 80022dc:	f383 8811 	msr	BASEPRI, r3

  i2c_lld_serve_error_interrupt(&I2CD2, isr);

  OSAL_IRQ_EPILOGUE();
 80022e0:	4809      	ldr	r0, [pc, #36]	; (8002308 <VectorC8+0xb8>)
 80022e2:	f001 fcad 	bl	8003c40 <__trace_isr_leave>
}
 80022e6:	e8bd 4038 	ldmia.w	sp!, {r3, r4, r5, lr}
  OSAL_IRQ_EPILOGUE();
 80022ea:	f002 b9a9 	b.w	8004640 <__port_irq_epilogue>
  if (isr & I2C_ISR_TIMEOUT)
 80022ee:	04ea      	lsls	r2, r5, #19
 80022f0:	d4e8      	bmi.n	80022c4 <VectorC8+0x74>
  if (i2cp->errors != I2C_NO_ERROR)
 80022f2:	2b00      	cmp	r3, #0
 80022f4:	d1e9      	bne.n	80022ca <VectorC8+0x7a>
  OSAL_IRQ_EPILOGUE();
 80022f6:	4804      	ldr	r0, [pc, #16]	; (8002308 <VectorC8+0xb8>)
 80022f8:	f001 fca2 	bl	8003c40 <__trace_isr_leave>
}
 80022fc:	e8bd 4038 	ldmia.w	sp!, {r3, r4, r5, lr}
  OSAL_IRQ_EPILOGUE();
 8002300:	f002 b99e 	b.w	8004640 <__port_irq_epilogue>
 8002304:	24000508 	.word	0x24000508
 8002308:	08004c5c 	.word	0x08004c5c
 800230c:	24000524 	.word	0x24000524

08002310 <i2c_lld_init>:
/**
 * @brief   Low level I2C driver initialization.
 *
 * @notapi
 */
void i2c_lld_init(void) {
 8002310:	b510      	push	{r4, lr}
#error "I2C1 interrupt numbers not defined"
#endif
#endif /* STM32_I2C_USE_I2C1 */

#if STM32_I2C_USE_I2C2
  i2cObjectInit(&I2CD2);
 8002312:	4c0a      	ldr	r4, [pc, #40]	; (800233c <i2c_lld_init+0x2c>)
 8002314:	4620      	mov	r0, r4
 8002316:	f7fe fbc3 	bl	8000aa0 <i2cObjectInit>
  I2CD2.thread  = NULL;
 800231a:	2300      	movs	r3, #0
  I2CD2.i2c     = I2C2;
 800231c:	4a08      	ldr	r2, [pc, #32]	; (8002340 <i2c_lld_init+0x30>)
  I2CD2.tx.dma  = NULL;
#endif
#if defined(STM32_I2C2_GLOBAL_NUMBER) || defined(__DOXYGEN__)
      nvicEnableVector(STM32_I2C2_GLOBAL_NUMBER, STM32_I2C_I2C2_IRQ_PRIORITY);
#elif defined(STM32_I2C2_EVENT_NUMBER) && defined(STM32_I2C2_ERROR_NUMBER)
      nvicEnableVector(STM32_I2C2_EVENT_NUMBER, STM32_I2C_I2C2_IRQ_PRIORITY);
 800231e:	2105      	movs	r1, #5
 8002320:	2021      	movs	r0, #33	; 0x21
  I2CD2.thread  = NULL;
 8002322:	61e3      	str	r3, [r4, #28]
  I2CD2.i2c     = I2C2;
 8002324:	63a2      	str	r2, [r4, #56]	; 0x38
  I2CD2.tx.dma  = NULL;
 8002326:	e9c4 330c 	strd	r3, r3, [r4, #48]	; 0x30
      nvicEnableVector(STM32_I2C2_EVENT_NUMBER, STM32_I2C_I2C2_IRQ_PRIORITY);
 800232a:	f7fe ffa9 	bl	8001280 <nvicEnableVector>
      nvicEnableVector(STM32_I2C2_ERROR_NUMBER, STM32_I2C_I2C2_IRQ_PRIORITY);
 800232e:	2105      	movs	r1, #5
 8002330:	2022      	movs	r0, #34	; 0x22
      nvicEnableVector(STM32_I2C5_ERROR_NUMBER, STM32_I2C_I2C5_IRQ_PRIORITY);
#else
#error "I2C5 interrupt numbers not defined"
#endif
#endif /* STM32_I2C_USE_I2C5 */
}
 8002332:	e8bd 4010 	ldmia.w	sp!, {r4, lr}
      nvicEnableVector(STM32_I2C2_ERROR_NUMBER, STM32_I2C_I2C2_IRQ_PRIORITY);
 8002336:	f7fe bfa3 	b.w	8001280 <nvicEnableVector>
 800233a:	bf00      	nop
 800233c:	24000508 	.word	0x24000508
 8002340:	40005800 	.word	0x40005800
	...

08002350 <otg_enable_ep.constprop.0>:
  }
  otgp->DAINTMSK = DAINTMSK_OEPM(0) | DAINTMSK_IEPM(0);
}

static void otg_enable_ep(USBDriver *usbp) {
  stm32_otg_t *otgp = usbp->otg;
 8002350:	4a12      	ldr	r2, [pc, #72]	; (800239c <otg_enable_ep.constprop.0+0x4c>)
  unsigned i;

  for (i = 0; i <= usbp->otgparams->num_endpoints; i++) {
 8002352:	2300      	movs	r3, #0
static void otg_enable_ep(USBDriver *usbp) {
 8002354:	b5f0      	push	{r4, r5, r6, r7, lr}
  stm32_otg_t *otgp = usbp->otg;
 8002356:	e9d2 4124 	ldrd	r4, r1, [r2, #144]	; 0x90
    if (usbp->epc[i]->out_state != NULL) {
      otgp->DAINTMSK |= DAINTMSK_OEPM(i);
 800235a:	f04f 0e01 	mov.w	lr, #1
 800235e:	f102 0c08 	add.w	ip, r2, #8
  for (i = 0; i <= usbp->otgparams->num_endpoints; i++) {
 8002362:	688e      	ldr	r6, [r1, #8]
    if (usbp->epc[i]->out_state != NULL) {
 8002364:	f85c 0f04 	ldr.w	r0, [ip, #4]!
      otgp->DAINTMSK |= DAINTMSK_OEPM(i);
 8002368:	f103 0210 	add.w	r2, r3, #16
    }
    if (usbp->epc[i]->in_state != NULL) {
      otgp->DAINTMSK |= DAINTMSK_IEPM(i);
 800236c:	fa0e f103 	lsl.w	r1, lr, r3
  for (i = 0; i <= usbp->otgparams->num_endpoints; i++) {
 8002370:	1c5d      	adds	r5, r3, #1
    if (usbp->epc[i]->out_state != NULL) {
 8002372:	6987      	ldr	r7, [r0, #24]
      otgp->DAINTMSK |= DAINTMSK_OEPM(i);
 8002374:	fa0e f202 	lsl.w	r2, lr, r2
    if (usbp->epc[i]->out_state != NULL) {
 8002378:	b127      	cbz	r7, 8002384 <otg_enable_ep.constprop.0+0x34>
      otgp->DAINTMSK |= DAINTMSK_OEPM(i);
 800237a:	f8d4 781c 	ldr.w	r7, [r4, #2076]	; 0x81c
 800237e:	433a      	orrs	r2, r7
 8002380:	f8c4 281c 	str.w	r2, [r4, #2076]	; 0x81c
    if (usbp->epc[i]->in_state != NULL) {
 8002384:	6942      	ldr	r2, [r0, #20]
 8002386:	b122      	cbz	r2, 8002392 <otg_enable_ep.constprop.0+0x42>
      otgp->DAINTMSK |= DAINTMSK_IEPM(i);
 8002388:	f8d4 281c 	ldr.w	r2, [r4, #2076]	; 0x81c
 800238c:	4311      	orrs	r1, r2
 800238e:	f8c4 181c 	str.w	r1, [r4, #2076]	; 0x81c
  for (i = 0; i <= usbp->otgparams->num_endpoints; i++) {
 8002392:	429e      	cmp	r6, r3
 8002394:	462b      	mov	r3, r5
 8002396:	d1e5      	bne.n	8002364 <otg_enable_ep.constprop.0+0x14>
    }
  }
}
 8002398:	bdf0      	pop	{r4, r5, r6, r7, pc}
 800239a:	bf00      	nop
 800239c:	24000544 	.word	0x24000544

080023a0 <otg_disable_ep.isra.0>:
static void otg_disable_ep(USBDriver *usbp) {
 80023a0:	b470      	push	{r4, r5, r6}
  for (i = 0; i <= usbp->otgparams->num_endpoints; i++) {
 80023a2:	2200      	movs	r2, #0
    otgp->ie[i].DIEPINT = 0xFFFFFFFF;
 80023a4:	f04f 34ff 	mov.w	r4, #4294967295
  for (i = 0; i <= usbp->otgparams->num_endpoints; i++) {
 80023a8:	688e      	ldr	r6, [r1, #8]
    otgp->ie[i].DIEPINT = 0xFFFFFFFF;
 80023aa:	eb00 1142 	add.w	r1, r0, r2, lsl #5
  for (i = 0; i <= usbp->otgparams->num_endpoints; i++) {
 80023ae:	f102 0c01 	add.w	ip, r2, #1
    if ((otgp->ie[i].DIEPCTL & DIEPCTL_EPENA) != 0U) {
 80023b2:	f8d1 5900 	ldr.w	r5, [r1, #2304]	; 0x900
    otgp->ie[i].DIEPINT = 0xFFFFFFFF;
 80023b6:	460b      	mov	r3, r1
    if ((otgp->ie[i].DIEPCTL & DIEPCTL_EPENA) != 0U) {
 80023b8:	2d00      	cmp	r5, #0
 80023ba:	da05      	bge.n	80023c8 <otg_disable_ep.isra.0+0x28>
      otgp->ie[i].DIEPCTL |= DIEPCTL_EPDIS;
 80023bc:	f8d1 5900 	ldr.w	r5, [r1, #2304]	; 0x900
 80023c0:	f045 4580 	orr.w	r5, r5, #1073741824	; 0x40000000
 80023c4:	f8c1 5900 	str.w	r5, [r1, #2304]	; 0x900
    if ((otgp->oe[i].DOEPCTL & DIEPCTL_EPENA) != 0U) {
 80023c8:	f8d1 5b00 	ldr.w	r5, [r1, #2816]	; 0xb00
 80023cc:	2d00      	cmp	r5, #0
 80023ce:	da05      	bge.n	80023dc <otg_disable_ep.isra.0+0x3c>
      otgp->oe[i].DOEPCTL |= DIEPCTL_EPDIS;
 80023d0:	f8d1 5b00 	ldr.w	r5, [r1, #2816]	; 0xb00
 80023d4:	f045 4580 	orr.w	r5, r5, #1073741824	; 0x40000000
 80023d8:	f8c1 5b00 	str.w	r5, [r1, #2816]	; 0xb00
  for (i = 0; i <= usbp->otgparams->num_endpoints; i++) {
 80023dc:	42b2      	cmp	r2, r6
    otgp->ie[i].DIEPINT = 0xFFFFFFFF;
 80023de:	f8c3 4908 	str.w	r4, [r3, #2312]	; 0x908
    otgp->oe[i].DOEPINT = 0xFFFFFFFF;
 80023e2:	4662      	mov	r2, ip
 80023e4:	f8c3 4b08 	str.w	r4, [r3, #2824]	; 0xb08
  for (i = 0; i <= usbp->otgparams->num_endpoints; i++) {
 80023e8:	d1df      	bne.n	80023aa <otg_disable_ep.isra.0+0xa>
  otgp->DAINTMSK = DAINTMSK_OEPM(0) | DAINTMSK_IEPM(0);
 80023ea:	f04f 1301 	mov.w	r3, #65537	; 0x10001
}
 80023ee:	bc70      	pop	{r4, r5, r6}
  otgp->DAINTMSK = DAINTMSK_OEPM(0) | DAINTMSK_IEPM(0);
 80023f0:	f8c0 381c 	str.w	r3, [r0, #2076]	; 0x81c
}
 80023f4:	4770      	bx	lr
 80023f6:	bf00      	nop
	...

08002400 <usb_lld_init>:
/**
 * @brief   Low level USB driver initialization.
 *
 * @notapi
 */
void usb_lld_init(void) {
 8002400:	b510      	push	{r4, lr}

  /* Driver initialization.*/
#if STM32_USB_USE_OTG1
  usbObjectInit(&USBD1);
 8002402:	4c04      	ldr	r4, [pc, #16]	; (8002414 <usb_lld_init+0x14>)
 8002404:	4620      	mov	r0, r4
 8002406:	f7fe fc4b 	bl	8000ca0 <usbObjectInit>
  USBD1.otg       = OTG_FS;
 800240a:	4a03      	ldr	r2, [pc, #12]	; (8002418 <usb_lld_init+0x18>)
  USBD1.otgparams = &fsparams;
 800240c:	4b03      	ldr	r3, [pc, #12]	; (800241c <usb_lld_init+0x1c>)
 800240e:	e9c4 2324 	strd	r2, r3, [r4, #144]	; 0x90
#if STM32_USB_USE_OTG2
  usbObjectInit(&USBD2);
  USBD2.otg       = OTG_HS;
  USBD2.otgparams = &hsparams;
#endif
}
 8002412:	bd10      	pop	{r4, pc}
 8002414:	24000544 	.word	0x24000544
 8002418:	40080000 	.word	0x40080000
 800241c:	08004ca4 	.word	0x08004ca4

08002420 <usb_lld_reset>:
 *
 * @param[in] usbp      pointer to the @p USBDriver object
 *
 * @notapi
 */
void usb_lld_reset(USBDriver *usbp) {
 8002420:	b5f8      	push	{r3, r4, r5, r6, r7, lr}
  otgp->GRSTCTL = GRSTCTL_TXFNUM(fifo) | GRSTCTL_TXFFLSH;
 8002422:	2320      	movs	r3, #32
  unsigned i;
  stm32_otg_t *otgp = usbp->otg;
 8002424:	f8d0 5090 	ldr.w	r5, [r0, #144]	; 0x90
void usb_lld_reset(USBDriver *usbp) {
 8002428:	4607      	mov	r7, r0
  otgp->GRSTCTL = GRSTCTL_TXFNUM(fifo) | GRSTCTL_TXFFLSH;
 800242a:	612b      	str	r3, [r5, #16]
  while ((otgp->GRSTCTL & GRSTCTL_TXFFLSH) != 0)
 800242c:	692c      	ldr	r4, [r5, #16]
 800242e:	f014 0420 	ands.w	r4, r4, #32
 8002432:	d1fb      	bne.n	800242c <usb_lld_reset+0xc>
  chSysPolledDelayX(cycles);
 8002434:	2012      	movs	r0, #18
  otgp->DIEPEMPMSK = 0;
  otgp->DAINTMSK   = DAINTMSK_OEPM(0) | DAINTMSK_IEPM(0);

  /* All endpoints in NAK mode, interrupts cleared.*/
  for (i = 0; i <= usbp->otgparams->num_endpoints; i++) {
    otgp->ie[i].DIEPCTL = DIEPCTL_SNAK;
 8002436:	f04f 6600 	mov.w	r6, #134217728	; 0x8000000
 800243a:	f001 fb69 	bl	8003b10 <chSysPolledDelayX>
  for (i = 0; i <= usbp->otgparams->num_endpoints; i++) {
 800243e:	f8d7 c094 	ldr.w	ip, [r7, #148]	; 0x94
  otgp->DAINTMSK   = DAINTMSK_OEPM(0) | DAINTMSK_IEPM(0);
 8002442:	f04f 1301 	mov.w	r3, #65537	; 0x10001
    otgp->oe[i].DOEPCTL = DOEPCTL_SNAK;
    otgp->ie[i].DIEPINT = 0xFFFFFFFF;
 8002446:	f04f 31ff 	mov.w	r1, #4294967295
  for (i = 0; i <= usbp->otgparams->num_endpoints; i++) {
 800244a:	f8dc 0008 	ldr.w	r0, [ip, #8]
  otgp->DIEPEMPMSK = 0;
 800244e:	f8c5 4834 	str.w	r4, [r5, #2100]	; 0x834
  otgp->DAINTMSK   = DAINTMSK_OEPM(0) | DAINTMSK_IEPM(0);
 8002452:	f8c5 381c 	str.w	r3, [r5, #2076]	; 0x81c
    otgp->ie[i].DIEPCTL = DIEPCTL_SNAK;
 8002456:	eb05 1344 	add.w	r3, r5, r4, lsl #5
  for (i = 0; i <= usbp->otgparams->num_endpoints; i++) {
 800245a:	4284      	cmp	r4, r0
 800245c:	f104 0401 	add.w	r4, r4, #1
    otgp->ie[i].DIEPCTL = DIEPCTL_SNAK;
 8002460:	f8c3 6900 	str.w	r6, [r3, #2304]	; 0x900
    otgp->oe[i].DOEPCTL = DOEPCTL_SNAK;
 8002464:	f8c3 6b00 	str.w	r6, [r3, #2816]	; 0xb00
    otgp->ie[i].DIEPINT = 0xFFFFFFFF;
 8002468:	f8c3 1908 	str.w	r1, [r3, #2312]	; 0x908
    otgp->oe[i].DOEPINT = 0xFFFFFFFF;
 800246c:	f8c3 1b08 	str.w	r1, [r3, #2824]	; 0xb08
  for (i = 0; i <= usbp->otgparams->num_endpoints; i++) {
 8002470:	d1f1      	bne.n	8002456 <usb_lld_reset+0x36>
  usbp->pmnext = usbp->otgparams->rx_fifo_size;
 8002472:	f8dc 3000 	ldr.w	r3, [ip]
  otgp->GRSTCTL = GRSTCTL_RXFFLSH;
 8002476:	2110      	movs	r1, #16
 8002478:	f8d7 2090 	ldr.w	r2, [r7, #144]	; 0x90
  usbp->pmnext = usbp->otgparams->rx_fifo_size;
 800247c:	f8c7 3098 	str.w	r3, [r7, #152]	; 0x98

  /* Resets the FIFO memory allocator.*/
  otg_ram_reset(usbp);

  /* Receive FIFO size initialization, the address is always zero.*/
  otgp->GRXFSIZ = usbp->otgparams->rx_fifo_size;
 8002480:	626b      	str	r3, [r5, #36]	; 0x24
  otgp->GRSTCTL = GRSTCTL_RXFFLSH;
 8002482:	6111      	str	r1, [r2, #16]
  while ((otgp->GRSTCTL & GRSTCTL_RXFFLSH) != 0)
 8002484:	6914      	ldr	r4, [r2, #16]
 8002486:	f014 0410 	ands.w	r4, r4, #16
 800248a:	d1fb      	bne.n	8002484 <usb_lld_reset+0x64>
 800248c:	2012      	movs	r0, #18
 800248e:	f001 fb3f 	bl	8003b10 <chSysPolledDelayX>
  otg_rxfifo_flush(usbp);

  /* Resets the device address to zero.*/
  otgp->DCFG = (otgp->DCFG & ~DCFG_DAD_MASK) | DCFG_DAD(0) | BOARD_OTG2_ULPI_CHIRP_DELAY_MASK;
 8002492:	f8d5 2800 	ldr.w	r2, [r5, #2048]	; 0x800

  /* Enables also EP-related interrupt sources.*/
  otgp->GINTMSK  |= GINTMSK_RXFLVLM | GINTMSK_OEPM  | GINTMSK_IEPM;
 8002496:	4b12      	ldr	r3, [pc, #72]	; (80024e0 <usb_lld_reset+0xc0>)
  otgp->DCFG = (otgp->DCFG & ~DCFG_DAD_MASK) | DCFG_DAD(0) | BOARD_OTG2_ULPI_CHIRP_DELAY_MASK;
 8002498:	f422 62fe 	bic.w	r2, r2, #2032	; 0x7f0
  otgp->DIEPMSK   = DIEPMSK_TOCM    | DIEPMSK_XFRCM;
  otgp->DOEPMSK   = DOEPMSK_STUPM   | DOEPMSK_XFRCM;

  /* EP0 initialization, it is a special case.*/
  usbp->epc[0] = &ep0config;
 800249c:	4911      	ldr	r1, [pc, #68]	; (80024e4 <usb_lld_reset+0xc4>)
  otgp->DCFG = (otgp->DCFG & ~DCFG_DAD_MASK) | DCFG_DAD(0) | BOARD_OTG2_ULPI_CHIRP_DELAY_MASK;
 800249e:	f8c5 2800 	str.w	r2, [r5, #2048]	; 0x800
  otgp->GINTMSK  |= GINTMSK_RXFLVLM | GINTMSK_OEPM  | GINTMSK_IEPM;
 80024a2:	69aa      	ldr	r2, [r5, #24]
 80024a4:	4313      	orrs	r3, r2
  otgp->DIEPMSK   = DIEPMSK_TOCM    | DIEPMSK_XFRCM;
 80024a6:	2209      	movs	r2, #9
  otgp->GINTMSK  |= GINTMSK_RXFLVLM | GINTMSK_OEPM  | GINTMSK_IEPM;
 80024a8:	61ab      	str	r3, [r5, #24]
  otgp->DIEPMSK   = DIEPMSK_TOCM    | DIEPMSK_XFRCM;
 80024aa:	f8c5 2810 	str.w	r2, [r5, #2064]	; 0x810
  next = usbp->pmnext;
 80024ae:	f8d7 3098 	ldr.w	r3, [r7, #152]	; 0x98
  otgp->DOEPMSK   = DOEPMSK_STUPM   | DOEPMSK_XFRCM;
 80024b2:	f8c5 2814 	str.w	r2, [r5, #2068]	; 0x814
  usbp->epc[0] = &ep0config;
 80024b6:	60f9      	str	r1, [r7, #12]
  otgp->oe[0].DOEPTSIZ = DOEPTSIZ_STUPCNT(3);
 80024b8:	f04f 41c0 	mov.w	r1, #1610612736	; 0x60000000
  otgp->oe[0].DOEPCTL = DOEPCTL_SD0PID | DOEPCTL_USBAEP | DOEPCTL_EPTYP_CTRL |
 80024bc:	4a0a      	ldr	r2, [pc, #40]	; (80024e8 <usb_lld_reset+0xc8>)
  otgp->oe[0].DOEPTSIZ = DOEPTSIZ_STUPCNT(3);
 80024be:	f8c5 1b10 	str.w	r1, [r5, #2832]	; 0xb10
  usbp->pmnext += size;
 80024c2:	f103 0110 	add.w	r1, r3, #16
                        DOEPCTL_MPSIZ(ep0config.out_maxsize);
  otgp->ie[0].DIEPTSIZ = 0;
  otgp->ie[0].DIEPCTL = DIEPCTL_SD0PID | DIEPCTL_USBAEP | DIEPCTL_EPTYP_CTRL |
                        DIEPCTL_TXFNUM(0) | DIEPCTL_MPSIZ(ep0config.in_maxsize);
  otgp->DIEPTXF0 = DIEPTXF_INEPTXFD(ep0config.in_maxsize / 4) |
 80024c6:	f443 1380 	orr.w	r3, r3, #1048576	; 0x100000
  otgp->oe[0].DOEPCTL = DOEPCTL_SD0PID | DOEPCTL_USBAEP | DOEPCTL_EPTYP_CTRL |
 80024ca:	f8c5 2b00 	str.w	r2, [r5, #2816]	; 0xb00
  otgp->ie[0].DIEPTSIZ = 0;
 80024ce:	f8c5 4910 	str.w	r4, [r5, #2320]	; 0x910
  otgp->ie[0].DIEPCTL = DIEPCTL_SD0PID | DIEPCTL_USBAEP | DIEPCTL_EPTYP_CTRL |
 80024d2:	f8c5 2900 	str.w	r2, [r5, #2304]	; 0x900
  usbp->pmnext += size;
 80024d6:	f8c7 1098 	str.w	r1, [r7, #152]	; 0x98
  otgp->DIEPTXF0 = DIEPTXF_INEPTXFD(ep0config.in_maxsize / 4) |
 80024da:	62ab      	str	r3, [r5, #40]	; 0x28
                   DIEPTXF_INEPTXSA(otg_ram_alloc(usbp,
                                                  ep0config.in_maxsize / 4));
}
 80024dc:	bdf8      	pop	{r3, r4, r5, r6, r7, pc}
 80024de:	bf00      	nop
 80024e0:	000c0010 	.word	0x000c0010
 80024e4:	08004c80 	.word	0x08004c80
 80024e8:	10008040 	.word	0x10008040
 80024ec:	00000000 	.word	0x00000000

080024f0 <usb_lld_set_address>:
 * @param[in] usbp      pointer to the @p USBDriver object
 *
 * @notapi
 */
void usb_lld_set_address(USBDriver *usbp) {
  stm32_otg_t *otgp = usbp->otg;
 80024f0:	f8d0 2090 	ldr.w	r2, [r0, #144]	; 0x90

  otgp->DCFG = (otgp->DCFG & ~DCFG_DAD_MASK) | DCFG_DAD(usbp->address);
 80024f4:	f890 108a 	ldrb.w	r1, [r0, #138]	; 0x8a
 80024f8:	f8d2 3800 	ldr.w	r3, [r2, #2048]	; 0x800
 80024fc:	f423 63fe 	bic.w	r3, r3, #2032	; 0x7f0
 8002500:	ea43 1301 	orr.w	r3, r3, r1, lsl #4
 8002504:	f8c2 3800 	str.w	r3, [r2, #2048]	; 0x800
}
 8002508:	4770      	bx	lr
 800250a:	bf00      	nop
 800250c:	0000      	movs	r0, r0
	...

08002510 <usb_lld_disable_endpoints>:
 *
 * @param[in] usbp      pointer to the @p USBDriver object
 *
 * @notapi
 */
void usb_lld_disable_endpoints(USBDriver *usbp) {
 8002510:	4603      	mov	r3, r0

  /* Resets the FIFO memory allocator.*/
  otg_ram_reset(usbp);

  /* Disabling all endpoints.*/
  otg_disable_ep(usbp);
 8002512:	e9d0 0124 	ldrd	r0, r1, [r0, #144]	; 0x90
  usbp->pmnext = usbp->otgparams->rx_fifo_size;
 8002516:	680a      	ldr	r2, [r1, #0]
 8002518:	f8c3 2098 	str.w	r2, [r3, #152]	; 0x98
  otg_disable_ep(usbp);
 800251c:	f7ff bf40 	b.w	80023a0 <otg_disable_ep.isra.0>

08002520 <usb_lld_get_status_out>:
usbepstatus_t usb_lld_get_status_out(USBDriver *usbp, usbep_t ep) {
  uint32_t ctl;

  (void)usbp;

  ctl = usbp->otg->oe[ep].DOEPCTL;
 8002520:	3158      	adds	r1, #88	; 0x58
 8002522:	f8d0 3090 	ldr.w	r3, [r0, #144]	; 0x90
 8002526:	0149      	lsls	r1, r1, #5
 8002528:	585b      	ldr	r3, [r3, r1]
  if (!(ctl & DOEPCTL_USBAEP))
 800252a:	f413 4000 	ands.w	r0, r3, #32768	; 0x8000
 800252e:	d004      	beq.n	800253a <usb_lld_get_status_out+0x1a>
    return EP_STATUS_DISABLED;
  if (ctl & DOEPCTL_STALL)
    return EP_STATUS_STALLED;
 8002530:	f413 1f00 	tst.w	r3, #2097152	; 0x200000
 8002534:	bf0c      	ite	eq
 8002536:	2002      	moveq	r0, #2
 8002538:	2001      	movne	r0, #1
  return EP_STATUS_ACTIVE;
}
 800253a:	4770      	bx	lr
 800253c:	0000      	movs	r0, r0
	...

08002540 <usb_lld_get_status_in>:
usbepstatus_t usb_lld_get_status_in(USBDriver *usbp, usbep_t ep) {
  uint32_t ctl;

  (void)usbp;

  ctl = usbp->otg->ie[ep].DIEPCTL;
 8002540:	3148      	adds	r1, #72	; 0x48
 8002542:	f8d0 3090 	ldr.w	r3, [r0, #144]	; 0x90
 8002546:	0149      	lsls	r1, r1, #5
 8002548:	585b      	ldr	r3, [r3, r1]
  if (!(ctl & DIEPCTL_USBAEP))
 800254a:	f413 4000 	ands.w	r0, r3, #32768	; 0x8000
 800254e:	d004      	beq.n	800255a <usb_lld_get_status_in+0x1a>
    return EP_STATUS_DISABLED;
  if (ctl & DIEPCTL_STALL)
    return EP_STATUS_STALLED;
 8002550:	f413 1f00 	tst.w	r3, #2097152	; 0x200000
 8002554:	bf0c      	ite	eq
 8002556:	2002      	moveq	r0, #2
 8002558:	2001      	movne	r0, #1
  return EP_STATUS_ACTIVE;
}
 800255a:	4770      	bx	lr
 800255c:	0000      	movs	r0, r0
	...

08002560 <usb_lld_read_setup>:
 *
 * @notapi
 */
void usb_lld_read_setup(USBDriver *usbp, usbep_t ep, uint8_t *buf) {

  memcpy(buf, usbp->epc[ep]->setup_buf, 8);
 8002560:	eb00 0081 	add.w	r0, r0, r1, lsl #2
 8002564:	68c3      	ldr	r3, [r0, #12]
 8002566:	6a1b      	ldr	r3, [r3, #32]
 8002568:	6819      	ldr	r1, [r3, #0]
 800256a:	685b      	ldr	r3, [r3, #4]
 800256c:	6011      	str	r1, [r2, #0]
 800256e:	6053      	str	r3, [r2, #4]
}
 8002570:	4770      	bx	lr
 8002572:	bf00      	nop
	...

08002580 <usb_lld_start_out>:
 *
 * @notapi
 */
void usb_lld_start_out(USBDriver *usbp, usbep_t ep) {
  uint32_t pcnt, rxsize;
  USBOutEndpointState *osp = usbp->epc[ep]->out_state;
 8002580:	eb00 0381 	add.w	r3, r0, r1, lsl #2
 8002584:	68da      	ldr	r2, [r3, #12]
 8002586:	6993      	ldr	r3, [r2, #24]
void usb_lld_start_out(USBDriver *usbp, usbep_t ep) {
 8002588:	b410      	push	{r4}

  /* Transfer initialization.*/
  osp->totsize = osp->rxsize;
 800258a:	681c      	ldr	r4, [r3, #0]
 800258c:	60dc      	str	r4, [r3, #12]
  if ((ep == 0) && (osp->rxsize > EP0_MAX_OUTSIZE))
 800258e:	b909      	cbnz	r1, 8002594 <usb_lld_start_out+0x14>
 8002590:	2c40      	cmp	r4, #64	; 0x40
 8002592:	d825      	bhi.n	80025e0 <usb_lld_start_out+0x60>
  /* Transaction size is rounded to a multiple of packet size because the
     following requirement in the RM:
     "For OUT transfers, the transfer size field in the endpoint's transfer
     size register must be a multiple of the maximum packet size of the
     endpoint, adjusted to the Word boundary".*/
  pcnt   = (osp->rxsize + usbp->epc[ep]->out_maxsize - 1U) /
 8002594:	8a53      	ldrh	r3, [r2, #18]
  /* Setting up transaction parameters in DOEPTSIZ.*/
  usbp->otg->oe[ep].DOEPTSIZ = DOEPTSIZ_STUPCNT(3) | DOEPTSIZ_PKTCNT(pcnt) |
                               DOEPTSIZ_XFRSIZ(rxsize);

  /* Special case of isochronous endpoint.*/
  if ((usbp->epc[ep]->ep_mode & USB_EP_MODE_TYPE) == USB_EP_MODE_TYPE_ISOC) {
 8002596:	6812      	ldr	r2, [r2, #0]
  usbp->otg->oe[ep].DOEPTSIZ = DOEPTSIZ_STUPCNT(3) | DOEPTSIZ_PKTCNT(pcnt) |
 8002598:	f8d0 0090 	ldr.w	r0, [r0, #144]	; 0x90
  if ((usbp->epc[ep]->ep_mode & USB_EP_MODE_TYPE) == USB_EP_MODE_TYPE_ISOC) {
 800259c:	f002 0c03 	and.w	ip, r2, #3
  pcnt   = (osp->rxsize + usbp->epc[ep]->out_maxsize - 1U) /
 80025a0:	1e5a      	subs	r2, r3, #1
 80025a2:	4422      	add	r2, r4
  if ((usbp->epc[ep]->ep_mode & USB_EP_MODE_TYPE) == USB_EP_MODE_TYPE_ISOC) {
 80025a4:	f1bc 0f01 	cmp.w	ip, #1
  pcnt   = (osp->rxsize + usbp->epc[ep]->out_maxsize - 1U) /
 80025a8:	fbb2 f2f3 	udiv	r2, r2, r3
  rxsize = (pcnt * usbp->epc[ep]->out_maxsize + 3U) & 0xFFFFFFFCU;
 80025ac:	fb02 f303 	mul.w	r3, r2, r3
 80025b0:	f103 0303 	add.w	r3, r3, #3
 80025b4:	f023 0303 	bic.w	r3, r3, #3
  usbp->otg->oe[ep].DOEPTSIZ = DOEPTSIZ_STUPCNT(3) | DOEPTSIZ_PKTCNT(pcnt) |
 80025b8:	ea43 43c2 	orr.w	r3, r3, r2, lsl #19
 80025bc:	eb00 1241 	add.w	r2, r0, r1, lsl #5
 80025c0:	f043 43c0 	orr.w	r3, r3, #1610612736	; 0x60000000
 80025c4:	f8c2 3b10 	str.w	r3, [r2, #2832]	; 0xb10
  if ((usbp->epc[ep]->ep_mode & USB_EP_MODE_TYPE) == USB_EP_MODE_TYPE_ISOC) {
 80025c8:	d00d      	beq.n	80025e6 <usb_lld_start_out+0x66>
 80025ca:	b209      	sxth	r1, r1
    else
      usbp->otg->oe[ep].DOEPCTL |= DOEPCTL_SODDFRM;
  }

  /* Starting operation.*/
  usbp->otg->oe[ep].DOEPCTL |= DOEPCTL_EPENA | DOEPCTL_CNAK;
 80025cc:	eb00 1041 	add.w	r0, r0, r1, lsl #5
}
 80025d0:	bc10      	pop	{r4}
  usbp->otg->oe[ep].DOEPCTL |= DOEPCTL_EPENA | DOEPCTL_CNAK;
 80025d2:	f8d0 3b00 	ldr.w	r3, [r0, #2816]	; 0xb00
 80025d6:	f043 4304 	orr.w	r3, r3, #2214592512	; 0x84000000
 80025da:	f8c0 3b00 	str.w	r3, [r0, #2816]	; 0xb00
}
 80025de:	4770      	bx	lr
    osp->rxsize = EP0_MAX_OUTSIZE;
 80025e0:	2440      	movs	r4, #64	; 0x40
 80025e2:	601c      	str	r4, [r3, #0]
 80025e4:	e7d6      	b.n	8002594 <usb_lld_start_out+0x14>
    if (usbp->otg->DSTS & DSTS_FNSOF_ODD)
 80025e6:	f8d0 3808 	ldr.w	r3, [r0, #2056]	; 0x808
 80025ea:	eb00 1241 	add.w	r2, r0, r1, lsl #5
 80025ee:	b209      	sxth	r1, r1
 80025f0:	f413 7f80 	tst.w	r3, #256	; 0x100
      usbp->otg->oe[ep].DOEPCTL |= DOEPCTL_SEVNFRM;
 80025f4:	f8d2 3b00 	ldr.w	r3, [r2, #2816]	; 0xb00
 80025f8:	bf14      	ite	ne
 80025fa:	f043 5380 	orrne.w	r3, r3, #268435456	; 0x10000000
      usbp->otg->oe[ep].DOEPCTL |= DOEPCTL_SODDFRM;
 80025fe:	f043 5300 	orreq.w	r3, r3, #536870912	; 0x20000000
 8002602:	f8c2 3b00 	str.w	r3, [r2, #2816]	; 0xb00
 8002606:	e7e1      	b.n	80025cc <usb_lld_start_out+0x4c>
	...

08002610 <otg_epout_handler.constprop.0>:
static void otg_epout_handler(USBDriver *usbp, usbep_t ep) {
 8002610:	e92d 41f0 	stmdb	sp!, {r4, r5, r6, r7, r8, lr}
  stm32_otg_t *otgp = usbp->otg;
 8002614:	4f24      	ldr	r7, [pc, #144]	; (80026a8 <otg_epout_handler.constprop.0+0x98>)
static void otg_epout_handler(USBDriver *usbp, usbep_t ep) {
 8002616:	4604      	mov	r4, r0
  stm32_otg_t *otgp = usbp->otg;
 8002618:	f8d7 6090 	ldr.w	r6, [r7, #144]	; 0x90
  uint32_t epint = otgp->oe[ep].DOEPINT;
 800261c:	eb06 1340 	add.w	r3, r6, r0, lsl #5
 8002620:	f8d3 5b08 	ldr.w	r5, [r3, #2824]	; 0xb08
  if ((epint & DOEPINT_STUP) && (otgp->DOEPMSK & DOEPMSK_STUPM)) {
 8002624:	0728      	lsls	r0, r5, #28
  otgp->oe[ep].DOEPINT = epint;
 8002626:	f8c3 5b08 	str.w	r5, [r3, #2824]	; 0xb08
  if ((epint & DOEPINT_STUP) && (otgp->DOEPMSK & DOEPMSK_STUPM)) {
 800262a:	d503      	bpl.n	8002634 <otg_epout_handler.constprop.0+0x24>
 800262c:	f8d6 3814 	ldr.w	r3, [r6, #2068]	; 0x814
 8002630:	0719      	lsls	r1, r3, #28
 8002632:	d431      	bmi.n	8002698 <otg_epout_handler.constprop.0+0x88>
  if ((epint & DOEPINT_XFRC) && (otgp->DOEPMSK & DOEPMSK_XFRCM)) {
 8002634:	07ea      	lsls	r2, r5, #31
 8002636:	d52d      	bpl.n	8002694 <otg_epout_handler.constprop.0+0x84>
 8002638:	f8d6 3814 	ldr.w	r3, [r6, #2068]	; 0x814
 800263c:	07db      	lsls	r3, r3, #31
 800263e:	d529      	bpl.n	8002694 <otg_epout_handler.constprop.0+0x84>
    osp = usbp->epc[ep]->out_state;
 8002640:	eb07 0384 	add.w	r3, r7, r4, lsl #2
 8002644:	68d9      	ldr	r1, [r3, #12]
 8002646:	698a      	ldr	r2, [r1, #24]
    if (ep == 0) {
 8002648:	b954      	cbnz	r4, 8002660 <otg_epout_handler.constprop.0+0x50>
      if (((osp->rxcnt % usbp->epc[ep]->out_maxsize) == 0) &&
 800264a:	8a48      	ldrh	r0, [r1, #18]
 800264c:	6853      	ldr	r3, [r2, #4]
 800264e:	fbb3 f5f0 	udiv	r5, r3, r0
 8002652:	fb00 3315 	mls	r3, r0, r5, r3
 8002656:	b91b      	cbnz	r3, 8002660 <otg_epout_handler.constprop.0+0x50>
          (osp->rxsize < osp->totsize)) {
 8002658:	6810      	ldr	r0, [r2, #0]
 800265a:	68d3      	ldr	r3, [r2, #12]
      if (((osp->rxcnt % usbp->epc[ep]->out_maxsize) == 0) &&
 800265c:	4298      	cmp	r0, r3
 800265e:	d30d      	bcc.n	800267c <otg_epout_handler.constprop.0+0x6c>
    _usb_isr_invoke_out_cb(usbp, ep);
 8002660:	2201      	movs	r2, #1
 8002662:	897b      	ldrh	r3, [r7, #10]
 8002664:	68cd      	ldr	r5, [r1, #12]
 8002666:	40a2      	lsls	r2, r4
 8002668:	ea23 0302 	bic.w	r3, r3, r2
 800266c:	817b      	strh	r3, [r7, #10]
 800266e:	b18d      	cbz	r5, 8002694 <otg_epout_handler.constprop.0+0x84>
 8002670:	4621      	mov	r1, r4
 8002672:	462b      	mov	r3, r5
 8002674:	480c      	ldr	r0, [pc, #48]	; (80026a8 <otg_epout_handler.constprop.0+0x98>)
}
 8002676:	e8bd 41f0 	ldmia.w	sp!, {r4, r5, r6, r7, r8, lr}
    _usb_isr_invoke_out_cb(usbp, ep);
 800267a:	4718      	bx	r3
        osp->rxsize = osp->totsize - osp->rxsize;
 800267c:	1a1b      	subs	r3, r3, r0
        osp->rxcnt  = 0;
 800267e:	6054      	str	r4, [r2, #4]
 8002680:	2130      	movs	r1, #48	; 0x30
        osp->rxsize = osp->totsize - osp->rxsize;
 8002682:	6013      	str	r3, [r2, #0]
 8002684:	f381 8811 	msr	BASEPRI, r1
        usb_lld_start_out(usbp, ep);
 8002688:	4807      	ldr	r0, [pc, #28]	; (80026a8 <otg_epout_handler.constprop.0+0x98>)
 800268a:	4621      	mov	r1, r4
 800268c:	f7ff ff78 	bl	8002580 <usb_lld_start_out>
 8002690:	f384 8811 	msr	BASEPRI, r4
}
 8002694:	e8bd 81f0 	ldmia.w	sp!, {r4, r5, r6, r7, r8, pc}
    _usb_isr_invoke_setup_cb(usbp, ep);
 8002698:	eb07 0384 	add.w	r3, r7, r4, lsl #2
 800269c:	4621      	mov	r1, r4
 800269e:	4638      	mov	r0, r7
 80026a0:	68db      	ldr	r3, [r3, #12]
 80026a2:	685b      	ldr	r3, [r3, #4]
 80026a4:	4798      	blx	r3
 80026a6:	e7c5      	b.n	8002634 <otg_epout_handler.constprop.0+0x24>
 80026a8:	24000544 	.word	0x24000544
 80026ac:	00000000 	.word	0x00000000

080026b0 <usb_lld_start_in>:
 * @param[in] ep        endpoint number
 *
 * @notapi
 */
void usb_lld_start_in(USBDriver *usbp, usbep_t ep) {
  USBInEndpointState *isp = usbp->epc[ep]->in_state;
 80026b0:	eb00 0381 	add.w	r3, r0, r1, lsl #2
void usb_lld_start_in(USBDriver *usbp, usbep_t ep) {
 80026b4:	b410      	push	{r4}
  USBInEndpointState *isp = usbp->epc[ep]->in_state;
 80026b6:	68dc      	ldr	r4, [r3, #12]
 80026b8:	6962      	ldr	r2, [r4, #20]

  /* Transfer initialization.*/
  isp->totsize = isp->txsize;
 80026ba:	6813      	ldr	r3, [r2, #0]
 80026bc:	60d3      	str	r3, [r2, #12]
  if (isp->txsize == 0) {
 80026be:	b9f3      	cbnz	r3, 80026fe <usb_lld_start_in+0x4e>
    /* Special case, sending zero size packet.*/
    usbp->otg->ie[ep].DIEPTSIZ = DIEPTSIZ_PKTCNT(1) | DIEPTSIZ_XFRSIZ(0);
 80026c0:	f8d0 2090 	ldr.w	r2, [r0, #144]	; 0x90
 80026c4:	f44f 2000 	mov.w	r0, #524288	; 0x80000
 80026c8:	eb02 1341 	add.w	r3, r2, r1, lsl #5
 80026cc:	f8c3 0910 	str.w	r0, [r3, #2320]	; 0x910
    usbp->otg->ie[ep].DIEPTSIZ = DIEPTSIZ_MCNT(1) | DIEPTSIZ_PKTCNT(pcnt) |
                                 DIEPTSIZ_XFRSIZ(isp->txsize);
  }

  /* Special case of isochronous endpoint.*/
  if ((usbp->epc[ep]->ep_mode & USB_EP_MODE_TYPE) == USB_EP_MODE_TYPE_ISOC) {
 80026d0:	6823      	ldr	r3, [r4, #0]
 80026d2:	f003 0303 	and.w	r3, r3, #3
 80026d6:	2b01      	cmp	r3, #1
 80026d8:	d02a      	beq.n	8002730 <usb_lld_start_in+0x80>
 80026da:	b208      	sxth	r0, r1
    else
      usbp->otg->ie[ep].DIEPCTL |= DIEPCTL_SODDFRM;
  }

  /* Starting operation.*/
  usbp->otg->ie[ep].DIEPCTL |= DIEPCTL_EPENA | DIEPCTL_CNAK;
 80026dc:	eb02 1040 	add.w	r0, r2, r0, lsl #5
  usbp->otg->DIEPEMPMSK |= DIEPEMPMSK_INEPTXFEM(ep);
 80026e0:	2301      	movs	r3, #1
  usbp->otg->ie[ep].DIEPCTL |= DIEPCTL_EPENA | DIEPCTL_CNAK;
 80026e2:	f8d0 4900 	ldr.w	r4, [r0, #2304]	; 0x900
  usbp->otg->DIEPEMPMSK |= DIEPEMPMSK_INEPTXFEM(ep);
 80026e6:	408b      	lsls	r3, r1
  usbp->otg->ie[ep].DIEPCTL |= DIEPCTL_EPENA | DIEPCTL_CNAK;
 80026e8:	f044 4404 	orr.w	r4, r4, #2214592512	; 0x84000000
 80026ec:	f8c0 4900 	str.w	r4, [r0, #2304]	; 0x900
  usbp->otg->DIEPEMPMSK |= DIEPEMPMSK_INEPTXFEM(ep);
 80026f0:	f8d2 1834 	ldr.w	r1, [r2, #2100]	; 0x834
}
 80026f4:	bc10      	pop	{r4}
  usbp->otg->DIEPEMPMSK |= DIEPEMPMSK_INEPTXFEM(ep);
 80026f6:	430b      	orrs	r3, r1
 80026f8:	f8c2 3834 	str.w	r3, [r2, #2100]	; 0x834
}
 80026fc:	4770      	bx	lr
    if ((ep == 0) && (isp->txsize > EP0_MAX_INSIZE))
 80026fe:	b909      	cbnz	r1, 8002704 <usb_lld_start_in+0x54>
 8002700:	2b40      	cmp	r3, #64	; 0x40
 8002702:	d826      	bhi.n	8002752 <usb_lld_start_in+0xa2>
    uint32_t pcnt = (isp->txsize + usbp->epc[ep]->in_maxsize - 1) /
 8002704:	f8b4 c010 	ldrh.w	ip, [r4, #16]
    usbp->otg->ie[ep].DIEPTSIZ = DIEPTSIZ_MCNT(1) | DIEPTSIZ_PKTCNT(pcnt) |
 8002708:	f8d0 2090 	ldr.w	r2, [r0, #144]	; 0x90
    uint32_t pcnt = (isp->txsize + usbp->epc[ep]->in_maxsize - 1) /
 800270c:	f10c 30ff 	add.w	r0, ip, #4294967295
 8002710:	4418      	add	r0, r3
 8002712:	fbb0 f0fc 	udiv	r0, r0, ip
    usbp->otg->ie[ep].DIEPTSIZ = DIEPTSIZ_MCNT(1) | DIEPTSIZ_PKTCNT(pcnt) |
 8002716:	ea43 43c0 	orr.w	r3, r3, r0, lsl #19
 800271a:	eb02 1041 	add.w	r0, r2, r1, lsl #5
 800271e:	f043 5300 	orr.w	r3, r3, #536870912	; 0x20000000
 8002722:	f8c0 3910 	str.w	r3, [r0, #2320]	; 0x910
  if ((usbp->epc[ep]->ep_mode & USB_EP_MODE_TYPE) == USB_EP_MODE_TYPE_ISOC) {
 8002726:	6823      	ldr	r3, [r4, #0]
 8002728:	f003 0303 	and.w	r3, r3, #3
 800272c:	2b01      	cmp	r3, #1
 800272e:	d1d4      	bne.n	80026da <usb_lld_start_in+0x2a>
    if (usbp->otg->DSTS & DSTS_FNSOF_ODD)
 8002730:	f8d2 3808 	ldr.w	r3, [r2, #2056]	; 0x808
 8002734:	b208      	sxth	r0, r1
 8002736:	f413 7f80 	tst.w	r3, #256	; 0x100
 800273a:	eb02 1341 	add.w	r3, r2, r1, lsl #5
      usbp->otg->ie[ep].DIEPCTL |= DIEPCTL_SEVNFRM;
 800273e:	f8d3 4900 	ldr.w	r4, [r3, #2304]	; 0x900
 8002742:	bf14      	ite	ne
 8002744:	f044 5480 	orrne.w	r4, r4, #268435456	; 0x10000000
      usbp->otg->ie[ep].DIEPCTL |= DIEPCTL_SODDFRM;
 8002748:	f044 5400 	orreq.w	r4, r4, #536870912	; 0x20000000
 800274c:	f8c3 4900 	str.w	r4, [r3, #2304]	; 0x900
 8002750:	e7c4      	b.n	80026dc <usb_lld_start_in+0x2c>
      isp->txsize = EP0_MAX_INSIZE;
 8002752:	2340      	movs	r3, #64	; 0x40
 8002754:	6013      	str	r3, [r2, #0]
 8002756:	e7d5      	b.n	8002704 <usb_lld_start_in+0x54>
	...

08002760 <otg_epin_handler.constprop.0>:
static void otg_epin_handler(USBDriver *usbp, usbep_t ep) {
 8002760:	e92d 4ff8 	stmdb	sp!, {r3, r4, r5, r6, r7, r8, r9, sl, fp, lr}
  stm32_otg_t *otgp = usbp->otg;
 8002764:	f8df 9104 	ldr.w	r9, [pc, #260]	; 800286c <otg_epin_handler.constprop.0+0x10c>
static void otg_epin_handler(USBDriver *usbp, usbep_t ep) {
 8002768:	4604      	mov	r4, r0
  uint32_t epint = otgp->ie[ep].DIEPINT;
 800276a:	ea4f 1b40 	mov.w	fp, r0, lsl #5
  stm32_otg_t *otgp = usbp->otg;
 800276e:	f8d9 6090 	ldr.w	r6, [r9, #144]	; 0x90
  uint32_t epint = otgp->ie[ep].DIEPINT;
 8002772:	eb06 1340 	add.w	r3, r6, r0, lsl #5
 8002776:	f8d3 5908 	ldr.w	r5, [r3, #2312]	; 0x908
  if ((epint & DIEPINT_XFRC) && (otgp->DIEPMSK & DIEPMSK_XFRCM)) {
 800277a:	07e9      	lsls	r1, r5, #31
  otgp->ie[ep].DIEPINT = epint;
 800277c:	f8c3 5908 	str.w	r5, [r3, #2312]	; 0x908
  if ((epint & DIEPINT_XFRC) && (otgp->DIEPMSK & DIEPMSK_XFRCM)) {
 8002780:	d503      	bpl.n	800278a <otg_epin_handler.constprop.0+0x2a>
 8002782:	f8d6 3810 	ldr.w	r3, [r6, #2064]	; 0x810
 8002786:	07da      	lsls	r2, r3, #31
 8002788:	d40c      	bmi.n	80027a4 <otg_epin_handler.constprop.0+0x44>
  if ((epint & DIEPINT_TXFE) &&
 800278a:	062b      	lsls	r3, r5, #24
 800278c:	d508      	bpl.n	80027a0 <otg_epin_handler.constprop.0+0x40>
      (otgp->DIEPEMPMSK & DIEPEMPMSK_INEPTXFEM(ep))) {
 800278e:	f04f 0801 	mov.w	r8, #1
 8002792:	f8d6 3834 	ldr.w	r3, [r6, #2100]	; 0x834
 8002796:	fa08 f804 	lsl.w	r8, r8, r4
  if ((epint & DIEPINT_TXFE) &&
 800279a:	ea13 0f08 	tst.w	r3, r8
 800279e:	d118      	bne.n	80027d2 <otg_epin_handler.constprop.0+0x72>
}
 80027a0:	e8bd 8ff8 	ldmia.w	sp!, {r3, r4, r5, r6, r7, r8, r9, sl, fp, pc}
    USBInEndpointState *isp = usbp->epc[ep]->in_state;
 80027a4:	eb09 0380 	add.w	r3, r9, r0, lsl #2
 80027a8:	68d9      	ldr	r1, [r3, #12]
 80027aa:	694b      	ldr	r3, [r1, #20]
    if (isp->txsize < isp->totsize) {
 80027ac:	6818      	ldr	r0, [r3, #0]
 80027ae:	68da      	ldr	r2, [r3, #12]
 80027b0:	4290      	cmp	r0, r2
 80027b2:	d34a      	bcc.n	800284a <otg_epin_handler.constprop.0+0xea>
      _usb_isr_invoke_in_cb(usbp, ep);
 80027b4:	2201      	movs	r2, #1
 80027b6:	f8b9 3008 	ldrh.w	r3, [r9, #8]
 80027ba:	688f      	ldr	r7, [r1, #8]
 80027bc:	40a2      	lsls	r2, r4
 80027be:	ea23 0302 	bic.w	r3, r3, r2
 80027c2:	f8a9 3008 	strh.w	r3, [r9, #8]
 80027c6:	2f00      	cmp	r7, #0
 80027c8:	d0df      	beq.n	800278a <otg_epin_handler.constprop.0+0x2a>
 80027ca:	4621      	mov	r1, r4
 80027cc:	4648      	mov	r0, r9
 80027ce:	47b8      	blx	r7
 80027d0:	e7db      	b.n	800278a <otg_epin_handler.constprop.0+0x2a>
    if (usbp->epc[ep]->in_state->txcnt >= usbp->epc[ep]->in_state->txsize) {
 80027d2:	eb09 0384 	add.w	r3, r9, r4, lsl #2
 80027d6:	68db      	ldr	r3, [r3, #12]
 80027d8:	695e      	ldr	r6, [r3, #20]
 80027da:	e9d6 7500 	ldrd	r7, r5, [r6]
 80027de:	42af      	cmp	r7, r5
 80027e0:	d941      	bls.n	8002866 <otg_epin_handler.constprop.0+0x106>
    otg_fifo_write_from_buffer(usbp->otg->FIFO[ep],
 80027e2:	3401      	adds	r4, #1
    if (((usbp->otg->ie[ep].DTXFSTS & DTXFSTS_INEPTFSAV_MASK) * 4) < n)
 80027e4:	f8d9 a090 	ldr.w	sl, [r9, #144]	; 0x90
    if (n > usbp->epc[ep]->in_maxsize)
 80027e8:	f8b3 9010 	ldrh.w	r9, [r3, #16]
    otg_fifo_write_from_buffer(usbp->otg->FIFO[ep],
 80027ec:	b2e4      	uxtb	r4, r4
    if (((usbp->otg->ie[ep].DTXFSTS & DTXFSTS_INEPTFSAV_MASK) * 4) < n)
 80027ee:	eb0a 0e0b 	add.w	lr, sl, fp
    otg_fifo_write_from_buffer(usbp->otg->FIFO[ep],
 80027f2:	eb0a 3004 	add.w	r0, sl, r4, lsl #12
    n = usbp->epc[ep]->in_state->txsize - usbp->epc[ep]->in_state->txcnt;
 80027f6:	eba7 0c05 	sub.w	ip, r7, r5
    if (((usbp->otg->ie[ep].DTXFSTS & DTXFSTS_INEPTFSAV_MASK) * 4) < n)
 80027fa:	f8de 3918 	ldr.w	r3, [lr, #2328]	; 0x918
 80027fe:	45cc      	cmp	ip, r9
 8002800:	b29b      	uxth	r3, r3
 8002802:	bf28      	it	cs
 8002804:	46cc      	movcs	ip, r9
 8002806:	ebbc 0f83 	cmp.w	ip, r3, lsl #2
 800280a:	d8c9      	bhi.n	80027a0 <otg_epin_handler.constprop.0+0x40>
    otg_fifo_write_from_buffer(usbp->otg->FIFO[ep],
 800280c:	68b4      	ldr	r4, [r6, #8]
    if (n <= 4) {
 800280e:	f1bc 0f04 	cmp.w	ip, #4
    *fifop = *((uint32_t *)buf);
 8002812:	6823      	ldr	r3, [r4, #0]
 8002814:	6003      	str	r3, [r0, #0]
    if (n <= 4) {
 8002816:	d90b      	bls.n	8002830 <otg_epin_handler.constprop.0+0xd0>
 8002818:	f1ac 0105 	sub.w	r1, ip, #5
 800281c:	4623      	mov	r3, r4
 800281e:	f021 0103 	bic.w	r1, r1, #3
 8002822:	3104      	adds	r1, #4
 8002824:	4421      	add	r1, r4
    *fifop = *((uint32_t *)buf);
 8002826:	f853 2f04 	ldr.w	r2, [r3, #4]!
    if (n <= 4) {
 800282a:	4299      	cmp	r1, r3
    *fifop = *((uint32_t *)buf);
 800282c:	6002      	str	r2, [r0, #0]
    if (n <= 4) {
 800282e:	d1fa      	bne.n	8002826 <otg_epin_handler.constprop.0+0xc6>
    usbp->epc[ep]->in_state->txcnt += n;
 8002830:	4465      	add	r5, ip
    usbp->epc[ep]->in_state->txbuf += n;
 8002832:	4464      	add	r4, ip
    if (usbp->epc[ep]->in_state->txcnt >= usbp->epc[ep]->in_state->txsize) {
 8002834:	42bd      	cmp	r5, r7
    usbp->epc[ep]->in_state->txcnt += n;
 8002836:	e9c6 5401 	strd	r5, r4, [r6, #4]
    if (usbp->epc[ep]->in_state->txcnt >= usbp->epc[ep]->in_state->txsize) {
 800283a:	d3dc      	bcc.n	80027f6 <otg_epin_handler.constprop.0+0x96>
      usbp->otg->DIEPEMPMSK &= ~DIEPEMPMSK_INEPTXFEM(ep);
 800283c:	f8da 3834 	ldr.w	r3, [sl, #2100]	; 0x834
 8002840:	ea23 0308 	bic.w	r3, r3, r8
 8002844:	f8ca 3834 	str.w	r3, [sl, #2100]	; 0x834
      return true;
 8002848:	e7aa      	b.n	80027a0 <otg_epin_handler.constprop.0+0x40>
      isp->txsize = isp->totsize - isp->txsize;
 800284a:	1a12      	subs	r2, r2, r0
      isp->txcnt  = 0;
 800284c:	2700      	movs	r7, #0
      isp->txsize = isp->totsize - isp->txsize;
 800284e:	601a      	str	r2, [r3, #0]
      isp->txcnt  = 0;
 8002850:	605f      	str	r7, [r3, #4]
 8002852:	2330      	movs	r3, #48	; 0x30
 8002854:	f383 8811 	msr	BASEPRI, r3
      usb_lld_start_in(usbp, ep);
 8002858:	4621      	mov	r1, r4
 800285a:	4648      	mov	r0, r9
 800285c:	f7ff ff28 	bl	80026b0 <usb_lld_start_in>
 8002860:	f387 8811 	msr	BASEPRI, r7
}
 8002864:	e791      	b.n	800278a <otg_epin_handler.constprop.0+0x2a>
      usbp->otg->DIEPEMPMSK &= ~DIEPEMPMSK_INEPTXFEM(ep);
 8002866:	f8d9 a090 	ldr.w	sl, [r9, #144]	; 0x90
 800286a:	e7e7      	b.n	800283c <otg_epin_handler.constprop.0+0xdc>
 800286c:	24000544 	.word	0x24000544

08002870 <Vector1D4>:
OSAL_IRQ_HANDLER(STM32_OTG1_HANDLER) {
 8002870:	e92d 4ff8 	stmdb	sp!, {r3, r4, r5, r6, r7, r8, r9, sl, fp, lr}
  stm32_otg_t *otgp = usbp->otg;
 8002874:	4eb2      	ldr	r6, [pc, #712]	; (8002b40 <Vector1D4+0x2d0>)
 8002876:	f04f 0940 	mov.w	r9, #64	; 0x40
  OSAL_IRQ_PROLOGUE();
 800287a:	48b2      	ldr	r0, [pc, #712]	; (8002b44 <Vector1D4+0x2d4>)
 800287c:	f001 f9c8 	bl	8003c10 <__trace_isr_enter>
  stm32_otg_t *otgp = usbp->otg;
 8002880:	f8d6 7090 	ldr.w	r7, [r6, #144]	; 0x90
  unsigned retry = 64U;
 8002884:	e06e      	b.n	8002964 <Vector1D4+0xf4>
  if (sts & GINTSTS_USBSUSP) {
 8002886:	0529      	lsls	r1, r5, #20
 8002888:	f100 808e 	bmi.w	80029a8 <Vector1D4+0x138>
  if (sts & GINTSTS_ENUMDNE) {
 800288c:	04aa      	lsls	r2, r5, #18
 800288e:	d50c      	bpl.n	80028aa <Vector1D4+0x3a>
    if ((otgp->DSTS & DSTS_ENUMSPD_MASK) == DSTS_ENUMSPD_HS_480) {
 8002890:	f8d7 3808 	ldr.w	r3, [r7, #2056]	; 0x808
 8002894:	f013 0f06 	tst.w	r3, #6
      otgp->GUSBCFG = (otgp->GUSBCFG & ~(GUSBCFG_TRDT_MASK)) |
 8002898:	68fb      	ldr	r3, [r7, #12]
 800289a:	f423 5370 	bic.w	r3, r3, #15360	; 0x3c00
 800289e:	bf0c      	ite	eq
 80028a0:	f443 5310 	orreq.w	r3, r3, #9216	; 0x2400
      otgp->GUSBCFG = (otgp->GUSBCFG & ~(GUSBCFG_TRDT_MASK)) |
 80028a4:	f443 53a0 	orrne.w	r3, r3, #5120	; 0x1400
 80028a8:	60fb      	str	r3, [r7, #12]
  if (sts & GINTSTS_SOF) {
 80028aa:	072b      	lsls	r3, r5, #28
 80028ac:	d50e      	bpl.n	80028cc <Vector1D4+0x5c>
    if (usbp->config->sof_cb == NULL) {
 80028ae:	6874      	ldr	r4, [r6, #4]
 80028b0:	68e3      	ldr	r3, [r4, #12]
 80028b2:	2b00      	cmp	r3, #0
 80028b4:	f000 8176 	beq.w	8002ba4 <Vector1D4+0x334>
    if (usbp->state == USB_SUSPENDED) {
 80028b8:	7833      	ldrb	r3, [r6, #0]
 80028ba:	2b05      	cmp	r3, #5
 80028bc:	f000 817a 	beq.w	8002bb4 <Vector1D4+0x344>
    otg_enable_ep(usbp);
 80028c0:	f7ff fd46 	bl	8002350 <otg_enable_ep.constprop.0>
    _usb_isr_invoke_sof_cb(usbp);
 80028c4:	68e3      	ldr	r3, [r4, #12]
 80028c6:	b10b      	cbz	r3, 80028cc <Vector1D4+0x5c>
 80028c8:	4630      	mov	r0, r6
 80028ca:	4798      	blx	r3
  if (sts & GINTSTS_IISOIXFR) {
 80028cc:	02ec      	lsls	r4, r5, #11
 80028ce:	d473      	bmi.n	80029b8 <Vector1D4+0x148>
  if (sts & GINTSTS_IISOOXFR) {
 80028d0:	02a8      	lsls	r0, r5, #10
 80028d2:	f100 80b4 	bmi.w	8002a3e <Vector1D4+0x1ce>
  if (sts & GINTSTS_OEPINT) {
 80028d6:	032b      	lsls	r3, r5, #12
  src = otgp->DAINT;
 80028d8:	f8d7 4818 	ldr.w	r4, [r7, #2072]	; 0x818
  if (sts & GINTSTS_OEPINT) {
 80028dc:	d51a      	bpl.n	8002914 <Vector1D4+0xa4>
    if (src & (1 << 16))
 80028de:	03e0      	lsls	r0, r4, #15
 80028e0:	f100 813c 	bmi.w	8002b5c <Vector1D4+0x2ec>
    if (src & (1 << 17))
 80028e4:	03a1      	lsls	r1, r4, #14
 80028e6:	f100 8135 	bmi.w	8002b54 <Vector1D4+0x2e4>
    if (src & (1 << 18))
 80028ea:	0362      	lsls	r2, r4, #13
 80028ec:	f100 812e 	bmi.w	8002b4c <Vector1D4+0x2dc>
    if (src & (1 << 19))
 80028f0:	0323      	lsls	r3, r4, #12
 80028f2:	f100 8120 	bmi.w	8002b36 <Vector1D4+0x2c6>
    if (src & (1 << 20))
 80028f6:	02e0      	lsls	r0, r4, #11
 80028f8:	f100 8119 	bmi.w	8002b2e <Vector1D4+0x2be>
    if (src & (1 << 21))
 80028fc:	02a1      	lsls	r1, r4, #10
 80028fe:	f100 8112 	bmi.w	8002b26 <Vector1D4+0x2b6>
    if (src & (1 << 22))
 8002902:	0262      	lsls	r2, r4, #9
 8002904:	f100 810b 	bmi.w	8002b1e <Vector1D4+0x2ae>
    if (src & (1 << 23))
 8002908:	0223      	lsls	r3, r4, #8
 800290a:	f100 8104 	bmi.w	8002b16 <Vector1D4+0x2a6>
    if (src & (1 << 24))
 800290e:	01e0      	lsls	r0, r4, #7
 8002910:	f100 80f9 	bmi.w	8002b06 <Vector1D4+0x296>
  if (sts & GINTSTS_IEPINT) {
 8002914:	0369      	lsls	r1, r5, #13
 8002916:	d51a      	bpl.n	800294e <Vector1D4+0xde>
    if (src & (1 << 0))
 8002918:	07e2      	lsls	r2, r4, #31
 800291a:	f100 813f 	bmi.w	8002b9c <Vector1D4+0x32c>
    if (src & (1 << 1))
 800291e:	07a3      	lsls	r3, r4, #30
 8002920:	f100 8138 	bmi.w	8002b94 <Vector1D4+0x324>
    if (src & (1 << 2))
 8002924:	0760      	lsls	r0, r4, #29
 8002926:	f100 8131 	bmi.w	8002b8c <Vector1D4+0x31c>
    if (src & (1 << 3))
 800292a:	0721      	lsls	r1, r4, #28
 800292c:	f100 812a 	bmi.w	8002b84 <Vector1D4+0x314>
    if (src & (1 << 4))
 8002930:	06e2      	lsls	r2, r4, #27
 8002932:	f100 8123 	bmi.w	8002b7c <Vector1D4+0x30c>
    if (src & (1 << 5))
 8002936:	06a3      	lsls	r3, r4, #26
 8002938:	f100 811c 	bmi.w	8002b74 <Vector1D4+0x304>
    if (src & (1 << 6))
 800293c:	0660      	lsls	r0, r4, #25
 800293e:	f100 8115 	bmi.w	8002b6c <Vector1D4+0x2fc>
    if (src & (1 << 7))
 8002942:	0621      	lsls	r1, r4, #24
 8002944:	f100 810e 	bmi.w	8002b64 <Vector1D4+0x2f4>
    if (src & (1 << 8))
 8002948:	05e2      	lsls	r2, r4, #23
 800294a:	f100 80e0 	bmi.w	8002b0e <Vector1D4+0x29e>
  if ((sts & GINTSTS_RXFLVL) != 0U) {
 800294e:	06eb      	lsls	r3, r5, #27
 8002950:	f100 80a2 	bmi.w	8002a98 <Vector1D4+0x228>
  if ((sts & IRQ_RETRY_MASK) && (--retry > 0U))
 8002954:	4b7c      	ldr	r3, [pc, #496]	; (8002b48 <Vector1D4+0x2d8>)
 8002956:	421d      	tst	r5, r3
 8002958:	f000 80ce 	beq.w	8002af8 <Vector1D4+0x288>
 800295c:	f1b9 0901 	subs.w	r9, r9, #1
 8002960:	f000 80ca 	beq.w	8002af8 <Vector1D4+0x288>
  sts  = otgp->GINTSTS;
 8002964:	697d      	ldr	r5, [r7, #20]
  sts &= otgp->GINTMSK;
 8002966:	69bb      	ldr	r3, [r7, #24]
 8002968:	401d      	ands	r5, r3
  if (sts & GINTSTS_USBRST) {
 800296a:	f415 5880 	ands.w	r8, r5, #4096	; 0x1000
  otgp->GINTSTS = sts;
 800296e:	617d      	str	r5, [r7, #20]
  if (sts & GINTSTS_USBRST) {
 8002970:	f040 815f 	bne.w	8002c32 <Vector1D4+0x3c2>
  if (sts & GINTSTS_WKUPINT) {
 8002974:	2d00      	cmp	r5, #0
 8002976:	da86      	bge.n	8002886 <Vector1D4+0x16>
    if (otgp->PCGCCTL & (PCGCCTL_STPPCLK | PCGCCTL_GATEHCLK)) {
 8002978:	f8d7 3e00 	ldr.w	r3, [r7, #3584]	; 0xe00
 800297c:	0798      	lsls	r0, r3, #30
 800297e:	d005      	beq.n	800298c <Vector1D4+0x11c>
      otgp->PCGCCTL &= ~(PCGCCTL_STPPCLK | PCGCCTL_GATEHCLK);
 8002980:	f8d7 3e00 	ldr.w	r3, [r7, #3584]	; 0xe00
 8002984:	f023 0303 	bic.w	r3, r3, #3
 8002988:	f8c7 3e00 	str.w	r3, [r7, #3584]	; 0xe00
    otg_enable_ep(usbp);
 800298c:	f7ff fce0 	bl	8002350 <otg_enable_ep.constprop.0>
    otgp->DCTL &= ~DCTL_RWUSIG;
 8002990:	f8d7 3804 	ldr.w	r3, [r7, #2052]	; 0x804
    _usb_wakeup(usbp);
 8002994:	4630      	mov	r0, r6
    otgp->DCTL &= ~DCTL_RWUSIG;
 8002996:	f023 0301 	bic.w	r3, r3, #1
 800299a:	f8c7 3804 	str.w	r3, [r7, #2052]	; 0x804
    _usb_wakeup(usbp);
 800299e:	f7fe f9c7 	bl	8000d30 <_usb_wakeup>
  if (sts & GINTSTS_USBSUSP) {
 80029a2:	0529      	lsls	r1, r5, #20
 80029a4:	f57f af72 	bpl.w	800288c <Vector1D4+0x1c>
    otg_disable_ep(usbp);
 80029a8:	e9d6 0124 	ldrd	r0, r1, [r6, #144]	; 0x90
 80029ac:	f7ff fcf8 	bl	80023a0 <otg_disable_ep.isra.0>
    _usb_suspend(usbp);
 80029b0:	4630      	mov	r0, r6
 80029b2:	f7fe f9a5 	bl	8000d00 <_usb_suspend>
 80029b6:	e769      	b.n	800288c <Vector1D4+0x1c>
  for (ep = 0; ep <= usbp->otgparams->num_endpoints; ep++) {
 80029b8:	2100      	movs	r1, #0
  stm32_otg_t *otgp = usbp->otg;
 80029ba:	f8d6 b090 	ldr.w	fp, [r6, #144]	; 0x90
      _usb_isr_invoke_in_cb(usbp, ep);
 80029be:	f04f 0a01 	mov.w	sl, #1
  for (ep = 0; ep <= usbp->otgparams->num_endpoints; ep++) {
 80029c2:	460c      	mov	r4, r1
 80029c4:	e008      	b.n	80029d8 <Vector1D4+0x168>
 80029c6:	3401      	adds	r4, #1
 80029c8:	f8d6 3094 	ldr.w	r3, [r6, #148]	; 0x94
 80029cc:	b2e4      	uxtb	r4, r4
 80029ce:	689b      	ldr	r3, [r3, #8]
 80029d0:	429c      	cmp	r4, r3
 80029d2:	4621      	mov	r1, r4
 80029d4:	f63f af7c 	bhi.w	80028d0 <Vector1D4+0x60>
    if (((otgp->ie[ep].DIEPCTL & DIEPCTL_EPTYP_MASK) == DIEPCTL_EPTYP_ISO) &&
 80029d8:	eb0b 1244 	add.w	r2, fp, r4, lsl #5
 80029dc:	f8d2 3900 	ldr.w	r3, [r2, #2304]	; 0x900
 80029e0:	f403 2340 	and.w	r3, r3, #786432	; 0xc0000
 80029e4:	f5b3 2f80 	cmp.w	r3, #262144	; 0x40000
 80029e8:	d1ed      	bne.n	80029c6 <Vector1D4+0x156>
        ((otgp->ie[ep].DIEPCTL & DIEPCTL_EPENA) != 0)) {
 80029ea:	f8d2 3900 	ldr.w	r3, [r2, #2304]	; 0x900
    if (((otgp->ie[ep].DIEPCTL & DIEPCTL_EPTYP_MASK) == DIEPCTL_EPTYP_ISO) &&
 80029ee:	2b00      	cmp	r3, #0
 80029f0:	dae9      	bge.n	80029c6 <Vector1D4+0x156>
      otgp->ie[ep].DIEPCTL |= (DIEPCTL_EPDIS | DIEPCTL_SNAK);
 80029f2:	f8d2 3900 	ldr.w	r3, [r2, #2304]	; 0x900
 80029f6:	f043 4390 	orr.w	r3, r3, #1207959552	; 0x48000000
 80029fa:	f8c2 3900 	str.w	r3, [r2, #2304]	; 0x900
      while (otgp->ie[ep].DIEPCTL & DIEPCTL_EPENA)
 80029fe:	f8d2 3900 	ldr.w	r3, [r2, #2304]	; 0x900
 8002a02:	2b00      	cmp	r3, #0
 8002a04:	dbfb      	blt.n	80029fe <Vector1D4+0x18e>
  otgp->GRSTCTL = GRSTCTL_TXFNUM(fifo) | GRSTCTL_TXFFLSH;
 8002a06:	0189      	lsls	r1, r1, #6
 8002a08:	f8d6 2090 	ldr.w	r2, [r6, #144]	; 0x90
 8002a0c:	f041 0120 	orr.w	r1, r1, #32
 8002a10:	6111      	str	r1, [r2, #16]
  while ((otgp->GRSTCTL & GRSTCTL_TXFFLSH) != 0)
 8002a12:	6913      	ldr	r3, [r2, #16]
 8002a14:	0699      	lsls	r1, r3, #26
 8002a16:	d4fc      	bmi.n	8002a12 <Vector1D4+0x1a2>
  chSysPolledDelayX(cycles);
 8002a18:	2012      	movs	r0, #18
 8002a1a:	f001 f879 	bl	8003b10 <chSysPolledDelayX>
      _usb_isr_invoke_in_cb(usbp, ep);
 8002a1e:	8933      	ldrh	r3, [r6, #8]
 8002a20:	eb06 0284 	add.w	r2, r6, r4, lsl #2
 8002a24:	fa0a f104 	lsl.w	r1, sl, r4
 8002a28:	68d2      	ldr	r2, [r2, #12]
 8002a2a:	ea23 0301 	bic.w	r3, r3, r1
 8002a2e:	6892      	ldr	r2, [r2, #8]
 8002a30:	8133      	strh	r3, [r6, #8]
 8002a32:	2a00      	cmp	r2, #0
 8002a34:	d0c7      	beq.n	80029c6 <Vector1D4+0x156>
 8002a36:	4621      	mov	r1, r4
 8002a38:	4630      	mov	r0, r6
 8002a3a:	4790      	blx	r2
 8002a3c:	e7c3      	b.n	80029c6 <Vector1D4+0x156>
  stm32_otg_t *otgp = usbp->otg;
 8002a3e:	f8d6 a090 	ldr.w	sl, [r6, #144]	; 0x90
  for (ep = 0; ep <= usbp->otgparams->num_endpoints; ep++) {
 8002a42:	2400      	movs	r4, #0
      _usb_isr_invoke_out_cb(usbp, ep);
 8002a44:	f04f 0b01 	mov.w	fp, #1
 8002a48:	e007      	b.n	8002a5a <Vector1D4+0x1ea>
  for (ep = 0; ep <= usbp->otgparams->num_endpoints; ep++) {
 8002a4a:	3401      	adds	r4, #1
 8002a4c:	f8d6 3094 	ldr.w	r3, [r6, #148]	; 0x94
 8002a50:	b2e4      	uxtb	r4, r4
 8002a52:	689b      	ldr	r3, [r3, #8]
 8002a54:	429c      	cmp	r4, r3
 8002a56:	f63f af3e 	bhi.w	80028d6 <Vector1D4+0x66>
    if (((otgp->oe[ep].DOEPCTL & DOEPCTL_EPTYP_MASK) == DOEPCTL_EPTYP_ISO) &&
 8002a5a:	eb0a 1244 	add.w	r2, sl, r4, lsl #5
 8002a5e:	f8d2 3b00 	ldr.w	r3, [r2, #2816]	; 0xb00
 8002a62:	f403 2340 	and.w	r3, r3, #786432	; 0xc0000
 8002a66:	f5b3 2f80 	cmp.w	r3, #262144	; 0x40000
 8002a6a:	d1ee      	bne.n	8002a4a <Vector1D4+0x1da>
        ((otgp->oe[ep].DOEPCTL & DOEPCTL_EPENA) != 0)) {
 8002a6c:	f8d2 3b00 	ldr.w	r3, [r2, #2816]	; 0xb00
      _usb_isr_invoke_out_cb(usbp, ep);
 8002a70:	eb06 0184 	add.w	r1, r6, r4, lsl #2
 8002a74:	fa0b f204 	lsl.w	r2, fp, r4
    if (((otgp->oe[ep].DOEPCTL & DOEPCTL_EPTYP_MASK) == DOEPCTL_EPTYP_ISO) &&
 8002a78:	2b00      	cmp	r3, #0
 8002a7a:	dae6      	bge.n	8002a4a <Vector1D4+0x1da>
      _usb_isr_invoke_out_cb(usbp, ep);
 8002a7c:	8973      	ldrh	r3, [r6, #10]
 8002a7e:	4630      	mov	r0, r6
 8002a80:	f8d1 c00c 	ldr.w	ip, [r1, #12]
 8002a84:	4621      	mov	r1, r4
 8002a86:	ea23 0302 	bic.w	r3, r3, r2
 8002a8a:	f8dc 200c 	ldr.w	r2, [ip, #12]
 8002a8e:	8173      	strh	r3, [r6, #10]
 8002a90:	2a00      	cmp	r2, #0
 8002a92:	d0da      	beq.n	8002a4a <Vector1D4+0x1da>
 8002a94:	4790      	blx	r2
 8002a96:	e7d8      	b.n	8002a4a <Vector1D4+0x1da>
  sts = usbp->otg->GRXSTSP;
 8002a98:	f8d6 1090 	ldr.w	r1, [r6, #144]	; 0x90
 8002a9c:	6a0b      	ldr	r3, [r1, #32]
  switch (sts & GRXSTSP_PKTSTS_MASK) {
 8002a9e:	f403 10f0 	and.w	r0, r3, #1966080	; 0x1e0000
  n  = (size_t)((sts & GRXSTSP_BCNT_MASK) >> GRXSTSP_BCNT_OFF);
 8002aa2:	f3c3 120a 	ubfx	r2, r3, #4, #11
  ep = (sts & GRXSTSP_EPNUM_MASK) >> GRXSTSP_EPNUM_OFF;
 8002aa6:	f003 030f 	and.w	r3, r3, #15
  switch (sts & GRXSTSP_PKTSTS_MASK) {
 8002aaa:	f5b0 2f80 	cmp.w	r0, #262144	; 0x40000
 8002aae:	f000 808c 	beq.w	8002bca <Vector1D4+0x35a>
 8002ab2:	f5b0 2f40 	cmp.w	r0, #786432	; 0xc0000
 8002ab6:	f47f af4d 	bne.w	8002954 <Vector1D4+0xe4>
    otg_fifo_read_to_buffer(usbp->otg->FIFO[0], usbp->epc[ep]->setup_buf,
 8002aba:	eb06 0383 	add.w	r3, r6, r3, lsl #2
 8002abe:	68db      	ldr	r3, [r3, #12]
 8002ac0:	6a18      	ldr	r0, [r3, #32]
  while (i < n) {
 8002ac2:	2a00      	cmp	r2, #0
 8002ac4:	f43f af46 	beq.w	8002954 <Vector1D4+0xe4>
      w = *fifop;
 8002ac8:	f501 5480 	add.w	r4, r1, #4096	; 0x1000
  size_t i = 0;
 8002acc:	2300      	movs	r3, #0
    if ((i & 3) == 0) {
 8002ace:	f013 0f03 	tst.w	r3, #3
      *buf++ = (uint8_t)w;
 8002ad2:	4601      	mov	r1, r0
    if ((i & 3) == 0) {
 8002ad4:	d101      	bne.n	8002ada <Vector1D4+0x26a>
      w = *fifop;
 8002ad6:	f8d4 8000 	ldr.w	r8, [r4]
    if (i < max) {
 8002ada:	2b07      	cmp	r3, #7
    i++;
 8002adc:	f103 0301 	add.w	r3, r3, #1
    if (i < max) {
 8002ae0:	d804      	bhi.n	8002aec <Vector1D4+0x27c>
      *buf++ = (uint8_t)w;
 8002ae2:	f801 8b01 	strb.w	r8, [r1], #1
      w >>= 8;
 8002ae6:	ea4f 2818 	mov.w	r8, r8, lsr #8
      *buf++ = (uint8_t)w;
 8002aea:	4608      	mov	r0, r1
  while (i < n) {
 8002aec:	429a      	cmp	r2, r3
 8002aee:	d1ee      	bne.n	8002ace <Vector1D4+0x25e>
  if ((sts & IRQ_RETRY_MASK) && (--retry > 0U))
 8002af0:	4b15      	ldr	r3, [pc, #84]	; (8002b48 <Vector1D4+0x2d8>)
 8002af2:	421d      	tst	r5, r3
 8002af4:	f47f af32 	bne.w	800295c <Vector1D4+0xec>
  OSAL_IRQ_EPILOGUE();
 8002af8:	4812      	ldr	r0, [pc, #72]	; (8002b44 <Vector1D4+0x2d4>)
 8002afa:	f001 f8a1 	bl	8003c40 <__trace_isr_leave>
}
 8002afe:	e8bd 4ff8 	ldmia.w	sp!, {r3, r4, r5, r6, r7, r8, r9, sl, fp, lr}
  OSAL_IRQ_EPILOGUE();
 8002b02:	f001 bd9d 	b.w	8004640 <__port_irq_epilogue>
      otg_epout_handler(usbp, 8);
 8002b06:	2008      	movs	r0, #8
 8002b08:	f7ff fd82 	bl	8002610 <otg_epout_handler.constprop.0>
 8002b0c:	e702      	b.n	8002914 <Vector1D4+0xa4>
      otg_epin_handler(usbp, 8);
 8002b0e:	2008      	movs	r0, #8
 8002b10:	f7ff fe26 	bl	8002760 <otg_epin_handler.constprop.0>
 8002b14:	e71b      	b.n	800294e <Vector1D4+0xde>
      otg_epout_handler(usbp, 7);
 8002b16:	2007      	movs	r0, #7
 8002b18:	f7ff fd7a 	bl	8002610 <otg_epout_handler.constprop.0>
 8002b1c:	e6f7      	b.n	800290e <Vector1D4+0x9e>
      otg_epout_handler(usbp, 6);
 8002b1e:	2006      	movs	r0, #6
 8002b20:	f7ff fd76 	bl	8002610 <otg_epout_handler.constprop.0>
 8002b24:	e6f0      	b.n	8002908 <Vector1D4+0x98>
      otg_epout_handler(usbp, 5);
 8002b26:	2005      	movs	r0, #5
 8002b28:	f7ff fd72 	bl	8002610 <otg_epout_handler.constprop.0>
 8002b2c:	e6e9      	b.n	8002902 <Vector1D4+0x92>
      otg_epout_handler(usbp, 4);
 8002b2e:	2004      	movs	r0, #4
 8002b30:	f7ff fd6e 	bl	8002610 <otg_epout_handler.constprop.0>
 8002b34:	e6e2      	b.n	80028fc <Vector1D4+0x8c>
      otg_epout_handler(usbp, 3);
 8002b36:	2003      	movs	r0, #3
 8002b38:	f7ff fd6a 	bl	8002610 <otg_epout_handler.constprop.0>
 8002b3c:	e6db      	b.n	80028f6 <Vector1D4+0x86>
 8002b3e:	bf00      	nop
 8002b40:	24000544 	.word	0x24000544
 8002b44:	08004c74 	.word	0x08004c74
 8002b48:	04000030 	.word	0x04000030
      otg_epout_handler(usbp, 2);
 8002b4c:	2002      	movs	r0, #2
 8002b4e:	f7ff fd5f 	bl	8002610 <otg_epout_handler.constprop.0>
 8002b52:	e6cd      	b.n	80028f0 <Vector1D4+0x80>
      otg_epout_handler(usbp, 1);
 8002b54:	2001      	movs	r0, #1
 8002b56:	f7ff fd5b 	bl	8002610 <otg_epout_handler.constprop.0>
 8002b5a:	e6c6      	b.n	80028ea <Vector1D4+0x7a>
      otg_epout_handler(usbp, 0);
 8002b5c:	2000      	movs	r0, #0
 8002b5e:	f7ff fd57 	bl	8002610 <otg_epout_handler.constprop.0>
 8002b62:	e6bf      	b.n	80028e4 <Vector1D4+0x74>
      otg_epin_handler(usbp, 7);
 8002b64:	2007      	movs	r0, #7
 8002b66:	f7ff fdfb 	bl	8002760 <otg_epin_handler.constprop.0>
 8002b6a:	e6ed      	b.n	8002948 <Vector1D4+0xd8>
      otg_epin_handler(usbp, 6);
 8002b6c:	2006      	movs	r0, #6
 8002b6e:	f7ff fdf7 	bl	8002760 <otg_epin_handler.constprop.0>
 8002b72:	e6e6      	b.n	8002942 <Vector1D4+0xd2>
      otg_epin_handler(usbp, 5);
 8002b74:	2005      	movs	r0, #5
 8002b76:	f7ff fdf3 	bl	8002760 <otg_epin_handler.constprop.0>
 8002b7a:	e6df      	b.n	800293c <Vector1D4+0xcc>
      otg_epin_handler(usbp, 4);
 8002b7c:	2004      	movs	r0, #4
 8002b7e:	f7ff fdef 	bl	8002760 <otg_epin_handler.constprop.0>
 8002b82:	e6d8      	b.n	8002936 <Vector1D4+0xc6>
      otg_epin_handler(usbp, 3);
 8002b84:	2003      	movs	r0, #3
 8002b86:	f7ff fdeb 	bl	8002760 <otg_epin_handler.constprop.0>
 8002b8a:	e6d1      	b.n	8002930 <Vector1D4+0xc0>
      otg_epin_handler(usbp, 2);
 8002b8c:	2002      	movs	r0, #2
 8002b8e:	f7ff fde7 	bl	8002760 <otg_epin_handler.constprop.0>
 8002b92:	e6ca      	b.n	800292a <Vector1D4+0xba>
      otg_epin_handler(usbp, 1);
 8002b94:	2001      	movs	r0, #1
 8002b96:	f7ff fde3 	bl	8002760 <otg_epin_handler.constprop.0>
 8002b9a:	e6c3      	b.n	8002924 <Vector1D4+0xb4>
      otg_epin_handler(usbp, 0);
 8002b9c:	2000      	movs	r0, #0
 8002b9e:	f7ff fddf 	bl	8002760 <otg_epin_handler.constprop.0>
 8002ba2:	e6bc      	b.n	800291e <Vector1D4+0xae>
      otgp->GINTMSK &= ~GINTMSK_SOFM;
 8002ba4:	69bb      	ldr	r3, [r7, #24]
 8002ba6:	f023 0308 	bic.w	r3, r3, #8
 8002baa:	61bb      	str	r3, [r7, #24]
    if (usbp->state == USB_SUSPENDED) {
 8002bac:	7833      	ldrb	r3, [r6, #0]
 8002bae:	2b05      	cmp	r3, #5
 8002bb0:	f47f ae86 	bne.w	80028c0 <Vector1D4+0x50>
      otgp->PCGCCTL &= ~(PCGCCTL_STPPCLK | PCGCCTL_GATEHCLK);
 8002bb4:	f8d7 3e00 	ldr.w	r3, [r7, #3584]	; 0xe00
      _usb_wakeup(usbp);
 8002bb8:	4630      	mov	r0, r6
      otgp->PCGCCTL &= ~(PCGCCTL_STPPCLK | PCGCCTL_GATEHCLK);
 8002bba:	f023 0303 	bic.w	r3, r3, #3
 8002bbe:	f8c7 3e00 	str.w	r3, [r7, #3584]	; 0xe00
      _usb_wakeup(usbp);
 8002bc2:	f7fe f8b5 	bl	8000d30 <_usb_wakeup>
    _usb_isr_invoke_sof_cb(usbp);
 8002bc6:	6874      	ldr	r4, [r6, #4]
 8002bc8:	e67a      	b.n	80028c0 <Vector1D4+0x50>
    max = usbp->epc[ep]->out_state->rxsize - usbp->epc[ep]->out_state->rxcnt;
 8002bca:	1c98      	adds	r0, r3, #2
 8002bcc:	eb06 0380 	add.w	r3, r6, r0, lsl #2
 8002bd0:	685b      	ldr	r3, [r3, #4]
 8002bd2:	f8d3 c018 	ldr.w	ip, [r3, #24]
 8002bd6:	e9dc 4300 	ldrd	r4, r3, [ip]
 8002bda:	eba4 0e03 	sub.w	lr, r4, r3
    otg_fifo_read_to_buffer(usbp->otg->FIFO[0],
 8002bde:	f8dc 4008 	ldr.w	r4, [ip, #8]
  while (i < n) {
 8002be2:	b1d2      	cbz	r2, 8002c1a <Vector1D4+0x3aa>
      w = *fifop;
 8002be4:	f501 5c80 	add.w	ip, r1, #4096	; 0x1000
  size_t i = 0;
 8002be8:	2300      	movs	r3, #0
    if ((i & 3) == 0) {
 8002bea:	f013 0f03 	tst.w	r3, #3
      *buf++ = (uint8_t)w;
 8002bee:	4621      	mov	r1, r4
    if ((i & 3) == 0) {
 8002bf0:	d101      	bne.n	8002bf6 <Vector1D4+0x386>
      w = *fifop;
 8002bf2:	f8dc 8000 	ldr.w	r8, [ip]
    if (i < max) {
 8002bf6:	459e      	cmp	lr, r3
    i++;
 8002bf8:	f103 0301 	add.w	r3, r3, #1
    if (i < max) {
 8002bfc:	d904      	bls.n	8002c08 <Vector1D4+0x398>
      *buf++ = (uint8_t)w;
 8002bfe:	f801 8b01 	strb.w	r8, [r1], #1
      w >>= 8;
 8002c02:	ea4f 2818 	mov.w	r8, r8, lsr #8
      *buf++ = (uint8_t)w;
 8002c06:	460c      	mov	r4, r1
  while (i < n) {
 8002c08:	429a      	cmp	r2, r3
 8002c0a:	d1ee      	bne.n	8002bea <Vector1D4+0x37a>
      usbp->epc[ep]->out_state->rxbuf += n;
 8002c0c:	eb06 0380 	add.w	r3, r6, r0, lsl #2
 8002c10:	685b      	ldr	r3, [r3, #4]
 8002c12:	f8d3 c018 	ldr.w	ip, [r3, #24]
      usbp->epc[ep]->out_state->rxcnt += n;
 8002c16:	e9dc 3401 	ldrd	r3, r4, [ip, #4]
    if (n < max) {
 8002c1a:	4572      	cmp	r2, lr
 8002c1c:	d204      	bcs.n	8002c28 <Vector1D4+0x3b8>
      usbp->epc[ep]->out_state->rxbuf += n;
 8002c1e:	4414      	add	r4, r2
      usbp->epc[ep]->out_state->rxcnt += n;
 8002c20:	441a      	add	r2, r3
 8002c22:	e9cc 2401 	strd	r2, r4, [ip, #4]
 8002c26:	e695      	b.n	8002954 <Vector1D4+0xe4>
      usbp->epc[ep]->out_state->rxbuf += max;
 8002c28:	4474      	add	r4, lr
      usbp->epc[ep]->out_state->rxcnt += max;
 8002c2a:	4473      	add	r3, lr
 8002c2c:	e9cc 3401 	strd	r3, r4, [ip, #4]
 8002c30:	e690      	b.n	8002954 <Vector1D4+0xe4>
    _usb_reset(usbp);
 8002c32:	4805      	ldr	r0, [pc, #20]	; (8002c48 <Vector1D4+0x3d8>)
 8002c34:	f7fe f844 	bl	8000cc0 <_usb_reset>
  OSAL_IRQ_EPILOGUE();
 8002c38:	4804      	ldr	r0, [pc, #16]	; (8002c4c <Vector1D4+0x3dc>)
 8002c3a:	f001 f801 	bl	8003c40 <__trace_isr_leave>
}
 8002c3e:	e8bd 4ff8 	ldmia.w	sp!, {r3, r4, r5, r6, r7, r8, r9, sl, fp, lr}
  OSAL_IRQ_EPILOGUE();
 8002c42:	f001 bcfd 	b.w	8004640 <__port_irq_epilogue>
 8002c46:	bf00      	nop
 8002c48:	24000544 	.word	0x24000544
 8002c4c:	08004c74 	.word	0x08004c74

08002c50 <usb_lld_stall_out>:
 *
 * @notapi
 */
void usb_lld_stall_out(USBDriver *usbp, usbep_t ep) {

  usbp->otg->oe[ep].DOEPCTL |= DOEPCTL_STALL;
 8002c50:	f8d0 3090 	ldr.w	r3, [r0, #144]	; 0x90
 8002c54:	eb03 1141 	add.w	r1, r3, r1, lsl #5
 8002c58:	f8d1 3b00 	ldr.w	r3, [r1, #2816]	; 0xb00
 8002c5c:	f443 1300 	orr.w	r3, r3, #2097152	; 0x200000
 8002c60:	f8c1 3b00 	str.w	r3, [r1, #2816]	; 0xb00
}
 8002c64:	4770      	bx	lr
 8002c66:	bf00      	nop
	...

08002c70 <usb_lld_stall_in>:
 *
 * @notapi
 */
void usb_lld_stall_in(USBDriver *usbp, usbep_t ep) {

  usbp->otg->ie[ep].DIEPCTL |= DIEPCTL_STALL;
 8002c70:	f8d0 3090 	ldr.w	r3, [r0, #144]	; 0x90
 8002c74:	eb03 1141 	add.w	r1, r3, r1, lsl #5
 8002c78:	f8d1 3900 	ldr.w	r3, [r1, #2304]	; 0x900
 8002c7c:	f443 1300 	orr.w	r3, r3, #2097152	; 0x200000
 8002c80:	f8c1 3900 	str.w	r3, [r1, #2304]	; 0x900
}
 8002c84:	4770      	bx	lr
 8002c86:	bf00      	nop
	...

08002c90 <usb_lld_clear_out>:
 *
 * @notapi
 */
void usb_lld_clear_out(USBDriver *usbp, usbep_t ep) {

  usbp->otg->oe[ep].DOEPCTL &= ~DOEPCTL_STALL;
 8002c90:	f8d0 3090 	ldr.w	r3, [r0, #144]	; 0x90
 8002c94:	eb03 1141 	add.w	r1, r3, r1, lsl #5
 8002c98:	f8d1 3b00 	ldr.w	r3, [r1, #2816]	; 0xb00
 8002c9c:	f423 1300 	bic.w	r3, r3, #2097152	; 0x200000
 8002ca0:	f8c1 3b00 	str.w	r3, [r1, #2816]	; 0xb00
}
 8002ca4:	4770      	bx	lr
 8002ca6:	bf00      	nop
	...

08002cb0 <usb_lld_clear_in>:
 *
 * @notapi
 */
void usb_lld_clear_in(USBDriver *usbp, usbep_t ep) {

  usbp->otg->ie[ep].DIEPCTL &= ~DIEPCTL_STALL;
 8002cb0:	f8d0 3090 	ldr.w	r3, [r0, #144]	; 0x90
 8002cb4:	eb03 1141 	add.w	r1, r3, r1, lsl #5
 8002cb8:	f8d1 3900 	ldr.w	r3, [r1, #2304]	; 0x900
 8002cbc:	f423 1300 	bic.w	r3, r3, #2097152	; 0x200000
 8002cc0:	f8c1 3900 	str.w	r3, [r1, #2304]	; 0x900
}
 8002cc4:	4770      	bx	lr
 8002cc6:	bf00      	nop
	...

08002cd0 <spi_lld_configure.isra.0>:
/*===========================================================================*/

static void spi_lld_configure(SPIDriver *spip) {

  /* SPI setup and enable.*/
  spip->spi->CR1  = 0U;
 8002cd0:	2200      	movs	r2, #0
  spip->spi->CR2  = 0U;
  spip->spi->IER  = SPI_IER_OVRIE;
  spip->spi->IFCR = 0xFFFFFFFFU;
  spip->spi->CFG1 = (spip->config->cfg1 & ~SPI_CFG1_FTHLV_Msk) |
                    SPI_CFG1_RXDMAEN | SPI_CFG1_TXDMAEN;
 8002cd2:	4b12      	ldr	r3, [pc, #72]	; (8002d1c <spi_lld_configure.isra.0+0x4c>)
  spip->spi->CR1  = 0U;
 8002cd4:	600a      	str	r2, [r1, #0]
  spip->spi->CR2  = 0U;
 8002cd6:	604a      	str	r2, [r1, #4]
                    SPI_CFG1_RXDMAEN | SPI_CFG1_TXDMAEN;
 8002cd8:	6942      	ldr	r2, [r0, #20]
static void spi_lld_configure(SPIDriver *spip) {
 8002cda:	b410      	push	{r4}
                    SPI_CFG1_RXDMAEN | SPI_CFG1_TXDMAEN;
 8002cdc:	4013      	ands	r3, r2
  spip->spi->IER  = SPI_IER_OVRIE;
 8002cde:	2440      	movs	r4, #64	; 0x40
  if (spip->config->slave) {
 8002ce0:	7842      	ldrb	r2, [r0, #1]
  spip->spi->IER  = SPI_IER_OVRIE;
 8002ce2:	610c      	str	r4, [r1, #16]
                    SPI_CFG1_RXDMAEN | SPI_CFG1_TXDMAEN;
 8002ce4:	f443 4340 	orr.w	r3, r3, #49152	; 0xc000
  spip->spi->IFCR = 0xFFFFFFFFU;
 8002ce8:	f04f 34ff 	mov.w	r4, #4294967295
 8002cec:	618c      	str	r4, [r1, #24]
  spip->spi->CFG1 = (spip->config->cfg1 & ~SPI_CFG1_FTHLV_Msk) |
 8002cee:	608b      	str	r3, [r1, #8]
  if (spip->config->slave) {
 8002cf0:	b142      	cbz	r2, 8002d04 <spi_lld_configure.isra.0+0x34>
    spip->spi->CFG2 = spip->config->cfg2 & ~SPI_CFG2_COMM_Msk;
 8002cf2:	6983      	ldr	r3, [r0, #24]
  else {
    spip->spi->CFG2 = (spip->config->cfg2 | SPI_CFG2_MASTER | SPI_CFG2_SSOE) &
                      ~SPI_CFG2_COMM_Msk;
  }
  spip->spi->CR1  = SPI_CR1_MASRX | SPI_CR1_SPE;
}
 8002cf4:	bc10      	pop	{r4}
    spip->spi->CFG2 = spip->config->cfg2 & ~SPI_CFG2_COMM_Msk;
 8002cf6:	f423 23c0 	bic.w	r3, r3, #393216	; 0x60000
 8002cfa:	60cb      	str	r3, [r1, #12]
  spip->spi->CR1  = SPI_CR1_MASRX | SPI_CR1_SPE;
 8002cfc:	f240 1301 	movw	r3, #257	; 0x101
 8002d00:	600b      	str	r3, [r1, #0]
}
 8002d02:	4770      	bx	lr
    spip->spi->CFG2 = (spip->config->cfg2 | SPI_CFG2_MASTER | SPI_CFG2_SSOE) &
 8002d04:	6982      	ldr	r2, [r0, #24]
 8002d06:	4b06      	ldr	r3, [pc, #24]	; (8002d20 <spi_lld_configure.isra.0+0x50>)
}
 8002d08:	bc10      	pop	{r4}
    spip->spi->CFG2 = (spip->config->cfg2 | SPI_CFG2_MASTER | SPI_CFG2_SSOE) &
 8002d0a:	4013      	ands	r3, r2
 8002d0c:	f043 5301 	orr.w	r3, r3, #541065216	; 0x20400000
 8002d10:	60cb      	str	r3, [r1, #12]
  spip->spi->CR1  = SPI_CR1_MASRX | SPI_CR1_SPE;
 8002d12:	f240 1301 	movw	r3, #257	; 0x101
 8002d16:	600b      	str	r3, [r1, #0]
}
 8002d18:	4770      	bx	lr
 8002d1a:	bf00      	nop
 8002d1c:	ffff3e1f 	.word	0xffff3e1f
 8002d20:	dfb9ffff 	.word	0xdfb9ffff
	...

08002d30 <spi_lld_stop_abort>:
 */
static void spi_lld_stop_abort(SPIDriver *spip) {

  /* Stopping DMAs and waiting for FIFOs to be empty.*/
#if defined(STM32_SPI_DMA_REQUIRED) && defined(STM32_SPI_BDMA_REQUIRED)
  if (spip->is_bdma)
 8002d30:	f890 3020 	ldrb.w	r3, [r0, #32]
static void spi_lld_stop_abort(SPIDriver *spip) {
 8002d34:	b410      	push	{r4}
  if (spip->is_bdma)
 8002d36:	2b00      	cmp	r3, #0
 8002d38:	d034      	beq.n	8002da4 <spi_lld_stop_abort+0x74>
#endif
#if defined(STM32_SPI_BDMA_REQUIRED)
  {
    bdmaStreamDisable(spip->tx.bdma);
 8002d3a:	6a83      	ldr	r3, [r0, #40]	; 0x28
 8002d3c:	e9d3 4100 	ldrd	r4, r1, [r3]
 8002d40:	680a      	ldr	r2, [r1, #0]
 8002d42:	f022 020f 	bic.w	r2, r2, #15
 8002d46:	600a      	str	r2, [r1, #0]
 8002d48:	7a19      	ldrb	r1, [r3, #8]
 8002d4a:	230e      	movs	r3, #14
    bdmaStreamDisable(spip->rx.bdma);
 8002d4c:	6a42      	ldr	r2, [r0, #36]	; 0x24
    bdmaStreamDisable(spip->tx.bdma);
 8002d4e:	fa03 f101 	lsl.w	r1, r3, r1
 8002d52:	6061      	str	r1, [r4, #4]
    bdmaStreamDisable(spip->rx.bdma);
 8002d54:	6854      	ldr	r4, [r2, #4]
 8002d56:	6821      	ldr	r1, [r4, #0]
 8002d58:	f021 010f 	bic.w	r1, r1, #15
 8002d5c:	6021      	str	r1, [r4, #0]
 8002d5e:	7a11      	ldrb	r1, [r2, #8]
 8002d60:	6812      	ldr	r2, [r2, #0]
 8002d62:	408b      	lsls	r3, r1
 8002d64:	6053      	str	r3, [r2, #4]
     in a clean state.*/
  if (false) {
  }

#if STM32_SPI_USE_SPI1
  else if (&SPID1 == spip) {
 8002d66:	4b47      	ldr	r3, [pc, #284]	; (8002e84 <spi_lld_stop_abort+0x154>)
 8002d68:	4298      	cmp	r0, r3
 8002d6a:	d03a      	beq.n	8002de2 <spi_lld_stop_abort+0xb2>
    rccResetSPI1();
  }
#endif

#if STM32_SPI_USE_SPI2
  else if (&SPID2 == spip) {
 8002d6c:	4b46      	ldr	r3, [pc, #280]	; (8002e88 <spi_lld_stop_abort+0x158>)
 8002d6e:	4298      	cmp	r0, r3
 8002d70:	d04b      	beq.n	8002e0a <spi_lld_stop_abort+0xda>
    rccResetSPI2();
  }
#endif

#if STM32_SPI_USE_SPI3
  else if (&SPID3 == spip) {
 8002d72:	4b46      	ldr	r3, [pc, #280]	; (8002e8c <spi_lld_stop_abort+0x15c>)
 8002d74:	4298      	cmp	r0, r3
 8002d76:	d05c      	beq.n	8002e32 <spi_lld_stop_abort+0x102>
    rccResetSPI4();
  }
#endif

#if STM32_SPI_USE_SPI5
  else if (&SPID5 == spip) {
 8002d78:	4b45      	ldr	r3, [pc, #276]	; (8002e90 <spi_lld_stop_abort+0x160>)
 8002d7a:	4298      	cmp	r0, r3
 8002d7c:	d06d      	beq.n	8002e5a <spi_lld_stop_abort+0x12a>
    rccResetSPI5();
  }
#endif

#if STM32_SPI_USE_SPI6
  else if (&SPID6 == spip) {
 8002d7e:	4b45      	ldr	r3, [pc, #276]	; (8002e94 <spi_lld_stop_abort+0x164>)
 8002d80:	4298      	cmp	r0, r3
 8002d82:	d151      	bne.n	8002e28 <spi_lld_stop_abort+0xf8>
  RCC->APB4RSTR |= mask;
 8002d84:	4b44      	ldr	r3, [pc, #272]	; (8002e98 <spi_lld_stop_abort+0x168>)
 8002d86:	f8d3 209c 	ldr.w	r2, [r3, #156]	; 0x9c
 8002d8a:	f042 0220 	orr.w	r2, r2, #32
 8002d8e:	f8c3 209c 	str.w	r2, [r3, #156]	; 0x9c
  RCC->APB4RSTR &= ~mask;
 8002d92:	f8d3 209c 	ldr.w	r2, [r3, #156]	; 0x9c
 8002d96:	f022 0220 	bic.w	r2, r2, #32
 8002d9a:	f8c3 209c 	str.w	r2, [r3, #156]	; 0x9c
  (void)RCC->APB4RSTR;
 8002d9e:	f8d3 309c 	ldr.w	r3, [r3, #156]	; 0x9c
}
 8002da2:	e041      	b.n	8002e28 <spi_lld_stop_abort+0xf8>
    dmaStreamDisable(spip->tx.dma);
 8002da4:	6a84      	ldr	r4, [r0, #40]	; 0x28
 8002da6:	6822      	ldr	r2, [r4, #0]
 8002da8:	6813      	ldr	r3, [r2, #0]
 8002daa:	f023 031f 	bic.w	r3, r3, #31
 8002dae:	6013      	str	r3, [r2, #0]
 8002db0:	6813      	ldr	r3, [r2, #0]
 8002db2:	07d9      	lsls	r1, r3, #31
 8002db4:	d4fc      	bmi.n	8002db0 <spi_lld_stop_abort+0x80>
 8002db6:	7b22      	ldrb	r2, [r4, #12]
 8002db8:	233d      	movs	r3, #61	; 0x3d
    dmaStreamDisable(spip->rx.dma);
 8002dba:	6a41      	ldr	r1, [r0, #36]	; 0x24
    dmaStreamDisable(spip->tx.dma);
 8002dbc:	4093      	lsls	r3, r2
 8002dbe:	6864      	ldr	r4, [r4, #4]
    dmaStreamDisable(spip->rx.dma);
 8002dc0:	680a      	ldr	r2, [r1, #0]
    dmaStreamDisable(spip->tx.dma);
 8002dc2:	6023      	str	r3, [r4, #0]
    dmaStreamDisable(spip->rx.dma);
 8002dc4:	6813      	ldr	r3, [r2, #0]
 8002dc6:	f023 031f 	bic.w	r3, r3, #31
 8002dca:	6013      	str	r3, [r2, #0]
 8002dcc:	6813      	ldr	r3, [r2, #0]
 8002dce:	07db      	lsls	r3, r3, #31
 8002dd0:	d4fc      	bmi.n	8002dcc <spi_lld_stop_abort+0x9c>
 8002dd2:	7b0c      	ldrb	r4, [r1, #12]
 8002dd4:	233d      	movs	r3, #61	; 0x3d
 8002dd6:	684a      	ldr	r2, [r1, #4]
 8002dd8:	40a3      	lsls	r3, r4
 8002dda:	6013      	str	r3, [r2, #0]
  else if (&SPID1 == spip) {
 8002ddc:	4b29      	ldr	r3, [pc, #164]	; (8002e84 <spi_lld_stop_abort+0x154>)
 8002dde:	4298      	cmp	r0, r3
 8002de0:	d1c4      	bne.n	8002d6c <spi_lld_stop_abort+0x3c>
  RCC->APB2RSTR |= mask;
 8002de2:	4b2d      	ldr	r3, [pc, #180]	; (8002e98 <spi_lld_stop_abort+0x168>)
  else {
    osalDbgAssert(false, "invalid SPI instance");
  }

  /* Reconfiguring SPI.*/
  spi_lld_configure(spip);
 8002de4:	69c1      	ldr	r1, [r0, #28]
 8002de6:	f8d3 2098 	ldr.w	r2, [r3, #152]	; 0x98
 8002dea:	6840      	ldr	r0, [r0, #4]
 8002dec:	f442 5280 	orr.w	r2, r2, #4096	; 0x1000
}
 8002df0:	bc10      	pop	{r4}
 8002df2:	f8c3 2098 	str.w	r2, [r3, #152]	; 0x98
  RCC->APB2RSTR &= ~mask;
 8002df6:	f8d3 2098 	ldr.w	r2, [r3, #152]	; 0x98
 8002dfa:	f422 5280 	bic.w	r2, r2, #4096	; 0x1000
 8002dfe:	f8c3 2098 	str.w	r2, [r3, #152]	; 0x98
  (void)RCC->APB2RSTR;
 8002e02:	f8d3 3098 	ldr.w	r3, [r3, #152]	; 0x98
  spi_lld_configure(spip);
 8002e06:	f7ff bf63 	b.w	8002cd0 <spi_lld_configure.isra.0>
  RCC->APB1LRSTR |= mask;
 8002e0a:	4b23      	ldr	r3, [pc, #140]	; (8002e98 <spi_lld_stop_abort+0x168>)
 8002e0c:	f8d3 2090 	ldr.w	r2, [r3, #144]	; 0x90
 8002e10:	f442 4280 	orr.w	r2, r2, #16384	; 0x4000
 8002e14:	f8c3 2090 	str.w	r2, [r3, #144]	; 0x90
  RCC->APB1LRSTR &= ~mask;
 8002e18:	f8d3 2090 	ldr.w	r2, [r3, #144]	; 0x90
 8002e1c:	f422 4280 	bic.w	r2, r2, #16384	; 0x4000
 8002e20:	f8c3 2090 	str.w	r2, [r3, #144]	; 0x90
  (void)RCC->APB1LRSTR;
 8002e24:	f8d3 3090 	ldr.w	r3, [r3, #144]	; 0x90
 8002e28:	69c1      	ldr	r1, [r0, #28]
}
 8002e2a:	bc10      	pop	{r4}
  spi_lld_configure(spip);
 8002e2c:	6840      	ldr	r0, [r0, #4]
 8002e2e:	f7ff bf4f 	b.w	8002cd0 <spi_lld_configure.isra.0>
  RCC->APB1LRSTR |= mask;
 8002e32:	4b19      	ldr	r3, [pc, #100]	; (8002e98 <spi_lld_stop_abort+0x168>)
 8002e34:	69c1      	ldr	r1, [r0, #28]
 8002e36:	f8d3 2090 	ldr.w	r2, [r3, #144]	; 0x90
 8002e3a:	6840      	ldr	r0, [r0, #4]
 8002e3c:	f442 4200 	orr.w	r2, r2, #32768	; 0x8000
}
 8002e40:	bc10      	pop	{r4}
 8002e42:	f8c3 2090 	str.w	r2, [r3, #144]	; 0x90
  RCC->APB1LRSTR &= ~mask;
 8002e46:	f8d3 2090 	ldr.w	r2, [r3, #144]	; 0x90
 8002e4a:	f422 4200 	bic.w	r2, r2, #32768	; 0x8000
 8002e4e:	f8c3 2090 	str.w	r2, [r3, #144]	; 0x90
  (void)RCC->APB1LRSTR;
 8002e52:	f8d3 3090 	ldr.w	r3, [r3, #144]	; 0x90
  spi_lld_configure(spip);
 8002e56:	f7ff bf3b 	b.w	8002cd0 <spi_lld_configure.isra.0>
  RCC->APB2RSTR |= mask;
 8002e5a:	4b0f      	ldr	r3, [pc, #60]	; (8002e98 <spi_lld_stop_abort+0x168>)
 8002e5c:	69c1      	ldr	r1, [r0, #28]
 8002e5e:	f8d3 2098 	ldr.w	r2, [r3, #152]	; 0x98
 8002e62:	6840      	ldr	r0, [r0, #4]
 8002e64:	f442 1280 	orr.w	r2, r2, #1048576	; 0x100000
}
 8002e68:	bc10      	pop	{r4}
 8002e6a:	f8c3 2098 	str.w	r2, [r3, #152]	; 0x98
  RCC->APB2RSTR &= ~mask;
 8002e6e:	f8d3 2098 	ldr.w	r2, [r3, #152]	; 0x98
 8002e72:	f422 1280 	bic.w	r2, r2, #1048576	; 0x100000
 8002e76:	f8c3 2098 	str.w	r2, [r3, #152]	; 0x98
  (void)RCC->APB2RSTR;
 8002e7a:	f8d3 3098 	ldr.w	r3, [r3, #152]	; 0x98
  spi_lld_configure(spip);
 8002e7e:	f7ff bf27 	b.w	8002cd0 <spi_lld_configure.isra.0>
 8002e82:	bf00      	nop
 8002e84:	240005f8 	.word	0x240005f8
 8002e88:	24000634 	.word	0x24000634
 8002e8c:	24000670 	.word	0x24000670
 8002e90:	240006ac 	.word	0x240006ac
 8002e94:	240006e8 	.word	0x240006e8
 8002e98:	58024400 	.word	0x58024400
 8002e9c:	00000000 	.word	0x00000000

08002ea0 <VectorCC>:
/**
 * @brief   SPI1 interrupt handler.
 *
 * @isr
 */
OSAL_IRQ_HANDLER(STM32_SPI1_HANDLER) {
 8002ea0:	b510      	push	{r4, lr}
  sr = spip->spi->SR & spip->spi->IER;
 8002ea2:	4c16      	ldr	r4, [pc, #88]	; (8002efc <VectorCC+0x5c>)

  OSAL_IRQ_PROLOGUE();
 8002ea4:	4816      	ldr	r0, [pc, #88]	; (8002f00 <VectorCC+0x60>)
 8002ea6:	f000 feb3 	bl	8003c10 <__trace_isr_enter>
  sr = spip->spi->SR & spip->spi->IER;
 8002eaa:	69e2      	ldr	r2, [r4, #28]
 8002eac:	6953      	ldr	r3, [r2, #20]
 8002eae:	6911      	ldr	r1, [r2, #16]
 8002eb0:	400b      	ands	r3, r1
  spip->spi->IFCR = sr;
 8002eb2:	6193      	str	r3, [r2, #24]
  if ((sr & SPI_SR_OVR) != 0U) {
 8002eb4:	065b      	lsls	r3, r3, #25
 8002eb6:	d406      	bmi.n	8002ec6 <VectorCC+0x26>

  spi_lld_serve_interrupt(&SPID1);

  OSAL_IRQ_EPILOGUE();
 8002eb8:	4811      	ldr	r0, [pc, #68]	; (8002f00 <VectorCC+0x60>)
 8002eba:	f000 fec1 	bl	8003c40 <__trace_isr_leave>
}
 8002ebe:	e8bd 4010 	ldmia.w	sp!, {r4, lr}
  OSAL_IRQ_EPILOGUE();
 8002ec2:	f001 bbbd 	b.w	8004640 <__port_irq_epilogue>
    spi_lld_stop_abort(spip);
 8002ec6:	4620      	mov	r0, r4
 8002ec8:	f7ff ff32 	bl	8002d30 <spi_lld_stop_abort>
    __spi_isr_error_code(spip, HAL_RET_HW_FAILURE);
 8002ecc:	6863      	ldr	r3, [r4, #4]
 8002ece:	689b      	ldr	r3, [r3, #8]
 8002ed0:	b10b      	cbz	r3, 8002ed6 <VectorCC+0x36>
 8002ed2:	4620      	mov	r0, r4
 8002ed4:	4798      	blx	r3
 8002ed6:	2330      	movs	r3, #48	; 0x30
 8002ed8:	f383 8811 	msr	BASEPRI, r3
  chThdResumeI(trp, msg);
 8002edc:	f06f 0112 	mvn.w	r1, #18
 8002ee0:	4808      	ldr	r0, [pc, #32]	; (8002f04 <VectorCC+0x64>)
 8002ee2:	f001 fa25 	bl	8004330 <chThdResumeI>
 8002ee6:	2300      	movs	r3, #0
 8002ee8:	f383 8811 	msr	BASEPRI, r3
  OSAL_IRQ_EPILOGUE();
 8002eec:	4804      	ldr	r0, [pc, #16]	; (8002f00 <VectorCC+0x60>)
 8002eee:	f000 fea7 	bl	8003c40 <__trace_isr_leave>
}
 8002ef2:	e8bd 4010 	ldmia.w	sp!, {r4, lr}
  OSAL_IRQ_EPILOGUE();
 8002ef6:	f001 bba3 	b.w	8004640 <__port_irq_epilogue>
 8002efa:	bf00      	nop
 8002efc:	240005f8 	.word	0x240005f8
 8002f00:	08004ce0 	.word	0x08004ce0
 8002f04:	24000600 	.word	0x24000600
	...

08002f10 <VectorD0>:
/**
 * @brief   SPI2 interrupt handler.
 *
 * @isr
 */
OSAL_IRQ_HANDLER(STM32_SPI2_HANDLER) {
 8002f10:	b510      	push	{r4, lr}
  sr = spip->spi->SR & spip->spi->IER;
 8002f12:	4c16      	ldr	r4, [pc, #88]	; (8002f6c <VectorD0+0x5c>)

  OSAL_IRQ_PROLOGUE();
 8002f14:	4816      	ldr	r0, [pc, #88]	; (8002f70 <VectorD0+0x60>)
 8002f16:	f000 fe7b 	bl	8003c10 <__trace_isr_enter>
  sr = spip->spi->SR & spip->spi->IER;
 8002f1a:	69e2      	ldr	r2, [r4, #28]
 8002f1c:	6953      	ldr	r3, [r2, #20]
 8002f1e:	6911      	ldr	r1, [r2, #16]
 8002f20:	400b      	ands	r3, r1
  spip->spi->IFCR = sr;
 8002f22:	6193      	str	r3, [r2, #24]
  if ((sr & SPI_SR_OVR) != 0U) {
 8002f24:	065b      	lsls	r3, r3, #25
 8002f26:	d406      	bmi.n	8002f36 <VectorD0+0x26>

  spi_lld_serve_interrupt(&SPID2);

  OSAL_IRQ_EPILOGUE();
 8002f28:	4811      	ldr	r0, [pc, #68]	; (8002f70 <VectorD0+0x60>)
 8002f2a:	f000 fe89 	bl	8003c40 <__trace_isr_leave>
}
 8002f2e:	e8bd 4010 	ldmia.w	sp!, {r4, lr}
  OSAL_IRQ_EPILOGUE();
 8002f32:	f001 bb85 	b.w	8004640 <__port_irq_epilogue>
    spi_lld_stop_abort(spip);
 8002f36:	4620      	mov	r0, r4
 8002f38:	f7ff fefa 	bl	8002d30 <spi_lld_stop_abort>
    __spi_isr_error_code(spip, HAL_RET_HW_FAILURE);
 8002f3c:	6863      	ldr	r3, [r4, #4]
 8002f3e:	689b      	ldr	r3, [r3, #8]
 8002f40:	b10b      	cbz	r3, 8002f46 <VectorD0+0x36>
 8002f42:	4620      	mov	r0, r4
 8002f44:	4798      	blx	r3
 8002f46:	2330      	movs	r3, #48	; 0x30
 8002f48:	f383 8811 	msr	BASEPRI, r3
 8002f4c:	f06f 0112 	mvn.w	r1, #18
 8002f50:	4808      	ldr	r0, [pc, #32]	; (8002f74 <VectorD0+0x64>)
 8002f52:	f001 f9ed 	bl	8004330 <chThdResumeI>
 8002f56:	2300      	movs	r3, #0
 8002f58:	f383 8811 	msr	BASEPRI, r3
  OSAL_IRQ_EPILOGUE();
 8002f5c:	4804      	ldr	r0, [pc, #16]	; (8002f70 <VectorD0+0x60>)
 8002f5e:	f000 fe6f 	bl	8003c40 <__trace_isr_leave>
}
 8002f62:	e8bd 4010 	ldmia.w	sp!, {r4, lr}
  OSAL_IRQ_EPILOGUE();
 8002f66:	f001 bb6b 	b.w	8004640 <__port_irq_epilogue>
 8002f6a:	bf00      	nop
 8002f6c:	24000634 	.word	0x24000634
 8002f70:	08004cd4 	.word	0x08004cd4
 8002f74:	2400063c 	.word	0x2400063c
	...

08002f80 <Vector10C>:
/**
 * @brief   SPI3 interrupt handler.
 *
 * @isr
 */
OSAL_IRQ_HANDLER(STM32_SPI3_HANDLER) {
 8002f80:	b510      	push	{r4, lr}
  sr = spip->spi->SR & spip->spi->IER;
 8002f82:	4c16      	ldr	r4, [pc, #88]	; (8002fdc <Vector10C+0x5c>)

  OSAL_IRQ_PROLOGUE();
 8002f84:	4816      	ldr	r0, [pc, #88]	; (8002fe0 <Vector10C+0x60>)
 8002f86:	f000 fe43 	bl	8003c10 <__trace_isr_enter>
  sr = spip->spi->SR & spip->spi->IER;
 8002f8a:	69e2      	ldr	r2, [r4, #28]
 8002f8c:	6953      	ldr	r3, [r2, #20]
 8002f8e:	6911      	ldr	r1, [r2, #16]
 8002f90:	400b      	ands	r3, r1
  spip->spi->IFCR = sr;
 8002f92:	6193      	str	r3, [r2, #24]
  if ((sr & SPI_SR_OVR) != 0U) {
 8002f94:	065b      	lsls	r3, r3, #25
 8002f96:	d406      	bmi.n	8002fa6 <Vector10C+0x26>

  spi_lld_serve_interrupt(&SPID3);

  OSAL_IRQ_EPILOGUE();
 8002f98:	4811      	ldr	r0, [pc, #68]	; (8002fe0 <Vector10C+0x60>)
 8002f9a:	f000 fe51 	bl	8003c40 <__trace_isr_leave>
}
 8002f9e:	e8bd 4010 	ldmia.w	sp!, {r4, lr}
  OSAL_IRQ_EPILOGUE();
 8002fa2:	f001 bb4d 	b.w	8004640 <__port_irq_epilogue>
    spi_lld_stop_abort(spip);
 8002fa6:	4620      	mov	r0, r4
 8002fa8:	f7ff fec2 	bl	8002d30 <spi_lld_stop_abort>
    __spi_isr_error_code(spip, HAL_RET_HW_FAILURE);
 8002fac:	6863      	ldr	r3, [r4, #4]
 8002fae:	689b      	ldr	r3, [r3, #8]
 8002fb0:	b10b      	cbz	r3, 8002fb6 <Vector10C+0x36>
 8002fb2:	4620      	mov	r0, r4
 8002fb4:	4798      	blx	r3
 8002fb6:	2330      	movs	r3, #48	; 0x30
 8002fb8:	f383 8811 	msr	BASEPRI, r3
 8002fbc:	f06f 0112 	mvn.w	r1, #18
 8002fc0:	4808      	ldr	r0, [pc, #32]	; (8002fe4 <Vector10C+0x64>)
 8002fc2:	f001 f9b5 	bl	8004330 <chThdResumeI>
 8002fc6:	2300      	movs	r3, #0
 8002fc8:	f383 8811 	msr	BASEPRI, r3
  OSAL_IRQ_EPILOGUE();
 8002fcc:	4804      	ldr	r0, [pc, #16]	; (8002fe0 <Vector10C+0x60>)
 8002fce:	f000 fe37 	bl	8003c40 <__trace_isr_leave>
}
 8002fd2:	e8bd 4010 	ldmia.w	sp!, {r4, lr}
  OSAL_IRQ_EPILOGUE();
 8002fd6:	f001 bb33 	b.w	8004640 <__port_irq_epilogue>
 8002fda:	bf00      	nop
 8002fdc:	24000670 	.word	0x24000670
 8002fe0:	08004cc8 	.word	0x08004cc8
 8002fe4:	24000678 	.word	0x24000678
	...

08002ff0 <Vector194>:
/**
 * @brief   SPI5 interrupt handler.
 *
 * @isr
 */
OSAL_IRQ_HANDLER(STM32_SPI5_HANDLER) {
 8002ff0:	b510      	push	{r4, lr}
  sr = spip->spi->SR & spip->spi->IER;
 8002ff2:	4c16      	ldr	r4, [pc, #88]	; (800304c <Vector194+0x5c>)

  OSAL_IRQ_PROLOGUE();
 8002ff4:	4816      	ldr	r0, [pc, #88]	; (8003050 <Vector194+0x60>)
 8002ff6:	f000 fe0b 	bl	8003c10 <__trace_isr_enter>
  sr = spip->spi->SR & spip->spi->IER;
 8002ffa:	69e2      	ldr	r2, [r4, #28]
 8002ffc:	6953      	ldr	r3, [r2, #20]
 8002ffe:	6911      	ldr	r1, [r2, #16]
 8003000:	400b      	ands	r3, r1
  spip->spi->IFCR = sr;
 8003002:	6193      	str	r3, [r2, #24]
  if ((sr & SPI_SR_OVR) != 0U) {
 8003004:	065b      	lsls	r3, r3, #25
 8003006:	d406      	bmi.n	8003016 <Vector194+0x26>

  spi_lld_serve_interrupt(&SPID5);

  OSAL_IRQ_EPILOGUE();
 8003008:	4811      	ldr	r0, [pc, #68]	; (8003050 <Vector194+0x60>)
 800300a:	f000 fe19 	bl	8003c40 <__trace_isr_leave>
}
 800300e:	e8bd 4010 	ldmia.w	sp!, {r4, lr}
  OSAL_IRQ_EPILOGUE();
 8003012:	f001 bb15 	b.w	8004640 <__port_irq_epilogue>
    spi_lld_stop_abort(spip);
 8003016:	4620      	mov	r0, r4
 8003018:	f7ff fe8a 	bl	8002d30 <spi_lld_stop_abort>
    __spi_isr_error_code(spip, HAL_RET_HW_FAILURE);
 800301c:	6863      	ldr	r3, [r4, #4]
 800301e:	689b      	ldr	r3, [r3, #8]
 8003020:	b10b      	cbz	r3, 8003026 <Vector194+0x36>
 8003022:	4620      	mov	r0, r4
 8003024:	4798      	blx	r3
 8003026:	2330      	movs	r3, #48	; 0x30
 8003028:	f383 8811 	msr	BASEPRI, r3
 800302c:	f06f 0112 	mvn.w	r1, #18
 8003030:	4808      	ldr	r0, [pc, #32]	; (8003054 <Vector194+0x64>)
 8003032:	f001 f97d 	bl	8004330 <chThdResumeI>
 8003036:	2300      	movs	r3, #0
 8003038:	f383 8811 	msr	BASEPRI, r3
  OSAL_IRQ_EPILOGUE();
 800303c:	4804      	ldr	r0, [pc, #16]	; (8003050 <Vector194+0x60>)
 800303e:	f000 fdff 	bl	8003c40 <__trace_isr_leave>
}
 8003042:	e8bd 4010 	ldmia.w	sp!, {r4, lr}
  OSAL_IRQ_EPILOGUE();
 8003046:	f001 bafb 	b.w	8004640 <__port_irq_epilogue>
 800304a:	bf00      	nop
 800304c:	240006ac 	.word	0x240006ac
 8003050:	08004cbc 	.word	0x08004cbc
 8003054:	240006b4 	.word	0x240006b4
	...

08003060 <Vector198>:
/**
 * @brief   SPI6 interrupt handler.
 *
 * @isr
 */
OSAL_IRQ_HANDLER(STM32_SPI6_HANDLER) {
 8003060:	b510      	push	{r4, lr}
  sr = spip->spi->SR & spip->spi->IER;
 8003062:	4c16      	ldr	r4, [pc, #88]	; (80030bc <Vector198+0x5c>)

  OSAL_IRQ_PROLOGUE();
 8003064:	4816      	ldr	r0, [pc, #88]	; (80030c0 <Vector198+0x60>)
 8003066:	f000 fdd3 	bl	8003c10 <__trace_isr_enter>
  sr = spip->spi->SR & spip->spi->IER;
 800306a:	69e2      	ldr	r2, [r4, #28]
 800306c:	6953      	ldr	r3, [r2, #20]
 800306e:	6911      	ldr	r1, [r2, #16]
 8003070:	400b      	ands	r3, r1
  spip->spi->IFCR = sr;
 8003072:	6193      	str	r3, [r2, #24]
  if ((sr & SPI_SR_OVR) != 0U) {
 8003074:	065b      	lsls	r3, r3, #25
 8003076:	d406      	bmi.n	8003086 <Vector198+0x26>

  spi_lld_serve_interrupt(&SPID6);

  OSAL_IRQ_EPILOGUE();
 8003078:	4811      	ldr	r0, [pc, #68]	; (80030c0 <Vector198+0x60>)
 800307a:	f000 fde1 	bl	8003c40 <__trace_isr_leave>
}
 800307e:	e8bd 4010 	ldmia.w	sp!, {r4, lr}
  OSAL_IRQ_EPILOGUE();
 8003082:	f001 badd 	b.w	8004640 <__port_irq_epilogue>
    spi_lld_stop_abort(spip);
 8003086:	4620      	mov	r0, r4
 8003088:	f7ff fe52 	bl	8002d30 <spi_lld_stop_abort>
    __spi_isr_error_code(spip, HAL_RET_HW_FAILURE);
 800308c:	6863      	ldr	r3, [r4, #4]
 800308e:	689b      	ldr	r3, [r3, #8]
 8003090:	b10b      	cbz	r3, 8003096 <Vector198+0x36>
 8003092:	4620      	mov	r0, r4
 8003094:	4798      	blx	r3
 8003096:	2330      	movs	r3, #48	; 0x30
 8003098:	f383 8811 	msr	BASEPRI, r3
 800309c:	f06f 0112 	mvn.w	r1, #18
 80030a0:	4808      	ldr	r0, [pc, #32]	; (80030c4 <Vector198+0x64>)
 80030a2:	f001 f945 	bl	8004330 <chThdResumeI>
 80030a6:	2300      	movs	r3, #0
 80030a8:	f383 8811 	msr	BASEPRI, r3
  OSAL_IRQ_EPILOGUE();
 80030ac:	4804      	ldr	r0, [pc, #16]	; (80030c0 <Vector198+0x60>)
 80030ae:	f000 fdc7 	bl	8003c40 <__trace_isr_leave>
}
 80030b2:	e8bd 4010 	ldmia.w	sp!, {r4, lr}
  OSAL_IRQ_EPILOGUE();
 80030b6:	f001 bac3 	b.w	8004640 <__port_irq_epilogue>
 80030ba:	bf00      	nop
 80030bc:	240006e8 	.word	0x240006e8
 80030c0:	08004cb0 	.word	0x08004cb0
 80030c4:	240006f0 	.word	0x240006f0
	...

080030d0 <spi_lld_init>:
/**
 * @brief   Low level SPI driver initialization.
 *
 * @notapi
 */
void spi_lld_init(void) {
 80030d0:	e92d 41f0 	stmdb	sp!, {r4, r5, r6, r7, r8, lr}

#if STM32_SPI_USE_SPI1
  spiObjectInit(&SPID1);
 80030d4:	4d2d      	ldr	r5, [pc, #180]	; (800318c <spi_lld_init+0xbc>)
  SPID1.spi       = SPI1;
#if defined(STM32_SPI_DMA_REQUIRED) && defined(STM32_SPI_BDMA_REQUIRED)
  SPID1.is_bdma   = false;
 80030d6:	2400      	movs	r4, #0
#endif
  SPID1.rx.dma    = NULL;
  SPID1.tx.dma    = NULL;
  SPID1.rxdmamode = STM32_DMA_CR_PL(STM32_SPI_SPI1_DMA_PRIORITY) |
 80030d8:	f8df 80b4 	ldr.w	r8, [pc, #180]	; 8003190 <spi_lld_init+0xc0>
  spiObjectInit(&SPID1);
 80030dc:	4628      	mov	r0, r5
                    STM32_DMA_CR_DIR_P2M |
                    STM32_DMA_CR_TCIE |
                    STM32_DMA_CR_DMEIE |
                    STM32_DMA_CR_TEIE;
  SPID1.txdmamode = STM32_DMA_CR_PL(STM32_SPI_SPI1_DMA_PRIORITY) |
 80030de:	4f2d      	ldr	r7, [pc, #180]	; (8003194 <spi_lld_init+0xc4>)
  spiObjectInit(&SPID1);
 80030e0:	f7fd fdc6 	bl	8000c70 <spiObjectInit>
  SPID1.spi       = SPI1;
 80030e4:	4b2c      	ldr	r3, [pc, #176]	; (8003198 <spi_lld_init+0xc8>)
  SPID1.is_bdma   = false;
 80030e6:	f885 4020 	strb.w	r4, [r5, #32]
                    STM32_DMA_CR_DIR_M2P |
                    STM32_DMA_CR_DMEIE |
                    STM32_DMA_CR_TEIE;
#if !defined(STM32_SPI1_SUPPRESS_ISR)
  nvicEnableVector(STM32_SPI1_NUMBER, STM32_SPI_SPI1_IRQ_PRIORITY);
 80030ea:	210a      	movs	r1, #10
  SPID1.spi       = SPI1;
 80030ec:	61eb      	str	r3, [r5, #28]
  nvicEnableVector(STM32_SPI1_NUMBER, STM32_SPI_SPI1_IRQ_PRIORITY);
 80030ee:	2023      	movs	r0, #35	; 0x23
  SPID1.rx.dma    = NULL;
 80030f0:	626c      	str	r4, [r5, #36]	; 0x24
  SPID1.txdmamode = STM32_DMA_CR_PL(STM32_SPI_SPI1_DMA_PRIORITY) |
 80030f2:	632f      	str	r7, [r5, #48]	; 0x30
  nvicEnableVector(STM32_SPI4_NUMBER, STM32_SPI_SPI4_IRQ_PRIORITY);
#endif
#endif

#if STM32_SPI_USE_SPI5
  spiObjectInit(&SPID5);
 80030f4:	4e29      	ldr	r6, [pc, #164]	; (800319c <spi_lld_init+0xcc>)
  SPID1.rxdmamode = STM32_DMA_CR_PL(STM32_SPI_SPI1_DMA_PRIORITY) |
 80030f6:	e9c5 480a 	strd	r4, r8, [r5, #40]	; 0x28
  spiObjectInit(&SPID2);
 80030fa:	4d29      	ldr	r5, [pc, #164]	; (80031a0 <spi_lld_init+0xd0>)
  nvicEnableVector(STM32_SPI1_NUMBER, STM32_SPI_SPI1_IRQ_PRIORITY);
 80030fc:	f7fe f8c0 	bl	8001280 <nvicEnableVector>
  spiObjectInit(&SPID2);
 8003100:	4628      	mov	r0, r5
 8003102:	f7fd fdb5 	bl	8000c70 <spiObjectInit>
  SPID2.spi       = SPI2;
 8003106:	4b27      	ldr	r3, [pc, #156]	; (80031a4 <spi_lld_init+0xd4>)
  SPID2.is_bdma   = false;
 8003108:	f885 4020 	strb.w	r4, [r5, #32]
  nvicEnableVector(STM32_SPI2_NUMBER, STM32_SPI_SPI2_IRQ_PRIORITY);
 800310c:	210a      	movs	r1, #10
  SPID2.spi       = SPI2;
 800310e:	61eb      	str	r3, [r5, #28]
  nvicEnableVector(STM32_SPI2_NUMBER, STM32_SPI_SPI2_IRQ_PRIORITY);
 8003110:	2024      	movs	r0, #36	; 0x24
  SPID2.rx.dma    = NULL;
 8003112:	626c      	str	r4, [r5, #36]	; 0x24
  SPID2.txdmamode = STM32_DMA_CR_PL(STM32_SPI_SPI2_DMA_PRIORITY) |
 8003114:	632f      	str	r7, [r5, #48]	; 0x30
  SPID2.rxdmamode = STM32_DMA_CR_PL(STM32_SPI_SPI2_DMA_PRIORITY) |
 8003116:	e9c5 480a 	strd	r4, r8, [r5, #40]	; 0x28
  spiObjectInit(&SPID3);
 800311a:	4d23      	ldr	r5, [pc, #140]	; (80031a8 <spi_lld_init+0xd8>)
  nvicEnableVector(STM32_SPI2_NUMBER, STM32_SPI_SPI2_IRQ_PRIORITY);
 800311c:	f7fe f8b0 	bl	8001280 <nvicEnableVector>
  spiObjectInit(&SPID3);
 8003120:	4628      	mov	r0, r5
 8003122:	f7fd fda5 	bl	8000c70 <spiObjectInit>
  SPID3.spi       = SPI3;
 8003126:	4b21      	ldr	r3, [pc, #132]	; (80031ac <spi_lld_init+0xdc>)
  nvicEnableVector(STM32_SPI3_NUMBER, STM32_SPI_SPI3_IRQ_PRIORITY);
 8003128:	210a      	movs	r1, #10
 800312a:	2033      	movs	r0, #51	; 0x33
  SPID3.spi       = SPI3;
 800312c:	61eb      	str	r3, [r5, #28]
  SPID3.is_bdma   = false;
 800312e:	f885 4020 	strb.w	r4, [r5, #32]
  SPID3.rx.dma    = NULL;
 8003132:	626c      	str	r4, [r5, #36]	; 0x24
  SPID3.txdmamode = STM32_DMA_CR_PL(STM32_SPI_SPI3_DMA_PRIORITY) |
 8003134:	632f      	str	r7, [r5, #48]	; 0x30
  SPID3.rxdmamode = STM32_DMA_CR_PL(STM32_SPI_SPI3_DMA_PRIORITY) |
 8003136:	e9c5 480a 	strd	r4, r8, [r5, #40]	; 0x28
  nvicEnableVector(STM32_SPI3_NUMBER, STM32_SPI_SPI3_IRQ_PRIORITY);
 800313a:	f7fe f8a1 	bl	8001280 <nvicEnableVector>
  spiObjectInit(&SPID5);
 800313e:	4630      	mov	r0, r6
 8003140:	f7fd fd96 	bl	8000c70 <spiObjectInit>
  nvicEnableVector(STM32_SPI5_NUMBER, STM32_SPI_SPI5_IRQ_PRIORITY);
#endif
#endif

#if STM32_SPI_USE_SPI6
  spiObjectInit(&SPID6);
 8003144:	4d1a      	ldr	r5, [pc, #104]	; (80031b0 <spi_lld_init+0xe0>)
  SPID5.spi       = SPI5;
 8003146:	4b1b      	ldr	r3, [pc, #108]	; (80031b4 <spi_lld_init+0xe4>)
  nvicEnableVector(STM32_SPI5_NUMBER, STM32_SPI_SPI5_IRQ_PRIORITY);
 8003148:	210a      	movs	r1, #10
 800314a:	2055      	movs	r0, #85	; 0x55
  SPID5.is_bdma   = false;
 800314c:	f886 4020 	strb.w	r4, [r6, #32]
  SPID5.spi       = SPI5;
 8003150:	61f3      	str	r3, [r6, #28]
  SPID5.rx.dma    = NULL;
 8003152:	6274      	str	r4, [r6, #36]	; 0x24
  SPID5.txdmamode = STM32_DMA_CR_PL(STM32_SPI_SPI5_DMA_PRIORITY) |
 8003154:	6337      	str	r7, [r6, #48]	; 0x30
  SPID5.rxdmamode = STM32_DMA_CR_PL(STM32_SPI_SPI5_DMA_PRIORITY) |
 8003156:	e9c6 480a 	strd	r4, r8, [r6, #40]	; 0x28
  nvicEnableVector(STM32_SPI5_NUMBER, STM32_SPI_SPI5_IRQ_PRIORITY);
 800315a:	f7fe f891 	bl	8001280 <nvicEnableVector>
  spiObjectInit(&SPID6);
 800315e:	4628      	mov	r0, r5
 8003160:	f7fd fd86 	bl	8000c70 <spiObjectInit>
  SPID6.spi       = SPI6;
#if defined(STM32_SPI_DMA_REQUIRED) && defined(STM32_SPI_BDMA_REQUIRED)
  SPID6.is_bdma   = true;
 8003164:	2301      	movs	r3, #1
  SPID6.spi       = SPI6;
 8003166:	4914      	ldr	r1, [pc, #80]	; (80031b8 <spi_lld_init+0xe8>)
#endif
  SPID6.rx.bdma   = NULL;
  SPID6.tx.bdma   = NULL;
  SPID6.rxdmamode = STM32_BDMA_CR_PL(STM32_SPI_SPI6_DMA_PRIORITY) |
 8003168:	f241 020a 	movw	r2, #4106	; 0x100a
  SPID6.is_bdma   = true;
 800316c:	f885 3020 	strb.w	r3, [r5, #32]
                    STM32_BDMA_CR_DIR_P2M |
                    STM32_BDMA_CR_TCIE |
                    STM32_BDMA_CR_TEIE;
  SPID6.txdmamode = STM32_BDMA_CR_PL(STM32_SPI_SPI6_DMA_PRIORITY) |
 8003170:	f241 0318 	movw	r3, #4120	; 0x1018
  SPID6.spi       = SPI6;
 8003174:	61e9      	str	r1, [r5, #28]
                    STM32_BDMA_CR_DIR_M2P |
                    STM32_BDMA_CR_TEIE;
#if !defined(STM32_SPI6_SUPPRESS_ISR)
  nvicEnableVector(STM32_SPI6_NUMBER, STM32_SPI_SPI6_IRQ_PRIORITY);
 8003176:	2056      	movs	r0, #86	; 0x56
  SPID6.rx.bdma   = NULL;
 8003178:	626c      	str	r4, [r5, #36]	; 0x24
  nvicEnableVector(STM32_SPI6_NUMBER, STM32_SPI_SPI6_IRQ_PRIORITY);
 800317a:	210a      	movs	r1, #10
  SPID6.txdmamode = STM32_BDMA_CR_PL(STM32_SPI_SPI6_DMA_PRIORITY) |
 800317c:	632b      	str	r3, [r5, #48]	; 0x30
  SPID6.rxdmamode = STM32_BDMA_CR_PL(STM32_SPI_SPI6_DMA_PRIORITY) |
 800317e:	e9c5 420a 	strd	r4, r2, [r5, #40]	; 0x28
#endif
#endif
}
 8003182:	e8bd 41f0 	ldmia.w	sp!, {r4, r5, r6, r7, r8, lr}
  nvicEnableVector(STM32_SPI6_NUMBER, STM32_SPI_SPI6_IRQ_PRIORITY);
 8003186:	f7fe b87b 	b.w	8001280 <nvicEnableVector>
 800318a:	bf00      	nop
 800318c:	240005f8 	.word	0x240005f8
 8003190:	00010016 	.word	0x00010016
 8003194:	00010046 	.word	0x00010046
 8003198:	40013000 	.word	0x40013000
 800319c:	240006ac 	.word	0x240006ac
 80031a0:	24000634 	.word	0x24000634
 80031a4:	40003800 	.word	0x40003800
 80031a8:	24000670 	.word	0x24000670
 80031ac:	40003c00 	.word	0x40003c00
 80031b0:	240006e8 	.word	0x240006e8
 80031b4:	40015000 	.word	0x40015000
 80031b8:	58001400 	.word	0x58001400
 80031bc:	00000000 	.word	0x00000000

080031c0 <sai_lld_serve_dma_interrupt>:
}

static void sai_lld_serve_dma_interrupt(SAIDriver *saip, uint32_t flags) {

#if defined(STM32_SAI_DMA_ERROR_HOOK)
  if ((flags & (STM32_DMA_ISR_TEIF | STM32_DMA_ISR_DMEIF)) != 0U) {
 80031c0:	f011 0f0c 	tst.w	r1, #12
static void sai_lld_serve_dma_interrupt(SAIDriver *saip, uint32_t flags) {
 80031c4:	b570      	push	{r4, r5, r6, lr}
 80031c6:	460c      	mov	r4, r1
 80031c8:	4605      	mov	r5, r0
  if ((flags & (STM32_DMA_ISR_TEIF | STM32_DMA_ISR_DMEIF)) != 0U) {
 80031ca:	d112      	bne.n	80031f2 <sai_lld_serve_dma_interrupt+0x32>
  }
#else
  (void)flags;
#endif

  if ((flags & STM32_DMA_ISR_HTIF) != 0U) {
 80031cc:	06e2      	lsls	r2, r4, #27
 80031ce:	d505      	bpl.n	80031dc <sai_lld_serve_dma_interrupt+0x1c>
    _sai_isr_half_code(saip);
 80031d0:	686b      	ldr	r3, [r5, #4]
 80031d2:	68db      	ldr	r3, [r3, #12]
 80031d4:	b163      	cbz	r3, 80031f0 <sai_lld_serve_dma_interrupt+0x30>
 80031d6:	2101      	movs	r1, #1
 80031d8:	4628      	mov	r0, r5
 80031da:	4798      	blx	r3
  }
  if ((flags & STM32_DMA_ISR_TCIF) != 0U) {
 80031dc:	06a3      	lsls	r3, r4, #26
 80031de:	d507      	bpl.n	80031f0 <sai_lld_serve_dma_interrupt+0x30>
    _sai_isr_full_code(saip);
 80031e0:	686b      	ldr	r3, [r5, #4]
 80031e2:	68db      	ldr	r3, [r3, #12]
 80031e4:	b123      	cbz	r3, 80031f0 <sai_lld_serve_dma_interrupt+0x30>
 80031e6:	4628      	mov	r0, r5
 80031e8:	2100      	movs	r1, #0
  }
}
 80031ea:	e8bd 4070 	ldmia.w	sp!, {r4, r5, r6, lr}
    _sai_isr_full_code(saip);
 80031ee:	4718      	bx	r3
}
 80031f0:	bd70      	pop	{r4, r5, r6, pc}
    STM32_SAI_DMA_ERROR_HOOK(saip);
 80031f2:	f001 fa6d 	bl	80046d0 <sai_dma_error_hook>
 80031f6:	e7e9      	b.n	80031cc <sai_lld_serve_dma_interrupt+0xc>
	...

08003200 <sai_lld_start>:
  SAID2B.blockp = SAI2_Block_B;
  SAID2B.block = STM32_SAI_BLOCK_B;
#endif
}

void sai_lld_start(SAIDriver *saip) {
 8003200:	b538      	push	{r3, r4, r5, lr}
  uint32_t cr1;
  bool is_rx;

  if (saip->state == SAI_STOP) {
 8003202:	7803      	ldrb	r3, [r0, #0]
void sai_lld_start(SAIDriver *saip) {
 8003204:	4604      	mov	r4, r0
  if (saip->state == SAI_STOP) {
 8003206:	2b01      	cmp	r3, #1
 8003208:	d023      	beq.n	8003252 <sai_lld_start+0x52>
      osalDbgAssert(saip->dmatx != NULL, "DMA TX allocation failed");
      saip->dmarx = NULL;
    }
  }

  cr1 = saip->config->cr1 & ~(SAI_xCR1_SAIEN | SAI_xCR1_DMAEN);
 800320a:	6863      	ldr	r3, [r4, #4]
  saip->blockp->CR1 &= ~SAI_xCR1_SAIEN;
 800320c:	68e1      	ldr	r1, [r4, #12]
  cr1 = saip->config->cr1 & ~(SAI_xCR1_SAIEN | SAI_xCR1_DMAEN);
 800320e:	6958      	ldr	r0, [r3, #20]
  saip->blockp->CR1 &= ~SAI_xCR1_SAIEN;
 8003210:	680a      	ldr	r2, [r1, #0]
  cr1 = saip->config->cr1 & ~(SAI_xCR1_SAIEN | SAI_xCR1_DMAEN);
 8003212:	f420 3040 	bic.w	r0, r0, #196608	; 0x30000
  saip->blockp->CR1 &= ~SAI_xCR1_SAIEN;
 8003216:	f422 3280 	bic.w	r2, r2, #65536	; 0x10000
 800321a:	600a      	str	r2, [r1, #0]
  while ((saip->blockp->CR1 & SAI_xCR1_SAIEN) != 0U) {
 800321c:	680a      	ldr	r2, [r1, #0]
 800321e:	f412 3280 	ands.w	r2, r2, #65536	; 0x10000
 8003222:	d1fb      	bne.n	800321c <sai_lld_start+0x1c>
  saip->blockp->CR1 &= ~SAI_xCR1_DMAEN;
  saip->blockp->CR1 &= ~SAI_xCR1_DMAEN;

  /* RM0433: SAI_GCR must be programmed when both blocks are disabled. */
  /* CMSIS mapping (stm32h743xx.h): block registers are in SAI_Block_TypeDef. */
  saip->sai->GCR = saip->config->gcr;
 8003224:	68a5      	ldr	r5, [r4, #8]
  saip->blockp->CR1 &= ~SAI_xCR1_DMAEN;
 8003226:	680c      	ldr	r4, [r1, #0]
 8003228:	f424 3400 	bic.w	r4, r4, #131072	; 0x20000
 800322c:	600c      	str	r4, [r1, #0]
  saip->blockp->CR1 &= ~SAI_xCR1_DMAEN;
 800322e:	680c      	ldr	r4, [r1, #0]
 8003230:	f424 3400 	bic.w	r4, r4, #131072	; 0x20000
 8003234:	600c      	str	r4, [r1, #0]
  saip->sai->GCR = saip->config->gcr;
 8003236:	691c      	ldr	r4, [r3, #16]
 8003238:	602c      	str	r4, [r5, #0]
  saip->blockp->CR1 = cr1;
  saip->blockp->CR2 = saip->config->cr2;
 800323a:	699c      	ldr	r4, [r3, #24]
  saip->blockp->CR1 = cr1;
 800323c:	6008      	str	r0, [r1, #0]
  saip->blockp->CR2 = saip->config->cr2;
 800323e:	604c      	str	r4, [r1, #4]
  saip->blockp->FRCR = saip->config->frcr;
  saip->blockp->SLOTR = saip->config->slotr;
 8003240:	e9d3 4007 	ldrd	r4, r0, [r3, #28]
  saip->blockp->IMR = 0U;
  saip->blockp->CLRFR = 0xFFFFFFFFU;
 8003244:	f04f 33ff 	mov.w	r3, #4294967295
  saip->blockp->FRCR = saip->config->frcr;
 8003248:	608c      	str	r4, [r1, #8]
  saip->blockp->SLOTR = saip->config->slotr;
 800324a:	60c8      	str	r0, [r1, #12]
  saip->blockp->IMR = 0U;
 800324c:	610a      	str	r2, [r1, #16]
  saip->blockp->CLRFR = 0xFFFFFFFFU;
 800324e:	618b      	str	r3, [r1, #24]
}
 8003250:	bd38      	pop	{r3, r4, r5, pc}
    if (saip->sai == SAI1) {
 8003252:	4b29      	ldr	r3, [pc, #164]	; (80032f8 <sai_lld_start+0xf8>)
 8003254:	6882      	ldr	r2, [r0, #8]
 8003256:	429a      	cmp	r2, r3
 8003258:	d02f      	beq.n	80032ba <sai_lld_start+0xba>
      if (sai2_ref++ == 0U) {
 800325a:	4a28      	ldr	r2, [pc, #160]	; (80032fc <sai_lld_start+0xfc>)
 800325c:	6813      	ldr	r3, [r2, #0]
 800325e:	1c59      	adds	r1, r3, #1
 8003260:	6011      	str	r1, [r2, #0]
 8003262:	b973      	cbnz	r3, 8003282 <sai_lld_start+0x82>
  RCC_C1->APB2ENR |= mask;
 8003264:	4b26      	ldr	r3, [pc, #152]	; (8003300 <sai_lld_start+0x100>)
 8003266:	f8d3 20f0 	ldr.w	r2, [r3, #240]	; 0xf0
 800326a:	f442 0200 	orr.w	r2, r2, #8388608	; 0x800000
 800326e:	f8c3 20f0 	str.w	r2, [r3, #240]	; 0xf0
    RCC_C1->APB2LPENR |= mask;
 8003272:	f8d3 2118 	ldr.w	r2, [r3, #280]	; 0x118
 8003276:	f442 0200 	orr.w	r2, r2, #8388608	; 0x800000
 800327a:	f8c3 2118 	str.w	r2, [r3, #280]	; 0x118
  (void)RCC_C1->APB2LPENR;
 800327e:	f8d3 3118 	ldr.w	r3, [r3, #280]	; 0x118
  uint32_t mode = saip->config->cr1 & SAI_xCR1_MODE;
 8003282:	6863      	ldr	r3, [r4, #4]
  return (mode == SAI_xCR1_MODE_0) || (mode == SAI_MODE_RX_MASK);
 8003284:	695b      	ldr	r3, [r3, #20]
    if (is_rx) {
 8003286:	07da      	lsls	r2, r3, #31
 8003288:	d40b      	bmi.n	80032a2 <sai_lld_start+0xa2>
  if (saip->block == STM32_SAI_BLOCK_A) {
 800328a:	7c23      	ldrb	r3, [r4, #16]
 800328c:	bb6b      	cbnz	r3, 80032ea <sai_lld_start+0xea>
    return is_rx ? STM32_SAI_SAI2A_RX_DMA_STREAM : STM32_SAI_SAI2A_TX_DMA_STREAM;
 800328e:	2008      	movs	r0, #8
                                            : STM32_SAI_SAI2B_IRQ_PRIORITY;
 8003290:	2105      	movs	r1, #5
      saip->dmatx = dmaStreamAllocI(sai_lld_stream_id(saip, false),
 8003292:	4623      	mov	r3, r4
 8003294:	4a1b      	ldr	r2, [pc, #108]	; (8003304 <sai_lld_start+0x104>)
 8003296:	f7fe fdd3 	bl	8001e40 <dmaStreamAllocI>
      saip->dmarx = NULL;
 800329a:	2300      	movs	r3, #0
 800329c:	e9c4 3005 	strd	r3, r0, [r4, #20]
 80032a0:	e7b3      	b.n	800320a <sai_lld_start+0xa>
  if (saip->block == STM32_SAI_BLOCK_A) {
 80032a2:	7c23      	ldrb	r3, [r4, #16]
 80032a4:	bb23      	cbnz	r3, 80032f0 <sai_lld_start+0xf0>
    return is_rx ? STM32_SAI_SAI2A_RX_DMA_STREAM : STM32_SAI_SAI2A_TX_DMA_STREAM;
 80032a6:	2009      	movs	r0, #9
                                            : STM32_SAI_SAI2B_IRQ_PRIORITY;
 80032a8:	2105      	movs	r1, #5
      saip->dmarx = dmaStreamAllocI(sai_lld_stream_id(saip, true),
 80032aa:	4623      	mov	r3, r4
 80032ac:	4a15      	ldr	r2, [pc, #84]	; (8003304 <sai_lld_start+0x104>)
 80032ae:	f7fe fdc7 	bl	8001e40 <dmaStreamAllocI>
      saip->dmatx = NULL;
 80032b2:	2300      	movs	r3, #0
 80032b4:	e9c4 0305 	strd	r0, r3, [r4, #20]
 80032b8:	e7a7      	b.n	800320a <sai_lld_start+0xa>
      if (sai1_ref++ == 0U) {
 80032ba:	4a13      	ldr	r2, [pc, #76]	; (8003308 <sai_lld_start+0x108>)
 80032bc:	6813      	ldr	r3, [r2, #0]
 80032be:	1c59      	adds	r1, r3, #1
 80032c0:	6011      	str	r1, [r2, #0]
 80032c2:	b973      	cbnz	r3, 80032e2 <sai_lld_start+0xe2>
  RCC_C1->APB2ENR |= mask;
 80032c4:	4b0e      	ldr	r3, [pc, #56]	; (8003300 <sai_lld_start+0x100>)
 80032c6:	f8d3 20f0 	ldr.w	r2, [r3, #240]	; 0xf0
 80032ca:	f442 0280 	orr.w	r2, r2, #4194304	; 0x400000
 80032ce:	f8c3 20f0 	str.w	r2, [r3, #240]	; 0xf0
    RCC_C1->APB2LPENR |= mask;
 80032d2:	f8d3 2118 	ldr.w	r2, [r3, #280]	; 0x118
 80032d6:	f442 0280 	orr.w	r2, r2, #4194304	; 0x400000
 80032da:	f8c3 2118 	str.w	r2, [r3, #280]	; 0x118
  (void)RCC_C1->APB2LPENR;
 80032de:	f8d3 3118 	ldr.w	r3, [r3, #280]	; 0x118
  uint32_t mode = saip->config->cr1 & SAI_xCR1_MODE;
 80032e2:	6863      	ldr	r3, [r4, #4]
  return (mode == SAI_xCR1_MODE_0) || (mode == SAI_MODE_RX_MASK);
 80032e4:	695b      	ldr	r3, [r3, #20]
    if (is_rx) {
 80032e6:	07db      	lsls	r3, r3, #31
 80032e8:	d402      	bmi.n	80032f0 <sai_lld_start+0xf0>
  return is_rx ? STM32_SAI_SAI2B_RX_DMA_STREAM : STM32_SAI_SAI2B_TX_DMA_STREAM;
 80032ea:	2010      	movs	r0, #16
                                            : STM32_SAI_SAI2B_IRQ_PRIORITY;
 80032ec:	210a      	movs	r1, #10
 80032ee:	e7d0      	b.n	8003292 <sai_lld_start+0x92>
  return is_rx ? STM32_SAI_SAI2B_RX_DMA_STREAM : STM32_SAI_SAI2B_TX_DMA_STREAM;
 80032f0:	2010      	movs	r0, #16
                                            : STM32_SAI_SAI2B_IRQ_PRIORITY;
 80032f2:	210a      	movs	r1, #10
 80032f4:	e7d9      	b.n	80032aa <sai_lld_start+0xaa>
 80032f6:	bf00      	nop
 80032f8:	40015800 	.word	0x40015800
 80032fc:	24000758 	.word	0x24000758
 8003300:	58024400 	.word	0x58024400
 8003304:	080031c1 	.word	0x080031c1
 8003308:	24000754 	.word	0x24000754
 800330c:	00000000 	.word	0x00000000

08003310 <sai_lld_set_buffers>:
}

void sai_lld_set_buffers(SAIDriver *saip,
                         const void *tx_buffer,
                         void *rx_buffer,
                         size_t size) {
 8003310:	e92d 41f0 	stmdb	sp!, {r4, r5, r6, r7, r8, lr}
 8003314:	461f      	mov	r7, r3
 8003316:	4690      	mov	r8, r2
  if (saip->sai == SAI1) {
 8003318:	4b3f      	ldr	r3, [pc, #252]	; (8003418 <sai_lld_set_buffers+0x108>)
                         size_t size) {
 800331a:	4604      	mov	r4, r0
 800331c:	460e      	mov	r6, r1
  osalDbgCheck(size <= STM32_DMA_MAX_TRANSFER);
  osalDbgCheck((size & 1U) == 0U);

  saip->txbuf = tx_buffer;
  saip->rxbuf = rx_buffer;
  saip->bufsize = size;
 800331e:	62c7      	str	r7, [r0, #44]	; 0x2c
  saip->rxbuf = rx_buffer;
 8003320:	e9c0 1209 	strd	r1, r2, [r0, #36]	; 0x24
  if (saip->sai == SAI1) {
 8003324:	6882      	ldr	r2, [r0, #8]
 8003326:	429a      	cmp	r2, r3
           SAI1A_DMA_REQUEST : SAI1B_DMA_REQUEST;
 8003328:	7c03      	ldrb	r3, [r0, #16]
  if (saip->sai == SAI1) {
 800332a:	d070      	beq.n	800340e <sai_lld_set_buffers+0xfe>
         SAI2A_DMA_REQUEST : SAI2B_DMA_REQUEST;
 800332c:	2b00      	cmp	r3, #0
 800332e:	bf0c      	ite	eq
 8003330:	2159      	moveq	r1, #89	; 0x59
 8003332:	215a      	movne	r1, #90	; 0x5a
  uint32_t mode = saip->config->cr1 & SAI_xCR1_MODE;
 8003334:	6863      	ldr	r3, [r4, #4]
  return (mode == SAI_xCR1_MODE_0) || (mode == SAI_MODE_RX_MASK);
 8003336:	695b      	ldr	r3, [r3, #20]

  request = sai_lld_dma_request(saip);
  is_rx = sai_lld_is_rx(saip);

  if (is_rx) {
 8003338:	07d8      	lsls	r0, r3, #31
 800333a:	d531      	bpl.n	80033a0 <sai_lld_set_buffers+0x90>
    osalDbgCheck(rx_buffer != NULL);
    osalDbgCheck(tx_buffer == NULL);
    osalDbgCheck(saip->dmarx != NULL);
    dmaStreamDisable(saip->dmarx);
 800333c:	6960      	ldr	r0, [r4, #20]
 800333e:	6806      	ldr	r6, [r0, #0]
 8003340:	6833      	ldr	r3, [r6, #0]
 8003342:	f023 031f 	bic.w	r3, r3, #31
 8003346:	6033      	str	r3, [r6, #0]
 8003348:	6835      	ldr	r5, [r6, #0]
 800334a:	07ea      	lsls	r2, r5, #31
 800334c:	d4fc      	bmi.n	8003348 <sai_lld_set_buffers+0x38>
 800334e:	7b02      	ldrb	r2, [r0, #12]
 8003350:	233d      	movs	r3, #61	; 0x3d
 8003352:	4093      	lsls	r3, r2
 8003354:	6842      	ldr	r2, [r0, #4]
 8003356:	6013      	str	r3, [r2, #0]
    dmaStreamClearInterrupt(saip->dmarx);
 8003358:	6013      	str	r3, [r2, #0]
    (void)request;
#if STM32_DMA_SUPPORTS_DMAMUX == TRUE
    dmaSetRequestSource(saip->dmarx, request);
 800335a:	f7fe fe01 	bl	8001f60 <dmaSetRequestSource>
#endif
    dmaStreamSetPeripheral(saip->dmarx, &saip->blockp->DR);
 800335e:	6963      	ldr	r3, [r4, #20]
 8003360:	68e2      	ldr	r2, [r4, #12]
 8003362:	681b      	ldr	r3, [r3, #0]
 8003364:	321c      	adds	r2, #28
  if (saip->sai == SAI1) {
 8003366:	68a0      	ldr	r0, [r4, #8]
    dmaStreamSetMemory0(saip->dmarx, rx_buffer);
    dmaStreamSetTransactionSize(saip->dmarx, size);
    saip->rxdmamode = saip->config->dma_mode | STM32_DMA_CR_DIR_P2M |
 8003368:	6861      	ldr	r1, [r4, #4]
    dmaStreamSetPeripheral(saip->dmarx, &saip->blockp->DR);
 800336a:	609a      	str	r2, [r3, #8]
  if (saip->sai == SAI1) {
 800336c:	4a2a      	ldr	r2, [pc, #168]	; (8003418 <sai_lld_set_buffers+0x108>)
    dmaStreamSetMemory0(saip->dmarx, rx_buffer);
 800336e:	f8c3 800c 	str.w	r8, [r3, #12]
  if (saip->sai == SAI1) {
 8003372:	4290      	cmp	r0, r2
    saip->rxdmamode = saip->config->dma_mode | STM32_DMA_CR_DIR_P2M |
 8003374:	6a49      	ldr	r1, [r1, #36]	; 0x24
    dmaStreamSetTransactionSize(saip->dmarx, size);
 8003376:	605f      	str	r7, [r3, #4]
  if (saip->sai == SAI1) {
 8003378:	d046      	beq.n	8003408 <sai_lld_set_buffers+0xf8>
                                            : STM32_SAI_SAI2B_DMA_PRIORITY;
 800337a:	7c22      	ldrb	r2, [r4, #16]
 800337c:	2a00      	cmp	r2, #0
 800337e:	bf14      	ite	ne
 8003380:	f44f 3280 	movne.w	r2, #65536	; 0x10000
 8003384:	f44f 3200 	moveq.w	r2, #131072	; 0x20000
                      STM32_DMA_CR_MINC | STM32_DMA_CR_CIRC |
                      STM32_DMA_CR_TCIE | STM32_DMA_CR_HTIE |
                      STM32_DMA_CR_TEIE | STM32_DMA_CR_DMEIE |
 8003388:	4311      	orrs	r1, r2
 800338a:	f240 521e 	movw	r2, #1310	; 0x51e
 800338e:	430a      	orrs	r2, r1
    saip->rxdmamode = saip->config->dma_mode | STM32_DMA_CR_DIR_P2M |
 8003390:	61e2      	str	r2, [r4, #28]
                      STM32_DMA_CR_PL(sai_lld_dma_priority(saip));
    dmaStreamSetMode(saip->dmarx, saip->rxdmamode);
 8003392:	601a      	str	r2, [r3, #0]
    dmaStreamEnable(saip->dmarx);
 8003394:	681a      	ldr	r2, [r3, #0]
 8003396:	f042 0201 	orr.w	r2, r2, #1
 800339a:	601a      	str	r2, [r3, #0]
                      STM32_DMA_CR_TEIE | STM32_DMA_CR_DMEIE |
                      STM32_DMA_CR_PL(sai_lld_dma_priority(saip));
    dmaStreamSetMode(saip->dmatx, saip->txdmamode);
    dmaStreamEnable(saip->dmatx);
  }
}
 800339c:	e8bd 81f0 	ldmia.w	sp!, {r4, r5, r6, r7, r8, pc}
    dmaStreamDisable(saip->dmatx);
 80033a0:	69a0      	ldr	r0, [r4, #24]
 80033a2:	6805      	ldr	r5, [r0, #0]
 80033a4:	682b      	ldr	r3, [r5, #0]
 80033a6:	f023 031f 	bic.w	r3, r3, #31
 80033aa:	602b      	str	r3, [r5, #0]
 80033ac:	682a      	ldr	r2, [r5, #0]
 80033ae:	07d3      	lsls	r3, r2, #31
 80033b0:	d4fc      	bmi.n	80033ac <sai_lld_set_buffers+0x9c>
 80033b2:	7b02      	ldrb	r2, [r0, #12]
 80033b4:	233d      	movs	r3, #61	; 0x3d
 80033b6:	4093      	lsls	r3, r2
 80033b8:	6842      	ldr	r2, [r0, #4]
 80033ba:	6013      	str	r3, [r2, #0]
    dmaStreamClearInterrupt(saip->dmatx);
 80033bc:	6013      	str	r3, [r2, #0]
    dmaSetRequestSource(saip->dmatx, request);
 80033be:	f7fe fdcf 	bl	8001f60 <dmaSetRequestSource>
    dmaStreamSetPeripheral(saip->dmatx, &saip->blockp->DR);
 80033c2:	69a3      	ldr	r3, [r4, #24]
 80033c4:	68e2      	ldr	r2, [r4, #12]
 80033c6:	681b      	ldr	r3, [r3, #0]
 80033c8:	321c      	adds	r2, #28
  if (saip->sai == SAI1) {
 80033ca:	68a0      	ldr	r0, [r4, #8]
    saip->txdmamode = saip->config->dma_mode | STM32_DMA_CR_DIR_M2P |
 80033cc:	6861      	ldr	r1, [r4, #4]
    dmaStreamSetPeripheral(saip->dmatx, &saip->blockp->DR);
 80033ce:	609a      	str	r2, [r3, #8]
  if (saip->sai == SAI1) {
 80033d0:	4a11      	ldr	r2, [pc, #68]	; (8003418 <sai_lld_set_buffers+0x108>)
    dmaStreamSetMemory0(saip->dmatx, tx_buffer);
 80033d2:	60de      	str	r6, [r3, #12]
  if (saip->sai == SAI1) {
 80033d4:	4290      	cmp	r0, r2
    saip->txdmamode = saip->config->dma_mode | STM32_DMA_CR_DIR_M2P |
 80033d6:	6a49      	ldr	r1, [r1, #36]	; 0x24
    dmaStreamSetTransactionSize(saip->dmatx, size);
 80033d8:	605f      	str	r7, [r3, #4]
  if (saip->sai == SAI1) {
 80033da:	d012      	beq.n	8003402 <sai_lld_set_buffers+0xf2>
                                            : STM32_SAI_SAI2B_DMA_PRIORITY;
 80033dc:	7c22      	ldrb	r2, [r4, #16]
 80033de:	2a00      	cmp	r2, #0
 80033e0:	bf14      	ite	ne
 80033e2:	f44f 3280 	movne.w	r2, #65536	; 0x10000
 80033e6:	f44f 3200 	moveq.w	r2, #131072	; 0x20000
                      STM32_DMA_CR_TEIE | STM32_DMA_CR_DMEIE |
 80033ea:	4311      	orrs	r1, r2
 80033ec:	f240 525e 	movw	r2, #1374	; 0x55e
 80033f0:	430a      	orrs	r2, r1
    saip->txdmamode = saip->config->dma_mode | STM32_DMA_CR_DIR_M2P |
 80033f2:	6222      	str	r2, [r4, #32]
    dmaStreamSetMode(saip->dmatx, saip->txdmamode);
 80033f4:	601a      	str	r2, [r3, #0]
    dmaStreamEnable(saip->dmatx);
 80033f6:	681a      	ldr	r2, [r3, #0]
 80033f8:	f042 0201 	orr.w	r2, r2, #1
 80033fc:	601a      	str	r2, [r3, #0]
}
 80033fe:	e8bd 81f0 	ldmia.w	sp!, {r4, r5, r6, r7, r8, pc}
 8003402:	f44f 3280 	mov.w	r2, #65536	; 0x10000
 8003406:	e7f0      	b.n	80033ea <sai_lld_set_buffers+0xda>
 8003408:	f44f 3280 	mov.w	r2, #65536	; 0x10000
 800340c:	e7bc      	b.n	8003388 <sai_lld_set_buffers+0x78>
           SAI1A_DMA_REQUEST : SAI1B_DMA_REQUEST;
 800340e:	2b00      	cmp	r3, #0
 8003410:	bf0c      	ite	eq
 8003412:	2157      	moveq	r1, #87	; 0x57
 8003414:	2158      	movne	r1, #88	; 0x58
 8003416:	e78d      	b.n	8003334 <sai_lld_set_buffers+0x24>
 8003418:	40015800 	.word	0x40015800
 800341c:	00000000 	.word	0x00000000

08003420 <sai_lld_start_exchange>:

void sai_lld_start_exchange(SAIDriver *saip) {
  osalDbgAssert(saip->bufsize > 0U, "buffers not set");

  saip->blockp->CR1 = (saip->blockp->CR1 | SAI_xCR1_DMAEN) & ~SAI_xCR1_SAIEN;
 8003420:	68c2      	ldr	r2, [r0, #12]
 8003422:	6813      	ldr	r3, [r2, #0]
 8003424:	f423 3340 	bic.w	r3, r3, #196608	; 0x30000
 8003428:	f443 3300 	orr.w	r3, r3, #131072	; 0x20000
 800342c:	6013      	str	r3, [r2, #0]
  saip->blockp->CR1 |= SAI_xCR1_SAIEN;
 800342e:	6813      	ldr	r3, [r2, #0]
 8003430:	f443 3380 	orr.w	r3, r3, #65536	; 0x10000
 8003434:	6013      	str	r3, [r2, #0]
}
 8003436:	4770      	bx	lr
	...

08003440 <sai_lld_stop_exchange>:

void sai_lld_stop_exchange(SAIDriver *saip) {
  saip->blockp->CR1 &= ~SAI_xCR1_SAIEN;
 8003440:	68c2      	ldr	r2, [r0, #12]
 8003442:	6813      	ldr	r3, [r2, #0]
 8003444:	f423 3380 	bic.w	r3, r3, #65536	; 0x10000
 8003448:	6013      	str	r3, [r2, #0]
  while ((saip->blockp->CR1 & SAI_xCR1_SAIEN) != 0U) {
 800344a:	6813      	ldr	r3, [r2, #0]
 800344c:	03d9      	lsls	r1, r3, #15
 800344e:	d4fc      	bmi.n	800344a <sai_lld_stop_exchange+0xa>
  }
  saip->blockp->CR1 &= ~SAI_xCR1_DMAEN;
 8003450:	6813      	ldr	r3, [r2, #0]

  if (saip->dmarx != NULL) {
 8003452:	6941      	ldr	r1, [r0, #20]
  saip->blockp->CR1 &= ~SAI_xCR1_DMAEN;
 8003454:	f423 3300 	bic.w	r3, r3, #131072	; 0x20000
 8003458:	6013      	str	r3, [r2, #0]
  if (saip->dmarx != NULL) {
 800345a:	b171      	cbz	r1, 800347a <sai_lld_stop_exchange+0x3a>
    dmaStreamDisable(saip->dmarx);
 800345c:	680a      	ldr	r2, [r1, #0]
 800345e:	6813      	ldr	r3, [r2, #0]
 8003460:	f023 031f 	bic.w	r3, r3, #31
 8003464:	6013      	str	r3, [r2, #0]
 8003466:	6813      	ldr	r3, [r2, #0]
 8003468:	07db      	lsls	r3, r3, #31
 800346a:	d4fc      	bmi.n	8003466 <sai_lld_stop_exchange+0x26>
 800346c:	f891 c00c 	ldrb.w	ip, [r1, #12]
 8003470:	233d      	movs	r3, #61	; 0x3d
 8003472:	684a      	ldr	r2, [r1, #4]
 8003474:	fa03 f30c 	lsl.w	r3, r3, ip
 8003478:	6013      	str	r3, [r2, #0]
  }
  if (saip->dmatx != NULL) {
 800347a:	6981      	ldr	r1, [r0, #24]
 800347c:	b161      	cbz	r1, 8003498 <sai_lld_stop_exchange+0x58>
    dmaStreamDisable(saip->dmatx);
 800347e:	680a      	ldr	r2, [r1, #0]
 8003480:	6813      	ldr	r3, [r2, #0]
 8003482:	f023 031f 	bic.w	r3, r3, #31
 8003486:	6013      	str	r3, [r2, #0]
 8003488:	6813      	ldr	r3, [r2, #0]
 800348a:	07db      	lsls	r3, r3, #31
 800348c:	d4fc      	bmi.n	8003488 <sai_lld_stop_exchange+0x48>
 800348e:	7b08      	ldrb	r0, [r1, #12]
 8003490:	233d      	movs	r3, #61	; 0x3d
 8003492:	684a      	ldr	r2, [r1, #4]
 8003494:	4083      	lsls	r3, r0
 8003496:	6013      	str	r3, [r2, #0]
  }
}
 8003498:	4770      	bx	lr
 800349a:	bf00      	nop
 800349c:	0000      	movs	r0, r0
	...

080034a0 <st_lld_init>:
  RCC_C1->APB1LENR |= mask;
 80034a0:	4a12      	ldr	r2, [pc, #72]	; (80034ec <st_lld_init+0x4c>)

  /* Enabling the stop mode during debug for this timer.*/
  ST_ENABLE_STOP();

  /* Initializing the counter in free running mode.*/
  STM32_ST_TIM->PSC    = (ST_CLOCK_SRC / OSAL_ST_FREQUENCY) - 1;
 80034a2:	f04f 4380 	mov.w	r3, #1073741824	; 0x40000000
  STM32_ST_TIM->ARR    = ST_ARR_INIT;
  STM32_ST_TIM->CCMR1  = 0;
 80034a6:	2100      	movs	r1, #0
 80034a8:	f8d2 00e8 	ldr.w	r0, [r2, #232]	; 0xe8
 80034ac:	f040 0001 	orr.w	r0, r0, #1
void st_lld_init(void) {
 80034b0:	b430      	push	{r4, r5}
 80034b2:	f8c2 00e8 	str.w	r0, [r2, #232]	; 0xe8
  STM32_ST_TIM->PSC    = (ST_CLOCK_SRC / OSAL_ST_FREQUENCY) - 1;
 80034b6:	f644 651f 	movw	r5, #19999	; 0x4e1f
    RCC_C1->APB1LLPENR |= mask;
 80034ba:	f8d2 0110 	ldr.w	r0, [r2, #272]	; 0x110
  ST_ENABLE_STOP();
 80034be:	4c0c      	ldr	r4, [pc, #48]	; (80034f0 <st_lld_init+0x50>)
 80034c0:	f040 0001 	orr.w	r0, r0, #1
 80034c4:	f8c2 0110 	str.w	r0, [r2, #272]	; 0x110
#if ST_LLD_NUM_ALARMS > 3
  STM32_ST_TIM->CCR[3] = 0;
#endif
  STM32_ST_TIM->DIER   = 0;
  STM32_ST_TIM->CR2    = 0;
  STM32_ST_TIM->EGR    = TIM_EGR_UG;
 80034c8:	2001      	movs	r0, #1
  (void)RCC_C1->APB1LLPENR;
 80034ca:	f8d2 2110 	ldr.w	r2, [r2, #272]	; 0x110
  ST_ENABLE_STOP();
 80034ce:	6be2      	ldr	r2, [r4, #60]	; 0x3c
 80034d0:	4302      	orrs	r2, r0
 80034d2:	63e2      	str	r2, [r4, #60]	; 0x3c
  STM32_ST_TIM->ARR    = ST_ARR_INIT;
 80034d4:	f04f 32ff 	mov.w	r2, #4294967295
  STM32_ST_TIM->PSC    = (ST_CLOCK_SRC / OSAL_ST_FREQUENCY) - 1;
 80034d8:	629d      	str	r5, [r3, #40]	; 0x28
  STM32_ST_TIM->ARR    = ST_ARR_INIT;
 80034da:	62da      	str	r2, [r3, #44]	; 0x2c
  STM32_ST_TIM->CCMR1  = 0;
 80034dc:	6199      	str	r1, [r3, #24]
  STM32_ST_TIM->CCR[0] = 0;
 80034de:	6359      	str	r1, [r3, #52]	; 0x34
  STM32_ST_TIM->DIER   = 0;
 80034e0:	60d9      	str	r1, [r3, #12]
  STM32_ST_TIM->CR2    = 0;
 80034e2:	6059      	str	r1, [r3, #4]
  STM32_ST_TIM->EGR    = TIM_EGR_UG;
 80034e4:	6158      	str	r0, [r3, #20]
  STM32_ST_TIM->CR1    = TIM_CR1_CEN;
 80034e6:	6018      	str	r0, [r3, #0]
                  SysTick_CTRL_TICKINT_Msk;

  /* IRQ enabled.*/
  nvicSetSystemHandlerPriority(HANDLER_SYSTICK, STM32_ST_IRQ_PRIORITY);
#endif /* OSAL_ST_MODE == OSAL_ST_MODE_PERIODIC */
}
 80034e8:	bc30      	pop	{r4, r5}
 80034ea:	4770      	bx	lr
 80034ec:	58024400 	.word	0x58024400
 80034f0:	5c001000 	.word	0x5c001000
	...

08003500 <st_lld_serve_interrupt>:
void st_lld_serve_interrupt(void) {
#if OSAL_ST_MODE == OSAL_ST_MODE_FREERUNNING
  uint32_t sr;
  stm32_tim_t *timp = STM32_ST_TIM;

  sr  = timp->SR;
 8003500:	f04f 4280 	mov.w	r2, #1073741824	; 0x40000000
void st_lld_serve_interrupt(void) {
 8003504:	b508      	push	{r3, lr}
  sr  = timp->SR;
 8003506:	6911      	ldr	r1, [r2, #16]
  sr &= timp->DIER & STM32_TIM_DIER_IRQ_MASK;
 8003508:	68d3      	ldr	r3, [r2, #12]
 800350a:	400b      	ands	r3, r1
 800350c:	b2d9      	uxtb	r1, r3
  timp->SR = ~sr;

  if ((sr & TIM_SR_CC1IF) != 0U)
 800350e:	079b      	lsls	r3, r3, #30
  timp->SR = ~sr;
 8003510:	ea6f 0101 	mvn.w	r1, r1
 8003514:	6111      	str	r1, [r2, #16]
  if ((sr & TIM_SR_CC1IF) != 0U)
 8003516:	d400      	bmi.n	800351a <st_lld_serve_interrupt+0x1a>
      st_callbacks[3](3U);
    }
  }
#endif
#endif
}
 8003518:	bd08      	pop	{r3, pc}
 800351a:	2330      	movs	r3, #48	; 0x30
 800351c:	f383 8811 	msr	BASEPRI, r3
  chSysTimerHandlerI();
 8003520:	f000 faee 	bl	8003b00 <chSysTimerHandlerI>
 8003524:	2300      	movs	r3, #0
 8003526:	f383 8811 	msr	BASEPRI, r3
 800352a:	bd08      	pop	{r3, pc}
 800352c:	0000      	movs	r0, r0
	...

08003530 <notify1>:

#if STM32_SERIAL_USE_USART1 || defined(__DOXYGEN__)
static void notify1(io_queue_t *qp) {

  (void)qp;
  USART1->CR1 |= USART_CR1_TXEIE | USART_CR1_TCIE;
 8003530:	4a02      	ldr	r2, [pc, #8]	; (800353c <notify1+0xc>)
 8003532:	6813      	ldr	r3, [r2, #0]
 8003534:	f043 03c0 	orr.w	r3, r3, #192	; 0xc0
 8003538:	6013      	str	r3, [r2, #0]
}
 800353a:	4770      	bx	lr
 800353c:	40011000 	.word	0x40011000

08003540 <notify5>:

#if STM32_SERIAL_USE_UART5 || defined(__DOXYGEN__)
static void notify5(io_queue_t *qp) {

  (void)qp;
  UART5->CR1 |= USART_CR1_TXEIE | USART_CR1_TCIE;
 8003540:	4a02      	ldr	r2, [pc, #8]	; (800354c <notify5+0xc>)
 8003542:	6813      	ldr	r3, [r2, #0]
 8003544:	f043 03c0 	orr.w	r3, r3, #192	; 0xc0
 8003548:	6013      	str	r3, [r2, #0]
}
 800354a:	4770      	bx	lr
 800354c:	40005000 	.word	0x40005000

08003550 <sd_lld_init>:
/**
 * @brief   Low level serial driver initialization.
 *
 * @notapi
 */
void sd_lld_init(void) {
 8003550:	b570      	push	{r4, r5, r6, lr}

#if STM32_SERIAL_USE_USART1
  sdObjectInit(&SD1);
 8003552:	4d19      	ldr	r5, [pc, #100]	; (80035b8 <sd_lld_init+0x68>)
void sd_lld_init(void) {
 8003554:	b082      	sub	sp, #8
  nvicEnableVector(STM32_UART4_NUMBER, STM32_SERIAL_UART4_PRIORITY);
#endif
#endif

#if STM32_SERIAL_USE_UART5
  sdObjectInit(&SD5);
 8003556:	4c19      	ldr	r4, [pc, #100]	; (80035bc <sd_lld_init+0x6c>)
  sdObjectInit(&SD1);
 8003558:	4628      	mov	r0, r5
  SD1.clock = STM32_USART1CLK;
 800355a:	4e19      	ldr	r6, [pc, #100]	; (80035c0 <sd_lld_init+0x70>)
  sdObjectInit(&SD1);
 800355c:	f7fd fb40 	bl	8000be0 <sdObjectInit>
  iqObjectInit(&SD1.iqueue, sd_in_buf1, sizeof sd_in_buf1, NULL, &SD1);
 8003560:	f105 000c 	add.w	r0, r5, #12
 8003564:	2300      	movs	r3, #0
 8003566:	2210      	movs	r2, #16
 8003568:	4916      	ldr	r1, [pc, #88]	; (80035c4 <sd_lld_init+0x74>)
 800356a:	9500      	str	r5, [sp, #0]
 800356c:	f7fd f940 	bl	80007f0 <iqObjectInit>
  oqObjectInit(&SD1.oqueue, sd_out_buf1, sizeof sd_out_buf1, notify1, &SD1);
 8003570:	2210      	movs	r2, #16
 8003572:	4915      	ldr	r1, [pc, #84]	; (80035c8 <sd_lld_init+0x78>)
 8003574:	f105 0030 	add.w	r0, r5, #48	; 0x30
 8003578:	4b14      	ldr	r3, [pc, #80]	; (80035cc <sd_lld_init+0x7c>)
 800357a:	9500      	str	r5, [sp, #0]
 800357c:	f7fd f9d0 	bl	8000920 <oqObjectInit>
  SD1.usart = USART1;
 8003580:	4b13      	ldr	r3, [pc, #76]	; (80035d0 <sd_lld_init+0x80>)
  sdObjectInit(&SD5);
 8003582:	4620      	mov	r0, r4
  SD1.clock = STM32_USART1CLK;
 8003584:	e9c5 3615 	strd	r3, r6, [r5, #84]	; 0x54
  sdObjectInit(&SD5);
 8003588:	f7fd fb2a 	bl	8000be0 <sdObjectInit>
  iqObjectInit(&SD5.iqueue, sd_in_buf5, sizeof sd_in_buf5, NULL, &SD5);
 800358c:	f104 000c 	add.w	r0, r4, #12
 8003590:	2300      	movs	r3, #0
 8003592:	2210      	movs	r2, #16
 8003594:	490f      	ldr	r1, [pc, #60]	; (80035d4 <sd_lld_init+0x84>)
 8003596:	9400      	str	r4, [sp, #0]
 8003598:	f7fd f92a 	bl	80007f0 <iqObjectInit>
  oqObjectInit(&SD5.oqueue, sd_out_buf5, sizeof sd_out_buf5, notify5, &SD5);
 800359c:	4b0e      	ldr	r3, [pc, #56]	; (80035d8 <sd_lld_init+0x88>)
 800359e:	2210      	movs	r2, #16
 80035a0:	490e      	ldr	r1, [pc, #56]	; (80035dc <sd_lld_init+0x8c>)
 80035a2:	f104 0030 	add.w	r0, r4, #48	; 0x30
 80035a6:	9400      	str	r4, [sp, #0]
 80035a8:	f7fd f9ba 	bl	8000920 <oqObjectInit>
  SD5.usart = UART5;
 80035ac:	4b0c      	ldr	r3, [pc, #48]	; (80035e0 <sd_lld_init+0x90>)
 80035ae:	e9c4 3615 	strd	r3, r6, [r4, #84]	; 0x54
  LPSD1.clock = STM32_LPUART1CLK;
#if !defined(STM32_LPUART1_SUPPRESS_ISR) && defined(STM32_LPUART1_NUMBER)
  nvicEnableVector(STM32_LPUART1_NUMBER, STM32_SERIAL_LPUART1_PRIORITY);
#endif
#endif
}
 80035b2:	b002      	add	sp, #8
 80035b4:	bd70      	pop	{r4, r5, r6, pc}
 80035b6:	bf00      	nop
 80035b8:	2400075c 	.word	0x2400075c
 80035bc:	240007bc 	.word	0x240007bc
 80035c0:	05f5e100 	.word	0x05f5e100
 80035c4:	2400081c 	.word	0x2400081c
 80035c8:	2400083c 	.word	0x2400083c
 80035cc:	08003531 	.word	0x08003531
 80035d0:	40011000 	.word	0x40011000
 80035d4:	2400082c 	.word	0x2400082c
 80035d8:	08003541 	.word	0x08003541
 80035dc:	2400084c 	.word	0x2400084c
 80035e0:	40005000 	.word	0x40005000
	...

080035f0 <sd_lld_start>:
 *                      If this parameter is set to @p NULL then a default
 *                      configuration is used.
 *
 * @notapi
 */
void sd_lld_start(SerialDriver *sdp, const SerialConfig *config) {
 80035f0:	e92d 41f0 	stmdb	sp!, {r4, r5, r6, r7, r8, lr}

  if (config == NULL)
 80035f4:	2900      	cmp	r1, #0
 80035f6:	d036      	beq.n	8003666 <sd_lld_start+0x76>
    config = &default_config;

  if (sdp->state == SD_STOP) {
 80035f8:	7a03      	ldrb	r3, [r0, #8]
                         USART_CR1_RXNEIE | USART_CR1_TE |
 80035fa:	f240 162d 	movw	r6, #301	; 0x12d
    brr = (uint32_t)((clock + config->speed/2) / config->speed);
 80035fe:	e9d1 c200 	ldrd	ip, r2, [r1]
  u->CR3 = config->cr3 | USART_CR3_EIE;
 8003602:	e9d1 7502 	ldrd	r7, r5, [r1, #8]
  if (sdp->state == SD_STOP) {
 8003606:	2b01      	cmp	r3, #1
                         USART_CR1_RXNEIE | USART_CR1_TE |
 8003608:	ea46 0602 	orr.w	r6, r6, r2
    brr = (uint32_t)((clock + config->speed/2) / config->speed);
 800360c:	ea4f 035c 	mov.w	r3, ip, lsr #1
  u->CR2 = config->cr2 | USART_CR2_LBDIE;
 8003610:	f047 0740 	orr.w	r7, r7, #64	; 0x40
  u->CR3 = config->cr3 | USART_CR3_EIE;
 8003614:	f045 0501 	orr.w	r5, r5, #1
    if (config->cr1 & USART_CR1_OVER8)
 8003618:	f402 4e00 	and.w	lr, r2, #32768	; 0x8000
  if ((config->cr1 & USART_CR1_PCE) != 0U) {
 800361c:	f402 6180 	and.w	r1, r2, #1024	; 0x400
  if (sdp->state == SD_STOP) {
 8003620:	d045      	beq.n	80036ae <sd_lld_start+0xbe>
    brr = (uint32_t)((clock + config->speed/2) / config->speed);
 8003622:	6d84      	ldr	r4, [r0, #88]	; 0x58
 8003624:	4423      	add	r3, r4
  USART_TypeDef *u = sdp->usart;
 8003626:	6d44      	ldr	r4, [r0, #84]	; 0x54
    brr = (uint32_t)((clock + config->speed/2) / config->speed);
 8003628:	fbb3 f3fc 	udiv	r3, r3, ip
    if (config->cr1 & USART_CR1_OVER8)
 800362c:	f1be 0f00 	cmp.w	lr, #0
 8003630:	d005      	beq.n	800363e <sd_lld_start+0x4e>
      brr = ((brr & ~7) * 2) | (brr & 7);
 8003632:	f023 0c07 	bic.w	ip, r3, #7
 8003636:	f003 0307 	and.w	r3, r3, #7
 800363a:	ea43 034c 	orr.w	r3, r3, ip, lsl #1
  u->BRR = brr;
 800363e:	60e3      	str	r3, [r4, #12]
  u->ICR = 0xFFFFFFFFU;
 8003640:	f04f 33ff 	mov.w	r3, #4294967295
  u->CR2 = config->cr2 | USART_CR2_LBDIE;
 8003644:	6067      	str	r7, [r4, #4]
  u->CR3 = config->cr3 | USART_CR3_EIE;
 8003646:	60a5      	str	r5, [r4, #8]
  u->CR1 = config->cr1 | USART_CR1_UE | USART_CR1_PEIE |
 8003648:	6026      	str	r6, [r4, #0]
  u->ICR = 0xFFFFFFFFU;
 800364a:	6223      	str	r3, [r4, #32]
  if ((config->cr1 & USART_CR1_PCE) != 0U) {
 800364c:	b309      	cbz	r1, 8003692 <sd_lld_start+0xa2>
    switch (config->cr1 & (USART_CR1_M_1 | USART_CR1_M_0)) {
 800364e:	f012 2210 	ands.w	r2, r2, #268439552	; 0x10001000
 8003652:	d04a      	beq.n	80036ea <sd_lld_start+0xfa>
 8003654:	f1b2 5f80 	cmp.w	r2, #268435456	; 0x10000000
 8003658:	bf14      	ite	ne
 800365a:	23ff      	movne	r3, #255	; 0xff
 800365c:	233f      	moveq	r3, #63	; 0x3f
      sdp->rxmask = 0x7F;
 800365e:	f880 305c 	strb.w	r3, [r0, #92]	; 0x5c
      rccEnableLPUART1(true);
    }
#endif
  }
  usart_init(sdp, config);
}
 8003662:	e8bd 81f0 	ldmia.w	sp!, {r4, r5, r6, r7, r8, pc}
  if (sdp->state == SD_STOP) {
 8003666:	7a05      	ldrb	r5, [r0, #8]
 8003668:	2d01      	cmp	r5, #1
 800366a:	d017      	beq.n	800369c <sd_lld_start+0xac>
    brr = (uint32_t)((clock + config->speed/2) / config->speed);
 800366c:	6d83      	ldr	r3, [r0, #88]	; 0x58
  u->CR2 = config->cr2 | USART_CR2_LBDIE;
 800366e:	2440      	movs	r4, #64	; 0x40
    brr = (uint32_t)((clock + config->speed/2) / config->speed);
 8003670:	492c      	ldr	r1, [pc, #176]	; (8003724 <sd_lld_start+0x134>)
 8003672:	f503 4396 	add.w	r3, r3, #19200	; 0x4b00
  USART_TypeDef *u = sdp->usart;
 8003676:	6d42      	ldr	r2, [r0, #84]	; 0x54
    brr = (uint32_t)((clock + config->speed/2) / config->speed);
 8003678:	fba1 1303 	umull	r1, r3, r1, r3
  u->CR1 = config->cr1 | USART_CR1_UE | USART_CR1_PEIE |
 800367c:	f240 112d 	movw	r1, #301	; 0x12d
    brr = (uint32_t)((clock + config->speed/2) / config->speed);
 8003680:	0b1b      	lsrs	r3, r3, #12
  u->BRR = brr;
 8003682:	60d3      	str	r3, [r2, #12]
  u->CR3 = config->cr3 | USART_CR3_EIE;
 8003684:	2301      	movs	r3, #1
  u->CR2 = config->cr2 | USART_CR2_LBDIE;
 8003686:	6054      	str	r4, [r2, #4]
  u->CR3 = config->cr3 | USART_CR3_EIE;
 8003688:	6093      	str	r3, [r2, #8]
  u->ICR = 0xFFFFFFFFU;
 800368a:	f04f 33ff 	mov.w	r3, #4294967295
  u->CR1 = config->cr1 | USART_CR1_UE | USART_CR1_PEIE |
 800368e:	6011      	str	r1, [r2, #0]
  u->ICR = 0xFFFFFFFFU;
 8003690:	6213      	str	r3, [r2, #32]
    switch (config->cr1 & (USART_CR1_M_1 | USART_CR1_M_0)) {
 8003692:	23ff      	movs	r3, #255	; 0xff
      sdp->rxmask = 0x7F;
 8003694:	f880 305c 	strb.w	r3, [r0, #92]	; 0x5c
}
 8003698:	e8bd 81f0 	ldmia.w	sp!, {r4, r5, r6, r7, r8, pc}
  if (sdp->state == SD_STOP) {
 800369c:	f240 162d 	movw	r6, #301	; 0x12d
 80036a0:	2740      	movs	r7, #64	; 0x40
 80036a2:	468e      	mov	lr, r1
 80036a4:	460a      	mov	r2, r1
 80036a6:	f44f 4396 	mov.w	r3, #19200	; 0x4b00
 80036aa:	f44f 4c16 	mov.w	ip, #38400	; 0x9600
    if (&SD1 == sdp) {
 80036ae:	4c1e      	ldr	r4, [pc, #120]	; (8003728 <sd_lld_start+0x138>)
 80036b0:	42a0      	cmp	r0, r4
 80036b2:	d01f      	beq.n	80036f4 <sd_lld_start+0x104>
    if (&SD5 == sdp) {
 80036b4:	4c1d      	ldr	r4, [pc, #116]	; (800372c <sd_lld_start+0x13c>)
 80036b6:	42a0      	cmp	r0, r4
 80036b8:	d1b3      	bne.n	8003622 <sd_lld_start+0x32>
  RCC_C1->APB1LENR |= mask;
 80036ba:	4c1d      	ldr	r4, [pc, #116]	; (8003730 <sd_lld_start+0x140>)
 80036bc:	f8d4 80e8 	ldr.w	r8, [r4, #232]	; 0xe8
 80036c0:	f448 1880 	orr.w	r8, r8, #1048576	; 0x100000
 80036c4:	f8c4 80e8 	str.w	r8, [r4, #232]	; 0xe8
    RCC_C1->APB1LLPENR |= mask;
 80036c8:	f8d4 8110 	ldr.w	r8, [r4, #272]	; 0x110
 80036cc:	f448 1880 	orr.w	r8, r8, #1048576	; 0x100000
 80036d0:	f8c4 8110 	str.w	r8, [r4, #272]	; 0x110
  (void)RCC_C1->APB1LLPENR;
 80036d4:	f8d4 4110 	ldr.w	r4, [r4, #272]	; 0x110
    brr = (uint32_t)((clock + config->speed/2) / config->speed);
 80036d8:	6d84      	ldr	r4, [r0, #88]	; 0x58
 80036da:	4423      	add	r3, r4
  USART_TypeDef *u = sdp->usart;
 80036dc:	6d44      	ldr	r4, [r0, #84]	; 0x54
    brr = (uint32_t)((clock + config->speed/2) / config->speed);
 80036de:	fbb3 f3fc 	udiv	r3, r3, ip
    if (config->cr1 & USART_CR1_OVER8)
 80036e2:	f1be 0f00 	cmp.w	lr, #0
 80036e6:	d1a4      	bne.n	8003632 <sd_lld_start+0x42>
 80036e8:	e7a9      	b.n	800363e <sd_lld_start+0x4e>
    switch (config->cr1 & (USART_CR1_M_1 | USART_CR1_M_0)) {
 80036ea:	237f      	movs	r3, #127	; 0x7f
      sdp->rxmask = 0x7F;
 80036ec:	f880 305c 	strb.w	r3, [r0, #92]	; 0x5c
}
 80036f0:	e8bd 81f0 	ldmia.w	sp!, {r4, r5, r6, r7, r8, pc}
  RCC_C1->APB2ENR |= mask;
 80036f4:	4c0e      	ldr	r4, [pc, #56]	; (8003730 <sd_lld_start+0x140>)
 80036f6:	f8d4 80f0 	ldr.w	r8, [r4, #240]	; 0xf0
 80036fa:	f048 0810 	orr.w	r8, r8, #16
 80036fe:	f8c4 80f0 	str.w	r8, [r4, #240]	; 0xf0
    RCC_C1->APB2LPENR |= mask;
 8003702:	f8d4 8118 	ldr.w	r8, [r4, #280]	; 0x118
 8003706:	f048 0810 	orr.w	r8, r8, #16
 800370a:	f8c4 8118 	str.w	r8, [r4, #280]	; 0x118
  (void)RCC_C1->APB2LPENR;
 800370e:	f8d4 4118 	ldr.w	r4, [r4, #280]	; 0x118
    brr = (uint32_t)((clock + config->speed/2) / config->speed);
 8003712:	6d84      	ldr	r4, [r0, #88]	; 0x58
 8003714:	4423      	add	r3, r4
  USART_TypeDef *u = sdp->usart;
 8003716:	6d44      	ldr	r4, [r0, #84]	; 0x54
    brr = (uint32_t)((clock + config->speed/2) / config->speed);
 8003718:	fbb3 f3fc 	udiv	r3, r3, ip
    if (config->cr1 & USART_CR1_OVER8)
 800371c:	f1be 0f00 	cmp.w	lr, #0
 8003720:	d187      	bne.n	8003632 <sd_lld_start+0x42>
 8003722:	e78c      	b.n	800363e <sd_lld_start+0x4e>
 8003724:	1b4e81b5 	.word	0x1b4e81b5
 8003728:	2400075c 	.word	0x2400075c
 800372c:	240007bc 	.word	0x240007bc
 8003730:	58024400 	.word	0x58024400
	...

08003740 <sd_lld_serve_interrupt>:
/**
 * @brief   Common IRQ handler.
 *
 * @param[in] sdp       communication channel associated to the USART
 */
void sd_lld_serve_interrupt(SerialDriver *sdp) {
 8003740:	e92d 47f0 	stmdb	sp!, {r4, r5, r6, r7, r8, r9, sl, lr}
  USART_TypeDef *u = sdp->usart;
 8003744:	6d45      	ldr	r5, [r0, #84]	; 0x54
void sd_lld_serve_interrupt(SerialDriver *sdp) {
 8003746:	4606      	mov	r6, r0
  uint32_t cr1;
  uint32_t isr;

  /* Reading and clearing status.*/
  isr = u->ISR;
 8003748:	69ec      	ldr	r4, [r5, #28]
  u->ICR = isr;

  /* Error condition detection.*/
  if (isr & (USART_ISR_ORE | USART_ISR_NE | USART_ISR_FE  | USART_ISR_PE))
 800374a:	0722      	lsls	r2, r4, #28
  u->ICR = isr;
 800374c:	622c      	str	r4, [r5, #32]
  if (isr & (USART_ISR_ORE | USART_ISR_NE | USART_ISR_FE  | USART_ISR_PE))
 800374e:	d156      	bne.n	80037fe <sd_lld_serve_interrupt+0xbe>
    set_error(sdp, isr);

  /* Special case, LIN break detection.*/
  if (isr & USART_ISR_LBDF) {
 8003750:	05e2      	lsls	r2, r4, #23
 8003752:	d448      	bmi.n	80037e6 <sd_lld_serve_interrupt+0xa6>
  /* Data available, note it is a while in order to handle two situations:
     1) Another byte arrived after removing the previous one, this would cause
        an extra interrupt to serve.
     2) FIFO mode is enabled on devices that support it, we need to empty
        the FIFO.*/
  while (isr & USART_ISR_RXNE) {
 8003754:	06a0      	lsls	r0, r4, #26
 8003756:	d510      	bpl.n	800377a <sd_lld_serve_interrupt+0x3a>
 8003758:	f04f 0830 	mov.w	r8, #48	; 0x30
 800375c:	2700      	movs	r7, #0
 800375e:	f388 8811 	msr	BASEPRI, r8
    osalSysLockFromISR();
    sdIncomingDataI(sdp, (uint8_t)u->RDR & sdp->rxmask);
 8003762:	6a6b      	ldr	r3, [r5, #36]	; 0x24
 8003764:	4630      	mov	r0, r6
 8003766:	f896 105c 	ldrb.w	r1, [r6, #92]	; 0x5c
 800376a:	4019      	ands	r1, r3
 800376c:	f7fd fa58 	bl	8000c20 <sdIncomingDataI>
 8003770:	f387 8811 	msr	BASEPRI, r7
    osalSysUnlockFromISR();

    isr = u->ISR;
 8003774:	69ec      	ldr	r4, [r5, #28]
  while (isr & USART_ISR_RXNE) {
 8003776:	06a3      	lsls	r3, r4, #26
 8003778:	d4f1      	bmi.n	800375e <sd_lld_serve_interrupt+0x1e>
  }

  /* Caching CR1.*/
  cr1 = u->CR1;
 800377a:	f8d5 a000 	ldr.w	sl, [r5]
     situations:
     1) The data registers has been emptied immediately after writing it, this
        would cause an extra interrupt to serve.
     2) FIFO mode is enabled on devices that support it, we need to fill
        the FIFO.*/
  if (cr1 & USART_CR1_TXEIE) {
 800377e:	f01a 0f80 	tst.w	sl, #128	; 0x80
 8003782:	d01d      	beq.n	80037c0 <sd_lld_serve_interrupt+0x80>
    while (isr & USART_ISR_TXE) {
 8003784:	0621      	lsls	r1, r4, #24
 8003786:	d51b      	bpl.n	80037c0 <sd_lld_serve_interrupt+0x80>
      msg_t b;

      osalSysLockFromISR();
      b = oqGetI(&sdp->oqueue);
 8003788:	f106 0830 	add.w	r8, r6, #48	; 0x30
 800378c:	2730      	movs	r7, #48	; 0x30
 800378e:	f04f 0900 	mov.w	r9, #0
 8003792:	e005      	b.n	80037a0 <sd_lld_serve_interrupt+0x60>
        chnAddFlagsI(sdp, CHN_OUTPUT_EMPTY);
        cr1 &= ~USART_CR1_TXEIE;
        osalSysUnlockFromISR();
        break;
      }
      u->TDR = b;
 8003794:	62a8      	str	r0, [r5, #40]	; 0x28
 8003796:	f389 8811 	msr	BASEPRI, r9
      osalSysUnlockFromISR();

      isr = u->ISR;
 800379a:	69ec      	ldr	r4, [r5, #28]
    while (isr & USART_ISR_TXE) {
 800379c:	0622      	lsls	r2, r4, #24
 800379e:	d50f      	bpl.n	80037c0 <sd_lld_serve_interrupt+0x80>
 80037a0:	f387 8811 	msr	BASEPRI, r7
      b = oqGetI(&sdp->oqueue);
 80037a4:	4640      	mov	r0, r8
 80037a6:	f7fd f8fb 	bl	80009a0 <oqGetI>
      if (b < MSG_OK) {
 80037aa:	2800      	cmp	r0, #0
 80037ac:	daf2      	bge.n	8003794 <sd_lld_serve_interrupt+0x54>
  chEvtBroadcastFlagsI(esp, flags);
 80037ae:	2108      	movs	r1, #8
 80037b0:	1d30      	adds	r0, r6, #4
 80037b2:	f000 fe3d 	bl	8004430 <chEvtBroadcastFlagsI>
        cr1 &= ~USART_CR1_TXEIE;
 80037b6:	f02a 0a80 	bic.w	sl, sl, #128	; 0x80
 80037ba:	2300      	movs	r3, #0
 80037bc:	f383 8811 	msr	BASEPRI, r3
    }
  }

  /* Physical transmission end.*/
  if ((cr1 & USART_CR1_TCIE) && (isr & USART_ISR_TC)) {
 80037c0:	f01a 0f40 	tst.w	sl, #64	; 0x40
 80037c4:	d00b      	beq.n	80037de <sd_lld_serve_interrupt+0x9e>
 80037c6:	0663      	lsls	r3, r4, #25
 80037c8:	d509      	bpl.n	80037de <sd_lld_serve_interrupt+0x9e>
 80037ca:	2330      	movs	r3, #48	; 0x30
 80037cc:	f383 8811 	msr	BASEPRI, r3
    osalSysLockFromISR();
    if (oqIsEmptyI(&sdp->oqueue)) {
 80037d0:	e9d6 2311 	ldrd	r2, r3, [r6, #68]	; 0x44
 80037d4:	429a      	cmp	r2, r3
 80037d6:	d02d      	beq.n	8003834 <sd_lld_serve_interrupt+0xf4>
 80037d8:	2300      	movs	r3, #0
 80037da:	f383 8811 	msr	BASEPRI, r3
    }
    osalSysUnlockFromISR();
  }

  /* Writing CR1 once.*/
  u->CR1 = cr1;
 80037de:	f8c5 a000 	str.w	sl, [r5]
}
 80037e2:	e8bd 87f0 	ldmia.w	sp!, {r4, r5, r6, r7, r8, r9, sl, pc}
 80037e6:	2330      	movs	r3, #48	; 0x30
 80037e8:	f383 8811 	msr	BASEPRI, r3
 80037ec:	f44f 6180 	mov.w	r1, #1024	; 0x400
 80037f0:	1d30      	adds	r0, r6, #4
 80037f2:	f000 fe1d 	bl	8004430 <chEvtBroadcastFlagsI>
 80037f6:	2300      	movs	r3, #0
 80037f8:	f383 8811 	msr	BASEPRI, r3
}
 80037fc:	e7aa      	b.n	8003754 <sd_lld_serve_interrupt+0x14>
  if (isr & USART_ISR_ORE)
 80037fe:	f3c4 01c0 	ubfx	r1, r4, #3, #1
  if (isr & USART_ISR_PE)
 8003802:	07e3      	lsls	r3, r4, #31
 8003804:	f04f 0330 	mov.w	r3, #48	; 0x30
  if (isr & USART_ISR_ORE)
 8003808:	ea4f 2101 	mov.w	r1, r1, lsl #8
    sts |= SD_PARITY_ERROR;
 800380c:	bf48      	it	mi
 800380e:	f041 0120 	orrmi.w	r1, r1, #32
  if (isr & USART_ISR_FE)
 8003812:	07a7      	lsls	r7, r4, #30
    sts |= SD_FRAMING_ERROR;
 8003814:	bf48      	it	mi
 8003816:	f041 0140 	orrmi.w	r1, r1, #64	; 0x40
  if (isr & USART_ISR_NE)
 800381a:	0760      	lsls	r0, r4, #29
    sts |= SD_NOISE_ERROR;
 800381c:	bf48      	it	mi
 800381e:	f041 0180 	orrmi.w	r1, r1, #128	; 0x80
 8003822:	f383 8811 	msr	BASEPRI, r3
  chEvtBroadcastFlagsI(esp, flags);
 8003826:	1d30      	adds	r0, r6, #4
 8003828:	f000 fe02 	bl	8004430 <chEvtBroadcastFlagsI>
 800382c:	2300      	movs	r3, #0
 800382e:	f383 8811 	msr	BASEPRI, r3
}
 8003832:	e78d      	b.n	8003750 <sd_lld_serve_interrupt+0x10>
    if (oqIsEmptyI(&sdp->oqueue)) {
 8003834:	6bb3      	ldr	r3, [r6, #56]	; 0x38
 8003836:	2b00      	cmp	r3, #0
 8003838:	d0ce      	beq.n	80037d8 <sd_lld_serve_interrupt+0x98>
 800383a:	2110      	movs	r1, #16
 800383c:	1d30      	adds	r0, r6, #4
      cr1 &= ~USART_CR1_TCIE;
 800383e:	f02a 0a40 	bic.w	sl, sl, #64	; 0x40
 8003842:	f000 fdf5 	bl	8004430 <chEvtBroadcastFlagsI>
 8003846:	e7c7      	b.n	80037d8 <sd_lld_serve_interrupt+0x98>
	...

08003850 <__early_init>:
  RCC->AHB4RSTR |= mask;
 8003850:	4a6f      	ldr	r2, [pc, #444]	; (8003a10 <__early_init+0x1c0>)
 8003852:	f240 70ff 	movw	r0, #2047	; 0x7ff
/* Driver local functions.                                                   */
/*===========================================================================*/

static void gpio_init(stm32_gpio_t *gpiop, const gpio_setup_t *config) {

  gpiop->OTYPER  = config->otyper;
 8003856:	2300      	movs	r3, #0
 8003858:	f8d2 1088 	ldr.w	r1, [r2, #136]	; 0x88
 800385c:	4301      	orrs	r1, r0
/**
 * @brief   Early initialization code.
 * @details GPIO ports and system clocks are initialized before everything
 *          else.
 */
void __early_init(void) {
 800385e:	b430      	push	{r4, r5}
 8003860:	f8c2 1088 	str.w	r1, [r2, #136]	; 0x88
  RCC->AHB4RSTR &= ~mask;
 8003864:	4c6b      	ldr	r4, [pc, #428]	; (8003a14 <__early_init+0x1c4>)
 8003866:	f8d2 1088 	ldr.w	r1, [r2, #136]	; 0x88
  gpiop->OSPEEDR = config->ospeedr;
 800386a:	4d6b      	ldr	r5, [pc, #428]	; (8003a18 <__early_init+0x1c8>)
 800386c:	400c      	ands	r4, r1
  gpiop->OTYPER  = config->otyper;
 800386e:	496b      	ldr	r1, [pc, #428]	; (8003a1c <__early_init+0x1cc>)
 8003870:	f8c2 4088 	str.w	r4, [r2, #136]	; 0x88
  (void)RCC->AHB4RSTR;
 8003874:	f8d2 4088 	ldr.w	r4, [r2, #136]	; 0x88
 */
__STATIC_INLINE void rccEnableAHB4(uint32_t mask, bool lp) {

#if STM32_TARGET_CORE == 1
  /* Allocating and enabling the peripherals.*/
  RCC_C1->AHB4ENR |= mask;
 8003878:	f8d2 40e0 	ldr.w	r4, [r2, #224]	; 0xe0
 800387c:	4304      	orrs	r4, r0
 800387e:	f8c2 40e0 	str.w	r4, [r2, #224]	; 0xe0
  if (lp) {
    RCC_C1->AHB4LPENR |= mask;
 8003882:	f8d2 4108 	ldr.w	r4, [r2, #264]	; 0x108
 8003886:	4304      	orrs	r4, r0
 8003888:	4865      	ldr	r0, [pc, #404]	; (8003a20 <__early_init+0x1d0>)
 800388a:	f8c2 4108 	str.w	r4, [r2, #264]	; 0x108
  gpiop->ODR     = config->odr;
 800388e:	2480      	movs	r4, #128	; 0x80
  }
  else {
    RCC_C1->AHB4LPENR &= ~mask;
  }
  (void)RCC_C1->AHB4LPENR;
 8003890:	f8d2 2108 	ldr.w	r2, [r2, #264]	; 0x108
 8003894:	f44f 42c0 	mov.w	r2, #24576	; 0x6000
  gpiop->OTYPER  = config->otyper;
 8003898:	604b      	str	r3, [r1, #4]
  gpiop->OSPEEDR = config->ospeedr;
 800389a:	608d      	str	r5, [r1, #8]
  gpiop->PUPDR   = config->pupdr;
 800389c:	60cb      	str	r3, [r1, #12]
  gpiop->ODR     = config->odr;
 800389e:	614a      	str	r2, [r1, #20]
  gpiop->AFRL    = config->afrl;
 80038a0:	220a      	movs	r2, #10
 80038a2:	4d60      	ldr	r5, [pc, #384]	; (8003a24 <__early_init+0x1d4>)
 80038a4:	620a      	str	r2, [r1, #32]
  gpiop->AFRH    = config->afrh;
 80038a6:	4a60      	ldr	r2, [pc, #384]	; (8003a28 <__early_init+0x1d8>)
 80038a8:	624a      	str	r2, [r1, #36]	; 0x24
  gpiop->MODER   = config->moder;
 80038aa:	4a60      	ldr	r2, [pc, #384]	; (8003a2c <__early_init+0x1dc>)
 80038ac:	600a      	str	r2, [r1, #0]
  gpiop->OTYPER  = config->otyper;
 80038ae:	f44f 6240 	mov.w	r2, #3072	; 0xc00
 80038b2:	6042      	str	r2, [r0, #4]
  gpiop->OSPEEDR = config->ospeedr;
 80038b4:	4a5e      	ldr	r2, [pc, #376]	; (8003a30 <__early_init+0x1e0>)
 80038b6:	6082      	str	r2, [r0, #8]
  gpiop->PUPDR   = config->pupdr;
 80038b8:	f44f 02a0 	mov.w	r2, #5242880	; 0x500000
 80038bc:	60c2      	str	r2, [r0, #12]
  gpiop->AFRL    = config->afrl;
 80038be:	f502 12b3 	add.w	r2, r2, #1466368	; 0x166000
  gpiop->ODR     = config->odr;
 80038c2:	6144      	str	r4, [r0, #20]
  gpiop->AFRL    = config->afrl;
 80038c4:	6202      	str	r2, [r0, #32]
  gpiop->AFRH    = config->afrh;
 80038c6:	4a5b      	ldr	r2, [pc, #364]	; (8003a34 <__early_init+0x1e4>)
 80038c8:	6242      	str	r2, [r0, #36]	; 0x24
  gpiop->MODER   = config->moder;
 80038ca:	4a5b      	ldr	r2, [pc, #364]	; (8003a38 <__early_init+0x1e8>)
 80038cc:	6002      	str	r2, [r0, #0]
  gpiop->OSPEEDR = config->ospeedr;
 80038ce:	485b      	ldr	r0, [pc, #364]	; (8003a3c <__early_init+0x1ec>)
  gpiop->OTYPER  = config->otyper;
 80038d0:	f8c1 3804 	str.w	r3, [r1, #2052]	; 0x804
  gpiop->OSPEEDR = config->ospeedr;
 80038d4:	f8c1 0808 	str.w	r0, [r1, #2056]	; 0x808
  gpiop->PUPDR   = config->pupdr;
 80038d8:	f44f 3080 	mov.w	r0, #65536	; 0x10000
  gpiop->OTYPER  = config->otyper;
 80038dc:	4a58      	ldr	r2, [pc, #352]	; (8003a40 <__early_init+0x1f0>)
  gpiop->PUPDR   = config->pupdr;
 80038de:	f8c1 080c 	str.w	r0, [r1, #2060]	; 0x80c
  gpiop->ODR     = config->odr;
 80038e2:	f44f 6000 	mov.w	r0, #2048	; 0x800
 80038e6:	f8c1 0814 	str.w	r0, [r1, #2068]	; 0x814
  gpiop->AFRH    = config->afrh;
 80038ea:	f04f 1006 	mov.w	r0, #393222	; 0x60006
  gpiop->AFRL    = config->afrl;
 80038ee:	f8c1 3820 	str.w	r3, [r1, #2080]	; 0x820
  gpiop->AFRH    = config->afrh;
 80038f2:	f8c1 0824 	str.w	r0, [r1, #2084]	; 0x824
  gpiop->MODER   = config->moder;
 80038f6:	4853      	ldr	r0, [pc, #332]	; (8003a44 <__early_init+0x1f4>)
 80038f8:	f8c1 0800 	str.w	r0, [r1, #2048]	; 0x800
  gpiop->ODR     = config->odr;
 80038fc:	2040      	movs	r0, #64	; 0x40
  gpiop->OSPEEDR = config->ospeedr;
 80038fe:	4952      	ldr	r1, [pc, #328]	; (8003a48 <__early_init+0x1f8>)
  gpiop->OTYPER  = config->otyper;
 8003900:	6053      	str	r3, [r2, #4]
  gpiop->OSPEEDR = config->ospeedr;
 8003902:	6091      	str	r1, [r2, #8]
  gpiop->PUPDR   = config->pupdr;
 8003904:	2110      	movs	r1, #16
 8003906:	60d1      	str	r1, [r2, #12]
  gpiop->AFRL    = config->afrl;
 8003908:	4950      	ldr	r1, [pc, #320]	; (8003a4c <__early_init+0x1fc>)
  gpiop->ODR     = config->odr;
 800390a:	6150      	str	r0, [r2, #20]
  gpiop->AFRL    = config->afrl;
 800390c:	6211      	str	r1, [r2, #32]
  gpiop->AFRH    = config->afrh;
 800390e:	4950      	ldr	r1, [pc, #320]	; (8003a50 <__early_init+0x200>)
 8003910:	6251      	str	r1, [r2, #36]	; 0x24
  gpiop->MODER   = config->moder;
 8003912:	4950      	ldr	r1, [pc, #320]	; (8003a54 <__early_init+0x204>)
 8003914:	6011      	str	r1, [r2, #0]
  gpiop->OTYPER  = config->otyper;
 8003916:	f502 6280 	add.w	r2, r2, #1024	; 0x400
  gpiop->OSPEEDR = config->ospeedr;
 800391a:	494f      	ldr	r1, [pc, #316]	; (8003a58 <__early_init+0x208>)
  gpiop->OTYPER  = config->otyper;
 800391c:	6053      	str	r3, [r2, #4]
  gpiop->OSPEEDR = config->ospeedr;
 800391e:	6091      	str	r1, [r2, #8]
  gpiop->ODR     = config->odr;
 8003920:	2104      	movs	r1, #4
  gpiop->PUPDR   = config->pupdr;
 8003922:	60d3      	str	r3, [r2, #12]
  gpiop->ODR     = config->odr;
 8003924:	6151      	str	r1, [r2, #20]
  gpiop->AFRL    = config->afrl;
 8003926:	494d      	ldr	r1, [pc, #308]	; (8003a5c <__early_init+0x20c>)
 8003928:	6211      	str	r1, [r2, #32]
  gpiop->AFRH    = config->afrh;
 800392a:	f04f 31cc 	mov.w	r1, #3435973836	; 0xcccccccc
 800392e:	6251      	str	r1, [r2, #36]	; 0x24
  gpiop->MODER   = config->moder;
 8003930:	f101 415e 	add.w	r1, r1, #3724541952	; 0xde000000
 8003934:	f5a1 1108 	sub.w	r1, r1, #2228224	; 0x220000
 8003938:	f6a1 41f2 	subw	r1, r1, #3314	; 0xcf2
 800393c:	6011      	str	r1, [r2, #0]
  gpiop->OSPEEDR = config->ospeedr;
 800393e:	4948      	ldr	r1, [pc, #288]	; (8003a60 <__early_init+0x210>)
  gpiop->OTYPER  = config->otyper;
 8003940:	f8c2 3404 	str.w	r3, [r2, #1028]	; 0x404
  gpiop->OSPEEDR = config->ospeedr;
 8003944:	f8c2 1408 	str.w	r1, [r2, #1032]	; 0x408
  gpiop->PUPDR   = config->pupdr;
 8003948:	f8c2 340c 	str.w	r3, [r2, #1036]	; 0x40c
  gpiop->ODR     = config->odr;
 800394c:	f8c2 0414 	str.w	r0, [r2, #1044]	; 0x414
  gpiop->AFRH    = config->afrh;
 8003950:	4844      	ldr	r0, [pc, #272]	; (8003a64 <__early_init+0x214>)
  gpiop->AFRL    = config->afrl;
 8003952:	f8c2 5420 	str.w	r5, [r2, #1056]	; 0x420
  gpiop->MODER   = config->moder;
 8003956:	f46f 75d5 	mvn.w	r5, #426	; 0x1aa
  gpiop->AFRH    = config->afrh;
 800395a:	f8c2 0424 	str.w	r0, [r2, #1060]	; 0x424
  gpiop->MODER   = config->moder;
 800395e:	f1a0 5009 	sub.w	r0, r0, #574619648	; 0x22400000
  gpiop->OTYPER  = config->otyper;
 8003962:	4941      	ldr	r1, [pc, #260]	; (8003a68 <__early_init+0x218>)
  gpiop->MODER   = config->moder;
 8003964:	f5a0 3009 	sub.w	r0, r0, #140288	; 0x22400
 8003968:	4428      	add	r0, r5
  gpiop->OSPEEDR = config->ospeedr;
 800396a:	f644 45f0 	movw	r5, #19696	; 0x4cf0
  gpiop->MODER   = config->moder;
 800396e:	f8c2 0400 	str.w	r0, [r2, #1024]	; 0x400
  gpiop->OTYPER  = config->otyper;
 8003972:	f502 6240 	add.w	r2, r2, #3072	; 0xc00
  gpiop->OSPEEDR = config->ospeedr;
 8003976:	483d      	ldr	r0, [pc, #244]	; (8003a6c <__early_init+0x21c>)
  gpiop->OTYPER  = config->otyper;
 8003978:	604b      	str	r3, [r1, #4]
  gpiop->OSPEEDR = config->ospeedr;
 800397a:	6088      	str	r0, [r1, #8]
  gpiop->ODR     = config->odr;
 800397c:	f44f 6080 	mov.w	r0, #1024	; 0x400
  gpiop->PUPDR   = config->pupdr;
 8003980:	60cb      	str	r3, [r1, #12]
  gpiop->ODR     = config->odr;
 8003982:	6148      	str	r0, [r1, #20]
  gpiop->AFRL    = config->afrl;
 8003984:	483a      	ldr	r0, [pc, #232]	; (8003a70 <__early_init+0x220>)
 8003986:	6208      	str	r0, [r1, #32]
  gpiop->AFRH    = config->afrh;
 8003988:	483a      	ldr	r0, [pc, #232]	; (8003a74 <__early_init+0x224>)
 800398a:	6248      	str	r0, [r1, #36]	; 0x24
  gpiop->MODER   = config->moder;
 800398c:	f1a0 50d5 	sub.w	r0, r0, #446693376	; 0x1aa00000
 8003990:	f5a0 10d4 	sub.w	r0, r0, #1736704	; 0x1a8000
 8003994:	f2a0 5072 	subw	r0, r0, #1394	; 0x572
 8003998:	6008      	str	r0, [r1, #0]
  gpiop->OTYPER  = config->otyper;
 800399a:	6053      	str	r3, [r2, #4]
  gpiop->OSPEEDR = config->ospeedr;
 800399c:	6095      	str	r5, [r2, #8]
  gpiop->PUPDR   = config->pupdr;
 800399e:	60d3      	str	r3, [r2, #12]
  gpiop->ODR     = config->odr;
 80039a0:	6154      	str	r4, [r2, #20]
  gpiop->AFRL    = config->afrl;
 80039a2:	4c35      	ldr	r4, [pc, #212]	; (8003a78 <__early_init+0x228>)
  gpiop->OTYPER  = config->otyper;
 80039a4:	4835      	ldr	r0, [pc, #212]	; (8003a7c <__early_init+0x22c>)
  gpiop->AFRL    = config->afrl;
 80039a6:	6214      	str	r4, [r2, #32]
  gpiop->OSPEEDR = config->ospeedr;
 80039a8:	4d35      	ldr	r5, [pc, #212]	; (8003a80 <__early_init+0x230>)
  gpiop->MODER   = config->moder;
 80039aa:	4c36      	ldr	r4, [pc, #216]	; (8003a84 <__early_init+0x234>)
  gpiop->AFRH    = config->afrh;
 80039ac:	6253      	str	r3, [r2, #36]	; 0x24
  gpiop->MODER   = config->moder;
 80039ae:	6014      	str	r4, [r2, #0]
 80039b0:	f04f 34ff 	mov.w	r4, #4294967295
  gpiop->OTYPER  = config->otyper;
 80039b4:	6043      	str	r3, [r0, #4]
  gpiop->OSPEEDR = config->ospeedr;
 80039b6:	6085      	str	r5, [r0, #8]
  gpiop->AFRL    = config->afrl;
 80039b8:	f1a5 45ab 	sub.w	r5, r5, #1434451968	; 0x55800000
  gpiop->PUPDR   = config->pupdr;
 80039bc:	60c3      	str	r3, [r0, #12]
  gpiop->AFRL    = config->afrl;
 80039be:	f5a5 15dd 	sub.w	r5, r5, #1810432	; 0x1ba000
  gpiop->ODR     = config->odr;
 80039c2:	6143      	str	r3, [r0, #20]
  gpiop->AFRL    = config->afrl;
 80039c4:	f6a5 757c 	subw	r5, r5, #3964	; 0xf7c
 80039c8:	6205      	str	r5, [r0, #32]
  gpiop->MODER   = config->moder;
 80039ca:	4d2f      	ldr	r5, [pc, #188]	; (8003a88 <__early_init+0x238>)
  gpiop->AFRH    = config->afrh;
 80039cc:	6243      	str	r3, [r0, #36]	; 0x24
  gpiop->MODER   = config->moder;
 80039ce:	6005      	str	r5, [r0, #0]
  gpiop->OTYPER  = config->otyper;
 80039d0:	f8c1 3c04 	str.w	r3, [r1, #3076]	; 0xc04
  gpiop->OSPEEDR = config->ospeedr;
 80039d4:	f8c1 3c08 	str.w	r3, [r1, #3080]	; 0xc08
  gpiop->PUPDR   = config->pupdr;
 80039d8:	f8c1 3c0c 	str.w	r3, [r1, #3084]	; 0xc0c
  gpiop->ODR     = config->odr;
 80039dc:	f8c1 3c14 	str.w	r3, [r1, #3092]	; 0xc14
  gpiop->AFRL    = config->afrl;
 80039e0:	f8c1 3c20 	str.w	r3, [r1, #3104]	; 0xc20
  gpiop->AFRH    = config->afrh;
 80039e4:	f8c1 3c24 	str.w	r3, [r1, #3108]	; 0xc24
  gpiop->MODER   = config->moder;
 80039e8:	f8c1 4c00 	str.w	r4, [r1, #3072]	; 0xc00
  gpiop->OTYPER  = config->otyper;
 80039ec:	f8c2 3c04 	str.w	r3, [r2, #3076]	; 0xc04
  gpiop->OSPEEDR = config->ospeedr;
 80039f0:	f8c2 3c08 	str.w	r3, [r2, #3080]	; 0xc08
  gpiop->PUPDR   = config->pupdr;
 80039f4:	f8c2 3c0c 	str.w	r3, [r2, #3084]	; 0xc0c
  gpiop->ODR     = config->odr;
 80039f8:	f8c2 3c14 	str.w	r3, [r2, #3092]	; 0xc14
  gpiop->AFRL    = config->afrl;
 80039fc:	f8c2 3c20 	str.w	r3, [r2, #3104]	; 0xc20
  gpiop->AFRH    = config->afrh;
 8003a00:	f8c2 3c24 	str.w	r3, [r2, #3108]	; 0xc24
  gpiop->MODER   = config->moder;
 8003a04:	f8c2 4c00 	str.w	r4, [r2, #3072]	; 0xc00

  stm32_gpio_init();
  stm32_clock_init();
}
 8003a08:	bc30      	pop	{r4, r5}
  stm32_clock_init();
 8003a0a:	f7fd bd21 	b.w	8001450 <stm32_clock_init>
 8003a0e:	bf00      	nop
 8003a10:	58024400 	.word	0x58024400
 8003a14:	fffff800 	.word	0xfffff800
 8003a18:	3ffd1417 	.word	0x3ffd1417
 8003a1c:	58020000 	.word	0x58020000
 8003a20:	58020400 	.word	0x58020400
 8003a24:	50cccccc 	.word	0x50cccccc
 8003a28:	000aa770 	.word	0x000aa770
 8003a2c:	eaa8d7d6 	.word	0xeaa8d7d6
 8003a30:	fff04fc0 	.word	0xfff04fc0
 8003a34:	cc884400 	.word	0xcc884400
 8003a38:	aaaf7abf 	.word	0xaaaf7abf
 8003a3c:	07430000 	.word	0x07430000
 8003a40:	58020c00 	.word	0x58020c00
 8003a44:	f27effff 	.word	0xf27effff
 8003a48:	f07fd03f 	.word	0xf07fd03f
 8003a4c:	500006cc 	.word	0x500006cc
 8003a50:	cc000ccc 	.word	0xcc000ccc
 8003a54:	af6a9fea 	.word	0xaf6a9fea
 8003a58:	ffffc01f 	.word	0xffffc01f
 8003a5c:	c00000cc 	.word	0xc00000cc
 8003a60:	ffdfdfff 	.word	0xffdfdfff
 8003a64:	ccccc055 	.word	0xccccc055
 8003a68:	58021800 	.word	0x58021800
 8003a6c:	ffdf1f3f 	.word	0xffdf1f3f
 8003a70:	00cc0ccc 	.word	0x00cc0ccc
 8003a74:	c555505c 	.word	0xc555505c
 8003a78:	00c0cc00 	.word	0x00c0cc00
 8003a7c:	58022000 	.word	0x58022000
 8003a80:	0045ffcc 	.word	0x0045ffcc
 8003a84:	ffff7baf 	.word	0xffff7baf
 8003a88:	ff71aabb 	.word	0xff71aabb
 8003a8c:	00000000 	.word	0x00000000

08003a90 <boardInit>:
/**
 * @brief   Board-specific initialization code.
 * @note    You can add your board-specific code here.
 */
void boardInit(void) {
}
 8003a90:	4770      	bx	lr
 8003a92:	bf00      	nop
	...

08003aa0 <chSysInit>:
 *          interrupts are enabled.
 * @post    the system is in @p ch_sys_running state.
 *
 * @special
 */
void chSysInit(void) {
 8003aa0:	b530      	push	{r4, r5, lr}
 8003aa2:	b087      	sub	sp, #28
  unsigned i;

  /* System object initialization.*/
  ch_system.state = ch_sys_initializing;
 8003aa4:	4d11      	ldr	r5, [pc, #68]	; (8003aec <chSysInit+0x4c>)
  for (i = 0U; i < (unsigned)PORT_CORES_NUMBER; i++) {
    ch_system.instances[i] = NULL;
 8003aa6:	2300      	movs	r3, #0
  ch_system.state = ch_sys_initializing;
 8003aa8:	2201      	movs	r2, #1

  /* Time Measurement subsystem calibration, it does a null measurement
     and calculates the call overhead which is subtracted to real
     measurements.*/
  tcp->offset = (rtcnt_t)0;
  chTMObjectInit(&tm);
 8003aaa:	4668      	mov	r0, sp
 8003aac:	2404      	movs	r4, #4
 8003aae:	702a      	strb	r2, [r5, #0]
  tcp->offset = (rtcnt_t)0;
 8003ab0:	e9c5 3301 	strd	r3, r3, [r5, #4]
  chTMObjectInit(&tm);
 8003ab4:	f000 fc74 	bl	80043a0 <chTMObjectInit>
  i = TM_CALIBRATION_LOOP;
  do {
    chTMStartMeasurementX(&tm);
 8003ab8:	4668      	mov	r0, sp
 8003aba:	f000 fc81 	bl	80043c0 <chTMStartMeasurementX>
    chTMStopMeasurementX(&tm);
 8003abe:	4668      	mov	r0, sp
 8003ac0:	f000 fc86 	bl	80043d0 <chTMStopMeasurementX>
    i--;
  } while (i > 0U);
 8003ac4:	3c01      	subs	r4, #1
 8003ac6:	d1f7      	bne.n	8003ab8 <chSysInit+0x18>
  tcp->offset = tm.best;
 8003ac8:	9b00      	ldr	r3, [sp, #0]
 8003aca:	60ab      	str	r3, [r5, #8]
 * @notapi
 */
static inline void __oslib_init(void) {

#if CH_CFG_USE_MEMCORE == TRUE
  __core_init();
 8003acc:	f000 fce0 	bl	8004490 <__core_init>
#endif
#if CH_CFG_USE_HEAP == TRUE
  __heap_init();
 8003ad0:	f000 fd26 	bl	8004520 <__heap_init>
#endif
#if CH_CFG_USE_FACTORY == TRUE
  __factory_init();
 8003ad4:	f000 fd44 	bl	8004560 <__factory_init>

  /* OS library modules.*/
  __oslib_init();

  /* Initializing default OS instance.*/
  chInstanceObjectInit(&ch0, &ch_core0_cfg);
 8003ad8:	4905      	ldr	r1, [pc, #20]	; (8003af0 <chSysInit+0x50>)
 8003ada:	4806      	ldr	r0, [pc, #24]	; (8003af4 <chSysInit+0x54>)
 8003adc:	f000 fb28 	bl	8004130 <chInstanceObjectInit>

  /* It is alive now.*/
  ch_system.state = ch_sys_running;
 8003ae0:	2302      	movs	r3, #2
 8003ae2:	702b      	strb	r3, [r5, #0]
 8003ae4:	f384 8811 	msr	BASEPRI, r4
  chSysUnlock();
}
 8003ae8:	b007      	add	sp, #28
 8003aea:	bd30      	pop	{r4, r5, pc}
 8003aec:	24001220 	.word	0x24001220
 8003af0:	08004cf0 	.word	0x08004cf0
 8003af4:	24000860 	.word	0x24000860
	...

08003b00 <chSysTimerHandlerI>:
  }
#endif
#if CH_DBG_THREADS_PROFILING == TRUE
  currtp->time++;
#endif
  chVTDoTickI();
 8003b00:	f000 b996 	b.w	8003e30 <chVTDoTickI>
	...

08003b10 <chSysPolledDelayX>:
 *
 * @return              The realtime counter value.
 */
__STATIC_FORCEINLINE rtcnt_t port_rt_get_counter_value(void) {

  return DWT->CYCCNT;
 8003b10:	4a03      	ldr	r2, [pc, #12]	; (8003b20 <chSysPolledDelayX+0x10>)
 8003b12:	6851      	ldr	r1, [r2, #4]
 8003b14:	6853      	ldr	r3, [r2, #4]
 *
 * @xclass
 */
bool chSysIsCounterWithinX(rtcnt_t cnt, rtcnt_t start, rtcnt_t end) {

  return (bool)(((rtcnt_t)cnt - (rtcnt_t)start) <
 8003b16:	1a5b      	subs	r3, r3, r1
 */
void chSysPolledDelayX(rtcnt_t cycles) {
  rtcnt_t start = chSysGetRealtimeCounterX();
  rtcnt_t end  = start + cycles;

  while (chSysIsCounterWithinX(chSysGetRealtimeCounterX(), start, end)) {
 8003b18:	4298      	cmp	r0, r3
 8003b1a:	d8fb      	bhi.n	8003b14 <chSysPolledDelayX+0x4>
  }
}
 8003b1c:	4770      	bx	lr
 8003b1e:	bf00      	nop
 8003b20:	e0001000 	.word	0xe0001000
	...

08003b30 <chRFCUCollectFaultsI>:
 * @param[in] mask      fault flags to be added
 */
void chRFCUCollectFaultsI(rfcu_mask_t mask) {

#if CH_CFG_SMP_MODE == FALSE
  currcore->rfcu.mask |= mask;
 8003b30:	4a02      	ldr	r2, [pc, #8]	; (8003b3c <chRFCUCollectFaultsI+0xc>)
 8003b32:	6b53      	ldr	r3, [r2, #52]	; 0x34
 8003b34:	4303      	orrs	r3, r0
 8003b36:	6353      	str	r3, [r2, #52]	; 0x34
#else
  ch_system.rfcu.mask |= mask;
#endif

  CH_CFG_RUNTIME_FAULTS_HOOK(mask);
}
 8003b38:	4770      	bx	lr
 8003b3a:	bf00      	nop
 8003b3c:	24000860 	.word	0x24000860

08003b40 <trace_next.constprop.0>:
/**
 * @brief   Writes a time stamp and increases the trace buffer pointer.
 *
 * @notapi
 */
NOINLINE static void trace_next(os_instance_t *oip) {
 8003b40:	b538      	push	{r3, r4, r5, lr}

  oip->trace_buffer.ptr->time    = chVTGetSystemTimeX();
 8003b42:	4c0c      	ldr	r4, [pc, #48]	; (8003b74 <trace_next.constprop.0+0x34>)
 8003b44:	f8d4 508c 	ldr.w	r5, [r4, #140]	; 0x8c
 *
 * @notapi
 */
static inline systime_t port_timer_get_time(void) {

  return stGetCounter();
 8003b48:	f7fc fdca 	bl	80006e0 <stGetCounter>
#if PORT_SUPPORTS_RT == TRUE
  oip->trace_buffer.ptr->rtstamp = chSysGetRealtimeCounterX();
 8003b4c:	f8d4 308c 	ldr.w	r3, [r4, #140]	; 0x8c
#endif

  /* Trace hook, useful in order to interface debug tools.*/
  CH_CFG_TRACE_HOOK(oip->trace_buffer.ptr);

  if (++oip->trace_buffer.ptr >= &oip->trace_buffer.buffer[CH_DBG_TRACE_BUFFER_SIZE]) {
 8003b50:	f504 6109 	add.w	r1, r4, #2192	; 0x890
 8003b54:	4a08      	ldr	r2, [pc, #32]	; (8003b78 <trace_next.constprop.0+0x38>)
  oip->trace_buffer.ptr->time    = chVTGetSystemTimeX();
 8003b56:	6068      	str	r0, [r5, #4]
 8003b58:	6850      	ldr	r0, [r2, #4]
  oip->trace_buffer.ptr->rtstamp = chSysGetRealtimeCounterX();
 8003b5a:	681a      	ldr	r2, [r3, #0]
 8003b5c:	f360 221f 	bfi	r2, r0, #8, #24
 8003b60:	f843 2b10 	str.w	r2, [r3], #16
    oip->trace_buffer.ptr = &oip->trace_buffer.buffer[0];
 8003b64:	f104 0290 	add.w	r2, r4, #144	; 0x90
 8003b68:	428b      	cmp	r3, r1
 8003b6a:	bf28      	it	cs
 8003b6c:	4613      	movcs	r3, r2
 8003b6e:	f8c4 308c 	str.w	r3, [r4, #140]	; 0x8c
  }
}
 8003b72:	bd38      	pop	{r3, r4, r5, pc}
 8003b74:	24000860 	.word	0x24000860
 8003b78:	e0001000 	.word	0xe0001000
 8003b7c:	00000000 	.word	0x00000000

08003b80 <__trace_object_init>:
 * @notapi
 */
void __trace_object_init(trace_buffer_t *tbp) {
  unsigned i;

  tbp->suspended = (uint16_t)~CH_DBG_TRACE_MASK;
 8003b80:	4602      	mov	r2, r0
 8003b82:	4907      	ldr	r1, [pc, #28]	; (8003ba0 <__trace_object_init+0x20>)
  tbp->size      = CH_DBG_TRACE_BUFFER_SIZE;
  tbp->ptr       = &tbp->buffer[0];
  for (i = 0U; i < (unsigned)CH_DBG_TRACE_BUFFER_SIZE; i++) {
 8003b84:	2300      	movs	r3, #0
  tbp->suspended = (uint16_t)~CH_DBG_TRACE_MASK;
 8003b86:	f842 1b08 	str.w	r1, [r2], #8
  tbp->ptr       = &tbp->buffer[0];
 8003b8a:	6042      	str	r2, [r0, #4]
    tbp->buffer[i].type = CH_TRACE_TYPE_UNUSED;
 8003b8c:	eb00 1203 	add.w	r2, r0, r3, lsl #4
  for (i = 0U; i < (unsigned)CH_DBG_TRACE_BUFFER_SIZE; i++) {
 8003b90:	3301      	adds	r3, #1
    tbp->buffer[i].type = CH_TRACE_TYPE_UNUSED;
 8003b92:	7a11      	ldrb	r1, [r2, #8]
  for (i = 0U; i < (unsigned)CH_DBG_TRACE_BUFFER_SIZE; i++) {
 8003b94:	2b80      	cmp	r3, #128	; 0x80
    tbp->buffer[i].type = CH_TRACE_TYPE_UNUSED;
 8003b96:	f36f 0102 	bfc	r1, #0, #3
 8003b9a:	7211      	strb	r1, [r2, #8]
  for (i = 0U; i < (unsigned)CH_DBG_TRACE_BUFFER_SIZE; i++) {
 8003b9c:	d1f6      	bne.n	8003b8c <__trace_object_init+0xc>
  }
}
 8003b9e:	4770      	bx	lr
 8003ba0:	0080ffff 	.word	0x0080ffff
	...

08003bb0 <__trace_ready>:
 * @notapi
 */
void __trace_ready(thread_t *tp, msg_t msg) {
  os_instance_t *oip = currcore;

  if ((oip->trace_buffer.suspended & CH_DBG_TRACE_MASK_READY) == 0U) {
 8003bb0:	4b09      	ldr	r3, [pc, #36]	; (8003bd8 <__trace_ready+0x28>)
 8003bb2:	f8b3 2088 	ldrh.w	r2, [r3, #136]	; 0x88
 8003bb6:	07d2      	lsls	r2, r2, #31
 8003bb8:	d500      	bpl.n	8003bbc <__trace_ready+0xc>
 8003bba:	4770      	bx	lr
    oip->trace_buffer.ptr->type        = CH_TRACE_TYPE_READY;
 8003bbc:	f890 2024 	ldrb.w	r2, [r0, #36]	; 0x24
void __trace_ready(thread_t *tp, msg_t msg) {
 8003bc0:	b410      	push	{r4}
    oip->trace_buffer.ptr->type        = CH_TRACE_TYPE_READY;
 8003bc2:	f8d3 408c 	ldr.w	r4, [r3, #140]	; 0x8c
 8003bc6:	00d3      	lsls	r3, r2, #3
 8003bc8:	f043 0301 	orr.w	r3, r3, #1
    oip->trace_buffer.ptr->state       = (uint8_t)tp->state;
    oip->trace_buffer.ptr->u.rdy.tp    = tp;
    oip->trace_buffer.ptr->u.rdy.msg   = msg;
 8003bcc:	e9c4 0102 	strd	r0, r1, [r4, #8]
    oip->trace_buffer.ptr->type        = CH_TRACE_TYPE_READY;
 8003bd0:	7023      	strb	r3, [r4, #0]
    trace_next(oip);
  }
}
 8003bd2:	bc10      	pop	{r4}
    trace_next(oip);
 8003bd4:	f7ff bfb4 	b.w	8003b40 <trace_next.constprop.0>
 8003bd8:	24000860 	.word	0x24000860
 8003bdc:	00000000 	.word	0x00000000

08003be0 <__trace_switch>:
 * @notapi
 */
void __trace_switch(thread_t *ntp, thread_t *otp) {
  os_instance_t *oip = currcore;

  if ((oip->trace_buffer.suspended & CH_DBG_TRACE_MASK_SWITCH) == 0U) {
 8003be0:	4b0a      	ldr	r3, [pc, #40]	; (8003c0c <__trace_switch+0x2c>)
 8003be2:	f8b3 2088 	ldrh.w	r2, [r3, #136]	; 0x88
 8003be6:	0792      	lsls	r2, r2, #30
 8003be8:	d500      	bpl.n	8003bec <__trace_switch+0xc>
 8003bea:	4770      	bx	lr
void __trace_switch(thread_t *ntp, thread_t *otp) {
 8003bec:	b410      	push	{r4}
    oip->trace_buffer.ptr->type        = CH_TRACE_TYPE_SWITCH;
 8003bee:	f891 2024 	ldrb.w	r2, [r1, #36]	; 0x24
 8003bf2:	f8d3 408c 	ldr.w	r4, [r3, #140]	; 0x8c
 8003bf6:	00d3      	lsls	r3, r2, #3
    oip->trace_buffer.ptr->state       = (uint8_t)otp->state;
    oip->trace_buffer.ptr->u.sw.ntp    = ntp;
    oip->trace_buffer.ptr->u.sw.wtobjp = otp->u.wtobjp;
 8003bf8:	6a89      	ldr	r1, [r1, #40]	; 0x28
    oip->trace_buffer.ptr->type        = CH_TRACE_TYPE_SWITCH;
 8003bfa:	f043 0302 	orr.w	r3, r3, #2
    oip->trace_buffer.ptr->u.sw.wtobjp = otp->u.wtobjp;
 8003bfe:	e9c4 0102 	strd	r0, r1, [r4, #8]
    oip->trace_buffer.ptr->type        = CH_TRACE_TYPE_SWITCH;
 8003c02:	7023      	strb	r3, [r4, #0]
    trace_next(oip);
  }
}
 8003c04:	bc10      	pop	{r4}
    trace_next(oip);
 8003c06:	f7ff bf9b 	b.w	8003b40 <trace_next.constprop.0>
 8003c0a:	bf00      	nop
 8003c0c:	24000860 	.word	0x24000860

08003c10 <__trace_isr_enter>:
 * @notapi
 */
void __trace_isr_enter(const char *isr) {
  os_instance_t *oip = currcore;

  if ((oip->trace_buffer.suspended & CH_DBG_TRACE_MASK_ISR) == 0U) {
 8003c10:	4a0a      	ldr	r2, [pc, #40]	; (8003c3c <__trace_isr_enter+0x2c>)
 8003c12:	f8b2 3088 	ldrh.w	r3, [r2, #136]	; 0x88
void __trace_isr_enter(const char *isr) {
 8003c16:	b510      	push	{r4, lr}
  if ((oip->trace_buffer.suspended & CH_DBG_TRACE_MASK_ISR) == 0U) {
 8003c18:	f013 0404 	ands.w	r4, r3, #4
 8003c1c:	d000      	beq.n	8003c20 <__trace_isr_enter+0x10>
    oip->trace_buffer.ptr->state       = 0U;
    oip->trace_buffer.ptr->u.isr.name  = isr;
    trace_next(oip);
    port_unlock_from_isr();
  }
}
 8003c1e:	bd10      	pop	{r4, pc}
 8003c20:	2330      	movs	r3, #48	; 0x30
 8003c22:	f383 8811 	msr	BASEPRI, r3
    oip->trace_buffer.ptr->type        = CH_TRACE_TYPE_ISR_ENTER;
 8003c26:	2103      	movs	r1, #3
 8003c28:	f8d2 308c 	ldr.w	r3, [r2, #140]	; 0x8c
 8003c2c:	7019      	strb	r1, [r3, #0]
    oip->trace_buffer.ptr->u.isr.name  = isr;
 8003c2e:	6098      	str	r0, [r3, #8]
    trace_next(oip);
 8003c30:	f7ff ff86 	bl	8003b40 <trace_next.constprop.0>
 8003c34:	f384 8811 	msr	BASEPRI, r4
}
 8003c38:	bd10      	pop	{r4, pc}
 8003c3a:	bf00      	nop
 8003c3c:	24000860 	.word	0x24000860

08003c40 <__trace_isr_leave>:
 * @notapi
 */
void __trace_isr_leave(const char *isr) {
  os_instance_t *oip = currcore;

  if ((oip->trace_buffer.suspended & CH_DBG_TRACE_MASK_ISR) == 0U) {
 8003c40:	4a0a      	ldr	r2, [pc, #40]	; (8003c6c <__trace_isr_leave+0x2c>)
 8003c42:	f8b2 3088 	ldrh.w	r3, [r2, #136]	; 0x88
void __trace_isr_leave(const char *isr) {
 8003c46:	b510      	push	{r4, lr}
  if ((oip->trace_buffer.suspended & CH_DBG_TRACE_MASK_ISR) == 0U) {
 8003c48:	f013 0404 	ands.w	r4, r3, #4
 8003c4c:	d000      	beq.n	8003c50 <__trace_isr_leave+0x10>
    oip->trace_buffer.ptr->state       = 0U;
    oip->trace_buffer.ptr->u.isr.name  = isr;
    trace_next(oip);
    port_unlock_from_isr();
  }
}
 8003c4e:	bd10      	pop	{r4, pc}
 8003c50:	2330      	movs	r3, #48	; 0x30
 8003c52:	f383 8811 	msr	BASEPRI, r3
    oip->trace_buffer.ptr->type        = CH_TRACE_TYPE_ISR_LEAVE;
 8003c56:	2104      	movs	r1, #4
 8003c58:	f8d2 308c 	ldr.w	r3, [r2, #140]	; 0x8c
 8003c5c:	7019      	strb	r1, [r3, #0]
    oip->trace_buffer.ptr->u.isr.name  = isr;
 8003c5e:	6098      	str	r0, [r3, #8]
    trace_next(oip);
 8003c60:	f7ff ff6e 	bl	8003b40 <trace_next.constprop.0>
 8003c64:	f384 8811 	msr	BASEPRI, r4
}
 8003c68:	bd10      	pop	{r4, pc}
 8003c6a:	bf00      	nop
 8003c6c:	24000860 	.word	0x24000860

08003c70 <vt_insert_first.constprop.0>:

/**
 * @brief   Inserts a timer as first element in a delta list.
 * @note    This is the special case when the delta list is initially empty.
 */
static void vt_insert_first(virtual_timers_list_t *vtlp,
 8003c70:	b5f8      	push	{r3, r4, r5, r6, r7, lr}
 8003c72:	4614      	mov	r4, r2
                            sysinterval_t delay) {
  sysinterval_t currdelta;

  /* The delta list is empty, the current time becomes the new
     delta list base time, the timer is inserted.*/
  vtlp->lasttime = now;
 8003c74:	4d14      	ldr	r5, [pc, #80]	; (8003cc8 <vt_insert_first.constprop.0+0x58>)
static void vt_insert_first(virtual_timers_list_t *vtlp,
 8003c76:	4603      	mov	r3, r0
 8003c78:	460e      	mov	r6, r1
static inline void ch_dlist_insert_after(ch_delta_list_t *dlhp,
                                         ch_delta_list_t *dlp,
                                         sysinterval_t delta) {

  dlp->delta      = delta;
  dlp->prev       = dlhp;
 8003c7a:	f105 0210 	add.w	r2, r5, #16
 8003c7e:	2c02      	cmp	r4, #2
  vtlp->lasttime = now;
 8003c80:	61e9      	str	r1, [r5, #28]
  ch_dlist_insert_after(&vtlp->dlist, &vtp->dlist, delay);

  /* Initial delta is what is configured statically.*/
  currdelta = (sysinterval_t)CH_CFG_ST_TIMEDELTA;
 8003c82:	f04f 0702 	mov.w	r7, #2
  dlp->delta      = delta;
 8003c86:	6084      	str	r4, [r0, #8]
  dlp->prev       = dlhp;
 8003c88:	bf38      	it	cc
 8003c8a:	2402      	movcc	r4, #2
 8003c8c:	6042      	str	r2, [r0, #4]
  dlp->next       = dlp->prev->next;
 8003c8e:	692a      	ldr	r2, [r5, #16]
 8003c90:	6002      	str	r2, [r0, #0]
  dlp->next->prev = dlp;
 8003c92:	6050      	str	r0, [r2, #4]
  stStartAlarm(time);
 8003c94:	1908      	adds	r0, r1, r4
  dlhp->next      = dlp;
 8003c96:	612b      	str	r3, [r5, #16]
 8003c98:	f7fc fd2a 	bl	80006f0 <stStartAlarm>
  return stGetCounter();
 8003c9c:	f7fc fd20 	bl	80006e0 <stGetCounter>
 */
static inline sysinterval_t chTimeDiffX(systime_t start, systime_t end) {

  /*lint -save -e9033 [10.8] This cast is required by the operation, it is
    known that the destination type can be wider.*/
  return (sysinterval_t)((systime_t)(end - start));
 8003ca0:	1b82      	subs	r2, r0, r6
 8003ca2:	4603      	mov	r3, r0
       Note that the "<" condition is intentional, we want to make sure
       that the alarm is set before the deadline is reached because the
       comparison could happen on the transition depending on the timer
       architecture.*/
    newnow = chVTGetSystemTimeX();
    if (likely(chTimeDiffX(now, newnow) < delay)) {
 8003ca4:	42a2      	cmp	r2, r4
 8003ca6:	d207      	bcs.n	8003cb8 <vt_insert_first.constprop.0+0x48>
    delay = currdelta;
  }

#if !defined(CH_VT_RFCU_DISABLED)
  /* Checking if a skip occurred.*/
  if (currdelta > CH_CFG_ST_TIMEDELTA) {
 8003ca8:	2f02      	cmp	r7, #2
 8003caa:	d800      	bhi.n	8003cae <vt_insert_first.constprop.0+0x3e>
  }
#else
  /* Assertions as fallback.*/
  chDbgAssert(currdelta <= CH_CFG_ST_TIMEDELTA, "insufficient delta");
#endif
}
 8003cac:	bdf8      	pop	{r3, r4, r5, r6, r7, pc}
    chRFCUCollectFaultsI(CH_RFCU_VT_INSUFFICIENT_DELTA);
 8003cae:	2001      	movs	r0, #1
}
 8003cb0:	e8bd 40f8 	ldmia.w	sp!, {r3, r4, r5, r6, r7, lr}
    chRFCUCollectFaultsI(CH_RFCU_VT_INSUFFICIENT_DELTA);
 8003cb4:	f7ff bf3c 	b.w	8003b30 <chRFCUCollectFaultsI>
    currdelta += (sysinterval_t)1;
 8003cb8:	1c7c      	adds	r4, r7, #1
  stSetAlarm(time);
 8003cba:	1930      	adds	r0, r6, r4
 8003cbc:	4627      	mov	r7, r4
    now = newnow;
 8003cbe:	461e      	mov	r6, r3
 8003cc0:	f7fc fd26 	bl	8000710 <stSetAlarm>
  while (true) {
 8003cc4:	e7ea      	b.n	8003c9c <vt_insert_first.constprop.0+0x2c>
 8003cc6:	bf00      	nop
 8003cc8:	24000860 	.word	0x24000860
 8003ccc:	00000000 	.word	0x00000000

08003cd0 <vt_enqueue.constprop.0>:
#endif /* CH_CFG_ST_TIMEDELTA > 0 */

/**
 * @brief   Enqueues a virtual timer in a virtual timers list.
 */
static void vt_enqueue(virtual_timers_list_t *vtlp,
 8003cd0:	e92d 43f8 	stmdb	sp!, {r3, r4, r5, r6, r7, r8, r9, lr}
  return (bool)(dlhp == dlhp->next);
 8003cd4:	f8df 909c 	ldr.w	r9, [pc, #156]	; 8003d74 <vt_enqueue.constprop.0+0xa4>
 8003cd8:	4607      	mov	r7, r0
 8003cda:	460e      	mov	r6, r1
  return stGetCounter();
 8003cdc:	f7fc fd00 	bl	80006e0 <stGetCounter>
 8003ce0:	464b      	mov	r3, r9
 8003ce2:	4680      	mov	r8, r0
 8003ce4:	f853 5f10 	ldr.w	r5, [r3, #16]!
  {
    sysinterval_t nowdelta;
    systime_t now = chVTGetSystemTimeX();

    /* Special case where the timers list is empty.*/
    if (ch_dlist_isempty(&vtlp->dlist)) {
 8003ce8:	429d      	cmp	r5, r3
 8003cea:	d037      	beq.n	8003d5c <vt_enqueue.constprop.0+0x8c>
 8003cec:	f8d9 401c 	ldr.w	r4, [r9, #28]
      delta = delay;
    }

    /* Checking if this timer would become the first in the delta list, this
       requires changing the current alarm setting.*/
    if (delta < vtlp->dlist.next->delta) {
 8003cf0:	68ab      	ldr	r3, [r5, #8]
 8003cf2:	1b04      	subs	r4, r0, r4
      delta = delay;
 8003cf4:	1934      	adds	r4, r6, r4
 8003cf6:	bf28      	it	cs
 8003cf8:	4634      	movcs	r4, r6
    if (delta < vtlp->dlist.next->delta) {
 8003cfa:	42a3      	cmp	r3, r4
 8003cfc:	d815      	bhi.n	8003d2a <vt_enqueue.constprop.0+0x5a>
  ch_delta_list_t *dlp;

  /* The delta list is scanned in order to find the correct position for
     this element. */
  dlp = dlhp->next;
  while (likely(dlp->delta < delta)) {
 8003cfe:	429c      	cmp	r4, r3
 8003d00:	d904      	bls.n	8003d0c <vt_enqueue.constprop.0+0x3c>
    /* Debug assert if the element is already in the list.*/
    chDbgAssert(dlp != dlep, "element already in list");

    delta -= dlp->delta;
    dlp = dlp->next;
 8003d02:	682d      	ldr	r5, [r5, #0]
    delta -= dlp->delta;
 8003d04:	1ae4      	subs	r4, r4, r3
  while (likely(dlp->delta < delta)) {
 8003d06:	68ab      	ldr	r3, [r5, #8]
 8003d08:	42a3      	cmp	r3, r4
 8003d0a:	d3fa      	bcc.n	8003d02 <vt_enqueue.constprop.0+0x32>
  dlp->prev       = dlp->next->prev;
 8003d0c:	686b      	ldr	r3, [r5, #4]
  dlp->delta -= delta;

  /* Special case when the inserted element is in last position in the list,
     the value in the header must be restored, just doing it is faster than
     checking then doing.*/
  dlhp->delta = (sysinterval_t)-1;
 8003d0e:	f04f 32ff 	mov.w	r2, #4294967295
  dlp->delta      = delta;
 8003d12:	60bc      	str	r4, [r7, #8]
  dlp->prev       = dlp->next->prev;
 8003d14:	e9c7 5300 	strd	r5, r3, [r7]
  dlp->prev->next = dlp;
 8003d18:	601f      	str	r7, [r3, #0]
  dlp->delta -= delta;
 8003d1a:	68ab      	ldr	r3, [r5, #8]
  dlhp->prev      = dlp;
 8003d1c:	606f      	str	r7, [r5, #4]
  dlp->delta -= delta;
 8003d1e:	1b1b      	subs	r3, r3, r4
 8003d20:	60ab      	str	r3, [r5, #8]
  dlhp->delta = (sysinterval_t)-1;
 8003d22:	f8c9 2018 	str.w	r2, [r9, #24]
  /* Delta is initially equal to the specified delay.*/
  delta = delay;
#endif /* CH_CFG_ST_TIMEDELTA == 0 */

  ch_dlist_insert(&vtlp->dlist, &vtp->dlist, delta);
}
 8003d26:	e8bd 83f8 	ldmia.w	sp!, {r3, r4, r5, r6, r7, r8, r9, pc}
  if (delay < currdelta) {
 8003d2a:	2e02      	cmp	r6, #2
    if (delta < vtlp->dlist.next->delta) {
 8003d2c:	f04f 0502 	mov.w	r5, #2
 8003d30:	bf38      	it	cc
 8003d32:	2602      	movcc	r6, #2
  stSetAlarm(time);
 8003d34:	eb08 0006 	add.w	r0, r8, r6
 8003d38:	f7fc fcea 	bl	8000710 <stSetAlarm>
  return stGetCounter();
 8003d3c:	f7fc fcd0 	bl	80006e0 <stGetCounter>
 8003d40:	eba0 0808 	sub.w	r8, r0, r8
    if (likely(nowdelta < delay)) {
 8003d44:	4546      	cmp	r6, r8
 8003d46:	d910      	bls.n	8003d6a <vt_enqueue.constprop.0+0x9a>
  if (currdelta > CH_CFG_ST_TIMEDELTA) {
 8003d48:	2d02      	cmp	r5, #2
 8003d4a:	d803      	bhi.n	8003d54 <vt_enqueue.constprop.0+0x84>
  dlp = dlhp->next;
 8003d4c:	f8d9 5010 	ldr.w	r5, [r9, #16]
  while (likely(dlp->delta < delta)) {
 8003d50:	68ab      	ldr	r3, [r5, #8]
 8003d52:	e7d4      	b.n	8003cfe <vt_enqueue.constprop.0+0x2e>
    chRFCUCollectFaultsI(CH_RFCU_VT_INSUFFICIENT_DELTA);
 8003d54:	2001      	movs	r0, #1
 8003d56:	f7ff feeb 	bl	8003b30 <chRFCUCollectFaultsI>
 8003d5a:	e7f7      	b.n	8003d4c <vt_enqueue.constprop.0+0x7c>
      vt_insert_first(vtlp, vtp, now, delay);
 8003d5c:	4632      	mov	r2, r6
 8003d5e:	4601      	mov	r1, r0
 8003d60:	4638      	mov	r0, r7
}
 8003d62:	e8bd 43f8 	ldmia.w	sp!, {r3, r4, r5, r6, r7, r8, r9, lr}
      vt_insert_first(vtlp, vtp, now, delay);
 8003d66:	f7ff bf83 	b.w	8003c70 <vt_insert_first.constprop.0>
    currdelta += (sysinterval_t)1;
 8003d6a:	3501      	adds	r5, #1
    now = newnow;
 8003d6c:	4680      	mov	r8, r0
    currdelta += (sysinterval_t)1;
 8003d6e:	462e      	mov	r6, r5
  while (true) {
 8003d70:	e7e0      	b.n	8003d34 <vt_enqueue.constprop.0+0x64>
 8003d72:	bf00      	nop
 8003d74:	24000860 	.word	0x24000860
	...

08003d80 <chVTDoSetI>:

  chDbgCheckClassI();
  chDbgCheck((vtp != NULL) && (vtfunc != NULL) && (delay != TIME_IMMEDIATE));

  /* Timer initialization.*/
  vtp->par     = par;
 8003d80:	6103      	str	r3, [r0, #16]
  vtp->func    = vtfunc;
  vtp->reload  = (sysinterval_t)0;
 8003d82:	2300      	movs	r3, #0
  vtp->func    = vtfunc;
 8003d84:	60c2      	str	r2, [r0, #12]
  vtp->reload  = (sysinterval_t)0;
 8003d86:	6143      	str	r3, [r0, #20]

  /* Inserting the timer in the delta list.*/
  vt_enqueue(vtlp, vtp, delay);
 8003d88:	f7ff bfa2 	b.w	8003cd0 <vt_enqueue.constprop.0>
 8003d8c:	0000      	movs	r0, r0
	...

08003d90 <chVTDoResetI>:
 *
 * @param[in] vtp       pointer to a @p virtual_timer_t structure
 *
 * @iclass
 */
void chVTDoResetI(virtual_timer_t *vtp) {
 8003d90:	b570      	push	{r4, r5, r6, lr}
  return (bool)(dlhp->next == dlp);
 8003d92:	4c23      	ldr	r4, [pc, #140]	; (8003e20 <chVTDoResetI+0x90>)
 8003d94:	6923      	ldr	r3, [r4, #16]
  systime_t now;
  sysinterval_t nowdelta, delta;

  /* If the timer is not the first of the list then it is simply unlinked
     else the operation is more complex.*/
  if (!ch_dlist_isfirst(&vtlp->dlist, &vtp->dlist)) {
 8003d96:	4298      	cmp	r0, r3
 8003d98:	d00d      	beq.n	8003db6 <chVTDoResetI+0x26>
 *
 * @notapi
 */
static inline ch_delta_list_t *ch_dlist_dequeue(ch_delta_list_t *dlp) {

  dlp->prev->next = dlp->next;
 8003d9a:	6803      	ldr	r3, [r0, #0]
 8003d9c:	e9d0 2101 	ldrd	r2, r1, [r0, #4]
 8003da0:	6013      	str	r3, [r2, #0]
  dlp->next->prev = dlp->prev;
 8003da2:	605a      	str	r2, [r3, #4]

    /* Removing the element from the delta list.*/
    (void) ch_dlist_dequeue(&vtp->dlist);

    /* Adding delta to the next element, if it is not the last one.*/
    vtp->dlist.next->delta += vtp->dlist.delta;
 8003da4:	689a      	ldr	r2, [r3, #8]
 8003da6:	440a      	add	r2, r1

    /* Marking timer as not armed.*/
    vtp->dlist.next = NULL;
 8003da8:	2100      	movs	r1, #0
    vtp->dlist.next->delta += vtp->dlist.delta;
 8003daa:	609a      	str	r2, [r3, #8]

    /* Special case when the removed element from the last position in the list,
       the value in the header must be restored, just doing it is faster than
       checking then doing.*/
    vtlp->dlist.delta = (sysinterval_t)-1;
 8003dac:	f04f 33ff 	mov.w	r3, #4294967295
    vtp->dlist.next = NULL;
 8003db0:	6001      	str	r1, [r0, #0]
    vtlp->dlist.delta = (sysinterval_t)-1;
 8003db2:	61a3      	str	r3, [r4, #24]
  delta = vtlp->dlist.next->delta - nowdelta;

  /* Setting up the alarm.*/
  vt_set_alarm(now, delta);
#endif /* CH_CFG_ST_TIMEDELTA > 0 */
}
 8003db4:	bd70      	pop	{r4, r5, r6, pc}
  dlhp->next       = dlp->next;
 8003db6:	6802      	ldr	r2, [r0, #0]
 8003db8:	4623      	mov	r3, r4
  vtp->dlist.next = NULL;
 8003dba:	2100      	movs	r1, #0
 8003dbc:	f843 2f10 	str.w	r2, [r3, #16]!
  dlhp->next->prev = dlhp;
 8003dc0:	6053      	str	r3, [r2, #4]
 8003dc2:	6001      	str	r1, [r0, #0]
  return (bool)(dlhp == dlhp->next);
 8003dc4:	6922      	ldr	r2, [r4, #16]
  if (ch_dlist_isempty(&vtlp->dlist)) {
 8003dc6:	429a      	cmp	r2, r3
 8003dc8:	d021      	beq.n	8003e0e <chVTDoResetI+0x7e>
  vtlp->dlist.next->delta += vtp->dlist.delta;
 8003dca:	6893      	ldr	r3, [r2, #8]
 8003dcc:	6881      	ldr	r1, [r0, #8]
 8003dce:	440b      	add	r3, r1
 8003dd0:	6093      	str	r3, [r2, #8]
 8003dd2:	f7fc fc85 	bl	80006e0 <stGetCounter>
  nowdelta = chTimeDiffX(vtlp->lasttime, now);
 8003dd6:	69e5      	ldr	r5, [r4, #28]
  if (nowdelta >= vtlp->dlist.next->delta) {
 8003dd8:	6923      	ldr	r3, [r4, #16]
 8003dda:	4604      	mov	r4, r0
 8003ddc:	1b42      	subs	r2, r0, r5
 8003dde:	689b      	ldr	r3, [r3, #8]
 8003de0:	4293      	cmp	r3, r2
 8003de2:	d9e7      	bls.n	8003db4 <chVTDoResetI+0x24>
  delta = vtlp->dlist.next->delta - nowdelta;
 8003de4:	441d      	add	r5, r3
 8003de6:	2602      	movs	r6, #2
 8003de8:	1a2d      	subs	r5, r5, r0
 8003dea:	42b5      	cmp	r5, r6
 8003dec:	bf38      	it	cc
 8003dee:	4635      	movcc	r5, r6
  stSetAlarm(time);
 8003df0:	1960      	adds	r0, r4, r5
 8003df2:	f7fc fc8d 	bl	8000710 <stSetAlarm>
  return stGetCounter();
 8003df6:	f7fc fc73 	bl	80006e0 <stGetCounter>
 8003dfa:	1b04      	subs	r4, r0, r4
    if (likely(nowdelta < delay)) {
 8003dfc:	42a5      	cmp	r5, r4
 8003dfe:	d90a      	bls.n	8003e16 <chVTDoResetI+0x86>
  if (currdelta > CH_CFG_ST_TIMEDELTA) {
 8003e00:	2e02      	cmp	r6, #2
 8003e02:	d9d7      	bls.n	8003db4 <chVTDoResetI+0x24>
    chRFCUCollectFaultsI(CH_RFCU_VT_INSUFFICIENT_DELTA);
 8003e04:	2001      	movs	r0, #1
}
 8003e06:	e8bd 4070 	ldmia.w	sp!, {r4, r5, r6, lr}
    chRFCUCollectFaultsI(CH_RFCU_VT_INSUFFICIENT_DELTA);
 8003e0a:	f7ff be91 	b.w	8003b30 <chRFCUCollectFaultsI>
}
 8003e0e:	e8bd 4070 	ldmia.w	sp!, {r4, r5, r6, lr}
  stStopAlarm();
 8003e12:	f7fc bc75 	b.w	8000700 <stStopAlarm>
    currdelta += (sysinterval_t)1;
 8003e16:	3601      	adds	r6, #1
    now = newnow;
 8003e18:	4604      	mov	r4, r0
    currdelta += (sysinterval_t)1;
 8003e1a:	4635      	mov	r5, r6
  while (true) {
 8003e1c:	e7e8      	b.n	8003df0 <chVTDoResetI+0x60>
 8003e1e:	bf00      	nop
 8003e20:	24000860 	.word	0x24000860
	...

08003e30 <chVTDoTickI>:
 *          to acquire the lock if needed. This is done in order to reduce
 *          interrupts jitter when many timers are in use.
 *
 * @iclass
 */
void chVTDoTickI(void) {
 8003e30:	e92d 4ff8 	stmdb	sp!, {r3, r4, r5, r6, r7, r8, r9, sl, fp, lr}
 8003e34:	4e3c      	ldr	r6, [pc, #240]	; (8003f28 <chVTDoTickI+0xf8>)
    lasttime = chTimeAddX(vtlp->lasttime, vtp->dlist.delta);
    vtlp->lasttime = lasttime;

    /* Removing the timer from the list, marking it as not armed.*/
    (void) ch_dlist_dequeue(&vtp->dlist);
    vtp->dlist.next = NULL;
 8003e36:	2700      	movs	r7, #0
 8003e38:	f04f 0930 	mov.w	r9, #48	; 0x30
 8003e3c:	f106 0810 	add.w	r8, r6, #16
 8003e40:	e009      	b.n	8003e56 <chVTDoTickI+0x26>
 8003e42:	f387 8811 	msr	BASEPRI, r7
    /* The callback is invoked outside the kernel critical section, it
       is re-entered on the callback return. Note that "lasttime" can be
       modified within the callback if some timer function is called.*/
    chSysUnlockFromISR();

    vtp->func(vtp, vtp->par);
 8003e46:	e9d4 3103 	ldrd	r3, r1, [r4, #12]
 8003e4a:	4620      	mov	r0, r4
 8003e4c:	4798      	blx	r3
 8003e4e:	f389 8811 	msr	BASEPRI, r9

    chSysLockFromISR();

    /* If a reload is defined the timer needs to be restarted.*/
    if (unlikely(vtp->reload > (sysinterval_t)0)) {
 8003e52:	6963      	ldr	r3, [r4, #20]
 8003e54:	b9ab      	cbnz	r3, 8003e82 <chVTDoTickI+0x52>
    vtp = (virtual_timer_t *)vtlp->dlist.next;
 8003e56:	6934      	ldr	r4, [r6, #16]
  return stGetCounter();
 8003e58:	f7fc fc42 	bl	80006e0 <stGetCounter>
    nowdelta = chTimeDiffX(vtlp->lasttime, now);
 8003e5c:	69f3      	ldr	r3, [r6, #28]
 8003e5e:	4605      	mov	r5, r0
    if (nowdelta < vtp->dlist.delta) {
 8003e60:	68a2      	ldr	r2, [r4, #8]
 8003e62:	1ac1      	subs	r1, r0, r3
 8003e64:	428a      	cmp	r2, r1
 8003e66:	d82c      	bhi.n	8003ec2 <chVTDoTickI+0x92>
  return systime + (systime_t)interval;
 8003e68:	189d      	adds	r5, r3, r2
  dlp->prev->next = dlp->next;
 8003e6a:	e9d4 1000 	ldrd	r1, r0, [r4]
    vtlp->lasttime = lasttime;
 8003e6e:	61f5      	str	r5, [r6, #28]
 8003e70:	6001      	str	r1, [r0, #0]
  dlp->next->prev = dlp->prev;
 8003e72:	6048      	str	r0, [r1, #4]
    vtp->dlist.next = NULL;
 8003e74:	6027      	str	r7, [r4, #0]
    if (ch_dlist_isempty(&vtlp->dlist)) {
 8003e76:	6933      	ldr	r3, [r6, #16]
 8003e78:	4543      	cmp	r3, r8
 8003e7a:	d1e2      	bne.n	8003e42 <chVTDoTickI+0x12>
  stStopAlarm();
 8003e7c:	f7fc fc40 	bl	8000700 <stStopAlarm>
}
 8003e80:	e7df      	b.n	8003e42 <chVTDoTickI+0x12>
  return stGetCounter();
 8003e82:	f7fc fc2d 	bl	80006e0 <stGetCounter>
      now = chVTGetSystemTimeX();
      nowdelta = chTimeDiffX(lasttime, now);

#if !defined(CH_VT_RFCU_DISABLED)
      /* Checking if the required reload is feasible.*/
      if (nowdelta > vtp->reload) {
 8003e86:	6963      	ldr	r3, [r4, #20]
  return (sysinterval_t)((systime_t)(end - start));
 8003e88:	eba0 0b05 	sub.w	fp, r0, r5
 8003e8c:	4682      	mov	sl, r0
 8003e8e:	455b      	cmp	r3, fp
 8003e90:	d32f      	bcc.n	8003ef2 <chVTDoTickI+0xc2>
  return (bool)(dlhp == dlhp->next);
 8003e92:	6931      	ldr	r1, [r6, #16]
      /* Enqueuing the timer again using the calculated delta.*/
      delay = vtp->reload - nowdelta;
#endif

      /* Special case where the timers list is empty.*/
      if (ch_dlist_isempty(&vtlp->dlist)) {
 8003e94:	4541      	cmp	r1, r8
 8003e96:	d03d      	beq.n	8003f14 <chVTDoTickI+0xe4>
  while (likely(dlp->delta < delta)) {
 8003e98:	688a      	ldr	r2, [r1, #8]
 8003e9a:	4293      	cmp	r3, r2
 8003e9c:	d904      	bls.n	8003ea8 <chVTDoTickI+0x78>
    dlp = dlp->next;
 8003e9e:	6809      	ldr	r1, [r1, #0]
    delta -= dlp->delta;
 8003ea0:	1a9b      	subs	r3, r3, r2
  while (likely(dlp->delta < delta)) {
 8003ea2:	688a      	ldr	r2, [r1, #8]
 8003ea4:	429a      	cmp	r2, r3
 8003ea6:	d3fa      	bcc.n	8003e9e <chVTDoTickI+0x6e>
  dlp->prev       = dlp->next->prev;
 8003ea8:	684a      	ldr	r2, [r1, #4]
  dlp->delta      = delta;
 8003eaa:	60a3      	str	r3, [r4, #8]
  dlp->prev       = dlp->next->prev;
 8003eac:	e9c4 1200 	strd	r1, r2, [r4]
  dlp->prev->next = dlp;
 8003eb0:	6014      	str	r4, [r2, #0]
  dlp->delta -= delta;
 8003eb2:	688a      	ldr	r2, [r1, #8]
  dlhp->prev      = dlp;
 8003eb4:	604c      	str	r4, [r1, #4]
  dlp->delta -= delta;
 8003eb6:	1ad2      	subs	r2, r2, r3
  dlhp->delta = (sysinterval_t)-1;
 8003eb8:	f04f 33ff 	mov.w	r3, #4294967295
  dlp->delta -= delta;
 8003ebc:	608a      	str	r2, [r1, #8]
  dlhp->delta = (sysinterval_t)-1;
 8003ebe:	61b3      	str	r3, [r6, #24]
}
 8003ec0:	e7c9      	b.n	8003e56 <chVTDoTickI+0x26>
      ch_dlist_insert(&vtlp->dlist, &vtp->dlist, delta);
    }
  }

  /* If the list is empty, nothing else to do.*/
  if (ch_dlist_isempty(&vtlp->dlist)) {
 8003ec2:	6931      	ldr	r1, [r6, #16]
 8003ec4:	4541      	cmp	r1, r8
 8003ec6:	d012      	beq.n	8003eee <chVTDoTickI+0xbe>
  }

  /* The "unprocessed nowdelta" time slice is added to "last time"
     and subtracted to next timer's delta.*/
  vtlp->lasttime += nowdelta;
  vtp->dlist.delta -= nowdelta;
 8003ec8:	4413      	add	r3, r2
 8003eca:	2702      	movs	r7, #2
  vtlp->lasttime += nowdelta;
 8003ecc:	61f0      	str	r0, [r6, #28]
  vtp->dlist.delta -= nowdelta;
 8003ece:	1a1b      	subs	r3, r3, r0
 8003ed0:	42bb      	cmp	r3, r7
 8003ed2:	461e      	mov	r6, r3
 8003ed4:	60a3      	str	r3, [r4, #8]
 8003ed6:	bf38      	it	cc
 8003ed8:	463e      	movcc	r6, r7
  stSetAlarm(time);
 8003eda:	19a8      	adds	r0, r5, r6
 8003edc:	f7fc fc18 	bl	8000710 <stSetAlarm>
  return stGetCounter();
 8003ee0:	f7fc fbfe 	bl	80006e0 <stGetCounter>
 8003ee4:	1b45      	subs	r5, r0, r5
    if (likely(nowdelta < delay)) {
 8003ee6:	42ae      	cmp	r6, r5
 8003ee8:	d910      	bls.n	8003f0c <chVTDoTickI+0xdc>
  if (currdelta > CH_CFG_ST_TIMEDELTA) {
 8003eea:	2f02      	cmp	r7, #2
 8003eec:	d809      	bhi.n	8003f02 <chVTDoTickI+0xd2>

  /* Update alarm time to next timer.*/
  vt_set_alarm(now, vtp->dlist.delta);
#endif /* CH_CFG_ST_TIMEDELTA > 0 */
}
 8003eee:	e8bd 8ff8 	ldmia.w	sp!, {r3, r4, r5, r6, r7, r8, r9, sl, fp, pc}
        chRFCUCollectFaultsI(CH_RFCU_VT_SKIPPED_DEADLINE);
 8003ef2:	2002      	movs	r0, #2
 8003ef4:	f7ff fe1c 	bl	8003b30 <chRFCUCollectFaultsI>
  return (bool)(dlhp == dlhp->next);
 8003ef8:	6931      	ldr	r1, [r6, #16]
      if (ch_dlist_isempty(&vtlp->dlist)) {
 8003efa:	4541      	cmp	r1, r8
 8003efc:	d012      	beq.n	8003f24 <chVTDoTickI+0xf4>
 8003efe:	465b      	mov	r3, fp
 8003f00:	e7ca      	b.n	8003e98 <chVTDoTickI+0x68>
    chRFCUCollectFaultsI(CH_RFCU_VT_INSUFFICIENT_DELTA);
 8003f02:	2001      	movs	r0, #1
}
 8003f04:	e8bd 4ff8 	ldmia.w	sp!, {r3, r4, r5, r6, r7, r8, r9, sl, fp, lr}
    chRFCUCollectFaultsI(CH_RFCU_VT_INSUFFICIENT_DELTA);
 8003f08:	f7ff be12 	b.w	8003b30 <chRFCUCollectFaultsI>
    currdelta += (sysinterval_t)1;
 8003f0c:	3701      	adds	r7, #1
    now = newnow;
 8003f0e:	4605      	mov	r5, r0
    currdelta += (sysinterval_t)1;
 8003f10:	463e      	mov	r6, r7
  while (true) {
 8003f12:	e7e2      	b.n	8003eda <chVTDoTickI+0xaa>
        delay = vtp->reload - nowdelta;
 8003f14:	442b      	add	r3, r5
 8003f16:	1a1a      	subs	r2, r3, r0
        vt_insert_first(vtlp, vtp, now, delay);
 8003f18:	4651      	mov	r1, sl
 8003f1a:	4620      	mov	r0, r4
}
 8003f1c:	e8bd 4ff8 	ldmia.w	sp!, {r3, r4, r5, r6, r7, r8, r9, sl, fp, lr}
        vt_insert_first(vtlp, vtp, now, delay);
 8003f20:	f7ff bea6 	b.w	8003c70 <vt_insert_first.constprop.0>
        delay = (sysinterval_t)0;
 8003f24:	2200      	movs	r2, #0
 8003f26:	e7f7      	b.n	8003f18 <chVTDoTickI+0xe8>
 8003f28:	24000860 	.word	0x24000860
 8003f2c:	00000000 	.word	0x00000000

08003f30 <__sch_wakeup>:
}

/*
 * Timeout wakeup callback.
 */
static void __sch_wakeup(virtual_timer_t *vtp, void *p) {
 8003f30:	b510      	push	{r4, lr}
 8003f32:	2330      	movs	r3, #48	; 0x30
 8003f34:	460c      	mov	r4, r1
 8003f36:	f383 8811 	msr	BASEPRI, r3
  thread_t *tp = threadref(p);

  (void)vtp;

  chSysLockFromISR();
  switch (tp->state) {
 8003f3a:	f891 3024 	ldrb.w	r3, [r1, #36]	; 0x24
 8003f3e:	2b0c      	cmp	r3, #12
 8003f40:	d810      	bhi.n	8003f64 <__sch_wakeup+0x34>
 8003f42:	e8df f003 	tbb	[pc, r3]
 8003f46:	0f2b      	.short	0x0f2b
 8003f48:	070b270f 	.word	0x070b270f
 8003f4c:	0f0f0b0f 	.word	0x0f0f0b0f
 8003f50:	0f0f      	.short	0x0f0f
 8003f52:	0b          	.byte	0x0b
 8003f53:	00          	.byte	0x00
  case CH_STATE_SUSPENDED:
    *tp->u.wttrp = NULL;
    break;
#if CH_CFG_USE_SEMAPHORES == TRUE
  case CH_STATE_WTSEM:
    chSemFastSignalI(tp->u.wtsemp);
 8003f54:	6a8a      	ldr	r2, [r1, #40]	; 0x28
 */
static inline void chSemFastSignalI(semaphore_t *sp) {

  chDbgCheckClassI();

  sp->cnt++;
 8003f56:	6893      	ldr	r3, [r2, #8]
 8003f58:	3301      	adds	r3, #1
 8003f5a:	6093      	str	r3, [r2, #8]
  p->prev->next = p->next;
 8003f5c:	e9d4 3200 	ldrd	r3, r2, [r4]
 8003f60:	6013      	str	r3, [r2, #0]
  p->next->prev = p->prev;
 8003f62:	605a      	str	r2, [r3, #4]
    /* Any other state, nothing to do.*/
    break;
  }

  /* Standard message for timeout conditions.*/
  tp->u.rdymsg = MSG_TIMEOUT;
 8003f64:	f04f 31ff 	mov.w	r1, #4294967295
  __trace_ready(tp, tp->u.rdymsg);
 8003f68:	4620      	mov	r0, r4
  tp->u.rdymsg = MSG_TIMEOUT;
 8003f6a:	62a1      	str	r1, [r4, #40]	; 0x28
  __trace_ready(tp, tp->u.rdymsg);
 8003f6c:	f7ff fe20 	bl	8003bb0 <__trace_ready>
  tp->state = CH_STATE_READY;
 8003f70:	2200      	movs	r2, #0
  return threadref(ch_pqueue_insert_behind(&tp->owner->rlist.pqueue,
 8003f72:	69a3      	ldr	r3, [r4, #24]
  } while (unlikely(pqp->prio >= p->prio));
 8003f74:	68a1      	ldr	r1, [r4, #8]
  tp->state = CH_STATE_READY;
 8003f76:	f884 2024 	strb.w	r2, [r4, #36]	; 0x24
    pqp = pqp->next;
 8003f7a:	681b      	ldr	r3, [r3, #0]
  } while (unlikely(pqp->prio >= p->prio));
 8003f7c:	689a      	ldr	r2, [r3, #8]
 8003f7e:	428a      	cmp	r2, r1
 8003f80:	d2fb      	bcs.n	8003f7a <__sch_wakeup+0x4a>
  p->prev       = pqp->prev;
 8003f82:	685a      	ldr	r2, [r3, #4]
 8003f84:	2100      	movs	r1, #0
  p->next       = pqp;
 8003f86:	6023      	str	r3, [r4, #0]
  p->prev       = pqp->prev;
 8003f88:	6062      	str	r2, [r4, #4]
  p->prev->next = p;
 8003f8a:	6014      	str	r4, [r2, #0]
  pqp->prev     = p;
 8003f8c:	605c      	str	r4, [r3, #4]
 8003f8e:	f381 8811 	msr	BASEPRI, r1
  /* Goes behind peers because it went to sleep voluntarily.*/
  (void) __sch_ready_behind(tp);
  chSysUnlockFromISR();

  return;
}
 8003f92:	bd10      	pop	{r4, pc}
    *tp->u.wttrp = NULL;
 8003f94:	6a8b      	ldr	r3, [r1, #40]	; 0x28
 8003f96:	2200      	movs	r2, #0
 8003f98:	601a      	str	r2, [r3, #0]
    break;
 8003f9a:	e7e3      	b.n	8003f64 <__sch_wakeup+0x34>
 8003f9c:	2300      	movs	r3, #0
 8003f9e:	f383 8811 	msr	BASEPRI, r3
}
 8003fa2:	bd10      	pop	{r4, pc}
	...

08003fb0 <chSchReadyI>:
 * @param[in] tp        the thread to be made ready
 * @return              The thread pointer.
 *
 * @iclass
 */
thread_t *chSchReadyI(thread_t *tp) {
 8003fb0:	b510      	push	{r4, lr}
 8003fb2:	4604      	mov	r4, r0
  __trace_ready(tp, tp->u.rdymsg);
 8003fb4:	6a81      	ldr	r1, [r0, #40]	; 0x28
 8003fb6:	f7ff fdfb 	bl	8003bb0 <__trace_ready>
  tp->state = CH_STATE_READY;
 8003fba:	2200      	movs	r2, #0
  return threadref(ch_pqueue_insert_behind(&tp->owner->rlist.pqueue,
 8003fbc:	69a3      	ldr	r3, [r4, #24]
  } while (unlikely(pqp->prio >= p->prio));
 8003fbe:	68a1      	ldr	r1, [r4, #8]
  tp->state = CH_STATE_READY;
 8003fc0:	f884 2024 	strb.w	r2, [r4, #36]	; 0x24
    pqp = pqp->next;
 8003fc4:	681b      	ldr	r3, [r3, #0]
  } while (unlikely(pqp->prio >= p->prio));
 8003fc6:	689a      	ldr	r2, [r3, #8]
 8003fc8:	428a      	cmp	r2, r1
 8003fca:	d2fb      	bcs.n	8003fc4 <chSchReadyI+0x14>
  p->prev       = pqp->prev;
 8003fcc:	685a      	ldr	r2, [r3, #4]
    chSysNotifyInstance(tp->owner);
  }
#endif

  return __sch_ready_behind(tp);
}
 8003fce:	4620      	mov	r0, r4
  p->next       = pqp;
 8003fd0:	6023      	str	r3, [r4, #0]
  p->prev       = pqp->prev;
 8003fd2:	6062      	str	r2, [r4, #4]
  p->prev->next = p;
 8003fd4:	6014      	str	r4, [r2, #0]
  pqp->prev     = p;
 8003fd6:	605c      	str	r4, [r3, #4]
 8003fd8:	bd10      	pop	{r4, pc}
 8003fda:	bf00      	nop
 8003fdc:	0000      	movs	r0, r0
	...

08003fe0 <chSchGoSleepS>:
 *
 * @param[in] newstate  the new thread state
 *
 * @sclass
 */
void chSchGoSleepS(tstate_t newstate) {
 8003fe0:	b538      	push	{r3, r4, r5, lr}
  os_instance_t *oip = currcore;
  thread_t *otp = __instance_get_currthread(oip);
 8003fe2:	4b0b      	ldr	r3, [pc, #44]	; (8004010 <chSchGoSleepS+0x30>)
  otp->ticks = (tslices_t)CH_CFG_TIME_QUANTUM;
#endif

  /* Next thread in ready list becomes current.*/
  ntp = threadref(ch_pqueue_remove_highest(&oip->rlist.pqueue));
  ntp->state = CH_STATE_CURRENT;
 8003fe4:	2101      	movs	r1, #1
  ch_priority_queue_t *p = pqp->next;
 8003fe6:	681c      	ldr	r4, [r3, #0]
  thread_t *otp = __instance_get_currthread(oip);
 8003fe8:	68dd      	ldr	r5, [r3, #12]
  otp->state = newstate;
 8003fea:	f885 0024 	strb.w	r0, [r5, #36]	; 0x24
  if (ntp->hdr.pqueue.prio == IDLEPRIO) {
    CH_CFG_IDLE_ENTER_HOOK();
  }

  /* Swap operation as tail call.*/
  chSysSwitch(ntp, otp);
 8003fee:	4620      	mov	r0, r4
  pqp->next       = p->next;
 8003ff0:	6822      	ldr	r2, [r4, #0]
  pqp->next->prev = pqp;
 8003ff2:	6053      	str	r3, [r2, #4]
  pqp->next       = p->next;
 8003ff4:	601a      	str	r2, [r3, #0]
  ntp->state = CH_STATE_CURRENT;
 8003ff6:	f884 1024 	strb.w	r1, [r4, #36]	; 0x24
  chSysSwitch(ntp, otp);
 8003ffa:	4629      	mov	r1, r5
  __instance_set_currthread(oip, ntp);
 8003ffc:	60dc      	str	r4, [r3, #12]
  chSysSwitch(ntp, otp);
 8003ffe:	f7ff fdef 	bl	8003be0 <__trace_switch>
 8004002:	4629      	mov	r1, r5
 8004004:	4620      	mov	r0, r4
}
 8004006:	e8bd 4038 	ldmia.w	sp!, {r3, r4, r5, lr}
  chSysSwitch(ntp, otp);
 800400a:	f7fc b9d9 	b.w	80003c0 <__port_switch>
 800400e:	bf00      	nop
 8004010:	24000860 	.word	0x24000860
	...

08004020 <chSchGoSleepTimeoutS>:
 * @return              The wakeup message.
 * @retval MSG_TIMEOUT  if a timeout occurs.
 *
 * @sclass
 */
msg_t chSchGoSleepTimeoutS(tstate_t newstate, sysinterval_t timeout) {
 8004020:	b5f0      	push	{r4, r5, r6, r7, lr}
  thread_t *tp = __instance_get_currthread(currcore);

  chDbgCheckClassS();

  if (TIME_INFINITE != timeout) {
 8004022:	1c4b      	adds	r3, r1, #1
  thread_t *tp = __instance_get_currthread(currcore);
 8004024:	4c1c      	ldr	r4, [pc, #112]	; (8004098 <chSchGoSleepTimeoutS+0x78>)
msg_t chSchGoSleepTimeoutS(tstate_t newstate, sysinterval_t timeout) {
 8004026:	b087      	sub	sp, #28
 8004028:	4605      	mov	r5, r0
  thread_t *tp = __instance_get_currthread(currcore);
 800402a:	68e6      	ldr	r6, [r4, #12]
  if (TIME_INFINITE != timeout) {
 800402c:	d01f      	beq.n	800406e <chSchGoSleepTimeoutS+0x4e>
    virtual_timer_t vt;

    chVTDoSetI(&vt, timeout, __sch_wakeup, (void *)tp);
 800402e:	4633      	mov	r3, r6
 8004030:	4a1a      	ldr	r2, [pc, #104]	; (800409c <chSchGoSleepTimeoutS+0x7c>)
 8004032:	4668      	mov	r0, sp
 8004034:	f7ff fea4 	bl	8003d80 <chVTDoSetI>
  thread_t *otp = __instance_get_currthread(oip);
 8004038:	68e7      	ldr	r7, [r4, #12]
  ntp->state = CH_STATE_CURRENT;
 800403a:	2201      	movs	r2, #1
  otp->state = newstate;
 800403c:	f887 5024 	strb.w	r5, [r7, #36]	; 0x24
  chSysSwitch(ntp, otp);
 8004040:	4639      	mov	r1, r7
  ch_priority_queue_t *p = pqp->next;
 8004042:	6825      	ldr	r5, [r4, #0]
  pqp->next       = p->next;
 8004044:	682b      	ldr	r3, [r5, #0]
 8004046:	4628      	mov	r0, r5
  pqp->next->prev = pqp;
 8004048:	605c      	str	r4, [r3, #4]
  ntp->state = CH_STATE_CURRENT;
 800404a:	f885 2024 	strb.w	r2, [r5, #36]	; 0x24
  pqp->next       = p->next;
 800404e:	6023      	str	r3, [r4, #0]
  __instance_set_currthread(oip, ntp);
 8004050:	60e5      	str	r5, [r4, #12]
  chSysSwitch(ntp, otp);
 8004052:	f7ff fdc5 	bl	8003be0 <__trace_switch>
 8004056:	4639      	mov	r1, r7
 8004058:	4628      	mov	r0, r5
 800405a:	f7fc f9b1 	bl	80003c0 <__port_switch>
    chSchGoSleepS(newstate);
    if (chVTIsArmedI(&vt)) {
 800405e:	9b00      	ldr	r3, [sp, #0]
 8004060:	b113      	cbz	r3, 8004068 <chSchGoSleepTimeoutS+0x48>
      chVTDoResetI(&vt);
 8004062:	4668      	mov	r0, sp
 8004064:	f7ff fe94 	bl	8003d90 <chVTDoResetI>
  else {
    chSchGoSleepS(newstate);
  }

  return tp->u.rdymsg;
}
 8004068:	6ab0      	ldr	r0, [r6, #40]	; 0x28
 800406a:	b007      	add	sp, #28
 800406c:	bdf0      	pop	{r4, r5, r6, r7, pc}
  ch_priority_queue_t *p = pqp->next;
 800406e:	6827      	ldr	r7, [r4, #0]
  ntp->state = CH_STATE_CURRENT;
 8004070:	2201      	movs	r2, #1
  otp->state = newstate;
 8004072:	f886 0024 	strb.w	r0, [r6, #36]	; 0x24
  chSysSwitch(ntp, otp);
 8004076:	4631      	mov	r1, r6
  pqp->next       = p->next;
 8004078:	683b      	ldr	r3, [r7, #0]
 800407a:	4638      	mov	r0, r7
  pqp->next->prev = pqp;
 800407c:	605c      	str	r4, [r3, #4]
  ntp->state = CH_STATE_CURRENT;
 800407e:	f887 2024 	strb.w	r2, [r7, #36]	; 0x24
  pqp->next       = p->next;
 8004082:	6023      	str	r3, [r4, #0]
  __instance_set_currthread(oip, ntp);
 8004084:	60e7      	str	r7, [r4, #12]
  chSysSwitch(ntp, otp);
 8004086:	f7ff fdab 	bl	8003be0 <__trace_switch>
 800408a:	4638      	mov	r0, r7
 800408c:	4631      	mov	r1, r6
 800408e:	f7fc f997 	bl	80003c0 <__port_switch>
}
 8004092:	6ab0      	ldr	r0, [r6, #40]	; 0x28
 8004094:	b007      	add	sp, #28
 8004096:	bdf0      	pop	{r4, r5, r6, r7, pc}
 8004098:	24000860 	.word	0x24000860
 800409c:	08003f31 	.word	0x08003f31

080040a0 <chSchIsPreemptionRequired>:
 */
bool chSchIsPreemptionRequired(void) {
  os_instance_t *oip = currcore;
  thread_t *tp = __instance_get_currthread(oip);

  tprio_t p1 = firstprio(&oip->rlist.pqueue);
 80040a0:	4b04      	ldr	r3, [pc, #16]	; (80040b4 <chSchIsPreemptionRequired+0x14>)
 80040a2:	681a      	ldr	r2, [r3, #0]
  tprio_t p2 = tp->hdr.pqueue.prio;
 80040a4:	68db      	ldr	r3, [r3, #12]
     if the first thread on the ready queue has equal or higher priority.*/
  return (tp->ticks > (tslices_t)0) ? (p1 > p2) : (p1 >= p2);
#else
  /* If the round robin preemption feature is not enabled then performs a
     simpler comparison.*/
  return p1 > p2;
 80040a6:	6890      	ldr	r0, [r2, #8]
 80040a8:	689b      	ldr	r3, [r3, #8]
#endif
}
 80040aa:	4298      	cmp	r0, r3
 80040ac:	bf94      	ite	ls
 80040ae:	2000      	movls	r0, #0
 80040b0:	2001      	movhi	r0, #1
 80040b2:	4770      	bx	lr
 80040b4:	24000860 	.word	0x24000860
	...

080040c0 <chSchDoPreemption>:
 * @note    Not a user function, it is meant to be invoked from within
 *          the port layer in the IRQ-related preemption code.
 *
 * @special
 */
void chSchDoPreemption(void) {
 80040c0:	b538      	push	{r3, r4, r5, lr}
  os_instance_t *oip = currcore;
  thread_t *otp = __instance_get_currthread(oip);
 80040c2:	4b13      	ldr	r3, [pc, #76]	; (8004110 <chSchDoPreemption+0x50>)
  thread_t *ntp;

  /* Picks the first thread from the ready queue and makes it current.*/
  ntp = threadref(ch_pqueue_remove_highest(&oip->rlist.pqueue));
  ntp->state = CH_STATE_CURRENT;
 80040c4:	2101      	movs	r1, #1
  ch_priority_queue_t *p = pqp->next;
 80040c6:	681d      	ldr	r5, [r3, #0]
  thread_t *otp = __instance_get_currthread(oip);
 80040c8:	68dc      	ldr	r4, [r3, #12]
  pqp->next       = p->next;
 80040ca:	682a      	ldr	r2, [r5, #0]
  __trace_ready(tp, tp->u.rdymsg);
 80040cc:	4620      	mov	r0, r4
  pqp->next->prev = pqp;
 80040ce:	6053      	str	r3, [r2, #4]
  pqp->next       = p->next;
 80040d0:	601a      	str	r2, [r3, #0]
  ntp->state = CH_STATE_CURRENT;
 80040d2:	f885 1024 	strb.w	r1, [r5, #36]	; 0x24
  __trace_ready(tp, tp->u.rdymsg);
 80040d6:	6aa1      	ldr	r1, [r4, #40]	; 0x28
  __instance_set_currthread(oip, ntp);
 80040d8:	60dd      	str	r5, [r3, #12]
  __trace_ready(tp, tp->u.rdymsg);
 80040da:	f7ff fd69 	bl	8003bb0 <__trace_ready>
  tp->state = CH_STATE_READY;
 80040de:	2200      	movs	r2, #0
  return threadref(ch_pqueue_insert_ahead(&tp->owner->rlist.pqueue,
 80040e0:	69a3      	ldr	r3, [r4, #24]
  } while (unlikely(pqp->prio > p->prio));
 80040e2:	68a1      	ldr	r1, [r4, #8]
  tp->state = CH_STATE_READY;
 80040e4:	f884 2024 	strb.w	r2, [r4, #36]	; 0x24
    pqp = pqp->next;
 80040e8:	681b      	ldr	r3, [r3, #0]
  } while (unlikely(pqp->prio > p->prio));
 80040ea:	689a      	ldr	r2, [r3, #8]
 80040ec:	428a      	cmp	r2, r1
 80040ee:	d8fb      	bhi.n	80040e8 <chSchDoPreemption+0x28>
  p->prev       = pqp->prev;
 80040f0:	685a      	ldr	r2, [r3, #4]
     ahead of its peers.*/
  otp = __sch_ready_ahead(otp);
#endif /* !(CH_CFG_TIME_QUANTUM > 0) */

  /* Swap operation as tail call.*/
  chSysSwitch(ntp, otp);
 80040f2:	4621      	mov	r1, r4
  p->next       = pqp;
 80040f4:	6023      	str	r3, [r4, #0]
 80040f6:	4628      	mov	r0, r5
  p->prev       = pqp->prev;
 80040f8:	6062      	str	r2, [r4, #4]
  p->prev->next = p;
 80040fa:	6014      	str	r4, [r2, #0]
  pqp->prev     = p;
 80040fc:	605c      	str	r4, [r3, #4]
 80040fe:	f7ff fd6f 	bl	8003be0 <__trace_switch>
 8004102:	4621      	mov	r1, r4
 8004104:	4628      	mov	r0, r5
}
 8004106:	e8bd 4038 	ldmia.w	sp!, {r3, r4, r5, lr}
  chSysSwitch(ntp, otp);
 800410a:	f7fc b959 	b.w	80003c0 <__port_switch>
 800410e:	bf00      	nop
 8004110:	24000860 	.word	0x24000860
	...

08004120 <__idle_thread>:
  (void)p;

  while (true) {
    /*lint -save -e522 [2.2] Apparently no side effects because it contains
      an asm instruction.*/
    port_wait_for_interrupt();
 8004120:	e7fe      	b.n	8004120 <__idle_thread>
 8004122:	bf00      	nop
	...

08004130 <chInstanceObjectInit>:
 * @param[in] oicp      pointer to the @p os_instance_config_t structure
 *
 * @special
 */
void chInstanceObjectInit(os_instance_t *oip,
                          const os_instance_config_t *oicp) {
 8004130:	b570      	push	{r4, r5, r6, lr}
  core_id = port_get_core_id();
#else
  core_id = 0U;
#endif
  chDbgAssert(ch_system.instances[core_id] == NULL, "instance already registered");
  ch_system.instances[core_id] = oip;
 8004132:	4b21      	ldr	r3, [pc, #132]	; (80041b8 <chInstanceObjectInit+0x88>)

  /* Core associated to this instance.*/
  oip->core_id = core_id;
 8004134:	2500      	movs	r5, #0
                          const os_instance_config_t *oicp) {
 8004136:	4604      	mov	r4, r0
 8004138:	b086      	sub	sp, #24

  /* Keeping a reference to the configuration data.*/
  oip->config = oicp;
 800413a:	6381      	str	r1, [r0, #56]	; 0x38
                          const os_instance_config_t *oicp) {
 800413c:	460e      	mov	r6, r1
  oip->core_id = core_id;
 800413e:	6305      	str	r5, [r0, #48]	; 0x30
  ch_system.instances[core_id] = oip;
 8004140:	6058      	str	r0, [r3, #4]

  /* Port initialization for the current instance.*/
  port_init(oip);
 8004142:	f000 fa4d 	bl	80045e0 <port_init>
 *
 * @notapi
 */
static inline void __vt_object_init(virtual_timers_list_t *vtlp) {

  ch_dlist_init(&vtlp->dlist);
 8004146:	f104 0310 	add.w	r3, r4, #16
 *
 * @init
 */
static inline void __reg_object_init(registry_t *rp) {

  ch_queue_init(&rp->queue);
 800414a:	f104 0228 	add.w	r2, r4, #40	; 0x28
  pqp->prio = (tprio_t)0;
 800414e:	60a5      	str	r5, [r4, #8]
 *
 * @notapi
 */
static inline void __rfcu_object_init(rfcu_t *rfcup) {

  rfcup->mask = (rfcu_mask_t)0;
 8004150:	6365      	str	r5, [r4, #52]	; 0x34
  dlhp->prev  = dlhp;
 8004152:	e9c4 3304 	strd	r3, r3, [r4, #16]
  dlhp->delta = (sysinterval_t)-1;
 8004156:	f04f 33ff 	mov.w	r3, #4294967295
  qp->prev = qp;
 800415a:	e9c4 220a 	strd	r2, r2, [r4, #40]	; 0x28
  dlhp->delta = (sysinterval_t)-1;
 800415e:	e9c4 3506 	strd	r3, r5, [r4, #24]
  pqp->prev = pqp;
 8004162:	e9c4 4400 	strd	r4, r4, [r4]
 8004166:	f7fc fabb 	bl	80006e0 <stGetCounter>
  vtlp->systime = (systime_t)0;
#else /* CH_CFG_ST_TIMEDELTA > 0 */
  vtlp->lasttime = (systime_t)0;
#endif /* CH_CFG_ST_TIMEDELTA > 0 */
#if CH_CFG_USE_TIMESTAMP == TRUE
  vtlp->laststamp = (systimestamp_t)chVTGetSystemTimeX();
 800416a:	462b      	mov	r3, r5
 800416c:	4602      	mov	r2, r0
  /* Debug support initialization.*/
  __dbg_object_init(&oip->dbg);

#if CH_DBG_TRACE_MASK != CH_DBG_TRACE_MASK_DISABLED
  /* Trace buffer initialization.*/
  __trace_object_init(&oip->trace_buffer);
 800416e:	f104 0088 	add.w	r0, r4, #136	; 0x88
 8004172:	e9c4 2308 	strd	r2, r3, [r4, #32]
 *
 * @notapi
 */
static inline void __dbg_object_init(system_debug_t *sdp) {

  sdp->panic_msg = NULL;
 8004176:	f8c4 5084 	str.w	r5, [r4, #132]	; 0x84
 800417a:	f7ff fd01 	bl	8003b80 <__trace_object_init>
#endif

#if CH_CFG_NO_IDLE_THREAD == FALSE
  /* Now this instructions flow becomes the main thread.*/
#if CH_CFG_USE_REGISTRY == TRUE
  oip->rlist.current = __thd_object_init(oip, &oip->mainthread,
 800417e:	f104 013c 	add.w	r1, r4, #60	; 0x3c
 8004182:	2380      	movs	r3, #128	; 0x80
 8004184:	4a0d      	ldr	r2, [pc, #52]	; (80041bc <chInstanceObjectInit+0x8c>)
 8004186:	4620      	mov	r0, r4
 8004188:	f000 f822 	bl	80041d0 <__thd_object_init>
#if (CH_DBG_ENABLE_STACK_CHECK == TRUE) || (CH_CFG_USE_DYNAMIC == TRUE)
  oip->rlist.current->wabase = oicp->mainthread_base;
#endif

  /* Setting up the caller as current thread.*/
  oip->rlist.current->state = CH_STATE_CURRENT;
 800418c:	2201      	movs	r2, #1
  oip->rlist.current = __thd_object_init(oip, &oip->mainthread,
 800418e:	4603      	mov	r3, r0
  oip->rlist.current->wabase = oicp->mainthread_base;
 8004190:	6871      	ldr	r1, [r6, #4]
  /* User instance initialization hook.*/
  CH_CFG_OS_INSTANCE_INIT_HOOK(oip);

#if CH_CFG_NO_IDLE_THREAD == FALSE
  {
    thread_descriptor_t idle_descriptor = {
 8004192:	9203      	str	r2, [sp, #12]
#endif

    /* This thread has the lowest priority in the system, its role is just to
       serve interrupts in its context while keeping the lowest energy saving
       mode compatible with the system status.*/
    (void) chThdCreateI(&idle_descriptor);
 8004194:	4668      	mov	r0, sp
  oip->rlist.current = __thd_object_init(oip, &oip->mainthread,
 8004196:	60e3      	str	r3, [r4, #12]
  oip->rlist.current->state = CH_STATE_CURRENT;
 8004198:	f883 2024 	strb.w	r2, [r3, #36]	; 0x24
    thread_descriptor_t idle_descriptor = {
 800419c:	4a08      	ldr	r2, [pc, #32]	; (80041c0 <chInstanceObjectInit+0x90>)
  oip->rlist.current->wabase = oicp->mainthread_base;
 800419e:	6219      	str	r1, [r3, #32]
    thread_descriptor_t idle_descriptor = {
 80041a0:	9200      	str	r2, [sp, #0]
 80041a2:	4b08      	ldr	r3, [pc, #32]	; (80041c4 <chInstanceObjectInit+0x94>)
 80041a4:	9505      	str	r5, [sp, #20]
 80041a6:	9304      	str	r3, [sp, #16]
 80041a8:	e9d6 1203 	ldrd	r1, r2, [r6, #12]
 80041ac:	e9cd 1201 	strd	r1, r2, [sp, #4]
    (void) chThdCreateI(&idle_descriptor);
 80041b0:	f000 f876 	bl	80042a0 <chThdCreateI>
  }
#endif
}
 80041b4:	b006      	add	sp, #24
 80041b6:	bd70      	pop	{r4, r5, r6, pc}
 80041b8:	24001220 	.word	0x24001220
 80041bc:	08004d0c 	.word	0x08004d0c
 80041c0:	08004d04 	.word	0x08004d04
 80041c4:	08004121 	.word	0x08004121
	...

080041d0 <__thd_object_init>:
 * @notapi
 */
thread_t *__thd_object_init(os_instance_t *oip,
                            thread_t *tp,
                            const char *name,
                            tprio_t prio) {
 80041d0:	b410      	push	{r4}
#if CH_CFG_TIME_QUANTUM > 0
  tp->ticks             = (tslices_t)CH_CFG_TIME_QUANTUM;
#endif
#if CH_CFG_USE_MUTEXES == TRUE
  tp->realprio          = prio;
  tp->mtxlist           = NULL;
 80041d2:	2400      	movs	r4, #0
  tp->hdr.pqueue.prio   = prio;
 80041d4:	608b      	str	r3, [r1, #8]
#if CH_DBG_THREADS_PROFILING == TRUE
  tp->time              = (systime_t)0;
#endif
#if CH_CFG_USE_REGISTRY == TRUE
  tp->refs              = (trefs_t)1;
  tp->name              = name;
 80041d6:	61ca      	str	r2, [r1, #28]
  REG_INSERT(oip, tp);
 80041d8:	f101 0210 	add.w	r2, r1, #16
  tp->epending          = (eventmask_t)0;
 80041dc:	638c      	str	r4, [r1, #56]	; 0x38
  tp->owner             = oip;
 80041de:	6188      	str	r0, [r1, #24]
  tp->mtxlist           = NULL;
 80041e0:	e9c1 430f 	strd	r4, r3, [r1, #60]	; 0x3c
  tp->state             = CH_STATE_WTSTART;
 80041e4:	2402      	movs	r4, #2
  tp->refs              = (trefs_t)1;
 80041e6:	2301      	movs	r3, #1
  tp->state             = CH_STATE_WTSTART;
 80041e8:	848c      	strh	r4, [r1, #36]	; 0x24
  REG_INSERT(oip, tp);
 80041ea:	f100 0428 	add.w	r4, r0, #40	; 0x28
  tp->refs              = (trefs_t)1;
 80041ee:	f881 3026 	strb.w	r3, [r1, #38]	; 0x26
  p->prev       = qp->prev;
 80041f2:	6ac3      	ldr	r3, [r0, #44]	; 0x2c
 80041f4:	e9c1 4304 	strd	r4, r3, [r1, #16]
  p->prev->next = p;
 80041f8:	601a      	str	r2, [r3, #0]
#else
  (void)name;
#endif
#if CH_CFG_USE_WAITEXIT == TRUE
  ch_list_init(&tp->waiting);
 80041fa:	f101 042c 	add.w	r4, r1, #44	; 0x2c
#endif
#if CH_CFG_USE_MESSAGES == TRUE
  ch_queue_init(&tp->msgqueue);
 80041fe:	f101 0330 	add.w	r3, r1, #48	; 0x30
  qp->prev      = p;
 8004202:	62c2      	str	r2, [r0, #44]	; 0x2c
#if CH_DBG_STATISTICS == TRUE
  chTMObjectInit(&tp->stats);
#endif
  CH_CFG_THREAD_INIT_HOOK(tp);
  return tp;
}
 8004204:	4608      	mov	r0, r1
  qp->prev = qp;
 8004206:	634b      	str	r3, [r1, #52]	; 0x34
  qp->next = qp;
 8004208:	e9c1 430b 	strd	r4, r3, [r1, #44]	; 0x2c
 800420c:	bc10      	pop	{r4}
 800420e:	4770      	bx	lr

08004210 <chThdCreateSuspendedI>:
 * @return              The pointer to the @p thread_t structure allocated for
 *                      the thread into the working space area.
 *
 * @iclass
 */
thread_t *chThdCreateSuspendedI(const thread_descriptor_t *tdp) {
 8004210:	b570      	push	{r4, r5, r6, lr}
  if (tdp->instance != NULL) {
    return __thd_object_init(tdp->instance, tp, tdp->name, tdp->prio);
  }
#endif

  return __thd_object_init(currcore, tp, tdp->name, tdp->prio);
 8004212:	e9d0 3402 	ldrd	r3, r4, [r0, #8]
  tp->wabase = tdp->wbase;
 8004216:	6845      	ldr	r5, [r0, #4]
  tp->flags             = CH_FLAG_MODE_STATIC;
 8004218:	2100      	movs	r1, #0
  tp->owner             = oip;
 800421a:	4a1d      	ldr	r2, [pc, #116]	; (8004290 <chThdCreateSuspendedI+0x80>)
  tp->state             = CH_STATE_WTSTART;
 800421c:	f04f 0e02 	mov.w	lr, #2
  tp->wabase = tdp->wbase;
 8004220:	f843 5c28 	str.w	r5, [r3, #-40]
  tp->refs              = (trefs_t)1;
 8004224:	f04f 0c01 	mov.w	ip, #1
  PORT_SETUP_CONTEXT(tp, tdp->wbase, tp, tdp->funcp, tdp->arg);
 8004228:	6905      	ldr	r5, [r0, #16]
 800422a:	4e1a      	ldr	r6, [pc, #104]	; (8004294 <chThdCreateSuspendedI+0x84>)
 800422c:	f843 5c6c 	str.w	r5, [r3, #-108]
 8004230:	6945      	ldr	r5, [r0, #20]
 8004232:	f843 6c4c 	str.w	r6, [r3, #-76]
 8004236:	f843 5c68 	str.w	r5, [r3, #-104]
  return __thd_object_init(currcore, tp, tdp->name, tdp->prio);
 800423a:	6805      	ldr	r5, [r0, #0]
  REG_INSERT(oip, tp);
 800423c:	f1a3 0038 	sub.w	r0, r3, #56	; 0x38
  tp->flags             = CH_FLAG_MODE_STATIC;
 8004240:	f803 1c23 	strb.w	r1, [r3, #-35]
  tp->state             = CH_STATE_WTSTART;
 8004244:	f803 ec24 	strb.w	lr, [r3, #-36]
  tp->refs              = (trefs_t)1;
 8004248:	f803 cc22 	strb.w	ip, [r3, #-34]
  tp->hdr.pqueue.prio   = prio;
 800424c:	f843 4c40 	str.w	r4, [r3, #-64]
  tp->realprio          = prio;
 8004250:	f843 4c08 	str.w	r4, [r3, #-8]
  p->prev       = qp->prev;
 8004254:	6ad4      	ldr	r4, [r2, #44]	; 0x2c
  tp->name              = name;
 8004256:	f843 5c2c 	str.w	r5, [r3, #-44]
  PORT_SETUP_CONTEXT(tp, tdp->wbase, tp, tdp->funcp, tdp->arg);
 800425a:	f1a3 056c 	sub.w	r5, r3, #108	; 0x6c
 800425e:	f843 4c34 	str.w	r4, [r3, #-52]
 8004262:	f843 5c3c 	str.w	r5, [r3, #-60]
  p->next       = qp;
 8004266:	f102 0528 	add.w	r5, r2, #40	; 0x28
  tp->owner             = oip;
 800426a:	f843 2c30 	str.w	r2, [r3, #-48]
 800426e:	f843 5c38 	str.w	r5, [r3, #-56]
  tp->epending          = (eventmask_t)0;
 8004272:	e943 1104 	strd	r1, r1, [r3, #-16]
  p->prev->next = p;
 8004276:	6020      	str	r0, [r4, #0]
  ch_queue_init(&tp->msgqueue);
 8004278:	f1a3 0118 	sub.w	r1, r3, #24
  ch_list_init(&tp->waiting);
 800427c:	f1a3 041c 	sub.w	r4, r3, #28
  qp->prev      = p;
 8004280:	62d0      	str	r0, [r2, #44]	; 0x2c
}
 8004282:	f1a3 0048 	sub.w	r0, r3, #72	; 0x48
  qp->prev = qp;
 8004286:	f843 1c14 	str.w	r1, [r3, #-20]
  lp->next = lp;
 800428a:	e943 4107 	strd	r4, r1, [r3, #-28]
 800428e:	bd70      	pop	{r4, r5, r6, pc}
 8004290:	24000860 	.word	0x24000860
 8004294:	080003d1 	.word	0x080003d1
	...

080042a0 <chThdCreateI>:
 * @return              The pointer to the @p thread_t structure allocated for
 *                      the thread into the working space area.
 *
 * @iclass
 */
thread_t *chThdCreateI(const thread_descriptor_t *tdp) {
 80042a0:	b508      	push	{r3, lr}

  return chSchReadyI(chThdCreateSuspendedI(tdp));
 80042a2:	f7ff ffb5 	bl	8004210 <chThdCreateSuspendedI>
}
 80042a6:	e8bd 4008 	ldmia.w	sp!, {r3, lr}
  return chSchReadyI(chThdCreateSuspendedI(tdp));
 80042aa:	f7ff be81 	b.w	8003fb0 <chSchReadyI>
 80042ae:	bf00      	nop

080042b0 <chThdExit>:
 *
 * @param[in] msg       thread exit code
 *
 * @api
 */
void chThdExit(msg_t msg) {
 80042b0:	b538      	push	{r3, r4, r5, lr}
 80042b2:	2330      	movs	r3, #48	; 0x30
 80042b4:	f383 8811 	msr	BASEPRI, r3
 *
 * @xclass
 */
static inline thread_t *chThdGetSelfX(void) {

  return __sch_get_currthread();
 80042b8:	4b12      	ldr	r3, [pc, #72]	; (8004304 <chThdExit+0x54>)
 80042ba:	68dc      	ldr	r4, [r3, #12]
  /* Exit handler hook.*/
  CH_CFG_THREAD_EXIT_HOOK(currtp);

#if CH_CFG_USE_WAITEXIT == TRUE
  /* Waking up any waiting thread.*/
  while (unlikely(ch_list_notempty(&currtp->waiting))) {
 80042bc:	f104 052c 	add.w	r5, r4, #44	; 0x2c
  return (bool)(lp->next != lp);
 80042c0:	6ae3      	ldr	r3, [r4, #44]	; 0x2c
  currtp->u.exitcode = msg;
 80042c2:	62a0      	str	r0, [r4, #40]	; 0x28
  while (unlikely(ch_list_notempty(&currtp->waiting))) {
 80042c4:	429d      	cmp	r5, r3
 80042c6:	d107      	bne.n	80042d8 <chThdExit+0x28>
    (void) chSchReadyI(threadref(ch_list_unlink(&currtp->waiting)));
  }
#endif

#if CH_CFG_USE_REGISTRY == TRUE
  if (unlikely(currtp->refs == (trefs_t)0)) {
 80042c8:	f894 3026 	ldrb.w	r3, [r4, #38]	; 0x26
 80042cc:	b183      	cbz	r3, 80042f0 <chThdExit+0x40>
#endif
  }
#endif

  /* Going into final state.*/
  chSchGoSleepS(CH_STATE_FINAL);
 80042ce:	200f      	movs	r0, #15
}
 80042d0:	e8bd 4038 	ldmia.w	sp!, {r3, r4, r5, lr}
  chSchGoSleepS(CH_STATE_FINAL);
 80042d4:	f7ff be84 	b.w	8003fe0 <chSchGoSleepS>
  lp->next = p->next;
 80042d8:	681a      	ldr	r2, [r3, #0]
    (void) chSchReadyI(threadref(ch_list_unlink(&currtp->waiting)));
 80042da:	4618      	mov	r0, r3
 80042dc:	62e2      	str	r2, [r4, #44]	; 0x2c
 80042de:	f7ff fe67 	bl	8003fb0 <chSchReadyI>
  return (bool)(lp->next != lp);
 80042e2:	6ae3      	ldr	r3, [r4, #44]	; 0x2c
  while (unlikely(ch_list_notempty(&currtp->waiting))) {
 80042e4:	42ab      	cmp	r3, r5
 80042e6:	d1f7      	bne.n	80042d8 <chThdExit+0x28>
  if (unlikely(currtp->refs == (trefs_t)0)) {
 80042e8:	f894 3026 	ldrb.w	r3, [r4, #38]	; 0x26
 80042ec:	2b00      	cmp	r3, #0
 80042ee:	d1ee      	bne.n	80042ce <chThdExit+0x1e>
    if (unlikely(((currtp->flags & CH_FLAG_MODE_MASK) == CH_FLAG_MODE_STATIC))) {
 80042f0:	f894 3025 	ldrb.w	r3, [r4, #37]	; 0x25
 80042f4:	079b      	lsls	r3, r3, #30
 80042f6:	d1ea      	bne.n	80042ce <chThdExit+0x1e>
  p->prev->next = p->next;
 80042f8:	e9d4 3204 	ldrd	r3, r2, [r4, #16]
 80042fc:	6013      	str	r3, [r2, #0]
  p->next->prev = p->prev;
 80042fe:	605a      	str	r2, [r3, #4]
  return p;
 8004300:	e7e5      	b.n	80042ce <chThdExit+0x1e>
 8004302:	bf00      	nop
 8004304:	24000860 	.word	0x24000860
	...

08004310 <chThdSleep>:
 *                      - @a TIME_IMMEDIATE this value is not allowed.
 *                      .
 *
 * @api
 */
void chThdSleep(sysinterval_t time) {
 8004310:	b508      	push	{r3, lr}
 8004312:	4601      	mov	r1, r0
 8004314:	2330      	movs	r3, #48	; 0x30
 8004316:	f383 8811 	msr	BASEPRI, r3
 */
static inline void chThdSleepS(sysinterval_t ticks) {

  chDbgCheck(ticks != TIME_IMMEDIATE);

  (void) chSchGoSleepTimeoutS(CH_STATE_SLEEPING, ticks);
 800431a:	2008      	movs	r0, #8
 800431c:	f7ff fe80 	bl	8004020 <chSchGoSleepTimeoutS>
 8004320:	2300      	movs	r3, #0
 8004322:	f383 8811 	msr	BASEPRI, r3

  chSysLock();
  chThdSleepS(time);
  chSysUnlock();
}
 8004326:	bd08      	pop	{r3, pc}
	...

08004330 <chThdResumeI>:
 * @param[in] trp       a pointer to a thread reference object
 * @param[in] msg       the message code
 *
 * @iclass
 */
void chThdResumeI(thread_reference_t *trp, msg_t msg) {
 8004330:	4603      	mov	r3, r0

  if (*trp != NULL) {
 8004332:	6800      	ldr	r0, [r0, #0]
 8004334:	b120      	cbz	r0, 8004340 <chThdResumeI+0x10>
    thread_t *tp = *trp;

    chDbgAssert(tp->state == CH_STATE_SUSPENDED, "not CH_STATE_SUSPENDED");

    *trp = NULL;
 8004336:	2200      	movs	r2, #0
 8004338:	601a      	str	r2, [r3, #0]
    tp->u.rdymsg = msg;
 800433a:	6281      	str	r1, [r0, #40]	; 0x28
    (void) chSchReadyI(tp);
 800433c:	f7ff be38 	b.w	8003fb0 <chSchReadyI>
  }
}
 8004340:	4770      	bx	lr
 8004342:	bf00      	nop
	...

08004350 <chThdEnqueueTimeoutS>:
  return __sch_get_currthread();
 8004350:	4a08      	ldr	r2, [pc, #32]	; (8004374 <chThdEnqueueTimeoutS+0x24>)
 8004352:	68d2      	ldr	r2, [r2, #12]
 * @sclass
 */
msg_t chThdEnqueueTimeoutS(threads_queue_t *tqp, sysinterval_t timeout) {
  thread_t *currtp = chThdGetSelfX();

  if (unlikely(TIME_IMMEDIATE == timeout)) {
 8004354:	b151      	cbz	r1, 800436c <chThdEnqueueTimeoutS+0x1c>
 8004356:	4603      	mov	r3, r0
msg_t chThdEnqueueTimeoutS(threads_queue_t *tqp, sysinterval_t timeout) {
 8004358:	b410      	push	{r4}
  p->prev       = qp->prev;
 800435a:	6844      	ldr	r4, [r0, #4]
  p->next       = qp;
 800435c:	6010      	str	r0, [r2, #0]
    return MSG_TIMEOUT;
  }

  ch_queue_insert(&tqp->queue, (ch_queue_t *)currtp);

  return chSchGoSleepTimeoutS(CH_STATE_QUEUED, timeout);
 800435e:	2004      	movs	r0, #4
  p->prev       = qp->prev;
 8004360:	6054      	str	r4, [r2, #4]
  p->prev->next = p;
 8004362:	6022      	str	r2, [r4, #0]
}
 8004364:	bc10      	pop	{r4}
  qp->prev      = p;
 8004366:	605a      	str	r2, [r3, #4]
  return chSchGoSleepTimeoutS(CH_STATE_QUEUED, timeout);
 8004368:	f7ff be5a 	b.w	8004020 <chSchGoSleepTimeoutS>
}
 800436c:	f04f 30ff 	mov.w	r0, #4294967295
 8004370:	4770      	bx	lr
 8004372:	bf00      	nop
 8004374:	24000860 	.word	0x24000860
	...

08004380 <chThdDequeueNextI>:
 * @param[in] tqp       pointer to a @p threads_queue_t object
 * @param[in] msg       the message code
 *
 * @iclass
 */
void chThdDequeueNextI(threads_queue_t *tqp, msg_t msg) {
 8004380:	4603      	mov	r3, r0
  return (bool)(qp->next != qp);
 8004382:	6800      	ldr	r0, [r0, #0]

  if (ch_queue_notempty(&tqp->queue)) {
 8004384:	4283      	cmp	r3, r0
 8004386:	d005      	beq.n	8004394 <chThdDequeueNextI+0x14>
  qp->next       = p->next;
 8004388:	6802      	ldr	r2, [r0, #0]
 800438a:	601a      	str	r2, [r3, #0]
  qp->next->prev = qp;
 800438c:	6053      	str	r3, [r2, #4]

  tp = threadref(ch_queue_fifo_remove(&tqp->queue));

  chDbgAssert(tp->state == CH_STATE_QUEUED, "invalid state");

  tp->u.rdymsg = msg;
 800438e:	6281      	str	r1, [r0, #40]	; 0x28
  (void) chSchReadyI(tp);
 8004390:	f7ff be0e 	b.w	8003fb0 <chSchReadyI>
    chThdDoDequeueNextI(tqp, msg);
  }
}
 8004394:	4770      	bx	lr
 8004396:	bf00      	nop
	...

080043a0 <chTMObjectInit>:
 *
 * @param[out] tmp      pointer to a @p TimeMeasurement structure
 *
 * @init
 */
void chTMObjectInit(time_measurement_t *tmp) {
 80043a0:	b430      	push	{r4, r5}

  tmp->best       = (rtcnt_t)-1;
  tmp->worst      = (rtcnt_t)0;
 80043a2:	2300      	movs	r3, #0
  tmp->last       = (rtcnt_t)0;
  tmp->n          = (ucnt_t)0;
  tmp->cumulative = (rttime_t)0;
 80043a4:	2400      	movs	r4, #0
 80043a6:	2500      	movs	r5, #0
  tmp->best       = (rtcnt_t)-1;
 80043a8:	f04f 32ff 	mov.w	r2, #4294967295
  tmp->cumulative = (rttime_t)0;
 80043ac:	e9c0 4504 	strd	r4, r5, [r0, #16]
  tmp->worst      = (rtcnt_t)0;
 80043b0:	e9c0 2300 	strd	r2, r3, [r0]
}
 80043b4:	bc30      	pop	{r4, r5}
  tmp->n          = (ucnt_t)0;
 80043b6:	e9c0 3302 	strd	r3, r3, [r0, #8]
}
 80043ba:	4770      	bx	lr
 80043bc:	0000      	movs	r0, r0
	...

080043c0 <chTMStartMeasurementX>:
 80043c0:	4b01      	ldr	r3, [pc, #4]	; (80043c8 <chTMStartMeasurementX+0x8>)
 80043c2:	685b      	ldr	r3, [r3, #4]
 *
 * @xclass
 */
NOINLINE void chTMStartMeasurementX(time_measurement_t *tmp) {

  tmp->last = chSysGetRealtimeCounterX();
 80043c4:	6083      	str	r3, [r0, #8]
}
 80043c6:	4770      	bx	lr
 80043c8:	e0001000 	.word	0xe0001000
 80043cc:	00000000 	.word	0x00000000

080043d0 <chTMStopMeasurementX>:
 *
 * @xclass
 */
NOINLINE void chTMStopMeasurementX(time_measurement_t *tmp) {

  tm_stop(tmp, chSysGetRealtimeCounterX(), ch_system.tmc.offset);
 80043d0:	4a0e      	ldr	r2, [pc, #56]	; (800440c <chTMStopMeasurementX+0x3c>)
 80043d2:	4b0f      	ldr	r3, [pc, #60]	; (8004410 <chTMStopMeasurementX+0x40>)
  tmp->last = (now - tmp->last) - offset;
 80043d4:	6881      	ldr	r1, [r0, #8]
 80043d6:	685b      	ldr	r3, [r3, #4]
NOINLINE void chTMStopMeasurementX(time_measurement_t *tmp) {
 80043d8:	b410      	push	{r4}
  tm_stop(tmp, chSysGetRealtimeCounterX(), ch_system.tmc.offset);
 80043da:	6894      	ldr	r4, [r2, #8]
  tmp->cumulative += (rttime_t)tmp->last;
 80043dc:	6902      	ldr	r2, [r0, #16]
  tmp->last = (now - tmp->last) - offset;
 80043de:	1b1b      	subs	r3, r3, r4
  tmp->n++;
 80043e0:	68c4      	ldr	r4, [r0, #12]
  tmp->last = (now - tmp->last) - offset;
 80043e2:	1a5b      	subs	r3, r3, r1
  tmp->cumulative += (rttime_t)tmp->last;
 80043e4:	6941      	ldr	r1, [r0, #20]
  tmp->n++;
 80043e6:	3401      	adds	r4, #1
  tmp->cumulative += (rttime_t)tmp->last;
 80043e8:	18d2      	adds	r2, r2, r3
 80043ea:	6102      	str	r2, [r0, #16]
 80043ec:	f141 0100 	adc.w	r1, r1, #0
  if (tmp->last > tmp->worst) {
 80043f0:	6842      	ldr	r2, [r0, #4]
  tmp->cumulative += (rttime_t)tmp->last;
 80043f2:	6141      	str	r1, [r0, #20]
  if (tmp->last > tmp->worst) {
 80043f4:	4293      	cmp	r3, r2
  if (tmp->last < tmp->best) {
 80043f6:	6802      	ldr	r2, [r0, #0]
    tmp->worst = tmp->last;
 80043f8:	bf88      	it	hi
 80043fa:	6043      	strhi	r3, [r0, #4]
  if (tmp->last < tmp->best) {
 80043fc:	4293      	cmp	r3, r2
  tmp->n++;
 80043fe:	e9c0 3402 	strd	r3, r4, [r0, #8]
    tmp->best = tmp->last;
 8004402:	bf38      	it	cc
 8004404:	6003      	strcc	r3, [r0, #0]
}
 8004406:	bc10      	pop	{r4}
 8004408:	4770      	bx	lr
 800440a:	bf00      	nop
 800440c:	24001220 	.word	0x24001220
 8004410:	e0001000 	.word	0xe0001000
	...

08004420 <chMtxObjectInit>:
void chMtxObjectInit(mutex_t *mp) {

  chDbgCheck(mp != NULL);

  ch_queue_init(&mp->queue);
  mp->owner = NULL;
 8004420:	2300      	movs	r3, #0
  qp->prev = qp;
 8004422:	e9c0 0000 	strd	r0, r0, [r0]
 8004426:	6083      	str	r3, [r0, #8]
#if CH_CFG_USE_MUTEXES_RECURSIVE == TRUE
  mp->cnt = (cnt_t)0;
#endif
}
 8004428:	4770      	bx	lr
 800442a:	bf00      	nop
 800442c:	0000      	movs	r0, r0
	...

08004430 <chEvtBroadcastFlagsI>:
 * @param[in] esp       pointer to the @p event_source_t structure
 * @param[in] flags     the flags set to be added to the listener flags mask
 *
 * @iclass
 */
void chEvtBroadcastFlagsI(event_source_t *esp, eventflags_t flags) {
 8004430:	b5f8      	push	{r3, r4, r5, r6, r7, lr}
  event_listener_t *elp;

  chDbgCheckClassI();
  chDbgCheck(esp != NULL);

  elp = esp->next;
 8004432:	6804      	ldr	r4, [r0, #0]
  /*lint -save -e9087 -e740 [11.3, 1.3] Cast required by list handling.*/
  while (elp != (event_listener_t *)esp) {
 8004434:	42a0      	cmp	r0, r4
 8004436:	d021      	beq.n	800447c <chEvtBroadcastFlagsI+0x4c>
 8004438:	4607      	mov	r7, r0
 800443a:	460d      	mov	r5, r1
    tp->u.rdymsg = MSG_OK;
 800443c:	2600      	movs	r6, #0
 800443e:	e004      	b.n	800444a <chEvtBroadcastFlagsI+0x1a>
       ((tp->epending & tp->u.ewmask) != (eventmask_t)0)) ||
 8004440:	2a0b      	cmp	r2, #11
 8004442:	d01c      	beq.n	800447e <chEvtBroadcastFlagsI+0x4e>
       source does not emit any flag.*/
    if ((flags == (eventflags_t)0) ||
        ((flags & elp->wflags) != (eventflags_t)0)) {
      chEvtSignalI(elp->listener, elp->events);
    }
    elp = elp->next;
 8004444:	6824      	ldr	r4, [r4, #0]
  while (elp != (event_listener_t *)esp) {
 8004446:	42a7      	cmp	r7, r4
 8004448:	d018      	beq.n	800447c <chEvtBroadcastFlagsI+0x4c>
    elp->flags |= flags;
 800444a:	68e3      	ldr	r3, [r4, #12]
 800444c:	432b      	orrs	r3, r5
 800444e:	60e3      	str	r3, [r4, #12]
    if ((flags == (eventflags_t)0) ||
 8004450:	b115      	cbz	r5, 8004458 <chEvtBroadcastFlagsI+0x28>
        ((flags & elp->wflags) != (eventflags_t)0)) {
 8004452:	6923      	ldr	r3, [r4, #16]
    if ((flags == (eventflags_t)0) ||
 8004454:	421d      	tst	r5, r3
 8004456:	d0f5      	beq.n	8004444 <chEvtBroadcastFlagsI+0x14>
  tp->epending |= events;
 8004458:	e9d4 0301 	ldrd	r0, r3, [r4, #4]
 800445c:	6b81      	ldr	r1, [r0, #56]	; 0x38
  if (((tp->state == CH_STATE_WTOREVT) &&
 800445e:	f890 2024 	ldrb.w	r2, [r0, #36]	; 0x24
  tp->epending |= events;
 8004462:	430b      	orrs	r3, r1
  if (((tp->state == CH_STATE_WTOREVT) &&
 8004464:	2a0a      	cmp	r2, #10
  tp->epending |= events;
 8004466:	6383      	str	r3, [r0, #56]	; 0x38
  if (((tp->state == CH_STATE_WTOREVT) &&
 8004468:	d1ea      	bne.n	8004440 <chEvtBroadcastFlagsI+0x10>
       ((tp->epending & tp->u.ewmask) != (eventmask_t)0)) ||
 800446a:	6a82      	ldr	r2, [r0, #40]	; 0x28
  if (((tp->state == CH_STATE_WTOREVT) &&
 800446c:	4213      	tst	r3, r2
 800446e:	d0e9      	beq.n	8004444 <chEvtBroadcastFlagsI+0x14>
    tp->u.rdymsg = MSG_OK;
 8004470:	6286      	str	r6, [r0, #40]	; 0x28
    (void) chSchReadyI(tp);
 8004472:	f7ff fd9d 	bl	8003fb0 <chSchReadyI>
    elp = elp->next;
 8004476:	6824      	ldr	r4, [r4, #0]
  while (elp != (event_listener_t *)esp) {
 8004478:	42a7      	cmp	r7, r4
 800447a:	d1e6      	bne.n	800444a <chEvtBroadcastFlagsI+0x1a>
  }
}
 800447c:	bdf8      	pop	{r3, r4, r5, r6, r7, pc}
       ((tp->epending & tp->u.ewmask) == tp->u.ewmask))) {
 800447e:	6a82      	ldr	r2, [r0, #40]	; 0x28
      ((tp->state == CH_STATE_WTANDEVT) &&
 8004480:	439a      	bics	r2, r3
 8004482:	d1df      	bne.n	8004444 <chEvtBroadcastFlagsI+0x14>
 8004484:	e7f4      	b.n	8004470 <chEvtBroadcastFlagsI+0x40>
 8004486:	bf00      	nop
	...

08004490 <__core_init>:
#if CH_CFG_MEMCORE_SIZE == 0
  extern uint8_t __heap_base__[];
  extern uint8_t __heap_end__[];

  /*lint -save -e9033 [10.8] Required cast operations.*/
  ch_memcore.basemem = __heap_base__;
 8004490:	4b02      	ldr	r3, [pc, #8]	; (800449c <__core_init+0xc>)
 8004492:	4903      	ldr	r1, [pc, #12]	; (80044a0 <__core_init+0x10>)
  ch_memcore.topmem  = __heap_end__;
 8004494:	4a03      	ldr	r2, [pc, #12]	; (80044a4 <__core_init+0x14>)
 8004496:	e9c3 1200 	strd	r1, r2, [r3]
  static uint8_t static_heap[CH_CFG_MEMCORE_SIZE];

  ch_memcore.basemem = &static_heap[0];
  ch_memcore.topmem  = &static_heap[CH_CFG_MEMCORE_SIZE];
#endif
}
 800449a:	4770      	bx	lr
 800449c:	2400122c 	.word	0x2400122c
 80044a0:	240012a8 	.word	0x240012a8
 80044a4:	24080000 	.word	0x24080000
	...

080044b0 <chCoreAllocFromTopI>:
  uint8_t *p, *prev;

  chDbgCheckClassI();
  chDbgCheck(MEM_IS_VALID_ALIGNMENT(align));

  p = (uint8_t *)MEM_ALIGN_PREV(ch_memcore.topmem - size, align);
 80044b0:	4b08      	ldr	r3, [pc, #32]	; (80044d4 <chCoreAllocFromTopI+0x24>)
 80044b2:	4249      	negs	r1, r1
void *chCoreAllocFromTopI(size_t size, unsigned align, size_t offset) {
 80044b4:	b410      	push	{r4}
  p = (uint8_t *)MEM_ALIGN_PREV(ch_memcore.topmem - size, align);
 80044b6:	685c      	ldr	r4, [r3, #4]
 80044b8:	1a20      	subs	r0, r4, r0
 80044ba:	4008      	ands	r0, r1
  prev = p - offset;

  /* Considering also the case where there is numeric overflow.*/
  if ((prev < ch_memcore.basemem) || (prev > ch_memcore.topmem)) {
 80044bc:	6819      	ldr	r1, [r3, #0]
  prev = p - offset;
 80044be:	1a82      	subs	r2, r0, r2
  if ((prev < ch_memcore.basemem) || (prev > ch_memcore.topmem)) {
 80044c0:	428a      	cmp	r2, r1
 80044c2:	d304      	bcc.n	80044ce <chCoreAllocFromTopI+0x1e>
 80044c4:	42a2      	cmp	r2, r4
 80044c6:	d802      	bhi.n	80044ce <chCoreAllocFromTopI+0x1e>
  }

  ch_memcore.topmem = prev;

  return p;
}
 80044c8:	bc10      	pop	{r4}
  ch_memcore.topmem = prev;
 80044ca:	605a      	str	r2, [r3, #4]
}
 80044cc:	4770      	bx	lr
    return NULL;
 80044ce:	2000      	movs	r0, #0
}
 80044d0:	bc10      	pop	{r4}
 80044d2:	4770      	bx	lr
 80044d4:	2400122c 	.word	0x2400122c
	...

080044e0 <chCoreAllocFromTop>:
 80044e0:	2330      	movs	r3, #48	; 0x30
 * @return              A pointer to the allocated memory block.
 * @retval NULL         allocation failed, core memory exhausted.
 *
 * @api
 */
void *chCoreAllocFromTop(size_t size, unsigned align, size_t offset) {
 80044e2:	b410      	push	{r4}
 80044e4:	f383 8811 	msr	BASEPRI, r3
  p = (uint8_t *)MEM_ALIGN_PREV(ch_memcore.topmem - size, align);
 80044e8:	4b0b      	ldr	r3, [pc, #44]	; (8004518 <chCoreAllocFromTop+0x38>)
 80044ea:	4249      	negs	r1, r1
 80044ec:	685c      	ldr	r4, [r3, #4]
 80044ee:	1a20      	subs	r0, r4, r0
 80044f0:	4008      	ands	r0, r1
  if ((prev < ch_memcore.basemem) || (prev > ch_memcore.topmem)) {
 80044f2:	6819      	ldr	r1, [r3, #0]
  prev = p - offset;
 80044f4:	1a82      	subs	r2, r0, r2
  if ((prev < ch_memcore.basemem) || (prev > ch_memcore.topmem)) {
 80044f6:	428a      	cmp	r2, r1
 80044f8:	d307      	bcc.n	800450a <chCoreAllocFromTop+0x2a>
 80044fa:	4294      	cmp	r4, r2
 80044fc:	d305      	bcc.n	800450a <chCoreAllocFromTop+0x2a>
  ch_memcore.topmem = prev;
 80044fe:	605a      	str	r2, [r3, #4]
 8004500:	2300      	movs	r3, #0
 8004502:	f383 8811 	msr	BASEPRI, r3
  chSysLock();
  p = chCoreAllocFromTopI(size, align, offset);
  chSysUnlock();

  return p;
}
 8004506:	bc10      	pop	{r4}
 8004508:	4770      	bx	lr
    return NULL;
 800450a:	2000      	movs	r0, #0
 800450c:	2300      	movs	r3, #0
 800450e:	f383 8811 	msr	BASEPRI, r3
}
 8004512:	bc10      	pop	{r4}
 8004514:	4770      	bx	lr
 8004516:	bf00      	nop
 8004518:	2400122c 	.word	0x2400122c
 800451c:	00000000 	.word	0x00000000

08004520 <__heap_init>:
 *
 * @notapi
 */
void __heap_init(void) {

  default_heap.provider = chCoreAllocAlignedWithOffset;
 8004520:	4b04      	ldr	r3, [pc, #16]	; (8004534 <__heap_init+0x14>)
  H_NEXT(&default_heap.header) = NULL;
 8004522:	2200      	movs	r2, #0
  default_heap.provider = chCoreAllocAlignedWithOffset;
 8004524:	4904      	ldr	r1, [pc, #16]	; (8004538 <__heap_init+0x18>)
  H_PAGES(&default_heap.header) = 0;
#if (CH_CFG_USE_MUTEXES == TRUE) || defined(__DOXYGEN__)
  chMtxObjectInit(&default_heap.mtx);
 8004526:	f103 000c 	add.w	r0, r3, #12
  H_PAGES(&default_heap.header) = 0;
 800452a:	609a      	str	r2, [r3, #8]
  default_heap.provider = chCoreAllocAlignedWithOffset;
 800452c:	e9c3 1200 	strd	r1, r2, [r3]
  chMtxObjectInit(&default_heap.mtx);
 8004530:	f7ff bf76 	b.w	8004420 <chMtxObjectInit>
 8004534:	24001234 	.word	0x24001234
 8004538:	080044e1 	.word	0x080044e1
 800453c:	00000000 	.word	0x00000000

08004540 <chPoolObjectInitAligned>:
 *                      automatically
 *
 * @init
 */
void chPoolObjectInitAligned(memory_pool_t *mp, size_t size,
                             unsigned align, memgetfunc_t provider) {
 8004540:	b410      	push	{r4}
  chDbgCheck((mp != NULL) &&
             (size >= sizeof(void *)) &&
             (align >= PORT_NATURAL_ALIGN) &&
             MEM_IS_VALID_ALIGNMENT(align));

  mp->next = NULL;
 8004542:	2400      	movs	r4, #0
  mp->object_size = size;
  mp->align = align;
  mp->provider = provider;
 8004544:	e9c0 2302 	strd	r2, r3, [r0, #8]
  mp->next = NULL;
 8004548:	e9c0 4100 	strd	r4, r1, [r0]
}
 800454c:	bc10      	pop	{r4}
 800454e:	4770      	bx	lr

08004550 <chCoreAllocAlignedI>:
 *
 * @iclass
 */
static inline void *chCoreAllocAlignedI(size_t size, unsigned align) {

  return chCoreAllocAlignedWithOffsetI(size, align, 0U);
 8004550:	2200      	movs	r2, #0
 8004552:	f7ff bfad 	b.w	80044b0 <chCoreAllocFromTopI>
 8004556:	bf00      	nop
	...

08004560 <__factory_init>:
/**
 * @brief   Initializes the objects factory.
 *
 * @init
 */
void __factory_init(void) {
 8004560:	b538      	push	{r3, r4, r5, lr}

#if (CH_CFG_USE_MUTEXES == TRUE) || defined(__DOXYGEN__)
  chMtxObjectInit(&ch_factory.mtx);
 8004562:	4c12      	ldr	r4, [pc, #72]	; (80045ac <__factory_init+0x4c>)
 */
static inline void chPoolObjectInit(memory_pool_t *mp,
                                    size_t size,
                                    memgetfunc_t provider) {

  chPoolObjectInitAligned(mp, size, PORT_NATURAL_ALIGN, provider);
 8004564:	4d12      	ldr	r5, [pc, #72]	; (80045b0 <__factory_init+0x50>)
 8004566:	4620      	mov	r0, r4
 8004568:	f7ff ff5a 	bl	8004420 <chMtxObjectInit>
  dlp->next = (dyn_element_t *)dlp;
 800456c:	f104 0110 	add.w	r1, r4, #16
 8004570:	462b      	mov	r3, r5
 8004572:	2204      	movs	r2, #4
 8004574:	6121      	str	r1, [r4, #16]
 8004576:	2114      	movs	r1, #20
 8004578:	1860      	adds	r0, r4, r1
 800457a:	f7ff ffe1 	bl	8004540 <chPoolObjectInitAligned>
 800457e:	f104 0024 	add.w	r0, r4, #36	; 0x24
 8004582:	f104 0128 	add.w	r1, r4, #40	; 0x28
 8004586:	462b      	mov	r3, r5
 8004588:	2204      	movs	r2, #4
 800458a:	e9c4 0109 	strd	r0, r1, [r4, #36]	; 0x24
 800458e:	211c      	movs	r1, #28
 8004590:	f104 002c 	add.w	r0, r4, #44	; 0x2c
 8004594:	f7ff ffd4 	bl	8004540 <chPoolObjectInitAligned>
 8004598:	f104 013c 	add.w	r1, r4, #60	; 0x3c
 800459c:	f104 0240 	add.w	r2, r4, #64	; 0x40
 80045a0:	f104 0344 	add.w	r3, r4, #68	; 0x44
 80045a4:	e9c4 120f 	strd	r1, r2, [r4, #60]	; 0x3c
 80045a8:	6463      	str	r3, [r4, #68]	; 0x44
  dyn_list_init(&ch_factory.fifo_list);
#endif
#if CH_CFG_FACTORY_PIPES == TRUE
  dyn_list_init(&ch_factory.pipe_list);
#endif
}
 80045aa:	bd38      	pop	{r3, r4, r5, pc}
 80045ac:	24001250 	.word	0x24001250
 80045b0:	08004551 	.word	0x08004551
	...

080045c0 <SVC_Handler>:
  __ASM volatile ("MRS %0, psp"  : "=r" (result) );
 80045c0:	f3ef 8309 	mrs	r3, PSP
    /* From privileged mode, it is used for context discarding in the
       preemption code.*/

    /* Unstacking procedure, discarding the current exception context and
       positioning the stack to point to the real one.*/
    psp += sizeof (struct port_extctx);
 80045c4:	3320      	adds	r3, #32
  __ASM volatile ("MSR psp, %0" : : "r" (topOfProcStack) : );
 80045c6:	f383 8809 	msr	PSP, r3
  __ASM volatile ("MSR basepri, %0" : : "r" (basePri) : "memory");
 80045ca:	2300      	movs	r3, #0
 80045cc:	f383 8811 	msr	BASEPRI, r3
#endif

    /* Restoring the normal interrupts status.*/
    port_unlock_from_isr();
  }
}
 80045d0:	4770      	bx	lr
 80045d2:	bf00      	nop
	...

080045e0 <port_init>:
 80045e0:	f04f 0c30 	mov.w	ip, #48	; 0x30
 *
 * @param[in, out] oip  pointer to the @p os_instance_t structure
 *
 * @notapi
 */
void port_init(os_instance_t *oip) {
 80045e4:	b500      	push	{lr}
 80045e6:	f38c 8811 	msr	BASEPRI, ip
  __ASM volatile ("cpsie i" : : : "memory");
 80045ea:	b662      	cpsie	i
  reg_value  =  SCB->AIRCR;                                                   /* read old register configuration    */
 80045ec:	4b0e      	ldr	r3, [pc, #56]	; (8004628 <port_init+0x48>)
  reg_value &= ~((uint32_t)(SCB_AIRCR_VECTKEY_Msk | SCB_AIRCR_PRIGROUP_Msk)); /* clear bits to change               */
 80045ee:	f64f 0eff 	movw	lr, #63743	; 0xf8ff
  reg_value  =  (reg_value                                   |
 80045f2:	490e      	ldr	r1, [pc, #56]	; (800462c <port_init+0x4c>)
  reg_value  =  SCB->AIRCR;                                                   /* read old register configuration    */
 80045f4:	68d8      	ldr	r0, [r3, #12]
  NVIC_SetPriorityGrouping(CORTEX_PRIGROUP_INIT);

  /* DWT cycle counter enable, note, the M7 requires DWT unlocking.*/
  CoreDebug->DEMCR |= CoreDebug_DEMCR_TRCENA_Msk;
#if CORTEX_MODEL == 7
  DWT->LAR = 0xC5ACCE55U;
 80045f6:	4a0e      	ldr	r2, [pc, #56]	; (8004630 <port_init+0x50>)
  reg_value &= ~((uint32_t)(SCB_AIRCR_VECTKEY_Msk | SCB_AIRCR_PRIGROUP_Msk)); /* clear bits to change               */
 80045f8:	ea00 000e 	and.w	r0, r0, lr
  reg_value  =  (reg_value                                   |
 80045fc:	4301      	orrs	r1, r0
 80045fe:	480d      	ldr	r0, [pc, #52]	; (8004634 <port_init+0x54>)
  SCB->AIRCR =  reg_value;
 8004600:	60d9      	str	r1, [r3, #12]
  CoreDebug->DEMCR |= CoreDebug_DEMCR_TRCENA_Msk;
 8004602:	f8d3 10fc 	ldr.w	r1, [r3, #252]	; 0xfc
 8004606:	f041 7180 	orr.w	r1, r1, #16777216	; 0x1000000
 800460a:	f8c3 10fc 	str.w	r1, [r3, #252]	; 0xfc
  DWT->LAR = 0xC5ACCE55U;
 800460e:	f8c2 0fb0 	str.w	r0, [r2, #4016]	; 0xfb0
    SCB->SHPR[(((uint32_t)IRQn) & 0xFUL)-4UL] = (uint8_t)((priority << (8U - __NVIC_PRIO_BITS)) & (uint32_t)0xFFUL);
 8004612:	2020      	movs	r0, #32
#endif
  DWT->CTRL |= DWT_CTRL_CYCCNTENA_Msk;
 8004614:	6811      	ldr	r1, [r2, #0]
 8004616:	f041 0101 	orr.w	r1, r1, #1
 800461a:	6011      	str	r1, [r2, #0]
 800461c:	77d8      	strb	r0, [r3, #31]
 800461e:	f883 c022 	strb.w	ip, [r3, #34]	; 0x22

#if (PORT_ENABLE_GUARD_PAGES == TRUE) || (PORT_USE_SYSCALL == TRUE)
  /* MPU is enabled.*/
  mpuEnable(MPU_CTRL_PRIVDEFENA);
#endif
}
 8004622:	f85d fb04 	ldr.w	pc, [sp], #4
 8004626:	bf00      	nop
 8004628:	e000ed00 	.word	0xe000ed00
 800462c:	05fa0300 	.word	0x05fa0300
 8004630:	e0001000 	.word	0xe0001000
 8004634:	c5acce55 	.word	0xc5acce55
	...

08004640 <__port_irq_epilogue>:
  __ASM volatile ("MSR basepri, %0" : : "r" (basePri) : "memory");
 8004640:	2330      	movs	r3, #48	; 0x30
 8004642:	f383 8811 	msr	BASEPRI, r3
 * @brief   Exception exit redirection to @p __port_switch_from_isr().
 */
void __port_irq_epilogue(void) {

  port_lock_from_isr();
  if ((SCB->ICSR & SCB_ICSR_RETTOBASE_Msk) != 0U) {
 8004646:	4b0d      	ldr	r3, [pc, #52]	; (800467c <__port_irq_epilogue+0x3c>)
 8004648:	685b      	ldr	r3, [r3, #4]
 800464a:	f413 6300 	ands.w	r3, r3, #2048	; 0x800
 800464e:	d102      	bne.n	8004656 <__port_irq_epilogue+0x16>
 8004650:	f383 8811 	msr	BASEPRI, r3
 8004654:	4770      	bx	lr
void __port_irq_epilogue(void) {
 8004656:	b510      	push	{r4, lr}
  __ASM volatile ("MRS %0, psp"  : "=r" (result) );
 8004658:	f3ef 8409 	mrs	r4, PSP

    /* The port_extctx structure is pointed by the S-PSP register.*/
    ectxp = (struct port_extctx *)s_psp;

    /* Setting up a fake XPSR register value.*/
    ectxp->xpsr = 0x01000000U;
 800465c:	f04f 7380 	mov.w	r3, #16777216	; 0x1000000
    s_psp -= sizeof (struct port_extctx);
 8004660:	3c20      	subs	r4, #32
    ectxp->xpsr = 0x01000000U;
 8004662:	61e3      	str	r3, [r4, #28]
  __ASM volatile ("MSR psp, %0" : : "r" (topOfProcStack) : );
 8004664:	f384 8809 	msr	PSP, r4
    /* Writing back the modified S-PSP value.*/
    __set_PSP(s_psp);

    /* The exit sequence is different depending on if a preemption is
       required or not.*/
    if (chSchIsPreemptionRequired()) {
 8004668:	f7ff fd1a 	bl	80040a0 <chSchIsPreemptionRequired>
 800466c:	b110      	cbz	r0, 8004674 <__port_irq_epilogue+0x34>
      /* Preemption is required we need to enforce a context switch.*/
      ectxp->pc = (uint32_t)__port_switch_from_isr;
 800466e:	4b04      	ldr	r3, [pc, #16]	; (8004680 <__port_irq_epilogue+0x40>)
 8004670:	61a3      	str	r3, [r4, #24]
    /* Note, returning without unlocking is intentional, this is done in
       order to keep the rest of the context switch atomic.*/
    return;
  }
  port_unlock_from_isr();
}
 8004672:	bd10      	pop	{r4, pc}
      ectxp->pc = (uint32_t)__port_exit_from_isr;
 8004674:	4b03      	ldr	r3, [pc, #12]	; (8004684 <__port_irq_epilogue+0x44>)
 8004676:	61a3      	str	r3, [r4, #24]
}
 8004678:	bd10      	pop	{r4, pc}
 800467a:	bf00      	nop
 800467c:	e000ed00 	.word	0xe000ed00
 8004680:	080003e3 	.word	0x080003e3
 8004684:	080003e6 	.word	0x080003e6
	...

08004690 <sai_test_callback>:
/* ==== DMA CALLBACK ======================================================= */

static void sai_test_callback(SAIDriver *saip, bool half) {
  (void)saip;

  if (half) {
 8004690:	b149      	cbz	r1, 80046a6 <sai_test_callback+0x16>
    ht_count++;
 8004692:	490a      	ldr	r1, [pc, #40]	; (80046bc <sai_test_callback+0x2c>)
    palToggleLine(LINE_DBG_HT);
 8004694:	4a0a      	ldr	r2, [pc, #40]	; (80046c0 <sai_test_callback+0x30>)
    ht_count++;
 8004696:	680b      	ldr	r3, [r1, #0]
 8004698:	3301      	adds	r3, #1
 800469a:	600b      	str	r3, [r1, #0]
    palToggleLine(LINE_DBG_HT);
 800469c:	6953      	ldr	r3, [r2, #20]
 800469e:	f083 0380 	eor.w	r3, r3, #128	; 0x80
 80046a2:	6153      	str	r3, [r2, #20]
  } else {
    tc_count++;
    palToggleLine(LINE_DBG_TC);
  }
}
 80046a4:	4770      	bx	lr
    tc_count++;
 80046a6:	4907      	ldr	r1, [pc, #28]	; (80046c4 <sai_test_callback+0x34>)
    palToggleLine(LINE_DBG_TC);
 80046a8:	4a05      	ldr	r2, [pc, #20]	; (80046c0 <sai_test_callback+0x30>)
    tc_count++;
 80046aa:	680b      	ldr	r3, [r1, #0]
 80046ac:	3301      	adds	r3, #1
 80046ae:	600b      	str	r3, [r1, #0]
    palToggleLine(LINE_DBG_TC);
 80046b0:	6953      	ldr	r3, [r2, #20]
 80046b2:	f483 7380 	eor.w	r3, r3, #256	; 0x100
 80046b6:	6153      	str	r3, [r2, #20]
}
 80046b8:	4770      	bx	lr
 80046ba:	bf00      	nop
 80046bc:	2400129c 	.word	0x2400129c
 80046c0:	58021c00 	.word	0x58021c00
 80046c4:	240012a4 	.word	0x240012a4
	...

080046d0 <sai_dma_error_hook>:

void sai_dma_error_hook(SAIDriver *saip) {
  (void)saip;
  dma_error_count++;
 80046d0:	4a02      	ldr	r2, [pc, #8]	; (80046dc <sai_dma_error_hook+0xc>)
 80046d2:	6813      	ldr	r3, [r2, #0]
 80046d4:	3301      	adds	r3, #1
 80046d6:	6013      	str	r3, [r2, #0]
}
 80046d8:	4770      	bx	lr
 80046da:	bf00      	nop
 80046dc:	24001298 	.word	0x24001298

080046e0 <main>:
              STM32_DMA_CR_MSIZE_WORD
};

/* ==== MAIN ============================================================== */

int main(void) {
 80046e0:	b580      	push	{r7, lr}
  halInit();
 80046e2:	f7fb ffd5 	bl	8000690 <halInit>
  palSetLineMode(LINE_DBG_HT, PAL_MODE_OUTPUT_PUSHPULL);
 80046e6:	4c3a      	ldr	r4, [pc, #232]	; (80047d0 <main+0xf0>)
  chSysInit();
 80046e8:	f7ff f9da 	bl	8003aa0 <chSysInit>

  sdStart(&SD1, &uart_cfg);
 80046ec:	4939      	ldr	r1, [pc, #228]	; (80047d4 <main+0xf4>)
 80046ee:	483a      	ldr	r0, [pc, #232]	; (80047d8 <main+0xf8>)
  palClearLine(LINE_DBG_TC);
 80046f0:	f44f 7580 	mov.w	r5, #256	; 0x100
  sdStart(&SD1, &uart_cfg);
 80046f4:	f7fc fa84 	bl	8000c00 <sdStart>

  /* Use sdWrite(): zero formatting, minimal stack usage */
  sdWrite(&SD1, (const uint8_t *)"\r\nSAI LLD bring-up test\r\n", 25);
 80046f8:	f04f 33ff 	mov.w	r3, #4294967295
 80046fc:	2219      	movs	r2, #25
 80046fe:	4937      	ldr	r1, [pc, #220]	; (80047dc <main+0xfc>)
 8004700:	4837      	ldr	r0, [pc, #220]	; (80047e0 <main+0x100>)
 8004702:	f7fc f96d 	bl	80009e0 <oqWriteTimeout>
  sdWrite(&SD1, (const uint8_t *)"Verify SAI2A pins\r\n", 20);
 8004706:	f04f 33ff 	mov.w	r3, #4294967295
 800470a:	2214      	movs	r2, #20
 800470c:	4935      	ldr	r1, [pc, #212]	; (80047e4 <main+0x104>)
 800470e:	4834      	ldr	r0, [pc, #208]	; (80047e0 <main+0x100>)
 8004710:	f7fc f966 	bl	80009e0 <oqWriteTimeout>
  palSetLineMode(LINE_SAI2A_SCK,
 8004714:	f240 521a 	movw	r2, #1306	; 0x51a
 8004718:	2120      	movs	r1, #32
 800471a:	4833      	ldr	r0, [pc, #204]	; (80047e8 <main+0x108>)
 800471c:	f7fd fc30 	bl	8001f80 <_pal_lld_setgroupmode>
  palSetLineMode(LINE_SAI2A_FS,
 8004720:	f240 521a 	movw	r2, #1306	; 0x51a
 8004724:	2180      	movs	r1, #128	; 0x80
 8004726:	4830      	ldr	r0, [pc, #192]	; (80047e8 <main+0x108>)
 8004728:	f7fd fc2a 	bl	8001f80 <_pal_lld_setgroupmode>
  palSetLineMode(LINE_SAI2A_SD,
 800472c:	f240 521a 	movw	r2, #1306	; 0x51a
 8004730:	2140      	movs	r1, #64	; 0x40
 8004732:	482d      	ldr	r0, [pc, #180]	; (80047e8 <main+0x108>)
 8004734:	f7fd fc24 	bl	8001f80 <_pal_lld_setgroupmode>
  palSetLineMode(LINE_DBG_HT, PAL_MODE_OUTPUT_PUSHPULL);
 8004738:	4620      	mov	r0, r4
 800473a:	2201      	movs	r2, #1
 800473c:	2180      	movs	r1, #128	; 0x80
 800473e:	f7fd fc1f 	bl	8001f80 <_pal_lld_setgroupmode>
  palSetLineMode(LINE_DBG_TC, PAL_MODE_OUTPUT_PUSHPULL);
 8004742:	4620      	mov	r0, r4
 8004744:	2201      	movs	r2, #1
 8004746:	f44f 7180 	mov.w	r1, #256	; 0x100
 800474a:	f7fd fc19 	bl	8001f80 <_pal_lld_setgroupmode>
  palClearLine(LINE_DBG_HT);
 800474e:	2380      	movs	r3, #128	; 0x80
    sai_tx_buffer[i] = 0U;
 8004750:	f44f 6280 	mov.w	r2, #1024	; 0x400
 8004754:	2100      	movs	r1, #0
  palClearLine(LINE_DBG_HT);
 8004756:	8363      	strh	r3, [r4, #26]
    sai_tx_buffer[i] = 0U;
 8004758:	4824      	ldr	r0, [pc, #144]	; (80047ec <main+0x10c>)
  palClearLine(LINE_DBG_TC);
 800475a:	8365      	strh	r5, [r4, #26]
    sai_tx_buffer[i] = 0U;
 800475c:	f000 f854 	bl	8004808 <memset>

  sai_gpio_init();
  sai_fill_silence();

  saiStart(&SAID2A, &sai_cfg);
 8004760:	4823      	ldr	r0, [pc, #140]	; (80047f0 <main+0x110>)
 8004762:	4924      	ldr	r1, [pc, #144]	; (80047f4 <main+0x114>)
 8004764:	4604      	mov	r4, r0
 8004766:	f7fc f9ab 	bl	8000ac0 <saiStart>
  saiSetBuffers(&SAID2A, sai_tx_buffer, NULL, SAI_DMA_ITEMS);
 800476a:	462b      	mov	r3, r5
 800476c:	2200      	movs	r2, #0
 800476e:	491f      	ldr	r1, [pc, #124]	; (80047ec <main+0x10c>)
 8004770:	4620      	mov	r0, r4
 8004772:	f7fc f9b5 	bl	8000ae0 <saiSetBuffers>
  saiStartExchange(&SAID2A);
 8004776:	4f20      	ldr	r7, [pc, #128]	; (80047f8 <main+0x118>)
 8004778:	4620      	mov	r0, r4

    /* CMSIS: status flags are in SAI_Block_TypeDef::SR */
    sai_error_flags = SAID2A.blockp->SR;

    /* Minimal numeric print: split to avoid formatter */
    sdWrite(&SD1, (const uint8_t *)"SAI stopped\r\n", 13);
 800477a:	4d19      	ldr	r5, [pc, #100]	; (80047e0 <main+0x100>)
  saiStartExchange(&SAID2A);
 800477c:	f7fc f9c0 	bl	8000b00 <saiStartExchange>
  sdWrite(&SD1, (const uint8_t *)"SAI started\r\n", 13);
 8004780:	f04f 33ff 	mov.w	r3, #4294967295
 8004784:	220d      	movs	r2, #13
 8004786:	491d      	ldr	r1, [pc, #116]	; (80047fc <main+0x11c>)
 8004788:	4815      	ldr	r0, [pc, #84]	; (80047e0 <main+0x100>)
 800478a:	f7fc f929 	bl	80009e0 <oqWriteTimeout>
    chThdSleepSeconds(5);
 800478e:	f24c 3050 	movw	r0, #50000	; 0xc350
 8004792:	f7ff fdbd 	bl	8004310 <chThdSleep>
    saiStopExchange(&SAID2A);
 8004796:	4620      	mov	r0, r4
 8004798:	f7fc f9c2 	bl	8000b20 <saiStopExchange>
    sai_error_flags = SAID2A.blockp->SR;
 800479c:	68e1      	ldr	r1, [r4, #12]
    sdWrite(&SD1, (const uint8_t *)"SAI stopped\r\n", 13);
 800479e:	f04f 33ff 	mov.w	r3, #4294967295
 80047a2:	220d      	movs	r2, #13
    sai_error_flags = SAID2A.blockp->SR;
 80047a4:	694e      	ldr	r6, [r1, #20]
    sdWrite(&SD1, (const uint8_t *)"SAI stopped\r\n", 13);
 80047a6:	4628      	mov	r0, r5
 80047a8:	4915      	ldr	r1, [pc, #84]	; (8004800 <main+0x120>)
    sai_error_flags = SAID2A.blockp->SR;
 80047aa:	603e      	str	r6, [r7, #0]
    sdWrite(&SD1, (const uint8_t *)"SAI stopped\r\n", 13);
 80047ac:	f7fc f918 	bl	80009e0 <oqWriteTimeout>

    chThdSleepSeconds(1);
 80047b0:	f242 7010 	movw	r0, #10000	; 0x2710
 80047b4:	f7ff fdac 	bl	8004310 <chThdSleep>

    saiStartExchange(&SAID2A);
 80047b8:	4620      	mov	r0, r4
 80047ba:	f7fc f9a1 	bl	8000b00 <saiStartExchange>
    sdWrite(&SD1, (const uint8_t *)"SAI restarted\r\n", 15);
 80047be:	f04f 33ff 	mov.w	r3, #4294967295
 80047c2:	220f      	movs	r2, #15
 80047c4:	490f      	ldr	r1, [pc, #60]	; (8004804 <main+0x124>)
 80047c6:	4628      	mov	r0, r5
 80047c8:	f7fc f90a 	bl	80009e0 <oqWriteTimeout>
  while (true) {
 80047cc:	e7df      	b.n	800478e <main+0xae>
 80047ce:	bf00      	nop
 80047d0:	58021c00 	.word	0x58021c00
 80047d4:	08004dc0 	.word	0x08004dc0
 80047d8:	2400075c 	.word	0x2400075c
 80047dc:	08004d38 	.word	0x08004d38
 80047e0:	2400078c 	.word	0x2400078c
 80047e4:	08004d54 	.word	0x08004d54
 80047e8:	58022000 	.word	0x58022000
 80047ec:	24000000 	.word	0x24000000
 80047f0:	24000724 	.word	0x24000724
 80047f4:	08004d98 	.word	0x08004d98
 80047f8:	240012a0 	.word	0x240012a0
 80047fc:	08004d68 	.word	0x08004d68
 8004800:	08004d78 	.word	0x08004d78
 8004804:	08004d88 	.word	0x08004d88

08004808 <memset>:
 8004808:	0783      	lsls	r3, r0, #30
 800480a:	b530      	push	{r4, r5, lr}
 800480c:	d048      	beq.n	80048a0 <memset+0x98>
 800480e:	1e54      	subs	r4, r2, #1
 8004810:	2a00      	cmp	r2, #0
 8004812:	d03f      	beq.n	8004894 <memset+0x8c>
 8004814:	b2ca      	uxtb	r2, r1
 8004816:	4603      	mov	r3, r0
 8004818:	e001      	b.n	800481e <memset+0x16>
 800481a:	3c01      	subs	r4, #1
 800481c:	d33a      	bcc.n	8004894 <memset+0x8c>
 800481e:	f803 2b01 	strb.w	r2, [r3], #1
 8004822:	079d      	lsls	r5, r3, #30
 8004824:	d1f9      	bne.n	800481a <memset+0x12>
 8004826:	2c03      	cmp	r4, #3
 8004828:	d92d      	bls.n	8004886 <memset+0x7e>
 800482a:	b2cd      	uxtb	r5, r1
 800482c:	ea45 2505 	orr.w	r5, r5, r5, lsl #8
 8004830:	2c0f      	cmp	r4, #15
 8004832:	ea45 4505 	orr.w	r5, r5, r5, lsl #16
 8004836:	d936      	bls.n	80048a6 <memset+0x9e>
 8004838:	f1a4 0210 	sub.w	r2, r4, #16
 800483c:	f022 0c0f 	bic.w	ip, r2, #15
 8004840:	f103 0e20 	add.w	lr, r3, #32
 8004844:	44e6      	add	lr, ip
 8004846:	ea4f 1c12 	mov.w	ip, r2, lsr #4
 800484a:	f103 0210 	add.w	r2, r3, #16
 800484e:	e942 5504 	strd	r5, r5, [r2, #-16]
 8004852:	e942 5502 	strd	r5, r5, [r2, #-8]
 8004856:	3210      	adds	r2, #16
 8004858:	4572      	cmp	r2, lr
 800485a:	d1f8      	bne.n	800484e <memset+0x46>
 800485c:	f10c 0201 	add.w	r2, ip, #1
 8004860:	f014 0f0c 	tst.w	r4, #12
 8004864:	eb03 1202 	add.w	r2, r3, r2, lsl #4
 8004868:	f004 0c0f 	and.w	ip, r4, #15
 800486c:	d013      	beq.n	8004896 <memset+0x8e>
 800486e:	f1ac 0304 	sub.w	r3, ip, #4
 8004872:	f023 0303 	bic.w	r3, r3, #3
 8004876:	3304      	adds	r3, #4
 8004878:	4413      	add	r3, r2
 800487a:	f842 5b04 	str.w	r5, [r2], #4
 800487e:	4293      	cmp	r3, r2
 8004880:	d1fb      	bne.n	800487a <memset+0x72>
 8004882:	f00c 0403 	and.w	r4, ip, #3
 8004886:	b12c      	cbz	r4, 8004894 <memset+0x8c>
 8004888:	b2c9      	uxtb	r1, r1
 800488a:	441c      	add	r4, r3
 800488c:	f803 1b01 	strb.w	r1, [r3], #1
 8004890:	429c      	cmp	r4, r3
 8004892:	d1fb      	bne.n	800488c <memset+0x84>
 8004894:	bd30      	pop	{r4, r5, pc}
 8004896:	4664      	mov	r4, ip
 8004898:	4613      	mov	r3, r2
 800489a:	2c00      	cmp	r4, #0
 800489c:	d1f4      	bne.n	8004888 <memset+0x80>
 800489e:	e7f9      	b.n	8004894 <memset+0x8c>
 80048a0:	4603      	mov	r3, r0
 80048a2:	4614      	mov	r4, r2
 80048a4:	e7bf      	b.n	8004826 <memset+0x1e>
 80048a6:	461a      	mov	r2, r3
 80048a8:	46a4      	mov	ip, r4
 80048aa:	e7e0      	b.n	800486e <memset+0x66>
