ARM GAS  C:\Users\DEVELO~1\AppData\Local\Temp\cchtMrl3.s 			page 1


   1              		.cpu cortex-m7
   2              		.arch armv7e-m
   3              		.fpu softvfp
   4              		.eabi_attribute 20, 1
   5              		.eabi_attribute 21, 1
   6              		.eabi_attribute 23, 3
   7              		.eabi_attribute 24, 1
   8              		.eabi_attribute 25, 1
   9              		.eabi_attribute 26, 1
  10              		.eabi_attribute 30, 6
  11              		.eabi_attribute 34, 1
  12              		.eabi_attribute 18, 4
  13              		.file	"board.c"
  14              		.text
  15              	.Ltext0:
  16              		.cfi_sections	.debug_frame
  17              		.section	.text.__rccResetAHB4,"ax",%progbits
  18              		.align	1
  19              		.syntax unified
  20              		.thumb
  21              		.thumb_func
  22              		.type	__rccResetAHB4, %function
  23              	__rccResetAHB4:
  24              	.LFB387:
  25              		.file 1 "../../../os/hal/ports/STM32/STM32H7xx/stm32_rcc.h"
  26              		.loc 1 121 52
  27              		.cfi_startproc
  28              		@ args = 0, pretend = 0, frame = 8
  29              		@ frame_needed = 1, uses_anonymous_args = 0
  30              		@ link register save eliminated.
  31 0000 80B4     		push	{r7}
  32              		.cfi_def_cfa_offset 4
  33              		.cfi_offset 7, -4
  34 0002 83B0     		sub	sp, sp, #12
  35              		.cfi_def_cfa_offset 16
  36 0004 00AF     		add	r7, sp, #0
  37              		.cfi_def_cfa_register 7
  38 0006 7860     		str	r0, [r7, #4]
  39              		.loc 1 124 17
  40 0008 0C4B     		ldr	r3, .L2
  41 000a D3F88820 		ldr	r2, [r3, #136]
  42 000e 0B49     		ldr	r1, .L2
  43 0010 7B68     		ldr	r3, [r7, #4]
  44 0012 1343     		orrs	r3, r3, r2
  45 0014 C1F88830 		str	r3, [r1, #136]
  46              		.loc 1 125 17
  47 0018 084B     		ldr	r3, .L2
  48 001a D3F88820 		ldr	r2, [r3, #136]
  49              		.loc 1 125 20
  50 001e 7B68     		ldr	r3, [r7, #4]
  51 0020 DB43     		mvns	r3, r3
  52              		.loc 1 125 17
  53 0022 0649     		ldr	r1, .L2
  54 0024 1340     		ands	r3, r3, r2
  55 0026 C1F88830 		str	r3, [r1, #136]
  56              		.loc 1 126 12
  57 002a 044B     		ldr	r3, .L2
ARM GAS  C:\Users\DEVELO~1\AppData\Local\Temp\cchtMrl3.s 			page 2


  58              		.loc 1 126 3
  59 002c D3F88830 		ldr	r3, [r3, #136]
  60              		.loc 1 127 1
  61 0030 00BF     		nop
  62 0032 0C37     		adds	r7, r7, #12
  63              		.cfi_def_cfa_offset 4
  64 0034 BD46     		mov	sp, r7
  65              		.cfi_def_cfa_register 13
  66              		@ sp needed
  67 0036 80BC     		pop	{r7}
  68              		.cfi_restore 7
  69              		.cfi_def_cfa_offset 0
  70 0038 7047     		bx	lr
  71              	.L3:
  72 003a 00BF     		.align	2
  73              	.L2:
  74 003c 00440258 		.word	1476543488
  75              		.cfi_endproc
  76              	.LFE387:
  77              		.size	__rccResetAHB4, .-__rccResetAHB4
  78              		.section	.text.rccEnableAHB4,"ax",%progbits
  79              		.align	1
  80              		.syntax unified
  81              		.thumb
  82              		.thumb_func
  83              		.type	rccEnableAHB4, %function
  84              	rccEnableAHB4:
  85              	.LFB412:
  86              		.loc 1 853 60
  87              		.cfi_startproc
  88              		@ args = 0, pretend = 0, frame = 8
  89              		@ frame_needed = 1, uses_anonymous_args = 0
  90              		@ link register save eliminated.
  91 0000 80B4     		push	{r7}
  92              		.cfi_def_cfa_offset 4
  93              		.cfi_offset 7, -4
  94 0002 83B0     		sub	sp, sp, #12
  95              		.cfi_def_cfa_offset 16
  96 0004 00AF     		add	r7, sp, #0
  97              		.cfi_def_cfa_register 7
  98 0006 7860     		str	r0, [r7, #4]
  99 0008 0B46     		mov	r3, r1
 100 000a FB70     		strb	r3, [r7, #3]
 101              		.loc 1 857 19
 102 000c 124B     		ldr	r3, .L7
 103 000e D3F8E020 		ldr	r2, [r3, #224]
 104 0012 1149     		ldr	r1, .L7
 105 0014 7B68     		ldr	r3, [r7, #4]
 106 0016 1343     		orrs	r3, r3, r2
 107 0018 C1F8E030 		str	r3, [r1, #224]
 108              		.loc 1 858 6
 109 001c FB78     		ldrb	r3, [r7, #3]	@ zero_extendqisi2
 110 001e 002B     		cmp	r3, #0
 111 0020 08D0     		beq	.L5
 112              		.loc 1 859 23
 113 0022 0D4B     		ldr	r3, .L7
 114 0024 D3F80821 		ldr	r2, [r3, #264]
ARM GAS  C:\Users\DEVELO~1\AppData\Local\Temp\cchtMrl3.s 			page 3


 115 0028 0B49     		ldr	r1, .L7
 116 002a 7B68     		ldr	r3, [r7, #4]
 117 002c 1343     		orrs	r3, r3, r2
 118 002e C1F80831 		str	r3, [r1, #264]
 119 0032 08E0     		b	.L6
 120              	.L5:
 121              		.loc 1 862 23
 122 0034 084B     		ldr	r3, .L7
 123 0036 D3F80821 		ldr	r2, [r3, #264]
 124              		.loc 1 862 26
 125 003a 7B68     		ldr	r3, [r7, #4]
 126 003c DB43     		mvns	r3, r3
 127              		.loc 1 862 23
 128 003e 0649     		ldr	r1, .L7
 129 0040 1340     		ands	r3, r3, r2
 130 0042 C1F80831 		str	r3, [r1, #264]
 131              	.L6:
 132              		.loc 1 864 15
 133 0046 044B     		ldr	r3, .L7
 134              		.loc 1 864 3
 135 0048 D3F80831 		ldr	r3, [r3, #264]
 136              		.loc 1 876 1
 137 004c 00BF     		nop
 138 004e 0C37     		adds	r7, r7, #12
 139              		.cfi_def_cfa_offset 4
 140 0050 BD46     		mov	sp, r7
 141              		.cfi_def_cfa_register 13
 142              		@ sp needed
 143 0052 80BC     		pop	{r7}
 144              		.cfi_restore 7
 145              		.cfi_def_cfa_offset 0
 146 0054 7047     		bx	lr
 147              	.L8:
 148 0056 00BF     		.align	2
 149              	.L7:
 150 0058 00440258 		.word	1476543488
 151              		.cfi_endproc
 152              	.LFE412:
 153              		.size	rccEnableAHB4, .-rccEnableAHB4
 154              		.section	.rodata.gpio_default_config,"a"
 155              		.align	2
 156              		.type	gpio_default_config, %object
 157              		.size	gpio_default_config, 308
 158              	gpio_default_config:
 159 0000 F6D5A8EA 		.word	-358033930
 160 0004 00000000 		.word	0
 161 0008 0715FD3F 		.word	1073550599
 162 000c 00000000 		.word	0
 163 0010 00600000 		.word	24576
 164 0014 0A000000 		.word	10
 165 0018 70A70A00 		.word	698224
 166 001c BF7AAFAA 		.word	-1431340353
 167 0020 000C0000 		.word	3072
 168 0024 C04FF0FF 		.word	-1028160
 169 0028 00005000 		.word	5242880
 170 002c 80000000 		.word	128
 171 0030 00606600 		.word	6709248
ARM GAS  C:\Users\DEVELO~1\AppData\Local\Temp\cchtMrl3.s 			page 4


 172 0034 004488CC 		.word	-863484928
 173 0038 FFFF7EF2 		.word	-226557953
 174 003c 00000000 		.word	0
 175 0040 00004307 		.word	121831424
 176 0044 00000100 		.word	65536
 177 0048 00080000 		.word	2048
 178 004c 00000000 		.word	0
 179 0050 06000600 		.word	393222
 180 0054 EA9F6AAF 		.word	-1351966742
 181 0058 00000000 		.word	0
 182 005c 3FD07FF0 		.word	-260059073
 183 0060 10000000 		.word	16
 184 0064 40000000 		.word	64
 185 0068 CC060050 		.word	1342179020
 186 006c CC0C00CC 		.word	-872411956
 187 0070 DABFAAAA 		.word	-1431650342
 188 0074 00000000 		.word	0
 189 0078 1FC0FFFF 		.word	-16353
 190 007c 00000000 		.word	0
 191 0080 04000000 		.word	4
 192 0084 CC0000C0 		.word	-1073741620
 193 0088 CCCCCCCC 		.word	-858993460
 194 008c AA9A8AAA 		.word	-1433757014
 195 0090 00000000 		.word	0
 196 0094 FFDFDFFF 		.word	-2105345
 197 0098 00000000 		.word	0
 198 009c 40000000 		.word	64
 199 00a0 CCCCCC50 		.word	1355599052
 200 00a4 55C0CCCC 		.word	-858996651
 201 00a8 EACA9AAA 		.word	-1432696086
 202 00ac 00000000 		.word	0
 203 00b0 3F1FDFFF 		.word	-2154689
 204 00b4 00000000 		.word	0
 205 00b8 00040000 		.word	1024
 206 00bc CC0CCC00 		.word	13372620
 207 00c0 5C5055C5 		.word	-984264612
 208 00c4 AF7BFFFF 		.word	-33873
 209 00c8 00000000 		.word	0
 210 00cc F04C0000 		.word	19696
 211 00d0 00000000 		.word	0
 212 00d4 80000000 		.word	128
 213 00d8 00CCC000 		.word	12635136
 214 00dc 00000000 		.word	0
 215 00e0 BBAA71FF 		.word	-9327941
 216 00e4 00000000 		.word	0
 217 00e8 CCFF4500 		.word	4587468
 218 00ec 00000000 		.word	0
 219 00f0 00000000 		.word	0
 220 00f4 5050AAAA 		.word	-1431678896
 221 00f8 00000000 		.word	0
 222 00fc FFFFFFFF 		.word	-1
 223 0100 00000000 		.word	0
 224 0104 00000000 		.word	0
 225 0108 00000000 		.word	0
 226 010c 00000000 		.word	0
 227 0110 00000000 		.word	0
 228 0114 00000000 		.word	0
ARM GAS  C:\Users\DEVELO~1\AppData\Local\Temp\cchtMrl3.s 			page 5


 229 0118 FFFFFFFF 		.word	-1
 230 011c 00000000 		.word	0
 231 0120 00000000 		.word	0
 232 0124 00000000 		.word	0
 233 0128 00000000 		.word	0
 234 012c 00000000 		.word	0
 235 0130 00000000 		.word	0
 236              		.section	.text.gpio_init,"ax",%progbits
 237              		.align	1
 238              		.syntax unified
 239              		.thumb
 240              		.thumb_func
 241              		.type	gpio_init, %function
 242              	gpio_init:
 243              	.LFB432:
 244              		.file 2 "../../../os/hal/boards/STM32H743_LQFP176_CUSTOM_Q_8M/board.c"
 245              		.loc 2 144 72
 246              		.cfi_startproc
 247              		@ args = 0, pretend = 0, frame = 8
 248              		@ frame_needed = 1, uses_anonymous_args = 0
 249              		@ link register save eliminated.
 250 0000 80B4     		push	{r7}
 251              		.cfi_def_cfa_offset 4
 252              		.cfi_offset 7, -4
 253 0002 83B0     		sub	sp, sp, #12
 254              		.cfi_def_cfa_offset 16
 255 0004 00AF     		add	r7, sp, #0
 256              		.cfi_def_cfa_register 7
 257 0006 7860     		str	r0, [r7, #4]
 258 0008 3960     		str	r1, [r7]
 259              		.loc 2 146 26
 260 000a 3B68     		ldr	r3, [r7]
 261 000c 5A68     		ldr	r2, [r3, #4]
 262              		.loc 2 146 18
 263 000e 7B68     		ldr	r3, [r7, #4]
 264 0010 5A60     		str	r2, [r3, #4]
 265              		.loc 2 147 26
 266 0012 3B68     		ldr	r3, [r7]
 267 0014 9A68     		ldr	r2, [r3, #8]
 268              		.loc 2 147 18
 269 0016 7B68     		ldr	r3, [r7, #4]
 270 0018 9A60     		str	r2, [r3, #8]
 271              		.loc 2 148 26
 272 001a 3B68     		ldr	r3, [r7]
 273 001c DA68     		ldr	r2, [r3, #12]
 274              		.loc 2 148 18
 275 001e 7B68     		ldr	r3, [r7, #4]
 276 0020 DA60     		str	r2, [r3, #12]
 277              		.loc 2 149 26
 278 0022 3B68     		ldr	r3, [r7]
 279 0024 1A69     		ldr	r2, [r3, #16]
 280              		.loc 2 149 18
 281 0026 7B68     		ldr	r3, [r7, #4]
 282 0028 5A61     		str	r2, [r3, #20]
 283              		.loc 2 150 26
 284 002a 3B68     		ldr	r3, [r7]
 285 002c 5A69     		ldr	r2, [r3, #20]
ARM GAS  C:\Users\DEVELO~1\AppData\Local\Temp\cchtMrl3.s 			page 6


 286              		.loc 2 150 18
 287 002e 7B68     		ldr	r3, [r7, #4]
 288 0030 1A62     		str	r2, [r3, #32]
 289              		.loc 2 151 26
 290 0032 3B68     		ldr	r3, [r7]
 291 0034 9A69     		ldr	r2, [r3, #24]
 292              		.loc 2 151 18
 293 0036 7B68     		ldr	r3, [r7, #4]
 294 0038 5A62     		str	r2, [r3, #36]
 295              		.loc 2 152 26
 296 003a 3B68     		ldr	r3, [r7]
 297 003c 1A68     		ldr	r2, [r3]
 298              		.loc 2 152 18
 299 003e 7B68     		ldr	r3, [r7, #4]
 300 0040 1A60     		str	r2, [r3]
 301              		.loc 2 153 1
 302 0042 00BF     		nop
 303 0044 0C37     		adds	r7, r7, #12
 304              		.cfi_def_cfa_offset 4
 305 0046 BD46     		mov	sp, r7
 306              		.cfi_def_cfa_register 13
 307              		@ sp needed
 308 0048 80BC     		pop	{r7}
 309              		.cfi_restore 7
 310              		.cfi_def_cfa_offset 0
 311 004a 7047     		bx	lr
 312              		.cfi_endproc
 313              	.LFE432:
 314              		.size	gpio_init, .-gpio_init
 315              		.section	.text.stm32_gpio_init,"ax",%progbits
 316              		.align	1
 317              		.syntax unified
 318              		.thumb
 319              		.thumb_func
 320              		.type	stm32_gpio_init, %function
 321              	stm32_gpio_init:
 322              	.LFB433:
 323              		.loc 2 155 35
 324              		.cfi_startproc
 325              		@ args = 0, pretend = 0, frame = 0
 326              		@ frame_needed = 1, uses_anonymous_args = 0
 327 0000 80B5     		push	{r7, lr}
 328              		.cfi_def_cfa_offset 8
 329              		.cfi_offset 7, -8
 330              		.cfi_offset 14, -4
 331 0002 00AF     		add	r7, sp, #0
 332              		.cfi_def_cfa_register 7
 333              		.loc 2 159 3
 334 0004 40F2FF70 		movw	r0, #2047
 335 0008 FFF7FEFF 		bl	__rccResetAHB4
 336              		.loc 2 160 3
 337 000c 0121     		movs	r1, #1
 338 000e 40F2FF70 		movw	r0, #2047
 339 0012 FFF7FEFF 		bl	rccEnableAHB4
 340              		.loc 2 164 3
 341 0016 1749     		ldr	r1, .L11
 342 0018 1748     		ldr	r0, .L11+4
ARM GAS  C:\Users\DEVELO~1\AppData\Local\Temp\cchtMrl3.s 			page 7


 343 001a FFF7FEFF 		bl	gpio_init
 344              		.loc 2 167 3
 345 001e 1749     		ldr	r1, .L11+8
 346 0020 1748     		ldr	r0, .L11+12
 347 0022 FFF7FEFF 		bl	gpio_init
 348              		.loc 2 170 3
 349 0026 1749     		ldr	r1, .L11+16
 350 0028 1748     		ldr	r0, .L11+20
 351 002a FFF7FEFF 		bl	gpio_init
 352              		.loc 2 173 3
 353 002e 1749     		ldr	r1, .L11+24
 354 0030 1748     		ldr	r0, .L11+28
 355 0032 FFF7FEFF 		bl	gpio_init
 356              		.loc 2 176 3
 357 0036 1749     		ldr	r1, .L11+32
 358 0038 1748     		ldr	r0, .L11+36
 359 003a FFF7FEFF 		bl	gpio_init
 360              		.loc 2 179 3
 361 003e 1749     		ldr	r1, .L11+40
 362 0040 1748     		ldr	r0, .L11+44
 363 0042 FFF7FEFF 		bl	gpio_init
 364              		.loc 2 182 3
 365 0046 1749     		ldr	r1, .L11+48
 366 0048 1748     		ldr	r0, .L11+52
 367 004a FFF7FEFF 		bl	gpio_init
 368              		.loc 2 185 3
 369 004e 1749     		ldr	r1, .L11+56
 370 0050 1748     		ldr	r0, .L11+60
 371 0052 FFF7FEFF 		bl	gpio_init
 372              		.loc 2 188 3
 373 0056 1749     		ldr	r1, .L11+64
 374 0058 1748     		ldr	r0, .L11+68
 375 005a FFF7FEFF 		bl	gpio_init
 376              		.loc 2 191 3
 377 005e 1749     		ldr	r1, .L11+72
 378 0060 1748     		ldr	r0, .L11+76
 379 0062 FFF7FEFF 		bl	gpio_init
 380              		.loc 2 194 3
 381 0066 1749     		ldr	r1, .L11+80
 382 0068 1748     		ldr	r0, .L11+84
 383 006a FFF7FEFF 		bl	gpio_init
 384              		.loc 2 196 1
 385 006e 00BF     		nop
 386 0070 80BD     		pop	{r7, pc}
 387              	.L12:
 388 0072 00BF     		.align	2
 389              	.L11:
 390 0074 00000000 		.word	gpio_default_config
 391 0078 00000258 		.word	1476526080
 392 007c 1C000000 		.word	gpio_default_config+28
 393 0080 00040258 		.word	1476527104
 394 0084 38000000 		.word	gpio_default_config+56
 395 0088 00080258 		.word	1476528128
 396 008c 54000000 		.word	gpio_default_config+84
 397 0090 000C0258 		.word	1476529152
 398 0094 70000000 		.word	gpio_default_config+112
 399 0098 00100258 		.word	1476530176
ARM GAS  C:\Users\DEVELO~1\AppData\Local\Temp\cchtMrl3.s 			page 8


 400 009c 8C000000 		.word	gpio_default_config+140
 401 00a0 00140258 		.word	1476531200
 402 00a4 A8000000 		.word	gpio_default_config+168
 403 00a8 00180258 		.word	1476532224
 404 00ac C4000000 		.word	gpio_default_config+196
 405 00b0 001C0258 		.word	1476533248
 406 00b4 E0000000 		.word	gpio_default_config+224
 407 00b8 00200258 		.word	1476534272
 408 00bc FC000000 		.word	gpio_default_config+252
 409 00c0 00240258 		.word	1476535296
 410 00c4 18010000 		.word	gpio_default_config+280
 411 00c8 00280258 		.word	1476536320
 412              		.cfi_endproc
 413              	.LFE433:
 414              		.size	stm32_gpio_init, .-stm32_gpio_init
 415              		.section	.text.__early_init,"ax",%progbits
 416              		.align	1
 417              		.global	__early_init
 418              		.syntax unified
 419              		.thumb
 420              		.thumb_func
 421              		.type	__early_init, %function
 422              	__early_init:
 423              	.LFB434:
 424              		.loc 2 211 25
 425              		.cfi_startproc
 426              		@ args = 0, pretend = 0, frame = 0
 427              		@ frame_needed = 1, uses_anonymous_args = 0
 428 0000 80B5     		push	{r7, lr}
 429              		.cfi_def_cfa_offset 8
 430              		.cfi_offset 7, -8
 431              		.cfi_offset 14, -4
 432 0002 00AF     		add	r7, sp, #0
 433              		.cfi_def_cfa_register 7
 434              		.loc 2 213 3
 435 0004 FFF7FEFF 		bl	stm32_gpio_init
 436              		.loc 2 214 3
 437 0008 FFF7FEFF 		bl	stm32_clock_init
 438              		.loc 2 215 1
 439 000c 00BF     		nop
 440 000e 80BD     		pop	{r7, pc}
 441              		.cfi_endproc
 442              	.LFE434:
 443              		.size	__early_init, .-__early_init
 444              		.section	.text.boardInit,"ax",%progbits
 445              		.align	1
 446              		.global	boardInit
 447              		.syntax unified
 448              		.thumb
 449              		.thumb_func
 450              		.type	boardInit, %function
 451              	boardInit:
 452              	.LFB435:
 453              		.loc 2 265 22
 454              		.cfi_startproc
 455              		@ args = 0, pretend = 0, frame = 0
 456              		@ frame_needed = 1, uses_anonymous_args = 0
ARM GAS  C:\Users\DEVELO~1\AppData\Local\Temp\cchtMrl3.s 			page 9


 457              		@ link register save eliminated.
 458 0000 80B4     		push	{r7}
 459              		.cfi_def_cfa_offset 4
 460              		.cfi_offset 7, -4
 461 0002 00AF     		add	r7, sp, #0
 462              		.cfi_def_cfa_register 7
 463              		.loc 2 266 1
 464 0004 00BF     		nop
 465 0006 BD46     		mov	sp, r7
 466              		.cfi_def_cfa_register 13
 467              		@ sp needed
 468 0008 80BC     		pop	{r7}
 469              		.cfi_restore 7
 470              		.cfi_def_cfa_offset 0
 471 000a 7047     		bx	lr
 472              		.cfi_endproc
 473              	.LFE435:
 474              		.size	boardInit, .-boardInit
 475              		.text
 476              	.Letext0:
 477              		.file 3 "c:\\chibistudio\\tools\\gnu tools arm embedded\\11.3 2022.08\\arm-none-eabi\\include\\mac
 478              		.file 4 "c:\\chibistudio\\tools\\gnu tools arm embedded\\11.3 2022.08\\arm-none-eabi\\include\\sys
 479              		.file 5 "../../../os/common/ext/ST/STM32H7xx/stm32h743xx.h"
 480              		.file 6 "../../../os/hal/ports/STM32/LLD/GPIOv2/stm32_gpio.h"
 481              		.file 7 "../../../os/hal/ports/STM32/STM32H7xx/hal_lld.h"