ARM GAS  C:\Users\DEVELO~1\AppData\Local\Temp\cchtMrl3.s 			page 1


   1              		.cpu cortex-m7
   2              		.arch armv7e-m
   3              		.fpu softvfp
   4              		.eabi_attribute 20, 1
   5              		.eabi_attribute 21, 1
   6              		.eabi_attribute 23, 3
   7              		.eabi_attribute 24, 1
   8              		.eabi_attribute 25, 1
   9              		.eabi_attribute 26, 1
  10              		.eabi_attribute 30, 6
  11              		.eabi_attribute 34, 1
  12              		.eabi_attribute 18, 4
  13              		.file	"board.c"
  14              		.text
  15              	.Ltext0:
  16              		.cfi_sections	.debug_frame
  17              		.section	.text.__rccResetAHB4,"ax",%progbits
  18              		.align	1
  19              		.syntax unified
  20              		.thumb
  21              		.thumb_func
  22              		.type	__rccResetAHB4, %function
  23              	__rccResetAHB4:
  24              	.LFB387:
  25              		.file 1 "../../../os/hal/ports/STM32/STM32H7xx/stm32_rcc.h"
  26              		.loc 1 121 52
  27              		.cfi_startproc
  28              		@ args = 0, pretend = 0, frame = 8
  29              		@ frame_needed = 1, uses_anonymous_args = 0
  30              		@ link register save eliminated.
  31 0000 80B4     		push	{r7}
  32              		.cfi_def_cfa_offset 4
  33              		.cfi_offset 7, -4
  34 0002 83B0     		sub	sp, sp, #12
  35              		.cfi_def_cfa_offset 16
  36 0004 00AF     		add	r7, sp, #0
  37              		.cfi_def_cfa_register 7
  38 0006 7860     		str	r0, [r7, #4]
  39              		.loc 1 124 17
  40 0008 0C4B     		ldr	r3, .L2
  41 000a D3F88820 		ldr	r2, [r3, #136]
  42 000e 0B49     		ldr	r1, .L2
  43 0010 7B68     		ldr	r3, [r7, #4]
  44 0012 1343     		orrs	r3, r3, r2
  45 0014 C1F88830 		str	r3, [r1, #136]
  46              		.loc 1 125 17
  47 0018 084B     		ldr	r3, .L2
  48 001a D3F88820 		ldr	r2, [r3, #136]
  49              		.loc 1 125 20
  50 001e 7B68     		ldr	r3, [r7, #4]
  51 0020 DB43     		mvns	r3, r3
  52              		.loc 1 125 17
  53 0022 0649     		ldr	r1, .L2
  54 0024 1340     		ands	r3, r3, r2
  55 0026 C1F88830 		str	r3, [r1, #136]
  56              		.loc 1 126 12
  57 002a 044B     		ldr	r3, .L2
ARM GAS  C:\Users\DEVELO~1\AppData\Local\Temp\cchtMrl3.s 			page 2


  58              		.loc 1 126 3
  59 002c D3F88830 		ldr	r3, [r3, #136]
  60              		.loc 1 127 1
  61 0030 00BF     		nop
  62 0032 0C37     		adds	r7, r7, #12
  63              		.cfi_def_cfa_offset 4
  64 0034 BD46     		mov	sp, r7
  65              		.cfi_def_cfa_register 13
  66              		@ sp needed
  67 0036 80BC     		pop	{r7}
  68              		.cfi_restore 7
  69              		.cfi_def_cfa_offset 0
  70 0038 7047     		bx	lr
  71              	.L3:
  72 003a 00BF     		.align	2
  73              	.L2:
  74 003c 00440258 		.word	1476543488
  75              		.cfi_endproc
  76              	.LFE387:
  77              		.size	__rccResetAHB4, .-__rccResetAHB4
  78              		.section	.text.rccEnableAHB4,"ax",%progbits
  79              		.align	1
  80              		.syntax unified
  81              		.thumb
  82              		.thumb_func
  83              		.type	rccEnableAHB4, %function
  84              	rccEnableAHB4:
  85              	.LFB412:
  86              		.loc 1 853 60
  87              		.cfi_startproc
  88              		@ args = 0, pretend = 0, frame = 8
  89              		@ frame_needed = 1, uses_anonymous_args = 0
  90              		@ link register save eliminated.
  91 0000 80B4     		push	{r7}
  92              		.cfi_def_cfa_offset 4
  93              		.cfi_offset 7, -4
  94 0002 83B0     		sub	sp, sp, #12
  95              		.cfi_def_cfa_offset 16
  96 0004 00AF     		add	r7, sp, #0
  97              		.cfi_def_cfa_register 7
  98 0006 7860     		str	r0, [r7, #4]
  99 0008 0B46     		mov	r3, r1
 100 000a FB70     		strb	r3, [r7, #3]
 101              		.loc 1 857 19
 102 000c 124B     		ldr	r3, .L7
 103 000e D3F8E020 		ldr	r2, [r3, #224]
 104 0012 1149     		ldr	r1, .L7
 105 0014 7B68     		ldr	r3, [r7, #4]
 106 0016 1343     		orrs	r3, r3, r2
 107 0018 C1F8E030 		str	r3, [r1, #224]
 108              		.loc 1 858 6
 109 001c FB78     		ldrb	r3, [r7, #3]	@ zero_extendqisi2
 110 001e 002B     		cmp	r3, #0
 111 0020 08D0     		beq	.L5
 112              		.loc 1 859 23
 113 0022 0D4B     		ldr	r3, .L7
 114 0024 D3F80821 		ldr	r2, [r3, #264]
ARM GAS  C:\Users\DEVELO~1\AppData\Local\Temp\cchtMrl3.s 			page 3


 115 0028 0B49     		ldr	r1, .L7
 116 002a 7B68     		ldr	r3, [r7, #4]
 117 002c 1343     		orrs	r3, r3, r2
 118 002e C1F80831 		str	r3, [r1, #264]
 119 0032 08E0     		b	.L6
 120              	.L5:
 121              		.loc 1 862 23
 122 0034 084B     		ldr	r3, .L7
 123 0036 D3F80821 		ldr	r2, [r3, #264]
 124              		.loc 1 862 26
 125 003a 7B68     		ldr	r3, [r7, #4]
 126 003c DB43     		mvns	r3, r3
 127              		.loc 1 862 23
 128 003e 0649     		ldr	r1, .L7
 129 0040 1340     		ands	r3, r3, r2
 130 0042 C1F80831 		str	r3, [r1, #264]
 131              	.L6:
 132              		.loc 1 864 15
 133 0046 044B     		ldr	r3, .L7
 134              		.loc 1 864 3
 135 0048 D3F80831 		ldr	r3, [r3, #264]
 136              		.loc 1 876 1
 137 004c 00BF     		nop
 138 004e 0C37     		adds	r7, r7, #12
 139              		.cfi_def_cfa_offset 4
 140 0050 BD46     		mov	sp, r7
 141              		.cfi_def_cfa_register 13
 142              		@ sp needed
 143 0052 80BC     		pop	{r7}
 144              		.cfi_restore 7
 145              		.cfi_def_cfa_offset 0
 146 0054 7047     		bx	lr
 147              	.L8:
 148 0056 00BF     		.align	2
 149              	.L7:
 150 0058 00440258 		.word	1476543488
 151              		.cfi_endproc
 152              	.LFE412:
 153              		.size	rccEnableAHB4, .-rccEnableAHB4
 154              		.section	.rodata.gpio_default_config,"a"
 155              		.align	2
 156              		.type	gpio_default_config, %object
 157              		.size	gpio_default_config, 308
 158              	gpio_default_config:
 159 0000 F6D5A8EA 		.word	-358033930
 160 0004 00000000 		.word	0
 161 0008 0715FD3F 		.word	1073550599
 162 000c 00000000 		.word	0
 163 0010 00600000 		.word	24576
 164 0014 0A000000 		.word	10
 165 0018 70A70A00 		.word	698224
 166 001c BF7AAFAA 		.word	-1431340353
 167 0020 000C0000 		.word	3072
 168 0024 C04FF0FF 		.word	-1028160
 169 0028 00005000 		.word	5242880
 170 002c 80000000 		.word	128
 171 0030 00606600 		.word	6709248
ARM GAS  C:\Users\DEVELO~1\AppData\Local\Temp\cchtMrl3.s 			page 4


 172 0034 004488CC 		.word	-863484928
 173 0038 FFFF7EF2 		.word	-226557953
 174 003c 00000000 		.word	0
 175 0040 00004307 		.word	121831424
 176 0044 00000100 		.word	65536
 177 0048 00080000 		.word	2048
 178 004c 00000000 		.word	0
 179 0050 06000600 		.word	393222
 180 0054 EA9F6AAF 		.word	-1351966742
 181 0058 00000000 		.word	0
 182 005c 3FD07FF0 		.word	-260059073
 183 0060 10000000 		.word	16
 184 0064 40000000 		.word	64
 185 0068 CC060050 		.word	1342179020
 186 006c CC0C00CC 		.word	-872411956
 187 0070 DABFAAAA 		.word	-1431650342
 188 0074 00000000 		.word	0
 189 0078 1FC0FFFF 		.word	-16353
 190 007c 00000000 		.word	0
 191 0080 04000000 		.word	4
 192 0084 CC0000C0 		.word	-1073741620
 193 0088 CCCCCCCC 		.word	-858993460
 194 008c AA9A8AAA 		.word	-1433757014
 195 0090 00000000 		.word	0
 196 0094 FFDFDFFF 		.word	-2105345
 197 0098 00000000 		.word	0
 198 009c 40000000 		.word	64
 199 00a0 CCCCCC50 		.word	1355599052
 200 00a4 55C0CCCC 		.word	-858996651
 201 00a8 EACA9AAA 		.word	-1432696086
 202 00ac 00000000 		.word	0
 203 00b0 3F1FDFFF 		.word	-2154689
 204 00b4 00000000 		.word	0
 205 00b8 00040000 		.word	1024
 206 00bc CC0CCC00 		.word	13372620
 207 00c0 5C5055C5 		.word	-984264612
 208 00c4 AF7BFFFF 		.word	-33873
 209 00c8 00000000 		.word	0
 210 00cc F04C0000 		.word	19696
 211 00d0 00000000 		.word	0
 212 00d4 80000000 		.word	128
 213 00d8 00CCC000 		.word	12635136
 214 00dc 00000000 		.word	0
 215 00e0 BBAA71FF 		.word	-9327941
 216 00e4 00000000 		.word	0
 217 00e8 CCFF4500 		.word	4587468
 218 00ec 00000000 		.word	0
 219 00f0 00000000 		.word	0
 220 00f4 5050AAAA 		.word	-1431678896
 221 00f8 00000000 		.word	0
 222 00fc FFFFFFFF 		.word	-1
 223 0100 00000000 		.word	0
 224 0104 00000000 		.word	0
 225 0108 00000000 		.word	0
 226 010c 00000000 		.word	0
 227 0110 00000000 		.word	0
 228 0114 00000000 		.word	0
ARM GAS  C:\Users\DEVELO~1\AppData\Local\Temp\cchtMrl3.s 			page 5


 229 0118 FFFFFFFF 		.word	-1
 230 011c 00000000 		.word	0
 231 0120 00000000 		.word	0
 232 0124 00000000 		.word	0
 233 0128 00000000 		.word	0
 234 012c 00000000 		.word	0
 235 0130 00000000 		.word	0
 236              		.section	.text.gpio_init,"ax",%progbits
 237              		.align	1
 238              		.syntax unified
 239              		.thumb
 240              		.thumb_func
 241              		.type	gpio_init, %function
 242              	gpio_init:
 243              	.LFB432:
 244              		.file 2 "../../../os/hal/boards/STM32H743_LQFP176_CUSTOM_Q_8M/board.c"
 245              		.loc 2 144 72
 246              		.cfi_startproc
 247              		@ args = 0, pretend = 0, frame = 8
 248              		@ frame_needed = 1, uses_anonymous_args = 0
 249              		@ link register save eliminated.
 250 0000 80B4     		push	{r7}
 251              		.cfi_def_cfa_offset 4
 252              		.cfi_offset 7, -4
 253 0002 83B0     		sub	sp, sp, #12
 254              		.cfi_def_cfa_offset 16
 255 0004 00AF     		add	r7, sp, #0
 256              		.cfi_def_cfa_register 7
 257 0006 7860     		str	r0, [r7, #4]
 258 0008 3960     		str	r1, [r7]
 259              		.loc 2 146 26
 260 000a 3B68     		ldr	r3, [r7]
 261 000c 5A68     		ldr	r2, [r3, #4]
 262              		.loc 2 146 18
 263 000e 7B68     		ldr	r3, [r7, #4]
 264 0010 5A60     		str	r2, [r3, #4]
 265              		.loc 2 147 26
 266 0012 3B68     		ldr	r3, [r7]
 267 0014 9A68     		ldr	r2, [r3, #8]
 268              		.loc 2 147 18
 269 0016 7B68     		ldr	r3, [r7, #4]
 270 0018 9A60     		str	r2, [r3, #8]
 271              		.loc 2 148 26
 272 001a 3B68     		ldr	r3, [r7]
 273 001c DA68     		ldr	r2, [r3, #12]
 274              		.loc 2 148 18
 275 001e 7B68     		ldr	r3, [r7, #4]
 276 0020 DA60     		str	r2, [r3, #12]
 277              		.loc 2 149 26
 278 0022 3B68     		ldr	r3, [r7]
 279 0024 1A69     		ldr	r2, [r3, #16]
 280              		.loc 2 149 18
 281 0026 7B68     		ldr	r3, [r7, #4]
 282 0028 5A61     		str	r2, [r3, #20]
 283              		.loc 2 150 26
 284 002a 3B68     		ldr	r3, [r7]
 285 002c 5A69     		ldr	r2, [r3, #20]
ARM GAS  C:\Users\DEVELO~1\AppData\Local\Temp\cchtMrl3.s 			page 6


 286              		.loc 2 150 18
 287 002e 7B68     		ldr	r3, [r7, #4]
 288 0030 1A62     		str	r2, [r3, #32]
 289              		.loc 2 151 26
 290 0032 3B68     		ldr	r3, [r7]
 291 0034 9A69     		ldr	r2, [r3, #24]
 292              		.loc 2 151 18
 293 0036 7B68     		ldr	r3, [r7, #4]
 294 0038 5A62     		str	r2, [r3, #36]
 295              		.loc 2 152 26
 296 003a 3B68     		ldr	r3, [r7]
 297 003c 1A68     		ldr	r2, [r3]
 298              		.loc 2 152 18
 299 003e 7B68     		ldr	r3, [r7, #4]
 300 0040 1A60     		str	r2, [r3]
 301              		.loc 2 153 1
 302 0042 00BF     		nop
 303 0044 0C37     		adds	r7, r7, #12
 304              		.cfi_def_cfa_offset 4
 305 0046 BD46     		mov	sp, r7
 306              		.cfi_def_cfa_register 13
 307              		@ sp needed
 308 0048 80BC     		pop	{r7}
 309              		.cfi_restore 7
 310              		.cfi_def_cfa_offset 0
 311 004a 7047     		bx	lr
 312              		.cfi_endproc
 313              	.LFE432:
 314              		.size	gpio_init, .-gpio_init
 315              		.section	.text.stm32_gpio_init,"ax",%progbits
 316              		.align	1
 317              		.syntax unified
 318              		.thumb
 319              		.thumb_func
 320              		.type	stm32_gpio_init, %function
 321              	stm32_gpio_init:
 322              	.LFB433:
 323              		.loc 2 155 35
 324              		.cfi_startproc
 325              		@ args = 0, pretend = 0, frame = 0
 326              		@ frame_needed = 1, uses_anonymous_args = 0
 327 0000 80B5     		push	{r7, lr}
 328              		.cfi_def_cfa_offset 8
 329              		.cfi_offset 7, -8
 330              		.cfi_offset 14, -4
 331 0002 00AF     		add	r7, sp, #0
 332              		.cfi_def_cfa_register 7
 333              		.loc 2 159 3
 334 0004 40F2FF70 		movw	r0, #2047
 335 0008 FFF7FEFF 		bl	__rccResetAHB4
 336              		.loc 2 160 3
 337 000c 0121     		movs	r1, #1
 338 000e 40F2FF70 		movw	r0, #2047
 339 0012 FFF7FEFF 		bl	rccEnableAHB4
 340              		.loc 2 164 3
 341 0016 1749     		ldr	r1, .L11
 342 0018 1748     		ldr	r0, .L11+4
ARM GAS  C:\Users\DEVELO~1\AppData\Local\Temp\cchtMrl3.s 			page 7


 343 001a FFF7FEFF 		bl	gpio_init
 344              		.loc 2 167 3
 345 001e 1749     		ldr	r1, .L11+8
 346 0020 1748     		ldr	r0, .L11+12
 347 0022 FFF7FEFF 		bl	gpio_init
 348              		.loc 2 170 3
 349 0026 1749     		ldr	r1, .L11+16
 350 0028 1748     		ldr	r0, .L11+20
 351 002a FFF7FEFF 		bl	gpio_init
 352              		.loc 2 173 3
 353 002e 1749     		ldr	r1, .L11+24
 354 0030 1748     		ldr	r0, .L11+28
 355 0032 FFF7FEFF 		bl	gpio_init
 356              		.loc 2 176 3
 357 0036 1749     		ldr	r1, .L11+32
 358 0038 1748     		ldr	r0, .L11+36
 359 003a FFF7FEFF 		bl	gpio_init
 360              		.loc 2 179 3
 361 003e 1749     		ldr	r1, .L11+40
 362 0040 1748     		ldr	r0, .L11+44
 363 0042 FFF7FEFF 		bl	gpio_init
 364              		.loc 2 182 3
 365 0046 1749     		ldr	r1, .L11+48
 366 0048 1748     		ldr	r0, .L11+52
 367 004a FFF7FEFF 		bl	gpio_init
 368              		.loc 2 185 3
 369 004e 1749     		ldr	r1, .L11+56
 370 0050 1748     		ldr	r0, .L11+60
 371 0052 FFF7FEFF 		bl	gpio_init
 372              		.loc 2 188 3
 373 0056 1749     		ldr	r1, .L11+64
 374 0058 1748     		ldr	r0, .L11+68
 375 005a FFF7FEFF 		bl	gpio_init
 376              		.loc 2 191 3
 377 005e 1749     		ldr	r1, .L11+72
 378 0060 1748     		ldr	r0, .L11+76
 379 0062 FFF7FEFF 		bl	gpio_init
 380              		.loc 2 194 3
 381 0066 1749     		ldr	r1, .L11+80
 382 0068 1748     		ldr	r0, .L11+84
 383 006a FFF7FEFF 		bl	gpio_init
 384              		.loc 2 196 1
 385 006e 00BF     		nop
 386 0070 80BD     		pop	{r7, pc}
 387              	.L12:
 388 0072 00BF     		.align	2
 389              	.L11:
 390 0074 00000000 		.word	gpio_default_config
 391 0078 00000258 		.word	1476526080
 392 007c 1C000000 		.word	gpio_default_config+28
 393 0080 00040258 		.word	1476527104
 394 0084 38000000 		.word	gpio_default_config+56
 395 0088 00080258 		.word	1476528128
 396 008c 54000000 		.word	gpio_default_config+84
 397 0090 000C0258 		.word	1476529152
 398 0094 70000000 		.word	gpio_default_config+112
 399 0098 00100258 		.word	1476530176
ARM GAS  C:\Users\DEVELO~1\AppData\Local\Temp\cchtMrl3.s 			page 8


 400 009c 8C000000 		.word	gpio_default_config+140
 401 00a0 00140258 		.word	1476531200
 402 00a4 A8000000 		.word	gpio_default_config+168
 403 00a8 00180258 		.word	1476532224
 404 00ac C4000000 		.word	gpio_default_config+196
 405 00b0 001C0258 		.word	1476533248
 406 00b4 E0000000 		.word	gpio_default_config+224
 407 00b8 00200258 		.word	1476534272
 408 00bc FC000000 		.word	gpio_default_config+252
 409 00c0 00240258 		.word	1476535296
 410 00c4 18010000 		.word	gpio_default_config+280
 411 00c8 00280258 		.word	1476536320
 412              		.cfi_endproc
 413              	.LFE433:
 414              		.size	stm32_gpio_init, .-stm32_gpio_init
 415              		.section	.text.__early_init,"ax",%progbits
 416              		.align	1
 417              		.global	__early_init
 418              		.syntax unified
 419              		.thumb
 420              		.thumb_func
 421              		.type	__early_init, %function
 422              	__early_init:
 423              	.LFB434:
 424              		.loc 2 211 25
 425              		.cfi_startproc
 426              		@ args = 0, pretend = 0, frame = 0
 427              		@ frame_needed = 1, uses_anonymous_args = 0
 428 0000 80B5     		push	{r7, lr}
 429              		.cfi_def_cfa_offset 8
 430              		.cfi_offset 7, -8
 431              		.cfi_offset 14, -4
 432 0002 00AF     		add	r7, sp, #0
 433              		.cfi_def_cfa_register 7
 434              		.loc 2 213 3
 435 0004 FFF7FEFF 		bl	stm32_gpio_init
 436              		.loc 2 214 3
 437 0008 FFF7FEFF 		bl	stm32_clock_init
 438              		.loc 2 215 1
 439 000c 00BF     		nop
 440 000e 80BD     		pop	{r7, pc}
 441              		.cfi_endproc
 442              	.LFE434:
 443              		.size	__early_init, .-__early_init
 444              		.section	.text.boardInit,"ax",%progbits
 445              		.align	1
 446              		.global	boardInit
 447              		.syntax unified
 448              		.thumb
 449              		.thumb_func
 450              		.type	boardInit, %function
 451              	boardInit:
 452              	.LFB435:
 453              		.loc 2 265 22
 454              		.cfi_startproc
 455              		@ args = 0, pretend = 0, frame = 0
 456              		@ frame_needed = 1, uses_anonymous_args = 0
ARM GAS  C:\Users\DEVELO~1\AppData\Local\Temp\cchtMrl3.s 			page 9


 457              		@ link register save eliminated.
 458 0000 80B4     		push	{r7}
 459              		.cfi_def_cfa_offset 4
 460              		.cfi_offset 7, -4
 461 0002 00AF     		add	r7, sp, #0
 462              		.cfi_def_cfa_register 7
 463              		.loc 2 266 1
 464 0004 00BF     		nop
 465 0006 BD46     		mov	sp, r7
 466              		.cfi_def_cfa_register 13
 467              		@ sp needed
 468 0008 80BC     		pop	{r7}
 469              		.cfi_restore 7
 470              		.cfi_def_cfa_offset 0
 471 000a 7047     		bx	lr
 472              		.cfi_endproc
 473              	.LFE435:
 474              		.size	boardInit, .-boardInit
 475              		.text
 476              	.Letext0:
 477              		.file 3 "c:\\chibistudio\\tools\\gnu tools arm embedded\\11.3 2022.08\\arm-none-eabi\\include\\mac
 478              		.file 4 "c:\\chibistudio\\tools\\gnu tools arm embedded\\11.3 2022.08\\arm-none-eabi\\include\\sys
 479              		.file 5 "../../../os/common/ext/ST/STM32H7xx/stm32h743xx.h"
 480              		.file 6 "../../../os/hal/ports/STM32/LLD/GPIOv2/stm32_gpio.h"
 481              		.file 7 "../../../os/hal/ports/STM32/STM32H7xx/hal_lld.h"
 482              		.section	.debug_info,"",%progbits
 483              	.Ldebug_info0:
 484 0000 25070000 		.4byte	0x725
 485 0004 0500     		.2byte	0x5
 486 0006 01       		.byte	0x1
 487 0007 04       		.byte	0x4
 488 0008 00000000 		.4byte	.Ldebug_abbrev0
 489 000c 10       		.uleb128 0x10
 490 000d 2B030000 		.4byte	.LASF114
 491 0011 1D       		.byte	0x1d
 492 0012 3D020000 		.4byte	.LASF115
 493 0016 E2030000 		.4byte	.LASF116
 494 001a 0C000000 		.4byte	.LLRL0
 495 001e 00000000 		.4byte	0
 496 0022 00000000 		.4byte	.Ldebug_line0
 497 0026 11       		.uleb128 0x11
 498 0027 04       		.byte	0x4
 499 0028 05       		.byte	0x5
 500 0029 696E7400 		.ascii	"int\000"
 501 002d 03       		.uleb128 0x3
 502 002e 04       		.byte	0x4
 503 002f 07       		.byte	0x7
 504 0030 60010000 		.4byte	.LASF0
 505 0034 03       		.uleb128 0x3
 506 0035 08       		.byte	0x8
 507 0036 05       		.byte	0x5
 508 0037 79000000 		.4byte	.LASF1
 509 003b 03       		.uleb128 0x3
 510 003c 08       		.byte	0x8
 511 003d 04       		.byte	0x4
 512 003e B4040000 		.4byte	.LASF2
 513 0042 03       		.uleb128 0x3
ARM GAS  C:\Users\DEVELO~1\AppData\Local\Temp\cchtMrl3.s 			page 10


 514 0043 01       		.byte	0x1
 515 0044 06       		.byte	0x6
 516 0045 87000000 		.4byte	.LASF3
 517 0049 03       		.uleb128 0x3
 518 004a 01       		.byte	0x1
 519 004b 08       		.byte	0x8
 520 004c C5030000 		.4byte	.LASF4
 521 0050 03       		.uleb128 0x3
 522 0051 02       		.byte	0x2
 523 0052 05       		.byte	0x5
 524 0053 D8030000 		.4byte	.LASF5
 525 0057 05       		.uleb128 0x5
 526 0058 CC040000 		.4byte	.LASF8
 527 005c 03       		.byte	0x3
 528 005d 39       		.byte	0x39
 529 005e 19       		.byte	0x19
 530 005f 63000000 		.4byte	0x63
 531 0063 03       		.uleb128 0x3
 532 0064 02       		.byte	0x2
 533 0065 07       		.byte	0x7
 534 0066 BB010000 		.4byte	.LASF6
 535 006a 03       		.uleb128 0x3
 536 006b 04       		.byte	0x4
 537 006c 05       		.byte	0x5
 538 006d 28000000 		.4byte	.LASF7
 539 0071 05       		.uleb128 0x5
 540 0072 10010000 		.4byte	.LASF9
 541 0076 03       		.byte	0x3
 542 0077 4F       		.byte	0x4f
 543 0078 19       		.byte	0x19
 544 0079 7D000000 		.4byte	0x7d
 545 007d 03       		.uleb128 0x3
 546 007e 04       		.byte	0x4
 547 007f 07       		.byte	0x7
 548 0080 88010000 		.4byte	.LASF10
 549 0084 03       		.uleb128 0x3
 550 0085 08       		.byte	0x8
 551 0086 07       		.byte	0x7
 552 0087 3E000000 		.4byte	.LASF11
 553 008b 05       		.uleb128 0x5
 554 008c DC000000 		.4byte	.LASF12
 555 0090 04       		.byte	0x4
 556 0091 24       		.byte	0x24
 557 0092 14       		.byte	0x14
 558 0093 57000000 		.4byte	0x57
 559 0097 05       		.uleb128 0x5
 560 0098 A3040000 		.4byte	.LASF13
 561 009c 04       		.byte	0x4
 562 009d 30       		.byte	0x30
 563 009e 14       		.byte	0x14
 564 009f 71000000 		.4byte	0x71
 565 00a3 0A       		.uleb128 0xa
 566 00a4 97000000 		.4byte	0x97
 567 00a8 03       		.uleb128 0x3
 568 00a9 01       		.byte	0x1
 569 00aa 08       		.byte	0x8
 570 00ab C0040000 		.4byte	.LASF14
ARM GAS  C:\Users\DEVELO~1\AppData\Local\Temp\cchtMrl3.s 			page 11


 571 00af 0B       		.uleb128 0xb
 572 00b0 97000000 		.4byte	0x97
 573 00b4 BF000000 		.4byte	0xbf
 574 00b8 0C       		.uleb128 0xc
 575 00b9 2D000000 		.4byte	0x2d
 576 00bd 03       		.byte	0x3
 577 00be 00       		.byte	0
 578 00bf 0B       		.uleb128 0xb
 579 00c0 97000000 		.4byte	0x97
 580 00c4 CF000000 		.4byte	0xcf
 581 00c8 0C       		.uleb128 0xc
 582 00c9 2D000000 		.4byte	0x2d
 583 00cd 08       		.byte	0x8
 584 00ce 00       		.byte	0
 585 00cf 12       		.uleb128 0x12
 586 00d0 3001     		.2byte	0x130
 587 00d2 05       		.byte	0x5
 588 00d3 CE04     		.2byte	0x4ce
 589 00d5 09       		.byte	0x9
 590 00d6 30040000 		.4byte	0x430
 591 00da 06       		.uleb128 0x6
 592 00db 435200   		.ascii	"CR\000"
 593 00de D004     		.2byte	0x4d0
 594 00e0 10       		.byte	0x10
 595 00e1 A3000000 		.4byte	0xa3
 596 00e5 00       		.byte	0
 597 00e6 01       		.uleb128 0x1
 598 00e7 D8010000 		.4byte	.LASF15
 599 00eb D104     		.2byte	0x4d1
 600 00ed 10       		.byte	0x10
 601 00ee A3000000 		.4byte	0xa3
 602 00f2 04       		.byte	0x4
 603 00f3 01       		.uleb128 0x1
 604 00f4 F4000000 		.4byte	.LASF16
 605 00f8 D204     		.2byte	0x4d2
 606 00fa 10       		.byte	0x10
 607 00fb A3000000 		.4byte	0xa3
 608 00ff 08       		.byte	0x8
 609 0100 01       		.uleb128 0x1
 610 0101 02050000 		.4byte	.LASF17
 611 0105 D304     		.2byte	0x4d3
 612 0107 10       		.byte	0x10
 613 0108 A3000000 		.4byte	0xa3
 614 010c 0C       		.byte	0xc
 615 010d 01       		.uleb128 0x1
 616 010e 38050000 		.4byte	.LASF18
 617 0112 D404     		.2byte	0x4d4
 618 0114 10       		.byte	0x10
 619 0115 A3000000 		.4byte	0xa3
 620 0119 10       		.byte	0x10
 621 011a 01       		.uleb128 0x1
 622 011b DB020000 		.4byte	.LASF19
 623 011f D504     		.2byte	0x4d5
 624 0121 0F       		.byte	0xf
 625 0122 97000000 		.4byte	0x97
 626 0126 14       		.byte	0x14
 627 0127 01       		.uleb128 0x1
ARM GAS  C:\Users\DEVELO~1\AppData\Local\Temp\cchtMrl3.s 			page 12


 628 0128 5B050000 		.4byte	.LASF20
 629 012c D604     		.2byte	0x4d6
 630 012e 10       		.byte	0x10
 631 012f A3000000 		.4byte	0xa3
 632 0133 18       		.byte	0x18
 633 0134 01       		.uleb128 0x1
 634 0135 F9020000 		.4byte	.LASF21
 635 0139 D704     		.2byte	0x4d7
 636 013b 10       		.byte	0x10
 637 013c A3000000 		.4byte	0xa3
 638 0140 1C       		.byte	0x1c
 639 0141 01       		.uleb128 0x1
 640 0142 E5000000 		.4byte	.LASF22
 641 0146 D804     		.2byte	0x4d8
 642 0148 10       		.byte	0x10
 643 0149 A3000000 		.4byte	0xa3
 644 014d 20       		.byte	0x20
 645 014e 01       		.uleb128 0x1
 646 014f E5020000 		.4byte	.LASF23
 647 0153 D904     		.2byte	0x4d9
 648 0155 0F       		.byte	0xf
 649 0156 97000000 		.4byte	0x97
 650 015a 24       		.byte	0x24
 651 015b 01       		.uleb128 0x1
 652 015c CE010000 		.4byte	.LASF24
 653 0160 DA04     		.2byte	0x4da
 654 0162 10       		.byte	0x10
 655 0163 A3000000 		.4byte	0xa3
 656 0167 28       		.byte	0x28
 657 0168 01       		.uleb128 0x1
 658 0169 EC000000 		.4byte	.LASF25
 659 016d DB04     		.2byte	0x4db
 660 016f 10       		.byte	0x10
 661 0170 A3000000 		.4byte	0xa3
 662 0174 2C       		.byte	0x2c
 663 0175 01       		.uleb128 0x1
 664 0176 06000000 		.4byte	.LASF26
 665 017a DC04     		.2byte	0x4dc
 666 017c 10       		.byte	0x10
 667 017d A3000000 		.4byte	0xa3
 668 0181 30       		.byte	0x30
 669 0182 01       		.uleb128 0x1
 670 0183 C2000000 		.4byte	.LASF27
 671 0187 DD04     		.2byte	0x4dd
 672 0189 10       		.byte	0x10
 673 018a A3000000 		.4byte	0xa3
 674 018e 34       		.byte	0x34
 675 018f 01       		.uleb128 0x1
 676 0190 BC030000 		.4byte	.LASF28
 677 0194 DE04     		.2byte	0x4de
 678 0196 10       		.byte	0x10
 679 0197 A3000000 		.4byte	0xa3
 680 019b 38       		.byte	0x38
 681 019c 01       		.uleb128 0x1
 682 019d 56010000 		.4byte	.LASF29
 683 01a1 DF04     		.2byte	0x4df
 684 01a3 10       		.byte	0x10
ARM GAS  C:\Users\DEVELO~1\AppData\Local\Temp\cchtMrl3.s 			page 13


 685 01a4 A3000000 		.4byte	0xa3
 686 01a8 3C       		.byte	0x3c
 687 01a9 01       		.uleb128 0x1
 688 01aa FF000000 		.4byte	.LASF30
 689 01ae E004     		.2byte	0x4e0
 690 01b0 10       		.byte	0x10
 691 01b1 A3000000 		.4byte	0xa3
 692 01b5 40       		.byte	0x40
 693 01b6 01       		.uleb128 0x1
 694 01b7 23020000 		.4byte	.LASF31
 695 01bb E104     		.2byte	0x4e1
 696 01bd 10       		.byte	0x10
 697 01be A3000000 		.4byte	0xa3
 698 01c2 44       		.byte	0x44
 699 01c3 01       		.uleb128 0x1
 700 01c4 EF020000 		.4byte	.LASF32
 701 01c8 E204     		.2byte	0x4e2
 702 01ca 10       		.byte	0x10
 703 01cb 97000000 		.4byte	0x97
 704 01cf 48       		.byte	0x48
 705 01d0 01       		.uleb128 0x1
 706 01d1 AC040000 		.4byte	.LASF33
 707 01d5 E304     		.2byte	0x4e3
 708 01d7 11       		.byte	0x11
 709 01d8 A3000000 		.4byte	0xa3
 710 01dc 4C       		.byte	0x4c
 711 01dd 01       		.uleb128 0x1
 712 01de 20010000 		.4byte	.LASF34
 713 01e2 E404     		.2byte	0x4e4
 714 01e4 11       		.byte	0x11
 715 01e5 A3000000 		.4byte	0xa3
 716 01e9 50       		.byte	0x50
 717 01ea 01       		.uleb128 0x1
 718 01eb 00020000 		.4byte	.LASF35
 719 01ef E504     		.2byte	0x4e5
 720 01f1 11       		.byte	0x11
 721 01f2 A3000000 		.4byte	0xa3
 722 01f6 54       		.byte	0x54
 723 01f7 01       		.uleb128 0x1
 724 01f8 29010000 		.4byte	.LASF36
 725 01fc E604     		.2byte	0x4e6
 726 01fe 11       		.byte	0x11
 727 01ff A3000000 		.4byte	0xa3
 728 0203 58       		.byte	0x58
 729 0204 01       		.uleb128 0x1
 730 0205 93040000 		.4byte	.LASF37
 731 0209 E704     		.2byte	0x4e7
 732 020b 10       		.byte	0x10
 733 020c 97000000 		.4byte	0x97
 734 0210 5C       		.byte	0x5c
 735 0211 01       		.uleb128 0x1
 736 0212 6B000000 		.4byte	.LASF38
 737 0216 E804     		.2byte	0x4e8
 738 0218 11       		.byte	0x11
 739 0219 A3000000 		.4byte	0xa3
 740 021d 60       		.byte	0x60
 741 021e 01       		.uleb128 0x1
ARM GAS  C:\Users\DEVELO~1\AppData\Local\Temp\cchtMrl3.s 			page 14


 742 021f FA000000 		.4byte	.LASF39
 743 0223 E904     		.2byte	0x4e9
 744 0225 11       		.byte	0x11
 745 0226 A3000000 		.4byte	0xa3
 746 022a 64       		.byte	0x64
 747 022b 01       		.uleb128 0x1
 748 022c 15050000 		.4byte	.LASF40
 749 0230 EA04     		.2byte	0x4ea
 750 0232 11       		.byte	0x11
 751 0233 A3000000 		.4byte	0xa3
 752 0237 68       		.byte	0x68
 753 0238 01       		.uleb128 0x1
 754 0239 00030000 		.4byte	.LASF41
 755 023d EB04     		.2byte	0x4eb
 756 023f 0F       		.byte	0xf
 757 0240 97000000 		.4byte	0x97
 758 0244 6C       		.byte	0x6c
 759 0245 01       		.uleb128 0x1
 760 0246 1A050000 		.4byte	.LASF42
 761 024a EC04     		.2byte	0x4ec
 762 024c 11       		.byte	0x11
 763 024d A3000000 		.4byte	0xa3
 764 0251 70       		.byte	0x70
 765 0252 06       		.uleb128 0x6
 766 0253 43535200 		.ascii	"CSR\000"
 767 0257 ED04     		.2byte	0x4ed
 768 0259 11       		.byte	0x11
 769 025a A3000000 		.4byte	0xa3
 770 025e 74       		.byte	0x74
 771 025f 01       		.uleb128 0x1
 772 0260 0A030000 		.4byte	.LASF43
 773 0264 EE04     		.2byte	0x4ee
 774 0266 0F       		.byte	0xf
 775 0267 97000000 		.4byte	0x97
 776 026b 78       		.byte	0x78
 777 026c 01       		.uleb128 0x1
 778 026d EE010000 		.4byte	.LASF44
 779 0271 EF04     		.2byte	0x4ef
 780 0273 10       		.byte	0x10
 781 0274 A3000000 		.4byte	0xa3
 782 0278 7C       		.byte	0x7c
 783 0279 01       		.uleb128 0x1
 784 027a 98000000 		.4byte	.LASF45
 785 027e F004     		.2byte	0x4f0
 786 0280 10       		.byte	0x10
 787 0281 A3000000 		.4byte	0xa3
 788 0285 80       		.byte	0x80
 789 0286 01       		.uleb128 0x1
 790 0287 D7040000 		.4byte	.LASF46
 791 028b F104     		.2byte	0x4f1
 792 028d 10       		.byte	0x10
 793 028e A3000000 		.4byte	0xa3
 794 0292 84       		.byte	0x84
 795 0293 01       		.uleb128 0x1
 796 0294 70000000 		.4byte	.LASF47
 797 0298 F204     		.2byte	0x4f2
 798 029a 10       		.byte	0x10
ARM GAS  C:\Users\DEVELO~1\AppData\Local\Temp\cchtMrl3.s 			page 15


 799 029b A3000000 		.4byte	0xa3
 800 029f 88       		.byte	0x88
 801 02a0 01       		.uleb128 0x1
 802 02a1 F9040000 		.4byte	.LASF48
 803 02a5 F304     		.2byte	0x4f3
 804 02a7 10       		.byte	0x10
 805 02a8 A3000000 		.4byte	0xa3
 806 02ac 8C       		.byte	0x8c
 807 02ad 01       		.uleb128 0x1
 808 02ae 0F020000 		.4byte	.LASF49
 809 02b2 F404     		.2byte	0x4f4
 810 02b4 10       		.byte	0x10
 811 02b5 A3000000 		.4byte	0xa3
 812 02b9 90       		.byte	0x90
 813 02ba 01       		.uleb128 0x1
 814 02bb 88020000 		.4byte	.LASF50
 815 02bf F504     		.2byte	0x4f5
 816 02c1 10       		.byte	0x10
 817 02c2 A3000000 		.4byte	0xa3
 818 02c6 94       		.byte	0x94
 819 02c7 01       		.uleb128 0x1
 820 02c8 D3000000 		.4byte	.LASF51
 821 02cc F604     		.2byte	0x4f6
 822 02ce 10       		.byte	0x10
 823 02cf A3000000 		.4byte	0xa3
 824 02d3 98       		.byte	0x98
 825 02d4 01       		.uleb128 0x1
 826 02d5 34020000 		.4byte	.LASF52
 827 02d9 F704     		.2byte	0x4f7
 828 02db 10       		.byte	0x10
 829 02dc A3000000 		.4byte	0xa3
 830 02e0 9C       		.byte	0x9c
 831 02e1 06       		.uleb128 0x6
 832 02e2 47435200 		.ascii	"GCR\000"
 833 02e6 F804     		.2byte	0x4f8
 834 02e8 10       		.byte	0x10
 835 02e9 A3000000 		.4byte	0xa3
 836 02ed A0       		.byte	0xa0
 837 02ee 01       		.uleb128 0x1
 838 02ef 14030000 		.4byte	.LASF53
 839 02f3 F904     		.2byte	0x4f9
 840 02f5 0F       		.byte	0xf
 841 02f6 97000000 		.4byte	0x97
 842 02fa A4       		.byte	0xa4
 843 02fb 01       		.uleb128 0x1
 844 02fc 5B000000 		.4byte	.LASF54
 845 0300 FA04     		.2byte	0x4fa
 846 0302 10       		.byte	0x10
 847 0303 A3000000 		.4byte	0xa3
 848 0307 A8       		.byte	0xa8
 849 0308 01       		.uleb128 0x1
 850 0309 A1000000 		.4byte	.LASF55
 851 030d FB04     		.2byte	0x4fb
 852 030f 0F       		.byte	0xf
 853 0310 BF000000 		.4byte	0xbf
 854 0314 AC       		.byte	0xac
 855 0315 06       		.uleb128 0x6
ARM GAS  C:\Users\DEVELO~1\AppData\Local\Temp\cchtMrl3.s 			page 16


 856 0316 52535200 		.ascii	"RSR\000"
 857 031a FC04     		.2byte	0x4fc
 858 031c 10       		.byte	0x10
 859 031d A3000000 		.4byte	0xa3
 860 0321 D0       		.byte	0xd0
 861 0322 01       		.uleb128 0x1
 862 0323 8B040000 		.4byte	.LASF56
 863 0327 FD04     		.2byte	0x4fd
 864 0329 10       		.byte	0x10
 865 032a A3000000 		.4byte	0xa3
 866 032e D4       		.byte	0xd4
 867 032f 01       		.uleb128 0x1
 868 0330 29050000 		.4byte	.LASF57
 869 0334 FE04     		.2byte	0x4fe
 870 0336 10       		.byte	0x10
 871 0337 A3000000 		.4byte	0xa3
 872 033b D8       		.byte	0xd8
 873 033c 01       		.uleb128 0x1
 874 033d EA040000 		.4byte	.LASF58
 875 0341 FF04     		.2byte	0x4ff
 876 0343 10       		.byte	0x10
 877 0344 A3000000 		.4byte	0xa3
 878 0348 DC       		.byte	0xdc
 879 0349 01       		.uleb128 0x1
 880 034a D3020000 		.4byte	.LASF59
 881 034e 0005     		.2byte	0x500
 882 0350 10       		.byte	0x10
 883 0351 A3000000 		.4byte	0xa3
 884 0355 E0       		.byte	0xe0
 885 0356 01       		.uleb128 0x1
 886 0357 C6020000 		.4byte	.LASF60
 887 035b 0105     		.2byte	0x501
 888 035d 10       		.byte	0x10
 889 035e A3000000 		.4byte	0xa3
 890 0362 E4       		.byte	0xe4
 891 0363 01       		.uleb128 0x1
 892 0364 44050000 		.4byte	.LASF61
 893 0368 0205     		.2byte	0x502
 894 036a 10       		.byte	0x10
 895 036b A3000000 		.4byte	0xa3
 896 036f E8       		.byte	0xe8
 897 0370 01       		.uleb128 0x1
 898 0371 F7010000 		.4byte	.LASF62
 899 0375 0305     		.2byte	0x503
 900 0377 10       		.byte	0x10
 901 0378 A3000000 		.4byte	0xa3
 902 037c EC       		.byte	0xec
 903 037d 01       		.uleb128 0x1
 904 037e 7C040000 		.4byte	.LASF63
 905 0382 0405     		.2byte	0x504
 906 0384 10       		.byte	0x10
 907 0385 A3000000 		.4byte	0xa3
 908 0389 F0       		.byte	0xf0
 909 038a 01       		.uleb128 0x1
 910 038b 7A020000 		.4byte	.LASF64
 911 038f 0505     		.2byte	0x505
 912 0391 10       		.byte	0x10
ARM GAS  C:\Users\DEVELO~1\AppData\Local\Temp\cchtMrl3.s 			page 17


 913 0392 A3000000 		.4byte	0xa3
 914 0396 F4       		.byte	0xf4
 915 0397 01       		.uleb128 0x1
 916 0398 AC000000 		.4byte	.LASF65
 917 039c 0605     		.2byte	0x506
 918 039e 10       		.byte	0x10
 919 039f 97000000 		.4byte	0x97
 920 03a3 F8       		.byte	0xf8
 921 03a4 01       		.uleb128 0x1
 922 03a5 4B040000 		.4byte	.LASF66
 923 03a9 0705     		.2byte	0x507
 924 03ab 10       		.byte	0x10
 925 03ac A3000000 		.4byte	0xa3
 926 03b0 FC       		.byte	0xfc
 927 03b1 04       		.uleb128 0x4
 928 03b2 61000000 		.4byte	.LASF67
 929 03b6 0805     		.2byte	0x508
 930 03b8 10       		.byte	0x10
 931 03b9 A3000000 		.4byte	0xa3
 932 03bd 0001     		.2byte	0x100
 933 03bf 04       		.uleb128 0x4
 934 03c0 A1020000 		.4byte	.LASF68
 935 03c4 0905     		.2byte	0x509
 936 03c6 10       		.byte	0x10
 937 03c7 A3000000 		.4byte	0xa3
 938 03cb 0401     		.2byte	0x104
 939 03cd 04       		.uleb128 0x4
 940 03ce E0040000 		.4byte	.LASF69
 941 03d2 0A05     		.2byte	0x50a
 942 03d4 10       		.byte	0x10
 943 03d5 A3000000 		.4byte	0xa3
 944 03d9 0801     		.2byte	0x108
 945 03db 04       		.uleb128 0x4
 946 03dc AB020000 		.4byte	.LASF70
 947 03e0 0B05     		.2byte	0x50b
 948 03e2 10       		.byte	0x10
 949 03e3 A3000000 		.4byte	0xa3
 950 03e7 0C01     		.2byte	0x10c
 951 03e9 04       		.uleb128 0x4
 952 03ea 0A050000 		.4byte	.LASF71
 953 03ee 0C05     		.2byte	0x50c
 954 03f0 10       		.byte	0x10
 955 03f1 A3000000 		.4byte	0xa3
 956 03f5 1001     		.2byte	0x110
 957 03f7 04       		.uleb128 0x4
 958 03f8 1D000000 		.4byte	.LASF72
 959 03fc 0D05     		.2byte	0x50d
 960 03fe 10       		.byte	0x10
 961 03ff A3000000 		.4byte	0xa3
 962 0403 1401     		.2byte	0x114
 963 0405 04       		.uleb128 0x4
 964 0406 19020000 		.4byte	.LASF73
 965 040a 0E05     		.2byte	0x50e
 966 040c 10       		.byte	0x10
 967 040d A3000000 		.4byte	0xa3
 968 0411 1801     		.2byte	0x118
 969 0413 04       		.uleb128 0x4
ARM GAS  C:\Users\DEVELO~1\AppData\Local\Temp\cchtMrl3.s 			page 18


 970 0414 55040000 		.4byte	.LASF74
 971 0418 0F05     		.2byte	0x50f
 972 041a 10       		.byte	0x10
 973 041b A3000000 		.4byte	0xa3
 974 041f 1C01     		.2byte	0x11c
 975 0421 04       		.uleb128 0x4
 976 0422 B7000000 		.4byte	.LASF75
 977 0426 1005     		.2byte	0x510
 978 0428 0F       		.byte	0xf
 979 0429 AF000000 		.4byte	0xaf
 980 042d 2001     		.2byte	0x120
 981 042f 00       		.byte	0
 982 0430 13       		.uleb128 0x13
 983 0431 9A010000 		.4byte	.LASF76
 984 0435 05       		.byte	0x5
 985 0436 1205     		.2byte	0x512
 986 0438 03       		.byte	0x3
 987 0439 CF000000 		.4byte	0xcf
 988 043d 03       		.uleb128 0x3
 989 043e 01       		.byte	0x1
 990 043f 02       		.byte	0x2
 991 0440 B6030000 		.4byte	.LASF77
 992 0444 08       		.uleb128 0x8
 993 0445 04       		.byte	0x4
 994 0446 06       		.byte	0x6
 995 0447 5B       		.byte	0x5b
 996 0448 05       		.byte	0x5
 997 0449 67040000 		.4byte	0x467
 998 044d 07       		.uleb128 0x7
 999 044e 73657400 		.ascii	"set\000"
 1000 0452 06       		.byte	0x6
 1001 0453 5C       		.byte	0x5c
 1002 0454 8B000000 		.4byte	0x8b
 1003 0458 00       		.byte	0
 1004 0459 02       		.uleb128 0x2
 1005 045a 82020000 		.4byte	.LASF78
 1006 045e 06       		.byte	0x6
 1007 045f 5D       		.byte	0x5d
 1008 0460 19       		.byte	0x19
 1009 0461 8B000000 		.4byte	0x8b
 1010 0465 02       		.byte	0x2
 1011 0466 00       		.byte	0
 1012 0467 14       		.uleb128 0x14
 1013 0468 04       		.byte	0x4
 1014 0469 06       		.byte	0x6
 1015 046a 59       		.byte	0x59
 1016 046b 0C       		.byte	0xc
 1017 046c 83040000 		.4byte	0x483
 1018 0470 0D       		.uleb128 0xd
 1019 0471 5700     		.ascii	"W\000"
 1020 0473 5A       		.byte	0x5a
 1021 0474 19       		.byte	0x19
 1022 0475 97000000 		.4byte	0x97
 1023 0479 0D       		.uleb128 0xd
 1024 047a 4800     		.ascii	"H\000"
 1025 047c 5E       		.byte	0x5e
 1026 047d 07       		.byte	0x7
ARM GAS  C:\Users\DEVELO~1\AppData\Local\Temp\cchtMrl3.s 			page 19


 1027 047e 44040000 		.4byte	0x444
 1028 0482 00       		.byte	0
 1029 0483 0A       		.uleb128 0xa
 1030 0484 67040000 		.4byte	0x467
 1031 0488 08       		.uleb128 0x8
 1032 0489 28       		.byte	0x28
 1033 048a 06       		.byte	0x6
 1034 048b 51       		.byte	0x51
 1035 048c 09       		.byte	0x9
 1036 048d 12050000 		.4byte	0x512
 1037 0491 02       		.uleb128 0x2
 1038 0492 38000000 		.4byte	.LASF79
 1039 0496 06       		.byte	0x6
 1040 0497 53       		.byte	0x53
 1041 0498 19       		.byte	0x19
 1042 0499 A3000000 		.4byte	0xa3
 1043 049d 00       		.byte	0
 1044 049e 02       		.uleb128 0x2
 1045 049f 0F000000 		.4byte	.LASF80
 1046 04a3 06       		.byte	0x6
 1047 04a4 54       		.byte	0x54
 1048 04a5 19       		.byte	0x19
 1049 04a6 A3000000 		.4byte	0xa3
 1050 04aa 04       		.byte	0x4
 1051 04ab 02       		.uleb128 0x2
 1052 04ac 08010000 		.4byte	.LASF81
 1053 04b0 06       		.byte	0x6
 1054 04b1 55       		.byte	0x55
 1055 04b2 19       		.byte	0x19
 1056 04b3 A3000000 		.4byte	0xa3
 1057 04b7 08       		.byte	0x8
 1058 04b8 02       		.uleb128 0x2
 1059 04b9 00000000 		.4byte	.LASF82
 1060 04bd 06       		.byte	0x6
 1061 04be 56       		.byte	0x56
 1062 04bf 19       		.byte	0x19
 1063 04c0 A3000000 		.4byte	0xa3
 1064 04c4 0C       		.byte	0xc
 1065 04c5 07       		.uleb128 0x7
 1066 04c6 49445200 		.ascii	"IDR\000"
 1067 04ca 06       		.byte	0x6
 1068 04cb 57       		.byte	0x57
 1069 04cc A3000000 		.4byte	0xa3
 1070 04d0 10       		.byte	0x10
 1071 04d1 07       		.uleb128 0x7
 1072 04d2 4F445200 		.ascii	"ODR\000"
 1073 04d6 06       		.byte	0x6
 1074 04d7 58       		.byte	0x58
 1075 04d8 A3000000 		.4byte	0xa3
 1076 04dc 14       		.byte	0x14
 1077 04dd 02       		.uleb128 0x2
 1078 04de 93000000 		.4byte	.LASF83
 1079 04e2 06       		.byte	0x6
 1080 04e3 5F       		.byte	0x5f
 1081 04e4 05       		.byte	0x5
 1082 04e5 83040000 		.4byte	0x483
 1083 04e9 18       		.byte	0x18
ARM GAS  C:\Users\DEVELO~1\AppData\Local\Temp\cchtMrl3.s 			page 20


 1084 04ea 02       		.uleb128 0x2
 1085 04eb 09020000 		.4byte	.LASF84
 1086 04ef 06       		.byte	0x6
 1087 04f0 60       		.byte	0x60
 1088 04f1 19       		.byte	0x19
 1089 04f2 A3000000 		.4byte	0xa3
 1090 04f6 1C       		.byte	0x1c
 1091 04f7 02       		.uleb128 0x2
 1092 04f8 CE020000 		.4byte	.LASF85
 1093 04fc 06       		.byte	0x6
 1094 04fd 61       		.byte	0x61
 1095 04fe 19       		.byte	0x19
 1096 04ff A3000000 		.4byte	0xa3
 1097 0503 20       		.byte	0x20
 1098 0504 02       		.uleb128 0x2
 1099 0505 C1020000 		.4byte	.LASF86
 1100 0509 06       		.byte	0x6
 1101 050a 62       		.byte	0x62
 1102 050b 19       		.byte	0x19
 1103 050c A3000000 		.4byte	0xa3
 1104 0510 24       		.byte	0x24
 1105 0511 00       		.byte	0
 1106 0512 05       		.uleb128 0x5
 1107 0513 31010000 		.4byte	.LASF87
 1108 0517 06       		.byte	0x6
 1109 0518 63       		.byte	0x63
 1110 0519 03       		.byte	0x3
 1111 051a 88040000 		.4byte	0x488
 1112 051e 0E       		.uleb128 0xe
 1113 051f 12050000 		.4byte	0x512
 1114 0523 08       		.uleb128 0x8
 1115 0524 1C       		.byte	0x1c
 1116 0525 02       		.byte	0x2
 1117 0526 29       		.byte	0x29
 1118 0527 09       		.byte	0x9
 1119 0528 87050000 		.4byte	0x587
 1120 052c 02       		.uleb128 0x2
 1121 052d 9D040000 		.4byte	.LASF88
 1122 0531 02       		.byte	0x2
 1123 0532 2A       		.byte	0x2a
 1124 0533 19       		.byte	0x19
 1125 0534 97000000 		.4byte	0x97
 1126 0538 00       		.byte	0
 1127 0539 02       		.uleb128 0x2
 1128 053a 16000000 		.4byte	.LASF89
 1129 053e 02       		.byte	0x2
 1130 053f 2B       		.byte	0x2b
 1131 0540 19       		.byte	0x19
 1132 0541 97000000 		.4byte	0x97
 1133 0545 04       		.byte	0x4
 1134 0546 02       		.uleb128 0x2
 1135 0547 A6010000 		.4byte	.LASF90
 1136 054b 02       		.byte	0x2
 1137 054c 2C       		.byte	0x2c
 1138 054d 19       		.byte	0x19
 1139 054e 97000000 		.4byte	0x97
 1140 0552 08       		.byte	0x8
ARM GAS  C:\Users\DEVELO~1\AppData\Local\Temp\cchtMrl3.s 			page 21


 1141 0553 02       		.uleb128 0x2
 1142 0554 55000000 		.4byte	.LASF91
 1143 0558 02       		.byte	0x2
 1144 0559 2D       		.byte	0x2d
 1145 055a 19       		.byte	0x19
 1146 055b 97000000 		.4byte	0x97
 1147 055f 0C       		.byte	0xc
 1148 0560 07       		.uleb128 0x7
 1149 0561 6F647200 		.ascii	"odr\000"
 1150 0565 02       		.byte	0x2
 1151 0566 2E       		.byte	0x2e
 1152 0567 97000000 		.4byte	0x97
 1153 056b 10       		.byte	0x10
 1154 056c 02       		.uleb128 0x2
 1155 056d D3030000 		.4byte	.LASF92
 1156 0571 02       		.byte	0x2
 1157 0572 2F       		.byte	0x2f
 1158 0573 19       		.byte	0x19
 1159 0574 97000000 		.4byte	0x97
 1160 0578 14       		.byte	0x14
 1161 0579 02       		.uleb128 0x2
 1162 057a B5020000 		.4byte	.LASF93
 1163 057e 02       		.byte	0x2
 1164 057f 30       		.byte	0x30
 1165 0580 19       		.byte	0x19
 1166 0581 97000000 		.4byte	0x97
 1167 0585 18       		.byte	0x18
 1168 0586 00       		.byte	0
 1169 0587 05       		.uleb128 0x5
 1170 0588 1E030000 		.4byte	.LASF94
 1171 058c 02       		.byte	0x2
 1172 058d 31       		.byte	0x31
 1173 058e 03       		.byte	0x3
 1174 058f 23050000 		.4byte	0x523
 1175 0593 0F       		.uleb128 0xf
 1176 0594 87050000 		.4byte	0x587
 1177 0598 15       		.uleb128 0x15
 1178 0599 3401     		.2byte	0x134
 1179 059b 02       		.byte	0x2
 1180 059c 36       		.byte	0x36
 1181 059d 09       		.byte	0x9
 1182 059e 33060000 		.4byte	0x633
 1183 05a2 02       		.uleb128 0x2
 1184 05a3 5F040000 		.4byte	.LASF95
 1185 05a7 02       		.byte	0x2
 1186 05a8 38       		.byte	0x38
 1187 05a9 19       		.byte	0x19
 1188 05aa 87050000 		.4byte	0x587
 1189 05ae 00       		.byte	0
 1190 05af 02       		.uleb128 0x2
 1191 05b0 4F010000 		.4byte	.LASF96
 1192 05b4 02       		.byte	0x2
 1193 05b5 3B       		.byte	0x3b
 1194 05b6 19       		.byte	0x19
 1195 05b7 87050000 		.4byte	0x587
 1196 05bb 1C       		.byte	0x1c
 1197 05bc 02       		.uleb128 0x2
ARM GAS  C:\Users\DEVELO~1\AppData\Local\Temp\cchtMrl3.s 			page 22


 1198 05bd 31050000 		.4byte	.LASF97
 1199 05c1 02       		.byte	0x2
 1200 05c2 3E       		.byte	0x3e
 1201 05c3 19       		.byte	0x19
 1202 05c4 87050000 		.4byte	0x587
 1203 05c8 38       		.byte	0x38
 1204 05c9 02       		.uleb128 0x2
 1205 05ca BA020000 		.4byte	.LASF98
 1206 05ce 02       		.byte	0x2
 1207 05cf 41       		.byte	0x41
 1208 05d0 19       		.byte	0x19
 1209 05d1 87050000 		.4byte	0x587
 1210 05d5 54       		.byte	0x54
 1211 05d6 02       		.uleb128 0x2
 1212 05d7 CC000000 		.4byte	.LASF99
 1213 05db 02       		.byte	0x2
 1214 05dc 44       		.byte	0x44
 1215 05dd 19       		.byte	0x19
 1216 05de 87050000 		.4byte	0x587
 1217 05e2 70       		.byte	0x70
 1218 05e3 02       		.uleb128 0x2
 1219 05e4 F2040000 		.4byte	.LASF100
 1220 05e8 02       		.byte	0x2
 1221 05e9 47       		.byte	0x47
 1222 05ea 19       		.byte	0x19
 1223 05eb 87050000 		.4byte	0x587
 1224 05ef 8C       		.byte	0x8c
 1225 05f0 02       		.uleb128 0x2
 1226 05f1 2D020000 		.4byte	.LASF101
 1227 05f5 02       		.byte	0x2
 1228 05f6 4A       		.byte	0x4a
 1229 05f7 19       		.byte	0x19
 1230 05f8 87050000 		.4byte	0x587
 1231 05fc A8       		.byte	0xa8
 1232 05fd 02       		.uleb128 0x2
 1233 05fe 31000000 		.4byte	.LASF102
 1234 0602 02       		.byte	0x2
 1235 0603 4D       		.byte	0x4d
 1236 0604 19       		.byte	0x19
 1237 0605 87050000 		.4byte	0x587
 1238 0609 C4       		.byte	0xc4
 1239 060a 02       		.uleb128 0x2
 1240 060b 84040000 		.4byte	.LASF103
 1241 060f 02       		.byte	0x2
 1242 0610 50       		.byte	0x50
 1243 0611 19       		.byte	0x19
 1244 0612 87050000 		.4byte	0x587
 1245 0616 E0       		.byte	0xe0
 1246 0617 02       		.uleb128 0x2
 1247 0618 6D010000 		.4byte	.LASF104
 1248 061c 02       		.byte	0x2
 1249 061d 53       		.byte	0x53
 1250 061e 19       		.byte	0x19
 1251 061f 87050000 		.4byte	0x587
 1252 0623 FC       		.byte	0xfc
 1253 0624 16       		.uleb128 0x16
 1254 0625 3D050000 		.4byte	.LASF105
ARM GAS  C:\Users\DEVELO~1\AppData\Local\Temp\cchtMrl3.s 			page 23


 1255 0629 02       		.byte	0x2
 1256 062a 56       		.byte	0x56
 1257 062b 19       		.byte	0x19
 1258 062c 87050000 		.4byte	0x587
 1259 0630 1801     		.2byte	0x118
 1260 0632 00       		.byte	0
 1261 0633 05       		.uleb128 0x5
 1262 0634 E0010000 		.4byte	.LASF106
 1263 0638 02       		.byte	0x2
 1264 0639 58       		.byte	0x58
 1265 063a 03       		.byte	0x3
 1266 063b 98050000 		.4byte	0x598
 1267 063f 0F       		.uleb128 0xf
 1268 0640 33060000 		.4byte	0x633
 1269 0644 17       		.uleb128 0x17
 1270 0645 74010000 		.4byte	.LASF117
 1271 0649 02       		.byte	0x2
 1272 064a 5D       		.byte	0x5d
 1273 064b 1C       		.byte	0x1c
 1274 064c 3F060000 		.4byte	0x63f
 1275 0650 05       		.uleb128 0x5
 1276 0651 03       		.byte	0x3
 1277 0652 00000000 		.4byte	gpio_default_config
 1278 0656 18       		.uleb128 0x18
 1279 0657 3E010000 		.4byte	.LASF118
 1280 065b 07       		.byte	0x7
 1281 065c BD       		.byte	0xbd
 1282 065d 08       		.byte	0x8
 1283 065e 19       		.uleb128 0x19
 1284 065f 41040000 		.4byte	.LASF107
 1285 0663 02       		.byte	0x2
 1286 0664 0901     		.2byte	0x109
 1287 0666 06       		.byte	0x6
 1288 0667 00000000 		.4byte	.LFB435
 1289 066b 0C000000 		.4byte	.LFE435-.LFB435
 1290 066f 01       		.uleb128 0x1
 1291 0670 9C       		.byte	0x9c
 1292 0671 1A       		.uleb128 0x1a
 1293 0672 AE010000 		.4byte	.LASF108
 1294 0676 02       		.byte	0x2
 1295 0677 D3       		.byte	0xd3
 1296 0678 06       		.byte	0x6
 1297 0679 00000000 		.4byte	.LFB434
 1298 067d 10000000 		.4byte	.LFE434-.LFB434
 1299 0681 01       		.uleb128 0x1
 1300 0682 9C       		.byte	0x9c
 1301 0683 1B       		.uleb128 0x1b
 1302 0684 66040000 		.4byte	.LASF119
 1303 0688 02       		.byte	0x2
 1304 0689 9B       		.byte	0x9b
 1305 068a 0D       		.byte	0xd
 1306 068b 00000000 		.4byte	.LFB433
 1307 068f CC000000 		.4byte	.LFE433-.LFB433
 1308 0693 01       		.uleb128 0x1
 1309 0694 9C       		.byte	0x9c
 1310 0695 1C       		.uleb128 0x1c
 1311 0696 1F050000 		.4byte	.LASF111
ARM GAS  C:\Users\DEVELO~1\AppData\Local\Temp\cchtMrl3.s 			page 24


 1312 069a 02       		.byte	0x2
 1313 069b 90       		.byte	0x90
 1314 069c 0D       		.byte	0xd
 1315 069d 00000000 		.4byte	.LFB432
 1316 06a1 4C000000 		.4byte	.LFE432-.LFB432
 1317 06a5 01       		.uleb128 0x1
 1318 06a6 9C       		.byte	0x9c
 1319 06a7 CA060000 		.4byte	0x6ca
 1320 06ab 09       		.uleb128 0x9
 1321 06ac 76040000 		.4byte	.LASF109
 1322 06b0 02       		.byte	0x2
 1323 06b1 90       		.byte	0x90
 1324 06b2 25       		.byte	0x25
 1325 06b3 1E050000 		.4byte	0x51e
 1326 06b7 02       		.uleb128 0x2
 1327 06b8 91       		.byte	0x91
 1328 06b9 74       		.sleb128 -12
 1329 06ba 09       		.uleb128 0x9
 1330 06bb C5040000 		.4byte	.LASF110
 1331 06bf 02       		.byte	0x2
 1332 06c0 90       		.byte	0x90
 1333 06c1 40       		.byte	0x40
 1334 06c2 CA060000 		.4byte	0x6ca
 1335 06c6 02       		.uleb128 0x2
 1336 06c7 91       		.byte	0x91
 1337 06c8 70       		.sleb128 -16
 1338 06c9 00       		.byte	0
 1339 06ca 0E       		.uleb128 0xe
 1340 06cb 93050000 		.4byte	0x593
 1341 06cf 1D       		.uleb128 0x1d
 1342 06d0 4D050000 		.4byte	.LASF112
 1343 06d4 01       		.byte	0x1
 1344 06d5 5503     		.2byte	0x355
 1345 06d7 16       		.byte	0x16
 1346 06d8 00000000 		.4byte	.LFB412
 1347 06dc 5C000000 		.4byte	.LFE412-.LFB412
 1348 06e0 01       		.uleb128 0x1
 1349 06e1 9C       		.byte	0x9c
 1350 06e2 06070000 		.4byte	0x706
 1351 06e6 1E       		.uleb128 0x1e
 1352 06e7 1B010000 		.4byte	.LASF113
 1353 06eb 01       		.byte	0x1
 1354 06ec 5503     		.2byte	0x355
 1355 06ee 2D       		.byte	0x2d
 1356 06ef 97000000 		.4byte	0x97
 1357 06f3 02       		.uleb128 0x2
 1358 06f4 91       		.byte	0x91
 1359 06f5 74       		.sleb128 -12
 1360 06f6 1F       		.uleb128 0x1f
 1361 06f7 6C7000   		.ascii	"lp\000"
 1362 06fa 01       		.byte	0x1
 1363 06fb 5503     		.2byte	0x355
 1364 06fd 38       		.byte	0x38
 1365 06fe 3D040000 		.4byte	0x43d
 1366 0702 02       		.uleb128 0x2
 1367 0703 91       		.byte	0x91
 1368 0704 73       		.sleb128 -13
ARM GAS  C:\Users\DEVELO~1\AppData\Local\Temp\cchtMrl3.s 			page 25


 1369 0705 00       		.byte	0
 1370 0706 20       		.uleb128 0x20
 1371 0707 92020000 		.4byte	.LASF120
 1372 070b 01       		.byte	0x1
 1373 070c 79       		.byte	0x79
 1374 070d 16       		.byte	0x16
 1375 070e 00000000 		.4byte	.LFB387
 1376 0712 40000000 		.4byte	.LFE387-.LFB387
 1377 0716 01       		.uleb128 0x1
 1378 0717 9C       		.byte	0x9c
 1379 0718 09       		.uleb128 0x9
 1380 0719 1B010000 		.4byte	.LASF113
 1381 071d 01       		.byte	0x1
 1382 071e 79       		.byte	0x79
 1383 071f 2E       		.byte	0x2e
 1384 0720 97000000 		.4byte	0x97
 1385 0724 02       		.uleb128 0x2
 1386 0725 91       		.byte	0x91
 1387 0726 74       		.sleb128 -12
 1388 0727 00       		.byte	0
 1389 0728 00       		.byte	0
 1390              		.section	.debug_abbrev,"",%progbits
 1391              	.Ldebug_abbrev0:
 1392 0000 01       		.uleb128 0x1
 1393 0001 0D       		.uleb128 0xd
 1394 0002 00       		.byte	0
 1395 0003 03       		.uleb128 0x3
 1396 0004 0E       		.uleb128 0xe
 1397 0005 3A       		.uleb128 0x3a
 1398 0006 21       		.uleb128 0x21
 1399 0007 05       		.sleb128 5
 1400 0008 3B       		.uleb128 0x3b
 1401 0009 05       		.uleb128 0x5
 1402 000a 39       		.uleb128 0x39
 1403 000b 0B       		.uleb128 0xb
 1404 000c 49       		.uleb128 0x49
 1405 000d 13       		.uleb128 0x13
 1406 000e 38       		.uleb128 0x38
 1407 000f 0B       		.uleb128 0xb
 1408 0010 00       		.byte	0
 1409 0011 00       		.byte	0
 1410 0012 02       		.uleb128 0x2
 1411 0013 0D       		.uleb128 0xd
 1412 0014 00       		.byte	0
 1413 0015 03       		.uleb128 0x3
 1414 0016 0E       		.uleb128 0xe
 1415 0017 3A       		.uleb128 0x3a
 1416 0018 0B       		.uleb128 0xb
 1417 0019 3B       		.uleb128 0x3b
 1418 001a 0B       		.uleb128 0xb
 1419 001b 39       		.uleb128 0x39
 1420 001c 0B       		.uleb128 0xb
 1421 001d 49       		.uleb128 0x49
 1422 001e 13       		.uleb128 0x13
 1423 001f 38       		.uleb128 0x38
 1424 0020 0B       		.uleb128 0xb
 1425 0021 00       		.byte	0
ARM GAS  C:\Users\DEVELO~1\AppData\Local\Temp\cchtMrl3.s 			page 26


 1426 0022 00       		.byte	0
 1427 0023 03       		.uleb128 0x3
 1428 0024 24       		.uleb128 0x24
 1429 0025 00       		.byte	0
 1430 0026 0B       		.uleb128 0xb
 1431 0027 0B       		.uleb128 0xb
 1432 0028 3E       		.uleb128 0x3e
 1433 0029 0B       		.uleb128 0xb
 1434 002a 03       		.uleb128 0x3
 1435 002b 0E       		.uleb128 0xe
 1436 002c 00       		.byte	0
 1437 002d 00       		.byte	0
 1438 002e 04       		.uleb128 0x4
 1439 002f 0D       		.uleb128 0xd
 1440 0030 00       		.byte	0
 1441 0031 03       		.uleb128 0x3
 1442 0032 0E       		.uleb128 0xe
 1443 0033 3A       		.uleb128 0x3a
 1444 0034 21       		.uleb128 0x21
 1445 0035 05       		.sleb128 5
 1446 0036 3B       		.uleb128 0x3b
 1447 0037 05       		.uleb128 0x5
 1448 0038 39       		.uleb128 0x39
 1449 0039 0B       		.uleb128 0xb
 1450 003a 49       		.uleb128 0x49
 1451 003b 13       		.uleb128 0x13
 1452 003c 38       		.uleb128 0x38
 1453 003d 05       		.uleb128 0x5
 1454 003e 00       		.byte	0
 1455 003f 00       		.byte	0
 1456 0040 05       		.uleb128 0x5
 1457 0041 16       		.uleb128 0x16
 1458 0042 00       		.byte	0
 1459 0043 03       		.uleb128 0x3
 1460 0044 0E       		.uleb128 0xe
 1461 0045 3A       		.uleb128 0x3a
 1462 0046 0B       		.uleb128 0xb
 1463 0047 3B       		.uleb128 0x3b
 1464 0048 0B       		.uleb128 0xb
 1465 0049 39       		.uleb128 0x39
 1466 004a 0B       		.uleb128 0xb
 1467 004b 49       		.uleb128 0x49
 1468 004c 13       		.uleb128 0x13
 1469 004d 00       		.byte	0
 1470 004e 00       		.byte	0
 1471 004f 06       		.uleb128 0x6
 1472 0050 0D       		.uleb128 0xd
 1473 0051 00       		.byte	0
 1474 0052 03       		.uleb128 0x3
 1475 0053 08       		.uleb128 0x8
 1476 0054 3A       		.uleb128 0x3a
 1477 0055 21       		.uleb128 0x21
 1478 0056 05       		.sleb128 5
 1479 0057 3B       		.uleb128 0x3b
 1480 0058 05       		.uleb128 0x5
 1481 0059 39       		.uleb128 0x39
 1482 005a 0B       		.uleb128 0xb
ARM GAS  C:\Users\DEVELO~1\AppData\Local\Temp\cchtMrl3.s 			page 27


 1483 005b 49       		.uleb128 0x49
 1484 005c 13       		.uleb128 0x13
 1485 005d 38       		.uleb128 0x38
 1486 005e 0B       		.uleb128 0xb
 1487 005f 00       		.byte	0
 1488 0060 00       		.byte	0
 1489 0061 07       		.uleb128 0x7
 1490 0062 0D       		.uleb128 0xd
 1491 0063 00       		.byte	0
 1492 0064 03       		.uleb128 0x3
 1493 0065 08       		.uleb128 0x8
 1494 0066 3A       		.uleb128 0x3a
 1495 0067 0B       		.uleb128 0xb
 1496 0068 3B       		.uleb128 0x3b
 1497 0069 0B       		.uleb128 0xb
 1498 006a 39       		.uleb128 0x39
 1499 006b 21       		.uleb128 0x21
 1500 006c 19       		.sleb128 25
 1501 006d 49       		.uleb128 0x49
 1502 006e 13       		.uleb128 0x13
 1503 006f 38       		.uleb128 0x38
 1504 0070 0B       		.uleb128 0xb
 1505 0071 00       		.byte	0
 1506 0072 00       		.byte	0
 1507 0073 08       		.uleb128 0x8
 1508 0074 13       		.uleb128 0x13
 1509 0075 01       		.byte	0x1
 1510 0076 0B       		.uleb128 0xb
 1511 0077 0B       		.uleb128 0xb
 1512 0078 3A       		.uleb128 0x3a
 1513 0079 0B       		.uleb128 0xb
 1514 007a 3B       		.uleb128 0x3b
 1515 007b 0B       		.uleb128 0xb
 1516 007c 39       		.uleb128 0x39
 1517 007d 0B       		.uleb128 0xb
 1518 007e 01       		.uleb128 0x1
 1519 007f 13       		.uleb128 0x13
 1520 0080 00       		.byte	0
 1521 0081 00       		.byte	0
 1522 0082 09       		.uleb128 0x9
 1523 0083 05       		.uleb128 0x5
 1524 0084 00       		.byte	0
 1525 0085 03       		.uleb128 0x3
 1526 0086 0E       		.uleb128 0xe
 1527 0087 3A       		.uleb128 0x3a
 1528 0088 0B       		.uleb128 0xb
 1529 0089 3B       		.uleb128 0x3b
 1530 008a 0B       		.uleb128 0xb
 1531 008b 39       		.uleb128 0x39
 1532 008c 0B       		.uleb128 0xb
 1533 008d 49       		.uleb128 0x49
 1534 008e 13       		.uleb128 0x13
 1535 008f 02       		.uleb128 0x2
 1536 0090 18       		.uleb128 0x18
 1537 0091 00       		.byte	0
 1538 0092 00       		.byte	0
 1539 0093 0A       		.uleb128 0xa
ARM GAS  C:\Users\DEVELO~1\AppData\Local\Temp\cchtMrl3.s 			page 28


 1540 0094 35       		.uleb128 0x35
 1541 0095 00       		.byte	0
 1542 0096 49       		.uleb128 0x49
 1543 0097 13       		.uleb128 0x13
 1544 0098 00       		.byte	0
 1545 0099 00       		.byte	0
 1546 009a 0B       		.uleb128 0xb
 1547 009b 01       		.uleb128 0x1
 1548 009c 01       		.byte	0x1
 1549 009d 49       		.uleb128 0x49
 1550 009e 13       		.uleb128 0x13
 1551 009f 01       		.uleb128 0x1
 1552 00a0 13       		.uleb128 0x13
 1553 00a1 00       		.byte	0
 1554 00a2 00       		.byte	0
 1555 00a3 0C       		.uleb128 0xc
 1556 00a4 21       		.uleb128 0x21
 1557 00a5 00       		.byte	0
 1558 00a6 49       		.uleb128 0x49
 1559 00a7 13       		.uleb128 0x13
 1560 00a8 2F       		.uleb128 0x2f
 1561 00a9 0B       		.uleb128 0xb
 1562 00aa 00       		.byte	0
 1563 00ab 00       		.byte	0
 1564 00ac 0D       		.uleb128 0xd
 1565 00ad 0D       		.uleb128 0xd
 1566 00ae 00       		.byte	0
 1567 00af 03       		.uleb128 0x3
 1568 00b0 08       		.uleb128 0x8
 1569 00b1 3A       		.uleb128 0x3a
 1570 00b2 21       		.uleb128 0x21
 1571 00b3 06       		.sleb128 6
 1572 00b4 3B       		.uleb128 0x3b
 1573 00b5 0B       		.uleb128 0xb
 1574 00b6 39       		.uleb128 0x39
 1575 00b7 0B       		.uleb128 0xb
 1576 00b8 49       		.uleb128 0x49
 1577 00b9 13       		.uleb128 0x13
 1578 00ba 00       		.byte	0
 1579 00bb 00       		.byte	0
 1580 00bc 0E       		.uleb128 0xe
 1581 00bd 0F       		.uleb128 0xf
 1582 00be 00       		.byte	0
 1583 00bf 0B       		.uleb128 0xb
 1584 00c0 21       		.uleb128 0x21
 1585 00c1 04       		.sleb128 4
 1586 00c2 49       		.uleb128 0x49
 1587 00c3 13       		.uleb128 0x13
 1588 00c4 00       		.byte	0
 1589 00c5 00       		.byte	0
 1590 00c6 0F       		.uleb128 0xf
 1591 00c7 26       		.uleb128 0x26
 1592 00c8 00       		.byte	0
 1593 00c9 49       		.uleb128 0x49
 1594 00ca 13       		.uleb128 0x13
 1595 00cb 00       		.byte	0
 1596 00cc 00       		.byte	0
ARM GAS  C:\Users\DEVELO~1\AppData\Local\Temp\cchtMrl3.s 			page 29


 1597 00cd 10       		.uleb128 0x10
 1598 00ce 11       		.uleb128 0x11
 1599 00cf 01       		.byte	0x1
 1600 00d0 25       		.uleb128 0x25
 1601 00d1 0E       		.uleb128 0xe
 1602 00d2 13       		.uleb128 0x13
 1603 00d3 0B       		.uleb128 0xb
 1604 00d4 03       		.uleb128 0x3
 1605 00d5 0E       		.uleb128 0xe
 1606 00d6 1B       		.uleb128 0x1b
 1607 00d7 0E       		.uleb128 0xe
 1608 00d8 55       		.uleb128 0x55
 1609 00d9 17       		.uleb128 0x17
 1610 00da 11       		.uleb128 0x11
 1611 00db 01       		.uleb128 0x1
 1612 00dc 10       		.uleb128 0x10
 1613 00dd 17       		.uleb128 0x17
 1614 00de 00       		.byte	0
 1615 00df 00       		.byte	0
 1616 00e0 11       		.uleb128 0x11
 1617 00e1 24       		.uleb128 0x24
 1618 00e2 00       		.byte	0
 1619 00e3 0B       		.uleb128 0xb
 1620 00e4 0B       		.uleb128 0xb
 1621 00e5 3E       		.uleb128 0x3e
 1622 00e6 0B       		.uleb128 0xb
 1623 00e7 03       		.uleb128 0x3
 1624 00e8 08       		.uleb128 0x8
 1625 00e9 00       		.byte	0
 1626 00ea 00       		.byte	0
 1627 00eb 12       		.uleb128 0x12
 1628 00ec 13       		.uleb128 0x13
 1629 00ed 01       		.byte	0x1
 1630 00ee 0B       		.uleb128 0xb
 1631 00ef 05       		.uleb128 0x5
 1632 00f0 3A       		.uleb128 0x3a
 1633 00f1 0B       		.uleb128 0xb
 1634 00f2 3B       		.uleb128 0x3b
 1635 00f3 05       		.uleb128 0x5
 1636 00f4 39       		.uleb128 0x39
 1637 00f5 0B       		.uleb128 0xb
 1638 00f6 01       		.uleb128 0x1
 1639 00f7 13       		.uleb128 0x13
 1640 00f8 00       		.byte	0
 1641 00f9 00       		.byte	0
 1642 00fa 13       		.uleb128 0x13
 1643 00fb 16       		.uleb128 0x16
 1644 00fc 00       		.byte	0
 1645 00fd 03       		.uleb128 0x3
 1646 00fe 0E       		.uleb128 0xe
 1647 00ff 3A       		.uleb128 0x3a
 1648 0100 0B       		.uleb128 0xb
 1649 0101 3B       		.uleb128 0x3b
 1650 0102 05       		.uleb128 0x5
 1651 0103 39       		.uleb128 0x39
 1652 0104 0B       		.uleb128 0xb
 1653 0105 49       		.uleb128 0x49
ARM GAS  C:\Users\DEVELO~1\AppData\Local\Temp\cchtMrl3.s 			page 30


 1654 0106 13       		.uleb128 0x13
 1655 0107 00       		.byte	0
 1656 0108 00       		.byte	0
 1657 0109 14       		.uleb128 0x14
 1658 010a 17       		.uleb128 0x17
 1659 010b 01       		.byte	0x1
 1660 010c 0B       		.uleb128 0xb
 1661 010d 0B       		.uleb128 0xb
 1662 010e 3A       		.uleb128 0x3a
 1663 010f 0B       		.uleb128 0xb
 1664 0110 3B       		.uleb128 0x3b
 1665 0111 0B       		.uleb128 0xb
 1666 0112 39       		.uleb128 0x39
 1667 0113 0B       		.uleb128 0xb
 1668 0114 01       		.uleb128 0x1
 1669 0115 13       		.uleb128 0x13
 1670 0116 00       		.byte	0
 1671 0117 00       		.byte	0
 1672 0118 15       		.uleb128 0x15
 1673 0119 13       		.uleb128 0x13
 1674 011a 01       		.byte	0x1
 1675 011b 0B       		.uleb128 0xb
 1676 011c 05       		.uleb128 0x5
 1677 011d 3A       		.uleb128 0x3a
 1678 011e 0B       		.uleb128 0xb
 1679 011f 3B       		.uleb128 0x3b
 1680 0120 0B       		.uleb128 0xb
 1681 0121 39       		.uleb128 0x39
 1682 0122 0B       		.uleb128 0xb
 1683 0123 01       		.uleb128 0x1
 1684 0124 13       		.uleb128 0x13
 1685 0125 00       		.byte	0
 1686 0126 00       		.byte	0
 1687 0127 16       		.uleb128 0x16
 1688 0128 0D       		.uleb128 0xd
 1689 0129 00       		.byte	0
 1690 012a 03       		.uleb128 0x3
 1691 012b 0E       		.uleb128 0xe
 1692 012c 3A       		.uleb128 0x3a
 1693 012d 0B       		.uleb128 0xb
 1694 012e 3B       		.uleb128 0x3b
 1695 012f 0B       		.uleb128 0xb
 1696 0130 39       		.uleb128 0x39
 1697 0131 0B       		.uleb128 0xb
 1698 0132 49       		.uleb128 0x49
 1699 0133 13       		.uleb128 0x13
 1700 0134 38       		.uleb128 0x38
 1701 0135 05       		.uleb128 0x5
 1702 0136 00       		.byte	0
 1703 0137 00       		.byte	0
 1704 0138 17       		.uleb128 0x17
 1705 0139 34       		.uleb128 0x34
 1706 013a 00       		.byte	0
 1707 013b 03       		.uleb128 0x3
 1708 013c 0E       		.uleb128 0xe
 1709 013d 3A       		.uleb128 0x3a
 1710 013e 0B       		.uleb128 0xb
ARM GAS  C:\Users\DEVELO~1\AppData\Local\Temp\cchtMrl3.s 			page 31


 1711 013f 3B       		.uleb128 0x3b
 1712 0140 0B       		.uleb128 0xb
 1713 0141 39       		.uleb128 0x39
 1714 0142 0B       		.uleb128 0xb
 1715 0143 49       		.uleb128 0x49
 1716 0144 13       		.uleb128 0x13
 1717 0145 02       		.uleb128 0x2
 1718 0146 18       		.uleb128 0x18
 1719 0147 00       		.byte	0
 1720 0148 00       		.byte	0
 1721 0149 18       		.uleb128 0x18
 1722 014a 2E       		.uleb128 0x2e
 1723 014b 00       		.byte	0
 1724 014c 3F       		.uleb128 0x3f
 1725 014d 19       		.uleb128 0x19
 1726 014e 03       		.uleb128 0x3
 1727 014f 0E       		.uleb128 0xe
 1728 0150 3A       		.uleb128 0x3a
 1729 0151 0B       		.uleb128 0xb
 1730 0152 3B       		.uleb128 0x3b
 1731 0153 0B       		.uleb128 0xb
 1732 0154 39       		.uleb128 0x39
 1733 0155 0B       		.uleb128 0xb
 1734 0156 27       		.uleb128 0x27
 1735 0157 19       		.uleb128 0x19
 1736 0158 3C       		.uleb128 0x3c
 1737 0159 19       		.uleb128 0x19
 1738 015a 00       		.byte	0
 1739 015b 00       		.byte	0
 1740 015c 19       		.uleb128 0x19
 1741 015d 2E       		.uleb128 0x2e
 1742 015e 00       		.byte	0
 1743 015f 3F       		.uleb128 0x3f
 1744 0160 19       		.uleb128 0x19
 1745 0161 03       		.uleb128 0x3
 1746 0162 0E       		.uleb128 0xe
 1747 0163 3A       		.uleb128 0x3a
 1748 0164 0B       		.uleb128 0xb
 1749 0165 3B       		.uleb128 0x3b
 1750 0166 05       		.uleb128 0x5
 1751 0167 39       		.uleb128 0x39
 1752 0168 0B       		.uleb128 0xb
 1753 0169 27       		.uleb128 0x27
 1754 016a 19       		.uleb128 0x19
 1755 016b 11       		.uleb128 0x11
 1756 016c 01       		.uleb128 0x1
 1757 016d 12       		.uleb128 0x12
 1758 016e 06       		.uleb128 0x6
 1759 016f 40       		.uleb128 0x40
 1760 0170 18       		.uleb128 0x18
 1761 0171 7A       		.uleb128 0x7a
 1762 0172 19       		.uleb128 0x19
 1763 0173 00       		.byte	0
 1764 0174 00       		.byte	0
 1765 0175 1A       		.uleb128 0x1a
 1766 0176 2E       		.uleb128 0x2e
 1767 0177 00       		.byte	0
ARM GAS  C:\Users\DEVELO~1\AppData\Local\Temp\cchtMrl3.s 			page 32


 1768 0178 3F       		.uleb128 0x3f
 1769 0179 19       		.uleb128 0x19
 1770 017a 03       		.uleb128 0x3
 1771 017b 0E       		.uleb128 0xe
 1772 017c 3A       		.uleb128 0x3a
 1773 017d 0B       		.uleb128 0xb
 1774 017e 3B       		.uleb128 0x3b
 1775 017f 0B       		.uleb128 0xb
 1776 0180 39       		.uleb128 0x39
 1777 0181 0B       		.uleb128 0xb
 1778 0182 27       		.uleb128 0x27
 1779 0183 19       		.uleb128 0x19
 1780 0184 11       		.uleb128 0x11
 1781 0185 01       		.uleb128 0x1
 1782 0186 12       		.uleb128 0x12
 1783 0187 06       		.uleb128 0x6
 1784 0188 40       		.uleb128 0x40
 1785 0189 18       		.uleb128 0x18
 1786 018a 7C       		.uleb128 0x7c
 1787 018b 19       		.uleb128 0x19
 1788 018c 00       		.byte	0
 1789 018d 00       		.byte	0
 1790 018e 1B       		.uleb128 0x1b
 1791 018f 2E       		.uleb128 0x2e
 1792 0190 00       		.byte	0
 1793 0191 03       		.uleb128 0x3
 1794 0192 0E       		.uleb128 0xe
 1795 0193 3A       		.uleb128 0x3a
 1796 0194 0B       		.uleb128 0xb
 1797 0195 3B       		.uleb128 0x3b
 1798 0196 0B       		.uleb128 0xb
 1799 0197 39       		.uleb128 0x39
 1800 0198 0B       		.uleb128 0xb
 1801 0199 27       		.uleb128 0x27
 1802 019a 19       		.uleb128 0x19
 1803 019b 11       		.uleb128 0x11
 1804 019c 01       		.uleb128 0x1
 1805 019d 12       		.uleb128 0x12
 1806 019e 06       		.uleb128 0x6
 1807 019f 40       		.uleb128 0x40
 1808 01a0 18       		.uleb128 0x18
 1809 01a1 7C       		.uleb128 0x7c
 1810 01a2 19       		.uleb128 0x19
 1811 01a3 00       		.byte	0
 1812 01a4 00       		.byte	0
 1813 01a5 1C       		.uleb128 0x1c
 1814 01a6 2E       		.uleb128 0x2e
 1815 01a7 01       		.byte	0x1
 1816 01a8 03       		.uleb128 0x3
 1817 01a9 0E       		.uleb128 0xe
 1818 01aa 3A       		.uleb128 0x3a
 1819 01ab 0B       		.uleb128 0xb
 1820 01ac 3B       		.uleb128 0x3b
 1821 01ad 0B       		.uleb128 0xb
 1822 01ae 39       		.uleb128 0x39
 1823 01af 0B       		.uleb128 0xb
 1824 01b0 27       		.uleb128 0x27
ARM GAS  C:\Users\DEVELO~1\AppData\Local\Temp\cchtMrl3.s 			page 33


 1825 01b1 19       		.uleb128 0x19
 1826 01b2 11       		.uleb128 0x11
 1827 01b3 01       		.uleb128 0x1
 1828 01b4 12       		.uleb128 0x12
 1829 01b5 06       		.uleb128 0x6
 1830 01b6 40       		.uleb128 0x40
 1831 01b7 18       		.uleb128 0x18
 1832 01b8 7A       		.uleb128 0x7a
 1833 01b9 19       		.uleb128 0x19
 1834 01ba 01       		.uleb128 0x1
 1835 01bb 13       		.uleb128 0x13
 1836 01bc 00       		.byte	0
 1837 01bd 00       		.byte	0
 1838 01be 1D       		.uleb128 0x1d
 1839 01bf 2E       		.uleb128 0x2e
 1840 01c0 01       		.byte	0x1
 1841 01c1 03       		.uleb128 0x3
 1842 01c2 0E       		.uleb128 0xe
 1843 01c3 3A       		.uleb128 0x3a
 1844 01c4 0B       		.uleb128 0xb
 1845 01c5 3B       		.uleb128 0x3b
 1846 01c6 05       		.uleb128 0x5
 1847 01c7 39       		.uleb128 0x39
 1848 01c8 0B       		.uleb128 0xb
 1849 01c9 27       		.uleb128 0x27
 1850 01ca 19       		.uleb128 0x19
 1851 01cb 11       		.uleb128 0x11
 1852 01cc 01       		.uleb128 0x1
 1853 01cd 12       		.uleb128 0x12
 1854 01ce 06       		.uleb128 0x6
 1855 01cf 40       		.uleb128 0x40
 1856 01d0 18       		.uleb128 0x18
 1857 01d1 7A       		.uleb128 0x7a
 1858 01d2 19       		.uleb128 0x19
 1859 01d3 01       		.uleb128 0x1
 1860 01d4 13       		.uleb128 0x13
 1861 01d5 00       		.byte	0
 1862 01d6 00       		.byte	0
 1863 01d7 1E       		.uleb128 0x1e
 1864 01d8 05       		.uleb128 0x5
 1865 01d9 00       		.byte	0
 1866 01da 03       		.uleb128 0x3
 1867 01db 0E       		.uleb128 0xe
 1868 01dc 3A       		.uleb128 0x3a
 1869 01dd 0B       		.uleb128 0xb
 1870 01de 3B       		.uleb128 0x3b
 1871 01df 05       		.uleb128 0x5
 1872 01e0 39       		.uleb128 0x39
 1873 01e1 0B       		.uleb128 0xb
 1874 01e2 49       		.uleb128 0x49
 1875 01e3 13       		.uleb128 0x13
 1876 01e4 02       		.uleb128 0x2
 1877 01e5 18       		.uleb128 0x18
 1878 01e6 00       		.byte	0
 1879 01e7 00       		.byte	0
 1880 01e8 1F       		.uleb128 0x1f
 1881 01e9 05       		.uleb128 0x5
ARM GAS  C:\Users\DEVELO~1\AppData\Local\Temp\cchtMrl3.s 			page 34


 1882 01ea 00       		.byte	0
 1883 01eb 03       		.uleb128 0x3
 1884 01ec 08       		.uleb128 0x8
 1885 01ed 3A       		.uleb128 0x3a
 1886 01ee 0B       		.uleb128 0xb
 1887 01ef 3B       		.uleb128 0x3b
 1888 01f0 05       		.uleb128 0x5
 1889 01f1 39       		.uleb128 0x39
 1890 01f2 0B       		.uleb128 0xb
 1891 01f3 49       		.uleb128 0x49
 1892 01f4 13       		.uleb128 0x13
 1893 01f5 02       		.uleb128 0x2
 1894 01f6 18       		.uleb128 0x18
 1895 01f7 00       		.byte	0
 1896 01f8 00       		.byte	0
 1897 01f9 20       		.uleb128 0x20
 1898 01fa 2E       		.uleb128 0x2e
 1899 01fb 01       		.byte	0x1
 1900 01fc 03       		.uleb128 0x3
 1901 01fd 0E       		.uleb128 0xe
 1902 01fe 3A       		.uleb128 0x3a
 1903 01ff 0B       		.uleb128 0xb
 1904 0200 3B       		.uleb128 0x3b
 1905 0201 0B       		.uleb128 0xb
 1906 0202 39       		.uleb128 0x39
 1907 0203 0B       		.uleb128 0xb
 1908 0204 27       		.uleb128 0x27
 1909 0205 19       		.uleb128 0x19
 1910 0206 11       		.uleb128 0x11
 1911 0207 01       		.uleb128 0x1
 1912 0208 12       		.uleb128 0x12
 1913 0209 06       		.uleb128 0x6
 1914 020a 40       		.uleb128 0x40
 1915 020b 18       		.uleb128 0x18
 1916 020c 7A       		.uleb128 0x7a
 1917 020d 19       		.uleb128 0x19
 1918 020e 00       		.byte	0
 1919 020f 00       		.byte	0
 1920 0210 00       		.byte	0
 1921              		.section	.debug_aranges,"",%progbits
 1922 0000 44000000 		.4byte	0x44
 1923 0004 0200     		.2byte	0x2
 1924 0006 00000000 		.4byte	.Ldebug_info0
 1925 000a 04       		.byte	0x4
 1926 000b 00       		.byte	0
 1927 000c 0000     		.2byte	0
 1928 000e 0000     		.2byte	0
 1929 0010 00000000 		.4byte	.LFB387
 1930 0014 40000000 		.4byte	.LFE387-.LFB387
 1931 0018 00000000 		.4byte	.LFB412
 1932 001c 5C000000 		.4byte	.LFE412-.LFB412
 1933 0020 00000000 		.4byte	.LFB432
 1934 0024 4C000000 		.4byte	.LFE432-.LFB432
 1935 0028 00000000 		.4byte	.LFB433
 1936 002c CC000000 		.4byte	.LFE433-.LFB433
 1937 0030 00000000 		.4byte	.LFB434
 1938 0034 10000000 		.4byte	.LFE434-.LFB434
ARM GAS  C:\Users\DEVELO~1\AppData\Local\Temp\cchtMrl3.s 			page 35


 1939 0038 00000000 		.4byte	.LFB435
 1940 003c 0C000000 		.4byte	.LFE435-.LFB435
 1941 0040 00000000 		.4byte	0
 1942 0044 00000000 		.4byte	0
 1943              		.section	.debug_rnglists,"",%progbits
 1944              	.Ldebug_ranges0:
 1945 0000 2E000000 		.4byte	.Ldebug_ranges3-.Ldebug_ranges2
 1946              	.Ldebug_ranges2:
 1947 0004 0500     		.2byte	0x5
 1948 0006 04       		.byte	0x4
 1949 0007 00       		.byte	0
 1950 0008 00000000 		.4byte	0
 1951              	.LLRL0:
 1952 000c 07       		.byte	0x7
 1953 000d 00000000 		.4byte	.LFB387
 1954 0011 40       		.uleb128 .LFE387-.LFB387
 1955 0012 07       		.byte	0x7
 1956 0013 00000000 		.4byte	.LFB412
 1957 0017 5C       		.uleb128 .LFE412-.LFB412
 1958 0018 07       		.byte	0x7
 1959 0019 00000000 		.4byte	.LFB432
 1960 001d 4C       		.uleb128 .LFE432-.LFB432
 1961 001e 07       		.byte	0x7
 1962 001f 00000000 		.4byte	.LFB433
 1963 0023 CC01     		.uleb128 .LFE433-.LFB433
 1964 0025 07       		.byte	0x7
 1965 0026 00000000 		.4byte	.LFB434
 1966 002a 10       		.uleb128 .LFE434-.LFB434
 1967 002b 07       		.byte	0x7
 1968 002c 00000000 		.4byte	.LFB435
 1969 0030 0C       		.uleb128 .LFE435-.LFB435
 1970 0031 00       		.byte	0
 1971              	.Ldebug_ranges3:
 1972              		.section	.debug_line,"",%progbits
 1973              	.Ldebug_line0:
 1974 0000 BD020000 		.section	.debug_str,"MS",%progbits,1
 1974      0300CC01 
 1974      00000201 
 1974      FB0E0D00 
 1974      01010101 
 1975              	.LASF82:
 1976 0000 50555044 		.ascii	"PUPDR\000"
 1976      5200
 1977              	.LASF26:
 1978 0006 504C4C31 		.ascii	"PLL1DIVR\000"
 1978      44495652 
 1978      00
 1979              	.LASF80:
 1980 000f 4F545950 		.ascii	"OTYPER\000"
 1980      455200
 1981              	.LASF89:
 1982 0016 6F747970 		.ascii	"otyper\000"
 1982      657200
 1983              	.LASF72:
 1984 001d 41504231 		.ascii	"APB1HLPENR\000"
 1984      484C5045 
 1984      4E5200
ARM GAS  C:\Users\DEVELO~1\AppData\Local\Temp\cchtMrl3.s 			page 36


 1985              	.LASF7:
 1986 0028 6C6F6E67 		.ascii	"long int\000"
 1986      20696E74 
 1986      00
 1987              	.LASF102:
 1988 0031 50484461 		.ascii	"PHData\000"
 1988      746100
 1989              	.LASF79:
 1990 0038 4D4F4445 		.ascii	"MODER\000"
 1990      5200
 1991              	.LASF11:
 1992 003e 6C6F6E67 		.ascii	"long long unsigned int\000"
 1992      206C6F6E 
 1992      6720756E 
 1992      7369676E 
 1992      65642069 
 1993              	.LASF91:
 1994 0055 70757064 		.ascii	"pupdr\000"
 1994      7200
 1995              	.LASF54:
 1996 005b 4433414D 		.ascii	"D3AMR\000"
 1996      5200
 1997              	.LASF67:
 1998 0061 41484231 		.ascii	"AHB1LPENR\000"
 1998      4C50454E 
 1998      5200
 1999              	.LASF38:
 2000 006b 43494552 		.ascii	"CIER\000"
 2000      00
 2001              	.LASF47:
 2002 0070 41484234 		.ascii	"AHB4RSTR\000"
 2002      52535452 
 2002      00
 2003              	.LASF1:
 2004 0079 6C6F6E67 		.ascii	"long long int\000"
 2004      206C6F6E 
 2004      6720696E 
 2004      7400
 2005              	.LASF3:
 2006 0087 7369676E 		.ascii	"signed char\000"
 2006      65642063 
 2006      68617200 
 2007              	.LASF83:
 2008 0093 42535252 		.ascii	"BSRR\000"
 2008      00
 2009              	.LASF45:
 2010 0098 41484231 		.ascii	"AHB1RSTR\000"
 2010      52535452 
 2010      00
 2011              	.LASF55:
 2012 00a1 52455345 		.ascii	"RESERVED11\000"
 2012      52564544 
 2012      313100
 2013              	.LASF65:
 2014 00ac 52455345 		.ascii	"RESERVED12\000"
 2014      52564544 
 2014      313200
ARM GAS  C:\Users\DEVELO~1\AppData\Local\Temp\cchtMrl3.s 			page 37


 2015              	.LASF75:
 2016 00b7 52455345 		.ascii	"RESERVED13\000"
 2016      52564544 
 2016      313300
 2017              	.LASF27:
 2018 00c2 504C4C31 		.ascii	"PLL1FRACR\000"
 2018      46524143 
 2018      5200
 2019              	.LASF99:
 2020 00cc 50454461 		.ascii	"PEData\000"
 2020      746100
 2021              	.LASF51:
 2022 00d3 41504232 		.ascii	"APB2RSTR\000"
 2022      52535452 
 2022      00
 2023              	.LASF12:
 2024 00dc 75696E74 		.ascii	"uint16_t\000"
 2024      31365F74 
 2024      00
 2025              	.LASF22:
 2026 00e5 44334346 		.ascii	"D3CFGR\000"
 2026      475200
 2027              	.LASF25:
 2028 00ec 504C4C43 		.ascii	"PLLCFGR\000"
 2028      46475200 
 2029              	.LASF16:
 2030 00f4 43525243 		.ascii	"CRRCR\000"
 2030      5200
 2031              	.LASF39:
 2032 00fa 43494652 		.ascii	"CIFR\000"
 2032      00
 2033              	.LASF30:
 2034 00ff 504C4C33 		.ascii	"PLL3DIVR\000"
 2034      44495652 
 2034      00
 2035              	.LASF81:
 2036 0108 4F535045 		.ascii	"OSPEEDR\000"
 2036      45445200 
 2037              	.LASF9:
 2038 0110 5F5F7569 		.ascii	"__uint32_t\000"
 2038      6E743332 
 2038      5F7400
 2039              	.LASF113:
 2040 011b 6D61736B 		.ascii	"mask\000"
 2040      00
 2041              	.LASF34:
 2042 0120 44324343 		.ascii	"D2CCIP1R\000"
 2042      49503152 
 2042      00
 2043              	.LASF36:
 2044 0129 44334343 		.ascii	"D3CCIPR\000"
 2044      49505200 
 2045              	.LASF87:
 2046 0131 73746D33 		.ascii	"stm32_gpio_t\000"
 2046      325F6770 
 2046      696F5F74 
 2046      00
ARM GAS  C:\Users\DEVELO~1\AppData\Local\Temp\cchtMrl3.s 			page 38


 2047              	.LASF118:
 2048 013e 73746D33 		.ascii	"stm32_clock_init\000"
 2048      325F636C 
 2048      6F636B5F 
 2048      696E6974 
 2048      00
 2049              	.LASF96:
 2050 014f 50424461 		.ascii	"PBData\000"
 2050      746100
 2051              	.LASF29:
 2052 0156 504C4C32 		.ascii	"PLL2FRACR\000"
 2052      46524143 
 2052      5200
 2053              	.LASF0:
 2054 0160 756E7369 		.ascii	"unsigned int\000"
 2054      676E6564 
 2054      20696E74 
 2054      00
 2055              	.LASF104:
 2056 016d 504A4461 		.ascii	"PJData\000"
 2056      746100
 2057              	.LASF117:
 2058 0174 6770696F 		.ascii	"gpio_default_config\000"
 2058      5F646566 
 2058      61756C74 
 2058      5F636F6E 
 2058      66696700 
 2059              	.LASF10:
 2060 0188 6C6F6E67 		.ascii	"long unsigned int\000"
 2060      20756E73 
 2060      69676E65 
 2060      6420696E 
 2060      7400
 2061              	.LASF76:
 2062 019a 5243435F 		.ascii	"RCC_TypeDef\000"
 2062      54797065 
 2062      44656600 
 2063              	.LASF90:
 2064 01a6 6F737065 		.ascii	"ospeedr\000"
 2064      65647200 
 2065              	.LASF108:
 2066 01ae 5F5F6561 		.ascii	"__early_init\000"
 2066      726C795F 
 2066      696E6974 
 2066      00
 2067              	.LASF6:
 2068 01bb 73686F72 		.ascii	"short unsigned int\000"
 2068      7420756E 
 2068      7369676E 
 2068      65642069 
 2068      6E7400
 2069              	.LASF24:
 2070 01ce 504C4C43 		.ascii	"PLLCKSELR\000"
 2070      4B53454C 
 2070      5200
 2071              	.LASF15:
 2072 01d8 48534943 		.ascii	"HSICFGR\000"
ARM GAS  C:\Users\DEVELO~1\AppData\Local\Temp\cchtMrl3.s 			page 39


 2072      46475200 
 2073              	.LASF106:
 2074 01e0 6770696F 		.ascii	"gpio_config_t\000"
 2074      5F636F6E 
 2074      6669675F 
 2074      7400
 2075              	.LASF44:
 2076 01ee 41484233 		.ascii	"AHB3RSTR\000"
 2076      52535452 
 2076      00
 2077              	.LASF62:
 2078 01f7 41504231 		.ascii	"APB1HENR\000"
 2078      48454E52 
 2078      00
 2079              	.LASF35:
 2080 0200 44324343 		.ascii	"D2CCIP2R\000"
 2080      49503252 
 2080      00
 2081              	.LASF84:
 2082 0209 4C4F434B 		.ascii	"LOCKR\000"
 2082      5200
 2083              	.LASF49:
 2084 020f 41504231 		.ascii	"APB1LRSTR\000"
 2084      4C525354 
 2084      5200
 2085              	.LASF73:
 2086 0219 41504232 		.ascii	"APB2LPENR\000"
 2086      4C50454E 
 2086      5200
 2087              	.LASF31:
 2088 0223 504C4C33 		.ascii	"PLL3FRACR\000"
 2088      46524143 
 2088      5200
 2089              	.LASF101:
 2090 022d 50474461 		.ascii	"PGData\000"
 2090      746100
 2091              	.LASF52:
 2092 0234 41504234 		.ascii	"APB4RSTR\000"
 2092      52535452 
 2092      00
 2093              	.LASF115:
 2094 023d 2E2E2F2E 		.ascii	"../../../os/hal/boards/STM32H743_LQFP176_CUSTOM_Q_8"
 2094      2E2F2E2E 
 2094      2F6F732F 
 2094      68616C2F 
 2094      626F6172 
 2095 0270 4D2F626F 		.ascii	"M/board.c\000"
 2095      6172642E 
 2095      6300
 2096              	.LASF64:
 2097 027a 41504234 		.ascii	"APB4ENR\000"
 2097      454E5200 
 2098              	.LASF78:
 2099 0282 636C6561 		.ascii	"clear\000"
 2099      7200
 2100              	.LASF50:
 2101 0288 41504231 		.ascii	"APB1HRSTR\000"
ARM GAS  C:\Users\DEVELO~1\AppData\Local\Temp\cchtMrl3.s 			page 40


 2101      48525354 
 2101      5200
 2102              	.LASF120:
 2103 0292 5F5F7263 		.ascii	"__rccResetAHB4\000"
 2103      63526573 
 2103      65744148 
 2103      423400
 2104              	.LASF68:
 2105 02a1 41484232 		.ascii	"AHB2LPENR\000"
 2105      4C50454E 
 2105      5200
 2106              	.LASF70:
 2107 02ab 41504233 		.ascii	"APB3LPENR\000"
 2107      4C50454E 
 2107      5200
 2108              	.LASF93:
 2109 02b5 61667268 		.ascii	"afrh\000"
 2109      00
 2110              	.LASF98:
 2111 02ba 50444461 		.ascii	"PDData\000"
 2111      746100
 2112              	.LASF86:
 2113 02c1 41465248 		.ascii	"AFRH\000"
 2113      00
 2114              	.LASF60:
 2115 02c6 41504233 		.ascii	"APB3ENR\000"
 2115      454E5200 
 2116              	.LASF85:
 2117 02ce 4146524C 		.ascii	"AFRL\000"
 2117      00
 2118              	.LASF59:
 2119 02d3 41484234 		.ascii	"AHB4ENR\000"
 2119      454E5200 
 2120              	.LASF19:
 2121 02db 52455345 		.ascii	"RESERVED1\000"
 2121      52564544 
 2121      3100
 2122              	.LASF23:
 2123 02e5 52455345 		.ascii	"RESERVED2\000"
 2123      52564544 
 2123      3200
 2124              	.LASF32:
 2125 02ef 52455345 		.ascii	"RESERVED3\000"
 2125      52564544 
 2125      3300
 2126              	.LASF21:
 2127 02f9 44324346 		.ascii	"D2CFGR\000"
 2127      475200
 2128              	.LASF41:
 2129 0300 52455345 		.ascii	"RESERVED5\000"
 2129      52564544 
 2129      3500
 2130              	.LASF43:
 2131 030a 52455345 		.ascii	"RESERVED6\000"
 2131      52564544 
 2131      3600
 2132              	.LASF53:
ARM GAS  C:\Users\DEVELO~1\AppData\Local\Temp\cchtMrl3.s 			page 41


 2133 0314 52455345 		.ascii	"RESERVED8\000"
 2133      52564544 
 2133      3800
 2134              	.LASF94:
 2135 031e 6770696F 		.ascii	"gpio_setup_t\000"
 2135      5F736574 
 2135      75705F74 
 2135      00
 2136              	.LASF114:
 2137 032b 474E5520 		.ascii	"GNU C17 11.3.1 20220712 -mcpu=cortex-m7 -mthumb -mf"
 2137      43313720 
 2137      31312E33 
 2137      2E312032 
 2137      30323230 
 2138 035e 6C6F6174 		.ascii	"loat-abi=soft -march=armv7e-m -ggdb -O0 -ffunction-"
 2138      2D616269 
 2138      3D736F66 
 2138      74202D6D 
 2138      61726368 
 2139 0391 73656374 		.ascii	"sections -fdata-sections -fno-common\000"
 2139      696F6E73 
 2139      202D6664 
 2139      6174612D 
 2139      73656374 
 2140              	.LASF77:
 2141 03b6 5F426F6F 		.ascii	"_Bool\000"
 2141      6C00
 2142              	.LASF28:
 2143 03bc 504C4C32 		.ascii	"PLL2DIVR\000"
 2143      44495652 
 2143      00
 2144              	.LASF4:
 2145 03c5 756E7369 		.ascii	"unsigned char\000"
 2145      676E6564 
 2145      20636861 
 2145      7200
 2146              	.LASF92:
 2147 03d3 6166726C 		.ascii	"afrl\000"
 2147      00
 2148              	.LASF5:
 2149 03d8 73686F72 		.ascii	"short int\000"
 2149      7420696E 
 2149      7400
 2150              	.LASF116:
 2151 03e2 433A5C50 		.ascii	"C:\\PROJET\\ChibiOS project\\ChibiOS_21.11.4\\demos"
 2151      524F4A45 
 2151      545C4368 
 2151      6962694F 
 2151      53207072 
 2152 0411 5C53544D 		.ascii	"\\STM32\\RT-STM32H743ZI_REV_XY-NUCLEO144_Quartz8M\000"
 2152      33325C52 
 2152      542D5354 
 2152      4D333248 
 2152      3734335A 
 2153              	.LASF107:
 2154 0441 626F6172 		.ascii	"boardInit\000"
 2154      64496E69 
ARM GAS  C:\Users\DEVELO~1\AppData\Local\Temp\cchtMrl3.s 			page 42


 2154      7400
 2155              	.LASF66:
 2156 044b 41484233 		.ascii	"AHB3LPENR\000"
 2156      4C50454E 
 2156      5200
 2157              	.LASF74:
 2158 0455 41504234 		.ascii	"APB4LPENR\000"
 2158      4C50454E 
 2158      5200
 2159              	.LASF95:
 2160 045f 50414461 		.ascii	"PAData\000"
 2160      746100
 2161              	.LASF119:
 2162 0466 73746D33 		.ascii	"stm32_gpio_init\000"
 2162      325F6770 
 2162      696F5F69 
 2162      6E697400 
 2163              	.LASF109:
 2164 0476 6770696F 		.ascii	"gpiop\000"
 2164      7000
 2165              	.LASF63:
 2166 047c 41504232 		.ascii	"APB2ENR\000"
 2166      454E5200 
 2167              	.LASF103:
 2168 0484 50494461 		.ascii	"PIData\000"
 2168      746100
 2169              	.LASF56:
 2170 048b 41484233 		.ascii	"AHB3ENR\000"
 2170      454E5200 
 2171              	.LASF37:
 2172 0493 52455345 		.ascii	"RESERVED4\000"
 2172      52564544 
 2172      3400
 2173              	.LASF88:
 2174 049d 6D6F6465 		.ascii	"moder\000"
 2174      7200
 2175              	.LASF13:
 2176 04a3 75696E74 		.ascii	"uint32_t\000"
 2176      33325F74 
 2176      00
 2177              	.LASF33:
 2178 04ac 44314343 		.ascii	"D1CCIPR\000"
 2178      49505200 
 2179              	.LASF2:
 2180 04b4 6C6F6E67 		.ascii	"long double\000"
 2180      20646F75 
 2180      626C6500 
 2181              	.LASF14:
 2182 04c0 63686172 		.ascii	"char\000"
 2182      00
 2183              	.LASF110:
 2184 04c5 636F6E66 		.ascii	"config\000"
 2184      696700
 2185              	.LASF8:
 2186 04cc 5F5F7569 		.ascii	"__uint16_t\000"
 2186      6E743136 
 2186      5F7400
ARM GAS  C:\Users\DEVELO~1\AppData\Local\Temp\cchtMrl3.s 			page 43


 2187              	.LASF46:
 2188 04d7 41484232 		.ascii	"AHB2RSTR\000"
 2188      52535452 
 2188      00
 2189              	.LASF69:
 2190 04e0 41484234 		.ascii	"AHB4LPENR\000"
 2190      4C50454E 
 2190      5200
 2191              	.LASF58:
 2192 04ea 41484232 		.ascii	"AHB2ENR\000"
 2192      454E5200 
 2193              	.LASF100:
 2194 04f2 50464461 		.ascii	"PFData\000"
 2194      746100
 2195              	.LASF48:
 2196 04f9 41504233 		.ascii	"APB3RSTR\000"
 2196      52535452 
 2196      00
 2197              	.LASF17:
 2198 0502 43534943 		.ascii	"CSICFGR\000"
 2198      46475200 
 2199              	.LASF71:
 2200 050a 41504231 		.ascii	"APB1LLPENR\000"
 2200      4C4C5045 
 2200      4E5200
 2201              	.LASF40:
 2202 0515 43494352 		.ascii	"CICR\000"
 2202      00
 2203              	.LASF42:
 2204 051a 42444352 		.ascii	"BDCR\000"
 2204      00
 2205              	.LASF111:
 2206 051f 6770696F 		.ascii	"gpio_init\000"
 2206      5F696E69 
 2206      7400
 2207              	.LASF57:
 2208 0529 41484231 		.ascii	"AHB1ENR\000"
 2208      454E5200 
 2209              	.LASF97:
 2210 0531 50434461 		.ascii	"PCData\000"
 2210      746100
 2211              	.LASF18:
 2212 0538 43464752 		.ascii	"CFGR\000"
 2212      00
 2213              	.LASF105:
 2214 053d 504B4461 		.ascii	"PKData\000"
 2214      746100
 2215              	.LASF61:
 2216 0544 41504231 		.ascii	"APB1LENR\000"
 2216      4C454E52 
 2216      00
 2217              	.LASF112:
 2218 054d 72636345 		.ascii	"rccEnableAHB4\000"
 2218      6E61626C 
 2218      65414842 
 2218      3400
 2219              	.LASF20:
ARM GAS  C:\Users\DEVELO~1\AppData\Local\Temp\cchtMrl3.s 			page 44


 2220 055b 44314346 		.ascii	"D1CFGR\000"
 2220      475200
 2221              		.ident	"GCC: (Arm GNU Toolchain 11.3.Rel1) 11.3.1 20220712"
ARM GAS  C:\Users\DEVELO~1\AppData\Local\Temp\cchtMrl3.s 			page 45


DEFINED SYMBOLS
                            *ABS*:00000000 board.c
C:\Users\DEVELO~1\AppData\Local\Temp\cchtMrl3.s:18     .text.__rccResetAHB4:00000000 $t
C:\Users\DEVELO~1\AppData\Local\Temp\cchtMrl3.s:23     .text.__rccResetAHB4:00000000 __rccResetAHB4
C:\Users\DEVELO~1\AppData\Local\Temp\cchtMrl3.s:74     .text.__rccResetAHB4:0000003c $d
C:\Users\DEVELO~1\AppData\Local\Temp\cchtMrl3.s:79     .text.rccEnableAHB4:00000000 $t
C:\Users\DEVELO~1\AppData\Local\Temp\cchtMrl3.s:84     .text.rccEnableAHB4:00000000 rccEnableAHB4
C:\Users\DEVELO~1\AppData\Local\Temp\cchtMrl3.s:150    .text.rccEnableAHB4:00000058 $d
C:\Users\DEVELO~1\AppData\Local\Temp\cchtMrl3.s:155    .rodata.gpio_default_config:00000000 $d
C:\Users\DEVELO~1\AppData\Local\Temp\cchtMrl3.s:158    .rodata.gpio_default_config:00000000 gpio_default_config
C:\Users\DEVELO~1\AppData\Local\Temp\cchtMrl3.s:237    .text.gpio_init:00000000 $t
C:\Users\DEVELO~1\AppData\Local\Temp\cchtMrl3.s:242    .text.gpio_init:00000000 gpio_init
C:\Users\DEVELO~1\AppData\Local\Temp\cchtMrl3.s:316    .text.stm32_gpio_init:00000000 $t
C:\Users\DEVELO~1\AppData\Local\Temp\cchtMrl3.s:321    .text.stm32_gpio_init:00000000 stm32_gpio_init
C:\Users\DEVELO~1\AppData\Local\Temp\cchtMrl3.s:390    .text.stm32_gpio_init:00000074 $d
C:\Users\DEVELO~1\AppData\Local\Temp\cchtMrl3.s:416    .text.__early_init:00000000 $t
C:\Users\DEVELO~1\AppData\Local\Temp\cchtMrl3.s:422    .text.__early_init:00000000 __early_init
C:\Users\DEVELO~1\AppData\Local\Temp\cchtMrl3.s:445    .text.boardInit:00000000 $t
C:\Users\DEVELO~1\AppData\Local\Temp\cchtMrl3.s:451    .text.boardInit:00000000 boardInit

UNDEFINED SYMBOLS
stm32_clock_init
