ARM GAS  C:\Users\DEVELO~1\AppData\Local\Temp\ccm6t1vr.s 			page 1


   1              		.cpu cortex-m7
   2              		.arch armv7e-m
   3              		.fpu softvfp
   4              		.eabi_attribute 20, 1
   5              		.eabi_attribute 21, 1
   6              		.eabi_attribute 23, 3
   7              		.eabi_attribute 24, 1
   8              		.eabi_attribute 25, 1
   9              		.eabi_attribute 26, 1
  10              		.eabi_attribute 30, 6
  11              		.eabi_attribute 34, 1
  12              		.eabi_attribute 18, 4
  13              		.file	"board.c"
  14              		.text
  15              	.Ltext0:
  16              		.cfi_sections	.debug_frame
  17              		.section	.text.__rccResetAHB4,"ax",%progbits
  18              		.align	1
  19              		.syntax unified
  20              		.thumb
  21              		.thumb_func
  22              		.type	__rccResetAHB4, %function
  23              	__rccResetAHB4:
  24              	.LFB387:
  25              		.file 1 "../../../os/hal/ports/STM32/STM32H7xx/stm32_rcc.h"
  26              		.loc 1 121 52
  27              		.cfi_startproc
  28              		@ args = 0, pretend = 0, frame = 8
  29              		@ frame_needed = 1, uses_anonymous_args = 0
  30              		@ link register save eliminated.
  31 0000 80B4     		push	{r7}
  32              		.cfi_def_cfa_offset 4
  33              		.cfi_offset 7, -4
  34 0002 83B0     		sub	sp, sp, #12
  35              		.cfi_def_cfa_offset 16
  36 0004 00AF     		add	r7, sp, #0
  37              		.cfi_def_cfa_register 7
  38 0006 7860     		str	r0, [r7, #4]
  39              		.loc 1 124 17
  40 0008 0C4B     		ldr	r3, .L2
  41 000a D3F88820 		ldr	r2, [r3, #136]
  42 000e 0B49     		ldr	r1, .L2
  43 0010 7B68     		ldr	r3, [r7, #4]
  44 0012 1343     		orrs	r3, r3, r2
  45 0014 C1F88830 		str	r3, [r1, #136]
  46              		.loc 1 125 17
  47 0018 084B     		ldr	r3, .L2
  48 001a D3F88820 		ldr	r2, [r3, #136]
  49              		.loc 1 125 20
  50 001e 7B68     		ldr	r3, [r7, #4]
  51 0020 DB43     		mvns	r3, r3
  52              		.loc 1 125 17
  53 0022 0649     		ldr	r1, .L2
  54 0024 1340     		ands	r3, r3, r2
  55 0026 C1F88830 		str	r3, [r1, #136]
  56              		.loc 1 126 12
  57 002a 044B     		ldr	r3, .L2
ARM GAS  C:\Users\DEVELO~1\AppData\Local\Temp\ccm6t1vr.s 			page 2


  58              		.loc 1 126 3
  59 002c D3F88830 		ldr	r3, [r3, #136]
  60              		.loc 1 127 1
  61 0030 00BF     		nop
  62 0032 0C37     		adds	r7, r7, #12
  63              		.cfi_def_cfa_offset 4
  64 0034 BD46     		mov	sp, r7
  65              		.cfi_def_cfa_register 13
  66              		@ sp needed
  67 0036 80BC     		pop	{r7}
  68              		.cfi_restore 7
  69              		.cfi_def_cfa_offset 0
  70 0038 7047     		bx	lr
  71              	.L3:
  72 003a 00BF     		.align	2
  73              	.L2:
  74 003c 00440258 		.word	1476543488
  75              		.cfi_endproc
  76              	.LFE387:
  77              		.size	__rccResetAHB4, .-__rccResetAHB4
  78              		.section	.text.rccEnableAHB4,"ax",%progbits
  79              		.align	1
  80              		.syntax unified
  81              		.thumb
  82              		.thumb_func
  83              		.type	rccEnableAHB4, %function
  84              	rccEnableAHB4:
  85              	.LFB412:
  86              		.loc 1 853 60
  87              		.cfi_startproc
  88              		@ args = 0, pretend = 0, frame = 8
  89              		@ frame_needed = 1, uses_anonymous_args = 0
  90              		@ link register save eliminated.
  91 0000 80B4     		push	{r7}
  92              		.cfi_def_cfa_offset 4
  93              		.cfi_offset 7, -4
  94 0002 83B0     		sub	sp, sp, #12
  95              		.cfi_def_cfa_offset 16
  96 0004 00AF     		add	r7, sp, #0
  97              		.cfi_def_cfa_register 7
  98 0006 7860     		str	r0, [r7, #4]
  99 0008 0B46     		mov	r3, r1
 100 000a FB70     		strb	r3, [r7, #3]
 101              		.loc 1 857 19
 102 000c 124B     		ldr	r3, .L7
 103 000e D3F8E020 		ldr	r2, [r3, #224]
 104 0012 1149     		ldr	r1, .L7
 105 0014 7B68     		ldr	r3, [r7, #4]
 106 0016 1343     		orrs	r3, r3, r2
 107 0018 C1F8E030 		str	r3, [r1, #224]
 108              		.loc 1 858 6
 109 001c FB78     		ldrb	r3, [r7, #3]	@ zero_extendqisi2
 110 001e 002B     		cmp	r3, #0
 111 0020 08D0     		beq	.L5
 112              		.loc 1 859 23
 113 0022 0D4B     		ldr	r3, .L7
 114 0024 D3F80821 		ldr	r2, [r3, #264]
ARM GAS  C:\Users\DEVELO~1\AppData\Local\Temp\ccm6t1vr.s 			page 3


 115 0028 0B49     		ldr	r1, .L7
 116 002a 7B68     		ldr	r3, [r7, #4]
 117 002c 1343     		orrs	r3, r3, r2
 118 002e C1F80831 		str	r3, [r1, #264]
 119 0032 08E0     		b	.L6
 120              	.L5:
 121              		.loc 1 862 23
 122 0034 084B     		ldr	r3, .L7
 123 0036 D3F80821 		ldr	r2, [r3, #264]
 124              		.loc 1 862 26
 125 003a 7B68     		ldr	r3, [r7, #4]
 126 003c DB43     		mvns	r3, r3
 127              		.loc 1 862 23
 128 003e 0649     		ldr	r1, .L7
 129 0040 1340     		ands	r3, r3, r2
 130 0042 C1F80831 		str	r3, [r1, #264]
 131              	.L6:
 132              		.loc 1 864 15
 133 0046 044B     		ldr	r3, .L7
 134              		.loc 1 864 3
 135 0048 D3F80831 		ldr	r3, [r3, #264]
 136              		.loc 1 876 1
 137 004c 00BF     		nop
 138 004e 0C37     		adds	r7, r7, #12
 139              		.cfi_def_cfa_offset 4
 140 0050 BD46     		mov	sp, r7
 141              		.cfi_def_cfa_register 13
 142              		@ sp needed
 143 0052 80BC     		pop	{r7}
 144              		.cfi_restore 7
 145              		.cfi_def_cfa_offset 0
 146 0054 7047     		bx	lr
 147              	.L8:
 148 0056 00BF     		.align	2
 149              	.L7:
 150 0058 00440258 		.word	1476543488
 151              		.cfi_endproc
 152              	.LFE412:
 153              		.size	rccEnableAHB4, .-rccEnableAHB4
 154              		.section	.rodata.gpio_default_config,"a"
 155              		.align	2
 156              		.type	gpio_default_config, %object
 157              		.size	gpio_default_config, 308
 158              	gpio_default_config:
 159 0000 D6D7A8EA 		.word	-358033450
 160 0004 00000000 		.word	0
 161 0008 1714FD3F 		.word	1073550359
 162 000c 00000000 		.word	0
 163 0010 00600000 		.word	24576
 164 0014 0A000000 		.word	10
 165 0018 70A70A00 		.word	698224
 166 001c BF7AAFAA 		.word	-1431340353
 167 0020 000C0000 		.word	3072
 168 0024 C04FF0FF 		.word	-1028160
 169 0028 00005000 		.word	5242880
 170 002c 80000000 		.word	128
 171 0030 00606600 		.word	6709248
ARM GAS  C:\Users\DEVELO~1\AppData\Local\Temp\ccm6t1vr.s 			page 4


 172 0034 004488CC 		.word	-863484928
 173 0038 FFFF7EF2 		.word	-226557953
 174 003c 00000000 		.word	0
 175 0040 00004307 		.word	121831424
 176 0044 00000100 		.word	65536
 177 0048 00080000 		.word	2048
 178 004c 00000000 		.word	0
 179 0050 06000600 		.word	393222
 180 0054 EA9F6AAF 		.word	-1351966742
 181 0058 00000000 		.word	0
 182 005c 3FD07FF0 		.word	-260059073
 183 0060 10000000 		.word	16
 184 0064 40000000 		.word	64
 185 0068 CC060050 		.word	1342179020
 186 006c CC0C00CC 		.word	-872411956
 187 0070 DABFAAAA 		.word	-1431650342
 188 0074 00000000 		.word	0
 189 0078 1FC0FFFF 		.word	-16353
 190 007c 00000000 		.word	0
 191 0080 04000000 		.word	4
 192 0084 CC0000C0 		.word	-1073741620
 193 0088 CCCCCCCC 		.word	-858993460
 194 008c AA9A8AAA 		.word	-1433757014
 195 0090 00000000 		.word	0
 196 0094 FFDFDFFF 		.word	-2105345
 197 0098 00000000 		.word	0
 198 009c 40000000 		.word	64
 199 00a0 CCCCCC50 		.word	1355599052
 200 00a4 55C0CCCC 		.word	-858996651
 201 00a8 EACA9AAA 		.word	-1432696086
 202 00ac 00000000 		.word	0
 203 00b0 3F1FDFFF 		.word	-2154689
 204 00b4 00000000 		.word	0
 205 00b8 00040000 		.word	1024
 206 00bc CC0CCC00 		.word	13372620
 207 00c0 5C5055C5 		.word	-984264612
 208 00c4 AF7BFFFF 		.word	-33873
 209 00c8 00000000 		.word	0
 210 00cc F04C0000 		.word	19696
 211 00d0 00000000 		.word	0
 212 00d4 80000000 		.word	128
 213 00d8 00CCC000 		.word	12635136
 214 00dc 00000000 		.word	0
 215 00e0 BBAA71FF 		.word	-9327941
 216 00e4 00000000 		.word	0
 217 00e8 CCFF4500 		.word	4587468
 218 00ec 00000000 		.word	0
 219 00f0 00000000 		.word	0
 220 00f4 5050AAAA 		.word	-1431678896
 221 00f8 00000000 		.word	0
 222 00fc FFFFFFFF 		.word	-1
 223 0100 00000000 		.word	0
 224 0104 00000000 		.word	0
 225 0108 00000000 		.word	0
 226 010c 00000000 		.word	0
 227 0110 00000000 		.word	0
 228 0114 00000000 		.word	0
ARM GAS  C:\Users\DEVELO~1\AppData\Local\Temp\ccm6t1vr.s 			page 5


 229 0118 FFFFFFFF 		.word	-1
 230 011c 00000000 		.word	0
 231 0120 00000000 		.word	0
 232 0124 00000000 		.word	0
 233 0128 00000000 		.word	0
 234 012c 00000000 		.word	0
 235 0130 00000000 		.word	0
 236              		.section	.text.gpio_init,"ax",%progbits
 237              		.align	1
 238              		.syntax unified
 239              		.thumb
 240              		.thumb_func
 241              		.type	gpio_init, %function
 242              	gpio_init:
 243              	.LFB432:
 244              		.file 2 "../../../os/hal/boards/STM32H743_LQFP176_CUSTOM/board.c"
 245              		.loc 2 144 72
 246              		.cfi_startproc
 247              		@ args = 0, pretend = 0, frame = 8
 248              		@ frame_needed = 1, uses_anonymous_args = 0
 249              		@ link register save eliminated.
 250 0000 80B4     		push	{r7}
 251              		.cfi_def_cfa_offset 4
 252              		.cfi_offset 7, -4
 253 0002 83B0     		sub	sp, sp, #12
 254              		.cfi_def_cfa_offset 16
 255 0004 00AF     		add	r7, sp, #0
 256              		.cfi_def_cfa_register 7
 257 0006 7860     		str	r0, [r7, #4]
 258 0008 3960     		str	r1, [r7]
 259              		.loc 2 146 26
 260 000a 3B68     		ldr	r3, [r7]
 261 000c 5A68     		ldr	r2, [r3, #4]
 262              		.loc 2 146 18
 263 000e 7B68     		ldr	r3, [r7, #4]
 264 0010 5A60     		str	r2, [r3, #4]
 265              		.loc 2 147 26
 266 0012 3B68     		ldr	r3, [r7]
 267 0014 9A68     		ldr	r2, [r3, #8]
 268              		.loc 2 147 18
 269 0016 7B68     		ldr	r3, [r7, #4]
 270 0018 9A60     		str	r2, [r3, #8]
 271              		.loc 2 148 26
 272 001a 3B68     		ldr	r3, [r7]
 273 001c DA68     		ldr	r2, [r3, #12]
 274              		.loc 2 148 18
 275 001e 7B68     		ldr	r3, [r7, #4]
 276 0020 DA60     		str	r2, [r3, #12]
 277              		.loc 2 149 26
 278 0022 3B68     		ldr	r3, [r7]
 279 0024 1A69     		ldr	r2, [r3, #16]
 280              		.loc 2 149 18
 281 0026 7B68     		ldr	r3, [r7, #4]
 282 0028 5A61     		str	r2, [r3, #20]
 283              		.loc 2 150 26
 284 002a 3B68     		ldr	r3, [r7]
 285 002c 5A69     		ldr	r2, [r3, #20]
ARM GAS  C:\Users\DEVELO~1\AppData\Local\Temp\ccm6t1vr.s 			page 6


 286              		.loc 2 150 18
 287 002e 7B68     		ldr	r3, [r7, #4]
 288 0030 1A62     		str	r2, [r3, #32]
 289              		.loc 2 151 26
 290 0032 3B68     		ldr	r3, [r7]
 291 0034 9A69     		ldr	r2, [r3, #24]
 292              		.loc 2 151 18
 293 0036 7B68     		ldr	r3, [r7, #4]
 294 0038 5A62     		str	r2, [r3, #36]
 295              		.loc 2 152 26
 296 003a 3B68     		ldr	r3, [r7]
 297 003c 1A68     		ldr	r2, [r3]
 298              		.loc 2 152 18
 299 003e 7B68     		ldr	r3, [r7, #4]
 300 0040 1A60     		str	r2, [r3]
 301              		.loc 2 153 1
 302 0042 00BF     		nop
 303 0044 0C37     		adds	r7, r7, #12
 304              		.cfi_def_cfa_offset 4
 305 0046 BD46     		mov	sp, r7
 306              		.cfi_def_cfa_register 13
 307              		@ sp needed
 308 0048 80BC     		pop	{r7}
 309              		.cfi_restore 7
 310              		.cfi_def_cfa_offset 0
 311 004a 7047     		bx	lr
 312              		.cfi_endproc
 313              	.LFE432:
 314              		.size	gpio_init, .-gpio_init
 315              		.section	.text.stm32_gpio_init,"ax",%progbits
 316              		.align	1
 317              		.syntax unified
 318              		.thumb
 319              		.thumb_func
 320              		.type	stm32_gpio_init, %function
 321              	stm32_gpio_init:
 322              	.LFB433:
 323              		.loc 2 155 35
 324              		.cfi_startproc
 325              		@ args = 0, pretend = 0, frame = 0
 326              		@ frame_needed = 1, uses_anonymous_args = 0
 327 0000 80B5     		push	{r7, lr}
 328              		.cfi_def_cfa_offset 8
 329              		.cfi_offset 7, -8
 330              		.cfi_offset 14, -4
 331 0002 00AF     		add	r7, sp, #0
 332              		.cfi_def_cfa_register 7
 333              		.loc 2 159 3
 334 0004 40F2FF70 		movw	r0, #2047
 335 0008 FFF7FEFF 		bl	__rccResetAHB4
 336              		.loc 2 160 3
 337 000c 0121     		movs	r1, #1
 338 000e 40F2FF70 		movw	r0, #2047
 339 0012 FFF7FEFF 		bl	rccEnableAHB4
 340              		.loc 2 164 3
 341 0016 1749     		ldr	r1, .L11
 342 0018 1748     		ldr	r0, .L11+4
ARM GAS  C:\Users\DEVELO~1\AppData\Local\Temp\ccm6t1vr.s 			page 7


 343 001a FFF7FEFF 		bl	gpio_init
 344              		.loc 2 167 3
 345 001e 1749     		ldr	r1, .L11+8
 346 0020 1748     		ldr	r0, .L11+12
 347 0022 FFF7FEFF 		bl	gpio_init
 348              		.loc 2 170 3
 349 0026 1749     		ldr	r1, .L11+16
 350 0028 1748     		ldr	r0, .L11+20
 351 002a FFF7FEFF 		bl	gpio_init
 352              		.loc 2 173 3
 353 002e 1749     		ldr	r1, .L11+24
 354 0030 1748     		ldr	r0, .L11+28
 355 0032 FFF7FEFF 		bl	gpio_init
 356              		.loc 2 176 3
 357 0036 1749     		ldr	r1, .L11+32
 358 0038 1748     		ldr	r0, .L11+36
 359 003a FFF7FEFF 		bl	gpio_init
 360              		.loc 2 179 3
 361 003e 1749     		ldr	r1, .L11+40
 362 0040 1748     		ldr	r0, .L11+44
 363 0042 FFF7FEFF 		bl	gpio_init
 364              		.loc 2 182 3
 365 0046 1749     		ldr	r1, .L11+48
 366 0048 1748     		ldr	r0, .L11+52
 367 004a FFF7FEFF 		bl	gpio_init
 368              		.loc 2 185 3
 369 004e 1749     		ldr	r1, .L11+56
 370 0050 1748     		ldr	r0, .L11+60
 371 0052 FFF7FEFF 		bl	gpio_init
 372              		.loc 2 188 3
 373 0056 1749     		ldr	r1, .L11+64
 374 0058 1748     		ldr	r0, .L11+68
 375 005a FFF7FEFF 		bl	gpio_init
 376              		.loc 2 191 3
 377 005e 1749     		ldr	r1, .L11+72
 378 0060 1748     		ldr	r0, .L11+76
 379 0062 FFF7FEFF 		bl	gpio_init
 380              		.loc 2 194 3
 381 0066 1749     		ldr	r1, .L11+80
 382 0068 1748     		ldr	r0, .L11+84
 383 006a FFF7FEFF 		bl	gpio_init
 384              		.loc 2 196 1
 385 006e 00BF     		nop
 386 0070 80BD     		pop	{r7, pc}
 387              	.L12:
 388 0072 00BF     		.align	2
 389              	.L11:
 390 0074 00000000 		.word	gpio_default_config
 391 0078 00000258 		.word	1476526080
 392 007c 1C000000 		.word	gpio_default_config+28
 393 0080 00040258 		.word	1476527104
 394 0084 38000000 		.word	gpio_default_config+56
 395 0088 00080258 		.word	1476528128
 396 008c 54000000 		.word	gpio_default_config+84
 397 0090 000C0258 		.word	1476529152
 398 0094 70000000 		.word	gpio_default_config+112
 399 0098 00100258 		.word	1476530176
ARM GAS  C:\Users\DEVELO~1\AppData\Local\Temp\ccm6t1vr.s 			page 8


 400 009c 8C000000 		.word	gpio_default_config+140
 401 00a0 00140258 		.word	1476531200
 402 00a4 A8000000 		.word	gpio_default_config+168
 403 00a8 00180258 		.word	1476532224
 404 00ac C4000000 		.word	gpio_default_config+196
 405 00b0 001C0258 		.word	1476533248
 406 00b4 E0000000 		.word	gpio_default_config+224
 407 00b8 00200258 		.word	1476534272
 408 00bc FC000000 		.word	gpio_default_config+252
 409 00c0 00240258 		.word	1476535296
 410 00c4 18010000 		.word	gpio_default_config+280
 411 00c8 00280258 		.word	1476536320
 412              		.cfi_endproc
 413              	.LFE433:
 414              		.size	stm32_gpio_init, .-stm32_gpio_init
 415              		.section	.text.__early_init,"ax",%progbits
 416              		.align	1
 417              		.global	__early_init
 418              		.syntax unified
 419              		.thumb
 420              		.thumb_func
 421              		.type	__early_init, %function
 422              	__early_init:
 423              	.LFB434:
 424              		.loc 2 211 25
 425              		.cfi_startproc
 426              		@ args = 0, pretend = 0, frame = 0
 427              		@ frame_needed = 1, uses_anonymous_args = 0
 428 0000 80B5     		push	{r7, lr}
 429              		.cfi_def_cfa_offset 8
 430              		.cfi_offset 7, -8
 431              		.cfi_offset 14, -4
 432 0002 00AF     		add	r7, sp, #0
 433              		.cfi_def_cfa_register 7
 434              		.loc 2 213 3
 435 0004 FFF7FEFF 		bl	stm32_gpio_init
 436              		.loc 2 214 3
 437 0008 FFF7FEFF 		bl	stm32_clock_init
 438              		.loc 2 215 1
 439 000c 00BF     		nop
 440 000e 80BD     		pop	{r7, pc}
 441              		.cfi_endproc
 442              	.LFE434:
 443              		.size	__early_init, .-__early_init
 444              		.section	.text.mmc_lld_is_card_inserted,"ax",%progbits
 445              		.align	1
 446              		.global	mmc_lld_is_card_inserted
 447              		.syntax unified
 448              		.thumb
 449              		.thumb_func
 450              		.type	mmc_lld_is_card_inserted, %function
 451              	mmc_lld_is_card_inserted:
 452              	.LFB435:
 453              		.loc 2 243 48
 454              		.cfi_startproc
 455              		@ args = 0, pretend = 0, frame = 8
 456              		@ frame_needed = 1, uses_anonymous_args = 0
ARM GAS  C:\Users\DEVELO~1\AppData\Local\Temp\ccm6t1vr.s 			page 9


 457              		@ link register save eliminated.
 458 0000 80B4     		push	{r7}
 459              		.cfi_def_cfa_offset 4
 460              		.cfi_offset 7, -4
 461 0002 83B0     		sub	sp, sp, #12
 462              		.cfi_def_cfa_offset 16
 463 0004 00AF     		add	r7, sp, #0
 464              		.cfi_def_cfa_register 7
 465 0006 7860     		str	r0, [r7, #4]
 466              		.loc 2 247 10
 467 0008 0123     		movs	r3, #1
 468              		.loc 2 248 1
 469 000a 1846     		mov	r0, r3
 470 000c 0C37     		adds	r7, r7, #12
 471              		.cfi_def_cfa_offset 4
 472 000e BD46     		mov	sp, r7
 473              		.cfi_def_cfa_register 13
 474              		@ sp needed
 475 0010 80BC     		pop	{r7}
 476              		.cfi_restore 7
 477              		.cfi_def_cfa_offset 0
 478 0012 7047     		bx	lr
 479              		.cfi_endproc
 480              	.LFE435:
 481              		.size	mmc_lld_is_card_inserted, .-mmc_lld_is_card_inserted
 482              		.section	.text.mmc_lld_is_write_protected,"ax",%progbits
 483              		.align	1
 484              		.global	mmc_lld_is_write_protected
 485              		.syntax unified
 486              		.thumb
 487              		.thumb_func
 488              		.type	mmc_lld_is_write_protected, %function
 489              	mmc_lld_is_write_protected:
 490              	.LFB436:
 491              		.loc 2 253 50
 492              		.cfi_startproc
 493              		@ args = 0, pretend = 0, frame = 8
 494              		@ frame_needed = 1, uses_anonymous_args = 0
 495              		@ link register save eliminated.
 496 0000 80B4     		push	{r7}
 497              		.cfi_def_cfa_offset 4
 498              		.cfi_offset 7, -4
 499 0002 83B0     		sub	sp, sp, #12
 500              		.cfi_def_cfa_offset 16
 501 0004 00AF     		add	r7, sp, #0
 502              		.cfi_def_cfa_register 7
 503 0006 7860     		str	r0, [r7, #4]
 504              		.loc 2 257 10
 505 0008 0023     		movs	r3, #0
 506              		.loc 2 258 1
 507 000a 1846     		mov	r0, r3
 508 000c 0C37     		adds	r7, r7, #12
 509              		.cfi_def_cfa_offset 4
 510 000e BD46     		mov	sp, r7
 511              		.cfi_def_cfa_register 13
 512              		@ sp needed
 513 0010 80BC     		pop	{r7}
ARM GAS  C:\Users\DEVELO~1\AppData\Local\Temp\ccm6t1vr.s 			page 10


 514              		.cfi_restore 7
 515              		.cfi_def_cfa_offset 0
 516 0012 7047     		bx	lr
 517              		.cfi_endproc
 518              	.LFE436:
 519              		.size	mmc_lld_is_write_protected, .-mmc_lld_is_write_protected
 520              		.section	.text.boardInit,"ax",%progbits
 521              		.align	1
 522              		.global	boardInit
 523              		.syntax unified
 524              		.thumb
 525              		.thumb_func
 526              		.type	boardInit, %function
 527              	boardInit:
 528              	.LFB437:
 529              		.loc 2 265 22
 530              		.cfi_startproc
 531              		@ args = 0, pretend = 0, frame = 0
 532              		@ frame_needed = 1, uses_anonymous_args = 0
 533              		@ link register save eliminated.
 534 0000 80B4     		push	{r7}
 535              		.cfi_def_cfa_offset 4
 536              		.cfi_offset 7, -4
 537 0002 00AF     		add	r7, sp, #0
 538              		.cfi_def_cfa_register 7
 539              		.loc 2 266 1
 540 0004 00BF     		nop
 541 0006 BD46     		mov	sp, r7
 542              		.cfi_def_cfa_register 13
 543              		@ sp needed
 544 0008 80BC     		pop	{r7}
 545              		.cfi_restore 7
 546              		.cfi_def_cfa_offset 0
 547 000a 7047     		bx	lr
 548              		.cfi_endproc
 549              	.LFE437:
 550              		.size	boardInit, .-boardInit
 551              		.text
 552              	.Letext0:
 553              		.file 3 "c:\\chibistudio\\tools\\gnu tools arm embedded\\11.3 2022.08\\lib\\gcc\\arm-none-eabi\\11
 554              		.file 4 "c:\\chibistudio\\tools\\gnu tools arm embedded\\11.3 2022.08\\arm-none-eabi\\include\\mac
 555              		.file 5 "c:\\chibistudio\\tools\\gnu tools arm embedded\\11.3 2022.08\\arm-none-eabi\\include\\sys
 556              		.file 6 "c:\\chibistudio\\tools\\gnu tools arm embedded\\11.3 2022.08\\arm-none-eabi\\include\\std
 557              		.file 7 "../../../os/common/ports/ARM-common/chtypes.h"
 558              		.file 8 "../../../os/rt/include/chearly.h"
 559              		.file 9 "../../../os/rt/include/chobjects.h"
 560              		.file 10 "../../../os/rt/include/chrfcu.h"
 561              		.file 11 "../../../os/rt/include/chdebug.h"
 562              		.file 12 "../../../os/rt/include/chtime.h"
 563              		.file 13 "../../../os/rt/include/chlists.h"
 564              		.file 14 "../../../os/rt/include/chtrace.h"
 565              		.file 15 "../../../os/common/ext/ST/STM32H7xx/stm32h743xx.h"
 566              		.file 16 "../../../os/common/ports/ARMv7-M/chcore.h"
 567              		.file 17 "../../../os/rt/include/chsem.h"
 568              		.file 18 "../../../os/rt/include/chmtx.h"
 569              		.file 19 "../../../os/hal/ports/STM32/LLD/DMAv2/stm32_dma.h"
 570              		.file 20 "../../../os/hal/ports/STM32/LLD/BDMAv1/stm32_bdma.h"
ARM GAS  C:\Users\DEVELO~1\AppData\Local\Temp\ccm6t1vr.s 			page 11


 571              		.file 21 "../../../os/hal/include/hal_ioblock.h"
 572              		.file 22 "../../../os/hal/ports/STM32/LLD/GPIOv2/stm32_gpio.h"
 573              		.file 23 "../../../os/hal/ports/STM32/LLD/GPIOv2/hal_pal_lld.h"
 574              		.file 24 "../../../os/hal/include/hal_spi_v2.h"
 575              		.file 25 "../../../os/hal/include/hal_mmc_spi.h"
 576              		.file 26 "../../../os/hal/ports/STM32/STM32H7xx/hal_lld.h"
 577              		.section	.debug_info,"",%progbits
 578              	.Ldebug_info0:
 579 0000 81170000 		.4byte	0x1781
 580 0004 0500     		.2byte	0x5
 581 0006 01       		.byte	0x1
 582 0007 04       		.byte	0x4
 583 0008 00000000 		.4byte	.Ldebug_abbrev0
 584 000c 1E       		.uleb128 0x1e
 585 000d 70040000 		.4byte	.LASF313
 586 0011 1D       		.byte	0x1d
 587 0012 A4010000 		.4byte	.LASF314
 588 0016 D1030000 		.4byte	.LASF315
 589 001a 0C000000 		.4byte	.LLRL0
 590 001e 00000000 		.4byte	0
 591 0022 00000000 		.4byte	.Ldebug_line0
 592 0026 1F       		.uleb128 0x1f
 593 0027 04       		.byte	0x4
 594 0028 05       		.byte	0x5
 595 0029 696E7400 		.ascii	"int\000"
 596 002d 03       		.uleb128 0x3
 597 002e 5D040000 		.4byte	.LASF4
 598 0032 03       		.byte	0x3
 599 0033 D1       		.byte	0xd1
 600 0034 17       		.byte	0x17
 601 0035 39000000 		.4byte	0x39
 602 0039 0A       		.uleb128 0xa
 603 003a 04       		.byte	0x4
 604 003b 07       		.byte	0x7
 605 003c D5000000 		.4byte	.LASF0
 606 0040 0A       		.uleb128 0xa
 607 0041 08       		.byte	0x8
 608 0042 05       		.byte	0x5
 609 0043 DA060000 		.4byte	.LASF1
 610 0047 0A       		.uleb128 0xa
 611 0048 08       		.byte	0x8
 612 0049 04       		.byte	0x4
 613 004a 35080000 		.4byte	.LASF2
 614 004e 0A       		.uleb128 0xa
 615 004f 01       		.byte	0x1
 616 0050 06       		.byte	0x6
 617 0051 D90B0000 		.4byte	.LASF3
 618 0055 03       		.uleb128 0x3
 619 0056 F3090000 		.4byte	.LASF5
 620 005a 04       		.byte	0x4
 621 005b 2B       		.byte	0x2b
 622 005c 18       		.byte	0x18
 623 005d 61000000 		.4byte	0x61
 624 0061 0A       		.uleb128 0xa
 625 0062 01       		.byte	0x1
 626 0063 08       		.byte	0x8
 627 0064 F10A0000 		.4byte	.LASF6
ARM GAS  C:\Users\DEVELO~1\AppData\Local\Temp\ccm6t1vr.s 			page 12


 628 0068 0A       		.uleb128 0xa
 629 0069 02       		.byte	0x2
 630 006a 05       		.byte	0x5
 631 006b EA080000 		.4byte	.LASF7
 632 006f 03       		.uleb128 0x3
 633 0070 27030000 		.4byte	.LASF8
 634 0074 04       		.byte	0x4
 635 0075 39       		.byte	0x39
 636 0076 19       		.byte	0x19
 637 0077 7B000000 		.4byte	0x7b
 638 007b 0A       		.uleb128 0xa
 639 007c 02       		.byte	0x2
 640 007d 07       		.byte	0x7
 641 007e FE0B0000 		.4byte	.LASF9
 642 0082 03       		.uleb128 0x3
 643 0083 E0050000 		.4byte	.LASF10
 644 0087 04       		.byte	0x4
 645 0088 4D       		.byte	0x4d
 646 0089 18       		.byte	0x18
 647 008a 8E000000 		.4byte	0x8e
 648 008e 0A       		.uleb128 0xa
 649 008f 04       		.byte	0x4
 650 0090 05       		.byte	0x5
 651 0091 0A000000 		.4byte	.LASF11
 652 0095 03       		.uleb128 0x3
 653 0096 070B0000 		.4byte	.LASF12
 654 009a 04       		.byte	0x4
 655 009b 4F       		.byte	0x4f
 656 009c 19       		.byte	0x19
 657 009d A1000000 		.4byte	0xa1
 658 00a1 0A       		.uleb128 0xa
 659 00a2 04       		.byte	0x4
 660 00a3 07       		.byte	0x7
 661 00a4 520A0000 		.4byte	.LASF13
 662 00a8 03       		.uleb128 0x3
 663 00a9 4A060000 		.4byte	.LASF14
 664 00ad 04       		.byte	0x4
 665 00ae 69       		.byte	0x69
 666 00af 19       		.byte	0x19
 667 00b0 B4000000 		.4byte	0xb4
 668 00b4 0A       		.uleb128 0xa
 669 00b5 08       		.byte	0x8
 670 00b6 07       		.byte	0x7
 671 00b7 E9020000 		.4byte	.LASF15
 672 00bb 03       		.uleb128 0x3
 673 00bc 6D060000 		.4byte	.LASF16
 674 00c0 05       		.byte	0x5
 675 00c1 18       		.byte	0x18
 676 00c2 13       		.byte	0x13
 677 00c3 55000000 		.4byte	0x55
 678 00c7 0C       		.uleb128 0xc
 679 00c8 BB000000 		.4byte	0xbb
 680 00cc 03       		.uleb128 0x3
 681 00cd 41080000 		.4byte	.LASF17
 682 00d1 05       		.byte	0x5
 683 00d2 24       		.byte	0x24
 684 00d3 14       		.byte	0x14
ARM GAS  C:\Users\DEVELO~1\AppData\Local\Temp\ccm6t1vr.s 			page 13


 685 00d4 6F000000 		.4byte	0x6f
 686 00d8 03       		.uleb128 0x3
 687 00d9 8A0A0000 		.4byte	.LASF18
 688 00dd 05       		.byte	0x5
 689 00de 2C       		.byte	0x2c
 690 00df 13       		.byte	0x13
 691 00e0 82000000 		.4byte	0x82
 692 00e4 03       		.uleb128 0x3
 693 00e5 E7000000 		.4byte	.LASF19
 694 00e9 05       		.byte	0x5
 695 00ea 30       		.byte	0x30
 696 00eb 14       		.byte	0x14
 697 00ec 95000000 		.4byte	0x95
 698 00f0 15       		.uleb128 0x15
 699 00f1 E4000000 		.4byte	0xe4
 700 00f5 03       		.uleb128 0x3
 701 00f6 9A0B0000 		.4byte	.LASF20
 702 00fa 05       		.byte	0x5
 703 00fb 3C       		.byte	0x3c
 704 00fc 14       		.byte	0x14
 705 00fd A8000000 		.4byte	0xa8
 706 0101 15       		.uleb128 0x15
 707 0102 F5000000 		.4byte	0xf5
 708 0106 03       		.uleb128 0x3
 709 0107 220A0000 		.4byte	.LASF21
 710 010b 06       		.byte	0x6
 711 010c 34       		.byte	0x34
 712 010d 1F       		.byte	0x1f
 713 010e 39000000 		.4byte	0x39
 714 0112 03       		.uleb128 0x3
 715 0113 50090000 		.4byte	.LASF22
 716 0117 07       		.byte	0x7
 717 0118 48       		.byte	0x48
 718 0119 1D       		.byte	0x1d
 719 011a F5000000 		.4byte	0xf5
 720 011e 03       		.uleb128 0x3
 721 011f 110C0000 		.4byte	.LASF23
 722 0123 08       		.byte	0x8
 723 0124 50       		.byte	0x50
 724 0125 19       		.byte	0x19
 725 0126 12010000 		.4byte	0x112
 726 012a 03       		.uleb128 0x3
 727 012b 58020000 		.4byte	.LASF24
 728 012f 08       		.byte	0x8
 729 0130 53       		.byte	0x53
 730 0131 19       		.byte	0x19
 731 0132 BB000000 		.4byte	0xbb
 732 0136 03       		.uleb128 0x3
 733 0137 0F060000 		.4byte	.LASF25
 734 013b 08       		.byte	0x8
 735 013c 54       		.byte	0x54
 736 013d 19       		.byte	0x19
 737 013e BB000000 		.4byte	0xbb
 738 0142 03       		.uleb128 0x3
 739 0143 430A0000 		.4byte	.LASF26
 740 0147 08       		.byte	0x8
 741 0148 55       		.byte	0x55
ARM GAS  C:\Users\DEVELO~1\AppData\Local\Temp\ccm6t1vr.s 			page 14


 742 0149 19       		.byte	0x19
 743 014a BB000000 		.4byte	0xbb
 744 014e 03       		.uleb128 0x3
 745 014f BD020000 		.4byte	.LASF27
 746 0153 08       		.byte	0x8
 747 0154 57       		.byte	0x57
 748 0155 19       		.byte	0x19
 749 0156 E4000000 		.4byte	0xe4
 750 015a 03       		.uleb128 0x3
 751 015b F9060000 		.4byte	.LASF28
 752 015f 08       		.byte	0x8
 753 0160 58       		.byte	0x58
 754 0161 19       		.byte	0x19
 755 0162 D8000000 		.4byte	0xd8
 756 0166 03       		.uleb128 0x3
 757 0167 76020000 		.4byte	.LASF29
 758 016b 08       		.byte	0x8
 759 016c 5A       		.byte	0x5a
 760 016d 19       		.byte	0x19
 761 016e E4000000 		.4byte	0xe4
 762 0172 03       		.uleb128 0x3
 763 0173 32030000 		.4byte	.LASF30
 764 0177 08       		.byte	0x8
 765 0178 5C       		.byte	0x5c
 766 0179 19       		.byte	0x19
 767 017a D8000000 		.4byte	0xd8
 768 017e 03       		.uleb128 0x3
 769 017f 0E0D0000 		.4byte	.LASF31
 770 0183 08       		.byte	0x8
 771 0184 80       		.byte	0x80
 772 0185 12       		.byte	0x12
 773 0186 39000000 		.4byte	0x39
 774 018a 03       		.uleb128 0x3
 775 018b 3E040000 		.4byte	.LASF32
 776 018f 08       		.byte	0x8
 777 0190 85       		.byte	0x85
 778 0191 1A       		.byte	0x1a
 779 0192 96010000 		.4byte	0x196
 780 0196 07       		.uleb128 0x7
 781 0197 99060000 		.4byte	.LASF47
 782 019b 48       		.byte	0x48
 783 019c 09       		.byte	0x9
 784 019d 9C       		.byte	0x9c
 785 019e 08       		.byte	0x8
 786 019f 79020000 		.4byte	0x279
 787 01a3 06       		.uleb128 0x6
 788 01a4 68647200 		.ascii	"hdr\000"
 789 01a8 09       		.byte	0x9
 790 01a9 AD       		.byte	0xad
 791 01aa 05       		.byte	0x5
 792 01ab 360D0000 		.4byte	0xd36
 793 01af 00       		.byte	0
 794 01b0 06       		.uleb128 0x6
 795 01b1 63747800 		.ascii	"ctx\000"
 796 01b5 09       		.byte	0x9
 797 01b6 B1       		.byte	0xb1
 798 01b7 21       		.byte	0x21
ARM GAS  C:\Users\DEVELO~1\AppData\Local\Temp\ccm6t1vr.s 			page 15


 799 01b8 A10C0000 		.4byte	0xca1
 800 01bc 0C       		.byte	0xc
 801 01bd 01       		.uleb128 0x1
 802 01be 16070000 		.4byte	.LASF33
 803 01c2 09       		.byte	0x9
 804 01c3 B6       		.byte	0xb6
 805 01c4 21       		.byte	0x21
 806 01c5 C7030000 		.4byte	0x3c7
 807 01c9 10       		.byte	0x10
 808 01ca 01       		.uleb128 0x1
 809 01cb 89030000 		.4byte	.LASF34
 810 01cf 09       		.byte	0x9
 811 01d0 BB       		.byte	0xbb
 812 01d1 22       		.byte	0x22
 813 01d2 3A0E0000 		.4byte	0xe3a
 814 01d6 18       		.byte	0x18
 815 01d7 01       		.uleb128 0x1
 816 01d8 2C000000 		.4byte	.LASF35
 817 01dc 09       		.byte	0x9
 818 01dd C0       		.byte	0xc0
 819 01de 22       		.byte	0x22
 820 01df 61030000 		.4byte	0x361
 821 01e3 1C       		.byte	0x1c
 822 01e4 01       		.uleb128 0x1
 823 01e5 08060000 		.4byte	.LASF36
 824 01e9 09       		.byte	0x9
 825 01ea C9       		.byte	0xc9
 826 01eb 22       		.byte	0x22
 827 01ec 3F0E0000 		.4byte	0xe3f
 828 01f0 20       		.byte	0x20
 829 01f1 01       		.uleb128 0x1
 830 01f2 7A0B0000 		.4byte	.LASF37
 831 01f6 09       		.byte	0x9
 832 01f7 CE       		.byte	0xce
 833 01f8 21       		.byte	0x21
 834 01f9 36010000 		.4byte	0x136
 835 01fd 24       		.byte	0x24
 836 01fe 01       		.uleb128 0x1
 837 01ff 8C000000 		.4byte	.LASF38
 838 0203 09       		.byte	0x9
 839 0204 D2       		.byte	0xd2
 840 0205 21       		.byte	0x21
 841 0206 2A010000 		.4byte	0x12a
 842 020a 25       		.byte	0x25
 843 020b 01       		.uleb128 0x1
 844 020c 38010000 		.4byte	.LASF39
 845 0210 09       		.byte	0x9
 846 0211 D7       		.byte	0xd7
 847 0212 21       		.byte	0x21
 848 0213 42010000 		.4byte	0x142
 849 0217 26       		.byte	0x26
 850 0218 05       		.uleb128 0x5
 851 0219 7500     		.ascii	"u\000"
 852 021b 09       		.byte	0x9
 853 021c 2801     		.2byte	0x128
 854 021e 21       		.byte	0x21
 855 021f 640D0000 		.4byte	0xd64
ARM GAS  C:\Users\DEVELO~1\AppData\Local\Temp\ccm6t1vr.s 			page 16


 856 0223 28       		.byte	0x28
 857 0224 02       		.uleb128 0x2
 858 0225 120B0000 		.4byte	.LASF40
 859 0229 09       		.byte	0x9
 860 022a 2D01     		.2byte	0x12d
 861 022c 21       		.byte	0x21
 862 022d 9B030000 		.4byte	0x39b
 863 0231 2C       		.byte	0x2c
 864 0232 02       		.uleb128 0x2
 865 0233 7A060000 		.4byte	.LASF41
 866 0237 09       		.byte	0x9
 867 0238 3301     		.2byte	0x133
 868 023a 21       		.byte	0x21
 869 023b C7030000 		.4byte	0x3c7
 870 023f 30       		.byte	0x30
 871 0240 02       		.uleb128 0x2
 872 0241 CC000000 		.4byte	.LASF42
 873 0245 09       		.byte	0x9
 874 0246 3901     		.2byte	0x139
 875 0248 21       		.byte	0x21
 876 0249 66010000 		.4byte	0x166
 877 024d 38       		.byte	0x38
 878 024e 02       		.uleb128 0x2
 879 024f B2030000 		.4byte	.LASF43
 880 0253 09       		.byte	0x9
 881 0254 4001     		.2byte	0x140
 882 0256 22       		.byte	0x22
 883 0257 350E0000 		.4byte	0xe35
 884 025b 3C       		.byte	0x3c
 885 025c 02       		.uleb128 0x2
 886 025d 9C000000 		.4byte	.LASF44
 887 0261 09       		.byte	0x9
 888 0262 4401     		.2byte	0x144
 889 0264 21       		.byte	0x21
 890 0265 4E010000 		.4byte	0x14e
 891 0269 40       		.byte	0x40
 892 026a 02       		.uleb128 0x2
 893 026b 180D0000 		.4byte	.LASF45
 894 026f 09       		.byte	0x9
 895 0270 4B01     		.2byte	0x14b
 896 0272 22       		.byte	0x22
 897 0273 B5040000 		.4byte	0x4b5
 898 0277 44       		.byte	0x44
 899 0278 00       		.byte	0
 900 0279 03       		.uleb128 0x3
 901 027a 8C0B0000 		.4byte	.LASF46
 902 027e 08       		.byte	0x8
 903 027f 8A       		.byte	0x8a
 904 0280 1F       		.byte	0x1f
 905 0281 85020000 		.4byte	0x285
 906 0285 20       		.uleb128 0x20
 907 0286 4D050000 		.4byte	.LASF48
 908 028a 9008     		.2byte	0x890
 909 028c 09       		.byte	0x9
 910 028d 8A01     		.2byte	0x18a
 911 028f 08       		.byte	0x8
 912 0290 13030000 		.4byte	0x313
ARM GAS  C:\Users\DEVELO~1\AppData\Local\Temp\ccm6t1vr.s 			page 17


 913 0294 02       		.uleb128 0x2
 914 0295 D3090000 		.4byte	.LASF49
 915 0299 09       		.byte	0x9
 916 029a 8E01     		.2byte	0x18e
 917 029c 21       		.byte	0x21
 918 029d 6F0E0000 		.4byte	0xe6f
 919 02a1 00       		.byte	0
 920 02a2 02       		.uleb128 0x2
 921 02a3 6D010000 		.4byte	.LASF50
 922 02a7 09       		.byte	0x9
 923 02a8 9201     		.2byte	0x192
 924 02aa 21       		.byte	0x21
 925 02ab F70C0000 		.4byte	0xcf7
 926 02af 10       		.byte	0x10
 927 02b0 02       		.uleb128 0x2
 928 02b1 A30B0000 		.4byte	.LASF51
 929 02b5 09       		.byte	0x9
 930 02b6 9901     		.2byte	0x199
 931 02b8 21       		.byte	0x21
 932 02b9 1E0D0000 		.4byte	0xd1e
 933 02bd 28       		.byte	0x28
 934 02be 02       		.uleb128 0x2
 935 02bf A40C0000 		.4byte	.LASF52
 936 02c3 09       		.byte	0x9
 937 02c4 9E01     		.2byte	0x19e
 938 02c6 21       		.byte	0x21
 939 02c7 7E010000 		.4byte	0x17e
 940 02cb 30       		.byte	0x30
 941 02cc 02       		.uleb128 0x2
 942 02cd 30040000 		.4byte	.LASF53
 943 02d1 09       		.byte	0x9
 944 02d2 A401     		.2byte	0x1a4
 945 02d4 21       		.byte	0x21
 946 02d5 3A030000 		.4byte	0x33a
 947 02d9 34       		.byte	0x34
 948 02da 02       		.uleb128 0x2
 949 02db 84080000 		.4byte	.LASF54
 950 02df 09       		.byte	0x9
 951 02e0 A901     		.2byte	0x1a9
 952 02e2 22       		.byte	0x22
 953 02e3 E30E0000 		.4byte	0xee3
 954 02e7 38       		.byte	0x38
 955 02e8 02       		.uleb128 0x2
 956 02e9 1C080000 		.4byte	.LASF55
 957 02ed 09       		.byte	0x9
 958 02ee AD01     		.2byte	0x1ad
 959 02f0 21       		.byte	0x21
 960 02f1 8A010000 		.4byte	0x18a
 961 02f5 3C       		.byte	0x3c
 962 02f6 05       		.uleb128 0x5
 963 02f7 64626700 		.ascii	"dbg\000"
 964 02fb 09       		.byte	0x9
 965 02fc B101     		.2byte	0x1b1
 966 02fe 21       		.byte	0x21
 967 02ff 77030000 		.4byte	0x377
 968 0303 84       		.byte	0x84
 969 0304 02       		.uleb128 0x2
ARM GAS  C:\Users\DEVELO~1\AppData\Local\Temp\ccm6t1vr.s 			page 18


 970 0305 AC0A0000 		.4byte	.LASF56
 971 0309 09       		.byte	0x9
 972 030a B601     		.2byte	0x1b6
 973 030c 21       		.byte	0x21
 974 030d 16060000 		.4byte	0x616
 975 0311 88       		.byte	0x88
 976 0312 00       		.byte	0
 977 0313 03       		.uleb128 0x3
 978 0314 D4050000 		.4byte	.LASF57
 979 0318 0A       		.byte	0xa
 980 0319 3F       		.byte	0x3f
 981 031a 12       		.byte	0x12
 982 031b E4000000 		.4byte	0xe4
 983 031f 07       		.uleb128 0x7
 984 0320 7B000000 		.4byte	.LASF58
 985 0324 04       		.byte	0x4
 986 0325 0A       		.byte	0xa
 987 0326 44       		.byte	0x44
 988 0327 10       		.byte	0x10
 989 0328 3A030000 		.4byte	0x33a
 990 032c 01       		.uleb128 0x1
 991 032d AA070000 		.4byte	.LASF59
 992 0331 0A       		.byte	0xa
 993 0332 48       		.byte	0x48
 994 0333 21       		.byte	0x21
 995 0334 13030000 		.4byte	0x313
 996 0338 00       		.byte	0
 997 0339 00       		.byte	0
 998 033a 03       		.uleb128 0x3
 999 033b 9F0A0000 		.4byte	.LASF60
 1000 033f 0A       		.byte	0xa
 1001 0340 49       		.byte	0x49
 1002 0341 03       		.byte	0x3
 1003 0342 1F030000 		.4byte	0x31f
 1004 0346 07       		.uleb128 0x7
 1005 0347 3B020000 		.4byte	.LASF61
 1006 034b 04       		.byte	0x4
 1007 034c 0B       		.byte	0xb
 1008 034d 3E       		.byte	0x3e
 1009 034e 10       		.byte	0x10
 1010 034f 61030000 		.4byte	0x361
 1011 0353 01       		.uleb128 0x1
 1012 0354 D4070000 		.4byte	.LASF62
 1013 0358 0B       		.byte	0xb
 1014 0359 46       		.byte	0x46
 1015 035a 24       		.byte	0x24
 1016 035b 66030000 		.4byte	0x366
 1017 035f 00       		.byte	0
 1018 0360 00       		.byte	0
 1019 0361 04       		.uleb128 0x4
 1020 0362 72030000 		.4byte	0x372
 1021 0366 15       		.uleb128 0x15
 1022 0367 61030000 		.4byte	0x361
 1023 036b 0A       		.uleb128 0xa
 1024 036c 01       		.byte	0x1
 1025 036d 08       		.byte	0x8
 1026 036e BF050000 		.4byte	.LASF63
ARM GAS  C:\Users\DEVELO~1\AppData\Local\Temp\ccm6t1vr.s 			page 19


 1027 0372 0C       		.uleb128 0xc
 1028 0373 6B030000 		.4byte	0x36b
 1029 0377 03       		.uleb128 0x3
 1030 0378 CB060000 		.4byte	.LASF64
 1031 037c 0B       		.byte	0xb
 1032 037d 51       		.byte	0x51
 1033 037e 03       		.byte	0x3
 1034 037f 46030000 		.4byte	0x346
 1035 0383 03       		.uleb128 0x3
 1036 0384 92000000 		.4byte	.LASF65
 1037 0388 0C       		.byte	0xc
 1038 0389 6D       		.byte	0x6d
 1039 038a 12       		.byte	0x12
 1040 038b E4000000 		.4byte	0xe4
 1041 038f 03       		.uleb128 0x3
 1042 0390 BE070000 		.4byte	.LASF66
 1043 0394 0C       		.byte	0xc
 1044 0395 79       		.byte	0x79
 1045 0396 12       		.byte	0x12
 1046 0397 E4000000 		.4byte	0xe4
 1047 039b 03       		.uleb128 0x3
 1048 039c 4A080000 		.4byte	.LASF67
 1049 03a0 0D       		.byte	0xd
 1050 03a1 32       		.byte	0x32
 1051 03a2 18       		.byte	0x18
 1052 03a3 A7030000 		.4byte	0x3a7
 1053 03a7 07       		.uleb128 0x7
 1054 03a8 0A020000 		.4byte	.LASF68
 1055 03ac 04       		.byte	0x4
 1056 03ad 0D       		.byte	0xd
 1057 03ae 38       		.byte	0x38
 1058 03af 08       		.byte	0x8
 1059 03b0 C2030000 		.4byte	0x3c2
 1060 03b4 01       		.uleb128 0x1
 1061 03b5 E2000000 		.4byte	.LASF69
 1062 03b9 0D       		.byte	0xd
 1063 03ba 39       		.byte	0x39
 1064 03bb 1A       		.byte	0x1a
 1065 03bc C2030000 		.4byte	0x3c2
 1066 03c0 00       		.byte	0
 1067 03c1 00       		.byte	0
 1068 03c2 04       		.uleb128 0x4
 1069 03c3 9B030000 		.4byte	0x39b
 1070 03c7 03       		.uleb128 0x3
 1071 03c8 8A010000 		.4byte	.LASF70
 1072 03cc 0D       		.byte	0xd
 1073 03cd 3F       		.byte	0x3f
 1074 03ce 19       		.byte	0x19
 1075 03cf D3030000 		.4byte	0x3d3
 1076 03d3 07       		.uleb128 0x7
 1077 03d4 DB0A0000 		.4byte	.LASF71
 1078 03d8 08       		.byte	0x8
 1079 03d9 0D       		.byte	0xd
 1080 03da 45       		.byte	0x45
 1081 03db 08       		.byte	0x8
 1082 03dc FB030000 		.4byte	0x3fb
 1083 03e0 01       		.uleb128 0x1
ARM GAS  C:\Users\DEVELO~1\AppData\Local\Temp\ccm6t1vr.s 			page 20


 1084 03e1 E2000000 		.4byte	.LASF69
 1085 03e5 0D       		.byte	0xd
 1086 03e6 46       		.byte	0x46
 1087 03e7 1A       		.byte	0x1a
 1088 03e8 FB030000 		.4byte	0x3fb
 1089 03ec 00       		.byte	0
 1090 03ed 01       		.uleb128 0x1
 1091 03ee ED010000 		.4byte	.LASF72
 1092 03f2 0D       		.byte	0xd
 1093 03f3 47       		.byte	0x47
 1094 03f4 1A       		.byte	0x1a
 1095 03f5 FB030000 		.4byte	0x3fb
 1096 03f9 04       		.byte	0x4
 1097 03fa 00       		.byte	0
 1098 03fb 04       		.uleb128 0x4
 1099 03fc C7030000 		.4byte	0x3c7
 1100 0400 03       		.uleb128 0x3
 1101 0401 FB040000 		.4byte	.LASF73
 1102 0405 0D       		.byte	0xd
 1103 0406 4E       		.byte	0x4e
 1104 0407 22       		.byte	0x22
 1105 0408 0C040000 		.4byte	0x40c
 1106 040c 07       		.uleb128 0x7
 1107 040d C00A0000 		.4byte	.LASF74
 1108 0411 0C       		.byte	0xc
 1109 0412 0D       		.byte	0xd
 1110 0413 55       		.byte	0x55
 1111 0414 08       		.byte	0x8
 1112 0415 41040000 		.4byte	0x441
 1113 0419 01       		.uleb128 0x1
 1114 041a E2000000 		.4byte	.LASF69
 1115 041e 0D       		.byte	0xd
 1116 041f 56       		.byte	0x56
 1117 0420 1A       		.byte	0x1a
 1118 0421 41040000 		.4byte	0x441
 1119 0425 00       		.byte	0
 1120 0426 01       		.uleb128 0x1
 1121 0427 ED010000 		.4byte	.LASF72
 1122 042b 0D       		.byte	0xd
 1123 042c 57       		.byte	0x57
 1124 042d 1A       		.byte	0x1a
 1125 042e 41040000 		.4byte	0x441
 1126 0432 04       		.byte	0x4
 1127 0433 01       		.uleb128 0x1
 1128 0434 98050000 		.4byte	.LASF75
 1129 0438 0D       		.byte	0xd
 1130 0439 58       		.byte	0x58
 1131 043a 19       		.byte	0x19
 1132 043b 4E010000 		.4byte	0x14e
 1133 043f 08       		.byte	0x8
 1134 0440 00       		.byte	0
 1135 0441 04       		.uleb128 0x4
 1136 0442 00040000 		.4byte	0x400
 1137 0446 03       		.uleb128 0x3
 1138 0447 C4050000 		.4byte	.LASF76
 1139 044b 0D       		.byte	0xd
 1140 044c 5F       		.byte	0x5f
ARM GAS  C:\Users\DEVELO~1\AppData\Local\Temp\ccm6t1vr.s 			page 21


 1141 044d 1E       		.byte	0x1e
 1142 044e 52040000 		.4byte	0x452
 1143 0452 07       		.uleb128 0x7
 1144 0453 60020000 		.4byte	.LASF77
 1145 0457 0C       		.byte	0xc
 1146 0458 0D       		.byte	0xd
 1147 0459 64       		.byte	0x64
 1148 045a 08       		.byte	0x8
 1149 045b 87040000 		.4byte	0x487
 1150 045f 01       		.uleb128 0x1
 1151 0460 E2000000 		.4byte	.LASF69
 1152 0464 0D       		.byte	0xd
 1153 0465 65       		.byte	0x65
 1154 0466 1A       		.byte	0x1a
 1155 0467 87040000 		.4byte	0x487
 1156 046b 00       		.byte	0
 1157 046c 01       		.uleb128 0x1
 1158 046d ED010000 		.4byte	.LASF72
 1159 0471 0D       		.byte	0xd
 1160 0472 66       		.byte	0x66
 1161 0473 1A       		.byte	0x1a
 1162 0474 87040000 		.4byte	0x487
 1163 0478 04       		.byte	0x4
 1164 0479 01       		.uleb128 0x1
 1165 047a EC0B0000 		.4byte	.LASF78
 1166 047e 0D       		.byte	0xd
 1167 047f 67       		.byte	0x67
 1168 0480 19       		.byte	0x19
 1169 0481 8F030000 		.4byte	0x38f
 1170 0485 08       		.byte	0x8
 1171 0486 00       		.byte	0
 1172 0487 04       		.uleb128 0x4
 1173 0488 46040000 		.4byte	0x446
 1174 048c 09       		.uleb128 0x9
 1175 048d 08       		.byte	0x8
 1176 048e 0E       		.byte	0xe
 1177 048f 83       		.byte	0x83
 1178 0490 05       		.byte	0x5
 1179 0491 B0040000 		.4byte	0x4b0
 1180 0495 06       		.uleb128 0x6
 1181 0496 6E747000 		.ascii	"ntp\000"
 1182 049a 0E       		.byte	0xe
 1183 049b 87       		.byte	0x87
 1184 049c 1E       		.byte	0x1e
 1185 049d B0040000 		.4byte	0x4b0
 1186 04a1 00       		.byte	0
 1187 04a2 01       		.uleb128 0x1
 1188 04a3 61010000 		.4byte	.LASF79
 1189 04a7 0E       		.byte	0xe
 1190 04a8 8B       		.byte	0x8b
 1191 04a9 1E       		.byte	0x1e
 1192 04aa B5040000 		.4byte	0x4b5
 1193 04ae 04       		.byte	0x4
 1194 04af 00       		.byte	0
 1195 04b0 04       		.uleb128 0x4
 1196 04b1 8A010000 		.4byte	0x18a
 1197 04b5 21       		.uleb128 0x21
ARM GAS  C:\Users\DEVELO~1\AppData\Local\Temp\ccm6t1vr.s 			page 22


 1198 04b6 04       		.byte	0x4
 1199 04b7 09       		.uleb128 0x9
 1200 04b8 08       		.byte	0x8
 1201 04b9 0E       		.byte	0xe
 1202 04ba 90       		.byte	0x90
 1203 04bb 05       		.byte	0x5
 1204 04bc DA040000 		.4byte	0x4da
 1205 04c0 06       		.uleb128 0x6
 1206 04c1 747000   		.ascii	"tp\000"
 1207 04c4 0E       		.byte	0xe
 1208 04c5 94       		.byte	0x94
 1209 04c6 1E       		.byte	0x1e
 1210 04c7 B0040000 		.4byte	0x4b0
 1211 04cb 00       		.byte	0
 1212 04cc 06       		.uleb128 0x6
 1213 04cd 6D736700 		.ascii	"msg\000"
 1214 04d1 0E       		.byte	0xe
 1215 04d2 98       		.byte	0x98
 1216 04d3 1D       		.byte	0x1d
 1217 04d4 5A010000 		.4byte	0x15a
 1218 04d8 04       		.byte	0x4
 1219 04d9 00       		.byte	0
 1220 04da 09       		.uleb128 0x9
 1221 04db 04       		.byte	0x4
 1222 04dc 0E       		.byte	0xe
 1223 04dd 9D       		.byte	0x9d
 1224 04de 05       		.byte	0x5
 1225 04df F1040000 		.4byte	0x4f1
 1226 04e3 01       		.uleb128 0x1
 1227 04e4 2C000000 		.4byte	.LASF35
 1228 04e8 0E       		.byte	0xe
 1229 04e9 A1       		.byte	0xa1
 1230 04ea 1E       		.byte	0x1e
 1231 04eb 61030000 		.4byte	0x361
 1232 04ef 00       		.byte	0
 1233 04f0 00       		.byte	0
 1234 04f1 09       		.uleb128 0x9
 1235 04f2 04       		.byte	0x4
 1236 04f3 0E       		.byte	0xe
 1237 04f4 A6       		.byte	0xa6
 1238 04f5 05       		.byte	0x5
 1239 04f6 08050000 		.4byte	0x508
 1240 04fa 01       		.uleb128 0x1
 1241 04fb 0B030000 		.4byte	.LASF80
 1242 04ff 0E       		.byte	0xe
 1243 0500 AA       		.byte	0xaa
 1244 0501 1E       		.byte	0x1e
 1245 0502 61030000 		.4byte	0x361
 1246 0506 00       		.byte	0
 1247 0507 00       		.byte	0
 1248 0508 09       		.uleb128 0x9
 1249 0509 08       		.byte	0x8
 1250 050a 0E       		.byte	0xe
 1251 050b AF       		.byte	0xaf
 1252 050c 05       		.byte	0x5
 1253 050d 2C050000 		.4byte	0x52c
 1254 0511 06       		.uleb128 0x6
ARM GAS  C:\Users\DEVELO~1\AppData\Local\Temp\ccm6t1vr.s 			page 23


 1255 0512 75703100 		.ascii	"up1\000"
 1256 0516 0E       		.byte	0xe
 1257 0517 B3       		.byte	0xb3
 1258 0518 1E       		.byte	0x1e
 1259 0519 B5040000 		.4byte	0x4b5
 1260 051d 00       		.byte	0
 1261 051e 06       		.uleb128 0x6
 1262 051f 75703200 		.ascii	"up2\000"
 1263 0523 0E       		.byte	0xe
 1264 0524 B7       		.byte	0xb7
 1265 0525 1E       		.byte	0x1e
 1266 0526 B5040000 		.4byte	0x4b5
 1267 052a 04       		.byte	0x4
 1268 052b 00       		.byte	0
 1269 052c 11       		.uleb128 0x11
 1270 052d 08       		.byte	0x8
 1271 052e 0E       		.byte	0xe
 1272 052f 7F       		.byte	0x7f
 1273 0530 03       		.byte	0x3
 1274 0531 71050000 		.4byte	0x571
 1275 0535 10       		.uleb128 0x10
 1276 0536 737700   		.ascii	"sw\000"
 1277 0539 0E       		.byte	0xe
 1278 053a 8C       		.byte	0x8c
 1279 053b 07       		.byte	0x7
 1280 053c 8C040000 		.4byte	0x48c
 1281 0540 10       		.uleb128 0x10
 1282 0541 72647900 		.ascii	"rdy\000"
 1283 0545 0E       		.byte	0xe
 1284 0546 99       		.byte	0x99
 1285 0547 07       		.byte	0x7
 1286 0548 B7040000 		.4byte	0x4b7
 1287 054c 10       		.uleb128 0x10
 1288 054d 69737200 		.ascii	"isr\000"
 1289 0551 0E       		.byte	0xe
 1290 0552 A2       		.byte	0xa2
 1291 0553 07       		.byte	0x7
 1292 0554 DA040000 		.4byte	0x4da
 1293 0558 0D       		.uleb128 0xd
 1294 0559 E4020000 		.4byte	.LASF81
 1295 055d 0E       		.byte	0xe
 1296 055e AB       		.byte	0xab
 1297 055f 07       		.byte	0x7
 1298 0560 F1040000 		.4byte	0x4f1
 1299 0564 0D       		.uleb128 0xd
 1300 0565 4E040000 		.4byte	.LASF82
 1301 0569 0E       		.byte	0xe
 1302 056a B8       		.byte	0xb8
 1303 056b 07       		.byte	0x7
 1304 056c 08050000 		.4byte	0x508
 1305 0570 00       		.byte	0
 1306 0571 09       		.uleb128 0x9
 1307 0572 10       		.byte	0x10
 1308 0573 0E       		.byte	0xe
 1309 0574 6C       		.byte	0x6c
 1310 0575 09       		.byte	0x9
 1311 0576 B7050000 		.4byte	0x5b7
ARM GAS  C:\Users\DEVELO~1\AppData\Local\Temp\ccm6t1vr.s 			page 24


 1312 057a 1A       		.uleb128 0x1a
 1313 057b EC0A0000 		.4byte	.LASF83
 1314 057f 70       		.byte	0x70
 1315 0580 E4000000 		.4byte	0xe4
 1316 0584 03       		.byte	0x3
 1317 0585 00       		.byte	0
 1318 0586 1A       		.uleb128 0x1a
 1319 0587 7A0B0000 		.4byte	.LASF37
 1320 058b 74       		.byte	0x74
 1321 058c E4000000 		.4byte	0xe4
 1322 0590 05       		.byte	0x5
 1323 0591 03       		.byte	0x3
 1324 0592 1A       		.uleb128 0x1a
 1325 0593 710A0000 		.4byte	.LASF84
 1326 0597 7A       		.byte	0x7a
 1327 0598 E4000000 		.4byte	0xe4
 1328 059c 18       		.byte	0x18
 1329 059d 08       		.byte	0x8
 1330 059e 01       		.uleb128 0x1
 1331 059f C5020000 		.4byte	.LASF85
 1332 05a3 0E       		.byte	0xe
 1333 05a4 7E       		.byte	0x7e
 1334 05a5 19       		.byte	0x19
 1335 05a6 83030000 		.4byte	0x383
 1336 05aa 04       		.byte	0x4
 1337 05ab 06       		.uleb128 0x6
 1338 05ac 7500     		.ascii	"u\000"
 1339 05ae 0E       		.byte	0xe
 1340 05af B9       		.byte	0xb9
 1341 05b0 05       		.byte	0x5
 1342 05b1 2C050000 		.4byte	0x52c
 1343 05b5 08       		.byte	0x8
 1344 05b6 00       		.byte	0
 1345 05b7 03       		.uleb128 0x3
 1346 05b8 8E020000 		.4byte	.LASF86
 1347 05bc 0E       		.byte	0xe
 1348 05bd BA       		.byte	0xba
 1349 05be 03       		.byte	0x3
 1350 05bf 71050000 		.4byte	0x571
 1351 05c3 1B       		.uleb128 0x1b
 1352 05c4 0808     		.2byte	0x808
 1353 05c6 0E       		.byte	0xe
 1354 05c7 C0       		.byte	0xc0
 1355 05c8 01060000 		.4byte	0x601
 1356 05cc 01       		.uleb128 0x1
 1357 05cd F0000000 		.4byte	.LASF87
 1358 05d1 0E       		.byte	0xe
 1359 05d2 C4       		.byte	0xc4
 1360 05d3 19       		.byte	0x19
 1361 05d4 CC000000 		.4byte	0xcc
 1362 05d8 00       		.byte	0
 1363 05d9 01       		.uleb128 0x1
 1364 05da 88070000 		.4byte	.LASF88
 1365 05de 0E       		.byte	0xe
 1366 05df C8       		.byte	0xc8
 1367 05e0 19       		.byte	0x19
 1368 05e1 CC000000 		.4byte	0xcc
ARM GAS  C:\Users\DEVELO~1\AppData\Local\Temp\ccm6t1vr.s 			page 25


 1369 05e5 02       		.byte	0x2
 1370 05e6 06       		.uleb128 0x6
 1371 05e7 70747200 		.ascii	"ptr\000"
 1372 05eb 0E       		.byte	0xe
 1373 05ec CC       		.byte	0xcc
 1374 05ed 1A       		.byte	0x1a
 1375 05ee 01060000 		.4byte	0x601
 1376 05f2 04       		.byte	0x4
 1377 05f3 01       		.uleb128 0x1
 1378 05f4 A5000000 		.4byte	.LASF89
 1379 05f8 0E       		.byte	0xe
 1380 05f9 D0       		.byte	0xd0
 1381 05fa 19       		.byte	0x19
 1382 05fb 06060000 		.4byte	0x606
 1383 05ff 08       		.byte	0x8
 1384 0600 00       		.byte	0
 1385 0601 04       		.uleb128 0x4
 1386 0602 B7050000 		.4byte	0x5b7
 1387 0606 16       		.uleb128 0x16
 1388 0607 B7050000 		.4byte	0x5b7
 1389 060b 16060000 		.4byte	0x616
 1390 060f 17       		.uleb128 0x17
 1391 0610 39000000 		.4byte	0x39
 1392 0614 7F       		.byte	0x7f
 1393 0615 00       		.byte	0
 1394 0616 03       		.uleb128 0x3
 1395 0617 E4070000 		.4byte	.LASF90
 1396 061b 0E       		.byte	0xe
 1397 061c D1       		.byte	0xd1
 1398 061d 03       		.byte	0x3
 1399 061e C3050000 		.4byte	0x5c3
 1400 0622 16       		.uleb128 0x16
 1401 0623 E4000000 		.4byte	0xe4
 1402 0627 32060000 		.4byte	0x632
 1403 062b 17       		.uleb128 0x17
 1404 062c 39000000 		.4byte	0x39
 1405 0630 03       		.byte	0x3
 1406 0631 00       		.byte	0
 1407 0632 12       		.uleb128 0x12
 1408 0633 18       		.byte	0x18
 1409 0634 0F       		.byte	0xf
 1410 0635 3002     		.2byte	0x230
 1411 0637 8F060000 		.4byte	0x68f
 1412 063b 05       		.uleb128 0x5
 1413 063c 435200   		.ascii	"CR\000"
 1414 063f 0F       		.byte	0xf
 1415 0640 3202     		.2byte	0x232
 1416 0642 11       		.byte	0x11
 1417 0643 F0000000 		.4byte	0xf0
 1418 0647 00       		.byte	0
 1419 0648 02       		.uleb128 0x2
 1420 0649 9F010000 		.4byte	.LASF91
 1421 064d 0F       		.byte	0xf
 1422 064e 3302     		.2byte	0x233
 1423 0650 11       		.byte	0x11
 1424 0651 F0000000 		.4byte	0xf0
 1425 0655 04       		.byte	0x4
ARM GAS  C:\Users\DEVELO~1\AppData\Local\Temp\ccm6t1vr.s 			page 26


 1426 0656 05       		.uleb128 0x5
 1427 0657 50415200 		.ascii	"PAR\000"
 1428 065b 0F       		.byte	0xf
 1429 065c 3402     		.2byte	0x234
 1430 065e 11       		.byte	0x11
 1431 065f F0000000 		.4byte	0xf0
 1432 0663 08       		.byte	0x8
 1433 0664 02       		.uleb128 0x2
 1434 0665 48050000 		.4byte	.LASF92
 1435 0669 0F       		.byte	0xf
 1436 066a 3502     		.2byte	0x235
 1437 066c 11       		.byte	0x11
 1438 066d F0000000 		.4byte	0xf0
 1439 0671 0C       		.byte	0xc
 1440 0672 02       		.uleb128 0x2
 1441 0673 1D0A0000 		.4byte	.LASF93
 1442 0677 0F       		.byte	0xf
 1443 0678 3602     		.2byte	0x236
 1444 067a 11       		.byte	0x11
 1445 067b F0000000 		.4byte	0xf0
 1446 067f 10       		.byte	0x10
 1447 0680 05       		.uleb128 0x5
 1448 0681 46435200 		.ascii	"FCR\000"
 1449 0685 0F       		.byte	0xf
 1450 0686 3702     		.2byte	0x237
 1451 0688 11       		.byte	0x11
 1452 0689 F0000000 		.4byte	0xf0
 1453 068d 14       		.byte	0x14
 1454 068e 00       		.byte	0
 1455 068f 0E       		.uleb128 0xe
 1456 0690 75070000 		.4byte	.LASF94
 1457 0694 0F       		.byte	0xf
 1458 0695 3802     		.2byte	0x238
 1459 0697 03       		.byte	0x3
 1460 0698 32060000 		.4byte	0x632
 1461 069c 12       		.uleb128 0x12
 1462 069d 14       		.byte	0x14
 1463 069e 0F       		.byte	0xf
 1464 069f 4202     		.2byte	0x242
 1465 06a1 EC060000 		.4byte	0x6ec
 1466 06a5 05       		.uleb128 0x5
 1467 06a6 43435200 		.ascii	"CCR\000"
 1468 06aa 0F       		.byte	0xf
 1469 06ab 4402     		.2byte	0x244
 1470 06ad 11       		.byte	0x11
 1471 06ae F0000000 		.4byte	0xf0
 1472 06b2 00       		.byte	0
 1473 06b3 02       		.uleb128 0x2
 1474 06b4 35020000 		.4byte	.LASF95
 1475 06b8 0F       		.byte	0xf
 1476 06b9 4502     		.2byte	0x245
 1477 06bb 11       		.byte	0x11
 1478 06bc F0000000 		.4byte	0xf0
 1479 06c0 04       		.byte	0x4
 1480 06c1 02       		.uleb128 0x2
 1481 06c2 33010000 		.4byte	.LASF96
 1482 06c6 0F       		.byte	0xf
ARM GAS  C:\Users\DEVELO~1\AppData\Local\Temp\ccm6t1vr.s 			page 27


 1483 06c7 4602     		.2byte	0x246
 1484 06c9 11       		.byte	0x11
 1485 06ca F0000000 		.4byte	0xf0
 1486 06ce 08       		.byte	0x8
 1487 06cf 02       		.uleb128 0x2
 1488 06d0 F20B0000 		.4byte	.LASF97
 1489 06d4 0F       		.byte	0xf
 1490 06d5 4702     		.2byte	0x247
 1491 06d7 11       		.byte	0x11
 1492 06d8 F0000000 		.4byte	0xf0
 1493 06dc 0C       		.byte	0xc
 1494 06dd 02       		.uleb128 0x2
 1495 06de A5090000 		.4byte	.LASF98
 1496 06e2 0F       		.byte	0xf
 1497 06e3 4802     		.2byte	0x248
 1498 06e5 11       		.byte	0x11
 1499 06e6 F0000000 		.4byte	0xf0
 1500 06ea 10       		.byte	0x10
 1501 06eb 00       		.byte	0
 1502 06ec 0E       		.uleb128 0xe
 1503 06ed 1D070000 		.4byte	.LASF99
 1504 06f1 0F       		.byte	0xf
 1505 06f2 4902     		.2byte	0x249
 1506 06f4 03       		.byte	0x3
 1507 06f5 9C060000 		.4byte	0x69c
 1508 06f9 12       		.uleb128 0x12
 1509 06fa 08       		.byte	0x8
 1510 06fb 0F       		.byte	0xf
 1511 06fc 4B02     		.2byte	0x24b
 1512 06fe 1F070000 		.4byte	0x71f
 1513 0702 05       		.uleb128 0x5
 1514 0703 49535200 		.ascii	"ISR\000"
 1515 0707 0F       		.byte	0xf
 1516 0708 4D02     		.2byte	0x24d
 1517 070a 11       		.byte	0x11
 1518 070b F0000000 		.4byte	0xf0
 1519 070f 00       		.byte	0
 1520 0710 02       		.uleb128 0x2
 1521 0711 2C0C0000 		.4byte	.LASF100
 1522 0715 0F       		.byte	0xf
 1523 0716 4E02     		.2byte	0x24e
 1524 0718 11       		.byte	0x11
 1525 0719 F0000000 		.4byte	0xf0
 1526 071d 04       		.byte	0x4
 1527 071e 00       		.byte	0
 1528 071f 0E       		.uleb128 0xe
 1529 0720 1A000000 		.4byte	.LASF101
 1530 0724 0F       		.byte	0xf
 1531 0725 4F02     		.2byte	0x24f
 1532 0727 03       		.byte	0x3
 1533 0728 F9060000 		.4byte	0x6f9
 1534 072c 12       		.uleb128 0x12
 1535 072d 04       		.byte	0x4
 1536 072e 0F       		.byte	0xf
 1537 072f 5102     		.2byte	0x251
 1538 0731 44070000 		.4byte	0x744
 1539 0735 05       		.uleb128 0x5
ARM GAS  C:\Users\DEVELO~1\AppData\Local\Temp\ccm6t1vr.s 			page 28


 1540 0736 43435200 		.ascii	"CCR\000"
 1541 073a 0F       		.byte	0xf
 1542 073b 5302     		.2byte	0x253
 1543 073d 12       		.byte	0x12
 1544 073e F0000000 		.4byte	0xf0
 1545 0742 00       		.byte	0
 1546 0743 00       		.byte	0
 1547 0744 0E       		.uleb128 0xe
 1548 0745 97080000 		.4byte	.LASF102
 1549 0749 0F       		.byte	0xf
 1550 074a 5402     		.2byte	0x254
 1551 074c 02       		.byte	0x2
 1552 074d 2C070000 		.4byte	0x72c
 1553 0751 16       		.uleb128 0x16
 1554 0752 E4000000 		.4byte	0xe4
 1555 0756 61070000 		.4byte	0x761
 1556 075a 17       		.uleb128 0x17
 1557 075b 39000000 		.4byte	0x39
 1558 075f 08       		.byte	0x8
 1559 0760 00       		.byte	0
 1560 0761 16       		.uleb128 0x16
 1561 0762 E4000000 		.4byte	0xe4
 1562 0766 71070000 		.4byte	0x771
 1563 076a 17       		.uleb128 0x17
 1564 076b 39000000 		.4byte	0x39
 1565 076f 02       		.byte	0x2
 1566 0770 00       		.byte	0
 1567 0771 22       		.uleb128 0x22
 1568 0772 3001     		.2byte	0x130
 1569 0774 0F       		.byte	0xf
 1570 0775 CE04     		.2byte	0x4ce
 1571 0777 09       		.byte	0x9
 1572 0778 0A0B0000 		.4byte	0xb0a
 1573 077c 05       		.uleb128 0x5
 1574 077d 435200   		.ascii	"CR\000"
 1575 0780 0F       		.byte	0xf
 1576 0781 D004     		.2byte	0x4d0
 1577 0783 10       		.byte	0x10
 1578 0784 F0000000 		.4byte	0xf0
 1579 0788 00       		.byte	0
 1580 0789 02       		.uleb128 0x2
 1581 078a 75080000 		.4byte	.LASF103
 1582 078e 0F       		.byte	0xf
 1583 078f D104     		.2byte	0x4d1
 1584 0791 10       		.byte	0x10
 1585 0792 F0000000 		.4byte	0xf0
 1586 0796 04       		.byte	0x4
 1587 0797 02       		.uleb128 0x2
 1588 0798 F80B0000 		.4byte	.LASF104
 1589 079c 0F       		.byte	0xf
 1590 079d D204     		.2byte	0x4d2
 1591 079f 10       		.byte	0x10
 1592 07a0 F0000000 		.4byte	0xf0
 1593 07a4 08       		.byte	0x8
 1594 07a5 02       		.uleb128 0x2
 1595 07a6 FF0A0000 		.4byte	.LASF105
 1596 07aa 0F       		.byte	0xf
ARM GAS  C:\Users\DEVELO~1\AppData\Local\Temp\ccm6t1vr.s 			page 29


 1597 07ab D304     		.2byte	0x4d3
 1598 07ad 10       		.byte	0x10
 1599 07ae F0000000 		.4byte	0xf0
 1600 07b2 0C       		.byte	0xc
 1601 07b3 02       		.uleb128 0x2
 1602 07b4 CE090000 		.4byte	.LASF106
 1603 07b8 0F       		.byte	0xf
 1604 07b9 D404     		.2byte	0x4d4
 1605 07bb 10       		.byte	0x10
 1606 07bc F0000000 		.4byte	0xf0
 1607 07c0 10       		.byte	0x10
 1608 07c1 02       		.uleb128 0x2
 1609 07c2 B8080000 		.4byte	.LASF107
 1610 07c6 0F       		.byte	0xf
 1611 07c7 D504     		.2byte	0x4d5
 1612 07c9 0F       		.byte	0xf
 1613 07ca E4000000 		.4byte	0xe4
 1614 07ce 14       		.byte	0x14
 1615 07cf 02       		.uleb128 0x2
 1616 07d0 4B0A0000 		.4byte	.LASF108
 1617 07d4 0F       		.byte	0xf
 1618 07d5 D604     		.2byte	0x4d6
 1619 07d7 10       		.byte	0x10
 1620 07d8 F0000000 		.4byte	0xf0
 1621 07dc 18       		.byte	0x18
 1622 07dd 02       		.uleb128 0x2
 1623 07de 18060000 		.4byte	.LASF109
 1624 07e2 0F       		.byte	0xf
 1625 07e3 D704     		.2byte	0x4d7
 1626 07e5 10       		.byte	0x10
 1627 07e6 F0000000 		.4byte	0xf0
 1628 07ea 1C       		.byte	0x1c
 1629 07eb 02       		.uleb128 0x2
 1630 07ec 14010000 		.4byte	.LASF110
 1631 07f0 0F       		.byte	0xf
 1632 07f1 D804     		.2byte	0x4d8
 1633 07f3 10       		.byte	0x10
 1634 07f4 F0000000 		.4byte	0xf0
 1635 07f8 20       		.byte	0x20
 1636 07f9 02       		.uleb128 0x2
 1637 07fa C2080000 		.4byte	.LASF111
 1638 07fe 0F       		.byte	0xf
 1639 07ff D904     		.2byte	0x4d9
 1640 0801 0F       		.byte	0xf
 1641 0802 E4000000 		.4byte	0xe4
 1642 0806 24       		.byte	0x24
 1643 0807 02       		.uleb128 0x2
 1644 0808 0A0A0000 		.4byte	.LASF112
 1645 080c 0F       		.byte	0xf
 1646 080d DA04     		.2byte	0x4da
 1647 080f 10       		.byte	0x10
 1648 0810 F0000000 		.4byte	0xf0
 1649 0814 28       		.byte	0x28
 1650 0815 02       		.uleb128 0x2
 1651 0816 020A0000 		.4byte	.LASF113
 1652 081a 0F       		.byte	0xf
 1653 081b DB04     		.2byte	0x4db
ARM GAS  C:\Users\DEVELO~1\AppData\Local\Temp\ccm6t1vr.s 			page 30


 1654 081d 10       		.byte	0x10
 1655 081e F0000000 		.4byte	0xf0
 1656 0822 2C       		.byte	0x2c
 1657 0823 02       		.uleb128 0x2
 1658 0824 D20A0000 		.4byte	.LASF114
 1659 0828 0F       		.byte	0xf
 1660 0829 DC04     		.2byte	0x4dc
 1661 082b 10       		.byte	0x10
 1662 082c F0000000 		.4byte	0xf0
 1663 0830 30       		.byte	0x30
 1664 0831 02       		.uleb128 0x2
 1665 0832 390A0000 		.4byte	.LASF115
 1666 0836 0F       		.byte	0xf
 1667 0837 DD04     		.2byte	0x4dd
 1668 0839 10       		.byte	0x10
 1669 083a F0000000 		.4byte	0xf0
 1670 083e 34       		.byte	0x34
 1671 083f 02       		.uleb128 0x2
 1672 0840 83060000 		.4byte	.LASF116
 1673 0844 0F       		.byte	0xf
 1674 0845 DE04     		.2byte	0x4de
 1675 0847 10       		.byte	0x10
 1676 0848 F0000000 		.4byte	0xf0
 1677 084c 38       		.byte	0x38
 1678 084d 02       		.uleb128 0x2
 1679 084e F4050000 		.4byte	.LASF117
 1680 0852 0F       		.byte	0xf
 1681 0853 DF04     		.2byte	0x4df
 1682 0855 10       		.byte	0x10
 1683 0856 F0000000 		.4byte	0xf0
 1684 085a 3C       		.byte	0x3c
 1685 085b 02       		.uleb128 0x2
 1686 085c 74010000 		.4byte	.LASF118
 1687 0860 0F       		.byte	0xf
 1688 0861 E004     		.2byte	0x4e0
 1689 0863 10       		.byte	0x10
 1690 0864 F0000000 		.4byte	0xf0
 1691 0868 40       		.byte	0x40
 1692 0869 02       		.uleb128 0x2
 1693 086a AC000000 		.4byte	.LASF119
 1694 086e 0F       		.byte	0xf
 1695 086f E104     		.2byte	0x4e1
 1696 0871 10       		.byte	0x10
 1697 0872 F0000000 		.4byte	0xf0
 1698 0876 44       		.byte	0x44
 1699 0877 02       		.uleb128 0x2
 1700 0878 CC080000 		.4byte	.LASF120
 1701 087c 0F       		.byte	0xf
 1702 087d E204     		.2byte	0x4e2
 1703 087f 10       		.byte	0x10
 1704 0880 E4000000 		.4byte	0xe4
 1705 0884 48       		.byte	0x48
 1706 0885 02       		.uleb128 0x2
 1707 0886 BA090000 		.4byte	.LASF121
 1708 088a 0F       		.byte	0xf
 1709 088b E304     		.2byte	0x4e3
 1710 088d 11       		.byte	0x11
ARM GAS  C:\Users\DEVELO~1\AppData\Local\Temp\ccm6t1vr.s 			page 31


 1711 088e F0000000 		.4byte	0xf0
 1712 0892 4C       		.byte	0x4c
 1713 0893 02       		.uleb128 0x2
 1714 0894 74050000 		.4byte	.LASF122
 1715 0898 0F       		.byte	0xf
 1716 0899 E404     		.2byte	0x4e4
 1717 089b 11       		.byte	0x11
 1718 089c F0000000 		.4byte	0xf0
 1719 08a0 50       		.byte	0x50
 1720 08a1 02       		.uleb128 0x2
 1721 08a2 64060000 		.4byte	.LASF123
 1722 08a6 0F       		.byte	0xf
 1723 08a7 E504     		.2byte	0x4e5
 1724 08a9 11       		.byte	0x11
 1725 08aa F0000000 		.4byte	0xf0
 1726 08ae 54       		.byte	0x54
 1727 08af 02       		.uleb128 0x2
 1728 08b0 AB0B0000 		.4byte	.LASF124
 1729 08b4 0F       		.byte	0xf
 1730 08b5 E604     		.2byte	0x4e6
 1731 08b7 11       		.byte	0x11
 1732 08b8 F0000000 		.4byte	0xf0
 1733 08bc 58       		.byte	0x58
 1734 08bd 02       		.uleb128 0x2
 1735 08be D6080000 		.4byte	.LASF125
 1736 08c2 0F       		.byte	0xf
 1737 08c3 E704     		.2byte	0x4e7
 1738 08c5 10       		.byte	0x10
 1739 08c6 E4000000 		.4byte	0xe4
 1740 08ca 5C       		.byte	0x5c
 1741 08cb 02       		.uleb128 0x2
 1742 08cc 75060000 		.4byte	.LASF126
 1743 08d0 0F       		.byte	0xf
 1744 08d1 E804     		.2byte	0x4e8
 1745 08d3 11       		.byte	0x11
 1746 08d4 F0000000 		.4byte	0xf0
 1747 08d8 60       		.byte	0x60
 1748 08d9 02       		.uleb128 0x2
 1749 08da 3A0B0000 		.4byte	.LASF127
 1750 08de 0F       		.byte	0xf
 1751 08df E904     		.2byte	0x4e9
 1752 08e1 11       		.byte	0x11
 1753 08e2 F0000000 		.4byte	0xf0
 1754 08e6 64       		.byte	0x64
 1755 08e7 02       		.uleb128 0x2
 1756 08e8 70080000 		.4byte	.LASF128
 1757 08ec 0F       		.byte	0xf
 1758 08ed EA04     		.2byte	0x4ea
 1759 08ef 11       		.byte	0x11
 1760 08f0 F0000000 		.4byte	0xf0
 1761 08f4 68       		.byte	0x68
 1762 08f5 02       		.uleb128 0x2
 1763 08f6 770C0000 		.4byte	.LASF129
 1764 08fa 0F       		.byte	0xf
 1765 08fb EB04     		.2byte	0x4eb
 1766 08fd 0F       		.byte	0xf
 1767 08fe E4000000 		.4byte	0xe4
ARM GAS  C:\Users\DEVELO~1\AppData\Local\Temp\ccm6t1vr.s 			page 32


 1768 0902 6C       		.byte	0x6c
 1769 0903 02       		.uleb128 0x2
 1770 0904 1B010000 		.4byte	.LASF130
 1771 0908 0F       		.byte	0xf
 1772 0909 EC04     		.2byte	0x4ec
 1773 090b 11       		.byte	0x11
 1774 090c F0000000 		.4byte	0xf0
 1775 0910 70       		.byte	0x70
 1776 0911 05       		.uleb128 0x5
 1777 0912 43535200 		.ascii	"CSR\000"
 1778 0916 0F       		.byte	0xf
 1779 0917 ED04     		.2byte	0x4ed
 1780 0919 11       		.byte	0x11
 1781 091a F0000000 		.4byte	0xf0
 1782 091e 74       		.byte	0x74
 1783 091f 02       		.uleb128 0x2
 1784 0920 E0080000 		.4byte	.LASF131
 1785 0924 0F       		.byte	0xf
 1786 0925 EE04     		.2byte	0x4ee
 1787 0927 0F       		.byte	0xf
 1788 0928 E4000000 		.4byte	0xe4
 1789 092c 78       		.byte	0x78
 1790 092d 02       		.uleb128 0x2
 1791 092e 8F030000 		.4byte	.LASF132
 1792 0932 0F       		.byte	0xf
 1793 0933 EF04     		.2byte	0x4ef
 1794 0935 10       		.byte	0x10
 1795 0936 F0000000 		.4byte	0xf0
 1796 093a 7C       		.byte	0x7c
 1797 093b 02       		.uleb128 0x2
 1798 093c 050D0000 		.4byte	.LASF133
 1799 0940 0F       		.byte	0xf
 1800 0941 F004     		.2byte	0x4f0
 1801 0943 10       		.byte	0x10
 1802 0944 F0000000 		.4byte	0xf0
 1803 0948 80       		.byte	0x80
 1804 0949 02       		.uleb128 0x2
 1805 094a 54080000 		.4byte	.LASF134
 1806 094e 0F       		.byte	0xf
 1807 094f F104     		.2byte	0x4f1
 1808 0951 10       		.byte	0x10
 1809 0952 F0000000 		.4byte	0xf0
 1810 0956 84       		.byte	0x84
 1811 0957 02       		.uleb128 0x2
 1812 0958 470C0000 		.4byte	.LASF135
 1813 095c 0F       		.byte	0xf
 1814 095d F204     		.2byte	0x4f2
 1815 095f 10       		.byte	0x10
 1816 0960 F0000000 		.4byte	0xf0
 1817 0964 88       		.byte	0x88
 1818 0965 02       		.uleb128 0x2
 1819 0966 47090000 		.4byte	.LASF136
 1820 096a 0F       		.byte	0xf
 1821 096b F304     		.2byte	0x4f3
 1822 096d 10       		.byte	0x10
 1823 096e F0000000 		.4byte	0xf0
 1824 0972 8C       		.byte	0x8c
ARM GAS  C:\Users\DEVELO~1\AppData\Local\Temp\ccm6t1vr.s 			page 33


 1825 0973 02       		.uleb128 0x2
 1826 0974 F3070000 		.4byte	.LASF137
 1827 0978 0F       		.byte	0xf
 1828 0979 F404     		.2byte	0x4f4
 1829 097b 10       		.byte	0x10
 1830 097c F0000000 		.4byte	0xf0
 1831 0980 90       		.byte	0x90
 1832 0981 02       		.uleb128 0x2
 1833 0982 00000000 		.4byte	.LASF138
 1834 0986 0F       		.byte	0xf
 1835 0987 F504     		.2byte	0x4f5
 1836 0989 10       		.byte	0x10
 1837 098a F0000000 		.4byte	0xf0
 1838 098e 94       		.byte	0x94
 1839 098f 02       		.uleb128 0x2
 1840 0990 83000000 		.4byte	.LASF139
 1841 0994 0F       		.byte	0xf
 1842 0995 F604     		.2byte	0x4f6
 1843 0997 10       		.byte	0x10
 1844 0998 F0000000 		.4byte	0xf0
 1845 099c 98       		.byte	0x98
 1846 099d 02       		.uleb128 0x2
 1847 099e 1C050000 		.4byte	.LASF140
 1848 09a2 0F       		.byte	0xf
 1849 09a3 F704     		.2byte	0x4f7
 1850 09a5 10       		.byte	0x10
 1851 09a6 F0000000 		.4byte	0xf0
 1852 09aa 9C       		.byte	0x9c
 1853 09ab 05       		.uleb128 0x5
 1854 09ac 47435200 		.ascii	"GCR\000"
 1855 09b0 0F       		.byte	0xf
 1856 09b1 F804     		.2byte	0x4f8
 1857 09b3 10       		.byte	0x10
 1858 09b4 F0000000 		.4byte	0xf0
 1859 09b8 A0       		.byte	0xa0
 1860 09b9 02       		.uleb128 0x2
 1861 09ba F4080000 		.4byte	.LASF141
 1862 09be 0F       		.byte	0xf
 1863 09bf F904     		.2byte	0x4f9
 1864 09c1 0F       		.byte	0xf
 1865 09c2 E4000000 		.4byte	0xe4
 1866 09c6 A4       		.byte	0xa4
 1867 09c7 02       		.uleb128 0x2
 1868 09c8 DE070000 		.4byte	.LASF142
 1869 09cc 0F       		.byte	0xf
 1870 09cd FA04     		.2byte	0x4fa
 1871 09cf 10       		.byte	0x10
 1872 09d0 F0000000 		.4byte	0xf0
 1873 09d4 A8       		.byte	0xa8
 1874 09d5 02       		.uleb128 0x2
 1875 09d6 3F0B0000 		.4byte	.LASF143
 1876 09da 0F       		.byte	0xf
 1877 09db FB04     		.2byte	0x4fb
 1878 09dd 0F       		.byte	0xf
 1879 09de 51070000 		.4byte	0x751
 1880 09e2 AC       		.byte	0xac
 1881 09e3 05       		.uleb128 0x5
ARM GAS  C:\Users\DEVELO~1\AppData\Local\Temp\ccm6t1vr.s 			page 34


 1882 09e4 52535200 		.ascii	"RSR\000"
 1883 09e8 0F       		.byte	0xf
 1884 09e9 FC04     		.2byte	0x4fc
 1885 09eb 10       		.byte	0x10
 1886 09ec F0000000 		.4byte	0xf0
 1887 09f0 D0       		.byte	0xd0
 1888 09f1 02       		.uleb128 0x2
 1889 09f2 5C050000 		.4byte	.LASF144
 1890 09f6 0F       		.byte	0xf
 1891 09f7 FD04     		.2byte	0x4fd
 1892 09f9 10       		.byte	0x10
 1893 09fa F0000000 		.4byte	0xf0
 1894 09fe D4       		.byte	0xd4
 1895 09ff 02       		.uleb128 0x2
 1896 0a00 B5020000 		.4byte	.LASF145
 1897 0a04 0F       		.byte	0xf
 1898 0a05 FE04     		.2byte	0x4fe
 1899 0a07 10       		.byte	0x10
 1900 0a08 F0000000 		.4byte	0xf0
 1901 0a0c D8       		.byte	0xd8
 1902 0a0d 02       		.uleb128 0x2
 1903 0a0e 820A0000 		.4byte	.LASF146
 1904 0a12 0F       		.byte	0xf
 1905 0a13 FF04     		.2byte	0x4ff
 1906 0a15 10       		.byte	0x10
 1907 0a16 F0000000 		.4byte	0xf0
 1908 0a1a DC       		.byte	0xdc
 1909 0a1b 02       		.uleb128 0x2
 1910 0a1c 6F0C0000 		.4byte	.LASF147
 1911 0a20 0F       		.byte	0xf
 1912 0a21 0005     		.2byte	0x500
 1913 0a23 10       		.byte	0x10
 1914 0a24 F0000000 		.4byte	0xf0
 1915 0a28 E0       		.byte	0xe0
 1916 0a29 02       		.uleb128 0x2
 1917 0a2a 2D020000 		.4byte	.LASF148
 1918 0a2e 0F       		.byte	0xf
 1919 0a2f 0105     		.2byte	0x501
 1920 0a31 10       		.byte	0x10
 1921 0a32 F0000000 		.4byte	0xf0
 1922 0a36 E4       		.byte	0xe4
 1923 0a37 02       		.uleb128 0x2
 1924 0a38 FC0C0000 		.4byte	.LASF149
 1925 0a3c 0F       		.byte	0xf
 1926 0a3d 0205     		.2byte	0x502
 1927 0a3f 10       		.byte	0x10
 1928 0a40 F0000000 		.4byte	0xf0
 1929 0a44 E8       		.byte	0xe8
 1930 0a45 02       		.uleb128 0x2
 1931 0a46 140A0000 		.4byte	.LASF150
 1932 0a4a 0F       		.byte	0xf
 1933 0a4b 0305     		.2byte	0x503
 1934 0a4d 10       		.byte	0x10
 1935 0a4e F0000000 		.4byte	0xf0
 1936 0a52 EC       		.byte	0xec
 1937 0a53 02       		.uleb128 0x2
 1938 0a54 CC070000 		.4byte	.LASF151
ARM GAS  C:\Users\DEVELO~1\AppData\Local\Temp\ccm6t1vr.s 			page 35


 1939 0a58 0F       		.byte	0xf
 1940 0a59 0405     		.2byte	0x504
 1941 0a5b 10       		.byte	0x10
 1942 0a5c F0000000 		.4byte	0xf0
 1943 0a60 F0       		.byte	0xf0
 1944 0a61 02       		.uleb128 0x2
 1945 0a62 EB090000 		.4byte	.LASF152
 1946 0a66 0F       		.byte	0xf
 1947 0a67 0505     		.2byte	0x505
 1948 0a69 10       		.byte	0x10
 1949 0a6a F0000000 		.4byte	0xf0
 1950 0a6e F4       		.byte	0xf4
 1951 0a6f 02       		.uleb128 0x2
 1952 0a70 4A0B0000 		.4byte	.LASF153
 1953 0a74 0F       		.byte	0xf
 1954 0a75 0605     		.2byte	0x506
 1955 0a77 10       		.byte	0x10
 1956 0a78 E4000000 		.4byte	0xe4
 1957 0a7c F8       		.byte	0xf8
 1958 0a7d 02       		.uleb128 0x2
 1959 0a7e 2F0A0000 		.4byte	.LASF154
 1960 0a82 0F       		.byte	0xf
 1961 0a83 0705     		.2byte	0x507
 1962 0a85 10       		.byte	0x10
 1963 0a86 F0000000 		.4byte	0xf0
 1964 0a8a FC       		.byte	0xfc
 1965 0a8b 0F       		.uleb128 0xf
 1966 0a8c 04080000 		.4byte	.LASF155
 1967 0a90 0805     		.2byte	0x508
 1968 0a92 10       		.byte	0x10
 1969 0a93 F0000000 		.4byte	0xf0
 1970 0a97 0001     		.2byte	0x100
 1971 0a99 0F       		.uleb128 0xf
 1972 0a9a F2010000 		.4byte	.LASF156
 1973 0a9e 0905     		.2byte	0x509
 1974 0aa0 10       		.byte	0x10
 1975 0aa1 F0000000 		.4byte	0xf0
 1976 0aa5 0401     		.2byte	0x104
 1977 0aa7 0F       		.uleb128 0xf
 1978 0aa8 EA050000 		.4byte	.LASF157
 1979 0aac 0A05     		.2byte	0x50a
 1980 0aae 10       		.byte	0x10
 1981 0aaf F0000000 		.4byte	0xf0
 1982 0ab3 0801     		.2byte	0x108
 1983 0ab5 0F       		.uleb128 0xf
 1984 0ab6 06090000 		.4byte	.LASF158
 1985 0aba 0B05     		.2byte	0x50b
 1986 0abc 10       		.byte	0x10
 1987 0abd F0000000 		.4byte	0xf0
 1988 0ac1 0C01     		.2byte	0x10c
 1989 0ac3 0F       		.uleb128 0xf
 1990 0ac4 00030000 		.4byte	.LASF159
 1991 0ac8 0C05     		.2byte	0x50c
 1992 0aca 10       		.byte	0x10
 1993 0acb F0000000 		.4byte	0xf0
 1994 0acf 1001     		.2byte	0x110
 1995 0ad1 0F       		.uleb128 0xf
ARM GAS  C:\Users\DEVELO~1\AppData\Local\Temp\ccm6t1vr.s 			page 36


 1996 0ad2 AC0C0000 		.4byte	.LASF160
 1997 0ad6 0D05     		.2byte	0x50d
 1998 0ad8 10       		.byte	0x10
 1999 0ad9 F0000000 		.4byte	0xf0
 2000 0add 1401     		.2byte	0x114
 2001 0adf 0F       		.uleb128 0xf
 2002 0ae0 68000000 		.4byte	.LASF161
 2003 0ae4 0E05     		.2byte	0x50e
 2004 0ae6 10       		.byte	0x10
 2005 0ae7 F0000000 		.4byte	0xf0
 2006 0aeb 1801     		.2byte	0x118
 2007 0aed 0F       		.uleb128 0xf
 2008 0aee 53040000 		.4byte	.LASF162
 2009 0af2 0F05     		.2byte	0x50f
 2010 0af4 10       		.byte	0x10
 2011 0af5 F0000000 		.4byte	0xf0
 2012 0af9 1C01     		.2byte	0x11c
 2013 0afb 0F       		.uleb128 0xf
 2014 0afc 550B0000 		.4byte	.LASF163
 2015 0b00 1005     		.2byte	0x510
 2016 0b02 0F       		.byte	0xf
 2017 0b03 22060000 		.4byte	0x622
 2018 0b07 2001     		.2byte	0x120
 2019 0b09 00       		.byte	0
 2020 0b0a 0E       		.uleb128 0xe
 2021 0b0b 3D010000 		.4byte	.LASF164
 2022 0b0f 0F       		.byte	0xf
 2023 0b10 1205     		.2byte	0x512
 2024 0b12 03       		.byte	0x3
 2025 0b13 71070000 		.4byte	0x771
 2026 0b17 12       		.uleb128 0x12
 2027 0b18 54       		.byte	0x54
 2028 0b19 0F       		.byte	0xf
 2029 0b1a C405     		.2byte	0x5c4
 2030 0b1c 0E0C0000 		.4byte	0xc0e
 2031 0b20 05       		.uleb128 0x5
 2032 0b21 43523100 		.ascii	"CR1\000"
 2033 0b25 0F       		.byte	0xf
 2034 0b26 C605     		.2byte	0x5c6
 2035 0b28 11       		.byte	0x11
 2036 0b29 F0000000 		.4byte	0xf0
 2037 0b2d 00       		.byte	0
 2038 0b2e 05       		.uleb128 0x5
 2039 0b2f 43523200 		.ascii	"CR2\000"
 2040 0b33 0F       		.byte	0xf
 2041 0b34 C705     		.2byte	0x5c7
 2042 0b36 11       		.byte	0x11
 2043 0b37 F0000000 		.4byte	0xf0
 2044 0b3b 04       		.byte	0x4
 2045 0b3c 02       		.uleb128 0x2
 2046 0b3d 3D090000 		.4byte	.LASF165
 2047 0b41 0F       		.byte	0xf
 2048 0b42 C805     		.2byte	0x5c8
 2049 0b44 11       		.byte	0x11
 2050 0b45 F0000000 		.4byte	0xf0
 2051 0b49 08       		.byte	0x8
 2052 0b4a 02       		.uleb128 0x2
ARM GAS  C:\Users\DEVELO~1\AppData\Local\Temp\ccm6t1vr.s 			page 37


 2053 0b4b 42090000 		.4byte	.LASF166
 2054 0b4f 0F       		.byte	0xf
 2055 0b50 C905     		.2byte	0x5c9
 2056 0b52 11       		.byte	0x11
 2057 0b53 F0000000 		.4byte	0xf0
 2058 0b57 0C       		.byte	0xc
 2059 0b58 05       		.uleb128 0x5
 2060 0b59 49455200 		.ascii	"IER\000"
 2061 0b5d 0F       		.byte	0xf
 2062 0b5e CA05     		.2byte	0x5ca
 2063 0b60 11       		.byte	0x11
 2064 0b61 F0000000 		.4byte	0xf0
 2065 0b65 10       		.byte	0x10
 2066 0b66 05       		.uleb128 0x5
 2067 0b67 535200   		.ascii	"SR\000"
 2068 0b6a 0F       		.byte	0xf
 2069 0b6b CB05     		.2byte	0x5cb
 2070 0b6d 11       		.byte	0x11
 2071 0b6e F0000000 		.4byte	0xf0
 2072 0b72 14       		.byte	0x14
 2073 0b73 02       		.uleb128 0x2
 2074 0b74 2C0C0000 		.4byte	.LASF100
 2075 0b78 0F       		.byte	0xf
 2076 0b79 CC05     		.2byte	0x5cc
 2077 0b7b 11       		.byte	0x11
 2078 0b7c F0000000 		.4byte	0xf0
 2079 0b80 18       		.byte	0x18
 2080 0b81 02       		.uleb128 0x2
 2081 0b82 AE080000 		.4byte	.LASF167
 2082 0b86 0F       		.byte	0xf
 2083 0b87 CD05     		.2byte	0x5cd
 2084 0b89 11       		.byte	0x11
 2085 0b8a E4000000 		.4byte	0xe4
 2086 0b8e 1C       		.byte	0x1c
 2087 0b8f 02       		.uleb128 0x2
 2088 0b90 A3060000 		.4byte	.LASF168
 2089 0b94 0F       		.byte	0xf
 2090 0b95 CE05     		.2byte	0x5ce
 2091 0b97 11       		.byte	0x11
 2092 0b98 F0000000 		.4byte	0xf0
 2093 0b9c 20       		.byte	0x20
 2094 0b9d 02       		.uleb128 0x2
 2095 0b9e B8080000 		.4byte	.LASF107
 2096 0ba2 0F       		.byte	0xf
 2097 0ba3 CF05     		.2byte	0x5cf
 2098 0ba5 11       		.byte	0x11
 2099 0ba6 61070000 		.4byte	0x761
 2100 0baa 24       		.byte	0x24
 2101 0bab 02       		.uleb128 0x2
 2102 0bac 6B040000 		.4byte	.LASF169
 2103 0bb0 0F       		.byte	0xf
 2104 0bb1 D005     		.2byte	0x5d0
 2105 0bb3 11       		.byte	0x11
 2106 0bb4 F0000000 		.4byte	0xf0
 2107 0bb8 30       		.byte	0x30
 2108 0bb9 02       		.uleb128 0x2
 2109 0bba C2080000 		.4byte	.LASF111
ARM GAS  C:\Users\DEVELO~1\AppData\Local\Temp\ccm6t1vr.s 			page 38


 2110 0bbe 0F       		.byte	0xf
 2111 0bbf D105     		.2byte	0x5d1
 2112 0bc1 11       		.byte	0x11
 2113 0bc2 61070000 		.4byte	0x761
 2114 0bc6 34       		.byte	0x34
 2115 0bc7 02       		.uleb128 0x2
 2116 0bc8 35090000 		.4byte	.LASF170
 2117 0bcc 0F       		.byte	0xf
 2118 0bcd D205     		.2byte	0x5d2
 2119 0bcf 11       		.byte	0x11
 2120 0bd0 F0000000 		.4byte	0xf0
 2121 0bd4 40       		.byte	0x40
 2122 0bd5 02       		.uleb128 0x2
 2123 0bd6 8C060000 		.4byte	.LASF171
 2124 0bda 0F       		.byte	0xf
 2125 0bdb D305     		.2byte	0x5d3
 2126 0bdd 11       		.byte	0x11
 2127 0bde F0000000 		.4byte	0xf0
 2128 0be2 44       		.byte	0x44
 2129 0be3 02       		.uleb128 0x2
 2130 0be4 1C020000 		.4byte	.LASF172
 2131 0be8 0F       		.byte	0xf
 2132 0be9 D405     		.2byte	0x5d4
 2133 0beb 11       		.byte	0x11
 2134 0bec F0000000 		.4byte	0xf0
 2135 0bf0 48       		.byte	0x48
 2136 0bf1 02       		.uleb128 0x2
 2137 0bf2 67090000 		.4byte	.LASF173
 2138 0bf6 0F       		.byte	0xf
 2139 0bf7 D505     		.2byte	0x5d5
 2140 0bf9 11       		.byte	0x11
 2141 0bfa F0000000 		.4byte	0xf0
 2142 0bfe 4C       		.byte	0x4c
 2143 0bff 02       		.uleb128 0x2
 2144 0c00 720B0000 		.4byte	.LASF174
 2145 0c04 0F       		.byte	0xf
 2146 0c05 D605     		.2byte	0x5d6
 2147 0c07 11       		.byte	0x11
 2148 0c08 F0000000 		.4byte	0xf0
 2149 0c0c 50       		.byte	0x50
 2150 0c0d 00       		.byte	0
 2151 0c0e 0E       		.uleb128 0xe
 2152 0c0f 800B0000 		.4byte	.LASF175
 2153 0c13 0F       		.byte	0xf
 2154 0c14 D805     		.2byte	0x5d8
 2155 0c16 03       		.byte	0x3
 2156 0c17 170B0000 		.4byte	0xb17
 2157 0c1b 18       		.uleb128 0x18
 2158 0c1c 1E090000 		.4byte	.LASF176
 2159 0c20 24       		.byte	0x24
 2160 0c21 10       		.byte	0x10
 2161 0c22 E001     		.2byte	0x1e0
 2162 0c24 08       		.byte	0x8
 2163 0c25 A10C0000 		.4byte	0xca1
 2164 0c29 05       		.uleb128 0x5
 2165 0c2a 723400   		.ascii	"r4\000"
 2166 0c2d 10       		.byte	0x10
ARM GAS  C:\Users\DEVELO~1\AppData\Local\Temp\ccm6t1vr.s 			page 39


 2167 0c2e F901     		.2byte	0x1f9
 2168 0c30 11       		.byte	0x11
 2169 0c31 E4000000 		.4byte	0xe4
 2170 0c35 00       		.byte	0
 2171 0c36 05       		.uleb128 0x5
 2172 0c37 723500   		.ascii	"r5\000"
 2173 0c3a 10       		.byte	0x10
 2174 0c3b FA01     		.2byte	0x1fa
 2175 0c3d 11       		.byte	0x11
 2176 0c3e E4000000 		.4byte	0xe4
 2177 0c42 04       		.byte	0x4
 2178 0c43 05       		.uleb128 0x5
 2179 0c44 723600   		.ascii	"r6\000"
 2180 0c47 10       		.byte	0x10
 2181 0c48 FB01     		.2byte	0x1fb
 2182 0c4a 11       		.byte	0x11
 2183 0c4b E4000000 		.4byte	0xe4
 2184 0c4f 08       		.byte	0x8
 2185 0c50 05       		.uleb128 0x5
 2186 0c51 723700   		.ascii	"r7\000"
 2187 0c54 10       		.byte	0x10
 2188 0c55 FC01     		.2byte	0x1fc
 2189 0c57 11       		.byte	0x11
 2190 0c58 E4000000 		.4byte	0xe4
 2191 0c5c 0C       		.byte	0xc
 2192 0c5d 05       		.uleb128 0x5
 2193 0c5e 723800   		.ascii	"r8\000"
 2194 0c61 10       		.byte	0x10
 2195 0c62 FD01     		.2byte	0x1fd
 2196 0c64 11       		.byte	0x11
 2197 0c65 E4000000 		.4byte	0xe4
 2198 0c69 10       		.byte	0x10
 2199 0c6a 05       		.uleb128 0x5
 2200 0c6b 723900   		.ascii	"r9\000"
 2201 0c6e 10       		.byte	0x10
 2202 0c6f FE01     		.2byte	0x1fe
 2203 0c71 11       		.byte	0x11
 2204 0c72 E4000000 		.4byte	0xe4
 2205 0c76 14       		.byte	0x14
 2206 0c77 05       		.uleb128 0x5
 2207 0c78 72313000 		.ascii	"r10\000"
 2208 0c7c 10       		.byte	0x10
 2209 0c7d FF01     		.2byte	0x1ff
 2210 0c7f 11       		.byte	0x11
 2211 0c80 E4000000 		.4byte	0xe4
 2212 0c84 18       		.byte	0x18
 2213 0c85 05       		.uleb128 0x5
 2214 0c86 72313100 		.ascii	"r11\000"
 2215 0c8a 10       		.byte	0x10
 2216 0c8b 0002     		.2byte	0x200
 2217 0c8d 11       		.byte	0x11
 2218 0c8e E4000000 		.4byte	0xe4
 2219 0c92 1C       		.byte	0x1c
 2220 0c93 05       		.uleb128 0x5
 2221 0c94 6C7200   		.ascii	"lr\000"
 2222 0c97 10       		.byte	0x10
 2223 0c98 0102     		.2byte	0x201
ARM GAS  C:\Users\DEVELO~1\AppData\Local\Temp\ccm6t1vr.s 			page 40


 2224 0c9a 11       		.byte	0x11
 2225 0c9b E4000000 		.4byte	0xe4
 2226 0c9f 20       		.byte	0x20
 2227 0ca0 00       		.byte	0
 2228 0ca1 18       		.uleb128 0x18
 2229 0ca2 7D010000 		.4byte	.LASF177
 2230 0ca6 04       		.byte	0x4
 2231 0ca7 10       		.byte	0x10
 2232 0ca8 0A02     		.2byte	0x20a
 2233 0caa 08       		.byte	0x8
 2234 0cab BD0C0000 		.4byte	0xcbd
 2235 0caf 05       		.uleb128 0x5
 2236 0cb0 737000   		.ascii	"sp\000"
 2237 0cb3 10       		.byte	0x10
 2238 0cb4 0B02     		.2byte	0x20b
 2239 0cb6 1A       		.byte	0x1a
 2240 0cb7 BD0C0000 		.4byte	0xcbd
 2241 0cbb 00       		.byte	0
 2242 0cbc 00       		.byte	0
 2243 0cbd 04       		.uleb128 0x4
 2244 0cbe 1B0C0000 		.4byte	0xc1b
 2245 0cc2 07       		.uleb128 0x7
 2246 0cc3 BA030000 		.4byte	.LASF178
 2247 0cc7 18       		.byte	0x18
 2248 0cc8 09       		.byte	0x9
 2249 0cc9 64       		.byte	0x64
 2250 0cca 10       		.byte	0x10
 2251 0ccb F70C0000 		.4byte	0xcf7
 2252 0ccf 01       		.uleb128 0x1
 2253 0cd0 38030000 		.4byte	.LASF179
 2254 0cd4 09       		.byte	0x9
 2255 0cd5 68       		.byte	0x68
 2256 0cd6 21       		.byte	0x21
 2257 0cd7 46040000 		.4byte	0x446
 2258 0cdb 00       		.byte	0
 2259 0cdc 01       		.uleb128 0x1
 2260 0cdd 35040000 		.4byte	.LASF180
 2261 0ce1 09       		.byte	0x9
 2262 0ce2 73       		.byte	0x73
 2263 0ce3 21       		.byte	0x21
 2264 0ce4 83030000 		.4byte	0x383
 2265 0ce8 0C       		.byte	0xc
 2266 0ce9 01       		.uleb128 0x1
 2267 0cea DC010000 		.4byte	.LASF181
 2268 0cee 09       		.byte	0x9
 2269 0cef 79       		.byte	0x79
 2270 0cf0 21       		.byte	0x21
 2271 0cf1 01010000 		.4byte	0x101
 2272 0cf5 10       		.byte	0x10
 2273 0cf6 00       		.byte	0
 2274 0cf7 03       		.uleb128 0x3
 2275 0cf8 1A0B0000 		.4byte	.LASF182
 2276 0cfc 09       		.byte	0x9
 2277 0cfd 7B       		.byte	0x7b
 2278 0cfe 03       		.byte	0x3
 2279 0cff C20C0000 		.4byte	0xcc2
 2280 0d03 07       		.uleb128 0x7
ARM GAS  C:\Users\DEVELO~1\AppData\Local\Temp\ccm6t1vr.s 			page 41


 2281 0d04 52000000 		.4byte	.LASF183
 2282 0d08 08       		.byte	0x8
 2283 0d09 09       		.byte	0x9
 2284 0d0a 80       		.byte	0x80
 2285 0d0b 10       		.byte	0x10
 2286 0d0c 1E0D0000 		.4byte	0xd1e
 2287 0d10 01       		.uleb128 0x1
 2288 0d11 A60A0000 		.4byte	.LASF184
 2289 0d15 09       		.byte	0x9
 2290 0d16 84       		.byte	0x84
 2291 0d17 21       		.byte	0x21
 2292 0d18 C7030000 		.4byte	0x3c7
 2293 0d1c 00       		.byte	0
 2294 0d1d 00       		.byte	0
 2295 0d1e 03       		.uleb128 0x3
 2296 0d1f 32070000 		.4byte	.LASF185
 2297 0d23 09       		.byte	0x9
 2298 0d24 85       		.byte	0x85
 2299 0d25 03       		.byte	0x3
 2300 0d26 030D0000 		.4byte	0xd03
 2301 0d2a 03       		.uleb128 0x3
 2302 0d2b 3A000000 		.4byte	.LASF186
 2303 0d2f 09       		.byte	0x9
 2304 0d30 8A       		.byte	0x8a
 2305 0d31 14       		.byte	0x14
 2306 0d32 B0040000 		.4byte	0x4b0
 2307 0d36 11       		.uleb128 0x11
 2308 0d37 0C       		.byte	0xc
 2309 0d38 09       		.byte	0x9
 2310 0d39 A0       		.byte	0xa0
 2311 0d3a 03       		.byte	0x3
 2312 0d3b 640D0000 		.4byte	0xd64
 2313 0d3f 0D       		.uleb128 0xd
 2314 0d40 53020000 		.4byte	.LASF187
 2315 0d44 09       		.byte	0x9
 2316 0d45 A4       		.byte	0xa4
 2317 0d46 21       		.byte	0x21
 2318 0d47 9B030000 		.4byte	0x39b
 2319 0d4b 0D       		.uleb128 0xd
 2320 0d4c A60A0000 		.4byte	.LASF184
 2321 0d50 09       		.byte	0x9
 2322 0d51 A8       		.byte	0xa8
 2323 0d52 21       		.byte	0x21
 2324 0d53 C7030000 		.4byte	0x3c7
 2325 0d57 0D       		.uleb128 0xd
 2326 0d58 20030000 		.4byte	.LASF188
 2327 0d5c 09       		.byte	0x9
 2328 0d5d AC       		.byte	0xac
 2329 0d5e 21       		.byte	0x21
 2330 0d5f 00040000 		.4byte	0x400
 2331 0d63 00       		.byte	0
 2332 0d64 11       		.uleb128 0x11
 2333 0d65 04       		.byte	0x4
 2334 0d66 09       		.byte	0x9
 2335 0d67 EB       		.byte	0xeb
 2336 0d68 03       		.byte	0x3
 2337 0d69 CE0D0000 		.4byte	0xdce
ARM GAS  C:\Users\DEVELO~1\AppData\Local\Temp\ccm6t1vr.s 			page 42


 2338 0d6d 0D       		.uleb128 0xd
 2339 0d6e 64040000 		.4byte	.LASF189
 2340 0d72 09       		.byte	0x9
 2341 0d73 F2       		.byte	0xf2
 2342 0d74 21       		.byte	0x21
 2343 0d75 5A010000 		.4byte	0x15a
 2344 0d79 0D       		.uleb128 0xd
 2345 0d7a E90C0000 		.4byte	.LASF190
 2346 0d7e 09       		.byte	0x9
 2347 0d7f F9       		.byte	0xf9
 2348 0d80 21       		.byte	0x21
 2349 0d81 5A010000 		.4byte	0x15a
 2350 0d85 13       		.uleb128 0x13
 2351 0d86 61010000 		.4byte	.LASF79
 2352 0d8a 0001     		.2byte	0x100
 2353 0d8c 22       		.byte	0x22
 2354 0d8d B5040000 		.4byte	0x4b5
 2355 0d91 13       		.uleb128 0x13
 2356 0d92 B70C0000 		.4byte	.LASF191
 2357 0d96 0701     		.2byte	0x107
 2358 0d98 22       		.byte	0x22
 2359 0d99 CE0D0000 		.4byte	0xdce
 2360 0d9d 13       		.uleb128 0x13
 2361 0d9e 6E020000 		.4byte	.LASF192
 2362 0da2 0C01     		.2byte	0x10c
 2363 0da4 21       		.byte	0x21
 2364 0da5 5A010000 		.4byte	0x15a
 2365 0da9 13       		.uleb128 0x13
 2366 0daa B90A0000 		.4byte	.LASF193
 2367 0dae 1501     		.2byte	0x115
 2368 0db0 22       		.byte	0x22
 2369 0db1 FB0D0000 		.4byte	0xdfb
 2370 0db5 13       		.uleb128 0x13
 2371 0db6 BD0C0000 		.4byte	.LASF194
 2372 0dba 1E01     		.2byte	0x11e
 2373 0dbc 22       		.byte	0x22
 2374 0dbd 350E0000 		.4byte	0xe35
 2375 0dc1 13       		.uleb128 0x13
 2376 0dc2 E6010000 		.4byte	.LASF195
 2377 0dc6 2601     		.2byte	0x126
 2378 0dc8 21       		.byte	0x21
 2379 0dc9 66010000 		.4byte	0x166
 2380 0dcd 00       		.byte	0
 2381 0dce 04       		.uleb128 0x4
 2382 0dcf 2A0D0000 		.4byte	0xd2a
 2383 0dd3 07       		.uleb128 0x7
 2384 0dd4 A8020000 		.4byte	.LASF196
 2385 0dd8 0C       		.byte	0xc
 2386 0dd9 11       		.byte	0x11
 2387 0dda 34       		.byte	0x34
 2388 0ddb 10       		.byte	0x10
 2389 0ddc FB0D0000 		.4byte	0xdfb
 2390 0de0 01       		.uleb128 0x1
 2391 0de1 A60A0000 		.4byte	.LASF184
 2392 0de5 11       		.byte	0x11
 2393 0de6 35       		.byte	0x35
 2394 0de7 19       		.byte	0x19
ARM GAS  C:\Users\DEVELO~1\AppData\Local\Temp\ccm6t1vr.s 			page 43


 2395 0de8 C7030000 		.4byte	0x3c7
 2396 0dec 00       		.byte	0
 2397 0ded 06       		.uleb128 0x6
 2398 0dee 636E7400 		.ascii	"cnt\000"
 2399 0df2 11       		.byte	0x11
 2400 0df3 37       		.byte	0x37
 2401 0df4 19       		.byte	0x19
 2402 0df5 72010000 		.4byte	0x172
 2403 0df9 08       		.byte	0x8
 2404 0dfa 00       		.byte	0
 2405 0dfb 04       		.uleb128 0x4
 2406 0dfc D30D0000 		.4byte	0xdd3
 2407 0e00 07       		.uleb128 0x7
 2408 0e01 35050000 		.4byte	.LASF197
 2409 0e05 10       		.byte	0x10
 2410 0e06 12       		.byte	0x12
 2411 0e07 39       		.byte	0x39
 2412 0e08 08       		.byte	0x8
 2413 0e09 350E0000 		.4byte	0xe35
 2414 0e0d 01       		.uleb128 0x1
 2415 0e0e A60A0000 		.4byte	.LASF184
 2416 0e12 12       		.byte	0x12
 2417 0e13 3A       		.byte	0x3a
 2418 0e14 19       		.byte	0x19
 2419 0e15 C7030000 		.4byte	0x3c7
 2420 0e19 00       		.byte	0
 2421 0e1a 01       		.uleb128 0x1
 2422 0e1b 89030000 		.4byte	.LASF34
 2423 0e1f 12       		.byte	0x12
 2424 0e20 3C       		.byte	0x3c
 2425 0e21 1A       		.byte	0x1a
 2426 0e22 B0040000 		.4byte	0x4b0
 2427 0e26 08       		.byte	0x8
 2428 0e27 01       		.uleb128 0x1
 2429 0e28 E2000000 		.4byte	.LASF69
 2430 0e2c 12       		.byte	0x12
 2431 0e2d 3E       		.byte	0x3e
 2432 0e2e 1A       		.byte	0x1a
 2433 0e2f F40E0000 		.4byte	0xef4
 2434 0e33 0C       		.byte	0xc
 2435 0e34 00       		.byte	0
 2436 0e35 04       		.uleb128 0x4
 2437 0e36 000E0000 		.4byte	0xe00
 2438 0e3a 04       		.uleb128 0x4
 2439 0e3b 79020000 		.4byte	0x279
 2440 0e3f 04       		.uleb128 0x4
 2441 0e40 1E010000 		.4byte	0x11e
 2442 0e44 18       		.uleb128 0x18
 2443 0e45 FC010000 		.4byte	.LASF198
 2444 0e49 10       		.byte	0x10
 2445 0e4a 09       		.byte	0x9
 2446 0e4b 5C01     		.2byte	0x15c
 2447 0e4d 10       		.byte	0x10
 2448 0e4e 6F0E0000 		.4byte	0xe6f
 2449 0e52 02       		.uleb128 0x2
 2450 0e53 20030000 		.4byte	.LASF188
 2451 0e57 09       		.byte	0x9
ARM GAS  C:\Users\DEVELO~1\AppData\Local\Temp\ccm6t1vr.s 			page 44


 2452 0e58 6101     		.2byte	0x161
 2453 0e5a 21       		.byte	0x21
 2454 0e5b 00040000 		.4byte	0x400
 2455 0e5f 00       		.byte	0
 2456 0e60 02       		.uleb128 0x2
 2457 0e61 3F0C0000 		.4byte	.LASF199
 2458 0e65 09       		.byte	0x9
 2459 0e66 6501     		.2byte	0x165
 2460 0e68 22       		.byte	0x22
 2461 0e69 B0040000 		.4byte	0x4b0
 2462 0e6d 0C       		.byte	0xc
 2463 0e6e 00       		.byte	0
 2464 0e6f 0E       		.uleb128 0xe
 2465 0e70 640A0000 		.4byte	.LASF200
 2466 0e74 09       		.byte	0x9
 2467 0e75 6601     		.2byte	0x166
 2468 0e77 03       		.byte	0x3
 2469 0e78 440E0000 		.4byte	0xe44
 2470 0e7c 18       		.uleb128 0x18
 2471 0e7d 74090000 		.4byte	.LASF201
 2472 0e81 14       		.byte	0x14
 2473 0e82 09       		.byte	0x9
 2474 0e83 6B01     		.2byte	0x16b
 2475 0e85 10       		.byte	0x10
 2476 0e86 D10E0000 		.4byte	0xed1
 2477 0e8a 02       		.uleb128 0x2
 2478 0e8b 2C000000 		.4byte	.LASF35
 2479 0e8f 09       		.byte	0x9
 2480 0e90 6F01     		.2byte	0x16f
 2481 0e92 22       		.byte	0x22
 2482 0e93 61030000 		.4byte	0x361
 2483 0e97 00       		.byte	0
 2484 0e98 02       		.uleb128 0x2
 2485 0e99 27060000 		.4byte	.LASF202
 2486 0e9d 09       		.byte	0x9
 2487 0e9e 7501     		.2byte	0x175
 2488 0ea0 22       		.byte	0x22
 2489 0ea1 3F0E0000 		.4byte	0xe3f
 2490 0ea5 04       		.byte	0x4
 2491 0ea6 02       		.uleb128 0x2
 2492 0ea7 98030000 		.4byte	.LASF203
 2493 0eab 09       		.byte	0x9
 2494 0eac 7901     		.2byte	0x179
 2495 0eae 22       		.byte	0x22
 2496 0eaf 3F0E0000 		.4byte	0xe3f
 2497 0eb3 08       		.byte	0x8
 2498 0eb4 02       		.uleb128 0x2
 2499 0eb5 C30B0000 		.4byte	.LASF204
 2500 0eb9 09       		.byte	0x9
 2501 0eba 7F01     		.2byte	0x17f
 2502 0ebc 22       		.byte	0x22
 2503 0ebd 3F0E0000 		.4byte	0xe3f
 2504 0ec1 0C       		.byte	0xc
 2505 0ec2 02       		.uleb128 0x2
 2506 0ec3 89050000 		.4byte	.LASF205
 2507 0ec7 09       		.byte	0x9
 2508 0ec8 8301     		.2byte	0x183
ARM GAS  C:\Users\DEVELO~1\AppData\Local\Temp\ccm6t1vr.s 			page 45


 2509 0eca 22       		.byte	0x22
 2510 0ecb 3F0E0000 		.4byte	0xe3f
 2511 0ecf 10       		.byte	0x10
 2512 0ed0 00       		.byte	0
 2513 0ed1 0E       		.uleb128 0xe
 2514 0ed2 CF020000 		.4byte	.LASF206
 2515 0ed6 09       		.byte	0x9
 2516 0ed7 8501     		.2byte	0x185
 2517 0ed9 03       		.byte	0x3
 2518 0eda 7C0E0000 		.4byte	0xe7c
 2519 0ede 0C       		.uleb128 0xc
 2520 0edf D10E0000 		.4byte	0xed1
 2521 0ee3 04       		.uleb128 0x4
 2522 0ee4 DE0E0000 		.4byte	0xede
 2523 0ee8 03       		.uleb128 0x3
 2524 0ee9 E40A0000 		.4byte	.LASF207
 2525 0eed 12       		.byte	0x12
 2526 0eee 34       		.byte	0x34
 2527 0eef 19       		.byte	0x19
 2528 0ef0 000E0000 		.4byte	0xe00
 2529 0ef4 04       		.uleb128 0x4
 2530 0ef5 E80E0000 		.4byte	0xee8
 2531 0ef9 0A       		.uleb128 0xa
 2532 0efa 01       		.byte	0x1
 2533 0efb 02       		.byte	0x2
 2534 0efc 16050000 		.4byte	.LASF208
 2535 0f00 04       		.uleb128 0x4
 2536 0f01 BB000000 		.4byte	0xbb
 2537 0f05 12       		.uleb128 0x12
 2538 0f06 10       		.byte	0x10
 2539 0f07 13       		.byte	0x13
 2540 0f08 A701     		.2byte	0x1a7
 2541 0f0a 630F0000 		.4byte	0xf63
 2542 0f0e 02       		.uleb128 0x2
 2543 0f0f 92060000 		.4byte	.LASF209
 2544 0f13 13       		.byte	0x13
 2545 0f14 A801     		.2byte	0x1a8
 2546 0f16 1A       		.byte	0x1a
 2547 0f17 630F0000 		.4byte	0xf63
 2548 0f1b 00       		.byte	0
 2549 0f1c 02       		.uleb128 0x2
 2550 0f1d 82020000 		.4byte	.LASF210
 2551 0f21 13       		.byte	0x13
 2552 0f22 A901     		.2byte	0x1a9
 2553 0f24 1A       		.byte	0x1a
 2554 0f25 680F0000 		.4byte	0xf68
 2555 0f29 04       		.byte	0x4
 2556 0f2a 05       		.uleb128 0x5
 2557 0f2b 6D757800 		.ascii	"mux\000"
 2558 0f2f 13       		.byte	0x13
 2559 0f30 AB01     		.2byte	0x1ab
 2560 0f32 1B       		.byte	0x1b
 2561 0f33 6D0F0000 		.4byte	0xf6d
 2562 0f37 08       		.byte	0x8
 2563 0f38 02       		.uleb128 0x2
 2564 0f39 A2020000 		.4byte	.LASF211
 2565 0f3d 13       		.byte	0x13
ARM GAS  C:\Users\DEVELO~1\AppData\Local\Temp\ccm6t1vr.s 			page 46


 2566 0f3e AF01     		.2byte	0x1af
 2567 0f40 19       		.byte	0x19
 2568 0f41 BB000000 		.4byte	0xbb
 2569 0f45 0C       		.byte	0xc
 2570 0f46 02       		.uleb128 0x2
 2571 0f47 F20C0000 		.4byte	.LASF212
 2572 0f4b 13       		.byte	0x13
 2573 0f4c B101     		.2byte	0x1b1
 2574 0f4e 19       		.byte	0x19
 2575 0f4f BB000000 		.4byte	0xbb
 2576 0f53 0D       		.byte	0xd
 2577 0f54 02       		.uleb128 0x2
 2578 0f55 12030000 		.4byte	.LASF213
 2579 0f59 13       		.byte	0x13
 2580 0f5a B201     		.2byte	0x1b2
 2581 0f5c 19       		.byte	0x19
 2582 0f5d BB000000 		.4byte	0xbb
 2583 0f61 0E       		.byte	0xe
 2584 0f62 00       		.byte	0
 2585 0f63 04       		.uleb128 0x4
 2586 0f64 8F060000 		.4byte	0x68f
 2587 0f68 04       		.uleb128 0x4
 2588 0f69 F0000000 		.4byte	0xf0
 2589 0f6d 04       		.uleb128 0x4
 2590 0f6e 44070000 		.4byte	0x744
 2591 0f72 0E       		.uleb128 0xe
 2592 0f73 37060000 		.4byte	.LASF214
 2593 0f77 13       		.byte	0x13
 2594 0f78 B301     		.2byte	0x1b3
 2595 0f7a 03       		.byte	0x3
 2596 0f7b 050F0000 		.4byte	0xf05
 2597 0f7f 0C       		.uleb128 0xc
 2598 0f80 720F0000 		.4byte	0xf72
 2599 0f84 09       		.uleb128 0x9
 2600 0f85 14       		.byte	0x14
 2601 0f86 14       		.byte	0x14
 2602 0f87 E5       		.byte	0xe5
 2603 0f88 09       		.byte	0x9
 2604 0f89 DC0F0000 		.4byte	0xfdc
 2605 0f8d 01       		.uleb128 0x1
 2606 0f8e 27000000 		.4byte	.LASF215
 2607 0f92 14       		.byte	0x14
 2608 0f93 E6       		.byte	0xe6
 2609 0f94 1E       		.byte	0x1e
 2610 0f95 DC0F0000 		.4byte	0xfdc
 2611 0f99 00       		.byte	0
 2612 0f9a 01       		.uleb128 0x1
 2613 0f9b 68080000 		.4byte	.LASF216
 2614 0f9f 14       		.byte	0x14
 2615 0fa0 E7       		.byte	0xe7
 2616 0fa1 1E       		.byte	0x1e
 2617 0fa2 E10F0000 		.4byte	0xfe1
 2618 0fa6 04       		.byte	0x4
 2619 0fa7 01       		.uleb128 0x1
 2620 0fa8 A2020000 		.4byte	.LASF211
 2621 0fac 14       		.byte	0x14
 2622 0fad E8       		.byte	0xe8
ARM GAS  C:\Users\DEVELO~1\AppData\Local\Temp\ccm6t1vr.s 			page 47


 2623 0fae 1D       		.byte	0x1d
 2624 0faf BB000000 		.4byte	0xbb
 2625 0fb3 08       		.byte	0x8
 2626 0fb4 06       		.uleb128 0x6
 2627 0fb5 6D757800 		.ascii	"mux\000"
 2628 0fb9 14       		.byte	0x14
 2629 0fba EA       		.byte	0xea
 2630 0fbb 1E       		.byte	0x1e
 2631 0fbc 6D0F0000 		.4byte	0xf6d
 2632 0fc0 0C       		.byte	0xc
 2633 0fc1 01       		.uleb128 0x1
 2634 0fc2 F20C0000 		.4byte	.LASF212
 2635 0fc6 14       		.byte	0x14
 2636 0fc7 EB       		.byte	0xeb
 2637 0fc8 1D       		.byte	0x1d
 2638 0fc9 BB000000 		.4byte	0xbb
 2639 0fcd 10       		.byte	0x10
 2640 0fce 01       		.uleb128 0x1
 2641 0fcf 12030000 		.4byte	.LASF213
 2642 0fd3 14       		.byte	0x14
 2643 0fd4 EC       		.byte	0xec
 2644 0fd5 1D       		.byte	0x1d
 2645 0fd6 BB000000 		.4byte	0xbb
 2646 0fda 11       		.byte	0x11
 2647 0fdb 00       		.byte	0
 2648 0fdc 04       		.uleb128 0x4
 2649 0fdd 1F070000 		.4byte	0x71f
 2650 0fe1 04       		.uleb128 0x4
 2651 0fe2 EC060000 		.4byte	0x6ec
 2652 0fe6 03       		.uleb128 0x3
 2653 0fe7 900C0000 		.4byte	.LASF217
 2654 0feb 14       		.byte	0x14
 2655 0fec ED       		.byte	0xed
 2656 0fed 03       		.byte	0x3
 2657 0fee 840F0000 		.4byte	0xf84
 2658 0ff2 0C       		.uleb128 0xc
 2659 0ff3 E60F0000 		.4byte	0xfe6
 2660 0ff7 04       		.uleb128 0x4
 2661 0ff8 C7000000 		.4byte	0xc7
 2662 0ffc 1C       		.uleb128 0x1c
 2663 0ffd 61000000 		.4byte	0x61
 2664 1001 15       		.byte	0x15
 2665 1002 28       		.byte	0x28
 2666 1003 3E100000 		.4byte	0x103e
 2667 1007 08       		.uleb128 0x8
 2668 1008 22020000 		.4byte	.LASF218
 2669 100c 00       		.byte	0
 2670 100d 08       		.uleb128 0x8
 2671 100e 6C070000 		.4byte	.LASF219
 2672 1012 01       		.byte	0x1
 2673 1013 08       		.uleb128 0x8
 2674 1014 B6000000 		.4byte	.LASF220
 2675 1018 02       		.byte	0x2
 2676 1019 08       		.uleb128 0x8
 2677 101a 52010000 		.4byte	.LASF221
 2678 101e 03       		.byte	0x3
 2679 101f 08       		.uleb128 0x8
ARM GAS  C:\Users\DEVELO~1\AppData\Local\Temp\ccm6t1vr.s 			page 48


 2680 1020 9D050000 		.4byte	.LASF222
 2681 1024 04       		.byte	0x4
 2682 1025 08       		.uleb128 0x8
 2683 1026 C1060000 		.4byte	.LASF223
 2684 102a 05       		.byte	0x5
 2685 102b 08       		.uleb128 0x8
 2686 102c C2090000 		.4byte	.LASF224
 2687 1030 06       		.byte	0x6
 2688 1031 08       		.uleb128 0x8
 2689 1032 660B0000 		.4byte	.LASF225
 2690 1036 07       		.byte	0x7
 2691 1037 08       		.uleb128 0x8
 2692 1038 8B080000 		.4byte	.LASF226
 2693 103c 08       		.byte	0x8
 2694 103d 00       		.byte	0
 2695 103e 03       		.uleb128 0x3
 2696 103f E8060000 		.4byte	.LASF227
 2697 1043 15       		.byte	0x15
 2698 1044 32       		.byte	0x32
 2699 1045 03       		.byte	0x3
 2700 1046 FC0F0000 		.4byte	0xffc
 2701 104a 09       		.uleb128 0x9
 2702 104b 08       		.byte	0x8
 2703 104c 15       		.byte	0x15
 2704 104d 37       		.byte	0x37
 2705 104e 09       		.byte	0x9
 2706 104f 6E100000 		.4byte	0x106e
 2707 1053 01       		.uleb128 0x1
 2708 1054 FA000000 		.4byte	.LASF228
 2709 1058 15       		.byte	0x15
 2710 1059 38       		.byte	0x38
 2711 105a 11       		.byte	0x11
 2712 105b E4000000 		.4byte	0xe4
 2713 105f 00       		.byte	0
 2714 1060 01       		.uleb128 0x1
 2715 1061 1F060000 		.4byte	.LASF229
 2716 1065 15       		.byte	0x15
 2717 1066 39       		.byte	0x39
 2718 1067 11       		.byte	0x11
 2719 1068 E4000000 		.4byte	0xe4
 2720 106c 04       		.byte	0x4
 2721 106d 00       		.byte	0
 2722 106e 03       		.uleb128 0x3
 2723 106f 1C0C0000 		.4byte	.LASF230
 2724 1073 15       		.byte	0x15
 2725 1074 3A       		.byte	0x3a
 2726 1075 03       		.byte	0x3
 2727 1076 4A100000 		.4byte	0x104a
 2728 107a 19       		.uleb128 0x19
 2729 107b F90E0000 		.4byte	0xef9
 2730 107f 89100000 		.4byte	0x1089
 2731 1083 0B       		.uleb128 0xb
 2732 1084 B5040000 		.4byte	0x4b5
 2733 1088 00       		.byte	0
 2734 1089 04       		.uleb128 0x4
 2735 108a 7A100000 		.4byte	0x107a
 2736 108e 19       		.uleb128 0x19
ARM GAS  C:\Users\DEVELO~1\AppData\Local\Temp\ccm6t1vr.s 			page 49


 2737 108f F90E0000 		.4byte	0xef9
 2738 1093 AC100000 		.4byte	0x10ac
 2739 1097 0B       		.uleb128 0xb
 2740 1098 B5040000 		.4byte	0x4b5
 2741 109c 0B       		.uleb128 0xb
 2742 109d E4000000 		.4byte	0xe4
 2743 10a1 0B       		.uleb128 0xb
 2744 10a2 000F0000 		.4byte	0xf00
 2745 10a6 0B       		.uleb128 0xb
 2746 10a7 E4000000 		.4byte	0xe4
 2747 10ab 00       		.byte	0
 2748 10ac 04       		.uleb128 0x4
 2749 10ad 8E100000 		.4byte	0x108e
 2750 10b1 19       		.uleb128 0x19
 2751 10b2 F90E0000 		.4byte	0xef9
 2752 10b6 CF100000 		.4byte	0x10cf
 2753 10ba 0B       		.uleb128 0xb
 2754 10bb B5040000 		.4byte	0x4b5
 2755 10bf 0B       		.uleb128 0xb
 2756 10c0 E4000000 		.4byte	0xe4
 2757 10c4 0B       		.uleb128 0xb
 2758 10c5 F70F0000 		.4byte	0xff7
 2759 10c9 0B       		.uleb128 0xb
 2760 10ca E4000000 		.4byte	0xe4
 2761 10ce 00       		.byte	0
 2762 10cf 04       		.uleb128 0x4
 2763 10d0 B1100000 		.4byte	0x10b1
 2764 10d4 19       		.uleb128 0x19
 2765 10d5 F90E0000 		.4byte	0xef9
 2766 10d9 E8100000 		.4byte	0x10e8
 2767 10dd 0B       		.uleb128 0xb
 2768 10de B5040000 		.4byte	0x4b5
 2769 10e2 0B       		.uleb128 0xb
 2770 10e3 E8100000 		.4byte	0x10e8
 2771 10e7 00       		.byte	0
 2772 10e8 04       		.uleb128 0x4
 2773 10e9 6E100000 		.4byte	0x106e
 2774 10ed 04       		.uleb128 0x4
 2775 10ee D4100000 		.4byte	0x10d4
 2776 10f2 09       		.uleb128 0x9
 2777 10f3 04       		.byte	0x4
 2778 10f4 16       		.byte	0x16
 2779 10f5 5B       		.byte	0x5b
 2780 10f6 05       		.byte	0x5
 2781 10f7 16110000 		.4byte	0x1116
 2782 10fb 06       		.uleb128 0x6
 2783 10fc 73657400 		.ascii	"set\000"
 2784 1100 16       		.byte	0x16
 2785 1101 5C       		.byte	0x5c
 2786 1102 19       		.byte	0x19
 2787 1103 CC000000 		.4byte	0xcc
 2788 1107 00       		.byte	0
 2789 1108 01       		.uleb128 0x1
 2790 1109 AC030000 		.4byte	.LASF231
 2791 110d 16       		.byte	0x16
 2792 110e 5D       		.byte	0x5d
 2793 110f 19       		.byte	0x19
ARM GAS  C:\Users\DEVELO~1\AppData\Local\Temp\ccm6t1vr.s 			page 50


 2794 1110 CC000000 		.4byte	0xcc
 2795 1114 02       		.byte	0x2
 2796 1115 00       		.byte	0
 2797 1116 11       		.uleb128 0x11
 2798 1117 04       		.byte	0x4
 2799 1118 16       		.byte	0x16
 2800 1119 59       		.byte	0x59
 2801 111a 0C       		.byte	0xc
 2802 111b 34110000 		.4byte	0x1134
 2803 111f 10       		.uleb128 0x10
 2804 1120 5700     		.ascii	"W\000"
 2805 1122 16       		.byte	0x16
 2806 1123 5A       		.byte	0x5a
 2807 1124 19       		.byte	0x19
 2808 1125 E4000000 		.4byte	0xe4
 2809 1129 10       		.uleb128 0x10
 2810 112a 4800     		.ascii	"H\000"
 2811 112c 16       		.byte	0x16
 2812 112d 5E       		.byte	0x5e
 2813 112e 07       		.byte	0x7
 2814 112f F2100000 		.4byte	0x10f2
 2815 1133 00       		.byte	0
 2816 1134 15       		.uleb128 0x15
 2817 1135 16110000 		.4byte	0x1116
 2818 1139 09       		.uleb128 0x9
 2819 113a 28       		.byte	0x28
 2820 113b 16       		.byte	0x16
 2821 113c 51       		.byte	0x51
 2822 113d 09       		.byte	0x9
 2823 113e C5110000 		.4byte	0x11c5
 2824 1142 01       		.uleb128 0x1
 2825 1143 3E030000 		.4byte	.LASF232
 2826 1147 16       		.byte	0x16
 2827 1148 53       		.byte	0x53
 2828 1149 19       		.byte	0x19
 2829 114a F0000000 		.4byte	0xf0
 2830 114e 00       		.byte	0
 2831 114f 01       		.uleb128 0x1
 2832 1150 6D090000 		.4byte	.LASF233
 2833 1154 16       		.byte	0x16
 2834 1155 54       		.byte	0x54
 2835 1156 19       		.byte	0x19
 2836 1157 F0000000 		.4byte	0xf0
 2837 115b 04       		.byte	0x4
 2838 115c 01       		.uleb128 0x1
 2839 115d 27080000 		.4byte	.LASF234
 2840 1161 16       		.byte	0x16
 2841 1162 55       		.byte	0x55
 2842 1163 19       		.byte	0x19
 2843 1164 F0000000 		.4byte	0xf0
 2844 1168 08       		.byte	0x8
 2845 1169 01       		.uleb128 0x1
 2846 116a 7D050000 		.4byte	.LASF235
 2847 116e 16       		.byte	0x16
 2848 116f 56       		.byte	0x56
 2849 1170 19       		.byte	0x19
 2850 1171 F0000000 		.4byte	0xf0
ARM GAS  C:\Users\DEVELO~1\AppData\Local\Temp\ccm6t1vr.s 			page 51


 2851 1175 0C       		.byte	0xc
 2852 1176 06       		.uleb128 0x6
 2853 1177 49445200 		.ascii	"IDR\000"
 2854 117b 16       		.byte	0x16
 2855 117c 57       		.byte	0x57
 2856 117d 19       		.byte	0x19
 2857 117e F0000000 		.4byte	0xf0
 2858 1182 10       		.byte	0x10
 2859 1183 06       		.uleb128 0x6
 2860 1184 4F445200 		.ascii	"ODR\000"
 2861 1188 16       		.byte	0x16
 2862 1189 58       		.byte	0x58
 2863 118a 19       		.byte	0x19
 2864 118b F0000000 		.4byte	0xf0
 2865 118f 14       		.byte	0x14
 2866 1190 01       		.uleb128 0x1
 2867 1191 4D000000 		.4byte	.LASF236
 2868 1195 16       		.byte	0x16
 2869 1196 5F       		.byte	0x5f
 2870 1197 05       		.byte	0x5
 2871 1198 34110000 		.4byte	0x1134
 2872 119c 18       		.byte	0x18
 2873 119d 01       		.uleb128 0x1
 2874 119e 2F080000 		.4byte	.LASF237
 2875 11a2 16       		.byte	0x16
 2876 11a3 60       		.byte	0x60
 2877 11a4 19       		.byte	0x19
 2878 11a5 F0000000 		.4byte	0xf0
 2879 11a9 1C       		.byte	0x1c
 2880 11aa 01       		.uleb128 0x1
 2881 11ab 6F050000 		.4byte	.LASF238
 2882 11af 16       		.byte	0x16
 2883 11b0 61       		.byte	0x61
 2884 11b1 19       		.byte	0x19
 2885 11b2 F0000000 		.4byte	0xf0
 2886 11b6 20       		.byte	0x20
 2887 11b7 01       		.uleb128 0x1
 2888 11b8 77030000 		.4byte	.LASF239
 2889 11bc 16       		.byte	0x16
 2890 11bd 62       		.byte	0x62
 2891 11be 19       		.byte	0x19
 2892 11bf F0000000 		.4byte	0xf0
 2893 11c3 24       		.byte	0x24
 2894 11c4 00       		.byte	0
 2895 11c5 03       		.uleb128 0x3
 2896 11c6 7C030000 		.4byte	.LASF240
 2897 11ca 16       		.byte	0x16
 2898 11cb 63       		.byte	0x63
 2899 11cc 03       		.byte	0x3
 2900 11cd 39110000 		.4byte	0x1139
 2901 11d1 03       		.uleb128 0x3
 2902 11d2 64050000 		.4byte	.LASF241
 2903 11d6 17       		.byte	0x17
 2904 11d7 D9       		.byte	0xd9
 2905 11d8 18       		.byte	0x18
 2906 11d9 DD110000 		.4byte	0x11dd
 2907 11dd 04       		.uleb128 0x4
ARM GAS  C:\Users\DEVELO~1\AppData\Local\Temp\ccm6t1vr.s 			page 52


 2908 11de C5110000 		.4byte	0x11c5
 2909 11e2 04       		.uleb128 0x4
 2910 11e3 7F0F0000 		.4byte	0xf7f
 2911 11e7 1C       		.uleb128 0x1c
 2912 11e8 61000000 		.4byte	0x61
 2913 11ec 18       		.byte	0x18
 2914 11ed 76       		.byte	0x76
 2915 11ee 11120000 		.4byte	0x1211
 2916 11f2 08       		.uleb128 0x8
 2917 11f3 5D080000 		.4byte	.LASF242
 2918 11f7 00       		.byte	0
 2919 11f8 08       		.uleb128 0x8
 2920 11f9 790A0000 		.4byte	.LASF243
 2921 11fd 01       		.byte	0x1
 2922 11fe 08       		.uleb128 0x8
 2923 11ff E1090000 		.4byte	.LASF244
 2924 1203 02       		.byte	0x2
 2925 1204 08       		.uleb128 0x8
 2926 1205 3D070000 		.4byte	.LASF245
 2927 1209 03       		.byte	0x3
 2928 120a 08       		.uleb128 0x8
 2929 120b CB0C0000 		.4byte	.LASF246
 2930 120f 04       		.byte	0x4
 2931 1210 00       		.byte	0
 2932 1211 03       		.uleb128 0x3
 2933 1212 2A090000 		.4byte	.LASF247
 2934 1216 18       		.byte	0x18
 2935 1217 7C       		.byte	0x7c
 2936 1218 03       		.byte	0x3
 2937 1219 E7110000 		.4byte	0x11e7
 2938 121d 03       		.uleb128 0x3
 2939 121e 12020000 		.4byte	.LASF248
 2940 1222 18       		.byte	0x18
 2941 1223 81       		.byte	0x81
 2942 1224 1F       		.byte	0x1f
 2943 1225 29120000 		.4byte	0x1229
 2944 1229 07       		.uleb128 0x7
 2945 122a 4B030000 		.4byte	.LASF249
 2946 122e 3C       		.byte	0x3c
 2947 122f 18       		.byte	0x18
 2948 1230 D8       		.byte	0xd8
 2949 1231 08       		.byte	0x8
 2950 1232 D1120000 		.4byte	0x12d1
 2951 1236 01       		.uleb128 0x1
 2952 1237 7A0B0000 		.4byte	.LASF37
 2953 123b 18       		.byte	0x18
 2954 123c DC       		.byte	0xdc
 2955 123d 1D       		.byte	0x1d
 2956 123e 11120000 		.4byte	0x1211
 2957 1242 00       		.byte	0
 2958 1243 01       		.uleb128 0x1
 2959 1244 84080000 		.4byte	.LASF54
 2960 1248 18       		.byte	0x18
 2961 1249 E0       		.byte	0xe0
 2962 124a 1E       		.byte	0x1e
 2963 124b C2130000 		.4byte	0x13c2
 2964 124f 04       		.byte	0x4
ARM GAS  C:\Users\DEVELO~1\AppData\Local\Temp\ccm6t1vr.s 			page 53


 2965 1250 01       		.uleb128 0x1
 2966 1251 310C0000 		.4byte	.LASF250
 2967 1255 18       		.byte	0x18
 2968 1256 E5       		.byte	0xe5
 2969 1257 1D       		.byte	0x1d
 2970 1258 2A0D0000 		.4byte	0xd2a
 2971 125c 08       		.byte	0x8
 2972 125d 01       		.uleb128 0x1
 2973 125e 9C020000 		.4byte	.LASF251
 2974 1262 18       		.byte	0x18
 2975 1263 EB       		.byte	0xeb
 2976 1264 1D       		.byte	0x1d
 2977 1265 E80E0000 		.4byte	0xee8
 2978 1269 0C       		.byte	0xc
 2979 126a 06       		.uleb128 0x6
 2980 126b 73706900 		.ascii	"spi\000"
 2981 126f 18       		.byte	0x18
 2982 1270 F1       		.byte	0xf1
 2983 1271 03       		.byte	0x3
 2984 1272 C7130000 		.4byte	0x13c7
 2985 1276 1C       		.byte	0x1c
 2986 1277 01       		.uleb128 0x1
 2987 1278 670C0000 		.4byte	.LASF252
 2988 127c 18       		.byte	0x18
 2989 127d F1       		.byte	0xf1
 2990 127e 03       		.byte	0x3
 2991 127f F90E0000 		.4byte	0xef9
 2992 1283 20       		.byte	0x20
 2993 1284 06       		.uleb128 0x6
 2994 1285 727800   		.ascii	"rx\000"
 2995 1288 18       		.byte	0x18
 2996 1289 F1       		.byte	0xf1
 2997 128a 03       		.byte	0x3
 2998 128b 79130000 		.4byte	0x1379
 2999 128f 24       		.byte	0x24
 3000 1290 06       		.uleb128 0x6
 3001 1291 747800   		.ascii	"tx\000"
 3002 1294 18       		.byte	0x18
 3003 1295 F1       		.byte	0xf1
 3004 1296 03       		.byte	0x3
 3005 1297 A0130000 		.4byte	0x13a0
 3006 129b 28       		.byte	0x28
 3007 129c 01       		.uleb128 0x1
 3008 129d 300B0000 		.4byte	.LASF253
 3009 12a1 18       		.byte	0x18
 3010 12a2 F1       		.byte	0xf1
 3011 12a3 03       		.byte	0x3
 3012 12a4 E4000000 		.4byte	0xe4
 3013 12a8 2C       		.byte	0x2c
 3014 12a9 01       		.uleb128 0x1
 3015 12aa FE050000 		.4byte	.LASF254
 3016 12ae 18       		.byte	0x18
 3017 12af F1       		.byte	0xf1
 3018 12b0 03       		.byte	0x3
 3019 12b1 E4000000 		.4byte	0xe4
 3020 12b5 30       		.byte	0x30
 3021 12b6 01       		.uleb128 0x1
ARM GAS  C:\Users\DEVELO~1\AppData\Local\Temp\ccm6t1vr.s 			page 54


 3022 12b7 C40C0000 		.4byte	.LASF255
 3023 12bb 18       		.byte	0x18
 3024 12bc F1       		.byte	0xf1
 3025 12bd 03       		.byte	0x3
 3026 12be E4000000 		.4byte	0xe4
 3027 12c2 34       		.byte	0x34
 3028 12c3 01       		.uleb128 0x1
 3029 12c4 AB090000 		.4byte	.LASF256
 3030 12c8 18       		.byte	0x18
 3031 12c9 F1       		.byte	0xf1
 3032 12ca 03       		.byte	0x3
 3033 12cb E4000000 		.4byte	0xe4
 3034 12cf 38       		.byte	0x38
 3035 12d0 00       		.byte	0
 3036 12d1 03       		.uleb128 0x3
 3037 12d2 3E050000 		.4byte	.LASF257
 3038 12d6 18       		.byte	0x18
 3039 12d7 86       		.byte	0x86
 3040 12d8 1F       		.byte	0x1f
 3041 12d9 E2120000 		.4byte	0x12e2
 3042 12dd 0C       		.uleb128 0xc
 3043 12de D1120000 		.4byte	0x12d1
 3044 12e2 07       		.uleb128 0x7
 3045 12e3 AF070000 		.4byte	.LASF258
 3046 12e7 1C       		.byte	0x1c
 3047 12e8 18       		.byte	0x18
 3048 12e9 9F       		.byte	0x9f
 3049 12ea 08       		.byte	0x8
 3050 12eb 58130000 		.4byte	0x1358
 3051 12ef 01       		.uleb128 0x1
 3052 12f0 31000000 		.4byte	.LASF259
 3053 12f4 18       		.byte	0x18
 3054 12f5 A4       		.byte	0xa4
 3055 12f6 1D       		.byte	0x1d
 3056 12f7 F90E0000 		.4byte	0xef9
 3057 12fb 00       		.byte	0
 3058 12fc 01       		.uleb128 0x1
 3059 12fd 83050000 		.4byte	.LASF260
 3060 1301 18       		.byte	0x18
 3061 1302 AA       		.byte	0xaa
 3062 1303 1D       		.byte	0x1d
 3063 1304 F90E0000 		.4byte	0xef9
 3064 1308 01       		.byte	0x1
 3065 1309 01       		.uleb128 0x1
 3066 130a D9090000 		.4byte	.LASF261
 3067 130e 18       		.byte	0x18
 3068 130f AF       		.byte	0xaf
 3069 1310 1D       		.byte	0x1d
 3070 1311 58130000 		.4byte	0x1358
 3071 1315 04       		.byte	0x4
 3072 1316 01       		.uleb128 0x1
 3073 1317 49010000 		.4byte	.LASF262
 3074 131b 18       		.byte	0x18
 3075 131c B3       		.byte	0xb3
 3076 131d 1D       		.byte	0x1d
 3077 131e 58130000 		.4byte	0x1358
 3078 1322 08       		.byte	0x8
ARM GAS  C:\Users\DEVELO~1\AppData\Local\Temp\ccm6t1vr.s 			page 55


 3079 1323 01       		.uleb128 0x1
 3080 1324 44030000 		.4byte	.LASF263
 3081 1328 18       		.byte	0x18
 3082 1329 CA       		.byte	0xca
 3083 132a 1D       		.byte	0x1d
 3084 132b D1110000 		.4byte	0x11d1
 3085 132f 0C       		.byte	0xc
 3086 1330 01       		.uleb128 0x1
 3087 1331 1E0D0000 		.4byte	.LASF264
 3088 1335 18       		.byte	0x18
 3089 1336 CF       		.byte	0xcf
 3090 1337 1D       		.byte	0x1d
 3091 1338 06010000 		.4byte	0x106
 3092 133c 10       		.byte	0x10
 3093 133d 01       		.uleb128 0x1
 3094 133e 5D0C0000 		.4byte	.LASF265
 3095 1342 18       		.byte	0x18
 3096 1343 D2       		.byte	0xd2
 3097 1344 03       		.byte	0x3
 3098 1345 E4000000 		.4byte	0xe4
 3099 1349 14       		.byte	0x14
 3100 134a 01       		.uleb128 0x1
 3101 134b 620C0000 		.4byte	.LASF266
 3102 134f 18       		.byte	0x18
 3103 1350 D2       		.byte	0xd2
 3104 1351 03       		.byte	0x3
 3105 1352 E4000000 		.4byte	0xe4
 3106 1356 18       		.byte	0x18
 3107 1357 00       		.byte	0
 3108 1358 03       		.uleb128 0x3
 3109 1359 4B020000 		.4byte	.LASF267
 3110 135d 18       		.byte	0x18
 3111 135e 8E       		.byte	0x8e
 3112 135f 10       		.byte	0x10
 3113 1360 64130000 		.4byte	0x1364
 3114 1364 04       		.uleb128 0x4
 3115 1365 69130000 		.4byte	0x1369
 3116 1369 23       		.uleb128 0x23
 3117 136a 74130000 		.4byte	0x1374
 3118 136e 0B       		.uleb128 0xb
 3119 136f 74130000 		.4byte	0x1374
 3120 1373 00       		.byte	0
 3121 1374 04       		.uleb128 0x4
 3122 1375 1D120000 		.4byte	0x121d
 3123 1379 11       		.uleb128 0x11
 3124 137a 04       		.byte	0x4
 3125 137b 18       		.byte	0x18
 3126 137c F1       		.byte	0xf1
 3127 137d 03       		.byte	0x3
 3128 137e 9B130000 		.4byte	0x139b
 3129 1382 10       		.uleb128 0x10
 3130 1383 646D6100 		.ascii	"dma\000"
 3131 1387 18       		.byte	0x18
 3132 1388 F1       		.byte	0xf1
 3133 1389 03       		.byte	0x3
 3134 138a E2110000 		.4byte	0x11e2
 3135 138e 0D       		.uleb128 0xd
ARM GAS  C:\Users\DEVELO~1\AppData\Local\Temp\ccm6t1vr.s 			page 56


 3136 138f 27000000 		.4byte	.LASF215
 3137 1393 18       		.byte	0x18
 3138 1394 F1       		.byte	0xf1
 3139 1395 03       		.byte	0x3
 3140 1396 9B130000 		.4byte	0x139b
 3141 139a 00       		.byte	0
 3142 139b 04       		.uleb128 0x4
 3143 139c F20F0000 		.4byte	0xff2
 3144 13a0 11       		.uleb128 0x11
 3145 13a1 04       		.byte	0x4
 3146 13a2 18       		.byte	0x18
 3147 13a3 F1       		.byte	0xf1
 3148 13a4 03       		.byte	0x3
 3149 13a5 C2130000 		.4byte	0x13c2
 3150 13a9 10       		.uleb128 0x10
 3151 13aa 646D6100 		.ascii	"dma\000"
 3152 13ae 18       		.byte	0x18
 3153 13af F1       		.byte	0xf1
 3154 13b0 03       		.byte	0x3
 3155 13b1 E2110000 		.4byte	0x11e2
 3156 13b5 0D       		.uleb128 0xd
 3157 13b6 27000000 		.4byte	.LASF215
 3158 13ba 18       		.byte	0x18
 3159 13bb F1       		.byte	0xf1
 3160 13bc 03       		.byte	0x3
 3161 13bd 9B130000 		.4byte	0x139b
 3162 13c1 00       		.byte	0
 3163 13c2 04       		.uleb128 0x4
 3164 13c3 DD120000 		.4byte	0x12dd
 3165 13c7 04       		.uleb128 0x4
 3166 13c8 0E0C0000 		.4byte	0xc0e
 3167 13cc 09       		.uleb128 0x9
 3168 13cd 0C       		.byte	0xc
 3169 13ce 19       		.byte	0x19
 3170 13cf 59       		.byte	0x59
 3171 13d0 09       		.byte	0x9
 3172 13d1 FD130000 		.4byte	0x13fd
 3173 13d5 01       		.uleb128 0x1
 3174 13d6 CA020000 		.4byte	.LASF268
 3175 13da 19       		.byte	0x19
 3176 13db 5D       		.byte	0x5d
 3177 13dc 2A       		.byte	0x2a
 3178 13dd 74130000 		.4byte	0x1374
 3179 13e1 00       		.byte	0
 3180 13e2 01       		.uleb128 0x1
 3181 13e3 B4090000 		.4byte	.LASF269
 3182 13e7 19       		.byte	0x19
 3183 13e8 61       		.byte	0x61
 3184 13e9 2A       		.byte	0x2a
 3185 13ea C2130000 		.4byte	0x13c2
 3186 13ee 04       		.byte	0x4
 3187 13ef 01       		.uleb128 0x1
 3188 13f0 D30B0000 		.4byte	.LASF270
 3189 13f4 19       		.byte	0x19
 3190 13f5 65       		.byte	0x65
 3191 13f6 2A       		.byte	0x2a
 3192 13f7 C2130000 		.4byte	0x13c2
ARM GAS  C:\Users\DEVELO~1\AppData\Local\Temp\ccm6t1vr.s 			page 57


 3193 13fb 08       		.byte	0x8
 3194 13fc 00       		.byte	0
 3195 13fd 03       		.uleb128 0x3
 3196 13fe 05070000 		.4byte	.LASF271
 3197 1402 19       		.byte	0x19
 3198 1403 66       		.byte	0x66
 3199 1404 03       		.byte	0x3
 3200 1405 CC130000 		.4byte	0x13cc
 3201 1409 0C       		.uleb128 0xc
 3202 140a FD130000 		.4byte	0x13fd
 3203 140e 07       		.uleb128 0x7
 3204 140f 20010000 		.4byte	.LASF272
 3205 1413 24       		.byte	0x24
 3206 1414 19       		.byte	0x19
 3207 1415 79       		.byte	0x79
 3208 1416 08       		.byte	0x8
 3209 1417 91140000 		.4byte	0x1491
 3210 141b 01       		.uleb128 0x1
 3211 141c 5C070000 		.4byte	.LASF273
 3212 1420 19       		.byte	0x19
 3213 1421 7A       		.byte	0x7a
 3214 1422 03       		.byte	0x3
 3215 1423 2D000000 		.4byte	0x2d
 3216 1427 00       		.byte	0
 3217 1428 01       		.uleb128 0x1
 3218 1429 9E070000 		.4byte	.LASF274
 3219 142d 19       		.byte	0x19
 3220 142e 7A       		.byte	0x7a
 3221 142f 03       		.byte	0x3
 3222 1430 89100000 		.4byte	0x1089
 3223 1434 04       		.byte	0x4
 3224 1435 01       		.uleb128 0x1
 3225 1436 500C0000 		.4byte	.LASF275
 3226 143a 19       		.byte	0x19
 3227 143b 7A       		.byte	0x7a
 3228 143c 03       		.byte	0x3
 3229 143d 89100000 		.4byte	0x1089
 3230 1441 08       		.byte	0x8
 3231 1442 01       		.uleb128 0x1
 3232 1443 FE080000 		.4byte	.LASF276
 3233 1447 19       		.byte	0x19
 3234 1448 7A       		.byte	0x7a
 3235 1449 03       		.byte	0x3
 3236 144a 89100000 		.4byte	0x1089
 3237 144e 0C       		.byte	0xc
 3238 144f 01       		.uleb128 0x1
 3239 1450 C1000000 		.4byte	.LASF277
 3240 1454 19       		.byte	0x19
 3241 1455 7A       		.byte	0x7a
 3242 1456 03       		.byte	0x3
 3243 1457 89100000 		.4byte	0x1089
 3244 145b 10       		.byte	0x10
 3245 145c 01       		.uleb128 0x1
 3246 145d FD090000 		.4byte	.LASF278
 3247 1461 19       		.byte	0x19
 3248 1462 7A       		.byte	0x7a
 3249 1463 03       		.byte	0x3
ARM GAS  C:\Users\DEVELO~1\AppData\Local\Temp\ccm6t1vr.s 			page 58


 3250 1464 AC100000 		.4byte	0x10ac
 3251 1468 14       		.byte	0x14
 3252 1469 01       		.uleb128 0x1
 3253 146a F3060000 		.4byte	.LASF279
 3254 146e 19       		.byte	0x19
 3255 146f 7A       		.byte	0x7a
 3256 1470 03       		.byte	0x3
 3257 1471 CF100000 		.4byte	0x10cf
 3258 1475 18       		.byte	0x18
 3259 1476 01       		.uleb128 0x1
 3260 1477 68010000 		.4byte	.LASF280
 3261 147b 19       		.byte	0x19
 3262 147c 7A       		.byte	0x7a
 3263 147d 03       		.byte	0x3
 3264 147e 89100000 		.4byte	0x1089
 3265 1482 1C       		.byte	0x1c
 3266 1483 01       		.uleb128 0x1
 3267 1484 2C050000 		.4byte	.LASF281
 3268 1488 19       		.byte	0x19
 3269 1489 7A       		.byte	0x7a
 3270 148a 03       		.byte	0x3
 3271 148b ED100000 		.4byte	0x10ed
 3272 148f 20       		.byte	0x20
 3273 1490 00       		.byte	0
 3274 1491 0C       		.uleb128 0xc
 3275 1492 0E140000 		.4byte	0x140e
 3276 1496 09       		.uleb128 0x9
 3277 1497 38       		.byte	0x38
 3278 1498 19       		.byte	0x19
 3279 1499 82       		.byte	0x82
 3280 149a 09       		.byte	0x9
 3281 149b 08150000 		.4byte	0x1508
 3282 149f 06       		.uleb128 0x6
 3283 14a0 766D7400 		.ascii	"vmt\000"
 3284 14a4 19       		.byte	0x19
 3285 14a5 86       		.byte	0x86
 3286 14a6 2A       		.byte	0x2a
 3287 14a7 08150000 		.4byte	0x1508
 3288 14ab 00       		.byte	0
 3289 14ac 01       		.uleb128 0x1
 3290 14ad 7A0B0000 		.4byte	.LASF37
 3291 14b1 19       		.byte	0x19
 3292 14b2 87       		.byte	0x87
 3293 14b3 03       		.byte	0x3
 3294 14b4 3E100000 		.4byte	0x103e
 3295 14b8 04       		.byte	0x4
 3296 14b9 06       		.uleb128 0x6
 3297 14ba 63696400 		.ascii	"cid\000"
 3298 14be 19       		.byte	0x19
 3299 14bf 87       		.byte	0x87
 3300 14c0 03       		.byte	0x3
 3301 14c1 22060000 		.4byte	0x622
 3302 14c5 08       		.byte	0x8
 3303 14c6 06       		.uleb128 0x6
 3304 14c7 63736400 		.ascii	"csd\000"
 3305 14cb 19       		.byte	0x19
 3306 14cc 87       		.byte	0x87
ARM GAS  C:\Users\DEVELO~1\AppData\Local\Temp\ccm6t1vr.s 			page 59


 3307 14cd 03       		.byte	0x3
 3308 14ce 22060000 		.4byte	0x622
 3309 14d2 18       		.byte	0x18
 3310 14d3 01       		.uleb128 0x1
 3311 14d4 72000000 		.4byte	.LASF282
 3312 14d8 19       		.byte	0x19
 3313 14d9 87       		.byte	0x87
 3314 14da 03       		.byte	0x3
 3315 14db E4000000 		.4byte	0xe4
 3316 14df 28       		.byte	0x28
 3317 14e0 01       		.uleb128 0x1
 3318 14e1 84080000 		.4byte	.LASF54
 3319 14e5 19       		.byte	0x19
 3320 14e6 8B       		.byte	0x8b
 3321 14e7 2A       		.byte	0x2a
 3322 14e8 0D150000 		.4byte	0x150d
 3323 14ec 2C       		.byte	0x2c
 3324 14ed 01       		.uleb128 0x1
 3325 14ee 67030000 		.4byte	.LASF283
 3326 14f2 19       		.byte	0x19
 3327 14f3 8F       		.byte	0x8f
 3328 14f4 29       		.byte	0x29
 3329 14f5 F90E0000 		.4byte	0xef9
 3330 14f9 30       		.byte	0x30
 3331 14fa 01       		.uleb128 0x1
 3332 14fb A5000000 		.4byte	.LASF89
 3333 14ff 19       		.byte	0x19
 3334 1500 93       		.byte	0x93
 3335 1501 2A       		.byte	0x2a
 3336 1502 000F0000 		.4byte	0xf00
 3337 1506 34       		.byte	0x34
 3338 1507 00       		.byte	0
 3339 1508 04       		.uleb128 0x4
 3340 1509 91140000 		.4byte	0x1491
 3341 150d 04       		.uleb128 0x4
 3342 150e 09140000 		.4byte	0x1409
 3343 1512 03       		.uleb128 0x3
 3344 1513 03010000 		.4byte	.LASF284
 3345 1517 19       		.byte	0x19
 3346 1518 94       		.byte	0x94
 3347 1519 03       		.byte	0x3
 3348 151a 96140000 		.4byte	0x1496
 3349 151e 03       		.uleb128 0x3
 3350 151f 5E000000 		.4byte	.LASF285
 3351 1523 19       		.byte	0x19
 3352 1524 9A       		.byte	0x9a
 3353 1525 1A       		.byte	0x1a
 3354 1526 12150000 		.4byte	0x1512
 3355 152a 09       		.uleb128 0x9
 3356 152b 1C       		.byte	0x1c
 3357 152c 02       		.byte	0x2
 3358 152d 29       		.byte	0x29
 3359 152e 09       		.byte	0x9
 3360 152f 8F150000 		.4byte	0x158f
 3361 1533 01       		.uleb128 0x1
 3362 1534 AF050000 		.4byte	.LASF286
 3363 1538 02       		.byte	0x2
ARM GAS  C:\Users\DEVELO~1\AppData\Local\Temp\ccm6t1vr.s 			page 60


 3364 1539 2A       		.byte	0x2a
 3365 153a 19       		.byte	0x19
 3366 153b E4000000 		.4byte	0xe4
 3367 153f 00       		.byte	0
 3368 1540 01       		.uleb128 0x1
 3369 1541 87020000 		.4byte	.LASF287
 3370 1545 02       		.byte	0x2
 3371 1546 2B       		.byte	0x2b
 3372 1547 19       		.byte	0x19
 3373 1548 E4000000 		.4byte	0xe4
 3374 154c 04       		.byte	0x4
 3375 154d 01       		.uleb128 0x1
 3376 154e 880C0000 		.4byte	.LASF288
 3377 1552 02       		.byte	0x2
 3378 1553 2C       		.byte	0x2c
 3379 1554 19       		.byte	0x19
 3380 1555 E4000000 		.4byte	0xe4
 3381 1559 08       		.byte	0x8
 3382 155a 01       		.uleb128 0x1
 3383 155b FF060000 		.4byte	.LASF289
 3384 155f 02       		.byte	0x2
 3385 1560 2D       		.byte	0x2d
 3386 1561 19       		.byte	0x19
 3387 1562 E4000000 		.4byte	0xe4
 3388 1566 0C       		.byte	0xc
 3389 1567 06       		.uleb128 0x6
 3390 1568 6F647200 		.ascii	"odr\000"
 3391 156c 02       		.byte	0x2
 3392 156d 2E       		.byte	0x2e
 3393 156e 19       		.byte	0x19
 3394 156f E4000000 		.4byte	0xe4
 3395 1573 10       		.byte	0x10
 3396 1574 01       		.uleb128 0x1
 3397 1575 99070000 		.4byte	.LASF290
 3398 1579 02       		.byte	0x2
 3399 157a 2F       		.byte	0x2f
 3400 157b 19       		.byte	0x19
 3401 157c E4000000 		.4byte	0xe4
 3402 1580 14       		.byte	0x14
 3403 1581 01       		.uleb128 0x1
 3404 1582 94070000 		.4byte	.LASF291
 3405 1586 02       		.byte	0x2
 3406 1587 30       		.byte	0x30
 3407 1588 19       		.byte	0x19
 3408 1589 E4000000 		.4byte	0xe4
 3409 158d 18       		.byte	0x18
 3410 158e 00       		.byte	0
 3411 158f 03       		.uleb128 0x3
 3412 1590 5A030000 		.4byte	.LASF292
 3413 1594 02       		.byte	0x2
 3414 1595 31       		.byte	0x31
 3415 1596 03       		.byte	0x3
 3416 1597 2A150000 		.4byte	0x152a
 3417 159b 0C       		.uleb128 0xc
 3418 159c 8F150000 		.4byte	0x158f
 3419 15a0 1B       		.uleb128 0x1b
 3420 15a1 3401     		.2byte	0x134
ARM GAS  C:\Users\DEVELO~1\AppData\Local\Temp\ccm6t1vr.s 			page 61


 3421 15a3 02       		.byte	0x2
 3422 15a4 36       		.byte	0x36
 3423 15a5 3A160000 		.4byte	0x163a
 3424 15a9 01       		.uleb128 0x1
 3425 15aa 60090000 		.4byte	.LASF293
 3426 15ae 02       		.byte	0x2
 3427 15af 38       		.byte	0x38
 3428 15b0 19       		.byte	0x19
 3429 15b1 8F150000 		.4byte	0x158f
 3430 15b5 00       		.byte	0
 3431 15b6 01       		.uleb128 0x1
 3432 15b7 25050000 		.4byte	.LASF294
 3433 15bb 02       		.byte	0x2
 3434 15bc 3B       		.byte	0x3b
 3435 15bd 19       		.byte	0x19
 3436 15be 8F150000 		.4byte	0x158f
 3437 15c2 1C       		.byte	0x1c
 3438 15c3 01       		.uleb128 0x1
 3439 15c4 13000000 		.4byte	.LASF295
 3440 15c8 02       		.byte	0x2
 3441 15c9 3E       		.byte	0x3e
 3442 15ca 19       		.byte	0x19
 3443 15cb 8F150000 		.4byte	0x158f
 3444 15cf 38       		.byte	0x38
 3445 15d0 01       		.uleb128 0x1
 3446 15d1 7D080000 		.4byte	.LASF296
 3447 15d5 02       		.byte	0x2
 3448 15d6 41       		.byte	0x41
 3449 15d7 19       		.byte	0x19
 3450 15d8 8F150000 		.4byte	0x158f
 3451 15dc 54       		.byte	0x54
 3452 15dd 01       		.uleb128 0x1
 3453 15de 47040000 		.4byte	.LASF297
 3454 15e2 02       		.byte	0x2
 3455 15e3 44       		.byte	0x44
 3456 15e4 19       		.byte	0x19
 3457 15e5 8F150000 		.4byte	0x158f
 3458 15e9 70       		.byte	0x70
 3459 15ea 01       		.uleb128 0x1
 3460 15eb 810C0000 		.4byte	.LASF298
 3461 15ef 02       		.byte	0x2
 3462 15f0 47       		.byte	0x47
 3463 15f1 19       		.byte	0x19
 3464 15f2 8F150000 		.4byte	0x158f
 3465 15f6 8C       		.byte	0x8c
 3466 15f7 01       		.uleb128 0x1
 3467 15f8 FD070000 		.4byte	.LASF299
 3468 15fc 02       		.byte	0x2
 3469 15fd 4A       		.byte	0x4a
 3470 15fe 19       		.byte	0x19
 3471 15ff 8F150000 		.4byte	0x158f
 3472 1603 A8       		.byte	0xa8
 3473 1604 01       		.uleb128 0x1
 3474 1605 19030000 		.4byte	.LASF300
 3475 1609 02       		.byte	0x2
 3476 160a 4D       		.byte	0x4d
 3477 160b 19       		.byte	0x19
ARM GAS  C:\Users\DEVELO~1\AppData\Local\Temp\ccm6t1vr.s 			page 62


 3478 160c 8F150000 		.4byte	0x158f
 3479 1610 C4       		.byte	0xc4
 3480 1611 01       		.uleb128 0x1
 3481 1612 E50B0000 		.4byte	.LASF301
 3482 1616 02       		.byte	0x2
 3483 1617 50       		.byte	0x50
 3484 1618 19       		.byte	0x19
 3485 1619 8F150000 		.4byte	0x158f
 3486 161d E0       		.byte	0xe0
 3487 161e 01       		.uleb128 0x1
 3488 161f 8D070000 		.4byte	.LASF302
 3489 1623 02       		.byte	0x2
 3490 1624 53       		.byte	0x53
 3491 1625 19       		.byte	0x19
 3492 1626 8F150000 		.4byte	0x158f
 3493 162a FC       		.byte	0xfc
 3494 162b 24       		.uleb128 0x24
 3495 162c 0F050000 		.4byte	.LASF303
 3496 1630 02       		.byte	0x2
 3497 1631 56       		.byte	0x56
 3498 1632 19       		.byte	0x19
 3499 1633 8F150000 		.4byte	0x158f
 3500 1637 1801     		.2byte	0x118
 3501 1639 00       		.byte	0
 3502 163a 03       		.uleb128 0x3
 3503 163b 0E080000 		.4byte	.LASF304
 3504 163f 02       		.byte	0x2
 3505 1640 58       		.byte	0x58
 3506 1641 03       		.byte	0x3
 3507 1642 A0150000 		.4byte	0x15a0
 3508 1646 0C       		.uleb128 0xc
 3509 1647 3A160000 		.4byte	0x163a
 3510 164b 25       		.uleb128 0x25
 3511 164c 48070000 		.4byte	.LASF316
 3512 1650 02       		.byte	0x2
 3513 1651 5D       		.byte	0x5d
 3514 1652 1C       		.byte	0x1c
 3515 1653 46160000 		.4byte	0x1646
 3516 1657 05       		.uleb128 0x5
 3517 1658 03       		.byte	0x3
 3518 1659 00000000 		.4byte	gpio_default_config
 3519 165d 26       		.uleb128 0x26
 3520 165e D80C0000 		.4byte	.LASF317
 3521 1662 1A       		.byte	0x1a
 3522 1663 BD       		.byte	0xbd
 3523 1664 08       		.byte	0x8
 3524 1665 27       		.uleb128 0x27
 3525 1666 B5050000 		.4byte	.LASF308
 3526 166a 02       		.byte	0x2
 3527 166b 0901     		.2byte	0x109
 3528 166d 06       		.byte	0x6
 3529 166e 00000000 		.4byte	.LFB437
 3530 1672 0C000000 		.4byte	.LFE437-.LFB437
 3531 1676 01       		.uleb128 0x1
 3532 1677 9C       		.byte	0x9c
 3533 1678 1D       		.uleb128 0x1d
 3534 1679 8A090000 		.4byte	.LASF305
ARM GAS  C:\Users\DEVELO~1\AppData\Local\Temp\ccm6t1vr.s 			page 63


 3535 167d FD       		.byte	0xfd
 3536 167e F90E0000 		.4byte	0xef9
 3537 1682 00000000 		.4byte	.LFB436
 3538 1686 14000000 		.4byte	.LFE436-.LFB436
 3539 168a 01       		.uleb128 0x1
 3540 168b 9C       		.byte	0x9c
 3541 168c A0160000 		.4byte	0x16a0
 3542 1690 14       		.uleb128 0x14
 3543 1691 A7030000 		.4byte	.LASF307
 3544 1695 02       		.byte	0x2
 3545 1696 FD       		.byte	0xfd
 3546 1697 2C       		.byte	0x2c
 3547 1698 A0160000 		.4byte	0x16a0
 3548 169c 02       		.uleb128 0x2
 3549 169d 91       		.byte	0x91
 3550 169e 74       		.sleb128 -12
 3551 169f 00       		.byte	0
 3552 16a0 04       		.uleb128 0x4
 3553 16a1 1E150000 		.4byte	0x151e
 3554 16a5 1D       		.uleb128 0x1d
 3555 16a6 A8060000 		.4byte	.LASF306
 3556 16aa F3       		.byte	0xf3
 3557 16ab F90E0000 		.4byte	0xef9
 3558 16af 00000000 		.4byte	.LFB435
 3559 16b3 14000000 		.4byte	.LFE435-.LFB435
 3560 16b7 01       		.uleb128 0x1
 3561 16b8 9C       		.byte	0x9c
 3562 16b9 CD160000 		.4byte	0x16cd
 3563 16bd 14       		.uleb128 0x14
 3564 16be A7030000 		.4byte	.LASF307
 3565 16c2 02       		.byte	0x2
 3566 16c3 F3       		.byte	0xf3
 3567 16c4 2A       		.byte	0x2a
 3568 16c5 A0160000 		.4byte	0x16a0
 3569 16c9 02       		.uleb128 0x2
 3570 16ca 91       		.byte	0x91
 3571 16cb 74       		.sleb128 -12
 3572 16cc 00       		.byte	0
 3573 16cd 28       		.uleb128 0x28
 3574 16ce 920A0000 		.4byte	.LASF309
 3575 16d2 02       		.byte	0x2
 3576 16d3 D3       		.byte	0xd3
 3577 16d4 06       		.byte	0x6
 3578 16d5 00000000 		.4byte	.LFB434
 3579 16d9 10000000 		.4byte	.LFE434-.LFB434
 3580 16dd 01       		.uleb128 0x1
 3581 16de 9C       		.byte	0x9c
 3582 16df 29       		.uleb128 0x29
 3583 16e0 B30B0000 		.4byte	.LASF318
 3584 16e4 02       		.byte	0x2
 3585 16e5 9B       		.byte	0x9b
 3586 16e6 0D       		.byte	0xd
 3587 16e7 00000000 		.4byte	.LFB433
 3588 16eb CC000000 		.4byte	.LFE433-.LFB433
 3589 16ef 01       		.uleb128 0x1
 3590 16f0 9C       		.byte	0x9c
 3591 16f1 2A       		.uleb128 0x2a
ARM GAS  C:\Users\DEVELO~1\AppData\Local\Temp\ccm6t1vr.s 			page 64


 3592 16f2 95010000 		.4byte	.LASF311
 3593 16f6 02       		.byte	0x2
 3594 16f7 90       		.byte	0x90
 3595 16f8 0D       		.byte	0xd
 3596 16f9 00000000 		.4byte	.LFB432
 3597 16fd 4C000000 		.4byte	.LFE432-.LFB432
 3598 1701 01       		.uleb128 0x1
 3599 1702 9C       		.byte	0x9c
 3600 1703 26170000 		.4byte	0x1726
 3601 1707 14       		.uleb128 0x14
 3602 1708 600B0000 		.4byte	.LASF310
 3603 170c 02       		.byte	0x2
 3604 170d 90       		.byte	0x90
 3605 170e 25       		.byte	0x25
 3606 170f DD110000 		.4byte	0x11dd
 3607 1713 02       		.uleb128 0x2
 3608 1714 91       		.byte	0x91
 3609 1715 74       		.sleb128 -12
 3610 1716 14       		.uleb128 0x14
 3611 1717 84080000 		.4byte	.LASF54
 3612 171b 02       		.byte	0x2
 3613 171c 90       		.byte	0x90
 3614 171d 40       		.byte	0x40
 3615 171e 26170000 		.4byte	0x1726
 3616 1722 02       		.uleb128 0x2
 3617 1723 91       		.byte	0x91
 3618 1724 70       		.sleb128 -16
 3619 1725 00       		.byte	0
 3620 1726 04       		.uleb128 0x4
 3621 1727 9B150000 		.4byte	0x159b
 3622 172b 2B       		.uleb128 0x2b
 3623 172c 10090000 		.4byte	.LASF312
 3624 1730 01       		.byte	0x1
 3625 1731 5503     		.2byte	0x355
 3626 1733 16       		.byte	0x16
 3627 1734 00000000 		.4byte	.LFB412
 3628 1738 5C000000 		.4byte	.LFE412-.LFB412
 3629 173c 01       		.uleb128 0x1
 3630 173d 9C       		.byte	0x9c
 3631 173e 62170000 		.4byte	0x1762
 3632 1742 2C       		.uleb128 0x2c
 3633 1743 AA070000 		.4byte	.LASF59
 3634 1747 01       		.byte	0x1
 3635 1748 5503     		.2byte	0x355
 3636 174a 2D       		.byte	0x2d
 3637 174b E4000000 		.4byte	0xe4
 3638 174f 02       		.uleb128 0x2
 3639 1750 91       		.byte	0x91
 3640 1751 74       		.sleb128 -12
 3641 1752 2D       		.uleb128 0x2d
 3642 1753 6C7000   		.ascii	"lp\000"
 3643 1756 01       		.byte	0x1
 3644 1757 5503     		.2byte	0x355
 3645 1759 38       		.byte	0x38
 3646 175a F90E0000 		.4byte	0xef9
 3647 175e 02       		.uleb128 0x2
 3648 175f 91       		.byte	0x91
ARM GAS  C:\Users\DEVELO~1\AppData\Local\Temp\ccm6t1vr.s 			page 65


 3649 1760 73       		.sleb128 -13
 3650 1761 00       		.byte	0
 3651 1762 2E       		.uleb128 0x2e
 3652 1763 55060000 		.4byte	.LASF319
 3653 1767 01       		.byte	0x1
 3654 1768 79       		.byte	0x79
 3655 1769 16       		.byte	0x16
 3656 176a 00000000 		.4byte	.LFB387
 3657 176e 40000000 		.4byte	.LFE387-.LFB387
 3658 1772 01       		.uleb128 0x1
 3659 1773 9C       		.byte	0x9c
 3660 1774 14       		.uleb128 0x14
 3661 1775 AA070000 		.4byte	.LASF59
 3662 1779 01       		.byte	0x1
 3663 177a 79       		.byte	0x79
 3664 177b 2E       		.byte	0x2e
 3665 177c E4000000 		.4byte	0xe4
 3666 1780 02       		.uleb128 0x2
 3667 1781 91       		.byte	0x91
 3668 1782 74       		.sleb128 -12
 3669 1783 00       		.byte	0
 3670 1784 00       		.byte	0
 3671              		.section	.debug_abbrev,"",%progbits
 3672              	.Ldebug_abbrev0:
 3673 0000 01       		.uleb128 0x1
 3674 0001 0D       		.uleb128 0xd
 3675 0002 00       		.byte	0
 3676 0003 03       		.uleb128 0x3
 3677 0004 0E       		.uleb128 0xe
 3678 0005 3A       		.uleb128 0x3a
 3679 0006 0B       		.uleb128 0xb
 3680 0007 3B       		.uleb128 0x3b
 3681 0008 0B       		.uleb128 0xb
 3682 0009 39       		.uleb128 0x39
 3683 000a 0B       		.uleb128 0xb
 3684 000b 49       		.uleb128 0x49
 3685 000c 13       		.uleb128 0x13
 3686 000d 38       		.uleb128 0x38
 3687 000e 0B       		.uleb128 0xb
 3688 000f 00       		.byte	0
 3689 0010 00       		.byte	0
 3690 0011 02       		.uleb128 0x2
 3691 0012 0D       		.uleb128 0xd
 3692 0013 00       		.byte	0
 3693 0014 03       		.uleb128 0x3
 3694 0015 0E       		.uleb128 0xe
 3695 0016 3A       		.uleb128 0x3a
 3696 0017 0B       		.uleb128 0xb
 3697 0018 3B       		.uleb128 0x3b
 3698 0019 05       		.uleb128 0x5
 3699 001a 39       		.uleb128 0x39
 3700 001b 0B       		.uleb128 0xb
 3701 001c 49       		.uleb128 0x49
 3702 001d 13       		.uleb128 0x13
 3703 001e 38       		.uleb128 0x38
 3704 001f 0B       		.uleb128 0xb
 3705 0020 00       		.byte	0
ARM GAS  C:\Users\DEVELO~1\AppData\Local\Temp\ccm6t1vr.s 			page 66


 3706 0021 00       		.byte	0
 3707 0022 03       		.uleb128 0x3
 3708 0023 16       		.uleb128 0x16
 3709 0024 00       		.byte	0
 3710 0025 03       		.uleb128 0x3
 3711 0026 0E       		.uleb128 0xe
 3712 0027 3A       		.uleb128 0x3a
 3713 0028 0B       		.uleb128 0xb
 3714 0029 3B       		.uleb128 0x3b
 3715 002a 0B       		.uleb128 0xb
 3716 002b 39       		.uleb128 0x39
 3717 002c 0B       		.uleb128 0xb
 3718 002d 49       		.uleb128 0x49
 3719 002e 13       		.uleb128 0x13
 3720 002f 00       		.byte	0
 3721 0030 00       		.byte	0
 3722 0031 04       		.uleb128 0x4
 3723 0032 0F       		.uleb128 0xf
 3724 0033 00       		.byte	0
 3725 0034 0B       		.uleb128 0xb
 3726 0035 21       		.uleb128 0x21
 3727 0036 04       		.sleb128 4
 3728 0037 49       		.uleb128 0x49
 3729 0038 13       		.uleb128 0x13
 3730 0039 00       		.byte	0
 3731 003a 00       		.byte	0
 3732 003b 05       		.uleb128 0x5
 3733 003c 0D       		.uleb128 0xd
 3734 003d 00       		.byte	0
 3735 003e 03       		.uleb128 0x3
 3736 003f 08       		.uleb128 0x8
 3737 0040 3A       		.uleb128 0x3a
 3738 0041 0B       		.uleb128 0xb
 3739 0042 3B       		.uleb128 0x3b
 3740 0043 05       		.uleb128 0x5
 3741 0044 39       		.uleb128 0x39
 3742 0045 0B       		.uleb128 0xb
 3743 0046 49       		.uleb128 0x49
 3744 0047 13       		.uleb128 0x13
 3745 0048 38       		.uleb128 0x38
 3746 0049 0B       		.uleb128 0xb
 3747 004a 00       		.byte	0
 3748 004b 00       		.byte	0
 3749 004c 06       		.uleb128 0x6
 3750 004d 0D       		.uleb128 0xd
 3751 004e 00       		.byte	0
 3752 004f 03       		.uleb128 0x3
 3753 0050 08       		.uleb128 0x8
 3754 0051 3A       		.uleb128 0x3a
 3755 0052 0B       		.uleb128 0xb
 3756 0053 3B       		.uleb128 0x3b
 3757 0054 0B       		.uleb128 0xb
 3758 0055 39       		.uleb128 0x39
 3759 0056 0B       		.uleb128 0xb
 3760 0057 49       		.uleb128 0x49
 3761 0058 13       		.uleb128 0x13
 3762 0059 38       		.uleb128 0x38
ARM GAS  C:\Users\DEVELO~1\AppData\Local\Temp\ccm6t1vr.s 			page 67


 3763 005a 0B       		.uleb128 0xb
 3764 005b 00       		.byte	0
 3765 005c 00       		.byte	0
 3766 005d 07       		.uleb128 0x7
 3767 005e 13       		.uleb128 0x13
 3768 005f 01       		.byte	0x1
 3769 0060 03       		.uleb128 0x3
 3770 0061 0E       		.uleb128 0xe
 3771 0062 0B       		.uleb128 0xb
 3772 0063 0B       		.uleb128 0xb
 3773 0064 3A       		.uleb128 0x3a
 3774 0065 0B       		.uleb128 0xb
 3775 0066 3B       		.uleb128 0x3b
 3776 0067 0B       		.uleb128 0xb
 3777 0068 39       		.uleb128 0x39
 3778 0069 0B       		.uleb128 0xb
 3779 006a 01       		.uleb128 0x1
 3780 006b 13       		.uleb128 0x13
 3781 006c 00       		.byte	0
 3782 006d 00       		.byte	0
 3783 006e 08       		.uleb128 0x8
 3784 006f 28       		.uleb128 0x28
 3785 0070 00       		.byte	0
 3786 0071 03       		.uleb128 0x3
 3787 0072 0E       		.uleb128 0xe
 3788 0073 1C       		.uleb128 0x1c
 3789 0074 0B       		.uleb128 0xb
 3790 0075 00       		.byte	0
 3791 0076 00       		.byte	0
 3792 0077 09       		.uleb128 0x9
 3793 0078 13       		.uleb128 0x13
 3794 0079 01       		.byte	0x1
 3795 007a 0B       		.uleb128 0xb
 3796 007b 0B       		.uleb128 0xb
 3797 007c 3A       		.uleb128 0x3a
 3798 007d 0B       		.uleb128 0xb
 3799 007e 3B       		.uleb128 0x3b
 3800 007f 0B       		.uleb128 0xb
 3801 0080 39       		.uleb128 0x39
 3802 0081 0B       		.uleb128 0xb
 3803 0082 01       		.uleb128 0x1
 3804 0083 13       		.uleb128 0x13
 3805 0084 00       		.byte	0
 3806 0085 00       		.byte	0
 3807 0086 0A       		.uleb128 0xa
 3808 0087 24       		.uleb128 0x24
 3809 0088 00       		.byte	0
 3810 0089 0B       		.uleb128 0xb
 3811 008a 0B       		.uleb128 0xb
 3812 008b 3E       		.uleb128 0x3e
 3813 008c 0B       		.uleb128 0xb
 3814 008d 03       		.uleb128 0x3
 3815 008e 0E       		.uleb128 0xe
 3816 008f 00       		.byte	0
 3817 0090 00       		.byte	0
 3818 0091 0B       		.uleb128 0xb
 3819 0092 05       		.uleb128 0x5
ARM GAS  C:\Users\DEVELO~1\AppData\Local\Temp\ccm6t1vr.s 			page 68


 3820 0093 00       		.byte	0
 3821 0094 49       		.uleb128 0x49
 3822 0095 13       		.uleb128 0x13
 3823 0096 00       		.byte	0
 3824 0097 00       		.byte	0
 3825 0098 0C       		.uleb128 0xc
 3826 0099 26       		.uleb128 0x26
 3827 009a 00       		.byte	0
 3828 009b 49       		.uleb128 0x49
 3829 009c 13       		.uleb128 0x13
 3830 009d 00       		.byte	0
 3831 009e 00       		.byte	0
 3832 009f 0D       		.uleb128 0xd
 3833 00a0 0D       		.uleb128 0xd
 3834 00a1 00       		.byte	0
 3835 00a2 03       		.uleb128 0x3
 3836 00a3 0E       		.uleb128 0xe
 3837 00a4 3A       		.uleb128 0x3a
 3838 00a5 0B       		.uleb128 0xb
 3839 00a6 3B       		.uleb128 0x3b
 3840 00a7 0B       		.uleb128 0xb
 3841 00a8 39       		.uleb128 0x39
 3842 00a9 0B       		.uleb128 0xb
 3843 00aa 49       		.uleb128 0x49
 3844 00ab 13       		.uleb128 0x13
 3845 00ac 00       		.byte	0
 3846 00ad 00       		.byte	0
 3847 00ae 0E       		.uleb128 0xe
 3848 00af 16       		.uleb128 0x16
 3849 00b0 00       		.byte	0
 3850 00b1 03       		.uleb128 0x3
 3851 00b2 0E       		.uleb128 0xe
 3852 00b3 3A       		.uleb128 0x3a
 3853 00b4 0B       		.uleb128 0xb
 3854 00b5 3B       		.uleb128 0x3b
 3855 00b6 05       		.uleb128 0x5
 3856 00b7 39       		.uleb128 0x39
 3857 00b8 0B       		.uleb128 0xb
 3858 00b9 49       		.uleb128 0x49
 3859 00ba 13       		.uleb128 0x13
 3860 00bb 00       		.byte	0
 3861 00bc 00       		.byte	0
 3862 00bd 0F       		.uleb128 0xf
 3863 00be 0D       		.uleb128 0xd
 3864 00bf 00       		.byte	0
 3865 00c0 03       		.uleb128 0x3
 3866 00c1 0E       		.uleb128 0xe
 3867 00c2 3A       		.uleb128 0x3a
 3868 00c3 21       		.uleb128 0x21
 3869 00c4 0F       		.sleb128 15
 3870 00c5 3B       		.uleb128 0x3b
 3871 00c6 05       		.uleb128 0x5
 3872 00c7 39       		.uleb128 0x39
 3873 00c8 0B       		.uleb128 0xb
 3874 00c9 49       		.uleb128 0x49
 3875 00ca 13       		.uleb128 0x13
 3876 00cb 38       		.uleb128 0x38
ARM GAS  C:\Users\DEVELO~1\AppData\Local\Temp\ccm6t1vr.s 			page 69


 3877 00cc 05       		.uleb128 0x5
 3878 00cd 00       		.byte	0
 3879 00ce 00       		.byte	0
 3880 00cf 10       		.uleb128 0x10
 3881 00d0 0D       		.uleb128 0xd
 3882 00d1 00       		.byte	0
 3883 00d2 03       		.uleb128 0x3
 3884 00d3 08       		.uleb128 0x8
 3885 00d4 3A       		.uleb128 0x3a
 3886 00d5 0B       		.uleb128 0xb
 3887 00d6 3B       		.uleb128 0x3b
 3888 00d7 0B       		.uleb128 0xb
 3889 00d8 39       		.uleb128 0x39
 3890 00d9 0B       		.uleb128 0xb
 3891 00da 49       		.uleb128 0x49
 3892 00db 13       		.uleb128 0x13
 3893 00dc 00       		.byte	0
 3894 00dd 00       		.byte	0
 3895 00de 11       		.uleb128 0x11
 3896 00df 17       		.uleb128 0x17
 3897 00e0 01       		.byte	0x1
 3898 00e1 0B       		.uleb128 0xb
 3899 00e2 0B       		.uleb128 0xb
 3900 00e3 3A       		.uleb128 0x3a
 3901 00e4 0B       		.uleb128 0xb
 3902 00e5 3B       		.uleb128 0x3b
 3903 00e6 0B       		.uleb128 0xb
 3904 00e7 39       		.uleb128 0x39
 3905 00e8 0B       		.uleb128 0xb
 3906 00e9 01       		.uleb128 0x1
 3907 00ea 13       		.uleb128 0x13
 3908 00eb 00       		.byte	0
 3909 00ec 00       		.byte	0
 3910 00ed 12       		.uleb128 0x12
 3911 00ee 13       		.uleb128 0x13
 3912 00ef 01       		.byte	0x1
 3913 00f0 0B       		.uleb128 0xb
 3914 00f1 0B       		.uleb128 0xb
 3915 00f2 3A       		.uleb128 0x3a
 3916 00f3 0B       		.uleb128 0xb
 3917 00f4 3B       		.uleb128 0x3b
 3918 00f5 05       		.uleb128 0x5
 3919 00f6 39       		.uleb128 0x39
 3920 00f7 21       		.uleb128 0x21
 3921 00f8 09       		.sleb128 9
 3922 00f9 01       		.uleb128 0x1
 3923 00fa 13       		.uleb128 0x13
 3924 00fb 00       		.byte	0
 3925 00fc 00       		.byte	0
 3926 00fd 13       		.uleb128 0x13
 3927 00fe 0D       		.uleb128 0xd
 3928 00ff 00       		.byte	0
 3929 0100 03       		.uleb128 0x3
 3930 0101 0E       		.uleb128 0xe
 3931 0102 3A       		.uleb128 0x3a
 3932 0103 21       		.uleb128 0x21
 3933 0104 09       		.sleb128 9
ARM GAS  C:\Users\DEVELO~1\AppData\Local\Temp\ccm6t1vr.s 			page 70


 3934 0105 3B       		.uleb128 0x3b
 3935 0106 05       		.uleb128 0x5
 3936 0107 39       		.uleb128 0x39
 3937 0108 0B       		.uleb128 0xb
 3938 0109 49       		.uleb128 0x49
 3939 010a 13       		.uleb128 0x13
 3940 010b 00       		.byte	0
 3941 010c 00       		.byte	0
 3942 010d 14       		.uleb128 0x14
 3943 010e 05       		.uleb128 0x5
 3944 010f 00       		.byte	0
 3945 0110 03       		.uleb128 0x3
 3946 0111 0E       		.uleb128 0xe
 3947 0112 3A       		.uleb128 0x3a
 3948 0113 0B       		.uleb128 0xb
 3949 0114 3B       		.uleb128 0x3b
 3950 0115 0B       		.uleb128 0xb
 3951 0116 39       		.uleb128 0x39
 3952 0117 0B       		.uleb128 0xb
 3953 0118 49       		.uleb128 0x49
 3954 0119 13       		.uleb128 0x13
 3955 011a 02       		.uleb128 0x2
 3956 011b 18       		.uleb128 0x18
 3957 011c 00       		.byte	0
 3958 011d 00       		.byte	0
 3959 011e 15       		.uleb128 0x15
 3960 011f 35       		.uleb128 0x35
 3961 0120 00       		.byte	0
 3962 0121 49       		.uleb128 0x49
 3963 0122 13       		.uleb128 0x13
 3964 0123 00       		.byte	0
 3965 0124 00       		.byte	0
 3966 0125 16       		.uleb128 0x16
 3967 0126 01       		.uleb128 0x1
 3968 0127 01       		.byte	0x1
 3969 0128 49       		.uleb128 0x49
 3970 0129 13       		.uleb128 0x13
 3971 012a 01       		.uleb128 0x1
 3972 012b 13       		.uleb128 0x13
 3973 012c 00       		.byte	0
 3974 012d 00       		.byte	0
 3975 012e 17       		.uleb128 0x17
 3976 012f 21       		.uleb128 0x21
 3977 0130 00       		.byte	0
 3978 0131 49       		.uleb128 0x49
 3979 0132 13       		.uleb128 0x13
 3980 0133 2F       		.uleb128 0x2f
 3981 0134 0B       		.uleb128 0xb
 3982 0135 00       		.byte	0
 3983 0136 00       		.byte	0
 3984 0137 18       		.uleb128 0x18
 3985 0138 13       		.uleb128 0x13
 3986 0139 01       		.byte	0x1
 3987 013a 03       		.uleb128 0x3
 3988 013b 0E       		.uleb128 0xe
 3989 013c 0B       		.uleb128 0xb
 3990 013d 0B       		.uleb128 0xb
ARM GAS  C:\Users\DEVELO~1\AppData\Local\Temp\ccm6t1vr.s 			page 71


 3991 013e 3A       		.uleb128 0x3a
 3992 013f 0B       		.uleb128 0xb
 3993 0140 3B       		.uleb128 0x3b
 3994 0141 05       		.uleb128 0x5
 3995 0142 39       		.uleb128 0x39
 3996 0143 0B       		.uleb128 0xb
 3997 0144 01       		.uleb128 0x1
 3998 0145 13       		.uleb128 0x13
 3999 0146 00       		.byte	0
 4000 0147 00       		.byte	0
 4001 0148 19       		.uleb128 0x19
 4002 0149 15       		.uleb128 0x15
 4003 014a 01       		.byte	0x1
 4004 014b 27       		.uleb128 0x27
 4005 014c 19       		.uleb128 0x19
 4006 014d 49       		.uleb128 0x49
 4007 014e 13       		.uleb128 0x13
 4008 014f 01       		.uleb128 0x1
 4009 0150 13       		.uleb128 0x13
 4010 0151 00       		.byte	0
 4011 0152 00       		.byte	0
 4012 0153 1A       		.uleb128 0x1a
 4013 0154 0D       		.uleb128 0xd
 4014 0155 00       		.byte	0
 4015 0156 03       		.uleb128 0x3
 4016 0157 0E       		.uleb128 0xe
 4017 0158 3A       		.uleb128 0x3a
 4018 0159 21       		.uleb128 0x21
 4019 015a 0E       		.sleb128 14
 4020 015b 3B       		.uleb128 0x3b
 4021 015c 0B       		.uleb128 0xb
 4022 015d 39       		.uleb128 0x39
 4023 015e 21       		.uleb128 0x21
 4024 015f 19       		.sleb128 25
 4025 0160 49       		.uleb128 0x49
 4026 0161 13       		.uleb128 0x13
 4027 0162 0D       		.uleb128 0xd
 4028 0163 0B       		.uleb128 0xb
 4029 0164 6B       		.uleb128 0x6b
 4030 0165 0B       		.uleb128 0xb
 4031 0166 00       		.byte	0
 4032 0167 00       		.byte	0
 4033 0168 1B       		.uleb128 0x1b
 4034 0169 13       		.uleb128 0x13
 4035 016a 01       		.byte	0x1
 4036 016b 0B       		.uleb128 0xb
 4037 016c 05       		.uleb128 0x5
 4038 016d 3A       		.uleb128 0x3a
 4039 016e 0B       		.uleb128 0xb
 4040 016f 3B       		.uleb128 0x3b
 4041 0170 0B       		.uleb128 0xb
 4042 0171 39       		.uleb128 0x39
 4043 0172 21       		.uleb128 0x21
 4044 0173 09       		.sleb128 9
 4045 0174 01       		.uleb128 0x1
 4046 0175 13       		.uleb128 0x13
 4047 0176 00       		.byte	0
ARM GAS  C:\Users\DEVELO~1\AppData\Local\Temp\ccm6t1vr.s 			page 72


 4048 0177 00       		.byte	0
 4049 0178 1C       		.uleb128 0x1c
 4050 0179 04       		.uleb128 0x4
 4051 017a 01       		.byte	0x1
 4052 017b 3E       		.uleb128 0x3e
 4053 017c 21       		.uleb128 0x21
 4054 017d 07       		.sleb128 7
 4055 017e 0B       		.uleb128 0xb
 4056 017f 21       		.uleb128 0x21
 4057 0180 01       		.sleb128 1
 4058 0181 49       		.uleb128 0x49
 4059 0182 13       		.uleb128 0x13
 4060 0183 3A       		.uleb128 0x3a
 4061 0184 0B       		.uleb128 0xb
 4062 0185 3B       		.uleb128 0x3b
 4063 0186 0B       		.uleb128 0xb
 4064 0187 39       		.uleb128 0x39
 4065 0188 21       		.uleb128 0x21
 4066 0189 0E       		.sleb128 14
 4067 018a 01       		.uleb128 0x1
 4068 018b 13       		.uleb128 0x13
 4069 018c 00       		.byte	0
 4070 018d 00       		.byte	0
 4071 018e 1D       		.uleb128 0x1d
 4072 018f 2E       		.uleb128 0x2e
 4073 0190 01       		.byte	0x1
 4074 0191 3F       		.uleb128 0x3f
 4075 0192 19       		.uleb128 0x19
 4076 0193 03       		.uleb128 0x3
 4077 0194 0E       		.uleb128 0xe
 4078 0195 3A       		.uleb128 0x3a
 4079 0196 21       		.uleb128 0x21
 4080 0197 02       		.sleb128 2
 4081 0198 3B       		.uleb128 0x3b
 4082 0199 0B       		.uleb128 0xb
 4083 019a 39       		.uleb128 0x39
 4084 019b 21       		.uleb128 0x21
 4085 019c 06       		.sleb128 6
 4086 019d 27       		.uleb128 0x27
 4087 019e 19       		.uleb128 0x19
 4088 019f 49       		.uleb128 0x49
 4089 01a0 13       		.uleb128 0x13
 4090 01a1 11       		.uleb128 0x11
 4091 01a2 01       		.uleb128 0x1
 4092 01a3 12       		.uleb128 0x12
 4093 01a4 06       		.uleb128 0x6
 4094 01a5 40       		.uleb128 0x40
 4095 01a6 18       		.uleb128 0x18
 4096 01a7 7A       		.uleb128 0x7a
 4097 01a8 19       		.uleb128 0x19
 4098 01a9 01       		.uleb128 0x1
 4099 01aa 13       		.uleb128 0x13
 4100 01ab 00       		.byte	0
 4101 01ac 00       		.byte	0
 4102 01ad 1E       		.uleb128 0x1e
 4103 01ae 11       		.uleb128 0x11
 4104 01af 01       		.byte	0x1
ARM GAS  C:\Users\DEVELO~1\AppData\Local\Temp\ccm6t1vr.s 			page 73


 4105 01b0 25       		.uleb128 0x25
 4106 01b1 0E       		.uleb128 0xe
 4107 01b2 13       		.uleb128 0x13
 4108 01b3 0B       		.uleb128 0xb
 4109 01b4 03       		.uleb128 0x3
 4110 01b5 0E       		.uleb128 0xe
 4111 01b6 1B       		.uleb128 0x1b
 4112 01b7 0E       		.uleb128 0xe
 4113 01b8 55       		.uleb128 0x55
 4114 01b9 17       		.uleb128 0x17
 4115 01ba 11       		.uleb128 0x11
 4116 01bb 01       		.uleb128 0x1
 4117 01bc 10       		.uleb128 0x10
 4118 01bd 17       		.uleb128 0x17
 4119 01be 00       		.byte	0
 4120 01bf 00       		.byte	0
 4121 01c0 1F       		.uleb128 0x1f
 4122 01c1 24       		.uleb128 0x24
 4123 01c2 00       		.byte	0
 4124 01c3 0B       		.uleb128 0xb
 4125 01c4 0B       		.uleb128 0xb
 4126 01c5 3E       		.uleb128 0x3e
 4127 01c6 0B       		.uleb128 0xb
 4128 01c7 03       		.uleb128 0x3
 4129 01c8 08       		.uleb128 0x8
 4130 01c9 00       		.byte	0
 4131 01ca 00       		.byte	0
 4132 01cb 20       		.uleb128 0x20
 4133 01cc 13       		.uleb128 0x13
 4134 01cd 01       		.byte	0x1
 4135 01ce 03       		.uleb128 0x3
 4136 01cf 0E       		.uleb128 0xe
 4137 01d0 0B       		.uleb128 0xb
 4138 01d1 05       		.uleb128 0x5
 4139 01d2 3A       		.uleb128 0x3a
 4140 01d3 0B       		.uleb128 0xb
 4141 01d4 3B       		.uleb128 0x3b
 4142 01d5 05       		.uleb128 0x5
 4143 01d6 39       		.uleb128 0x39
 4144 01d7 0B       		.uleb128 0xb
 4145 01d8 01       		.uleb128 0x1
 4146 01d9 13       		.uleb128 0x13
 4147 01da 00       		.byte	0
 4148 01db 00       		.byte	0
 4149 01dc 21       		.uleb128 0x21
 4150 01dd 0F       		.uleb128 0xf
 4151 01de 00       		.byte	0
 4152 01df 0B       		.uleb128 0xb
 4153 01e0 0B       		.uleb128 0xb
 4154 01e1 00       		.byte	0
 4155 01e2 00       		.byte	0
 4156 01e3 22       		.uleb128 0x22
 4157 01e4 13       		.uleb128 0x13
 4158 01e5 01       		.byte	0x1
 4159 01e6 0B       		.uleb128 0xb
 4160 01e7 05       		.uleb128 0x5
 4161 01e8 3A       		.uleb128 0x3a
ARM GAS  C:\Users\DEVELO~1\AppData\Local\Temp\ccm6t1vr.s 			page 74


 4162 01e9 0B       		.uleb128 0xb
 4163 01ea 3B       		.uleb128 0x3b
 4164 01eb 05       		.uleb128 0x5
 4165 01ec 39       		.uleb128 0x39
 4166 01ed 0B       		.uleb128 0xb
 4167 01ee 01       		.uleb128 0x1
 4168 01ef 13       		.uleb128 0x13
 4169 01f0 00       		.byte	0
 4170 01f1 00       		.byte	0
 4171 01f2 23       		.uleb128 0x23
 4172 01f3 15       		.uleb128 0x15
 4173 01f4 01       		.byte	0x1
 4174 01f5 27       		.uleb128 0x27
 4175 01f6 19       		.uleb128 0x19
 4176 01f7 01       		.uleb128 0x1
 4177 01f8 13       		.uleb128 0x13
 4178 01f9 00       		.byte	0
 4179 01fa 00       		.byte	0
 4180 01fb 24       		.uleb128 0x24
 4181 01fc 0D       		.uleb128 0xd
 4182 01fd 00       		.byte	0
 4183 01fe 03       		.uleb128 0x3
 4184 01ff 0E       		.uleb128 0xe
 4185 0200 3A       		.uleb128 0x3a
 4186 0201 0B       		.uleb128 0xb
 4187 0202 3B       		.uleb128 0x3b
 4188 0203 0B       		.uleb128 0xb
 4189 0204 39       		.uleb128 0x39
 4190 0205 0B       		.uleb128 0xb
 4191 0206 49       		.uleb128 0x49
 4192 0207 13       		.uleb128 0x13
 4193 0208 38       		.uleb128 0x38
 4194 0209 05       		.uleb128 0x5
 4195 020a 00       		.byte	0
 4196 020b 00       		.byte	0
 4197 020c 25       		.uleb128 0x25
 4198 020d 34       		.uleb128 0x34
 4199 020e 00       		.byte	0
 4200 020f 03       		.uleb128 0x3
 4201 0210 0E       		.uleb128 0xe
 4202 0211 3A       		.uleb128 0x3a
 4203 0212 0B       		.uleb128 0xb
 4204 0213 3B       		.uleb128 0x3b
 4205 0214 0B       		.uleb128 0xb
 4206 0215 39       		.uleb128 0x39
 4207 0216 0B       		.uleb128 0xb
 4208 0217 49       		.uleb128 0x49
 4209 0218 13       		.uleb128 0x13
 4210 0219 02       		.uleb128 0x2
 4211 021a 18       		.uleb128 0x18
 4212 021b 00       		.byte	0
 4213 021c 00       		.byte	0
 4214 021d 26       		.uleb128 0x26
 4215 021e 2E       		.uleb128 0x2e
 4216 021f 00       		.byte	0
 4217 0220 3F       		.uleb128 0x3f
 4218 0221 19       		.uleb128 0x19
ARM GAS  C:\Users\DEVELO~1\AppData\Local\Temp\ccm6t1vr.s 			page 75


 4219 0222 03       		.uleb128 0x3
 4220 0223 0E       		.uleb128 0xe
 4221 0224 3A       		.uleb128 0x3a
 4222 0225 0B       		.uleb128 0xb
 4223 0226 3B       		.uleb128 0x3b
 4224 0227 0B       		.uleb128 0xb
 4225 0228 39       		.uleb128 0x39
 4226 0229 0B       		.uleb128 0xb
 4227 022a 27       		.uleb128 0x27
 4228 022b 19       		.uleb128 0x19
 4229 022c 3C       		.uleb128 0x3c
 4230 022d 19       		.uleb128 0x19
 4231 022e 00       		.byte	0
 4232 022f 00       		.byte	0
 4233 0230 27       		.uleb128 0x27
 4234 0231 2E       		.uleb128 0x2e
 4235 0232 00       		.byte	0
 4236 0233 3F       		.uleb128 0x3f
 4237 0234 19       		.uleb128 0x19
 4238 0235 03       		.uleb128 0x3
 4239 0236 0E       		.uleb128 0xe
 4240 0237 3A       		.uleb128 0x3a
 4241 0238 0B       		.uleb128 0xb
 4242 0239 3B       		.uleb128 0x3b
 4243 023a 05       		.uleb128 0x5
 4244 023b 39       		.uleb128 0x39
 4245 023c 0B       		.uleb128 0xb
 4246 023d 27       		.uleb128 0x27
 4247 023e 19       		.uleb128 0x19
 4248 023f 11       		.uleb128 0x11
 4249 0240 01       		.uleb128 0x1
 4250 0241 12       		.uleb128 0x12
 4251 0242 06       		.uleb128 0x6
 4252 0243 40       		.uleb128 0x40
 4253 0244 18       		.uleb128 0x18
 4254 0245 7A       		.uleb128 0x7a
 4255 0246 19       		.uleb128 0x19
 4256 0247 00       		.byte	0
 4257 0248 00       		.byte	0
 4258 0249 28       		.uleb128 0x28
 4259 024a 2E       		.uleb128 0x2e
 4260 024b 00       		.byte	0
 4261 024c 3F       		.uleb128 0x3f
 4262 024d 19       		.uleb128 0x19
 4263 024e 03       		.uleb128 0x3
 4264 024f 0E       		.uleb128 0xe
 4265 0250 3A       		.uleb128 0x3a
 4266 0251 0B       		.uleb128 0xb
 4267 0252 3B       		.uleb128 0x3b
 4268 0253 0B       		.uleb128 0xb
 4269 0254 39       		.uleb128 0x39
 4270 0255 0B       		.uleb128 0xb
 4271 0256 27       		.uleb128 0x27
 4272 0257 19       		.uleb128 0x19
 4273 0258 11       		.uleb128 0x11
 4274 0259 01       		.uleb128 0x1
 4275 025a 12       		.uleb128 0x12
ARM GAS  C:\Users\DEVELO~1\AppData\Local\Temp\ccm6t1vr.s 			page 76


 4276 025b 06       		.uleb128 0x6
 4277 025c 40       		.uleb128 0x40
 4278 025d 18       		.uleb128 0x18
 4279 025e 7C       		.uleb128 0x7c
 4280 025f 19       		.uleb128 0x19
 4281 0260 00       		.byte	0
 4282 0261 00       		.byte	0
 4283 0262 29       		.uleb128 0x29
 4284 0263 2E       		.uleb128 0x2e
 4285 0264 00       		.byte	0
 4286 0265 03       		.uleb128 0x3
 4287 0266 0E       		.uleb128 0xe
 4288 0267 3A       		.uleb128 0x3a
 4289 0268 0B       		.uleb128 0xb
 4290 0269 3B       		.uleb128 0x3b
 4291 026a 0B       		.uleb128 0xb
 4292 026b 39       		.uleb128 0x39
 4293 026c 0B       		.uleb128 0xb
 4294 026d 27       		.uleb128 0x27
 4295 026e 19       		.uleb128 0x19
 4296 026f 11       		.uleb128 0x11
 4297 0270 01       		.uleb128 0x1
 4298 0271 12       		.uleb128 0x12
 4299 0272 06       		.uleb128 0x6
 4300 0273 40       		.uleb128 0x40
 4301 0274 18       		.uleb128 0x18
 4302 0275 7C       		.uleb128 0x7c
 4303 0276 19       		.uleb128 0x19
 4304 0277 00       		.byte	0
 4305 0278 00       		.byte	0
 4306 0279 2A       		.uleb128 0x2a
 4307 027a 2E       		.uleb128 0x2e
 4308 027b 01       		.byte	0x1
 4309 027c 03       		.uleb128 0x3
 4310 027d 0E       		.uleb128 0xe
 4311 027e 3A       		.uleb128 0x3a
 4312 027f 0B       		.uleb128 0xb
 4313 0280 3B       		.uleb128 0x3b
 4314 0281 0B       		.uleb128 0xb
 4315 0282 39       		.uleb128 0x39
 4316 0283 0B       		.uleb128 0xb
 4317 0284 27       		.uleb128 0x27
 4318 0285 19       		.uleb128 0x19
 4319 0286 11       		.uleb128 0x11
 4320 0287 01       		.uleb128 0x1
 4321 0288 12       		.uleb128 0x12
 4322 0289 06       		.uleb128 0x6
 4323 028a 40       		.uleb128 0x40
 4324 028b 18       		.uleb128 0x18
 4325 028c 7A       		.uleb128 0x7a
 4326 028d 19       		.uleb128 0x19
 4327 028e 01       		.uleb128 0x1
 4328 028f 13       		.uleb128 0x13
 4329 0290 00       		.byte	0
 4330 0291 00       		.byte	0
 4331 0292 2B       		.uleb128 0x2b
 4332 0293 2E       		.uleb128 0x2e
ARM GAS  C:\Users\DEVELO~1\AppData\Local\Temp\ccm6t1vr.s 			page 77


 4333 0294 01       		.byte	0x1
 4334 0295 03       		.uleb128 0x3
 4335 0296 0E       		.uleb128 0xe
 4336 0297 3A       		.uleb128 0x3a
 4337 0298 0B       		.uleb128 0xb
 4338 0299 3B       		.uleb128 0x3b
 4339 029a 05       		.uleb128 0x5
 4340 029b 39       		.uleb128 0x39
 4341 029c 0B       		.uleb128 0xb
 4342 029d 27       		.uleb128 0x27
 4343 029e 19       		.uleb128 0x19
 4344 029f 11       		.uleb128 0x11
 4345 02a0 01       		.uleb128 0x1
 4346 02a1 12       		.uleb128 0x12
 4347 02a2 06       		.uleb128 0x6
 4348 02a3 40       		.uleb128 0x40
 4349 02a4 18       		.uleb128 0x18
 4350 02a5 7A       		.uleb128 0x7a
 4351 02a6 19       		.uleb128 0x19
 4352 02a7 01       		.uleb128 0x1
 4353 02a8 13       		.uleb128 0x13
 4354 02a9 00       		.byte	0
 4355 02aa 00       		.byte	0
 4356 02ab 2C       		.uleb128 0x2c
 4357 02ac 05       		.uleb128 0x5
 4358 02ad 00       		.byte	0
 4359 02ae 03       		.uleb128 0x3
 4360 02af 0E       		.uleb128 0xe
 4361 02b0 3A       		.uleb128 0x3a
 4362 02b1 0B       		.uleb128 0xb
 4363 02b2 3B       		.uleb128 0x3b
 4364 02b3 05       		.uleb128 0x5
 4365 02b4 39       		.uleb128 0x39
 4366 02b5 0B       		.uleb128 0xb
 4367 02b6 49       		.uleb128 0x49
 4368 02b7 13       		.uleb128 0x13
 4369 02b8 02       		.uleb128 0x2
 4370 02b9 18       		.uleb128 0x18
 4371 02ba 00       		.byte	0
 4372 02bb 00       		.byte	0
 4373 02bc 2D       		.uleb128 0x2d
 4374 02bd 05       		.uleb128 0x5
 4375 02be 00       		.byte	0
 4376 02bf 03       		.uleb128 0x3
 4377 02c0 08       		.uleb128 0x8
 4378 02c1 3A       		.uleb128 0x3a
 4379 02c2 0B       		.uleb128 0xb
 4380 02c3 3B       		.uleb128 0x3b
 4381 02c4 05       		.uleb128 0x5
 4382 02c5 39       		.uleb128 0x39
 4383 02c6 0B       		.uleb128 0xb
 4384 02c7 49       		.uleb128 0x49
 4385 02c8 13       		.uleb128 0x13
 4386 02c9 02       		.uleb128 0x2
 4387 02ca 18       		.uleb128 0x18
 4388 02cb 00       		.byte	0
 4389 02cc 00       		.byte	0
ARM GAS  C:\Users\DEVELO~1\AppData\Local\Temp\ccm6t1vr.s 			page 78


 4390 02cd 2E       		.uleb128 0x2e
 4391 02ce 2E       		.uleb128 0x2e
 4392 02cf 01       		.byte	0x1
 4393 02d0 03       		.uleb128 0x3
 4394 02d1 0E       		.uleb128 0xe
 4395 02d2 3A       		.uleb128 0x3a
 4396 02d3 0B       		.uleb128 0xb
 4397 02d4 3B       		.uleb128 0x3b
 4398 02d5 0B       		.uleb128 0xb
 4399 02d6 39       		.uleb128 0x39
 4400 02d7 0B       		.uleb128 0xb
 4401 02d8 27       		.uleb128 0x27
 4402 02d9 19       		.uleb128 0x19
 4403 02da 11       		.uleb128 0x11
 4404 02db 01       		.uleb128 0x1
 4405 02dc 12       		.uleb128 0x12
 4406 02dd 06       		.uleb128 0x6
 4407 02de 40       		.uleb128 0x40
 4408 02df 18       		.uleb128 0x18
 4409 02e0 7A       		.uleb128 0x7a
 4410 02e1 19       		.uleb128 0x19
 4411 02e2 00       		.byte	0
 4412 02e3 00       		.byte	0
 4413 02e4 00       		.byte	0
 4414              		.section	.debug_aranges,"",%progbits
 4415 0000 54000000 		.4byte	0x54
 4416 0004 0200     		.2byte	0x2
 4417 0006 00000000 		.4byte	.Ldebug_info0
 4418 000a 04       		.byte	0x4
 4419 000b 00       		.byte	0
 4420 000c 0000     		.2byte	0
 4421 000e 0000     		.2byte	0
 4422 0010 00000000 		.4byte	.LFB387
 4423 0014 40000000 		.4byte	.LFE387-.LFB387
 4424 0018 00000000 		.4byte	.LFB412
 4425 001c 5C000000 		.4byte	.LFE412-.LFB412
 4426 0020 00000000 		.4byte	.LFB432
 4427 0024 4C000000 		.4byte	.LFE432-.LFB432
 4428 0028 00000000 		.4byte	.LFB433
 4429 002c CC000000 		.4byte	.LFE433-.LFB433
 4430 0030 00000000 		.4byte	.LFB434
 4431 0034 10000000 		.4byte	.LFE434-.LFB434
 4432 0038 00000000 		.4byte	.LFB435
 4433 003c 14000000 		.4byte	.LFE435-.LFB435
 4434 0040 00000000 		.4byte	.LFB436
 4435 0044 14000000 		.4byte	.LFE436-.LFB436
 4436 0048 00000000 		.4byte	.LFB437
 4437 004c 0C000000 		.4byte	.LFE437-.LFB437
 4438 0050 00000000 		.4byte	0
 4439 0054 00000000 		.4byte	0
 4440              		.section	.debug_rnglists,"",%progbits
 4441              	.Ldebug_ranges0:
 4442 0000 3A000000 		.4byte	.Ldebug_ranges3-.Ldebug_ranges2
 4443              	.Ldebug_ranges2:
 4444 0004 0500     		.2byte	0x5
 4445 0006 04       		.byte	0x4
 4446 0007 00       		.byte	0
ARM GAS  C:\Users\DEVELO~1\AppData\Local\Temp\ccm6t1vr.s 			page 79


 4447 0008 00000000 		.4byte	0
 4448              	.LLRL0:
 4449 000c 07       		.byte	0x7
 4450 000d 00000000 		.4byte	.LFB387
 4451 0011 40       		.uleb128 .LFE387-.LFB387
 4452 0012 07       		.byte	0x7
 4453 0013 00000000 		.4byte	.LFB412
 4454 0017 5C       		.uleb128 .LFE412-.LFB412
 4455 0018 07       		.byte	0x7
 4456 0019 00000000 		.4byte	.LFB432
 4457 001d 4C       		.uleb128 .LFE432-.LFB432
 4458 001e 07       		.byte	0x7
 4459 001f 00000000 		.4byte	.LFB433
 4460 0023 CC01     		.uleb128 .LFE433-.LFB433
 4461 0025 07       		.byte	0x7
 4462 0026 00000000 		.4byte	.LFB434
 4463 002a 10       		.uleb128 .LFE434-.LFB434
 4464 002b 07       		.byte	0x7
 4465 002c 00000000 		.4byte	.LFB435
 4466 0030 14       		.uleb128 .LFE435-.LFB435
 4467 0031 07       		.byte	0x7
 4468 0032 00000000 		.4byte	.LFB436
 4469 0036 14       		.uleb128 .LFE436-.LFB436
 4470 0037 07       		.byte	0x7
 4471 0038 00000000 		.4byte	.LFB437
 4472 003c 0C       		.uleb128 .LFE437-.LFB437
 4473 003d 00       		.byte	0
 4474              	.Ldebug_ranges3:
 4475              		.section	.debug_line,"",%progbits
 4476              	.Ldebug_line0:
 4477 0000 5E050000 		.section	.debug_str,"MS",%progbits,1
 4477      03003904 
 4477      00000201 
 4477      FB0E0D00 
 4477      01010101 
 4478              	.LASF138:
 4479 0000 41504231 		.ascii	"APB1HRSTR\000"
 4479      48525354 
 4479      5200
 4480              	.LASF11:
 4481 000a 6C6F6E67 		.ascii	"long int\000"
 4481      20696E74 
 4481      00
 4482              	.LASF295:
 4483 0013 50434461 		.ascii	"PCData\000"
 4483      746100
 4484              	.LASF101:
 4485 001a 42444D41 		.ascii	"BDMA_TypeDef\000"
 4485      5F547970 
 4485      65446566 
 4485      00
 4486              	.LASF215:
 4487 0027 62646D61 		.ascii	"bdma\000"
 4487      00
 4488              	.LASF35:
 4489 002c 6E616D65 		.ascii	"name\000"
 4489      00
ARM GAS  C:\Users\DEVELO~1\AppData\Local\Temp\ccm6t1vr.s 			page 80


 4490              	.LASF259:
 4491 0031 63697263 		.ascii	"circular\000"
 4491      756C6172 
 4491      00
 4492              	.LASF186:
 4493 003a 74687265 		.ascii	"thread_reference_t\000"
 4493      61645F72 
 4493      65666572 
 4493      656E6365 
 4493      5F7400
 4494              	.LASF236:
 4495 004d 42535252 		.ascii	"BSRR\000"
 4495      00
 4496              	.LASF183:
 4497 0052 63685F72 		.ascii	"ch_registry\000"
 4497      65676973 
 4497      74727900 
 4498              	.LASF285:
 4499 005e 4D4D4344 		.ascii	"MMCDriver\000"
 4499      72697665 
 4499      7200
 4500              	.LASF161:
 4501 0068 41504232 		.ascii	"APB2LPENR\000"
 4501      4C50454E 
 4501      5200
 4502              	.LASF282:
 4503 0072 63617061 		.ascii	"capacity\000"
 4503      63697479 
 4503      00
 4504              	.LASF58:
 4505 007b 63685F72 		.ascii	"ch_rfcu\000"
 4505      66637500 
 4506              	.LASF139:
 4507 0083 41504232 		.ascii	"APB2RSTR\000"
 4507      52535452 
 4507      00
 4508              	.LASF38:
 4509 008c 666C6167 		.ascii	"flags\000"
 4509      7300
 4510              	.LASF65:
 4511 0092 73797374 		.ascii	"systime_t\000"
 4511      696D655F 
 4511      7400
 4512              	.LASF44:
 4513 009c 7265616C 		.ascii	"realprio\000"
 4513      7072696F 
 4513      00
 4514              	.LASF89:
 4515 00a5 62756666 		.ascii	"buffer\000"
 4515      657200
 4516              	.LASF119:
 4517 00ac 504C4C33 		.ascii	"PLL3FRACR\000"
 4517      46524143 
 4517      5200
 4518              	.LASF220:
 4519 00b6 424C4B5F 		.ascii	"BLK_ACTIVE\000"
 4519      41435449 
ARM GAS  C:\Users\DEVELO~1\AppData\Local\Temp\ccm6t1vr.s 			page 81


 4519      564500
 4520              	.LASF277:
 4521 00c1 64697363 		.ascii	"disconnect\000"
 4521      6F6E6E65 
 4521      637400
 4522              	.LASF42:
 4523 00cc 6570656E 		.ascii	"epending\000"
 4523      64696E67 
 4523      00
 4524              	.LASF0:
 4525 00d5 756E7369 		.ascii	"unsigned int\000"
 4525      676E6564 
 4525      20696E74 
 4525      00
 4526              	.LASF69:
 4527 00e2 6E657874 		.ascii	"next\000"
 4527      00
 4528              	.LASF19:
 4529 00e7 75696E74 		.ascii	"uint32_t\000"
 4529      33325F74 
 4529      00
 4530              	.LASF87:
 4531 00f0 73757370 		.ascii	"suspended\000"
 4531      656E6465 
 4531      6400
 4532              	.LASF228:
 4533 00fa 626C6B5F 		.ascii	"blk_size\000"
 4533      73697A65 
 4533      00
 4534              	.LASF284:
 4535 0103 6D6D635F 		.ascii	"mmc_spi_driver_t\000"
 4535      7370695F 
 4535      64726976 
 4535      65725F74 
 4535      00
 4536              	.LASF110:
 4537 0114 44334346 		.ascii	"D3CFGR\000"
 4537      475200
 4538              	.LASF130:
 4539 011b 42444352 		.ascii	"BDCR\000"
 4539      00
 4540              	.LASF272:
 4541 0120 6D6D635F 		.ascii	"mmc_spi_driver_vmt\000"
 4541      7370695F 
 4541      64726976 
 4541      65725F76 
 4541      6D7400
 4542              	.LASF96:
 4543 0133 43504152 		.ascii	"CPAR\000"
 4543      00
 4544              	.LASF39:
 4545 0138 72656673 		.ascii	"refs\000"
 4545      00
 4546              	.LASF164:
 4547 013d 5243435F 		.ascii	"RCC_TypeDef\000"
 4547      54797065 
 4547      44656600 
ARM GAS  C:\Users\DEVELO~1\AppData\Local\Temp\ccm6t1vr.s 			page 82


 4548              	.LASF262:
 4549 0149 6572726F 		.ascii	"error_cb\000"
 4549      725F6362 
 4549      00
 4550              	.LASF221:
 4551 0152 424C4B5F 		.ascii	"BLK_CONNECTING\000"
 4551      434F4E4E 
 4551      45435449 
 4551      4E4700
 4552              	.LASF79:
 4553 0161 77746F62 		.ascii	"wtobjp\000"
 4553      6A7000
 4554              	.LASF280:
 4555 0168 73796E63 		.ascii	"sync\000"
 4555      00
 4556              	.LASF50:
 4557 016d 76746C69 		.ascii	"vtlist\000"
 4557      737400
 4558              	.LASF118:
 4559 0174 504C4C33 		.ascii	"PLL3DIVR\000"
 4559      44495652 
 4559      00
 4560              	.LASF177:
 4561 017d 706F7274 		.ascii	"port_context\000"
 4561      5F636F6E 
 4561      74657874 
 4561      00
 4562              	.LASF70:
 4563 018a 63685F71 		.ascii	"ch_queue_t\000"
 4563      75657565 
 4563      5F7400
 4564              	.LASF311:
 4565 0195 6770696F 		.ascii	"gpio_init\000"
 4565      5F696E69 
 4565      7400
 4566              	.LASF91:
 4567 019f 4E445452 		.ascii	"NDTR\000"
 4567      00
 4568              	.LASF314:
 4569 01a4 2E2E2F2E 		.ascii	"../../../os/hal/boards/STM32H743_LQFP176_CUSTOM/boa"
 4569      2E2F2E2E 
 4569      2F6F732F 
 4569      68616C2F 
 4569      626F6172 
 4570 01d7 72642E63 		.ascii	"rd.c\000"
 4570      00
 4571              	.LASF181:
 4572 01dc 6C617374 		.ascii	"laststamp\000"
 4572      7374616D 
 4572      7000
 4573              	.LASF195:
 4574 01e6 65776D61 		.ascii	"ewmask\000"
 4574      736B00
 4575              	.LASF72:
 4576 01ed 70726576 		.ascii	"prev\000"
 4576      00
 4577              	.LASF156:
ARM GAS  C:\Users\DEVELO~1\AppData\Local\Temp\ccm6t1vr.s 			page 83


 4578 01f2 41484232 		.ascii	"AHB2LPENR\000"
 4578      4C50454E 
 4578      5200
 4579              	.LASF198:
 4580 01fc 63685F72 		.ascii	"ch_ready_list\000"
 4580      65616479 
 4580      5F6C6973 
 4580      7400
 4581              	.LASF68:
 4582 020a 63685F6C 		.ascii	"ch_list\000"
 4582      69737400 
 4583              	.LASF248:
 4584 0212 53504944 		.ascii	"SPIDriver\000"
 4584      72697665 
 4584      7200
 4585              	.LASF172:
 4586 021c 52584352 		.ascii	"RXCRC\000"
 4586      4300
 4587              	.LASF218:
 4588 0222 424C4B5F 		.ascii	"BLK_UNINIT\000"
 4588      554E494E 
 4588      495400
 4589              	.LASF148:
 4590 022d 41504233 		.ascii	"APB3ENR\000"
 4590      454E5200 
 4591              	.LASF95:
 4592 0235 434E4454 		.ascii	"CNDTR\000"
 4592      5200
 4593              	.LASF61:
 4594 023b 63685F73 		.ascii	"ch_system_debug\000"
 4594      79737465 
 4594      6D5F6465 
 4594      62756700 
 4595              	.LASF267:
 4596 024b 73706963 		.ascii	"spicb_t\000"
 4596      625F7400 
 4597              	.LASF187:
 4598 0253 6C697374 		.ascii	"list\000"
 4598      00
 4599              	.LASF24:
 4600 0258 746D6F64 		.ascii	"tmode_t\000"
 4600      655F7400 
 4601              	.LASF77:
 4602 0260 63685F64 		.ascii	"ch_delta_list\000"
 4602      656C7461 
 4602      5F6C6973 
 4602      7400
 4603              	.LASF192:
 4604 026e 73656E74 		.ascii	"sentmsg\000"
 4604      6D736700 
 4605              	.LASF29:
 4606 0276 6576656E 		.ascii	"eventmask_t\000"
 4606      746D6173 
 4606      6B5F7400 
 4607              	.LASF210:
 4608 0282 69666372 		.ascii	"ifcr\000"
 4608      00
ARM GAS  C:\Users\DEVELO~1\AppData\Local\Temp\ccm6t1vr.s 			page 84


 4609              	.LASF287:
 4610 0287 6F747970 		.ascii	"otyper\000"
 4610      657200
 4611              	.LASF86:
 4612 028e 74726163 		.ascii	"trace_event_t\000"
 4612      655F6576 
 4612      656E745F 
 4612      7400
 4613              	.LASF251:
 4614 029c 6D757465 		.ascii	"mutex\000"
 4614      7800
 4615              	.LASF211:
 4616 02a2 73686966 		.ascii	"shift\000"
 4616      7400
 4617              	.LASF196:
 4618 02a8 63685F73 		.ascii	"ch_semaphore\000"
 4618      656D6170 
 4618      686F7265 
 4618      00
 4619              	.LASF145:
 4620 02b5 41484231 		.ascii	"AHB1ENR\000"
 4620      454E5200 
 4621              	.LASF27:
 4622 02bd 74707269 		.ascii	"tprio_t\000"
 4622      6F5F7400 
 4623              	.LASF85:
 4624 02c5 74696D65 		.ascii	"time\000"
 4624      00
 4625              	.LASF268:
 4626 02ca 73706970 		.ascii	"spip\000"
 4626      00
 4627              	.LASF206:
 4628 02cf 6F735F69 		.ascii	"os_instance_config_t\000"
 4628      6E737461 
 4628      6E63655F 
 4628      636F6E66 
 4628      69675F74 
 4629              	.LASF81:
 4630 02e4 68616C74 		.ascii	"halt\000"
 4630      00
 4631              	.LASF15:
 4632 02e9 6C6F6E67 		.ascii	"long long unsigned int\000"
 4632      206C6F6E 
 4632      6720756E 
 4632      7369676E 
 4632      65642069 
 4633              	.LASF159:
 4634 0300 41504231 		.ascii	"APB1LLPENR\000"
 4634      4C4C5045 
 4634      4E5200
 4635              	.LASF80:
 4636 030b 72656173 		.ascii	"reason\000"
 4636      6F6E00
 4637              	.LASF213:
 4638 0312 76656374 		.ascii	"vector\000"
 4638      6F7200
 4639              	.LASF300:
ARM GAS  C:\Users\DEVELO~1\AppData\Local\Temp\ccm6t1vr.s 			page 85


 4640 0319 50484461 		.ascii	"PHData\000"
 4640      746100
 4641              	.LASF188:
 4642 0320 70717565 		.ascii	"pqueue\000"
 4642      756500
 4643              	.LASF8:
 4644 0327 5F5F7569 		.ascii	"__uint16_t\000"
 4644      6E743136 
 4644      5F7400
 4645              	.LASF30:
 4646 0332 636E745F 		.ascii	"cnt_t\000"
 4646      7400
 4647              	.LASF179:
 4648 0338 646C6973 		.ascii	"dlist\000"
 4648      7400
 4649              	.LASF232:
 4650 033e 4D4F4445 		.ascii	"MODER\000"
 4650      5200
 4651              	.LASF263:
 4652 0344 7373706F 		.ascii	"ssport\000"
 4652      727400
 4653              	.LASF249:
 4654 034b 68616C5F 		.ascii	"hal_spi_driver\000"
 4654      7370695F 
 4654      64726976 
 4654      657200
 4655              	.LASF292:
 4656 035a 6770696F 		.ascii	"gpio_setup_t\000"
 4656      5F736574 
 4656      75705F74 
 4656      00
 4657              	.LASF283:
 4658 0367 626C6F63 		.ascii	"block_addresses\000"
 4658      6B5F6164 
 4658      64726573 
 4658      73657300 
 4659              	.LASF239:
 4660 0377 41465248 		.ascii	"AFRH\000"
 4660      00
 4661              	.LASF240:
 4662 037c 73746D33 		.ascii	"stm32_gpio_t\000"
 4662      325F6770 
 4662      696F5F74 
 4662      00
 4663              	.LASF34:
 4664 0389 6F776E65 		.ascii	"owner\000"
 4664      7200
 4665              	.LASF132:
 4666 038f 41484233 		.ascii	"AHB3RSTR\000"
 4666      52535452 
 4666      00
 4667              	.LASF203:
 4668 0398 6D61696E 		.ascii	"mainthread_end\000"
 4668      74687265 
 4668      61645F65 
 4668      6E6400
 4669              	.LASF307:
ARM GAS  C:\Users\DEVELO~1\AppData\Local\Temp\ccm6t1vr.s 			page 86


 4670 03a7 6D6D6370 		.ascii	"mmcp\000"
 4670      00
 4671              	.LASF231:
 4672 03ac 636C6561 		.ascii	"clear\000"
 4672      7200
 4673              	.LASF43:
 4674 03b2 6D74786C 		.ascii	"mtxlist\000"
 4674      69737400 
 4675              	.LASF178:
 4676 03ba 63685F76 		.ascii	"ch_virtual_timers_list\000"
 4676      69727475 
 4676      616C5F74 
 4676      696D6572 
 4676      735F6C69 
 4677              	.LASF315:
 4678 03d1 433A5C50 		.ascii	"C:\\PROJET\\ChibiOS project\\ChibiOS_21.11.4\\demos"
 4678      524F4A45 
 4678      545C4368 
 4678      6962694F 
 4678      53207072 
 4679 0400 5C53544D 		.ascii	"\\STM32\\RT-STM32H743ZI_REV_XY-NUCLEO144_Quartz8M\000"
 4679      33325C52 
 4679      542D5354 
 4679      4D333248 
 4679      3734335A 
 4680              	.LASF53:
 4681 0430 72666375 		.ascii	"rfcu\000"
 4681      00
 4682              	.LASF180:
 4683 0435 6C617374 		.ascii	"lasttime\000"
 4683      74696D65 
 4683      00
 4684              	.LASF32:
 4685 043e 74687265 		.ascii	"thread_t\000"
 4685      61645F74 
 4685      00
 4686              	.LASF297:
 4687 0447 50454461 		.ascii	"PEData\000"
 4687      746100
 4688              	.LASF82:
 4689 044e 75736572 		.ascii	"user\000"
 4689      00
 4690              	.LASF162:
 4691 0453 41504234 		.ascii	"APB4LPENR\000"
 4691      4C50454E 
 4691      5200
 4692              	.LASF4:
 4693 045d 73697A65 		.ascii	"size_t\000"
 4693      5F7400
 4694              	.LASF189:
 4695 0464 7264796D 		.ascii	"rdymsg\000"
 4695      736700
 4696              	.LASF169:
 4697 046b 52584452 		.ascii	"RXDR\000"
 4697      00
 4698              	.LASF313:
 4699 0470 474E5520 		.ascii	"GNU C17 11.3.1 20220712 -mcpu=cortex-m7 -mthumb -mf"
ARM GAS  C:\Users\DEVELO~1\AppData\Local\Temp\ccm6t1vr.s 			page 87


 4699      43313720 
 4699      31312E33 
 4699      2E312032 
 4699      30323230 
 4700 04a3 6C6F6174 		.ascii	"loat-abi=soft -march=armv7e-m -ggdb -O0 -ffunction-"
 4700      2D616269 
 4700      3D736F66 
 4700      74202D6D 
 4700      61726368 
 4701 04d6 73656374 		.ascii	"sections -fdata-sections -fno-common\000"
 4701      696F6E73 
 4701      202D6664 
 4701      6174612D 
 4701      73656374 
 4702              	.LASF73:
 4703 04fb 63685F70 		.ascii	"ch_priority_queue_t\000"
 4703      72696F72 
 4703      6974795F 
 4703      71756575 
 4703      655F7400 
 4704              	.LASF303:
 4705 050f 504B4461 		.ascii	"PKData\000"
 4705      746100
 4706              	.LASF208:
 4707 0516 5F426F6F 		.ascii	"_Bool\000"
 4707      6C00
 4708              	.LASF140:
 4709 051c 41504234 		.ascii	"APB4RSTR\000"
 4709      52535452 
 4709      00
 4710              	.LASF294:
 4711 0525 50424461 		.ascii	"PBData\000"
 4711      746100
 4712              	.LASF281:
 4713 052c 6765745F 		.ascii	"get_info\000"
 4713      696E666F 
 4713      00
 4714              	.LASF197:
 4715 0535 63685F6D 		.ascii	"ch_mutex\000"
 4715      75746578 
 4715      00
 4716              	.LASF257:
 4717 053e 53504943 		.ascii	"SPIConfig\000"
 4717      6F6E6669 
 4717      6700
 4718              	.LASF92:
 4719 0548 4D304152 		.ascii	"M0AR\000"
 4719      00
 4720              	.LASF48:
 4721 054d 63685F6F 		.ascii	"ch_os_instance\000"
 4721      735F696E 
 4721      7374616E 
 4721      636500
 4722              	.LASF144:
 4723 055c 41484233 		.ascii	"AHB3ENR\000"
 4723      454E5200 
 4724              	.LASF241:
ARM GAS  C:\Users\DEVELO~1\AppData\Local\Temp\ccm6t1vr.s 			page 88


 4725 0564 696F706F 		.ascii	"ioportid_t\000"
 4725      72746964 
 4725      5F7400
 4726              	.LASF238:
 4727 056f 4146524C 		.ascii	"AFRL\000"
 4727      00
 4728              	.LASF122:
 4729 0574 44324343 		.ascii	"D2CCIP1R\000"
 4729      49503152 
 4729      00
 4730              	.LASF235:
 4731 057d 50555044 		.ascii	"PUPDR\000"
 4731      5200
 4732              	.LASF260:
 4733 0583 736C6176 		.ascii	"slave\000"
 4733      6500
 4734              	.LASF205:
 4735 0589 69646C65 		.ascii	"idlethread_end\000"
 4735      74687265 
 4735      61645F65 
 4735      6E6400
 4736              	.LASF75:
 4737 0598 7072696F 		.ascii	"prio\000"
 4737      00
 4738              	.LASF222:
 4739 059d 424C4B5F 		.ascii	"BLK_DISCONNECTING\000"
 4739      44495343 
 4739      4F4E4E45 
 4739      4354494E 
 4739      4700
 4740              	.LASF286:
 4741 05af 6D6F6465 		.ascii	"moder\000"
 4741      7200
 4742              	.LASF308:
 4743 05b5 626F6172 		.ascii	"boardInit\000"
 4743      64496E69 
 4743      7400
 4744              	.LASF63:
 4745 05bf 63686172 		.ascii	"char\000"
 4745      00
 4746              	.LASF76:
 4747 05c4 63685F64 		.ascii	"ch_delta_list_t\000"
 4747      656C7461 
 4747      5F6C6973 
 4747      745F7400 
 4748              	.LASF57:
 4749 05d4 72666375 		.ascii	"rfcu_mask_t\000"
 4749      5F6D6173 
 4749      6B5F7400 
 4750              	.LASF10:
 4751 05e0 5F5F696E 		.ascii	"__int32_t\000"
 4751      7433325F 
 4751      7400
 4752              	.LASF157:
 4753 05ea 41484234 		.ascii	"AHB4LPENR\000"
 4753      4C50454E 
 4753      5200
ARM GAS  C:\Users\DEVELO~1\AppData\Local\Temp\ccm6t1vr.s 			page 89


 4754              	.LASF117:
 4755 05f4 504C4C32 		.ascii	"PLL2FRACR\000"
 4755      46524143 
 4755      5200
 4756              	.LASF254:
 4757 05fe 7478646D 		.ascii	"txdmamode\000"
 4757      616D6F64 
 4757      6500
 4758              	.LASF36:
 4759 0608 77616261 		.ascii	"wabase\000"
 4759      736500
 4760              	.LASF25:
 4761 060f 74737461 		.ascii	"tstate_t\000"
 4761      74655F74 
 4761      00
 4762              	.LASF109:
 4763 0618 44324346 		.ascii	"D2CFGR\000"
 4763      475200
 4764              	.LASF229:
 4765 061f 626C6B5F 		.ascii	"blk_num\000"
 4765      6E756D00 
 4766              	.LASF202:
 4767 0627 6D61696E 		.ascii	"mainthread_base\000"
 4767      74687265 
 4767      61645F62 
 4767      61736500 
 4768              	.LASF214:
 4769 0637 73746D33 		.ascii	"stm32_dma_stream_t\000"
 4769      325F646D 
 4769      615F7374 
 4769      7265616D 
 4769      5F7400
 4770              	.LASF14:
 4771 064a 5F5F7569 		.ascii	"__uint64_t\000"
 4771      6E743634 
 4771      5F7400
 4772              	.LASF319:
 4773 0655 5F5F7263 		.ascii	"__rccResetAHB4\000"
 4773      63526573 
 4773      65744148 
 4773      423400
 4774              	.LASF123:
 4775 0664 44324343 		.ascii	"D2CCIP2R\000"
 4775      49503252 
 4775      00
 4776              	.LASF16:
 4777 066d 75696E74 		.ascii	"uint8_t\000"
 4777      385F7400 
 4778              	.LASF126:
 4779 0675 43494552 		.ascii	"CIER\000"
 4779      00
 4780              	.LASF41:
 4781 067a 6D736771 		.ascii	"msgqueue\000"
 4781      75657565 
 4781      00
 4782              	.LASF116:
 4783 0683 504C4C32 		.ascii	"PLL2DIVR\000"
ARM GAS  C:\Users\DEVELO~1\AppData\Local\Temp\ccm6t1vr.s 			page 90


 4783      44495652 
 4783      00
 4784              	.LASF171:
 4785 068c 54584352 		.ascii	"TXCRC\000"
 4785      4300
 4786              	.LASF209:
 4787 0692 73747265 		.ascii	"stream\000"
 4787      616D00
 4788              	.LASF47:
 4789 0699 63685F74 		.ascii	"ch_thread\000"
 4789      68726561 
 4789      6400
 4790              	.LASF168:
 4791 06a3 54584452 		.ascii	"TXDR\000"
 4791      00
 4792              	.LASF306:
 4793 06a8 6D6D635F 		.ascii	"mmc_lld_is_card_inserted\000"
 4793      6C6C645F 
 4793      69735F63 
 4793      6172645F 
 4793      696E7365 
 4794              	.LASF223:
 4795 06c1 424C4B5F 		.ascii	"BLK_READY\000"
 4795      52454144 
 4795      5900
 4796              	.LASF64:
 4797 06cb 73797374 		.ascii	"system_debug_t\000"
 4797      656D5F64 
 4797      65627567 
 4797      5F7400
 4798              	.LASF1:
 4799 06da 6C6F6E67 		.ascii	"long long int\000"
 4799      206C6F6E 
 4799      6720696E 
 4799      7400
 4800              	.LASF227:
 4801 06e8 626C6B73 		.ascii	"blkstate_t\000"
 4801      74617465 
 4801      5F7400
 4802              	.LASF279:
 4803 06f3 77726974 		.ascii	"write\000"
 4803      6500
 4804              	.LASF28:
 4805 06f9 6D73675F 		.ascii	"msg_t\000"
 4805      7400
 4806              	.LASF289:
 4807 06ff 70757064 		.ascii	"pupdr\000"
 4807      7200
 4808              	.LASF271:
 4809 0705 6D6D635F 		.ascii	"mmc_spi_config_t\000"
 4809      7370695F 
 4809      636F6E66 
 4809      69675F74 
 4809      00
 4810              	.LASF33:
 4811 0716 72717565 		.ascii	"rqueue\000"
 4811      756500
ARM GAS  C:\Users\DEVELO~1\AppData\Local\Temp\ccm6t1vr.s 			page 91


 4812              	.LASF99:
 4813 071d 42444D41 		.ascii	"BDMA_Channel_TypeDef\000"
 4813      5F436861 
 4813      6E6E656C 
 4813      5F547970 
 4813      65446566 
 4814              	.LASF185:
 4815 0732 72656769 		.ascii	"registry_t\000"
 4815      73747279 
 4815      5F7400
 4816              	.LASF245:
 4817 073d 5350495F 		.ascii	"SPI_ACTIVE\000"
 4817      41435449 
 4817      564500
 4818              	.LASF316:
 4819 0748 6770696F 		.ascii	"gpio_default_config\000"
 4819      5F646566 
 4819      61756C74 
 4819      5F636F6E 
 4819      66696700 
 4820              	.LASF273:
 4821 075c 696E7374 		.ascii	"instance_offset\000"
 4821      616E6365 
 4821      5F6F6666 
 4821      73657400 
 4822              	.LASF219:
 4823 076c 424C4B5F 		.ascii	"BLK_STOP\000"
 4823      53544F50 
 4823      00
 4824              	.LASF94:
 4825 0775 444D415F 		.ascii	"DMA_Stream_TypeDef\000"
 4825      53747265 
 4825      616D5F54 
 4825      79706544 
 4825      656600
 4826              	.LASF88:
 4827 0788 73697A65 		.ascii	"size\000"
 4827      00
 4828              	.LASF302:
 4829 078d 504A4461 		.ascii	"PJData\000"
 4829      746100
 4830              	.LASF291:
 4831 0794 61667268 		.ascii	"afrh\000"
 4831      00
 4832              	.LASF290:
 4833 0799 6166726C 		.ascii	"afrl\000"
 4833      00
 4834              	.LASF274:
 4835 079e 69735F69 		.ascii	"is_inserted\000"
 4835      6E736572 
 4835      74656400 
 4836              	.LASF59:
 4837 07aa 6D61736B 		.ascii	"mask\000"
 4837      00
 4838              	.LASF258:
 4839 07af 68616C5F 		.ascii	"hal_spi_config\000"
 4839      7370695F 
ARM GAS  C:\Users\DEVELO~1\AppData\Local\Temp\ccm6t1vr.s 			page 92


 4839      636F6E66 
 4839      696700
 4840              	.LASF66:
 4841 07be 73797369 		.ascii	"sysinterval_t\000"
 4841      6E746572 
 4841      76616C5F 
 4841      7400
 4842              	.LASF151:
 4843 07cc 41504232 		.ascii	"APB2ENR\000"
 4843      454E5200 
 4844              	.LASF62:
 4845 07d4 70616E69 		.ascii	"panic_msg\000"
 4845      635F6D73 
 4845      6700
 4846              	.LASF142:
 4847 07de 4433414D 		.ascii	"D3AMR\000"
 4847      5200
 4848              	.LASF90:
 4849 07e4 74726163 		.ascii	"trace_buffer_t\000"
 4849      655F6275 
 4849      66666572 
 4849      5F7400
 4850              	.LASF137:
 4851 07f3 41504231 		.ascii	"APB1LRSTR\000"
 4851      4C525354 
 4851      5200
 4852              	.LASF299:
 4853 07fd 50474461 		.ascii	"PGData\000"
 4853      746100
 4854              	.LASF155:
 4855 0804 41484231 		.ascii	"AHB1LPENR\000"
 4855      4C50454E 
 4855      5200
 4856              	.LASF304:
 4857 080e 6770696F 		.ascii	"gpio_config_t\000"
 4857      5F636F6E 
 4857      6669675F 
 4857      7400
 4858              	.LASF55:
 4859 081c 6D61696E 		.ascii	"mainthread\000"
 4859      74687265 
 4859      616400
 4860              	.LASF234:
 4861 0827 4F535045 		.ascii	"OSPEEDR\000"
 4861      45445200 
 4862              	.LASF237:
 4863 082f 4C4F434B 		.ascii	"LOCKR\000"
 4863      5200
 4864              	.LASF2:
 4865 0835 6C6F6E67 		.ascii	"long double\000"
 4865      20646F75 
 4865      626C6500 
 4866              	.LASF17:
 4867 0841 75696E74 		.ascii	"uint16_t\000"
 4867      31365F74 
 4867      00
 4868              	.LASF67:
ARM GAS  C:\Users\DEVELO~1\AppData\Local\Temp\ccm6t1vr.s 			page 93


 4869 084a 63685F6C 		.ascii	"ch_list_t\000"
 4869      6973745F 
 4869      7400
 4870              	.LASF134:
 4871 0854 41484232 		.ascii	"AHB2RSTR\000"
 4871      52535452 
 4871      00
 4872              	.LASF242:
 4873 085d 5350495F 		.ascii	"SPI_UNINIT\000"
 4873      554E494E 
 4873      495400
 4874              	.LASF216:
 4875 0868 6368616E 		.ascii	"channel\000"
 4875      6E656C00 
 4876              	.LASF128:
 4877 0870 43494352 		.ascii	"CICR\000"
 4877      00
 4878              	.LASF103:
 4879 0875 48534943 		.ascii	"HSICFGR\000"
 4879      46475200 
 4880              	.LASF296:
 4881 087d 50444461 		.ascii	"PDData\000"
 4881      746100
 4882              	.LASF54:
 4883 0884 636F6E66 		.ascii	"config\000"
 4883      696700
 4884              	.LASF226:
 4885 088b 424C4B5F 		.ascii	"BLK_SYNCING\000"
 4885      53594E43 
 4885      494E4700 
 4886              	.LASF102:
 4887 0897 444D414D 		.ascii	"DMAMUX_Channel_TypeDef\000"
 4887      55585F43 
 4887      68616E6E 
 4887      656C5F54 
 4887      79706544 
 4888              	.LASF167:
 4889 08ae 52455345 		.ascii	"RESERVED0\000"
 4889      52564544 
 4889      3000
 4890              	.LASF107:
 4891 08b8 52455345 		.ascii	"RESERVED1\000"
 4891      52564544 
 4891      3100
 4892              	.LASF111:
 4893 08c2 52455345 		.ascii	"RESERVED2\000"
 4893      52564544 
 4893      3200
 4894              	.LASF120:
 4895 08cc 52455345 		.ascii	"RESERVED3\000"
 4895      52564544 
 4895      3300
 4896              	.LASF125:
 4897 08d6 52455345 		.ascii	"RESERVED4\000"
 4897      52564544 
 4897      3400
 4898              	.LASF131:
ARM GAS  C:\Users\DEVELO~1\AppData\Local\Temp\ccm6t1vr.s 			page 94


 4899 08e0 52455345 		.ascii	"RESERVED6\000"
 4899      52564544 
 4899      3600
 4900              	.LASF7:
 4901 08ea 73686F72 		.ascii	"short int\000"
 4901      7420696E 
 4901      7400
 4902              	.LASF141:
 4903 08f4 52455345 		.ascii	"RESERVED8\000"
 4903      52564544 
 4903      3800
 4904              	.LASF276:
 4905 08fe 636F6E6E 		.ascii	"connect\000"
 4905      65637400 
 4906              	.LASF158:
 4907 0906 41504233 		.ascii	"APB3LPENR\000"
 4907      4C50454E 
 4907      5200
 4908              	.LASF312:
 4909 0910 72636345 		.ascii	"rccEnableAHB4\000"
 4909      6E61626C 
 4909      65414842 
 4909      3400
 4910              	.LASF176:
 4911 091e 706F7274 		.ascii	"port_intctx\000"
 4911      5F696E74 
 4911      63747800 
 4912              	.LASF247:
 4913 092a 73706973 		.ascii	"spistate_t\000"
 4913      74617465 
 4913      5F7400
 4914              	.LASF170:
 4915 0935 43524350 		.ascii	"CRCPOLY\000"
 4915      4F4C5900 
 4916              	.LASF165:
 4917 093d 43464731 		.ascii	"CFG1\000"
 4917      00
 4918              	.LASF166:
 4919 0942 43464732 		.ascii	"CFG2\000"
 4919      00
 4920              	.LASF136:
 4921 0947 41504233 		.ascii	"APB3RSTR\000"
 4921      52535452 
 4921      00
 4922              	.LASF22:
 4923 0950 706F7274 		.ascii	"port_stkalign_t\000"
 4923      5F73746B 
 4923      616C6967 
 4923      6E5F7400 
 4924              	.LASF293:
 4925 0960 50414461 		.ascii	"PAData\000"
 4925      746100
 4926              	.LASF173:
 4927 0967 55445244 		.ascii	"UDRDR\000"
 4927      5200
 4928              	.LASF233:
 4929 096d 4F545950 		.ascii	"OTYPER\000"
ARM GAS  C:\Users\DEVELO~1\AppData\Local\Temp\ccm6t1vr.s 			page 95


 4929      455200
 4930              	.LASF201:
 4931 0974 63685F6F 		.ascii	"ch_os_instance_config\000"
 4931      735F696E 
 4931      7374616E 
 4931      63655F63 
 4931      6F6E6669 
 4932              	.LASF305:
 4933 098a 6D6D635F 		.ascii	"mmc_lld_is_write_protected\000"
 4933      6C6C645F 
 4933      69735F77 
 4933      72697465 
 4933      5F70726F 
 4934              	.LASF98:
 4935 09a5 434D3141 		.ascii	"CM1AR\000"
 4935      5200
 4936              	.LASF256:
 4937 09ab 7478736F 		.ascii	"txsource\000"
 4937      75726365 
 4937      00
 4938              	.LASF269:
 4939 09b4 6C736366 		.ascii	"lscfg\000"
 4939      6700
 4940              	.LASF121:
 4941 09ba 44314343 		.ascii	"D1CCIPR\000"
 4941      49505200 
 4942              	.LASF224:
 4943 09c2 424C4B5F 		.ascii	"BLK_READING\000"
 4943      52454144 
 4943      494E4700 
 4944              	.LASF106:
 4945 09ce 43464752 		.ascii	"CFGR\000"
 4945      00
 4946              	.LASF49:
 4947 09d3 726C6973 		.ascii	"rlist\000"
 4947      7400
 4948              	.LASF261:
 4949 09d9 64617461 		.ascii	"data_cb\000"
 4949      5F636200 
 4950              	.LASF244:
 4951 09e1 5350495F 		.ascii	"SPI_READY\000"
 4951      52454144 
 4951      5900
 4952              	.LASF152:
 4953 09eb 41504234 		.ascii	"APB4ENR\000"
 4953      454E5200 
 4954              	.LASF5:
 4955 09f3 5F5F7569 		.ascii	"__uint8_t\000"
 4955      6E74385F 
 4955      7400
 4956              	.LASF278:
 4957 09fd 72656164 		.ascii	"read\000"
 4957      00
 4958              	.LASF113:
 4959 0a02 504C4C43 		.ascii	"PLLCFGR\000"
 4959      46475200 
 4960              	.LASF112:
ARM GAS  C:\Users\DEVELO~1\AppData\Local\Temp\ccm6t1vr.s 			page 96


 4961 0a0a 504C4C43 		.ascii	"PLLCKSELR\000"
 4961      4B53454C 
 4961      5200
 4962              	.LASF150:
 4963 0a14 41504231 		.ascii	"APB1HENR\000"
 4963      48454E52 
 4963      00
 4964              	.LASF93:
 4965 0a1d 4D314152 		.ascii	"M1AR\000"
 4965      00
 4966              	.LASF21:
 4967 0a22 75696E74 		.ascii	"uint_fast8_t\000"
 4967      5F666173 
 4967      74385F74 
 4967      00
 4968              	.LASF154:
 4969 0a2f 41484233 		.ascii	"AHB3LPENR\000"
 4969      4C50454E 
 4969      5200
 4970              	.LASF115:
 4971 0a39 504C4C31 		.ascii	"PLL1FRACR\000"
 4971      46524143 
 4971      5200
 4972              	.LASF26:
 4973 0a43 74726566 		.ascii	"trefs_t\000"
 4973      735F7400 
 4974              	.LASF108:
 4975 0a4b 44314346 		.ascii	"D1CFGR\000"
 4975      475200
 4976              	.LASF13:
 4977 0a52 6C6F6E67 		.ascii	"long unsigned int\000"
 4977      20756E73 
 4977      69676E65 
 4977      6420696E 
 4977      7400
 4978              	.LASF200:
 4979 0a64 72656164 		.ascii	"ready_list_t\000"
 4979      795F6C69 
 4979      73745F74 
 4979      00
 4980              	.LASF84:
 4981 0a71 72747374 		.ascii	"rtstamp\000"
 4981      616D7000 
 4982              	.LASF243:
 4983 0a79 5350495F 		.ascii	"SPI_STOP\000"
 4983      53544F50 
 4983      00
 4984              	.LASF146:
 4985 0a82 41484232 		.ascii	"AHB2ENR\000"
 4985      454E5200 
 4986              	.LASF18:
 4987 0a8a 696E7433 		.ascii	"int32_t\000"
 4987      325F7400 
 4988              	.LASF309:
 4989 0a92 5F5F6561 		.ascii	"__early_init\000"
 4989      726C795F 
 4989      696E6974 
ARM GAS  C:\Users\DEVELO~1\AppData\Local\Temp\ccm6t1vr.s 			page 97


 4989      00
 4990              	.LASF60:
 4991 0a9f 72666375 		.ascii	"rfcu_t\000"
 4991      5F7400
 4992              	.LASF184:
 4993 0aa6 71756575 		.ascii	"queue\000"
 4993      6500
 4994              	.LASF56:
 4995 0aac 74726163 		.ascii	"trace_buffer\000"
 4995      655F6275 
 4995      66666572 
 4995      00
 4996              	.LASF193:
 4997 0ab9 77747365 		.ascii	"wtsemp\000"
 4997      6D7000
 4998              	.LASF74:
 4999 0ac0 63685F70 		.ascii	"ch_priority_queue\000"
 4999      72696F72 
 4999      6974795F 
 4999      71756575 
 4999      6500
 5000              	.LASF114:
 5001 0ad2 504C4C31 		.ascii	"PLL1DIVR\000"
 5001      44495652 
 5001      00
 5002              	.LASF71:
 5003 0adb 63685F71 		.ascii	"ch_queue\000"
 5003      75657565 
 5003      00
 5004              	.LASF207:
 5005 0ae4 6D757465 		.ascii	"mutex_t\000"
 5005      785F7400 
 5006              	.LASF83:
 5007 0aec 74797065 		.ascii	"type\000"
 5007      00
 5008              	.LASF6:
 5009 0af1 756E7369 		.ascii	"unsigned char\000"
 5009      676E6564 
 5009      20636861 
 5009      7200
 5010              	.LASF105:
 5011 0aff 43534943 		.ascii	"CSICFGR\000"
 5011      46475200 
 5012              	.LASF12:
 5013 0b07 5F5F7569 		.ascii	"__uint32_t\000"
 5013      6E743332 
 5013      5F7400
 5014              	.LASF40:
 5015 0b12 77616974 		.ascii	"waiting\000"
 5015      696E6700 
 5016              	.LASF182:
 5017 0b1a 76697274 		.ascii	"virtual_timers_list_t\000"
 5017      75616C5F 
 5017      74696D65 
 5017      72735F6C 
 5017      6973745F 
 5018              	.LASF253:
ARM GAS  C:\Users\DEVELO~1\AppData\Local\Temp\ccm6t1vr.s 			page 98


 5019 0b30 7278646D 		.ascii	"rxdmamode\000"
 5019      616D6F64 
 5019      6500
 5020              	.LASF127:
 5021 0b3a 43494652 		.ascii	"CIFR\000"
 5021      00
 5022              	.LASF143:
 5023 0b3f 52455345 		.ascii	"RESERVED11\000"
 5023      52564544 
 5023      313100
 5024              	.LASF153:
 5025 0b4a 52455345 		.ascii	"RESERVED12\000"
 5025      52564544 
 5025      313200
 5026              	.LASF163:
 5027 0b55 52455345 		.ascii	"RESERVED13\000"
 5027      52564544 
 5027      313300
 5028              	.LASF310:
 5029 0b60 6770696F 		.ascii	"gpiop\000"
 5029      7000
 5030              	.LASF225:
 5031 0b66 424C4B5F 		.ascii	"BLK_WRITING\000"
 5031      57524954 
 5031      494E4700 
 5032              	.LASF174:
 5033 0b72 49325343 		.ascii	"I2SCFGR\000"
 5033      46475200 
 5034              	.LASF37:
 5035 0b7a 73746174 		.ascii	"state\000"
 5035      6500
 5036              	.LASF175:
 5037 0b80 5350495F 		.ascii	"SPI_TypeDef\000"
 5037      54797065 
 5037      44656600 
 5038              	.LASF46:
 5039 0b8c 6F735F69 		.ascii	"os_instance_t\000"
 5039      6E737461 
 5039      6E63655F 
 5039      7400
 5040              	.LASF20:
 5041 0b9a 75696E74 		.ascii	"uint64_t\000"
 5041      36345F74 
 5041      00
 5042              	.LASF51:
 5043 0ba3 7265676C 		.ascii	"reglist\000"
 5043      69737400 
 5044              	.LASF124:
 5045 0bab 44334343 		.ascii	"D3CCIPR\000"
 5045      49505200 
 5046              	.LASF318:
 5047 0bb3 73746D33 		.ascii	"stm32_gpio_init\000"
 5047      325F6770 
 5047      696F5F69 
 5047      6E697400 
 5048              	.LASF204:
 5049 0bc3 69646C65 		.ascii	"idlethread_base\000"
ARM GAS  C:\Users\DEVELO~1\AppData\Local\Temp\ccm6t1vr.s 			page 99


 5049      74687265 
 5049      61645F62 
 5049      61736500 
 5050              	.LASF270:
 5051 0bd3 68736366 		.ascii	"hscfg\000"
 5051      6700
 5052              	.LASF3:
 5053 0bd9 7369676E 		.ascii	"signed char\000"
 5053      65642063 
 5053      68617200 
 5054              	.LASF301:
 5055 0be5 50494461 		.ascii	"PIData\000"
 5055      746100
 5056              	.LASF78:
 5057 0bec 64656C74 		.ascii	"delta\000"
 5057      6100
 5058              	.LASF97:
 5059 0bf2 434D3041 		.ascii	"CM0AR\000"
 5059      5200
 5060              	.LASF104:
 5061 0bf8 43525243 		.ascii	"CRRCR\000"
 5061      5200
 5062              	.LASF9:
 5063 0bfe 73686F72 		.ascii	"short unsigned int\000"
 5063      7420756E 
 5063      7369676E 
 5063      65642069 
 5063      6E7400
 5064              	.LASF23:
 5065 0c11 73746B61 		.ascii	"stkalign_t\000"
 5065      6C69676E 
 5065      5F7400
 5066              	.LASF230:
 5067 0c1c 426C6F63 		.ascii	"BlockDeviceInfo\000"
 5067      6B446576 
 5067      69636549 
 5067      6E666F00 
 5068              	.LASF100:
 5069 0c2c 49464352 		.ascii	"IFCR\000"
 5069      00
 5070              	.LASF250:
 5071 0c31 73796E63 		.ascii	"sync_transfer\000"
 5071      5F747261 
 5071      6E736665 
 5071      7200
 5072              	.LASF199:
 5073 0c3f 63757272 		.ascii	"current\000"
 5073      656E7400 
 5074              	.LASF135:
 5075 0c47 41484234 		.ascii	"AHB4RSTR\000"
 5075      52535452 
 5075      00
 5076              	.LASF275:
 5077 0c50 69735F70 		.ascii	"is_protected\000"
 5077      726F7465 
 5077      63746564 
 5077      00
ARM GAS  C:\Users\DEVELO~1\AppData\Local\Temp\ccm6t1vr.s 			page 100


 5078              	.LASF265:
 5079 0c5d 63666731 		.ascii	"cfg1\000"
 5079      00
 5080              	.LASF266:
 5081 0c62 63666732 		.ascii	"cfg2\000"
 5081      00
 5082              	.LASF252:
 5083 0c67 69735F62 		.ascii	"is_bdma\000"
 5083      646D6100 
 5084              	.LASF147:
 5085 0c6f 41484234 		.ascii	"AHB4ENR\000"
 5085      454E5200 
 5086              	.LASF129:
 5087 0c77 52455345 		.ascii	"RESERVED5\000"
 5087      52564544 
 5087      3500
 5088              	.LASF298:
 5089 0c81 50464461 		.ascii	"PFData\000"
 5089      746100
 5090              	.LASF288:
 5091 0c88 6F737065 		.ascii	"ospeedr\000"
 5091      65647200 
 5092              	.LASF217:
 5093 0c90 73746D33 		.ascii	"stm32_bdma_stream_t\000"
 5093      325F6264 
 5093      6D615F73 
 5093      74726561 
 5093      6D5F7400 
 5094              	.LASF52:
 5095 0ca4 636F7265 		.ascii	"core_id\000"
 5095      5F696400 
 5096              	.LASF160:
 5097 0cac 41504231 		.ascii	"APB1HLPENR\000"
 5097      484C5045 
 5097      4E5200
 5098              	.LASF191:
 5099 0cb7 77747472 		.ascii	"wttrp\000"
 5099      7000
 5100              	.LASF194:
 5101 0cbd 77746D74 		.ascii	"wtmtxp\000"
 5101      787000
 5102              	.LASF255:
 5103 0cc4 72787369 		.ascii	"rxsink\000"
 5103      6E6B00
 5104              	.LASF246:
 5105 0ccb 5350495F 		.ascii	"SPI_COMPLETE\000"
 5105      434F4D50 
 5105      4C455445 
 5105      00
 5106              	.LASF317:
 5107 0cd8 73746D33 		.ascii	"stm32_clock_init\000"
 5107      325F636C 
 5107      6F636B5F 
 5107      696E6974 
 5107      00
 5108              	.LASF190:
 5109 0ce9 65786974 		.ascii	"exitcode\000"
ARM GAS  C:\Users\DEVELO~1\AppData\Local\Temp\ccm6t1vr.s 			page 101


 5109      636F6465 
 5109      00
 5110              	.LASF212:
 5111 0cf2 73656C66 		.ascii	"selfindex\000"
 5111      696E6465 
 5111      7800
 5112              	.LASF149:
 5113 0cfc 41504231 		.ascii	"APB1LENR\000"
 5113      4C454E52 
 5113      00
 5114              	.LASF133:
 5115 0d05 41484231 		.ascii	"AHB1RSTR\000"
 5115      52535452 
 5115      00
 5116              	.LASF31:
 5117 0d0e 636F7265 		.ascii	"core_id_t\000"
 5117      5F69645F 
 5117      7400
 5118              	.LASF45:
 5119 0d18 6D706F6F 		.ascii	"mpool\000"
 5119      6C00
 5120              	.LASF264:
 5121 0d1e 73737061 		.ascii	"sspad\000"
 5121      6400
 5122              		.ident	"GCC: (Arm GNU Toolchain 11.3.Rel1) 11.3.1 20220712"
ARM GAS  C:\Users\DEVELO~1\AppData\Local\Temp\ccm6t1vr.s 			page 102


DEFINED SYMBOLS
                            *ABS*:00000000 board.c
C:\Users\DEVELO~1\AppData\Local\Temp\ccm6t1vr.s:18     .text.__rccResetAHB4:00000000 $t
C:\Users\DEVELO~1\AppData\Local\Temp\ccm6t1vr.s:23     .text.__rccResetAHB4:00000000 __rccResetAHB4
C:\Users\DEVELO~1\AppData\Local\Temp\ccm6t1vr.s:74     .text.__rccResetAHB4:0000003c $d
C:\Users\DEVELO~1\AppData\Local\Temp\ccm6t1vr.s:79     .text.rccEnableAHB4:00000000 $t
C:\Users\DEVELO~1\AppData\Local\Temp\ccm6t1vr.s:84     .text.rccEnableAHB4:00000000 rccEnableAHB4
C:\Users\DEVELO~1\AppData\Local\Temp\ccm6t1vr.s:150    .text.rccEnableAHB4:00000058 $d
C:\Users\DEVELO~1\AppData\Local\Temp\ccm6t1vr.s:155    .rodata.gpio_default_config:00000000 $d
C:\Users\DEVELO~1\AppData\Local\Temp\ccm6t1vr.s:158    .rodata.gpio_default_config:00000000 gpio_default_config
C:\Users\DEVELO~1\AppData\Local\Temp\ccm6t1vr.s:237    .text.gpio_init:00000000 $t
C:\Users\DEVELO~1\AppData\Local\Temp\ccm6t1vr.s:242    .text.gpio_init:00000000 gpio_init
C:\Users\DEVELO~1\AppData\Local\Temp\ccm6t1vr.s:316    .text.stm32_gpio_init:00000000 $t
C:\Users\DEVELO~1\AppData\Local\Temp\ccm6t1vr.s:321    .text.stm32_gpio_init:00000000 stm32_gpio_init
C:\Users\DEVELO~1\AppData\Local\Temp\ccm6t1vr.s:390    .text.stm32_gpio_init:00000074 $d
C:\Users\DEVELO~1\AppData\Local\Temp\ccm6t1vr.s:416    .text.__early_init:00000000 $t
C:\Users\DEVELO~1\AppData\Local\Temp\ccm6t1vr.s:422    .text.__early_init:00000000 __early_init
C:\Users\DEVELO~1\AppData\Local\Temp\ccm6t1vr.s:445    .text.mmc_lld_is_card_inserted:00000000 $t
C:\Users\DEVELO~1\AppData\Local\Temp\ccm6t1vr.s:451    .text.mmc_lld_is_card_inserted:00000000 mmc_lld_is_card_inserted
C:\Users\DEVELO~1\AppData\Local\Temp\ccm6t1vr.s:483    .text.mmc_lld_is_write_protected:00000000 $t
C:\Users\DEVELO~1\AppData\Local\Temp\ccm6t1vr.s:489    .text.mmc_lld_is_write_protected:00000000 mmc_lld_is_write_protected
C:\Users\DEVELO~1\AppData\Local\Temp\ccm6t1vr.s:521    .text.boardInit:00000000 $t
C:\Users\DEVELO~1\AppData\Local\Temp\ccm6t1vr.s:527    .text.boardInit:00000000 boardInit

UNDEFINED SYMBOLS
stm32_clock_init
