ARM GAS  C:\Users\DEVELO~1\AppData\Local\Temp\ccpTeHLh.s 			page 1


   1              		.cpu cortex-m7
   2              		.arch armv7e-m
   3              		.fpu softvfp
   4              		.eabi_attribute 20, 1
   5              		.eabi_attribute 21, 1
   6              		.eabi_attribute 23, 3
   7              		.eabi_attribute 24, 1
   8              		.eabi_attribute 25, 1
   9              		.eabi_attribute 26, 1
  10              		.eabi_attribute 30, 6
  11              		.eabi_attribute 34, 1
  12              		.eabi_attribute 18, 4
  13              		.file	"brick_cal.c"
  14              		.text
  15              	.Ltext0:
  16              		.cfi_sections	.debug_frame
  17              		.global	brick_cal_state
  18              		.section	.bss.brick_cal_state,"aw",%nobits
  19              		.align	2
  20              		.type	brick_cal_state, %object
  21              		.size	brick_cal_state, 148
  22              	brick_cal_state:
  23 0000 00000000 		.space	148
  23      00000000 
  23      00000000 
  23      00000000 
  23      00000000 
  24              		.section	.text.channel_valid,"ax",%progbits
  25              		.align	1
  26              		.syntax unified
  27              		.thumb
  28              		.thumb_func
  29              		.type	channel_valid, %function
  30              	channel_valid:
  31              	.LFB0:
  32              		.file 1 "drivers/HallEffect/brick_cal.c"
  33              		.loc 1 10 71
  34              		.cfi_startproc
  35              		@ args = 0, pretend = 0, frame = 8
  36              		@ frame_needed = 1, uses_anonymous_args = 0
  37              		@ link register save eliminated.
  38 0000 80B4     		push	{r7}
  39              		.cfi_def_cfa_offset 4
  40              		.cfi_offset 7, -4
  41 0002 83B0     		sub	sp, sp, #12
  42              		.cfi_def_cfa_offset 16
  43 0004 00AF     		add	r7, sp, #0
  44              		.cfi_def_cfa_register 7
  45 0006 7860     		str	r0, [r7, #4]
  46 0008 0B46     		mov	r3, r1
  47 000a FB70     		strb	r3, [r7, #3]
  48              		.loc 1 11 6
  49 000c 7B68     		ldr	r3, [r7, #4]
  50 000e 002B     		cmp	r3, #0
  51 0010 01D1     		bne	.L2
  52              		.loc 1 12 12
  53 0012 0023     		movs	r3, #0
ARM GAS  C:\Users\DEVELO~1\AppData\Local\Temp\ccpTeHLh.s 			page 2


  54 0014 0DE0     		b	.L3
  55              	.L2:
  56              		.loc 1 15 23
  57 0016 7B68     		ldr	r3, [r7, #4]
  58 0018 5B78     		ldrb	r3, [r3, #1]	@ zero_extendqisi2
  59              		.loc 1 15 32
  60 001a FA78     		ldrb	r2, [r7, #3]	@ zero_extendqisi2
  61 001c 9A42     		cmp	r2, r3
  62 001e 04D2     		bcs	.L4
  63              		.loc 1 15 32 is_stmt 0 discriminator 1
  64 0020 FB78     		ldrb	r3, [r7, #3]	@ zero_extendqisi2
  65 0022 0F2B     		cmp	r3, #15
  66 0024 01D8     		bhi	.L4
  67              		.loc 1 15 32 discriminator 3
  68 0026 0123     		movs	r3, #1
  69 0028 00E0     		b	.L5
  70              	.L4:
  71              		.loc 1 15 32 discriminator 4
  72 002a 0023     		movs	r3, #0
  73              	.L5:
  74              		.loc 1 15 32 discriminator 6
  75 002c 03F00103 		and	r3, r3, #1
  76 0030 DBB2     		uxtb	r3, r3
  77              	.L3:
  78              		.loc 1 16 1 is_stmt 1
  79 0032 1846     		mov	r0, r3
  80 0034 0C37     		adds	r7, r7, #12
  81              		.cfi_def_cfa_offset 4
  82 0036 BD46     		mov	sp, r7
  83              		.cfi_def_cfa_register 13
  84              		@ sp needed
  85 0038 80BC     		pop	{r7}
  86              		.cfi_restore 7
  87              		.cfi_def_cfa_offset 0
  88 003a 7047     		bx	lr
  89              		.cfi_endproc
  90              	.LFE0:
  91              		.size	channel_valid, .-channel_valid
  92              		.section	.text.brick_cal_pot_init,"ax",%progbits
  93              		.align	1
  94              		.global	brick_cal_pot_init
  95              		.syntax unified
  96              		.thumb
  97              		.thumb_func
  98              		.type	brick_cal_pot_init, %function
  99              	brick_cal_pot_init:
 100              	.LFB1:
 101              		.loc 1 18 87
 102              		.cfi_startproc
 103              		@ args = 0, pretend = 0, frame = 16
 104              		@ frame_needed = 1, uses_anonymous_args = 0
 105              		@ link register save eliminated.
 106 0000 80B4     		push	{r7}
 107              		.cfi_def_cfa_offset 4
 108              		.cfi_offset 7, -4
 109 0002 85B0     		sub	sp, sp, #20
 110              		.cfi_def_cfa_offset 24
ARM GAS  C:\Users\DEVELO~1\AppData\Local\Temp\ccpTeHLh.s 			page 3


 111 0004 00AF     		add	r7, sp, #0
 112              		.cfi_def_cfa_register 7
 113 0006 7860     		str	r0, [r7, #4]
 114 0008 0B46     		mov	r3, r1
 115 000a FB70     		strb	r3, [r7, #3]
 116 000c 1346     		mov	r3, r2
 117 000e BB70     		strb	r3, [r7, #2]
 118              		.loc 1 19 6
 119 0010 7B68     		ldr	r3, [r7, #4]
 120 0012 002B     		cmp	r3, #0
 121 0014 01D1     		bne	.L7
 122              		.loc 1 20 12
 123 0016 0123     		movs	r3, #1
 124 0018 4AE0     		b	.L8
 125              	.L7:
 126              		.loc 1 23 6
 127 001a FB78     		ldrb	r3, [r7, #3]	@ zero_extendqisi2
 128 001c 102B     		cmp	r3, #16
 129 001e 01D9     		bls	.L9
 130              		.loc 1 24 16
 131 0020 1023     		movs	r3, #16
 132 0022 FB70     		strb	r3, [r7, #3]
 133              	.L9:
 134              		.loc 1 27 19
 135 0024 7B68     		ldr	r3, [r7, #4]
 136 0026 FA78     		ldrb	r2, [r7, #3]
 137 0028 1A70     		strb	r2, [r3]
 138              		.loc 1 28 76
 139 002a BB78     		ldrb	r3, [r7, #2]	@ zero_extendqisi2
 140 002c 102B     		cmp	r3, #16
 141 002e 28BF     		it	cs
 142 0030 1023     		movcs	r3, #16
 143 0032 DAB2     		uxtb	r2, r3
 144              		.loc 1 28 15
 145 0034 7B68     		ldr	r3, [r7, #4]
 146 0036 5A70     		strb	r2, [r3, #1]
 147              		.loc 1 29 18
 148 0038 FB78     		ldrb	r3, [r7, #3]	@ zero_extendqisi2
 149 003a 0F2B     		cmp	r3, #15
 150 003c 05D8     		bhi	.L10
 151              		.loc 1 29 68 discriminator 1
 152 003e FB78     		ldrb	r3, [r7, #3]	@ zero_extendqisi2
 153 0040 0122     		movs	r2, #1
 154 0042 02FA03F3 		lsl	r3, r2, r3
 155              		.loc 1 29 18 discriminator 1
 156 0046 9AB2     		uxth	r2, r3
 157 0048 01E0     		b	.L11
 158              	.L10:
 159              		.loc 1 29 18 is_stmt 0 discriminator 2
 160 004a 4FF6FF72 		movw	r2, #65535
 161              	.L11:
 162              		.loc 1 29 16 is_stmt 1 discriminator 4
 163 004e 7B68     		ldr	r3, [r7, #4]
 164 0050 5A80     		strh	r2, [r3, #2]	@ movhi
 165              	.LBB2:
 166              		.loc 1 31 16 discriminator 4
 167 0052 0023     		movs	r3, #0
ARM GAS  C:\Users\DEVELO~1\AppData\Local\Temp\ccpTeHLh.s 			page 4


 168 0054 FB73     		strb	r3, [r7, #15]
 169              		.loc 1 31 3 discriminator 4
 170 0056 27E0     		b	.L12
 171              	.L13:
 172              		.loc 1 32 13 discriminator 3
 173 0058 FB7B     		ldrb	r3, [r7, #15]	@ zero_extendqisi2
 174              		.loc 1 32 22 discriminator 3
 175 005a 7A68     		ldr	r2, [r7, #4]
 176 005c 5188     		ldrh	r1, [r2, #2]
 177              		.loc 1 32 17 discriminator 3
 178 005e 7A68     		ldr	r2, [r7, #4]
 179 0060 5B00     		lsls	r3, r3, #1
 180 0062 1344     		add	r3, r3, r2
 181 0064 0A46     		mov	r2, r1	@ movhi
 182 0066 9A80     		strh	r2, [r3, #4]	@ movhi
 183              		.loc 1 33 13 discriminator 3
 184 0068 FB7B     		ldrb	r3, [r7, #15]	@ zero_extendqisi2
 185              		.loc 1 33 17 discriminator 3
 186 006a 7A68     		ldr	r2, [r7, #4]
 187 006c 1033     		adds	r3, r3, #16
 188 006e 5B00     		lsls	r3, r3, #1
 189 0070 1344     		add	r3, r3, r2
 190 0072 0022     		movs	r2, #0
 191 0074 9A80     		strh	r2, [r3, #4]	@ movhi
 192              		.loc 1 34 16 discriminator 3
 193 0076 FB7B     		ldrb	r3, [r7, #15]	@ zero_extendqisi2
 194              		.loc 1 34 20 discriminator 3
 195 0078 7A68     		ldr	r2, [r7, #4]
 196 007a 1344     		add	r3, r3, r2
 197 007c 0022     		movs	r2, #0
 198 007e 83F88420 		strb	r2, [r3, #132]
 199              		.loc 1 35 18 discriminator 3
 200 0082 FB7B     		ldrb	r3, [r7, #15]	@ zero_extendqisi2
 201              		.loc 1 35 22 discriminator 3
 202 0084 7A68     		ldr	r2, [r7, #4]
 203 0086 2033     		adds	r3, r3, #32
 204 0088 5B00     		lsls	r3, r3, #1
 205 008a 1344     		add	r3, r3, r2
 206 008c 0022     		movs	r2, #0
 207 008e 9A80     		strh	r2, [r3, #4]	@ movhi
 208              		.loc 1 36 18 discriminator 3
 209 0090 FB7B     		ldrb	r3, [r7, #15]	@ zero_extendqisi2
 210              		.loc 1 36 27 discriminator 3
 211 0092 7A68     		ldr	r2, [r7, #4]
 212 0094 5188     		ldrh	r1, [r2, #2]
 213              		.loc 1 36 22 discriminator 3
 214 0096 7A68     		ldr	r2, [r7, #4]
 215 0098 3033     		adds	r3, r3, #48
 216 009a 5B00     		lsls	r3, r3, #1
 217 009c 1344     		add	r3, r3, r2
 218 009e 0A46     		mov	r2, r1	@ movhi
 219 00a0 9A80     		strh	r2, [r3, #4]	@ movhi
 220              		.loc 1 31 51 discriminator 3
 221 00a2 FB7B     		ldrb	r3, [r7, #15]
 222 00a4 0133     		adds	r3, r3, #1
 223 00a6 FB73     		strb	r3, [r7, #15]
 224              	.L12:
ARM GAS  C:\Users\DEVELO~1\AppData\Local\Temp\ccpTeHLh.s 			page 5


 225              		.loc 1 31 25 discriminator 1
 226 00a8 FB7B     		ldrb	r3, [r7, #15]	@ zero_extendqisi2
 227 00aa 0F2B     		cmp	r3, #15
 228 00ac D4D9     		bls	.L13
 229              	.LBE2:
 230              		.loc 1 39 10
 231 00ae 0023     		movs	r3, #0
 232              	.L8:
 233              		.loc 1 40 1
 234 00b0 1846     		mov	r0, r3
 235 00b2 1437     		adds	r7, r7, #20
 236              		.cfi_def_cfa_offset 4
 237 00b4 BD46     		mov	sp, r7
 238              		.cfi_def_cfa_register 13
 239              		@ sp needed
 240 00b6 80BC     		pop	{r7}
 241              		.cfi_restore 7
 242              		.cfi_def_cfa_offset 0
 243 00b8 7047     		bx	lr
 244              		.cfi_endproc
 245              	.LFE1:
 246              		.size	brick_cal_pot_init, .-brick_cal_pot_init
 247              		.section	.text.brick_cal_pot_enable_range,"ax",%progbits
 248              		.align	1
 249              		.global	brick_cal_pot_enable_range
 250              		.syntax unified
 251              		.thumb
 252              		.thumb_func
 253              		.type	brick_cal_pot_enable_range, %function
 254              	brick_cal_pot_enable_range:
 255              	.LFB2:
 256              		.loc 1 42 90
 257              		.cfi_startproc
 258              		@ args = 0, pretend = 0, frame = 16
 259              		@ frame_needed = 1, uses_anonymous_args = 0
 260              		@ link register save eliminated.
 261 0000 80B4     		push	{r7}
 262              		.cfi_def_cfa_offset 4
 263              		.cfi_offset 7, -4
 264 0002 85B0     		sub	sp, sp, #20
 265              		.cfi_def_cfa_offset 24
 266 0004 00AF     		add	r7, sp, #0
 267              		.cfi_def_cfa_register 7
 268 0006 7860     		str	r0, [r7, #4]
 269 0008 0B46     		mov	r3, r1
 270 000a FB70     		strb	r3, [r7, #3]
 271 000c 1346     		mov	r3, r2
 272 000e BB70     		strb	r3, [r7, #2]
 273              		.loc 1 43 6
 274 0010 7B68     		ldr	r3, [r7, #4]
 275 0012 002B     		cmp	r3, #0
 276 0014 03D0     		beq	.L15
 277              		.loc 1 43 25 discriminator 1
 278 0016 7B68     		ldr	r3, [r7, #4]
 279 0018 5B78     		ldrb	r3, [r3, #1]	@ zero_extendqisi2
 280              		.loc 1 43 19 discriminator 1
 281 001a 002B     		cmp	r3, #0
ARM GAS  C:\Users\DEVELO~1\AppData\Local\Temp\ccpTeHLh.s 			page 6


 282 001c 01D1     		bne	.L16
 283              	.L15:
 284              		.loc 1 44 12
 285 001e 0123     		movs	r3, #1
 286 0020 24E0     		b	.L17
 287              	.L16:
 288              		.loc 1 47 19
 289 0022 7B68     		ldr	r3, [r7, #4]
 290 0024 5B78     		ldrb	r3, [r3, #1]	@ zero_extendqisi2
 291              		.loc 1 47 6
 292 0026 FA78     		ldrb	r2, [r7, #3]	@ zero_extendqisi2
 293 0028 9A42     		cmp	r2, r3
 294 002a 01D3     		bcc	.L18
 295              		.loc 1 48 12
 296 002c 0123     		movs	r3, #1
 297 002e 1DE0     		b	.L17
 298              	.L18:
 299              		.loc 1 50 7
 300 0030 FA78     		ldrb	r2, [r7, #3]	@ zero_extendqisi2
 301              		.loc 1 50 23
 302 0032 BB78     		ldrb	r3, [r7, #2]	@ zero_extendqisi2
 303 0034 1344     		add	r3, r3, r2
 304              		.loc 1 50 37
 305 0036 7A68     		ldr	r2, [r7, #4]
 306 0038 5278     		ldrb	r2, [r2, #1]	@ zero_extendqisi2
 307              		.loc 1 50 6
 308 003a 9342     		cmp	r3, r2
 309 003c 01DD     		ble	.L19
 310              		.loc 1 51 12
 311 003e 0123     		movs	r3, #1
 312 0040 14E0     		b	.L17
 313              	.L19:
 314              		.loc 1 54 11
 315 0042 FA78     		ldrb	r2, [r7, #3]
 316 0044 BB78     		ldrb	r3, [r7, #2]
 317 0046 1344     		add	r3, r3, r2
 318 0048 BB73     		strb	r3, [r7, #14]
 319              	.LBB3:
 320              		.loc 1 55 16
 321 004a FB78     		ldrb	r3, [r7, #3]
 322 004c FB73     		strb	r3, [r7, #15]
 323              		.loc 1 55 3
 324 004e 08E0     		b	.L20
 325              	.L21:
 326              		.loc 1 56 16 discriminator 3
 327 0050 FB7B     		ldrb	r3, [r7, #15]	@ zero_extendqisi2
 328              		.loc 1 56 20 discriminator 3
 329 0052 7A68     		ldr	r2, [r7, #4]
 330 0054 1344     		add	r3, r3, r2
 331 0056 0122     		movs	r2, #1
 332 0058 83F88420 		strb	r2, [r3, #132]
 333              		.loc 1 55 36 discriminator 3
 334 005c FB7B     		ldrb	r3, [r7, #15]
 335 005e 0133     		adds	r3, r3, #1
 336 0060 FB73     		strb	r3, [r7, #15]
 337              	.L20:
 338              		.loc 1 55 29 discriminator 1
ARM GAS  C:\Users\DEVELO~1\AppData\Local\Temp\ccpTeHLh.s 			page 7


 339 0062 FA7B     		ldrb	r2, [r7, #15]	@ zero_extendqisi2
 340 0064 BB7B     		ldrb	r3, [r7, #14]	@ zero_extendqisi2
 341 0066 9A42     		cmp	r2, r3
 342 0068 F2D3     		bcc	.L21
 343              	.LBE3:
 344              		.loc 1 59 10
 345 006a 0023     		movs	r3, #0
 346              	.L17:
 347              		.loc 1 60 1
 348 006c 1846     		mov	r0, r3
 349 006e 1437     		adds	r7, r7, #20
 350              		.cfi_def_cfa_offset 4
 351 0070 BD46     		mov	sp, r7
 352              		.cfi_def_cfa_register 13
 353              		@ sp needed
 354 0072 80BC     		pop	{r7}
 355              		.cfi_restore 7
 356              		.cfi_def_cfa_offset 0
 357 0074 7047     		bx	lr
 358              		.cfi_endproc
 359              	.LFE2:
 360              		.size	brick_cal_pot_enable_range, .-brick_cal_pot_enable_range
 361              		.section	.text.brick_cal_pot_enable_get,"ax",%progbits
 362              		.align	1
 363              		.global	brick_cal_pot_enable_get
 364              		.syntax unified
 365              		.thumb
 366              		.thumb_func
 367              		.type	brick_cal_pot_enable_get, %function
 368              	brick_cal_pot_enable_get:
 369              	.LFB3:
 370              		.loc 1 62 91
 371              		.cfi_startproc
 372              		@ args = 0, pretend = 0, frame = 16
 373              		@ frame_needed = 1, uses_anonymous_args = 0
 374 0000 80B5     		push	{r7, lr}
 375              		.cfi_def_cfa_offset 8
 376              		.cfi_offset 7, -8
 377              		.cfi_offset 14, -4
 378 0002 84B0     		sub	sp, sp, #16
 379              		.cfi_def_cfa_offset 24
 380 0004 00AF     		add	r7, sp, #0
 381              		.cfi_def_cfa_register 7
 382 0006 F860     		str	r0, [r7, #12]
 383 0008 0B46     		mov	r3, r1
 384 000a 7A60     		str	r2, [r7, #4]
 385 000c FB72     		strb	r3, [r7, #11]
 386              		.loc 1 63 6
 387 000e FB68     		ldr	r3, [r7, #12]
 388 0010 002B     		cmp	r3, #0
 389 0012 02D0     		beq	.L23
 390              		.loc 1 63 19 discriminator 1
 391 0014 7B68     		ldr	r3, [r7, #4]
 392 0016 002B     		cmp	r3, #0
 393 0018 01D1     		bne	.L24
 394              	.L23:
 395              		.loc 1 64 12
ARM GAS  C:\Users\DEVELO~1\AppData\Local\Temp\ccpTeHLh.s 			page 8


 396 001a 0123     		movs	r3, #1
 397 001c 14E0     		b	.L25
 398              	.L24:
 399              		.loc 1 67 8
 400 001e FB7A     		ldrb	r3, [r7, #11]	@ zero_extendqisi2
 401 0020 1946     		mov	r1, r3
 402 0022 F868     		ldr	r0, [r7, #12]
 403 0024 FFF7FEFF 		bl	channel_valid
 404 0028 0346     		mov	r3, r0
 405              		.loc 1 67 7
 406 002a 83F00103 		eor	r3, r3, #1
 407 002e DBB2     		uxtb	r3, r3
 408              		.loc 1 67 6
 409 0030 002B     		cmp	r3, #0
 410 0032 01D0     		beq	.L26
 411              		.loc 1 68 12
 412 0034 0123     		movs	r3, #1
 413 0036 07E0     		b	.L25
 414              	.L26:
 415              		.loc 1 71 24
 416 0038 FB7A     		ldrb	r3, [r7, #11]	@ zero_extendqisi2
 417 003a FA68     		ldr	r2, [r7, #12]
 418 003c 1344     		add	r3, r3, r2
 419 003e 93F88420 		ldrb	r2, [r3, #132]	@ zero_extendqisi2
 420              		.loc 1 71 11
 421 0042 7B68     		ldr	r3, [r7, #4]
 422 0044 1A70     		strb	r2, [r3]
 423              		.loc 1 72 10
 424 0046 0023     		movs	r3, #0
 425              	.L25:
 426              		.loc 1 73 1
 427 0048 1846     		mov	r0, r3
 428 004a 1037     		adds	r7, r7, #16
 429              		.cfi_def_cfa_offset 8
 430 004c BD46     		mov	sp, r7
 431              		.cfi_def_cfa_register 13
 432              		@ sp needed
 433 004e 80BD     		pop	{r7, pc}
 434              		.cfi_endproc
 435              	.LFE3:
 436              		.size	brick_cal_pot_enable_get, .-brick_cal_pot_enable_get
 437              		.section	.text.brick_cal_pot_detent_get,"ax",%progbits
 438              		.align	1
 439              		.global	brick_cal_pot_detent_get
 440              		.syntax unified
 441              		.thumb
 442              		.thumb_func
 443              		.type	brick_cal_pot_detent_get, %function
 444              	brick_cal_pot_detent_get:
 445              	.LFB4:
 446              		.loc 1 75 103
 447              		.cfi_startproc
 448              		@ args = 0, pretend = 0, frame = 16
 449              		@ frame_needed = 1, uses_anonymous_args = 0
 450 0000 80B5     		push	{r7, lr}
 451              		.cfi_def_cfa_offset 8
 452              		.cfi_offset 7, -8
ARM GAS  C:\Users\DEVELO~1\AppData\Local\Temp\ccpTeHLh.s 			page 9


 453              		.cfi_offset 14, -4
 454 0002 84B0     		sub	sp, sp, #16
 455              		.cfi_def_cfa_offset 24
 456 0004 00AF     		add	r7, sp, #0
 457              		.cfi_def_cfa_register 7
 458 0006 F860     		str	r0, [r7, #12]
 459 0008 7A60     		str	r2, [r7, #4]
 460 000a 1A46     		mov	r2, r3
 461 000c 0B46     		mov	r3, r1
 462 000e FB72     		strb	r3, [r7, #11]
 463 0010 1346     		mov	r3, r2
 464 0012 BB72     		strb	r3, [r7, #10]
 465              		.loc 1 76 6
 466 0014 FB68     		ldr	r3, [r7, #12]
 467 0016 002B     		cmp	r3, #0
 468 0018 02D0     		beq	.L28
 469              		.loc 1 76 19 discriminator 1
 470 001a 7B68     		ldr	r3, [r7, #4]
 471 001c 002B     		cmp	r3, #0
 472 001e 01D1     		bne	.L29
 473              	.L28:
 474              		.loc 1 77 12
 475 0020 0123     		movs	r3, #1
 476 0022 1FE0     		b	.L30
 477              	.L29:
 478              		.loc 1 80 8
 479 0024 FB7A     		ldrb	r3, [r7, #11]	@ zero_extendqisi2
 480 0026 1946     		mov	r1, r3
 481 0028 F868     		ldr	r0, [r7, #12]
 482 002a FFF7FEFF 		bl	channel_valid
 483 002e 0346     		mov	r3, r0
 484              		.loc 1 80 7
 485 0030 83F00103 		eor	r3, r3, #1
 486 0034 DBB2     		uxtb	r3, r3
 487              		.loc 1 80 6
 488 0036 002B     		cmp	r3, #0
 489 0038 01D0     		beq	.L31
 490              		.loc 1 81 12
 491 003a 0123     		movs	r3, #1
 492 003c 12E0     		b	.L30
 493              	.L31:
 494              		.loc 1 84 11
 495 003e BB7A     		ldrb	r3, [r7, #10]	@ zero_extendqisi2
 496 0040 002B     		cmp	r3, #0
 497 0042 06D0     		beq	.L32
 498              		.loc 1 84 33 discriminator 1
 499 0044 FB7A     		ldrb	r3, [r7, #11]	@ zero_extendqisi2
 500              		.loc 1 84 11 discriminator 1
 501 0046 FA68     		ldr	r2, [r7, #12]
 502 0048 3033     		adds	r3, r3, #48
 503 004a 5B00     		lsls	r3, r3, #1
 504 004c 1344     		add	r3, r3, r2
 505 004e 9B88     		ldrh	r3, [r3, #4]
 506 0050 05E0     		b	.L33
 507              	.L32:
 508              		.loc 1 84 58 discriminator 2
 509 0052 FB7A     		ldrb	r3, [r7, #11]	@ zero_extendqisi2
ARM GAS  C:\Users\DEVELO~1\AppData\Local\Temp\ccpTeHLh.s 			page 10


 510              		.loc 1 84 11 discriminator 2
 511 0054 FA68     		ldr	r2, [r7, #12]
 512 0056 2033     		adds	r3, r3, #32
 513 0058 5B00     		lsls	r3, r3, #1
 514 005a 1344     		add	r3, r3, r2
 515 005c 9B88     		ldrh	r3, [r3, #4]
 516              	.L33:
 517              		.loc 1 84 11 is_stmt 0 discriminator 4
 518 005e 7A68     		ldr	r2, [r7, #4]
 519 0060 1380     		strh	r3, [r2]	@ movhi
 520              		.loc 1 85 10 is_stmt 1 discriminator 4
 521 0062 0023     		movs	r3, #0
 522              	.L30:
 523              		.loc 1 86 1
 524 0064 1846     		mov	r0, r3
 525 0066 1037     		adds	r7, r7, #16
 526              		.cfi_def_cfa_offset 8
 527 0068 BD46     		mov	sp, r7
 528              		.cfi_def_cfa_register 13
 529              		@ sp needed
 530 006a 80BD     		pop	{r7, pc}
 531              		.cfi_endproc
 532              	.LFE4:
 533              		.size	brick_cal_pot_detent_get, .-brick_cal_pot_detent_get
 534              		.section	.text.brick_cal_pot_detent_set,"ax",%progbits
 535              		.align	1
 536              		.global	brick_cal_pot_detent_set
 537              		.syntax unified
 538              		.thumb
 539              		.thumb_func
 540              		.type	brick_cal_pot_detent_set, %function
 541              	brick_cal_pot_detent_set:
 542              	.LFB5:
 543              		.loc 1 88 102
 544              		.cfi_startproc
 545              		@ args = 0, pretend = 0, frame = 8
 546              		@ frame_needed = 1, uses_anonymous_args = 0
 547 0000 80B5     		push	{r7, lr}
 548              		.cfi_def_cfa_offset 8
 549              		.cfi_offset 7, -8
 550              		.cfi_offset 14, -4
 551 0002 82B0     		sub	sp, sp, #8
 552              		.cfi_def_cfa_offset 16
 553 0004 00AF     		add	r7, sp, #0
 554              		.cfi_def_cfa_register 7
 555 0006 7860     		str	r0, [r7, #4]
 556 0008 0846     		mov	r0, r1
 557 000a 1146     		mov	r1, r2
 558 000c 1A46     		mov	r2, r3
 559 000e 0346     		mov	r3, r0
 560 0010 FB70     		strb	r3, [r7, #3]
 561 0012 0B46     		mov	r3, r1	@ movhi
 562 0014 3B80     		strh	r3, [r7]	@ movhi
 563 0016 1346     		mov	r3, r2
 564 0018 BB70     		strb	r3, [r7, #2]
 565              		.loc 1 89 6
 566 001a 7B68     		ldr	r3, [r7, #4]
ARM GAS  C:\Users\DEVELO~1\AppData\Local\Temp\ccpTeHLh.s 			page 11


 567 001c 002B     		cmp	r3, #0
 568 001e 01D1     		bne	.L35
 569              		.loc 1 90 12
 570 0020 0123     		movs	r3, #1
 571 0022 28E0     		b	.L36
 572              	.L35:
 573              		.loc 1 93 8
 574 0024 FB78     		ldrb	r3, [r7, #3]	@ zero_extendqisi2
 575 0026 1946     		mov	r1, r3
 576 0028 7868     		ldr	r0, [r7, #4]
 577 002a FFF7FEFF 		bl	channel_valid
 578 002e 0346     		mov	r3, r0
 579              		.loc 1 93 7
 580 0030 83F00103 		eor	r3, r3, #1
 581 0034 DBB2     		uxtb	r3, r3
 582              		.loc 1 93 6
 583 0036 002B     		cmp	r3, #0
 584 0038 01D0     		beq	.L37
 585              		.loc 1 94 12
 586 003a 0123     		movs	r3, #1
 587 003c 1BE0     		b	.L36
 588              	.L37:
 589              		.loc 1 97 19
 590 003e FB78     		ldrb	r3, [r7, #3]	@ zero_extendqisi2
 591 0040 7A68     		ldr	r2, [r7, #4]
 592 0042 1344     		add	r3, r3, r2
 593 0044 93F88430 		ldrb	r3, [r3, #132]	@ zero_extendqisi2
 594              		.loc 1 97 6
 595 0048 002B     		cmp	r3, #0
 596 004a 01D1     		bne	.L38
 597              		.loc 1 98 12
 598 004c 0123     		movs	r3, #1
 599 004e 12E0     		b	.L36
 600              	.L38:
 601              		.loc 1 101 6
 602 0050 BB78     		ldrb	r3, [r7, #2]	@ zero_extendqisi2
 603 0052 002B     		cmp	r3, #0
 604 0054 07D0     		beq	.L39
 605              		.loc 1 102 18
 606 0056 FB78     		ldrb	r3, [r7, #3]	@ zero_extendqisi2
 607              		.loc 1 102 28
 608 0058 7A68     		ldr	r2, [r7, #4]
 609 005a 3033     		adds	r3, r3, #48
 610 005c 5B00     		lsls	r3, r3, #1
 611 005e 1344     		add	r3, r3, r2
 612 0060 3A88     		ldrh	r2, [r7]	@ movhi
 613 0062 9A80     		strh	r2, [r3, #4]	@ movhi
 614 0064 06E0     		b	.L40
 615              	.L39:
 616              		.loc 1 104 18
 617 0066 FB78     		ldrb	r3, [r7, #3]	@ zero_extendqisi2
 618              		.loc 1 104 28
 619 0068 7A68     		ldr	r2, [r7, #4]
 620 006a 2033     		adds	r3, r3, #32
 621 006c 5B00     		lsls	r3, r3, #1
 622 006e 1344     		add	r3, r3, r2
 623 0070 3A88     		ldrh	r2, [r7]	@ movhi
ARM GAS  C:\Users\DEVELO~1\AppData\Local\Temp\ccpTeHLh.s 			page 12


 624 0072 9A80     		strh	r2, [r3, #4]	@ movhi
 625              	.L40:
 626              		.loc 1 107 10
 627 0074 0023     		movs	r3, #0
 628              	.L36:
 629              		.loc 1 108 1
 630 0076 1846     		mov	r0, r3
 631 0078 0837     		adds	r7, r7, #8
 632              		.cfi_def_cfa_offset 8
 633 007a BD46     		mov	sp, r7
 634              		.cfi_def_cfa_register 13
 635              		@ sp needed
 636 007c 80BD     		pop	{r7, pc}
 637              		.cfi_endproc
 638              	.LFE5:
 639              		.size	brick_cal_pot_detent_set, .-brick_cal_pot_detent_set
 640              		.section	.text.brick_cal_pot_min_get,"ax",%progbits
 641              		.align	1
 642              		.global	brick_cal_pot_min_get
 643              		.syntax unified
 644              		.thumb
 645              		.thumb_func
 646              		.type	brick_cal_pot_min_get, %function
 647              	brick_cal_pot_min_get:
 648              	.LFB6:
 649              		.loc 1 110 92
 650              		.cfi_startproc
 651              		@ args = 0, pretend = 0, frame = 16
 652              		@ frame_needed = 1, uses_anonymous_args = 0
 653 0000 80B5     		push	{r7, lr}
 654              		.cfi_def_cfa_offset 8
 655              		.cfi_offset 7, -8
 656              		.cfi_offset 14, -4
 657 0002 84B0     		sub	sp, sp, #16
 658              		.cfi_def_cfa_offset 24
 659 0004 00AF     		add	r7, sp, #0
 660              		.cfi_def_cfa_register 7
 661 0006 F860     		str	r0, [r7, #12]
 662 0008 0B46     		mov	r3, r1
 663 000a 7A60     		str	r2, [r7, #4]
 664 000c FB72     		strb	r3, [r7, #11]
 665              		.loc 1 111 6
 666 000e FB68     		ldr	r3, [r7, #12]
 667 0010 002B     		cmp	r3, #0
 668 0012 02D0     		beq	.L42
 669              		.loc 1 111 19 discriminator 1
 670 0014 7B68     		ldr	r3, [r7, #4]
 671 0016 002B     		cmp	r3, #0
 672 0018 01D1     		bne	.L43
 673              	.L42:
 674              		.loc 1 112 12
 675 001a 0123     		movs	r3, #1
 676 001c 14E0     		b	.L44
 677              	.L43:
 678              		.loc 1 115 8
 679 001e FB7A     		ldrb	r3, [r7, #11]	@ zero_extendqisi2
 680 0020 1946     		mov	r1, r3
ARM GAS  C:\Users\DEVELO~1\AppData\Local\Temp\ccpTeHLh.s 			page 13


 681 0022 F868     		ldr	r0, [r7, #12]
 682 0024 FFF7FEFF 		bl	channel_valid
 683 0028 0346     		mov	r3, r0
 684              		.loc 1 115 7
 685 002a 83F00103 		eor	r3, r3, #1
 686 002e DBB2     		uxtb	r3, r3
 687              		.loc 1 115 6
 688 0030 002B     		cmp	r3, #0
 689 0032 01D0     		beq	.L45
 690              		.loc 1 116 12
 691 0034 0123     		movs	r3, #1
 692 0036 07E0     		b	.L44
 693              	.L45:
 694              		.loc 1 119 24
 695 0038 FB7A     		ldrb	r3, [r7, #11]	@ zero_extendqisi2
 696 003a FA68     		ldr	r2, [r7, #12]
 697 003c 5B00     		lsls	r3, r3, #1
 698 003e 1344     		add	r3, r3, r2
 699 0040 9A88     		ldrh	r2, [r3, #4]
 700              		.loc 1 119 14
 701 0042 7B68     		ldr	r3, [r7, #4]
 702 0044 1A80     		strh	r2, [r3]	@ movhi
 703              		.loc 1 120 10
 704 0046 0023     		movs	r3, #0
 705              	.L44:
 706              		.loc 1 121 1
 707 0048 1846     		mov	r0, r3
 708 004a 1037     		adds	r7, r7, #16
 709              		.cfi_def_cfa_offset 8
 710 004c BD46     		mov	sp, r7
 711              		.cfi_def_cfa_register 13
 712              		@ sp needed
 713 004e 80BD     		pop	{r7, pc}
 714              		.cfi_endproc
 715              	.LFE6:
 716              		.size	brick_cal_pot_min_get, .-brick_cal_pot_min_get
 717              		.section	.text.brick_cal_pot_max_get,"ax",%progbits
 718              		.align	1
 719              		.global	brick_cal_pot_max_get
 720              		.syntax unified
 721              		.thumb
 722              		.thumb_func
 723              		.type	brick_cal_pot_max_get, %function
 724              	brick_cal_pot_max_get:
 725              	.LFB7:
 726              		.loc 1 123 92
 727              		.cfi_startproc
 728              		@ args = 0, pretend = 0, frame = 16
 729              		@ frame_needed = 1, uses_anonymous_args = 0
 730 0000 80B5     		push	{r7, lr}
 731              		.cfi_def_cfa_offset 8
 732              		.cfi_offset 7, -8
 733              		.cfi_offset 14, -4
 734 0002 84B0     		sub	sp, sp, #16
 735              		.cfi_def_cfa_offset 24
 736 0004 00AF     		add	r7, sp, #0
 737              		.cfi_def_cfa_register 7
ARM GAS  C:\Users\DEVELO~1\AppData\Local\Temp\ccpTeHLh.s 			page 14


 738 0006 F860     		str	r0, [r7, #12]
 739 0008 0B46     		mov	r3, r1
 740 000a 7A60     		str	r2, [r7, #4]
 741 000c FB72     		strb	r3, [r7, #11]
 742              		.loc 1 124 6
 743 000e FB68     		ldr	r3, [r7, #12]
 744 0010 002B     		cmp	r3, #0
 745 0012 02D0     		beq	.L47
 746              		.loc 1 124 19 discriminator 1
 747 0014 7B68     		ldr	r3, [r7, #4]
 748 0016 002B     		cmp	r3, #0
 749 0018 01D1     		bne	.L48
 750              	.L47:
 751              		.loc 1 125 12
 752 001a 0123     		movs	r3, #1
 753 001c 15E0     		b	.L49
 754              	.L48:
 755              		.loc 1 128 8
 756 001e FB7A     		ldrb	r3, [r7, #11]	@ zero_extendqisi2
 757 0020 1946     		mov	r1, r3
 758 0022 F868     		ldr	r0, [r7, #12]
 759 0024 FFF7FEFF 		bl	channel_valid
 760 0028 0346     		mov	r3, r0
 761              		.loc 1 128 7
 762 002a 83F00103 		eor	r3, r3, #1
 763 002e DBB2     		uxtb	r3, r3
 764              		.loc 1 128 6
 765 0030 002B     		cmp	r3, #0
 766 0032 01D0     		beq	.L50
 767              		.loc 1 129 12
 768 0034 0123     		movs	r3, #1
 769 0036 08E0     		b	.L49
 770              	.L50:
 771              		.loc 1 132 24
 772 0038 FB7A     		ldrb	r3, [r7, #11]	@ zero_extendqisi2
 773 003a FA68     		ldr	r2, [r7, #12]
 774 003c 1033     		adds	r3, r3, #16
 775 003e 5B00     		lsls	r3, r3, #1
 776 0040 1344     		add	r3, r3, r2
 777 0042 9A88     		ldrh	r2, [r3, #4]
 778              		.loc 1 132 14
 779 0044 7B68     		ldr	r3, [r7, #4]
 780 0046 1A80     		strh	r2, [r3]	@ movhi
 781              		.loc 1 133 10
 782 0048 0023     		movs	r3, #0
 783              	.L49:
 784              		.loc 1 134 1
 785 004a 1846     		mov	r0, r3
 786 004c 1037     		adds	r7, r7, #16
 787              		.cfi_def_cfa_offset 8
 788 004e BD46     		mov	sp, r7
 789              		.cfi_def_cfa_register 13
 790              		@ sp needed
 791 0050 80BD     		pop	{r7, pc}
 792              		.cfi_endproc
 793              	.LFE7:
 794              		.size	brick_cal_pot_max_get, .-brick_cal_pot_max_get
ARM GAS  C:\Users\DEVELO~1\AppData\Local\Temp\ccpTeHLh.s 			page 15


 795              		.section	.text.update_detent,"ax",%progbits
 796              		.align	1
 797              		.syntax unified
 798              		.thumb
 799              		.thumb_func
 800              		.type	update_detent, %function
 801              	update_detent:
 802              	.LFB8:
 803              		.loc 1 136 104
 804              		.cfi_startproc
 805              		@ args = 0, pretend = 0, frame = 24
 806              		@ frame_needed = 1, uses_anonymous_args = 0
 807              		@ link register save eliminated.
 808 0000 80B4     		push	{r7}
 809              		.cfi_def_cfa_offset 4
 810              		.cfi_offset 7, -4
 811 0002 87B0     		sub	sp, sp, #28
 812              		.cfi_def_cfa_offset 32
 813 0004 00AF     		add	r7, sp, #0
 814              		.cfi_def_cfa_register 7
 815 0006 F860     		str	r0, [r7, #12]
 816 0008 0846     		mov	r0, r1
 817 000a 1146     		mov	r1, r2
 818 000c 1A46     		mov	r2, r3
 819 000e 0346     		mov	r3, r0
 820 0010 FB72     		strb	r3, [r7, #11]
 821 0012 0B46     		mov	r3, r1	@ movhi
 822 0014 3B81     		strh	r3, [r7, #8]	@ movhi
 823 0016 1346     		mov	r3, r2	@ movhi
 824 0018 FB80     		strh	r3, [r7, #6]	@ movhi
 825              		.loc 1 137 12
 826 001a 3B89     		ldrh	r3, [r7, #8]
 827 001c 174A     		ldr	r2, .L55
 828 001e A2FB0323 		umull	r2, r3, r2, r3
 829 0022 5B09     		lsrs	r3, r3, #5
 830 0024 BB82     		strh	r3, [r7, #20]	@ movhi
 831              		.loc 1 138 12
 832 0026 FA88     		ldrh	r2, [r7, #6]
 833 0028 BB8A     		ldrh	r3, [r7, #20]
 834 002a 9A42     		cmp	r2, r3
 835 002c 04D9     		bls	.L52
 836              		.loc 1 138 12 is_stmt 0 discriminator 1
 837 002e FA88     		ldrh	r2, [r7, #6]	@ movhi
 838 0030 BB8A     		ldrh	r3, [r7, #20]	@ movhi
 839 0032 D31A     		subs	r3, r2, r3
 840 0034 9BB2     		uxth	r3, r3
 841 0036 00E0     		b	.L53
 842              	.L52:
 843              		.loc 1 138 12 discriminator 2
 844 0038 0023     		movs	r3, #0
 845              	.L53:
 846              		.loc 1 138 12 discriminator 4
 847 003a 7B82     		strh	r3, [r7, #18]	@ movhi
 848              		.loc 1 139 12 is_stmt 1 discriminator 4
 849 003c FA88     		ldrh	r2, [r7, #6]	@ movhi
 850 003e BB8A     		ldrh	r3, [r7, #20]	@ movhi
 851 0040 1344     		add	r3, r3, r2
ARM GAS  C:\Users\DEVELO~1\AppData\Local\Temp\ccpTeHLh.s 			page 16


 852 0042 FB82     		strh	r3, [r7, #22]	@ movhi
 853              		.loc 1 140 15 discriminator 4
 854 0044 FB68     		ldr	r3, [r7, #12]
 855 0046 5B88     		ldrh	r3, [r3, #2]
 856              		.loc 1 140 6 discriminator 4
 857 0048 FA8A     		ldrh	r2, [r7, #22]
 858 004a 9A42     		cmp	r2, r3
 859 004c 02D9     		bls	.L54
 860              		.loc 1 141 8
 861 004e FB68     		ldr	r3, [r7, #12]
 862 0050 5B88     		ldrh	r3, [r3, #2]	@ movhi
 863 0052 FB82     		strh	r3, [r7, #22]	@ movhi
 864              	.L54:
 865              		.loc 1 143 16
 866 0054 FB7A     		ldrb	r3, [r7, #11]	@ zero_extendqisi2
 867              		.loc 1 143 26
 868 0056 FA68     		ldr	r2, [r7, #12]
 869 0058 2033     		adds	r3, r3, #32
 870 005a 5B00     		lsls	r3, r3, #1
 871 005c 1344     		add	r3, r3, r2
 872 005e 7A8A     		ldrh	r2, [r7, #18]	@ movhi
 873 0060 9A80     		strh	r2, [r3, #4]	@ movhi
 874              		.loc 1 144 16
 875 0062 FB7A     		ldrb	r3, [r7, #11]	@ zero_extendqisi2
 876              		.loc 1 144 26
 877 0064 FA68     		ldr	r2, [r7, #12]
 878 0066 3033     		adds	r3, r3, #48
 879 0068 5B00     		lsls	r3, r3, #1
 880 006a 1344     		add	r3, r3, r2
 881 006c FA8A     		ldrh	r2, [r7, #22]	@ movhi
 882 006e 9A80     		strh	r2, [r3, #4]	@ movhi
 883              		.loc 1 145 1
 884 0070 00BF     		nop
 885 0072 1C37     		adds	r7, r7, #28
 886              		.cfi_def_cfa_offset 4
 887 0074 BD46     		mov	sp, r7
 888              		.cfi_def_cfa_register 13
 889              		@ sp needed
 890 0076 80BC     		pop	{r7}
 891              		.cfi_restore 7
 892              		.cfi_def_cfa_offset 0
 893 0078 7047     		bx	lr
 894              	.L56:
 895 007a 00BF     		.align	2
 896              	.L55:
 897 007c CDCCCCCC 		.word	-858993459
 898              		.cfi_endproc
 899              	.LFE8:
 900              		.size	update_detent, .-update_detent
 901              		.section	.text.clamp_to_maximum,"ax",%progbits
 902              		.align	1
 903              		.syntax unified
 904              		.thumb
 905              		.thumb_func
 906              		.type	clamp_to_maximum, %function
 907              	clamp_to_maximum:
 908              	.LFB9:
ARM GAS  C:\Users\DEVELO~1\AppData\Local\Temp\ccpTeHLh.s 			page 17


 909              		.loc 1 147 77
 910              		.cfi_startproc
 911              		@ args = 0, pretend = 0, frame = 8
 912              		@ frame_needed = 1, uses_anonymous_args = 0
 913              		@ link register save eliminated.
 914 0000 80B4     		push	{r7}
 915              		.cfi_def_cfa_offset 4
 916              		.cfi_offset 7, -4
 917 0002 83B0     		sub	sp, sp, #12
 918              		.cfi_def_cfa_offset 16
 919 0004 00AF     		add	r7, sp, #0
 920              		.cfi_def_cfa_register 7
 921 0006 7860     		str	r0, [r7, #4]
 922 0008 0B46     		mov	r3, r1
 923 000a 7B80     		strh	r3, [r7, #2]	@ movhi
 924              		.loc 1 148 6
 925 000c 7B68     		ldr	r3, [r7, #4]
 926 000e 002B     		cmp	r3, #0
 927 0010 01D1     		bne	.L58
 928              		.loc 1 149 12
 929 0012 7B88     		ldrh	r3, [r7, #2]
 930 0014 08E0     		b	.L59
 931              	.L58:
 932              		.loc 1 151 18
 933 0016 7B68     		ldr	r3, [r7, #4]
 934 0018 5B88     		ldrh	r3, [r3, #2]
 935              		.loc 1 151 6
 936 001a 7A88     		ldrh	r2, [r7, #2]
 937 001c 9A42     		cmp	r2, r3
 938 001e 02D9     		bls	.L60
 939              		.loc 1 152 15
 940 0020 7B68     		ldr	r3, [r7, #4]
 941 0022 5B88     		ldrh	r3, [r3, #2]
 942 0024 00E0     		b	.L59
 943              	.L60:
 944              		.loc 1 154 10
 945 0026 7B88     		ldrh	r3, [r7, #2]
 946              	.L59:
 947              		.loc 1 155 1
 948 0028 1846     		mov	r0, r3
 949 002a 0C37     		adds	r7, r7, #12
 950              		.cfi_def_cfa_offset 4
 951 002c BD46     		mov	sp, r7
 952              		.cfi_def_cfa_register 13
 953              		@ sp needed
 954 002e 80BC     		pop	{r7}
 955              		.cfi_restore 7
 956              		.cfi_def_cfa_offset 0
 957 0030 7047     		bx	lr
 958              		.cfi_endproc
 959              	.LFE9:
 960              		.size	clamp_to_maximum, .-clamp_to_maximum
 961              		.section	.text.brick_cal_pot_next,"ax",%progbits
 962              		.align	1
 963              		.global	brick_cal_pot_next
 964              		.syntax unified
 965              		.thumb
ARM GAS  C:\Users\DEVELO~1\AppData\Local\Temp\ccpTeHLh.s 			page 18


 966              		.thumb_func
 967              		.type	brick_cal_pot_next, %function
 968              	brick_cal_pot_next:
 969              	.LFB10:
 970              		.loc 1 157 96
 971              		.cfi_startproc
 972              		@ args = 0, pretend = 0, frame = 24
 973              		@ frame_needed = 1, uses_anonymous_args = 0
 974 0000 80B5     		push	{r7, lr}
 975              		.cfi_def_cfa_offset 8
 976              		.cfi_offset 7, -8
 977              		.cfi_offset 14, -4
 978 0002 86B0     		sub	sp, sp, #24
 979              		.cfi_def_cfa_offset 32
 980 0004 00AF     		add	r7, sp, #0
 981              		.cfi_def_cfa_register 7
 982 0006 F860     		str	r0, [r7, #12]
 983 0008 7B60     		str	r3, [r7, #4]
 984 000a 0B46     		mov	r3, r1
 985 000c FB72     		strb	r3, [r7, #11]
 986 000e 1346     		mov	r3, r2	@ movhi
 987 0010 3B81     		strh	r3, [r7, #8]	@ movhi
 988              		.loc 1 158 6
 989 0012 FB68     		ldr	r3, [r7, #12]
 990 0014 002B     		cmp	r3, #0
 991 0016 02D0     		beq	.L62
 992              		.loc 1 158 19 discriminator 1
 993 0018 7B68     		ldr	r3, [r7, #4]
 994 001a 002B     		cmp	r3, #0
 995 001c 01D1     		bne	.L63
 996              	.L62:
 997              		.loc 1 159 12
 998 001e 0123     		movs	r3, #1
 999 0020 7DE0     		b	.L64
 1000              	.L63:
 1001              		.loc 1 162 8
 1002 0022 FB7A     		ldrb	r3, [r7, #11]	@ zero_extendqisi2
 1003 0024 1946     		mov	r1, r3
 1004 0026 F868     		ldr	r0, [r7, #12]
 1005 0028 FFF7FEFF 		bl	channel_valid
 1006 002c 0346     		mov	r3, r0
 1007              		.loc 1 162 7
 1008 002e 83F00103 		eor	r3, r3, #1
 1009 0032 DBB2     		uxtb	r3, r3
 1010              		.loc 1 162 6
 1011 0034 002B     		cmp	r3, #0
 1012 0036 01D0     		beq	.L65
 1013              		.loc 1 163 12
 1014 0038 0123     		movs	r3, #1
 1015 003a 70E0     		b	.L64
 1016              	.L65:
 1017              		.loc 1 166 8
 1018 003c 3B89     		ldrh	r3, [r7, #8]
 1019 003e 1946     		mov	r1, r3
 1020 0040 F868     		ldr	r0, [r7, #12]
 1021 0042 FFF7FEFF 		bl	clamp_to_maximum
 1022 0046 0346     		mov	r3, r0
ARM GAS  C:\Users\DEVELO~1\AppData\Local\Temp\ccpTeHLh.s 			page 19


 1023 0048 3B81     		strh	r3, [r7, #8]	@ movhi
 1024              		.loc 1 168 19
 1025 004a FB7A     		ldrb	r3, [r7, #11]	@ zero_extendqisi2
 1026 004c FA68     		ldr	r2, [r7, #12]
 1027 004e 1344     		add	r3, r3, r2
 1028 0050 93F88430 		ldrb	r3, [r3, #132]	@ zero_extendqisi2
 1029              		.loc 1 168 6
 1030 0054 002B     		cmp	r3, #0
 1031 0056 04D1     		bne	.L66
 1032              		.loc 1 169 10
 1033 0058 7B68     		ldr	r3, [r7, #4]
 1034 005a 3A89     		ldrh	r2, [r7, #8]	@ movhi
 1035 005c 1A80     		strh	r2, [r3]	@ movhi
 1036              		.loc 1 170 12
 1037 005e 0023     		movs	r3, #0
 1038 0060 5DE0     		b	.L64
 1039              	.L66:
 1040              		.loc 1 173 20
 1041 0062 FB7A     		ldrb	r3, [r7, #11]	@ zero_extendqisi2
 1042 0064 FA68     		ldr	r2, [r7, #12]
 1043 0066 5B00     		lsls	r3, r3, #1
 1044 0068 1344     		add	r3, r3, r2
 1045 006a 9B88     		ldrh	r3, [r3, #4]
 1046              		.loc 1 173 6
 1047 006c 3A89     		ldrh	r2, [r7, #8]
 1048 006e 9A42     		cmp	r2, r3
 1049 0070 05D2     		bcs	.L67
 1050              		.loc 1 174 13
 1051 0072 FB7A     		ldrb	r3, [r7, #11]	@ zero_extendqisi2
 1052              		.loc 1 174 23
 1053 0074 FA68     		ldr	r2, [r7, #12]
 1054 0076 5B00     		lsls	r3, r3, #1
 1055 0078 1344     		add	r3, r3, r2
 1056 007a 3A89     		ldrh	r2, [r7, #8]	@ movhi
 1057 007c 9A80     		strh	r2, [r3, #4]	@ movhi
 1058              	.L67:
 1059              		.loc 1 176 20
 1060 007e FB7A     		ldrb	r3, [r7, #11]	@ zero_extendqisi2
 1061 0080 FA68     		ldr	r2, [r7, #12]
 1062 0082 1033     		adds	r3, r3, #16
 1063 0084 5B00     		lsls	r3, r3, #1
 1064 0086 1344     		add	r3, r3, r2
 1065 0088 9B88     		ldrh	r3, [r3, #4]
 1066              		.loc 1 176 6
 1067 008a 3A89     		ldrh	r2, [r7, #8]
 1068 008c 9A42     		cmp	r2, r3
 1069 008e 06D9     		bls	.L68
 1070              		.loc 1 177 13
 1071 0090 FB7A     		ldrb	r3, [r7, #11]	@ zero_extendqisi2
 1072              		.loc 1 177 23
 1073 0092 FA68     		ldr	r2, [r7, #12]
 1074 0094 1033     		adds	r3, r3, #16
 1075 0096 5B00     		lsls	r3, r3, #1
 1076 0098 1344     		add	r3, r3, r2
 1077 009a 3A89     		ldrh	r2, [r7, #8]	@ movhi
 1078 009c 9A80     		strh	r2, [r3, #4]	@ movhi
 1079              	.L68:
ARM GAS  C:\Users\DEVELO~1\AppData\Local\Temp\ccpTeHLh.s 			page 20


 1080              		.loc 1 180 15
 1081 009e FB7A     		ldrb	r3, [r7, #11]	@ zero_extendqisi2
 1082 00a0 FA68     		ldr	r2, [r7, #12]
 1083 00a2 1033     		adds	r3, r3, #16
 1084 00a4 5B00     		lsls	r3, r3, #1
 1085 00a6 1344     		add	r3, r3, r2
 1086 00a8 9A88     		ldrh	r2, [r3, #4]
 1087              		.loc 1 180 35
 1088 00aa FB7A     		ldrb	r3, [r7, #11]	@ zero_extendqisi2
 1089 00ac F968     		ldr	r1, [r7, #12]
 1090 00ae 5B00     		lsls	r3, r3, #1
 1091 00b0 0B44     		add	r3, r3, r1
 1092 00b2 9B88     		ldrh	r3, [r3, #4]
 1093              		.loc 1 180 6
 1094 00b4 9A42     		cmp	r2, r3
 1095 00b6 0CD2     		bcs	.L69
 1096              		.loc 1 181 33
 1097 00b8 FB7A     		ldrb	r3, [r7, #11]	@ zero_extendqisi2
 1098              		.loc 1 181 13
 1099 00ba F97A     		ldrb	r1, [r7, #11]	@ zero_extendqisi2
 1100              		.loc 1 181 33
 1101 00bc FA68     		ldr	r2, [r7, #12]
 1102 00be 5B00     		lsls	r3, r3, #1
 1103 00c0 1344     		add	r3, r3, r2
 1104 00c2 9888     		ldrh	r0, [r3, #4]
 1105              		.loc 1 181 23
 1106 00c4 FA68     		ldr	r2, [r7, #12]
 1107 00c6 01F11003 		add	r3, r1, #16
 1108 00ca 5B00     		lsls	r3, r3, #1
 1109 00cc 1344     		add	r3, r3, r2
 1110 00ce 0246     		mov	r2, r0	@ movhi
 1111 00d0 9A80     		strh	r2, [r3, #4]	@ movhi
 1112              	.L69:
 1113              		.loc 1 184 39
 1114 00d2 FB7A     		ldrb	r3, [r7, #11]	@ zero_extendqisi2
 1115 00d4 FA68     		ldr	r2, [r7, #12]
 1116 00d6 1033     		adds	r3, r3, #16
 1117 00d8 5B00     		lsls	r3, r3, #1
 1118 00da 1344     		add	r3, r3, r2
 1119 00dc 9A88     		ldrh	r2, [r3, #4]
 1120              		.loc 1 184 59
 1121 00de FB7A     		ldrb	r3, [r7, #11]	@ zero_extendqisi2
 1122 00e0 F968     		ldr	r1, [r7, #12]
 1123 00e2 5B00     		lsls	r3, r3, #1
 1124 00e4 0B44     		add	r3, r3, r1
 1125 00e6 9B88     		ldrh	r3, [r3, #4]
 1126              		.loc 1 184 12
 1127 00e8 D31A     		subs	r3, r2, r3
 1128 00ea FB82     		strh	r3, [r7, #22]	@ movhi
 1129              		.loc 1 185 6
 1130 00ec FB8A     		ldrh	r3, [r7, #22]
 1131 00ee 002B     		cmp	r3, #0
 1132 00f0 01D1     		bne	.L70
 1133              		.loc 1 186 11
 1134 00f2 0123     		movs	r3, #1
 1135 00f4 FB82     		strh	r3, [r7, #22]	@ movhi
 1136              	.L70:
ARM GAS  C:\Users\DEVELO~1\AppData\Local\Temp\ccpTeHLh.s 			page 21


 1137              		.loc 1 188 40
 1138 00f6 FB7A     		ldrb	r3, [r7, #11]	@ zero_extendqisi2
 1139 00f8 FA68     		ldr	r2, [r7, #12]
 1140 00fa 5B00     		lsls	r3, r3, #1
 1141 00fc 1344     		add	r3, r3, r2
 1142 00fe 9A88     		ldrh	r2, [r3, #4]
 1143              		.loc 1 188 21
 1144 0100 FB8A     		ldrh	r3, [r7, #22]
 1145 0102 5B08     		lsrs	r3, r3, #1
 1146 0104 9BB2     		uxth	r3, r3
 1147              		.loc 1 188 12
 1148 0106 1344     		add	r3, r3, r2
 1149 0108 BB82     		strh	r3, [r7, #20]	@ movhi
 1150              		.loc 1 189 3
 1151 010a BB8A     		ldrh	r3, [r7, #20]
 1152 010c FA8A     		ldrh	r2, [r7, #22]
 1153 010e F97A     		ldrb	r1, [r7, #11]	@ zero_extendqisi2
 1154 0110 F868     		ldr	r0, [r7, #12]
 1155 0112 FFF7FEFF 		bl	update_detent
 1156              		.loc 1 191 8
 1157 0116 7B68     		ldr	r3, [r7, #4]
 1158 0118 3A89     		ldrh	r2, [r7, #8]	@ movhi
 1159 011a 1A80     		strh	r2, [r3]	@ movhi
 1160              		.loc 1 192 10
 1161 011c 0023     		movs	r3, #0
 1162              	.L64:
 1163              		.loc 1 193 1
 1164 011e 1846     		mov	r0, r3
 1165 0120 1837     		adds	r7, r7, #24
 1166              		.cfi_def_cfa_offset 8
 1167 0122 BD46     		mov	sp, r7
 1168              		.cfi_def_cfa_register 13
 1169              		@ sp needed
 1170 0124 80BD     		pop	{r7, pc}
 1171              		.cfi_endproc
 1172              	.LFE10:
 1173              		.size	brick_cal_pot_next, .-brick_cal_pot_next
 1174              		.text
 1175              	.Letext0:
 1176              		.file 2 "c:\\chibistudio\\tools\\gnu tools arm embedded\\11.3 2022.08\\arm-none-eabi\\include\\mac
 1177              		.file 3 "c:\\chibistudio\\tools\\gnu tools arm embedded\\11.3 2022.08\\arm-none-eabi\\include\\sys
 1178              		.file 4 "drivers/HallEffect/brick_cal.h"