ARM GAS  C:\Users\DEVELO~1\AppData\Local\Temp\ccpgZ96I.s 			page 1


   1              		.cpu cortex-m7
   2              		.arch armv7e-m
   3              		.fpu softvfp
   4              		.eabi_attribute 20, 1
   5              		.eabi_attribute 21, 1
   6              		.eabi_attribute 23, 3
   7              		.eabi_attribute 24, 1
   8              		.eabi_attribute 25, 1
   9              		.eabi_attribute 26, 1
  10              		.eabi_attribute 30, 6
  11              		.eabi_attribute 34, 1
  12              		.eabi_attribute 18, 4
  13              		.file	"ch_test.c"
  14              		.text
  15              	.Ltext0:
  16              		.cfi_sections	.debug_frame
  17              		.section	.text.chTimeIsInRangeX,"ax",%progbits
  18              		.align	1
  19              		.syntax unified
  20              		.thumb
  21              		.thumb_func
  22              		.type	chTimeIsInRangeX, %function
  23              	chTimeIsInRangeX:
  24              	.LFB10:
  25              		.file 1 "../../../os/rt/include/chtime.h"
  26              		.loc 1 486 52
  27              		.cfi_startproc
  28              		@ args = 0, pretend = 0, frame = 16
  29              		@ frame_needed = 1, uses_anonymous_args = 0
  30              		@ link register save eliminated.
  31 0000 80B4     		push	{r7}
  32              		.cfi_def_cfa_offset 4
  33              		.cfi_offset 7, -4
  34 0002 85B0     		sub	sp, sp, #20
  35              		.cfi_def_cfa_offset 24
  36 0004 00AF     		add	r7, sp, #0
  37              		.cfi_def_cfa_register 7
  38 0006 F860     		str	r0, [r7, #12]
  39 0008 B960     		str	r1, [r7, #8]
  40 000a 7A60     		str	r2, [r7, #4]
  41              		.loc 1 488 17
  42 000c FA68     		ldr	r2, [r7, #12]
  43 000e BB68     		ldr	r3, [r7, #8]
  44 0010 D21A     		subs	r2, r2, r3
  45              		.loc 1 489 17
  46 0012 7968     		ldr	r1, [r7, #4]
  47 0014 BB68     		ldr	r3, [r7, #8]
  48 0016 CB1A     		subs	r3, r1, r3
  49              		.loc 1 488 10
  50 0018 9A42     		cmp	r2, r3
  51 001a 34BF     		ite	cc
  52 001c 0123     		movcc	r3, #1
  53 001e 0023     		movcs	r3, #0
  54 0020 DBB2     		uxtb	r3, r3
  55              		.loc 1 490 1
  56 0022 1846     		mov	r0, r3
  57 0024 1437     		adds	r7, r7, #20
ARM GAS  C:\Users\DEVELO~1\AppData\Local\Temp\ccpgZ96I.s 			page 2


  58              		.cfi_def_cfa_offset 4
  59 0026 BD46     		mov	sp, r7
  60              		.cfi_def_cfa_register 13
  61              		@ sp needed
  62 0028 80BC     		pop	{r7}
  63              		.cfi_restore 7
  64              		.cfi_def_cfa_offset 0
  65 002a 7047     		bx	lr
  66              		.cfi_endproc
  67              	.LFE10:
  68              		.size	chTimeIsInRangeX, .-chTimeIsInRangeX
  69              		.section	.text.port_timer_get_time,"ax",%progbits
  70              		.align	1
  71              		.syntax unified
  72              		.thumb
  73              		.thumb_func
  74              		.type	port_timer_get_time, %function
  75              	port_timer_get_time:
  76              	.LFB196:
  77              		.file 2 "../../../os/hal/osal/rt-nil/chcore_timer.h"
  78              		.loc 2 111 51
  79              		.cfi_startproc
  80              		@ args = 0, pretend = 0, frame = 0
  81              		@ frame_needed = 1, uses_anonymous_args = 0
  82 0000 80B5     		push	{r7, lr}
  83              		.cfi_def_cfa_offset 8
  84              		.cfi_offset 7, -8
  85              		.cfi_offset 14, -4
  86 0002 00AF     		add	r7, sp, #0
  87              		.cfi_def_cfa_register 7
  88              		.loc 2 113 10
  89 0004 FFF7FEFF 		bl	stGetCounter
  90 0008 0346     		mov	r3, r0
  91              		.loc 2 114 1
  92 000a 1846     		mov	r0, r3
  93 000c 80BD     		pop	{r7, pc}
  94              		.cfi_endproc
  95              	.LFE196:
  96              		.size	port_timer_get_time, .-port_timer_get_time
  97              		.section	.text.chVTGetSystemTimeX,"ax",%progbits
  98              		.align	1
  99              		.syntax unified
 100              		.thumb
 101              		.thumb_func
 102              		.type	chVTGetSystemTimeX, %function
 103              	chVTGetSystemTimeX:
 104              	.LFB209:
 105              		.file 3 "../../../os/rt/include/chvt.h"
 106              		.loc 3 122 50
 107              		.cfi_startproc
 108              		@ args = 0, pretend = 0, frame = 0
 109              		@ frame_needed = 1, uses_anonymous_args = 0
 110 0000 80B5     		push	{r7, lr}
 111              		.cfi_def_cfa_offset 8
 112              		.cfi_offset 7, -8
 113              		.cfi_offset 14, -4
 114 0002 00AF     		add	r7, sp, #0
ARM GAS  C:\Users\DEVELO~1\AppData\Local\Temp\ccpgZ96I.s 			page 3


 115              		.cfi_def_cfa_register 7
 116              		.loc 3 127 10
 117 0004 FFF7FEFF 		bl	port_timer_get_time
 118 0008 0346     		mov	r3, r0
 119              		.loc 3 129 1
 120 000a 1846     		mov	r0, r3
 121 000c 80BD     		pop	{r7, pc}
 122              		.cfi_endproc
 123              	.LFE209:
 124              		.size	chVTGetSystemTimeX, .-chVTGetSystemTimeX
 125              		.section	.text.osalOsGetSystemTimeX,"ax",%progbits
 126              		.align	1
 127              		.syntax unified
 128              		.thumb
 129              		.thumb_func
 130              		.type	osalOsGetSystemTimeX, %function
 131              	osalOsGetSystemTimeX:
 132              	.LFB359:
 133              		.file 4 "../../../os/hal/osal/rt-nil/osal.h"
 134              		.loc 4 698 52
 135              		.cfi_startproc
 136              		@ args = 0, pretend = 0, frame = 0
 137              		@ frame_needed = 1, uses_anonymous_args = 0
 138 0000 80B5     		push	{r7, lr}
 139              		.cfi_def_cfa_offset 8
 140              		.cfi_offset 7, -8
 141              		.cfi_offset 14, -4
 142 0002 00AF     		add	r7, sp, #0
 143              		.cfi_def_cfa_register 7
 144              		.loc 4 700 10
 145 0004 FFF7FEFF 		bl	chVTGetSystemTimeX
 146 0008 0346     		mov	r3, r0
 147              		.loc 4 701 1
 148 000a 1846     		mov	r0, r3
 149 000c 80BD     		pop	{r7, pc}
 150              		.cfi_endproc
 151              	.LFE359:
 152              		.size	osalOsGetSystemTimeX, .-osalOsGetSystemTimeX
 153              		.section	.text.osalTimeIsInRangeX,"ax",%progbits
 154              		.align	1
 155              		.syntax unified
 156              		.thumb
 157              		.thumb_func
 158              		.type	osalTimeIsInRangeX, %function
 159              	osalTimeIsInRangeX:
 160              	.LFB362:
 161              		.loc 4 748 54
 162              		.cfi_startproc
 163              		@ args = 0, pretend = 0, frame = 16
 164              		@ frame_needed = 1, uses_anonymous_args = 0
 165 0000 80B5     		push	{r7, lr}
 166              		.cfi_def_cfa_offset 8
 167              		.cfi_offset 7, -8
 168              		.cfi_offset 14, -4
 169 0002 84B0     		sub	sp, sp, #16
 170              		.cfi_def_cfa_offset 24
 171 0004 00AF     		add	r7, sp, #0
ARM GAS  C:\Users\DEVELO~1\AppData\Local\Temp\ccpgZ96I.s 			page 4


 172              		.cfi_def_cfa_register 7
 173 0006 F860     		str	r0, [r7, #12]
 174 0008 B960     		str	r1, [r7, #8]
 175 000a 7A60     		str	r2, [r7, #4]
 176              		.loc 4 750 10
 177 000c 7A68     		ldr	r2, [r7, #4]
 178 000e B968     		ldr	r1, [r7, #8]
 179 0010 F868     		ldr	r0, [r7, #12]
 180 0012 FFF7FEFF 		bl	chTimeIsInRangeX
 181 0016 0346     		mov	r3, r0
 182              		.loc 4 751 1
 183 0018 1846     		mov	r0, r3
 184 001a 1037     		adds	r7, r7, #16
 185              		.cfi_def_cfa_offset 8
 186 001c BD46     		mov	sp, r7
 187              		.cfi_def_cfa_register 13
 188              		@ sp needed
 189 001e 80BD     		pop	{r7, pc}
 190              		.cfi_endproc
 191              	.LFE362:
 192              		.size	osalTimeIsInRangeX, .-osalTimeIsInRangeX
 193              		.section	.text.osalThreadSleep,"ax",%progbits
 194              		.align	1
 195              		.syntax unified
 196              		.thumb
 197              		.thumb_func
 198              		.type	osalThreadSleep, %function
 199              	osalThreadSleep:
 200              	.LFB364:
 201              		.loc 4 782 57
 202              		.cfi_startproc
 203              		@ args = 0, pretend = 0, frame = 8
 204              		@ frame_needed = 1, uses_anonymous_args = 0
 205 0000 80B5     		push	{r7, lr}
 206              		.cfi_def_cfa_offset 8
 207              		.cfi_offset 7, -8
 208              		.cfi_offset 14, -4
 209 0002 82B0     		sub	sp, sp, #8
 210              		.cfi_def_cfa_offset 16
 211 0004 00AF     		add	r7, sp, #0
 212              		.cfi_def_cfa_register 7
 213 0006 7860     		str	r0, [r7, #4]
 214              		.loc 4 784 3
 215 0008 7868     		ldr	r0, [r7, #4]
 216 000a FFF7FEFF 		bl	chThdSleep
 217              		.loc 4 785 1
 218 000e 00BF     		nop
 219 0010 0837     		adds	r7, r7, #8
 220              		.cfi_def_cfa_offset 8
 221 0012 BD46     		mov	sp, r7
 222              		.cfi_def_cfa_register 13
 223              		@ sp needed
 224 0014 80BD     		pop	{r7, pc}
 225              		.cfi_endproc
 226              	.LFE364:
 227              		.size	osalThreadSleep, .-osalThreadSleep
 228              		.global	chtest
ARM GAS  C:\Users\DEVELO~1\AppData\Local\Temp\ccpgZ96I.s 			page 5


 229              		.section	.bss.chtest,"aw",%nobits
 230              		.align	2
 231              		.type	chtest, %object
 232              		.size	chtest, 40
 233              	chtest:
 234 0000 00000000 		.space	40
 234      00000000 
 234      00000000 
 234      00000000 
 234      00000000 
 235              		.section	.text.test_stream_putchar,"ax",%progbits
 236              		.align	1
 237              		.syntax unified
 238              		.thumb
 239              		.thumb_func
 240              		.type	test_stream_putchar, %function
 241              	test_stream_putchar:
 242              	.LFB436:
 243              		.file 5 "../../../os/test/src/ch_test.c"
 244              		.loc 5 56 39
 245              		.cfi_startproc
 246              		@ args = 0, pretend = 0, frame = 8
 247              		@ frame_needed = 1, uses_anonymous_args = 0
 248 0000 80B5     		push	{r7, lr}
 249              		.cfi_def_cfa_offset 8
 250              		.cfi_offset 7, -8
 251              		.cfi_offset 14, -4
 252 0002 82B0     		sub	sp, sp, #8
 253              		.cfi_def_cfa_offset 16
 254 0004 00AF     		add	r7, sp, #0
 255              		.cfi_def_cfa_register 7
 256 0006 7860     		str	r0, [r7, #4]
 257              		.loc 5 58 3
 258 0008 074B     		ldr	r3, .L14
 259 000a 5B6A     		ldr	r3, [r3, #36]
 260 000c 1B68     		ldr	r3, [r3]
 261 000e DB68     		ldr	r3, [r3, #12]
 262 0010 054A     		ldr	r2, .L14
 263 0012 526A     		ldr	r2, [r2, #36]
 264 0014 7968     		ldr	r1, [r7, #4]
 265 0016 C9B2     		uxtb	r1, r1
 266 0018 1046     		mov	r0, r2
 267 001a 9847     		blx	r3
 268              	.LVL0:
 269              		.loc 5 60 10
 270 001c 7B68     		ldr	r3, [r7, #4]
 271              		.loc 5 61 1
 272 001e 1846     		mov	r0, r3
 273 0020 0837     		adds	r7, r7, #8
 274              		.cfi_def_cfa_offset 8
 275 0022 BD46     		mov	sp, r7
 276              		.cfi_def_cfa_register 13
 277              		@ sp needed
 278 0024 80BD     		pop	{r7, pc}
 279              	.L15:
 280 0026 00BF     		.align	2
 281              	.L14:
ARM GAS  C:\Users\DEVELO~1\AppData\Local\Temp\ccpgZ96I.s 			page 6


 282 0028 00000000 		.word	chtest
 283              		.cfi_endproc
 284              	.LFE436:
 285              		.size	test_stream_putchar, .-test_stream_putchar
 286              		.section	.text.test_clear_tokens,"ax",%progbits
 287              		.align	1
 288              		.syntax unified
 289              		.thumb
 290              		.thumb_func
 291              		.type	test_clear_tokens, %function
 292              	test_clear_tokens:
 293              	.LFB437:
 294              		.loc 5 64 37
 295              		.cfi_startproc
 296              		@ args = 0, pretend = 0, frame = 0
 297              		@ frame_needed = 1, uses_anonymous_args = 0
 298              		@ link register save eliminated.
 299 0000 80B4     		push	{r7}
 300              		.cfi_def_cfa_offset 4
 301              		.cfi_offset 7, -4
 302 0002 00AF     		add	r7, sp, #0
 303              		.cfi_def_cfa_register 7
 304              		.loc 5 66 15
 305 0004 034B     		ldr	r3, .L17
 306 0006 044A     		ldr	r2, .L17+4
 307 0008 DA60     		str	r2, [r3, #12]
 308              		.loc 5 67 1
 309 000a 00BF     		nop
 310 000c BD46     		mov	sp, r7
 311              		.cfi_def_cfa_register 13
 312              		@ sp needed
 313 000e 80BC     		pop	{r7}
 314              		.cfi_restore 7
 315              		.cfi_def_cfa_offset 0
 316 0010 7047     		bx	lr
 317              	.L18:
 318 0012 00BF     		.align	2
 319              	.L17:
 320 0014 00000000 		.word	chtest
 321 0018 10000000 		.word	chtest+16
 322              		.cfi_endproc
 323              	.LFE437:
 324              		.size	test_clear_tokens, .-test_clear_tokens
 325              		.section	.text.test_print_tokens,"ax",%progbits
 326              		.align	1
 327              		.syntax unified
 328              		.thumb
 329              		.thumb_func
 330              		.type	test_print_tokens, %function
 331              	test_print_tokens:
 332              	.LFB438:
 333              		.loc 5 69 37
 334              		.cfi_startproc
 335              		@ args = 0, pretend = 0, frame = 8
 336              		@ frame_needed = 1, uses_anonymous_args = 0
 337 0000 80B5     		push	{r7, lr}
 338              		.cfi_def_cfa_offset 8
ARM GAS  C:\Users\DEVELO~1\AppData\Local\Temp\ccpgZ96I.s 			page 7


 339              		.cfi_offset 7, -8
 340              		.cfi_offset 14, -4
 341 0002 82B0     		sub	sp, sp, #8
 342              		.cfi_def_cfa_offset 16
 343 0004 00AF     		add	r7, sp, #0
 344              		.cfi_def_cfa_register 7
 345              		.loc 5 70 9
 346 0006 0A4B     		ldr	r3, .L22
 347 0008 7B60     		str	r3, [r7, #4]
 348              		.loc 5 72 9
 349 000a 06E0     		b	.L20
 350              	.L21:
 351              		.loc 5 73 21
 352 000c 7B68     		ldr	r3, [r7, #4]
 353 000e 5A1C     		adds	r2, r3, #1
 354 0010 7A60     		str	r2, [r7, #4]
 355              		.loc 5 73 5
 356 0012 1B78     		ldrb	r3, [r3]	@ zero_extendqisi2
 357 0014 1846     		mov	r0, r3
 358 0016 FFF7FEFF 		bl	test_putchar
 359              	.L20:
 360              		.loc 5 72 21
 361 001a 064B     		ldr	r3, .L22+4
 362 001c DB68     		ldr	r3, [r3, #12]
 363              		.loc 5 72 13
 364 001e 7A68     		ldr	r2, [r7, #4]
 365 0020 9A42     		cmp	r2, r3
 366 0022 F3D3     		bcc	.L21
 367              		.loc 5 75 1
 368 0024 00BF     		nop
 369 0026 00BF     		nop
 370 0028 0837     		adds	r7, r7, #8
 371              		.cfi_def_cfa_offset 8
 372 002a BD46     		mov	sp, r7
 373              		.cfi_def_cfa_register 13
 374              		@ sp needed
 375 002c 80BD     		pop	{r7, pc}
 376              	.L23:
 377 002e 00BF     		.align	2
 378              	.L22:
 379 0030 10000000 		.word	chtest+16
 380 0034 00000000 		.word	chtest
 381              		.cfi_endproc
 382              	.LFE438:
 383              		.size	test_print_tokens, .-test_print_tokens
 384              		.section	.text.test_execute_case,"ax",%progbits
 385              		.align	1
 386              		.syntax unified
 387              		.thumb
 388              		.thumb_func
 389              		.type	test_execute_case, %function
 390              	test_execute_case:
 391              	.LFB439:
 392              		.loc 5 77 54
 393              		.cfi_startproc
 394              		@ args = 0, pretend = 0, frame = 8
 395              		@ frame_needed = 1, uses_anonymous_args = 0
ARM GAS  C:\Users\DEVELO~1\AppData\Local\Temp\ccpgZ96I.s 			page 8


 396 0000 80B5     		push	{r7, lr}
 397              		.cfi_def_cfa_offset 8
 398              		.cfi_offset 7, -8
 399              		.cfi_offset 14, -4
 400 0002 82B0     		sub	sp, sp, #8
 401              		.cfi_def_cfa_offset 16
 402 0004 00AF     		add	r7, sp, #0
 403              		.cfi_def_cfa_register 7
 404 0006 7860     		str	r0, [r7, #4]
 405              		.loc 5 80 3
 406 0008 FFF7FEFF 		bl	test_clear_tokens
 407              		.loc 5 81 21
 408 000c 0B4B     		ldr	r3, .L28
 409 000e 0022     		movs	r2, #0
 410 0010 5A71     		strb	r2, [r3, #5]
 411              		.loc 5 83 10
 412 0012 7B68     		ldr	r3, [r7, #4]
 413 0014 5B68     		ldr	r3, [r3, #4]
 414              		.loc 5 83 6
 415 0016 002B     		cmp	r3, #0
 416 0018 02D0     		beq	.L25
 417              		.loc 5 84 8
 418 001a 7B68     		ldr	r3, [r7, #4]
 419 001c 5B68     		ldr	r3, [r3, #4]
 420              		.loc 5 84 5
 421 001e 9847     		blx	r3
 422              	.LVL1:
 423              	.L25:
 424              		.loc 5 86 6
 425 0020 7B68     		ldr	r3, [r7, #4]
 426 0022 DB68     		ldr	r3, [r3, #12]
 427              		.loc 5 86 3
 428 0024 9847     		blx	r3
 429              	.LVL2:
 430              		.loc 5 87 10
 431 0026 7B68     		ldr	r3, [r7, #4]
 432 0028 9B68     		ldr	r3, [r3, #8]
 433              		.loc 5 87 6
 434 002a 002B     		cmp	r3, #0
 435 002c 02D0     		beq	.L27
 436              		.loc 5 88 8
 437 002e 7B68     		ldr	r3, [r7, #4]
 438 0030 9B68     		ldr	r3, [r3, #8]
 439              		.loc 5 88 5
 440 0032 9847     		blx	r3
 441              	.LVL3:
 442              	.L27:
 443              		.loc 5 90 1
 444 0034 00BF     		nop
 445 0036 0837     		adds	r7, r7, #8
 446              		.cfi_def_cfa_offset 8
 447 0038 BD46     		mov	sp, r7
 448              		.cfi_def_cfa_register 13
 449              		@ sp needed
 450 003a 80BD     		pop	{r7, pc}
 451              	.L29:
 452              		.align	2
ARM GAS  C:\Users\DEVELO~1\AppData\Local\Temp\ccpgZ96I.s 			page 9


 453              	.L28:
 454 003c 00000000 		.word	chtest
 455              		.cfi_endproc
 456              	.LFE439:
 457              		.size	test_execute_case, .-test_execute_case
 458              		.section	.text.test_print_string,"ax",%progbits
 459              		.align	1
 460              		.syntax unified
 461              		.thumb
 462              		.thumb_func
 463              		.type	test_print_string, %function
 464              	test_print_string:
 465              	.LFB440:
 466              		.loc 5 92 46
 467              		.cfi_startproc
 468              		@ args = 0, pretend = 0, frame = 16
 469              		@ frame_needed = 1, uses_anonymous_args = 0
 470 0000 80B5     		push	{r7, lr}
 471              		.cfi_def_cfa_offset 8
 472              		.cfi_offset 7, -8
 473              		.cfi_offset 14, -4
 474 0002 84B0     		sub	sp, sp, #16
 475              		.cfi_def_cfa_offset 24
 476 0004 00AF     		add	r7, sp, #0
 477              		.cfi_def_cfa_register 7
 478 0006 7860     		str	r0, [r7, #4]
 479              		.loc 5 95 9
 480 0008 06E0     		b	.L31
 481              	.L32:
 482              		.loc 5 96 5
 483 000a FB7B     		ldrb	r3, [r7, #15]	@ zero_extendqisi2
 484 000c 1846     		mov	r0, r3
 485 000e FFF7FEFF 		bl	test_putchar
 486              		.loc 5 97 6
 487 0012 7B68     		ldr	r3, [r7, #4]
 488 0014 0133     		adds	r3, r3, #1
 489 0016 7B60     		str	r3, [r7, #4]
 490              	.L31:
 491              		.loc 5 95 13
 492 0018 7B68     		ldr	r3, [r7, #4]
 493 001a 1B78     		ldrb	r3, [r3]
 494 001c FB73     		strb	r3, [r7, #15]
 495              		.loc 5 95 19
 496 001e FB7B     		ldrb	r3, [r7, #15]	@ zero_extendqisi2
 497 0020 002B     		cmp	r3, #0
 498 0022 F2D1     		bne	.L32
 499              		.loc 5 99 1
 500 0024 00BF     		nop
 501 0026 00BF     		nop
 502 0028 1037     		adds	r7, r7, #16
 503              		.cfi_def_cfa_offset 8
 504 002a BD46     		mov	sp, r7
 505              		.cfi_def_cfa_register 13
 506              		@ sp needed
 507 002c 80BD     		pop	{r7, pc}
 508              		.cfi_endproc
 509              	.LFE440:
ARM GAS  C:\Users\DEVELO~1\AppData\Local\Temp\ccpgZ96I.s 			page 10


 510              		.size	test_print_string, .-test_print_string
 511              		.section	.rodata
 512              		.align	2
 513              	.LC0:
 514 0000 0D0A00   		.ascii	"\015\012\000"
 515              		.section	.text.test_print_line,"ax",%progbits
 516              		.align	1
 517              		.syntax unified
 518              		.thumb
 519              		.thumb_func
 520              		.type	test_print_line, %function
 521              	test_print_line:
 522              	.LFB441:
 523              		.loc 5 101 35
 524              		.cfi_startproc
 525              		@ args = 0, pretend = 0, frame = 8
 526              		@ frame_needed = 1, uses_anonymous_args = 0
 527 0000 80B5     		push	{r7, lr}
 528              		.cfi_def_cfa_offset 8
 529              		.cfi_offset 7, -8
 530              		.cfi_offset 14, -4
 531 0002 82B0     		sub	sp, sp, #8
 532              		.cfi_def_cfa_offset 16
 533 0004 00AF     		add	r7, sp, #0
 534              		.cfi_def_cfa_register 7
 535              		.loc 5 104 10
 536 0006 0023     		movs	r3, #0
 537 0008 7B60     		str	r3, [r7, #4]
 538              		.loc 5 104 3
 539 000a 05E0     		b	.L34
 540              	.L35:
 541              		.loc 5 105 5 discriminator 3
 542 000c 2D20     		movs	r0, #45
 543 000e FFF7FEFF 		bl	test_putchar
 544              		.loc 5 104 24 discriminator 3
 545 0012 7B68     		ldr	r3, [r7, #4]
 546 0014 0133     		adds	r3, r3, #1
 547 0016 7B60     		str	r3, [r7, #4]
 548              	.L34:
 549              		.loc 5 104 17 discriminator 1
 550 0018 7B68     		ldr	r3, [r7, #4]
 551 001a 4B2B     		cmp	r3, #75
 552 001c F6D9     		bls	.L35
 553              		.loc 5 107 3
 554 001e 0348     		ldr	r0, .L36
 555 0020 FFF7FEFF 		bl	test_print_string
 556              		.loc 5 108 1
 557 0024 00BF     		nop
 558 0026 0837     		adds	r7, r7, #8
 559              		.cfi_def_cfa_offset 8
 560 0028 BD46     		mov	sp, r7
 561              		.cfi_def_cfa_register 13
 562              		@ sp needed
 563 002a 80BD     		pop	{r7, pc}
 564              	.L37:
 565              		.align	2
 566              	.L36:
ARM GAS  C:\Users\DEVELO~1\AppData\Local\Temp\ccpgZ96I.s 			page 11


 567 002c 00000000 		.word	.LC0
 568              		.cfi_endproc
 569              	.LFE441:
 570              		.size	test_print_line, .-test_print_line
 571              		.section	.text.test_print_fat_line,"ax",%progbits
 572              		.align	1
 573              		.syntax unified
 574              		.thumb
 575              		.thumb_func
 576              		.type	test_print_fat_line, %function
 577              	test_print_fat_line:
 578              	.LFB442:
 579              		.loc 5 110 39
 580              		.cfi_startproc
 581              		@ args = 0, pretend = 0, frame = 8
 582              		@ frame_needed = 1, uses_anonymous_args = 0
 583 0000 80B5     		push	{r7, lr}
 584              		.cfi_def_cfa_offset 8
 585              		.cfi_offset 7, -8
 586              		.cfi_offset 14, -4
 587 0002 82B0     		sub	sp, sp, #8
 588              		.cfi_def_cfa_offset 16
 589 0004 00AF     		add	r7, sp, #0
 590              		.cfi_def_cfa_register 7
 591              		.loc 5 113 10
 592 0006 0023     		movs	r3, #0
 593 0008 7B60     		str	r3, [r7, #4]
 594              		.loc 5 113 3
 595 000a 05E0     		b	.L39
 596              	.L40:
 597              		.loc 5 114 5 discriminator 3
 598 000c 3D20     		movs	r0, #61
 599 000e FFF7FEFF 		bl	test_putchar
 600              		.loc 5 113 24 discriminator 3
 601 0012 7B68     		ldr	r3, [r7, #4]
 602 0014 0133     		adds	r3, r3, #1
 603 0016 7B60     		str	r3, [r7, #4]
 604              	.L39:
 605              		.loc 5 113 17 discriminator 1
 606 0018 7B68     		ldr	r3, [r7, #4]
 607 001a 4B2B     		cmp	r3, #75
 608 001c F6D9     		bls	.L40
 609              		.loc 5 116 3
 610 001e 0348     		ldr	r0, .L41
 611 0020 FFF7FEFF 		bl	test_print_string
 612              		.loc 5 117 1
 613 0024 00BF     		nop
 614 0026 0837     		adds	r7, r7, #8
 615              		.cfi_def_cfa_offset 8
 616 0028 BD46     		mov	sp, r7
 617              		.cfi_def_cfa_register 13
 618              		@ sp needed
 619 002a 80BD     		pop	{r7, pc}
 620              	.L42:
 621              		.align	2
 622              	.L41:
 623 002c 00000000 		.word	.LC0
ARM GAS  C:\Users\DEVELO~1\AppData\Local\Temp\ccpgZ96I.s 			page 12


 624              		.cfi_endproc
 625              	.LFE442:
 626              		.size	test_print_fat_line, .-test_print_fat_line
 627              		.section	.rodata
 628 0003 00       		.align	2
 629              	.LC1:
 630 0004 2A2A2A20 		.ascii	"*** %s\015\012\000"
 630      25730D0A 
 630      00
 631 000d 000000   		.align	2
 632              	.LC2:
 633 0010 2A2A2A20 		.ascii	"*** Test Suite\015\012\000"
 633      54657374 
 633      20537569 
 633      74650D0A 
 633      00
 634 0021 000000   		.align	2
 635              	.LC3:
 636 0024 2A2A2A0D 		.ascii	"***\015\012\000"
 636      0A00
 637 002a 0000     		.align	2
 638              	.LC4:
 639 002c 4A616E20 		.ascii	"Jan  8 2026 - 17:51:27\000"
 639      20382032 
 639      30323620 
 639      2D203137 
 639      3A35313A 
 640 0043 00       		.align	2
 641              	.LC5:
 642 0044 2A2A2A20 		.ascii	"*** Compiled:     %s\015\012\000"
 642      436F6D70 
 642      696C6564 
 642      3A202020 
 642      20202573 
 643 005b 00       		.align	2
 644              	.LC6:
 645 005c 53544D33 		.ascii	"STM32H743 Single Core Very High Performance with DS"
 645      32483734 
 645      33205369 
 645      6E676C65 
 645      20436F72 
 646 008f 5020616E 		.ascii	"P and FPU\000"
 646      64204650 
 646      5500
 647 0099 000000   		.align	2
 648              	.LC7:
 649 009c 2A2A2A20 		.ascii	"*** Platform:     %s\015\012\000"
 649      506C6174 
 649      666F726D 
 649      3A202020 
 649      20202573 
 650 00b3 00       		.align	2
 651              	.LC8:
 652 00b4 53544D33 		.ascii	"STM32H743 LQFP176 Custom Q 8M\000"
 652      32483734 
 652      33204C51 
 652      46503137 
ARM GAS  C:\Users\DEVELO~1\AppData\Local\Temp\ccpgZ96I.s 			page 13


 652      36204375 
 653 00d2 0000     		.align	2
 654              	.LC9:
 655 00d4 2A2A2A20 		.ascii	"*** Test Board:   %s\015\012\000"
 655      54657374 
 655      20426F61 
 655      72643A20 
 655      20202573 
 656 00eb 00       		.align	2
 657              	.LC10:
 658 00ec 2A2A2A20 		.ascii	"*** Text size:    %u bytes\015\012\000"
 658      54657874 
 658      2073697A 
 658      653A2020 
 658      20202575 
 659 0109 000000   		.align	2
 660              	.LC11:
 661 010c 2A2A2A20 		.ascii	"*** RO data size: %u bytes\015\012\000"
 661      524F2064 
 661      61746120 
 661      73697A65 
 661      3A202575 
 662 0129 000000   		.align	2
 663              	.LC12:
 664 012c 2A2A2A20 		.ascii	"*** Data size:    %u bytes\015\012\000"
 664      44617461 
 664      2073697A 
 664      653A2020 
 664      20202575 
 665 0149 000000   		.align	2
 666              	.LC13:
 667 014c 2A2A2A20 		.ascii	"*** BSS size:     %u bytes\015\012\000"
 667      42535320 
 667      73697A65 
 667      3A202020 
 667      20202575 
 668 0169 000000   		.align	2
 669              	.LC14:
 670 016c 3D3D3D20 		.ascii	"=== Test Sequence %u (%s)\015\012\000"
 670      54657374 
 670      20536571 
 670      75656E63 
 670      65202575 
 671              		.align	2
 672              	.LC15:
 673 0188 2D2D2D20 		.ascii	"--- Test Case %u.%u (%s)\015\012\000"
 673      54657374 
 673      20436173 
 673      65202575 
 673      2E257520 
 674 01a3 00       		.align	2
 675              	.LC16:
 676 01a4 00       		.ascii	"\000"
 677 01a5 000000   		.align	2
 678              	.LC17:
 679 01a8 2D2D2D20 		.ascii	"--- Result: FAILURE (#%u [\000"
 679      52657375 
ARM GAS  C:\Users\DEVELO~1\AppData\Local\Temp\ccpgZ96I.s 			page 14


 679      6C743A20 
 679      4641494C 
 679      55524520 
 680 01c3 00       		.align	2
 681              	.LC18:
 682 01c4 5D202225 		.ascii	"] \"%s\")\015\012\000"
 682      7322290D 
 682      0A00
 683 01ce 0000     		.align	2
 684              	.LC19:
 685 01d0 2D2D2D20 		.ascii	"--- Result: SUCCESS\015\012\000"
 685      52657375 
 685      6C743A20 
 685      53554343 
 685      4553530D 
 686 01e6 0000     		.align	2
 687              	.LC20:
 688 01e8 4641494C 		.ascii	"FAILURE\000"
 688      55524500 
 689              		.align	2
 690              	.LC21:
 691 01f0 53554343 		.ascii	"SUCCESS\000"
 691      45535300 
 692              		.align	2
 693              	.LC22:
 694 01f8 46696E61 		.ascii	"Final result: %s\015\012\000"
 694      6C207265 
 694      73756C74 
 694      3A202573 
 694      0D0A00
 695              		.section	.text.test_execute_inner,"ax",%progbits
 696              		.align	1
 697              		.syntax unified
 698              		.thumb
 699              		.thumb_func
 700              		.type	test_execute_inner, %function
 701              	test_execute_inner:
 702              	.LFB443:
 703              		.loc 5 127 56
 704              		.cfi_startproc
 705              		@ args = 0, pretend = 0, frame = 16
 706              		@ frame_needed = 1, uses_anonymous_args = 0
 707 0000 80B5     		push	{r7, lr}
 708              		.cfi_def_cfa_offset 8
 709              		.cfi_offset 7, -8
 710              		.cfi_offset 14, -4
 711 0002 84B0     		sub	sp, sp, #16
 712              		.cfi_def_cfa_offset 24
 713 0004 00AF     		add	r7, sp, #0
 714              		.cfi_def_cfa_register 7
 715 0006 7860     		str	r0, [r7, #4]
 716              		.loc 5 131 3
 717 0008 6548     		ldr	r0, .L55
 718 000a FFF7FEFF 		bl	test_printf
 719              		.loc 5 132 10
 720 000e 7B68     		ldr	r3, [r7, #4]
 721 0010 1B68     		ldr	r3, [r3]
ARM GAS  C:\Users\DEVELO~1\AppData\Local\Temp\ccpgZ96I.s 			page 15


 722              		.loc 5 132 6
 723 0012 002B     		cmp	r3, #0
 724 0014 06D0     		beq	.L44
 725              		.loc 5 133 49
 726 0016 7B68     		ldr	r3, [r7, #4]
 727 0018 1B68     		ldr	r3, [r3]
 728              		.loc 5 133 5
 729 001a 1946     		mov	r1, r3
 730 001c 6148     		ldr	r0, .L55+4
 731 001e FFF7FEFF 		bl	test_printf
 732 0022 02E0     		b	.L45
 733              	.L44:
 734              		.loc 5 136 5
 735 0024 6048     		ldr	r0, .L55+8
 736 0026 FFF7FEFF 		bl	test_printf
 737              	.L45:
 738              		.loc 5 138 3
 739 002a 6048     		ldr	r0, .L55+12
 740 002c FFF7FEFF 		bl	test_printf
 741              		.loc 5 139 3
 742 0030 5F49     		ldr	r1, .L55+16
 743 0032 6048     		ldr	r0, .L55+20
 744 0034 FFF7FEFF 		bl	test_printf
 745              		.loc 5 141 3
 746 0038 5F49     		ldr	r1, .L55+24
 747 003a 6048     		ldr	r0, .L55+28
 748 003c FFF7FEFF 		bl	test_printf
 749              		.loc 5 144 3
 750 0040 5F49     		ldr	r1, .L55+32
 751 0042 6048     		ldr	r0, .L55+36
 752 0044 FFF7FEFF 		bl	test_printf
 753              	.LBB2:
 754              		.loc 5 152 5
 755 0048 5848     		ldr	r0, .L55+12
 756 004a FFF7FEFF 		bl	test_printf
 757              		.loc 5 153 5
 758 004e 5E4A     		ldr	r2, .L55+40
 759 0050 5E4B     		ldr	r3, .L55+44
 760 0052 D31A     		subs	r3, r2, r3
 761 0054 1946     		mov	r1, r3
 762 0056 5E48     		ldr	r0, .L55+48
 763 0058 FFF7FEFF 		bl	test_printf
 764              		.loc 5 154 5
 765 005c 5D4A     		ldr	r2, .L55+52
 766 005e 5E4B     		ldr	r3, .L55+56
 767 0060 D31A     		subs	r3, r2, r3
 768 0062 1946     		mov	r1, r3
 769 0064 5D48     		ldr	r0, .L55+60
 770 0066 FFF7FEFF 		bl	test_printf
 771              		.loc 5 155 5
 772 006a 5D4A     		ldr	r2, .L55+64
 773 006c 5D4B     		ldr	r3, .L55+68
 774 006e D31A     		subs	r3, r2, r3
 775 0070 1946     		mov	r1, r3
 776 0072 5D48     		ldr	r0, .L55+72
 777 0074 FFF7FEFF 		bl	test_printf
 778              		.loc 5 156 5
ARM GAS  C:\Users\DEVELO~1\AppData\Local\Temp\ccpgZ96I.s 			page 16


 779 0078 5C4A     		ldr	r2, .L55+76
 780 007a 5D4B     		ldr	r3, .L55+80
 781 007c D31A     		subs	r3, r2, r3
 782 007e 1946     		mov	r1, r3
 783 0080 5C48     		ldr	r0, .L55+84
 784 0082 FFF7FEFF 		bl	test_printf
 785              	.LBE2:
 786              		.loc 5 162 3
 787 0086 4648     		ldr	r0, .L55
 788 0088 FFF7FEFF 		bl	test_printf
 789              		.loc 5 164 22
 790 008c 5A4B     		ldr	r3, .L55+88
 791 008e 0022     		movs	r2, #0
 792 0090 1A71     		strb	r2, [r3, #4]
 793              		.loc 5 165 8
 794 0092 0023     		movs	r3, #0
 795 0094 FB60     		str	r3, [r7, #12]
 796              		.loc 5 166 9
 797 0096 64E0     		b	.L46
 798              	.L51:
 799              		.loc 5 171 5
 800 0098 FFF7FEFF 		bl	test_print_fat_line
 801              		.loc 5 172 5
 802 009c FB68     		ldr	r3, [r7, #12]
 803 009e 591C     		adds	r1, r3, #1
 804              		.loc 5 172 79
 805 00a0 7B68     		ldr	r3, [r7, #4]
 806 00a2 5A68     		ldr	r2, [r3, #4]
 807              		.loc 5 172 90
 808 00a4 FB68     		ldr	r3, [r7, #12]
 809 00a6 9B00     		lsls	r3, r3, #2
 810 00a8 1344     		add	r3, r3, r2
 811 00aa 1B68     		ldr	r3, [r3]
 812              		.loc 5 172 96
 813 00ac 1B68     		ldr	r3, [r3]
 814              		.loc 5 172 5
 815 00ae 1A46     		mov	r2, r3
 816 00b0 5248     		ldr	r0, .L55+92
 817 00b2 FFF7FEFF 		bl	test_printf
 818              		.loc 5 174 11
 819 00b6 0023     		movs	r3, #0
 820 00b8 BB60     		str	r3, [r7, #8]
 821              		.loc 5 175 11
 822 00ba 42E0     		b	.L47
 823              	.L50:
 824              		.loc 5 176 7
 825 00bc FFF7FEFF 		bl	test_print_line
 826              		.loc 5 177 7
 827 00c0 FB68     		ldr	r3, [r7, #12]
 828 00c2 591C     		adds	r1, r3, #1
 829 00c4 BB68     		ldr	r3, [r7, #8]
 830 00c6 581C     		adds	r0, r3, #1
 831              		.loc 5 177 92
 832 00c8 7B68     		ldr	r3, [r7, #4]
 833 00ca 5A68     		ldr	r2, [r3, #4]
 834              		.loc 5 177 103
 835 00cc FB68     		ldr	r3, [r7, #12]
ARM GAS  C:\Users\DEVELO~1\AppData\Local\Temp\ccpgZ96I.s 			page 17


 836 00ce 9B00     		lsls	r3, r3, #2
 837 00d0 1344     		add	r3, r3, r2
 838 00d2 1B68     		ldr	r3, [r3]
 839              		.loc 5 177 109
 840 00d4 5A68     		ldr	r2, [r3, #4]
 841              		.loc 5 177 116
 842 00d6 BB68     		ldr	r3, [r7, #8]
 843 00d8 9B00     		lsls	r3, r3, #2
 844 00da 1344     		add	r3, r3, r2
 845 00dc 1B68     		ldr	r3, [r3]
 846              		.loc 5 177 123
 847 00de 1B68     		ldr	r3, [r3]
 848              		.loc 5 177 7
 849 00e0 0246     		mov	r2, r0
 850 00e2 4748     		ldr	r0, .L55+96
 851 00e4 FFF7FEFF 		bl	test_printf
 852              		.loc 5 179 7
 853 00e8 4FF4FA60 		mov	r0, #2000
 854 00ec FFF7FEFF 		bl	osalThreadSleep
 855              		.loc 5 184 28
 856 00f0 7B68     		ldr	r3, [r7, #4]
 857 00f2 5A68     		ldr	r2, [r3, #4]
 858              		.loc 5 184 39
 859 00f4 FB68     		ldr	r3, [r7, #12]
 860 00f6 9B00     		lsls	r3, r3, #2
 861 00f8 1344     		add	r3, r3, r2
 862 00fa 1B68     		ldr	r3, [r3]
 863              		.loc 5 184 45
 864 00fc 5A68     		ldr	r2, [r3, #4]
 865              		.loc 5 184 52
 866 00fe BB68     		ldr	r3, [r7, #8]
 867 0100 9B00     		lsls	r3, r3, #2
 868 0102 1344     		add	r3, r3, r2
 869              		.loc 5 184 7
 870 0104 1B68     		ldr	r3, [r3]
 871 0106 1846     		mov	r0, r3
 872 0108 FFF7FEFF 		bl	test_execute_case
 873              		.loc 5 185 17
 874 010c 3A4B     		ldr	r3, .L55+88
 875 010e 5B79     		ldrb	r3, [r3, #5]	@ zero_extendqisi2
 876              		.loc 5 185 10
 877 0110 002B     		cmp	r3, #0
 878 0112 10D0     		beq	.L48
 879              		.loc 5 186 9
 880 0114 384B     		ldr	r3, .L55+88
 881 0116 1968     		ldr	r1, [r3]
 882 0118 374B     		ldr	r3, .L55+88
 883 011a 9B68     		ldr	r3, [r3, #8]
 884 011c 394A     		ldr	r2, .L55+100
 885 011e 3A48     		ldr	r0, .L55+104
 886 0120 FFF7FEFF 		bl	test_printf
 887              		.loc 5 187 9
 888 0124 FFF7FEFF 		bl	test_print_tokens
 889              		.loc 5 188 9
 890 0128 334B     		ldr	r3, .L55+88
 891 012a 9B68     		ldr	r3, [r3, #8]
 892 012c 1946     		mov	r1, r3
ARM GAS  C:\Users\DEVELO~1\AppData\Local\Temp\ccpgZ96I.s 			page 18


 893 012e 3748     		ldr	r0, .L55+108
 894 0130 FFF7FEFF 		bl	test_printf
 895 0134 02E0     		b	.L49
 896              	.L48:
 897              		.loc 5 191 9
 898 0136 3648     		ldr	r0, .L55+112
 899 0138 FFF7FEFF 		bl	test_printf
 900              	.L49:
 901              		.loc 5 193 12
 902 013c BB68     		ldr	r3, [r7, #8]
 903 013e 0133     		adds	r3, r3, #1
 904 0140 BB60     		str	r3, [r7, #8]
 905              	.L47:
 906              		.loc 5 175 15
 907 0142 7B68     		ldr	r3, [r7, #4]
 908 0144 5A68     		ldr	r2, [r3, #4]
 909              		.loc 5 175 26
 910 0146 FB68     		ldr	r3, [r7, #12]
 911 0148 9B00     		lsls	r3, r3, #2
 912 014a 1344     		add	r3, r3, r2
 913 014c 1B68     		ldr	r3, [r3]
 914              		.loc 5 175 32
 915 014e 5A68     		ldr	r2, [r3, #4]
 916              		.loc 5 175 39
 917 0150 BB68     		ldr	r3, [r7, #8]
 918 0152 9B00     		lsls	r3, r3, #2
 919 0154 1344     		add	r3, r3, r2
 920 0156 1B68     		ldr	r3, [r3]
 921              		.loc 5 175 47
 922 0158 002B     		cmp	r3, #0
 923 015a AFD1     		bne	.L50
 924              		.loc 5 195 9
 925 015c FB68     		ldr	r3, [r7, #12]
 926 015e 0133     		adds	r3, r3, #1
 927 0160 FB60     		str	r3, [r7, #12]
 928              	.L46:
 929              		.loc 5 166 13
 930 0162 7B68     		ldr	r3, [r7, #4]
 931 0164 5A68     		ldr	r2, [r3, #4]
 932              		.loc 5 166 24
 933 0166 FB68     		ldr	r3, [r7, #12]
 934 0168 9B00     		lsls	r3, r3, #2
 935 016a 1344     		add	r3, r3, r2
 936 016c 1B68     		ldr	r3, [r3]
 937              		.loc 5 166 31
 938 016e 002B     		cmp	r3, #0
 939 0170 92D1     		bne	.L51
 940              		.loc 5 197 3
 941 0172 FFF7FEFF 		bl	test_print_line
 942              		.loc 5 198 3
 943 0176 0A48     		ldr	r0, .L55
 944 0178 FFF7FEFF 		bl	test_printf
 945              		.loc 5 200 21
 946 017c 1E4B     		ldr	r3, .L55+88
 947 017e 1B79     		ldrb	r3, [r3, #4]	@ zero_extendqisi2
 948              		.loc 5 199 3
 949 0180 002B     		cmp	r3, #0
ARM GAS  C:\Users\DEVELO~1\AppData\Local\Temp\ccpgZ96I.s 			page 19


 950 0182 01D0     		beq	.L52
 951              		.loc 5 199 3 is_stmt 0 discriminator 1
 952 0184 234B     		ldr	r3, .L55+116
 953 0186 00E0     		b	.L53
 954              	.L52:
 955              		.loc 5 199 3 discriminator 2
 956 0188 234B     		ldr	r3, .L55+120
 957              	.L53:
 958              		.loc 5 199 3 discriminator 4
 959 018a 1946     		mov	r1, r3
 960 018c 2348     		ldr	r0, .L55+124
 961 018e FFF7FEFF 		bl	test_printf
 962              		.loc 5 206 16 is_stmt 1 discriminator 4
 963 0192 194B     		ldr	r3, .L55+88
 964 0194 1B79     		ldrb	r3, [r3, #4]	@ zero_extendqisi2
 965              		.loc 5 207 1 discriminator 4
 966 0196 1846     		mov	r0, r3
 967 0198 1037     		adds	r7, r7, #16
 968              		.cfi_def_cfa_offset 8
 969 019a BD46     		mov	sp, r7
 970              		.cfi_def_cfa_register 13
 971              		@ sp needed
 972 019c 80BD     		pop	{r7, pc}
 973              	.L56:
 974 019e 00BF     		.align	2
 975              	.L55:
 976 01a0 00000000 		.word	.LC0
 977 01a4 04000000 		.word	.LC1
 978 01a8 10000000 		.word	.LC2
 979 01ac 24000000 		.word	.LC3
 980 01b0 2C000000 		.word	.LC4
 981 01b4 44000000 		.word	.LC5
 982 01b8 5C000000 		.word	.LC6
 983 01bc 9C000000 		.word	.LC7
 984 01c0 B4000000 		.word	.LC8
 985 01c4 D4000000 		.word	.LC9
 986 01c8 00000000 		.word	__text_end__
 987 01cc 00000000 		.word	__text_base__
 988 01d0 EC000000 		.word	.LC10
 989 01d4 00000000 		.word	__rodata_end__
 990 01d8 00000000 		.word	__rodata_base__
 991 01dc 0C010000 		.word	.LC11
 992 01e0 00000000 		.word	__data_end__
 993 01e4 00000000 		.word	__data_base__
 994 01e8 2C010000 		.word	.LC12
 995 01ec 00000000 		.word	__bss_end__
 996 01f0 00000000 		.word	__bss_base__
 997 01f4 4C010000 		.word	.LC13
 998 01f8 00000000 		.word	chtest
 999 01fc 6C010000 		.word	.LC14
 1000 0200 88010000 		.word	.LC15
 1001 0204 A4010000 		.word	.LC16
 1002 0208 A8010000 		.word	.LC17
 1003 020c C4010000 		.word	.LC18
 1004 0210 D0010000 		.word	.LC19
 1005 0214 E8010000 		.word	.LC20
 1006 0218 F0010000 		.word	.LC21
ARM GAS  C:\Users\DEVELO~1\AppData\Local\Temp\ccpgZ96I.s 			page 20


 1007 021c F8010000 		.word	.LC22
 1008              		.cfi_endproc
 1009              	.LFE443:
 1010              		.size	test_execute_inner, .-test_execute_inner
 1011              		.section	.text.__test_fail,"ax",%progbits
 1012              		.align	1
 1013              		.global	__test_fail
 1014              		.syntax unified
 1015              		.thumb
 1016              		.thumb_func
 1017              		.type	__test_fail, %function
 1018              	__test_fail:
 1019              	.LFB444:
 1020              		.loc 5 213 35
 1021              		.cfi_startproc
 1022              		@ args = 0, pretend = 0, frame = 8
 1023              		@ frame_needed = 1, uses_anonymous_args = 0
 1024              		@ link register save eliminated.
 1025 0000 80B4     		push	{r7}
 1026              		.cfi_def_cfa_offset 4
 1027              		.cfi_offset 7, -4
 1028 0002 83B0     		sub	sp, sp, #12
 1029              		.cfi_def_cfa_offset 16
 1030 0004 00AF     		add	r7, sp, #0
 1031              		.cfi_def_cfa_register 7
 1032 0006 7860     		str	r0, [r7, #4]
 1033              		.loc 5 215 26
 1034 0008 074B     		ldr	r3, .L59
 1035 000a 0122     		movs	r2, #1
 1036 000c 5A71     		strb	r2, [r3, #5]
 1037              		.loc 5 216 26
 1038 000e 064B     		ldr	r3, .L59
 1039 0010 0122     		movs	r2, #1
 1040 0012 1A71     		strb	r2, [r3, #4]
 1041              		.loc 5 217 26
 1042 0014 044A     		ldr	r2, .L59
 1043 0016 7B68     		ldr	r3, [r7, #4]
 1044 0018 9360     		str	r3, [r2, #8]
 1045              		.loc 5 218 10
 1046 001a 0123     		movs	r3, #1
 1047              		.loc 5 219 1
 1048 001c 1846     		mov	r0, r3
 1049 001e 0C37     		adds	r7, r7, #12
 1050              		.cfi_def_cfa_offset 4
 1051 0020 BD46     		mov	sp, r7
 1052              		.cfi_def_cfa_register 13
 1053              		@ sp needed
 1054 0022 80BC     		pop	{r7}
 1055              		.cfi_restore 7
 1056              		.cfi_def_cfa_offset 0
 1057 0024 7047     		bx	lr
 1058              	.L60:
 1059 0026 00BF     		.align	2
 1060              	.L59:
 1061 0028 00000000 		.word	chtest
 1062              		.cfi_endproc
 1063              	.LFE444:
ARM GAS  C:\Users\DEVELO~1\AppData\Local\Temp\ccpgZ96I.s 			page 21


 1064              		.size	__test_fail, .-__test_fail
 1065              		.section	.text.__test_assert,"ax",%progbits
 1066              		.align	1
 1067              		.global	__test_assert
 1068              		.syntax unified
 1069              		.thumb
 1070              		.thumb_func
 1071              		.type	__test_assert, %function
 1072              	__test_assert:
 1073              	.LFB445:
 1074              		.loc 5 221 53
 1075              		.cfi_startproc
 1076              		@ args = 0, pretend = 0, frame = 8
 1077              		@ frame_needed = 1, uses_anonymous_args = 0
 1078 0000 80B5     		push	{r7, lr}
 1079              		.cfi_def_cfa_offset 8
 1080              		.cfi_offset 7, -8
 1081              		.cfi_offset 14, -4
 1082 0002 82B0     		sub	sp, sp, #8
 1083              		.cfi_def_cfa_offset 16
 1084 0004 00AF     		add	r7, sp, #0
 1085              		.cfi_def_cfa_register 7
 1086 0006 0346     		mov	r3, r0
 1087 0008 3960     		str	r1, [r7]
 1088 000a FB71     		strb	r3, [r7, #7]
 1089              		.loc 5 223 7
 1090 000c FB79     		ldrb	r3, [r7, #7]
 1091 000e 83F00103 		eor	r3, r3, #1
 1092 0012 DBB2     		uxtb	r3, r3
 1093              		.loc 5 223 6
 1094 0014 002B     		cmp	r3, #0
 1095 0016 04D0     		beq	.L62
 1096              		.loc 5 224 12
 1097 0018 3868     		ldr	r0, [r7]
 1098 001a FFF7FEFF 		bl	__test_fail
 1099 001e 0346     		mov	r3, r0
 1100 0020 00E0     		b	.L63
 1101              	.L62:
 1102              		.loc 5 226 10
 1103 0022 0023     		movs	r3, #0
 1104              	.L63:
 1105              		.loc 5 227 1
 1106 0024 1846     		mov	r0, r3
 1107 0026 0837     		adds	r7, r7, #8
 1108              		.cfi_def_cfa_offset 8
 1109 0028 BD46     		mov	sp, r7
 1110              		.cfi_def_cfa_register 13
 1111              		@ sp needed
 1112 002a 80BD     		pop	{r7, pc}
 1113              		.cfi_endproc
 1114              	.LFE445:
 1115              		.size	__test_assert, .-__test_assert
 1116              		.section	.text.__test_assert_sequence,"ax",%progbits
 1117              		.align	1
 1118              		.global	__test_assert_sequence
 1119              		.syntax unified
 1120              		.thumb
ARM GAS  C:\Users\DEVELO~1\AppData\Local\Temp\ccpgZ96I.s 			page 22


 1121              		.thumb_func
 1122              		.type	__test_assert_sequence, %function
 1123              	__test_assert_sequence:
 1124              	.LFB446:
 1125              		.loc 5 229 62
 1126              		.cfi_startproc
 1127              		@ args = 0, pretend = 0, frame = 16
 1128              		@ frame_needed = 1, uses_anonymous_args = 0
 1129 0000 80B5     		push	{r7, lr}
 1130              		.cfi_def_cfa_offset 8
 1131              		.cfi_offset 7, -8
 1132              		.cfi_offset 14, -4
 1133 0002 84B0     		sub	sp, sp, #16
 1134              		.cfi_def_cfa_offset 24
 1135 0004 00AF     		add	r7, sp, #0
 1136              		.cfi_def_cfa_register 7
 1137 0006 7860     		str	r0, [r7, #4]
 1138 0008 3960     		str	r1, [r7]
 1139              		.loc 5 230 9
 1140 000a 134B     		ldr	r3, .L69
 1141 000c FB60     		str	r3, [r7, #12]
 1142              		.loc 5 232 9
 1143 000e 0EE0     		b	.L65
 1144              	.L67:
 1145              		.loc 5 233 12
 1146 0010 FB68     		ldr	r3, [r7, #12]
 1147 0012 5A1C     		adds	r2, r3, #1
 1148 0014 FA60     		str	r2, [r7, #12]
 1149              		.loc 5 233 9
 1150 0016 1A78     		ldrb	r2, [r3]	@ zero_extendqisi2
 1151              		.loc 5 233 27
 1152 0018 7B68     		ldr	r3, [r7, #4]
 1153 001a 591C     		adds	r1, r3, #1
 1154 001c 7960     		str	r1, [r7, #4]
 1155              		.loc 5 233 18
 1156 001e 1B78     		ldrb	r3, [r3]	@ zero_extendqisi2
 1157              		.loc 5 233 8
 1158 0020 9A42     		cmp	r2, r3
 1159 0022 04D0     		beq	.L65
 1160              		.loc 5 234 13
 1161 0024 3868     		ldr	r0, [r7]
 1162 0026 FFF7FEFF 		bl	__test_fail
 1163 002a 0346     		mov	r3, r0
 1164 002c 10E0     		b	.L66
 1165              	.L65:
 1166              		.loc 5 232 21
 1167 002e 0B4B     		ldr	r3, .L69+4
 1168 0030 DB68     		ldr	r3, [r3, #12]
 1169              		.loc 5 232 13
 1170 0032 FA68     		ldr	r2, [r7, #12]
 1171 0034 9A42     		cmp	r2, r3
 1172 0036 EBD3     		bcc	.L67
 1173              		.loc 5 237 7
 1174 0038 7B68     		ldr	r3, [r7, #4]
 1175 003a 1B78     		ldrb	r3, [r3]	@ zero_extendqisi2
 1176              		.loc 5 237 6
 1177 003c 002B     		cmp	r3, #0
ARM GAS  C:\Users\DEVELO~1\AppData\Local\Temp\ccpgZ96I.s 			page 23


 1178 003e 04D0     		beq	.L68
 1179              		.loc 5 238 12
 1180 0040 3868     		ldr	r0, [r7]
 1181 0042 FFF7FEFF 		bl	__test_fail
 1182 0046 0346     		mov	r3, r0
 1183 0048 02E0     		b	.L66
 1184              	.L68:
 1185              		.loc 5 241 3
 1186 004a FFF7FEFF 		bl	test_clear_tokens
 1187              		.loc 5 243 10
 1188 004e 0023     		movs	r3, #0
 1189              	.L66:
 1190              		.loc 5 244 1
 1191 0050 1846     		mov	r0, r3
 1192 0052 1037     		adds	r7, r7, #16
 1193              		.cfi_def_cfa_offset 8
 1194 0054 BD46     		mov	sp, r7
 1195              		.cfi_def_cfa_register 13
 1196              		@ sp needed
 1197 0056 80BD     		pop	{r7, pc}
 1198              	.L70:
 1199              		.align	2
 1200              	.L69:
 1201 0058 10000000 		.word	chtest+16
 1202 005c 00000000 		.word	chtest
 1203              		.cfi_endproc
 1204              	.LFE446:
 1205              		.size	__test_assert_sequence, .-__test_assert_sequence
 1206              		.section	.text.__test_assert_time_window,"ax",%progbits
 1207              		.align	1
 1208              		.global	__test_assert_time_window
 1209              		.syntax unified
 1210              		.thumb
 1211              		.thumb_func
 1212              		.type	__test_assert_time_window, %function
 1213              	__test_assert_time_window:
 1214              	.LFB447:
 1215              		.loc 5 249 49
 1216              		.cfi_startproc
 1217              		@ args = 0, pretend = 0, frame = 16
 1218              		@ frame_needed = 1, uses_anonymous_args = 0
 1219 0000 80B5     		push	{r7, lr}
 1220              		.cfi_def_cfa_offset 8
 1221              		.cfi_offset 7, -8
 1222              		.cfi_offset 14, -4
 1223 0002 84B0     		sub	sp, sp, #16
 1224              		.cfi_def_cfa_offset 24
 1225 0004 00AF     		add	r7, sp, #0
 1226              		.cfi_def_cfa_register 7
 1227 0006 F860     		str	r0, [r7, #12]
 1228 0008 B960     		str	r1, [r7, #8]
 1229 000a 7A60     		str	r2, [r7, #4]
 1230              		.loc 5 251 10
 1231 000c FFF7FEFF 		bl	osalOsGetSystemTimeX
 1232 0010 0346     		mov	r3, r0
 1233 0012 BA68     		ldr	r2, [r7, #8]
 1234 0014 F968     		ldr	r1, [r7, #12]
ARM GAS  C:\Users\DEVELO~1\AppData\Local\Temp\ccpgZ96I.s 			page 24


 1235 0016 1846     		mov	r0, r3
 1236 0018 FFF7FEFF 		bl	osalTimeIsInRangeX
 1237 001c 0346     		mov	r3, r0
 1238 001e 7968     		ldr	r1, [r7, #4]
 1239 0020 1846     		mov	r0, r3
 1240 0022 FFF7FEFF 		bl	__test_assert
 1241 0026 0346     		mov	r3, r0
 1242              		.loc 5 253 1
 1243 0028 1846     		mov	r0, r3
 1244 002a 1037     		adds	r7, r7, #16
 1245              		.cfi_def_cfa_offset 8
 1246 002c BD46     		mov	sp, r7
 1247              		.cfi_def_cfa_register 13
 1248              		@ sp needed
 1249 002e 80BD     		pop	{r7, pc}
 1250              		.cfi_endproc
 1251              	.LFE447:
 1252              		.size	__test_assert_time_window, .-__test_assert_time_window
 1253              		.section	.text.test_emit_token,"ax",%progbits
 1254              		.align	1
 1255              		.global	test_emit_token
 1256              		.syntax unified
 1257              		.thumb
 1258              		.thumb_func
 1259              		.type	test_emit_token, %function
 1260              	test_emit_token:
 1261              	.LFB448:
 1262              		.loc 5 263 34
 1263              		.cfi_startproc
 1264              		@ args = 0, pretend = 0, frame = 8
 1265              		@ frame_needed = 1, uses_anonymous_args = 0
 1266              		@ link register save eliminated.
 1267 0000 80B4     		push	{r7}
 1268              		.cfi_def_cfa_offset 4
 1269              		.cfi_offset 7, -4
 1270 0002 83B0     		sub	sp, sp, #12
 1271              		.cfi_def_cfa_offset 16
 1272 0004 00AF     		add	r7, sp, #0
 1273              		.cfi_def_cfa_register 7
 1274 0006 0346     		mov	r3, r0
 1275 0008 FB71     		strb	r3, [r7, #7]
 1276              		.loc 5 265 13
 1277 000a 084B     		ldr	r3, .L76
 1278 000c DB68     		ldr	r3, [r3, #12]
 1279              		.loc 5 265 6
 1280 000e 084A     		ldr	r2, .L76+4
 1281 0010 9342     		cmp	r3, r2
 1282 0012 06D2     		bcs	.L75
 1283              		.loc 5 266 12
 1284 0014 054B     		ldr	r3, .L76
 1285 0016 DB68     		ldr	r3, [r3, #12]
 1286              		.loc 5 266 17
 1287 0018 5A1C     		adds	r2, r3, #1
 1288 001a 0449     		ldr	r1, .L76
 1289 001c CA60     		str	r2, [r1, #12]
 1290              		.loc 5 266 20
 1291 001e FA79     		ldrb	r2, [r7, #7]
ARM GAS  C:\Users\DEVELO~1\AppData\Local\Temp\ccpgZ96I.s 			page 25


 1292 0020 1A70     		strb	r2, [r3]
 1293              	.L75:
 1294              		.loc 5 268 1
 1295 0022 00BF     		nop
 1296 0024 0C37     		adds	r7, r7, #12
 1297              		.cfi_def_cfa_offset 4
 1298 0026 BD46     		mov	sp, r7
 1299              		.cfi_def_cfa_register 13
 1300              		@ sp needed
 1301 0028 80BC     		pop	{r7}
 1302              		.cfi_restore 7
 1303              		.cfi_def_cfa_offset 0
 1304 002a 7047     		bx	lr
 1305              	.L77:
 1306              		.align	2
 1307              	.L76:
 1308 002c 00000000 		.word	chtest
 1309 0030 20000000 		.word	chtest+32
 1310              		.cfi_endproc
 1311              	.LFE448:
 1312              		.size	test_emit_token, .-test_emit_token
 1313              		.section	.text.test_execute_putchar,"ax",%progbits
 1314              		.align	1
 1315              		.global	test_execute_putchar
 1316              		.syntax unified
 1317              		.thumb
 1318              		.thumb_func
 1319              		.type	test_execute_putchar, %function
 1320              	test_execute_putchar:
 1321              	.LFB449:
 1322              		.loc 5 283 51
 1323              		.cfi_startproc
 1324              		@ args = 0, pretend = 0, frame = 8
 1325              		@ frame_needed = 1, uses_anonymous_args = 0
 1326 0000 80B5     		push	{r7, lr}
 1327              		.cfi_def_cfa_offset 8
 1328              		.cfi_offset 7, -8
 1329              		.cfi_offset 14, -4
 1330 0002 82B0     		sub	sp, sp, #8
 1331              		.cfi_def_cfa_offset 16
 1332 0004 00AF     		add	r7, sp, #0
 1333              		.cfi_def_cfa_register 7
 1334 0006 7860     		str	r0, [r7, #4]
 1335 0008 3960     		str	r1, [r7]
 1336              		.loc 5 286 18
 1337 000a 074B     		ldr	r3, .L80
 1338 000c 0022     		movs	r2, #0
 1339 000e 5A62     		str	r2, [r3, #36]
 1340              		.loc 5 287 18
 1341 0010 054A     		ldr	r2, .L80
 1342 0012 7B68     		ldr	r3, [r7, #4]
 1343 0014 1362     		str	r3, [r2, #32]
 1344              		.loc 5 290 10
 1345 0016 3868     		ldr	r0, [r7]
 1346 0018 FFF7FEFF 		bl	test_execute_inner
 1347 001c 0346     		mov	r3, r0
 1348              		.loc 5 291 1
ARM GAS  C:\Users\DEVELO~1\AppData\Local\Temp\ccpgZ96I.s 			page 26


 1349 001e 1846     		mov	r0, r3
 1350 0020 0837     		adds	r7, r7, #8
 1351              		.cfi_def_cfa_offset 8
 1352 0022 BD46     		mov	sp, r7
 1353              		.cfi_def_cfa_register 13
 1354              		@ sp needed
 1355 0024 80BD     		pop	{r7, pc}
 1356              	.L81:
 1357 0026 00BF     		.align	2
 1358              	.L80:
 1359 0028 00000000 		.word	chtest
 1360              		.cfi_endproc
 1361              	.LFE449:
 1362              		.size	test_execute_putchar, .-test_execute_putchar
 1363              		.section	.text.test_execute_stream,"ax",%progbits
 1364              		.align	1
 1365              		.global	test_execute_stream
 1366              		.syntax unified
 1367              		.thumb
 1368              		.thumb_func
 1369              		.type	test_execute_stream, %function
 1370              	test_execute_stream:
 1371              	.LFB450:
 1372              		.loc 5 307 50
 1373              		.cfi_startproc
 1374              		@ args = 0, pretend = 0, frame = 8
 1375              		@ frame_needed = 1, uses_anonymous_args = 0
 1376 0000 80B5     		push	{r7, lr}
 1377              		.cfi_def_cfa_offset 8
 1378              		.cfi_offset 7, -8
 1379              		.cfi_offset 14, -4
 1380 0002 82B0     		sub	sp, sp, #8
 1381              		.cfi_def_cfa_offset 16
 1382 0004 00AF     		add	r7, sp, #0
 1383              		.cfi_def_cfa_register 7
 1384 0006 7860     		str	r0, [r7, #4]
 1385 0008 3960     		str	r1, [r7]
 1386              		.loc 5 310 18
 1387 000a 074A     		ldr	r2, .L84
 1388 000c 7B68     		ldr	r3, [r7, #4]
 1389 000e 5362     		str	r3, [r2, #36]
 1390              		.loc 5 311 18
 1391 0010 054B     		ldr	r3, .L84
 1392 0012 064A     		ldr	r2, .L84+4
 1393 0014 1A62     		str	r2, [r3, #32]
 1394              		.loc 5 314 10
 1395 0016 3868     		ldr	r0, [r7]
 1396 0018 FFF7FEFF 		bl	test_execute_inner
 1397 001c 0346     		mov	r3, r0
 1398              		.loc 5 315 1
 1399 001e 1846     		mov	r0, r3
 1400 0020 0837     		adds	r7, r7, #8
 1401              		.cfi_def_cfa_offset 8
 1402 0022 BD46     		mov	sp, r7
 1403              		.cfi_def_cfa_register 13
 1404              		@ sp needed
 1405 0024 80BD     		pop	{r7, pc}
ARM GAS  C:\Users\DEVELO~1\AppData\Local\Temp\ccpgZ96I.s 			page 27


 1406              	.L85:
 1407 0026 00BF     		.align	2
 1408              	.L84:
 1409 0028 00000000 		.word	chtest
 1410 002c 00000000 		.word	test_stream_putchar
 1411              		.cfi_endproc
 1412              	.LFE450:
 1413              		.size	test_execute_stream, .-test_execute_stream
 1414              		.text
 1415              	.Letext0:
 1416              		.file 6 "c:\\chibistudio\\tools\\gnu tools arm embedded\\11.3 2022.08\\lib\\gcc\\arm-none-eabi\\11
 1417              		.file 7 "c:\\chibistudio\\tools\\gnu tools arm embedded\\11.3 2022.08\\arm-none-eabi\\include\\mac
 1418              		.file 8 "c:\\chibistudio\\tools\\gnu tools arm embedded\\11.3 2022.08\\arm-none-eabi\\include\\sys
 1419              		.file 9 "../../../os/rt/include/chearly.h"
 1420              		.file 10 "../../../os/hal/include/hal_streams.h"
 1421              		.file 11 "../../../os/test/include/ch_test.h"
 1422              		.file 12 "../../../os/rt/include/chthreads.h"
 1423              		.file 13 "../../../os/hal/include/hal_st.h"