ARM GAS  C:\Users\DEVELO~1\AppData\Local\Temp\ccpgZ96I.s 			page 1


   1              		.cpu cortex-m7
   2              		.arch armv7e-m
   3              		.fpu softvfp
   4              		.eabi_attribute 20, 1
   5              		.eabi_attribute 21, 1
   6              		.eabi_attribute 23, 3
   7              		.eabi_attribute 24, 1
   8              		.eabi_attribute 25, 1
   9              		.eabi_attribute 26, 1
  10              		.eabi_attribute 30, 6
  11              		.eabi_attribute 34, 1
  12              		.eabi_attribute 18, 4
  13              		.file	"ch_test.c"
  14              		.text
  15              	.Ltext0:
  16              		.cfi_sections	.debug_frame
  17              		.section	.text.chTimeIsInRangeX,"ax",%progbits
  18              		.align	1
  19              		.syntax unified
  20              		.thumb
  21              		.thumb_func
  22              		.type	chTimeIsInRangeX, %function
  23              	chTimeIsInRangeX:
  24              	.LFB10:
  25              		.file 1 "../../../os/rt/include/chtime.h"
  26              		.loc 1 486 52
  27              		.cfi_startproc
  28              		@ args = 0, pretend = 0, frame = 16
  29              		@ frame_needed = 1, uses_anonymous_args = 0
  30              		@ link register save eliminated.
  31 0000 80B4     		push	{r7}
  32              		.cfi_def_cfa_offset 4
  33              		.cfi_offset 7, -4
  34 0002 85B0     		sub	sp, sp, #20
  35              		.cfi_def_cfa_offset 24
  36 0004 00AF     		add	r7, sp, #0
  37              		.cfi_def_cfa_register 7
  38 0006 F860     		str	r0, [r7, #12]
  39 0008 B960     		str	r1, [r7, #8]
  40 000a 7A60     		str	r2, [r7, #4]
  41              		.loc 1 488 17
  42 000c FA68     		ldr	r2, [r7, #12]
  43 000e BB68     		ldr	r3, [r7, #8]
  44 0010 D21A     		subs	r2, r2, r3
  45              		.loc 1 489 17
  46 0012 7968     		ldr	r1, [r7, #4]
  47 0014 BB68     		ldr	r3, [r7, #8]
  48 0016 CB1A     		subs	r3, r1, r3
  49              		.loc 1 488 10
  50 0018 9A42     		cmp	r2, r3
  51 001a 34BF     		ite	cc
  52 001c 0123     		movcc	r3, #1
  53 001e 0023     		movcs	r3, #0
  54 0020 DBB2     		uxtb	r3, r3
  55              		.loc 1 490 1
  56 0022 1846     		mov	r0, r3
  57 0024 1437     		adds	r7, r7, #20
ARM GAS  C:\Users\DEVELO~1\AppData\Local\Temp\ccpgZ96I.s 			page 2


  58              		.cfi_def_cfa_offset 4
  59 0026 BD46     		mov	sp, r7
  60              		.cfi_def_cfa_register 13
  61              		@ sp needed
  62 0028 80BC     		pop	{r7}
  63              		.cfi_restore 7
  64              		.cfi_def_cfa_offset 0
  65 002a 7047     		bx	lr
  66              		.cfi_endproc
  67              	.LFE10:
  68              		.size	chTimeIsInRangeX, .-chTimeIsInRangeX
  69              		.section	.text.port_timer_get_time,"ax",%progbits
  70              		.align	1
  71              		.syntax unified
  72              		.thumb
  73              		.thumb_func
  74              		.type	port_timer_get_time, %function
  75              	port_timer_get_time:
  76              	.LFB196:
  77              		.file 2 "../../../os/hal/osal/rt-nil/chcore_timer.h"
  78              		.loc 2 111 51
  79              		.cfi_startproc
  80              		@ args = 0, pretend = 0, frame = 0
  81              		@ frame_needed = 1, uses_anonymous_args = 0
  82 0000 80B5     		push	{r7, lr}
  83              		.cfi_def_cfa_offset 8
  84              		.cfi_offset 7, -8
  85              		.cfi_offset 14, -4
  86 0002 00AF     		add	r7, sp, #0
  87              		.cfi_def_cfa_register 7
  88              		.loc 2 113 10
  89 0004 FFF7FEFF 		bl	stGetCounter
  90 0008 0346     		mov	r3, r0
  91              		.loc 2 114 1
  92 000a 1846     		mov	r0, r3
  93 000c 80BD     		pop	{r7, pc}
  94              		.cfi_endproc
  95              	.LFE196:
  96              		.size	port_timer_get_time, .-port_timer_get_time
  97              		.section	.text.chVTGetSystemTimeX,"ax",%progbits
  98              		.align	1
  99              		.syntax unified
 100              		.thumb
 101              		.thumb_func
 102              		.type	chVTGetSystemTimeX, %function
 103              	chVTGetSystemTimeX:
 104              	.LFB209:
 105              		.file 3 "../../../os/rt/include/chvt.h"
 106              		.loc 3 122 50
 107              		.cfi_startproc
 108              		@ args = 0, pretend = 0, frame = 0
 109              		@ frame_needed = 1, uses_anonymous_args = 0
 110 0000 80B5     		push	{r7, lr}
 111              		.cfi_def_cfa_offset 8
 112              		.cfi_offset 7, -8
 113              		.cfi_offset 14, -4
 114 0002 00AF     		add	r7, sp, #0
ARM GAS  C:\Users\DEVELO~1\AppData\Local\Temp\ccpgZ96I.s 			page 3


 115              		.cfi_def_cfa_register 7
 116              		.loc 3 127 10
 117 0004 FFF7FEFF 		bl	port_timer_get_time
 118 0008 0346     		mov	r3, r0
 119              		.loc 3 129 1
 120 000a 1846     		mov	r0, r3
 121 000c 80BD     		pop	{r7, pc}
 122              		.cfi_endproc
 123              	.LFE209:
 124              		.size	chVTGetSystemTimeX, .-chVTGetSystemTimeX
 125              		.section	.text.osalOsGetSystemTimeX,"ax",%progbits
 126              		.align	1
 127              		.syntax unified
 128              		.thumb
 129              		.thumb_func
 130              		.type	osalOsGetSystemTimeX, %function
 131              	osalOsGetSystemTimeX:
 132              	.LFB359:
 133              		.file 4 "../../../os/hal/osal/rt-nil/osal.h"
 134              		.loc 4 698 52
 135              		.cfi_startproc
 136              		@ args = 0, pretend = 0, frame = 0
 137              		@ frame_needed = 1, uses_anonymous_args = 0
 138 0000 80B5     		push	{r7, lr}
 139              		.cfi_def_cfa_offset 8
 140              		.cfi_offset 7, -8
 141              		.cfi_offset 14, -4
 142 0002 00AF     		add	r7, sp, #0
 143              		.cfi_def_cfa_register 7
 144              		.loc 4 700 10
 145 0004 FFF7FEFF 		bl	chVTGetSystemTimeX
 146 0008 0346     		mov	r3, r0
 147              		.loc 4 701 1
 148 000a 1846     		mov	r0, r3
 149 000c 80BD     		pop	{r7, pc}
 150              		.cfi_endproc
 151              	.LFE359:
 152              		.size	osalOsGetSystemTimeX, .-osalOsGetSystemTimeX
 153              		.section	.text.osalTimeIsInRangeX,"ax",%progbits
 154              		.align	1
 155              		.syntax unified
 156              		.thumb
 157              		.thumb_func
 158              		.type	osalTimeIsInRangeX, %function
 159              	osalTimeIsInRangeX:
 160              	.LFB362:
 161              		.loc 4 748 54
 162              		.cfi_startproc
 163              		@ args = 0, pretend = 0, frame = 16
 164              		@ frame_needed = 1, uses_anonymous_args = 0
 165 0000 80B5     		push	{r7, lr}
 166              		.cfi_def_cfa_offset 8
 167              		.cfi_offset 7, -8
 168              		.cfi_offset 14, -4
 169 0002 84B0     		sub	sp, sp, #16
 170              		.cfi_def_cfa_offset 24
 171 0004 00AF     		add	r7, sp, #0
ARM GAS  C:\Users\DEVELO~1\AppData\Local\Temp\ccpgZ96I.s 			page 4


 172              		.cfi_def_cfa_register 7
 173 0006 F860     		str	r0, [r7, #12]
 174 0008 B960     		str	r1, [r7, #8]
 175 000a 7A60     		str	r2, [r7, #4]
 176              		.loc 4 750 10
 177 000c 7A68     		ldr	r2, [r7, #4]
 178 000e B968     		ldr	r1, [r7, #8]
 179 0010 F868     		ldr	r0, [r7, #12]
 180 0012 FFF7FEFF 		bl	chTimeIsInRangeX
 181 0016 0346     		mov	r3, r0
 182              		.loc 4 751 1
 183 0018 1846     		mov	r0, r3
 184 001a 1037     		adds	r7, r7, #16
 185              		.cfi_def_cfa_offset 8
 186 001c BD46     		mov	sp, r7
 187              		.cfi_def_cfa_register 13
 188              		@ sp needed
 189 001e 80BD     		pop	{r7, pc}
 190              		.cfi_endproc
 191              	.LFE362:
 192              		.size	osalTimeIsInRangeX, .-osalTimeIsInRangeX
 193              		.section	.text.osalThreadSleep,"ax",%progbits
 194              		.align	1
 195              		.syntax unified
 196              		.thumb
 197              		.thumb_func
 198              		.type	osalThreadSleep, %function
 199              	osalThreadSleep:
 200              	.LFB364:
 201              		.loc 4 782 57
 202              		.cfi_startproc
 203              		@ args = 0, pretend = 0, frame = 8
 204              		@ frame_needed = 1, uses_anonymous_args = 0
 205 0000 80B5     		push	{r7, lr}
 206              		.cfi_def_cfa_offset 8
 207              		.cfi_offset 7, -8
 208              		.cfi_offset 14, -4
 209 0002 82B0     		sub	sp, sp, #8
 210              		.cfi_def_cfa_offset 16
 211 0004 00AF     		add	r7, sp, #0
 212              		.cfi_def_cfa_register 7
 213 0006 7860     		str	r0, [r7, #4]
 214              		.loc 4 784 3
 215 0008 7868     		ldr	r0, [r7, #4]
 216 000a FFF7FEFF 		bl	chThdSleep
 217              		.loc 4 785 1
 218 000e 00BF     		nop
 219 0010 0837     		adds	r7, r7, #8
 220              		.cfi_def_cfa_offset 8
 221 0012 BD46     		mov	sp, r7
 222              		.cfi_def_cfa_register 13
 223              		@ sp needed
 224 0014 80BD     		pop	{r7, pc}
 225              		.cfi_endproc
 226              	.LFE364:
 227              		.size	osalThreadSleep, .-osalThreadSleep
 228              		.global	chtest
ARM GAS  C:\Users\DEVELO~1\AppData\Local\Temp\ccpgZ96I.s 			page 5


 229              		.section	.bss.chtest,"aw",%nobits
 230              		.align	2
 231              		.type	chtest, %object
 232              		.size	chtest, 40
 233              	chtest:
 234 0000 00000000 		.space	40
 234      00000000 
 234      00000000 
 234      00000000 
 234      00000000 
 235              		.section	.text.test_stream_putchar,"ax",%progbits
 236              		.align	1
 237              		.syntax unified
 238              		.thumb
 239              		.thumb_func
 240              		.type	test_stream_putchar, %function
 241              	test_stream_putchar:
 242              	.LFB436:
 243              		.file 5 "../../../os/test/src/ch_test.c"
 244              		.loc 5 56 39
 245              		.cfi_startproc
 246              		@ args = 0, pretend = 0, frame = 8
 247              		@ frame_needed = 1, uses_anonymous_args = 0
 248 0000 80B5     		push	{r7, lr}
 249              		.cfi_def_cfa_offset 8
 250              		.cfi_offset 7, -8
 251              		.cfi_offset 14, -4
 252 0002 82B0     		sub	sp, sp, #8
 253              		.cfi_def_cfa_offset 16
 254 0004 00AF     		add	r7, sp, #0
 255              		.cfi_def_cfa_register 7
 256 0006 7860     		str	r0, [r7, #4]
 257              		.loc 5 58 3
 258 0008 074B     		ldr	r3, .L14
 259 000a 5B6A     		ldr	r3, [r3, #36]
 260 000c 1B68     		ldr	r3, [r3]
 261 000e DB68     		ldr	r3, [r3, #12]
 262 0010 054A     		ldr	r2, .L14
 263 0012 526A     		ldr	r2, [r2, #36]
 264 0014 7968     		ldr	r1, [r7, #4]
 265 0016 C9B2     		uxtb	r1, r1
 266 0018 1046     		mov	r0, r2
 267 001a 9847     		blx	r3
 268              	.LVL0:
 269              		.loc 5 60 10
 270 001c 7B68     		ldr	r3, [r7, #4]
 271              		.loc 5 61 1
 272 001e 1846     		mov	r0, r3
 273 0020 0837     		adds	r7, r7, #8
 274              		.cfi_def_cfa_offset 8
 275 0022 BD46     		mov	sp, r7
 276              		.cfi_def_cfa_register 13
 277              		@ sp needed
 278 0024 80BD     		pop	{r7, pc}
 279              	.L15:
 280 0026 00BF     		.align	2
 281              	.L14:
ARM GAS  C:\Users\DEVELO~1\AppData\Local\Temp\ccpgZ96I.s 			page 6


 282 0028 00000000 		.word	chtest
 283              		.cfi_endproc
 284              	.LFE436:
 285              		.size	test_stream_putchar, .-test_stream_putchar
 286              		.section	.text.test_clear_tokens,"ax",%progbits
 287              		.align	1
 288              		.syntax unified
 289              		.thumb
 290              		.thumb_func
 291              		.type	test_clear_tokens, %function
 292              	test_clear_tokens:
 293              	.LFB437:
 294              		.loc 5 64 37
 295              		.cfi_startproc
 296              		@ args = 0, pretend = 0, frame = 0
 297              		@ frame_needed = 1, uses_anonymous_args = 0
 298              		@ link register save eliminated.
 299 0000 80B4     		push	{r7}
 300              		.cfi_def_cfa_offset 4
 301              		.cfi_offset 7, -4
 302 0002 00AF     		add	r7, sp, #0
 303              		.cfi_def_cfa_register 7
 304              		.loc 5 66 15
 305 0004 034B     		ldr	r3, .L17
 306 0006 044A     		ldr	r2, .L17+4
 307 0008 DA60     		str	r2, [r3, #12]
 308              		.loc 5 67 1
 309 000a 00BF     		nop
 310 000c BD46     		mov	sp, r7
 311              		.cfi_def_cfa_register 13
 312              		@ sp needed
 313 000e 80BC     		pop	{r7}
 314              		.cfi_restore 7
 315              		.cfi_def_cfa_offset 0
 316 0010 7047     		bx	lr
 317              	.L18:
 318 0012 00BF     		.align	2
 319              	.L17:
 320 0014 00000000 		.word	chtest
 321 0018 10000000 		.word	chtest+16
 322              		.cfi_endproc
 323              	.LFE437:
 324              		.size	test_clear_tokens, .-test_clear_tokens
 325              		.section	.text.test_print_tokens,"ax",%progbits
 326              		.align	1
 327              		.syntax unified
 328              		.thumb
 329              		.thumb_func
 330              		.type	test_print_tokens, %function
 331              	test_print_tokens:
 332              	.LFB438:
 333              		.loc 5 69 37
 334              		.cfi_startproc
 335              		@ args = 0, pretend = 0, frame = 8
 336              		@ frame_needed = 1, uses_anonymous_args = 0
 337 0000 80B5     		push	{r7, lr}
 338              		.cfi_def_cfa_offset 8
ARM GAS  C:\Users\DEVELO~1\AppData\Local\Temp\ccpgZ96I.s 			page 7


 339              		.cfi_offset 7, -8
 340              		.cfi_offset 14, -4
 341 0002 82B0     		sub	sp, sp, #8
 342              		.cfi_def_cfa_offset 16
 343 0004 00AF     		add	r7, sp, #0
 344              		.cfi_def_cfa_register 7
 345              		.loc 5 70 9
 346 0006 0A4B     		ldr	r3, .L22
 347 0008 7B60     		str	r3, [r7, #4]
 348              		.loc 5 72 9
 349 000a 06E0     		b	.L20
 350              	.L21:
 351              		.loc 5 73 21
 352 000c 7B68     		ldr	r3, [r7, #4]
 353 000e 5A1C     		adds	r2, r3, #1
 354 0010 7A60     		str	r2, [r7, #4]
 355              		.loc 5 73 5
 356 0012 1B78     		ldrb	r3, [r3]	@ zero_extendqisi2
 357 0014 1846     		mov	r0, r3
 358 0016 FFF7FEFF 		bl	test_putchar
 359              	.L20:
 360              		.loc 5 72 21
 361 001a 064B     		ldr	r3, .L22+4
 362 001c DB68     		ldr	r3, [r3, #12]
 363              		.loc 5 72 13
 364 001e 7A68     		ldr	r2, [r7, #4]
 365 0020 9A42     		cmp	r2, r3
 366 0022 F3D3     		bcc	.L21
 367              		.loc 5 75 1
 368 0024 00BF     		nop
 369 0026 00BF     		nop
 370 0028 0837     		adds	r7, r7, #8
 371              		.cfi_def_cfa_offset 8
 372 002a BD46     		mov	sp, r7
 373              		.cfi_def_cfa_register 13
 374              		@ sp needed
 375 002c 80BD     		pop	{r7, pc}
 376              	.L23:
 377 002e 00BF     		.align	2
 378              	.L22:
 379 0030 10000000 		.word	chtest+16
 380 0034 00000000 		.word	chtest
 381              		.cfi_endproc
 382              	.LFE438:
 383              		.size	test_print_tokens, .-test_print_tokens
 384              		.section	.text.test_execute_case,"ax",%progbits
 385              		.align	1
 386              		.syntax unified
 387              		.thumb
 388              		.thumb_func
 389              		.type	test_execute_case, %function
 390              	test_execute_case:
 391              	.LFB439:
 392              		.loc 5 77 54
 393              		.cfi_startproc
 394              		@ args = 0, pretend = 0, frame = 8
 395              		@ frame_needed = 1, uses_anonymous_args = 0
ARM GAS  C:\Users\DEVELO~1\AppData\Local\Temp\ccpgZ96I.s 			page 8


 396 0000 80B5     		push	{r7, lr}
 397              		.cfi_def_cfa_offset 8
 398              		.cfi_offset 7, -8
 399              		.cfi_offset 14, -4
 400 0002 82B0     		sub	sp, sp, #8
 401              		.cfi_def_cfa_offset 16
 402 0004 00AF     		add	r7, sp, #0
 403              		.cfi_def_cfa_register 7
 404 0006 7860     		str	r0, [r7, #4]
 405              		.loc 5 80 3
 406 0008 FFF7FEFF 		bl	test_clear_tokens
 407              		.loc 5 81 21
 408 000c 0B4B     		ldr	r3, .L28
 409 000e 0022     		movs	r2, #0
 410 0010 5A71     		strb	r2, [r3, #5]
 411              		.loc 5 83 10
 412 0012 7B68     		ldr	r3, [r7, #4]
 413 0014 5B68     		ldr	r3, [r3, #4]
 414              		.loc 5 83 6
 415 0016 002B     		cmp	r3, #0
 416 0018 02D0     		beq	.L25
 417              		.loc 5 84 8
 418 001a 7B68     		ldr	r3, [r7, #4]
 419 001c 5B68     		ldr	r3, [r3, #4]
 420              		.loc 5 84 5
 421 001e 9847     		blx	r3
 422              	.LVL1:
 423              	.L25:
 424              		.loc 5 86 6
 425 0020 7B68     		ldr	r3, [r7, #4]
 426 0022 DB68     		ldr	r3, [r3, #12]
 427              		.loc 5 86 3
 428 0024 9847     		blx	r3
 429              	.LVL2:
 430              		.loc 5 87 10
 431 0026 7B68     		ldr	r3, [r7, #4]
 432 0028 9B68     		ldr	r3, [r3, #8]
 433              		.loc 5 87 6
 434 002a 002B     		cmp	r3, #0
 435 002c 02D0     		beq	.L27
 436              		.loc 5 88 8
 437 002e 7B68     		ldr	r3, [r7, #4]
 438 0030 9B68     		ldr	r3, [r3, #8]
 439              		.loc 5 88 5
 440 0032 9847     		blx	r3
 441              	.LVL3:
 442              	.L27:
 443              		.loc 5 90 1
 444 0034 00BF     		nop
 445 0036 0837     		adds	r7, r7, #8
 446              		.cfi_def_cfa_offset 8
 447 0038 BD46     		mov	sp, r7
 448              		.cfi_def_cfa_register 13
 449              		@ sp needed
 450 003a 80BD     		pop	{r7, pc}
 451              	.L29:
 452              		.align	2
ARM GAS  C:\Users\DEVELO~1\AppData\Local\Temp\ccpgZ96I.s 			page 9


 453              	.L28:
 454 003c 00000000 		.word	chtest
 455              		.cfi_endproc
 456              	.LFE439:
 457              		.size	test_execute_case, .-test_execute_case
 458              		.section	.text.test_print_string,"ax",%progbits
 459              		.align	1
 460              		.syntax unified
 461              		.thumb
 462              		.thumb_func
 463              		.type	test_print_string, %function
 464              	test_print_string:
 465              	.LFB440:
 466              		.loc 5 92 46
 467              		.cfi_startproc
 468              		@ args = 0, pretend = 0, frame = 16
 469              		@ frame_needed = 1, uses_anonymous_args = 0
 470 0000 80B5     		push	{r7, lr}
 471              		.cfi_def_cfa_offset 8
 472              		.cfi_offset 7, -8
 473              		.cfi_offset 14, -4
 474 0002 84B0     		sub	sp, sp, #16
 475              		.cfi_def_cfa_offset 24
 476 0004 00AF     		add	r7, sp, #0
 477              		.cfi_def_cfa_register 7
 478 0006 7860     		str	r0, [r7, #4]
 479              		.loc 5 95 9
 480 0008 06E0     		b	.L31
 481              	.L32:
 482              		.loc 5 96 5
 483 000a FB7B     		ldrb	r3, [r7, #15]	@ zero_extendqisi2
 484 000c 1846     		mov	r0, r3
 485 000e FFF7FEFF 		bl	test_putchar
 486              		.loc 5 97 6
 487 0012 7B68     		ldr	r3, [r7, #4]
 488 0014 0133     		adds	r3, r3, #1
 489 0016 7B60     		str	r3, [r7, #4]
 490              	.L31:
 491              		.loc 5 95 13
 492 0018 7B68     		ldr	r3, [r7, #4]
 493 001a 1B78     		ldrb	r3, [r3]
 494 001c FB73     		strb	r3, [r7, #15]
 495              		.loc 5 95 19
 496 001e FB7B     		ldrb	r3, [r7, #15]	@ zero_extendqisi2
 497 0020 002B     		cmp	r3, #0
 498 0022 F2D1     		bne	.L32
 499              		.loc 5 99 1
 500 0024 00BF     		nop
 501 0026 00BF     		nop
 502 0028 1037     		adds	r7, r7, #16
 503              		.cfi_def_cfa_offset 8
 504 002a BD46     		mov	sp, r7
 505              		.cfi_def_cfa_register 13
 506              		@ sp needed
 507 002c 80BD     		pop	{r7, pc}
 508              		.cfi_endproc
 509              	.LFE440:
ARM GAS  C:\Users\DEVELO~1\AppData\Local\Temp\ccpgZ96I.s 			page 10


 510              		.size	test_print_string, .-test_print_string
 511              		.section	.rodata
 512              		.align	2
 513              	.LC0:
 514 0000 0D0A00   		.ascii	"\015\012\000"
 515              		.section	.text.test_print_line,"ax",%progbits
 516              		.align	1
 517              		.syntax unified
 518              		.thumb
 519              		.thumb_func
 520              		.type	test_print_line, %function
 521              	test_print_line:
 522              	.LFB441:
 523              		.loc 5 101 35
 524              		.cfi_startproc
 525              		@ args = 0, pretend = 0, frame = 8
 526              		@ frame_needed = 1, uses_anonymous_args = 0
 527 0000 80B5     		push	{r7, lr}
 528              		.cfi_def_cfa_offset 8
 529              		.cfi_offset 7, -8
 530              		.cfi_offset 14, -4
 531 0002 82B0     		sub	sp, sp, #8
 532              		.cfi_def_cfa_offset 16
 533 0004 00AF     		add	r7, sp, #0
 534              		.cfi_def_cfa_register 7
 535              		.loc 5 104 10
 536 0006 0023     		movs	r3, #0
 537 0008 7B60     		str	r3, [r7, #4]
 538              		.loc 5 104 3
 539 000a 05E0     		b	.L34
 540              	.L35:
 541              		.loc 5 105 5 discriminator 3
 542 000c 2D20     		movs	r0, #45
 543 000e FFF7FEFF 		bl	test_putchar
 544              		.loc 5 104 24 discriminator 3
 545 0012 7B68     		ldr	r3, [r7, #4]
 546 0014 0133     		adds	r3, r3, #1
 547 0016 7B60     		str	r3, [r7, #4]
 548              	.L34:
 549              		.loc 5 104 17 discriminator 1
 550 0018 7B68     		ldr	r3, [r7, #4]
 551 001a 4B2B     		cmp	r3, #75
 552 001c F6D9     		bls	.L35
 553              		.loc 5 107 3
 554 001e 0348     		ldr	r0, .L36
 555 0020 FFF7FEFF 		bl	test_print_string
 556              		.loc 5 108 1
 557 0024 00BF     		nop
 558 0026 0837     		adds	r7, r7, #8
 559              		.cfi_def_cfa_offset 8
 560 0028 BD46     		mov	sp, r7
 561              		.cfi_def_cfa_register 13
 562              		@ sp needed
 563 002a 80BD     		pop	{r7, pc}
 564              	.L37:
 565              		.align	2
 566              	.L36:
ARM GAS  C:\Users\DEVELO~1\AppData\Local\Temp\ccpgZ96I.s 			page 11


 567 002c 00000000 		.word	.LC0
 568              		.cfi_endproc
 569              	.LFE441:
 570              		.size	test_print_line, .-test_print_line
 571              		.section	.text.test_print_fat_line,"ax",%progbits
 572              		.align	1
 573              		.syntax unified
 574              		.thumb
 575              		.thumb_func
 576              		.type	test_print_fat_line, %function
 577              	test_print_fat_line:
 578              	.LFB442:
 579              		.loc 5 110 39
 580              		.cfi_startproc
 581              		@ args = 0, pretend = 0, frame = 8
 582              		@ frame_needed = 1, uses_anonymous_args = 0
 583 0000 80B5     		push	{r7, lr}
 584              		.cfi_def_cfa_offset 8
 585              		.cfi_offset 7, -8
 586              		.cfi_offset 14, -4
 587 0002 82B0     		sub	sp, sp, #8
 588              		.cfi_def_cfa_offset 16
 589 0004 00AF     		add	r7, sp, #0
 590              		.cfi_def_cfa_register 7
 591              		.loc 5 113 10
 592 0006 0023     		movs	r3, #0
 593 0008 7B60     		str	r3, [r7, #4]
 594              		.loc 5 113 3
 595 000a 05E0     		b	.L39
 596              	.L40:
 597              		.loc 5 114 5 discriminator 3
 598 000c 3D20     		movs	r0, #61
 599 000e FFF7FEFF 		bl	test_putchar
 600              		.loc 5 113 24 discriminator 3
 601 0012 7B68     		ldr	r3, [r7, #4]
 602 0014 0133     		adds	r3, r3, #1
 603 0016 7B60     		str	r3, [r7, #4]
 604              	.L39:
 605              		.loc 5 113 17 discriminator 1
 606 0018 7B68     		ldr	r3, [r7, #4]
 607 001a 4B2B     		cmp	r3, #75
 608 001c F6D9     		bls	.L40
 609              		.loc 5 116 3
 610 001e 0348     		ldr	r0, .L41
 611 0020 FFF7FEFF 		bl	test_print_string
 612              		.loc 5 117 1
 613 0024 00BF     		nop
 614 0026 0837     		adds	r7, r7, #8
 615              		.cfi_def_cfa_offset 8
 616 0028 BD46     		mov	sp, r7
 617              		.cfi_def_cfa_register 13
 618              		@ sp needed
 619 002a 80BD     		pop	{r7, pc}
 620              	.L42:
 621              		.align	2
 622              	.L41:
 623 002c 00000000 		.word	.LC0
ARM GAS  C:\Users\DEVELO~1\AppData\Local\Temp\ccpgZ96I.s 			page 12


 624              		.cfi_endproc
 625              	.LFE442:
 626              		.size	test_print_fat_line, .-test_print_fat_line
 627              		.section	.rodata
 628 0003 00       		.align	2
 629              	.LC1:
 630 0004 2A2A2A20 		.ascii	"*** %s\015\012\000"
 630      25730D0A 
 630      00
 631 000d 000000   		.align	2
 632              	.LC2:
 633 0010 2A2A2A20 		.ascii	"*** Test Suite\015\012\000"
 633      54657374 
 633      20537569 
 633      74650D0A 
 633      00
 634 0021 000000   		.align	2
 635              	.LC3:
 636 0024 2A2A2A0D 		.ascii	"***\015\012\000"
 636      0A00
 637 002a 0000     		.align	2
 638              	.LC4:
 639 002c 4A616E20 		.ascii	"Jan  8 2026 - 17:51:27\000"
 639      20382032 
 639      30323620 
 639      2D203137 
 639      3A35313A 
 640 0043 00       		.align	2
 641              	.LC5:
 642 0044 2A2A2A20 		.ascii	"*** Compiled:     %s\015\012\000"
 642      436F6D70 
 642      696C6564 
 642      3A202020 
 642      20202573 
 643 005b 00       		.align	2
 644              	.LC6:
 645 005c 53544D33 		.ascii	"STM32H743 Single Core Very High Performance with DS"
 645      32483734 
 645      33205369 
 645      6E676C65 
 645      20436F72 
 646 008f 5020616E 		.ascii	"P and FPU\000"
 646      64204650 
 646      5500
 647 0099 000000   		.align	2
 648              	.LC7:
 649 009c 2A2A2A20 		.ascii	"*** Platform:     %s\015\012\000"
 649      506C6174 
 649      666F726D 
 649      3A202020 
 649      20202573 
 650 00b3 00       		.align	2
 651              	.LC8:
 652 00b4 53544D33 		.ascii	"STM32H743 LQFP176 Custom Q 8M\000"
 652      32483734 
 652      33204C51 
 652      46503137 
ARM GAS  C:\Users\DEVELO~1\AppData\Local\Temp\ccpgZ96I.s 			page 13


 652      36204375 
 653 00d2 0000     		.align	2
 654              	.LC9:
 655 00d4 2A2A2A20 		.ascii	"*** Test Board:   %s\015\012\000"
 655      54657374 
 655      20426F61 
 655      72643A20 
 655      20202573 
 656 00eb 00       		.align	2
 657              	.LC10:
 658 00ec 2A2A2A20 		.ascii	"*** Text size:    %u bytes\015\012\000"
 658      54657874 
 658      2073697A 
 658      653A2020 
 658      20202575 
 659 0109 000000   		.align	2
 660              	.LC11:
 661 010c 2A2A2A20 		.ascii	"*** RO data size: %u bytes\015\012\000"
 661      524F2064 
 661      61746120 
 661      73697A65 
 661      3A202575 
 662 0129 000000   		.align	2
 663              	.LC12:
 664 012c 2A2A2A20 		.ascii	"*** Data size:    %u bytes\015\012\000"
 664      44617461 
 664      2073697A 
 664      653A2020 
 664      20202575 
 665 0149 000000   		.align	2
 666              	.LC13:
 667 014c 2A2A2A20 		.ascii	"*** BSS size:     %u bytes\015\012\000"
 667      42535320 
 667      73697A65 
 667      3A202020 
 667      20202575 
 668 0169 000000   		.align	2
 669              	.LC14:
 670 016c 3D3D3D20 		.ascii	"=== Test Sequence %u (%s)\015\012\000"
 670      54657374 
 670      20536571 
 670      75656E63 
 670      65202575 
 671              		.align	2
 672              	.LC15:
 673 0188 2D2D2D20 		.ascii	"--- Test Case %u.%u (%s)\015\012\000"
 673      54657374 
 673      20436173 
 673      65202575 
 673      2E257520 
 674 01a3 00       		.align	2
 675              	.LC16:
 676 01a4 00       		.ascii	"\000"
 677 01a5 000000   		.align	2
 678              	.LC17:
 679 01a8 2D2D2D20 		.ascii	"--- Result: FAILURE (#%u [\000"
 679      52657375 
ARM GAS  C:\Users\DEVELO~1\AppData\Local\Temp\ccpgZ96I.s 			page 14


 679      6C743A20 
 679      4641494C 
 679      55524520 
 680 01c3 00       		.align	2
 681              	.LC18:
 682 01c4 5D202225 		.ascii	"] \"%s\")\015\012\000"
 682      7322290D 
 682      0A00
 683 01ce 0000     		.align	2
 684              	.LC19:
 685 01d0 2D2D2D20 		.ascii	"--- Result: SUCCESS\015\012\000"
 685      52657375 
 685      6C743A20 
 685      53554343 
 685      4553530D 
 686 01e6 0000     		.align	2
 687              	.LC20:
 688 01e8 4641494C 		.ascii	"FAILURE\000"
 688      55524500 
 689              		.align	2
 690              	.LC21:
 691 01f0 53554343 		.ascii	"SUCCESS\000"
 691      45535300 
 692              		.align	2
 693              	.LC22:
 694 01f8 46696E61 		.ascii	"Final result: %s\015\012\000"
 694      6C207265 
 694      73756C74 
 694      3A202573 
 694      0D0A00
 695              		.section	.text.test_execute_inner,"ax",%progbits
 696              		.align	1
 697              		.syntax unified
 698              		.thumb
 699              		.thumb_func
 700              		.type	test_execute_inner, %function
 701              	test_execute_inner:
 702              	.LFB443:
 703              		.loc 5 127 56
 704              		.cfi_startproc
 705              		@ args = 0, pretend = 0, frame = 16
 706              		@ frame_needed = 1, uses_anonymous_args = 0
 707 0000 80B5     		push	{r7, lr}
 708              		.cfi_def_cfa_offset 8
 709              		.cfi_offset 7, -8
 710              		.cfi_offset 14, -4
 711 0002 84B0     		sub	sp, sp, #16
 712              		.cfi_def_cfa_offset 24
 713 0004 00AF     		add	r7, sp, #0
 714              		.cfi_def_cfa_register 7
 715 0006 7860     		str	r0, [r7, #4]
 716              		.loc 5 131 3
 717 0008 6548     		ldr	r0, .L55
 718 000a FFF7FEFF 		bl	test_printf
 719              		.loc 5 132 10
 720 000e 7B68     		ldr	r3, [r7, #4]
 721 0010 1B68     		ldr	r3, [r3]
ARM GAS  C:\Users\DEVELO~1\AppData\Local\Temp\ccpgZ96I.s 			page 15


 722              		.loc 5 132 6
 723 0012 002B     		cmp	r3, #0
 724 0014 06D0     		beq	.L44
 725              		.loc 5 133 49
 726 0016 7B68     		ldr	r3, [r7, #4]
 727 0018 1B68     		ldr	r3, [r3]
 728              		.loc 5 133 5
 729 001a 1946     		mov	r1, r3
 730 001c 6148     		ldr	r0, .L55+4
 731 001e FFF7FEFF 		bl	test_printf
 732 0022 02E0     		b	.L45
 733              	.L44:
 734              		.loc 5 136 5
 735 0024 6048     		ldr	r0, .L55+8
 736 0026 FFF7FEFF 		bl	test_printf
 737              	.L45:
 738              		.loc 5 138 3
 739 002a 6048     		ldr	r0, .L55+12
 740 002c FFF7FEFF 		bl	test_printf
 741              		.loc 5 139 3
 742 0030 5F49     		ldr	r1, .L55+16
 743 0032 6048     		ldr	r0, .L55+20
 744 0034 FFF7FEFF 		bl	test_printf
 745              		.loc 5 141 3
 746 0038 5F49     		ldr	r1, .L55+24
 747 003a 6048     		ldr	r0, .L55+28
 748 003c FFF7FEFF 		bl	test_printf
 749              		.loc 5 144 3
 750 0040 5F49     		ldr	r1, .L55+32
 751 0042 6048     		ldr	r0, .L55+36
 752 0044 FFF7FEFF 		bl	test_printf
 753              	.LBB2:
 754              		.loc 5 152 5
 755 0048 5848     		ldr	r0, .L55+12
 756 004a FFF7FEFF 		bl	test_printf
 757              		.loc 5 153 5
 758 004e 5E4A     		ldr	r2, .L55+40
 759 0050 5E4B     		ldr	r3, .L55+44
 760 0052 D31A     		subs	r3, r2, r3
 761 0054 1946     		mov	r1, r3
 762 0056 5E48     		ldr	r0, .L55+48
 763 0058 FFF7FEFF 		bl	test_printf
 764              		.loc 5 154 5
 765 005c 5D4A     		ldr	r2, .L55+52
 766 005e 5E4B     		ldr	r3, .L55+56
 767 0060 D31A     		subs	r3, r2, r3
 768 0062 1946     		mov	r1, r3
 769 0064 5D48     		ldr	r0, .L55+60
 770 0066 FFF7FEFF 		bl	test_printf
 771              		.loc 5 155 5
 772 006a 5D4A     		ldr	r2, .L55+64
 773 006c 5D4B     		ldr	r3, .L55+68
 774 006e D31A     		subs	r3, r2, r3
 775 0070 1946     		mov	r1, r3
 776 0072 5D48     		ldr	r0, .L55+72
 777 0074 FFF7FEFF 		bl	test_printf
 778              		.loc 5 156 5
ARM GAS  C:\Users\DEVELO~1\AppData\Local\Temp\ccpgZ96I.s 			page 16


 779 0078 5C4A     		ldr	r2, .L55+76
 780 007a 5D4B     		ldr	r3, .L55+80
 781 007c D31A     		subs	r3, r2, r3
 782 007e 1946     		mov	r1, r3
 783 0080 5C48     		ldr	r0, .L55+84
 784 0082 FFF7FEFF 		bl	test_printf
 785              	.LBE2:
 786              		.loc 5 162 3
 787 0086 4648     		ldr	r0, .L55
 788 0088 FFF7FEFF 		bl	test_printf
 789              		.loc 5 164 22
 790 008c 5A4B     		ldr	r3, .L55+88
 791 008e 0022     		movs	r2, #0
 792 0090 1A71     		strb	r2, [r3, #4]
 793              		.loc 5 165 8
 794 0092 0023     		movs	r3, #0
 795 0094 FB60     		str	r3, [r7, #12]
 796              		.loc 5 166 9
 797 0096 64E0     		b	.L46
 798              	.L51:
 799              		.loc 5 171 5
 800 0098 FFF7FEFF 		bl	test_print_fat_line
 801              		.loc 5 172 5
 802 009c FB68     		ldr	r3, [r7, #12]
 803 009e 591C     		adds	r1, r3, #1
 804              		.loc 5 172 79
 805 00a0 7B68     		ldr	r3, [r7, #4]
 806 00a2 5A68     		ldr	r2, [r3, #4]
 807              		.loc 5 172 90
 808 00a4 FB68     		ldr	r3, [r7, #12]
 809 00a6 9B00     		lsls	r3, r3, #2
 810 00a8 1344     		add	r3, r3, r2
 811 00aa 1B68     		ldr	r3, [r3]
 812              		.loc 5 172 96
 813 00ac 1B68     		ldr	r3, [r3]
 814              		.loc 5 172 5
 815 00ae 1A46     		mov	r2, r3
 816 00b0 5248     		ldr	r0, .L55+92
 817 00b2 FFF7FEFF 		bl	test_printf
 818              		.loc 5 174 11
 819 00b6 0023     		movs	r3, #0
 820 00b8 BB60     		str	r3, [r7, #8]
 821              		.loc 5 175 11
 822 00ba 42E0     		b	.L47
 823              	.L50:
 824              		.loc 5 176 7
 825 00bc FFF7FEFF 		bl	test_print_line
 826              		.loc 5 177 7
 827 00c0 FB68     		ldr	r3, [r7, #12]
 828 00c2 591C     		adds	r1, r3, #1
 829 00c4 BB68     		ldr	r3, [r7, #8]
 830 00c6 581C     		adds	r0, r3, #1
 831              		.loc 5 177 92
 832 00c8 7B68     		ldr	r3, [r7, #4]
 833 00ca 5A68     		ldr	r2, [r3, #4]
 834              		.loc 5 177 103
 835 00cc FB68     		ldr	r3, [r7, #12]
ARM GAS  C:\Users\DEVELO~1\AppData\Local\Temp\ccpgZ96I.s 			page 17


 836 00ce 9B00     		lsls	r3, r3, #2
 837 00d0 1344     		add	r3, r3, r2
 838 00d2 1B68     		ldr	r3, [r3]
 839              		.loc 5 177 109
 840 00d4 5A68     		ldr	r2, [r3, #4]
 841              		.loc 5 177 116
 842 00d6 BB68     		ldr	r3, [r7, #8]
 843 00d8 9B00     		lsls	r3, r3, #2
 844 00da 1344     		add	r3, r3, r2
 845 00dc 1B68     		ldr	r3, [r3]
 846              		.loc 5 177 123
 847 00de 1B68     		ldr	r3, [r3]
 848              		.loc 5 177 7
 849 00e0 0246     		mov	r2, r0
 850 00e2 4748     		ldr	r0, .L55+96
 851 00e4 FFF7FEFF 		bl	test_printf
 852              		.loc 5 179 7
 853 00e8 4FF4FA60 		mov	r0, #2000
 854 00ec FFF7FEFF 		bl	osalThreadSleep
 855              		.loc 5 184 28
 856 00f0 7B68     		ldr	r3, [r7, #4]
 857 00f2 5A68     		ldr	r2, [r3, #4]
 858              		.loc 5 184 39
 859 00f4 FB68     		ldr	r3, [r7, #12]
 860 00f6 9B00     		lsls	r3, r3, #2
 861 00f8 1344     		add	r3, r3, r2
 862 00fa 1B68     		ldr	r3, [r3]
 863              		.loc 5 184 45
 864 00fc 5A68     		ldr	r2, [r3, #4]
 865              		.loc 5 184 52
 866 00fe BB68     		ldr	r3, [r7, #8]
 867 0100 9B00     		lsls	r3, r3, #2
 868 0102 1344     		add	r3, r3, r2
 869              		.loc 5 184 7
 870 0104 1B68     		ldr	r3, [r3]
 871 0106 1846     		mov	r0, r3
 872 0108 FFF7FEFF 		bl	test_execute_case
 873              		.loc 5 185 17
 874 010c 3A4B     		ldr	r3, .L55+88
 875 010e 5B79     		ldrb	r3, [r3, #5]	@ zero_extendqisi2
 876              		.loc 5 185 10
 877 0110 002B     		cmp	r3, #0
 878 0112 10D0     		beq	.L48
 879              		.loc 5 186 9
 880 0114 384B     		ldr	r3, .L55+88
 881 0116 1968     		ldr	r1, [r3]
 882 0118 374B     		ldr	r3, .L55+88
 883 011a 9B68     		ldr	r3, [r3, #8]
 884 011c 394A     		ldr	r2, .L55+100
 885 011e 3A48     		ldr	r0, .L55+104
 886 0120 FFF7FEFF 		bl	test_printf
 887              		.loc 5 187 9
 888 0124 FFF7FEFF 		bl	test_print_tokens
 889              		.loc 5 188 9
 890 0128 334B     		ldr	r3, .L55+88
 891 012a 9B68     		ldr	r3, [r3, #8]
 892 012c 1946     		mov	r1, r3
ARM GAS  C:\Users\DEVELO~1\AppData\Local\Temp\ccpgZ96I.s 			page 18


 893 012e 3748     		ldr	r0, .L55+108
 894 0130 FFF7FEFF 		bl	test_printf
 895 0134 02E0     		b	.L49
 896              	.L48:
 897              		.loc 5 191 9
 898 0136 3648     		ldr	r0, .L55+112
 899 0138 FFF7FEFF 		bl	test_printf
 900              	.L49:
 901              		.loc 5 193 12
 902 013c BB68     		ldr	r3, [r7, #8]
 903 013e 0133     		adds	r3, r3, #1
 904 0140 BB60     		str	r3, [r7, #8]
 905              	.L47:
 906              		.loc 5 175 15
 907 0142 7B68     		ldr	r3, [r7, #4]
 908 0144 5A68     		ldr	r2, [r3, #4]
 909              		.loc 5 175 26
 910 0146 FB68     		ldr	r3, [r7, #12]
 911 0148 9B00     		lsls	r3, r3, #2
 912 014a 1344     		add	r3, r3, r2
 913 014c 1B68     		ldr	r3, [r3]
 914              		.loc 5 175 32
 915 014e 5A68     		ldr	r2, [r3, #4]
 916              		.loc 5 175 39
 917 0150 BB68     		ldr	r3, [r7, #8]
 918 0152 9B00     		lsls	r3, r3, #2
 919 0154 1344     		add	r3, r3, r2
 920 0156 1B68     		ldr	r3, [r3]
 921              		.loc 5 175 47
 922 0158 002B     		cmp	r3, #0
 923 015a AFD1     		bne	.L50
 924              		.loc 5 195 9
 925 015c FB68     		ldr	r3, [r7, #12]
 926 015e 0133     		adds	r3, r3, #1
 927 0160 FB60     		str	r3, [r7, #12]
 928              	.L46:
 929              		.loc 5 166 13
 930 0162 7B68     		ldr	r3, [r7, #4]
 931 0164 5A68     		ldr	r2, [r3, #4]
 932              		.loc 5 166 24
 933 0166 FB68     		ldr	r3, [r7, #12]
 934 0168 9B00     		lsls	r3, r3, #2
 935 016a 1344     		add	r3, r3, r2
 936 016c 1B68     		ldr	r3, [r3]
 937              		.loc 5 166 31
 938 016e 002B     		cmp	r3, #0
 939 0170 92D1     		bne	.L51
 940              		.loc 5 197 3
 941 0172 FFF7FEFF 		bl	test_print_line
 942              		.loc 5 198 3
 943 0176 0A48     		ldr	r0, .L55
 944 0178 FFF7FEFF 		bl	test_printf
 945              		.loc 5 200 21
 946 017c 1E4B     		ldr	r3, .L55+88
 947 017e 1B79     		ldrb	r3, [r3, #4]	@ zero_extendqisi2
 948              		.loc 5 199 3
 949 0180 002B     		cmp	r3, #0
ARM GAS  C:\Users\DEVELO~1\AppData\Local\Temp\ccpgZ96I.s 			page 19


 950 0182 01D0     		beq	.L52
 951              		.loc 5 199 3 is_stmt 0 discriminator 1
 952 0184 234B     		ldr	r3, .L55+116
 953 0186 00E0     		b	.L53
 954              	.L52:
 955              		.loc 5 199 3 discriminator 2
 956 0188 234B     		ldr	r3, .L55+120
 957              	.L53:
 958              		.loc 5 199 3 discriminator 4
 959 018a 1946     		mov	r1, r3
 960 018c 2348     		ldr	r0, .L55+124
 961 018e FFF7FEFF 		bl	test_printf
 962              		.loc 5 206 16 is_stmt 1 discriminator 4
 963 0192 194B     		ldr	r3, .L55+88
 964 0194 1B79     		ldrb	r3, [r3, #4]	@ zero_extendqisi2
 965              		.loc 5 207 1 discriminator 4
 966 0196 1846     		mov	r0, r3
 967 0198 1037     		adds	r7, r7, #16
 968              		.cfi_def_cfa_offset 8
 969 019a BD46     		mov	sp, r7
 970              		.cfi_def_cfa_register 13
 971              		@ sp needed
 972 019c 80BD     		pop	{r7, pc}
 973              	.L56:
 974 019e 00BF     		.align	2
 975              	.L55:
 976 01a0 00000000 		.word	.LC0
 977 01a4 04000000 		.word	.LC1
 978 01a8 10000000 		.word	.LC2
 979 01ac 24000000 		.word	.LC3
 980 01b0 2C000000 		.word	.LC4
 981 01b4 44000000 		.word	.LC5
 982 01b8 5C000000 		.word	.LC6
 983 01bc 9C000000 		.word	.LC7
 984 01c0 B4000000 		.word	.LC8
 985 01c4 D4000000 		.word	.LC9
 986 01c8 00000000 		.word	__text_end__
 987 01cc 00000000 		.word	__text_base__
 988 01d0 EC000000 		.word	.LC10
 989 01d4 00000000 		.word	__rodata_end__
 990 01d8 00000000 		.word	__rodata_base__
 991 01dc 0C010000 		.word	.LC11
 992 01e0 00000000 		.word	__data_end__
 993 01e4 00000000 		.word	__data_base__
 994 01e8 2C010000 		.word	.LC12
 995 01ec 00000000 		.word	__bss_end__
 996 01f0 00000000 		.word	__bss_base__
 997 01f4 4C010000 		.word	.LC13
 998 01f8 00000000 		.word	chtest
 999 01fc 6C010000 		.word	.LC14
 1000 0200 88010000 		.word	.LC15
 1001 0204 A4010000 		.word	.LC16
 1002 0208 A8010000 		.word	.LC17
 1003 020c C4010000 		.word	.LC18
 1004 0210 D0010000 		.word	.LC19
 1005 0214 E8010000 		.word	.LC20
 1006 0218 F0010000 		.word	.LC21
ARM GAS  C:\Users\DEVELO~1\AppData\Local\Temp\ccpgZ96I.s 			page 20


 1007 021c F8010000 		.word	.LC22
 1008              		.cfi_endproc
 1009              	.LFE443:
 1010              		.size	test_execute_inner, .-test_execute_inner
 1011              		.section	.text.__test_fail,"ax",%progbits
 1012              		.align	1
 1013              		.global	__test_fail
 1014              		.syntax unified
 1015              		.thumb
 1016              		.thumb_func
 1017              		.type	__test_fail, %function
 1018              	__test_fail:
 1019              	.LFB444:
 1020              		.loc 5 213 35
 1021              		.cfi_startproc
 1022              		@ args = 0, pretend = 0, frame = 8
 1023              		@ frame_needed = 1, uses_anonymous_args = 0
 1024              		@ link register save eliminated.
 1025 0000 80B4     		push	{r7}
 1026              		.cfi_def_cfa_offset 4
 1027              		.cfi_offset 7, -4
 1028 0002 83B0     		sub	sp, sp, #12
 1029              		.cfi_def_cfa_offset 16
 1030 0004 00AF     		add	r7, sp, #0
 1031              		.cfi_def_cfa_register 7
 1032 0006 7860     		str	r0, [r7, #4]
 1033              		.loc 5 215 26
 1034 0008 074B     		ldr	r3, .L59
 1035 000a 0122     		movs	r2, #1
 1036 000c 5A71     		strb	r2, [r3, #5]
 1037              		.loc 5 216 26
 1038 000e 064B     		ldr	r3, .L59
 1039 0010 0122     		movs	r2, #1
 1040 0012 1A71     		strb	r2, [r3, #4]
 1041              		.loc 5 217 26
 1042 0014 044A     		ldr	r2, .L59
 1043 0016 7B68     		ldr	r3, [r7, #4]
 1044 0018 9360     		str	r3, [r2, #8]
 1045              		.loc 5 218 10
 1046 001a 0123     		movs	r3, #1
 1047              		.loc 5 219 1
 1048 001c 1846     		mov	r0, r3
 1049 001e 0C37     		adds	r7, r7, #12
 1050              		.cfi_def_cfa_offset 4
 1051 0020 BD46     		mov	sp, r7
 1052              		.cfi_def_cfa_register 13
 1053              		@ sp needed
 1054 0022 80BC     		pop	{r7}
 1055              		.cfi_restore 7
 1056              		.cfi_def_cfa_offset 0
 1057 0024 7047     		bx	lr
 1058              	.L60:
 1059 0026 00BF     		.align	2
 1060              	.L59:
 1061 0028 00000000 		.word	chtest
 1062              		.cfi_endproc
 1063              	.LFE444:
ARM GAS  C:\Users\DEVELO~1\AppData\Local\Temp\ccpgZ96I.s 			page 21


 1064              		.size	__test_fail, .-__test_fail
 1065              		.section	.text.__test_assert,"ax",%progbits
 1066              		.align	1
 1067              		.global	__test_assert
 1068              		.syntax unified
 1069              		.thumb
 1070              		.thumb_func
 1071              		.type	__test_assert, %function
 1072              	__test_assert:
 1073              	.LFB445:
 1074              		.loc 5 221 53
 1075              		.cfi_startproc
 1076              		@ args = 0, pretend = 0, frame = 8
 1077              		@ frame_needed = 1, uses_anonymous_args = 0
 1078 0000 80B5     		push	{r7, lr}
 1079              		.cfi_def_cfa_offset 8
 1080              		.cfi_offset 7, -8
 1081              		.cfi_offset 14, -4
 1082 0002 82B0     		sub	sp, sp, #8
 1083              		.cfi_def_cfa_offset 16
 1084 0004 00AF     		add	r7, sp, #0
 1085              		.cfi_def_cfa_register 7
 1086 0006 0346     		mov	r3, r0
 1087 0008 3960     		str	r1, [r7]
 1088 000a FB71     		strb	r3, [r7, #7]
 1089              		.loc 5 223 7
 1090 000c FB79     		ldrb	r3, [r7, #7]
 1091 000e 83F00103 		eor	r3, r3, #1
 1092 0012 DBB2     		uxtb	r3, r3
 1093              		.loc 5 223 6
 1094 0014 002B     		cmp	r3, #0
 1095 0016 04D0     		beq	.L62
 1096              		.loc 5 224 12
 1097 0018 3868     		ldr	r0, [r7]
 1098 001a FFF7FEFF 		bl	__test_fail
 1099 001e 0346     		mov	r3, r0
 1100 0020 00E0     		b	.L63
 1101              	.L62:
 1102              		.loc 5 226 10
 1103 0022 0023     		movs	r3, #0
 1104              	.L63:
 1105              		.loc 5 227 1
 1106 0024 1846     		mov	r0, r3
 1107 0026 0837     		adds	r7, r7, #8
 1108              		.cfi_def_cfa_offset 8
 1109 0028 BD46     		mov	sp, r7
 1110              		.cfi_def_cfa_register 13
 1111              		@ sp needed
 1112 002a 80BD     		pop	{r7, pc}
 1113              		.cfi_endproc
 1114              	.LFE445:
 1115              		.size	__test_assert, .-__test_assert
 1116              		.section	.text.__test_assert_sequence,"ax",%progbits
 1117              		.align	1
 1118              		.global	__test_assert_sequence
 1119              		.syntax unified
 1120              		.thumb
ARM GAS  C:\Users\DEVELO~1\AppData\Local\Temp\ccpgZ96I.s 			page 22


 1121              		.thumb_func
 1122              		.type	__test_assert_sequence, %function
 1123              	__test_assert_sequence:
 1124              	.LFB446:
 1125              		.loc 5 229 62
 1126              		.cfi_startproc
 1127              		@ args = 0, pretend = 0, frame = 16
 1128              		@ frame_needed = 1, uses_anonymous_args = 0
 1129 0000 80B5     		push	{r7, lr}
 1130              		.cfi_def_cfa_offset 8
 1131              		.cfi_offset 7, -8
 1132              		.cfi_offset 14, -4
 1133 0002 84B0     		sub	sp, sp, #16
 1134              		.cfi_def_cfa_offset 24
 1135 0004 00AF     		add	r7, sp, #0
 1136              		.cfi_def_cfa_register 7
 1137 0006 7860     		str	r0, [r7, #4]
 1138 0008 3960     		str	r1, [r7]
 1139              		.loc 5 230 9
 1140 000a 134B     		ldr	r3, .L69
 1141 000c FB60     		str	r3, [r7, #12]
 1142              		.loc 5 232 9
 1143 000e 0EE0     		b	.L65
 1144              	.L67:
 1145              		.loc 5 233 12
 1146 0010 FB68     		ldr	r3, [r7, #12]
 1147 0012 5A1C     		adds	r2, r3, #1
 1148 0014 FA60     		str	r2, [r7, #12]
 1149              		.loc 5 233 9
 1150 0016 1A78     		ldrb	r2, [r3]	@ zero_extendqisi2
 1151              		.loc 5 233 27
 1152 0018 7B68     		ldr	r3, [r7, #4]
 1153 001a 591C     		adds	r1, r3, #1
 1154 001c 7960     		str	r1, [r7, #4]
 1155              		.loc 5 233 18
 1156 001e 1B78     		ldrb	r3, [r3]	@ zero_extendqisi2
 1157              		.loc 5 233 8
 1158 0020 9A42     		cmp	r2, r3
 1159 0022 04D0     		beq	.L65
 1160              		.loc 5 234 13
 1161 0024 3868     		ldr	r0, [r7]
 1162 0026 FFF7FEFF 		bl	__test_fail
 1163 002a 0346     		mov	r3, r0
 1164 002c 10E0     		b	.L66
 1165              	.L65:
 1166              		.loc 5 232 21
 1167 002e 0B4B     		ldr	r3, .L69+4
 1168 0030 DB68     		ldr	r3, [r3, #12]
 1169              		.loc 5 232 13
 1170 0032 FA68     		ldr	r2, [r7, #12]
 1171 0034 9A42     		cmp	r2, r3
 1172 0036 EBD3     		bcc	.L67
 1173              		.loc 5 237 7
 1174 0038 7B68     		ldr	r3, [r7, #4]
 1175 003a 1B78     		ldrb	r3, [r3]	@ zero_extendqisi2
 1176              		.loc 5 237 6
 1177 003c 002B     		cmp	r3, #0
ARM GAS  C:\Users\DEVELO~1\AppData\Local\Temp\ccpgZ96I.s 			page 23


 1178 003e 04D0     		beq	.L68
 1179              		.loc 5 238 12
 1180 0040 3868     		ldr	r0, [r7]
 1181 0042 FFF7FEFF 		bl	__test_fail
 1182 0046 0346     		mov	r3, r0
 1183 0048 02E0     		b	.L66
 1184              	.L68:
 1185              		.loc 5 241 3
 1186 004a FFF7FEFF 		bl	test_clear_tokens
 1187              		.loc 5 243 10
 1188 004e 0023     		movs	r3, #0
 1189              	.L66:
 1190              		.loc 5 244 1
 1191 0050 1846     		mov	r0, r3
 1192 0052 1037     		adds	r7, r7, #16
 1193              		.cfi_def_cfa_offset 8
 1194 0054 BD46     		mov	sp, r7
 1195              		.cfi_def_cfa_register 13
 1196              		@ sp needed
 1197 0056 80BD     		pop	{r7, pc}
 1198              	.L70:
 1199              		.align	2
 1200              	.L69:
 1201 0058 10000000 		.word	chtest+16
 1202 005c 00000000 		.word	chtest
 1203              		.cfi_endproc
 1204              	.LFE446:
 1205              		.size	__test_assert_sequence, .-__test_assert_sequence
 1206              		.section	.text.__test_assert_time_window,"ax",%progbits
 1207              		.align	1
 1208              		.global	__test_assert_time_window
 1209              		.syntax unified
 1210              		.thumb
 1211              		.thumb_func
 1212              		.type	__test_assert_time_window, %function
 1213              	__test_assert_time_window:
 1214              	.LFB447:
 1215              		.loc 5 249 49
 1216              		.cfi_startproc
 1217              		@ args = 0, pretend = 0, frame = 16
 1218              		@ frame_needed = 1, uses_anonymous_args = 0
 1219 0000 80B5     		push	{r7, lr}
 1220              		.cfi_def_cfa_offset 8
 1221              		.cfi_offset 7, -8
 1222              		.cfi_offset 14, -4
 1223 0002 84B0     		sub	sp, sp, #16
 1224              		.cfi_def_cfa_offset 24
 1225 0004 00AF     		add	r7, sp, #0
 1226              		.cfi_def_cfa_register 7
 1227 0006 F860     		str	r0, [r7, #12]
 1228 0008 B960     		str	r1, [r7, #8]
 1229 000a 7A60     		str	r2, [r7, #4]
 1230              		.loc 5 251 10
 1231 000c FFF7FEFF 		bl	osalOsGetSystemTimeX
 1232 0010 0346     		mov	r3, r0
 1233 0012 BA68     		ldr	r2, [r7, #8]
 1234 0014 F968     		ldr	r1, [r7, #12]
ARM GAS  C:\Users\DEVELO~1\AppData\Local\Temp\ccpgZ96I.s 			page 24


 1235 0016 1846     		mov	r0, r3
 1236 0018 FFF7FEFF 		bl	osalTimeIsInRangeX
 1237 001c 0346     		mov	r3, r0
 1238 001e 7968     		ldr	r1, [r7, #4]
 1239 0020 1846     		mov	r0, r3
 1240 0022 FFF7FEFF 		bl	__test_assert
 1241 0026 0346     		mov	r3, r0
 1242              		.loc 5 253 1
 1243 0028 1846     		mov	r0, r3
 1244 002a 1037     		adds	r7, r7, #16
 1245              		.cfi_def_cfa_offset 8
 1246 002c BD46     		mov	sp, r7
 1247              		.cfi_def_cfa_register 13
 1248              		@ sp needed
 1249 002e 80BD     		pop	{r7, pc}
 1250              		.cfi_endproc
 1251              	.LFE447:
 1252              		.size	__test_assert_time_window, .-__test_assert_time_window
 1253              		.section	.text.test_emit_token,"ax",%progbits
 1254              		.align	1
 1255              		.global	test_emit_token
 1256              		.syntax unified
 1257              		.thumb
 1258              		.thumb_func
 1259              		.type	test_emit_token, %function
 1260              	test_emit_token:
 1261              	.LFB448:
 1262              		.loc 5 263 34
 1263              		.cfi_startproc
 1264              		@ args = 0, pretend = 0, frame = 8
 1265              		@ frame_needed = 1, uses_anonymous_args = 0
 1266              		@ link register save eliminated.
 1267 0000 80B4     		push	{r7}
 1268              		.cfi_def_cfa_offset 4
 1269              		.cfi_offset 7, -4
 1270 0002 83B0     		sub	sp, sp, #12
 1271              		.cfi_def_cfa_offset 16
 1272 0004 00AF     		add	r7, sp, #0
 1273              		.cfi_def_cfa_register 7
 1274 0006 0346     		mov	r3, r0
 1275 0008 FB71     		strb	r3, [r7, #7]
 1276              		.loc 5 265 13
 1277 000a 084B     		ldr	r3, .L76
 1278 000c DB68     		ldr	r3, [r3, #12]
 1279              		.loc 5 265 6
 1280 000e 084A     		ldr	r2, .L76+4
 1281 0010 9342     		cmp	r3, r2
 1282 0012 06D2     		bcs	.L75
 1283              		.loc 5 266 12
 1284 0014 054B     		ldr	r3, .L76
 1285 0016 DB68     		ldr	r3, [r3, #12]
 1286              		.loc 5 266 17
 1287 0018 5A1C     		adds	r2, r3, #1
 1288 001a 0449     		ldr	r1, .L76
 1289 001c CA60     		str	r2, [r1, #12]
 1290              		.loc 5 266 20
 1291 001e FA79     		ldrb	r2, [r7, #7]
ARM GAS  C:\Users\DEVELO~1\AppData\Local\Temp\ccpgZ96I.s 			page 25


 1292 0020 1A70     		strb	r2, [r3]
 1293              	.L75:
 1294              		.loc 5 268 1
 1295 0022 00BF     		nop
 1296 0024 0C37     		adds	r7, r7, #12
 1297              		.cfi_def_cfa_offset 4
 1298 0026 BD46     		mov	sp, r7
 1299              		.cfi_def_cfa_register 13
 1300              		@ sp needed
 1301 0028 80BC     		pop	{r7}
 1302              		.cfi_restore 7
 1303              		.cfi_def_cfa_offset 0
 1304 002a 7047     		bx	lr
 1305              	.L77:
 1306              		.align	2
 1307              	.L76:
 1308 002c 00000000 		.word	chtest
 1309 0030 20000000 		.word	chtest+32
 1310              		.cfi_endproc
 1311              	.LFE448:
 1312              		.size	test_emit_token, .-test_emit_token
 1313              		.section	.text.test_execute_putchar,"ax",%progbits
 1314              		.align	1
 1315              		.global	test_execute_putchar
 1316              		.syntax unified
 1317              		.thumb
 1318              		.thumb_func
 1319              		.type	test_execute_putchar, %function
 1320              	test_execute_putchar:
 1321              	.LFB449:
 1322              		.loc 5 283 51
 1323              		.cfi_startproc
 1324              		@ args = 0, pretend = 0, frame = 8
 1325              		@ frame_needed = 1, uses_anonymous_args = 0
 1326 0000 80B5     		push	{r7, lr}
 1327              		.cfi_def_cfa_offset 8
 1328              		.cfi_offset 7, -8
 1329              		.cfi_offset 14, -4
 1330 0002 82B0     		sub	sp, sp, #8
 1331              		.cfi_def_cfa_offset 16
 1332 0004 00AF     		add	r7, sp, #0
 1333              		.cfi_def_cfa_register 7
 1334 0006 7860     		str	r0, [r7, #4]
 1335 0008 3960     		str	r1, [r7]
 1336              		.loc 5 286 18
 1337 000a 074B     		ldr	r3, .L80
 1338 000c 0022     		movs	r2, #0
 1339 000e 5A62     		str	r2, [r3, #36]
 1340              		.loc 5 287 18
 1341 0010 054A     		ldr	r2, .L80
 1342 0012 7B68     		ldr	r3, [r7, #4]
 1343 0014 1362     		str	r3, [r2, #32]
 1344              		.loc 5 290 10
 1345 0016 3868     		ldr	r0, [r7]
 1346 0018 FFF7FEFF 		bl	test_execute_inner
 1347 001c 0346     		mov	r3, r0
 1348              		.loc 5 291 1
ARM GAS  C:\Users\DEVELO~1\AppData\Local\Temp\ccpgZ96I.s 			page 26


 1349 001e 1846     		mov	r0, r3
 1350 0020 0837     		adds	r7, r7, #8
 1351              		.cfi_def_cfa_offset 8
 1352 0022 BD46     		mov	sp, r7
 1353              		.cfi_def_cfa_register 13
 1354              		@ sp needed
 1355 0024 80BD     		pop	{r7, pc}
 1356              	.L81:
 1357 0026 00BF     		.align	2
 1358              	.L80:
 1359 0028 00000000 		.word	chtest
 1360              		.cfi_endproc
 1361              	.LFE449:
 1362              		.size	test_execute_putchar, .-test_execute_putchar
 1363              		.section	.text.test_execute_stream,"ax",%progbits
 1364              		.align	1
 1365              		.global	test_execute_stream
 1366              		.syntax unified
 1367              		.thumb
 1368              		.thumb_func
 1369              		.type	test_execute_stream, %function
 1370              	test_execute_stream:
 1371              	.LFB450:
 1372              		.loc 5 307 50
 1373              		.cfi_startproc
 1374              		@ args = 0, pretend = 0, frame = 8
 1375              		@ frame_needed = 1, uses_anonymous_args = 0
 1376 0000 80B5     		push	{r7, lr}
 1377              		.cfi_def_cfa_offset 8
 1378              		.cfi_offset 7, -8
 1379              		.cfi_offset 14, -4
 1380 0002 82B0     		sub	sp, sp, #8
 1381              		.cfi_def_cfa_offset 16
 1382 0004 00AF     		add	r7, sp, #0
 1383              		.cfi_def_cfa_register 7
 1384 0006 7860     		str	r0, [r7, #4]
 1385 0008 3960     		str	r1, [r7]
 1386              		.loc 5 310 18
 1387 000a 074A     		ldr	r2, .L84
 1388 000c 7B68     		ldr	r3, [r7, #4]
 1389 000e 5362     		str	r3, [r2, #36]
 1390              		.loc 5 311 18
 1391 0010 054B     		ldr	r3, .L84
 1392 0012 064A     		ldr	r2, .L84+4
 1393 0014 1A62     		str	r2, [r3, #32]
 1394              		.loc 5 314 10
 1395 0016 3868     		ldr	r0, [r7]
 1396 0018 FFF7FEFF 		bl	test_execute_inner
 1397 001c 0346     		mov	r3, r0
 1398              		.loc 5 315 1
 1399 001e 1846     		mov	r0, r3
 1400 0020 0837     		adds	r7, r7, #8
 1401              		.cfi_def_cfa_offset 8
 1402 0022 BD46     		mov	sp, r7
 1403              		.cfi_def_cfa_register 13
 1404              		@ sp needed
 1405 0024 80BD     		pop	{r7, pc}
ARM GAS  C:\Users\DEVELO~1\AppData\Local\Temp\ccpgZ96I.s 			page 27


 1406              	.L85:
 1407 0026 00BF     		.align	2
 1408              	.L84:
 1409 0028 00000000 		.word	chtest
 1410 002c 00000000 		.word	test_stream_putchar
 1411              		.cfi_endproc
 1412              	.LFE450:
 1413              		.size	test_execute_stream, .-test_execute_stream
 1414              		.text
 1415              	.Letext0:
 1416              		.file 6 "c:\\chibistudio\\tools\\gnu tools arm embedded\\11.3 2022.08\\lib\\gcc\\arm-none-eabi\\11
 1417              		.file 7 "c:\\chibistudio\\tools\\gnu tools arm embedded\\11.3 2022.08\\arm-none-eabi\\include\\mac
 1418              		.file 8 "c:\\chibistudio\\tools\\gnu tools arm embedded\\11.3 2022.08\\arm-none-eabi\\include\\sys
 1419              		.file 9 "../../../os/rt/include/chearly.h"
 1420              		.file 10 "../../../os/hal/include/hal_streams.h"
 1421              		.file 11 "../../../os/test/include/ch_test.h"
 1422              		.file 12 "../../../os/rt/include/chthreads.h"
 1423              		.file 13 "../../../os/hal/include/hal_st.h"
 1424              		.section	.debug_info,"",%progbits
 1425              	.Ldebug_info0:
 1426 0000 1D080000 		.4byte	0x81d
 1427 0004 0500     		.2byte	0x5
 1428 0006 01       		.byte	0x1
 1429 0007 04       		.byte	0x4
 1430 0008 00000000 		.4byte	.Ldebug_abbrev0
 1431 000c 17       		.uleb128 0x17
 1432 000d 51000000 		.4byte	.LASF87
 1433 0011 1D       		.byte	0x1d
 1434 0012 84040000 		.4byte	.LASF88
 1435 0016 C3040000 		.4byte	.LASF89
 1436 001a 0C000000 		.4byte	.LLRL0
 1437 001e 00000000 		.4byte	0
 1438 0022 00000000 		.4byte	.Ldebug_line0
 1439 0026 18       		.uleb128 0x18
 1440 0027 04       		.byte	0x4
 1441 0028 19       		.uleb128 0x19
 1442 0029 04       		.byte	0x4
 1443 002a 05       		.byte	0x5
 1444 002b 696E7400 		.ascii	"int\000"
 1445 002f 01       		.uleb128 0x1
 1446 0030 F2000000 		.4byte	.LASF4
 1447 0034 06       		.byte	0x6
 1448 0035 D1       		.byte	0xd1
 1449 0036 17       		.byte	0x17
 1450 0037 3B000000 		.4byte	0x3b
 1451 003b 05       		.uleb128 0x5
 1452 003c 04       		.byte	0x4
 1453 003d 07       		.byte	0x7
 1454 003e 24030000 		.4byte	.LASF0
 1455 0042 05       		.uleb128 0x5
 1456 0043 08       		.byte	0x8
 1457 0044 05       		.byte	0x5
 1458 0045 21020000 		.4byte	.LASF1
 1459 0049 05       		.uleb128 0x5
 1460 004a 08       		.byte	0x8
 1461 004b 04       		.byte	0x4
 1462 004c 60010000 		.4byte	.LASF2
ARM GAS  C:\Users\DEVELO~1\AppData\Local\Temp\ccpgZ96I.s 			page 28


 1463 0050 05       		.uleb128 0x5
 1464 0051 01       		.byte	0x1
 1465 0052 06       		.byte	0x6
 1466 0053 EF020000 		.4byte	.LASF3
 1467 0057 01       		.uleb128 0x1
 1468 0058 71020000 		.4byte	.LASF5
 1469 005c 07       		.byte	0x7
 1470 005d 2B       		.byte	0x2b
 1471 005e 18       		.byte	0x18
 1472 005f 63000000 		.4byte	0x63
 1473 0063 05       		.uleb128 0x5
 1474 0064 01       		.byte	0x1
 1475 0065 08       		.byte	0x8
 1476 0066 BC020000 		.4byte	.LASF6
 1477 006a 05       		.uleb128 0x5
 1478 006b 02       		.byte	0x2
 1479 006c 05       		.byte	0x5
 1480 006d E8000000 		.4byte	.LASF7
 1481 0071 05       		.uleb128 0x5
 1482 0072 02       		.byte	0x2
 1483 0073 07       		.byte	0x7
 1484 0074 59030000 		.4byte	.LASF8
 1485 0078 01       		.uleb128 0x1
 1486 0079 52040000 		.4byte	.LASF9
 1487 007d 07       		.byte	0x7
 1488 007e 4D       		.byte	0x4d
 1489 007f 18       		.byte	0x18
 1490 0080 84000000 		.4byte	0x84
 1491 0084 05       		.uleb128 0x5
 1492 0085 04       		.byte	0x4
 1493 0086 05       		.byte	0x5
 1494 0087 A2030000 		.4byte	.LASF10
 1495 008b 01       		.uleb128 0x1
 1496 008c 6C010000 		.4byte	.LASF11
 1497 0090 07       		.byte	0x7
 1498 0091 4F       		.byte	0x4f
 1499 0092 19       		.byte	0x19
 1500 0093 97000000 		.4byte	0x97
 1501 0097 05       		.uleb128 0x5
 1502 0098 04       		.byte	0x4
 1503 0099 07       		.byte	0x7
 1504 009a 1D040000 		.4byte	.LASF12
 1505 009e 01       		.uleb128 0x1
 1506 009f F5030000 		.4byte	.LASF13
 1507 00a3 07       		.byte	0x7
 1508 00a4 69       		.byte	0x69
 1509 00a5 19       		.byte	0x19
 1510 00a6 AA000000 		.4byte	0xaa
 1511 00aa 05       		.uleb128 0x5
 1512 00ab 08       		.byte	0x8
 1513 00ac 07       		.byte	0x7
 1514 00ad 04030000 		.4byte	.LASF14
 1515 00b1 01       		.uleb128 0x1
 1516 00b2 AA010000 		.4byte	.LASF15
 1517 00b6 08       		.byte	0x8
 1518 00b7 18       		.byte	0x18
 1519 00b8 13       		.byte	0x13
ARM GAS  C:\Users\DEVELO~1\AppData\Local\Temp\ccpgZ96I.s 			page 29


 1520 00b9 57000000 		.4byte	0x57
 1521 00bd 07       		.uleb128 0x7
 1522 00be B1000000 		.4byte	0xb1
 1523 00c2 01       		.uleb128 0x1
 1524 00c3 AB030000 		.4byte	.LASF16
 1525 00c7 08       		.byte	0x8
 1526 00c8 2C       		.byte	0x2c
 1527 00c9 13       		.byte	0x13
 1528 00ca 78000000 		.4byte	0x78
 1529 00ce 01       		.uleb128 0x1
 1530 00cf 1B030000 		.4byte	.LASF17
 1531 00d3 08       		.byte	0x8
 1532 00d4 30       		.byte	0x30
 1533 00d5 14       		.byte	0x14
 1534 00d6 8B000000 		.4byte	0x8b
 1535 00da 01       		.uleb128 0x1
 1536 00db FB020000 		.4byte	.LASF18
 1537 00df 08       		.byte	0x8
 1538 00e0 3C       		.byte	0x3c
 1539 00e1 14       		.byte	0x14
 1540 00e2 9E000000 		.4byte	0x9e
 1541 00e6 01       		.uleb128 0x1
 1542 00e7 71050000 		.4byte	.LASF19
 1543 00eb 09       		.byte	0x9
 1544 00ec 58       		.byte	0x58
 1545 00ed 19       		.byte	0x19
 1546 00ee C2000000 		.4byte	0xc2
 1547 00f2 03       		.uleb128 0x3
 1548 00f3 FE000000 		.4byte	0xfe
 1549 00f7 05       		.uleb128 0x5
 1550 00f8 01       		.byte	0x1
 1551 00f9 08       		.byte	0x8
 1552 00fa 9D030000 		.4byte	.LASF20
 1553 00fe 07       		.uleb128 0x7
 1554 00ff F7000000 		.4byte	0xf7
 1555 0103 01       		.uleb128 0x1
 1556 0104 83030000 		.4byte	.LASF21
 1557 0108 01       		.byte	0x1
 1558 0109 6D       		.byte	0x6d
 1559 010a 12       		.byte	0x12
 1560 010b CE000000 		.4byte	0xce
 1561 010f 01       		.uleb128 0x1
 1562 0110 E7030000 		.4byte	.LASF22
 1563 0114 01       		.byte	0x1
 1564 0115 79       		.byte	0x79
 1565 0116 12       		.byte	0x12
 1566 0117 CE000000 		.4byte	0xce
 1567 011b 01       		.uleb128 0x1
 1568 011c 6E040000 		.4byte	.LASF23
 1569 0120 01       		.byte	0x1
 1570 0121 9B       		.byte	0x9b
 1571 0122 12       		.byte	0x12
 1572 0123 DA000000 		.4byte	0xda
 1573 0127 05       		.uleb128 0x5
 1574 0128 01       		.byte	0x1
 1575 0129 02       		.byte	0x2
 1576 012a E1030000 		.4byte	.LASF24
ARM GAS  C:\Users\DEVELO~1\AppData\Local\Temp\ccpgZ96I.s 			page 30


 1577 012e 03       		.uleb128 0x3
 1578 012f B1000000 		.4byte	0xb1
 1579 0133 1A       		.uleb128 0x1a
 1580 0134 77050000 		.4byte	.LASF90
 1581 0138 14       		.byte	0x14
 1582 0139 0A       		.byte	0xa
 1583 013a 4F       		.byte	0x4f
 1584 013b 08       		.byte	0x8
 1585 013c 80010000 		.4byte	0x180
 1586 0140 02       		.uleb128 0x2
 1587 0141 45020000 		.4byte	.LASF25
 1588 0145 0A       		.byte	0xa
 1589 0146 50       		.byte	0x50
 1590 0147 03       		.byte	0x3
 1591 0148 2F000000 		.4byte	0x2f
 1592 014c 00       		.byte	0
 1593 014d 02       		.uleb128 0x2
 1594 014e 36000000 		.4byte	.LASF26
 1595 0152 0A       		.byte	0xa
 1596 0153 50       		.byte	0x50
 1597 0154 03       		.byte	0x3
 1598 0155 A3010000 		.4byte	0x1a3
 1599 0159 04       		.byte	0x4
 1600 015a 02       		.uleb128 0x2
 1601 015b 1C020000 		.4byte	.LASF27
 1602 015f 0A       		.byte	0xa
 1603 0160 50       		.byte	0x50
 1604 0161 03       		.byte	0x3
 1605 0162 C1010000 		.4byte	0x1c1
 1606 0166 08       		.byte	0x8
 1607 0167 0F       		.uleb128 0xf
 1608 0168 70757400 		.ascii	"put\000"
 1609 016c 50       		.byte	0x50
 1610 016d 03       		.byte	0x3
 1611 016e DA010000 		.4byte	0x1da
 1612 0172 0C       		.byte	0xc
 1613 0173 0F       		.uleb128 0xf
 1614 0174 67657400 		.ascii	"get\000"
 1615 0178 50       		.byte	0x50
 1616 0179 03       		.byte	0x3
 1617 017a EE010000 		.4byte	0x1ee
 1618 017e 10       		.byte	0x10
 1619 017f 00       		.byte	0
 1620 0180 07       		.uleb128 0x7
 1621 0181 33010000 		.4byte	0x133
 1622 0185 0A       		.uleb128 0xa
 1623 0186 2F000000 		.4byte	0x2f
 1624 018a 9E010000 		.4byte	0x19e
 1625 018e 04       		.uleb128 0x4
 1626 018f 26000000 		.4byte	0x26
 1627 0193 04       		.uleb128 0x4
 1628 0194 9E010000 		.4byte	0x19e
 1629 0198 04       		.uleb128 0x4
 1630 0199 2F000000 		.4byte	0x2f
 1631 019d 00       		.byte	0
 1632 019e 03       		.uleb128 0x3
 1633 019f BD000000 		.4byte	0xbd
ARM GAS  C:\Users\DEVELO~1\AppData\Local\Temp\ccpgZ96I.s 			page 31


 1634 01a3 03       		.uleb128 0x3
 1635 01a4 85010000 		.4byte	0x185
 1636 01a8 0A       		.uleb128 0xa
 1637 01a9 2F000000 		.4byte	0x2f
 1638 01ad C1010000 		.4byte	0x1c1
 1639 01b1 04       		.uleb128 0x4
 1640 01b2 26000000 		.4byte	0x26
 1641 01b6 04       		.uleb128 0x4
 1642 01b7 2E010000 		.4byte	0x12e
 1643 01bb 04       		.uleb128 0x4
 1644 01bc 2F000000 		.4byte	0x2f
 1645 01c0 00       		.byte	0
 1646 01c1 03       		.uleb128 0x3
 1647 01c2 A8010000 		.4byte	0x1a8
 1648 01c6 0A       		.uleb128 0xa
 1649 01c7 E6000000 		.4byte	0xe6
 1650 01cb DA010000 		.4byte	0x1da
 1651 01cf 04       		.uleb128 0x4
 1652 01d0 26000000 		.4byte	0x26
 1653 01d4 04       		.uleb128 0x4
 1654 01d5 B1000000 		.4byte	0xb1
 1655 01d9 00       		.byte	0
 1656 01da 03       		.uleb128 0x3
 1657 01db C6010000 		.4byte	0x1c6
 1658 01df 0A       		.uleb128 0xa
 1659 01e0 E6000000 		.4byte	0xe6
 1660 01e4 EE010000 		.4byte	0x1ee
 1661 01e8 04       		.uleb128 0x4
 1662 01e9 26000000 		.4byte	0x26
 1663 01ed 00       		.byte	0
 1664 01ee 03       		.uleb128 0x3
 1665 01ef DF010000 		.4byte	0x1df
 1666 01f3 0B       		.uleb128 0xb
 1667 01f4 04       		.byte	0x4
 1668 01f5 0A       		.byte	0xa
 1669 01f6 5A       		.byte	0x5a
 1670 01f7 08020000 		.4byte	0x208
 1671 01fb 0F       		.uleb128 0xf
 1672 01fc 766D7400 		.ascii	"vmt\000"
 1673 0200 5C       		.byte	0x5c
 1674 0201 29       		.byte	0x29
 1675 0202 08020000 		.4byte	0x208
 1676 0206 00       		.byte	0
 1677 0207 00       		.byte	0
 1678 0208 03       		.uleb128 0x3
 1679 0209 80010000 		.4byte	0x180
 1680 020d 01       		.uleb128 0x1
 1681 020e 39010000 		.4byte	.LASF28
 1682 0212 0A       		.byte	0xa
 1683 0213 5E       		.byte	0x5e
 1684 0214 03       		.byte	0x3
 1685 0215 F3010000 		.4byte	0x1f3
 1686 0219 01       		.uleb128 0x1
 1687 021a B2010000 		.4byte	.LASF29
 1688 021e 0B       		.byte	0xb
 1689 021f 7D       		.byte	0x7d
 1690 0220 0F       		.byte	0xf
ARM GAS  C:\Users\DEVELO~1\AppData\Local\Temp\ccpgZ96I.s 			page 32


 1691 0221 25020000 		.4byte	0x225
 1692 0225 03       		.uleb128 0x3
 1693 0226 2A020000 		.4byte	0x22a
 1694 022a 0A       		.uleb128 0xa
 1695 022b 28000000 		.4byte	0x28
 1696 022f 39020000 		.4byte	0x239
 1697 0233 04       		.uleb128 0x4
 1698 0234 28000000 		.4byte	0x28
 1699 0238 00       		.byte	0
 1700 0239 0B       		.uleb128 0xb
 1701 023a 28       		.byte	0x28
 1702 023b 0B       		.byte	0xb
 1703 023c 82       		.byte	0x82
 1704 023d AA020000 		.4byte	0x2aa
 1705 0241 02       		.uleb128 0x2
 1706 0242 F9000000 		.4byte	.LASF30
 1707 0246 0B       		.byte	0xb
 1708 0247 86       		.byte	0x86
 1709 0248 15       		.byte	0x15
 1710 0249 3B000000 		.4byte	0x3b
 1711 024d 00       		.byte	0
 1712 024e 02       		.uleb128 0x2
 1713 024f 06010000 		.4byte	.LASF31
 1714 0253 0B       		.byte	0xb
 1715 0254 8A       		.byte	0x8a
 1716 0255 15       		.byte	0x15
 1717 0256 27010000 		.4byte	0x127
 1718 025a 04       		.byte	0x4
 1719 025b 02       		.uleb128 0x2
 1720 025c CA020000 		.4byte	.LASF32
 1721 0260 0B       		.byte	0xb
 1722 0261 8E       		.byte	0x8e
 1723 0262 15       		.byte	0x15
 1724 0263 27010000 		.4byte	0x127
 1725 0267 05       		.byte	0x5
 1726 0268 02       		.uleb128 0x2
 1727 0269 55020000 		.4byte	.LASF33
 1728 026d 0B       		.byte	0xb
 1729 026e 92       		.byte	0x92
 1730 026f 16       		.byte	0x16
 1731 0270 F2000000 		.4byte	0xf2
 1732 0274 08       		.byte	0x8
 1733 0275 02       		.uleb128 0x2
 1734 0276 65020000 		.4byte	.LASF34
 1735 027a 0B       		.byte	0xb
 1736 027b 96       		.byte	0x96
 1737 027c 16       		.byte	0x16
 1738 027d AA020000 		.4byte	0x2aa
 1739 0281 0C       		.byte	0xc
 1740 0282 02       		.uleb128 0x2
 1741 0283 28000000 		.4byte	.LASF35
 1742 0287 0B       		.byte	0xb
 1743 0288 9A       		.byte	0x9a
 1744 0289 15       		.byte	0x15
 1745 028a AF020000 		.4byte	0x2af
 1746 028e 10       		.byte	0x10
 1747 028f 02       		.uleb128 0x2
ARM GAS  C:\Users\DEVELO~1\AppData\Local\Temp\ccpgZ96I.s 			page 33


 1748 0290 1E010000 		.4byte	.LASF36
 1749 0294 0B       		.byte	0xb
 1750 0295 9E       		.byte	0x9e
 1751 0296 15       		.byte	0x15
 1752 0297 19020000 		.4byte	0x219
 1753 029b 20       		.byte	0x20
 1754 029c 02       		.uleb128 0x2
 1755 029d 6A020000 		.4byte	.LASF37
 1756 02a1 0B       		.byte	0xb
 1757 02a2 A3       		.byte	0xa3
 1758 02a3 19       		.byte	0x19
 1759 02a4 BF020000 		.4byte	0x2bf
 1760 02a8 24       		.byte	0x24
 1761 02a9 00       		.byte	0
 1762 02aa 03       		.uleb128 0x3
 1763 02ab F7000000 		.4byte	0xf7
 1764 02af 1B       		.uleb128 0x1b
 1765 02b0 F7000000 		.4byte	0xf7
 1766 02b4 BF020000 		.4byte	0x2bf
 1767 02b8 1C       		.uleb128 0x1c
 1768 02b9 3B000000 		.4byte	0x3b
 1769 02bd 0F       		.byte	0xf
 1770 02be 00       		.byte	0
 1771 02bf 03       		.uleb128 0x3
 1772 02c0 0D020000 		.4byte	0x20d
 1773 02c4 01       		.uleb128 0x1
 1774 02c5 06000000 		.4byte	.LASF38
 1775 02c9 0B       		.byte	0xb
 1776 02ca A5       		.byte	0xa5
 1777 02cb 03       		.byte	0x3
 1778 02cc 39020000 		.4byte	0x239
 1779 02d0 0B       		.uleb128 0xb
 1780 02d1 10       		.byte	0x10
 1781 02d2 0B       		.byte	0xb
 1782 02d3 AA       		.byte	0xaa
 1783 02d4 0D030000 		.4byte	0x30d
 1784 02d8 02       		.uleb128 0x2
 1785 02d9 A3040000 		.4byte	.LASF39
 1786 02dd 0B       		.byte	0xb
 1787 02de AB       		.byte	0xab
 1788 02df 0F       		.byte	0xf
 1789 02e0 F2000000 		.4byte	0xf2
 1790 02e4 00       		.byte	0
 1791 02e5 02       		.uleb128 0x2
 1792 02e6 F6010000 		.4byte	.LASF40
 1793 02ea 0B       		.byte	0xb
 1794 02eb AC       		.byte	0xac
 1795 02ec 0A       		.byte	0xa
 1796 02ed 0E030000 		.4byte	0x30e
 1797 02f1 04       		.byte	0x4
 1798 02f2 02       		.uleb128 0x2
 1799 02f3 7B020000 		.4byte	.LASF41
 1800 02f7 0B       		.byte	0xb
 1801 02f8 AD       		.byte	0xad
 1802 02f9 0A       		.byte	0xa
 1803 02fa 0E030000 		.4byte	0x30e
 1804 02fe 08       		.byte	0x8
ARM GAS  C:\Users\DEVELO~1\AppData\Local\Temp\ccpgZ96I.s 			page 34


 1805 02ff 02       		.uleb128 0x2
 1806 0300 35050000 		.4byte	.LASF42
 1807 0304 0B       		.byte	0xb
 1808 0305 AE       		.byte	0xae
 1809 0306 0A       		.byte	0xa
 1810 0307 0E030000 		.4byte	0x30e
 1811 030b 0C       		.byte	0xc
 1812 030c 00       		.byte	0
 1813 030d 1D       		.uleb128 0x1d
 1814 030e 03       		.uleb128 0x3
 1815 030f 0D030000 		.4byte	0x30d
 1816 0313 01       		.uleb128 0x1
 1817 0314 8C010000 		.4byte	.LASF43
 1818 0318 0B       		.byte	0xb
 1819 0319 AF       		.byte	0xaf
 1820 031a 03       		.byte	0x3
 1821 031b D0020000 		.4byte	0x2d0
 1822 031f 07       		.uleb128 0x7
 1823 0320 13030000 		.4byte	0x313
 1824 0324 0B       		.uleb128 0xb
 1825 0325 08       		.byte	0x8
 1826 0326 0B       		.byte	0xb
 1827 0327 B4       		.byte	0xb4
 1828 0328 47030000 		.4byte	0x347
 1829 032c 02       		.uleb128 0x2
 1830 032d A3040000 		.4byte	.LASF39
 1831 0331 0B       		.byte	0xb
 1832 0332 B5       		.byte	0xb5
 1833 0333 16       		.byte	0x16
 1834 0334 F2000000 		.4byte	0xf2
 1835 0338 00       		.byte	0
 1836 0339 02       		.uleb128 0x2
 1837 033a 46030000 		.4byte	.LASF44
 1838 033e 0B       		.byte	0xb
 1839 033f B6       		.byte	0xb6
 1840 0340 1E       		.byte	0x1e
 1841 0341 47030000 		.4byte	0x347
 1842 0345 04       		.byte	0x4
 1843 0346 00       		.byte	0
 1844 0347 03       		.uleb128 0x3
 1845 0348 51030000 		.4byte	0x351
 1846 034c 03       		.uleb128 0x3
 1847 034d 1F030000 		.4byte	0x31f
 1848 0351 07       		.uleb128 0x7
 1849 0352 4C030000 		.4byte	0x34c
 1850 0356 01       		.uleb128 0x1
 1851 0357 7D010000 		.4byte	.LASF45
 1852 035b 0B       		.byte	0xb
 1853 035c B7       		.byte	0xb7
 1854 035d 03       		.byte	0x3
 1855 035e 24030000 		.4byte	0x324
 1856 0362 07       		.uleb128 0x7
 1857 0363 56030000 		.4byte	0x356
 1858 0367 0B       		.uleb128 0xb
 1859 0368 08       		.byte	0x8
 1860 0369 0B       		.byte	0xb
 1861 036a BC       		.byte	0xbc
ARM GAS  C:\Users\DEVELO~1\AppData\Local\Temp\ccpgZ96I.s 			page 35


 1862 036b 8A030000 		.4byte	0x38a
 1863 036f 02       		.uleb128 0x2
 1864 0370 A3040000 		.4byte	.LASF39
 1865 0374 0B       		.byte	0xb
 1866 0375 BD       		.byte	0xbd
 1867 0376 16       		.byte	0x16
 1868 0377 F2000000 		.4byte	0xf2
 1869 037b 00       		.byte	0
 1870 037c 02       		.uleb128 0x2
 1871 037d 7A040000 		.4byte	.LASF46
 1872 0381 0B       		.byte	0xb
 1873 0382 BE       		.byte	0xbe
 1874 0383 22       		.byte	0x22
 1875 0384 8A030000 		.4byte	0x38a
 1876 0388 04       		.byte	0x4
 1877 0389 00       		.byte	0
 1878 038a 03       		.uleb128 0x3
 1879 038b 94030000 		.4byte	0x394
 1880 038f 03       		.uleb128 0x3
 1881 0390 62030000 		.4byte	0x362
 1882 0394 07       		.uleb128 0x7
 1883 0395 8F030000 		.4byte	0x38f
 1884 0399 01       		.uleb128 0x1
 1885 039a 12010000 		.4byte	.LASF47
 1886 039e 0B       		.byte	0xb
 1887 039f BF       		.byte	0xbf
 1888 03a0 03       		.byte	0x3
 1889 03a1 67030000 		.4byte	0x367
 1890 03a5 07       		.uleb128 0x7
 1891 03a6 99030000 		.4byte	0x399
 1892 03aa 1E       		.uleb128 0x1e
 1893 03ab 4E010000 		.4byte	.LASF63
 1894 03af 0B       		.byte	0xb
 1895 03b0 2901     		.2byte	0x129
 1896 03b2 1A       		.byte	0x1a
 1897 03b3 C4020000 		.4byte	0x2c4
 1898 03b7 1F       		.uleb128 0x1f
 1899 03b8 AA030000 		.4byte	0x3aa
 1900 03bc 05       		.byte	0x5
 1901 03bd 29       		.byte	0x29
 1902 03be 13       		.byte	0x13
 1903 03bf 05       		.uleb128 0x5
 1904 03c0 03       		.byte	0x3
 1905 03c1 00000000 		.4byte	chtest
 1906 03c5 20       		.uleb128 0x20
 1907 03c6 8F050000 		.4byte	.LASF91
 1908 03ca 0D       		.byte	0xd
 1909 03cb 4B       		.byte	0x4b
 1910 03cc 0D       		.byte	0xd
 1911 03cd 03010000 		.4byte	0x103
 1912 03d1 12       		.uleb128 0x12
 1913 03d2 55010000 		.4byte	.LASF48
 1914 03d6 0C       		.byte	0xc
 1915 03d7 4201     		.2byte	0x142
 1916 03d9 E3030000 		.4byte	0x3e3
 1917 03dd 04       		.uleb128 0x4
 1918 03de 0F010000 		.4byte	0x10f
ARM GAS  C:\Users\DEVELO~1\AppData\Local\Temp\ccpgZ96I.s 			page 36


 1919 03e2 00       		.byte	0
 1920 03e3 21       		.uleb128 0x21
 1921 03e4 B7040000 		.4byte	.LASF92
 1922 03e8 0B       		.byte	0xb
 1923 03e9 3901     		.2byte	0x139
 1924 03eb 07       		.byte	0x7
 1925 03ec 28000000 		.4byte	0x28
 1926 03f0 FB030000 		.4byte	0x3fb
 1927 03f4 04       		.uleb128 0x4
 1928 03f5 F2000000 		.4byte	0xf2
 1929 03f9 22       		.uleb128 0x22
 1930 03fa 00       		.byte	0
 1931 03fb 12       		.uleb128 0x12
 1932 03fc 4C030000 		.4byte	.LASF49
 1933 0400 0B       		.byte	0xb
 1934 0401 3701     		.2byte	0x137
 1935 0403 0D040000 		.4byte	0x40d
 1936 0407 04       		.uleb128 0x4
 1937 0408 F7000000 		.4byte	0xf7
 1938 040c 00       		.byte	0
 1939 040d 13       		.uleb128 0x13
 1940 040e A8020000 		.4byte	.LASF50
 1941 0412 3201     		.2byte	0x132
 1942 0414 27010000 		.4byte	0x127
 1943 0418 00000000 		.4byte	.LFB450
 1944 041c 30000000 		.4byte	.LFE450-.LFB450
 1945 0420 01       		.uleb128 0x1
 1946 0421 9C       		.byte	0x9c
 1947 0422 47040000 		.4byte	0x447
 1948 0426 08       		.uleb128 0x8
 1949 0427 6A020000 		.4byte	.LASF37
 1950 042b 05       		.byte	0x5
 1951 042c 3201     		.2byte	0x132
 1952 042e 30       		.byte	0x30
 1953 042f BF020000 		.4byte	0x2bf
 1954 0433 02       		.uleb128 0x2
 1955 0434 91       		.byte	0x91
 1956 0435 74       		.sleb128 -12
 1957 0436 0E       		.uleb128 0xe
 1958 0437 74737000 		.ascii	"tsp\000"
 1959 043b 05       		.byte	0x5
 1960 043c 3301     		.2byte	0x133
 1961 043e 2D       		.byte	0x2d
 1962 043f 47040000 		.4byte	0x447
 1963 0443 02       		.uleb128 0x2
 1964 0444 91       		.byte	0x91
 1965 0445 70       		.sleb128 -16
 1966 0446 00       		.byte	0
 1967 0447 03       		.uleb128 0x3
 1968 0448 A5030000 		.4byte	0x3a5
 1969 044c 13       		.uleb128 0x13
 1970 044d 35040000 		.4byte	.LASF51
 1971 0451 1A01     		.2byte	0x11a
 1972 0453 27010000 		.4byte	0x127
 1973 0457 00000000 		.4byte	.LFB449
 1974 045b 2C000000 		.4byte	.LFE449-.LFB449
 1975 045f 01       		.uleb128 0x1
ARM GAS  C:\Users\DEVELO~1\AppData\Local\Temp\ccpgZ96I.s 			page 37


 1976 0460 9C       		.byte	0x9c
 1977 0461 86040000 		.4byte	0x486
 1978 0465 08       		.uleb128 0x8
 1979 0466 4A040000 		.4byte	.LASF52
 1980 046a 05       		.byte	0x5
 1981 046b 1A01     		.2byte	0x11a
 1982 046d 2A       		.byte	0x2a
 1983 046e 19020000 		.4byte	0x219
 1984 0472 02       		.uleb128 0x2
 1985 0473 91       		.byte	0x91
 1986 0474 74       		.sleb128 -12
 1987 0475 0E       		.uleb128 0xe
 1988 0476 74737000 		.ascii	"tsp\000"
 1989 047a 05       		.byte	0x5
 1990 047b 1B01     		.2byte	0x11b
 1991 047d 2E       		.byte	0x2e
 1992 047e 47040000 		.4byte	0x447
 1993 0482 02       		.uleb128 0x2
 1994 0483 91       		.byte	0x91
 1995 0484 70       		.sleb128 -16
 1996 0485 00       		.byte	0
 1997 0486 23       		.uleb128 0x23
 1998 0487 4F050000 		.4byte	.LASF93
 1999 048b 05       		.byte	0x5
 2000 048c 0701     		.2byte	0x107
 2001 048e 06       		.byte	0x6
 2002 048f 00000000 		.4byte	.LFB448
 2003 0493 34000000 		.4byte	.LFE448-.LFB448
 2004 0497 01       		.uleb128 0x1
 2005 0498 9C       		.byte	0x9c
 2006 0499 AE040000 		.4byte	0x4ae
 2007 049d 08       		.uleb128 0x8
 2008 049e 00000000 		.4byte	.LASF53
 2009 04a2 05       		.byte	0x5
 2010 04a3 0701     		.2byte	0x107
 2011 04a5 1B       		.byte	0x1b
 2012 04a6 F7000000 		.4byte	0xf7
 2013 04aa 02       		.uleb128 0x2
 2014 04ab 91       		.byte	0x91
 2015 04ac 77       		.sleb128 -9
 2016 04ad 00       		.byte	0
 2017 04ae 10       		.uleb128 0x10
 2018 04af B3030000 		.4byte	.LASF54
 2019 04b3 F7       		.byte	0xf7
 2020 04b4 27010000 		.4byte	0x127
 2021 04b8 00000000 		.4byte	.LFB447
 2022 04bc 30000000 		.4byte	.LFE447-.LFB447
 2023 04c0 01       		.uleb128 0x1
 2024 04c1 9C       		.byte	0x9c
 2025 04c2 F1040000 		.4byte	0x4f1
 2026 04c6 11       		.uleb128 0x11
 2027 04c7 A4010000 		.4byte	.LASF55
 2028 04cb F7       		.byte	0xf7
 2029 04cc 2A       		.byte	0x2a
 2030 04cd 03010000 		.4byte	0x103
 2031 04d1 02       		.uleb128 0x2
 2032 04d2 91       		.byte	0x91
ARM GAS  C:\Users\DEVELO~1\AppData\Local\Temp\ccpgZ96I.s 			page 38


 2033 04d3 74       		.sleb128 -12
 2034 04d4 06       		.uleb128 0x6
 2035 04d5 656E6400 		.ascii	"end\000"
 2036 04d9 F8       		.byte	0xf8
 2037 04da 2A       		.byte	0x2a
 2038 04db 03010000 		.4byte	0x103
 2039 04df 02       		.uleb128 0x2
 2040 04e0 91       		.byte	0x91
 2041 04e1 70       		.sleb128 -16
 2042 04e2 06       		.uleb128 0x6
 2043 04e3 6D736700 		.ascii	"msg\000"
 2044 04e7 F9       		.byte	0xf9
 2045 04e8 2C       		.byte	0x2c
 2046 04e9 F2000000 		.4byte	0xf2
 2047 04ed 02       		.uleb128 0x2
 2048 04ee 91       		.byte	0x91
 2049 04ef 6C       		.sleb128 -20
 2050 04f0 00       		.byte	0
 2051 04f1 10       		.uleb128 0x10
 2052 04f2 91020000 		.4byte	.LASF56
 2053 04f6 E5       		.byte	0xe5
 2054 04f7 27010000 		.4byte	0x127
 2055 04fb 00000000 		.4byte	.LFB446
 2056 04ff 60000000 		.4byte	.LFE446-.LFB446
 2057 0503 01       		.uleb128 0x1
 2058 0504 9C       		.byte	0x9c
 2059 0505 33050000 		.4byte	0x533
 2060 0509 11       		.uleb128 0x11
 2061 050a 14040000 		.4byte	.LASF57
 2062 050e E5       		.byte	0xe5
 2063 050f 23       		.byte	0x23
 2064 0510 AA020000 		.4byte	0x2aa
 2065 0514 02       		.uleb128 0x2
 2066 0515 91       		.byte	0x91
 2067 0516 6C       		.sleb128 -20
 2068 0517 06       		.uleb128 0x6
 2069 0518 6D736700 		.ascii	"msg\000"
 2070 051c E5       		.byte	0xe5
 2071 051d 39       		.byte	0x39
 2072 051e F2000000 		.4byte	0xf2
 2073 0522 02       		.uleb128 0x2
 2074 0523 91       		.byte	0x91
 2075 0524 68       		.sleb128 -24
 2076 0525 0C       		.uleb128 0xc
 2077 0526 637000   		.ascii	"cp\000"
 2078 0529 E6       		.byte	0xe6
 2079 052a 09       		.byte	0x9
 2080 052b AA020000 		.4byte	0x2aa
 2081 052f 02       		.uleb128 0x2
 2082 0530 91       		.byte	0x91
 2083 0531 74       		.sleb128 -12
 2084 0532 00       		.byte	0
 2085 0533 10       		.uleb128 0x10
 2086 0534 FC010000 		.4byte	.LASF58
 2087 0538 DD       		.byte	0xdd
 2088 0539 27010000 		.4byte	0x127
 2089 053d 00000000 		.4byte	.LFB445
ARM GAS  C:\Users\DEVELO~1\AppData\Local\Temp\ccpgZ96I.s 			page 39


 2090 0541 2C000000 		.4byte	.LFE445-.LFB445
 2091 0545 01       		.uleb128 0x1
 2092 0546 9C       		.byte	0x9c
 2093 0547 68050000 		.4byte	0x568
 2094 054b 11       		.uleb128 0x11
 2095 054c 79030000 		.4byte	.LASF59
 2096 0550 DD       		.byte	0xdd
 2097 0551 19       		.byte	0x19
 2098 0552 27010000 		.4byte	0x127
 2099 0556 02       		.uleb128 0x2
 2100 0557 91       		.byte	0x91
 2101 0558 77       		.sleb128 -9
 2102 0559 06       		.uleb128 0x6
 2103 055a 6D736700 		.ascii	"msg\000"
 2104 055e DD       		.byte	0xdd
 2105 055f 30       		.byte	0x30
 2106 0560 F2000000 		.4byte	0xf2
 2107 0564 02       		.uleb128 0x2
 2108 0565 91       		.byte	0x91
 2109 0566 70       		.sleb128 -16
 2110 0567 00       		.byte	0
 2111 0568 24       		.uleb128 0x24
 2112 0569 DC000000 		.4byte	.LASF60
 2113 056d 05       		.byte	0x5
 2114 056e D5       		.byte	0xd5
 2115 056f 06       		.byte	0x6
 2116 0570 27010000 		.4byte	0x127
 2117 0574 00000000 		.4byte	.LFB444
 2118 0578 2C000000 		.4byte	.LFE444-.LFB444
 2119 057c 01       		.uleb128 0x1
 2120 057d 9C       		.byte	0x9c
 2121 057e 91050000 		.4byte	0x591
 2122 0582 06       		.uleb128 0x6
 2123 0583 6D736700 		.ascii	"msg\000"
 2124 0587 D5       		.byte	0xd5
 2125 0588 1E       		.byte	0x1e
 2126 0589 F2000000 		.4byte	0xf2
 2127 058d 02       		.uleb128 0x2
 2128 058e 91       		.byte	0x91
 2129 058f 74       		.sleb128 -12
 2130 0590 00       		.byte	0
 2131 0591 14       		.uleb128 0x14
 2132 0592 E3010000 		.4byte	.LASF77
 2133 0596 7F       		.byte	0x7f
 2134 0597 0D       		.byte	0xd
 2135 0598 27010000 		.4byte	0x127
 2136 059c 00000000 		.4byte	.LFB443
 2137 05a0 20020000 		.4byte	.LFE443-.LFB443
 2138 05a4 01       		.uleb128 0x1
 2139 05a5 9C       		.byte	0x9c
 2140 05a6 37060000 		.4byte	0x637
 2141 05aa 06       		.uleb128 0x6
 2142 05ab 74737000 		.ascii	"tsp\000"
 2143 05af 7F       		.byte	0x7f
 2144 05b0 33       		.byte	0x33
 2145 05b1 47040000 		.4byte	0x447
 2146 05b5 02       		.uleb128 0x2
ARM GAS  C:\Users\DEVELO~1\AppData\Local\Temp\ccpgZ96I.s 			page 40


 2147 05b6 91       		.byte	0x91
 2148 05b7 6C       		.sleb128 -20
 2149 05b8 15       		.uleb128 0x15
 2150 05b9 2F020000 		.4byte	.LASF61
 2151 05bd 80       		.byte	0x80
 2152 05be 0C       		.byte	0xc
 2153 05bf 3B000000 		.4byte	0x3b
 2154 05c3 02       		.uleb128 0x2
 2155 05c4 91       		.byte	0x91
 2156 05c5 74       		.sleb128 -12
 2157 05c6 15       		.uleb128 0x15
 2158 05c7 2F040000 		.4byte	.LASF62
 2159 05cb 80       		.byte	0x80
 2160 05cc 12       		.byte	0x12
 2161 05cd 3B000000 		.4byte	0x3b
 2162 05d1 02       		.uleb128 0x2
 2163 05d2 91       		.byte	0x91
 2164 05d3 70       		.sleb128 -16
 2165 05d4 25       		.uleb128 0x25
 2166 05d5 48000000 		.4byte	.LBB2
 2167 05d9 3E000000 		.4byte	.LBE2-.LBB2
 2168 05dd 09       		.uleb128 0x9
 2169 05de E1020000 		.4byte	.LASF64
 2170 05e2 94       		.byte	0x94
 2171 05e3 14       		.byte	0x14
 2172 05e4 B1000000 		.4byte	0xb1
 2173 05e8 09       		.uleb128 0x9
 2174 05e9 97010000 		.4byte	.LASF65
 2175 05ed 94       		.byte	0x94
 2176 05ee 25       		.byte	0x25
 2177 05ef B1000000 		.4byte	0xb1
 2178 05f3 09       		.uleb128 0x9
 2179 05f4 18000000 		.4byte	.LASF66
 2180 05f8 95       		.byte	0x95
 2181 05f9 14       		.byte	0x14
 2182 05fa B1000000 		.4byte	0xb1
 2183 05fe 09       		.uleb128 0x9
 2184 05ff A8040000 		.4byte	.LASF67
 2185 0603 95       		.byte	0x95
 2186 0604 25       		.byte	0x25
 2187 0605 B1000000 		.4byte	0xb1
 2188 0609 09       		.uleb128 0x9
 2189 060a D5010000 		.4byte	.LASF68
 2190 060e 96       		.byte	0x96
 2191 060f 14       		.byte	0x14
 2192 0610 B1000000 		.4byte	0xb1
 2193 0614 09       		.uleb128 0x9
 2194 0615 84020000 		.4byte	.LASF69
 2195 0619 96       		.byte	0x96
 2196 061a 25       		.byte	0x25
 2197 061b B1000000 		.4byte	0xb1
 2198 061f 09       		.uleb128 0x9
 2199 0620 6C030000 		.4byte	.LASF70
 2200 0624 97       		.byte	0x97
 2201 0625 14       		.byte	0x14
 2202 0626 B1000000 		.4byte	0xb1
 2203 062a 09       		.uleb128 0x9
ARM GAS  C:\Users\DEVELO~1\AppData\Local\Temp\ccpgZ96I.s 			page 41


 2204 062b D5020000 		.4byte	.LASF71
 2205 062f 97       		.byte	0x97
 2206 0630 25       		.byte	0x25
 2207 0631 B1000000 		.4byte	0xb1
 2208 0635 00       		.byte	0
 2209 0636 00       		.byte	0
 2210 0637 0D       		.uleb128 0xd
 2211 0638 CD030000 		.4byte	.LASF72
 2212 063c 6E       		.byte	0x6e
 2213 063d 00000000 		.4byte	.LFB442
 2214 0641 30000000 		.4byte	.LFE442-.LFB442
 2215 0645 01       		.uleb128 0x1
 2216 0646 9C       		.byte	0x9c
 2217 0647 58060000 		.4byte	0x658
 2218 064b 0C       		.uleb128 0xc
 2219 064c 6900     		.ascii	"i\000"
 2220 064e 6F       		.byte	0x6f
 2221 064f 0C       		.byte	0xc
 2222 0650 3B000000 		.4byte	0x3b
 2223 0654 02       		.uleb128 0x2
 2224 0655 91       		.byte	0x91
 2225 0656 74       		.sleb128 -12
 2226 0657 00       		.byte	0
 2227 0658 0D       		.uleb128 0xd
 2228 0659 31030000 		.4byte	.LASF73
 2229 065d 65       		.byte	0x65
 2230 065e 00000000 		.4byte	.LFB441
 2231 0662 30000000 		.4byte	.LFE441-.LFB441
 2232 0666 01       		.uleb128 0x1
 2233 0667 9C       		.byte	0x9c
 2234 0668 79060000 		.4byte	0x679
 2235 066c 0C       		.uleb128 0xc
 2236 066d 6900     		.ascii	"i\000"
 2237 066f 66       		.byte	0x66
 2238 0670 0C       		.byte	0xc
 2239 0671 3B000000 		.4byte	0x3b
 2240 0675 02       		.uleb128 0x2
 2241 0676 91       		.byte	0x91
 2242 0677 74       		.sleb128 -12
 2243 0678 00       		.byte	0
 2244 0679 0D       		.uleb128 0xd
 2245 067a 0A020000 		.4byte	.LASF74
 2246 067e 5C       		.byte	0x5c
 2247 067f 00000000 		.4byte	.LFB440
 2248 0683 2E000000 		.4byte	.LFE440-.LFB440
 2249 0687 01       		.uleb128 0x1
 2250 0688 9C       		.byte	0x9c
 2251 0689 A6060000 		.4byte	0x6a6
 2252 068d 06       		.uleb128 0x6
 2253 068e 7300     		.ascii	"s\000"
 2254 0690 5C       		.byte	0x5c
 2255 0691 2B       		.byte	0x2b
 2256 0692 F2000000 		.4byte	0xf2
 2257 0696 02       		.uleb128 0x2
 2258 0697 91       		.byte	0x91
 2259 0698 6C       		.sleb128 -20
 2260 0699 0C       		.uleb128 0xc
ARM GAS  C:\Users\DEVELO~1\AppData\Local\Temp\ccpgZ96I.s 			page 42


 2261 069a 6300     		.ascii	"c\000"
 2262 069c 5D       		.byte	0x5d
 2263 069d 08       		.byte	0x8
 2264 069e F7000000 		.4byte	0xf7
 2265 06a2 02       		.uleb128 0x2
 2266 06a3 91       		.byte	0x91
 2267 06a4 77       		.sleb128 -9
 2268 06a5 00       		.byte	0
 2269 06a6 0D       		.uleb128 0xd
 2270 06a7 3D050000 		.4byte	.LASF75
 2271 06ab 4D       		.byte	0x4d
 2272 06ac 00000000 		.4byte	.LFB439
 2273 06b0 40000000 		.4byte	.LFE439-.LFB439
 2274 06b4 01       		.uleb128 0x1
 2275 06b5 9C       		.byte	0x9c
 2276 06b6 C9060000 		.4byte	0x6c9
 2277 06ba 06       		.uleb128 0x6
 2278 06bb 74637000 		.ascii	"tcp\000"
 2279 06bf 4D       		.byte	0x4d
 2280 06c0 31       		.byte	0x31
 2281 06c1 4C030000 		.4byte	0x34c
 2282 06c5 02       		.uleb128 0x2
 2283 06c6 91       		.byte	0x91
 2284 06c7 74       		.sleb128 -12
 2285 06c8 00       		.byte	0
 2286 06c9 0D       		.uleb128 0xd
 2287 06ca 5F050000 		.4byte	.LASF76
 2288 06ce 45       		.byte	0x45
 2289 06cf 00000000 		.4byte	.LFB438
 2290 06d3 38000000 		.4byte	.LFE438-.LFB438
 2291 06d7 01       		.uleb128 0x1
 2292 06d8 9C       		.byte	0x9c
 2293 06d9 EB060000 		.4byte	0x6eb
 2294 06dd 0C       		.uleb128 0xc
 2295 06de 637000   		.ascii	"cp\000"
 2296 06e1 46       		.byte	0x46
 2297 06e2 09       		.byte	0x9
 2298 06e3 AA020000 		.4byte	0x2aa
 2299 06e7 02       		.uleb128 0x2
 2300 06e8 91       		.byte	0x91
 2301 06e9 74       		.sleb128 -12
 2302 06ea 00       		.byte	0
 2303 06eb 26       		.uleb128 0x26
 2304 06ec 5C040000 		.4byte	.LASF94
 2305 06f0 05       		.byte	0x5
 2306 06f1 40       		.byte	0x40
 2307 06f2 0D       		.byte	0xd
 2308 06f3 00000000 		.4byte	.LFB437
 2309 06f7 1C000000 		.4byte	.LFE437-.LFB437
 2310 06fb 01       		.uleb128 0x1
 2311 06fc 9C       		.byte	0x9c
 2312 06fd 14       		.uleb128 0x14
 2313 06fe C1010000 		.4byte	.LASF78
 2314 0702 38       		.byte	0x38
 2315 0703 0C       		.byte	0xc
 2316 0704 28000000 		.4byte	0x28
 2317 0708 00000000 		.4byte	.LFB436
ARM GAS  C:\Users\DEVELO~1\AppData\Local\Temp\ccpgZ96I.s 			page 43


 2318 070c 2C000000 		.4byte	.LFE436-.LFB436
 2319 0710 01       		.uleb128 0x1
 2320 0711 9C       		.byte	0x9c
 2321 0712 23070000 		.4byte	0x723
 2322 0716 06       		.uleb128 0x6
 2323 0717 6300     		.ascii	"c\000"
 2324 0719 38       		.byte	0x38
 2325 071a 24       		.byte	0x24
 2326 071b 28000000 		.4byte	0x28
 2327 071f 02       		.uleb128 0x2
 2328 0720 91       		.byte	0x91
 2329 0721 74       		.sleb128 -12
 2330 0722 00       		.byte	0
 2331 0723 27       		.uleb128 0x27
 2332 0724 8D030000 		.4byte	.LASF79
 2333 0728 04       		.byte	0x4
 2334 0729 0E03     		.2byte	0x30e
 2335 072b 14       		.byte	0x14
 2336 072c 00000000 		.4byte	.LFB364
 2337 0730 16000000 		.4byte	.LFE364-.LFB364
 2338 0734 01       		.uleb128 0x1
 2339 0735 9C       		.byte	0x9c
 2340 0736 4B070000 		.4byte	0x74b
 2341 073a 08       		.uleb128 0x8
 2342 073b 77010000 		.4byte	.LASF80
 2343 073f 04       		.byte	0x4
 2344 0740 0E03     		.2byte	0x30e
 2345 0742 32       		.byte	0x32
 2346 0743 0F010000 		.4byte	0x10f
 2347 0747 02       		.uleb128 0x2
 2348 0748 91       		.byte	0x91
 2349 0749 74       		.sleb128 -12
 2350 074a 00       		.byte	0
 2351 074b 28       		.uleb128 0x28
 2352 074c 22050000 		.4byte	.LASF81
 2353 0750 04       		.byte	0x4
 2354 0751 EA02     		.2byte	0x2ea
 2355 0753 14       		.byte	0x14
 2356 0754 27010000 		.4byte	0x127
 2357 0758 00000000 		.4byte	.LFB362
 2358 075c 20000000 		.4byte	.LFE362-.LFB362
 2359 0760 01       		.uleb128 0x1
 2360 0761 9C       		.byte	0x9c
 2361 0762 97070000 		.4byte	0x797
 2362 0766 08       		.uleb128 0x8
 2363 0767 41030000 		.4byte	.LASF82
 2364 076b 04       		.byte	0x4
 2365 076c EA02     		.2byte	0x2ea
 2366 076e 31       		.byte	0x31
 2367 076f 03010000 		.4byte	0x103
 2368 0773 02       		.uleb128 0x2
 2369 0774 91       		.byte	0x91
 2370 0775 74       		.sleb128 -12
 2371 0776 08       		.uleb128 0x8
 2372 0777 A4010000 		.4byte	.LASF55
 2373 077b 04       		.byte	0x4
 2374 077c EB02     		.2byte	0x2eb
ARM GAS  C:\Users\DEVELO~1\AppData\Local\Temp\ccpgZ96I.s 			page 44


 2375 077e 31       		.byte	0x31
 2376 077f 03010000 		.4byte	0x103
 2377 0783 02       		.uleb128 0x2
 2378 0784 91       		.byte	0x91
 2379 0785 70       		.sleb128 -16
 2380 0786 0E       		.uleb128 0xe
 2381 0787 656E6400 		.ascii	"end\000"
 2382 078b 04       		.byte	0x4
 2383 078c EC02     		.2byte	0x2ec
 2384 078e 31       		.byte	0x31
 2385 078f 03010000 		.4byte	0x103
 2386 0793 02       		.uleb128 0x2
 2387 0794 91       		.byte	0x91
 2388 0795 6C       		.sleb128 -20
 2389 0796 00       		.byte	0
 2390 0797 29       		.uleb128 0x29
 2391 0798 3C000000 		.4byte	.LASF83
 2392 079c 04       		.byte	0x4
 2393 079d BA02     		.2byte	0x2ba
 2394 079f 19       		.byte	0x19
 2395 07a0 03010000 		.4byte	0x103
 2396 07a4 00000000 		.4byte	.LFB359
 2397 07a8 0E000000 		.4byte	.LFE359-.LFB359
 2398 07ac 01       		.uleb128 0x1
 2399 07ad 9C       		.byte	0x9c
 2400 07ae 16       		.uleb128 0x16
 2401 07af 26010000 		.4byte	.LASF84
 2402 07b3 03       		.byte	0x3
 2403 07b4 7A       		.byte	0x7a
 2404 07b5 03010000 		.4byte	0x103
 2405 07b9 00000000 		.4byte	.LFB209
 2406 07bd 0E000000 		.4byte	.LFE209-.LFB209
 2407 07c1 01       		.uleb128 0x1
 2408 07c2 9C       		.byte	0x9c
 2409 07c3 16       		.uleb128 0x16
 2410 07c4 00040000 		.4byte	.LASF85
 2411 07c8 02       		.byte	0x2
 2412 07c9 6F       		.byte	0x6f
 2413 07ca 03010000 		.4byte	0x103
 2414 07ce 00000000 		.4byte	.LFB196
 2415 07d2 0E000000 		.4byte	.LFE196-.LFB196
 2416 07d6 01       		.uleb128 0x1
 2417 07d7 9C       		.byte	0x9c
 2418 07d8 2A       		.uleb128 0x2a
 2419 07d9 34020000 		.4byte	.LASF86
 2420 07dd 01       		.byte	0x1
 2421 07de E401     		.2byte	0x1e4
 2422 07e0 14       		.byte	0x14
 2423 07e1 27010000 		.4byte	0x127
 2424 07e5 00000000 		.4byte	.LFB10
 2425 07e9 2C000000 		.4byte	.LFE10-.LFB10
 2426 07ed 01       		.uleb128 0x1
 2427 07ee 9C       		.byte	0x9c
 2428 07ef 08       		.uleb128 0x8
 2429 07f0 41030000 		.4byte	.LASF82
 2430 07f4 01       		.byte	0x1
 2431 07f5 E401     		.2byte	0x1e4
ARM GAS  C:\Users\DEVELO~1\AppData\Local\Temp\ccpgZ96I.s 			page 45


 2432 07f7 2F       		.byte	0x2f
 2433 07f8 03010000 		.4byte	0x103
 2434 07fc 02       		.uleb128 0x2
 2435 07fd 91       		.byte	0x91
 2436 07fe 74       		.sleb128 -12
 2437 07ff 08       		.uleb128 0x8
 2438 0800 A4010000 		.4byte	.LASF55
 2439 0804 01       		.byte	0x1
 2440 0805 E501     		.2byte	0x1e5
 2441 0807 2F       		.byte	0x2f
 2442 0808 03010000 		.4byte	0x103
 2443 080c 02       		.uleb128 0x2
 2444 080d 91       		.byte	0x91
 2445 080e 70       		.sleb128 -16
 2446 080f 0E       		.uleb128 0xe
 2447 0810 656E6400 		.ascii	"end\000"
 2448 0814 01       		.byte	0x1
 2449 0815 E601     		.2byte	0x1e6
 2450 0817 2F       		.byte	0x2f
 2451 0818 03010000 		.4byte	0x103
 2452 081c 02       		.uleb128 0x2
 2453 081d 91       		.byte	0x91
 2454 081e 6C       		.sleb128 -20
 2455 081f 00       		.byte	0
 2456 0820 00       		.byte	0
 2457              		.section	.debug_abbrev,"",%progbits
 2458              	.Ldebug_abbrev0:
 2459 0000 01       		.uleb128 0x1
 2460 0001 16       		.uleb128 0x16
 2461 0002 00       		.byte	0
 2462 0003 03       		.uleb128 0x3
 2463 0004 0E       		.uleb128 0xe
 2464 0005 3A       		.uleb128 0x3a
 2465 0006 0B       		.uleb128 0xb
 2466 0007 3B       		.uleb128 0x3b
 2467 0008 0B       		.uleb128 0xb
 2468 0009 39       		.uleb128 0x39
 2469 000a 0B       		.uleb128 0xb
 2470 000b 49       		.uleb128 0x49
 2471 000c 13       		.uleb128 0x13
 2472 000d 00       		.byte	0
 2473 000e 00       		.byte	0
 2474 000f 02       		.uleb128 0x2
 2475 0010 0D       		.uleb128 0xd
 2476 0011 00       		.byte	0
 2477 0012 03       		.uleb128 0x3
 2478 0013 0E       		.uleb128 0xe
 2479 0014 3A       		.uleb128 0x3a
 2480 0015 0B       		.uleb128 0xb
 2481 0016 3B       		.uleb128 0x3b
 2482 0017 0B       		.uleb128 0xb
 2483 0018 39       		.uleb128 0x39
 2484 0019 0B       		.uleb128 0xb
 2485 001a 49       		.uleb128 0x49
 2486 001b 13       		.uleb128 0x13
 2487 001c 38       		.uleb128 0x38
 2488 001d 0B       		.uleb128 0xb
ARM GAS  C:\Users\DEVELO~1\AppData\Local\Temp\ccpgZ96I.s 			page 46


 2489 001e 00       		.byte	0
 2490 001f 00       		.byte	0
 2491 0020 03       		.uleb128 0x3
 2492 0021 0F       		.uleb128 0xf
 2493 0022 00       		.byte	0
 2494 0023 0B       		.uleb128 0xb
 2495 0024 21       		.uleb128 0x21
 2496 0025 04       		.sleb128 4
 2497 0026 49       		.uleb128 0x49
 2498 0027 13       		.uleb128 0x13
 2499 0028 00       		.byte	0
 2500 0029 00       		.byte	0
 2501 002a 04       		.uleb128 0x4
 2502 002b 05       		.uleb128 0x5
 2503 002c 00       		.byte	0
 2504 002d 49       		.uleb128 0x49
 2505 002e 13       		.uleb128 0x13
 2506 002f 00       		.byte	0
 2507 0030 00       		.byte	0
 2508 0031 05       		.uleb128 0x5
 2509 0032 24       		.uleb128 0x24
 2510 0033 00       		.byte	0
 2511 0034 0B       		.uleb128 0xb
 2512 0035 0B       		.uleb128 0xb
 2513 0036 3E       		.uleb128 0x3e
 2514 0037 0B       		.uleb128 0xb
 2515 0038 03       		.uleb128 0x3
 2516 0039 0E       		.uleb128 0xe
 2517 003a 00       		.byte	0
 2518 003b 00       		.byte	0
 2519 003c 06       		.uleb128 0x6
 2520 003d 05       		.uleb128 0x5
 2521 003e 00       		.byte	0
 2522 003f 03       		.uleb128 0x3
 2523 0040 08       		.uleb128 0x8
 2524 0041 3A       		.uleb128 0x3a
 2525 0042 21       		.uleb128 0x21
 2526 0043 05       		.sleb128 5
 2527 0044 3B       		.uleb128 0x3b
 2528 0045 0B       		.uleb128 0xb
 2529 0046 39       		.uleb128 0x39
 2530 0047 0B       		.uleb128 0xb
 2531 0048 49       		.uleb128 0x49
 2532 0049 13       		.uleb128 0x13
 2533 004a 02       		.uleb128 0x2
 2534 004b 18       		.uleb128 0x18
 2535 004c 00       		.byte	0
 2536 004d 00       		.byte	0
 2537 004e 07       		.uleb128 0x7
 2538 004f 26       		.uleb128 0x26
 2539 0050 00       		.byte	0
 2540 0051 49       		.uleb128 0x49
 2541 0052 13       		.uleb128 0x13
 2542 0053 00       		.byte	0
 2543 0054 00       		.byte	0
 2544 0055 08       		.uleb128 0x8
 2545 0056 05       		.uleb128 0x5
ARM GAS  C:\Users\DEVELO~1\AppData\Local\Temp\ccpgZ96I.s 			page 47


 2546 0057 00       		.byte	0
 2547 0058 03       		.uleb128 0x3
 2548 0059 0E       		.uleb128 0xe
 2549 005a 3A       		.uleb128 0x3a
 2550 005b 0B       		.uleb128 0xb
 2551 005c 3B       		.uleb128 0x3b
 2552 005d 05       		.uleb128 0x5
 2553 005e 39       		.uleb128 0x39
 2554 005f 0B       		.uleb128 0xb
 2555 0060 49       		.uleb128 0x49
 2556 0061 13       		.uleb128 0x13
 2557 0062 02       		.uleb128 0x2
 2558 0063 18       		.uleb128 0x18
 2559 0064 00       		.byte	0
 2560 0065 00       		.byte	0
 2561 0066 09       		.uleb128 0x9
 2562 0067 34       		.uleb128 0x34
 2563 0068 00       		.byte	0
 2564 0069 03       		.uleb128 0x3
 2565 006a 0E       		.uleb128 0xe
 2566 006b 3A       		.uleb128 0x3a
 2567 006c 21       		.uleb128 0x21
 2568 006d 05       		.sleb128 5
 2569 006e 3B       		.uleb128 0x3b
 2570 006f 0B       		.uleb128 0xb
 2571 0070 39       		.uleb128 0x39
 2572 0071 0B       		.uleb128 0xb
 2573 0072 49       		.uleb128 0x49
 2574 0073 13       		.uleb128 0x13
 2575 0074 3F       		.uleb128 0x3f
 2576 0075 19       		.uleb128 0x19
 2577 0076 3C       		.uleb128 0x3c
 2578 0077 19       		.uleb128 0x19
 2579 0078 00       		.byte	0
 2580 0079 00       		.byte	0
 2581 007a 0A       		.uleb128 0xa
 2582 007b 15       		.uleb128 0x15
 2583 007c 01       		.byte	0x1
 2584 007d 27       		.uleb128 0x27
 2585 007e 19       		.uleb128 0x19
 2586 007f 49       		.uleb128 0x49
 2587 0080 13       		.uleb128 0x13
 2588 0081 01       		.uleb128 0x1
 2589 0082 13       		.uleb128 0x13
 2590 0083 00       		.byte	0
 2591 0084 00       		.byte	0
 2592 0085 0B       		.uleb128 0xb
 2593 0086 13       		.uleb128 0x13
 2594 0087 01       		.byte	0x1
 2595 0088 0B       		.uleb128 0xb
 2596 0089 0B       		.uleb128 0xb
 2597 008a 3A       		.uleb128 0x3a
 2598 008b 0B       		.uleb128 0xb
 2599 008c 3B       		.uleb128 0x3b
 2600 008d 0B       		.uleb128 0xb
 2601 008e 39       		.uleb128 0x39
 2602 008f 21       		.uleb128 0x21
ARM GAS  C:\Users\DEVELO~1\AppData\Local\Temp\ccpgZ96I.s 			page 48


 2603 0090 09       		.sleb128 9
 2604 0091 01       		.uleb128 0x1
 2605 0092 13       		.uleb128 0x13
 2606 0093 00       		.byte	0
 2607 0094 00       		.byte	0
 2608 0095 0C       		.uleb128 0xc
 2609 0096 34       		.uleb128 0x34
 2610 0097 00       		.byte	0
 2611 0098 03       		.uleb128 0x3
 2612 0099 08       		.uleb128 0x8
 2613 009a 3A       		.uleb128 0x3a
 2614 009b 21       		.uleb128 0x21
 2615 009c 05       		.sleb128 5
 2616 009d 3B       		.uleb128 0x3b
 2617 009e 0B       		.uleb128 0xb
 2618 009f 39       		.uleb128 0x39
 2619 00a0 0B       		.uleb128 0xb
 2620 00a1 49       		.uleb128 0x49
 2621 00a2 13       		.uleb128 0x13
 2622 00a3 02       		.uleb128 0x2
 2623 00a4 18       		.uleb128 0x18
 2624 00a5 00       		.byte	0
 2625 00a6 00       		.byte	0
 2626 00a7 0D       		.uleb128 0xd
 2627 00a8 2E       		.uleb128 0x2e
 2628 00a9 01       		.byte	0x1
 2629 00aa 03       		.uleb128 0x3
 2630 00ab 0E       		.uleb128 0xe
 2631 00ac 3A       		.uleb128 0x3a
 2632 00ad 21       		.uleb128 0x21
 2633 00ae 05       		.sleb128 5
 2634 00af 3B       		.uleb128 0x3b
 2635 00b0 0B       		.uleb128 0xb
 2636 00b1 39       		.uleb128 0x39
 2637 00b2 21       		.uleb128 0x21
 2638 00b3 0D       		.sleb128 13
 2639 00b4 27       		.uleb128 0x27
 2640 00b5 19       		.uleb128 0x19
 2641 00b6 11       		.uleb128 0x11
 2642 00b7 01       		.uleb128 0x1
 2643 00b8 12       		.uleb128 0x12
 2644 00b9 06       		.uleb128 0x6
 2645 00ba 40       		.uleb128 0x40
 2646 00bb 18       		.uleb128 0x18
 2647 00bc 7C       		.uleb128 0x7c
 2648 00bd 19       		.uleb128 0x19
 2649 00be 01       		.uleb128 0x1
 2650 00bf 13       		.uleb128 0x13
 2651 00c0 00       		.byte	0
 2652 00c1 00       		.byte	0
 2653 00c2 0E       		.uleb128 0xe
 2654 00c3 05       		.uleb128 0x5
 2655 00c4 00       		.byte	0
 2656 00c5 03       		.uleb128 0x3
 2657 00c6 08       		.uleb128 0x8
 2658 00c7 3A       		.uleb128 0x3a
 2659 00c8 0B       		.uleb128 0xb
ARM GAS  C:\Users\DEVELO~1\AppData\Local\Temp\ccpgZ96I.s 			page 49


 2660 00c9 3B       		.uleb128 0x3b
 2661 00ca 05       		.uleb128 0x5
 2662 00cb 39       		.uleb128 0x39
 2663 00cc 0B       		.uleb128 0xb
 2664 00cd 49       		.uleb128 0x49
 2665 00ce 13       		.uleb128 0x13
 2666 00cf 02       		.uleb128 0x2
 2667 00d0 18       		.uleb128 0x18
 2668 00d1 00       		.byte	0
 2669 00d2 00       		.byte	0
 2670 00d3 0F       		.uleb128 0xf
 2671 00d4 0D       		.uleb128 0xd
 2672 00d5 00       		.byte	0
 2673 00d6 03       		.uleb128 0x3
 2674 00d7 08       		.uleb128 0x8
 2675 00d8 3A       		.uleb128 0x3a
 2676 00d9 21       		.uleb128 0x21
 2677 00da 0A       		.sleb128 10
 2678 00db 3B       		.uleb128 0x3b
 2679 00dc 0B       		.uleb128 0xb
 2680 00dd 39       		.uleb128 0x39
 2681 00de 0B       		.uleb128 0xb
 2682 00df 49       		.uleb128 0x49
 2683 00e0 13       		.uleb128 0x13
 2684 00e1 38       		.uleb128 0x38
 2685 00e2 0B       		.uleb128 0xb
 2686 00e3 00       		.byte	0
 2687 00e4 00       		.byte	0
 2688 00e5 10       		.uleb128 0x10
 2689 00e6 2E       		.uleb128 0x2e
 2690 00e7 01       		.byte	0x1
 2691 00e8 3F       		.uleb128 0x3f
 2692 00e9 19       		.uleb128 0x19
 2693 00ea 03       		.uleb128 0x3
 2694 00eb 0E       		.uleb128 0xe
 2695 00ec 3A       		.uleb128 0x3a
 2696 00ed 21       		.uleb128 0x21
 2697 00ee 05       		.sleb128 5
 2698 00ef 3B       		.uleb128 0x3b
 2699 00f0 0B       		.uleb128 0xb
 2700 00f1 39       		.uleb128 0x39
 2701 00f2 21       		.uleb128 0x21
 2702 00f3 06       		.sleb128 6
 2703 00f4 27       		.uleb128 0x27
 2704 00f5 19       		.uleb128 0x19
 2705 00f6 49       		.uleb128 0x49
 2706 00f7 13       		.uleb128 0x13
 2707 00f8 11       		.uleb128 0x11
 2708 00f9 01       		.uleb128 0x1
 2709 00fa 12       		.uleb128 0x12
 2710 00fb 06       		.uleb128 0x6
 2711 00fc 40       		.uleb128 0x40
 2712 00fd 18       		.uleb128 0x18
 2713 00fe 7C       		.uleb128 0x7c
 2714 00ff 19       		.uleb128 0x19
 2715 0100 01       		.uleb128 0x1
 2716 0101 13       		.uleb128 0x13
ARM GAS  C:\Users\DEVELO~1\AppData\Local\Temp\ccpgZ96I.s 			page 50


 2717 0102 00       		.byte	0
 2718 0103 00       		.byte	0
 2719 0104 11       		.uleb128 0x11
 2720 0105 05       		.uleb128 0x5
 2721 0106 00       		.byte	0
 2722 0107 03       		.uleb128 0x3
 2723 0108 0E       		.uleb128 0xe
 2724 0109 3A       		.uleb128 0x3a
 2725 010a 21       		.uleb128 0x21
 2726 010b 05       		.sleb128 5
 2727 010c 3B       		.uleb128 0x3b
 2728 010d 0B       		.uleb128 0xb
 2729 010e 39       		.uleb128 0x39
 2730 010f 0B       		.uleb128 0xb
 2731 0110 49       		.uleb128 0x49
 2732 0111 13       		.uleb128 0x13
 2733 0112 02       		.uleb128 0x2
 2734 0113 18       		.uleb128 0x18
 2735 0114 00       		.byte	0
 2736 0115 00       		.byte	0
 2737 0116 12       		.uleb128 0x12
 2738 0117 2E       		.uleb128 0x2e
 2739 0118 01       		.byte	0x1
 2740 0119 3F       		.uleb128 0x3f
 2741 011a 19       		.uleb128 0x19
 2742 011b 03       		.uleb128 0x3
 2743 011c 0E       		.uleb128 0xe
 2744 011d 3A       		.uleb128 0x3a
 2745 011e 0B       		.uleb128 0xb
 2746 011f 3B       		.uleb128 0x3b
 2747 0120 05       		.uleb128 0x5
 2748 0121 39       		.uleb128 0x39
 2749 0122 21       		.uleb128 0x21
 2750 0123 08       		.sleb128 8
 2751 0124 27       		.uleb128 0x27
 2752 0125 19       		.uleb128 0x19
 2753 0126 3C       		.uleb128 0x3c
 2754 0127 19       		.uleb128 0x19
 2755 0128 01       		.uleb128 0x1
 2756 0129 13       		.uleb128 0x13
 2757 012a 00       		.byte	0
 2758 012b 00       		.byte	0
 2759 012c 13       		.uleb128 0x13
 2760 012d 2E       		.uleb128 0x2e
 2761 012e 01       		.byte	0x1
 2762 012f 3F       		.uleb128 0x3f
 2763 0130 19       		.uleb128 0x19
 2764 0131 03       		.uleb128 0x3
 2765 0132 0E       		.uleb128 0xe
 2766 0133 3A       		.uleb128 0x3a
 2767 0134 21       		.uleb128 0x21
 2768 0135 05       		.sleb128 5
 2769 0136 3B       		.uleb128 0x3b
 2770 0137 05       		.uleb128 0x5
 2771 0138 39       		.uleb128 0x39
 2772 0139 21       		.uleb128 0x21
 2773 013a 06       		.sleb128 6
ARM GAS  C:\Users\DEVELO~1\AppData\Local\Temp\ccpgZ96I.s 			page 51


 2774 013b 27       		.uleb128 0x27
 2775 013c 19       		.uleb128 0x19
 2776 013d 49       		.uleb128 0x49
 2777 013e 13       		.uleb128 0x13
 2778 013f 11       		.uleb128 0x11
 2779 0140 01       		.uleb128 0x1
 2780 0141 12       		.uleb128 0x12
 2781 0142 06       		.uleb128 0x6
 2782 0143 40       		.uleb128 0x40
 2783 0144 18       		.uleb128 0x18
 2784 0145 7C       		.uleb128 0x7c
 2785 0146 19       		.uleb128 0x19
 2786 0147 01       		.uleb128 0x1
 2787 0148 13       		.uleb128 0x13
 2788 0149 00       		.byte	0
 2789 014a 00       		.byte	0
 2790 014b 14       		.uleb128 0x14
 2791 014c 2E       		.uleb128 0x2e
 2792 014d 01       		.byte	0x1
 2793 014e 03       		.uleb128 0x3
 2794 014f 0E       		.uleb128 0xe
 2795 0150 3A       		.uleb128 0x3a
 2796 0151 21       		.uleb128 0x21
 2797 0152 05       		.sleb128 5
 2798 0153 3B       		.uleb128 0x3b
 2799 0154 0B       		.uleb128 0xb
 2800 0155 39       		.uleb128 0x39
 2801 0156 0B       		.uleb128 0xb
 2802 0157 27       		.uleb128 0x27
 2803 0158 19       		.uleb128 0x19
 2804 0159 49       		.uleb128 0x49
 2805 015a 13       		.uleb128 0x13
 2806 015b 11       		.uleb128 0x11
 2807 015c 01       		.uleb128 0x1
 2808 015d 12       		.uleb128 0x12
 2809 015e 06       		.uleb128 0x6
 2810 015f 40       		.uleb128 0x40
 2811 0160 18       		.uleb128 0x18
 2812 0161 7C       		.uleb128 0x7c
 2813 0162 19       		.uleb128 0x19
 2814 0163 01       		.uleb128 0x1
 2815 0164 13       		.uleb128 0x13
 2816 0165 00       		.byte	0
 2817 0166 00       		.byte	0
 2818 0167 15       		.uleb128 0x15
 2819 0168 34       		.uleb128 0x34
 2820 0169 00       		.byte	0
 2821 016a 03       		.uleb128 0x3
 2822 016b 0E       		.uleb128 0xe
 2823 016c 3A       		.uleb128 0x3a
 2824 016d 21       		.uleb128 0x21
 2825 016e 05       		.sleb128 5
 2826 016f 3B       		.uleb128 0x3b
 2827 0170 0B       		.uleb128 0xb
 2828 0171 39       		.uleb128 0x39
 2829 0172 0B       		.uleb128 0xb
 2830 0173 49       		.uleb128 0x49
ARM GAS  C:\Users\DEVELO~1\AppData\Local\Temp\ccpgZ96I.s 			page 52


 2831 0174 13       		.uleb128 0x13
 2832 0175 02       		.uleb128 0x2
 2833 0176 18       		.uleb128 0x18
 2834 0177 00       		.byte	0
 2835 0178 00       		.byte	0
 2836 0179 16       		.uleb128 0x16
 2837 017a 2E       		.uleb128 0x2e
 2838 017b 00       		.byte	0
 2839 017c 03       		.uleb128 0x3
 2840 017d 0E       		.uleb128 0xe
 2841 017e 3A       		.uleb128 0x3a
 2842 017f 0B       		.uleb128 0xb
 2843 0180 3B       		.uleb128 0x3b
 2844 0181 0B       		.uleb128 0xb
 2845 0182 39       		.uleb128 0x39
 2846 0183 21       		.uleb128 0x21
 2847 0184 19       		.sleb128 25
 2848 0185 27       		.uleb128 0x27
 2849 0186 19       		.uleb128 0x19
 2850 0187 49       		.uleb128 0x49
 2851 0188 13       		.uleb128 0x13
 2852 0189 11       		.uleb128 0x11
 2853 018a 01       		.uleb128 0x1
 2854 018b 12       		.uleb128 0x12
 2855 018c 06       		.uleb128 0x6
 2856 018d 40       		.uleb128 0x40
 2857 018e 18       		.uleb128 0x18
 2858 018f 7C       		.uleb128 0x7c
 2859 0190 19       		.uleb128 0x19
 2860 0191 00       		.byte	0
 2861 0192 00       		.byte	0
 2862 0193 17       		.uleb128 0x17
 2863 0194 11       		.uleb128 0x11
 2864 0195 01       		.byte	0x1
 2865 0196 25       		.uleb128 0x25
 2866 0197 0E       		.uleb128 0xe
 2867 0198 13       		.uleb128 0x13
 2868 0199 0B       		.uleb128 0xb
 2869 019a 03       		.uleb128 0x3
 2870 019b 0E       		.uleb128 0xe
 2871 019c 1B       		.uleb128 0x1b
 2872 019d 0E       		.uleb128 0xe
 2873 019e 55       		.uleb128 0x55
 2874 019f 17       		.uleb128 0x17
 2875 01a0 11       		.uleb128 0x11
 2876 01a1 01       		.uleb128 0x1
 2877 01a2 10       		.uleb128 0x10
 2878 01a3 17       		.uleb128 0x17
 2879 01a4 00       		.byte	0
 2880 01a5 00       		.byte	0
 2881 01a6 18       		.uleb128 0x18
 2882 01a7 0F       		.uleb128 0xf
 2883 01a8 00       		.byte	0
 2884 01a9 0B       		.uleb128 0xb
 2885 01aa 0B       		.uleb128 0xb
 2886 01ab 00       		.byte	0
 2887 01ac 00       		.byte	0
ARM GAS  C:\Users\DEVELO~1\AppData\Local\Temp\ccpgZ96I.s 			page 53


 2888 01ad 19       		.uleb128 0x19
 2889 01ae 24       		.uleb128 0x24
 2890 01af 00       		.byte	0
 2891 01b0 0B       		.uleb128 0xb
 2892 01b1 0B       		.uleb128 0xb
 2893 01b2 3E       		.uleb128 0x3e
 2894 01b3 0B       		.uleb128 0xb
 2895 01b4 03       		.uleb128 0x3
 2896 01b5 08       		.uleb128 0x8
 2897 01b6 00       		.byte	0
 2898 01b7 00       		.byte	0
 2899 01b8 1A       		.uleb128 0x1a
 2900 01b9 13       		.uleb128 0x13
 2901 01ba 01       		.byte	0x1
 2902 01bb 03       		.uleb128 0x3
 2903 01bc 0E       		.uleb128 0xe
 2904 01bd 0B       		.uleb128 0xb
 2905 01be 0B       		.uleb128 0xb
 2906 01bf 3A       		.uleb128 0x3a
 2907 01c0 0B       		.uleb128 0xb
 2908 01c1 3B       		.uleb128 0x3b
 2909 01c2 0B       		.uleb128 0xb
 2910 01c3 39       		.uleb128 0x39
 2911 01c4 0B       		.uleb128 0xb
 2912 01c5 01       		.uleb128 0x1
 2913 01c6 13       		.uleb128 0x13
 2914 01c7 00       		.byte	0
 2915 01c8 00       		.byte	0
 2916 01c9 1B       		.uleb128 0x1b
 2917 01ca 01       		.uleb128 0x1
 2918 01cb 01       		.byte	0x1
 2919 01cc 49       		.uleb128 0x49
 2920 01cd 13       		.uleb128 0x13
 2921 01ce 01       		.uleb128 0x1
 2922 01cf 13       		.uleb128 0x13
 2923 01d0 00       		.byte	0
 2924 01d1 00       		.byte	0
 2925 01d2 1C       		.uleb128 0x1c
 2926 01d3 21       		.uleb128 0x21
 2927 01d4 00       		.byte	0
 2928 01d5 49       		.uleb128 0x49
 2929 01d6 13       		.uleb128 0x13
 2930 01d7 2F       		.uleb128 0x2f
 2931 01d8 0B       		.uleb128 0xb
 2932 01d9 00       		.byte	0
 2933 01da 00       		.byte	0
 2934 01db 1D       		.uleb128 0x1d
 2935 01dc 15       		.uleb128 0x15
 2936 01dd 00       		.byte	0
 2937 01de 27       		.uleb128 0x27
 2938 01df 19       		.uleb128 0x19
 2939 01e0 00       		.byte	0
 2940 01e1 00       		.byte	0
 2941 01e2 1E       		.uleb128 0x1e
 2942 01e3 34       		.uleb128 0x34
 2943 01e4 00       		.byte	0
 2944 01e5 03       		.uleb128 0x3
ARM GAS  C:\Users\DEVELO~1\AppData\Local\Temp\ccpgZ96I.s 			page 54


 2945 01e6 0E       		.uleb128 0xe
 2946 01e7 3A       		.uleb128 0x3a
 2947 01e8 0B       		.uleb128 0xb
 2948 01e9 3B       		.uleb128 0x3b
 2949 01ea 05       		.uleb128 0x5
 2950 01eb 39       		.uleb128 0x39
 2951 01ec 0B       		.uleb128 0xb
 2952 01ed 49       		.uleb128 0x49
 2953 01ee 13       		.uleb128 0x13
 2954 01ef 3F       		.uleb128 0x3f
 2955 01f0 19       		.uleb128 0x19
 2956 01f1 3C       		.uleb128 0x3c
 2957 01f2 19       		.uleb128 0x19
 2958 01f3 00       		.byte	0
 2959 01f4 00       		.byte	0
 2960 01f5 1F       		.uleb128 0x1f
 2961 01f6 34       		.uleb128 0x34
 2962 01f7 00       		.byte	0
 2963 01f8 47       		.uleb128 0x47
 2964 01f9 13       		.uleb128 0x13
 2965 01fa 3A       		.uleb128 0x3a
 2966 01fb 0B       		.uleb128 0xb
 2967 01fc 3B       		.uleb128 0x3b
 2968 01fd 0B       		.uleb128 0xb
 2969 01fe 39       		.uleb128 0x39
 2970 01ff 0B       		.uleb128 0xb
 2971 0200 02       		.uleb128 0x2
 2972 0201 18       		.uleb128 0x18
 2973 0202 00       		.byte	0
 2974 0203 00       		.byte	0
 2975 0204 20       		.uleb128 0x20
 2976 0205 2E       		.uleb128 0x2e
 2977 0206 00       		.byte	0
 2978 0207 3F       		.uleb128 0x3f
 2979 0208 19       		.uleb128 0x19
 2980 0209 03       		.uleb128 0x3
 2981 020a 0E       		.uleb128 0xe
 2982 020b 3A       		.uleb128 0x3a
 2983 020c 0B       		.uleb128 0xb
 2984 020d 3B       		.uleb128 0x3b
 2985 020e 0B       		.uleb128 0xb
 2986 020f 39       		.uleb128 0x39
 2987 0210 0B       		.uleb128 0xb
 2988 0211 27       		.uleb128 0x27
 2989 0212 19       		.uleb128 0x19
 2990 0213 49       		.uleb128 0x49
 2991 0214 13       		.uleb128 0x13
 2992 0215 3C       		.uleb128 0x3c
 2993 0216 19       		.uleb128 0x19
 2994 0217 00       		.byte	0
 2995 0218 00       		.byte	0
 2996 0219 21       		.uleb128 0x21
 2997 021a 2E       		.uleb128 0x2e
 2998 021b 01       		.byte	0x1
 2999 021c 3F       		.uleb128 0x3f
 3000 021d 19       		.uleb128 0x19
 3001 021e 03       		.uleb128 0x3
ARM GAS  C:\Users\DEVELO~1\AppData\Local\Temp\ccpgZ96I.s 			page 55


 3002 021f 0E       		.uleb128 0xe
 3003 0220 3A       		.uleb128 0x3a
 3004 0221 0B       		.uleb128 0xb
 3005 0222 3B       		.uleb128 0x3b
 3006 0223 05       		.uleb128 0x5
 3007 0224 39       		.uleb128 0x39
 3008 0225 0B       		.uleb128 0xb
 3009 0226 27       		.uleb128 0x27
 3010 0227 19       		.uleb128 0x19
 3011 0228 49       		.uleb128 0x49
 3012 0229 13       		.uleb128 0x13
 3013 022a 3C       		.uleb128 0x3c
 3014 022b 19       		.uleb128 0x19
 3015 022c 01       		.uleb128 0x1
 3016 022d 13       		.uleb128 0x13
 3017 022e 00       		.byte	0
 3018 022f 00       		.byte	0
 3019 0230 22       		.uleb128 0x22
 3020 0231 18       		.uleb128 0x18
 3021 0232 00       		.byte	0
 3022 0233 00       		.byte	0
 3023 0234 00       		.byte	0
 3024 0235 23       		.uleb128 0x23
 3025 0236 2E       		.uleb128 0x2e
 3026 0237 01       		.byte	0x1
 3027 0238 3F       		.uleb128 0x3f
 3028 0239 19       		.uleb128 0x19
 3029 023a 03       		.uleb128 0x3
 3030 023b 0E       		.uleb128 0xe
 3031 023c 3A       		.uleb128 0x3a
 3032 023d 0B       		.uleb128 0xb
 3033 023e 3B       		.uleb128 0x3b
 3034 023f 05       		.uleb128 0x5
 3035 0240 39       		.uleb128 0x39
 3036 0241 0B       		.uleb128 0xb
 3037 0242 27       		.uleb128 0x27
 3038 0243 19       		.uleb128 0x19
 3039 0244 11       		.uleb128 0x11
 3040 0245 01       		.uleb128 0x1
 3041 0246 12       		.uleb128 0x12
 3042 0247 06       		.uleb128 0x6
 3043 0248 40       		.uleb128 0x40
 3044 0249 18       		.uleb128 0x18
 3045 024a 7A       		.uleb128 0x7a
 3046 024b 19       		.uleb128 0x19
 3047 024c 01       		.uleb128 0x1
 3048 024d 13       		.uleb128 0x13
 3049 024e 00       		.byte	0
 3050 024f 00       		.byte	0
 3051 0250 24       		.uleb128 0x24
 3052 0251 2E       		.uleb128 0x2e
 3053 0252 01       		.byte	0x1
 3054 0253 3F       		.uleb128 0x3f
 3055 0254 19       		.uleb128 0x19
 3056 0255 03       		.uleb128 0x3
 3057 0256 0E       		.uleb128 0xe
 3058 0257 3A       		.uleb128 0x3a
ARM GAS  C:\Users\DEVELO~1\AppData\Local\Temp\ccpgZ96I.s 			page 56


 3059 0258 0B       		.uleb128 0xb
 3060 0259 3B       		.uleb128 0x3b
 3061 025a 0B       		.uleb128 0xb
 3062 025b 39       		.uleb128 0x39
 3063 025c 0B       		.uleb128 0xb
 3064 025d 27       		.uleb128 0x27
 3065 025e 19       		.uleb128 0x19
 3066 025f 49       		.uleb128 0x49
 3067 0260 13       		.uleb128 0x13
 3068 0261 11       		.uleb128 0x11
 3069 0262 01       		.uleb128 0x1
 3070 0263 12       		.uleb128 0x12
 3071 0264 06       		.uleb128 0x6
 3072 0265 40       		.uleb128 0x40
 3073 0266 18       		.uleb128 0x18
 3074 0267 7A       		.uleb128 0x7a
 3075 0268 19       		.uleb128 0x19
 3076 0269 01       		.uleb128 0x1
 3077 026a 13       		.uleb128 0x13
 3078 026b 00       		.byte	0
 3079 026c 00       		.byte	0
 3080 026d 25       		.uleb128 0x25
 3081 026e 0B       		.uleb128 0xb
 3082 026f 01       		.byte	0x1
 3083 0270 11       		.uleb128 0x11
 3084 0271 01       		.uleb128 0x1
 3085 0272 12       		.uleb128 0x12
 3086 0273 06       		.uleb128 0x6
 3087 0274 00       		.byte	0
 3088 0275 00       		.byte	0
 3089 0276 26       		.uleb128 0x26
 3090 0277 2E       		.uleb128 0x2e
 3091 0278 00       		.byte	0
 3092 0279 03       		.uleb128 0x3
 3093 027a 0E       		.uleb128 0xe
 3094 027b 3A       		.uleb128 0x3a
 3095 027c 0B       		.uleb128 0xb
 3096 027d 3B       		.uleb128 0x3b
 3097 027e 0B       		.uleb128 0xb
 3098 027f 39       		.uleb128 0x39
 3099 0280 0B       		.uleb128 0xb
 3100 0281 27       		.uleb128 0x27
 3101 0282 19       		.uleb128 0x19
 3102 0283 11       		.uleb128 0x11
 3103 0284 01       		.uleb128 0x1
 3104 0285 12       		.uleb128 0x12
 3105 0286 06       		.uleb128 0x6
 3106 0287 40       		.uleb128 0x40
 3107 0288 18       		.uleb128 0x18
 3108 0289 7A       		.uleb128 0x7a
 3109 028a 19       		.uleb128 0x19
 3110 028b 00       		.byte	0
 3111 028c 00       		.byte	0
 3112 028d 27       		.uleb128 0x27
 3113 028e 2E       		.uleb128 0x2e
 3114 028f 01       		.byte	0x1
 3115 0290 03       		.uleb128 0x3
ARM GAS  C:\Users\DEVELO~1\AppData\Local\Temp\ccpgZ96I.s 			page 57


 3116 0291 0E       		.uleb128 0xe
 3117 0292 3A       		.uleb128 0x3a
 3118 0293 0B       		.uleb128 0xb
 3119 0294 3B       		.uleb128 0x3b
 3120 0295 05       		.uleb128 0x5
 3121 0296 39       		.uleb128 0x39
 3122 0297 0B       		.uleb128 0xb
 3123 0298 27       		.uleb128 0x27
 3124 0299 19       		.uleb128 0x19
 3125 029a 11       		.uleb128 0x11
 3126 029b 01       		.uleb128 0x1
 3127 029c 12       		.uleb128 0x12
 3128 029d 06       		.uleb128 0x6
 3129 029e 40       		.uleb128 0x40
 3130 029f 18       		.uleb128 0x18
 3131 02a0 7C       		.uleb128 0x7c
 3132 02a1 19       		.uleb128 0x19
 3133 02a2 01       		.uleb128 0x1
 3134 02a3 13       		.uleb128 0x13
 3135 02a4 00       		.byte	0
 3136 02a5 00       		.byte	0
 3137 02a6 28       		.uleb128 0x28
 3138 02a7 2E       		.uleb128 0x2e
 3139 02a8 01       		.byte	0x1
 3140 02a9 03       		.uleb128 0x3
 3141 02aa 0E       		.uleb128 0xe
 3142 02ab 3A       		.uleb128 0x3a
 3143 02ac 0B       		.uleb128 0xb
 3144 02ad 3B       		.uleb128 0x3b
 3145 02ae 05       		.uleb128 0x5
 3146 02af 39       		.uleb128 0x39
 3147 02b0 0B       		.uleb128 0xb
 3148 02b1 27       		.uleb128 0x27
 3149 02b2 19       		.uleb128 0x19
 3150 02b3 49       		.uleb128 0x49
 3151 02b4 13       		.uleb128 0x13
 3152 02b5 11       		.uleb128 0x11
 3153 02b6 01       		.uleb128 0x1
 3154 02b7 12       		.uleb128 0x12
 3155 02b8 06       		.uleb128 0x6
 3156 02b9 40       		.uleb128 0x40
 3157 02ba 18       		.uleb128 0x18
 3158 02bb 7C       		.uleb128 0x7c
 3159 02bc 19       		.uleb128 0x19
 3160 02bd 01       		.uleb128 0x1
 3161 02be 13       		.uleb128 0x13
 3162 02bf 00       		.byte	0
 3163 02c0 00       		.byte	0
 3164 02c1 29       		.uleb128 0x29
 3165 02c2 2E       		.uleb128 0x2e
 3166 02c3 00       		.byte	0
 3167 02c4 03       		.uleb128 0x3
 3168 02c5 0E       		.uleb128 0xe
 3169 02c6 3A       		.uleb128 0x3a
 3170 02c7 0B       		.uleb128 0xb
 3171 02c8 3B       		.uleb128 0x3b
 3172 02c9 05       		.uleb128 0x5
ARM GAS  C:\Users\DEVELO~1\AppData\Local\Temp\ccpgZ96I.s 			page 58


 3173 02ca 39       		.uleb128 0x39
 3174 02cb 0B       		.uleb128 0xb
 3175 02cc 27       		.uleb128 0x27
 3176 02cd 19       		.uleb128 0x19
 3177 02ce 49       		.uleb128 0x49
 3178 02cf 13       		.uleb128 0x13
 3179 02d0 11       		.uleb128 0x11
 3180 02d1 01       		.uleb128 0x1
 3181 02d2 12       		.uleb128 0x12
 3182 02d3 06       		.uleb128 0x6
 3183 02d4 40       		.uleb128 0x40
 3184 02d5 18       		.uleb128 0x18
 3185 02d6 7C       		.uleb128 0x7c
 3186 02d7 19       		.uleb128 0x19
 3187 02d8 00       		.byte	0
 3188 02d9 00       		.byte	0
 3189 02da 2A       		.uleb128 0x2a
 3190 02db 2E       		.uleb128 0x2e
 3191 02dc 01       		.byte	0x1
 3192 02dd 03       		.uleb128 0x3
 3193 02de 0E       		.uleb128 0xe
 3194 02df 3A       		.uleb128 0x3a
 3195 02e0 0B       		.uleb128 0xb
 3196 02e1 3B       		.uleb128 0x3b
 3197 02e2 05       		.uleb128 0x5
 3198 02e3 39       		.uleb128 0x39
 3199 02e4 0B       		.uleb128 0xb
 3200 02e5 27       		.uleb128 0x27
 3201 02e6 19       		.uleb128 0x19
 3202 02e7 49       		.uleb128 0x49
 3203 02e8 13       		.uleb128 0x13
 3204 02e9 11       		.uleb128 0x11
 3205 02ea 01       		.uleb128 0x1
 3206 02eb 12       		.uleb128 0x12
 3207 02ec 06       		.uleb128 0x6
 3208 02ed 40       		.uleb128 0x40
 3209 02ee 18       		.uleb128 0x18
 3210 02ef 7A       		.uleb128 0x7a
 3211 02f0 19       		.uleb128 0x19
 3212 02f1 00       		.byte	0
 3213 02f2 00       		.byte	0
 3214 02f3 00       		.byte	0
 3215              		.section	.debug_aranges,"",%progbits
 3216 0000 BC000000 		.4byte	0xbc
 3217 0004 0200     		.2byte	0x2
 3218 0006 00000000 		.4byte	.Ldebug_info0
 3219 000a 04       		.byte	0x4
 3220 000b 00       		.byte	0
 3221 000c 0000     		.2byte	0
 3222 000e 0000     		.2byte	0
 3223 0010 00000000 		.4byte	.LFB10
 3224 0014 2C000000 		.4byte	.LFE10-.LFB10
 3225 0018 00000000 		.4byte	.LFB196
 3226 001c 0E000000 		.4byte	.LFE196-.LFB196
 3227 0020 00000000 		.4byte	.LFB209
 3228 0024 0E000000 		.4byte	.LFE209-.LFB209
 3229 0028 00000000 		.4byte	.LFB359
ARM GAS  C:\Users\DEVELO~1\AppData\Local\Temp\ccpgZ96I.s 			page 59


 3230 002c 0E000000 		.4byte	.LFE359-.LFB359
 3231 0030 00000000 		.4byte	.LFB362
 3232 0034 20000000 		.4byte	.LFE362-.LFB362
 3233 0038 00000000 		.4byte	.LFB364
 3234 003c 16000000 		.4byte	.LFE364-.LFB364
 3235 0040 00000000 		.4byte	.LFB436
 3236 0044 2C000000 		.4byte	.LFE436-.LFB436
 3237 0048 00000000 		.4byte	.LFB437
 3238 004c 1C000000 		.4byte	.LFE437-.LFB437
 3239 0050 00000000 		.4byte	.LFB438
 3240 0054 38000000 		.4byte	.LFE438-.LFB438
 3241 0058 00000000 		.4byte	.LFB439
 3242 005c 40000000 		.4byte	.LFE439-.LFB439
 3243 0060 00000000 		.4byte	.LFB440
 3244 0064 2E000000 		.4byte	.LFE440-.LFB440
 3245 0068 00000000 		.4byte	.LFB441
 3246 006c 30000000 		.4byte	.LFE441-.LFB441
 3247 0070 00000000 		.4byte	.LFB442
 3248 0074 30000000 		.4byte	.LFE442-.LFB442
 3249 0078 00000000 		.4byte	.LFB443
 3250 007c 20020000 		.4byte	.LFE443-.LFB443
 3251 0080 00000000 		.4byte	.LFB444
 3252 0084 2C000000 		.4byte	.LFE444-.LFB444
 3253 0088 00000000 		.4byte	.LFB445
 3254 008c 2C000000 		.4byte	.LFE445-.LFB445
 3255 0090 00000000 		.4byte	.LFB446
 3256 0094 60000000 		.4byte	.LFE446-.LFB446
 3257 0098 00000000 		.4byte	.LFB447
 3258 009c 30000000 		.4byte	.LFE447-.LFB447
 3259 00a0 00000000 		.4byte	.LFB448
 3260 00a4 34000000 		.4byte	.LFE448-.LFB448
 3261 00a8 00000000 		.4byte	.LFB449
 3262 00ac 2C000000 		.4byte	.LFE449-.LFB449
 3263 00b0 00000000 		.4byte	.LFB450
 3264 00b4 30000000 		.4byte	.LFE450-.LFB450
 3265 00b8 00000000 		.4byte	0
 3266 00bc 00000000 		.4byte	0
 3267              		.section	.debug_rnglists,"",%progbits
 3268              	.Ldebug_ranges0:
 3269 0000 88000000 		.4byte	.Ldebug_ranges3-.Ldebug_ranges2
 3270              	.Ldebug_ranges2:
 3271 0004 0500     		.2byte	0x5
 3272 0006 04       		.byte	0x4
 3273 0007 00       		.byte	0
 3274 0008 00000000 		.4byte	0
 3275              	.LLRL0:
 3276 000c 07       		.byte	0x7
 3277 000d 00000000 		.4byte	.LFB10
 3278 0011 2C       		.uleb128 .LFE10-.LFB10
 3279 0012 07       		.byte	0x7
 3280 0013 00000000 		.4byte	.LFB196
 3281 0017 0E       		.uleb128 .LFE196-.LFB196
 3282 0018 07       		.byte	0x7
 3283 0019 00000000 		.4byte	.LFB209
 3284 001d 0E       		.uleb128 .LFE209-.LFB209
 3285 001e 07       		.byte	0x7
 3286 001f 00000000 		.4byte	.LFB359
ARM GAS  C:\Users\DEVELO~1\AppData\Local\Temp\ccpgZ96I.s 			page 60


 3287 0023 0E       		.uleb128 .LFE359-.LFB359
 3288 0024 07       		.byte	0x7
 3289 0025 00000000 		.4byte	.LFB362
 3290 0029 20       		.uleb128 .LFE362-.LFB362
 3291 002a 07       		.byte	0x7
 3292 002b 00000000 		.4byte	.LFB364
 3293 002f 16       		.uleb128 .LFE364-.LFB364
 3294 0030 07       		.byte	0x7
 3295 0031 00000000 		.4byte	.LFB436
 3296 0035 2C       		.uleb128 .LFE436-.LFB436
 3297 0036 07       		.byte	0x7
 3298 0037 00000000 		.4byte	.LFB437
 3299 003b 1C       		.uleb128 .LFE437-.LFB437
 3300 003c 07       		.byte	0x7
 3301 003d 00000000 		.4byte	.LFB438
 3302 0041 38       		.uleb128 .LFE438-.LFB438
 3303 0042 07       		.byte	0x7
 3304 0043 00000000 		.4byte	.LFB439
 3305 0047 40       		.uleb128 .LFE439-.LFB439
 3306 0048 07       		.byte	0x7
 3307 0049 00000000 		.4byte	.LFB440
 3308 004d 2E       		.uleb128 .LFE440-.LFB440
 3309 004e 07       		.byte	0x7
 3310 004f 00000000 		.4byte	.LFB441
 3311 0053 30       		.uleb128 .LFE441-.LFB441
 3312 0054 07       		.byte	0x7
 3313 0055 00000000 		.4byte	.LFB442
 3314 0059 30       		.uleb128 .LFE442-.LFB442
 3315 005a 07       		.byte	0x7
 3316 005b 00000000 		.4byte	.LFB443
 3317 005f A004     		.uleb128 .LFE443-.LFB443
 3318 0061 07       		.byte	0x7
 3319 0062 00000000 		.4byte	.LFB444
 3320 0066 2C       		.uleb128 .LFE444-.LFB444
 3321 0067 07       		.byte	0x7
 3322 0068 00000000 		.4byte	.LFB445
 3323 006c 2C       		.uleb128 .LFE445-.LFB445
 3324 006d 07       		.byte	0x7
 3325 006e 00000000 		.4byte	.LFB446
 3326 0072 60       		.uleb128 .LFE446-.LFB446
 3327 0073 07       		.byte	0x7
 3328 0074 00000000 		.4byte	.LFB447
 3329 0078 30       		.uleb128 .LFE447-.LFB447
 3330 0079 07       		.byte	0x7
 3331 007a 00000000 		.4byte	.LFB448
 3332 007e 34       		.uleb128 .LFE448-.LFB448
 3333 007f 07       		.byte	0x7
 3334 0080 00000000 		.4byte	.LFB449
 3335 0084 2C       		.uleb128 .LFE449-.LFB449
 3336 0085 07       		.byte	0x7
 3337 0086 00000000 		.4byte	.LFB450
 3338 008a 30       		.uleb128 .LFE450-.LFB450
 3339 008b 00       		.byte	0
 3340              	.Ldebug_ranges3:
 3341              		.section	.debug_line,"",%progbits
 3342              	.Ldebug_line0:
 3343 0000 E3050000 		.section	.debug_str,"MS",%progbits,1
ARM GAS  C:\Users\DEVELO~1\AppData\Local\Temp\ccpgZ96I.s 			page 61


 3343      03004602 
 3343      00000201 
 3343      FB0E0D00 
 3343      01010101 
 3344              	.LASF53:
 3345 0000 746F6B65 		.ascii	"token\000"
 3345      6E00
 3346              	.LASF38:
 3347 0006 63685F74 		.ascii	"ch_test_context_t\000"
 3347      6573745F 
 3347      636F6E74 
 3347      6578745F 
 3347      7400
 3348              	.LASF66:
 3349 0018 5F5F726F 		.ascii	"__rodata_base__\000"
 3349      64617461 
 3349      5F626173 
 3349      655F5F00 
 3350              	.LASF35:
 3351 0028 746F6B65 		.ascii	"tokens_buffer\000"
 3351      6E735F62 
 3351      75666665 
 3351      7200
 3352              	.LASF26:
 3353 0036 77726974 		.ascii	"write\000"
 3353      6500
 3354              	.LASF83:
 3355 003c 6F73616C 		.ascii	"osalOsGetSystemTimeX\000"
 3355      4F734765 
 3355      74537973 
 3355      74656D54 
 3355      696D6558 
 3356              	.LASF87:
 3357 0051 474E5520 		.ascii	"GNU C17 11.3.1 20220712 -mcpu=cortex-m7 -mthumb -mf"
 3357      43313720 
 3357      31312E33 
 3357      2E312032 
 3357      30323230 
 3358 0084 6C6F6174 		.ascii	"loat-abi=soft -march=armv7e-m -ggdb -O0 -ffunction-"
 3358      2D616269 
 3358      3D736F66 
 3358      74202D6D 
 3358      61726368 
 3359 00b7 73656374 		.ascii	"sections -fdata-sections -fno-common\000"
 3359      696F6E73 
 3359      202D6664 
 3359      6174612D 
 3359      73656374 
 3360              	.LASF60:
 3361 00dc 5F5F7465 		.ascii	"__test_fail\000"
 3361      73745F66 
 3361      61696C00 
 3362              	.LASF7:
 3363 00e8 73686F72 		.ascii	"short int\000"
 3363      7420696E 
 3363      7400
 3364              	.LASF4:
ARM GAS  C:\Users\DEVELO~1\AppData\Local\Temp\ccpgZ96I.s 			page 62


 3365 00f2 73697A65 		.ascii	"size_t\000"
 3365      5F7400
 3366              	.LASF30:
 3367 00f9 63757272 		.ascii	"current_step\000"
 3367      656E745F 
 3367      73746570 
 3367      00
 3368              	.LASF31:
 3369 0106 676C6F62 		.ascii	"global_fail\000"
 3369      616C5F66 
 3369      61696C00 
 3370              	.LASF47:
 3371 0112 74657374 		.ascii	"testsuite_t\000"
 3371      73756974 
 3371      655F7400 
 3372              	.LASF36:
 3373 011e 70757463 		.ascii	"putchar\000"
 3373      68617200 
 3374              	.LASF84:
 3375 0126 63685654 		.ascii	"chVTGetSystemTimeX\000"
 3375      47657453 
 3375      79737465 
 3375      6D54696D 
 3375      655800
 3376              	.LASF28:
 3377 0139 42617365 		.ascii	"BaseSequentialStream\000"
 3377      53657175 
 3377      656E7469 
 3377      616C5374 
 3377      7265616D 
 3378              	.LASF63:
 3379 014e 63687465 		.ascii	"chtest\000"
 3379      737400
 3380              	.LASF48:
 3381 0155 63685468 		.ascii	"chThdSleep\000"
 3381      64536C65 
 3381      657000
 3382              	.LASF2:
 3383 0160 6C6F6E67 		.ascii	"long double\000"
 3383      20646F75 
 3383      626C6500 
 3384              	.LASF11:
 3385 016c 5F5F7569 		.ascii	"__uint32_t\000"
 3385      6E743332 
 3385      5F7400
 3386              	.LASF80:
 3387 0177 64656C61 		.ascii	"delay\000"
 3387      7900
 3388              	.LASF45:
 3389 017d 74657374 		.ascii	"testsequence_t\000"
 3389      73657175 
 3389      656E6365 
 3389      5F7400
 3390              	.LASF43:
 3391 018c 74657374 		.ascii	"testcase_t\000"
 3391      63617365 
 3391      5F7400
ARM GAS  C:\Users\DEVELO~1\AppData\Local\Temp\ccpgZ96I.s 			page 63


 3392              	.LASF65:
 3393 0197 5F5F7465 		.ascii	"__text_end__\000"
 3393      78745F65 
 3393      6E645F5F 
 3393      00
 3394              	.LASF55:
 3395 01a4 73746172 		.ascii	"start\000"
 3395      7400
 3396              	.LASF15:
 3397 01aa 75696E74 		.ascii	"uint8_t\000"
 3397      385F7400 
 3398              	.LASF29:
 3399 01b2 74657374 		.ascii	"test_putchar_t\000"
 3399      5F707574 
 3399      63686172 
 3399      5F7400
 3400              	.LASF78:
 3401 01c1 74657374 		.ascii	"test_stream_putchar\000"
 3401      5F737472 
 3401      65616D5F 
 3401      70757463 
 3401      68617200 
 3402              	.LASF68:
 3403 01d5 5F5F6461 		.ascii	"__data_base__\000"
 3403      74615F62 
 3403      6173655F 
 3403      5F00
 3404              	.LASF77:
 3405 01e3 74657374 		.ascii	"test_execute_inner\000"
 3405      5F657865 
 3405      63757465 
 3405      5F696E6E 
 3405      657200
 3406              	.LASF40:
 3407 01f6 73657475 		.ascii	"setup\000"
 3407      7000
 3408              	.LASF58:
 3409 01fc 5F5F7465 		.ascii	"__test_assert\000"
 3409      73745F61 
 3409      73736572 
 3409      7400
 3410              	.LASF74:
 3411 020a 74657374 		.ascii	"test_print_string\000"
 3411      5F707269 
 3411      6E745F73 
 3411      7472696E 
 3411      6700
 3412              	.LASF27:
 3413 021c 72656164 		.ascii	"read\000"
 3413      00
 3414              	.LASF1:
 3415 0221 6C6F6E67 		.ascii	"long long int\000"
 3415      206C6F6E 
 3415      6720696E 
 3415      7400
 3416              	.LASF61:
 3417 022f 74736571 		.ascii	"tseq\000"
ARM GAS  C:\Users\DEVELO~1\AppData\Local\Temp\ccpgZ96I.s 			page 64


 3417      00
 3418              	.LASF86:
 3419 0234 63685469 		.ascii	"chTimeIsInRangeX\000"
 3419      6D654973 
 3419      496E5261 
 3419      6E676558 
 3419      00
 3420              	.LASF25:
 3421 0245 696E7374 		.ascii	"instance_offset\000"
 3421      616E6365 
 3421      5F6F6666 
 3421      73657400 
 3422              	.LASF33:
 3423 0255 6661696C 		.ascii	"failure_message\000"
 3423      7572655F 
 3423      6D657373 
 3423      61676500 
 3424              	.LASF34:
 3425 0265 746F6B70 		.ascii	"tokp\000"
 3425      00
 3426              	.LASF37:
 3427 026a 73747265 		.ascii	"stream\000"
 3427      616D00
 3428              	.LASF5:
 3429 0271 5F5F7569 		.ascii	"__uint8_t\000"
 3429      6E74385F 
 3429      7400
 3430              	.LASF41:
 3431 027b 74656172 		.ascii	"teardown\000"
 3431      646F776E 
 3431      00
 3432              	.LASF69:
 3433 0284 5F5F6461 		.ascii	"__data_end__\000"
 3433      74615F65 
 3433      6E645F5F 
 3433      00
 3434              	.LASF56:
 3435 0291 5F5F7465 		.ascii	"__test_assert_sequence\000"
 3435      73745F61 
 3435      73736572 
 3435      745F7365 
 3435      7175656E 
 3436              	.LASF50:
 3437 02a8 74657374 		.ascii	"test_execute_stream\000"
 3437      5F657865 
 3437      63757465 
 3437      5F737472 
 3437      65616D00 
 3438              	.LASF6:
 3439 02bc 756E7369 		.ascii	"unsigned char\000"
 3439      676E6564 
 3439      20636861 
 3439      7200
 3440              	.LASF32:
 3441 02ca 6C6F6361 		.ascii	"local_fail\000"
 3441      6C5F6661 
 3441      696C00
ARM GAS  C:\Users\DEVELO~1\AppData\Local\Temp\ccpgZ96I.s 			page 65


 3442              	.LASF71:
 3443 02d5 5F5F6273 		.ascii	"__bss_end__\000"
 3443      735F656E 
 3443      645F5F00 
 3444              	.LASF64:
 3445 02e1 5F5F7465 		.ascii	"__text_base__\000"
 3445      78745F62 
 3445      6173655F 
 3445      5F00
 3446              	.LASF3:
 3447 02ef 7369676E 		.ascii	"signed char\000"
 3447      65642063 
 3447      68617200 
 3448              	.LASF18:
 3449 02fb 75696E74 		.ascii	"uint64_t\000"
 3449      36345F74 
 3449      00
 3450              	.LASF14:
 3451 0304 6C6F6E67 		.ascii	"long long unsigned int\000"
 3451      206C6F6E 
 3451      6720756E 
 3451      7369676E 
 3451      65642069 
 3452              	.LASF17:
 3453 031b 75696E74 		.ascii	"uint32_t\000"
 3453      33325F74 
 3453      00
 3454              	.LASF0:
 3455 0324 756E7369 		.ascii	"unsigned int\000"
 3455      676E6564 
 3455      20696E74 
 3455      00
 3456              	.LASF73:
 3457 0331 74657374 		.ascii	"test_print_line\000"
 3457      5F707269 
 3457      6E745F6C 
 3457      696E6500 
 3458              	.LASF82:
 3459 0341 74696D65 		.ascii	"time\000"
 3459      00
 3460              	.LASF44:
 3461 0346 63617365 		.ascii	"cases\000"
 3461      7300
 3462              	.LASF49:
 3463 034c 74657374 		.ascii	"test_putchar\000"
 3463      5F707574 
 3463      63686172 
 3463      00
 3464              	.LASF8:
 3465 0359 73686F72 		.ascii	"short unsigned int\000"
 3465      7420756E 
 3465      7369676E 
 3465      65642069 
 3465      6E7400
 3466              	.LASF70:
 3467 036c 5F5F6273 		.ascii	"__bss_base__\000"
 3467      735F6261 
ARM GAS  C:\Users\DEVELO~1\AppData\Local\Temp\ccpgZ96I.s 			page 66


 3467      73655F5F 
 3467      00
 3468              	.LASF59:
 3469 0379 636F6E64 		.ascii	"condition\000"
 3469      6974696F 
 3469      6E00
 3470              	.LASF21:
 3471 0383 73797374 		.ascii	"systime_t\000"
 3471      696D655F 
 3471      7400
 3472              	.LASF79:
 3473 038d 6F73616C 		.ascii	"osalThreadSleep\000"
 3473      54687265 
 3473      6164536C 
 3473      65657000 
 3474              	.LASF20:
 3475 039d 63686172 		.ascii	"char\000"
 3475      00
 3476              	.LASF10:
 3477 03a2 6C6F6E67 		.ascii	"long int\000"
 3477      20696E74 
 3477      00
 3478              	.LASF16:
 3479 03ab 696E7433 		.ascii	"int32_t\000"
 3479      325F7400 
 3480              	.LASF54:
 3481 03b3 5F5F7465 		.ascii	"__test_assert_time_window\000"
 3481      73745F61 
 3481      73736572 
 3481      745F7469 
 3481      6D655F77 
 3482              	.LASF72:
 3483 03cd 74657374 		.ascii	"test_print_fat_line\000"
 3483      5F707269 
 3483      6E745F66 
 3483      61745F6C 
 3483      696E6500 
 3484              	.LASF24:
 3485 03e1 5F426F6F 		.ascii	"_Bool\000"
 3485      6C00
 3486              	.LASF22:
 3487 03e7 73797369 		.ascii	"sysinterval_t\000"
 3487      6E746572 
 3487      76616C5F 
 3487      7400
 3488              	.LASF13:
 3489 03f5 5F5F7569 		.ascii	"__uint64_t\000"
 3489      6E743634 
 3489      5F7400
 3490              	.LASF85:
 3491 0400 706F7274 		.ascii	"port_timer_get_time\000"
 3491      5F74696D 
 3491      65725F67 
 3491      65745F74 
 3491      696D6500 
 3492              	.LASF57:
 3493 0414 65787065 		.ascii	"expected\000"
ARM GAS  C:\Users\DEVELO~1\AppData\Local\Temp\ccpgZ96I.s 			page 67


 3493      63746564 
 3493      00
 3494              	.LASF12:
 3495 041d 6C6F6E67 		.ascii	"long unsigned int\000"
 3495      20756E73 
 3495      69676E65 
 3495      6420696E 
 3495      7400
 3496              	.LASF62:
 3497 042f 74636173 		.ascii	"tcase\000"
 3497      6500
 3498              	.LASF51:
 3499 0435 74657374 		.ascii	"test_execute_putchar\000"
 3499      5F657865 
 3499      63757465 
 3499      5F707574 
 3499      63686172 
 3500              	.LASF52:
 3501 044a 70757466 		.ascii	"putfunc\000"
 3501      756E6300 
 3502              	.LASF9:
 3503 0452 5F5F696E 		.ascii	"__int32_t\000"
 3503      7433325F 
 3503      7400
 3504              	.LASF94:
 3505 045c 74657374 		.ascii	"test_clear_tokens\000"
 3505      5F636C65 
 3505      61725F74 
 3505      6F6B656E 
 3505      7300
 3506              	.LASF23:
 3507 046e 74696D65 		.ascii	"time_conv_t\000"
 3507      5F636F6E 
 3507      765F7400 
 3508              	.LASF46:
 3509 047a 73657175 		.ascii	"sequences\000"
 3509      656E6365 
 3509      7300
 3510              	.LASF88:
 3511 0484 2E2E2F2E 		.ascii	"../../../os/test/src/ch_test.c\000"
 3511      2E2F2E2E 
 3511      2F6F732F 
 3511      74657374 
 3511      2F737263 
 3512              	.LASF39:
 3513 04a3 6E616D65 		.ascii	"name\000"
 3513      00
 3514              	.LASF67:
 3515 04a8 5F5F726F 		.ascii	"__rodata_end__\000"
 3515      64617461 
 3515      5F656E64 
 3515      5F5F00
 3516              	.LASF92:
 3517 04b7 74657374 		.ascii	"test_printf\000"
 3517      5F707269 
 3517      6E746600 
 3518              	.LASF89:
ARM GAS  C:\Users\DEVELO~1\AppData\Local\Temp\ccpgZ96I.s 			page 68


 3519 04c3 433A5C50 		.ascii	"C:\\PROJET\\ChibiOS project\\ChibiOS_21.11.4\\demos"
 3519      524F4A45 
 3519      545C4368 
 3519      6962694F 
 3519      53207072 
 3520 04f2 5C53544D 		.ascii	"\\STM32\\RT-STM32H743ZI_REV_XY-NUCLEO144_Quartz8M\000"
 3520      33325C52 
 3520      542D5354 
 3520      4D333248 
 3520      3734335A 
 3521              	.LASF81:
 3522 0522 6F73616C 		.ascii	"osalTimeIsInRangeX\000"
 3522      54696D65 
 3522      4973496E 
 3522      52616E67 
 3522      655800
 3523              	.LASF42:
 3524 0535 65786563 		.ascii	"execute\000"
 3524      75746500 
 3525              	.LASF75:
 3526 053d 74657374 		.ascii	"test_execute_case\000"
 3526      5F657865 
 3526      63757465 
 3526      5F636173 
 3526      6500
 3527              	.LASF93:
 3528 054f 74657374 		.ascii	"test_emit_token\000"
 3528      5F656D69 
 3528      745F746F 
 3528      6B656E00 
 3529              	.LASF76:
 3530 055f 74657374 		.ascii	"test_print_tokens\000"
 3530      5F707269 
 3530      6E745F74 
 3530      6F6B656E 
 3530      7300
 3531              	.LASF19:
 3532 0571 6D73675F 		.ascii	"msg_t\000"
 3532      7400
 3533              	.LASF90:
 3534 0577 42617365 		.ascii	"BaseSequentialStreamVMT\000"
 3534      53657175 
 3534      656E7469 
 3534      616C5374 
 3534      7265616D 
 3535              	.LASF91:
 3536 058f 73744765 		.ascii	"stGetCounter\000"
 3536      74436F75 
 3536      6E746572 
 3536      00
 3537              		.ident	"GCC: (Arm GNU Toolchain 11.3.Rel1) 11.3.1 20220712"
ARM GAS  C:\Users\DEVELO~1\AppData\Local\Temp\ccpgZ96I.s 			page 69


DEFINED SYMBOLS
                            *ABS*:00000000 ch_test.c
C:\Users\DEVELO~1\AppData\Local\Temp\ccpgZ96I.s:18     .text.chTimeIsInRangeX:00000000 $t
C:\Users\DEVELO~1\AppData\Local\Temp\ccpgZ96I.s:23     .text.chTimeIsInRangeX:00000000 chTimeIsInRangeX
C:\Users\DEVELO~1\AppData\Local\Temp\ccpgZ96I.s:70     .text.port_timer_get_time:00000000 $t
C:\Users\DEVELO~1\AppData\Local\Temp\ccpgZ96I.s:75     .text.port_timer_get_time:00000000 port_timer_get_time
C:\Users\DEVELO~1\AppData\Local\Temp\ccpgZ96I.s:98     .text.chVTGetSystemTimeX:00000000 $t
C:\Users\DEVELO~1\AppData\Local\Temp\ccpgZ96I.s:103    .text.chVTGetSystemTimeX:00000000 chVTGetSystemTimeX
C:\Users\DEVELO~1\AppData\Local\Temp\ccpgZ96I.s:126    .text.osalOsGetSystemTimeX:00000000 $t
C:\Users\DEVELO~1\AppData\Local\Temp\ccpgZ96I.s:131    .text.osalOsGetSystemTimeX:00000000 osalOsGetSystemTimeX
C:\Users\DEVELO~1\AppData\Local\Temp\ccpgZ96I.s:154    .text.osalTimeIsInRangeX:00000000 $t
C:\Users\DEVELO~1\AppData\Local\Temp\ccpgZ96I.s:159    .text.osalTimeIsInRangeX:00000000 osalTimeIsInRangeX
C:\Users\DEVELO~1\AppData\Local\Temp\ccpgZ96I.s:194    .text.osalThreadSleep:00000000 $t
C:\Users\DEVELO~1\AppData\Local\Temp\ccpgZ96I.s:199    .text.osalThreadSleep:00000000 osalThreadSleep
C:\Users\DEVELO~1\AppData\Local\Temp\ccpgZ96I.s:233    .bss.chtest:00000000 chtest
C:\Users\DEVELO~1\AppData\Local\Temp\ccpgZ96I.s:230    .bss.chtest:00000000 $d
C:\Users\DEVELO~1\AppData\Local\Temp\ccpgZ96I.s:236    .text.test_stream_putchar:00000000 $t
C:\Users\DEVELO~1\AppData\Local\Temp\ccpgZ96I.s:241    .text.test_stream_putchar:00000000 test_stream_putchar
C:\Users\DEVELO~1\AppData\Local\Temp\ccpgZ96I.s:282    .text.test_stream_putchar:00000028 $d
C:\Users\DEVELO~1\AppData\Local\Temp\ccpgZ96I.s:287    .text.test_clear_tokens:00000000 $t
C:\Users\DEVELO~1\AppData\Local\Temp\ccpgZ96I.s:292    .text.test_clear_tokens:00000000 test_clear_tokens
C:\Users\DEVELO~1\AppData\Local\Temp\ccpgZ96I.s:320    .text.test_clear_tokens:00000014 $d
C:\Users\DEVELO~1\AppData\Local\Temp\ccpgZ96I.s:326    .text.test_print_tokens:00000000 $t
C:\Users\DEVELO~1\AppData\Local\Temp\ccpgZ96I.s:331    .text.test_print_tokens:00000000 test_print_tokens
C:\Users\DEVELO~1\AppData\Local\Temp\ccpgZ96I.s:379    .text.test_print_tokens:00000030 $d
C:\Users\DEVELO~1\AppData\Local\Temp\ccpgZ96I.s:385    .text.test_execute_case:00000000 $t
C:\Users\DEVELO~1\AppData\Local\Temp\ccpgZ96I.s:390    .text.test_execute_case:00000000 test_execute_case
C:\Users\DEVELO~1\AppData\Local\Temp\ccpgZ96I.s:454    .text.test_execute_case:0000003c $d
C:\Users\DEVELO~1\AppData\Local\Temp\ccpgZ96I.s:459    .text.test_print_string:00000000 $t
C:\Users\DEVELO~1\AppData\Local\Temp\ccpgZ96I.s:464    .text.test_print_string:00000000 test_print_string
C:\Users\DEVELO~1\AppData\Local\Temp\ccpgZ96I.s:512    .rodata:00000000 $d
C:\Users\DEVELO~1\AppData\Local\Temp\ccpgZ96I.s:516    .text.test_print_line:00000000 $t
C:\Users\DEVELO~1\AppData\Local\Temp\ccpgZ96I.s:521    .text.test_print_line:00000000 test_print_line
C:\Users\DEVELO~1\AppData\Local\Temp\ccpgZ96I.s:567    .text.test_print_line:0000002c $d
C:\Users\DEVELO~1\AppData\Local\Temp\ccpgZ96I.s:572    .text.test_print_fat_line:00000000 $t
C:\Users\DEVELO~1\AppData\Local\Temp\ccpgZ96I.s:577    .text.test_print_fat_line:00000000 test_print_fat_line
C:\Users\DEVELO~1\AppData\Local\Temp\ccpgZ96I.s:623    .text.test_print_fat_line:0000002c $d
C:\Users\DEVELO~1\AppData\Local\Temp\ccpgZ96I.s:696    .text.test_execute_inner:00000000 $t
C:\Users\DEVELO~1\AppData\Local\Temp\ccpgZ96I.s:701    .text.test_execute_inner:00000000 test_execute_inner
C:\Users\DEVELO~1\AppData\Local\Temp\ccpgZ96I.s:976    .text.test_execute_inner:000001a0 $d
C:\Users\DEVELO~1\AppData\Local\Temp\ccpgZ96I.s:1012   .text.__test_fail:00000000 $t
C:\Users\DEVELO~1\AppData\Local\Temp\ccpgZ96I.s:1018   .text.__test_fail:00000000 __test_fail
C:\Users\DEVELO~1\AppData\Local\Temp\ccpgZ96I.s:1061   .text.__test_fail:00000028 $d
C:\Users\DEVELO~1\AppData\Local\Temp\ccpgZ96I.s:1066   .text.__test_assert:00000000 $t
C:\Users\DEVELO~1\AppData\Local\Temp\ccpgZ96I.s:1072   .text.__test_assert:00000000 __test_assert
C:\Users\DEVELO~1\AppData\Local\Temp\ccpgZ96I.s:1117   .text.__test_assert_sequence:00000000 $t
C:\Users\DEVELO~1\AppData\Local\Temp\ccpgZ96I.s:1123   .text.__test_assert_sequence:00000000 __test_assert_sequence
C:\Users\DEVELO~1\AppData\Local\Temp\ccpgZ96I.s:1201   .text.__test_assert_sequence:00000058 $d
C:\Users\DEVELO~1\AppData\Local\Temp\ccpgZ96I.s:1207   .text.__test_assert_time_window:00000000 $t
C:\Users\DEVELO~1\AppData\Local\Temp\ccpgZ96I.s:1213   .text.__test_assert_time_window:00000000 __test_assert_time_window
C:\Users\DEVELO~1\AppData\Local\Temp\ccpgZ96I.s:1254   .text.test_emit_token:00000000 $t
C:\Users\DEVELO~1\AppData\Local\Temp\ccpgZ96I.s:1260   .text.test_emit_token:00000000 test_emit_token
C:\Users\DEVELO~1\AppData\Local\Temp\ccpgZ96I.s:1308   .text.test_emit_token:0000002c $d
C:\Users\DEVELO~1\AppData\Local\Temp\ccpgZ96I.s:1314   .text.test_execute_putchar:00000000 $t
C:\Users\DEVELO~1\AppData\Local\Temp\ccpgZ96I.s:1320   .text.test_execute_putchar:00000000 test_execute_putchar
C:\Users\DEVELO~1\AppData\Local\Temp\ccpgZ96I.s:1359   .text.test_execute_putchar:00000028 $d
C:\Users\DEVELO~1\AppData\Local\Temp\ccpgZ96I.s:1364   .text.test_execute_stream:00000000 $t
ARM GAS  C:\Users\DEVELO~1\AppData\Local\Temp\ccpgZ96I.s 			page 70


C:\Users\DEVELO~1\AppData\Local\Temp\ccpgZ96I.s:1370   .text.test_execute_stream:00000000 test_execute_stream
C:\Users\DEVELO~1\AppData\Local\Temp\ccpgZ96I.s:1409   .text.test_execute_stream:00000028 $d

UNDEFINED SYMBOLS
stGetCounter
chThdSleep
test_putchar
test_printf
__text_end__
__text_base__
__rodata_end__
__rodata_base__
__data_end__
__data_base__
__bss_end__
__bss_base__
