ARM GAS  C:\Users\DEVELO~1\AppData\Local\Temp\ccnM79MG.s 			page 1


   1              		.cpu cortex-m7
   2              		.arch armv7e-m
   3              		.fpu softvfp
   4              		.eabi_attribute 20, 1
   5              		.eabi_attribute 21, 1
   6              		.eabi_attribute 23, 3
   7              		.eabi_attribute 24, 1
   8              		.eabi_attribute 25, 1
   9              		.eabi_attribute 26, 1
  10              		.eabi_attribute 30, 6
  11              		.eabi_attribute 34, 1
  12              		.eabi_attribute 18, 4
  13              		.file	"chcore.c"
  14              		.text
  15              	.Ltext0:
  16              		.cfi_sections	.debug_frame
  17              		.section	.text.__NVIC_SetPriorityGrouping,"ax",%progbits
  18              		.align	1
  19              		.syntax unified
  20              		.thumb
  21              		.thumb_func
  22              		.type	__NVIC_SetPriorityGrouping, %function
  23              	__NVIC_SetPriorityGrouping:
  24              	.LFB142:
  25              		.file 1 "../../../os/common/ext/ARM/CMSIS/Core/Include/core_cm7.h"
  26              		.loc 1 1866 1
  27              		.cfi_startproc
  28              		@ args = 0, pretend = 0, frame = 16
  29              		@ frame_needed = 1, uses_anonymous_args = 0
  30              		@ link register save eliminated.
  31 0000 80B4     		push	{r7}
  32              		.cfi_def_cfa_offset 4
  33              		.cfi_offset 7, -4
  34 0002 85B0     		sub	sp, sp, #20
  35              		.cfi_def_cfa_offset 24
  36 0004 00AF     		add	r7, sp, #0
  37              		.cfi_def_cfa_register 7
  38 0006 7860     		str	r0, [r7, #4]
  39              		.loc 1 1868 12
  40 0008 7B68     		ldr	r3, [r7, #4]
  41 000a 03F00703 		and	r3, r3, #7
  42 000e FB60     		str	r3, [r7, #12]
  43              		.loc 1 1870 20
  44 0010 0B4B     		ldr	r3, .L2
  45              		.loc 1 1870 14
  46 0012 DB68     		ldr	r3, [r3, #12]
  47 0014 BB60     		str	r3, [r7, #8]
  48              		.loc 1 1871 13
  49 0016 BA68     		ldr	r2, [r7, #8]
  50 0018 4FF6FF03 		movw	r3, #63743
  51 001c 1340     		ands	r3, r3, r2
  52 001e BB60     		str	r3, [r7, #8]
  53              		.loc 1 1874 35
  54 0020 FB68     		ldr	r3, [r7, #12]
  55 0022 1A02     		lsls	r2, r3, #8
  56              		.loc 1 1873 62
  57 0024 BB68     		ldr	r3, [r7, #8]
ARM GAS  C:\Users\DEVELO~1\AppData\Local\Temp\ccnM79MG.s 			page 2


  58 0026 1A43     		orrs	r2, r2, r3
  59              		.loc 1 1872 14
  60 0028 064B     		ldr	r3, .L2+4
  61 002a 1343     		orrs	r3, r3, r2
  62 002c BB60     		str	r3, [r7, #8]
  63              		.loc 1 1875 6
  64 002e 044A     		ldr	r2, .L2
  65              		.loc 1 1875 14
  66 0030 BB68     		ldr	r3, [r7, #8]
  67 0032 D360     		str	r3, [r2, #12]
  68              		.loc 1 1876 1
  69 0034 00BF     		nop
  70 0036 1437     		adds	r7, r7, #20
  71              		.cfi_def_cfa_offset 4
  72 0038 BD46     		mov	sp, r7
  73              		.cfi_def_cfa_register 13
  74              		@ sp needed
  75 003a 80BC     		pop	{r7}
  76              		.cfi_restore 7
  77              		.cfi_def_cfa_offset 0
  78 003c 7047     		bx	lr
  79              	.L3:
  80 003e 00BF     		.align	2
  81              	.L2:
  82 0040 00ED00E0 		.word	-536810240
  83 0044 0000FA05 		.word	100270080
  84              		.cfi_endproc
  85              	.LFE142:
  86              		.size	__NVIC_SetPriorityGrouping, .-__NVIC_SetPriorityGrouping
  87              		.section	.text.__NVIC_SetPriority,"ax",%progbits
  88              		.align	1
  89              		.syntax unified
  90              		.thumb
  91              		.thumb_func
  92              		.type	__NVIC_SetPriority, %function
  93              	__NVIC_SetPriority:
  94              	.LFB151:
  95              		.loc 1 2025 1
  96              		.cfi_startproc
  97              		@ args = 0, pretend = 0, frame = 8
  98              		@ frame_needed = 1, uses_anonymous_args = 0
  99              		@ link register save eliminated.
 100 0000 80B4     		push	{r7}
 101              		.cfi_def_cfa_offset 4
 102              		.cfi_offset 7, -4
 103 0002 83B0     		sub	sp, sp, #12
 104              		.cfi_def_cfa_offset 16
 105 0004 00AF     		add	r7, sp, #0
 106              		.cfi_def_cfa_register 7
 107 0006 0346     		mov	r3, r0
 108 0008 3960     		str	r1, [r7]
 109 000a FB80     		strh	r3, [r7, #6]	@ movhi
 110              		.loc 1 2026 6
 111 000c B7F90630 		ldrsh	r3, [r7, #6]
 112 0010 002B     		cmp	r3, #0
 113 0012 0ADB     		blt	.L5
 114              		.loc 1 2028 49
ARM GAS  C:\Users\DEVELO~1\AppData\Local\Temp\ccnM79MG.s 			page 3


 115 0014 3B68     		ldr	r3, [r7]
 116 0016 DAB2     		uxtb	r2, r3
 117              		.loc 1 2028 9
 118 0018 0C49     		ldr	r1, .L8
 119              		.loc 1 2028 15
 120 001a B7F90630 		ldrsh	r3, [r7, #6]
 121              		.loc 1 2028 49
 122 001e 1201     		lsls	r2, r2, #4
 123 0020 D2B2     		uxtb	r2, r2
 124              		.loc 1 2028 47
 125 0022 0B44     		add	r3, r3, r1
 126 0024 83F80023 		strb	r2, [r3, #768]
 127              		.loc 1 2034 1
 128 0028 0AE0     		b	.L7
 129              	.L5:
 130              		.loc 1 2032 49
 131 002a 3B68     		ldr	r3, [r7]
 132 002c DAB2     		uxtb	r2, r3
 133              		.loc 1 2032 8
 134 002e 0849     		ldr	r1, .L8+4
 135              		.loc 1 2032 33
 136 0030 FB88     		ldrh	r3, [r7, #6]
 137 0032 03F00F03 		and	r3, r3, #15
 138              		.loc 1 2032 41
 139 0036 043B     		subs	r3, r3, #4
 140              		.loc 1 2032 49
 141 0038 1201     		lsls	r2, r2, #4
 142 003a D2B2     		uxtb	r2, r2
 143              		.loc 1 2032 47
 144 003c 0B44     		add	r3, r3, r1
 145 003e 1A76     		strb	r2, [r3, #24]
 146              	.L7:
 147              		.loc 1 2034 1
 148 0040 00BF     		nop
 149 0042 0C37     		adds	r7, r7, #12
 150              		.cfi_def_cfa_offset 4
 151 0044 BD46     		mov	sp, r7
 152              		.cfi_def_cfa_register 13
 153              		@ sp needed
 154 0046 80BC     		pop	{r7}
 155              		.cfi_restore 7
 156              		.cfi_def_cfa_offset 0
 157 0048 7047     		bx	lr
 158              	.L9:
 159 004a 00BF     		.align	2
 160              	.L8:
 161 004c 00E100E0 		.word	-536813312
 162 0050 00ED00E0 		.word	-536810240
 163              		.cfi_endproc
 164              	.LFE151:
 165              		.size	__NVIC_SetPriority, .-__NVIC_SetPriority
 166              		.section	.text.SVC_Handler,"ax",%progbits
 167              		.align	1
 168              		.global	SVC_Handler
 169              		.syntax unified
 170              		.thumb
 171              		.thumb_func
ARM GAS  C:\Users\DEVELO~1\AppData\Local\Temp\ccnM79MG.s 			page 4


 172              		.type	SVC_Handler, %function
 173              	SVC_Handler:
 174              	.LFB346:
 175              		.file 2 "../../../os/common/ports/ARMv7-M/chcore.c"
 176              		.loc 2 123 24
 177              		.cfi_startproc
 178              		@ args = 0, pretend = 0, frame = 16
 179              		@ frame_needed = 1, uses_anonymous_args = 0
 180              		@ link register save eliminated.
 181 0000 80B4     		push	{r7}
 182              		.cfi_def_cfa_offset 4
 183              		.cfi_offset 7, -4
 184 0002 85B0     		sub	sp, sp, #20
 185              		.cfi_def_cfa_offset 24
 186 0004 00AF     		add	r7, sp, #0
 187              		.cfi_def_cfa_register 7
 188              	.LBB51:
 189              	.LBB52:
 190              		.file 3 "../../../os/common/ext/ARM/CMSIS/Core/Include/cmsis_gcc.h"
 191              		.loc 3 251 3
 192              		.syntax unified
 193              	@ 251 "../../../os/common/ext/ARM/CMSIS/Core/Include/cmsis_gcc.h" 1
 194 0006 EFF30983 		MRS r3, psp
 195              	@ 0 "" 2
 196              		.thumb
 197              		.syntax unified
 198 000a 3B60     		str	r3, [r7]
 199              		.loc 3 252 9
 200 000c 3B68     		ldr	r3, [r7]
 201              	.LBE52:
 202              	.LBE51:
 203              		.loc 2 125 18
 204 000e FB60     		str	r3, [r7, #12]
 205              		.loc 2 182 9
 206 0010 FB68     		ldr	r3, [r7, #12]
 207 0012 2033     		adds	r3, r3, #32
 208 0014 FB60     		str	r3, [r7, #12]
 209 0016 FB68     		ldr	r3, [r7, #12]
 210 0018 7B60     		str	r3, [r7, #4]
 211              	.LBB53:
 212              	.LBB54:
 213              		.loc 3 279 3
 214 001a 7B68     		ldr	r3, [r7, #4]
 215              		.syntax unified
 216              	@ 279 "../../../os/common/ext/ARM/CMSIS/Core/Include/cmsis_gcc.h" 1
 217 001c 83F30988 		MSR psp, r3
 218              	@ 0 "" 2
 219              		.loc 3 280 1
 220              		.thumb
 221              		.syntax unified
 222 0020 00BF     		nop
 223 0022 0023     		movs	r3, #0
 224 0024 BB60     		str	r3, [r7, #8]
 225              	.LBE54:
 226              	.LBE53:
 227              	.LBB55:
 228              	.LBB56:
ARM GAS  C:\Users\DEVELO~1\AppData\Local\Temp\ccnM79MG.s 			page 5


 229              	.LBB57:
 230              	.LBB58:
 231              	.LBB59:
 232              	.LBB60:
 233              		.loc 3 493 3
 234 0026 BB68     		ldr	r3, [r7, #8]
 235              		.syntax unified
 236              	@ 493 "../../../os/common/ext/ARM/CMSIS/Core/Include/cmsis_gcc.h" 1
 237 0028 83F31188 		MSR basepri, r3
 238              	@ 0 "" 2
 239              		.loc 3 494 1
 240              		.thumb
 241              		.syntax unified
 242 002c 00BF     		nop
 243              	.LBE60:
 244              	.LBE59:
 245              		.file 4 "../../../os/common/ports/ARMv7-M/chcore.h"
 246              		.loc 4 854 1
 247 002e 00BF     		nop
 248              	.LBE58:
 249              	.LBE57:
 250              		.loc 4 876 1
 251 0030 00BF     		nop
 252              	.LBE56:
 253              	.LBE55:
 254              		.loc 2 205 1
 255 0032 00BF     		nop
 256 0034 1437     		adds	r7, r7, #20
 257              		.cfi_def_cfa_offset 4
 258 0036 BD46     		mov	sp, r7
 259              		.cfi_def_cfa_register 13
 260              		@ sp needed
 261 0038 80BC     		pop	{r7}
 262              		.cfi_restore 7
 263              		.cfi_def_cfa_offset 0
 264 003a 7047     		bx	lr
 265              		.cfi_endproc
 266              	.LFE346:
 267              		.size	SVC_Handler, .-SVC_Handler
 268              		.section	.text.port_init,"ax",%progbits
 269              		.align	1
 270              		.global	port_init
 271              		.syntax unified
 272              		.thumb
 273              		.thumb_func
 274              		.type	port_init, %function
 275              	port_init:
 276              	.LFB347:
 277              		.loc 2 254 36
 278              		.cfi_startproc
 279              		@ args = 0, pretend = 0, frame = 16
 280              		@ frame_needed = 1, uses_anonymous_args = 0
 281 0000 80B5     		push	{r7, lr}
 282              		.cfi_def_cfa_offset 8
 283              		.cfi_offset 7, -8
 284              		.cfi_offset 14, -4
 285 0002 84B0     		sub	sp, sp, #16
ARM GAS  C:\Users\DEVELO~1\AppData\Local\Temp\ccnM79MG.s 			page 6


 286              		.cfi_def_cfa_offset 24
 287 0004 00AF     		add	r7, sp, #0
 288              		.cfi_def_cfa_register 7
 289 0006 7860     		str	r0, [r7, #4]
 290 0008 3023     		movs	r3, #48
 291 000a FB60     		str	r3, [r7, #12]
 292              	.LBB61:
 293              	.LBB62:
 294              	.LBB63:
 295              	.LBB64:
 296              		.loc 3 493 3
 297 000c FB68     		ldr	r3, [r7, #12]
 298              		.syntax unified
 299              	@ 493 "../../../os/common/ext/ARM/CMSIS/Core/Include/cmsis_gcc.h" 1
 300 000e 83F31188 		MSR basepri, r3
 301              	@ 0 "" 2
 302              		.loc 3 494 1
 303              		.thumb
 304              		.syntax unified
 305 0012 00BF     		nop
 306              	.LBE64:
 307              	.LBE63:
 308              	.LBB65:
 309              	.LBB66:
 310              		.loc 3 131 3
 311              		.syntax unified
 312              	@ 131 "../../../os/common/ext/ARM/CMSIS/Core/Include/cmsis_gcc.h" 1
 313 0014 62B6     		cpsie i
 314              	@ 0 "" 2
 315              		.loc 3 132 1
 316              		.thumb
 317              		.syntax unified
 318 0016 00BF     		nop
 319              	.LBE66:
 320              	.LBE65:
 321              		.loc 4 901 1
 322 0018 00BF     		nop
 323              	.LBE62:
 324              	.LBE61:
 325              		.loc 2 262 3
 326 001a 0320     		movs	r0, #3
 327 001c FFF7FEFF 		bl	__NVIC_SetPriorityGrouping
 328              		.loc 2 265 20
 329 0020 0E4B     		ldr	r3, .L13
 330 0022 DB68     		ldr	r3, [r3, #12]
 331 0024 0D4A     		ldr	r2, .L13
 332 0026 43F08073 		orr	r3, r3, #16777216
 333 002a D360     		str	r3, [r2, #12]
 334              		.loc 2 267 6
 335 002c 0C4B     		ldr	r3, .L13+4
 336              		.loc 2 267 12
 337 002e 0D4A     		ldr	r2, .L13+8
 338 0030 C3F8B02F 		str	r2, [r3, #4016]
 339              		.loc 2 269 13
 340 0034 0A4B     		ldr	r3, .L13+4
 341 0036 1B68     		ldr	r3, [r3]
 342 0038 094A     		ldr	r2, .L13+4
ARM GAS  C:\Users\DEVELO~1\AppData\Local\Temp\ccnM79MG.s 			page 7


 343 003a 43F00103 		orr	r3, r3, #1
 344 003e 1360     		str	r3, [r2]
 345              		.loc 2 273 3
 346 0040 0221     		movs	r1, #2
 347 0042 6FF00400 		mvn	r0, #4
 348 0046 FFF7FEFF 		bl	__NVIC_SetPriority
 349              		.loc 2 275 3
 350 004a 0321     		movs	r1, #3
 351 004c 6FF00100 		mvn	r0, #1
 352 0050 FFF7FEFF 		bl	__NVIC_SetPriority
 353              		.loc 2 296 1
 354 0054 00BF     		nop
 355 0056 1037     		adds	r7, r7, #16
 356              		.cfi_def_cfa_offset 8
 357 0058 BD46     		mov	sp, r7
 358              		.cfi_def_cfa_register 13
 359              		@ sp needed
 360 005a 80BD     		pop	{r7, pc}
 361              	.L14:
 362              		.align	2
 363              	.L13:
 364 005c F0ED00E0 		.word	-536810000
 365 0060 001000E0 		.word	-536866816
 366 0064 55CEACC5 		.word	-978530731
 367              		.cfi_endproc
 368              	.LFE347:
 369              		.size	port_init, .-port_init
 370              		.section	.text.__port_irq_epilogue,"ax",%progbits
 371              		.align	1
 372              		.global	__port_irq_epilogue
 373              		.syntax unified
 374              		.thumb
 375              		.thumb_func
 376              		.type	__port_irq_epilogue, %function
 377              	__port_irq_epilogue:
 378              	.LFB348:
 379              		.loc 2 312 32
 380              		.cfi_startproc
 381              		@ args = 0, pretend = 0, frame = 24
 382              		@ frame_needed = 1, uses_anonymous_args = 0
 383 0000 80B5     		push	{r7, lr}
 384              		.cfi_def_cfa_offset 8
 385              		.cfi_offset 7, -8
 386              		.cfi_offset 14, -4
 387 0002 86B0     		sub	sp, sp, #24
 388              		.cfi_def_cfa_offset 32
 389 0004 00AF     		add	r7, sp, #0
 390              		.cfi_def_cfa_register 7
 391 0006 3023     		movs	r3, #48
 392 0008 FB60     		str	r3, [r7, #12]
 393              	.LBB67:
 394              	.LBB68:
 395              	.LBB69:
 396              	.LBB70:
 397              	.LBB71:
 398              	.LBB72:
 399              		.loc 3 493 3
ARM GAS  C:\Users\DEVELO~1\AppData\Local\Temp\ccnM79MG.s 			page 8


 400 000a FB68     		ldr	r3, [r7, #12]
 401              		.syntax unified
 402              	@ 493 "../../../os/common/ext/ARM/CMSIS/Core/Include/cmsis_gcc.h" 1
 403 000c 83F31188 		MSR basepri, r3
 404              	@ 0 "" 2
 405              		.loc 3 494 1
 406              		.thumb
 407              		.syntax unified
 408 0010 00BF     		nop
 409              	.LBE72:
 410              	.LBE71:
 411              		.loc 4 840 1
 412 0012 00BF     		nop
 413              	.LBE70:
 414              	.LBE69:
 415              		.loc 4 865 1
 416 0014 00BF     		nop
 417              	.LBE68:
 418              	.LBE67:
 419              		.loc 2 315 11
 420 0016 194B     		ldr	r3, .L21
 421 0018 5B68     		ldr	r3, [r3, #4]
 422              		.loc 2 315 18
 423 001a 03F40063 		and	r3, r3, #2048
 424              		.loc 2 315 6
 425 001e 002B     		cmp	r3, #0
 426 0020 20D0     		beq	.L16
 427              	.LBB73:
 428              	.LBB74:
 429              	.LBB75:
 430              		.loc 3 251 3
 431              		.syntax unified
 432              	@ 251 "../../../os/common/ext/ARM/CMSIS/Core/Include/cmsis_gcc.h" 1
 433 0022 EFF30983 		MRS r3, psp
 434              	@ 0 "" 2
 435              		.thumb
 436              		.syntax unified
 437 0026 7B60     		str	r3, [r7, #4]
 438              		.loc 3 252 9
 439 0028 7B68     		ldr	r3, [r7, #4]
 440              	.LBE75:
 441              	.LBE74:
 442              		.loc 2 357 13
 443 002a 7B61     		str	r3, [r7, #20]
 444              		.loc 2 362 11
 445 002c 7B69     		ldr	r3, [r7, #20]
 446 002e 203B     		subs	r3, r3, #32
 447 0030 7B61     		str	r3, [r7, #20]
 448              		.loc 2 365 11
 449 0032 7B69     		ldr	r3, [r7, #20]
 450 0034 3B61     		str	r3, [r7, #16]
 451              		.loc 2 368 17
 452 0036 3B69     		ldr	r3, [r7, #16]
 453 0038 4FF08072 		mov	r2, #16777216
 454 003c DA61     		str	r2, [r3, #28]
 455 003e 7B69     		ldr	r3, [r7, #20]
 456 0040 BB60     		str	r3, [r7, #8]
ARM GAS  C:\Users\DEVELO~1\AppData\Local\Temp\ccnM79MG.s 			page 9


 457              	.LBB76:
 458              	.LBB77:
 459              		.loc 3 279 3
 460 0042 BB68     		ldr	r3, [r7, #8]
 461              		.syntax unified
 462              	@ 279 "../../../os/common/ext/ARM/CMSIS/Core/Include/cmsis_gcc.h" 1
 463 0044 83F30988 		MSR psp, r3
 464              	@ 0 "" 2
 465              		.loc 3 280 1
 466              		.thumb
 467              		.syntax unified
 468 0048 00BF     		nop
 469              	.LBE77:
 470              	.LBE76:
 471              		.loc 2 378 9
 472 004a FFF7FEFF 		bl	chSchIsPreemptionRequired
 473 004e 0346     		mov	r3, r0
 474              		.loc 2 378 8
 475 0050 002B     		cmp	r3, #0
 476 0052 03D0     		beq	.L18
 477              		.loc 2 380 19
 478 0054 0A4A     		ldr	r2, .L21+4
 479              		.loc 2 380 17
 480 0056 3B69     		ldr	r3, [r7, #16]
 481 0058 9A61     		str	r2, [r3, #24]
 482              		.loc 2 390 5
 483 005a 0BE0     		b	.L15
 484              	.L18:
 485              		.loc 2 385 19
 486 005c 094A     		ldr	r2, .L21+8
 487              		.loc 2 385 17
 488 005e 3B69     		ldr	r3, [r7, #16]
 489 0060 9A61     		str	r2, [r3, #24]
 490              		.loc 2 390 5
 491 0062 07E0     		b	.L15
 492              	.L16:
 493 0064 0023     		movs	r3, #0
 494 0066 3B60     		str	r3, [r7]
 495              	.LBE73:
 496              	.LBB78:
 497              	.LBB79:
 498              	.LBB80:
 499              	.LBB81:
 500              	.LBB82:
 501              	.LBB83:
 502              		.loc 3 493 3
 503 0068 3B68     		ldr	r3, [r7]
 504              		.syntax unified
 505              	@ 493 "../../../os/common/ext/ARM/CMSIS/Core/Include/cmsis_gcc.h" 1
 506 006a 83F31188 		MSR basepri, r3
 507              	@ 0 "" 2
 508              		.loc 3 494 1
 509              		.thumb
 510              		.syntax unified
 511 006e 00BF     		nop
 512              	.LBE83:
 513              	.LBE82:
ARM GAS  C:\Users\DEVELO~1\AppData\Local\Temp\ccnM79MG.s 			page 10


 514              		.loc 4 854 1
 515 0070 00BF     		nop
 516              	.LBE81:
 517              	.LBE80:
 518              		.loc 4 876 1
 519 0072 00BF     		nop
 520              	.L15:
 521              	.LBE79:
 522              	.LBE78:
 523              		.loc 2 393 1
 524 0074 1837     		adds	r7, r7, #24
 525              		.cfi_def_cfa_offset 8
 526 0076 BD46     		mov	sp, r7
 527              		.cfi_def_cfa_register 13
 528              		@ sp needed
 529 0078 80BD     		pop	{r7, pc}
 530              	.L22:
 531 007a 00BF     		.align	2
 532              	.L21:
 533 007c 00ED00E0 		.word	-536810240
 534 0080 00000000 		.word	__port_switch_from_isr
 535 0084 00000000 		.word	__port_exit_from_isr
 536              		.cfi_endproc
 537              	.LFE348:
 538              		.size	__port_irq_epilogue, .-__port_irq_epilogue
 539              		.text
 540              	.Letext0:
 541              		.file 5 "c:\\chibistudio\\tools\\gnu tools arm embedded\\11.3 2022.08\\arm-none-eabi\\include\\mac
 542              		.file 6 "c:\\chibistudio\\tools\\gnu tools arm embedded\\11.3 2022.08\\arm-none-eabi\\include\\sys
 543              		.file 7 "../../../os/common/ports/ARM-common/chtypes.h"
 544              		.file 8 "../../../os/rt/include/chearly.h"
 545              		.file 9 "../../../os/rt/include/chobjects.h"
 546              		.file 10 "../../../os/rt/include/chrfcu.h"
 547              		.file 11 "../../../os/rt/include/chdebug.h"
 548              		.file 12 "../../../os/rt/include/chtime.h"
 549              		.file 13 "../../../os/rt/include/chlists.h"
 550              		.file 14 "../../../os/rt/include/chtrace.h"
 551              		.file 15 "../../../os/common/ext/ST/STM32H7xx/stm32h743xx.h"
 552              		.file 16 "../../../os/rt/include/chsem.h"
 553              		.file 17 "../../../os/rt/include/chmtx.h"
 554              		.file 18 "../../../os/rt/include/chschd.h"