ARM GAS  C:\Users\DEVELO~1\AppData\Local\Temp\cctXZYGS.s 			page 1


   1              		.cpu cortex-m7
   2              		.arch armv7e-m
   3              		.fpu softvfp
   4              		.eabi_attribute 20, 1
   5              		.eabi_attribute 21, 1
   6              		.eabi_attribute 23, 3
   7              		.eabi_attribute 24, 1
   8              		.eabi_attribute 25, 1
   9              		.eabi_attribute 26, 1
  10              		.eabi_attribute 30, 6
  11              		.eabi_attribute 34, 1
  12              		.eabi_attribute 18, 4
  13              		.file	"chdelegates.c"
  14              		.text
  15              	.Ltext0:
  16              		.cfi_sections	.debug_frame
  17              		.section	.text.chSysLock,"ax",%progbits
  18              		.align	1
  19              		.syntax unified
  20              		.thumb
  21              		.thumb_func
  22              		.type	chSysLock, %function
  23              	chSysLock:
  24              	.LFB202:
  25              		.file 1 "../../../os/rt/include/chsys.h"
  26              		.loc 1 407 36
  27              		.cfi_startproc
  28              		@ args = 0, pretend = 0, frame = 8
  29              		@ frame_needed = 1, uses_anonymous_args = 0
  30              		@ link register save eliminated.
  31 0000 80B4     		push	{r7}
  32              		.cfi_def_cfa_offset 4
  33              		.cfi_offset 7, -4
  34 0002 83B0     		sub	sp, sp, #12
  35              		.cfi_def_cfa_offset 16
  36 0004 00AF     		add	r7, sp, #0
  37              		.cfi_def_cfa_register 7
  38 0006 3023     		movs	r3, #48
  39 0008 7B60     		str	r3, [r7, #4]
  40              	.LBB14:
  41              	.LBB15:
  42              	.LBB16:
  43              	.LBB17:
  44              		.file 2 "../../../os/common/ext/ARM/CMSIS/Core/Include/cmsis_gcc.h"
  45              		.loc 2 493 3
  46 000a 7B68     		ldr	r3, [r7, #4]
  47              		.syntax unified
  48              	@ 493 "../../../os/common/ext/ARM/CMSIS/Core/Include/cmsis_gcc.h" 1
  49 000c 83F31188 		MSR basepri, r3
  50              	@ 0 "" 2
  51              		.loc 2 494 1
  52              		.thumb
  53              		.syntax unified
  54 0010 00BF     		nop
  55              	.LBE17:
  56              	.LBE16:
  57              		.file 3 "../../../os/common/ports/ARMv7-M/chcore.h"
ARM GAS  C:\Users\DEVELO~1\AppData\Local\Temp\cctXZYGS.s 			page 2


  58              		.loc 3 840 1
  59 0012 00BF     		nop
  60              	.LBE15:
  61              	.LBE14:
  62              		.loc 1 412 1
  63 0014 00BF     		nop
  64 0016 0C37     		adds	r7, r7, #12
  65              		.cfi_def_cfa_offset 4
  66 0018 BD46     		mov	sp, r7
  67              		.cfi_def_cfa_register 13
  68              		@ sp needed
  69 001a 80BC     		pop	{r7}
  70              		.cfi_restore 7
  71              		.cfi_def_cfa_offset 0
  72 001c 7047     		bx	lr
  73              		.cfi_endproc
  74              	.LFE202:
  75              		.size	chSysLock, .-chSysLock
  76              		.section	.text.chSysUnlock,"ax",%progbits
  77              		.align	1
  78              		.syntax unified
  79              		.thumb
  80              		.thumb_func
  81              		.type	chSysUnlock, %function
  82              	chSysUnlock:
  83              	.LFB203:
  84              		.loc 1 421 38
  85              		.cfi_startproc
  86              		@ args = 0, pretend = 0, frame = 8
  87              		@ frame_needed = 1, uses_anonymous_args = 0
  88              		@ link register save eliminated.
  89 0000 80B4     		push	{r7}
  90              		.cfi_def_cfa_offset 4
  91              		.cfi_offset 7, -4
  92 0002 83B0     		sub	sp, sp, #12
  93              		.cfi_def_cfa_offset 16
  94 0004 00AF     		add	r7, sp, #0
  95              		.cfi_def_cfa_register 7
  96 0006 0023     		movs	r3, #0
  97 0008 7B60     		str	r3, [r7, #4]
  98              	.LBB18:
  99              	.LBB19:
 100              	.LBB20:
 101              	.LBB21:
 102              		.loc 2 493 3
 103 000a 7B68     		ldr	r3, [r7, #4]
 104              		.syntax unified
 105              	@ 493 "../../../os/common/ext/ARM/CMSIS/Core/Include/cmsis_gcc.h" 1
 106 000c 83F31188 		MSR basepri, r3
 107              	@ 0 "" 2
 108              		.loc 2 494 1
 109              		.thumb
 110              		.syntax unified
 111 0010 00BF     		nop
 112              	.LBE21:
 113              	.LBE20:
 114              		.loc 3 854 1
ARM GAS  C:\Users\DEVELO~1\AppData\Local\Temp\cctXZYGS.s 			page 3


 115 0012 00BF     		nop
 116              	.LBE19:
 117              	.LBE18:
 118              		.loc 1 435 1
 119 0014 00BF     		nop
 120 0016 0C37     		adds	r7, r7, #12
 121              		.cfi_def_cfa_offset 4
 122 0018 BD46     		mov	sp, r7
 123              		.cfi_def_cfa_register 13
 124              		@ sp needed
 125 001a 80BC     		pop	{r7}
 126              		.cfi_restore 7
 127              		.cfi_def_cfa_offset 0
 128 001c 7047     		bx	lr
 129              		.cfi_endproc
 130              	.LFE203:
 131              		.size	chSysUnlock, .-chSysUnlock
 132              		.section	.text.chMsgWait,"ax",%progbits
 133              		.align	1
 134              		.syntax unified
 135              		.thumb
 136              		.thumb_func
 137              		.type	chMsgWait, %function
 138              	chMsgWait:
 139              	.LFB259:
 140              		.file 4 "../../../os/rt/include/chmsg.h"
 141              		.loc 4 95 41
 142              		.cfi_startproc
 143              		@ args = 0, pretend = 0, frame = 8
 144              		@ frame_needed = 1, uses_anonymous_args = 0
 145 0000 80B5     		push	{r7, lr}
 146              		.cfi_def_cfa_offset 8
 147              		.cfi_offset 7, -8
 148              		.cfi_offset 14, -4
 149 0002 82B0     		sub	sp, sp, #8
 150              		.cfi_def_cfa_offset 16
 151 0004 00AF     		add	r7, sp, #0
 152              		.cfi_def_cfa_register 7
 153              		.loc 4 98 3
 154 0006 FFF7FEFF 		bl	chSysLock
 155              		.loc 4 99 8
 156 000a FFF7FEFF 		bl	chMsgWaitS
 157 000e 7860     		str	r0, [r7, #4]
 158              		.loc 4 100 3
 159 0010 FFF7FEFF 		bl	chSysUnlock
 160              		.loc 4 102 10
 161 0014 7B68     		ldr	r3, [r7, #4]
 162              		.loc 4 103 1
 163 0016 1846     		mov	r0, r3
 164 0018 0837     		adds	r7, r7, #8
 165              		.cfi_def_cfa_offset 8
 166 001a BD46     		mov	sp, r7
 167              		.cfi_def_cfa_register 13
 168              		@ sp needed
 169 001c 80BD     		pop	{r7, pc}
 170              		.cfi_endproc
 171              	.LFE259:
ARM GAS  C:\Users\DEVELO~1\AppData\Local\Temp\cctXZYGS.s 			page 4


 172              		.size	chMsgWait, .-chMsgWait
 173              		.section	.text.chMsgWaitTimeout,"ax",%progbits
 174              		.align	1
 175              		.syntax unified
 176              		.thumb
 177              		.thumb_func
 178              		.type	chMsgWaitTimeout, %function
 179              	chMsgWaitTimeout:
 180              	.LFB260:
 181              		.loc 4 128 65
 182              		.cfi_startproc
 183              		@ args = 0, pretend = 0, frame = 16
 184              		@ frame_needed = 1, uses_anonymous_args = 0
 185 0000 80B5     		push	{r7, lr}
 186              		.cfi_def_cfa_offset 8
 187              		.cfi_offset 7, -8
 188              		.cfi_offset 14, -4
 189 0002 84B0     		sub	sp, sp, #16
 190              		.cfi_def_cfa_offset 24
 191 0004 00AF     		add	r7, sp, #0
 192              		.cfi_def_cfa_register 7
 193 0006 7860     		str	r0, [r7, #4]
 194              		.loc 4 131 3
 195 0008 FFF7FEFF 		bl	chSysLock
 196              		.loc 4 132 8
 197 000c 7868     		ldr	r0, [r7, #4]
 198 000e FFF7FEFF 		bl	chMsgWaitTimeoutS
 199 0012 F860     		str	r0, [r7, #12]
 200              		.loc 4 133 3
 201 0014 FFF7FEFF 		bl	chSysUnlock
 202              		.loc 4 135 10
 203 0018 FB68     		ldr	r3, [r7, #12]
 204              		.loc 4 136 1
 205 001a 1846     		mov	r0, r3
 206 001c 1037     		adds	r7, r7, #16
 207              		.cfi_def_cfa_offset 8
 208 001e BD46     		mov	sp, r7
 209              		.cfi_def_cfa_register 13
 210              		@ sp needed
 211 0020 80BD     		pop	{r7, pc}
 212              		.cfi_endproc
 213              	.LFE260:
 214              		.size	chMsgWaitTimeout, .-chMsgWaitTimeout
 215              		.section	.text.chMsgGet,"ax",%progbits
 216              		.align	1
 217              		.syntax unified
 218              		.thumb
 219              		.thumb_func
 220              		.type	chMsgGet, %function
 221              	chMsgGet:
 222              	.LFB263:
 223              		.loc 4 190 44
 224              		.cfi_startproc
 225              		@ args = 0, pretend = 0, frame = 8
 226              		@ frame_needed = 1, uses_anonymous_args = 0
 227              		@ link register save eliminated.
 228 0000 80B4     		push	{r7}
ARM GAS  C:\Users\DEVELO~1\AppData\Local\Temp\cctXZYGS.s 			page 5


 229              		.cfi_def_cfa_offset 4
 230              		.cfi_offset 7, -4
 231 0002 83B0     		sub	sp, sp, #12
 232              		.cfi_def_cfa_offset 16
 233 0004 00AF     		add	r7, sp, #0
 234              		.cfi_def_cfa_register 7
 235 0006 7860     		str	r0, [r7, #4]
 236              		.loc 4 194 15
 237 0008 7B68     		ldr	r3, [r7, #4]
 238 000a 9B6A     		ldr	r3, [r3, #40]
 239              		.loc 4 195 1
 240 000c 1846     		mov	r0, r3
 241 000e 0C37     		adds	r7, r7, #12
 242              		.cfi_def_cfa_offset 4
 243 0010 BD46     		mov	sp, r7
 244              		.cfi_def_cfa_register 13
 245              		@ sp needed
 246 0012 80BC     		pop	{r7}
 247              		.cfi_restore 7
 248              		.cfi_def_cfa_offset 0
 249 0014 7047     		bx	lr
 250              		.cfi_endproc
 251              	.LFE263:
 252              		.size	chMsgGet, .-chMsgGet
 253              		.section	.text.__ch_delegate_fn0,"ax",%progbits
 254              		.align	1
 255              		.global	__ch_delegate_fn0
 256              		.syntax unified
 257              		.thumb
 258              		.thumb_func
 259              		.type	__ch_delegate_fn0, %function
 260              	__ch_delegate_fn0:
 261              	.LFB346:
 262              		.file 5 "../../../os/oslib/src/chdelegates.c"
 263              		.loc 5 88 41
 264              		.cfi_startproc
 265              		@ args = 0, pretend = 0, frame = 16
 266              		@ frame_needed = 1, uses_anonymous_args = 0
 267 0000 80B5     		push	{r7, lr}
 268              		.cfi_def_cfa_offset 8
 269              		.cfi_offset 7, -8
 270              		.cfi_offset 14, -4
 271 0002 84B0     		sub	sp, sp, #16
 272              		.cfi_def_cfa_offset 24
 273 0004 00AF     		add	r7, sp, #0
 274              		.cfi_def_cfa_register 7
 275 0006 7860     		str	r0, [r7, #4]
 276              		.loc 5 89 18
 277 0008 7B68     		ldr	r3, [r7, #4]
 278 000a 1B68     		ldr	r3, [r3]
 279 000c 191D     		adds	r1, r3, #4
 280 000e 7A68     		ldr	r2, [r7, #4]
 281 0010 1160     		str	r1, [r2]
 282 0012 1B68     		ldr	r3, [r3]
 283 0014 FB60     		str	r3, [r7, #12]
 284              		.loc 5 90 10
 285 0016 FB68     		ldr	r3, [r7, #12]
ARM GAS  C:\Users\DEVELO~1\AppData\Local\Temp\cctXZYGS.s 			page 6


 286 0018 9847     		blx	r3
 287              	.LVL0:
 288 001a 0346     		mov	r3, r0
 289              		.loc 5 91 1
 290 001c 1846     		mov	r0, r3
 291 001e 1037     		adds	r7, r7, #16
 292              		.cfi_def_cfa_offset 8
 293 0020 BD46     		mov	sp, r7
 294              		.cfi_def_cfa_register 13
 295              		@ sp needed
 296 0022 80BD     		pop	{r7, pc}
 297              		.cfi_endproc
 298              	.LFE346:
 299              		.size	__ch_delegate_fn0, .-__ch_delegate_fn0
 300              		.section	.text.__ch_delegate_fn1,"ax",%progbits
 301              		.align	1
 302              		.global	__ch_delegate_fn1
 303              		.syntax unified
 304              		.thumb
 305              		.thumb_func
 306              		.type	__ch_delegate_fn1, %function
 307              	__ch_delegate_fn1:
 308              	.LFB347:
 309              		.loc 5 99 41
 310              		.cfi_startproc
 311              		@ args = 0, pretend = 0, frame = 16
 312              		@ frame_needed = 1, uses_anonymous_args = 0
 313 0000 80B5     		push	{r7, lr}
 314              		.cfi_def_cfa_offset 8
 315              		.cfi_offset 7, -8
 316              		.cfi_offset 14, -4
 317 0002 84B0     		sub	sp, sp, #16
 318              		.cfi_def_cfa_offset 24
 319 0004 00AF     		add	r7, sp, #0
 320              		.cfi_def_cfa_register 7
 321 0006 7860     		str	r0, [r7, #4]
 322              		.loc 5 100 18
 323 0008 7B68     		ldr	r3, [r7, #4]
 324 000a 1B68     		ldr	r3, [r3]
 325 000c 191D     		adds	r1, r3, #4
 326 000e 7A68     		ldr	r2, [r7, #4]
 327 0010 1160     		str	r1, [r2]
 328 0012 1B68     		ldr	r3, [r3]
 329 0014 FB60     		str	r3, [r7, #12]
 330              		.loc 5 101 9
 331 0016 7B68     		ldr	r3, [r7, #4]
 332 0018 1B68     		ldr	r3, [r3]
 333 001a 191D     		adds	r1, r3, #4
 334 001c 7A68     		ldr	r2, [r7, #4]
 335 001e 1160     		str	r1, [r2]
 336 0020 1B68     		ldr	r3, [r3]
 337 0022 BB60     		str	r3, [r7, #8]
 338              		.loc 5 102 10
 339 0024 FB68     		ldr	r3, [r7, #12]
 340 0026 B868     		ldr	r0, [r7, #8]
 341 0028 9847     		blx	r3
 342              	.LVL1:
ARM GAS  C:\Users\DEVELO~1\AppData\Local\Temp\cctXZYGS.s 			page 7


 343 002a 0346     		mov	r3, r0
 344              		.loc 5 103 1
 345 002c 1846     		mov	r0, r3
 346 002e 1037     		adds	r7, r7, #16
 347              		.cfi_def_cfa_offset 8
 348 0030 BD46     		mov	sp, r7
 349              		.cfi_def_cfa_register 13
 350              		@ sp needed
 351 0032 80BD     		pop	{r7, pc}
 352              		.cfi_endproc
 353              	.LFE347:
 354              		.size	__ch_delegate_fn1, .-__ch_delegate_fn1
 355              		.section	.text.__ch_delegate_fn2,"ax",%progbits
 356              		.align	1
 357              		.global	__ch_delegate_fn2
 358              		.syntax unified
 359              		.thumb
 360              		.thumb_func
 361              		.type	__ch_delegate_fn2, %function
 362              	__ch_delegate_fn2:
 363              	.LFB348:
 364              		.loc 5 111 41
 365              		.cfi_startproc
 366              		@ args = 0, pretend = 0, frame = 24
 367              		@ frame_needed = 1, uses_anonymous_args = 0
 368 0000 80B5     		push	{r7, lr}
 369              		.cfi_def_cfa_offset 8
 370              		.cfi_offset 7, -8
 371              		.cfi_offset 14, -4
 372 0002 86B0     		sub	sp, sp, #24
 373              		.cfi_def_cfa_offset 32
 374 0004 00AF     		add	r7, sp, #0
 375              		.cfi_def_cfa_register 7
 376 0006 7860     		str	r0, [r7, #4]
 377              		.loc 5 112 18
 378 0008 7B68     		ldr	r3, [r7, #4]
 379 000a 1B68     		ldr	r3, [r3]
 380 000c 191D     		adds	r1, r3, #4
 381 000e 7A68     		ldr	r2, [r7, #4]
 382 0010 1160     		str	r1, [r2]
 383 0012 1B68     		ldr	r3, [r3]
 384 0014 7B61     		str	r3, [r7, #20]
 385              		.loc 5 113 9
 386 0016 7B68     		ldr	r3, [r7, #4]
 387 0018 1B68     		ldr	r3, [r3]
 388 001a 191D     		adds	r1, r3, #4
 389 001c 7A68     		ldr	r2, [r7, #4]
 390 001e 1160     		str	r1, [r2]
 391 0020 1B68     		ldr	r3, [r3]
 392 0022 3B61     		str	r3, [r7, #16]
 393              		.loc 5 114 9
 394 0024 7B68     		ldr	r3, [r7, #4]
 395 0026 1B68     		ldr	r3, [r3]
 396 0028 191D     		adds	r1, r3, #4
 397 002a 7A68     		ldr	r2, [r7, #4]
 398 002c 1160     		str	r1, [r2]
 399 002e 1B68     		ldr	r3, [r3]
ARM GAS  C:\Users\DEVELO~1\AppData\Local\Temp\cctXZYGS.s 			page 8


 400 0030 FB60     		str	r3, [r7, #12]
 401              		.loc 5 115 10
 402 0032 7B69     		ldr	r3, [r7, #20]
 403 0034 F968     		ldr	r1, [r7, #12]
 404 0036 3869     		ldr	r0, [r7, #16]
 405 0038 9847     		blx	r3
 406              	.LVL2:
 407 003a 0346     		mov	r3, r0
 408              		.loc 5 116 1
 409 003c 1846     		mov	r0, r3
 410 003e 1837     		adds	r7, r7, #24
 411              		.cfi_def_cfa_offset 8
 412 0040 BD46     		mov	sp, r7
 413              		.cfi_def_cfa_register 13
 414              		@ sp needed
 415 0042 80BD     		pop	{r7, pc}
 416              		.cfi_endproc
 417              	.LFE348:
 418              		.size	__ch_delegate_fn2, .-__ch_delegate_fn2
 419              		.section	.text.__ch_delegate_fn3,"ax",%progbits
 420              		.align	1
 421              		.global	__ch_delegate_fn3
 422              		.syntax unified
 423              		.thumb
 424              		.thumb_func
 425              		.type	__ch_delegate_fn3, %function
 426              	__ch_delegate_fn3:
 427              	.LFB349:
 428              		.loc 5 124 41
 429              		.cfi_startproc
 430              		@ args = 0, pretend = 0, frame = 24
 431              		@ frame_needed = 1, uses_anonymous_args = 0
 432 0000 80B5     		push	{r7, lr}
 433              		.cfi_def_cfa_offset 8
 434              		.cfi_offset 7, -8
 435              		.cfi_offset 14, -4
 436 0002 86B0     		sub	sp, sp, #24
 437              		.cfi_def_cfa_offset 32
 438 0004 00AF     		add	r7, sp, #0
 439              		.cfi_def_cfa_register 7
 440 0006 7860     		str	r0, [r7, #4]
 441              		.loc 5 125 18
 442 0008 7B68     		ldr	r3, [r7, #4]
 443 000a 1B68     		ldr	r3, [r3]
 444 000c 191D     		adds	r1, r3, #4
 445 000e 7A68     		ldr	r2, [r7, #4]
 446 0010 1160     		str	r1, [r2]
 447 0012 1B68     		ldr	r3, [r3]
 448 0014 7B61     		str	r3, [r7, #20]
 449              		.loc 5 126 9
 450 0016 7B68     		ldr	r3, [r7, #4]
 451 0018 1B68     		ldr	r3, [r3]
 452 001a 191D     		adds	r1, r3, #4
 453 001c 7A68     		ldr	r2, [r7, #4]
 454 001e 1160     		str	r1, [r2]
 455 0020 1B68     		ldr	r3, [r3]
 456 0022 3B61     		str	r3, [r7, #16]
ARM GAS  C:\Users\DEVELO~1\AppData\Local\Temp\cctXZYGS.s 			page 9


 457              		.loc 5 127 9
 458 0024 7B68     		ldr	r3, [r7, #4]
 459 0026 1B68     		ldr	r3, [r3]
 460 0028 191D     		adds	r1, r3, #4
 461 002a 7A68     		ldr	r2, [r7, #4]
 462 002c 1160     		str	r1, [r2]
 463 002e 1B68     		ldr	r3, [r3]
 464 0030 FB60     		str	r3, [r7, #12]
 465              		.loc 5 128 9
 466 0032 7B68     		ldr	r3, [r7, #4]
 467 0034 1B68     		ldr	r3, [r3]
 468 0036 191D     		adds	r1, r3, #4
 469 0038 7A68     		ldr	r2, [r7, #4]
 470 003a 1160     		str	r1, [r2]
 471 003c 1B68     		ldr	r3, [r3]
 472 003e BB60     		str	r3, [r7, #8]
 473              		.loc 5 129 10
 474 0040 7B69     		ldr	r3, [r7, #20]
 475 0042 BA68     		ldr	r2, [r7, #8]
 476 0044 F968     		ldr	r1, [r7, #12]
 477 0046 3869     		ldr	r0, [r7, #16]
 478 0048 9847     		blx	r3
 479              	.LVL3:
 480 004a 0346     		mov	r3, r0
 481              		.loc 5 130 1
 482 004c 1846     		mov	r0, r3
 483 004e 1837     		adds	r7, r7, #24
 484              		.cfi_def_cfa_offset 8
 485 0050 BD46     		mov	sp, r7
 486              		.cfi_def_cfa_register 13
 487              		@ sp needed
 488 0052 80BD     		pop	{r7, pc}
 489              		.cfi_endproc
 490              	.LFE349:
 491              		.size	__ch_delegate_fn3, .-__ch_delegate_fn3
 492              		.section	.text.__ch_delegate_fn4,"ax",%progbits
 493              		.align	1
 494              		.global	__ch_delegate_fn4
 495              		.syntax unified
 496              		.thumb
 497              		.thumb_func
 498              		.type	__ch_delegate_fn4, %function
 499              	__ch_delegate_fn4:
 500              	.LFB350:
 501              		.loc 5 138 41
 502              		.cfi_startproc
 503              		@ args = 0, pretend = 0, frame = 32
 504              		@ frame_needed = 1, uses_anonymous_args = 0
 505 0000 90B5     		push	{r4, r7, lr}
 506              		.cfi_def_cfa_offset 12
 507              		.cfi_offset 4, -12
 508              		.cfi_offset 7, -8
 509              		.cfi_offset 14, -4
 510 0002 89B0     		sub	sp, sp, #36
 511              		.cfi_def_cfa_offset 48
 512 0004 00AF     		add	r7, sp, #0
 513              		.cfi_def_cfa_register 7
ARM GAS  C:\Users\DEVELO~1\AppData\Local\Temp\cctXZYGS.s 			page 10


 514 0006 7860     		str	r0, [r7, #4]
 515              		.loc 5 139 18
 516 0008 7B68     		ldr	r3, [r7, #4]
 517 000a 1B68     		ldr	r3, [r3]
 518 000c 191D     		adds	r1, r3, #4
 519 000e 7A68     		ldr	r2, [r7, #4]
 520 0010 1160     		str	r1, [r2]
 521 0012 1B68     		ldr	r3, [r3]
 522 0014 FB61     		str	r3, [r7, #28]
 523              		.loc 5 140 9
 524 0016 7B68     		ldr	r3, [r7, #4]
 525 0018 1B68     		ldr	r3, [r3]
 526 001a 191D     		adds	r1, r3, #4
 527 001c 7A68     		ldr	r2, [r7, #4]
 528 001e 1160     		str	r1, [r2]
 529 0020 1B68     		ldr	r3, [r3]
 530 0022 BB61     		str	r3, [r7, #24]
 531              		.loc 5 141 9
 532 0024 7B68     		ldr	r3, [r7, #4]
 533 0026 1B68     		ldr	r3, [r3]
 534 0028 191D     		adds	r1, r3, #4
 535 002a 7A68     		ldr	r2, [r7, #4]
 536 002c 1160     		str	r1, [r2]
 537 002e 1B68     		ldr	r3, [r3]
 538 0030 7B61     		str	r3, [r7, #20]
 539              		.loc 5 142 9
 540 0032 7B68     		ldr	r3, [r7, #4]
 541 0034 1B68     		ldr	r3, [r3]
 542 0036 191D     		adds	r1, r3, #4
 543 0038 7A68     		ldr	r2, [r7, #4]
 544 003a 1160     		str	r1, [r2]
 545 003c 1B68     		ldr	r3, [r3]
 546 003e 3B61     		str	r3, [r7, #16]
 547              		.loc 5 143 9
 548 0040 7B68     		ldr	r3, [r7, #4]
 549 0042 1B68     		ldr	r3, [r3]
 550 0044 191D     		adds	r1, r3, #4
 551 0046 7A68     		ldr	r2, [r7, #4]
 552 0048 1160     		str	r1, [r2]
 553 004a 1B68     		ldr	r3, [r3]
 554 004c FB60     		str	r3, [r7, #12]
 555              		.loc 5 144 10
 556 004e FC69     		ldr	r4, [r7, #28]
 557 0050 FB68     		ldr	r3, [r7, #12]
 558 0052 3A69     		ldr	r2, [r7, #16]
 559 0054 7969     		ldr	r1, [r7, #20]
 560 0056 B869     		ldr	r0, [r7, #24]
 561 0058 A047     		blx	r4
 562              	.LVL4:
 563 005a 0346     		mov	r3, r0
 564              		.loc 5 145 1
 565 005c 1846     		mov	r0, r3
 566 005e 2437     		adds	r7, r7, #36
 567              		.cfi_def_cfa_offset 12
 568 0060 BD46     		mov	sp, r7
 569              		.cfi_def_cfa_register 13
 570              		@ sp needed
ARM GAS  C:\Users\DEVELO~1\AppData\Local\Temp\cctXZYGS.s 			page 11


 571 0062 90BD     		pop	{r4, r7, pc}
 572              		.cfi_endproc
 573              	.LFE350:
 574              		.size	__ch_delegate_fn4, .-__ch_delegate_fn4
 575              		.section	.text.chDelegateCallVeneer,"ax",%progbits
 576              		.align	1
 577              		.global	chDelegateCallVeneer
 578              		.syntax unified
 579              		.thumb
 580              		.thumb_func
 581              		.type	chDelegateCallVeneer, %function
 582              	chDelegateCallVeneer:
 583              	.LFB351:
 584              		.loc 5 158 73
 585              		.cfi_startproc
 586              		@ args = 4, pretend = 12, frame = 24
 587              		@ frame_needed = 1, uses_anonymous_args = 1
 588 0000 0EB4     		push	{r1, r2, r3}
 589              		.cfi_def_cfa_offset 12
 590              		.cfi_offset 1, -12
 591              		.cfi_offset 2, -8
 592              		.cfi_offset 3, -4
 593 0002 80B5     		push	{r7, lr}
 594              		.cfi_def_cfa_offset 20
 595              		.cfi_offset 7, -20
 596              		.cfi_offset 14, -16
 597 0004 87B0     		sub	sp, sp, #28
 598              		.cfi_def_cfa_offset 48
 599 0006 00AF     		add	r7, sp, #0
 600              		.cfi_def_cfa_register 7
 601 0008 7860     		str	r0, [r7, #4]
 602              		.loc 5 163 3
 603 000a 07F12803 		add	r3, r7, #40
 604 000e 3B61     		str	r3, [r7, #16]
 605              		.loc 5 166 13
 606 0010 7B6A     		ldr	r3, [r7, #36]
 607 0012 BB60     		str	r3, [r7, #8]
 608              		.loc 5 167 13
 609 0014 07F11003 		add	r3, r7, #16
 610 0018 FB60     		str	r3, [r7, #12]
 611              		.loc 5 172 9
 612 001a 07F10803 		add	r3, r7, #8
 613 001e 1946     		mov	r1, r3
 614 0020 7868     		ldr	r0, [r7, #4]
 615 0022 FFF7FEFF 		bl	chMsgSend
 616 0026 7861     		str	r0, [r7, #20]
 617              		.loc 5 176 10
 618 0028 7B69     		ldr	r3, [r7, #20]
 619              		.loc 5 177 1
 620 002a 1846     		mov	r0, r3
 621 002c 1C37     		adds	r7, r7, #28
 622              		.cfi_def_cfa_offset 20
 623 002e BD46     		mov	sp, r7
 624              		.cfi_def_cfa_register 13
 625              		@ sp needed
 626 0030 BDE88040 		pop	{r7, lr}
 627              		.cfi_restore 14
ARM GAS  C:\Users\DEVELO~1\AppData\Local\Temp\cctXZYGS.s 			page 12


 628              		.cfi_restore 7
 629              		.cfi_def_cfa_offset 12
 630 0034 03B0     		add	sp, sp, #12
 631              		.cfi_restore 3
 632              		.cfi_restore 2
 633              		.cfi_restore 1
 634              		.cfi_def_cfa_offset 0
 635 0036 7047     		bx	lr
 636              		.cfi_endproc
 637              	.LFE351:
 638              		.size	chDelegateCallVeneer, .-chDelegateCallVeneer
 639              		.section	.text.chDelegateDispatch,"ax",%progbits
 640              		.align	1
 641              		.global	chDelegateDispatch
 642              		.syntax unified
 643              		.thumb
 644              		.thumb_func
 645              		.type	chDelegateDispatch, %function
 646              	chDelegateDispatch:
 647              	.LFB352:
 648              		.loc 5 190 31
 649              		.cfi_startproc
 650              		@ args = 0, pretend = 0, frame = 16
 651              		@ frame_needed = 1, uses_anonymous_args = 0
 652 0000 80B5     		push	{r7, lr}
 653              		.cfi_def_cfa_offset 8
 654              		.cfi_offset 7, -8
 655              		.cfi_offset 14, -4
 656 0002 84B0     		sub	sp, sp, #16
 657              		.cfi_def_cfa_offset 24
 658 0004 00AF     		add	r7, sp, #0
 659              		.cfi_def_cfa_register 7
 660              		.loc 5 195 8
 661 0006 FFF7FEFF 		bl	chMsgWait
 662 000a F860     		str	r0, [r7, #12]
 663              		.loc 5 196 33
 664 000c F868     		ldr	r0, [r7, #12]
 665 000e FFF7FEFF 		bl	chMsgGet
 666 0012 0346     		mov	r3, r0
 667              		.loc 5 196 7
 668 0014 BB60     		str	r3, [r7, #8]
 669              		.loc 5 197 12
 670 0016 BB68     		ldr	r3, [r7, #8]
 671 0018 1B68     		ldr	r3, [r3]
 672              		.loc 5 197 24
 673 001a BA68     		ldr	r2, [r7, #8]
 674 001c 5268     		ldr	r2, [r2, #4]
 675              		.loc 5 197 9
 676 001e 1046     		mov	r0, r2
 677 0020 9847     		blx	r3
 678              	.LVL5:
 679 0022 7860     		str	r0, [r7, #4]
 680              		.loc 5 199 3
 681 0024 7968     		ldr	r1, [r7, #4]
 682 0026 F868     		ldr	r0, [r7, #12]
 683 0028 FFF7FEFF 		bl	chMsgRelease
 684              		.loc 5 200 1
ARM GAS  C:\Users\DEVELO~1\AppData\Local\Temp\cctXZYGS.s 			page 13


 685 002c 00BF     		nop
 686 002e 1037     		adds	r7, r7, #16
 687              		.cfi_def_cfa_offset 8
 688 0030 BD46     		mov	sp, r7
 689              		.cfi_def_cfa_register 13
 690              		@ sp needed
 691 0032 80BD     		pop	{r7, pc}
 692              		.cfi_endproc
 693              	.LFE352:
 694              		.size	chDelegateDispatch, .-chDelegateDispatch
 695              		.section	.text.chDelegateDispatchTimeout,"ax",%progbits
 696              		.align	1
 697              		.global	chDelegateDispatchTimeout
 698              		.syntax unified
 699              		.thumb
 700              		.thumb_func
 701              		.type	chDelegateDispatchTimeout, %function
 702              	chDelegateDispatchTimeout:
 703              	.LFB353:
 704              		.loc 5 219 56
 705              		.cfi_startproc
 706              		@ args = 0, pretend = 0, frame = 24
 707              		@ frame_needed = 1, uses_anonymous_args = 0
 708 0000 80B5     		push	{r7, lr}
 709              		.cfi_def_cfa_offset 8
 710              		.cfi_offset 7, -8
 711              		.cfi_offset 14, -4
 712 0002 86B0     		sub	sp, sp, #24
 713              		.cfi_def_cfa_offset 32
 714 0004 00AF     		add	r7, sp, #0
 715              		.cfi_def_cfa_register 7
 716 0006 7860     		str	r0, [r7, #4]
 717              		.loc 5 224 8
 718 0008 7868     		ldr	r0, [r7, #4]
 719 000a FFF7FEFF 		bl	chMsgWaitTimeout
 720 000e 7861     		str	r0, [r7, #20]
 721              		.loc 5 225 6
 722 0010 7B69     		ldr	r3, [r7, #20]
 723 0012 002B     		cmp	r3, #0
 724 0014 02D1     		bne	.L23
 725              		.loc 5 226 12
 726 0016 4FF0FF33 		mov	r3, #-1
 727 001a 10E0     		b	.L24
 728              	.L23:
 729              		.loc 5 229 33
 730 001c 7869     		ldr	r0, [r7, #20]
 731 001e FFF7FEFF 		bl	chMsgGet
 732 0022 0346     		mov	r3, r0
 733              		.loc 5 229 7
 734 0024 3B61     		str	r3, [r7, #16]
 735              		.loc 5 230 12
 736 0026 3B69     		ldr	r3, [r7, #16]
 737 0028 1B68     		ldr	r3, [r3]
 738              		.loc 5 230 24
 739 002a 3A69     		ldr	r2, [r7, #16]
 740 002c 5268     		ldr	r2, [r2, #4]
 741              		.loc 5 230 9
ARM GAS  C:\Users\DEVELO~1\AppData\Local\Temp\cctXZYGS.s 			page 14


 742 002e 1046     		mov	r0, r2
 743 0030 9847     		blx	r3
 744              	.LVL6:
 745 0032 F860     		str	r0, [r7, #12]
 746              		.loc 5 232 3
 747 0034 F968     		ldr	r1, [r7, #12]
 748 0036 7869     		ldr	r0, [r7, #20]
 749 0038 FFF7FEFF 		bl	chMsgRelease
 750              		.loc 5 234 10
 751 003c 0023     		movs	r3, #0
 752              	.L24:
 753              		.loc 5 235 1
 754 003e 1846     		mov	r0, r3
 755 0040 1837     		adds	r7, r7, #24
 756              		.cfi_def_cfa_offset 8
 757 0042 BD46     		mov	sp, r7
 758              		.cfi_def_cfa_register 13
 759              		@ sp needed
 760 0044 80BD     		pop	{r7, pc}
 761              		.cfi_endproc
 762              	.LFE353:
 763              		.size	chDelegateDispatchTimeout, .-chDelegateDispatchTimeout
 764              		.text
 765              	.Letext0:
 766              		.file 6 "c:\\chibistudio\\tools\\gnu tools arm embedded\\11.3 2022.08\\arm-none-eabi\\include\\mac
 767              		.file 7 "c:\\chibistudio\\tools\\gnu tools arm embedded\\11.3 2022.08\\arm-none-eabi\\include\\sys
 768              		.file 8 "../../../os/common/ports/ARM-common/chtypes.h"
 769              		.file 9 "../../../os/rt/include/chearly.h"
 770              		.file 10 "../../../os/rt/include/chobjects.h"
 771              		.file 11 "../../../os/rt/include/chrfcu.h"
 772              		.file 12 "../../../os/rt/include/chdebug.h"
 773              		.file 13 "../../../os/rt/include/chtime.h"
 774              		.file 14 "../../../os/rt/include/chlists.h"
 775              		.file 15 "../../../os/rt/include/chtrace.h"
 776              		.file 16 "../../../os/rt/include/chsem.h"
 777              		.file 17 "../../../os/rt/include/chmtx.h"
 778              		.file 18 "c:\\chibistudio\\tools\\gnu tools arm embedded\\11.3 2022.08\\lib\\gcc\\arm-none-eabi\\1
 779              		.file 19 "../../../os/oslib/include/chdelegates.h"
 780              		.file 20 "<built-in>"