ARM GAS  C:\Users\DEVELO~1\AppData\Local\Temp\cc6J7fdl.s 			page 1


   1              		.cpu cortex-m7
   2              		.arch armv7e-m
   3              		.fpu softvfp
   4              		.eabi_attribute 20, 1
   5              		.eabi_attribute 21, 1
   6              		.eabi_attribute 23, 3
   7              		.eabi_attribute 24, 1
   8              		.eabi_attribute 25, 1
   9              		.eabi_attribute 26, 1
  10              		.eabi_attribute 30, 6
  11              		.eabi_attribute 34, 1
  12              		.eabi_attribute 18, 4
  13              		.file	"chevents.c"
  14              		.text
  15              	.Ltext0:
  16              		.cfi_sections	.debug_frame
  17              		.section	.text.chSysLock,"ax",%progbits
  18              		.align	1
  19              		.syntax unified
  20              		.thumb
  21              		.thumb_func
  22              		.type	chSysLock, %function
  23              	chSysLock:
  24              	.LFB202:
  25              		.file 1 "../../../os/rt/include/chsys.h"
  26              		.loc 1 407 36
  27              		.cfi_startproc
  28              		@ args = 0, pretend = 0, frame = 8
  29              		@ frame_needed = 1, uses_anonymous_args = 0
  30              		@ link register save eliminated.
  31 0000 80B4     		push	{r7}
  32              		.cfi_def_cfa_offset 4
  33              		.cfi_offset 7, -4
  34 0002 83B0     		sub	sp, sp, #12
  35              		.cfi_def_cfa_offset 16
  36 0004 00AF     		add	r7, sp, #0
  37              		.cfi_def_cfa_register 7
  38 0006 3023     		movs	r3, #48
  39 0008 7B60     		str	r3, [r7, #4]
  40              	.LBB14:
  41              	.LBB15:
  42              	.LBB16:
  43              	.LBB17:
  44              		.file 2 "../../../os/common/ext/ARM/CMSIS/Core/Include/cmsis_gcc.h"
  45              		.loc 2 493 3
  46 000a 7B68     		ldr	r3, [r7, #4]
  47              		.syntax unified
  48              	@ 493 "../../../os/common/ext/ARM/CMSIS/Core/Include/cmsis_gcc.h" 1
  49 000c 83F31188 		MSR basepri, r3
  50              	@ 0 "" 2
  51              		.loc 2 494 1
  52              		.thumb
  53              		.syntax unified
  54 0010 00BF     		nop
  55              	.LBE17:
  56              	.LBE16:
  57              		.file 3 "../../../os/common/ports/ARMv7-M/chcore.h"
ARM GAS  C:\Users\DEVELO~1\AppData\Local\Temp\cc6J7fdl.s 			page 2


  58              		.loc 3 840 1
  59 0012 00BF     		nop
  60              	.LBE15:
  61              	.LBE14:
  62              		.loc 1 412 1
  63 0014 00BF     		nop
  64 0016 0C37     		adds	r7, r7, #12
  65              		.cfi_def_cfa_offset 4
  66 0018 BD46     		mov	sp, r7
  67              		.cfi_def_cfa_register 13
  68              		@ sp needed
  69 001a 80BC     		pop	{r7}
  70              		.cfi_restore 7
  71              		.cfi_def_cfa_offset 0
  72 001c 7047     		bx	lr
  73              		.cfi_endproc
  74              	.LFE202:
  75              		.size	chSysLock, .-chSysLock
  76              		.section	.text.chSysUnlock,"ax",%progbits
  77              		.align	1
  78              		.syntax unified
  79              		.thumb
  80              		.thumb_func
  81              		.type	chSysUnlock, %function
  82              	chSysUnlock:
  83              	.LFB203:
  84              		.loc 1 421 38
  85              		.cfi_startproc
  86              		@ args = 0, pretend = 0, frame = 8
  87              		@ frame_needed = 1, uses_anonymous_args = 0
  88              		@ link register save eliminated.
  89 0000 80B4     		push	{r7}
  90              		.cfi_def_cfa_offset 4
  91              		.cfi_offset 7, -4
  92 0002 83B0     		sub	sp, sp, #12
  93              		.cfi_def_cfa_offset 16
  94 0004 00AF     		add	r7, sp, #0
  95              		.cfi_def_cfa_register 7
  96 0006 0023     		movs	r3, #0
  97 0008 7B60     		str	r3, [r7, #4]
  98              	.LBB18:
  99              	.LBB19:
 100              	.LBB20:
 101              	.LBB21:
 102              		.loc 2 493 3
 103 000a 7B68     		ldr	r3, [r7, #4]
 104              		.syntax unified
 105              	@ 493 "../../../os/common/ext/ARM/CMSIS/Core/Include/cmsis_gcc.h" 1
 106 000c 83F31188 		MSR basepri, r3
 107              	@ 0 "" 2
 108              		.loc 2 494 1
 109              		.thumb
 110              		.syntax unified
 111 0010 00BF     		nop
 112              	.LBE21:
 113              	.LBE20:
 114              		.loc 3 854 1
ARM GAS  C:\Users\DEVELO~1\AppData\Local\Temp\cc6J7fdl.s 			page 3


 115 0012 00BF     		nop
 116              	.LBE19:
 117              	.LBE18:
 118              		.loc 1 435 1
 119 0014 00BF     		nop
 120 0016 0C37     		adds	r7, r7, #12
 121              		.cfi_def_cfa_offset 4
 122 0018 BD46     		mov	sp, r7
 123              		.cfi_def_cfa_register 13
 124              		@ sp needed
 125 001a 80BC     		pop	{r7}
 126              		.cfi_restore 7
 127              		.cfi_def_cfa_offset 0
 128 001c 7047     		bx	lr
 129              		.cfi_endproc
 130              	.LFE203:
 131              		.size	chSysUnlock, .-chSysUnlock
 132              		.section	.text.chThdGetSelfX,"ax",%progbits
 133              		.align	1
 134              		.syntax unified
 135              		.thumb
 136              		.thumb_func
 137              		.type	chThdGetSelfX, %function
 138              	chThdGetSelfX:
 139              	.LFB229:
 140              		.file 4 "../../../os/rt/include/chthreads.h"
 141              		.loc 4 341 45
 142              		.cfi_startproc
 143              		@ args = 0, pretend = 0, frame = 0
 144              		@ frame_needed = 1, uses_anonymous_args = 0
 145              		@ link register save eliminated.
 146 0000 80B4     		push	{r7}
 147              		.cfi_def_cfa_offset 4
 148              		.cfi_offset 7, -4
 149 0002 00AF     		add	r7, sp, #0
 150              		.cfi_def_cfa_register 7
 151              		.loc 4 343 10
 152 0004 024B     		ldr	r3, .L5
 153 0006 DB68     		ldr	r3, [r3, #12]
 154              		.loc 4 344 1
 155 0008 1846     		mov	r0, r3
 156 000a BD46     		mov	sp, r7
 157              		.cfi_def_cfa_register 13
 158              		@ sp needed
 159 000c 80BC     		pop	{r7}
 160              		.cfi_restore 7
 161              		.cfi_def_cfa_offset 0
 162 000e 7047     		bx	lr
 163              	.L6:
 164              		.align	2
 165              	.L5:
 166 0010 00000000 		.word	ch0
 167              		.cfi_endproc
 168              	.LFE229:
 169              		.size	chThdGetSelfX, .-chThdGetSelfX
 170              		.section	.text.chEvtAddEventsI,"ax",%progbits
 171              		.align	1
ARM GAS  C:\Users\DEVELO~1\AppData\Local\Temp\cc6J7fdl.s 			page 4


 172              		.syntax unified
 173              		.thumb
 174              		.thumb_func
 175              		.type	chEvtAddEventsI, %function
 176              	chEvtAddEventsI:
 177              	.LFB257:
 178              		.file 5 "../../../os/rt/include/chevents.h"
 179              		.loc 5 273 63
 180              		.cfi_startproc
 181              		@ args = 0, pretend = 0, frame = 8
 182              		@ frame_needed = 1, uses_anonymous_args = 0
 183              		@ link register save eliminated.
 184 0000 80B4     		push	{r7}
 185              		.cfi_def_cfa_offset 4
 186              		.cfi_offset 7, -4
 187 0002 83B0     		sub	sp, sp, #12
 188              		.cfi_def_cfa_offset 16
 189 0004 00AF     		add	r7, sp, #0
 190              		.cfi_def_cfa_register 7
 191 0006 7860     		str	r0, [r7, #4]
 192              		.loc 5 275 10
 193 0008 064B     		ldr	r3, .L9
 194 000a DB68     		ldr	r3, [r3, #12]
 195              		.loc 5 275 43
 196 000c 996B     		ldr	r1, [r3, #56]
 197              		.loc 5 275 10
 198 000e 054B     		ldr	r3, .L9
 199 0010 DB68     		ldr	r3, [r3, #12]
 200              		.loc 5 275 43
 201 0012 7A68     		ldr	r2, [r7, #4]
 202 0014 0A43     		orrs	r2, r2, r1
 203 0016 9A63     		str	r2, [r3, #56]
 204 0018 9B6B     		ldr	r3, [r3, #56]
 205              		.loc 5 276 1
 206 001a 1846     		mov	r0, r3
 207 001c 0C37     		adds	r7, r7, #12
 208              		.cfi_def_cfa_offset 4
 209 001e BD46     		mov	sp, r7
 210              		.cfi_def_cfa_register 13
 211              		@ sp needed
 212 0020 80BC     		pop	{r7}
 213              		.cfi_restore 7
 214              		.cfi_def_cfa_offset 0
 215 0022 7047     		bx	lr
 216              	.L10:
 217              		.align	2
 218              	.L9:
 219 0024 00000000 		.word	ch0
 220              		.cfi_endproc
 221              	.LFE257:
 222              		.size	chEvtAddEventsI, .-chEvtAddEventsI
 223              		.section	.text.chEvtRegisterMaskWithFlagsI,"ax",%progbits
 224              		.align	1
 225              		.global	chEvtRegisterMaskWithFlagsI
 226              		.syntax unified
 227              		.thumb
 228              		.thumb_func
ARM GAS  C:\Users\DEVELO~1\AppData\Local\Temp\cc6J7fdl.s 			page 5


 229              		.type	chEvtRegisterMaskWithFlagsI, %function
 230              	chEvtRegisterMaskWithFlagsI:
 231              	.LFB346:
 232              		.file 6 "../../../os/rt/src/chevents.c"
 233              		.loc 6 106 55
 234              		.cfi_startproc
 235              		@ args = 0, pretend = 0, frame = 24
 236              		@ frame_needed = 1, uses_anonymous_args = 0
 237 0000 80B5     		push	{r7, lr}
 238              		.cfi_def_cfa_offset 8
 239              		.cfi_offset 7, -8
 240              		.cfi_offset 14, -4
 241 0002 86B0     		sub	sp, sp, #24
 242              		.cfi_def_cfa_offset 32
 243 0004 00AF     		add	r7, sp, #0
 244              		.cfi_def_cfa_register 7
 245 0006 F860     		str	r0, [r7, #12]
 246 0008 B960     		str	r1, [r7, #8]
 247 000a 7A60     		str	r2, [r7, #4]
 248 000c 3B60     		str	r3, [r7]
 249              		.loc 6 107 22
 250 000e FFF7FEFF 		bl	chThdGetSelfX
 251 0012 7861     		str	r0, [r7, #20]
 252              		.loc 6 112 22
 253 0014 FB68     		ldr	r3, [r7, #12]
 254 0016 1A68     		ldr	r2, [r3]
 255              		.loc 6 112 17
 256 0018 BB68     		ldr	r3, [r7, #8]
 257 001a 1A60     		str	r2, [r3]
 258              		.loc 6 113 17
 259 001c FB68     		ldr	r3, [r7, #12]
 260 001e BA68     		ldr	r2, [r7, #8]
 261 0020 1A60     		str	r2, [r3]
 262              		.loc 6 114 17
 263 0022 BB68     		ldr	r3, [r7, #8]
 264 0024 7A69     		ldr	r2, [r7, #20]
 265 0026 5A60     		str	r2, [r3, #4]
 266              		.loc 6 115 17
 267 0028 BB68     		ldr	r3, [r7, #8]
 268 002a 7A68     		ldr	r2, [r7, #4]
 269 002c 9A60     		str	r2, [r3, #8]
 270              		.loc 6 116 17
 271 002e BB68     		ldr	r3, [r7, #8]
 272 0030 0022     		movs	r2, #0
 273 0032 DA60     		str	r2, [r3, #12]
 274              		.loc 6 117 17
 275 0034 BB68     		ldr	r3, [r7, #8]
 276 0036 3A68     		ldr	r2, [r7]
 277 0038 1A61     		str	r2, [r3, #16]
 278              		.loc 6 118 1
 279 003a 00BF     		nop
 280 003c 1837     		adds	r7, r7, #24
 281              		.cfi_def_cfa_offset 8
 282 003e BD46     		mov	sp, r7
 283              		.cfi_def_cfa_register 13
 284              		@ sp needed
 285 0040 80BD     		pop	{r7, pc}
ARM GAS  C:\Users\DEVELO~1\AppData\Local\Temp\cc6J7fdl.s 			page 6


 286              		.cfi_endproc
 287              	.LFE346:
 288              		.size	chEvtRegisterMaskWithFlagsI, .-chEvtRegisterMaskWithFlagsI
 289              		.section	.text.chEvtRegisterMaskWithFlags,"ax",%progbits
 290              		.align	1
 291              		.global	chEvtRegisterMaskWithFlags
 292              		.syntax unified
 293              		.thumb
 294              		.thumb_func
 295              		.type	chEvtRegisterMaskWithFlags, %function
 296              	chEvtRegisterMaskWithFlags:
 297              	.LFB347:
 298              		.loc 6 138 54
 299              		.cfi_startproc
 300              		@ args = 0, pretend = 0, frame = 16
 301              		@ frame_needed = 1, uses_anonymous_args = 0
 302 0000 80B5     		push	{r7, lr}
 303              		.cfi_def_cfa_offset 8
 304              		.cfi_offset 7, -8
 305              		.cfi_offset 14, -4
 306 0002 84B0     		sub	sp, sp, #16
 307              		.cfi_def_cfa_offset 24
 308 0004 00AF     		add	r7, sp, #0
 309              		.cfi_def_cfa_register 7
 310 0006 F860     		str	r0, [r7, #12]
 311 0008 B960     		str	r1, [r7, #8]
 312 000a 7A60     		str	r2, [r7, #4]
 313 000c 3B60     		str	r3, [r7]
 314              		.loc 6 140 3
 315 000e FFF7FEFF 		bl	chSysLock
 316              		.loc 6 141 3
 317 0012 3B68     		ldr	r3, [r7]
 318 0014 7A68     		ldr	r2, [r7, #4]
 319 0016 B968     		ldr	r1, [r7, #8]
 320 0018 F868     		ldr	r0, [r7, #12]
 321 001a FFF7FEFF 		bl	chEvtRegisterMaskWithFlagsI
 322              		.loc 6 142 3
 323 001e FFF7FEFF 		bl	chSysUnlock
 324              		.loc 6 143 1
 325 0022 00BF     		nop
 326 0024 1037     		adds	r7, r7, #16
 327              		.cfi_def_cfa_offset 8
 328 0026 BD46     		mov	sp, r7
 329              		.cfi_def_cfa_register 13
 330              		@ sp needed
 331 0028 80BD     		pop	{r7, pc}
 332              		.cfi_endproc
 333              	.LFE347:
 334              		.size	chEvtRegisterMaskWithFlags, .-chEvtRegisterMaskWithFlags
 335              		.section	.text.chEvtUnregister,"ax",%progbits
 336              		.align	1
 337              		.global	chEvtUnregister
 338              		.syntax unified
 339              		.thumb
 340              		.thumb_func
 341              		.type	chEvtUnregister, %function
 342              	chEvtUnregister:
ARM GAS  C:\Users\DEVELO~1\AppData\Local\Temp\cc6J7fdl.s 			page 7


 343              	.LFB348:
 344              		.loc 6 158 66
 345              		.cfi_startproc
 346              		@ args = 0, pretend = 0, frame = 16
 347              		@ frame_needed = 1, uses_anonymous_args = 0
 348 0000 80B5     		push	{r7, lr}
 349              		.cfi_def_cfa_offset 8
 350              		.cfi_offset 7, -8
 351              		.cfi_offset 14, -4
 352 0002 84B0     		sub	sp, sp, #16
 353              		.cfi_def_cfa_offset 24
 354 0004 00AF     		add	r7, sp, #0
 355              		.cfi_def_cfa_register 7
 356 0006 7860     		str	r0, [r7, #4]
 357 0008 3960     		str	r1, [r7]
 358              		.loc 6 164 5
 359 000a 7B68     		ldr	r3, [r7, #4]
 360 000c FB60     		str	r3, [r7, #12]
 361              		.loc 6 166 3
 362 000e FFF7FEFF 		bl	chSysLock
 363              		.loc 6 168 9
 364 0012 0CE0     		b	.L14
 365              	.L17:
 366              		.loc 6 170 10
 367 0014 FB68     		ldr	r3, [r7, #12]
 368 0016 1B68     		ldr	r3, [r3]
 369              		.loc 6 170 8
 370 0018 3A68     		ldr	r2, [r7]
 371 001a 9A42     		cmp	r2, r3
 372 001c 04D1     		bne	.L15
 373              		.loc 6 171 20
 374 001e 3B68     		ldr	r3, [r7]
 375 0020 1A68     		ldr	r2, [r3]
 376              		.loc 6 171 15
 377 0022 FB68     		ldr	r3, [r7, #12]
 378 0024 1A60     		str	r2, [r3]
 379              		.loc 6 172 7
 380 0026 07E0     		b	.L16
 381              	.L15:
 382              		.loc 6 174 7
 383 0028 FB68     		ldr	r3, [r7, #12]
 384 002a 1B68     		ldr	r3, [r3]
 385 002c FB60     		str	r3, [r7, #12]
 386              	.L14:
 387              		.loc 6 168 11
 388 002e FB68     		ldr	r3, [r7, #12]
 389 0030 1B68     		ldr	r3, [r3]
 390              		.loc 6 168 18
 391 0032 7A68     		ldr	r2, [r7, #4]
 392 0034 9A42     		cmp	r2, r3
 393 0036 EDD1     		bne	.L17
 394              	.L16:
 395              		.loc 6 176 3
 396 0038 FFF7FEFF 		bl	chSysUnlock
 397              		.loc 6 177 1
 398 003c 00BF     		nop
 399 003e 1037     		adds	r7, r7, #16
ARM GAS  C:\Users\DEVELO~1\AppData\Local\Temp\cc6J7fdl.s 			page 8


 400              		.cfi_def_cfa_offset 8
 401 0040 BD46     		mov	sp, r7
 402              		.cfi_def_cfa_register 13
 403              		@ sp needed
 404 0042 80BD     		pop	{r7, pc}
 405              		.cfi_endproc
 406              	.LFE348:
 407              		.size	chEvtUnregister, .-chEvtUnregister
 408              		.section	.text.chEvtGetAndClearEventsI,"ax",%progbits
 409              		.align	1
 410              		.global	chEvtGetAndClearEventsI
 411              		.syntax unified
 412              		.thumb
 413              		.thumb_func
 414              		.type	chEvtGetAndClearEventsI, %function
 415              	chEvtGetAndClearEventsI:
 416              	.LFB349:
 417              		.loc 6 187 57
 418              		.cfi_startproc
 419              		@ args = 0, pretend = 0, frame = 16
 420              		@ frame_needed = 1, uses_anonymous_args = 0
 421 0000 80B5     		push	{r7, lr}
 422              		.cfi_def_cfa_offset 8
 423              		.cfi_offset 7, -8
 424              		.cfi_offset 14, -4
 425 0002 84B0     		sub	sp, sp, #16
 426              		.cfi_def_cfa_offset 24
 427 0004 00AF     		add	r7, sp, #0
 428              		.cfi_def_cfa_register 7
 429 0006 7860     		str	r0, [r7, #4]
 430              		.loc 6 188 22
 431 0008 FFF7FEFF 		bl	chThdGetSelfX
 432 000c F860     		str	r0, [r7, #12]
 433              		.loc 6 193 13
 434 000e FB68     		ldr	r3, [r7, #12]
 435 0010 9B6B     		ldr	r3, [r3, #56]
 436              		.loc 6 193 5
 437 0012 7A68     		ldr	r2, [r7, #4]
 438 0014 1340     		ands	r3, r3, r2
 439 0016 BB60     		str	r3, [r7, #8]
 440              		.loc 6 194 20
 441 0018 FB68     		ldr	r3, [r7, #12]
 442 001a 9A6B     		ldr	r2, [r3, #56]
 443              		.loc 6 194 23
 444 001c 7B68     		ldr	r3, [r7, #4]
 445 001e DB43     		mvns	r3, r3
 446              		.loc 6 194 20
 447 0020 1A40     		ands	r2, r2, r3
 448 0022 FB68     		ldr	r3, [r7, #12]
 449 0024 9A63     		str	r2, [r3, #56]
 450              		.loc 6 196 10
 451 0026 BB68     		ldr	r3, [r7, #8]
 452              		.loc 6 197 1
 453 0028 1846     		mov	r0, r3
 454 002a 1037     		adds	r7, r7, #16
 455              		.cfi_def_cfa_offset 8
 456 002c BD46     		mov	sp, r7
ARM GAS  C:\Users\DEVELO~1\AppData\Local\Temp\cc6J7fdl.s 			page 9


 457              		.cfi_def_cfa_register 13
 458              		@ sp needed
 459 002e 80BD     		pop	{r7, pc}
 460              		.cfi_endproc
 461              	.LFE349:
 462              		.size	chEvtGetAndClearEventsI, .-chEvtGetAndClearEventsI
 463              		.section	.text.chEvtGetAndClearEvents,"ax",%progbits
 464              		.align	1
 465              		.global	chEvtGetAndClearEvents
 466              		.syntax unified
 467              		.thumb
 468              		.thumb_func
 469              		.type	chEvtGetAndClearEvents, %function
 470              	chEvtGetAndClearEvents:
 471              	.LFB350:
 472              		.loc 6 207 56
 473              		.cfi_startproc
 474              		@ args = 0, pretend = 0, frame = 16
 475              		@ frame_needed = 1, uses_anonymous_args = 0
 476 0000 80B5     		push	{r7, lr}
 477              		.cfi_def_cfa_offset 8
 478              		.cfi_offset 7, -8
 479              		.cfi_offset 14, -4
 480 0002 84B0     		sub	sp, sp, #16
 481              		.cfi_def_cfa_offset 24
 482 0004 00AF     		add	r7, sp, #0
 483              		.cfi_def_cfa_register 7
 484 0006 7860     		str	r0, [r7, #4]
 485              		.loc 6 210 3
 486 0008 FFF7FEFF 		bl	chSysLock
 487              		.loc 6 211 7
 488 000c 7868     		ldr	r0, [r7, #4]
 489 000e FFF7FEFF 		bl	chEvtGetAndClearEventsI
 490 0012 F860     		str	r0, [r7, #12]
 491              		.loc 6 212 3
 492 0014 FFF7FEFF 		bl	chSysUnlock
 493              		.loc 6 214 10
 494 0018 FB68     		ldr	r3, [r7, #12]
 495              		.loc 6 215 1
 496 001a 1846     		mov	r0, r3
 497 001c 1037     		adds	r7, r7, #16
 498              		.cfi_def_cfa_offset 8
 499 001e BD46     		mov	sp, r7
 500              		.cfi_def_cfa_register 13
 501              		@ sp needed
 502 0020 80BD     		pop	{r7, pc}
 503              		.cfi_endproc
 504              	.LFE350:
 505              		.size	chEvtGetAndClearEvents, .-chEvtGetAndClearEvents
 506              		.section	.text.chEvtAddEvents,"ax",%progbits
 507              		.align	1
 508              		.global	chEvtAddEvents
 509              		.syntax unified
 510              		.thumb
 511              		.thumb_func
 512              		.type	chEvtAddEvents, %function
 513              	chEvtAddEvents:
ARM GAS  C:\Users\DEVELO~1\AppData\Local\Temp\cc6J7fdl.s 			page 10


 514              	.LFB351:
 515              		.loc 6 226 48
 516              		.cfi_startproc
 517              		@ args = 0, pretend = 0, frame = 16
 518              		@ frame_needed = 1, uses_anonymous_args = 0
 519 0000 80B5     		push	{r7, lr}
 520              		.cfi_def_cfa_offset 8
 521              		.cfi_offset 7, -8
 522              		.cfi_offset 14, -4
 523 0002 84B0     		sub	sp, sp, #16
 524              		.cfi_def_cfa_offset 24
 525 0004 00AF     		add	r7, sp, #0
 526              		.cfi_def_cfa_register 7
 527 0006 7860     		str	r0, [r7, #4]
 528              		.loc 6 229 3
 529 0008 FFF7FEFF 		bl	chSysLock
 530              		.loc 6 230 12
 531 000c 7868     		ldr	r0, [r7, #4]
 532 000e FFF7FEFF 		bl	chEvtAddEventsI
 533 0012 F860     		str	r0, [r7, #12]
 534              		.loc 6 231 3
 535 0014 FFF7FEFF 		bl	chSysUnlock
 536              		.loc 6 233 10
 537 0018 FB68     		ldr	r3, [r7, #12]
 538              		.loc 6 234 1
 539 001a 1846     		mov	r0, r3
 540 001c 1037     		adds	r7, r7, #16
 541              		.cfi_def_cfa_offset 8
 542 001e BD46     		mov	sp, r7
 543              		.cfi_def_cfa_register 13
 544              		@ sp needed
 545 0020 80BD     		pop	{r7, pc}
 546              		.cfi_endproc
 547              	.LFE351:
 548              		.size	chEvtAddEvents, .-chEvtAddEvents
 549              		.section	.text.chEvtGetAndClearFlagsI,"ax",%progbits
 550              		.align	1
 551              		.global	chEvtGetAndClearFlagsI
 552              		.syntax unified
 553              		.thumb
 554              		.thumb_func
 555              		.type	chEvtGetAndClearFlagsI, %function
 556              	chEvtGetAndClearFlagsI:
 557              	.LFB352:
 558              		.loc 6 247 60
 559              		.cfi_startproc
 560              		@ args = 0, pretend = 0, frame = 16
 561              		@ frame_needed = 1, uses_anonymous_args = 0
 562              		@ link register save eliminated.
 563 0000 80B4     		push	{r7}
 564              		.cfi_def_cfa_offset 4
 565              		.cfi_offset 7, -4
 566 0002 85B0     		sub	sp, sp, #20
 567              		.cfi_def_cfa_offset 24
 568 0004 00AF     		add	r7, sp, #0
 569              		.cfi_def_cfa_register 7
 570 0006 7860     		str	r0, [r7, #4]
ARM GAS  C:\Users\DEVELO~1\AppData\Local\Temp\cc6J7fdl.s 			page 11


 571              		.loc 6 253 9
 572 0008 7B68     		ldr	r3, [r7, #4]
 573 000a DB68     		ldr	r3, [r3, #12]
 574 000c FB60     		str	r3, [r7, #12]
 575              		.loc 6 254 14
 576 000e 7B68     		ldr	r3, [r7, #4]
 577 0010 0022     		movs	r2, #0
 578 0012 DA60     		str	r2, [r3, #12]
 579              		.loc 6 256 21
 580 0014 7B68     		ldr	r3, [r7, #4]
 581 0016 1A69     		ldr	r2, [r3, #16]
 582              		.loc 6 256 16
 583 0018 FB68     		ldr	r3, [r7, #12]
 584 001a 1340     		ands	r3, r3, r2
 585              		.loc 6 257 1
 586 001c 1846     		mov	r0, r3
 587 001e 1437     		adds	r7, r7, #20
 588              		.cfi_def_cfa_offset 4
 589 0020 BD46     		mov	sp, r7
 590              		.cfi_def_cfa_register 13
 591              		@ sp needed
 592 0022 80BC     		pop	{r7}
 593              		.cfi_restore 7
 594              		.cfi_def_cfa_offset 0
 595 0024 7047     		bx	lr
 596              		.cfi_endproc
 597              	.LFE352:
 598              		.size	chEvtGetAndClearFlagsI, .-chEvtGetAndClearFlagsI
 599              		.section	.text.chEvtGetAndClearFlags,"ax",%progbits
 600              		.align	1
 601              		.global	chEvtGetAndClearFlags
 602              		.syntax unified
 603              		.thumb
 604              		.thumb_func
 605              		.type	chEvtGetAndClearFlags, %function
 606              	chEvtGetAndClearFlags:
 607              	.LFB353:
 608              		.loc 6 270 59
 609              		.cfi_startproc
 610              		@ args = 0, pretend = 0, frame = 16
 611              		@ frame_needed = 1, uses_anonymous_args = 0
 612 0000 80B5     		push	{r7, lr}
 613              		.cfi_def_cfa_offset 8
 614              		.cfi_offset 7, -8
 615              		.cfi_offset 14, -4
 616 0002 84B0     		sub	sp, sp, #16
 617              		.cfi_def_cfa_offset 24
 618 0004 00AF     		add	r7, sp, #0
 619              		.cfi_def_cfa_register 7
 620 0006 7860     		str	r0, [r7, #4]
 621              		.loc 6 275 3
 622 0008 FFF7FEFF 		bl	chSysLock
 623              		.loc 6 276 9
 624 000c 7B68     		ldr	r3, [r7, #4]
 625 000e DB68     		ldr	r3, [r3, #12]
 626 0010 FB60     		str	r3, [r7, #12]
 627              		.loc 6 277 14
ARM GAS  C:\Users\DEVELO~1\AppData\Local\Temp\cc6J7fdl.s 			page 12


 628 0012 7B68     		ldr	r3, [r7, #4]
 629 0014 0022     		movs	r2, #0
 630 0016 DA60     		str	r2, [r3, #12]
 631              		.loc 6 278 3
 632 0018 FFF7FEFF 		bl	chSysUnlock
 633              		.loc 6 280 21
 634 001c 7B68     		ldr	r3, [r7, #4]
 635 001e 1A69     		ldr	r2, [r3, #16]
 636              		.loc 6 280 16
 637 0020 FB68     		ldr	r3, [r7, #12]
 638 0022 1340     		ands	r3, r3, r2
 639              		.loc 6 281 1
 640 0024 1846     		mov	r0, r3
 641 0026 1037     		adds	r7, r7, #16
 642              		.cfi_def_cfa_offset 8
 643 0028 BD46     		mov	sp, r7
 644              		.cfi_def_cfa_register 13
 645              		@ sp needed
 646 002a 80BD     		pop	{r7, pc}
 647              		.cfi_endproc
 648              	.LFE353:
 649              		.size	chEvtGetAndClearFlags, .-chEvtGetAndClearFlags
 650              		.section	.text.chEvtSignalI,"ax",%progbits
 651              		.align	1
 652              		.global	chEvtSignalI
 653              		.syntax unified
 654              		.thumb
 655              		.thumb_func
 656              		.type	chEvtSignalI, %function
 657              	chEvtSignalI:
 658              	.LFB354:
 659              		.loc 6 295 53
 660              		.cfi_startproc
 661              		@ args = 0, pretend = 0, frame = 8
 662              		@ frame_needed = 1, uses_anonymous_args = 0
 663 0000 80B5     		push	{r7, lr}
 664              		.cfi_def_cfa_offset 8
 665              		.cfi_offset 7, -8
 666              		.cfi_offset 14, -4
 667 0002 82B0     		sub	sp, sp, #8
 668              		.cfi_def_cfa_offset 16
 669 0004 00AF     		add	r7, sp, #0
 670              		.cfi_def_cfa_register 7
 671 0006 7860     		str	r0, [r7, #4]
 672 0008 3960     		str	r1, [r7]
 673              		.loc 6 300 16
 674 000a 7B68     		ldr	r3, [r7, #4]
 675 000c 9A6B     		ldr	r2, [r3, #56]
 676 000e 3B68     		ldr	r3, [r7]
 677 0010 1A43     		orrs	r2, r2, r3
 678 0012 7B68     		ldr	r3, [r7, #4]
 679 0014 9A63     		str	r2, [r3, #56]
 680              		.loc 6 302 11
 681 0016 7B68     		ldr	r3, [r7, #4]
 682 0018 93F82430 		ldrb	r3, [r3, #36]	@ zero_extendqisi2
 683              		.loc 6 302 6
 684 001c 0A2B     		cmp	r3, #10
ARM GAS  C:\Users\DEVELO~1\AppData\Local\Temp\cc6J7fdl.s 			page 13


 685 001e 06D1     		bne	.L29
 686              		.loc 6 303 12 discriminator 1
 687 0020 7B68     		ldr	r3, [r7, #4]
 688 0022 9A6B     		ldr	r2, [r3, #56]
 689              		.loc 6 303 30 discriminator 1
 690 0024 7B68     		ldr	r3, [r7, #4]
 691 0026 9B6A     		ldr	r3, [r3, #40]
 692              		.loc 6 303 23 discriminator 1
 693 0028 1340     		ands	r3, r3, r2
 694              		.loc 6 302 40 discriminator 1
 695 002a 002B     		cmp	r3, #0
 696 002c 0DD1     		bne	.L30
 697              	.L29:
 698              		.loc 6 304 11
 699 002e 7B68     		ldr	r3, [r7, #4]
 700 0030 93F82430 		ldrb	r3, [r3, #36]	@ zero_extendqisi2
 701              		.loc 6 303 59
 702 0034 0B2B     		cmp	r3, #11
 703 0036 0ED1     		bne	.L32
 704              		.loc 6 305 12
 705 0038 7B68     		ldr	r3, [r7, #4]
 706 003a 9A6B     		ldr	r2, [r3, #56]
 707              		.loc 6 305 30
 708 003c 7B68     		ldr	r3, [r7, #4]
 709 003e 9B6A     		ldr	r3, [r3, #40]
 710              		.loc 6 305 23
 711 0040 1A40     		ands	r2, r2, r3
 712              		.loc 6 305 47
 713 0042 7B68     		ldr	r3, [r7, #4]
 714 0044 9B6A     		ldr	r3, [r3, #40]
 715              		.loc 6 304 41
 716 0046 9A42     		cmp	r2, r3
 717 0048 05D1     		bne	.L32
 718              	.L30:
 719              		.loc 6 306 18
 720 004a 7B68     		ldr	r3, [r7, #4]
 721 004c 0022     		movs	r2, #0
 722 004e 9A62     		str	r2, [r3, #40]
 723              		.loc 6 307 12
 724 0050 7868     		ldr	r0, [r7, #4]
 725 0052 FFF7FEFF 		bl	chSchReadyI
 726              	.L32:
 727              		.loc 6 309 1
 728 0056 00BF     		nop
 729 0058 0837     		adds	r7, r7, #8
 730              		.cfi_def_cfa_offset 8
 731 005a BD46     		mov	sp, r7
 732              		.cfi_def_cfa_register 13
 733              		@ sp needed
 734 005c 80BD     		pop	{r7, pc}
 735              		.cfi_endproc
 736              	.LFE354:
 737              		.size	chEvtSignalI, .-chEvtSignalI
 738              		.section	.text.chEvtSignal,"ax",%progbits
 739              		.align	1
 740              		.global	chEvtSignal
 741              		.syntax unified
ARM GAS  C:\Users\DEVELO~1\AppData\Local\Temp\cc6J7fdl.s 			page 14


 742              		.thumb
 743              		.thumb_func
 744              		.type	chEvtSignal, %function
 745              	chEvtSignal:
 746              	.LFB355:
 747              		.loc 6 319 52
 748              		.cfi_startproc
 749              		@ args = 0, pretend = 0, frame = 8
 750              		@ frame_needed = 1, uses_anonymous_args = 0
 751 0000 80B5     		push	{r7, lr}
 752              		.cfi_def_cfa_offset 8
 753              		.cfi_offset 7, -8
 754              		.cfi_offset 14, -4
 755 0002 82B0     		sub	sp, sp, #8
 756              		.cfi_def_cfa_offset 16
 757 0004 00AF     		add	r7, sp, #0
 758              		.cfi_def_cfa_register 7
 759 0006 7860     		str	r0, [r7, #4]
 760 0008 3960     		str	r1, [r7]
 761              		.loc 6 323 3
 762 000a FFF7FEFF 		bl	chSysLock
 763              		.loc 6 324 3
 764 000e 3968     		ldr	r1, [r7]
 765 0010 7868     		ldr	r0, [r7, #4]
 766 0012 FFF7FEFF 		bl	chEvtSignalI
 767              		.loc 6 325 3
 768 0016 FFF7FEFF 		bl	chSchRescheduleS
 769              		.loc 6 326 3
 770 001a FFF7FEFF 		bl	chSysUnlock
 771              		.loc 6 327 1
 772 001e 00BF     		nop
 773 0020 0837     		adds	r7, r7, #8
 774              		.cfi_def_cfa_offset 8
 775 0022 BD46     		mov	sp, r7
 776              		.cfi_def_cfa_register 13
 777              		@ sp needed
 778 0024 80BD     		pop	{r7, pc}
 779              		.cfi_endproc
 780              	.LFE355:
 781              		.size	chEvtSignal, .-chEvtSignal
 782              		.section	.text.chEvtBroadcastFlagsI,"ax",%progbits
 783              		.align	1
 784              		.global	chEvtBroadcastFlagsI
 785              		.syntax unified
 786              		.thumb
 787              		.thumb_func
 788              		.type	chEvtBroadcastFlagsI, %function
 789              	chEvtBroadcastFlagsI:
 790              	.LFB356:
 791              		.loc 6 346 68
 792              		.cfi_startproc
 793              		@ args = 0, pretend = 0, frame = 16
 794              		@ frame_needed = 1, uses_anonymous_args = 0
 795 0000 80B5     		push	{r7, lr}
 796              		.cfi_def_cfa_offset 8
 797              		.cfi_offset 7, -8
 798              		.cfi_offset 14, -4
ARM GAS  C:\Users\DEVELO~1\AppData\Local\Temp\cc6J7fdl.s 			page 15


 799 0002 84B0     		sub	sp, sp, #16
 800              		.cfi_def_cfa_offset 24
 801 0004 00AF     		add	r7, sp, #0
 802              		.cfi_def_cfa_register 7
 803 0006 7860     		str	r0, [r7, #4]
 804 0008 3960     		str	r1, [r7]
 805              		.loc 6 352 7
 806 000a 7B68     		ldr	r3, [r7, #4]
 807 000c 1B68     		ldr	r3, [r3]
 808 000e FB60     		str	r3, [r7, #12]
 809              		.loc 6 354 9
 810 0010 19E0     		b	.L35
 811              	.L38:
 812              		.loc 6 356 16
 813 0012 FB68     		ldr	r3, [r7, #12]
 814 0014 DA68     		ldr	r2, [r3, #12]
 815 0016 3B68     		ldr	r3, [r7]
 816 0018 1A43     		orrs	r2, r2, r3
 817 001a FB68     		ldr	r3, [r7, #12]
 818 001c DA60     		str	r2, [r3, #12]
 819              		.loc 6 359 8
 820 001e 3B68     		ldr	r3, [r7]
 821 0020 002B     		cmp	r3, #0
 822 0022 05D0     		beq	.L36
 823              		.loc 6 360 22 discriminator 1
 824 0024 FB68     		ldr	r3, [r7, #12]
 825 0026 1A69     		ldr	r2, [r3, #16]
 826              		.loc 6 360 17 discriminator 1
 827 0028 3B68     		ldr	r3, [r7]
 828 002a 1340     		ands	r3, r3, r2
 829              		.loc 6 359 36 discriminator 1
 830 002c 002B     		cmp	r3, #0
 831 002e 07D0     		beq	.L37
 832              	.L36:
 833              		.loc 6 361 7
 834 0030 FB68     		ldr	r3, [r7, #12]
 835 0032 5A68     		ldr	r2, [r3, #4]
 836 0034 FB68     		ldr	r3, [r7, #12]
 837 0036 9B68     		ldr	r3, [r3, #8]
 838 0038 1946     		mov	r1, r3
 839 003a 1046     		mov	r0, r2
 840 003c FFF7FEFF 		bl	chEvtSignalI
 841              	.L37:
 842              		.loc 6 363 9
 843 0040 FB68     		ldr	r3, [r7, #12]
 844 0042 1B68     		ldr	r3, [r3]
 845 0044 FB60     		str	r3, [r7, #12]
 846              	.L35:
 847              		.loc 6 354 14
 848 0046 FA68     		ldr	r2, [r7, #12]
 849 0048 7B68     		ldr	r3, [r7, #4]
 850 004a 9A42     		cmp	r2, r3
 851 004c E1D1     		bne	.L38
 852              		.loc 6 365 1
 853 004e 00BF     		nop
 854 0050 00BF     		nop
 855 0052 1037     		adds	r7, r7, #16
ARM GAS  C:\Users\DEVELO~1\AppData\Local\Temp\cc6J7fdl.s 			page 16


 856              		.cfi_def_cfa_offset 8
 857 0054 BD46     		mov	sp, r7
 858              		.cfi_def_cfa_register 13
 859              		@ sp needed
 860 0056 80BD     		pop	{r7, pc}
 861              		.cfi_endproc
 862              	.LFE356:
 863              		.size	chEvtBroadcastFlagsI, .-chEvtBroadcastFlagsI
 864              		.section	.text.chEvtBroadcastFlags,"ax",%progbits
 865              		.align	1
 866              		.global	chEvtBroadcastFlags
 867              		.syntax unified
 868              		.thumb
 869              		.thumb_func
 870              		.type	chEvtBroadcastFlags, %function
 871              	chEvtBroadcastFlags:
 872              	.LFB357:
 873              		.loc 6 380 67
 874              		.cfi_startproc
 875              		@ args = 0, pretend = 0, frame = 8
 876              		@ frame_needed = 1, uses_anonymous_args = 0
 877 0000 80B5     		push	{r7, lr}
 878              		.cfi_def_cfa_offset 8
 879              		.cfi_offset 7, -8
 880              		.cfi_offset 14, -4
 881 0002 82B0     		sub	sp, sp, #8
 882              		.cfi_def_cfa_offset 16
 883 0004 00AF     		add	r7, sp, #0
 884              		.cfi_def_cfa_register 7
 885 0006 7860     		str	r0, [r7, #4]
 886 0008 3960     		str	r1, [r7]
 887              		.loc 6 382 3
 888 000a FFF7FEFF 		bl	chSysLock
 889              		.loc 6 383 3
 890 000e 3968     		ldr	r1, [r7]
 891 0010 7868     		ldr	r0, [r7, #4]
 892 0012 FFF7FEFF 		bl	chEvtBroadcastFlagsI
 893              		.loc 6 384 3
 894 0016 FFF7FEFF 		bl	chSchRescheduleS
 895              		.loc 6 385 3
 896 001a FFF7FEFF 		bl	chSysUnlock
 897              		.loc 6 386 1
 898 001e 00BF     		nop
 899 0020 0837     		adds	r7, r7, #8
 900              		.cfi_def_cfa_offset 8
 901 0022 BD46     		mov	sp, r7
 902              		.cfi_def_cfa_register 13
 903              		@ sp needed
 904 0024 80BD     		pop	{r7, pc}
 905              		.cfi_endproc
 906              	.LFE357:
 907              		.size	chEvtBroadcastFlags, .-chEvtBroadcastFlags
 908              		.section	.text.chEvtDispatch,"ax",%progbits
 909              		.align	1
 910              		.global	chEvtDispatch
 911              		.syntax unified
 912              		.thumb
ARM GAS  C:\Users\DEVELO~1\AppData\Local\Temp\cc6J7fdl.s 			page 17


 913              		.thumb_func
 914              		.type	chEvtDispatch, %function
 915              	chEvtDispatch:
 916              	.LFB358:
 917              		.loc 6 397 69
 918              		.cfi_startproc
 919              		@ args = 0, pretend = 0, frame = 16
 920              		@ frame_needed = 1, uses_anonymous_args = 0
 921 0000 80B5     		push	{r7, lr}
 922              		.cfi_def_cfa_offset 8
 923              		.cfi_offset 7, -8
 924              		.cfi_offset 14, -4
 925 0002 84B0     		sub	sp, sp, #16
 926              		.cfi_def_cfa_offset 24
 927 0004 00AF     		add	r7, sp, #0
 928              		.cfi_def_cfa_register 7
 929 0006 7860     		str	r0, [r7, #4]
 930 0008 3960     		str	r1, [r7]
 931              		.loc 6 402 7
 932 000a 0023     		movs	r3, #0
 933 000c FB60     		str	r3, [r7, #12]
 934              		.loc 6 403 9
 935 000e 19E0     		b	.L41
 936              	.L43:
 937              		.loc 6 404 19
 938 0010 FB68     		ldr	r3, [r7, #12]
 939              		.loc 6 404 36
 940 0012 3A68     		ldr	r2, [r7]
 941 0014 22FA03F3 		lsr	r3, r2, r3
 942 0018 03F00103 		and	r3, r3, #1
 943              		.loc 6 404 8
 944 001c 002B     		cmp	r3, #0
 945 001e 0ED0     		beq	.L42
 946              		.loc 6 406 18
 947 0020 FB68     		ldr	r3, [r7, #12]
 948 0022 0122     		movs	r2, #1
 949 0024 02FA03F3 		lsl	r3, r2, r3
 950              		.loc 6 406 17
 951 0028 DB43     		mvns	r3, r3
 952              		.loc 6 406 14
 953 002a 3A68     		ldr	r2, [r7]
 954 002c 1340     		ands	r3, r3, r2
 955 002e 3B60     		str	r3, [r7]
 956              		.loc 6 407 15
 957 0030 FB68     		ldr	r3, [r7, #12]
 958 0032 9B00     		lsls	r3, r3, #2
 959 0034 7A68     		ldr	r2, [r7, #4]
 960 0036 1344     		add	r3, r3, r2
 961 0038 1B68     		ldr	r3, [r3]
 962              		.loc 6 407 7
 963 003a F868     		ldr	r0, [r7, #12]
 964 003c 9847     		blx	r3
 965              	.LVL0:
 966              	.L42:
 967              		.loc 6 409 8
 968 003e FB68     		ldr	r3, [r7, #12]
 969 0040 0133     		adds	r3, r3, #1
ARM GAS  C:\Users\DEVELO~1\AppData\Local\Temp\cc6J7fdl.s 			page 18


 970 0042 FB60     		str	r3, [r7, #12]
 971              	.L41:
 972              		.loc 6 403 17
 973 0044 3B68     		ldr	r3, [r7]
 974 0046 002B     		cmp	r3, #0
 975 0048 E2D1     		bne	.L43
 976              		.loc 6 411 1
 977 004a 00BF     		nop
 978 004c 00BF     		nop
 979 004e 1037     		adds	r7, r7, #16
 980              		.cfi_def_cfa_offset 8
 981 0050 BD46     		mov	sp, r7
 982              		.cfi_def_cfa_register 13
 983              		@ sp needed
 984 0052 80BD     		pop	{r7, pc}
 985              		.cfi_endproc
 986              	.LFE358:
 987              		.size	chEvtDispatch, .-chEvtDispatch
 988              		.section	.text.chEvtWaitOne,"ax",%progbits
 989              		.align	1
 990              		.global	chEvtWaitOne
 991              		.syntax unified
 992              		.thumb
 993              		.thumb_func
 994              		.type	chEvtWaitOne, %function
 995              	chEvtWaitOne:
 996              	.LFB359:
 997              		.loc 6 432 46
 998              		.cfi_startproc
 999              		@ args = 0, pretend = 0, frame = 16
 1000              		@ frame_needed = 1, uses_anonymous_args = 0
 1001 0000 80B5     		push	{r7, lr}
 1002              		.cfi_def_cfa_offset 8
 1003              		.cfi_offset 7, -8
 1004              		.cfi_offset 14, -4
 1005 0002 84B0     		sub	sp, sp, #16
 1006              		.cfi_def_cfa_offset 24
 1007 0004 00AF     		add	r7, sp, #0
 1008              		.cfi_def_cfa_register 7
 1009 0006 7860     		str	r0, [r7, #4]
 1010              		.loc 6 433 22
 1011 0008 FFF7FEFF 		bl	chThdGetSelfX
 1012 000c B860     		str	r0, [r7, #8]
 1013              		.loc 6 436 3
 1014 000e FFF7FEFF 		bl	chSysLock
 1015              		.loc 6 437 13
 1016 0012 BB68     		ldr	r3, [r7, #8]
 1017 0014 9B6B     		ldr	r3, [r3, #56]
 1018              		.loc 6 437 5
 1019 0016 7A68     		ldr	r2, [r7, #4]
 1020 0018 1340     		ands	r3, r3, r2
 1021 001a FB60     		str	r3, [r7, #12]
 1022              		.loc 6 438 6
 1023 001c FB68     		ldr	r3, [r7, #12]
 1024 001e 002B     		cmp	r3, #0
 1025 0020 0AD1     		bne	.L45
 1026              		.loc 6 439 22
ARM GAS  C:\Users\DEVELO~1\AppData\Local\Temp\cc6J7fdl.s 			page 19


 1027 0022 BB68     		ldr	r3, [r7, #8]
 1028 0024 7A68     		ldr	r2, [r7, #4]
 1029 0026 9A62     		str	r2, [r3, #40]
 1030              		.loc 6 440 5
 1031 0028 0A20     		movs	r0, #10
 1032 002a FFF7FEFF 		bl	chSchGoSleepS
 1033              		.loc 6 441 15
 1034 002e BB68     		ldr	r3, [r7, #8]
 1035 0030 9B6B     		ldr	r3, [r3, #56]
 1036              		.loc 6 441 7
 1037 0032 7A68     		ldr	r2, [r7, #4]
 1038 0034 1340     		ands	r3, r3, r2
 1039 0036 FB60     		str	r3, [r7, #12]
 1040              	.L45:
 1041              		.loc 6 443 5
 1042 0038 FB68     		ldr	r3, [r7, #12]
 1043 003a 5B42     		rsbs	r3, r3, #0
 1044 003c FA68     		ldr	r2, [r7, #12]
 1045 003e 1340     		ands	r3, r3, r2
 1046 0040 FB60     		str	r3, [r7, #12]
 1047              		.loc 6 444 20
 1048 0042 BB68     		ldr	r3, [r7, #8]
 1049 0044 9A6B     		ldr	r2, [r3, #56]
 1050              		.loc 6 444 23
 1051 0046 FB68     		ldr	r3, [r7, #12]
 1052 0048 DB43     		mvns	r3, r3
 1053              		.loc 6 444 20
 1054 004a 1A40     		ands	r2, r2, r3
 1055 004c BB68     		ldr	r3, [r7, #8]
 1056 004e 9A63     		str	r2, [r3, #56]
 1057              		.loc 6 445 3
 1058 0050 FFF7FEFF 		bl	chSysUnlock
 1059              		.loc 6 447 10
 1060 0054 FB68     		ldr	r3, [r7, #12]
 1061              		.loc 6 448 1
 1062 0056 1846     		mov	r0, r3
 1063 0058 1037     		adds	r7, r7, #16
 1064              		.cfi_def_cfa_offset 8
 1065 005a BD46     		mov	sp, r7
 1066              		.cfi_def_cfa_register 13
 1067              		@ sp needed
 1068 005c 80BD     		pop	{r7, pc}
 1069              		.cfi_endproc
 1070              	.LFE359:
 1071              		.size	chEvtWaitOne, .-chEvtWaitOne
 1072              		.section	.text.chEvtWaitAny,"ax",%progbits
 1073              		.align	1
 1074              		.global	chEvtWaitAny
 1075              		.syntax unified
 1076              		.thumb
 1077              		.thumb_func
 1078              		.type	chEvtWaitAny, %function
 1079              	chEvtWaitAny:
 1080              	.LFB360:
 1081              		.loc 6 462 46
 1082              		.cfi_startproc
 1083              		@ args = 0, pretend = 0, frame = 16
ARM GAS  C:\Users\DEVELO~1\AppData\Local\Temp\cc6J7fdl.s 			page 20


 1084              		@ frame_needed = 1, uses_anonymous_args = 0
 1085 0000 80B5     		push	{r7, lr}
 1086              		.cfi_def_cfa_offset 8
 1087              		.cfi_offset 7, -8
 1088              		.cfi_offset 14, -4
 1089 0002 84B0     		sub	sp, sp, #16
 1090              		.cfi_def_cfa_offset 24
 1091 0004 00AF     		add	r7, sp, #0
 1092              		.cfi_def_cfa_register 7
 1093 0006 7860     		str	r0, [r7, #4]
 1094              		.loc 6 463 22
 1095 0008 FFF7FEFF 		bl	chThdGetSelfX
 1096 000c B860     		str	r0, [r7, #8]
 1097              		.loc 6 466 3
 1098 000e FFF7FEFF 		bl	chSysLock
 1099              		.loc 6 467 13
 1100 0012 BB68     		ldr	r3, [r7, #8]
 1101 0014 9B6B     		ldr	r3, [r3, #56]
 1102              		.loc 6 467 5
 1103 0016 7A68     		ldr	r2, [r7, #4]
 1104 0018 1340     		ands	r3, r3, r2
 1105 001a FB60     		str	r3, [r7, #12]
 1106              		.loc 6 468 6
 1107 001c FB68     		ldr	r3, [r7, #12]
 1108 001e 002B     		cmp	r3, #0
 1109 0020 0AD1     		bne	.L48
 1110              		.loc 6 469 22
 1111 0022 BB68     		ldr	r3, [r7, #8]
 1112 0024 7A68     		ldr	r2, [r7, #4]
 1113 0026 9A62     		str	r2, [r3, #40]
 1114              		.loc 6 470 5
 1115 0028 0A20     		movs	r0, #10
 1116 002a FFF7FEFF 		bl	chSchGoSleepS
 1117              		.loc 6 471 15
 1118 002e BB68     		ldr	r3, [r7, #8]
 1119 0030 9B6B     		ldr	r3, [r3, #56]
 1120              		.loc 6 471 7
 1121 0032 7A68     		ldr	r2, [r7, #4]
 1122 0034 1340     		ands	r3, r3, r2
 1123 0036 FB60     		str	r3, [r7, #12]
 1124              	.L48:
 1125              		.loc 6 473 20
 1126 0038 BB68     		ldr	r3, [r7, #8]
 1127 003a 9A6B     		ldr	r2, [r3, #56]
 1128              		.loc 6 473 23
 1129 003c FB68     		ldr	r3, [r7, #12]
 1130 003e DB43     		mvns	r3, r3
 1131              		.loc 6 473 20
 1132 0040 1A40     		ands	r2, r2, r3
 1133 0042 BB68     		ldr	r3, [r7, #8]
 1134 0044 9A63     		str	r2, [r3, #56]
 1135              		.loc 6 474 3
 1136 0046 FFF7FEFF 		bl	chSysUnlock
 1137              		.loc 6 476 10
 1138 004a FB68     		ldr	r3, [r7, #12]
 1139              		.loc 6 477 1
 1140 004c 1846     		mov	r0, r3
ARM GAS  C:\Users\DEVELO~1\AppData\Local\Temp\cc6J7fdl.s 			page 21


 1141 004e 1037     		adds	r7, r7, #16
 1142              		.cfi_def_cfa_offset 8
 1143 0050 BD46     		mov	sp, r7
 1144              		.cfi_def_cfa_register 13
 1145              		@ sp needed
 1146 0052 80BD     		pop	{r7, pc}
 1147              		.cfi_endproc
 1148              	.LFE360:
 1149              		.size	chEvtWaitAny, .-chEvtWaitAny
 1150              		.section	.text.chEvtWaitAll,"ax",%progbits
 1151              		.align	1
 1152              		.global	chEvtWaitAll
 1153              		.syntax unified
 1154              		.thumb
 1155              		.thumb_func
 1156              		.type	chEvtWaitAll, %function
 1157              	chEvtWaitAll:
 1158              	.LFB361:
 1159              		.loc 6 490 46
 1160              		.cfi_startproc
 1161              		@ args = 0, pretend = 0, frame = 16
 1162              		@ frame_needed = 1, uses_anonymous_args = 0
 1163 0000 80B5     		push	{r7, lr}
 1164              		.cfi_def_cfa_offset 8
 1165              		.cfi_offset 7, -8
 1166              		.cfi_offset 14, -4
 1167 0002 84B0     		sub	sp, sp, #16
 1168              		.cfi_def_cfa_offset 24
 1169 0004 00AF     		add	r7, sp, #0
 1170              		.cfi_def_cfa_register 7
 1171 0006 7860     		str	r0, [r7, #4]
 1172              		.loc 6 491 22
 1173 0008 FFF7FEFF 		bl	chThdGetSelfX
 1174 000c F860     		str	r0, [r7, #12]
 1175              		.loc 6 493 3
 1176 000e FFF7FEFF 		bl	chSysLock
 1177              		.loc 6 494 14
 1178 0012 FB68     		ldr	r3, [r7, #12]
 1179 0014 9A6B     		ldr	r2, [r3, #56]
 1180              		.loc 6 494 25
 1181 0016 7B68     		ldr	r3, [r7, #4]
 1182 0018 1340     		ands	r3, r3, r2
 1183              		.loc 6 494 6
 1184 001a 7A68     		ldr	r2, [r7, #4]
 1185 001c 9A42     		cmp	r2, r3
 1186 001e 05D0     		beq	.L51
 1187              		.loc 6 495 22
 1188 0020 FB68     		ldr	r3, [r7, #12]
 1189 0022 7A68     		ldr	r2, [r7, #4]
 1190 0024 9A62     		str	r2, [r3, #40]
 1191              		.loc 6 496 5
 1192 0026 0B20     		movs	r0, #11
 1193 0028 FFF7FEFF 		bl	chSchGoSleepS
 1194              	.L51:
 1195              		.loc 6 498 20
 1196 002c FB68     		ldr	r3, [r7, #12]
 1197 002e 9A6B     		ldr	r2, [r3, #56]
ARM GAS  C:\Users\DEVELO~1\AppData\Local\Temp\cc6J7fdl.s 			page 22


 1198              		.loc 6 498 23
 1199 0030 7B68     		ldr	r3, [r7, #4]
 1200 0032 DB43     		mvns	r3, r3
 1201              		.loc 6 498 20
 1202 0034 1A40     		ands	r2, r2, r3
 1203 0036 FB68     		ldr	r3, [r7, #12]
 1204 0038 9A63     		str	r2, [r3, #56]
 1205              		.loc 6 499 3
 1206 003a FFF7FEFF 		bl	chSysUnlock
 1207              		.loc 6 501 10
 1208 003e 7B68     		ldr	r3, [r7, #4]
 1209              		.loc 6 502 1
 1210 0040 1846     		mov	r0, r3
 1211 0042 1037     		adds	r7, r7, #16
 1212              		.cfi_def_cfa_offset 8
 1213 0044 BD46     		mov	sp, r7
 1214              		.cfi_def_cfa_register 13
 1215              		@ sp needed
 1216 0046 80BD     		pop	{r7, pc}
 1217              		.cfi_endproc
 1218              	.LFE361:
 1219              		.size	chEvtWaitAll, .-chEvtWaitAll
 1220              		.section	.text.chEvtWaitOneTimeout,"ax",%progbits
 1221              		.align	1
 1222              		.global	chEvtWaitOneTimeout
 1223              		.syntax unified
 1224              		.thumb
 1225              		.thumb_func
 1226              		.type	chEvtWaitOneTimeout, %function
 1227              	chEvtWaitOneTimeout:
 1228              	.LFB362:
 1229              		.loc 6 528 76
 1230              		.cfi_startproc
 1231              		@ args = 0, pretend = 0, frame = 16
 1232              		@ frame_needed = 1, uses_anonymous_args = 0
 1233 0000 80B5     		push	{r7, lr}
 1234              		.cfi_def_cfa_offset 8
 1235              		.cfi_offset 7, -8
 1236              		.cfi_offset 14, -4
 1237 0002 84B0     		sub	sp, sp, #16
 1238              		.cfi_def_cfa_offset 24
 1239 0004 00AF     		add	r7, sp, #0
 1240              		.cfi_def_cfa_register 7
 1241 0006 7860     		str	r0, [r7, #4]
 1242 0008 3960     		str	r1, [r7]
 1243              		.loc 6 529 22
 1244 000a FFF7FEFF 		bl	chThdGetSelfX
 1245 000e B860     		str	r0, [r7, #8]
 1246              		.loc 6 532 3
 1247 0010 FFF7FEFF 		bl	chSysLock
 1248              		.loc 6 533 13
 1249 0014 BB68     		ldr	r3, [r7, #8]
 1250 0016 9B6B     		ldr	r3, [r3, #56]
 1251              		.loc 6 533 5
 1252 0018 7A68     		ldr	r2, [r7, #4]
 1253 001a 1340     		ands	r3, r3, r2
 1254 001c FB60     		str	r3, [r7, #12]
ARM GAS  C:\Users\DEVELO~1\AppData\Local\Temp\cc6J7fdl.s 			page 23


 1255              		.loc 6 534 6
 1256 001e FB68     		ldr	r3, [r7, #12]
 1257 0020 002B     		cmp	r3, #0
 1258 0022 19D1     		bne	.L54
 1259              		.loc 6 535 8
 1260 0024 3B68     		ldr	r3, [r7]
 1261 0026 002B     		cmp	r3, #0
 1262 0028 03D1     		bne	.L55
 1263              		.loc 6 536 7
 1264 002a FFF7FEFF 		bl	chSysUnlock
 1265              		.loc 6 537 14
 1266 002e 0023     		movs	r3, #0
 1267 0030 21E0     		b	.L56
 1268              	.L55:
 1269              		.loc 6 539 22
 1270 0032 BB68     		ldr	r3, [r7, #8]
 1271 0034 7A68     		ldr	r2, [r7, #4]
 1272 0036 9A62     		str	r2, [r3, #40]
 1273              		.loc 6 540 9
 1274 0038 3968     		ldr	r1, [r7]
 1275 003a 0A20     		movs	r0, #10
 1276 003c FFF7FEFF 		bl	chSchGoSleepTimeoutS
 1277 0040 0346     		mov	r3, r0
 1278              		.loc 6 540 8
 1279 0042 002B     		cmp	r3, #0
 1280 0044 03DA     		bge	.L57
 1281              		.loc 6 541 7
 1282 0046 FFF7FEFF 		bl	chSysUnlock
 1283              		.loc 6 542 14
 1284 004a 0023     		movs	r3, #0
 1285 004c 13E0     		b	.L56
 1286              	.L57:
 1287              		.loc 6 544 15
 1288 004e BB68     		ldr	r3, [r7, #8]
 1289 0050 9B6B     		ldr	r3, [r3, #56]
 1290              		.loc 6 544 7
 1291 0052 7A68     		ldr	r2, [r7, #4]
 1292 0054 1340     		ands	r3, r3, r2
 1293 0056 FB60     		str	r3, [r7, #12]
 1294              	.L54:
 1295              		.loc 6 546 5
 1296 0058 FB68     		ldr	r3, [r7, #12]
 1297 005a 5B42     		rsbs	r3, r3, #0
 1298 005c FA68     		ldr	r2, [r7, #12]
 1299 005e 1340     		ands	r3, r3, r2
 1300 0060 FB60     		str	r3, [r7, #12]
 1301              		.loc 6 547 20
 1302 0062 BB68     		ldr	r3, [r7, #8]
 1303 0064 9A6B     		ldr	r2, [r3, #56]
 1304              		.loc 6 547 23
 1305 0066 FB68     		ldr	r3, [r7, #12]
 1306 0068 DB43     		mvns	r3, r3
 1307              		.loc 6 547 20
 1308 006a 1A40     		ands	r2, r2, r3
 1309 006c BB68     		ldr	r3, [r7, #8]
 1310 006e 9A63     		str	r2, [r3, #56]
 1311              		.loc 6 548 3
ARM GAS  C:\Users\DEVELO~1\AppData\Local\Temp\cc6J7fdl.s 			page 24


 1312 0070 FFF7FEFF 		bl	chSysUnlock
 1313              		.loc 6 550 10
 1314 0074 FB68     		ldr	r3, [r7, #12]
 1315              	.L56:
 1316              		.loc 6 551 1
 1317 0076 1846     		mov	r0, r3
 1318 0078 1037     		adds	r7, r7, #16
 1319              		.cfi_def_cfa_offset 8
 1320 007a BD46     		mov	sp, r7
 1321              		.cfi_def_cfa_register 13
 1322              		@ sp needed
 1323 007c 80BD     		pop	{r7, pc}
 1324              		.cfi_endproc
 1325              	.LFE362:
 1326              		.size	chEvtWaitOneTimeout, .-chEvtWaitOneTimeout
 1327              		.section	.text.chEvtWaitAnyTimeout,"ax",%progbits
 1328              		.align	1
 1329              		.global	chEvtWaitAnyTimeout
 1330              		.syntax unified
 1331              		.thumb
 1332              		.thumb_func
 1333              		.type	chEvtWaitAnyTimeout, %function
 1334              	chEvtWaitAnyTimeout:
 1335              	.LFB363:
 1336              		.loc 6 571 76
 1337              		.cfi_startproc
 1338              		@ args = 0, pretend = 0, frame = 16
 1339              		@ frame_needed = 1, uses_anonymous_args = 0
 1340 0000 80B5     		push	{r7, lr}
 1341              		.cfi_def_cfa_offset 8
 1342              		.cfi_offset 7, -8
 1343              		.cfi_offset 14, -4
 1344 0002 84B0     		sub	sp, sp, #16
 1345              		.cfi_def_cfa_offset 24
 1346 0004 00AF     		add	r7, sp, #0
 1347              		.cfi_def_cfa_register 7
 1348 0006 7860     		str	r0, [r7, #4]
 1349 0008 3960     		str	r1, [r7]
 1350              		.loc 6 572 22
 1351 000a FFF7FEFF 		bl	chThdGetSelfX
 1352 000e B860     		str	r0, [r7, #8]
 1353              		.loc 6 575 3
 1354 0010 FFF7FEFF 		bl	chSysLock
 1355              		.loc 6 576 13
 1356 0014 BB68     		ldr	r3, [r7, #8]
 1357 0016 9B6B     		ldr	r3, [r3, #56]
 1358              		.loc 6 576 5
 1359 0018 7A68     		ldr	r2, [r7, #4]
 1360 001a 1340     		ands	r3, r3, r2
 1361 001c FB60     		str	r3, [r7, #12]
 1362              		.loc 6 577 6
 1363 001e FB68     		ldr	r3, [r7, #12]
 1364 0020 002B     		cmp	r3, #0
 1365 0022 19D1     		bne	.L59
 1366              		.loc 6 578 8
 1367 0024 3B68     		ldr	r3, [r7]
 1368 0026 002B     		cmp	r3, #0
ARM GAS  C:\Users\DEVELO~1\AppData\Local\Temp\cc6J7fdl.s 			page 25


 1369 0028 03D1     		bne	.L60
 1370              		.loc 6 579 7
 1371 002a FFF7FEFF 		bl	chSysUnlock
 1372              		.loc 6 580 14
 1373 002e 0023     		movs	r3, #0
 1374 0030 1CE0     		b	.L61
 1375              	.L60:
 1376              		.loc 6 582 22
 1377 0032 BB68     		ldr	r3, [r7, #8]
 1378 0034 7A68     		ldr	r2, [r7, #4]
 1379 0036 9A62     		str	r2, [r3, #40]
 1380              		.loc 6 583 9
 1381 0038 3968     		ldr	r1, [r7]
 1382 003a 0A20     		movs	r0, #10
 1383 003c FFF7FEFF 		bl	chSchGoSleepTimeoutS
 1384 0040 0346     		mov	r3, r0
 1385              		.loc 6 583 8
 1386 0042 002B     		cmp	r3, #0
 1387 0044 03DA     		bge	.L62
 1388              		.loc 6 584 7
 1389 0046 FFF7FEFF 		bl	chSysUnlock
 1390              		.loc 6 585 14
 1391 004a 0023     		movs	r3, #0
 1392 004c 0EE0     		b	.L61
 1393              	.L62:
 1394              		.loc 6 587 15
 1395 004e BB68     		ldr	r3, [r7, #8]
 1396 0050 9B6B     		ldr	r3, [r3, #56]
 1397              		.loc 6 587 7
 1398 0052 7A68     		ldr	r2, [r7, #4]
 1399 0054 1340     		ands	r3, r3, r2
 1400 0056 FB60     		str	r3, [r7, #12]
 1401              	.L59:
 1402              		.loc 6 589 20
 1403 0058 BB68     		ldr	r3, [r7, #8]
 1404 005a 9A6B     		ldr	r2, [r3, #56]
 1405              		.loc 6 589 23
 1406 005c FB68     		ldr	r3, [r7, #12]
 1407 005e DB43     		mvns	r3, r3
 1408              		.loc 6 589 20
 1409 0060 1A40     		ands	r2, r2, r3
 1410 0062 BB68     		ldr	r3, [r7, #8]
 1411 0064 9A63     		str	r2, [r3, #56]
 1412              		.loc 6 590 3
 1413 0066 FFF7FEFF 		bl	chSysUnlock
 1414              		.loc 6 592 10
 1415 006a FB68     		ldr	r3, [r7, #12]
 1416              	.L61:
 1417              		.loc 6 593 1
 1418 006c 1846     		mov	r0, r3
 1419 006e 1037     		adds	r7, r7, #16
 1420              		.cfi_def_cfa_offset 8
 1421 0070 BD46     		mov	sp, r7
 1422              		.cfi_def_cfa_register 13
 1423              		@ sp needed
 1424 0072 80BD     		pop	{r7, pc}
 1425              		.cfi_endproc
ARM GAS  C:\Users\DEVELO~1\AppData\Local\Temp\cc6J7fdl.s 			page 26


 1426              	.LFE363:
 1427              		.size	chEvtWaitAnyTimeout, .-chEvtWaitAnyTimeout
 1428              		.section	.text.chEvtWaitAllTimeout,"ax",%progbits
 1429              		.align	1
 1430              		.global	chEvtWaitAllTimeout
 1431              		.syntax unified
 1432              		.thumb
 1433              		.thumb_func
 1434              		.type	chEvtWaitAllTimeout, %function
 1435              	chEvtWaitAllTimeout:
 1436              	.LFB364:
 1437              		.loc 6 612 76
 1438              		.cfi_startproc
 1439              		@ args = 0, pretend = 0, frame = 16
 1440              		@ frame_needed = 1, uses_anonymous_args = 0
 1441 0000 80B5     		push	{r7, lr}
 1442              		.cfi_def_cfa_offset 8
 1443              		.cfi_offset 7, -8
 1444              		.cfi_offset 14, -4
 1445 0002 84B0     		sub	sp, sp, #16
 1446              		.cfi_def_cfa_offset 24
 1447 0004 00AF     		add	r7, sp, #0
 1448              		.cfi_def_cfa_register 7
 1449 0006 7860     		str	r0, [r7, #4]
 1450 0008 3960     		str	r1, [r7]
 1451              		.loc 6 613 22
 1452 000a FFF7FEFF 		bl	chThdGetSelfX
 1453 000e F860     		str	r0, [r7, #12]
 1454              		.loc 6 615 3
 1455 0010 FFF7FEFF 		bl	chSysLock
 1456              		.loc 6 616 14
 1457 0014 FB68     		ldr	r3, [r7, #12]
 1458 0016 9A6B     		ldr	r2, [r3, #56]
 1459              		.loc 6 616 25
 1460 0018 7B68     		ldr	r3, [r7, #4]
 1461 001a 1340     		ands	r3, r3, r2
 1462              		.loc 6 616 6
 1463 001c 7A68     		ldr	r2, [r7, #4]
 1464 001e 9A42     		cmp	r2, r3
 1465 0020 14D0     		beq	.L64
 1466              		.loc 6 617 8
 1467 0022 3B68     		ldr	r3, [r7]
 1468 0024 002B     		cmp	r3, #0
 1469 0026 03D1     		bne	.L65
 1470              		.loc 6 618 7
 1471 0028 FFF7FEFF 		bl	chSysUnlock
 1472              		.loc 6 619 14
 1473 002c 0023     		movs	r3, #0
 1474 002e 17E0     		b	.L66
 1475              	.L65:
 1476              		.loc 6 621 22
 1477 0030 FB68     		ldr	r3, [r7, #12]
 1478 0032 7A68     		ldr	r2, [r7, #4]
 1479 0034 9A62     		str	r2, [r3, #40]
 1480              		.loc 6 622 9
 1481 0036 3968     		ldr	r1, [r7]
 1482 0038 0B20     		movs	r0, #11
ARM GAS  C:\Users\DEVELO~1\AppData\Local\Temp\cc6J7fdl.s 			page 27


 1483 003a FFF7FEFF 		bl	chSchGoSleepTimeoutS
 1484 003e 0346     		mov	r3, r0
 1485              		.loc 6 622 8
 1486 0040 002B     		cmp	r3, #0
 1487 0042 03DA     		bge	.L64
 1488              		.loc 6 623 7
 1489 0044 FFF7FEFF 		bl	chSysUnlock
 1490              		.loc 6 624 14
 1491 0048 0023     		movs	r3, #0
 1492 004a 09E0     		b	.L66
 1493              	.L64:
 1494              		.loc 6 627 20
 1495 004c FB68     		ldr	r3, [r7, #12]
 1496 004e 9A6B     		ldr	r2, [r3, #56]
 1497              		.loc 6 627 23
 1498 0050 7B68     		ldr	r3, [r7, #4]
 1499 0052 DB43     		mvns	r3, r3
 1500              		.loc 6 627 20
 1501 0054 1A40     		ands	r2, r2, r3
 1502 0056 FB68     		ldr	r3, [r7, #12]
 1503 0058 9A63     		str	r2, [r3, #56]
 1504              		.loc 6 628 3
 1505 005a FFF7FEFF 		bl	chSysUnlock
 1506              		.loc 6 630 10
 1507 005e 7B68     		ldr	r3, [r7, #4]
 1508              	.L66:
 1509              		.loc 6 631 1
 1510 0060 1846     		mov	r0, r3
 1511 0062 1037     		adds	r7, r7, #16
 1512              		.cfi_def_cfa_offset 8
 1513 0064 BD46     		mov	sp, r7
 1514              		.cfi_def_cfa_register 13
 1515              		@ sp needed
 1516 0066 80BD     		pop	{r7, pc}
 1517              		.cfi_endproc
 1518              	.LFE364:
 1519              		.size	chEvtWaitAllTimeout, .-chEvtWaitAllTimeout
 1520              		.text
 1521              	.Letext0:
 1522              		.file 7 "c:\\chibistudio\\tools\\gnu tools arm embedded\\11.3 2022.08\\arm-none-eabi\\include\\mac
 1523              		.file 8 "c:\\chibistudio\\tools\\gnu tools arm embedded\\11.3 2022.08\\arm-none-eabi\\include\\sys
 1524              		.file 9 "../../../os/common/ports/ARM-common/chtypes.h"
 1525              		.file 10 "../../../os/rt/include/chearly.h"
 1526              		.file 11 "../../../os/rt/include/chobjects.h"
 1527              		.file 12 "../../../os/rt/include/chrfcu.h"
 1528              		.file 13 "../../../os/rt/include/chdebug.h"
 1529              		.file 14 "../../../os/rt/include/chtime.h"
 1530              		.file 15 "../../../os/rt/include/chlists.h"
 1531              		.file 16 "../../../os/rt/include/chtrace.h"
 1532              		.file 17 "../../../os/rt/include/chsem.h"
 1533              		.file 18 "../../../os/rt/include/chmtx.h"
 1534              		.file 19 "../../../os/rt/include/chschd.h"