ARM GAS  C:\Users\DEVELO~1\AppData\Local\Temp\cc6J7fdl.s 			page 1


   1              		.cpu cortex-m7
   2              		.arch armv7e-m
   3              		.fpu softvfp
   4              		.eabi_attribute 20, 1
   5              		.eabi_attribute 21, 1
   6              		.eabi_attribute 23, 3
   7              		.eabi_attribute 24, 1
   8              		.eabi_attribute 25, 1
   9              		.eabi_attribute 26, 1
  10              		.eabi_attribute 30, 6
  11              		.eabi_attribute 34, 1
  12              		.eabi_attribute 18, 4
  13              		.file	"chevents.c"
  14              		.text
  15              	.Ltext0:
  16              		.cfi_sections	.debug_frame
  17              		.section	.text.chSysLock,"ax",%progbits
  18              		.align	1
  19              		.syntax unified
  20              		.thumb
  21              		.thumb_func
  22              		.type	chSysLock, %function
  23              	chSysLock:
  24              	.LFB202:
  25              		.file 1 "../../../os/rt/include/chsys.h"
  26              		.loc 1 407 36
  27              		.cfi_startproc
  28              		@ args = 0, pretend = 0, frame = 8
  29              		@ frame_needed = 1, uses_anonymous_args = 0
  30              		@ link register save eliminated.
  31 0000 80B4     		push	{r7}
  32              		.cfi_def_cfa_offset 4
  33              		.cfi_offset 7, -4
  34 0002 83B0     		sub	sp, sp, #12
  35              		.cfi_def_cfa_offset 16
  36 0004 00AF     		add	r7, sp, #0
  37              		.cfi_def_cfa_register 7
  38 0006 3023     		movs	r3, #48
  39 0008 7B60     		str	r3, [r7, #4]
  40              	.LBB14:
  41              	.LBB15:
  42              	.LBB16:
  43              	.LBB17:
  44              		.file 2 "../../../os/common/ext/ARM/CMSIS/Core/Include/cmsis_gcc.h"
  45              		.loc 2 493 3
  46 000a 7B68     		ldr	r3, [r7, #4]
  47              		.syntax unified
  48              	@ 493 "../../../os/common/ext/ARM/CMSIS/Core/Include/cmsis_gcc.h" 1
  49 000c 83F31188 		MSR basepri, r3
  50              	@ 0 "" 2
  51              		.loc 2 494 1
  52              		.thumb
  53              		.syntax unified
  54 0010 00BF     		nop
  55              	.LBE17:
  56              	.LBE16:
  57              		.file 3 "../../../os/common/ports/ARMv7-M/chcore.h"
ARM GAS  C:\Users\DEVELO~1\AppData\Local\Temp\cc6J7fdl.s 			page 2


  58              		.loc 3 840 1
  59 0012 00BF     		nop
  60              	.LBE15:
  61              	.LBE14:
  62              		.loc 1 412 1
  63 0014 00BF     		nop
  64 0016 0C37     		adds	r7, r7, #12
  65              		.cfi_def_cfa_offset 4
  66 0018 BD46     		mov	sp, r7
  67              		.cfi_def_cfa_register 13
  68              		@ sp needed
  69 001a 80BC     		pop	{r7}
  70              		.cfi_restore 7
  71              		.cfi_def_cfa_offset 0
  72 001c 7047     		bx	lr
  73              		.cfi_endproc
  74              	.LFE202:
  75              		.size	chSysLock, .-chSysLock
  76              		.section	.text.chSysUnlock,"ax",%progbits
  77              		.align	1
  78              		.syntax unified
  79              		.thumb
  80              		.thumb_func
  81              		.type	chSysUnlock, %function
  82              	chSysUnlock:
  83              	.LFB203:
  84              		.loc 1 421 38
  85              		.cfi_startproc
  86              		@ args = 0, pretend = 0, frame = 8
  87              		@ frame_needed = 1, uses_anonymous_args = 0
  88              		@ link register save eliminated.
  89 0000 80B4     		push	{r7}
  90              		.cfi_def_cfa_offset 4
  91              		.cfi_offset 7, -4
  92 0002 83B0     		sub	sp, sp, #12
  93              		.cfi_def_cfa_offset 16
  94 0004 00AF     		add	r7, sp, #0
  95              		.cfi_def_cfa_register 7
  96 0006 0023     		movs	r3, #0
  97 0008 7B60     		str	r3, [r7, #4]
  98              	.LBB18:
  99              	.LBB19:
 100              	.LBB20:
 101              	.LBB21:
 102              		.loc 2 493 3
 103 000a 7B68     		ldr	r3, [r7, #4]
 104              		.syntax unified
 105              	@ 493 "../../../os/common/ext/ARM/CMSIS/Core/Include/cmsis_gcc.h" 1
 106 000c 83F31188 		MSR basepri, r3
 107              	@ 0 "" 2
 108              		.loc 2 494 1
 109              		.thumb
 110              		.syntax unified
 111 0010 00BF     		nop
 112              	.LBE21:
 113              	.LBE20:
 114              		.loc 3 854 1
ARM GAS  C:\Users\DEVELO~1\AppData\Local\Temp\cc6J7fdl.s 			page 3


 115 0012 00BF     		nop
 116              	.LBE19:
 117              	.LBE18:
 118              		.loc 1 435 1
 119 0014 00BF     		nop
 120 0016 0C37     		adds	r7, r7, #12
 121              		.cfi_def_cfa_offset 4
 122 0018 BD46     		mov	sp, r7
 123              		.cfi_def_cfa_register 13
 124              		@ sp needed
 125 001a 80BC     		pop	{r7}
 126              		.cfi_restore 7
 127              		.cfi_def_cfa_offset 0
 128 001c 7047     		bx	lr
 129              		.cfi_endproc
 130              	.LFE203:
 131              		.size	chSysUnlock, .-chSysUnlock
 132              		.section	.text.chThdGetSelfX,"ax",%progbits
 133              		.align	1
 134              		.syntax unified
 135              		.thumb
 136              		.thumb_func
 137              		.type	chThdGetSelfX, %function
 138              	chThdGetSelfX:
 139              	.LFB229:
 140              		.file 4 "../../../os/rt/include/chthreads.h"
 141              		.loc 4 341 45
 142              		.cfi_startproc
 143              		@ args = 0, pretend = 0, frame = 0
 144              		@ frame_needed = 1, uses_anonymous_args = 0
 145              		@ link register save eliminated.
 146 0000 80B4     		push	{r7}
 147              		.cfi_def_cfa_offset 4
 148              		.cfi_offset 7, -4
 149 0002 00AF     		add	r7, sp, #0
 150              		.cfi_def_cfa_register 7
 151              		.loc 4 343 10
 152 0004 024B     		ldr	r3, .L5
 153 0006 DB68     		ldr	r3, [r3, #12]
 154              		.loc 4 344 1
 155 0008 1846     		mov	r0, r3
 156 000a BD46     		mov	sp, r7
 157              		.cfi_def_cfa_register 13
 158              		@ sp needed
 159 000c 80BC     		pop	{r7}
 160              		.cfi_restore 7
 161              		.cfi_def_cfa_offset 0
 162 000e 7047     		bx	lr
 163              	.L6:
 164              		.align	2
 165              	.L5:
 166 0010 00000000 		.word	ch0
 167              		.cfi_endproc
 168              	.LFE229:
 169              		.size	chThdGetSelfX, .-chThdGetSelfX
 170              		.section	.text.chEvtAddEventsI,"ax",%progbits
 171              		.align	1
ARM GAS  C:\Users\DEVELO~1\AppData\Local\Temp\cc6J7fdl.s 			page 4


 172              		.syntax unified
 173              		.thumb
 174              		.thumb_func
 175              		.type	chEvtAddEventsI, %function
 176              	chEvtAddEventsI:
 177              	.LFB257:
 178              		.file 5 "../../../os/rt/include/chevents.h"
 179              		.loc 5 273 63
 180              		.cfi_startproc
 181              		@ args = 0, pretend = 0, frame = 8
 182              		@ frame_needed = 1, uses_anonymous_args = 0
 183              		@ link register save eliminated.
 184 0000 80B4     		push	{r7}
 185              		.cfi_def_cfa_offset 4
 186              		.cfi_offset 7, -4
 187 0002 83B0     		sub	sp, sp, #12
 188              		.cfi_def_cfa_offset 16
 189 0004 00AF     		add	r7, sp, #0
 190              		.cfi_def_cfa_register 7
 191 0006 7860     		str	r0, [r7, #4]
 192              		.loc 5 275 10
 193 0008 064B     		ldr	r3, .L9
 194 000a DB68     		ldr	r3, [r3, #12]
 195              		.loc 5 275 43
 196 000c 996B     		ldr	r1, [r3, #56]
 197              		.loc 5 275 10
 198 000e 054B     		ldr	r3, .L9
 199 0010 DB68     		ldr	r3, [r3, #12]
 200              		.loc 5 275 43
 201 0012 7A68     		ldr	r2, [r7, #4]
 202 0014 0A43     		orrs	r2, r2, r1
 203 0016 9A63     		str	r2, [r3, #56]
 204 0018 9B6B     		ldr	r3, [r3, #56]
 205              		.loc 5 276 1
 206 001a 1846     		mov	r0, r3
 207 001c 0C37     		adds	r7, r7, #12
 208              		.cfi_def_cfa_offset 4
 209 001e BD46     		mov	sp, r7
 210              		.cfi_def_cfa_register 13
 211              		@ sp needed
 212 0020 80BC     		pop	{r7}
 213              		.cfi_restore 7
 214              		.cfi_def_cfa_offset 0
 215 0022 7047     		bx	lr
 216              	.L10:
 217              		.align	2
 218              	.L9:
 219 0024 00000000 		.word	ch0
 220              		.cfi_endproc
 221              	.LFE257:
 222              		.size	chEvtAddEventsI, .-chEvtAddEventsI
 223              		.section	.text.chEvtRegisterMaskWithFlagsI,"ax",%progbits
 224              		.align	1
 225              		.global	chEvtRegisterMaskWithFlagsI
 226              		.syntax unified
 227              		.thumb
 228              		.thumb_func
ARM GAS  C:\Users\DEVELO~1\AppData\Local\Temp\cc6J7fdl.s 			page 5


 229              		.type	chEvtRegisterMaskWithFlagsI, %function
 230              	chEvtRegisterMaskWithFlagsI:
 231              	.LFB346:
 232              		.file 6 "../../../os/rt/src/chevents.c"
 233              		.loc 6 106 55
 234              		.cfi_startproc
 235              		@ args = 0, pretend = 0, frame = 24
 236              		@ frame_needed = 1, uses_anonymous_args = 0
 237 0000 80B5     		push	{r7, lr}
 238              		.cfi_def_cfa_offset 8
 239              		.cfi_offset 7, -8
 240              		.cfi_offset 14, -4
 241 0002 86B0     		sub	sp, sp, #24
 242              		.cfi_def_cfa_offset 32
 243 0004 00AF     		add	r7, sp, #0
 244              		.cfi_def_cfa_register 7
 245 0006 F860     		str	r0, [r7, #12]
 246 0008 B960     		str	r1, [r7, #8]
 247 000a 7A60     		str	r2, [r7, #4]
 248 000c 3B60     		str	r3, [r7]
 249              		.loc 6 107 22
 250 000e FFF7FEFF 		bl	chThdGetSelfX
 251 0012 7861     		str	r0, [r7, #20]
 252              		.loc 6 112 22
 253 0014 FB68     		ldr	r3, [r7, #12]
 254 0016 1A68     		ldr	r2, [r3]
 255              		.loc 6 112 17
 256 0018 BB68     		ldr	r3, [r7, #8]
 257 001a 1A60     		str	r2, [r3]
 258              		.loc 6 113 17
 259 001c FB68     		ldr	r3, [r7, #12]
 260 001e BA68     		ldr	r2, [r7, #8]
 261 0020 1A60     		str	r2, [r3]
 262              		.loc 6 114 17
 263 0022 BB68     		ldr	r3, [r7, #8]
 264 0024 7A69     		ldr	r2, [r7, #20]
 265 0026 5A60     		str	r2, [r3, #4]
 266              		.loc 6 115 17
 267 0028 BB68     		ldr	r3, [r7, #8]
 268 002a 7A68     		ldr	r2, [r7, #4]
 269 002c 9A60     		str	r2, [r3, #8]
 270              		.loc 6 116 17
 271 002e BB68     		ldr	r3, [r7, #8]
 272 0030 0022     		movs	r2, #0
 273 0032 DA60     		str	r2, [r3, #12]
 274              		.loc 6 117 17
 275 0034 BB68     		ldr	r3, [r7, #8]
 276 0036 3A68     		ldr	r2, [r7]
 277 0038 1A61     		str	r2, [r3, #16]
 278              		.loc 6 118 1
 279 003a 00BF     		nop
 280 003c 1837     		adds	r7, r7, #24
 281              		.cfi_def_cfa_offset 8
 282 003e BD46     		mov	sp, r7
 283              		.cfi_def_cfa_register 13
 284              		@ sp needed
 285 0040 80BD     		pop	{r7, pc}
ARM GAS  C:\Users\DEVELO~1\AppData\Local\Temp\cc6J7fdl.s 			page 6


 286              		.cfi_endproc
 287              	.LFE346:
 288              		.size	chEvtRegisterMaskWithFlagsI, .-chEvtRegisterMaskWithFlagsI
 289              		.section	.text.chEvtRegisterMaskWithFlags,"ax",%progbits
 290              		.align	1
 291              		.global	chEvtRegisterMaskWithFlags
 292              		.syntax unified
 293              		.thumb
 294              		.thumb_func
 295              		.type	chEvtRegisterMaskWithFlags, %function
 296              	chEvtRegisterMaskWithFlags:
 297              	.LFB347:
 298              		.loc 6 138 54
 299              		.cfi_startproc
 300              		@ args = 0, pretend = 0, frame = 16
 301              		@ frame_needed = 1, uses_anonymous_args = 0
 302 0000 80B5     		push	{r7, lr}
 303              		.cfi_def_cfa_offset 8
 304              		.cfi_offset 7, -8
 305              		.cfi_offset 14, -4
 306 0002 84B0     		sub	sp, sp, #16
 307              		.cfi_def_cfa_offset 24
 308 0004 00AF     		add	r7, sp, #0
 309              		.cfi_def_cfa_register 7
 310 0006 F860     		str	r0, [r7, #12]
 311 0008 B960     		str	r1, [r7, #8]
 312 000a 7A60     		str	r2, [r7, #4]
 313 000c 3B60     		str	r3, [r7]
 314              		.loc 6 140 3
 315 000e FFF7FEFF 		bl	chSysLock
 316              		.loc 6 141 3
 317 0012 3B68     		ldr	r3, [r7]
 318 0014 7A68     		ldr	r2, [r7, #4]
 319 0016 B968     		ldr	r1, [r7, #8]
 320 0018 F868     		ldr	r0, [r7, #12]
 321 001a FFF7FEFF 		bl	chEvtRegisterMaskWithFlagsI
 322              		.loc 6 142 3
 323 001e FFF7FEFF 		bl	chSysUnlock
 324              		.loc 6 143 1
 325 0022 00BF     		nop
 326 0024 1037     		adds	r7, r7, #16
 327              		.cfi_def_cfa_offset 8
 328 0026 BD46     		mov	sp, r7
 329              		.cfi_def_cfa_register 13
 330              		@ sp needed
 331 0028 80BD     		pop	{r7, pc}
 332              		.cfi_endproc
 333              	.LFE347:
 334              		.size	chEvtRegisterMaskWithFlags, .-chEvtRegisterMaskWithFlags
 335              		.section	.text.chEvtUnregister,"ax",%progbits
 336              		.align	1
 337              		.global	chEvtUnregister
 338              		.syntax unified
 339              		.thumb
 340              		.thumb_func
 341              		.type	chEvtUnregister, %function
 342              	chEvtUnregister:
ARM GAS  C:\Users\DEVELO~1\AppData\Local\Temp\cc6J7fdl.s 			page 7


 343              	.LFB348:
 344              		.loc 6 158 66
 345              		.cfi_startproc
 346              		@ args = 0, pretend = 0, frame = 16
 347              		@ frame_needed = 1, uses_anonymous_args = 0
 348 0000 80B5     		push	{r7, lr}
 349              		.cfi_def_cfa_offset 8
 350              		.cfi_offset 7, -8
 351              		.cfi_offset 14, -4
 352 0002 84B0     		sub	sp, sp, #16
 353              		.cfi_def_cfa_offset 24
 354 0004 00AF     		add	r7, sp, #0
 355              		.cfi_def_cfa_register 7
 356 0006 7860     		str	r0, [r7, #4]
 357 0008 3960     		str	r1, [r7]
 358              		.loc 6 164 5
 359 000a 7B68     		ldr	r3, [r7, #4]
 360 000c FB60     		str	r3, [r7, #12]
 361              		.loc 6 166 3
 362 000e FFF7FEFF 		bl	chSysLock
 363              		.loc 6 168 9
 364 0012 0CE0     		b	.L14
 365              	.L17:
 366              		.loc 6 170 10
 367 0014 FB68     		ldr	r3, [r7, #12]
 368 0016 1B68     		ldr	r3, [r3]
 369              		.loc 6 170 8
 370 0018 3A68     		ldr	r2, [r7]
 371 001a 9A42     		cmp	r2, r3
 372 001c 04D1     		bne	.L15
 373              		.loc 6 171 20
 374 001e 3B68     		ldr	r3, [r7]
 375 0020 1A68     		ldr	r2, [r3]
 376              		.loc 6 171 15
 377 0022 FB68     		ldr	r3, [r7, #12]
 378 0024 1A60     		str	r2, [r3]
 379              		.loc 6 172 7
 380 0026 07E0     		b	.L16
 381              	.L15:
 382              		.loc 6 174 7
 383 0028 FB68     		ldr	r3, [r7, #12]
 384 002a 1B68     		ldr	r3, [r3]
 385 002c FB60     		str	r3, [r7, #12]
 386              	.L14:
 387              		.loc 6 168 11
 388 002e FB68     		ldr	r3, [r7, #12]
 389 0030 1B68     		ldr	r3, [r3]
 390              		.loc 6 168 18
 391 0032 7A68     		ldr	r2, [r7, #4]
 392 0034 9A42     		cmp	r2, r3
 393 0036 EDD1     		bne	.L17
 394              	.L16:
 395              		.loc 6 176 3
 396 0038 FFF7FEFF 		bl	chSysUnlock
 397              		.loc 6 177 1
 398 003c 00BF     		nop
 399 003e 1037     		adds	r7, r7, #16
ARM GAS  C:\Users\DEVELO~1\AppData\Local\Temp\cc6J7fdl.s 			page 8


 400              		.cfi_def_cfa_offset 8
 401 0040 BD46     		mov	sp, r7
 402              		.cfi_def_cfa_register 13
 403              		@ sp needed
 404 0042 80BD     		pop	{r7, pc}
 405              		.cfi_endproc
 406              	.LFE348:
 407              		.size	chEvtUnregister, .-chEvtUnregister
 408              		.section	.text.chEvtGetAndClearEventsI,"ax",%progbits
 409              		.align	1
 410              		.global	chEvtGetAndClearEventsI
 411              		.syntax unified
 412              		.thumb
 413              		.thumb_func
 414              		.type	chEvtGetAndClearEventsI, %function
 415              	chEvtGetAndClearEventsI:
 416              	.LFB349:
 417              		.loc 6 187 57
 418              		.cfi_startproc
 419              		@ args = 0, pretend = 0, frame = 16
 420              		@ frame_needed = 1, uses_anonymous_args = 0
 421 0000 80B5     		push	{r7, lr}
 422              		.cfi_def_cfa_offset 8
 423              		.cfi_offset 7, -8
 424              		.cfi_offset 14, -4
 425 0002 84B0     		sub	sp, sp, #16
 426              		.cfi_def_cfa_offset 24
 427 0004 00AF     		add	r7, sp, #0
 428              		.cfi_def_cfa_register 7
 429 0006 7860     		str	r0, [r7, #4]
 430              		.loc 6 188 22
 431 0008 FFF7FEFF 		bl	chThdGetSelfX
 432 000c F860     		str	r0, [r7, #12]
 433              		.loc 6 193 13
 434 000e FB68     		ldr	r3, [r7, #12]
 435 0010 9B6B     		ldr	r3, [r3, #56]
 436              		.loc 6 193 5
 437 0012 7A68     		ldr	r2, [r7, #4]
 438 0014 1340     		ands	r3, r3, r2
 439 0016 BB60     		str	r3, [r7, #8]
 440              		.loc 6 194 20
 441 0018 FB68     		ldr	r3, [r7, #12]
 442 001a 9A6B     		ldr	r2, [r3, #56]
 443              		.loc 6 194 23
 444 001c 7B68     		ldr	r3, [r7, #4]
 445 001e DB43     		mvns	r3, r3
 446              		.loc 6 194 20
 447 0020 1A40     		ands	r2, r2, r3
 448 0022 FB68     		ldr	r3, [r7, #12]
 449 0024 9A63     		str	r2, [r3, #56]
 450              		.loc 6 196 10
 451 0026 BB68     		ldr	r3, [r7, #8]
 452              		.loc 6 197 1
 453 0028 1846     		mov	r0, r3
 454 002a 1037     		adds	r7, r7, #16
 455              		.cfi_def_cfa_offset 8
 456 002c BD46     		mov	sp, r7
ARM GAS  C:\Users\DEVELO~1\AppData\Local\Temp\cc6J7fdl.s 			page 9


 457              		.cfi_def_cfa_register 13
 458              		@ sp needed
 459 002e 80BD     		pop	{r7, pc}
 460              		.cfi_endproc
 461              	.LFE349:
 462              		.size	chEvtGetAndClearEventsI, .-chEvtGetAndClearEventsI
 463              		.section	.text.chEvtGetAndClearEvents,"ax",%progbits
 464              		.align	1
 465              		.global	chEvtGetAndClearEvents
 466              		.syntax unified
 467              		.thumb
 468              		.thumb_func
 469              		.type	chEvtGetAndClearEvents, %function
 470              	chEvtGetAndClearEvents:
 471              	.LFB350:
 472              		.loc 6 207 56
 473              		.cfi_startproc
 474              		@ args = 0, pretend = 0, frame = 16
 475              		@ frame_needed = 1, uses_anonymous_args = 0
 476 0000 80B5     		push	{r7, lr}
 477              		.cfi_def_cfa_offset 8
 478              		.cfi_offset 7, -8
 479              		.cfi_offset 14, -4
 480 0002 84B0     		sub	sp, sp, #16
 481              		.cfi_def_cfa_offset 24
 482 0004 00AF     		add	r7, sp, #0
 483              		.cfi_def_cfa_register 7
 484 0006 7860     		str	r0, [r7, #4]
 485              		.loc 6 210 3
 486 0008 FFF7FEFF 		bl	chSysLock
 487              		.loc 6 211 7
 488 000c 7868     		ldr	r0, [r7, #4]
 489 000e FFF7FEFF 		bl	chEvtGetAndClearEventsI
 490 0012 F860     		str	r0, [r7, #12]
 491              		.loc 6 212 3
 492 0014 FFF7FEFF 		bl	chSysUnlock
 493              		.loc 6 214 10
 494 0018 FB68     		ldr	r3, [r7, #12]
 495              		.loc 6 215 1
 496 001a 1846     		mov	r0, r3
 497 001c 1037     		adds	r7, r7, #16
 498              		.cfi_def_cfa_offset 8
 499 001e BD46     		mov	sp, r7
 500              		.cfi_def_cfa_register 13
 501              		@ sp needed
 502 0020 80BD     		pop	{r7, pc}
 503              		.cfi_endproc
 504              	.LFE350:
 505              		.size	chEvtGetAndClearEvents, .-chEvtGetAndClearEvents
 506              		.section	.text.chEvtAddEvents,"ax",%progbits
 507              		.align	1
 508              		.global	chEvtAddEvents
 509              		.syntax unified
 510              		.thumb
 511              		.thumb_func
 512              		.type	chEvtAddEvents, %function
 513              	chEvtAddEvents:
ARM GAS  C:\Users\DEVELO~1\AppData\Local\Temp\cc6J7fdl.s 			page 10


 514              	.LFB351:
 515              		.loc 6 226 48
 516              		.cfi_startproc
 517              		@ args = 0, pretend = 0, frame = 16
 518              		@ frame_needed = 1, uses_anonymous_args = 0
 519 0000 80B5     		push	{r7, lr}
 520              		.cfi_def_cfa_offset 8
 521              		.cfi_offset 7, -8
 522              		.cfi_offset 14, -4
 523 0002 84B0     		sub	sp, sp, #16
 524              		.cfi_def_cfa_offset 24
 525 0004 00AF     		add	r7, sp, #0
 526              		.cfi_def_cfa_register 7
 527 0006 7860     		str	r0, [r7, #4]
 528              		.loc 6 229 3
 529 0008 FFF7FEFF 		bl	chSysLock
 530              		.loc 6 230 12
 531 000c 7868     		ldr	r0, [r7, #4]
 532 000e FFF7FEFF 		bl	chEvtAddEventsI
 533 0012 F860     		str	r0, [r7, #12]
 534              		.loc 6 231 3
 535 0014 FFF7FEFF 		bl	chSysUnlock
 536              		.loc 6 233 10
 537 0018 FB68     		ldr	r3, [r7, #12]
 538              		.loc 6 234 1
 539 001a 1846     		mov	r0, r3
 540 001c 1037     		adds	r7, r7, #16
 541              		.cfi_def_cfa_offset 8
 542 001e BD46     		mov	sp, r7
 543              		.cfi_def_cfa_register 13
 544              		@ sp needed
 545 0020 80BD     		pop	{r7, pc}
 546              		.cfi_endproc
 547              	.LFE351:
 548              		.size	chEvtAddEvents, .-chEvtAddEvents
 549              		.section	.text.chEvtGetAndClearFlagsI,"ax",%progbits
 550              		.align	1
 551              		.global	chEvtGetAndClearFlagsI
 552              		.syntax unified
 553              		.thumb
 554              		.thumb_func
 555              		.type	chEvtGetAndClearFlagsI, %function
 556              	chEvtGetAndClearFlagsI:
 557              	.LFB352:
 558              		.loc 6 247 60
 559              		.cfi_startproc
 560              		@ args = 0, pretend = 0, frame = 16
 561              		@ frame_needed = 1, uses_anonymous_args = 0
 562              		@ link register save eliminated.
 563 0000 80B4     		push	{r7}
 564              		.cfi_def_cfa_offset 4
 565              		.cfi_offset 7, -4
 566 0002 85B0     		sub	sp, sp, #20
 567              		.cfi_def_cfa_offset 24
 568 0004 00AF     		add	r7, sp, #0
 569              		.cfi_def_cfa_register 7
 570 0006 7860     		str	r0, [r7, #4]
ARM GAS  C:\Users\DEVELO~1\AppData\Local\Temp\cc6J7fdl.s 			page 11


 571              		.loc 6 253 9
 572 0008 7B68     		ldr	r3, [r7, #4]
 573 000a DB68     		ldr	r3, [r3, #12]
 574 000c FB60     		str	r3, [r7, #12]
 575              		.loc 6 254 14
 576 000e 7B68     		ldr	r3, [r7, #4]
 577 0010 0022     		movs	r2, #0
 578 0012 DA60     		str	r2, [r3, #12]
 579              		.loc 6 256 21
 580 0014 7B68     		ldr	r3, [r7, #4]
 581 0016 1A69     		ldr	r2, [r3, #16]
 582              		.loc 6 256 16
 583 0018 FB68     		ldr	r3, [r7, #12]
 584 001a 1340     		ands	r3, r3, r2
 585              		.loc 6 257 1
 586 001c 1846     		mov	r0, r3
 587 001e 1437     		adds	r7, r7, #20
 588              		.cfi_def_cfa_offset 4
 589 0020 BD46     		mov	sp, r7
 590              		.cfi_def_cfa_register 13
 591              		@ sp needed
 592 0022 80BC     		pop	{r7}
 593              		.cfi_restore 7
 594              		.cfi_def_cfa_offset 0
 595 0024 7047     		bx	lr
 596              		.cfi_endproc
 597              	.LFE352:
 598              		.size	chEvtGetAndClearFlagsI, .-chEvtGetAndClearFlagsI
 599              		.section	.text.chEvtGetAndClearFlags,"ax",%progbits
 600              		.align	1
 601              		.global	chEvtGetAndClearFlags
 602              		.syntax unified
 603              		.thumb
 604              		.thumb_func
 605              		.type	chEvtGetAndClearFlags, %function
 606              	chEvtGetAndClearFlags:
 607              	.LFB353:
 608              		.loc 6 270 59
 609              		.cfi_startproc
 610              		@ args = 0, pretend = 0, frame = 16
 611              		@ frame_needed = 1, uses_anonymous_args = 0
 612 0000 80B5     		push	{r7, lr}
 613              		.cfi_def_cfa_offset 8
 614              		.cfi_offset 7, -8
 615              		.cfi_offset 14, -4
 616 0002 84B0     		sub	sp, sp, #16
 617              		.cfi_def_cfa_offset 24
 618 0004 00AF     		add	r7, sp, #0
 619              		.cfi_def_cfa_register 7
 620 0006 7860     		str	r0, [r7, #4]
 621              		.loc 6 275 3
 622 0008 FFF7FEFF 		bl	chSysLock
 623              		.loc 6 276 9
 624 000c 7B68     		ldr	r3, [r7, #4]
 625 000e DB68     		ldr	r3, [r3, #12]
 626 0010 FB60     		str	r3, [r7, #12]
 627              		.loc 6 277 14
ARM GAS  C:\Users\DEVELO~1\AppData\Local\Temp\cc6J7fdl.s 			page 12


 628 0012 7B68     		ldr	r3, [r7, #4]
 629 0014 0022     		movs	r2, #0
 630 0016 DA60     		str	r2, [r3, #12]
 631              		.loc 6 278 3
 632 0018 FFF7FEFF 		bl	chSysUnlock
 633              		.loc 6 280 21
 634 001c 7B68     		ldr	r3, [r7, #4]
 635 001e 1A69     		ldr	r2, [r3, #16]
 636              		.loc 6 280 16
 637 0020 FB68     		ldr	r3, [r7, #12]
 638 0022 1340     		ands	r3, r3, r2
 639              		.loc 6 281 1
 640 0024 1846     		mov	r0, r3
 641 0026 1037     		adds	r7, r7, #16
 642              		.cfi_def_cfa_offset 8
 643 0028 BD46     		mov	sp, r7
 644              		.cfi_def_cfa_register 13
 645              		@ sp needed
 646 002a 80BD     		pop	{r7, pc}
 647              		.cfi_endproc
 648              	.LFE353:
 649              		.size	chEvtGetAndClearFlags, .-chEvtGetAndClearFlags
 650              		.section	.text.chEvtSignalI,"ax",%progbits
 651              		.align	1
 652              		.global	chEvtSignalI
 653              		.syntax unified
 654              		.thumb
 655              		.thumb_func
 656              		.type	chEvtSignalI, %function
 657              	chEvtSignalI:
 658              	.LFB354:
 659              		.loc 6 295 53
 660              		.cfi_startproc
 661              		@ args = 0, pretend = 0, frame = 8
 662              		@ frame_needed = 1, uses_anonymous_args = 0
 663 0000 80B5     		push	{r7, lr}
 664              		.cfi_def_cfa_offset 8
 665              		.cfi_offset 7, -8
 666              		.cfi_offset 14, -4
 667 0002 82B0     		sub	sp, sp, #8
 668              		.cfi_def_cfa_offset 16
 669 0004 00AF     		add	r7, sp, #0
 670              		.cfi_def_cfa_register 7
 671 0006 7860     		str	r0, [r7, #4]
 672 0008 3960     		str	r1, [r7]
 673              		.loc 6 300 16
 674 000a 7B68     		ldr	r3, [r7, #4]
 675 000c 9A6B     		ldr	r2, [r3, #56]
 676 000e 3B68     		ldr	r3, [r7]
 677 0010 1A43     		orrs	r2, r2, r3
 678 0012 7B68     		ldr	r3, [r7, #4]
 679 0014 9A63     		str	r2, [r3, #56]
 680              		.loc 6 302 11
 681 0016 7B68     		ldr	r3, [r7, #4]
 682 0018 93F82430 		ldrb	r3, [r3, #36]	@ zero_extendqisi2
 683              		.loc 6 302 6
 684 001c 0A2B     		cmp	r3, #10
ARM GAS  C:\Users\DEVELO~1\AppData\Local\Temp\cc6J7fdl.s 			page 13


 685 001e 06D1     		bne	.L29
 686              		.loc 6 303 12 discriminator 1
 687 0020 7B68     		ldr	r3, [r7, #4]
 688 0022 9A6B     		ldr	r2, [r3, #56]
 689              		.loc 6 303 30 discriminator 1
 690 0024 7B68     		ldr	r3, [r7, #4]
 691 0026 9B6A     		ldr	r3, [r3, #40]
 692              		.loc 6 303 23 discriminator 1
 693 0028 1340     		ands	r3, r3, r2
 694              		.loc 6 302 40 discriminator 1
 695 002a 002B     		cmp	r3, #0
 696 002c 0DD1     		bne	.L30
 697              	.L29:
 698              		.loc 6 304 11
 699 002e 7B68     		ldr	r3, [r7, #4]
 700 0030 93F82430 		ldrb	r3, [r3, #36]	@ zero_extendqisi2
 701              		.loc 6 303 59
 702 0034 0B2B     		cmp	r3, #11
 703 0036 0ED1     		bne	.L32
 704              		.loc 6 305 12
 705 0038 7B68     		ldr	r3, [r7, #4]
 706 003a 9A6B     		ldr	r2, [r3, #56]
 707              		.loc 6 305 30
 708 003c 7B68     		ldr	r3, [r7, #4]
 709 003e 9B6A     		ldr	r3, [r3, #40]
 710              		.loc 6 305 23
 711 0040 1A40     		ands	r2, r2, r3
 712              		.loc 6 305 47
 713 0042 7B68     		ldr	r3, [r7, #4]
 714 0044 9B6A     		ldr	r3, [r3, #40]
 715              		.loc 6 304 41
 716 0046 9A42     		cmp	r2, r3
 717 0048 05D1     		bne	.L32
 718              	.L30:
 719              		.loc 6 306 18
 720 004a 7B68     		ldr	r3, [r7, #4]
 721 004c 0022     		movs	r2, #0
 722 004e 9A62     		str	r2, [r3, #40]
 723              		.loc 6 307 12
 724 0050 7868     		ldr	r0, [r7, #4]
 725 0052 FFF7FEFF 		bl	chSchReadyI
 726              	.L32:
 727              		.loc 6 309 1
 728 0056 00BF     		nop
 729 0058 0837     		adds	r7, r7, #8
 730              		.cfi_def_cfa_offset 8
 731 005a BD46     		mov	sp, r7
 732              		.cfi_def_cfa_register 13
 733              		@ sp needed
 734 005c 80BD     		pop	{r7, pc}
 735              		.cfi_endproc
 736              	.LFE354:
 737              		.size	chEvtSignalI, .-chEvtSignalI
 738              		.section	.text.chEvtSignal,"ax",%progbits
 739              		.align	1
 740              		.global	chEvtSignal
 741              		.syntax unified
ARM GAS  C:\Users\DEVELO~1\AppData\Local\Temp\cc6J7fdl.s 			page 14


 742              		.thumb
 743              		.thumb_func
 744              		.type	chEvtSignal, %function
 745              	chEvtSignal:
 746              	.LFB355:
 747              		.loc 6 319 52
 748              		.cfi_startproc
 749              		@ args = 0, pretend = 0, frame = 8
 750              		@ frame_needed = 1, uses_anonymous_args = 0
 751 0000 80B5     		push	{r7, lr}
 752              		.cfi_def_cfa_offset 8
 753              		.cfi_offset 7, -8
 754              		.cfi_offset 14, -4
 755 0002 82B0     		sub	sp, sp, #8
 756              		.cfi_def_cfa_offset 16
 757 0004 00AF     		add	r7, sp, #0
 758              		.cfi_def_cfa_register 7
 759 0006 7860     		str	r0, [r7, #4]
 760 0008 3960     		str	r1, [r7]
 761              		.loc 6 323 3
 762 000a FFF7FEFF 		bl	chSysLock
 763              		.loc 6 324 3
 764 000e 3968     		ldr	r1, [r7]
 765 0010 7868     		ldr	r0, [r7, #4]
 766 0012 FFF7FEFF 		bl	chEvtSignalI
 767              		.loc 6 325 3
 768 0016 FFF7FEFF 		bl	chSchRescheduleS
 769              		.loc 6 326 3
 770 001a FFF7FEFF 		bl	chSysUnlock
 771              		.loc 6 327 1
 772 001e 00BF     		nop
 773 0020 0837     		adds	r7, r7, #8
 774              		.cfi_def_cfa_offset 8
 775 0022 BD46     		mov	sp, r7
 776              		.cfi_def_cfa_register 13
 777              		@ sp needed
 778 0024 80BD     		pop	{r7, pc}
 779              		.cfi_endproc
 780              	.LFE355:
 781              		.size	chEvtSignal, .-chEvtSignal
 782              		.section	.text.chEvtBroadcastFlagsI,"ax",%progbits
 783              		.align	1
 784              		.global	chEvtBroadcastFlagsI
 785              		.syntax unified
 786              		.thumb
 787              		.thumb_func
 788              		.type	chEvtBroadcastFlagsI, %function
 789              	chEvtBroadcastFlagsI:
 790              	.LFB356:
 791              		.loc 6 346 68
 792              		.cfi_startproc
 793              		@ args = 0, pretend = 0, frame = 16
 794              		@ frame_needed = 1, uses_anonymous_args = 0
 795 0000 80B5     		push	{r7, lr}
 796              		.cfi_def_cfa_offset 8
 797              		.cfi_offset 7, -8
 798              		.cfi_offset 14, -4
ARM GAS  C:\Users\DEVELO~1\AppData\Local\Temp\cc6J7fdl.s 			page 15


 799 0002 84B0     		sub	sp, sp, #16
 800              		.cfi_def_cfa_offset 24
 801 0004 00AF     		add	r7, sp, #0
 802              		.cfi_def_cfa_register 7
 803 0006 7860     		str	r0, [r7, #4]
 804 0008 3960     		str	r1, [r7]
 805              		.loc 6 352 7
 806 000a 7B68     		ldr	r3, [r7, #4]
 807 000c 1B68     		ldr	r3, [r3]
 808 000e FB60     		str	r3, [r7, #12]
 809              		.loc 6 354 9
 810 0010 19E0     		b	.L35
 811              	.L38:
 812              		.loc 6 356 16
 813 0012 FB68     		ldr	r3, [r7, #12]
 814 0014 DA68     		ldr	r2, [r3, #12]
 815 0016 3B68     		ldr	r3, [r7]
 816 0018 1A43     		orrs	r2, r2, r3
 817 001a FB68     		ldr	r3, [r7, #12]
 818 001c DA60     		str	r2, [r3, #12]
 819              		.loc 6 359 8
 820 001e 3B68     		ldr	r3, [r7]
 821 0020 002B     		cmp	r3, #0
 822 0022 05D0     		beq	.L36
 823              		.loc 6 360 22 discriminator 1
 824 0024 FB68     		ldr	r3, [r7, #12]
 825 0026 1A69     		ldr	r2, [r3, #16]
 826              		.loc 6 360 17 discriminator 1
 827 0028 3B68     		ldr	r3, [r7]
 828 002a 1340     		ands	r3, r3, r2
 829              		.loc 6 359 36 discriminator 1
 830 002c 002B     		cmp	r3, #0
 831 002e 07D0     		beq	.L37
 832              	.L36:
 833              		.loc 6 361 7
 834 0030 FB68     		ldr	r3, [r7, #12]
 835 0032 5A68     		ldr	r2, [r3, #4]
 836 0034 FB68     		ldr	r3, [r7, #12]
 837 0036 9B68     		ldr	r3, [r3, #8]
 838 0038 1946     		mov	r1, r3
 839 003a 1046     		mov	r0, r2
 840 003c FFF7FEFF 		bl	chEvtSignalI
 841              	.L37:
 842              		.loc 6 363 9
 843 0040 FB68     		ldr	r3, [r7, #12]
 844 0042 1B68     		ldr	r3, [r3]
 845 0044 FB60     		str	r3, [r7, #12]
 846              	.L35:
 847              		.loc 6 354 14
 848 0046 FA68     		ldr	r2, [r7, #12]
 849 0048 7B68     		ldr	r3, [r7, #4]
 850 004a 9A42     		cmp	r2, r3
 851 004c E1D1     		bne	.L38
 852              		.loc 6 365 1
 853 004e 00BF     		nop
 854 0050 00BF     		nop
 855 0052 1037     		adds	r7, r7, #16
ARM GAS  C:\Users\DEVELO~1\AppData\Local\Temp\cc6J7fdl.s 			page 16


 856              		.cfi_def_cfa_offset 8
 857 0054 BD46     		mov	sp, r7
 858              		.cfi_def_cfa_register 13
 859              		@ sp needed
 860 0056 80BD     		pop	{r7, pc}
 861              		.cfi_endproc
 862              	.LFE356:
 863              		.size	chEvtBroadcastFlagsI, .-chEvtBroadcastFlagsI
 864              		.section	.text.chEvtBroadcastFlags,"ax",%progbits
 865              		.align	1
 866              		.global	chEvtBroadcastFlags
 867              		.syntax unified
 868              		.thumb
 869              		.thumb_func
 870              		.type	chEvtBroadcastFlags, %function
 871              	chEvtBroadcastFlags:
 872              	.LFB357:
 873              		.loc 6 380 67
 874              		.cfi_startproc
 875              		@ args = 0, pretend = 0, frame = 8
 876              		@ frame_needed = 1, uses_anonymous_args = 0
 877 0000 80B5     		push	{r7, lr}
 878              		.cfi_def_cfa_offset 8
 879              		.cfi_offset 7, -8
 880              		.cfi_offset 14, -4
 881 0002 82B0     		sub	sp, sp, #8
 882              		.cfi_def_cfa_offset 16
 883 0004 00AF     		add	r7, sp, #0
 884              		.cfi_def_cfa_register 7
 885 0006 7860     		str	r0, [r7, #4]
 886 0008 3960     		str	r1, [r7]
 887              		.loc 6 382 3
 888 000a FFF7FEFF 		bl	chSysLock
 889              		.loc 6 383 3
 890 000e 3968     		ldr	r1, [r7]
 891 0010 7868     		ldr	r0, [r7, #4]
 892 0012 FFF7FEFF 		bl	chEvtBroadcastFlagsI
 893              		.loc 6 384 3
 894 0016 FFF7FEFF 		bl	chSchRescheduleS
 895              		.loc 6 385 3
 896 001a FFF7FEFF 		bl	chSysUnlock
 897              		.loc 6 386 1
 898 001e 00BF     		nop
 899 0020 0837     		adds	r7, r7, #8
 900              		.cfi_def_cfa_offset 8
 901 0022 BD46     		mov	sp, r7
 902              		.cfi_def_cfa_register 13
 903              		@ sp needed
 904 0024 80BD     		pop	{r7, pc}
 905              		.cfi_endproc
 906              	.LFE357:
 907              		.size	chEvtBroadcastFlags, .-chEvtBroadcastFlags
 908              		.section	.text.chEvtDispatch,"ax",%progbits
 909              		.align	1
 910              		.global	chEvtDispatch
 911              		.syntax unified
 912              		.thumb
ARM GAS  C:\Users\DEVELO~1\AppData\Local\Temp\cc6J7fdl.s 			page 17


 913              		.thumb_func
 914              		.type	chEvtDispatch, %function
 915              	chEvtDispatch:
 916              	.LFB358:
 917              		.loc 6 397 69
 918              		.cfi_startproc
 919              		@ args = 0, pretend = 0, frame = 16
 920              		@ frame_needed = 1, uses_anonymous_args = 0
 921 0000 80B5     		push	{r7, lr}
 922              		.cfi_def_cfa_offset 8
 923              		.cfi_offset 7, -8
 924              		.cfi_offset 14, -4
 925 0002 84B0     		sub	sp, sp, #16
 926              		.cfi_def_cfa_offset 24
 927 0004 00AF     		add	r7, sp, #0
 928              		.cfi_def_cfa_register 7
 929 0006 7860     		str	r0, [r7, #4]
 930 0008 3960     		str	r1, [r7]
 931              		.loc 6 402 7
 932 000a 0023     		movs	r3, #0
 933 000c FB60     		str	r3, [r7, #12]
 934              		.loc 6 403 9
 935 000e 19E0     		b	.L41
 936              	.L43:
 937              		.loc 6 404 19
 938 0010 FB68     		ldr	r3, [r7, #12]
 939              		.loc 6 404 36
 940 0012 3A68     		ldr	r2, [r7]
 941 0014 22FA03F3 		lsr	r3, r2, r3
 942 0018 03F00103 		and	r3, r3, #1
 943              		.loc 6 404 8
 944 001c 002B     		cmp	r3, #0
 945 001e 0ED0     		beq	.L42
 946              		.loc 6 406 18
 947 0020 FB68     		ldr	r3, [r7, #12]
 948 0022 0122     		movs	r2, #1
 949 0024 02FA03F3 		lsl	r3, r2, r3
 950              		.loc 6 406 17
 951 0028 DB43     		mvns	r3, r3
 952              		.loc 6 406 14
 953 002a 3A68     		ldr	r2, [r7]
 954 002c 1340     		ands	r3, r3, r2
 955 002e 3B60     		str	r3, [r7]
 956              		.loc 6 407 15
 957 0030 FB68     		ldr	r3, [r7, #12]
 958 0032 9B00     		lsls	r3, r3, #2
 959 0034 7A68     		ldr	r2, [r7, #4]
 960 0036 1344     		add	r3, r3, r2
 961 0038 1B68     		ldr	r3, [r3]
 962              		.loc 6 407 7
 963 003a F868     		ldr	r0, [r7, #12]
 964 003c 9847     		blx	r3
 965              	.LVL0:
 966              	.L42:
 967              		.loc 6 409 8
 968 003e FB68     		ldr	r3, [r7, #12]
 969 0040 0133     		adds	r3, r3, #1
ARM GAS  C:\Users\DEVELO~1\AppData\Local\Temp\cc6J7fdl.s 			page 18


 970 0042 FB60     		str	r3, [r7, #12]
 971              	.L41:
 972              		.loc 6 403 17
 973 0044 3B68     		ldr	r3, [r7]
 974 0046 002B     		cmp	r3, #0
 975 0048 E2D1     		bne	.L43
 976              		.loc 6 411 1
 977 004a 00BF     		nop
 978 004c 00BF     		nop
 979 004e 1037     		adds	r7, r7, #16
 980              		.cfi_def_cfa_offset 8
 981 0050 BD46     		mov	sp, r7
 982              		.cfi_def_cfa_register 13
 983              		@ sp needed
 984 0052 80BD     		pop	{r7, pc}
 985              		.cfi_endproc
 986              	.LFE358:
 987              		.size	chEvtDispatch, .-chEvtDispatch
 988              		.section	.text.chEvtWaitOne,"ax",%progbits
 989              		.align	1
 990              		.global	chEvtWaitOne
 991              		.syntax unified
 992              		.thumb
 993              		.thumb_func
 994              		.type	chEvtWaitOne, %function
 995              	chEvtWaitOne:
 996              	.LFB359:
 997              		.loc 6 432 46
 998              		.cfi_startproc
 999              		@ args = 0, pretend = 0, frame = 16
 1000              		@ frame_needed = 1, uses_anonymous_args = 0
 1001 0000 80B5     		push	{r7, lr}
 1002              		.cfi_def_cfa_offset 8
 1003              		.cfi_offset 7, -8
 1004              		.cfi_offset 14, -4
 1005 0002 84B0     		sub	sp, sp, #16
 1006              		.cfi_def_cfa_offset 24
 1007 0004 00AF     		add	r7, sp, #0
 1008              		.cfi_def_cfa_register 7
 1009 0006 7860     		str	r0, [r7, #4]
 1010              		.loc 6 433 22
 1011 0008 FFF7FEFF 		bl	chThdGetSelfX
 1012 000c B860     		str	r0, [r7, #8]
 1013              		.loc 6 436 3
 1014 000e FFF7FEFF 		bl	chSysLock
 1015              		.loc 6 437 13
 1016 0012 BB68     		ldr	r3, [r7, #8]
 1017 0014 9B6B     		ldr	r3, [r3, #56]
 1018              		.loc 6 437 5
 1019 0016 7A68     		ldr	r2, [r7, #4]
 1020 0018 1340     		ands	r3, r3, r2
 1021 001a FB60     		str	r3, [r7, #12]
 1022              		.loc 6 438 6
 1023 001c FB68     		ldr	r3, [r7, #12]
 1024 001e 002B     		cmp	r3, #0
 1025 0020 0AD1     		bne	.L45
 1026              		.loc 6 439 22
ARM GAS  C:\Users\DEVELO~1\AppData\Local\Temp\cc6J7fdl.s 			page 19


 1027 0022 BB68     		ldr	r3, [r7, #8]
 1028 0024 7A68     		ldr	r2, [r7, #4]
 1029 0026 9A62     		str	r2, [r3, #40]
 1030              		.loc 6 440 5
 1031 0028 0A20     		movs	r0, #10
 1032 002a FFF7FEFF 		bl	chSchGoSleepS
 1033              		.loc 6 441 15
 1034 002e BB68     		ldr	r3, [r7, #8]
 1035 0030 9B6B     		ldr	r3, [r3, #56]
 1036              		.loc 6 441 7
 1037 0032 7A68     		ldr	r2, [r7, #4]
 1038 0034 1340     		ands	r3, r3, r2
 1039 0036 FB60     		str	r3, [r7, #12]
 1040              	.L45:
 1041              		.loc 6 443 5
 1042 0038 FB68     		ldr	r3, [r7, #12]
 1043 003a 5B42     		rsbs	r3, r3, #0
 1044 003c FA68     		ldr	r2, [r7, #12]
 1045 003e 1340     		ands	r3, r3, r2
 1046 0040 FB60     		str	r3, [r7, #12]
 1047              		.loc 6 444 20
 1048 0042 BB68     		ldr	r3, [r7, #8]
 1049 0044 9A6B     		ldr	r2, [r3, #56]
 1050              		.loc 6 444 23
 1051 0046 FB68     		ldr	r3, [r7, #12]
 1052 0048 DB43     		mvns	r3, r3
 1053              		.loc 6 444 20
 1054 004a 1A40     		ands	r2, r2, r3
 1055 004c BB68     		ldr	r3, [r7, #8]
 1056 004e 9A63     		str	r2, [r3, #56]
 1057              		.loc 6 445 3
 1058 0050 FFF7FEFF 		bl	chSysUnlock
 1059              		.loc 6 447 10
 1060 0054 FB68     		ldr	r3, [r7, #12]
 1061              		.loc 6 448 1
 1062 0056 1846     		mov	r0, r3
 1063 0058 1037     		adds	r7, r7, #16
 1064              		.cfi_def_cfa_offset 8
 1065 005a BD46     		mov	sp, r7
 1066              		.cfi_def_cfa_register 13
 1067              		@ sp needed
 1068 005c 80BD     		pop	{r7, pc}
 1069              		.cfi_endproc
 1070              	.LFE359:
 1071              		.size	chEvtWaitOne, .-chEvtWaitOne
 1072              		.section	.text.chEvtWaitAny,"ax",%progbits
 1073              		.align	1
 1074              		.global	chEvtWaitAny
 1075              		.syntax unified
 1076              		.thumb
 1077              		.thumb_func
 1078              		.type	chEvtWaitAny, %function
 1079              	chEvtWaitAny:
 1080              	.LFB360:
 1081              		.loc 6 462 46
 1082              		.cfi_startproc
 1083              		@ args = 0, pretend = 0, frame = 16
ARM GAS  C:\Users\DEVELO~1\AppData\Local\Temp\cc6J7fdl.s 			page 20


 1084              		@ frame_needed = 1, uses_anonymous_args = 0
 1085 0000 80B5     		push	{r7, lr}
 1086              		.cfi_def_cfa_offset 8
 1087              		.cfi_offset 7, -8
 1088              		.cfi_offset 14, -4
 1089 0002 84B0     		sub	sp, sp, #16
 1090              		.cfi_def_cfa_offset 24
 1091 0004 00AF     		add	r7, sp, #0
 1092              		.cfi_def_cfa_register 7
 1093 0006 7860     		str	r0, [r7, #4]
 1094              		.loc 6 463 22
 1095 0008 FFF7FEFF 		bl	chThdGetSelfX
 1096 000c B860     		str	r0, [r7, #8]
 1097              		.loc 6 466 3
 1098 000e FFF7FEFF 		bl	chSysLock
 1099              		.loc 6 467 13
 1100 0012 BB68     		ldr	r3, [r7, #8]
 1101 0014 9B6B     		ldr	r3, [r3, #56]
 1102              		.loc 6 467 5
 1103 0016 7A68     		ldr	r2, [r7, #4]
 1104 0018 1340     		ands	r3, r3, r2
 1105 001a FB60     		str	r3, [r7, #12]
 1106              		.loc 6 468 6
 1107 001c FB68     		ldr	r3, [r7, #12]
 1108 001e 002B     		cmp	r3, #0
 1109 0020 0AD1     		bne	.L48
 1110              		.loc 6 469 22
 1111 0022 BB68     		ldr	r3, [r7, #8]
 1112 0024 7A68     		ldr	r2, [r7, #4]
 1113 0026 9A62     		str	r2, [r3, #40]
 1114              		.loc 6 470 5
 1115 0028 0A20     		movs	r0, #10
 1116 002a FFF7FEFF 		bl	chSchGoSleepS
 1117              		.loc 6 471 15
 1118 002e BB68     		ldr	r3, [r7, #8]
 1119 0030 9B6B     		ldr	r3, [r3, #56]
 1120              		.loc 6 471 7
 1121 0032 7A68     		ldr	r2, [r7, #4]
 1122 0034 1340     		ands	r3, r3, r2
 1123 0036 FB60     		str	r3, [r7, #12]
 1124              	.L48:
 1125              		.loc 6 473 20
 1126 0038 BB68     		ldr	r3, [r7, #8]
 1127 003a 9A6B     		ldr	r2, [r3, #56]
 1128              		.loc 6 473 23
 1129 003c FB68     		ldr	r3, [r7, #12]
 1130 003e DB43     		mvns	r3, r3
 1131              		.loc 6 473 20
 1132 0040 1A40     		ands	r2, r2, r3
 1133 0042 BB68     		ldr	r3, [r7, #8]
 1134 0044 9A63     		str	r2, [r3, #56]
 1135              		.loc 6 474 3
 1136 0046 FFF7FEFF 		bl	chSysUnlock
 1137              		.loc 6 476 10
 1138 004a FB68     		ldr	r3, [r7, #12]
 1139              		.loc 6 477 1
 1140 004c 1846     		mov	r0, r3
ARM GAS  C:\Users\DEVELO~1\AppData\Local\Temp\cc6J7fdl.s 			page 21


 1141 004e 1037     		adds	r7, r7, #16
 1142              		.cfi_def_cfa_offset 8
 1143 0050 BD46     		mov	sp, r7
 1144              		.cfi_def_cfa_register 13
 1145              		@ sp needed
 1146 0052 80BD     		pop	{r7, pc}
 1147              		.cfi_endproc
 1148              	.LFE360:
 1149              		.size	chEvtWaitAny, .-chEvtWaitAny
 1150              		.section	.text.chEvtWaitAll,"ax",%progbits
 1151              		.align	1
 1152              		.global	chEvtWaitAll
 1153              		.syntax unified
 1154              		.thumb
 1155              		.thumb_func
 1156              		.type	chEvtWaitAll, %function
 1157              	chEvtWaitAll:
 1158              	.LFB361:
 1159              		.loc 6 490 46
 1160              		.cfi_startproc
 1161              		@ args = 0, pretend = 0, frame = 16
 1162              		@ frame_needed = 1, uses_anonymous_args = 0
 1163 0000 80B5     		push	{r7, lr}
 1164              		.cfi_def_cfa_offset 8
 1165              		.cfi_offset 7, -8
 1166              		.cfi_offset 14, -4
 1167 0002 84B0     		sub	sp, sp, #16
 1168              		.cfi_def_cfa_offset 24
 1169 0004 00AF     		add	r7, sp, #0
 1170              		.cfi_def_cfa_register 7
 1171 0006 7860     		str	r0, [r7, #4]
 1172              		.loc 6 491 22
 1173 0008 FFF7FEFF 		bl	chThdGetSelfX
 1174 000c F860     		str	r0, [r7, #12]
 1175              		.loc 6 493 3
 1176 000e FFF7FEFF 		bl	chSysLock
 1177              		.loc 6 494 14
 1178 0012 FB68     		ldr	r3, [r7, #12]
 1179 0014 9A6B     		ldr	r2, [r3, #56]
 1180              		.loc 6 494 25
 1181 0016 7B68     		ldr	r3, [r7, #4]
 1182 0018 1340     		ands	r3, r3, r2
 1183              		.loc 6 494 6
 1184 001a 7A68     		ldr	r2, [r7, #4]
 1185 001c 9A42     		cmp	r2, r3
 1186 001e 05D0     		beq	.L51
 1187              		.loc 6 495 22
 1188 0020 FB68     		ldr	r3, [r7, #12]
 1189 0022 7A68     		ldr	r2, [r7, #4]
 1190 0024 9A62     		str	r2, [r3, #40]
 1191              		.loc 6 496 5
 1192 0026 0B20     		movs	r0, #11
 1193 0028 FFF7FEFF 		bl	chSchGoSleepS
 1194              	.L51:
 1195              		.loc 6 498 20
 1196 002c FB68     		ldr	r3, [r7, #12]
 1197 002e 9A6B     		ldr	r2, [r3, #56]
ARM GAS  C:\Users\DEVELO~1\AppData\Local\Temp\cc6J7fdl.s 			page 22


 1198              		.loc 6 498 23
 1199 0030 7B68     		ldr	r3, [r7, #4]
 1200 0032 DB43     		mvns	r3, r3
 1201              		.loc 6 498 20
 1202 0034 1A40     		ands	r2, r2, r3
 1203 0036 FB68     		ldr	r3, [r7, #12]
 1204 0038 9A63     		str	r2, [r3, #56]
 1205              		.loc 6 499 3
 1206 003a FFF7FEFF 		bl	chSysUnlock
 1207              		.loc 6 501 10
 1208 003e 7B68     		ldr	r3, [r7, #4]
 1209              		.loc 6 502 1
 1210 0040 1846     		mov	r0, r3
 1211 0042 1037     		adds	r7, r7, #16
 1212              		.cfi_def_cfa_offset 8
 1213 0044 BD46     		mov	sp, r7
 1214              		.cfi_def_cfa_register 13
 1215              		@ sp needed
 1216 0046 80BD     		pop	{r7, pc}
 1217              		.cfi_endproc
 1218              	.LFE361:
 1219              		.size	chEvtWaitAll, .-chEvtWaitAll
 1220              		.section	.text.chEvtWaitOneTimeout,"ax",%progbits
 1221              		.align	1
 1222              		.global	chEvtWaitOneTimeout
 1223              		.syntax unified
 1224              		.thumb
 1225              		.thumb_func
 1226              		.type	chEvtWaitOneTimeout, %function
 1227              	chEvtWaitOneTimeout:
 1228              	.LFB362:
 1229              		.loc 6 528 76
 1230              		.cfi_startproc
 1231              		@ args = 0, pretend = 0, frame = 16
 1232              		@ frame_needed = 1, uses_anonymous_args = 0
 1233 0000 80B5     		push	{r7, lr}
 1234              		.cfi_def_cfa_offset 8
 1235              		.cfi_offset 7, -8
 1236              		.cfi_offset 14, -4
 1237 0002 84B0     		sub	sp, sp, #16
 1238              		.cfi_def_cfa_offset 24
 1239 0004 00AF     		add	r7, sp, #0
 1240              		.cfi_def_cfa_register 7
 1241 0006 7860     		str	r0, [r7, #4]
 1242 0008 3960     		str	r1, [r7]
 1243              		.loc 6 529 22
 1244 000a FFF7FEFF 		bl	chThdGetSelfX
 1245 000e B860     		str	r0, [r7, #8]
 1246              		.loc 6 532 3
 1247 0010 FFF7FEFF 		bl	chSysLock
 1248              		.loc 6 533 13
 1249 0014 BB68     		ldr	r3, [r7, #8]
 1250 0016 9B6B     		ldr	r3, [r3, #56]
 1251              		.loc 6 533 5
 1252 0018 7A68     		ldr	r2, [r7, #4]
 1253 001a 1340     		ands	r3, r3, r2
 1254 001c FB60     		str	r3, [r7, #12]
ARM GAS  C:\Users\DEVELO~1\AppData\Local\Temp\cc6J7fdl.s 			page 23


 1255              		.loc 6 534 6
 1256 001e FB68     		ldr	r3, [r7, #12]
 1257 0020 002B     		cmp	r3, #0
 1258 0022 19D1     		bne	.L54
 1259              		.loc 6 535 8
 1260 0024 3B68     		ldr	r3, [r7]
 1261 0026 002B     		cmp	r3, #0
 1262 0028 03D1     		bne	.L55
 1263              		.loc 6 536 7
 1264 002a FFF7FEFF 		bl	chSysUnlock
 1265              		.loc 6 537 14
 1266 002e 0023     		movs	r3, #0
 1267 0030 21E0     		b	.L56
 1268              	.L55:
 1269              		.loc 6 539 22
 1270 0032 BB68     		ldr	r3, [r7, #8]
 1271 0034 7A68     		ldr	r2, [r7, #4]
 1272 0036 9A62     		str	r2, [r3, #40]
 1273              		.loc 6 540 9
 1274 0038 3968     		ldr	r1, [r7]
 1275 003a 0A20     		movs	r0, #10
 1276 003c FFF7FEFF 		bl	chSchGoSleepTimeoutS
 1277 0040 0346     		mov	r3, r0
 1278              		.loc 6 540 8
 1279 0042 002B     		cmp	r3, #0
 1280 0044 03DA     		bge	.L57
 1281              		.loc 6 541 7
 1282 0046 FFF7FEFF 		bl	chSysUnlock
 1283              		.loc 6 542 14
 1284 004a 0023     		movs	r3, #0
 1285 004c 13E0     		b	.L56
 1286              	.L57:
 1287              		.loc 6 544 15
 1288 004e BB68     		ldr	r3, [r7, #8]
 1289 0050 9B6B     		ldr	r3, [r3, #56]
 1290              		.loc 6 544 7
 1291 0052 7A68     		ldr	r2, [r7, #4]
 1292 0054 1340     		ands	r3, r3, r2
 1293 0056 FB60     		str	r3, [r7, #12]
 1294              	.L54:
 1295              		.loc 6 546 5
 1296 0058 FB68     		ldr	r3, [r7, #12]
 1297 005a 5B42     		rsbs	r3, r3, #0
 1298 005c FA68     		ldr	r2, [r7, #12]
 1299 005e 1340     		ands	r3, r3, r2
 1300 0060 FB60     		str	r3, [r7, #12]
 1301              		.loc 6 547 20
 1302 0062 BB68     		ldr	r3, [r7, #8]
 1303 0064 9A6B     		ldr	r2, [r3, #56]
 1304              		.loc 6 547 23
 1305 0066 FB68     		ldr	r3, [r7, #12]
 1306 0068 DB43     		mvns	r3, r3
 1307              		.loc 6 547 20
 1308 006a 1A40     		ands	r2, r2, r3
 1309 006c BB68     		ldr	r3, [r7, #8]
 1310 006e 9A63     		str	r2, [r3, #56]
 1311              		.loc 6 548 3
ARM GAS  C:\Users\DEVELO~1\AppData\Local\Temp\cc6J7fdl.s 			page 24


 1312 0070 FFF7FEFF 		bl	chSysUnlock
 1313              		.loc 6 550 10
 1314 0074 FB68     		ldr	r3, [r7, #12]
 1315              	.L56:
 1316              		.loc 6 551 1
 1317 0076 1846     		mov	r0, r3
 1318 0078 1037     		adds	r7, r7, #16
 1319              		.cfi_def_cfa_offset 8
 1320 007a BD46     		mov	sp, r7
 1321              		.cfi_def_cfa_register 13
 1322              		@ sp needed
 1323 007c 80BD     		pop	{r7, pc}
 1324              		.cfi_endproc
 1325              	.LFE362:
 1326              		.size	chEvtWaitOneTimeout, .-chEvtWaitOneTimeout
 1327              		.section	.text.chEvtWaitAnyTimeout,"ax",%progbits
 1328              		.align	1
 1329              		.global	chEvtWaitAnyTimeout
 1330              		.syntax unified
 1331              		.thumb
 1332              		.thumb_func
 1333              		.type	chEvtWaitAnyTimeout, %function
 1334              	chEvtWaitAnyTimeout:
 1335              	.LFB363:
 1336              		.loc 6 571 76
 1337              		.cfi_startproc
 1338              		@ args = 0, pretend = 0, frame = 16
 1339              		@ frame_needed = 1, uses_anonymous_args = 0
 1340 0000 80B5     		push	{r7, lr}
 1341              		.cfi_def_cfa_offset 8
 1342              		.cfi_offset 7, -8
 1343              		.cfi_offset 14, -4
 1344 0002 84B0     		sub	sp, sp, #16
 1345              		.cfi_def_cfa_offset 24
 1346 0004 00AF     		add	r7, sp, #0
 1347              		.cfi_def_cfa_register 7
 1348 0006 7860     		str	r0, [r7, #4]
 1349 0008 3960     		str	r1, [r7]
 1350              		.loc 6 572 22
 1351 000a FFF7FEFF 		bl	chThdGetSelfX
 1352 000e B860     		str	r0, [r7, #8]
 1353              		.loc 6 575 3
 1354 0010 FFF7FEFF 		bl	chSysLock
 1355              		.loc 6 576 13
 1356 0014 BB68     		ldr	r3, [r7, #8]
 1357 0016 9B6B     		ldr	r3, [r3, #56]
 1358              		.loc 6 576 5
 1359 0018 7A68     		ldr	r2, [r7, #4]
 1360 001a 1340     		ands	r3, r3, r2
 1361 001c FB60     		str	r3, [r7, #12]
 1362              		.loc 6 577 6
 1363 001e FB68     		ldr	r3, [r7, #12]
 1364 0020 002B     		cmp	r3, #0
 1365 0022 19D1     		bne	.L59
 1366              		.loc 6 578 8
 1367 0024 3B68     		ldr	r3, [r7]
 1368 0026 002B     		cmp	r3, #0
ARM GAS  C:\Users\DEVELO~1\AppData\Local\Temp\cc6J7fdl.s 			page 25


 1369 0028 03D1     		bne	.L60
 1370              		.loc 6 579 7
 1371 002a FFF7FEFF 		bl	chSysUnlock
 1372              		.loc 6 580 14
 1373 002e 0023     		movs	r3, #0
 1374 0030 1CE0     		b	.L61
 1375              	.L60:
 1376              		.loc 6 582 22
 1377 0032 BB68     		ldr	r3, [r7, #8]
 1378 0034 7A68     		ldr	r2, [r7, #4]
 1379 0036 9A62     		str	r2, [r3, #40]
 1380              		.loc 6 583 9
 1381 0038 3968     		ldr	r1, [r7]
 1382 003a 0A20     		movs	r0, #10
 1383 003c FFF7FEFF 		bl	chSchGoSleepTimeoutS
 1384 0040 0346     		mov	r3, r0
 1385              		.loc 6 583 8
 1386 0042 002B     		cmp	r3, #0
 1387 0044 03DA     		bge	.L62
 1388              		.loc 6 584 7
 1389 0046 FFF7FEFF 		bl	chSysUnlock
 1390              		.loc 6 585 14
 1391 004a 0023     		movs	r3, #0
 1392 004c 0EE0     		b	.L61
 1393              	.L62:
 1394              		.loc 6 587 15
 1395 004e BB68     		ldr	r3, [r7, #8]
 1396 0050 9B6B     		ldr	r3, [r3, #56]
 1397              		.loc 6 587 7
 1398 0052 7A68     		ldr	r2, [r7, #4]
 1399 0054 1340     		ands	r3, r3, r2
 1400 0056 FB60     		str	r3, [r7, #12]
 1401              	.L59:
 1402              		.loc 6 589 20
 1403 0058 BB68     		ldr	r3, [r7, #8]
 1404 005a 9A6B     		ldr	r2, [r3, #56]
 1405              		.loc 6 589 23
 1406 005c FB68     		ldr	r3, [r7, #12]
 1407 005e DB43     		mvns	r3, r3
 1408              		.loc 6 589 20
 1409 0060 1A40     		ands	r2, r2, r3
 1410 0062 BB68     		ldr	r3, [r7, #8]
 1411 0064 9A63     		str	r2, [r3, #56]
 1412              		.loc 6 590 3
 1413 0066 FFF7FEFF 		bl	chSysUnlock
 1414              		.loc 6 592 10
 1415 006a FB68     		ldr	r3, [r7, #12]
 1416              	.L61:
 1417              		.loc 6 593 1
 1418 006c 1846     		mov	r0, r3
 1419 006e 1037     		adds	r7, r7, #16
 1420              		.cfi_def_cfa_offset 8
 1421 0070 BD46     		mov	sp, r7
 1422              		.cfi_def_cfa_register 13
 1423              		@ sp needed
 1424 0072 80BD     		pop	{r7, pc}
 1425              		.cfi_endproc
ARM GAS  C:\Users\DEVELO~1\AppData\Local\Temp\cc6J7fdl.s 			page 26


 1426              	.LFE363:
 1427              		.size	chEvtWaitAnyTimeout, .-chEvtWaitAnyTimeout
 1428              		.section	.text.chEvtWaitAllTimeout,"ax",%progbits
 1429              		.align	1
 1430              		.global	chEvtWaitAllTimeout
 1431              		.syntax unified
 1432              		.thumb
 1433              		.thumb_func
 1434              		.type	chEvtWaitAllTimeout, %function
 1435              	chEvtWaitAllTimeout:
 1436              	.LFB364:
 1437              		.loc 6 612 76
 1438              		.cfi_startproc
 1439              		@ args = 0, pretend = 0, frame = 16
 1440              		@ frame_needed = 1, uses_anonymous_args = 0
 1441 0000 80B5     		push	{r7, lr}
 1442              		.cfi_def_cfa_offset 8
 1443              		.cfi_offset 7, -8
 1444              		.cfi_offset 14, -4
 1445 0002 84B0     		sub	sp, sp, #16
 1446              		.cfi_def_cfa_offset 24
 1447 0004 00AF     		add	r7, sp, #0
 1448              		.cfi_def_cfa_register 7
 1449 0006 7860     		str	r0, [r7, #4]
 1450 0008 3960     		str	r1, [r7]
 1451              		.loc 6 613 22
 1452 000a FFF7FEFF 		bl	chThdGetSelfX
 1453 000e F860     		str	r0, [r7, #12]
 1454              		.loc 6 615 3
 1455 0010 FFF7FEFF 		bl	chSysLock
 1456              		.loc 6 616 14
 1457 0014 FB68     		ldr	r3, [r7, #12]
 1458 0016 9A6B     		ldr	r2, [r3, #56]
 1459              		.loc 6 616 25
 1460 0018 7B68     		ldr	r3, [r7, #4]
 1461 001a 1340     		ands	r3, r3, r2
 1462              		.loc 6 616 6
 1463 001c 7A68     		ldr	r2, [r7, #4]
 1464 001e 9A42     		cmp	r2, r3
 1465 0020 14D0     		beq	.L64
 1466              		.loc 6 617 8
 1467 0022 3B68     		ldr	r3, [r7]
 1468 0024 002B     		cmp	r3, #0
 1469 0026 03D1     		bne	.L65
 1470              		.loc 6 618 7
 1471 0028 FFF7FEFF 		bl	chSysUnlock
 1472              		.loc 6 619 14
 1473 002c 0023     		movs	r3, #0
 1474 002e 17E0     		b	.L66
 1475              	.L65:
 1476              		.loc 6 621 22
 1477 0030 FB68     		ldr	r3, [r7, #12]
 1478 0032 7A68     		ldr	r2, [r7, #4]
 1479 0034 9A62     		str	r2, [r3, #40]
 1480              		.loc 6 622 9
 1481 0036 3968     		ldr	r1, [r7]
 1482 0038 0B20     		movs	r0, #11
ARM GAS  C:\Users\DEVELO~1\AppData\Local\Temp\cc6J7fdl.s 			page 27


 1483 003a FFF7FEFF 		bl	chSchGoSleepTimeoutS
 1484 003e 0346     		mov	r3, r0
 1485              		.loc 6 622 8
 1486 0040 002B     		cmp	r3, #0
 1487 0042 03DA     		bge	.L64
 1488              		.loc 6 623 7
 1489 0044 FFF7FEFF 		bl	chSysUnlock
 1490              		.loc 6 624 14
 1491 0048 0023     		movs	r3, #0
 1492 004a 09E0     		b	.L66
 1493              	.L64:
 1494              		.loc 6 627 20
 1495 004c FB68     		ldr	r3, [r7, #12]
 1496 004e 9A6B     		ldr	r2, [r3, #56]
 1497              		.loc 6 627 23
 1498 0050 7B68     		ldr	r3, [r7, #4]
 1499 0052 DB43     		mvns	r3, r3
 1500              		.loc 6 627 20
 1501 0054 1A40     		ands	r2, r2, r3
 1502 0056 FB68     		ldr	r3, [r7, #12]
 1503 0058 9A63     		str	r2, [r3, #56]
 1504              		.loc 6 628 3
 1505 005a FFF7FEFF 		bl	chSysUnlock
 1506              		.loc 6 630 10
 1507 005e 7B68     		ldr	r3, [r7, #4]
 1508              	.L66:
 1509              		.loc 6 631 1
 1510 0060 1846     		mov	r0, r3
 1511 0062 1037     		adds	r7, r7, #16
 1512              		.cfi_def_cfa_offset 8
 1513 0064 BD46     		mov	sp, r7
 1514              		.cfi_def_cfa_register 13
 1515              		@ sp needed
 1516 0066 80BD     		pop	{r7, pc}
 1517              		.cfi_endproc
 1518              	.LFE364:
 1519              		.size	chEvtWaitAllTimeout, .-chEvtWaitAllTimeout
 1520              		.text
 1521              	.Letext0:
 1522              		.file 7 "c:\\chibistudio\\tools\\gnu tools arm embedded\\11.3 2022.08\\arm-none-eabi\\include\\mac
 1523              		.file 8 "c:\\chibistudio\\tools\\gnu tools arm embedded\\11.3 2022.08\\arm-none-eabi\\include\\sys
 1524              		.file 9 "../../../os/common/ports/ARM-common/chtypes.h"
 1525              		.file 10 "../../../os/rt/include/chearly.h"
 1526              		.file 11 "../../../os/rt/include/chobjects.h"
 1527              		.file 12 "../../../os/rt/include/chrfcu.h"
 1528              		.file 13 "../../../os/rt/include/chdebug.h"
 1529              		.file 14 "../../../os/rt/include/chtime.h"
 1530              		.file 15 "../../../os/rt/include/chlists.h"
 1531              		.file 16 "../../../os/rt/include/chtrace.h"
 1532              		.file 17 "../../../os/rt/include/chsem.h"
 1533              		.file 18 "../../../os/rt/include/chmtx.h"
 1534              		.file 19 "../../../os/rt/include/chschd.h"
 1535              		.section	.debug_info,"",%progbits
 1536              	.Ldebug_info0:
 1537 0000 A1100000 		.4byte	0x10a1
 1538 0004 0500     		.2byte	0x5
 1539 0006 01       		.byte	0x1
ARM GAS  C:\Users\DEVELO~1\AppData\Local\Temp\cc6J7fdl.s 			page 28


 1540 0007 04       		.byte	0x4
 1541 0008 00000000 		.4byte	.Ldebug_abbrev0
 1542 000c 28       		.uleb128 0x28
 1543 000d 14010000 		.4byte	.LASF162
 1544 0011 1D       		.byte	0x1d
 1545 0012 3F030000 		.4byte	.LASF163
 1546 0016 0A080000 		.4byte	.LASF164
 1547 001a 0C000000 		.4byte	.LLRL0
 1548 001e 00000000 		.4byte	0
 1549 0022 00000000 		.4byte	.Ldebug_line0
 1550 0026 29       		.uleb128 0x29
 1551 0027 04       		.byte	0x4
 1552 0028 05       		.byte	0x5
 1553 0029 696E7400 		.ascii	"int\000"
 1554 002d 07       		.uleb128 0x7
 1555 002e 04       		.byte	0x4
 1556 002f 07       		.byte	0x7
 1557 0030 D8020000 		.4byte	.LASF0
 1558 0034 07       		.uleb128 0x7
 1559 0035 08       		.byte	0x8
 1560 0036 05       		.byte	0x5
 1561 0037 E5010000 		.4byte	.LASF1
 1562 003b 07       		.uleb128 0x7
 1563 003c 08       		.byte	0x8
 1564 003d 04       		.byte	0x4
 1565 003e 6A060000 		.4byte	.LASF2
 1566 0042 07       		.uleb128 0x7
 1567 0043 01       		.byte	0x1
 1568 0044 06       		.byte	0x6
 1569 0045 C7000000 		.4byte	.LASF3
 1570 0049 01       		.uleb128 0x1
 1571 004a 27000000 		.4byte	.LASF6
 1572 004e 07       		.byte	0x7
 1573 004f 2B       		.byte	0x2b
 1574 0050 18       		.byte	0x18
 1575 0051 55000000 		.4byte	0x55
 1576 0055 07       		.uleb128 0x7
 1577 0056 01       		.byte	0x1
 1578 0057 08       		.byte	0x8
 1579 0058 7C050000 		.4byte	.LASF4
 1580 005c 07       		.uleb128 0x7
 1581 005d 02       		.byte	0x2
 1582 005e 05       		.byte	0x5
 1583 005f 10040000 		.4byte	.LASF5
 1584 0063 01       		.uleb128 0x1
 1585 0064 89060000 		.4byte	.LASF7
 1586 0068 07       		.byte	0x7
 1587 0069 39       		.byte	0x39
 1588 006a 19       		.byte	0x19
 1589 006b 6F000000 		.4byte	0x6f
 1590 006f 07       		.uleb128 0x7
 1591 0070 02       		.byte	0x2
 1592 0071 07       		.byte	0x7
 1593 0072 7B030000 		.4byte	.LASF8
 1594 0076 01       		.uleb128 0x1
 1595 0077 1A040000 		.4byte	.LASF9
 1596 007b 07       		.byte	0x7
ARM GAS  C:\Users\DEVELO~1\AppData\Local\Temp\cc6J7fdl.s 			page 29


 1597 007c 4D       		.byte	0x4d
 1598 007d 18       		.byte	0x18
 1599 007e 82000000 		.4byte	0x82
 1600 0082 07       		.uleb128 0x7
 1601 0083 04       		.byte	0x4
 1602 0084 05       		.byte	0x5
 1603 0085 A5010000 		.4byte	.LASF10
 1604 0089 01       		.uleb128 0x1
 1605 008a 52020000 		.4byte	.LASF11
 1606 008e 07       		.byte	0x7
 1607 008f 4F       		.byte	0x4f
 1608 0090 19       		.byte	0x19
 1609 0091 95000000 		.4byte	0x95
 1610 0095 07       		.uleb128 0x7
 1611 0096 04       		.byte	0x4
 1612 0097 07       		.byte	0x7
 1613 0098 0B030000 		.4byte	.LASF12
 1614 009c 01       		.uleb128 0x1
 1615 009d 26050000 		.4byte	.LASF13
 1616 00a1 07       		.byte	0x7
 1617 00a2 69       		.byte	0x69
 1618 00a3 19       		.byte	0x19
 1619 00a4 A8000000 		.4byte	0xa8
 1620 00a8 07       		.uleb128 0x7
 1621 00a9 08       		.byte	0x8
 1622 00aa 07       		.byte	0x7
 1623 00ab F5000000 		.4byte	.LASF14
 1624 00af 01       		.uleb128 0x1
 1625 00b0 71070000 		.4byte	.LASF15
 1626 00b4 08       		.byte	0x8
 1627 00b5 18       		.byte	0x18
 1628 00b6 13       		.byte	0x13
 1629 00b7 49000000 		.4byte	0x49
 1630 00bb 01       		.uleb128 0x1
 1631 00bc 01020000 		.4byte	.LASF16
 1632 00c0 08       		.byte	0x8
 1633 00c1 24       		.byte	0x24
 1634 00c2 14       		.byte	0x14
 1635 00c3 63000000 		.4byte	0x63
 1636 00c7 01       		.uleb128 0x1
 1637 00c8 74050000 		.4byte	.LASF17
 1638 00cc 08       		.byte	0x8
 1639 00cd 2C       		.byte	0x2c
 1640 00ce 13       		.byte	0x13
 1641 00cf 76000000 		.4byte	0x76
 1642 00d3 01       		.uleb128 0x1
 1643 00d4 44060000 		.4byte	.LASF18
 1644 00d8 08       		.byte	0x8
 1645 00d9 30       		.byte	0x30
 1646 00da 14       		.byte	0x14
 1647 00db 89000000 		.4byte	0x89
 1648 00df 01       		.uleb128 0x1
 1649 00e0 DB040000 		.4byte	.LASF19
 1650 00e4 08       		.byte	0x8
 1651 00e5 3C       		.byte	0x3c
 1652 00e6 14       		.byte	0x14
 1653 00e7 9C000000 		.4byte	0x9c
ARM GAS  C:\Users\DEVELO~1\AppData\Local\Temp\cc6J7fdl.s 			page 30


 1654 00eb 22       		.uleb128 0x22
 1655 00ec DF000000 		.4byte	0xdf
 1656 00f0 01       		.uleb128 0x1
 1657 00f1 54060000 		.4byte	.LASF20
 1658 00f5 09       		.byte	0x9
 1659 00f6 48       		.byte	0x48
 1660 00f7 1D       		.byte	0x1d
 1661 00f8 DF000000 		.4byte	0xdf
 1662 00fc 01       		.uleb128 0x1
 1663 00fd 3A040000 		.4byte	.LASF21
 1664 0101 0A       		.byte	0xa
 1665 0102 50       		.byte	0x50
 1666 0103 19       		.byte	0x19
 1667 0104 F0000000 		.4byte	0xf0
 1668 0108 01       		.uleb128 0x1
 1669 0109 E6030000 		.4byte	.LASF22
 1670 010d 0A       		.byte	0xa
 1671 010e 53       		.byte	0x53
 1672 010f 19       		.byte	0x19
 1673 0110 AF000000 		.4byte	0xaf
 1674 0114 01       		.uleb128 0x1
 1675 0115 45040000 		.4byte	.LASF23
 1676 0119 0A       		.byte	0xa
 1677 011a 54       		.byte	0x54
 1678 011b 19       		.byte	0x19
 1679 011c AF000000 		.4byte	0xaf
 1680 0120 01       		.uleb128 0x1
 1681 0121 44050000 		.4byte	.LASF24
 1682 0125 0A       		.byte	0xa
 1683 0126 55       		.byte	0x55
 1684 0127 19       		.byte	0x19
 1685 0128 AF000000 		.4byte	0xaf
 1686 012c 01       		.uleb128 0x1
 1687 012d 56050000 		.4byte	.LASF25
 1688 0131 0A       		.byte	0xa
 1689 0132 57       		.byte	0x57
 1690 0133 19       		.byte	0x19
 1691 0134 D3000000 		.4byte	0xd3
 1692 0138 01       		.uleb128 0x1
 1693 0139 AC030000 		.4byte	.LASF26
 1694 013d 0A       		.byte	0xa
 1695 013e 58       		.byte	0x58
 1696 013f 19       		.byte	0x19
 1697 0140 C7000000 		.4byte	0xc7
 1698 0144 01       		.uleb128 0x1
 1699 0145 7E020000 		.4byte	.LASF27
 1700 0149 0A       		.byte	0xa
 1701 014a 59       		.byte	0x59
 1702 014b 19       		.byte	0x19
 1703 014c C7000000 		.4byte	0xc7
 1704 0150 01       		.uleb128 0x1
 1705 0151 04040000 		.4byte	.LASF28
 1706 0155 0A       		.byte	0xa
 1707 0156 5A       		.byte	0x5a
 1708 0157 19       		.byte	0x19
 1709 0158 D3000000 		.4byte	0xd3
 1710 015c 01       		.uleb128 0x1
ARM GAS  C:\Users\DEVELO~1\AppData\Local\Temp\cc6J7fdl.s 			page 31


 1711 015d 9F030000 		.4byte	.LASF29
 1712 0161 0A       		.byte	0xa
 1713 0162 5B       		.byte	0x5b
 1714 0163 19       		.byte	0x19
 1715 0164 D3000000 		.4byte	0xd3
 1716 0168 01       		.uleb128 0x1
 1717 0169 C9020000 		.4byte	.LASF30
 1718 016d 0A       		.byte	0xa
 1719 016e 5C       		.byte	0x5c
 1720 016f 19       		.byte	0x19
 1721 0170 C7000000 		.4byte	0xc7
 1722 0174 01       		.uleb128 0x1
 1723 0175 3A050000 		.4byte	.LASF31
 1724 0179 0A       		.byte	0xa
 1725 017a 80       		.byte	0x80
 1726 017b 12       		.byte	0x12
 1727 017c 2D000000 		.4byte	0x2d
 1728 0180 01       		.uleb128 0x1
 1729 0181 A0060000 		.4byte	.LASF32
 1730 0185 0A       		.byte	0xa
 1731 0186 85       		.byte	0x85
 1732 0187 1A       		.byte	0x1a
 1733 0188 8C010000 		.4byte	0x18c
 1734 018c 06       		.uleb128 0x6
 1735 018d 8E030000 		.4byte	.LASF47
 1736 0191 48       		.byte	0x48
 1737 0192 0B       		.byte	0xb
 1738 0193 9C       		.byte	0x9c
 1739 0194 08       		.byte	0x8
 1740 0195 69020000 		.4byte	0x269
 1741 0199 0A       		.uleb128 0xa
 1742 019a 68647200 		.ascii	"hdr\000"
 1743 019e 0B       		.byte	0xb
 1744 019f AD       		.byte	0xad
 1745 01a0 05       		.byte	0x5
 1746 01a1 19070000 		.4byte	0x719
 1747 01a5 00       		.byte	0
 1748 01a6 0A       		.uleb128 0xa
 1749 01a7 63747800 		.ascii	"ctx\000"
 1750 01ab 0B       		.byte	0xb
 1751 01ac B1       		.byte	0xb1
 1752 01ad 21       		.byte	0x21
 1753 01ae 84060000 		.4byte	0x684
 1754 01b2 0C       		.byte	0xc
 1755 01b3 02       		.uleb128 0x2
 1756 01b4 9C070000 		.4byte	.LASF33
 1757 01b8 0B       		.byte	0xb
 1758 01b9 B6       		.byte	0xb6
 1759 01ba 21       		.byte	0x21
 1760 01bb AF030000 		.4byte	0x3af
 1761 01bf 10       		.byte	0x10
 1762 01c0 02       		.uleb128 0x2
 1763 01c1 64060000 		.4byte	.LASF34
 1764 01c5 0B       		.byte	0xb
 1765 01c6 BB       		.byte	0xbb
 1766 01c7 22       		.byte	0x22
 1767 01c8 1B080000 		.4byte	0x81b
ARM GAS  C:\Users\DEVELO~1\AppData\Local\Temp\cc6J7fdl.s 			page 32


 1768 01cc 18       		.byte	0x18
 1769 01cd 02       		.uleb128 0x2
 1770 01ce 65030000 		.4byte	.LASF35
 1771 01d2 0B       		.byte	0xb
 1772 01d3 C0       		.byte	0xc0
 1773 01d4 22       		.byte	0x22
 1774 01d5 49030000 		.4byte	0x349
 1775 01d9 1C       		.byte	0x1c
 1776 01da 02       		.uleb128 0x2
 1777 01db 76060000 		.4byte	.LASF36
 1778 01df 0B       		.byte	0xb
 1779 01e0 C9       		.byte	0xc9
 1780 01e1 22       		.byte	0x22
 1781 01e2 20080000 		.4byte	0x820
 1782 01e6 20       		.byte	0x20
 1783 01e7 02       		.uleb128 0x2
 1784 01e8 9F010000 		.4byte	.LASF37
 1785 01ec 0B       		.byte	0xb
 1786 01ed CE       		.byte	0xce
 1787 01ee 21       		.byte	0x21
 1788 01ef 14010000 		.4byte	0x114
 1789 01f3 24       		.byte	0x24
 1790 01f4 02       		.uleb128 0x2
 1791 01f5 79070000 		.4byte	.LASF38
 1792 01f9 0B       		.byte	0xb
 1793 01fa D2       		.byte	0xd2
 1794 01fb 21       		.byte	0x21
 1795 01fc 08010000 		.4byte	0x108
 1796 0200 25       		.byte	0x25
 1797 0201 02       		.uleb128 0x2
 1798 0202 4C050000 		.4byte	.LASF39
 1799 0206 0B       		.byte	0xb
 1800 0207 D7       		.byte	0xd7
 1801 0208 21       		.byte	0x21
 1802 0209 20010000 		.4byte	0x120
 1803 020d 26       		.byte	0x26
 1804 020e 08       		.uleb128 0x8
 1805 020f 7500     		.ascii	"u\000"
 1806 0211 0B       		.byte	0xb
 1807 0212 2801     		.2byte	0x128
 1808 0214 21       		.byte	0x21
 1809 0215 46070000 		.4byte	0x746
 1810 0219 28       		.byte	0x28
 1811 021a 03       		.uleb128 0x3
 1812 021b 76020000 		.4byte	.LASF40
 1813 021f 2D01     		.2byte	0x12d
 1814 0221 21       		.byte	0x21
 1815 0222 83030000 		.4byte	0x383
 1816 0226 2C       		.byte	0x2c
 1817 0227 03       		.uleb128 0x3
 1818 0228 CF020000 		.4byte	.LASF41
 1819 022c 3301     		.2byte	0x133
 1820 022e 21       		.byte	0x21
 1821 022f AF030000 		.4byte	0x3af
 1822 0233 30       		.byte	0x30
 1823 0234 03       		.uleb128 0x3
 1824 0235 B2030000 		.4byte	.LASF42
ARM GAS  C:\Users\DEVELO~1\AppData\Local\Temp\cc6J7fdl.s 			page 33


 1825 0239 3901     		.2byte	0x139
 1826 023b 21       		.byte	0x21
 1827 023c 50010000 		.4byte	0x150
 1828 0240 38       		.byte	0x38
 1829 0241 03       		.uleb128 0x3
 1830 0242 02080000 		.4byte	.LASF43
 1831 0246 4001     		.2byte	0x140
 1832 0248 22       		.byte	0x22
 1833 0249 16080000 		.4byte	0x816
 1834 024d 3C       		.byte	0x3c
 1835 024e 03       		.uleb128 0x3
 1836 024f 71040000 		.4byte	.LASF44
 1837 0253 4401     		.2byte	0x144
 1838 0255 21       		.byte	0x21
 1839 0256 2C010000 		.4byte	0x12c
 1840 025a 40       		.byte	0x40
 1841 025b 03       		.uleb128 0x3
 1842 025c 70030000 		.4byte	.LASF45
 1843 0260 4B01     		.2byte	0x14b
 1844 0262 22       		.byte	0x22
 1845 0263 9C040000 		.4byte	0x49c
 1846 0267 44       		.byte	0x44
 1847 0268 00       		.byte	0
 1848 0269 01       		.uleb128 0x1
 1849 026a F4060000 		.4byte	.LASF46
 1850 026e 0A       		.byte	0xa
 1851 026f 8A       		.byte	0x8a
 1852 0270 1F       		.byte	0x1f
 1853 0271 75020000 		.4byte	0x275
 1854 0275 2A       		.uleb128 0x2a
 1855 0276 E5060000 		.4byte	.LASF48
 1856 027a 9008     		.2byte	0x890
 1857 027c 0B       		.byte	0xb
 1858 027d 8A01     		.2byte	0x18a
 1859 027f 08       		.byte	0x8
 1860 0280 FB020000 		.4byte	0x2fb
 1861 0284 03       		.uleb128 0x3
 1862 0285 50070000 		.4byte	.LASF49
 1863 0289 8E01     		.2byte	0x18e
 1864 028b 21       		.byte	0x21
 1865 028c 4E080000 		.4byte	0x84e
 1866 0290 00       		.byte	0
 1867 0291 03       		.uleb128 0x3
 1868 0292 42000000 		.4byte	.LASF50
 1869 0296 9201     		.2byte	0x192
 1870 0298 21       		.byte	0x21
 1871 0299 DA060000 		.4byte	0x6da
 1872 029d 10       		.byte	0x10
 1873 029e 03       		.uleb128 0x3
 1874 029f 02070000 		.4byte	.LASF51
 1875 02a3 9901     		.2byte	0x199
 1876 02a5 21       		.byte	0x21
 1877 02a6 01070000 		.4byte	0x701
 1878 02aa 28       		.byte	0x28
 1879 02ab 03       		.uleb128 0x3
 1880 02ac 00000000 		.4byte	.LASF52
 1881 02b0 9E01     		.2byte	0x19e
ARM GAS  C:\Users\DEVELO~1\AppData\Local\Temp\cc6J7fdl.s 			page 34


 1882 02b2 21       		.byte	0x21
 1883 02b3 74010000 		.4byte	0x174
 1884 02b7 30       		.byte	0x30
 1885 02b8 03       		.uleb128 0x3
 1886 02b9 22000000 		.4byte	.LASF53
 1887 02bd A401     		.2byte	0x1a4
 1888 02bf 21       		.byte	0x21
 1889 02c0 22030000 		.4byte	0x322
 1890 02c4 34       		.byte	0x34
 1891 02c5 03       		.uleb128 0x3
 1892 02c6 82060000 		.4byte	.LASF54
 1893 02ca A901     		.2byte	0x1a9
 1894 02cc 22       		.byte	0x22
 1895 02cd B9080000 		.4byte	0x8b9
 1896 02d1 38       		.byte	0x38
 1897 02d2 03       		.uleb128 0x3
 1898 02d3 85000000 		.4byte	.LASF55
 1899 02d7 AD01     		.2byte	0x1ad
 1900 02d9 21       		.byte	0x21
 1901 02da 80010000 		.4byte	0x180
 1902 02de 3C       		.byte	0x3c
 1903 02df 08       		.uleb128 0x8
 1904 02e0 64626700 		.ascii	"dbg\000"
 1905 02e4 0B       		.byte	0xb
 1906 02e5 B101     		.2byte	0x1b1
 1907 02e7 21       		.byte	0x21
 1908 02e8 5F030000 		.4byte	0x35f
 1909 02ec 84       		.byte	0x84
 1910 02ed 03       		.uleb128 0x3
 1911 02ee AE010000 		.4byte	.LASF56
 1912 02f2 B601     		.2byte	0x1b6
 1913 02f4 21       		.byte	0x21
 1914 02f5 F2050000 		.4byte	0x5f2
 1915 02f9 88       		.byte	0x88
 1916 02fa 00       		.byte	0
 1917 02fb 01       		.uleb128 0x1
 1918 02fc 7A040000 		.4byte	.LASF57
 1919 0300 0C       		.byte	0xc
 1920 0301 3F       		.byte	0x3f
 1921 0302 12       		.byte	0x12
 1922 0303 D3000000 		.4byte	0xd3
 1923 0307 06       		.uleb128 0x6
 1924 0308 BB010000 		.4byte	.LASF58
 1925 030c 04       		.byte	0x4
 1926 030d 0C       		.byte	0xc
 1927 030e 44       		.byte	0x44
 1928 030f 10       		.byte	0x10
 1929 0310 22030000 		.4byte	0x322
 1930 0314 02       		.uleb128 0x2
 1931 0315 5D020000 		.4byte	.LASF59
 1932 0319 0C       		.byte	0xc
 1933 031a 48       		.byte	0x48
 1934 031b 21       		.byte	0x21
 1935 031c FB020000 		.4byte	0x2fb
 1936 0320 00       		.byte	0
 1937 0321 00       		.byte	0
 1938 0322 01       		.uleb128 0x1
ARM GAS  C:\Users\DEVELO~1\AppData\Local\Temp\cc6J7fdl.s 			page 35


 1939 0323 B3050000 		.4byte	.LASF60
 1940 0327 0C       		.byte	0xc
 1941 0328 49       		.byte	0x49
 1942 0329 03       		.byte	0x3
 1943 032a 07030000 		.4byte	0x307
 1944 032e 06       		.uleb128 0x6
 1945 032f 5E050000 		.4byte	.LASF61
 1946 0333 04       		.byte	0x4
 1947 0334 0D       		.byte	0xd
 1948 0335 3E       		.byte	0x3e
 1949 0336 10       		.byte	0x10
 1950 0337 49030000 		.4byte	0x349
 1951 033b 02       		.uleb128 0x2
 1952 033c D4060000 		.4byte	.LASF62
 1953 0340 0D       		.byte	0xd
 1954 0341 46       		.byte	0x46
 1955 0342 24       		.byte	0x24
 1956 0343 4E030000 		.4byte	0x34e
 1957 0347 00       		.byte	0
 1958 0348 00       		.byte	0
 1959 0349 04       		.uleb128 0x4
 1960 034a 5A030000 		.4byte	0x35a
 1961 034e 22       		.uleb128 0x22
 1962 034f 49030000 		.4byte	0x349
 1963 0353 07       		.uleb128 0x7
 1964 0354 01       		.byte	0x1
 1965 0355 08       		.byte	0x8
 1966 0356 7D060000 		.4byte	.LASF63
 1967 035a 09       		.uleb128 0x9
 1968 035b 53030000 		.4byte	0x353
 1969 035f 01       		.uleb128 0x1
 1970 0360 FC020000 		.4byte	.LASF64
 1971 0364 0D       		.byte	0xd
 1972 0365 51       		.byte	0x51
 1973 0366 03       		.byte	0x3
 1974 0367 2E030000 		.4byte	0x32e
 1975 036b 01       		.uleb128 0x1
 1976 036c AF060000 		.4byte	.LASF65
 1977 0370 0E       		.byte	0xe
 1978 0371 6D       		.byte	0x6d
 1979 0372 12       		.byte	0x12
 1980 0373 D3000000 		.4byte	0xd3
 1981 0377 01       		.uleb128 0x1
 1982 0378 AF020000 		.4byte	.LASF66
 1983 037c 0E       		.byte	0xe
 1984 037d 79       		.byte	0x79
 1985 037e 12       		.byte	0x12
 1986 037f D3000000 		.4byte	0xd3
 1987 0383 01       		.uleb128 0x1
 1988 0384 C7040000 		.4byte	.LASF67
 1989 0388 0F       		.byte	0xf
 1990 0389 32       		.byte	0x32
 1991 038a 18       		.byte	0x18
 1992 038b 8F030000 		.4byte	0x38f
 1993 038f 06       		.uleb128 0x6
 1994 0390 EE030000 		.4byte	.LASF68
 1995 0394 04       		.byte	0x4
ARM GAS  C:\Users\DEVELO~1\AppData\Local\Temp\cc6J7fdl.s 			page 36


 1996 0395 0F       		.byte	0xf
 1997 0396 38       		.byte	0x38
 1998 0397 08       		.byte	0x8
 1999 0398 AA030000 		.4byte	0x3aa
 2000 039c 02       		.uleb128 0x2
 2001 039d 9E000000 		.4byte	.LASF69
 2002 03a1 0F       		.byte	0xf
 2003 03a2 39       		.byte	0x39
 2004 03a3 1A       		.byte	0x1a
 2005 03a4 AA030000 		.4byte	0x3aa
 2006 03a8 00       		.byte	0
 2007 03a9 00       		.byte	0
 2008 03aa 04       		.uleb128 0x4
 2009 03ab 83030000 		.4byte	0x383
 2010 03af 01       		.uleb128 0x1
 2011 03b0 34030000 		.4byte	.LASF70
 2012 03b4 0F       		.byte	0xf
 2013 03b5 3F       		.byte	0x3f
 2014 03b6 19       		.byte	0x19
 2015 03b7 BB030000 		.4byte	0x3bb
 2016 03bb 06       		.uleb128 0x6
 2017 03bc DC010000 		.4byte	.LASF71
 2018 03c0 08       		.byte	0x8
 2019 03c1 0F       		.byte	0xf
 2020 03c2 45       		.byte	0x45
 2021 03c3 08       		.byte	0x8
 2022 03c4 E3030000 		.4byte	0x3e3
 2023 03c8 02       		.uleb128 0x2
 2024 03c9 9E000000 		.4byte	.LASF69
 2025 03cd 0F       		.byte	0xf
 2026 03ce 46       		.byte	0x46
 2027 03cf 1A       		.byte	0x1a
 2028 03d0 E3030000 		.4byte	0x3e3
 2029 03d4 00       		.byte	0
 2030 03d5 02       		.uleb128 0x2
 2031 03d6 31000000 		.4byte	.LASF72
 2032 03da 0F       		.byte	0xf
 2033 03db 47       		.byte	0x47
 2034 03dc 1A       		.byte	0x1a
 2035 03dd E3030000 		.4byte	0x3e3
 2036 03e1 04       		.byte	0x4
 2037 03e2 00       		.byte	0
 2038 03e3 04       		.uleb128 0x4
 2039 03e4 AF030000 		.4byte	0x3af
 2040 03e8 01       		.uleb128 0x1
 2041 03e9 C0060000 		.4byte	.LASF73
 2042 03ed 0F       		.byte	0xf
 2043 03ee 4E       		.byte	0x4e
 2044 03ef 22       		.byte	0x22
 2045 03f0 F4030000 		.4byte	0x3f4
 2046 03f4 06       		.uleb128 0x6
 2047 03f5 0A070000 		.4byte	.LASF74
 2048 03f9 0C       		.byte	0xc
 2049 03fa 0F       		.byte	0xf
 2050 03fb 55       		.byte	0x55
 2051 03fc 08       		.byte	0x8
 2052 03fd 29040000 		.4byte	0x429
ARM GAS  C:\Users\DEVELO~1\AppData\Local\Temp\cc6J7fdl.s 			page 37


 2053 0401 02       		.uleb128 0x2
 2054 0402 9E000000 		.4byte	.LASF69
 2055 0406 0F       		.byte	0xf
 2056 0407 56       		.byte	0x56
 2057 0408 1A       		.byte	0x1a
 2058 0409 29040000 		.4byte	0x429
 2059 040d 00       		.byte	0
 2060 040e 02       		.uleb128 0x2
 2061 040f 31000000 		.4byte	.LASF72
 2062 0413 0F       		.byte	0xf
 2063 0414 57       		.byte	0x57
 2064 0415 1A       		.byte	0x1a
 2065 0416 29040000 		.4byte	0x429
 2066 041a 04       		.byte	0x4
 2067 041b 02       		.uleb128 0x2
 2068 041c 19050000 		.4byte	.LASF75
 2069 0420 0F       		.byte	0xf
 2070 0421 58       		.byte	0x58
 2071 0422 19       		.byte	0x19
 2072 0423 2C010000 		.4byte	0x12c
 2073 0427 08       		.byte	0x8
 2074 0428 00       		.byte	0
 2075 0429 04       		.uleb128 0x4
 2076 042a E8030000 		.4byte	0x3e8
 2077 042e 01       		.uleb128 0x1
 2078 042f 1C070000 		.4byte	.LASF76
 2079 0433 0F       		.byte	0xf
 2080 0434 5F       		.byte	0x5f
 2081 0435 1E       		.byte	0x1e
 2082 0436 3A040000 		.4byte	0x43a
 2083 043a 06       		.uleb128 0x6
 2084 043b E7000000 		.4byte	.LASF77
 2085 043f 0C       		.byte	0xc
 2086 0440 0F       		.byte	0xf
 2087 0441 64       		.byte	0x64
 2088 0442 08       		.byte	0x8
 2089 0443 6F040000 		.4byte	0x46f
 2090 0447 02       		.uleb128 0x2
 2091 0448 9E000000 		.4byte	.LASF69
 2092 044c 0F       		.byte	0xf
 2093 044d 65       		.byte	0x65
 2094 044e 1A       		.byte	0x1a
 2095 044f 6F040000 		.4byte	0x46f
 2096 0453 00       		.byte	0
 2097 0454 02       		.uleb128 0x2
 2098 0455 31000000 		.4byte	.LASF72
 2099 0459 0F       		.byte	0xf
 2100 045a 66       		.byte	0x66
 2101 045b 1A       		.byte	0x1a
 2102 045c 6F040000 		.4byte	0x46f
 2103 0460 04       		.byte	0x4
 2104 0461 02       		.uleb128 0x2
 2105 0462 98000000 		.4byte	.LASF78
 2106 0466 0F       		.byte	0xf
 2107 0467 67       		.byte	0x67
 2108 0468 19       		.byte	0x19
 2109 0469 77030000 		.4byte	0x377
ARM GAS  C:\Users\DEVELO~1\AppData\Local\Temp\cc6J7fdl.s 			page 38


 2110 046d 08       		.byte	0x8
 2111 046e 00       		.byte	0
 2112 046f 04       		.uleb128 0x4
 2113 0470 2E040000 		.4byte	0x42e
 2114 0474 13       		.uleb128 0x13
 2115 0475 08       		.byte	0x8
 2116 0476 83       		.byte	0x83
 2117 0477 05       		.byte	0x5
 2118 0478 97040000 		.4byte	0x497
 2119 047c 0A       		.uleb128 0xa
 2120 047d 6E747000 		.ascii	"ntp\000"
 2121 0481 10       		.byte	0x10
 2122 0482 87       		.byte	0x87
 2123 0483 1E       		.byte	0x1e
 2124 0484 97040000 		.4byte	0x497
 2125 0488 00       		.byte	0
 2126 0489 02       		.uleb128 0x2
 2127 048a EF050000 		.4byte	.LASF79
 2128 048e 10       		.byte	0x10
 2129 048f 8B       		.byte	0x8b
 2130 0490 1E       		.byte	0x1e
 2131 0491 9C040000 		.4byte	0x49c
 2132 0495 04       		.byte	0x4
 2133 0496 00       		.byte	0
 2134 0497 04       		.uleb128 0x4
 2135 0498 80010000 		.4byte	0x180
 2136 049c 2B       		.uleb128 0x2b
 2137 049d 04       		.byte	0x4
 2138 049e 13       		.uleb128 0x13
 2139 049f 08       		.byte	0x8
 2140 04a0 90       		.byte	0x90
 2141 04a1 05       		.byte	0x5
 2142 04a2 C0040000 		.4byte	0x4c0
 2143 04a6 0A       		.uleb128 0xa
 2144 04a7 747000   		.ascii	"tp\000"
 2145 04aa 10       		.byte	0x10
 2146 04ab 94       		.byte	0x94
 2147 04ac 1E       		.byte	0x1e
 2148 04ad 97040000 		.4byte	0x497
 2149 04b1 00       		.byte	0
 2150 04b2 0A       		.uleb128 0xa
 2151 04b3 6D736700 		.ascii	"msg\000"
 2152 04b7 10       		.byte	0x10
 2153 04b8 98       		.byte	0x98
 2154 04b9 1D       		.byte	0x1d
 2155 04ba 38010000 		.4byte	0x138
 2156 04be 04       		.byte	0x4
 2157 04bf 00       		.byte	0
 2158 04c0 13       		.uleb128 0x13
 2159 04c1 04       		.byte	0x4
 2160 04c2 9D       		.byte	0x9d
 2161 04c3 05       		.byte	0x5
 2162 04c4 D6040000 		.4byte	0x4d6
 2163 04c8 02       		.uleb128 0x2
 2164 04c9 65030000 		.4byte	.LASF35
 2165 04cd 10       		.byte	0x10
 2166 04ce A1       		.byte	0xa1
ARM GAS  C:\Users\DEVELO~1\AppData\Local\Temp\cc6J7fdl.s 			page 39


 2167 04cf 1E       		.byte	0x1e
 2168 04d0 49030000 		.4byte	0x349
 2169 04d4 00       		.byte	0
 2170 04d5 00       		.byte	0
 2171 04d6 13       		.uleb128 0x13
 2172 04d7 04       		.byte	0x4
 2173 04d8 A6       		.byte	0xa6
 2174 04d9 05       		.byte	0x5
 2175 04da EC040000 		.4byte	0x4ec
 2176 04de 02       		.uleb128 0x2
 2177 04df 10060000 		.4byte	.LASF80
 2178 04e3 10       		.byte	0x10
 2179 04e4 AA       		.byte	0xaa
 2180 04e5 1E       		.byte	0x1e
 2181 04e6 49030000 		.4byte	0x349
 2182 04ea 00       		.byte	0
 2183 04eb 00       		.byte	0
 2184 04ec 13       		.uleb128 0x13
 2185 04ed 08       		.byte	0x8
 2186 04ee AF       		.byte	0xaf
 2187 04ef 05       		.byte	0x5
 2188 04f0 0F050000 		.4byte	0x50f
 2189 04f4 0A       		.uleb128 0xa
 2190 04f5 75703100 		.ascii	"up1\000"
 2191 04f9 10       		.byte	0x10
 2192 04fa B3       		.byte	0xb3
 2193 04fb 1E       		.byte	0x1e
 2194 04fc 9C040000 		.4byte	0x49c
 2195 0500 00       		.byte	0
 2196 0501 0A       		.uleb128 0xa
 2197 0502 75703200 		.ascii	"up2\000"
 2198 0506 10       		.byte	0x10
 2199 0507 B7       		.byte	0xb7
 2200 0508 1E       		.byte	0x1e
 2201 0509 9C040000 		.4byte	0x49c
 2202 050d 04       		.byte	0x4
 2203 050e 00       		.byte	0
 2204 050f 1C       		.uleb128 0x1c
 2205 0510 08       		.byte	0x8
 2206 0511 10       		.byte	0x10
 2207 0512 7F       		.byte	0x7f
 2208 0513 4D050000 		.4byte	0x54d
 2209 0517 1D       		.uleb128 0x1d
 2210 0518 737700   		.ascii	"sw\000"
 2211 051b 8C       		.byte	0x8c
 2212 051c 74040000 		.4byte	0x474
 2213 0520 1D       		.uleb128 0x1d
 2214 0521 72647900 		.ascii	"rdy\000"
 2215 0525 99       		.byte	0x99
 2216 0526 9E040000 		.4byte	0x49e
 2217 052a 1D       		.uleb128 0x1d
 2218 052b 69737200 		.ascii	"isr\000"
 2219 052f A2       		.byte	0xa2
 2220 0530 C0040000 		.4byte	0x4c0
 2221 0534 0E       		.uleb128 0xe
 2222 0535 68000000 		.4byte	.LASF81
 2223 0539 10       		.byte	0x10
ARM GAS  C:\Users\DEVELO~1\AppData\Local\Temp\cc6J7fdl.s 			page 40


 2224 053a AB       		.byte	0xab
 2225 053b 07       		.byte	0x7
 2226 053c D6040000 		.4byte	0x4d6
 2227 0540 0E       		.uleb128 0xe
 2228 0541 51050000 		.4byte	.LASF82
 2229 0545 10       		.byte	0x10
 2230 0546 B8       		.byte	0xb8
 2231 0547 07       		.byte	0x7
 2232 0548 EC040000 		.4byte	0x4ec
 2233 054c 00       		.byte	0
 2234 054d 13       		.uleb128 0x13
 2235 054e 10       		.byte	0x10
 2236 054f 6C       		.byte	0x6c
 2237 0550 09       		.byte	0x9
 2238 0551 92050000 		.4byte	0x592
 2239 0555 1E       		.uleb128 0x1e
 2240 0556 55000000 		.4byte	.LASF83
 2241 055a 70       		.byte	0x70
 2242 055b D3000000 		.4byte	0xd3
 2243 055f 03       		.byte	0x3
 2244 0560 00       		.byte	0
 2245 0561 1E       		.uleb128 0x1e
 2246 0562 9F010000 		.4byte	.LASF37
 2247 0566 74       		.byte	0x74
 2248 0567 D3000000 		.4byte	0xd3
 2249 056b 05       		.byte	0x5
 2250 056c 03       		.byte	0x3
 2251 056d 1E       		.uleb128 0x1e
 2252 056e 4E040000 		.4byte	.LASF84
 2253 0572 7A       		.byte	0x7a
 2254 0573 D3000000 		.4byte	0xd3
 2255 0577 18       		.byte	0x18
 2256 0578 08       		.byte	0x8
 2257 0579 02       		.uleb128 0x2
 2258 057a 07050000 		.4byte	.LASF85
 2259 057e 10       		.byte	0x10
 2260 057f 7E       		.byte	0x7e
 2261 0580 19       		.byte	0x19
 2262 0581 6B030000 		.4byte	0x36b
 2263 0585 04       		.byte	0x4
 2264 0586 0A       		.uleb128 0xa
 2265 0587 7500     		.ascii	"u\000"
 2266 0589 10       		.byte	0x10
 2267 058a B9       		.byte	0xb9
 2268 058b 05       		.byte	0x5
 2269 058c 0F050000 		.4byte	0x50f
 2270 0590 08       		.byte	0x8
 2271 0591 00       		.byte	0
 2272 0592 01       		.uleb128 0x1
 2273 0593 5A000000 		.4byte	.LASF86
 2274 0597 10       		.byte	0x10
 2275 0598 BA       		.byte	0xba
 2276 0599 03       		.byte	0x3
 2277 059a 4D050000 		.4byte	0x54d
 2278 059e 2C       		.uleb128 0x2c
 2279 059f 0808     		.2byte	0x808
 2280 05a1 10       		.byte	0x10
ARM GAS  C:\Users\DEVELO~1\AppData\Local\Temp\cc6J7fdl.s 			page 41


 2281 05a2 C0       		.byte	0xc0
 2282 05a3 09       		.byte	0x9
 2283 05a4 DD050000 		.4byte	0x5dd
 2284 05a8 02       		.uleb128 0x2
 2285 05a9 D1040000 		.4byte	.LASF87
 2286 05ad 10       		.byte	0x10
 2287 05ae C4       		.byte	0xc4
 2288 05af 19       		.byte	0x19
 2289 05b0 BB000000 		.4byte	0xbb
 2290 05b4 00       		.byte	0
 2291 05b5 02       		.uleb128 0x2
 2292 05b6 76030000 		.4byte	.LASF88
 2293 05ba 10       		.byte	0x10
 2294 05bb C8       		.byte	0xc8
 2295 05bc 19       		.byte	0x19
 2296 05bd BB000000 		.4byte	0xbb
 2297 05c1 02       		.byte	0x2
 2298 05c2 0A       		.uleb128 0xa
 2299 05c3 70747200 		.ascii	"ptr\000"
 2300 05c7 10       		.byte	0x10
 2301 05c8 CC       		.byte	0xcc
 2302 05c9 1A       		.byte	0x1a
 2303 05ca DD050000 		.4byte	0x5dd
 2304 05ce 04       		.byte	0x4
 2305 05cf 02       		.uleb128 0x2
 2306 05d0 B9060000 		.4byte	.LASF89
 2307 05d4 10       		.byte	0x10
 2308 05d5 D0       		.byte	0xd0
 2309 05d6 19       		.byte	0x19
 2310 05d7 E2050000 		.4byte	0x5e2
 2311 05db 08       		.byte	0x8
 2312 05dc 00       		.byte	0
 2313 05dd 04       		.uleb128 0x4
 2314 05de 92050000 		.4byte	0x592
 2315 05e2 0B       		.uleb128 0xb
 2316 05e3 92050000 		.4byte	0x592
 2317 05e7 F2050000 		.4byte	0x5f2
 2318 05eb 0C       		.uleb128 0xc
 2319 05ec 2D000000 		.4byte	0x2d
 2320 05f0 7F       		.byte	0x7f
 2321 05f1 00       		.byte	0
 2322 05f2 01       		.uleb128 0x1
 2323 05f3 0A020000 		.4byte	.LASF90
 2324 05f7 10       		.byte	0x10
 2325 05f8 D1       		.byte	0xd1
 2326 05f9 03       		.byte	0x3
 2327 05fa 9E050000 		.4byte	0x59e
 2328 05fe 19       		.uleb128 0x19
 2329 05ff 36000000 		.4byte	.LASF91
 2330 0603 24       		.byte	0x24
 2331 0604 03       		.byte	0x3
 2332 0605 E001     		.2byte	0x1e0
 2333 0607 08       		.byte	0x8
 2334 0608 84060000 		.4byte	0x684
 2335 060c 08       		.uleb128 0x8
 2336 060d 723400   		.ascii	"r4\000"
 2337 0610 03       		.byte	0x3
ARM GAS  C:\Users\DEVELO~1\AppData\Local\Temp\cc6J7fdl.s 			page 42


 2338 0611 F901     		.2byte	0x1f9
 2339 0613 11       		.byte	0x11
 2340 0614 D3000000 		.4byte	0xd3
 2341 0618 00       		.byte	0
 2342 0619 08       		.uleb128 0x8
 2343 061a 723500   		.ascii	"r5\000"
 2344 061d 03       		.byte	0x3
 2345 061e FA01     		.2byte	0x1fa
 2346 0620 11       		.byte	0x11
 2347 0621 D3000000 		.4byte	0xd3
 2348 0625 04       		.byte	0x4
 2349 0626 08       		.uleb128 0x8
 2350 0627 723600   		.ascii	"r6\000"
 2351 062a 03       		.byte	0x3
 2352 062b FB01     		.2byte	0x1fb
 2353 062d 11       		.byte	0x11
 2354 062e D3000000 		.4byte	0xd3
 2355 0632 08       		.byte	0x8
 2356 0633 08       		.uleb128 0x8
 2357 0634 723700   		.ascii	"r7\000"
 2358 0637 03       		.byte	0x3
 2359 0638 FC01     		.2byte	0x1fc
 2360 063a 11       		.byte	0x11
 2361 063b D3000000 		.4byte	0xd3
 2362 063f 0C       		.byte	0xc
 2363 0640 08       		.uleb128 0x8
 2364 0641 723800   		.ascii	"r8\000"
 2365 0644 03       		.byte	0x3
 2366 0645 FD01     		.2byte	0x1fd
 2367 0647 11       		.byte	0x11
 2368 0648 D3000000 		.4byte	0xd3
 2369 064c 10       		.byte	0x10
 2370 064d 08       		.uleb128 0x8
 2371 064e 723900   		.ascii	"r9\000"
 2372 0651 03       		.byte	0x3
 2373 0652 FE01     		.2byte	0x1fe
 2374 0654 11       		.byte	0x11
 2375 0655 D3000000 		.4byte	0xd3
 2376 0659 14       		.byte	0x14
 2377 065a 08       		.uleb128 0x8
 2378 065b 72313000 		.ascii	"r10\000"
 2379 065f 03       		.byte	0x3
 2380 0660 FF01     		.2byte	0x1ff
 2381 0662 11       		.byte	0x11
 2382 0663 D3000000 		.4byte	0xd3
 2383 0667 18       		.byte	0x18
 2384 0668 08       		.uleb128 0x8
 2385 0669 72313100 		.ascii	"r11\000"
 2386 066d 03       		.byte	0x3
 2387 066e 0002     		.2byte	0x200
 2388 0670 11       		.byte	0x11
 2389 0671 D3000000 		.4byte	0xd3
 2390 0675 1C       		.byte	0x1c
 2391 0676 08       		.uleb128 0x8
 2392 0677 6C7200   		.ascii	"lr\000"
 2393 067a 03       		.byte	0x3
 2394 067b 0102     		.2byte	0x201
ARM GAS  C:\Users\DEVELO~1\AppData\Local\Temp\cc6J7fdl.s 			page 43


 2395 067d 11       		.byte	0x11
 2396 067e D3000000 		.4byte	0xd3
 2397 0682 20       		.byte	0x20
 2398 0683 00       		.byte	0
 2399 0684 19       		.uleb128 0x19
 2400 0685 FA040000 		.4byte	.LASF92
 2401 0689 04       		.byte	0x4
 2402 068a 03       		.byte	0x3
 2403 068b 0A02     		.2byte	0x20a
 2404 068d 08       		.byte	0x8
 2405 068e A0060000 		.4byte	0x6a0
 2406 0692 08       		.uleb128 0x8
 2407 0693 737000   		.ascii	"sp\000"
 2408 0696 03       		.byte	0x3
 2409 0697 0B02     		.2byte	0x20b
 2410 0699 1A       		.byte	0x1a
 2411 069a A0060000 		.4byte	0x6a0
 2412 069e 00       		.byte	0
 2413 069f 00       		.byte	0
 2414 06a0 04       		.uleb128 0x4
 2415 06a1 FE050000 		.4byte	0x5fe
 2416 06a5 06       		.uleb128 0x6
 2417 06a6 A2040000 		.4byte	.LASF93
 2418 06aa 18       		.byte	0x18
 2419 06ab 0B       		.byte	0xb
 2420 06ac 64       		.byte	0x64
 2421 06ad 10       		.byte	0x10
 2422 06ae DA060000 		.4byte	0x6da
 2423 06b2 02       		.uleb128 0x2
 2424 06b3 A9060000 		.4byte	.LASF94
 2425 06b7 0B       		.byte	0xb
 2426 06b8 68       		.byte	0x68
 2427 06b9 21       		.byte	0x21
 2428 06ba 2E040000 		.4byte	0x42e
 2429 06be 00       		.byte	0
 2430 06bf 02       		.uleb128 0x2
 2431 06c0 CF050000 		.4byte	.LASF95
 2432 06c4 0B       		.byte	0xb
 2433 06c5 73       		.byte	0x73
 2434 06c6 21       		.byte	0x21
 2435 06c7 6B030000 		.4byte	0x36b
 2436 06cb 0C       		.byte	0xc
 2437 06cc 02       		.uleb128 0x2
 2438 06cd 56040000 		.4byte	.LASF96
 2439 06d1 0B       		.byte	0xb
 2440 06d2 79       		.byte	0x79
 2441 06d3 21       		.byte	0x21
 2442 06d4 EB000000 		.4byte	0xeb
 2443 06d8 10       		.byte	0x10
 2444 06d9 00       		.byte	0
 2445 06da 01       		.uleb128 0x1
 2446 06db 24040000 		.4byte	.LASF97
 2447 06df 0B       		.byte	0xb
 2448 06e0 7B       		.byte	0x7b
 2449 06e1 03       		.byte	0x3
 2450 06e2 A5060000 		.4byte	0x6a5
 2451 06e6 06       		.uleb128 0x6
ARM GAS  C:\Users\DEVELO~1\AppData\Local\Temp\cc6J7fdl.s 			page 44


 2452 06e7 2E020000 		.4byte	.LASF98
 2453 06eb 08       		.byte	0x8
 2454 06ec 0B       		.byte	0xb
 2455 06ed 80       		.byte	0x80
 2456 06ee 10       		.byte	0x10
 2457 06ef 01070000 		.4byte	0x701
 2458 06f3 02       		.uleb128 0x2
 2459 06f4 6A030000 		.4byte	.LASF99
 2460 06f8 0B       		.byte	0xb
 2461 06f9 84       		.byte	0x84
 2462 06fa 21       		.byte	0x21
 2463 06fb AF030000 		.4byte	0x3af
 2464 06ff 00       		.byte	0
 2465 0700 00       		.byte	0
 2466 0701 01       		.uleb128 0x1
 2467 0702 32060000 		.4byte	.LASF100
 2468 0706 0B       		.byte	0xb
 2469 0707 85       		.byte	0x85
 2470 0708 03       		.byte	0x3
 2471 0709 E6060000 		.4byte	0x6e6
 2472 070d 01       		.uleb128 0x1
 2473 070e 86040000 		.4byte	.LASF101
 2474 0712 0B       		.byte	0xb
 2475 0713 8A       		.byte	0x8a
 2476 0714 14       		.byte	0x14
 2477 0715 97040000 		.4byte	0x497
 2478 0719 1C       		.uleb128 0x1c
 2479 071a 0C       		.byte	0xc
 2480 071b 0B       		.byte	0xb
 2481 071c A0       		.byte	0xa0
 2482 071d 46070000 		.4byte	0x746
 2483 0721 0E       		.uleb128 0xe
 2484 0722 E4070000 		.4byte	.LASF102
 2485 0726 0B       		.byte	0xb
 2486 0727 A4       		.byte	0xa4
 2487 0728 21       		.byte	0x21
 2488 0729 83030000 		.4byte	0x383
 2489 072d 0E       		.uleb128 0xe
 2490 072e 6A030000 		.4byte	.LASF99
 2491 0732 0B       		.byte	0xb
 2492 0733 A8       		.byte	0xa8
 2493 0734 21       		.byte	0x21
 2494 0735 AF030000 		.4byte	0x3af
 2495 0739 0E       		.uleb128 0xe
 2496 073a DE060000 		.4byte	.LASF103
 2497 073e 0B       		.byte	0xb
 2498 073f AC       		.byte	0xac
 2499 0740 21       		.byte	0x21
 2500 0741 E8030000 		.4byte	0x3e8
 2501 0745 00       		.byte	0
 2502 0746 1C       		.uleb128 0x1c
 2503 0747 04       		.byte	0x4
 2504 0748 0B       		.byte	0xb
 2505 0749 EB       		.byte	0xeb
 2506 074a AF070000 		.4byte	0x7af
 2507 074e 0E       		.uleb128 0xe
 2508 074f 1B000000 		.4byte	.LASF104
ARM GAS  C:\Users\DEVELO~1\AppData\Local\Temp\cc6J7fdl.s 			page 45


 2509 0753 0B       		.byte	0xb
 2510 0754 F2       		.byte	0xf2
 2511 0755 21       		.byte	0x21
 2512 0756 38010000 		.4byte	0x138
 2513 075a 0E       		.uleb128 0xe
 2514 075b 7C000000 		.4byte	.LASF105
 2515 075f 0B       		.byte	0xb
 2516 0760 F9       		.byte	0xf9
 2517 0761 21       		.byte	0x21
 2518 0762 38010000 		.4byte	0x138
 2519 0766 14       		.uleb128 0x14
 2520 0767 EF050000 		.4byte	.LASF79
 2521 076b 0001     		.2byte	0x100
 2522 076d 22       		.byte	0x22
 2523 076e 9C040000 		.4byte	0x49c
 2524 0772 14       		.uleb128 0x14
 2525 0773 15000000 		.4byte	.LASF106
 2526 0777 0701     		.2byte	0x107
 2527 0779 22       		.byte	0x22
 2528 077a AF070000 		.4byte	0x7af
 2529 077e 14       		.uleb128 0x14
 2530 077f 90000000 		.4byte	.LASF107
 2531 0783 0C01     		.2byte	0x10c
 2532 0785 21       		.byte	0x21
 2533 0786 38010000 		.4byte	0x138
 2534 078a 14       		.uleb128 0x14
 2535 078b F5020000 		.4byte	.LASF108
 2536 078f 1501     		.2byte	0x115
 2537 0791 22       		.byte	0x22
 2538 0792 DC070000 		.4byte	0x7dc
 2539 0796 14       		.uleb128 0x14
 2540 0797 4D060000 		.4byte	.LASF109
 2541 079b 1E01     		.2byte	0x11e
 2542 079d 22       		.byte	0x22
 2543 079e 16080000 		.4byte	0x816
 2544 07a2 14       		.uleb128 0x14
 2545 07a3 F6050000 		.4byte	.LASF110
 2546 07a7 2601     		.2byte	0x126
 2547 07a9 21       		.byte	0x21
 2548 07aa 50010000 		.4byte	0x150
 2549 07ae 00       		.byte	0
 2550 07af 04       		.uleb128 0x4
 2551 07b0 0D070000 		.4byte	0x70d
 2552 07b4 06       		.uleb128 0x6
 2553 07b5 17060000 		.4byte	.LASF111
 2554 07b9 0C       		.byte	0xc
 2555 07ba 11       		.byte	0x11
 2556 07bb 34       		.byte	0x34
 2557 07bc 10       		.byte	0x10
 2558 07bd DC070000 		.4byte	0x7dc
 2559 07c1 02       		.uleb128 0x2
 2560 07c2 6A030000 		.4byte	.LASF99
 2561 07c6 11       		.byte	0x11
 2562 07c7 35       		.byte	0x35
 2563 07c8 19       		.byte	0x19
 2564 07c9 AF030000 		.4byte	0x3af
 2565 07cd 00       		.byte	0
ARM GAS  C:\Users\DEVELO~1\AppData\Local\Temp\cc6J7fdl.s 			page 46


 2566 07ce 0A       		.uleb128 0xa
 2567 07cf 636E7400 		.ascii	"cnt\000"
 2568 07d3 11       		.byte	0x11
 2569 07d4 37       		.byte	0x37
 2570 07d5 19       		.byte	0x19
 2571 07d6 68010000 		.4byte	0x168
 2572 07da 08       		.byte	0x8
 2573 07db 00       		.byte	0
 2574 07dc 04       		.uleb128 0x4
 2575 07dd B4070000 		.4byte	0x7b4
 2576 07e1 06       		.uleb128 0x6
 2577 07e2 93070000 		.4byte	.LASF112
 2578 07e6 10       		.byte	0x10
 2579 07e7 12       		.byte	0x12
 2580 07e8 39       		.byte	0x39
 2581 07e9 08       		.byte	0x8
 2582 07ea 16080000 		.4byte	0x816
 2583 07ee 02       		.uleb128 0x2
 2584 07ef 6A030000 		.4byte	.LASF99
 2585 07f3 12       		.byte	0x12
 2586 07f4 3A       		.byte	0x3a
 2587 07f5 19       		.byte	0x19
 2588 07f6 AF030000 		.4byte	0x3af
 2589 07fa 00       		.byte	0
 2590 07fb 02       		.uleb128 0x2
 2591 07fc 64060000 		.4byte	.LASF34
 2592 0800 12       		.byte	0x12
 2593 0801 3C       		.byte	0x3c
 2594 0802 1A       		.byte	0x1a
 2595 0803 97040000 		.4byte	0x497
 2596 0807 08       		.byte	0x8
 2597 0808 02       		.uleb128 0x2
 2598 0809 9E000000 		.4byte	.LASF69
 2599 080d 12       		.byte	0x12
 2600 080e 3E       		.byte	0x3e
 2601 080f 1A       		.byte	0x1a
 2602 0810 D7080000 		.4byte	0x8d7
 2603 0814 0C       		.byte	0xc
 2604 0815 00       		.byte	0
 2605 0816 04       		.uleb128 0x4
 2606 0817 E1070000 		.4byte	0x7e1
 2607 081b 04       		.uleb128 0x4
 2608 081c 69020000 		.4byte	0x269
 2609 0820 04       		.uleb128 0x4
 2610 0821 FC000000 		.4byte	0xfc
 2611 0825 19       		.uleb128 0x19
 2612 0826 F6030000 		.4byte	.LASF113
 2613 082a 10       		.byte	0x10
 2614 082b 0B       		.byte	0xb
 2615 082c 5C01     		.2byte	0x15c
 2616 082e 10       		.byte	0x10
 2617 082f 4E080000 		.4byte	0x84e
 2618 0833 03       		.uleb128 0x3
 2619 0834 DE060000 		.4byte	.LASF103
 2620 0838 6101     		.2byte	0x161
 2621 083a 21       		.byte	0x21
 2622 083b E8030000 		.4byte	0x3e8
ARM GAS  C:\Users\DEVELO~1\AppData\Local\Temp\cc6J7fdl.s 			page 47


 2623 083f 00       		.byte	0
 2624 0840 03       		.uleb128 0x3
 2625 0841 1E050000 		.4byte	.LASF114
 2626 0845 6501     		.2byte	0x165
 2627 0847 22       		.byte	0x22
 2628 0848 97040000 		.4byte	0x497
 2629 084c 0C       		.byte	0xc
 2630 084d 00       		.byte	0
 2631 084e 23       		.uleb128 0x23
 2632 084f 08000000 		.4byte	.LASF115
 2633 0853 6601     		.2byte	0x166
 2634 0855 25080000 		.4byte	0x825
 2635 0859 19       		.uleb128 0x19
 2636 085a E4040000 		.4byte	.LASF116
 2637 085e 14       		.byte	0x14
 2638 085f 0B       		.byte	0xb
 2639 0860 6B01     		.2byte	0x16b
 2640 0862 10       		.byte	0x10
 2641 0863 A9080000 		.4byte	0x8a9
 2642 0867 03       		.uleb128 0x3
 2643 0868 65030000 		.4byte	.LASF35
 2644 086c 6F01     		.2byte	0x16f
 2645 086e 22       		.byte	0x22
 2646 086f 49030000 		.4byte	0x349
 2647 0873 00       		.byte	0
 2648 0874 03       		.uleb128 0x3
 2649 0875 88020000 		.4byte	.LASF117
 2650 0879 7501     		.2byte	0x175
 2651 087b 22       		.byte	0x22
 2652 087c 20080000 		.4byte	0x820
 2653 0880 04       		.byte	0x4
 2654 0881 03       		.uleb128 0x3
 2655 0882 2C070000 		.4byte	.LASF118
 2656 0886 7901     		.2byte	0x179
 2657 0888 22       		.byte	0x22
 2658 0889 20080000 		.4byte	0x820
 2659 088d 08       		.byte	0x8
 2660 088e 03       		.uleb128 0x3
 2661 088f E5020000 		.4byte	.LASF119
 2662 0893 7F01     		.2byte	0x17f
 2663 0895 22       		.byte	0x22
 2664 0896 20080000 		.4byte	0x820
 2665 089a 0C       		.byte	0xc
 2666 089b 03       		.uleb128 0x3
 2667 089c F3070000 		.4byte	.LASF120
 2668 08a0 8301     		.2byte	0x183
 2669 08a2 22       		.byte	0x22
 2670 08a3 20080000 		.4byte	0x820
 2671 08a7 10       		.byte	0x10
 2672 08a8 00       		.byte	0
 2673 08a9 23       		.uleb128 0x23
 2674 08aa 3B070000 		.4byte	.LASF121
 2675 08ae 8501     		.2byte	0x185
 2676 08b0 59080000 		.4byte	0x859
 2677 08b4 09       		.uleb128 0x9
 2678 08b5 A9080000 		.4byte	0x8a9
 2679 08b9 04       		.uleb128 0x4
ARM GAS  C:\Users\DEVELO~1\AppData\Local\Temp\cc6J7fdl.s 			page 48


 2680 08ba B4080000 		.4byte	0x8b4
 2681 08be 2D       		.uleb128 0x2d
 2682 08bf 63683000 		.ascii	"ch0\000"
 2683 08c3 01       		.byte	0x1
 2684 08c4 4101     		.2byte	0x141
 2685 08c6 16       		.byte	0x16
 2686 08c7 69020000 		.4byte	0x269
 2687 08cb 01       		.uleb128 0x1
 2688 08cc 98020000 		.4byte	.LASF122
 2689 08d0 12       		.byte	0x12
 2690 08d1 34       		.byte	0x34
 2691 08d2 19       		.byte	0x19
 2692 08d3 E1070000 		.4byte	0x7e1
 2693 08d7 04       		.uleb128 0x4
 2694 08d8 CB080000 		.4byte	0x8cb
 2695 08dc 01       		.uleb128 0x1
 2696 08dd 60040000 		.4byte	.LASF123
 2697 08e1 05       		.byte	0x5
 2698 08e2 34       		.byte	0x34
 2699 08e3 1F       		.byte	0x1f
 2700 08e4 E8080000 		.4byte	0x8e8
 2701 08e8 06       		.uleb128 0x6
 2702 08e9 69080000 		.4byte	.LASF124
 2703 08ed 14       		.byte	0x14
 2704 08ee 05       		.byte	0x5
 2705 08ef 39       		.byte	0x39
 2706 08f0 08       		.byte	0x8
 2707 08f1 37090000 		.4byte	0x937
 2708 08f5 02       		.uleb128 0x2
 2709 08f6 9E000000 		.4byte	.LASF69
 2710 08fa 05       		.byte	0x5
 2711 08fb 3A       		.byte	0x3a
 2712 08fc 1A       		.byte	0x1a
 2713 08fd 37090000 		.4byte	0x937
 2714 0901 00       		.byte	0
 2715 0902 02       		.uleb128 0x2
 2716 0903 99040000 		.4byte	.LASF125
 2717 0907 05       		.byte	0x5
 2718 0908 3D       		.byte	0x3d
 2719 0909 1A       		.byte	0x1a
 2720 090a 97040000 		.4byte	0x497
 2721 090e 04       		.byte	0x4
 2722 090f 02       		.uleb128 0x2
 2723 0910 3D060000 		.4byte	.LASF126
 2724 0914 05       		.byte	0x5
 2725 0915 3F       		.byte	0x3f
 2726 0916 19       		.byte	0x19
 2727 0917 50010000 		.4byte	0x150
 2728 091b 08       		.byte	0x8
 2729 091c 02       		.uleb128 0x2
 2730 091d 79070000 		.4byte	.LASF38
 2731 0921 05       		.byte	0x5
 2732 0922 41       		.byte	0x41
 2733 0923 19       		.byte	0x19
 2734 0924 5C010000 		.4byte	0x15c
 2735 0928 0C       		.byte	0xc
 2736 0929 02       		.uleb128 0x2
ARM GAS  C:\Users\DEVELO~1\AppData\Local\Temp\cc6J7fdl.s 			page 49


 2737 092a 3A020000 		.4byte	.LASF127
 2738 092e 05       		.byte	0x5
 2739 092f 43       		.byte	0x43
 2740 0930 19       		.byte	0x19
 2741 0931 5C010000 		.4byte	0x15c
 2742 0935 10       		.byte	0x10
 2743 0936 00       		.byte	0
 2744 0937 04       		.uleb128 0x4
 2745 0938 DC080000 		.4byte	0x8dc
 2746 093c 06       		.uleb128 0x6
 2747 093d 56070000 		.4byte	.LASF128
 2748 0941 04       		.byte	0x4
 2749 0942 05       		.byte	0x5
 2750 0943 4A       		.byte	0x4a
 2751 0944 10       		.byte	0x10
 2752 0945 57090000 		.4byte	0x957
 2753 0949 02       		.uleb128 0x2
 2754 094a 9E000000 		.4byte	.LASF69
 2755 094e 05       		.byte	0x5
 2756 094f 4B       		.byte	0x4b
 2757 0950 1A       		.byte	0x1a
 2758 0951 37090000 		.4byte	0x937
 2759 0955 00       		.byte	0
 2760 0956 00       		.byte	0
 2761 0957 01       		.uleb128 0x1
 2762 0958 A0020000 		.4byte	.LASF129
 2763 095c 05       		.byte	0x5
 2764 095d 4E       		.byte	0x4e
 2765 095e 03       		.byte	0x3
 2766 095f 3C090000 		.4byte	0x93c
 2767 0963 01       		.uleb128 0x1
 2768 0964 BD020000 		.4byte	.LASF130
 2769 0968 05       		.byte	0x5
 2770 0969 53       		.byte	0x53
 2771 096a 10       		.byte	0x10
 2772 096b 74090000 		.4byte	0x974
 2773 096f 09       		.uleb128 0x9
 2774 0970 63090000 		.4byte	0x963
 2775 0974 04       		.uleb128 0x4
 2776 0975 79090000 		.4byte	0x979
 2777 0979 2E       		.uleb128 0x2e
 2778 097a 84090000 		.4byte	0x984
 2779 097e 16       		.uleb128 0x16
 2780 097f 44010000 		.4byte	0x144
 2781 0983 00       		.byte	0
 2782 0984 07       		.uleb128 0x7
 2783 0985 01       		.byte	0x1
 2784 0986 02       		.byte	0x2
 2785 0987 6E050000 		.4byte	.LASF131
 2786 098b 24       		.uleb128 0x24
 2787 098c BA050000 		.4byte	.LASF132
 2788 0990 99       		.byte	0x99
 2789 0991 09       		.byte	0x9
 2790 0992 38010000 		.4byte	0x138
 2791 0996 A5090000 		.4byte	0x9a5
 2792 099a 16       		.uleb128 0x16
 2793 099b 14010000 		.4byte	0x114
ARM GAS  C:\Users\DEVELO~1\AppData\Local\Temp\cc6J7fdl.s 			page 50


 2794 099f 16       		.uleb128 0x16
 2795 09a0 77030000 		.4byte	0x377
 2796 09a4 00       		.byte	0
 2797 09a5 2F       		.uleb128 0x2f
 2798 09a6 24060000 		.4byte	.LASF165
 2799 09aa 13       		.byte	0x13
 2800 09ab 98       		.byte	0x98
 2801 09ac 08       		.byte	0x8
 2802 09ad B7090000 		.4byte	0x9b7
 2803 09b1 16       		.uleb128 0x16
 2804 09b2 14010000 		.4byte	0x114
 2805 09b6 00       		.byte	0
 2806 09b7 30       		.uleb128 0x30
 2807 09b8 41020000 		.4byte	.LASF166
 2808 09bc 13       		.byte	0x13
 2809 09bd 9B       		.byte	0x9b
 2810 09be 08       		.byte	0x8
 2811 09bf 24       		.uleb128 0x24
 2812 09c0 94060000 		.4byte	.LASF133
 2813 09c4 97       		.byte	0x97
 2814 09c5 0D       		.byte	0xd
 2815 09c6 97040000 		.4byte	0x497
 2816 09ca D4090000 		.4byte	0x9d4
 2817 09ce 16       		.uleb128 0x16
 2818 09cf 97040000 		.4byte	0x497
 2819 09d3 00       		.byte	0
 2820 09d4 0F       		.uleb128 0xf
 2821 09d5 D3000000 		.4byte	.LASF135
 2822 09d9 6402     		.2byte	0x264
 2823 09db 0D       		.byte	0xd
 2824 09dc 50010000 		.4byte	0x150
 2825 09e0 00000000 		.4byte	.LFB364
 2826 09e4 68000000 		.4byte	.LFE364-.LFB364
 2827 09e8 01       		.uleb128 0x1
 2828 09e9 9C       		.byte	0x9c
 2829 09ea 1E0A0000 		.4byte	0xa1e
 2830 09ee 05       		.uleb128 0x5
 2831 09ef 3D060000 		.4byte	.LASF126
 2832 09f3 06       		.byte	0x6
 2833 09f4 6402     		.2byte	0x264
 2834 09f6 2D       		.byte	0x2d
 2835 09f7 50010000 		.4byte	0x150
 2836 09fb 02       		.uleb128 0x2
 2837 09fc 91       		.byte	0x91
 2838 09fd 6C       		.sleb128 -20
 2839 09fe 05       		.uleb128 0x5
 2840 09ff 5D030000 		.4byte	.LASF134
 2841 0a03 06       		.byte	0x6
 2842 0a04 6402     		.2byte	0x264
 2843 0a06 43       		.byte	0x43
 2844 0a07 77030000 		.4byte	0x377
 2845 0a0b 02       		.uleb128 0x2
 2846 0a0c 91       		.byte	0x91
 2847 0a0d 68       		.sleb128 -24
 2848 0a0e 10       		.uleb128 0x10
 2849 0a0f 98030000 		.4byte	.LASF137
 2850 0a13 6502     		.2byte	0x265
ARM GAS  C:\Users\DEVELO~1\AppData\Local\Temp\cc6J7fdl.s 			page 51


 2851 0a15 0D       		.byte	0xd
 2852 0a16 97040000 		.4byte	0x497
 2853 0a1a 02       		.uleb128 0x2
 2854 0a1b 91       		.byte	0x91
 2855 0a1c 74       		.sleb128 -12
 2856 0a1d 00       		.byte	0
 2857 0a1e 0F       		.uleb128 0xf
 2858 0a1f A3000000 		.4byte	.LASF136
 2859 0a23 3B02     		.2byte	0x23b
 2860 0a25 0D       		.byte	0xd
 2861 0a26 50010000 		.4byte	0x150
 2862 0a2a 00000000 		.4byte	.LFB363
 2863 0a2e 74000000 		.4byte	.LFE363-.LFB363
 2864 0a32 01       		.uleb128 0x1
 2865 0a33 9C       		.byte	0x9c
 2866 0a34 750A0000 		.4byte	0xa75
 2867 0a38 05       		.uleb128 0x5
 2868 0a39 3D060000 		.4byte	.LASF126
 2869 0a3d 06       		.byte	0x6
 2870 0a3e 3B02     		.2byte	0x23b
 2871 0a40 2D       		.byte	0x2d
 2872 0a41 50010000 		.4byte	0x150
 2873 0a45 02       		.uleb128 0x2
 2874 0a46 91       		.byte	0x91
 2875 0a47 6C       		.sleb128 -20
 2876 0a48 05       		.uleb128 0x5
 2877 0a49 5D030000 		.4byte	.LASF134
 2878 0a4d 06       		.byte	0x6
 2879 0a4e 3B02     		.2byte	0x23b
 2880 0a50 43       		.byte	0x43
 2881 0a51 77030000 		.4byte	0x377
 2882 0a55 02       		.uleb128 0x2
 2883 0a56 91       		.byte	0x91
 2884 0a57 68       		.sleb128 -24
 2885 0a58 10       		.uleb128 0x10
 2886 0a59 98030000 		.4byte	.LASF137
 2887 0a5d 3C02     		.2byte	0x23c
 2888 0a5f 0D       		.byte	0xd
 2889 0a60 97040000 		.4byte	0x497
 2890 0a64 02       		.uleb128 0x2
 2891 0a65 91       		.byte	0x91
 2892 0a66 70       		.sleb128 -16
 2893 0a67 15       		.uleb128 0x15
 2894 0a68 6D00     		.ascii	"m\000"
 2895 0a6a 3D02     		.2byte	0x23d
 2896 0a6c 0F       		.byte	0xf
 2897 0a6d 50010000 		.4byte	0x150
 2898 0a71 02       		.uleb128 0x2
 2899 0a72 91       		.byte	0x91
 2900 0a73 74       		.sleb128 -12
 2901 0a74 00       		.byte	0
 2902 0a75 0F       		.uleb128 0xf
 2903 0a76 7F070000 		.4byte	.LASF138
 2904 0a7a 1002     		.2byte	0x210
 2905 0a7c 0D       		.byte	0xd
 2906 0a7d 50010000 		.4byte	0x150
 2907 0a81 00000000 		.4byte	.LFB362
ARM GAS  C:\Users\DEVELO~1\AppData\Local\Temp\cc6J7fdl.s 			page 52


 2908 0a85 7E000000 		.4byte	.LFE362-.LFB362
 2909 0a89 01       		.uleb128 0x1
 2910 0a8a 9C       		.byte	0x9c
 2911 0a8b CC0A0000 		.4byte	0xacc
 2912 0a8f 05       		.uleb128 0x5
 2913 0a90 3D060000 		.4byte	.LASF126
 2914 0a94 06       		.byte	0x6
 2915 0a95 1002     		.2byte	0x210
 2916 0a97 2D       		.byte	0x2d
 2917 0a98 50010000 		.4byte	0x150
 2918 0a9c 02       		.uleb128 0x2
 2919 0a9d 91       		.byte	0x91
 2920 0a9e 6C       		.sleb128 -20
 2921 0a9f 05       		.uleb128 0x5
 2922 0aa0 5D030000 		.4byte	.LASF134
 2923 0aa4 06       		.byte	0x6
 2924 0aa5 1002     		.2byte	0x210
 2925 0aa7 43       		.byte	0x43
 2926 0aa8 77030000 		.4byte	0x377
 2927 0aac 02       		.uleb128 0x2
 2928 0aad 91       		.byte	0x91
 2929 0aae 68       		.sleb128 -24
 2930 0aaf 10       		.uleb128 0x10
 2931 0ab0 98030000 		.4byte	.LASF137
 2932 0ab4 1102     		.2byte	0x211
 2933 0ab6 0D       		.byte	0xd
 2934 0ab7 97040000 		.4byte	0x497
 2935 0abb 02       		.uleb128 0x2
 2936 0abc 91       		.byte	0x91
 2937 0abd 70       		.sleb128 -16
 2938 0abe 15       		.uleb128 0x15
 2939 0abf 6D00     		.ascii	"m\000"
 2940 0ac1 1202     		.2byte	0x212
 2941 0ac3 0F       		.byte	0xf
 2942 0ac4 50010000 		.4byte	0x150
 2943 0ac8 02       		.uleb128 0x2
 2944 0ac9 91       		.byte	0x91
 2945 0aca 74       		.sleb128 -12
 2946 0acb 00       		.byte	0
 2947 0acc 0F       		.uleb128 0xf
 2948 0acd 0C050000 		.4byte	.LASF139
 2949 0ad1 EA01     		.2byte	0x1ea
 2950 0ad3 0D       		.byte	0xd
 2951 0ad4 50010000 		.4byte	0x150
 2952 0ad8 00000000 		.4byte	.LFB361
 2953 0adc 48000000 		.4byte	.LFE361-.LFB361
 2954 0ae0 01       		.uleb128 0x1
 2955 0ae1 9C       		.byte	0x9c
 2956 0ae2 060B0000 		.4byte	0xb06
 2957 0ae6 05       		.uleb128 0x5
 2958 0ae7 3D060000 		.4byte	.LASF126
 2959 0aeb 06       		.byte	0x6
 2960 0aec EA01     		.2byte	0x1ea
 2961 0aee 26       		.byte	0x26
 2962 0aef 50010000 		.4byte	0x150
 2963 0af3 02       		.uleb128 0x2
 2964 0af4 91       		.byte	0x91
ARM GAS  C:\Users\DEVELO~1\AppData\Local\Temp\cc6J7fdl.s 			page 53


 2965 0af5 6C       		.sleb128 -20
 2966 0af6 10       		.uleb128 0x10
 2967 0af7 98030000 		.4byte	.LASF137
 2968 0afb EB01     		.2byte	0x1eb
 2969 0afd 0D       		.byte	0xd
 2970 0afe 97040000 		.4byte	0x497
 2971 0b02 02       		.uleb128 0x2
 2972 0b03 91       		.byte	0x91
 2973 0b04 74       		.sleb128 -12
 2974 0b05 00       		.byte	0
 2975 0b06 0F       		.uleb128 0xf
 2976 0b07 C3010000 		.4byte	.LASF140
 2977 0b0b CE01     		.2byte	0x1ce
 2978 0b0d 0D       		.byte	0xd
 2979 0b0e 50010000 		.4byte	0x150
 2980 0b12 00000000 		.4byte	.LFB360
 2981 0b16 54000000 		.4byte	.LFE360-.LFB360
 2982 0b1a 01       		.uleb128 0x1
 2983 0b1b 9C       		.byte	0x9c
 2984 0b1c 4D0B0000 		.4byte	0xb4d
 2985 0b20 05       		.uleb128 0x5
 2986 0b21 3D060000 		.4byte	.LASF126
 2987 0b25 06       		.byte	0x6
 2988 0b26 CE01     		.2byte	0x1ce
 2989 0b28 26       		.byte	0x26
 2990 0b29 50010000 		.4byte	0x150
 2991 0b2d 02       		.uleb128 0x2
 2992 0b2e 91       		.byte	0x91
 2993 0b2f 6C       		.sleb128 -20
 2994 0b30 10       		.uleb128 0x10
 2995 0b31 98030000 		.4byte	.LASF137
 2996 0b35 CF01     		.2byte	0x1cf
 2997 0b37 0D       		.byte	0xd
 2998 0b38 97040000 		.4byte	0x497
 2999 0b3c 02       		.uleb128 0x2
 3000 0b3d 91       		.byte	0x91
 3001 0b3e 70       		.sleb128 -16
 3002 0b3f 15       		.uleb128 0x15
 3003 0b40 6D00     		.ascii	"m\000"
 3004 0b42 D001     		.2byte	0x1d0
 3005 0b44 0F       		.byte	0xf
 3006 0b45 50010000 		.4byte	0x150
 3007 0b49 02       		.uleb128 0x2
 3008 0b4a 91       		.byte	0x91
 3009 0b4b 74       		.sleb128 -12
 3010 0b4c 00       		.byte	0
 3011 0b4d 0F       		.uleb128 0xf
 3012 0b4e 8A050000 		.4byte	.LASF141
 3013 0b52 B001     		.2byte	0x1b0
 3014 0b54 0D       		.byte	0xd
 3015 0b55 50010000 		.4byte	0x150
 3016 0b59 00000000 		.4byte	.LFB359
 3017 0b5d 5E000000 		.4byte	.LFE359-.LFB359
 3018 0b61 01       		.uleb128 0x1
 3019 0b62 9C       		.byte	0x9c
 3020 0b63 940B0000 		.4byte	0xb94
 3021 0b67 05       		.uleb128 0x5
ARM GAS  C:\Users\DEVELO~1\AppData\Local\Temp\cc6J7fdl.s 			page 54


 3022 0b68 3D060000 		.4byte	.LASF126
 3023 0b6c 06       		.byte	0x6
 3024 0b6d B001     		.2byte	0x1b0
 3025 0b6f 26       		.byte	0x26
 3026 0b70 50010000 		.4byte	0x150
 3027 0b74 02       		.uleb128 0x2
 3028 0b75 91       		.byte	0x91
 3029 0b76 6C       		.sleb128 -20
 3030 0b77 10       		.uleb128 0x10
 3031 0b78 98030000 		.4byte	.LASF137
 3032 0b7c B101     		.2byte	0x1b1
 3033 0b7e 0D       		.byte	0xd
 3034 0b7f 97040000 		.4byte	0x497
 3035 0b83 02       		.uleb128 0x2
 3036 0b84 91       		.byte	0x91
 3037 0b85 70       		.sleb128 -16
 3038 0b86 15       		.uleb128 0x15
 3039 0b87 6D00     		.ascii	"m\000"
 3040 0b89 B201     		.2byte	0x1b2
 3041 0b8b 0F       		.byte	0xf
 3042 0b8c 50010000 		.4byte	0x150
 3043 0b90 02       		.uleb128 0x2
 3044 0b91 91       		.byte	0x91
 3045 0b92 74       		.sleb128 -12
 3046 0b93 00       		.byte	0
 3047 0b94 17       		.uleb128 0x17
 3048 0b95 B9040000 		.4byte	.LASF143
 3049 0b99 8D01     		.2byte	0x18d
 3050 0b9b 00000000 		.4byte	.LFB358
 3051 0b9f 54000000 		.4byte	.LFE358-.LFB358
 3052 0ba3 01       		.uleb128 0x1
 3053 0ba4 9C       		.byte	0x9c
 3054 0ba5 E20B0000 		.4byte	0xbe2
 3055 0ba9 05       		.uleb128 0x5
 3056 0baa 31050000 		.4byte	.LASF142
 3057 0bae 06       		.byte	0x6
 3058 0baf 8D01     		.2byte	0x18d
 3059 0bb1 27       		.byte	0x27
 3060 0bb2 E20B0000 		.4byte	0xbe2
 3061 0bb6 02       		.uleb128 0x2
 3062 0bb7 91       		.byte	0x91
 3063 0bb8 6C       		.sleb128 -20
 3064 0bb9 05       		.uleb128 0x5
 3065 0bba 3D060000 		.4byte	.LASF126
 3066 0bbe 06       		.byte	0x6
 3067 0bbf 8D01     		.2byte	0x18d
 3068 0bc1 3D       		.byte	0x3d
 3069 0bc2 50010000 		.4byte	0x150
 3070 0bc6 02       		.uleb128 0x2
 3071 0bc7 91       		.byte	0x91
 3072 0bc8 68       		.sleb128 -24
 3073 0bc9 15       		.uleb128 0x15
 3074 0bca 65696400 		.ascii	"eid\000"
 3075 0bce 8E01     		.2byte	0x18e
 3076 0bd0 0D       		.byte	0xd
 3077 0bd1 44010000 		.4byte	0x144
 3078 0bd5 02       		.uleb128 0x2
ARM GAS  C:\Users\DEVELO~1\AppData\Local\Temp\cc6J7fdl.s 			page 55


 3079 0bd6 91       		.byte	0x91
 3080 0bd7 74       		.sleb128 -12
 3081 0bd8 0D       		.uleb128 0xd
 3082 0bd9 FD050000 		.4byte	.LASF146
 3083 0bdd F70B0000 		.4byte	0xbf7
 3084 0be1 00       		.byte	0
 3085 0be2 04       		.uleb128 0x4
 3086 0be3 6F090000 		.4byte	0x96f
 3087 0be7 0B       		.uleb128 0xb
 3088 0be8 5A030000 		.4byte	0x35a
 3089 0bec F70B0000 		.4byte	0xbf7
 3090 0bf0 0C       		.uleb128 0xc
 3091 0bf1 2D000000 		.4byte	0x2d
 3092 0bf5 0D       		.byte	0xd
 3093 0bf6 00       		.byte	0
 3094 0bf7 09       		.uleb128 0x9
 3095 0bf8 E70B0000 		.4byte	0xbe7
 3096 0bfc 17       		.uleb128 0x17
 3097 0bfd 62020000 		.4byte	.LASF144
 3098 0c01 7C01     		.2byte	0x17c
 3099 0c03 00000000 		.4byte	.LFB357
 3100 0c07 26000000 		.4byte	.LFE357-.LFB357
 3101 0c0b 01       		.uleb128 0x1
 3102 0c0c 9C       		.byte	0x9c
 3103 0c0d 310C0000 		.4byte	0xc31
 3104 0c11 18       		.uleb128 0x18
 3105 0c12 65737000 		.ascii	"esp\000"
 3106 0c16 7C01     		.2byte	0x17c
 3107 0c18 2A       		.byte	0x2a
 3108 0c19 310C0000 		.4byte	0xc31
 3109 0c1d 02       		.uleb128 0x2
 3110 0c1e 91       		.byte	0x91
 3111 0c1f 74       		.sleb128 -12
 3112 0c20 05       		.uleb128 0x5
 3113 0c21 79070000 		.4byte	.LASF38
 3114 0c25 06       		.byte	0x6
 3115 0c26 7C01     		.2byte	0x17c
 3116 0c28 3C       		.byte	0x3c
 3117 0c29 5C010000 		.4byte	0x15c
 3118 0c2d 02       		.uleb128 0x2
 3119 0c2e 91       		.byte	0x91
 3120 0c2f 70       		.sleb128 -16
 3121 0c30 00       		.byte	0
 3122 0c31 04       		.uleb128 0x4
 3123 0c32 57090000 		.4byte	0x957
 3124 0c36 17       		.uleb128 0x17
 3125 0c37 19020000 		.4byte	.LASF145
 3126 0c3b 5A01     		.2byte	0x15a
 3127 0c3d 00000000 		.4byte	.LFB356
 3128 0c41 58000000 		.4byte	.LFE356-.LFB356
 3129 0c45 01       		.uleb128 0x1
 3130 0c46 9C       		.byte	0x9c
 3131 0c47 830C0000 		.4byte	0xc83
 3132 0c4b 18       		.uleb128 0x18
 3133 0c4c 65737000 		.ascii	"esp\000"
 3134 0c50 5A01     		.2byte	0x15a
 3135 0c52 2B       		.byte	0x2b
ARM GAS  C:\Users\DEVELO~1\AppData\Local\Temp\cc6J7fdl.s 			page 56


 3136 0c53 310C0000 		.4byte	0xc31
 3137 0c57 02       		.uleb128 0x2
 3138 0c58 91       		.byte	0x91
 3139 0c59 6C       		.sleb128 -20
 3140 0c5a 05       		.uleb128 0x5
 3141 0c5b 79070000 		.4byte	.LASF38
 3142 0c5f 06       		.byte	0x6
 3143 0c60 5A01     		.2byte	0x15a
 3144 0c62 3D       		.byte	0x3d
 3145 0c63 5C010000 		.4byte	0x15c
 3146 0c67 02       		.uleb128 0x2
 3147 0c68 91       		.byte	0x91
 3148 0c69 68       		.sleb128 -24
 3149 0c6a 15       		.uleb128 0x15
 3150 0c6b 656C7000 		.ascii	"elp\000"
 3151 0c6f 5B01     		.2byte	0x15b
 3152 0c71 15       		.byte	0x15
 3153 0c72 37090000 		.4byte	0x937
 3154 0c76 02       		.uleb128 0x2
 3155 0c77 91       		.byte	0x91
 3156 0c78 74       		.sleb128 -12
 3157 0c79 0D       		.uleb128 0xd
 3158 0c7a FD050000 		.4byte	.LASF146
 3159 0c7e 930C0000 		.4byte	0xc93
 3160 0c82 00       		.byte	0
 3161 0c83 0B       		.uleb128 0xb
 3162 0c84 5A030000 		.4byte	0x35a
 3163 0c88 930C0000 		.4byte	0xc93
 3164 0c8c 0C       		.uleb128 0xc
 3165 0c8d 2D000000 		.4byte	0x2d
 3166 0c91 14       		.byte	0x14
 3167 0c92 00       		.byte	0
 3168 0c93 09       		.uleb128 0x9
 3169 0c94 830C0000 		.4byte	0xc83
 3170 0c98 17       		.uleb128 0x17
 3171 0c99 49000000 		.4byte	.LASF147
 3172 0c9d 3F01     		.2byte	0x13f
 3173 0c9f 00000000 		.4byte	.LFB355
 3174 0ca3 26000000 		.4byte	.LFE355-.LFB355
 3175 0ca7 01       		.uleb128 0x1
 3176 0ca8 9C       		.byte	0x9c
 3177 0ca9 D50C0000 		.4byte	0xcd5
 3178 0cad 18       		.uleb128 0x18
 3179 0cae 747000   		.ascii	"tp\000"
 3180 0cb1 3F01     		.2byte	0x13f
 3181 0cb3 1C       		.byte	0x1c
 3182 0cb4 97040000 		.4byte	0x497
 3183 0cb8 02       		.uleb128 0x2
 3184 0cb9 91       		.byte	0x91
 3185 0cba 74       		.sleb128 -12
 3186 0cbb 05       		.uleb128 0x5
 3187 0cbc 3D060000 		.4byte	.LASF126
 3188 0cc0 06       		.byte	0x6
 3189 0cc1 3F01     		.2byte	0x13f
 3190 0cc3 2C       		.byte	0x2c
 3191 0cc4 50010000 		.4byte	0x150
 3192 0cc8 02       		.uleb128 0x2
ARM GAS  C:\Users\DEVELO~1\AppData\Local\Temp\cc6J7fdl.s 			page 57


 3193 0cc9 91       		.byte	0x91
 3194 0cca 70       		.sleb128 -16
 3195 0ccb 0D       		.uleb128 0xd
 3196 0ccc FD050000 		.4byte	.LASF146
 3197 0cd0 E50C0000 		.4byte	0xce5
 3198 0cd4 00       		.byte	0
 3199 0cd5 0B       		.uleb128 0xb
 3200 0cd6 5A030000 		.4byte	0x35a
 3201 0cda E50C0000 		.4byte	0xce5
 3202 0cde 0C       		.uleb128 0xc
 3203 0cdf 2D000000 		.4byte	0x2d
 3204 0ce3 0B       		.byte	0xb
 3205 0ce4 00       		.byte	0
 3206 0ce5 09       		.uleb128 0x9
 3207 0ce6 D50C0000 		.4byte	0xcd5
 3208 0cea 17       		.uleb128 0x17
 3209 0ceb 78080000 		.4byte	.LASF148
 3210 0cef 2701     		.2byte	0x127
 3211 0cf1 00000000 		.4byte	.LFB354
 3212 0cf5 5E000000 		.4byte	.LFE354-.LFB354
 3213 0cf9 01       		.uleb128 0x1
 3214 0cfa 9C       		.byte	0x9c
 3215 0cfb 270D0000 		.4byte	0xd27
 3216 0cff 18       		.uleb128 0x18
 3217 0d00 747000   		.ascii	"tp\000"
 3218 0d03 2701     		.2byte	0x127
 3219 0d05 1D       		.byte	0x1d
 3220 0d06 97040000 		.4byte	0x497
 3221 0d0a 02       		.uleb128 0x2
 3222 0d0b 91       		.byte	0x91
 3223 0d0c 74       		.sleb128 -12
 3224 0d0d 05       		.uleb128 0x5
 3225 0d0e 3D060000 		.4byte	.LASF126
 3226 0d12 06       		.byte	0x6
 3227 0d13 2701     		.2byte	0x127
 3228 0d15 2D       		.byte	0x2d
 3229 0d16 50010000 		.4byte	0x150
 3230 0d1a 02       		.uleb128 0x2
 3231 0d1b 91       		.byte	0x91
 3232 0d1c 70       		.sleb128 -16
 3233 0d1d 0D       		.uleb128 0xd
 3234 0d1e FD050000 		.4byte	.LASF146
 3235 0d22 370D0000 		.4byte	0xd37
 3236 0d26 00       		.byte	0
 3237 0d27 0B       		.uleb128 0xb
 3238 0d28 5A030000 		.4byte	0x35a
 3239 0d2c 370D0000 		.4byte	0xd37
 3240 0d30 0C       		.uleb128 0xc
 3241 0d31 2D000000 		.4byte	0x2d
 3242 0d35 0C       		.byte	0xc
 3243 0d36 00       		.byte	0
 3244 0d37 09       		.uleb128 0x9
 3245 0d38 270D0000 		.4byte	0xd27
 3246 0d3c 0F       		.uleb128 0xf
 3247 0d3d BB070000 		.4byte	.LASF149
 3248 0d41 0E01     		.2byte	0x10e
 3249 0d43 0E       		.byte	0xe
ARM GAS  C:\Users\DEVELO~1\AppData\Local\Temp\cc6J7fdl.s 			page 58


 3250 0d44 5C010000 		.4byte	0x15c
 3251 0d48 00000000 		.4byte	.LFB353
 3252 0d4c 2C000000 		.4byte	.LFE353-.LFB353
 3253 0d50 01       		.uleb128 0x1
 3254 0d51 9C       		.byte	0x9c
 3255 0d52 7E0D0000 		.4byte	0xd7e
 3256 0d56 18       		.uleb128 0x18
 3257 0d57 656C7000 		.ascii	"elp\000"
 3258 0d5b 0E01     		.2byte	0x10e
 3259 0d5d 36       		.byte	0x36
 3260 0d5e 37090000 		.4byte	0x937
 3261 0d62 02       		.uleb128 0x2
 3262 0d63 91       		.byte	0x91
 3263 0d64 6C       		.sleb128 -20
 3264 0d65 10       		.uleb128 0x10
 3265 0d66 79070000 		.4byte	.LASF38
 3266 0d6a 0F01     		.2byte	0x10f
 3267 0d6c 10       		.byte	0x10
 3268 0d6d 5C010000 		.4byte	0x15c
 3269 0d71 02       		.uleb128 0x2
 3270 0d72 91       		.byte	0x91
 3271 0d73 74       		.sleb128 -12
 3272 0d74 0D       		.uleb128 0xd
 3273 0d75 FD050000 		.4byte	.LASF146
 3274 0d79 8E0D0000 		.4byte	0xd8e
 3275 0d7d 00       		.byte	0
 3276 0d7e 0B       		.uleb128 0xb
 3277 0d7f 5A030000 		.4byte	0x35a
 3278 0d83 8E0D0000 		.4byte	0xd8e
 3279 0d87 0C       		.uleb128 0xc
 3280 0d88 2D000000 		.4byte	0x2d
 3281 0d8c 15       		.byte	0x15
 3282 0d8d 00       		.byte	0
 3283 0d8e 09       		.uleb128 0x9
 3284 0d8f 7E0D0000 		.4byte	0xd7e
 3285 0d93 31       		.uleb128 0x31
 3286 0d94 D8050000 		.4byte	.LASF150
 3287 0d98 06       		.byte	0x6
 3288 0d99 F7       		.byte	0xf7
 3289 0d9a 0E       		.byte	0xe
 3290 0d9b 5C010000 		.4byte	0x15c
 3291 0d9f 00000000 		.4byte	.LFB352
 3292 0da3 26000000 		.4byte	.LFE352-.LFB352
 3293 0da7 01       		.uleb128 0x1
 3294 0da8 9C       		.byte	0x9c
 3295 0da9 D30D0000 		.4byte	0xdd3
 3296 0dad 11       		.uleb128 0x11
 3297 0dae 656C7000 		.ascii	"elp\000"
 3298 0db2 F7       		.byte	0xf7
 3299 0db3 37       		.byte	0x37
 3300 0db4 37090000 		.4byte	0x937
 3301 0db8 02       		.uleb128 0x2
 3302 0db9 91       		.byte	0x91
 3303 0dba 6C       		.sleb128 -20
 3304 0dbb 1A       		.uleb128 0x1a
 3305 0dbc 79070000 		.4byte	.LASF38
 3306 0dc0 F8       		.byte	0xf8
ARM GAS  C:\Users\DEVELO~1\AppData\Local\Temp\cc6J7fdl.s 			page 59


 3307 0dc1 10       		.byte	0x10
 3308 0dc2 5C010000 		.4byte	0x15c
 3309 0dc6 02       		.uleb128 0x2
 3310 0dc7 91       		.byte	0x91
 3311 0dc8 74       		.sleb128 -12
 3312 0dc9 0D       		.uleb128 0xd
 3313 0dca FD050000 		.4byte	.LASF146
 3314 0dce E30D0000 		.4byte	0xde3
 3315 0dd2 00       		.byte	0
 3316 0dd3 0B       		.uleb128 0xb
 3317 0dd4 5A030000 		.4byte	0x35a
 3318 0dd8 E30D0000 		.4byte	0xde3
 3319 0ddc 0C       		.uleb128 0xc
 3320 0ddd 2D000000 		.4byte	0x2d
 3321 0de1 16       		.byte	0x16
 3322 0de2 00       		.byte	0
 3323 0de3 09       		.uleb128 0x9
 3324 0de4 D30D0000 		.4byte	0xdd3
 3325 0de8 1F       		.uleb128 0x1f
 3326 0de9 6D000000 		.4byte	.LASF151
 3327 0ded E2       		.byte	0xe2
 3328 0dee 50010000 		.4byte	0x150
 3329 0df2 00000000 		.4byte	.LFB351
 3330 0df6 22000000 		.4byte	.LFE351-.LFB351
 3331 0dfa 01       		.uleb128 0x1
 3332 0dfb 9C       		.byte	0x9c
 3333 0dfc 1D0E0000 		.4byte	0xe1d
 3334 0e00 12       		.uleb128 0x12
 3335 0e01 3D060000 		.4byte	.LASF126
 3336 0e05 E2       		.byte	0xe2
 3337 0e06 28       		.byte	0x28
 3338 0e07 50010000 		.4byte	0x150
 3339 0e0b 02       		.uleb128 0x2
 3340 0e0c 91       		.byte	0x91
 3341 0e0d 6C       		.sleb128 -20
 3342 0e0e 1A       		.uleb128 0x1a
 3343 0e0f DD070000 		.4byte	.LASF152
 3344 0e13 E3       		.byte	0xe3
 3345 0e14 0F       		.byte	0xf
 3346 0e15 50010000 		.4byte	0x150
 3347 0e19 02       		.uleb128 0x2
 3348 0e1a 91       		.byte	0x91
 3349 0e1b 74       		.sleb128 -12
 3350 0e1c 00       		.byte	0
 3351 0e1d 1F       		.uleb128 0x1f
 3352 0e1e 1D030000 		.4byte	.LASF153
 3353 0e22 CF       		.byte	0xcf
 3354 0e23 50010000 		.4byte	0x150
 3355 0e27 00000000 		.4byte	.LFB350
 3356 0e2b 22000000 		.4byte	.LFE350-.LFB350
 3357 0e2f 01       		.uleb128 0x1
 3358 0e30 9C       		.byte	0x9c
 3359 0e31 500E0000 		.4byte	0xe50
 3360 0e35 12       		.uleb128 0x12
 3361 0e36 3D060000 		.4byte	.LASF126
 3362 0e3a CF       		.byte	0xcf
 3363 0e3b 30       		.byte	0x30
ARM GAS  C:\Users\DEVELO~1\AppData\Local\Temp\cc6J7fdl.s 			page 60


 3364 0e3c 50010000 		.4byte	0x150
 3365 0e40 02       		.uleb128 0x2
 3366 0e41 91       		.byte	0x91
 3367 0e42 6C       		.sleb128 -20
 3368 0e43 20       		.uleb128 0x20
 3369 0e44 6D00     		.ascii	"m\000"
 3370 0e46 D0       		.byte	0xd0
 3371 0e47 0F       		.byte	0xf
 3372 0e48 50010000 		.4byte	0x150
 3373 0e4c 02       		.uleb128 0x2
 3374 0e4d 91       		.byte	0x91
 3375 0e4e 74       		.sleb128 -12
 3376 0e4f 00       		.byte	0
 3377 0e50 1F       		.uleb128 0x1f
 3378 0e51 A3070000 		.4byte	.LASF154
 3379 0e55 BB       		.byte	0xbb
 3380 0e56 50010000 		.4byte	0x150
 3381 0e5a 00000000 		.4byte	.LFB349
 3382 0e5e 30000000 		.4byte	.LFE349-.LFB349
 3383 0e62 01       		.uleb128 0x1
 3384 0e63 9C       		.byte	0x9c
 3385 0e64 910E0000 		.4byte	0xe91
 3386 0e68 12       		.uleb128 0x12
 3387 0e69 3D060000 		.4byte	.LASF126
 3388 0e6d BB       		.byte	0xbb
 3389 0e6e 31       		.byte	0x31
 3390 0e6f 50010000 		.4byte	0x150
 3391 0e73 02       		.uleb128 0x2
 3392 0e74 91       		.byte	0x91
 3393 0e75 6C       		.sleb128 -20
 3394 0e76 1A       		.uleb128 0x1a
 3395 0e77 98030000 		.4byte	.LASF137
 3396 0e7b BC       		.byte	0xbc
 3397 0e7c 0D       		.byte	0xd
 3398 0e7d 97040000 		.4byte	0x497
 3399 0e81 02       		.uleb128 0x2
 3400 0e82 91       		.byte	0x91
 3401 0e83 74       		.sleb128 -12
 3402 0e84 20       		.uleb128 0x20
 3403 0e85 6D00     		.ascii	"m\000"
 3404 0e87 BD       		.byte	0xbd
 3405 0e88 0F       		.byte	0xf
 3406 0e89 50010000 		.4byte	0x150
 3407 0e8d 02       		.uleb128 0x2
 3408 0e8e 91       		.byte	0x91
 3409 0e8f 70       		.sleb128 -16
 3410 0e90 00       		.byte	0
 3411 0e91 21       		.uleb128 0x21
 3412 0e92 BB030000 		.4byte	.LASF155
 3413 0e96 9E       		.byte	0x9e
 3414 0e97 00000000 		.4byte	.LFB348
 3415 0e9b 44000000 		.4byte	.LFE348-.LFB348
 3416 0e9f 01       		.uleb128 0x1
 3417 0ea0 9C       		.byte	0x9c
 3418 0ea1 D70E0000 		.4byte	0xed7
 3419 0ea5 11       		.uleb128 0x11
 3420 0ea6 65737000 		.ascii	"esp\000"
ARM GAS  C:\Users\DEVELO~1\AppData\Local\Temp\cc6J7fdl.s 			page 61


 3421 0eaa 9E       		.byte	0x9e
 3422 0eab 26       		.byte	0x26
 3423 0eac 310C0000 		.4byte	0xc31
 3424 0eb0 02       		.uleb128 0x2
 3425 0eb1 91       		.byte	0x91
 3426 0eb2 6C       		.sleb128 -20
 3427 0eb3 11       		.uleb128 0x11
 3428 0eb4 656C7000 		.ascii	"elp\000"
 3429 0eb8 9E       		.byte	0x9e
 3430 0eb9 3D       		.byte	0x3d
 3431 0eba 37090000 		.4byte	0x937
 3432 0ebe 02       		.uleb128 0x2
 3433 0ebf 91       		.byte	0x91
 3434 0ec0 68       		.sleb128 -24
 3435 0ec1 20       		.uleb128 0x20
 3436 0ec2 7000     		.ascii	"p\000"
 3437 0ec4 9F       		.byte	0x9f
 3438 0ec5 15       		.byte	0x15
 3439 0ec6 37090000 		.4byte	0x937
 3440 0eca 02       		.uleb128 0x2
 3441 0ecb 91       		.byte	0x91
 3442 0ecc 74       		.sleb128 -12
 3443 0ecd 0D       		.uleb128 0xd
 3444 0ece FD050000 		.4byte	.LASF146
 3445 0ed2 E70E0000 		.4byte	0xee7
 3446 0ed6 00       		.byte	0
 3447 0ed7 0B       		.uleb128 0xb
 3448 0ed8 5A030000 		.4byte	0x35a
 3449 0edc E70E0000 		.4byte	0xee7
 3450 0ee0 0C       		.uleb128 0xc
 3451 0ee1 2D000000 		.4byte	0x2d
 3452 0ee5 0F       		.byte	0xf
 3453 0ee6 00       		.byte	0
 3454 0ee7 09       		.uleb128 0x9
 3455 0ee8 D70E0000 		.4byte	0xed7
 3456 0eec 21       		.uleb128 0x21
 3457 0eed CB030000 		.4byte	.LASF156
 3458 0ef1 87       		.byte	0x87
 3459 0ef2 00000000 		.4byte	.LFB347
 3460 0ef6 2A000000 		.4byte	.LFE347-.LFB347
 3461 0efa 01       		.uleb128 0x1
 3462 0efb 9C       		.byte	0x9c
 3463 0efc 390F0000 		.4byte	0xf39
 3464 0f00 11       		.uleb128 0x11
 3465 0f01 65737000 		.ascii	"esp\000"
 3466 0f05 87       		.byte	0x87
 3467 0f06 31       		.byte	0x31
 3468 0f07 310C0000 		.4byte	0xc31
 3469 0f0b 02       		.uleb128 0x2
 3470 0f0c 91       		.byte	0x91
 3471 0f0d 74       		.sleb128 -12
 3472 0f0e 11       		.uleb128 0x11
 3473 0f0f 656C7000 		.ascii	"elp\000"
 3474 0f13 88       		.byte	0x88
 3475 0f14 33       		.byte	0x33
 3476 0f15 37090000 		.4byte	0x937
 3477 0f19 02       		.uleb128 0x2
ARM GAS  C:\Users\DEVELO~1\AppData\Local\Temp\cc6J7fdl.s 			page 62


 3478 0f1a 91       		.byte	0x91
 3479 0f1b 70       		.sleb128 -16
 3480 0f1c 12       		.uleb128 0x12
 3481 0f1d 3D060000 		.4byte	.LASF126
 3482 0f21 89       		.byte	0x89
 3483 0f22 2D       		.byte	0x2d
 3484 0f23 50010000 		.4byte	0x150
 3485 0f27 02       		.uleb128 0x2
 3486 0f28 91       		.byte	0x91
 3487 0f29 6C       		.sleb128 -20
 3488 0f2a 12       		.uleb128 0x12
 3489 0f2b 3A020000 		.4byte	.LASF127
 3490 0f2f 8A       		.byte	0x8a
 3491 0f30 2E       		.byte	0x2e
 3492 0f31 5C010000 		.4byte	0x15c
 3493 0f35 02       		.uleb128 0x2
 3494 0f36 91       		.byte	0x91
 3495 0f37 68       		.sleb128 -24
 3496 0f38 00       		.byte	0
 3497 0f39 21       		.uleb128 0x21
 3498 0f3a 97050000 		.4byte	.LASF157
 3499 0f3e 67       		.byte	0x67
 3500 0f3f 00000000 		.4byte	.LFB346
 3501 0f43 42000000 		.4byte	.LFE346-.LFB346
 3502 0f47 01       		.uleb128 0x1
 3503 0f48 9C       		.byte	0x9c
 3504 0f49 9D0F0000 		.4byte	0xf9d
 3505 0f4d 11       		.uleb128 0x11
 3506 0f4e 65737000 		.ascii	"esp\000"
 3507 0f52 67       		.byte	0x67
 3508 0f53 32       		.byte	0x32
 3509 0f54 310C0000 		.4byte	0xc31
 3510 0f58 02       		.uleb128 0x2
 3511 0f59 91       		.byte	0x91
 3512 0f5a 6C       		.sleb128 -20
 3513 0f5b 11       		.uleb128 0x11
 3514 0f5c 656C7000 		.ascii	"elp\000"
 3515 0f60 68       		.byte	0x68
 3516 0f61 34       		.byte	0x34
 3517 0f62 37090000 		.4byte	0x937
 3518 0f66 02       		.uleb128 0x2
 3519 0f67 91       		.byte	0x91
 3520 0f68 68       		.sleb128 -24
 3521 0f69 12       		.uleb128 0x12
 3522 0f6a 3D060000 		.4byte	.LASF126
 3523 0f6e 69       		.byte	0x69
 3524 0f6f 2E       		.byte	0x2e
 3525 0f70 50010000 		.4byte	0x150
 3526 0f74 02       		.uleb128 0x2
 3527 0f75 91       		.byte	0x91
 3528 0f76 64       		.sleb128 -28
 3529 0f77 12       		.uleb128 0x12
 3530 0f78 3A020000 		.4byte	.LASF127
 3531 0f7c 6A       		.byte	0x6a
 3532 0f7d 2F       		.byte	0x2f
 3533 0f7e 5C010000 		.4byte	0x15c
 3534 0f82 02       		.uleb128 0x2
ARM GAS  C:\Users\DEVELO~1\AppData\Local\Temp\cc6J7fdl.s 			page 63


 3535 0f83 91       		.byte	0x91
 3536 0f84 60       		.sleb128 -32
 3537 0f85 1A       		.uleb128 0x1a
 3538 0f86 98030000 		.4byte	.LASF137
 3539 0f8a 6B       		.byte	0x6b
 3540 0f8b 0D       		.byte	0xd
 3541 0f8c 97040000 		.4byte	0x497
 3542 0f90 02       		.uleb128 0x2
 3543 0f91 91       		.byte	0x91
 3544 0f92 74       		.sleb128 -12
 3545 0f93 0D       		.uleb128 0xd
 3546 0f94 FD050000 		.4byte	.LASF146
 3547 0f98 AD0F0000 		.4byte	0xfad
 3548 0f9c 00       		.byte	0
 3549 0f9d 0B       		.uleb128 0xb
 3550 0f9e 5A030000 		.4byte	0x35a
 3551 0fa2 AD0F0000 		.4byte	0xfad
 3552 0fa6 0C       		.uleb128 0xc
 3553 0fa7 2D000000 		.4byte	0x2d
 3554 0fab 1B       		.byte	0x1b
 3555 0fac 00       		.byte	0
 3556 0fad 09       		.uleb128 0x9
 3557 0fae 9D0F0000 		.4byte	0xf9d
 3558 0fb2 32       		.uleb128 0x32
 3559 0fb3 B7000000 		.4byte	.LASF167
 3560 0fb7 05       		.byte	0x5
 3561 0fb8 1101     		.2byte	0x111
 3562 0fba 1B       		.byte	0x1b
 3563 0fbb 50010000 		.4byte	0x150
 3564 0fbf 00000000 		.4byte	.LFB257
 3565 0fc3 28000000 		.4byte	.LFE257-.LFB257
 3566 0fc7 01       		.uleb128 0x1
 3567 0fc8 9C       		.byte	0x9c
 3568 0fc9 DE0F0000 		.4byte	0xfde
 3569 0fcd 05       		.uleb128 0x5
 3570 0fce 3D060000 		.4byte	.LASF126
 3571 0fd2 05       		.byte	0x5
 3572 0fd3 1101     		.2byte	0x111
 3573 0fd5 37       		.byte	0x37
 3574 0fd6 50010000 		.4byte	0x150
 3575 0fda 02       		.uleb128 0x2
 3576 0fdb 91       		.byte	0x91
 3577 0fdc 74       		.sleb128 -12
 3578 0fdd 00       		.byte	0
 3579 0fde 33       		.uleb128 0x33
 3580 0fdf 63070000 		.4byte	.LASF168
 3581 0fe3 04       		.byte	0x4
 3582 0fe4 5501     		.2byte	0x155
 3583 0fe6 19       		.byte	0x19
 3584 0fe7 97040000 		.4byte	0x497
 3585 0feb 00000000 		.4byte	.LFB229
 3586 0fef 14000000 		.4byte	.LFE229-.LFB229
 3587 0ff3 01       		.uleb128 0x1
 3588 0ff4 9C       		.byte	0x9c
 3589 0ff5 25       		.uleb128 0x25
 3590 0ff6 D1070000 		.4byte	.LASF158
 3591 0ffa A501     		.2byte	0x1a5
ARM GAS  C:\Users\DEVELO~1\AppData\Local\Temp\cc6J7fdl.s 			page 64


 3592 0ffc 00000000 		.4byte	.LFB203
 3593 1000 1E000000 		.4byte	.LFE203-.LFB203
 3594 1004 01       		.uleb128 0x1
 3595 1005 9C       		.byte	0x9c
 3596 1006 3E100000 		.4byte	0x103e
 3597 100a 0D       		.uleb128 0xd
 3598 100b FD050000 		.4byte	.LASF146
 3599 100f E50C0000 		.4byte	0xce5
 3600 1013 1B       		.uleb128 0x1b
 3601 1014 7E100000 		.4byte	0x107e
 3602 1018 0A000000 		.4byte	.LBB18
 3603 101c 0A000000 		.4byte	.LBE18-.LBB18
 3604 1020 01       		.byte	0x1
 3605 1021 B201     		.2byte	0x1b2
 3606 1023 1B       		.uleb128 0x1b
 3607 1024 8C100000 		.4byte	0x108c
 3608 1028 0A000000 		.4byte	.LBB20
 3609 102c 08000000 		.4byte	.LBE20-.LBB20
 3610 1030 03       		.byte	0x3
 3611 1031 5203     		.2byte	0x352
 3612 1033 26       		.uleb128 0x26
 3613 1034 96100000 		.4byte	0x1096
 3614 1038 02       		.uleb128 0x2
 3615 1039 91       		.byte	0x91
 3616 103a 74       		.sleb128 -12
 3617 103b 00       		.byte	0
 3618 103c 00       		.byte	0
 3619 103d 00       		.byte	0
 3620 103e 25       		.uleb128 0x25
 3621 103f 06060000 		.4byte	.LASF159
 3622 1043 9701     		.2byte	0x197
 3623 1045 00000000 		.4byte	.LFB202
 3624 1049 1E000000 		.4byte	.LFE202-.LFB202
 3625 104d 01       		.uleb128 0x1
 3626 104e 9C       		.byte	0x9c
 3627 104f 7E100000 		.4byte	0x107e
 3628 1053 1B       		.uleb128 0x1b
 3629 1054 85100000 		.4byte	0x1085
 3630 1058 0A000000 		.4byte	.LBB14
 3631 105c 0A000000 		.4byte	.LBE14-.LBB14
 3632 1060 01       		.byte	0x1
 3633 1061 9901     		.2byte	0x199
 3634 1063 1B       		.uleb128 0x1b
 3635 1064 8C100000 		.4byte	0x108c
 3636 1068 0A000000 		.4byte	.LBB16
 3637 106c 08000000 		.4byte	.LBE16-.LBB16
 3638 1070 03       		.byte	0x3
 3639 1071 3F03     		.2byte	0x33f
 3640 1073 26       		.uleb128 0x26
 3641 1074 96100000 		.4byte	0x1096
 3642 1078 02       		.uleb128 0x2
 3643 1079 91       		.byte	0x91
 3644 107a 74       		.sleb128 -12
 3645 107b 00       		.byte	0
 3646 107c 00       		.byte	0
 3647 107d 00       		.byte	0
 3648 107e 27       		.uleb128 0x27
ARM GAS  C:\Users\DEVELO~1\AppData\Local\Temp\cc6J7fdl.s 			page 65


 3649 107f D0010000 		.4byte	.LASF160
 3650 1083 4F03     		.2byte	0x34f
 3651 1085 27       		.uleb128 0x27
 3652 1086 E9070000 		.4byte	.LASF161
 3653 108a 3703     		.2byte	0x337
 3654 108c 34       		.uleb128 0x34
 3655 108d F3010000 		.4byte	.LASF169
 3656 1091 02       		.byte	0x2
 3657 1092 EB01     		.2byte	0x1eb
 3658 1094 1B       		.byte	0x1b
 3659 1095 03       		.byte	0x3
 3660 1096 35       		.uleb128 0x35
 3661 1097 0C010000 		.4byte	.LASF170
 3662 109b 02       		.byte	0x2
 3663 109c EB01     		.2byte	0x1eb
 3664 109e 32       		.byte	0x32
 3665 109f D3000000 		.4byte	0xd3
 3666 10a3 00       		.byte	0
 3667 10a4 00       		.byte	0
 3668              		.section	.debug_abbrev,"",%progbits
 3669              	.Ldebug_abbrev0:
 3670 0000 01       		.uleb128 0x1
 3671 0001 16       		.uleb128 0x16
 3672 0002 00       		.byte	0
 3673 0003 03       		.uleb128 0x3
 3674 0004 0E       		.uleb128 0xe
 3675 0005 3A       		.uleb128 0x3a
 3676 0006 0B       		.uleb128 0xb
 3677 0007 3B       		.uleb128 0x3b
 3678 0008 0B       		.uleb128 0xb
 3679 0009 39       		.uleb128 0x39
 3680 000a 0B       		.uleb128 0xb
 3681 000b 49       		.uleb128 0x49
 3682 000c 13       		.uleb128 0x13
 3683 000d 00       		.byte	0
 3684 000e 00       		.byte	0
 3685 000f 02       		.uleb128 0x2
 3686 0010 0D       		.uleb128 0xd
 3687 0011 00       		.byte	0
 3688 0012 03       		.uleb128 0x3
 3689 0013 0E       		.uleb128 0xe
 3690 0014 3A       		.uleb128 0x3a
 3691 0015 0B       		.uleb128 0xb
 3692 0016 3B       		.uleb128 0x3b
 3693 0017 0B       		.uleb128 0xb
 3694 0018 39       		.uleb128 0x39
 3695 0019 0B       		.uleb128 0xb
 3696 001a 49       		.uleb128 0x49
 3697 001b 13       		.uleb128 0x13
 3698 001c 38       		.uleb128 0x38
 3699 001d 0B       		.uleb128 0xb
 3700 001e 00       		.byte	0
 3701 001f 00       		.byte	0
 3702 0020 03       		.uleb128 0x3
 3703 0021 0D       		.uleb128 0xd
 3704 0022 00       		.byte	0
 3705 0023 03       		.uleb128 0x3
ARM GAS  C:\Users\DEVELO~1\AppData\Local\Temp\cc6J7fdl.s 			page 66


 3706 0024 0E       		.uleb128 0xe
 3707 0025 3A       		.uleb128 0x3a
 3708 0026 21       		.uleb128 0x21
 3709 0027 0B       		.sleb128 11
 3710 0028 3B       		.uleb128 0x3b
 3711 0029 05       		.uleb128 0x5
 3712 002a 39       		.uleb128 0x39
 3713 002b 0B       		.uleb128 0xb
 3714 002c 49       		.uleb128 0x49
 3715 002d 13       		.uleb128 0x13
 3716 002e 38       		.uleb128 0x38
 3717 002f 0B       		.uleb128 0xb
 3718 0030 00       		.byte	0
 3719 0031 00       		.byte	0
 3720 0032 04       		.uleb128 0x4
 3721 0033 0F       		.uleb128 0xf
 3722 0034 00       		.byte	0
 3723 0035 0B       		.uleb128 0xb
 3724 0036 21       		.uleb128 0x21
 3725 0037 04       		.sleb128 4
 3726 0038 49       		.uleb128 0x49
 3727 0039 13       		.uleb128 0x13
 3728 003a 00       		.byte	0
 3729 003b 00       		.byte	0
 3730 003c 05       		.uleb128 0x5
 3731 003d 05       		.uleb128 0x5
 3732 003e 00       		.byte	0
 3733 003f 03       		.uleb128 0x3
 3734 0040 0E       		.uleb128 0xe
 3735 0041 3A       		.uleb128 0x3a
 3736 0042 0B       		.uleb128 0xb
 3737 0043 3B       		.uleb128 0x3b
 3738 0044 05       		.uleb128 0x5
 3739 0045 39       		.uleb128 0x39
 3740 0046 0B       		.uleb128 0xb
 3741 0047 49       		.uleb128 0x49
 3742 0048 13       		.uleb128 0x13
 3743 0049 02       		.uleb128 0x2
 3744 004a 18       		.uleb128 0x18
 3745 004b 00       		.byte	0
 3746 004c 00       		.byte	0
 3747 004d 06       		.uleb128 0x6
 3748 004e 13       		.uleb128 0x13
 3749 004f 01       		.byte	0x1
 3750 0050 03       		.uleb128 0x3
 3751 0051 0E       		.uleb128 0xe
 3752 0052 0B       		.uleb128 0xb
 3753 0053 0B       		.uleb128 0xb
 3754 0054 3A       		.uleb128 0x3a
 3755 0055 0B       		.uleb128 0xb
 3756 0056 3B       		.uleb128 0x3b
 3757 0057 0B       		.uleb128 0xb
 3758 0058 39       		.uleb128 0x39
 3759 0059 0B       		.uleb128 0xb
 3760 005a 01       		.uleb128 0x1
 3761 005b 13       		.uleb128 0x13
 3762 005c 00       		.byte	0
ARM GAS  C:\Users\DEVELO~1\AppData\Local\Temp\cc6J7fdl.s 			page 67


 3763 005d 00       		.byte	0
 3764 005e 07       		.uleb128 0x7
 3765 005f 24       		.uleb128 0x24
 3766 0060 00       		.byte	0
 3767 0061 0B       		.uleb128 0xb
 3768 0062 0B       		.uleb128 0xb
 3769 0063 3E       		.uleb128 0x3e
 3770 0064 0B       		.uleb128 0xb
 3771 0065 03       		.uleb128 0x3
 3772 0066 0E       		.uleb128 0xe
 3773 0067 00       		.byte	0
 3774 0068 00       		.byte	0
 3775 0069 08       		.uleb128 0x8
 3776 006a 0D       		.uleb128 0xd
 3777 006b 00       		.byte	0
 3778 006c 03       		.uleb128 0x3
 3779 006d 08       		.uleb128 0x8
 3780 006e 3A       		.uleb128 0x3a
 3781 006f 0B       		.uleb128 0xb
 3782 0070 3B       		.uleb128 0x3b
 3783 0071 05       		.uleb128 0x5
 3784 0072 39       		.uleb128 0x39
 3785 0073 0B       		.uleb128 0xb
 3786 0074 49       		.uleb128 0x49
 3787 0075 13       		.uleb128 0x13
 3788 0076 38       		.uleb128 0x38
 3789 0077 0B       		.uleb128 0xb
 3790 0078 00       		.byte	0
 3791 0079 00       		.byte	0
 3792 007a 09       		.uleb128 0x9
 3793 007b 26       		.uleb128 0x26
 3794 007c 00       		.byte	0
 3795 007d 49       		.uleb128 0x49
 3796 007e 13       		.uleb128 0x13
 3797 007f 00       		.byte	0
 3798 0080 00       		.byte	0
 3799 0081 0A       		.uleb128 0xa
 3800 0082 0D       		.uleb128 0xd
 3801 0083 00       		.byte	0
 3802 0084 03       		.uleb128 0x3
 3803 0085 08       		.uleb128 0x8
 3804 0086 3A       		.uleb128 0x3a
 3805 0087 0B       		.uleb128 0xb
 3806 0088 3B       		.uleb128 0x3b
 3807 0089 0B       		.uleb128 0xb
 3808 008a 39       		.uleb128 0x39
 3809 008b 0B       		.uleb128 0xb
 3810 008c 49       		.uleb128 0x49
 3811 008d 13       		.uleb128 0x13
 3812 008e 38       		.uleb128 0x38
 3813 008f 0B       		.uleb128 0xb
 3814 0090 00       		.byte	0
 3815 0091 00       		.byte	0
 3816 0092 0B       		.uleb128 0xb
 3817 0093 01       		.uleb128 0x1
 3818 0094 01       		.byte	0x1
 3819 0095 49       		.uleb128 0x49
ARM GAS  C:\Users\DEVELO~1\AppData\Local\Temp\cc6J7fdl.s 			page 68


 3820 0096 13       		.uleb128 0x13
 3821 0097 01       		.uleb128 0x1
 3822 0098 13       		.uleb128 0x13
 3823 0099 00       		.byte	0
 3824 009a 00       		.byte	0
 3825 009b 0C       		.uleb128 0xc
 3826 009c 21       		.uleb128 0x21
 3827 009d 00       		.byte	0
 3828 009e 49       		.uleb128 0x49
 3829 009f 13       		.uleb128 0x13
 3830 00a0 2F       		.uleb128 0x2f
 3831 00a1 0B       		.uleb128 0xb
 3832 00a2 00       		.byte	0
 3833 00a3 00       		.byte	0
 3834 00a4 0D       		.uleb128 0xd
 3835 00a5 34       		.uleb128 0x34
 3836 00a6 00       		.byte	0
 3837 00a7 03       		.uleb128 0x3
 3838 00a8 0E       		.uleb128 0xe
 3839 00a9 49       		.uleb128 0x49
 3840 00aa 13       		.uleb128 0x13
 3841 00ab 34       		.uleb128 0x34
 3842 00ac 19       		.uleb128 0x19
 3843 00ad 00       		.byte	0
 3844 00ae 00       		.byte	0
 3845 00af 0E       		.uleb128 0xe
 3846 00b0 0D       		.uleb128 0xd
 3847 00b1 00       		.byte	0
 3848 00b2 03       		.uleb128 0x3
 3849 00b3 0E       		.uleb128 0xe
 3850 00b4 3A       		.uleb128 0x3a
 3851 00b5 0B       		.uleb128 0xb
 3852 00b6 3B       		.uleb128 0x3b
 3853 00b7 0B       		.uleb128 0xb
 3854 00b8 39       		.uleb128 0x39
 3855 00b9 0B       		.uleb128 0xb
 3856 00ba 49       		.uleb128 0x49
 3857 00bb 13       		.uleb128 0x13
 3858 00bc 00       		.byte	0
 3859 00bd 00       		.byte	0
 3860 00be 0F       		.uleb128 0xf
 3861 00bf 2E       		.uleb128 0x2e
 3862 00c0 01       		.byte	0x1
 3863 00c1 3F       		.uleb128 0x3f
 3864 00c2 19       		.uleb128 0x19
 3865 00c3 03       		.uleb128 0x3
 3866 00c4 0E       		.uleb128 0xe
 3867 00c5 3A       		.uleb128 0x3a
 3868 00c6 21       		.uleb128 0x21
 3869 00c7 06       		.sleb128 6
 3870 00c8 3B       		.uleb128 0x3b
 3871 00c9 05       		.uleb128 0x5
 3872 00ca 39       		.uleb128 0x39
 3873 00cb 0B       		.uleb128 0xb
 3874 00cc 27       		.uleb128 0x27
 3875 00cd 19       		.uleb128 0x19
 3876 00ce 49       		.uleb128 0x49
ARM GAS  C:\Users\DEVELO~1\AppData\Local\Temp\cc6J7fdl.s 			page 69


 3877 00cf 13       		.uleb128 0x13
 3878 00d0 11       		.uleb128 0x11
 3879 00d1 01       		.uleb128 0x1
 3880 00d2 12       		.uleb128 0x12
 3881 00d3 06       		.uleb128 0x6
 3882 00d4 40       		.uleb128 0x40
 3883 00d5 18       		.uleb128 0x18
 3884 00d6 7C       		.uleb128 0x7c
 3885 00d7 19       		.uleb128 0x19
 3886 00d8 01       		.uleb128 0x1
 3887 00d9 13       		.uleb128 0x13
 3888 00da 00       		.byte	0
 3889 00db 00       		.byte	0
 3890 00dc 10       		.uleb128 0x10
 3891 00dd 34       		.uleb128 0x34
 3892 00de 00       		.byte	0
 3893 00df 03       		.uleb128 0x3
 3894 00e0 0E       		.uleb128 0xe
 3895 00e1 3A       		.uleb128 0x3a
 3896 00e2 21       		.uleb128 0x21
 3897 00e3 06       		.sleb128 6
 3898 00e4 3B       		.uleb128 0x3b
 3899 00e5 05       		.uleb128 0x5
 3900 00e6 39       		.uleb128 0x39
 3901 00e7 0B       		.uleb128 0xb
 3902 00e8 49       		.uleb128 0x49
 3903 00e9 13       		.uleb128 0x13
 3904 00ea 02       		.uleb128 0x2
 3905 00eb 18       		.uleb128 0x18
 3906 00ec 00       		.byte	0
 3907 00ed 00       		.byte	0
 3908 00ee 11       		.uleb128 0x11
 3909 00ef 05       		.uleb128 0x5
 3910 00f0 00       		.byte	0
 3911 00f1 03       		.uleb128 0x3
 3912 00f2 08       		.uleb128 0x8
 3913 00f3 3A       		.uleb128 0x3a
 3914 00f4 21       		.uleb128 0x21
 3915 00f5 06       		.sleb128 6
 3916 00f6 3B       		.uleb128 0x3b
 3917 00f7 0B       		.uleb128 0xb
 3918 00f8 39       		.uleb128 0x39
 3919 00f9 0B       		.uleb128 0xb
 3920 00fa 49       		.uleb128 0x49
 3921 00fb 13       		.uleb128 0x13
 3922 00fc 02       		.uleb128 0x2
 3923 00fd 18       		.uleb128 0x18
 3924 00fe 00       		.byte	0
 3925 00ff 00       		.byte	0
 3926 0100 12       		.uleb128 0x12
 3927 0101 05       		.uleb128 0x5
 3928 0102 00       		.byte	0
 3929 0103 03       		.uleb128 0x3
 3930 0104 0E       		.uleb128 0xe
 3931 0105 3A       		.uleb128 0x3a
 3932 0106 21       		.uleb128 0x21
 3933 0107 06       		.sleb128 6
ARM GAS  C:\Users\DEVELO~1\AppData\Local\Temp\cc6J7fdl.s 			page 70


 3934 0108 3B       		.uleb128 0x3b
 3935 0109 0B       		.uleb128 0xb
 3936 010a 39       		.uleb128 0x39
 3937 010b 0B       		.uleb128 0xb
 3938 010c 49       		.uleb128 0x49
 3939 010d 13       		.uleb128 0x13
 3940 010e 02       		.uleb128 0x2
 3941 010f 18       		.uleb128 0x18
 3942 0110 00       		.byte	0
 3943 0111 00       		.byte	0
 3944 0112 13       		.uleb128 0x13
 3945 0113 13       		.uleb128 0x13
 3946 0114 01       		.byte	0x1
 3947 0115 0B       		.uleb128 0xb
 3948 0116 0B       		.uleb128 0xb
 3949 0117 3A       		.uleb128 0x3a
 3950 0118 21       		.uleb128 0x21
 3951 0119 10       		.sleb128 16
 3952 011a 3B       		.uleb128 0x3b
 3953 011b 0B       		.uleb128 0xb
 3954 011c 39       		.uleb128 0x39
 3955 011d 0B       		.uleb128 0xb
 3956 011e 01       		.uleb128 0x1
 3957 011f 13       		.uleb128 0x13
 3958 0120 00       		.byte	0
 3959 0121 00       		.byte	0
 3960 0122 14       		.uleb128 0x14
 3961 0123 0D       		.uleb128 0xd
 3962 0124 00       		.byte	0
 3963 0125 03       		.uleb128 0x3
 3964 0126 0E       		.uleb128 0xe
 3965 0127 3A       		.uleb128 0x3a
 3966 0128 21       		.uleb128 0x21
 3967 0129 0B       		.sleb128 11
 3968 012a 3B       		.uleb128 0x3b
 3969 012b 05       		.uleb128 0x5
 3970 012c 39       		.uleb128 0x39
 3971 012d 0B       		.uleb128 0xb
 3972 012e 49       		.uleb128 0x49
 3973 012f 13       		.uleb128 0x13
 3974 0130 00       		.byte	0
 3975 0131 00       		.byte	0
 3976 0132 15       		.uleb128 0x15
 3977 0133 34       		.uleb128 0x34
 3978 0134 00       		.byte	0
 3979 0135 03       		.uleb128 0x3
 3980 0136 08       		.uleb128 0x8
 3981 0137 3A       		.uleb128 0x3a
 3982 0138 21       		.uleb128 0x21
 3983 0139 06       		.sleb128 6
 3984 013a 3B       		.uleb128 0x3b
 3985 013b 05       		.uleb128 0x5
 3986 013c 39       		.uleb128 0x39
 3987 013d 0B       		.uleb128 0xb
 3988 013e 49       		.uleb128 0x49
 3989 013f 13       		.uleb128 0x13
 3990 0140 02       		.uleb128 0x2
ARM GAS  C:\Users\DEVELO~1\AppData\Local\Temp\cc6J7fdl.s 			page 71


 3991 0141 18       		.uleb128 0x18
 3992 0142 00       		.byte	0
 3993 0143 00       		.byte	0
 3994 0144 16       		.uleb128 0x16
 3995 0145 05       		.uleb128 0x5
 3996 0146 00       		.byte	0
 3997 0147 49       		.uleb128 0x49
 3998 0148 13       		.uleb128 0x13
 3999 0149 00       		.byte	0
 4000 014a 00       		.byte	0
 4001 014b 17       		.uleb128 0x17
 4002 014c 2E       		.uleb128 0x2e
 4003 014d 01       		.byte	0x1
 4004 014e 3F       		.uleb128 0x3f
 4005 014f 19       		.uleb128 0x19
 4006 0150 03       		.uleb128 0x3
 4007 0151 0E       		.uleb128 0xe
 4008 0152 3A       		.uleb128 0x3a
 4009 0153 21       		.uleb128 0x21
 4010 0154 06       		.sleb128 6
 4011 0155 3B       		.uleb128 0x3b
 4012 0156 05       		.uleb128 0x5
 4013 0157 39       		.uleb128 0x39
 4014 0158 21       		.uleb128 0x21
 4015 0159 06       		.sleb128 6
 4016 015a 27       		.uleb128 0x27
 4017 015b 19       		.uleb128 0x19
 4018 015c 11       		.uleb128 0x11
 4019 015d 01       		.uleb128 0x1
 4020 015e 12       		.uleb128 0x12
 4021 015f 06       		.uleb128 0x6
 4022 0160 40       		.uleb128 0x40
 4023 0161 18       		.uleb128 0x18
 4024 0162 7C       		.uleb128 0x7c
 4025 0163 19       		.uleb128 0x19
 4026 0164 01       		.uleb128 0x1
 4027 0165 13       		.uleb128 0x13
 4028 0166 00       		.byte	0
 4029 0167 00       		.byte	0
 4030 0168 18       		.uleb128 0x18
 4031 0169 05       		.uleb128 0x5
 4032 016a 00       		.byte	0
 4033 016b 03       		.uleb128 0x3
 4034 016c 08       		.uleb128 0x8
 4035 016d 3A       		.uleb128 0x3a
 4036 016e 21       		.uleb128 0x21
 4037 016f 06       		.sleb128 6
 4038 0170 3B       		.uleb128 0x3b
 4039 0171 05       		.uleb128 0x5
 4040 0172 39       		.uleb128 0x39
 4041 0173 0B       		.uleb128 0xb
 4042 0174 49       		.uleb128 0x49
 4043 0175 13       		.uleb128 0x13
 4044 0176 02       		.uleb128 0x2
 4045 0177 18       		.uleb128 0x18
 4046 0178 00       		.byte	0
 4047 0179 00       		.byte	0
ARM GAS  C:\Users\DEVELO~1\AppData\Local\Temp\cc6J7fdl.s 			page 72


 4048 017a 19       		.uleb128 0x19
 4049 017b 13       		.uleb128 0x13
 4050 017c 01       		.byte	0x1
 4051 017d 03       		.uleb128 0x3
 4052 017e 0E       		.uleb128 0xe
 4053 017f 0B       		.uleb128 0xb
 4054 0180 0B       		.uleb128 0xb
 4055 0181 3A       		.uleb128 0x3a
 4056 0182 0B       		.uleb128 0xb
 4057 0183 3B       		.uleb128 0x3b
 4058 0184 05       		.uleb128 0x5
 4059 0185 39       		.uleb128 0x39
 4060 0186 0B       		.uleb128 0xb
 4061 0187 01       		.uleb128 0x1
 4062 0188 13       		.uleb128 0x13
 4063 0189 00       		.byte	0
 4064 018a 00       		.byte	0
 4065 018b 1A       		.uleb128 0x1a
 4066 018c 34       		.uleb128 0x34
 4067 018d 00       		.byte	0
 4068 018e 03       		.uleb128 0x3
 4069 018f 0E       		.uleb128 0xe
 4070 0190 3A       		.uleb128 0x3a
 4071 0191 21       		.uleb128 0x21
 4072 0192 06       		.sleb128 6
 4073 0193 3B       		.uleb128 0x3b
 4074 0194 0B       		.uleb128 0xb
 4075 0195 39       		.uleb128 0x39
 4076 0196 0B       		.uleb128 0xb
 4077 0197 49       		.uleb128 0x49
 4078 0198 13       		.uleb128 0x13
 4079 0199 02       		.uleb128 0x2
 4080 019a 18       		.uleb128 0x18
 4081 019b 00       		.byte	0
 4082 019c 00       		.byte	0
 4083 019d 1B       		.uleb128 0x1b
 4084 019e 1D       		.uleb128 0x1d
 4085 019f 01       		.byte	0x1
 4086 01a0 31       		.uleb128 0x31
 4087 01a1 13       		.uleb128 0x13
 4088 01a2 11       		.uleb128 0x11
 4089 01a3 01       		.uleb128 0x1
 4090 01a4 12       		.uleb128 0x12
 4091 01a5 06       		.uleb128 0x6
 4092 01a6 58       		.uleb128 0x58
 4093 01a7 0B       		.uleb128 0xb
 4094 01a8 59       		.uleb128 0x59
 4095 01a9 05       		.uleb128 0x5
 4096 01aa 57       		.uleb128 0x57
 4097 01ab 21       		.uleb128 0x21
 4098 01ac 03       		.sleb128 3
 4099 01ad 00       		.byte	0
 4100 01ae 00       		.byte	0
 4101 01af 1C       		.uleb128 0x1c
 4102 01b0 17       		.uleb128 0x17
 4103 01b1 01       		.byte	0x1
 4104 01b2 0B       		.uleb128 0xb
ARM GAS  C:\Users\DEVELO~1\AppData\Local\Temp\cc6J7fdl.s 			page 73


 4105 01b3 0B       		.uleb128 0xb
 4106 01b4 3A       		.uleb128 0x3a
 4107 01b5 0B       		.uleb128 0xb
 4108 01b6 3B       		.uleb128 0x3b
 4109 01b7 0B       		.uleb128 0xb
 4110 01b8 39       		.uleb128 0x39
 4111 01b9 21       		.uleb128 0x21
 4112 01ba 03       		.sleb128 3
 4113 01bb 01       		.uleb128 0x1
 4114 01bc 13       		.uleb128 0x13
 4115 01bd 00       		.byte	0
 4116 01be 00       		.byte	0
 4117 01bf 1D       		.uleb128 0x1d
 4118 01c0 0D       		.uleb128 0xd
 4119 01c1 00       		.byte	0
 4120 01c2 03       		.uleb128 0x3
 4121 01c3 08       		.uleb128 0x8
 4122 01c4 3A       		.uleb128 0x3a
 4123 01c5 21       		.uleb128 0x21
 4124 01c6 10       		.sleb128 16
 4125 01c7 3B       		.uleb128 0x3b
 4126 01c8 0B       		.uleb128 0xb
 4127 01c9 39       		.uleb128 0x39
 4128 01ca 21       		.uleb128 0x21
 4129 01cb 07       		.sleb128 7
 4130 01cc 49       		.uleb128 0x49
 4131 01cd 13       		.uleb128 0x13
 4132 01ce 00       		.byte	0
 4133 01cf 00       		.byte	0
 4134 01d0 1E       		.uleb128 0x1e
 4135 01d1 0D       		.uleb128 0xd
 4136 01d2 00       		.byte	0
 4137 01d3 03       		.uleb128 0x3
 4138 01d4 0E       		.uleb128 0xe
 4139 01d5 3A       		.uleb128 0x3a
 4140 01d6 21       		.uleb128 0x21
 4141 01d7 10       		.sleb128 16
 4142 01d8 3B       		.uleb128 0x3b
 4143 01d9 0B       		.uleb128 0xb
 4144 01da 39       		.uleb128 0x39
 4145 01db 21       		.uleb128 0x21
 4146 01dc 19       		.sleb128 25
 4147 01dd 49       		.uleb128 0x49
 4148 01de 13       		.uleb128 0x13
 4149 01df 0D       		.uleb128 0xd
 4150 01e0 0B       		.uleb128 0xb
 4151 01e1 6B       		.uleb128 0x6b
 4152 01e2 0B       		.uleb128 0xb
 4153 01e3 00       		.byte	0
 4154 01e4 00       		.byte	0
 4155 01e5 1F       		.uleb128 0x1f
 4156 01e6 2E       		.uleb128 0x2e
 4157 01e7 01       		.byte	0x1
 4158 01e8 3F       		.uleb128 0x3f
 4159 01e9 19       		.uleb128 0x19
 4160 01ea 03       		.uleb128 0x3
 4161 01eb 0E       		.uleb128 0xe
ARM GAS  C:\Users\DEVELO~1\AppData\Local\Temp\cc6J7fdl.s 			page 74


 4162 01ec 3A       		.uleb128 0x3a
 4163 01ed 21       		.uleb128 0x21
 4164 01ee 06       		.sleb128 6
 4165 01ef 3B       		.uleb128 0x3b
 4166 01f0 0B       		.uleb128 0xb
 4167 01f1 39       		.uleb128 0x39
 4168 01f2 21       		.uleb128 0x21
 4169 01f3 0D       		.sleb128 13
 4170 01f4 27       		.uleb128 0x27
 4171 01f5 19       		.uleb128 0x19
 4172 01f6 49       		.uleb128 0x49
 4173 01f7 13       		.uleb128 0x13
 4174 01f8 11       		.uleb128 0x11
 4175 01f9 01       		.uleb128 0x1
 4176 01fa 12       		.uleb128 0x12
 4177 01fb 06       		.uleb128 0x6
 4178 01fc 40       		.uleb128 0x40
 4179 01fd 18       		.uleb128 0x18
 4180 01fe 7C       		.uleb128 0x7c
 4181 01ff 19       		.uleb128 0x19
 4182 0200 01       		.uleb128 0x1
 4183 0201 13       		.uleb128 0x13
 4184 0202 00       		.byte	0
 4185 0203 00       		.byte	0
 4186 0204 20       		.uleb128 0x20
 4187 0205 34       		.uleb128 0x34
 4188 0206 00       		.byte	0
 4189 0207 03       		.uleb128 0x3
 4190 0208 08       		.uleb128 0x8
 4191 0209 3A       		.uleb128 0x3a
 4192 020a 21       		.uleb128 0x21
 4193 020b 06       		.sleb128 6
 4194 020c 3B       		.uleb128 0x3b
 4195 020d 0B       		.uleb128 0xb
 4196 020e 39       		.uleb128 0x39
 4197 020f 0B       		.uleb128 0xb
 4198 0210 49       		.uleb128 0x49
 4199 0211 13       		.uleb128 0x13
 4200 0212 02       		.uleb128 0x2
 4201 0213 18       		.uleb128 0x18
 4202 0214 00       		.byte	0
 4203 0215 00       		.byte	0
 4204 0216 21       		.uleb128 0x21
 4205 0217 2E       		.uleb128 0x2e
 4206 0218 01       		.byte	0x1
 4207 0219 3F       		.uleb128 0x3f
 4208 021a 19       		.uleb128 0x19
 4209 021b 03       		.uleb128 0x3
 4210 021c 0E       		.uleb128 0xe
 4211 021d 3A       		.uleb128 0x3a
 4212 021e 21       		.uleb128 0x21
 4213 021f 06       		.sleb128 6
 4214 0220 3B       		.uleb128 0x3b
 4215 0221 0B       		.uleb128 0xb
 4216 0222 39       		.uleb128 0x39
 4217 0223 21       		.uleb128 0x21
 4218 0224 06       		.sleb128 6
ARM GAS  C:\Users\DEVELO~1\AppData\Local\Temp\cc6J7fdl.s 			page 75


 4219 0225 27       		.uleb128 0x27
 4220 0226 19       		.uleb128 0x19
 4221 0227 11       		.uleb128 0x11
 4222 0228 01       		.uleb128 0x1
 4223 0229 12       		.uleb128 0x12
 4224 022a 06       		.uleb128 0x6
 4225 022b 40       		.uleb128 0x40
 4226 022c 18       		.uleb128 0x18
 4227 022d 7C       		.uleb128 0x7c
 4228 022e 19       		.uleb128 0x19
 4229 022f 01       		.uleb128 0x1
 4230 0230 13       		.uleb128 0x13
 4231 0231 00       		.byte	0
 4232 0232 00       		.byte	0
 4233 0233 22       		.uleb128 0x22
 4234 0234 35       		.uleb128 0x35
 4235 0235 00       		.byte	0
 4236 0236 49       		.uleb128 0x49
 4237 0237 13       		.uleb128 0x13
 4238 0238 00       		.byte	0
 4239 0239 00       		.byte	0
 4240 023a 23       		.uleb128 0x23
 4241 023b 16       		.uleb128 0x16
 4242 023c 00       		.byte	0
 4243 023d 03       		.uleb128 0x3
 4244 023e 0E       		.uleb128 0xe
 4245 023f 3A       		.uleb128 0x3a
 4246 0240 21       		.uleb128 0x21
 4247 0241 0B       		.sleb128 11
 4248 0242 3B       		.uleb128 0x3b
 4249 0243 05       		.uleb128 0x5
 4250 0244 39       		.uleb128 0x39
 4251 0245 21       		.uleb128 0x21
 4252 0246 03       		.sleb128 3
 4253 0247 49       		.uleb128 0x49
 4254 0248 13       		.uleb128 0x13
 4255 0249 00       		.byte	0
 4256 024a 00       		.byte	0
 4257 024b 24       		.uleb128 0x24
 4258 024c 2E       		.uleb128 0x2e
 4259 024d 01       		.byte	0x1
 4260 024e 3F       		.uleb128 0x3f
 4261 024f 19       		.uleb128 0x19
 4262 0250 03       		.uleb128 0x3
 4263 0251 0E       		.uleb128 0xe
 4264 0252 3A       		.uleb128 0x3a
 4265 0253 21       		.uleb128 0x21
 4266 0254 13       		.sleb128 19
 4267 0255 3B       		.uleb128 0x3b
 4268 0256 0B       		.uleb128 0xb
 4269 0257 39       		.uleb128 0x39
 4270 0258 0B       		.uleb128 0xb
 4271 0259 27       		.uleb128 0x27
 4272 025a 19       		.uleb128 0x19
 4273 025b 49       		.uleb128 0x49
 4274 025c 13       		.uleb128 0x13
 4275 025d 3C       		.uleb128 0x3c
ARM GAS  C:\Users\DEVELO~1\AppData\Local\Temp\cc6J7fdl.s 			page 76


 4276 025e 19       		.uleb128 0x19
 4277 025f 01       		.uleb128 0x1
 4278 0260 13       		.uleb128 0x13
 4279 0261 00       		.byte	0
 4280 0262 00       		.byte	0
 4281 0263 25       		.uleb128 0x25
 4282 0264 2E       		.uleb128 0x2e
 4283 0265 01       		.byte	0x1
 4284 0266 03       		.uleb128 0x3
 4285 0267 0E       		.uleb128 0xe
 4286 0268 3A       		.uleb128 0x3a
 4287 0269 21       		.uleb128 0x21
 4288 026a 01       		.sleb128 1
 4289 026b 3B       		.uleb128 0x3b
 4290 026c 05       		.uleb128 0x5
 4291 026d 39       		.uleb128 0x39
 4292 026e 21       		.uleb128 0x21
 4293 026f 14       		.sleb128 20
 4294 0270 27       		.uleb128 0x27
 4295 0271 19       		.uleb128 0x19
 4296 0272 11       		.uleb128 0x11
 4297 0273 01       		.uleb128 0x1
 4298 0274 12       		.uleb128 0x12
 4299 0275 06       		.uleb128 0x6
 4300 0276 40       		.uleb128 0x40
 4301 0277 18       		.uleb128 0x18
 4302 0278 7A       		.uleb128 0x7a
 4303 0279 19       		.uleb128 0x19
 4304 027a 01       		.uleb128 0x1
 4305 027b 13       		.uleb128 0x13
 4306 027c 00       		.byte	0
 4307 027d 00       		.byte	0
 4308 027e 26       		.uleb128 0x26
 4309 027f 05       		.uleb128 0x5
 4310 0280 00       		.byte	0
 4311 0281 31       		.uleb128 0x31
 4312 0282 13       		.uleb128 0x13
 4313 0283 02       		.uleb128 0x2
 4314 0284 18       		.uleb128 0x18
 4315 0285 00       		.byte	0
 4316 0286 00       		.byte	0
 4317 0287 27       		.uleb128 0x27
 4318 0288 2E       		.uleb128 0x2e
 4319 0289 00       		.byte	0
 4320 028a 03       		.uleb128 0x3
 4321 028b 0E       		.uleb128 0xe
 4322 028c 3A       		.uleb128 0x3a
 4323 028d 21       		.uleb128 0x21
 4324 028e 03       		.sleb128 3
 4325 028f 3B       		.uleb128 0x3b
 4326 0290 05       		.uleb128 0x5
 4327 0291 39       		.uleb128 0x39
 4328 0292 21       		.uleb128 0x21
 4329 0293 1B       		.sleb128 27
 4330 0294 27       		.uleb128 0x27
 4331 0295 19       		.uleb128 0x19
 4332 0296 20       		.uleb128 0x20
ARM GAS  C:\Users\DEVELO~1\AppData\Local\Temp\cc6J7fdl.s 			page 77


 4333 0297 21       		.uleb128 0x21
 4334 0298 03       		.sleb128 3
 4335 0299 00       		.byte	0
 4336 029a 00       		.byte	0
 4337 029b 28       		.uleb128 0x28
 4338 029c 11       		.uleb128 0x11
 4339 029d 01       		.byte	0x1
 4340 029e 25       		.uleb128 0x25
 4341 029f 0E       		.uleb128 0xe
 4342 02a0 13       		.uleb128 0x13
 4343 02a1 0B       		.uleb128 0xb
 4344 02a2 03       		.uleb128 0x3
 4345 02a3 0E       		.uleb128 0xe
 4346 02a4 1B       		.uleb128 0x1b
 4347 02a5 0E       		.uleb128 0xe
 4348 02a6 55       		.uleb128 0x55
 4349 02a7 17       		.uleb128 0x17
 4350 02a8 11       		.uleb128 0x11
 4351 02a9 01       		.uleb128 0x1
 4352 02aa 10       		.uleb128 0x10
 4353 02ab 17       		.uleb128 0x17
 4354 02ac 00       		.byte	0
 4355 02ad 00       		.byte	0
 4356 02ae 29       		.uleb128 0x29
 4357 02af 24       		.uleb128 0x24
 4358 02b0 00       		.byte	0
 4359 02b1 0B       		.uleb128 0xb
 4360 02b2 0B       		.uleb128 0xb
 4361 02b3 3E       		.uleb128 0x3e
 4362 02b4 0B       		.uleb128 0xb
 4363 02b5 03       		.uleb128 0x3
 4364 02b6 08       		.uleb128 0x8
 4365 02b7 00       		.byte	0
 4366 02b8 00       		.byte	0
 4367 02b9 2A       		.uleb128 0x2a
 4368 02ba 13       		.uleb128 0x13
 4369 02bb 01       		.byte	0x1
 4370 02bc 03       		.uleb128 0x3
 4371 02bd 0E       		.uleb128 0xe
 4372 02be 0B       		.uleb128 0xb
 4373 02bf 05       		.uleb128 0x5
 4374 02c0 3A       		.uleb128 0x3a
 4375 02c1 0B       		.uleb128 0xb
 4376 02c2 3B       		.uleb128 0x3b
 4377 02c3 05       		.uleb128 0x5
 4378 02c4 39       		.uleb128 0x39
 4379 02c5 0B       		.uleb128 0xb
 4380 02c6 01       		.uleb128 0x1
 4381 02c7 13       		.uleb128 0x13
 4382 02c8 00       		.byte	0
 4383 02c9 00       		.byte	0
 4384 02ca 2B       		.uleb128 0x2b
 4385 02cb 0F       		.uleb128 0xf
 4386 02cc 00       		.byte	0
 4387 02cd 0B       		.uleb128 0xb
 4388 02ce 0B       		.uleb128 0xb
 4389 02cf 00       		.byte	0
ARM GAS  C:\Users\DEVELO~1\AppData\Local\Temp\cc6J7fdl.s 			page 78


 4390 02d0 00       		.byte	0
 4391 02d1 2C       		.uleb128 0x2c
 4392 02d2 13       		.uleb128 0x13
 4393 02d3 01       		.byte	0x1
 4394 02d4 0B       		.uleb128 0xb
 4395 02d5 05       		.uleb128 0x5
 4396 02d6 3A       		.uleb128 0x3a
 4397 02d7 0B       		.uleb128 0xb
 4398 02d8 3B       		.uleb128 0x3b
 4399 02d9 0B       		.uleb128 0xb
 4400 02da 39       		.uleb128 0x39
 4401 02db 0B       		.uleb128 0xb
 4402 02dc 01       		.uleb128 0x1
 4403 02dd 13       		.uleb128 0x13
 4404 02de 00       		.byte	0
 4405 02df 00       		.byte	0
 4406 02e0 2D       		.uleb128 0x2d
 4407 02e1 34       		.uleb128 0x34
 4408 02e2 00       		.byte	0
 4409 02e3 03       		.uleb128 0x3
 4410 02e4 08       		.uleb128 0x8
 4411 02e5 3A       		.uleb128 0x3a
 4412 02e6 0B       		.uleb128 0xb
 4413 02e7 3B       		.uleb128 0x3b
 4414 02e8 05       		.uleb128 0x5
 4415 02e9 39       		.uleb128 0x39
 4416 02ea 0B       		.uleb128 0xb
 4417 02eb 49       		.uleb128 0x49
 4418 02ec 13       		.uleb128 0x13
 4419 02ed 3F       		.uleb128 0x3f
 4420 02ee 19       		.uleb128 0x19
 4421 02ef 3C       		.uleb128 0x3c
 4422 02f0 19       		.uleb128 0x19
 4423 02f1 00       		.byte	0
 4424 02f2 00       		.byte	0
 4425 02f3 2E       		.uleb128 0x2e
 4426 02f4 15       		.uleb128 0x15
 4427 02f5 01       		.byte	0x1
 4428 02f6 27       		.uleb128 0x27
 4429 02f7 19       		.uleb128 0x19
 4430 02f8 01       		.uleb128 0x1
 4431 02f9 13       		.uleb128 0x13
 4432 02fa 00       		.byte	0
 4433 02fb 00       		.byte	0
 4434 02fc 2F       		.uleb128 0x2f
 4435 02fd 2E       		.uleb128 0x2e
 4436 02fe 01       		.byte	0x1
 4437 02ff 3F       		.uleb128 0x3f
 4438 0300 19       		.uleb128 0x19
 4439 0301 03       		.uleb128 0x3
 4440 0302 0E       		.uleb128 0xe
 4441 0303 3A       		.uleb128 0x3a
 4442 0304 0B       		.uleb128 0xb
 4443 0305 3B       		.uleb128 0x3b
 4444 0306 0B       		.uleb128 0xb
 4445 0307 39       		.uleb128 0x39
 4446 0308 0B       		.uleb128 0xb
ARM GAS  C:\Users\DEVELO~1\AppData\Local\Temp\cc6J7fdl.s 			page 79


 4447 0309 27       		.uleb128 0x27
 4448 030a 19       		.uleb128 0x19
 4449 030b 3C       		.uleb128 0x3c
 4450 030c 19       		.uleb128 0x19
 4451 030d 01       		.uleb128 0x1
 4452 030e 13       		.uleb128 0x13
 4453 030f 00       		.byte	0
 4454 0310 00       		.byte	0
 4455 0311 30       		.uleb128 0x30
 4456 0312 2E       		.uleb128 0x2e
 4457 0313 00       		.byte	0
 4458 0314 3F       		.uleb128 0x3f
 4459 0315 19       		.uleb128 0x19
 4460 0316 03       		.uleb128 0x3
 4461 0317 0E       		.uleb128 0xe
 4462 0318 3A       		.uleb128 0x3a
 4463 0319 0B       		.uleb128 0xb
 4464 031a 3B       		.uleb128 0x3b
 4465 031b 0B       		.uleb128 0xb
 4466 031c 39       		.uleb128 0x39
 4467 031d 0B       		.uleb128 0xb
 4468 031e 27       		.uleb128 0x27
 4469 031f 19       		.uleb128 0x19
 4470 0320 3C       		.uleb128 0x3c
 4471 0321 19       		.uleb128 0x19
 4472 0322 00       		.byte	0
 4473 0323 00       		.byte	0
 4474 0324 31       		.uleb128 0x31
 4475 0325 2E       		.uleb128 0x2e
 4476 0326 01       		.byte	0x1
 4477 0327 3F       		.uleb128 0x3f
 4478 0328 19       		.uleb128 0x19
 4479 0329 03       		.uleb128 0x3
 4480 032a 0E       		.uleb128 0xe
 4481 032b 3A       		.uleb128 0x3a
 4482 032c 0B       		.uleb128 0xb
 4483 032d 3B       		.uleb128 0x3b
 4484 032e 0B       		.uleb128 0xb
 4485 032f 39       		.uleb128 0x39
 4486 0330 0B       		.uleb128 0xb
 4487 0331 27       		.uleb128 0x27
 4488 0332 19       		.uleb128 0x19
 4489 0333 49       		.uleb128 0x49
 4490 0334 13       		.uleb128 0x13
 4491 0335 11       		.uleb128 0x11
 4492 0336 01       		.uleb128 0x1
 4493 0337 12       		.uleb128 0x12
 4494 0338 06       		.uleb128 0x6
 4495 0339 40       		.uleb128 0x40
 4496 033a 18       		.uleb128 0x18
 4497 033b 7A       		.uleb128 0x7a
 4498 033c 19       		.uleb128 0x19
 4499 033d 01       		.uleb128 0x1
 4500 033e 13       		.uleb128 0x13
 4501 033f 00       		.byte	0
 4502 0340 00       		.byte	0
 4503 0341 32       		.uleb128 0x32
ARM GAS  C:\Users\DEVELO~1\AppData\Local\Temp\cc6J7fdl.s 			page 80


 4504 0342 2E       		.uleb128 0x2e
 4505 0343 01       		.byte	0x1
 4506 0344 03       		.uleb128 0x3
 4507 0345 0E       		.uleb128 0xe
 4508 0346 3A       		.uleb128 0x3a
 4509 0347 0B       		.uleb128 0xb
 4510 0348 3B       		.uleb128 0x3b
 4511 0349 05       		.uleb128 0x5
 4512 034a 39       		.uleb128 0x39
 4513 034b 0B       		.uleb128 0xb
 4514 034c 27       		.uleb128 0x27
 4515 034d 19       		.uleb128 0x19
 4516 034e 49       		.uleb128 0x49
 4517 034f 13       		.uleb128 0x13
 4518 0350 11       		.uleb128 0x11
 4519 0351 01       		.uleb128 0x1
 4520 0352 12       		.uleb128 0x12
 4521 0353 06       		.uleb128 0x6
 4522 0354 40       		.uleb128 0x40
 4523 0355 18       		.uleb128 0x18
 4524 0356 7A       		.uleb128 0x7a
 4525 0357 19       		.uleb128 0x19
 4526 0358 01       		.uleb128 0x1
 4527 0359 13       		.uleb128 0x13
 4528 035a 00       		.byte	0
 4529 035b 00       		.byte	0
 4530 035c 33       		.uleb128 0x33
 4531 035d 2E       		.uleb128 0x2e
 4532 035e 00       		.byte	0
 4533 035f 03       		.uleb128 0x3
 4534 0360 0E       		.uleb128 0xe
 4535 0361 3A       		.uleb128 0x3a
 4536 0362 0B       		.uleb128 0xb
 4537 0363 3B       		.uleb128 0x3b
 4538 0364 05       		.uleb128 0x5
 4539 0365 39       		.uleb128 0x39
 4540 0366 0B       		.uleb128 0xb
 4541 0367 27       		.uleb128 0x27
 4542 0368 19       		.uleb128 0x19
 4543 0369 49       		.uleb128 0x49
 4544 036a 13       		.uleb128 0x13
 4545 036b 11       		.uleb128 0x11
 4546 036c 01       		.uleb128 0x1
 4547 036d 12       		.uleb128 0x12
 4548 036e 06       		.uleb128 0x6
 4549 036f 40       		.uleb128 0x40
 4550 0370 18       		.uleb128 0x18
 4551 0371 7A       		.uleb128 0x7a
 4552 0372 19       		.uleb128 0x19
 4553 0373 00       		.byte	0
 4554 0374 00       		.byte	0
 4555 0375 34       		.uleb128 0x34
 4556 0376 2E       		.uleb128 0x2e
 4557 0377 01       		.byte	0x1
 4558 0378 03       		.uleb128 0x3
 4559 0379 0E       		.uleb128 0xe
 4560 037a 3A       		.uleb128 0x3a
ARM GAS  C:\Users\DEVELO~1\AppData\Local\Temp\cc6J7fdl.s 			page 81


 4561 037b 0B       		.uleb128 0xb
 4562 037c 3B       		.uleb128 0x3b
 4563 037d 05       		.uleb128 0x5
 4564 037e 39       		.uleb128 0x39
 4565 037f 0B       		.uleb128 0xb
 4566 0380 27       		.uleb128 0x27
 4567 0381 19       		.uleb128 0x19
 4568 0382 20       		.uleb128 0x20
 4569 0383 0B       		.uleb128 0xb
 4570 0384 00       		.byte	0
 4571 0385 00       		.byte	0
 4572 0386 35       		.uleb128 0x35
 4573 0387 05       		.uleb128 0x5
 4574 0388 00       		.byte	0
 4575 0389 03       		.uleb128 0x3
 4576 038a 0E       		.uleb128 0xe
 4577 038b 3A       		.uleb128 0x3a
 4578 038c 0B       		.uleb128 0xb
 4579 038d 3B       		.uleb128 0x3b
 4580 038e 05       		.uleb128 0x5
 4581 038f 39       		.uleb128 0x39
 4582 0390 0B       		.uleb128 0xb
 4583 0391 49       		.uleb128 0x49
 4584 0392 13       		.uleb128 0x13
 4585 0393 00       		.byte	0
 4586 0394 00       		.byte	0
 4587 0395 00       		.byte	0
 4588              		.section	.debug_aranges,"",%progbits
 4589 0000 CC000000 		.4byte	0xcc
 4590 0004 0200     		.2byte	0x2
 4591 0006 00000000 		.4byte	.Ldebug_info0
 4592 000a 04       		.byte	0x4
 4593 000b 00       		.byte	0
 4594 000c 0000     		.2byte	0
 4595 000e 0000     		.2byte	0
 4596 0010 00000000 		.4byte	.LFB202
 4597 0014 1E000000 		.4byte	.LFE202-.LFB202
 4598 0018 00000000 		.4byte	.LFB203
 4599 001c 1E000000 		.4byte	.LFE203-.LFB203
 4600 0020 00000000 		.4byte	.LFB229
 4601 0024 14000000 		.4byte	.LFE229-.LFB229
 4602 0028 00000000 		.4byte	.LFB257
 4603 002c 28000000 		.4byte	.LFE257-.LFB257
 4604 0030 00000000 		.4byte	.LFB346
 4605 0034 42000000 		.4byte	.LFE346-.LFB346
 4606 0038 00000000 		.4byte	.LFB347
 4607 003c 2A000000 		.4byte	.LFE347-.LFB347
 4608 0040 00000000 		.4byte	.LFB348
 4609 0044 44000000 		.4byte	.LFE348-.LFB348
 4610 0048 00000000 		.4byte	.LFB349
 4611 004c 30000000 		.4byte	.LFE349-.LFB349
 4612 0050 00000000 		.4byte	.LFB350
 4613 0054 22000000 		.4byte	.LFE350-.LFB350
 4614 0058 00000000 		.4byte	.LFB351
 4615 005c 22000000 		.4byte	.LFE351-.LFB351
 4616 0060 00000000 		.4byte	.LFB352
 4617 0064 26000000 		.4byte	.LFE352-.LFB352
ARM GAS  C:\Users\DEVELO~1\AppData\Local\Temp\cc6J7fdl.s 			page 82


 4618 0068 00000000 		.4byte	.LFB353
 4619 006c 2C000000 		.4byte	.LFE353-.LFB353
 4620 0070 00000000 		.4byte	.LFB354
 4621 0074 5E000000 		.4byte	.LFE354-.LFB354
 4622 0078 00000000 		.4byte	.LFB355
 4623 007c 26000000 		.4byte	.LFE355-.LFB355
 4624 0080 00000000 		.4byte	.LFB356
 4625 0084 58000000 		.4byte	.LFE356-.LFB356
 4626 0088 00000000 		.4byte	.LFB357
 4627 008c 26000000 		.4byte	.LFE357-.LFB357
 4628 0090 00000000 		.4byte	.LFB358
 4629 0094 54000000 		.4byte	.LFE358-.LFB358
 4630 0098 00000000 		.4byte	.LFB359
 4631 009c 5E000000 		.4byte	.LFE359-.LFB359
 4632 00a0 00000000 		.4byte	.LFB360
 4633 00a4 54000000 		.4byte	.LFE360-.LFB360
 4634 00a8 00000000 		.4byte	.LFB361
 4635 00ac 48000000 		.4byte	.LFE361-.LFB361
 4636 00b0 00000000 		.4byte	.LFB362
 4637 00b4 7E000000 		.4byte	.LFE362-.LFB362
 4638 00b8 00000000 		.4byte	.LFB363
 4639 00bc 74000000 		.4byte	.LFE363-.LFB363
 4640 00c0 00000000 		.4byte	.LFB364
 4641 00c4 68000000 		.4byte	.LFE364-.LFB364
 4642 00c8 00000000 		.4byte	0
 4643 00cc 00000000 		.4byte	0
 4644              		.section	.debug_rnglists,"",%progbits
 4645              	.Ldebug_ranges0:
 4646 0000 93000000 		.4byte	.Ldebug_ranges3-.Ldebug_ranges2
 4647              	.Ldebug_ranges2:
 4648 0004 0500     		.2byte	0x5
 4649 0006 04       		.byte	0x4
 4650 0007 00       		.byte	0
 4651 0008 00000000 		.4byte	0
 4652              	.LLRL0:
 4653 000c 07       		.byte	0x7
 4654 000d 00000000 		.4byte	.LFB202
 4655 0011 1E       		.uleb128 .LFE202-.LFB202
 4656 0012 07       		.byte	0x7
 4657 0013 00000000 		.4byte	.LFB203
 4658 0017 1E       		.uleb128 .LFE203-.LFB203
 4659 0018 07       		.byte	0x7
 4660 0019 00000000 		.4byte	.LFB229
 4661 001d 14       		.uleb128 .LFE229-.LFB229
 4662 001e 07       		.byte	0x7
 4663 001f 00000000 		.4byte	.LFB257
 4664 0023 28       		.uleb128 .LFE257-.LFB257
 4665 0024 07       		.byte	0x7
 4666 0025 00000000 		.4byte	.LFB346
 4667 0029 42       		.uleb128 .LFE346-.LFB346
 4668 002a 07       		.byte	0x7
 4669 002b 00000000 		.4byte	.LFB347
 4670 002f 2A       		.uleb128 .LFE347-.LFB347
 4671 0030 07       		.byte	0x7
 4672 0031 00000000 		.4byte	.LFB348
 4673 0035 44       		.uleb128 .LFE348-.LFB348
 4674 0036 07       		.byte	0x7
ARM GAS  C:\Users\DEVELO~1\AppData\Local\Temp\cc6J7fdl.s 			page 83


 4675 0037 00000000 		.4byte	.LFB349
 4676 003b 30       		.uleb128 .LFE349-.LFB349
 4677 003c 07       		.byte	0x7
 4678 003d 00000000 		.4byte	.LFB350
 4679 0041 22       		.uleb128 .LFE350-.LFB350
 4680 0042 07       		.byte	0x7
 4681 0043 00000000 		.4byte	.LFB351
 4682 0047 22       		.uleb128 .LFE351-.LFB351
 4683 0048 07       		.byte	0x7
 4684 0049 00000000 		.4byte	.LFB352
 4685 004d 26       		.uleb128 .LFE352-.LFB352
 4686 004e 07       		.byte	0x7
 4687 004f 00000000 		.4byte	.LFB353
 4688 0053 2C       		.uleb128 .LFE353-.LFB353
 4689 0054 07       		.byte	0x7
 4690 0055 00000000 		.4byte	.LFB354
 4691 0059 5E       		.uleb128 .LFE354-.LFB354
 4692 005a 07       		.byte	0x7
 4693 005b 00000000 		.4byte	.LFB355
 4694 005f 26       		.uleb128 .LFE355-.LFB355
 4695 0060 07       		.byte	0x7
 4696 0061 00000000 		.4byte	.LFB356
 4697 0065 58       		.uleb128 .LFE356-.LFB356
 4698 0066 07       		.byte	0x7
 4699 0067 00000000 		.4byte	.LFB357
 4700 006b 26       		.uleb128 .LFE357-.LFB357
 4701 006c 07       		.byte	0x7
 4702 006d 00000000 		.4byte	.LFB358
 4703 0071 54       		.uleb128 .LFE358-.LFB358
 4704 0072 07       		.byte	0x7
 4705 0073 00000000 		.4byte	.LFB359
 4706 0077 5E       		.uleb128 .LFE359-.LFB359
 4707 0078 07       		.byte	0x7
 4708 0079 00000000 		.4byte	.LFB360
 4709 007d 54       		.uleb128 .LFE360-.LFB360
 4710 007e 07       		.byte	0x7
 4711 007f 00000000 		.4byte	.LFB361
 4712 0083 48       		.uleb128 .LFE361-.LFB361
 4713 0084 07       		.byte	0x7
 4714 0085 00000000 		.4byte	.LFB362
 4715 0089 7E       		.uleb128 .LFE362-.LFB362
 4716 008a 07       		.byte	0x7
 4717 008b 00000000 		.4byte	.LFB363
 4718 008f 74       		.uleb128 .LFE363-.LFB363
 4719 0090 07       		.byte	0x7
 4720 0091 00000000 		.4byte	.LFB364
 4721 0095 68       		.uleb128 .LFE364-.LFB364
 4722 0096 00       		.byte	0
 4723              	.Ldebug_ranges3:
 4724              		.section	.debug_line,"",%progbits
 4725              	.Ldebug_line0:
 4726 0000 EC060000 		.section	.debug_str,"MS",%progbits,1
 4726      03005602 
 4726      00000201 
 4726      FB0E0D00 
 4726      01010101 
 4727              	.LASF52:
ARM GAS  C:\Users\DEVELO~1\AppData\Local\Temp\cc6J7fdl.s 			page 84


 4728 0000 636F7265 		.ascii	"core_id\000"
 4728      5F696400 
 4729              	.LASF115:
 4730 0008 72656164 		.ascii	"ready_list_t\000"
 4730      795F6C69 
 4730      73745F74 
 4730      00
 4731              	.LASF106:
 4732 0015 77747472 		.ascii	"wttrp\000"
 4732      7000
 4733              	.LASF104:
 4734 001b 7264796D 		.ascii	"rdymsg\000"
 4734      736700
 4735              	.LASF53:
 4736 0022 72666375 		.ascii	"rfcu\000"
 4736      00
 4737              	.LASF6:
 4738 0027 5F5F7569 		.ascii	"__uint8_t\000"
 4738      6E74385F 
 4738      7400
 4739              	.LASF72:
 4740 0031 70726576 		.ascii	"prev\000"
 4740      00
 4741              	.LASF91:
 4742 0036 706F7274 		.ascii	"port_intctx\000"
 4742      5F696E74 
 4742      63747800 
 4743              	.LASF50:
 4744 0042 76746C69 		.ascii	"vtlist\000"
 4744      737400
 4745              	.LASF147:
 4746 0049 63684576 		.ascii	"chEvtSignal\000"
 4746      74536967 
 4746      6E616C00 
 4747              	.LASF83:
 4748 0055 74797065 		.ascii	"type\000"
 4748      00
 4749              	.LASF86:
 4750 005a 74726163 		.ascii	"trace_event_t\000"
 4750      655F6576 
 4750      656E745F 
 4750      7400
 4751              	.LASF81:
 4752 0068 68616C74 		.ascii	"halt\000"
 4752      00
 4753              	.LASF151:
 4754 006d 63684576 		.ascii	"chEvtAddEvents\000"
 4754      74416464 
 4754      4576656E 
 4754      747300
 4755              	.LASF105:
 4756 007c 65786974 		.ascii	"exitcode\000"
 4756      636F6465 
 4756      00
 4757              	.LASF55:
 4758 0085 6D61696E 		.ascii	"mainthread\000"
 4758      74687265 
ARM GAS  C:\Users\DEVELO~1\AppData\Local\Temp\cc6J7fdl.s 			page 85


 4758      616400
 4759              	.LASF107:
 4760 0090 73656E74 		.ascii	"sentmsg\000"
 4760      6D736700 
 4761              	.LASF78:
 4762 0098 64656C74 		.ascii	"delta\000"
 4762      6100
 4763              	.LASF69:
 4764 009e 6E657874 		.ascii	"next\000"
 4764      00
 4765              	.LASF136:
 4766 00a3 63684576 		.ascii	"chEvtWaitAnyTimeout\000"
 4766      74576169 
 4766      74416E79 
 4766      54696D65 
 4766      6F757400 
 4767              	.LASF167:
 4768 00b7 63684576 		.ascii	"chEvtAddEventsI\000"
 4768      74416464 
 4768      4576656E 
 4768      74734900 
 4769              	.LASF3:
 4770 00c7 7369676E 		.ascii	"signed char\000"
 4770      65642063 
 4770      68617200 
 4771              	.LASF135:
 4772 00d3 63684576 		.ascii	"chEvtWaitAllTimeout\000"
 4772      74576169 
 4772      74416C6C 
 4772      54696D65 
 4772      6F757400 
 4773              	.LASF77:
 4774 00e7 63685F64 		.ascii	"ch_delta_list\000"
 4774      656C7461 
 4774      5F6C6973 
 4774      7400
 4775              	.LASF14:
 4776 00f5 6C6F6E67 		.ascii	"long long unsigned int\000"
 4776      206C6F6E 
 4776      6720756E 
 4776      7369676E 
 4776      65642069 
 4777              	.LASF170:
 4778 010c 62617365 		.ascii	"basePri\000"
 4778      50726900 
 4779              	.LASF162:
 4780 0114 474E5520 		.ascii	"GNU C17 11.3.1 20220712 -mcpu=cortex-m7 -mthumb -mf"
 4780      43313720 
 4780      31312E33 
 4780      2E312032 
 4780      30323230 
 4781 0147 6C6F6174 		.ascii	"loat-abi=soft -march=armv7e-m -ggdb -O0 -ffunction-"
 4781      2D616269 
 4781      3D736F66 
 4781      74202D6D 
 4781      61726368 
 4782 017a 73656374 		.ascii	"sections -fdata-sections -fno-common\000"
ARM GAS  C:\Users\DEVELO~1\AppData\Local\Temp\cc6J7fdl.s 			page 86


 4782      696F6E73 
 4782      202D6664 
 4782      6174612D 
 4782      73656374 
 4783              	.LASF37:
 4784 019f 73746174 		.ascii	"state\000"
 4784      6500
 4785              	.LASF10:
 4786 01a5 6C6F6E67 		.ascii	"long int\000"
 4786      20696E74 
 4786      00
 4787              	.LASF56:
 4788 01ae 74726163 		.ascii	"trace_buffer\000"
 4788      655F6275 
 4788      66666572 
 4788      00
 4789              	.LASF58:
 4790 01bb 63685F72 		.ascii	"ch_rfcu\000"
 4790      66637500 
 4791              	.LASF140:
 4792 01c3 63684576 		.ascii	"chEvtWaitAny\000"
 4792      74576169 
 4792      74416E79 
 4792      00
 4793              	.LASF160:
 4794 01d0 706F7274 		.ascii	"port_unlock\000"
 4794      5F756E6C 
 4794      6F636B00 
 4795              	.LASF71:
 4796 01dc 63685F71 		.ascii	"ch_queue\000"
 4796      75657565 
 4796      00
 4797              	.LASF1:
 4798 01e5 6C6F6E67 		.ascii	"long long int\000"
 4798      206C6F6E 
 4798      6720696E 
 4798      7400
 4799              	.LASF169:
 4800 01f3 5F5F7365 		.ascii	"__set_BASEPRI\000"
 4800      745F4241 
 4800      53455052 
 4800      4900
 4801              	.LASF16:
 4802 0201 75696E74 		.ascii	"uint16_t\000"
 4802      31365F74 
 4802      00
 4803              	.LASF90:
 4804 020a 74726163 		.ascii	"trace_buffer_t\000"
 4804      655F6275 
 4804      66666572 
 4804      5F7400
 4805              	.LASF145:
 4806 0219 63684576 		.ascii	"chEvtBroadcastFlagsI\000"
 4806      7442726F 
 4806      61646361 
 4806      7374466C 
 4806      61677349 
ARM GAS  C:\Users\DEVELO~1\AppData\Local\Temp\cc6J7fdl.s 			page 87


 4807              	.LASF98:
 4808 022e 63685F72 		.ascii	"ch_registry\000"
 4808      65676973 
 4808      74727900 
 4809              	.LASF127:
 4810 023a 77666C61 		.ascii	"wflags\000"
 4810      677300
 4811              	.LASF166:
 4812 0241 63685363 		.ascii	"chSchRescheduleS\000"
 4812      68526573 
 4812      63686564 
 4812      756C6553 
 4812      00
 4813              	.LASF11:
 4814 0252 5F5F7569 		.ascii	"__uint32_t\000"
 4814      6E743332 
 4814      5F7400
 4815              	.LASF59:
 4816 025d 6D61736B 		.ascii	"mask\000"
 4816      00
 4817              	.LASF144:
 4818 0262 63684576 		.ascii	"chEvtBroadcastFlags\000"
 4818      7442726F 
 4818      61646361 
 4818      7374466C 
 4818      61677300 
 4819              	.LASF40:
 4820 0276 77616974 		.ascii	"waiting\000"
 4820      696E6700 
 4821              	.LASF27:
 4822 027e 6576656E 		.ascii	"eventid_t\000"
 4822      7469645F 
 4822      7400
 4823              	.LASF117:
 4824 0288 6D61696E 		.ascii	"mainthread_base\000"
 4824      74687265 
 4824      61645F62 
 4824      61736500 
 4825              	.LASF122:
 4826 0298 6D757465 		.ascii	"mutex_t\000"
 4826      785F7400 
 4827              	.LASF129:
 4828 02a0 6576656E 		.ascii	"event_source_t\000"
 4828      745F736F 
 4828      75726365 
 4828      5F7400
 4829              	.LASF66:
 4830 02af 73797369 		.ascii	"sysinterval_t\000"
 4830      6E746572 
 4830      76616C5F 
 4830      7400
 4831              	.LASF130:
 4832 02bd 65766861 		.ascii	"evhandler_t\000"
 4832      6E646C65 
 4832      725F7400 
 4833              	.LASF30:
 4834 02c9 636E745F 		.ascii	"cnt_t\000"
ARM GAS  C:\Users\DEVELO~1\AppData\Local\Temp\cc6J7fdl.s 			page 88


 4834      7400
 4835              	.LASF41:
 4836 02cf 6D736771 		.ascii	"msgqueue\000"
 4836      75657565 
 4836      00
 4837              	.LASF0:
 4838 02d8 756E7369 		.ascii	"unsigned int\000"
 4838      676E6564 
 4838      20696E74 
 4838      00
 4839              	.LASF119:
 4840 02e5 69646C65 		.ascii	"idlethread_base\000"
 4840      74687265 
 4840      61645F62 
 4840      61736500 
 4841              	.LASF108:
 4842 02f5 77747365 		.ascii	"wtsemp\000"
 4842      6D7000
 4843              	.LASF64:
 4844 02fc 73797374 		.ascii	"system_debug_t\000"
 4844      656D5F64 
 4844      65627567 
 4844      5F7400
 4845              	.LASF12:
 4846 030b 6C6F6E67 		.ascii	"long unsigned int\000"
 4846      20756E73 
 4846      69676E65 
 4846      6420696E 
 4846      7400
 4847              	.LASF153:
 4848 031d 63684576 		.ascii	"chEvtGetAndClearEvents\000"
 4848      74476574 
 4848      416E6443 
 4848      6C656172 
 4848      4576656E 
 4849              	.LASF70:
 4850 0334 63685F71 		.ascii	"ch_queue_t\000"
 4850      75657565 
 4850      5F7400
 4851              	.LASF163:
 4852 033f 2E2E2F2E 		.ascii	"../../../os/rt/src/chevents.c\000"
 4852      2E2F2E2E 
 4852      2F6F732F 
 4852      72742F73 
 4852      72632F63 
 4853              	.LASF134:
 4854 035d 74696D65 		.ascii	"timeout\000"
 4854      6F757400 
 4855              	.LASF35:
 4856 0365 6E616D65 		.ascii	"name\000"
 4856      00
 4857              	.LASF99:
 4858 036a 71756575 		.ascii	"queue\000"
 4858      6500
 4859              	.LASF45:
 4860 0370 6D706F6F 		.ascii	"mpool\000"
 4860      6C00
ARM GAS  C:\Users\DEVELO~1\AppData\Local\Temp\cc6J7fdl.s 			page 89


 4861              	.LASF88:
 4862 0376 73697A65 		.ascii	"size\000"
 4862      00
 4863              	.LASF8:
 4864 037b 73686F72 		.ascii	"short unsigned int\000"
 4864      7420756E 
 4864      7369676E 
 4864      65642069 
 4864      6E7400
 4865              	.LASF47:
 4866 038e 63685F74 		.ascii	"ch_thread\000"
 4866      68726561 
 4866      6400
 4867              	.LASF137:
 4868 0398 63757272 		.ascii	"currtp\000"
 4868      747000
 4869              	.LASF29:
 4870 039f 6576656E 		.ascii	"eventflags_t\000"
 4870      74666C61 
 4870      67735F74 
 4870      00
 4871              	.LASF26:
 4872 03ac 6D73675F 		.ascii	"msg_t\000"
 4872      7400
 4873              	.LASF42:
 4874 03b2 6570656E 		.ascii	"epending\000"
 4874      64696E67 
 4874      00
 4875              	.LASF155:
 4876 03bb 63684576 		.ascii	"chEvtUnregister\000"
 4876      74556E72 
 4876      65676973 
 4876      74657200 
 4877              	.LASF156:
 4878 03cb 63684576 		.ascii	"chEvtRegisterMaskWithFlags\000"
 4878      74526567 
 4878      69737465 
 4878      724D6173 
 4878      6B576974 
 4879              	.LASF22:
 4880 03e6 746D6F64 		.ascii	"tmode_t\000"
 4880      655F7400 
 4881              	.LASF68:
 4882 03ee 63685F6C 		.ascii	"ch_list\000"
 4882      69737400 
 4883              	.LASF113:
 4884 03f6 63685F72 		.ascii	"ch_ready_list\000"
 4884      65616479 
 4884      5F6C6973 
 4884      7400
 4885              	.LASF28:
 4886 0404 6576656E 		.ascii	"eventmask_t\000"
 4886      746D6173 
 4886      6B5F7400 
 4887              	.LASF5:
 4888 0410 73686F72 		.ascii	"short int\000"
 4888      7420696E 
ARM GAS  C:\Users\DEVELO~1\AppData\Local\Temp\cc6J7fdl.s 			page 90


 4888      7400
 4889              	.LASF9:
 4890 041a 5F5F696E 		.ascii	"__int32_t\000"
 4890      7433325F 
 4890      7400
 4891              	.LASF97:
 4892 0424 76697274 		.ascii	"virtual_timers_list_t\000"
 4892      75616C5F 
 4892      74696D65 
 4892      72735F6C 
 4892      6973745F 
 4893              	.LASF21:
 4894 043a 73746B61 		.ascii	"stkalign_t\000"
 4894      6C69676E 
 4894      5F7400
 4895              	.LASF23:
 4896 0445 74737461 		.ascii	"tstate_t\000"
 4896      74655F74 
 4896      00
 4897              	.LASF84:
 4898 044e 72747374 		.ascii	"rtstamp\000"
 4898      616D7000 
 4899              	.LASF96:
 4900 0456 6C617374 		.ascii	"laststamp\000"
 4900      7374616D 
 4900      7000
 4901              	.LASF123:
 4902 0460 6576656E 		.ascii	"event_listener_t\000"
 4902      745F6C69 
 4902      7374656E 
 4902      65725F74 
 4902      00
 4903              	.LASF44:
 4904 0471 7265616C 		.ascii	"realprio\000"
 4904      7072696F 
 4904      00
 4905              	.LASF57:
 4906 047a 72666375 		.ascii	"rfcu_mask_t\000"
 4906      5F6D6173 
 4906      6B5F7400 
 4907              	.LASF101:
 4908 0486 74687265 		.ascii	"thread_reference_t\000"
 4908      61645F72 
 4908      65666572 
 4908      656E6365 
 4908      5F7400
 4909              	.LASF125:
 4910 0499 6C697374 		.ascii	"listener\000"
 4910      656E6572 
 4910      00
 4911              	.LASF93:
 4912 04a2 63685F76 		.ascii	"ch_virtual_timers_list\000"
 4912      69727475 
 4912      616C5F74 
 4912      696D6572 
 4912      735F6C69 
 4913              	.LASF143:
ARM GAS  C:\Users\DEVELO~1\AppData\Local\Temp\cc6J7fdl.s 			page 91


 4914 04b9 63684576 		.ascii	"chEvtDispatch\000"
 4914      74446973 
 4914      70617463 
 4914      6800
 4915              	.LASF67:
 4916 04c7 63685F6C 		.ascii	"ch_list_t\000"
 4916      6973745F 
 4916      7400
 4917              	.LASF87:
 4918 04d1 73757370 		.ascii	"suspended\000"
 4918      656E6465 
 4918      6400
 4919              	.LASF19:
 4920 04db 75696E74 		.ascii	"uint64_t\000"
 4920      36345F74 
 4920      00
 4921              	.LASF116:
 4922 04e4 63685F6F 		.ascii	"ch_os_instance_config\000"
 4922      735F696E 
 4922      7374616E 
 4922      63655F63 
 4922      6F6E6669 
 4923              	.LASF92:
 4924 04fa 706F7274 		.ascii	"port_context\000"
 4924      5F636F6E 
 4924      74657874 
 4924      00
 4925              	.LASF85:
 4926 0507 74696D65 		.ascii	"time\000"
 4926      00
 4927              	.LASF139:
 4928 050c 63684576 		.ascii	"chEvtWaitAll\000"
 4928      74576169 
 4928      74416C6C 
 4928      00
 4929              	.LASF75:
 4930 0519 7072696F 		.ascii	"prio\000"
 4930      00
 4931              	.LASF114:
 4932 051e 63757272 		.ascii	"current\000"
 4932      656E7400 
 4933              	.LASF13:
 4934 0526 5F5F7569 		.ascii	"__uint64_t\000"
 4934      6E743634 
 4934      5F7400
 4935              	.LASF142:
 4936 0531 68616E64 		.ascii	"handlers\000"
 4936      6C657273 
 4936      00
 4937              	.LASF31:
 4938 053a 636F7265 		.ascii	"core_id_t\000"
 4938      5F69645F 
 4938      7400
 4939              	.LASF24:
 4940 0544 74726566 		.ascii	"trefs_t\000"
 4940      735F7400 
 4941              	.LASF39:
ARM GAS  C:\Users\DEVELO~1\AppData\Local\Temp\cc6J7fdl.s 			page 92


 4942 054c 72656673 		.ascii	"refs\000"
 4942      00
 4943              	.LASF82:
 4944 0551 75736572 		.ascii	"user\000"
 4944      00
 4945              	.LASF25:
 4946 0556 74707269 		.ascii	"tprio_t\000"
 4946      6F5F7400 
 4947              	.LASF61:
 4948 055e 63685F73 		.ascii	"ch_system_debug\000"
 4948      79737465 
 4948      6D5F6465 
 4948      62756700 
 4949              	.LASF131:
 4950 056e 5F426F6F 		.ascii	"_Bool\000"
 4950      6C00
 4951              	.LASF17:
 4952 0574 696E7433 		.ascii	"int32_t\000"
 4952      325F7400 
 4953              	.LASF4:
 4954 057c 756E7369 		.ascii	"unsigned char\000"
 4954      676E6564 
 4954      20636861 
 4954      7200
 4955              	.LASF141:
 4956 058a 63684576 		.ascii	"chEvtWaitOne\000"
 4956      74576169 
 4956      744F6E65 
 4956      00
 4957              	.LASF157:
 4958 0597 63684576 		.ascii	"chEvtRegisterMaskWithFlagsI\000"
 4958      74526567 
 4958      69737465 
 4958      724D6173 
 4958      6B576974 
 4959              	.LASF60:
 4960 05b3 72666375 		.ascii	"rfcu_t\000"
 4960      5F7400
 4961              	.LASF132:
 4962 05ba 63685363 		.ascii	"chSchGoSleepTimeoutS\000"
 4962      68476F53 
 4962      6C656570 
 4962      54696D65 
 4962      6F757453 
 4963              	.LASF95:
 4964 05cf 6C617374 		.ascii	"lasttime\000"
 4964      74696D65 
 4964      00
 4965              	.LASF150:
 4966 05d8 63684576 		.ascii	"chEvtGetAndClearFlagsI\000"
 4966      74476574 
 4966      416E6443 
 4966      6C656172 
 4966      466C6167 
 4967              	.LASF79:
 4968 05ef 77746F62 		.ascii	"wtobjp\000"
 4968      6A7000
ARM GAS  C:\Users\DEVELO~1\AppData\Local\Temp\cc6J7fdl.s 			page 93


 4969              	.LASF110:
 4970 05f6 65776D61 		.ascii	"ewmask\000"
 4970      736B00
 4971              	.LASF146:
 4972 05fd 5F5F6675 		.ascii	"__func__\000"
 4972      6E635F5F 
 4972      00
 4973              	.LASF159:
 4974 0606 63685379 		.ascii	"chSysLock\000"
 4974      734C6F63 
 4974      6B00
 4975              	.LASF80:
 4976 0610 72656173 		.ascii	"reason\000"
 4976      6F6E00
 4977              	.LASF111:
 4978 0617 63685F73 		.ascii	"ch_semaphore\000"
 4978      656D6170 
 4978      686F7265 
 4978      00
 4979              	.LASF165:
 4980 0624 63685363 		.ascii	"chSchGoSleepS\000"
 4980      68476F53 
 4980      6C656570 
 4980      5300
 4981              	.LASF100:
 4982 0632 72656769 		.ascii	"registry_t\000"
 4982      73747279 
 4982      5F7400
 4983              	.LASF126:
 4984 063d 6576656E 		.ascii	"events\000"
 4984      747300
 4985              	.LASF18:
 4986 0644 75696E74 		.ascii	"uint32_t\000"
 4986      33325F74 
 4986      00
 4987              	.LASF109:
 4988 064d 77746D74 		.ascii	"wtmtxp\000"
 4988      787000
 4989              	.LASF20:
 4990 0654 706F7274 		.ascii	"port_stkalign_t\000"
 4990      5F73746B 
 4990      616C6967 
 4990      6E5F7400 
 4991              	.LASF34:
 4992 0664 6F776E65 		.ascii	"owner\000"
 4992      7200
 4993              	.LASF2:
 4994 066a 6C6F6E67 		.ascii	"long double\000"
 4994      20646F75 
 4994      626C6500 
 4995              	.LASF36:
 4996 0676 77616261 		.ascii	"wabase\000"
 4996      736500
 4997              	.LASF63:
 4998 067d 63686172 		.ascii	"char\000"
 4998      00
 4999              	.LASF54:
ARM GAS  C:\Users\DEVELO~1\AppData\Local\Temp\cc6J7fdl.s 			page 94


 5000 0682 636F6E66 		.ascii	"config\000"
 5000      696700
 5001              	.LASF7:
 5002 0689 5F5F7569 		.ascii	"__uint16_t\000"
 5002      6E743136 
 5002      5F7400
 5003              	.LASF133:
 5004 0694 63685363 		.ascii	"chSchReadyI\000"
 5004      68526561 
 5004      64794900 
 5005              	.LASF32:
 5006 06a0 74687265 		.ascii	"thread_t\000"
 5006      61645F74 
 5006      00
 5007              	.LASF94:
 5008 06a9 646C6973 		.ascii	"dlist\000"
 5008      7400
 5009              	.LASF65:
 5010 06af 73797374 		.ascii	"systime_t\000"
 5010      696D655F 
 5010      7400
 5011              	.LASF89:
 5012 06b9 62756666 		.ascii	"buffer\000"
 5012      657200
 5013              	.LASF73:
 5014 06c0 63685F70 		.ascii	"ch_priority_queue_t\000"
 5014      72696F72 
 5014      6974795F 
 5014      71756575 
 5014      655F7400 
 5015              	.LASF62:
 5016 06d4 70616E69 		.ascii	"panic_msg\000"
 5016      635F6D73 
 5016      6700
 5017              	.LASF103:
 5018 06de 70717565 		.ascii	"pqueue\000"
 5018      756500
 5019              	.LASF48:
 5020 06e5 63685F6F 		.ascii	"ch_os_instance\000"
 5020      735F696E 
 5020      7374616E 
 5020      636500
 5021              	.LASF46:
 5022 06f4 6F735F69 		.ascii	"os_instance_t\000"
 5022      6E737461 
 5022      6E63655F 
 5022      7400
 5023              	.LASF51:
 5024 0702 7265676C 		.ascii	"reglist\000"
 5024      69737400 
 5025              	.LASF74:
 5026 070a 63685F70 		.ascii	"ch_priority_queue\000"
 5026      72696F72 
 5026      6974795F 
 5026      71756575 
 5026      6500
 5027              	.LASF76:
ARM GAS  C:\Users\DEVELO~1\AppData\Local\Temp\cc6J7fdl.s 			page 95


 5028 071c 63685F64 		.ascii	"ch_delta_list_t\000"
 5028      656C7461 
 5028      5F6C6973 
 5028      745F7400 
 5029              	.LASF118:
 5030 072c 6D61696E 		.ascii	"mainthread_end\000"
 5030      74687265 
 5030      61645F65 
 5030      6E6400
 5031              	.LASF121:
 5032 073b 6F735F69 		.ascii	"os_instance_config_t\000"
 5032      6E737461 
 5032      6E63655F 
 5032      636F6E66 
 5032      69675F74 
 5033              	.LASF49:
 5034 0750 726C6973 		.ascii	"rlist\000"
 5034      7400
 5035              	.LASF128:
 5036 0756 6576656E 		.ascii	"event_source\000"
 5036      745F736F 
 5036      75726365 
 5036      00
 5037              	.LASF168:
 5038 0763 63685468 		.ascii	"chThdGetSelfX\000"
 5038      64476574 
 5038      53656C66 
 5038      5800
 5039              	.LASF15:
 5040 0771 75696E74 		.ascii	"uint8_t\000"
 5040      385F7400 
 5041              	.LASF38:
 5042 0779 666C6167 		.ascii	"flags\000"
 5042      7300
 5043              	.LASF138:
 5044 077f 63684576 		.ascii	"chEvtWaitOneTimeout\000"
 5044      74576169 
 5044      744F6E65 
 5044      54696D65 
 5044      6F757400 
 5045              	.LASF112:
 5046 0793 63685F6D 		.ascii	"ch_mutex\000"
 5046      75746578 
 5046      00
 5047              	.LASF33:
 5048 079c 72717565 		.ascii	"rqueue\000"
 5048      756500
 5049              	.LASF154:
 5050 07a3 63684576 		.ascii	"chEvtGetAndClearEventsI\000"
 5050      74476574 
 5050      416E6443 
 5050      6C656172 
 5050      4576656E 
 5051              	.LASF149:
 5052 07bb 63684576 		.ascii	"chEvtGetAndClearFlags\000"
 5052      74476574 
 5052      416E6443 
ARM GAS  C:\Users\DEVELO~1\AppData\Local\Temp\cc6J7fdl.s 			page 96


 5052      6C656172 
 5052      466C6167 
 5053              	.LASF158:
 5054 07d1 63685379 		.ascii	"chSysUnlock\000"
 5054      73556E6C 
 5054      6F636B00 
 5055              	.LASF152:
 5056 07dd 6E657765 		.ascii	"newevt\000"
 5056      767400
 5057              	.LASF102:
 5058 07e4 6C697374 		.ascii	"list\000"
 5058      00
 5059              	.LASF161:
 5060 07e9 706F7274 		.ascii	"port_lock\000"
 5060      5F6C6F63 
 5060      6B00
 5061              	.LASF120:
 5062 07f3 69646C65 		.ascii	"idlethread_end\000"
 5062      74687265 
 5062      61645F65 
 5062      6E6400
 5063              	.LASF43:
 5064 0802 6D74786C 		.ascii	"mtxlist\000"
 5064      69737400 
 5065              	.LASF164:
 5066 080a 433A5C50 		.ascii	"C:\\PROJET\\ChibiOS project\\ChibiOS_21.11.4\\demos"
 5066      524F4A45 
 5066      545C4368 
 5066      6962694F 
 5066      53207072 
 5067 0839 5C53544D 		.ascii	"\\STM32\\RT-STM32H743ZI_REV_XY-NUCLEO144_Quartz8M\000"
 5067      33325C52 
 5067      542D5354 
 5067      4D333248 
 5067      3734335A 
 5068              	.LASF124:
 5069 0869 6576656E 		.ascii	"event_listener\000"
 5069      745F6C69 
 5069      7374656E 
 5069      657200
 5070              	.LASF148:
 5071 0878 63684576 		.ascii	"chEvtSignalI\000"
 5071      74536967 
 5071      6E616C49 
 5071      00
 5072              		.ident	"GCC: (Arm GNU Toolchain 11.3.Rel1) 11.3.1 20220712"
ARM GAS  C:\Users\DEVELO~1\AppData\Local\Temp\cc6J7fdl.s 			page 97


DEFINED SYMBOLS
                            *ABS*:00000000 chevents.c
C:\Users\DEVELO~1\AppData\Local\Temp\cc6J7fdl.s:18     .text.chSysLock:00000000 $t
C:\Users\DEVELO~1\AppData\Local\Temp\cc6J7fdl.s:23     .text.chSysLock:00000000 chSysLock
C:\Users\DEVELO~1\AppData\Local\Temp\cc6J7fdl.s:77     .text.chSysUnlock:00000000 $t
C:\Users\DEVELO~1\AppData\Local\Temp\cc6J7fdl.s:82     .text.chSysUnlock:00000000 chSysUnlock
C:\Users\DEVELO~1\AppData\Local\Temp\cc6J7fdl.s:133    .text.chThdGetSelfX:00000000 $t
C:\Users\DEVELO~1\AppData\Local\Temp\cc6J7fdl.s:138    .text.chThdGetSelfX:00000000 chThdGetSelfX
C:\Users\DEVELO~1\AppData\Local\Temp\cc6J7fdl.s:166    .text.chThdGetSelfX:00000010 $d
C:\Users\DEVELO~1\AppData\Local\Temp\cc6J7fdl.s:171    .text.chEvtAddEventsI:00000000 $t
C:\Users\DEVELO~1\AppData\Local\Temp\cc6J7fdl.s:176    .text.chEvtAddEventsI:00000000 chEvtAddEventsI
C:\Users\DEVELO~1\AppData\Local\Temp\cc6J7fdl.s:219    .text.chEvtAddEventsI:00000024 $d
C:\Users\DEVELO~1\AppData\Local\Temp\cc6J7fdl.s:224    .text.chEvtRegisterMaskWithFlagsI:00000000 $t
C:\Users\DEVELO~1\AppData\Local\Temp\cc6J7fdl.s:230    .text.chEvtRegisterMaskWithFlagsI:00000000 chEvtRegisterMaskWithFlagsI
C:\Users\DEVELO~1\AppData\Local\Temp\cc6J7fdl.s:290    .text.chEvtRegisterMaskWithFlags:00000000 $t
C:\Users\DEVELO~1\AppData\Local\Temp\cc6J7fdl.s:296    .text.chEvtRegisterMaskWithFlags:00000000 chEvtRegisterMaskWithFlags
C:\Users\DEVELO~1\AppData\Local\Temp\cc6J7fdl.s:336    .text.chEvtUnregister:00000000 $t
C:\Users\DEVELO~1\AppData\Local\Temp\cc6J7fdl.s:342    .text.chEvtUnregister:00000000 chEvtUnregister
C:\Users\DEVELO~1\AppData\Local\Temp\cc6J7fdl.s:409    .text.chEvtGetAndClearEventsI:00000000 $t
C:\Users\DEVELO~1\AppData\Local\Temp\cc6J7fdl.s:415    .text.chEvtGetAndClearEventsI:00000000 chEvtGetAndClearEventsI
C:\Users\DEVELO~1\AppData\Local\Temp\cc6J7fdl.s:464    .text.chEvtGetAndClearEvents:00000000 $t
C:\Users\DEVELO~1\AppData\Local\Temp\cc6J7fdl.s:470    .text.chEvtGetAndClearEvents:00000000 chEvtGetAndClearEvents
C:\Users\DEVELO~1\AppData\Local\Temp\cc6J7fdl.s:507    .text.chEvtAddEvents:00000000 $t
C:\Users\DEVELO~1\AppData\Local\Temp\cc6J7fdl.s:513    .text.chEvtAddEvents:00000000 chEvtAddEvents
C:\Users\DEVELO~1\AppData\Local\Temp\cc6J7fdl.s:550    .text.chEvtGetAndClearFlagsI:00000000 $t
C:\Users\DEVELO~1\AppData\Local\Temp\cc6J7fdl.s:556    .text.chEvtGetAndClearFlagsI:00000000 chEvtGetAndClearFlagsI
C:\Users\DEVELO~1\AppData\Local\Temp\cc6J7fdl.s:600    .text.chEvtGetAndClearFlags:00000000 $t
C:\Users\DEVELO~1\AppData\Local\Temp\cc6J7fdl.s:606    .text.chEvtGetAndClearFlags:00000000 chEvtGetAndClearFlags
C:\Users\DEVELO~1\AppData\Local\Temp\cc6J7fdl.s:651    .text.chEvtSignalI:00000000 $t
C:\Users\DEVELO~1\AppData\Local\Temp\cc6J7fdl.s:657    .text.chEvtSignalI:00000000 chEvtSignalI
C:\Users\DEVELO~1\AppData\Local\Temp\cc6J7fdl.s:739    .text.chEvtSignal:00000000 $t
C:\Users\DEVELO~1\AppData\Local\Temp\cc6J7fdl.s:745    .text.chEvtSignal:00000000 chEvtSignal
C:\Users\DEVELO~1\AppData\Local\Temp\cc6J7fdl.s:783    .text.chEvtBroadcastFlagsI:00000000 $t
C:\Users\DEVELO~1\AppData\Local\Temp\cc6J7fdl.s:789    .text.chEvtBroadcastFlagsI:00000000 chEvtBroadcastFlagsI
C:\Users\DEVELO~1\AppData\Local\Temp\cc6J7fdl.s:865    .text.chEvtBroadcastFlags:00000000 $t
C:\Users\DEVELO~1\AppData\Local\Temp\cc6J7fdl.s:871    .text.chEvtBroadcastFlags:00000000 chEvtBroadcastFlags
C:\Users\DEVELO~1\AppData\Local\Temp\cc6J7fdl.s:909    .text.chEvtDispatch:00000000 $t
C:\Users\DEVELO~1\AppData\Local\Temp\cc6J7fdl.s:915    .text.chEvtDispatch:00000000 chEvtDispatch
C:\Users\DEVELO~1\AppData\Local\Temp\cc6J7fdl.s:989    .text.chEvtWaitOne:00000000 $t
C:\Users\DEVELO~1\AppData\Local\Temp\cc6J7fdl.s:995    .text.chEvtWaitOne:00000000 chEvtWaitOne
C:\Users\DEVELO~1\AppData\Local\Temp\cc6J7fdl.s:1073   .text.chEvtWaitAny:00000000 $t
C:\Users\DEVELO~1\AppData\Local\Temp\cc6J7fdl.s:1079   .text.chEvtWaitAny:00000000 chEvtWaitAny
C:\Users\DEVELO~1\AppData\Local\Temp\cc6J7fdl.s:1151   .text.chEvtWaitAll:00000000 $t
C:\Users\DEVELO~1\AppData\Local\Temp\cc6J7fdl.s:1157   .text.chEvtWaitAll:00000000 chEvtWaitAll
C:\Users\DEVELO~1\AppData\Local\Temp\cc6J7fdl.s:1221   .text.chEvtWaitOneTimeout:00000000 $t
C:\Users\DEVELO~1\AppData\Local\Temp\cc6J7fdl.s:1227   .text.chEvtWaitOneTimeout:00000000 chEvtWaitOneTimeout
C:\Users\DEVELO~1\AppData\Local\Temp\cc6J7fdl.s:1328   .text.chEvtWaitAnyTimeout:00000000 $t
C:\Users\DEVELO~1\AppData\Local\Temp\cc6J7fdl.s:1334   .text.chEvtWaitAnyTimeout:00000000 chEvtWaitAnyTimeout
C:\Users\DEVELO~1\AppData\Local\Temp\cc6J7fdl.s:1429   .text.chEvtWaitAllTimeout:00000000 $t
C:\Users\DEVELO~1\AppData\Local\Temp\cc6J7fdl.s:1435   .text.chEvtWaitAllTimeout:00000000 chEvtWaitAllTimeout

UNDEFINED SYMBOLS
ch0
chSchReadyI
chSchRescheduleS
chSchGoSleepS
chSchGoSleepTimeoutS
ARM GAS  C:\Users\DEVELO~1\AppData\Local\Temp\cc6J7fdl.s 			page 98


