ARM GAS  C:\Users\DEVELO~1\AppData\Local\Temp\ccn8NbSB.s 			page 1


   1              		.cpu cortex-m7
   2              		.arch armv7e-m
   3              		.fpu softvfp
   4              		.eabi_attribute 20, 1
   5              		.eabi_attribute 21, 1
   6              		.eabi_attribute 23, 3
   7              		.eabi_attribute 24, 1
   8              		.eabi_attribute 25, 1
   9              		.eabi_attribute 26, 1
  10              		.eabi_attribute 30, 6
  11              		.eabi_attribute 34, 1
  12              		.eabi_attribute 18, 4
  13              		.file	"chfactory.c"
  14              		.text
  15              	.Ltext0:
  16              		.cfi_sections	.debug_frame
  17              		.section	.text.chCoreAllocAlignedI,"ax",%progbits
  18              		.align	1
  19              		.syntax unified
  20              		.thumb
  21              		.thumb_func
  22              		.type	chCoreAllocAlignedI, %function
  23              	chCoreAllocAlignedI:
  24              	.LFB280:
  25              		.file 1 "../../../os/oslib/include/chmemcore.h"
  26              		.loc 1 150 70
  27              		.cfi_startproc
  28              		@ args = 0, pretend = 0, frame = 8
  29              		@ frame_needed = 1, uses_anonymous_args = 0
  30 0000 80B5     		push	{r7, lr}
  31              		.cfi_def_cfa_offset 8
  32              		.cfi_offset 7, -8
  33              		.cfi_offset 14, -4
  34 0002 82B0     		sub	sp, sp, #8
  35              		.cfi_def_cfa_offset 16
  36 0004 00AF     		add	r7, sp, #0
  37              		.cfi_def_cfa_register 7
  38 0006 7860     		str	r0, [r7, #4]
  39 0008 3960     		str	r1, [r7]
  40              		.loc 1 152 10
  41 000a 0022     		movs	r2, #0
  42 000c 3968     		ldr	r1, [r7]
  43 000e 7868     		ldr	r0, [r7, #4]
  44 0010 FFF7FEFF 		bl	chCoreAllocFromTopI
  45 0014 0346     		mov	r3, r0
  46              		.loc 1 153 1
  47 0016 1846     		mov	r0, r3
  48 0018 0837     		adds	r7, r7, #8
  49              		.cfi_def_cfa_offset 8
  50 001a BD46     		mov	sp, r7
  51              		.cfi_def_cfa_register 13
  52              		@ sp needed
  53 001c 80BD     		pop	{r7, pc}
  54              		.cfi_endproc
  55              	.LFE280:
  56              		.size	chCoreAllocAlignedI, .-chCoreAllocAlignedI
  57              		.section	.text.chPoolObjectInit,"ax",%progbits
ARM GAS  C:\Users\DEVELO~1\AppData\Local\Temp\ccn8NbSB.s 			page 2


  58              		.align	1
  59              		.syntax unified
  60              		.thumb
  61              		.thumb_func
  62              		.type	chPoolObjectInit, %function
  63              	chPoolObjectInit:
  64              	.LFB286:
  65              		.file 2 "../../../os/oslib/include/chmempools.h"
  66              		.loc 2 191 60
  67              		.cfi_startproc
  68              		@ args = 0, pretend = 0, frame = 16
  69              		@ frame_needed = 1, uses_anonymous_args = 0
  70 0000 80B5     		push	{r7, lr}
  71              		.cfi_def_cfa_offset 8
  72              		.cfi_offset 7, -8
  73              		.cfi_offset 14, -4
  74 0002 84B0     		sub	sp, sp, #16
  75              		.cfi_def_cfa_offset 24
  76 0004 00AF     		add	r7, sp, #0
  77              		.cfi_def_cfa_register 7
  78 0006 F860     		str	r0, [r7, #12]
  79 0008 B960     		str	r1, [r7, #8]
  80 000a 7A60     		str	r2, [r7, #4]
  81              		.loc 2 193 3
  82 000c 7B68     		ldr	r3, [r7, #4]
  83 000e 0422     		movs	r2, #4
  84 0010 B968     		ldr	r1, [r7, #8]
  85 0012 F868     		ldr	r0, [r7, #12]
  86 0014 FFF7FEFF 		bl	chPoolObjectInitAligned
  87              		.loc 2 194 1
  88 0018 00BF     		nop
  89 001a 1037     		adds	r7, r7, #16
  90              		.cfi_def_cfa_offset 8
  91 001c BD46     		mov	sp, r7
  92              		.cfi_def_cfa_register 13
  93              		@ sp needed
  94 001e 80BD     		pop	{r7, pc}
  95              		.cfi_endproc
  96              	.LFE286:
  97              		.size	chPoolObjectInit, .-chPoolObjectInit
  98              		.section	.text.chFifoObjectInitAligned,"ax",%progbits
  99              		.align	1
 100              		.syntax unified
 101              		.thumb
 102              		.thumb_func
 103              		.type	chFifoObjectInitAligned, %function
 104              	chFifoObjectInitAligned:
 105              	.LFB297:
 106              		.file 3 "../../../os/oslib/include/chobjfifos.h"
 107              		.loc 3 130 73
 108              		.cfi_startproc
 109              		@ args = 8, pretend = 0, frame = 16
 110              		@ frame_needed = 1, uses_anonymous_args = 0
 111 0000 80B5     		push	{r7, lr}
 112              		.cfi_def_cfa_offset 8
 113              		.cfi_offset 7, -8
 114              		.cfi_offset 14, -4
ARM GAS  C:\Users\DEVELO~1\AppData\Local\Temp\ccn8NbSB.s 			page 3


 115 0002 84B0     		sub	sp, sp, #16
 116              		.cfi_def_cfa_offset 24
 117 0004 00AF     		add	r7, sp, #0
 118              		.cfi_def_cfa_register 7
 119 0006 F860     		str	r0, [r7, #12]
 120 0008 B960     		str	r1, [r7, #8]
 121 000a 7A60     		str	r2, [r7, #4]
 122 000c 3B60     		str	r3, [r7]
 123              		.loc 3 134 3
 124 000e FB68     		ldr	r3, [r7, #12]
 125 0010 3A68     		ldr	r2, [r7]
 126 0012 B968     		ldr	r1, [r7, #8]
 127 0014 1846     		mov	r0, r3
 128 0016 FFF7FEFF 		bl	chGuardedPoolObjectInitAligned
 129              		.loc 3 135 3
 130 001a FB68     		ldr	r3, [r7, #12]
 131 001c 7A68     		ldr	r2, [r7, #4]
 132 001e B969     		ldr	r1, [r7, #24]
 133 0020 1846     		mov	r0, r3
 134 0022 FFF7FEFF 		bl	chGuardedPoolLoadArray
 135              		.loc 3 136 3
 136 0026 FB68     		ldr	r3, [r7, #12]
 137 0028 1C33     		adds	r3, r3, #28
 138 002a 7A68     		ldr	r2, [r7, #4]
 139 002c F969     		ldr	r1, [r7, #28]
 140 002e 1846     		mov	r0, r3
 141 0030 FFF7FEFF 		bl	chMBObjectInit
 142              		.loc 3 137 1
 143 0034 00BF     		nop
 144 0036 1037     		adds	r7, r7, #16
 145              		.cfi_def_cfa_offset 8
 146 0038 BD46     		mov	sp, r7
 147              		.cfi_def_cfa_register 13
 148              		@ sp needed
 149 003a 80BD     		pop	{r7, pc}
 150              		.cfi_endproc
 151              	.LFE297:
 152              		.size	chFifoObjectInitAligned, .-chFifoObjectInitAligned
 153              		.global	ch_factory
 154              		.section	.bss.ch_factory,"aw",%nobits
 155              		.align	2
 156              		.type	ch_factory, %object
 157              		.size	ch_factory, 72
 158              	ch_factory:
 159 0000 00000000 		.space	72
 159      00000000 
 159      00000000 
 159      00000000 
 159      00000000 
 160              		.section	.text.copy_name,"ax",%progbits
 161              		.align	1
 162              		.syntax unified
 163              		.thumb
 164              		.thumb_func
 165              		.type	copy_name, %function
 166              	copy_name:
 167              	.LFB346:
ARM GAS  C:\Users\DEVELO~1\AppData\Local\Temp\ccn8NbSB.s 			page 4


 168              		.file 4 "../../../os/oslib/src/chfactory.c"
 169              		.loc 4 86 49
 170              		.cfi_startproc
 171              		@ args = 0, pretend = 0, frame = 16
 172              		@ frame_needed = 1, uses_anonymous_args = 0
 173              		@ link register save eliminated.
 174 0000 80B4     		push	{r7}
 175              		.cfi_def_cfa_offset 4
 176              		.cfi_offset 7, -4
 177 0002 85B0     		sub	sp, sp, #20
 178              		.cfi_def_cfa_offset 24
 179 0004 00AF     		add	r7, sp, #0
 180              		.cfi_def_cfa_register 7
 181 0006 7860     		str	r0, [r7, #4]
 182 0008 3960     		str	r1, [r7]
 183              		.loc 4 90 5
 184 000a 0823     		movs	r3, #8
 185 000c FB60     		str	r3, [r7, #12]
 186              	.L7:
 187              		.loc 4 92 12 discriminator 2
 188 000e 7B68     		ldr	r3, [r7, #4]
 189 0010 5A1C     		adds	r2, r3, #1
 190 0012 7A60     		str	r2, [r7, #4]
 191              		.loc 4 92 7 discriminator 2
 192 0014 1B78     		ldrb	r3, [r3]
 193 0016 FB72     		strb	r3, [r7, #11]
 194              		.loc 4 93 8 discriminator 2
 195 0018 3B68     		ldr	r3, [r7]
 196 001a 5A1C     		adds	r2, r3, #1
 197 001c 3A60     		str	r2, [r7]
 198              		.loc 4 93 11 discriminator 2
 199 001e FA7A     		ldrb	r2, [r7, #11]
 200 0020 1A70     		strb	r2, [r3]
 201              		.loc 4 94 6 discriminator 2
 202 0022 FB68     		ldr	r3, [r7, #12]
 203 0024 013B     		subs	r3, r3, #1
 204 0026 FB60     		str	r3, [r7, #12]
 205              		.loc 4 95 27 discriminator 2
 206 0028 FB7A     		ldrb	r3, [r7, #11]	@ zero_extendqisi2
 207 002a 002B     		cmp	r3, #0
 208 002c 02D0     		beq	.L8
 209              		.loc 4 95 27 is_stmt 0 discriminator 1
 210 002e FB68     		ldr	r3, [r7, #12]
 211 0030 002B     		cmp	r3, #0
 212 0032 ECD1     		bne	.L7
 213              	.L8:
 214              		.loc 4 96 1 is_stmt 1
 215 0034 00BF     		nop
 216 0036 1437     		adds	r7, r7, #20
 217              		.cfi_def_cfa_offset 4
 218 0038 BD46     		mov	sp, r7
 219              		.cfi_def_cfa_register 13
 220              		@ sp needed
 221 003a 80BC     		pop	{r7}
 222              		.cfi_restore 7
 223              		.cfi_def_cfa_offset 0
 224 003c 7047     		bx	lr
ARM GAS  C:\Users\DEVELO~1\AppData\Local\Temp\ccn8NbSB.s 			page 5


 225              		.cfi_endproc
 226              	.LFE346:
 227              		.size	copy_name, .-copy_name
 228              		.section	.text.dyn_list_init,"ax",%progbits
 229              		.align	1
 230              		.syntax unified
 231              		.thumb
 232              		.thumb_func
 233              		.type	dyn_list_init, %function
 234              	dyn_list_init:
 235              	.LFB347:
 236              		.loc 4 98 51
 237              		.cfi_startproc
 238              		@ args = 0, pretend = 0, frame = 8
 239              		@ frame_needed = 1, uses_anonymous_args = 0
 240              		@ link register save eliminated.
 241 0000 80B4     		push	{r7}
 242              		.cfi_def_cfa_offset 4
 243              		.cfi_offset 7, -4
 244 0002 83B0     		sub	sp, sp, #12
 245              		.cfi_def_cfa_offset 16
 246 0004 00AF     		add	r7, sp, #0
 247              		.cfi_def_cfa_register 7
 248 0006 7860     		str	r0, [r7, #4]
 249              		.loc 4 100 13
 250 0008 7B68     		ldr	r3, [r7, #4]
 251 000a 7A68     		ldr	r2, [r7, #4]
 252 000c 1A60     		str	r2, [r3]
 253              		.loc 4 101 1
 254 000e 00BF     		nop
 255 0010 0C37     		adds	r7, r7, #12
 256              		.cfi_def_cfa_offset 4
 257 0012 BD46     		mov	sp, r7
 258              		.cfi_def_cfa_register 13
 259              		@ sp needed
 260 0014 80BC     		pop	{r7}
 261              		.cfi_restore 7
 262              		.cfi_def_cfa_offset 0
 263 0016 7047     		bx	lr
 264              		.cfi_endproc
 265              	.LFE347:
 266              		.size	dyn_list_init, .-dyn_list_init
 267              		.section	.text.dyn_list_find,"ax",%progbits
 268              		.align	1
 269              		.syntax unified
 270              		.thumb
 271              		.thumb_func
 272              		.type	dyn_list_find, %function
 273              	dyn_list_find:
 274              	.LFB348:
 275              		.loc 4 103 72
 276              		.cfi_startproc
 277              		@ args = 0, pretend = 0, frame = 16
 278              		@ frame_needed = 1, uses_anonymous_args = 0
 279 0000 80B5     		push	{r7, lr}
 280              		.cfi_def_cfa_offset 8
 281              		.cfi_offset 7, -8
ARM GAS  C:\Users\DEVELO~1\AppData\Local\Temp\ccn8NbSB.s 			page 6


 282              		.cfi_offset 14, -4
 283 0002 84B0     		sub	sp, sp, #16
 284              		.cfi_def_cfa_offset 24
 285 0004 00AF     		add	r7, sp, #0
 286              		.cfi_def_cfa_register 7
 287 0006 7860     		str	r0, [r7, #4]
 288 0008 3960     		str	r1, [r7]
 289              		.loc 4 104 18
 290 000a 3B68     		ldr	r3, [r7]
 291 000c 1B68     		ldr	r3, [r3]
 292 000e FB60     		str	r3, [r7, #12]
 293              		.loc 4 106 9
 294 0010 0EE0     		b	.L11
 295              	.L14:
 296              		.loc 4 107 18
 297 0012 FB68     		ldr	r3, [r7, #12]
 298 0014 0833     		adds	r3, r3, #8
 299              		.loc 4 107 9
 300 0016 0822     		movs	r2, #8
 301 0018 7968     		ldr	r1, [r7, #4]
 302 001a 1846     		mov	r0, r3
 303 001c FFF7FEFF 		bl	strncmp
 304 0020 0346     		mov	r3, r0
 305              		.loc 4 107 8
 306 0022 002B     		cmp	r3, #0
 307 0024 01D1     		bne	.L12
 308              		.loc 4 108 14
 309 0026 FB68     		ldr	r3, [r7, #12]
 310 0028 07E0     		b	.L13
 311              	.L12:
 312              		.loc 4 110 7
 313 002a FB68     		ldr	r3, [r7, #12]
 314 002c 1B68     		ldr	r3, [r3]
 315 002e FB60     		str	r3, [r7, #12]
 316              	.L11:
 317              		.loc 4 106 12
 318 0030 FA68     		ldr	r2, [r7, #12]
 319 0032 3B68     		ldr	r3, [r7]
 320 0034 9A42     		cmp	r2, r3
 321 0036 ECD1     		bne	.L14
 322              		.loc 4 113 10
 323 0038 0023     		movs	r3, #0
 324              	.L13:
 325              		.loc 4 114 1
 326 003a 1846     		mov	r0, r3
 327 003c 1037     		adds	r7, r7, #16
 328              		.cfi_def_cfa_offset 8
 329 003e BD46     		mov	sp, r7
 330              		.cfi_def_cfa_register 13
 331              		@ sp needed
 332 0040 80BD     		pop	{r7, pc}
 333              		.cfi_endproc
 334              	.LFE348:
 335              		.size	dyn_list_find, .-dyn_list_find
 336              		.section	.text.dyn_list_find_prev,"ax",%progbits
 337              		.align	1
 338              		.syntax unified
ARM GAS  C:\Users\DEVELO~1\AppData\Local\Temp\ccn8NbSB.s 			page 7


 339              		.thumb
 340              		.thumb_func
 341              		.type	dyn_list_find_prev, %function
 342              	dyn_list_find_prev:
 343              	.LFB349:
 344              		.loc 4 117 56
 345              		.cfi_startproc
 346              		@ args = 0, pretend = 0, frame = 16
 347              		@ frame_needed = 1, uses_anonymous_args = 0
 348              		@ link register save eliminated.
 349 0000 80B4     		push	{r7}
 350              		.cfi_def_cfa_offset 4
 351              		.cfi_offset 7, -4
 352 0002 85B0     		sub	sp, sp, #20
 353              		.cfi_def_cfa_offset 24
 354 0004 00AF     		add	r7, sp, #0
 355              		.cfi_def_cfa_register 7
 356 0006 7860     		str	r0, [r7, #4]
 357 0008 3960     		str	r1, [r7]
 358              		.loc 4 118 18
 359 000a 3B68     		ldr	r3, [r7]
 360 000c FB60     		str	r3, [r7, #12]
 361              		.loc 4 121 9
 362 000e 09E0     		b	.L16
 363              	.L19:
 364              		.loc 4 122 13
 365 0010 FB68     		ldr	r3, [r7, #12]
 366 0012 1B68     		ldr	r3, [r3]
 367              		.loc 4 122 8
 368 0014 7A68     		ldr	r2, [r7, #4]
 369 0016 9A42     		cmp	r2, r3
 370 0018 01D1     		bne	.L17
 371              		.loc 4 123 14
 372 001a FB68     		ldr	r3, [r7, #12]
 373 001c 08E0     		b	.L18
 374              	.L17:
 375              		.loc 4 127 10
 376 001e FB68     		ldr	r3, [r7, #12]
 377 0020 1B68     		ldr	r3, [r3]
 378 0022 FB60     		str	r3, [r7, #12]
 379              	.L16:
 380              		.loc 4 121 14
 381 0024 FB68     		ldr	r3, [r7, #12]
 382 0026 1B68     		ldr	r3, [r3]
 383              		.loc 4 121 21
 384 0028 3A68     		ldr	r2, [r7]
 385 002a 9A42     		cmp	r2, r3
 386 002c F0D1     		bne	.L19
 387              		.loc 4 130 10
 388 002e 0023     		movs	r3, #0
 389              	.L18:
 390              		.loc 4 131 1
 391 0030 1846     		mov	r0, r3
 392 0032 1437     		adds	r7, r7, #20
 393              		.cfi_def_cfa_offset 4
 394 0034 BD46     		mov	sp, r7
 395              		.cfi_def_cfa_register 13
ARM GAS  C:\Users\DEVELO~1\AppData\Local\Temp\ccn8NbSB.s 			page 8


 396              		@ sp needed
 397 0036 80BC     		pop	{r7}
 398              		.cfi_restore 7
 399              		.cfi_def_cfa_offset 0
 400 0038 7047     		bx	lr
 401              		.cfi_endproc
 402              	.LFE349:
 403              		.size	dyn_list_find_prev, .-dyn_list_find_prev
 404              		.section	.text.dyn_list_unlink,"ax",%progbits
 405              		.align	1
 406              		.syntax unified
 407              		.thumb
 408              		.thumb_func
 409              		.type	dyn_list_unlink, %function
 410              	dyn_list_unlink:
 411              	.LFB350:
 412              		.loc 4 133 60
 413              		.cfi_startproc
 414              		@ args = 0, pretend = 0, frame = 16
 415              		@ frame_needed = 1, uses_anonymous_args = 0
 416              		@ link register save eliminated.
 417 0000 80B4     		push	{r7}
 418              		.cfi_def_cfa_offset 4
 419              		.cfi_offset 7, -4
 420 0002 85B0     		sub	sp, sp, #20
 421              		.cfi_def_cfa_offset 24
 422 0004 00AF     		add	r7, sp, #0
 423              		.cfi_def_cfa_register 7
 424 0006 7860     		str	r0, [r7, #4]
 425              		.loc 4 134 18
 426 0008 7B68     		ldr	r3, [r7, #4]
 427 000a 1B68     		ldr	r3, [r3]
 428 000c FB60     		str	r3, [r7, #12]
 429              		.loc 4 136 23
 430 000e FB68     		ldr	r3, [r7, #12]
 431 0010 1A68     		ldr	r2, [r3]
 432              		.loc 4 136 14
 433 0012 7B68     		ldr	r3, [r7, #4]
 434 0014 1A60     		str	r2, [r3]
 435              		.loc 4 138 10
 436 0016 FB68     		ldr	r3, [r7, #12]
 437              		.loc 4 139 1
 438 0018 1846     		mov	r0, r3
 439 001a 1437     		adds	r7, r7, #20
 440              		.cfi_def_cfa_offset 4
 441 001c BD46     		mov	sp, r7
 442              		.cfi_def_cfa_register 13
 443              		@ sp needed
 444 001e 80BC     		pop	{r7}
 445              		.cfi_restore 7
 446              		.cfi_def_cfa_offset 0
 447 0020 7047     		bx	lr
 448              		.cfi_endproc
 449              	.LFE350:
 450              		.size	dyn_list_unlink, .-dyn_list_unlink
 451              		.section	.text.dyn_create_object_heap,"ax",%progbits
 452              		.align	1
ARM GAS  C:\Users\DEVELO~1\AppData\Local\Temp\ccn8NbSB.s 			page 9


 453              		.syntax unified
 454              		.thumb
 455              		.thumb_func
 456              		.type	dyn_create_object_heap, %function
 457              	dyn_create_object_heap:
 458              	.LFB351:
 459              		.loc 4 145 62
 460              		.cfi_startproc
 461              		@ args = 0, pretend = 0, frame = 24
 462              		@ frame_needed = 1, uses_anonymous_args = 0
 463 0000 80B5     		push	{r7, lr}
 464              		.cfi_def_cfa_offset 8
 465              		.cfi_offset 7, -8
 466              		.cfi_offset 14, -4
 467 0002 86B0     		sub	sp, sp, #24
 468              		.cfi_def_cfa_offset 32
 469 0004 00AF     		add	r7, sp, #0
 470              		.cfi_def_cfa_register 7
 471 0006 F860     		str	r0, [r7, #12]
 472 0008 B960     		str	r1, [r7, #8]
 473 000a 7A60     		str	r2, [r7, #4]
 474 000c 3B60     		str	r3, [r7]
 475              		.loc 4 151 9
 476 000e B968     		ldr	r1, [r7, #8]
 477 0010 F868     		ldr	r0, [r7, #12]
 478 0012 FFF7FEFF 		bl	dyn_list_find
 479 0016 7861     		str	r0, [r7, #20]
 480              		.loc 4 152 6
 481 0018 7B69     		ldr	r3, [r7, #20]
 482 001a 002B     		cmp	r3, #0
 483 001c 01D0     		beq	.L23
 484              		.loc 4 153 12
 485 001e 0023     		movs	r3, #0
 486 0020 1BE0     		b	.L24
 487              	.L23:
 488              		.loc 4 157 26
 489 0022 3A68     		ldr	r2, [r7]
 490 0024 7968     		ldr	r1, [r7, #4]
 491 0026 0020     		movs	r0, #0
 492 0028 FFF7FEFF 		bl	chHeapAllocAligned
 493 002c 7861     		str	r0, [r7, #20]
 494              		.loc 4 158 6
 495 002e 7B69     		ldr	r3, [r7, #20]
 496 0030 002B     		cmp	r3, #0
 497 0032 01D1     		bne	.L25
 498              		.loc 4 159 12
 499 0034 0023     		movs	r3, #0
 500 0036 10E0     		b	.L24
 501              	.L25:
 502              		.loc 4 163 22
 503 0038 7B69     		ldr	r3, [r7, #20]
 504 003a 0833     		adds	r3, r3, #8
 505              		.loc 4 163 3
 506 003c 1946     		mov	r1, r3
 507 003e F868     		ldr	r0, [r7, #12]
 508 0040 FFF7FEFF 		bl	copy_name
 509              		.loc 4 164 13
ARM GAS  C:\Users\DEVELO~1\AppData\Local\Temp\ccn8NbSB.s 			page 10


 510 0044 7B69     		ldr	r3, [r7, #20]
 511 0046 0122     		movs	r2, #1
 512 0048 5A60     		str	r2, [r3, #4]
 513              		.loc 4 165 18
 514 004a BB68     		ldr	r3, [r7, #8]
 515 004c 1A68     		ldr	r2, [r3]
 516              		.loc 4 165 13
 517 004e 7B69     		ldr	r3, [r7, #20]
 518 0050 1A60     		str	r2, [r3]
 519              		.loc 4 168 13
 520 0052 BB68     		ldr	r3, [r7, #8]
 521 0054 7A69     		ldr	r2, [r7, #20]
 522 0056 1A60     		str	r2, [r3]
 523              		.loc 4 170 10
 524 0058 7B69     		ldr	r3, [r7, #20]
 525              	.L24:
 526              		.loc 4 171 1
 527 005a 1846     		mov	r0, r3
 528 005c 1837     		adds	r7, r7, #24
 529              		.cfi_def_cfa_offset 8
 530 005e BD46     		mov	sp, r7
 531              		.cfi_def_cfa_register 13
 532              		@ sp needed
 533 0060 80BD     		pop	{r7, pc}
 534              		.cfi_endproc
 535              	.LFE351:
 536              		.size	dyn_create_object_heap, .-dyn_create_object_heap
 537              		.section	.text.dyn_release_object_heap,"ax",%progbits
 538              		.align	1
 539              		.syntax unified
 540              		.thumb
 541              		.thumb_func
 542              		.type	dyn_release_object_heap, %function
 543              	dyn_release_object_heap:
 544              	.LFB352:
 545              		.loc 4 174 56
 546              		.cfi_startproc
 547              		@ args = 0, pretend = 0, frame = 16
 548              		@ frame_needed = 1, uses_anonymous_args = 0
 549 0000 80B5     		push	{r7, lr}
 550              		.cfi_def_cfa_offset 8
 551              		.cfi_offset 7, -8
 552              		.cfi_offset 14, -4
 553 0002 84B0     		sub	sp, sp, #16
 554              		.cfi_def_cfa_offset 24
 555 0004 00AF     		add	r7, sp, #0
 556              		.cfi_def_cfa_register 7
 557 0006 7860     		str	r0, [r7, #4]
 558 0008 3960     		str	r1, [r7]
 559              		.loc 4 181 10
 560 000a 3968     		ldr	r1, [r7]
 561 000c 7868     		ldr	r0, [r7, #4]
 562 000e FFF7FEFF 		bl	dyn_list_find_prev
 563 0012 F860     		str	r0, [r7, #12]
 564              		.loc 4 182 6
 565 0014 FB68     		ldr	r3, [r7, #12]
 566 0016 002B     		cmp	r3, #0
ARM GAS  C:\Users\DEVELO~1\AppData\Local\Temp\ccn8NbSB.s 			page 11


 567 0018 11D0     		beq	.L28
 568              		.loc 4 186 17
 569 001a 7B68     		ldr	r3, [r7, #4]
 570 001c 5B68     		ldr	r3, [r3, #4]
 571              		.loc 4 186 12
 572 001e 5A1E     		subs	r2, r3, #1
 573              		.loc 4 186 10
 574 0020 7B68     		ldr	r3, [r7, #4]
 575 0022 5A60     		str	r2, [r3, #4]
 576 0024 7B68     		ldr	r3, [r7, #4]
 577 0026 5B68     		ldr	r3, [r3, #4]
 578 0028 BB60     		str	r3, [r7, #8]
 579              		.loc 4 187 8
 580 002a BB68     		ldr	r3, [r7, #8]
 581 002c 002B     		cmp	r3, #0
 582 002e 06D1     		bne	.L28
 583              		.loc 4 188 26
 584 0030 F868     		ldr	r0, [r7, #12]
 585 0032 FFF7FEFF 		bl	dyn_list_unlink
 586 0036 0346     		mov	r3, r0
 587              		.loc 4 188 7
 588 0038 1846     		mov	r0, r3
 589 003a FFF7FEFF 		bl	chHeapFree
 590              	.L28:
 591              		.loc 4 194 1
 592 003e 00BF     		nop
 593 0040 1037     		adds	r7, r7, #16
 594              		.cfi_def_cfa_offset 8
 595 0042 BD46     		mov	sp, r7
 596              		.cfi_def_cfa_register 13
 597              		@ sp needed
 598 0044 80BD     		pop	{r7, pc}
 599              		.cfi_endproc
 600              	.LFE352:
 601              		.size	dyn_release_object_heap, .-dyn_release_object_heap
 602              		.section	.text.dyn_create_object_pool,"ax",%progbits
 603              		.align	1
 604              		.syntax unified
 605              		.thumb
 606              		.thumb_func
 607              		.type	dyn_create_object_pool, %function
 608              	dyn_create_object_pool:
 609              	.LFB353:
 610              		.loc 4 200 65
 611              		.cfi_startproc
 612              		@ args = 0, pretend = 0, frame = 24
 613              		@ frame_needed = 1, uses_anonymous_args = 0
 614 0000 80B5     		push	{r7, lr}
 615              		.cfi_def_cfa_offset 8
 616              		.cfi_offset 7, -8
 617              		.cfi_offset 14, -4
 618 0002 86B0     		sub	sp, sp, #24
 619              		.cfi_def_cfa_offset 32
 620 0004 00AF     		add	r7, sp, #0
 621              		.cfi_def_cfa_register 7
 622 0006 F860     		str	r0, [r7, #12]
 623 0008 B960     		str	r1, [r7, #8]
ARM GAS  C:\Users\DEVELO~1\AppData\Local\Temp\ccn8NbSB.s 			page 12


 624 000a 7A60     		str	r2, [r7, #4]
 625              		.loc 4 206 9
 626 000c B968     		ldr	r1, [r7, #8]
 627 000e F868     		ldr	r0, [r7, #12]
 628 0010 FFF7FEFF 		bl	dyn_list_find
 629 0014 7861     		str	r0, [r7, #20]
 630              		.loc 4 207 6
 631 0016 7B69     		ldr	r3, [r7, #20]
 632 0018 002B     		cmp	r3, #0
 633 001a 01D0     		beq	.L30
 634              		.loc 4 208 12
 635 001c 0023     		movs	r3, #0
 636 001e 19E0     		b	.L31
 637              	.L30:
 638              		.loc 4 212 26
 639 0020 7868     		ldr	r0, [r7, #4]
 640 0022 FFF7FEFF 		bl	chPoolAlloc
 641 0026 7861     		str	r0, [r7, #20]
 642              		.loc 4 213 6
 643 0028 7B69     		ldr	r3, [r7, #20]
 644 002a 002B     		cmp	r3, #0
 645 002c 01D1     		bne	.L32
 646              		.loc 4 214 12
 647 002e 0023     		movs	r3, #0
 648 0030 10E0     		b	.L31
 649              	.L32:
 650              		.loc 4 218 22
 651 0032 7B69     		ldr	r3, [r7, #20]
 652 0034 0833     		adds	r3, r3, #8
 653              		.loc 4 218 3
 654 0036 1946     		mov	r1, r3
 655 0038 F868     		ldr	r0, [r7, #12]
 656 003a FFF7FEFF 		bl	copy_name
 657              		.loc 4 219 13
 658 003e 7B69     		ldr	r3, [r7, #20]
 659 0040 0122     		movs	r2, #1
 660 0042 5A60     		str	r2, [r3, #4]
 661              		.loc 4 220 18
 662 0044 BB68     		ldr	r3, [r7, #8]
 663 0046 1A68     		ldr	r2, [r3]
 664              		.loc 4 220 13
 665 0048 7B69     		ldr	r3, [r7, #20]
 666 004a 1A60     		str	r2, [r3]
 667              		.loc 4 223 13
 668 004c BB68     		ldr	r3, [r7, #8]
 669 004e 7A69     		ldr	r2, [r7, #20]
 670 0050 1A60     		str	r2, [r3]
 671              		.loc 4 225 10
 672 0052 7B69     		ldr	r3, [r7, #20]
 673              	.L31:
 674              		.loc 4 226 1
 675 0054 1846     		mov	r0, r3
 676 0056 1837     		adds	r7, r7, #24
 677              		.cfi_def_cfa_offset 8
 678 0058 BD46     		mov	sp, r7
 679              		.cfi_def_cfa_register 13
 680              		@ sp needed
ARM GAS  C:\Users\DEVELO~1\AppData\Local\Temp\ccn8NbSB.s 			page 13


 681 005a 80BD     		pop	{r7, pc}
 682              		.cfi_endproc
 683              	.LFE353:
 684              		.size	dyn_create_object_pool, .-dyn_create_object_pool
 685              		.section	.text.dyn_release_object_pool,"ax",%progbits
 686              		.align	1
 687              		.syntax unified
 688              		.thumb
 689              		.thumb_func
 690              		.type	dyn_release_object_pool, %function
 691              	dyn_release_object_pool:
 692              	.LFB354:
 693              		.loc 4 230 58
 694              		.cfi_startproc
 695              		@ args = 0, pretend = 0, frame = 24
 696              		@ frame_needed = 1, uses_anonymous_args = 0
 697 0000 80B5     		push	{r7, lr}
 698              		.cfi_def_cfa_offset 8
 699              		.cfi_offset 7, -8
 700              		.cfi_offset 14, -4
 701 0002 86B0     		sub	sp, sp, #24
 702              		.cfi_def_cfa_offset 32
 703 0004 00AF     		add	r7, sp, #0
 704              		.cfi_def_cfa_register 7
 705 0006 F860     		str	r0, [r7, #12]
 706 0008 B960     		str	r1, [r7, #8]
 707 000a 7A60     		str	r2, [r7, #4]
 708              		.loc 4 237 10
 709 000c B968     		ldr	r1, [r7, #8]
 710 000e F868     		ldr	r0, [r7, #12]
 711 0010 FFF7FEFF 		bl	dyn_list_find_prev
 712 0014 7861     		str	r0, [r7, #20]
 713              		.loc 4 238 6
 714 0016 7B69     		ldr	r3, [r7, #20]
 715 0018 002B     		cmp	r3, #0
 716 001a 12D0     		beq	.L35
 717              		.loc 4 242 17
 718 001c FB68     		ldr	r3, [r7, #12]
 719 001e 5B68     		ldr	r3, [r3, #4]
 720              		.loc 4 242 12
 721 0020 5A1E     		subs	r2, r3, #1
 722              		.loc 4 242 10
 723 0022 FB68     		ldr	r3, [r7, #12]
 724 0024 5A60     		str	r2, [r3, #4]
 725 0026 FB68     		ldr	r3, [r7, #12]
 726 0028 5B68     		ldr	r3, [r3, #4]
 727 002a 3B61     		str	r3, [r7, #16]
 728              		.loc 4 243 8
 729 002c 3B69     		ldr	r3, [r7, #16]
 730 002e 002B     		cmp	r3, #0
 731 0030 07D1     		bne	.L35
 732              		.loc 4 244 30
 733 0032 7869     		ldr	r0, [r7, #20]
 734 0034 FFF7FEFF 		bl	dyn_list_unlink
 735 0038 0346     		mov	r3, r0
 736              		.loc 4 244 7
 737 003a 1946     		mov	r1, r3
ARM GAS  C:\Users\DEVELO~1\AppData\Local\Temp\ccn8NbSB.s 			page 14


 738 003c 7868     		ldr	r0, [r7, #4]
 739 003e FFF7FEFF 		bl	chPoolFree
 740              	.L35:
 741              		.loc 4 250 1
 742 0042 00BF     		nop
 743 0044 1837     		adds	r7, r7, #24
 744              		.cfi_def_cfa_offset 8
 745 0046 BD46     		mov	sp, r7
 746              		.cfi_def_cfa_register 13
 747              		@ sp needed
 748 0048 80BD     		pop	{r7, pc}
 749              		.cfi_endproc
 750              	.LFE354:
 751              		.size	dyn_release_object_pool, .-dyn_release_object_pool
 752              		.section	.text.dyn_find_object,"ax",%progbits
 753              		.align	1
 754              		.syntax unified
 755              		.thumb
 756              		.thumb_func
 757              		.type	dyn_find_object, %function
 758              	dyn_find_object:
 759              	.LFB355:
 760              		.loc 4 253 74
 761              		.cfi_startproc
 762              		@ args = 0, pretend = 0, frame = 16
 763              		@ frame_needed = 1, uses_anonymous_args = 0
 764 0000 80B5     		push	{r7, lr}
 765              		.cfi_def_cfa_offset 8
 766              		.cfi_offset 7, -8
 767              		.cfi_offset 14, -4
 768 0002 84B0     		sub	sp, sp, #16
 769              		.cfi_def_cfa_offset 24
 770 0004 00AF     		add	r7, sp, #0
 771              		.cfi_def_cfa_register 7
 772 0006 7860     		str	r0, [r7, #4]
 773 0008 3960     		str	r1, [r7]
 774              		.loc 4 259 9
 775 000a 3968     		ldr	r1, [r7]
 776 000c 7868     		ldr	r0, [r7, #4]
 777 000e FFF7FEFF 		bl	dyn_list_find
 778 0012 F860     		str	r0, [r7, #12]
 779              		.loc 4 260 6
 780 0014 FB68     		ldr	r3, [r7, #12]
 781 0016 002B     		cmp	r3, #0
 782 0018 04D0     		beq	.L37
 783              		.loc 4 262 8
 784 001a FB68     		ldr	r3, [r7, #12]
 785 001c 5B68     		ldr	r3, [r3, #4]
 786              		.loc 4 262 14
 787 001e 5A1C     		adds	r2, r3, #1
 788 0020 FB68     		ldr	r3, [r7, #12]
 789 0022 5A60     		str	r2, [r3, #4]
 790              	.L37:
 791              		.loc 4 265 10
 792 0024 FB68     		ldr	r3, [r7, #12]
 793              		.loc 4 266 1
 794 0026 1846     		mov	r0, r3
ARM GAS  C:\Users\DEVELO~1\AppData\Local\Temp\ccn8NbSB.s 			page 15


 795 0028 1037     		adds	r7, r7, #16
 796              		.cfi_def_cfa_offset 8
 797 002a BD46     		mov	sp, r7
 798              		.cfi_def_cfa_register 13
 799              		@ sp needed
 800 002c 80BD     		pop	{r7, pc}
 801              		.cfi_endproc
 802              	.LFE355:
 803              		.size	dyn_find_object, .-dyn_find_object
 804              		.section	.text.__factory_init,"ax",%progbits
 805              		.align	1
 806              		.global	__factory_init
 807              		.syntax unified
 808              		.thumb
 809              		.thumb_func
 810              		.type	__factory_init, %function
 811              	__factory_init:
 812              	.LFB356:
 813              		.loc 4 277 27
 814              		.cfi_startproc
 815              		@ args = 0, pretend = 0, frame = 0
 816              		@ frame_needed = 1, uses_anonymous_args = 0
 817 0000 80B5     		push	{r7, lr}
 818              		.cfi_def_cfa_offset 8
 819              		.cfi_offset 7, -8
 820              		.cfi_offset 14, -4
 821 0002 00AF     		add	r7, sp, #0
 822              		.cfi_def_cfa_register 7
 823              		.loc 4 280 3
 824 0004 1048     		ldr	r0, .L40
 825 0006 FFF7FEFF 		bl	chMtxObjectInit
 826              		.loc 4 286 3
 827 000a 1048     		ldr	r0, .L40+4
 828 000c FFF7FEFF 		bl	dyn_list_init
 829              		.loc 4 287 3
 830 0010 0F4A     		ldr	r2, .L40+8
 831 0012 1421     		movs	r1, #20
 832 0014 0F48     		ldr	r0, .L40+12
 833 0016 FFF7FEFF 		bl	chPoolObjectInit
 834              		.loc 4 292 3
 835 001a 0F48     		ldr	r0, .L40+16
 836 001c FFF7FEFF 		bl	dyn_list_init
 837              		.loc 4 295 3
 838 0020 0E48     		ldr	r0, .L40+20
 839 0022 FFF7FEFF 		bl	dyn_list_init
 840              		.loc 4 296 3
 841 0026 0A4A     		ldr	r2, .L40+8
 842 0028 1C21     		movs	r1, #28
 843 002a 0D48     		ldr	r0, .L40+24
 844 002c FFF7FEFF 		bl	chPoolObjectInit
 845              		.loc 4 301 3
 846 0030 0C48     		ldr	r0, .L40+28
 847 0032 FFF7FEFF 		bl	dyn_list_init
 848              		.loc 4 304 3
 849 0036 0C48     		ldr	r0, .L40+32
 850 0038 FFF7FEFF 		bl	dyn_list_init
 851              		.loc 4 307 3
ARM GAS  C:\Users\DEVELO~1\AppData\Local\Temp\ccn8NbSB.s 			page 16


 852 003c 0B48     		ldr	r0, .L40+36
 853 003e FFF7FEFF 		bl	dyn_list_init
 854              		.loc 4 309 1
 855 0042 00BF     		nop
 856 0044 80BD     		pop	{r7, pc}
 857              	.L41:
 858 0046 00BF     		.align	2
 859              	.L40:
 860 0048 00000000 		.word	ch_factory
 861 004c 10000000 		.word	ch_factory+16
 862 0050 00000000 		.word	chCoreAllocAlignedI
 863 0054 14000000 		.word	ch_factory+20
 864 0058 24000000 		.word	ch_factory+36
 865 005c 28000000 		.word	ch_factory+40
 866 0060 2C000000 		.word	ch_factory+44
 867 0064 3C000000 		.word	ch_factory+60
 868 0068 40000000 		.word	ch_factory+64
 869 006c 44000000 		.word	ch_factory+68
 870              		.cfi_endproc
 871              	.LFE356:
 872              		.size	__factory_init, .-__factory_init
 873              		.section	.text.chFactoryRegisterObject,"ax",%progbits
 874              		.align	1
 875              		.global	chFactoryRegisterObject
 876              		.syntax unified
 877              		.thumb
 878              		.thumb_func
 879              		.type	chFactoryRegisterObject, %function
 880              	chFactoryRegisterObject:
 881              	.LFB357:
 882              		.loc 4 327 58
 883              		.cfi_startproc
 884              		@ args = 0, pretend = 0, frame = 16
 885              		@ frame_needed = 1, uses_anonymous_args = 0
 886 0000 80B5     		push	{r7, lr}
 887              		.cfi_def_cfa_offset 8
 888              		.cfi_offset 7, -8
 889              		.cfi_offset 14, -4
 890 0002 84B0     		sub	sp, sp, #16
 891              		.cfi_def_cfa_offset 24
 892 0004 00AF     		add	r7, sp, #0
 893              		.cfi_def_cfa_register 7
 894 0006 7860     		str	r0, [r7, #4]
 895 0008 3960     		str	r1, [r7]
 896              		.loc 4 330 3
 897 000a 0B48     		ldr	r0, .L45
 898 000c FFF7FEFF 		bl	chMtxLock
 899              		.loc 4 332 32
 900 0010 0A4A     		ldr	r2, .L45+4
 901 0012 0B49     		ldr	r1, .L45+8
 902 0014 7868     		ldr	r0, [r7, #4]
 903 0016 FFF7FEFF 		bl	dyn_create_object_pool
 904 001a F860     		str	r0, [r7, #12]
 905              		.loc 4 335 6
 906 001c FB68     		ldr	r3, [r7, #12]
 907 001e 002B     		cmp	r3, #0
 908 0020 02D0     		beq	.L43
ARM GAS  C:\Users\DEVELO~1\AppData\Local\Temp\ccn8NbSB.s 			page 17


 909              		.loc 4 337 15
 910 0022 FB68     		ldr	r3, [r7, #12]
 911 0024 3A68     		ldr	r2, [r7]
 912 0026 1A61     		str	r2, [r3, #16]
 913              	.L43:
 914              		.loc 4 340 3
 915 0028 0348     		ldr	r0, .L45
 916 002a FFF7FEFF 		bl	chMtxUnlock
 917              		.loc 4 342 10
 918 002e FB68     		ldr	r3, [r7, #12]
 919              		.loc 4 343 1
 920 0030 1846     		mov	r0, r3
 921 0032 1037     		adds	r7, r7, #16
 922              		.cfi_def_cfa_offset 8
 923 0034 BD46     		mov	sp, r7
 924              		.cfi_def_cfa_register 13
 925              		@ sp needed
 926 0036 80BD     		pop	{r7, pc}
 927              	.L46:
 928              		.align	2
 929              	.L45:
 930 0038 00000000 		.word	ch_factory
 931 003c 14000000 		.word	ch_factory+20
 932 0040 10000000 		.word	ch_factory+16
 933              		.cfi_endproc
 934              	.LFE357:
 935              		.size	chFactoryRegisterObject, .-chFactoryRegisterObject
 936              		.section	.text.chFactoryFindObject,"ax",%progbits
 937              		.align	1
 938              		.global	chFactoryFindObject
 939              		.syntax unified
 940              		.thumb
 941              		.thumb_func
 942              		.type	chFactoryFindObject, %function
 943              	chFactoryFindObject:
 944              	.LFB358:
 945              		.loc 4 358 60
 946              		.cfi_startproc
 947              		@ args = 0, pretend = 0, frame = 16
 948              		@ frame_needed = 1, uses_anonymous_args = 0
 949 0000 80B5     		push	{r7, lr}
 950              		.cfi_def_cfa_offset 8
 951              		.cfi_offset 7, -8
 952              		.cfi_offset 14, -4
 953 0002 84B0     		sub	sp, sp, #16
 954              		.cfi_def_cfa_offset 24
 955 0004 00AF     		add	r7, sp, #0
 956              		.cfi_def_cfa_register 7
 957 0006 7860     		str	r0, [r7, #4]
 958              		.loc 4 361 3
 959 0008 0748     		ldr	r0, .L49
 960 000a FFF7FEFF 		bl	chMtxLock
 961              		.loc 4 363 32
 962 000e 0749     		ldr	r1, .L49+4
 963 0010 7868     		ldr	r0, [r7, #4]
 964 0012 FFF7FEFF 		bl	dyn_find_object
 965 0016 F860     		str	r0, [r7, #12]
ARM GAS  C:\Users\DEVELO~1\AppData\Local\Temp\ccn8NbSB.s 			page 18


 966              		.loc 4 365 3
 967 0018 0348     		ldr	r0, .L49
 968 001a FFF7FEFF 		bl	chMtxUnlock
 969              		.loc 4 367 10
 970 001e FB68     		ldr	r3, [r7, #12]
 971              		.loc 4 368 1
 972 0020 1846     		mov	r0, r3
 973 0022 1037     		adds	r7, r7, #16
 974              		.cfi_def_cfa_offset 8
 975 0024 BD46     		mov	sp, r7
 976              		.cfi_def_cfa_register 13
 977              		@ sp needed
 978 0026 80BD     		pop	{r7, pc}
 979              	.L50:
 980              		.align	2
 981              	.L49:
 982 0028 00000000 		.word	ch_factory
 983 002c 10000000 		.word	ch_factory+16
 984              		.cfi_endproc
 985              	.LFE358:
 986              		.size	chFactoryFindObject, .-chFactoryFindObject
 987              		.section	.text.chFactoryFindObjectByPointer,"ax",%progbits
 988              		.align	1
 989              		.global	chFactoryFindObjectByPointer
 990              		.syntax unified
 991              		.thumb
 992              		.thumb_func
 993              		.type	chFactoryFindObjectByPointer, %function
 994              	chFactoryFindObjectByPointer:
 995              	.LFB359:
 996              		.loc 4 383 63
 997              		.cfi_startproc
 998              		@ args = 0, pretend = 0, frame = 16
 999              		@ frame_needed = 1, uses_anonymous_args = 0
 1000 0000 80B5     		push	{r7, lr}
 1001              		.cfi_def_cfa_offset 8
 1002              		.cfi_offset 7, -8
 1003              		.cfi_offset 14, -4
 1004 0002 84B0     		sub	sp, sp, #16
 1005              		.cfi_def_cfa_offset 24
 1006 0004 00AF     		add	r7, sp, #0
 1007              		.cfi_def_cfa_register 7
 1008 0006 7860     		str	r0, [r7, #4]
 1009              		.loc 4 384 24
 1010 0008 124B     		ldr	r3, .L56
 1011 000a 1B69     		ldr	r3, [r3, #16]
 1012 000c FB60     		str	r3, [r7, #12]
 1013              		.loc 4 386 3
 1014 000e 1148     		ldr	r0, .L56
 1015 0010 FFF7FEFF 		bl	chMtxLock
 1016              		.loc 4 388 9
 1017 0014 11E0     		b	.L52
 1018              	.L55:
 1019              		.loc 4 389 12
 1020 0016 FB68     		ldr	r3, [r7, #12]
 1021 0018 1B69     		ldr	r3, [r3, #16]
 1022              		.loc 4 389 8
ARM GAS  C:\Users\DEVELO~1\AppData\Local\Temp\ccn8NbSB.s 			page 19


 1023 001a 7A68     		ldr	r2, [r7, #4]
 1024 001c 9A42     		cmp	r2, r3
 1025 001e 09D1     		bne	.L53
 1026              		.loc 4 390 19
 1027 0020 FB68     		ldr	r3, [r7, #12]
 1028 0022 5B68     		ldr	r3, [r3, #4]
 1029              		.loc 4 390 24
 1030 0024 5A1C     		adds	r2, r3, #1
 1031 0026 FB68     		ldr	r3, [r7, #12]
 1032 0028 5A60     		str	r2, [r3, #4]
 1033              		.loc 4 392 7
 1034 002a 0A48     		ldr	r0, .L56
 1035 002c FFF7FEFF 		bl	chMtxUnlock
 1036              		.loc 4 394 14
 1037 0030 FB68     		ldr	r3, [r7, #12]
 1038 0032 0AE0     		b	.L54
 1039              	.L53:
 1040              		.loc 4 396 9
 1041 0034 FB68     		ldr	r3, [r7, #12]
 1042 0036 1B68     		ldr	r3, [r3]
 1043 0038 FB60     		str	r3, [r7, #12]
 1044              	.L52:
 1045              		.loc 4 388 22
 1046 003a FB68     		ldr	r3, [r7, #12]
 1047 003c 064A     		ldr	r2, .L56+4
 1048 003e 9342     		cmp	r3, r2
 1049 0040 E9D1     		bne	.L55
 1050              		.loc 4 399 3
 1051 0042 0448     		ldr	r0, .L56
 1052 0044 FFF7FEFF 		bl	chMtxUnlock
 1053              		.loc 4 401 10
 1054 0048 0023     		movs	r3, #0
 1055              	.L54:
 1056              		.loc 4 402 1
 1057 004a 1846     		mov	r0, r3
 1058 004c 1037     		adds	r7, r7, #16
 1059              		.cfi_def_cfa_offset 8
 1060 004e BD46     		mov	sp, r7
 1061              		.cfi_def_cfa_register 13
 1062              		@ sp needed
 1063 0050 80BD     		pop	{r7, pc}
 1064              	.L57:
 1065 0052 00BF     		.align	2
 1066              	.L56:
 1067 0054 00000000 		.word	ch_factory
 1068 0058 10000000 		.word	ch_factory+16
 1069              		.cfi_endproc
 1070              	.LFE359:
 1071              		.size	chFactoryFindObjectByPointer, .-chFactoryFindObjectByPointer
 1072              		.section	.text.chFactoryReleaseObject,"ax",%progbits
 1073              		.align	1
 1074              		.global	chFactoryReleaseObject
 1075              		.syntax unified
 1076              		.thumb
 1077              		.thumb_func
 1078              		.type	chFactoryReleaseObject, %function
 1079              	chFactoryReleaseObject:
ARM GAS  C:\Users\DEVELO~1\AppData\Local\Temp\ccn8NbSB.s 			page 20


 1080              	.LFB360:
 1081              		.loc 4 416 55
 1082              		.cfi_startproc
 1083              		@ args = 0, pretend = 0, frame = 8
 1084              		@ frame_needed = 1, uses_anonymous_args = 0
 1085 0000 80B5     		push	{r7, lr}
 1086              		.cfi_def_cfa_offset 8
 1087              		.cfi_offset 7, -8
 1088              		.cfi_offset 14, -4
 1089 0002 82B0     		sub	sp, sp, #8
 1090              		.cfi_def_cfa_offset 16
 1091 0004 00AF     		add	r7, sp, #0
 1092              		.cfi_def_cfa_register 7
 1093 0006 7860     		str	r0, [r7, #4]
 1094              		.loc 4 418 3
 1095 0008 0748     		ldr	r0, .L59
 1096 000a FFF7FEFF 		bl	chMtxLock
 1097              		.loc 4 420 3
 1098 000e 7B68     		ldr	r3, [r7, #4]
 1099 0010 064A     		ldr	r2, .L59+4
 1100 0012 0749     		ldr	r1, .L59+8
 1101 0014 1846     		mov	r0, r3
 1102 0016 FFF7FEFF 		bl	dyn_release_object_pool
 1103              		.loc 4 424 3
 1104 001a 0348     		ldr	r0, .L59
 1105 001c FFF7FEFF 		bl	chMtxUnlock
 1106              		.loc 4 425 1
 1107 0020 00BF     		nop
 1108 0022 0837     		adds	r7, r7, #8
 1109              		.cfi_def_cfa_offset 8
 1110 0024 BD46     		mov	sp, r7
 1111              		.cfi_def_cfa_register 13
 1112              		@ sp needed
 1113 0026 80BD     		pop	{r7, pc}
 1114              	.L60:
 1115              		.align	2
 1116              	.L59:
 1117 0028 00000000 		.word	ch_factory
 1118 002c 14000000 		.word	ch_factory+20
 1119 0030 10000000 		.word	ch_factory+16
 1120              		.cfi_endproc
 1121              	.LFE360:
 1122              		.size	chFactoryReleaseObject, .-chFactoryReleaseObject
 1123              		.section	.text.chFactoryCreateBuffer,"ax",%progbits
 1124              		.align	1
 1125              		.global	chFactoryCreateBuffer
 1126              		.syntax unified
 1127              		.thumb
 1128              		.thumb_func
 1129              		.type	chFactoryCreateBuffer, %function
 1130              	chFactoryCreateBuffer:
 1131              	.LFB361:
 1132              		.loc 4 444 68
 1133              		.cfi_startproc
 1134              		@ args = 0, pretend = 0, frame = 16
 1135              		@ frame_needed = 1, uses_anonymous_args = 0
 1136 0000 80B5     		push	{r7, lr}
ARM GAS  C:\Users\DEVELO~1\AppData\Local\Temp\ccn8NbSB.s 			page 21


 1137              		.cfi_def_cfa_offset 8
 1138              		.cfi_offset 7, -8
 1139              		.cfi_offset 14, -4
 1140 0002 84B0     		sub	sp, sp, #16
 1141              		.cfi_def_cfa_offset 24
 1142 0004 00AF     		add	r7, sp, #0
 1143              		.cfi_def_cfa_register 7
 1144 0006 7860     		str	r0, [r7, #4]
 1145 0008 3960     		str	r1, [r7]
 1146              		.loc 4 447 3
 1147 000a 0F48     		ldr	r0, .L64
 1148 000c FFF7FEFF 		bl	chMtxLock
 1149              		.loc 4 449 25
 1150 0010 3B68     		ldr	r3, [r7]
 1151 0012 03F11002 		add	r2, r3, #16
 1152 0016 0823     		movs	r3, #8
 1153 0018 0C49     		ldr	r1, .L64+4
 1154 001a 7868     		ldr	r0, [r7, #4]
 1155 001c FFF7FEFF 		bl	dyn_create_object_heap
 1156 0020 F860     		str	r0, [r7, #12]
 1157              		.loc 4 453 6
 1158 0022 FB68     		ldr	r3, [r7, #12]
 1159 0024 002B     		cmp	r3, #0
 1160 0026 06D0     		beq	.L62
 1161              		.loc 4 455 25
 1162 0028 FB68     		ldr	r3, [r7, #12]
 1163 002a 1033     		adds	r3, r3, #16
 1164              		.loc 4 455 5
 1165 002c 3A68     		ldr	r2, [r7]
 1166 002e 0021     		movs	r1, #0
 1167 0030 1846     		mov	r0, r3
 1168 0032 FFF7FEFF 		bl	memset
 1169              	.L62:
 1170              		.loc 4 458 3
 1171 0036 0448     		ldr	r0, .L64
 1172 0038 FFF7FEFF 		bl	chMtxUnlock
 1173              		.loc 4 460 10
 1174 003c FB68     		ldr	r3, [r7, #12]
 1175              		.loc 4 461 1
 1176 003e 1846     		mov	r0, r3
 1177 0040 1037     		adds	r7, r7, #16
 1178              		.cfi_def_cfa_offset 8
 1179 0042 BD46     		mov	sp, r7
 1180              		.cfi_def_cfa_register 13
 1181              		@ sp needed
 1182 0044 80BD     		pop	{r7, pc}
 1183              	.L65:
 1184 0046 00BF     		.align	2
 1185              	.L64:
 1186 0048 00000000 		.word	ch_factory
 1187 004c 24000000 		.word	ch_factory+36
 1188              		.cfi_endproc
 1189              	.LFE361:
 1190              		.size	chFactoryCreateBuffer, .-chFactoryCreateBuffer
 1191              		.section	.text.chFactoryFindBuffer,"ax",%progbits
 1192              		.align	1
 1193              		.global	chFactoryFindBuffer
ARM GAS  C:\Users\DEVELO~1\AppData\Local\Temp\ccn8NbSB.s 			page 22


 1194              		.syntax unified
 1195              		.thumb
 1196              		.thumb_func
 1197              		.type	chFactoryFindBuffer, %function
 1198              	chFactoryFindBuffer:
 1199              	.LFB362:
 1200              		.loc 4 476 53
 1201              		.cfi_startproc
 1202              		@ args = 0, pretend = 0, frame = 16
 1203              		@ frame_needed = 1, uses_anonymous_args = 0
 1204 0000 80B5     		push	{r7, lr}
 1205              		.cfi_def_cfa_offset 8
 1206              		.cfi_offset 7, -8
 1207              		.cfi_offset 14, -4
 1208 0002 84B0     		sub	sp, sp, #16
 1209              		.cfi_def_cfa_offset 24
 1210 0004 00AF     		add	r7, sp, #0
 1211              		.cfi_def_cfa_register 7
 1212 0006 7860     		str	r0, [r7, #4]
 1213              		.loc 4 479 3
 1214 0008 0748     		ldr	r0, .L68
 1215 000a FFF7FEFF 		bl	chMtxLock
 1216              		.loc 4 481 25
 1217 000e 0749     		ldr	r1, .L68+4
 1218 0010 7868     		ldr	r0, [r7, #4]
 1219 0012 FFF7FEFF 		bl	dyn_find_object
 1220 0016 F860     		str	r0, [r7, #12]
 1221              		.loc 4 483 3
 1222 0018 0348     		ldr	r0, .L68
 1223 001a FFF7FEFF 		bl	chMtxUnlock
 1224              		.loc 4 485 10
 1225 001e FB68     		ldr	r3, [r7, #12]
 1226              		.loc 4 486 1
 1227 0020 1846     		mov	r0, r3
 1228 0022 1037     		adds	r7, r7, #16
 1229              		.cfi_def_cfa_offset 8
 1230 0024 BD46     		mov	sp, r7
 1231              		.cfi_def_cfa_register 13
 1232              		@ sp needed
 1233 0026 80BD     		pop	{r7, pc}
 1234              	.L69:
 1235              		.align	2
 1236              	.L68:
 1237 0028 00000000 		.word	ch_factory
 1238 002c 24000000 		.word	ch_factory+36
 1239              		.cfi_endproc
 1240              	.LFE362:
 1241              		.size	chFactoryFindBuffer, .-chFactoryFindBuffer
 1242              		.section	.text.chFactoryReleaseBuffer,"ax",%progbits
 1243              		.align	1
 1244              		.global	chFactoryReleaseBuffer
 1245              		.syntax unified
 1246              		.thumb
 1247              		.thumb_func
 1248              		.type	chFactoryReleaseBuffer, %function
 1249              	chFactoryReleaseBuffer:
 1250              	.LFB363:
ARM GAS  C:\Users\DEVELO~1\AppData\Local\Temp\ccn8NbSB.s 			page 23


 1251              		.loc 4 498 48
 1252              		.cfi_startproc
 1253              		@ args = 0, pretend = 0, frame = 8
 1254              		@ frame_needed = 1, uses_anonymous_args = 0
 1255 0000 80B5     		push	{r7, lr}
 1256              		.cfi_def_cfa_offset 8
 1257              		.cfi_offset 7, -8
 1258              		.cfi_offset 14, -4
 1259 0002 82B0     		sub	sp, sp, #8
 1260              		.cfi_def_cfa_offset 16
 1261 0004 00AF     		add	r7, sp, #0
 1262              		.cfi_def_cfa_register 7
 1263 0006 7860     		str	r0, [r7, #4]
 1264              		.loc 4 500 3
 1265 0008 0748     		ldr	r0, .L71
 1266 000a FFF7FEFF 		bl	chMtxLock
 1267              		.loc 4 502 3
 1268 000e 7B68     		ldr	r3, [r7, #4]
 1269 0010 0649     		ldr	r1, .L71+4
 1270 0012 1846     		mov	r0, r3
 1271 0014 FFF7FEFF 		bl	dyn_release_object_heap
 1272              		.loc 4 504 3
 1273 0018 0348     		ldr	r0, .L71
 1274 001a FFF7FEFF 		bl	chMtxUnlock
 1275              		.loc 4 505 1
 1276 001e 00BF     		nop
 1277 0020 0837     		adds	r7, r7, #8
 1278              		.cfi_def_cfa_offset 8
 1279 0022 BD46     		mov	sp, r7
 1280              		.cfi_def_cfa_register 13
 1281              		@ sp needed
 1282 0024 80BD     		pop	{r7, pc}
 1283              	.L72:
 1284 0026 00BF     		.align	2
 1285              	.L71:
 1286 0028 00000000 		.word	ch_factory
 1287 002c 24000000 		.word	ch_factory+36
 1288              		.cfi_endproc
 1289              	.LFE363:
 1290              		.size	chFactoryReleaseBuffer, .-chFactoryReleaseBuffer
 1291              		.section	.text.chFactoryCreateSemaphore,"ax",%progbits
 1292              		.align	1
 1293              		.global	chFactoryCreateSemaphore
 1294              		.syntax unified
 1295              		.thumb
 1296              		.thumb_func
 1297              		.type	chFactoryCreateSemaphore, %function
 1298              	chFactoryCreateSemaphore:
 1299              	.LFB364:
 1300              		.loc 4 524 70
 1301              		.cfi_startproc
 1302              		@ args = 0, pretend = 0, frame = 16
 1303              		@ frame_needed = 1, uses_anonymous_args = 0
 1304 0000 80B5     		push	{r7, lr}
 1305              		.cfi_def_cfa_offset 8
 1306              		.cfi_offset 7, -8
 1307              		.cfi_offset 14, -4
ARM GAS  C:\Users\DEVELO~1\AppData\Local\Temp\ccn8NbSB.s 			page 24


 1308 0002 84B0     		sub	sp, sp, #16
 1309              		.cfi_def_cfa_offset 24
 1310 0004 00AF     		add	r7, sp, #0
 1311              		.cfi_def_cfa_register 7
 1312 0006 7860     		str	r0, [r7, #4]
 1313 0008 3960     		str	r1, [r7]
 1314              		.loc 4 527 3
 1315 000a 0D48     		ldr	r0, .L76
 1316 000c FFF7FEFF 		bl	chMtxLock
 1317              		.loc 4 529 28
 1318 0010 0C4A     		ldr	r2, .L76+4
 1319 0012 0D49     		ldr	r1, .L76+8
 1320 0014 7868     		ldr	r0, [r7, #4]
 1321 0016 FFF7FEFF 		bl	dyn_create_object_pool
 1322 001a F860     		str	r0, [r7, #12]
 1323              		.loc 4 532 6
 1324 001c FB68     		ldr	r3, [r7, #12]
 1325 001e 002B     		cmp	r3, #0
 1326 0020 05D0     		beq	.L74
 1327              		.loc 4 534 5
 1328 0022 FB68     		ldr	r3, [r7, #12]
 1329 0024 1033     		adds	r3, r3, #16
 1330 0026 3968     		ldr	r1, [r7]
 1331 0028 1846     		mov	r0, r3
 1332 002a FFF7FEFF 		bl	chSemObjectInit
 1333              	.L74:
 1334              		.loc 4 537 3
 1335 002e 0448     		ldr	r0, .L76
 1336 0030 FFF7FEFF 		bl	chMtxUnlock
 1337              		.loc 4 539 10
 1338 0034 FB68     		ldr	r3, [r7, #12]
 1339              		.loc 4 540 1
 1340 0036 1846     		mov	r0, r3
 1341 0038 1037     		adds	r7, r7, #16
 1342              		.cfi_def_cfa_offset 8
 1343 003a BD46     		mov	sp, r7
 1344              		.cfi_def_cfa_register 13
 1345              		@ sp needed
 1346 003c 80BD     		pop	{r7, pc}
 1347              	.L77:
 1348 003e 00BF     		.align	2
 1349              	.L76:
 1350 0040 00000000 		.word	ch_factory
 1351 0044 2C000000 		.word	ch_factory+44
 1352 0048 28000000 		.word	ch_factory+40
 1353              		.cfi_endproc
 1354              	.LFE364:
 1355              		.size	chFactoryCreateSemaphore, .-chFactoryCreateSemaphore
 1356              		.section	.text.chFactoryFindSemaphore,"ax",%progbits
 1357              		.align	1
 1358              		.global	chFactoryFindSemaphore
 1359              		.syntax unified
 1360              		.thumb
 1361              		.thumb_func
 1362              		.type	chFactoryFindSemaphore, %function
 1363              	chFactoryFindSemaphore:
 1364              	.LFB365:
ARM GAS  C:\Users\DEVELO~1\AppData\Local\Temp\ccn8NbSB.s 			page 25


 1365              		.loc 4 555 59
 1366              		.cfi_startproc
 1367              		@ args = 0, pretend = 0, frame = 16
 1368              		@ frame_needed = 1, uses_anonymous_args = 0
 1369 0000 80B5     		push	{r7, lr}
 1370              		.cfi_def_cfa_offset 8
 1371              		.cfi_offset 7, -8
 1372              		.cfi_offset 14, -4
 1373 0002 84B0     		sub	sp, sp, #16
 1374              		.cfi_def_cfa_offset 24
 1375 0004 00AF     		add	r7, sp, #0
 1376              		.cfi_def_cfa_register 7
 1377 0006 7860     		str	r0, [r7, #4]
 1378              		.loc 4 558 3
 1379 0008 0748     		ldr	r0, .L80
 1380 000a FFF7FEFF 		bl	chMtxLock
 1381              		.loc 4 560 28
 1382 000e 0749     		ldr	r1, .L80+4
 1383 0010 7868     		ldr	r0, [r7, #4]
 1384 0012 FFF7FEFF 		bl	dyn_find_object
 1385 0016 F860     		str	r0, [r7, #12]
 1386              		.loc 4 562 3
 1387 0018 0348     		ldr	r0, .L80
 1388 001a FFF7FEFF 		bl	chMtxUnlock
 1389              		.loc 4 564 10
 1390 001e FB68     		ldr	r3, [r7, #12]
 1391              		.loc 4 565 1
 1392 0020 1846     		mov	r0, r3
 1393 0022 1037     		adds	r7, r7, #16
 1394              		.cfi_def_cfa_offset 8
 1395 0024 BD46     		mov	sp, r7
 1396              		.cfi_def_cfa_register 13
 1397              		@ sp needed
 1398 0026 80BD     		pop	{r7, pc}
 1399              	.L81:
 1400              		.align	2
 1401              	.L80:
 1402 0028 00000000 		.word	ch_factory
 1403 002c 28000000 		.word	ch_factory+40
 1404              		.cfi_endproc
 1405              	.LFE365:
 1406              		.size	chFactoryFindSemaphore, .-chFactoryFindSemaphore
 1407              		.section	.text.chFactoryReleaseSemaphore,"ax",%progbits
 1408              		.align	1
 1409              		.global	chFactoryReleaseSemaphore
 1410              		.syntax unified
 1411              		.thumb
 1412              		.thumb_func
 1413              		.type	chFactoryReleaseSemaphore, %function
 1414              	chFactoryReleaseSemaphore:
 1415              	.LFB366:
 1416              		.loc 4 577 54
 1417              		.cfi_startproc
 1418              		@ args = 0, pretend = 0, frame = 8
 1419              		@ frame_needed = 1, uses_anonymous_args = 0
 1420 0000 80B5     		push	{r7, lr}
 1421              		.cfi_def_cfa_offset 8
ARM GAS  C:\Users\DEVELO~1\AppData\Local\Temp\ccn8NbSB.s 			page 26


 1422              		.cfi_offset 7, -8
 1423              		.cfi_offset 14, -4
 1424 0002 82B0     		sub	sp, sp, #8
 1425              		.cfi_def_cfa_offset 16
 1426 0004 00AF     		add	r7, sp, #0
 1427              		.cfi_def_cfa_register 7
 1428 0006 7860     		str	r0, [r7, #4]
 1429              		.loc 4 579 3
 1430 0008 0748     		ldr	r0, .L83
 1431 000a FFF7FEFF 		bl	chMtxLock
 1432              		.loc 4 581 3
 1433 000e 7B68     		ldr	r3, [r7, #4]
 1434 0010 064A     		ldr	r2, .L83+4
 1435 0012 0749     		ldr	r1, .L83+8
 1436 0014 1846     		mov	r0, r3
 1437 0016 FFF7FEFF 		bl	dyn_release_object_pool
 1438              		.loc 4 585 3
 1439 001a 0348     		ldr	r0, .L83
 1440 001c FFF7FEFF 		bl	chMtxUnlock
 1441              		.loc 4 586 1
 1442 0020 00BF     		nop
 1443 0022 0837     		adds	r7, r7, #8
 1444              		.cfi_def_cfa_offset 8
 1445 0024 BD46     		mov	sp, r7
 1446              		.cfi_def_cfa_register 13
 1447              		@ sp needed
 1448 0026 80BD     		pop	{r7, pc}
 1449              	.L84:
 1450              		.align	2
 1451              	.L83:
 1452 0028 00000000 		.word	ch_factory
 1453 002c 2C000000 		.word	ch_factory+44
 1454 0030 28000000 		.word	ch_factory+40
 1455              		.cfi_endproc
 1456              	.LFE366:
 1457              		.size	chFactoryReleaseSemaphore, .-chFactoryReleaseSemaphore
 1458              		.section	.text.chFactoryCreateMailbox,"ax",%progbits
 1459              		.align	1
 1460              		.global	chFactoryCreateMailbox
 1461              		.syntax unified
 1462              		.thumb
 1463              		.thumb_func
 1464              		.type	chFactoryCreateMailbox, %function
 1465              	chFactoryCreateMailbox:
 1466              	.LFB367:
 1467              		.loc 4 605 67
 1468              		.cfi_startproc
 1469              		@ args = 0, pretend = 0, frame = 16
 1470              		@ frame_needed = 1, uses_anonymous_args = 0
 1471 0000 80B5     		push	{r7, lr}
 1472              		.cfi_def_cfa_offset 8
 1473              		.cfi_offset 7, -8
 1474              		.cfi_offset 14, -4
 1475 0002 84B0     		sub	sp, sp, #16
 1476              		.cfi_def_cfa_offset 24
 1477 0004 00AF     		add	r7, sp, #0
 1478              		.cfi_def_cfa_register 7
ARM GAS  C:\Users\DEVELO~1\AppData\Local\Temp\ccn8NbSB.s 			page 27


 1479 0006 7860     		str	r0, [r7, #4]
 1480 0008 3960     		str	r1, [r7]
 1481              		.loc 4 608 3
 1482 000a 1048     		ldr	r0, .L88
 1483 000c FFF7FEFF 		bl	chMtxLock
 1484              		.loc 4 612 72
 1485 0010 3B68     		ldr	r3, [r7]
 1486 0012 0E33     		adds	r3, r3, #14
 1487              		.loc 4 610 26
 1488 0014 9A00     		lsls	r2, r3, #2
 1489 0016 0823     		movs	r3, #8
 1490 0018 0D49     		ldr	r1, .L88+4
 1491 001a 7868     		ldr	r0, [r7, #4]
 1492 001c FFF7FEFF 		bl	dyn_create_object_heap
 1493 0020 F860     		str	r0, [r7, #12]
 1494              		.loc 4 615 6
 1495 0022 FB68     		ldr	r3, [r7, #12]
 1496 0024 002B     		cmp	r3, #0
 1497 0026 08D0     		beq	.L86
 1498              		.loc 4 617 5
 1499 0028 FB68     		ldr	r3, [r7, #12]
 1500 002a 03F11000 		add	r0, r3, #16
 1501              		.loc 4 617 45
 1502 002e FB68     		ldr	r3, [r7, #12]
 1503 0030 3833     		adds	r3, r3, #56
 1504              		.loc 4 617 5
 1505 0032 3A68     		ldr	r2, [r7]
 1506 0034 1946     		mov	r1, r3
 1507 0036 FFF7FEFF 		bl	chMBObjectInit
 1508              	.L86:
 1509              		.loc 4 620 3
 1510 003a 0448     		ldr	r0, .L88
 1511 003c FFF7FEFF 		bl	chMtxUnlock
 1512              		.loc 4 622 10
 1513 0040 FB68     		ldr	r3, [r7, #12]
 1514              		.loc 4 623 1
 1515 0042 1846     		mov	r0, r3
 1516 0044 1037     		adds	r7, r7, #16
 1517              		.cfi_def_cfa_offset 8
 1518 0046 BD46     		mov	sp, r7
 1519              		.cfi_def_cfa_register 13
 1520              		@ sp needed
 1521 0048 80BD     		pop	{r7, pc}
 1522              	.L89:
 1523 004a 00BF     		.align	2
 1524              	.L88:
 1525 004c 00000000 		.word	ch_factory
 1526 0050 3C000000 		.word	ch_factory+60
 1527              		.cfi_endproc
 1528              	.LFE367:
 1529              		.size	chFactoryCreateMailbox, .-chFactoryCreateMailbox
 1530              		.section	.text.chFactoryFindMailbox,"ax",%progbits
 1531              		.align	1
 1532              		.global	chFactoryFindMailbox
 1533              		.syntax unified
 1534              		.thumb
 1535              		.thumb_func
ARM GAS  C:\Users\DEVELO~1\AppData\Local\Temp\ccn8NbSB.s 			page 28


 1536              		.type	chFactoryFindMailbox, %function
 1537              	chFactoryFindMailbox:
 1538              	.LFB368:
 1539              		.loc 4 638 55
 1540              		.cfi_startproc
 1541              		@ args = 0, pretend = 0, frame = 16
 1542              		@ frame_needed = 1, uses_anonymous_args = 0
 1543 0000 80B5     		push	{r7, lr}
 1544              		.cfi_def_cfa_offset 8
 1545              		.cfi_offset 7, -8
 1546              		.cfi_offset 14, -4
 1547 0002 84B0     		sub	sp, sp, #16
 1548              		.cfi_def_cfa_offset 24
 1549 0004 00AF     		add	r7, sp, #0
 1550              		.cfi_def_cfa_register 7
 1551 0006 7860     		str	r0, [r7, #4]
 1552              		.loc 4 641 3
 1553 0008 0748     		ldr	r0, .L92
 1554 000a FFF7FEFF 		bl	chMtxLock
 1555              		.loc 4 643 26
 1556 000e 0749     		ldr	r1, .L92+4
 1557 0010 7868     		ldr	r0, [r7, #4]
 1558 0012 FFF7FEFF 		bl	dyn_find_object
 1559 0016 F860     		str	r0, [r7, #12]
 1560              		.loc 4 645 3
 1561 0018 0348     		ldr	r0, .L92
 1562 001a FFF7FEFF 		bl	chMtxUnlock
 1563              		.loc 4 647 10
 1564 001e FB68     		ldr	r3, [r7, #12]
 1565              		.loc 4 648 1
 1566 0020 1846     		mov	r0, r3
 1567 0022 1037     		adds	r7, r7, #16
 1568              		.cfi_def_cfa_offset 8
 1569 0024 BD46     		mov	sp, r7
 1570              		.cfi_def_cfa_register 13
 1571              		@ sp needed
 1572 0026 80BD     		pop	{r7, pc}
 1573              	.L93:
 1574              		.align	2
 1575              	.L92:
 1576 0028 00000000 		.word	ch_factory
 1577 002c 3C000000 		.word	ch_factory+60
 1578              		.cfi_endproc
 1579              	.LFE368:
 1580              		.size	chFactoryFindMailbox, .-chFactoryFindMailbox
 1581              		.section	.text.chFactoryReleaseMailbox,"ax",%progbits
 1582              		.align	1
 1583              		.global	chFactoryReleaseMailbox
 1584              		.syntax unified
 1585              		.thumb
 1586              		.thumb_func
 1587              		.type	chFactoryReleaseMailbox, %function
 1588              	chFactoryReleaseMailbox:
 1589              	.LFB369:
 1590              		.loc 4 660 50
 1591              		.cfi_startproc
 1592              		@ args = 0, pretend = 0, frame = 8
ARM GAS  C:\Users\DEVELO~1\AppData\Local\Temp\ccn8NbSB.s 			page 29


 1593              		@ frame_needed = 1, uses_anonymous_args = 0
 1594 0000 80B5     		push	{r7, lr}
 1595              		.cfi_def_cfa_offset 8
 1596              		.cfi_offset 7, -8
 1597              		.cfi_offset 14, -4
 1598 0002 82B0     		sub	sp, sp, #8
 1599              		.cfi_def_cfa_offset 16
 1600 0004 00AF     		add	r7, sp, #0
 1601              		.cfi_def_cfa_register 7
 1602 0006 7860     		str	r0, [r7, #4]
 1603              		.loc 4 662 3
 1604 0008 0748     		ldr	r0, .L95
 1605 000a FFF7FEFF 		bl	chMtxLock
 1606              		.loc 4 664 3
 1607 000e 7B68     		ldr	r3, [r7, #4]
 1608 0010 0649     		ldr	r1, .L95+4
 1609 0012 1846     		mov	r0, r3
 1610 0014 FFF7FEFF 		bl	dyn_release_object_heap
 1611              		.loc 4 666 3
 1612 0018 0348     		ldr	r0, .L95
 1613 001a FFF7FEFF 		bl	chMtxUnlock
 1614              		.loc 4 667 1
 1615 001e 00BF     		nop
 1616 0020 0837     		adds	r7, r7, #8
 1617              		.cfi_def_cfa_offset 8
 1618 0022 BD46     		mov	sp, r7
 1619              		.cfi_def_cfa_register 13
 1620              		@ sp needed
 1621 0024 80BD     		pop	{r7, pc}
 1622              	.L96:
 1623 0026 00BF     		.align	2
 1624              	.L95:
 1625 0028 00000000 		.word	ch_factory
 1626 002c 3C000000 		.word	ch_factory+60
 1627              		.cfi_endproc
 1628              	.LFE369:
 1629              		.size	chFactoryReleaseMailbox, .-chFactoryReleaseMailbox
 1630              		.section	.text.chFactoryCreateObjectsFIFO,"ax",%progbits
 1631              		.align	1
 1632              		.global	chFactoryCreateObjectsFIFO
 1633              		.syntax unified
 1634              		.thumb
 1635              		.thumb_func
 1636              		.type	chFactoryCreateObjectsFIFO, %function
 1637              	chFactoryCreateObjectsFIFO:
 1638              	.LFB370:
 1639              		.loc 4 693 67
 1640              		.cfi_startproc
 1641              		@ args = 0, pretend = 0, frame = 40
 1642              		@ frame_needed = 1, uses_anonymous_args = 0
 1643 0000 80B5     		push	{r7, lr}
 1644              		.cfi_def_cfa_offset 8
 1645              		.cfi_offset 7, -8
 1646              		.cfi_offset 14, -4
 1647 0002 8CB0     		sub	sp, sp, #48
 1648              		.cfi_def_cfa_offset 56
 1649 0004 02AF     		add	r7, sp, #8
ARM GAS  C:\Users\DEVELO~1\AppData\Local\Temp\ccn8NbSB.s 			page 30


 1650              		.cfi_def_cfa 7, 48
 1651 0006 F860     		str	r0, [r7, #12]
 1652 0008 B960     		str	r1, [r7, #8]
 1653 000a 7A60     		str	r2, [r7, #4]
 1654 000c 3B60     		str	r3, [r7]
 1655              		.loc 4 697 3
 1656 000e 2048     		ldr	r0, .L100
 1657 0010 FFF7FEFF 		bl	chMtxLock
 1658              		.loc 4 700 13
 1659 0014 3A68     		ldr	r2, [r7]
 1660 0016 BB68     		ldr	r3, [r7, #8]
 1661 0018 1344     		add	r3, r3, r2
 1662 001a 5A1E     		subs	r2, r3, #1
 1663 001c 3B68     		ldr	r3, [r7]
 1664 001e 5B42     		rsbs	r3, r3, #0
 1665              		.loc 4 700 11
 1666 0020 1340     		ands	r3, r3, r2
 1667 0022 BB60     		str	r3, [r7, #8]
 1668              		.loc 4 701 13
 1669 0024 7B68     		ldr	r3, [r7, #4]
 1670 0026 1533     		adds	r3, r3, #21
 1671 0028 9A00     		lsls	r2, r3, #2
 1672 002a 3B68     		ldr	r3, [r7]
 1673 002c 1344     		add	r3, r3, r2
 1674 002e 5A1E     		subs	r2, r3, #1
 1675 0030 3B68     		ldr	r3, [r7]
 1676 0032 5B42     		rsbs	r3, r3, #0
 1677              		.loc 4 701 11
 1678 0034 1340     		ands	r3, r3, r2
 1679 0036 7B62     		str	r3, [r7, #36]
 1680              		.loc 4 703 11
 1681 0038 7B68     		ldr	r3, [r7, #4]
 1682 003a BA68     		ldr	r2, [r7, #8]
 1683 003c 02FB03F3 		mul	r3, r2, r3
 1684 0040 3B62     		str	r3, [r7, #32]
 1685              		.loc 4 706 32
 1686 0042 7A6A     		ldr	r2, [r7, #36]
 1687 0044 3B6A     		ldr	r3, [r7, #32]
 1688 0046 1A44     		add	r2, r2, r3
 1689 0048 3B68     		ldr	r3, [r7]
 1690 004a 1249     		ldr	r1, .L100+4
 1691 004c F868     		ldr	r0, [r7, #12]
 1692 004e FFF7FEFF 		bl	dyn_create_object_heap
 1693 0052 F861     		str	r0, [r7, #28]
 1694              		.loc 4 710 6
 1695 0054 FB69     		ldr	r3, [r7, #28]
 1696 0056 002B     		cmp	r3, #0
 1697 0058 12D0     		beq	.L98
 1698              	.LBB2:
 1699              		.loc 4 711 12
 1700 005a FB69     		ldr	r3, [r7, #28]
 1701 005c 5433     		adds	r3, r3, #84
 1702 005e BB61     		str	r3, [r7, #24]
 1703              		.loc 4 712 14
 1704 0060 FA69     		ldr	r2, [r7, #28]
 1705 0062 7B6A     		ldr	r3, [r7, #36]
 1706 0064 1344     		add	r3, r3, r2
ARM GAS  C:\Users\DEVELO~1\AppData\Local\Temp\ccn8NbSB.s 			page 31


 1707 0066 7B61     		str	r3, [r7, #20]
 1708              		.loc 4 715 5
 1709 0068 FB69     		ldr	r3, [r7, #28]
 1710 006a 03F11000 		add	r0, r3, #16
 1711 006e BB69     		ldr	r3, [r7, #24]
 1712 0070 0193     		str	r3, [sp, #4]
 1713 0072 7B69     		ldr	r3, [r7, #20]
 1714 0074 0093     		str	r3, [sp]
 1715 0076 3B68     		ldr	r3, [r7]
 1716 0078 7A68     		ldr	r2, [r7, #4]
 1717 007a B968     		ldr	r1, [r7, #8]
 1718 007c FFF7FEFF 		bl	chFifoObjectInitAligned
 1719              	.L98:
 1720              	.LBE2:
 1721              		.loc 4 719 3
 1722 0080 0348     		ldr	r0, .L100
 1723 0082 FFF7FEFF 		bl	chMtxUnlock
 1724              		.loc 4 721 10
 1725 0086 FB69     		ldr	r3, [r7, #28]
 1726              		.loc 4 722 1
 1727 0088 1846     		mov	r0, r3
 1728 008a 2837     		adds	r7, r7, #40
 1729              		.cfi_def_cfa_offset 8
 1730 008c BD46     		mov	sp, r7
 1731              		.cfi_def_cfa_register 13
 1732              		@ sp needed
 1733 008e 80BD     		pop	{r7, pc}
 1734              	.L101:
 1735              		.align	2
 1736              	.L100:
 1737 0090 00000000 		.word	ch_factory
 1738 0094 40000000 		.word	ch_factory+64
 1739              		.cfi_endproc
 1740              	.LFE370:
 1741              		.size	chFactoryCreateObjectsFIFO, .-chFactoryCreateObjectsFIFO
 1742              		.section	.text.chFactoryFindObjectsFIFO,"ax",%progbits
 1743              		.align	1
 1744              		.global	chFactoryFindObjectsFIFO
 1745              		.syntax unified
 1746              		.thumb
 1747              		.thumb_func
 1748              		.type	chFactoryFindObjectsFIFO, %function
 1749              	chFactoryFindObjectsFIFO:
 1750              	.LFB371:
 1751              		.loc 4 738 64
 1752              		.cfi_startproc
 1753              		@ args = 0, pretend = 0, frame = 16
 1754              		@ frame_needed = 1, uses_anonymous_args = 0
 1755 0000 80B5     		push	{r7, lr}
 1756              		.cfi_def_cfa_offset 8
 1757              		.cfi_offset 7, -8
 1758              		.cfi_offset 14, -4
 1759 0002 84B0     		sub	sp, sp, #16
 1760              		.cfi_def_cfa_offset 24
 1761 0004 00AF     		add	r7, sp, #0
 1762              		.cfi_def_cfa_register 7
 1763 0006 7860     		str	r0, [r7, #4]
ARM GAS  C:\Users\DEVELO~1\AppData\Local\Temp\ccn8NbSB.s 			page 32


 1764              		.loc 4 741 3
 1765 0008 0748     		ldr	r0, .L104
 1766 000a FFF7FEFF 		bl	chMtxLock
 1767              		.loc 4 743 32
 1768 000e 0749     		ldr	r1, .L104+4
 1769 0010 7868     		ldr	r0, [r7, #4]
 1770 0012 FFF7FEFF 		bl	dyn_find_object
 1771 0016 F860     		str	r0, [r7, #12]
 1772              		.loc 4 745 3
 1773 0018 0348     		ldr	r0, .L104
 1774 001a FFF7FEFF 		bl	chMtxUnlock
 1775              		.loc 4 747 10
 1776 001e FB68     		ldr	r3, [r7, #12]
 1777              		.loc 4 748 1
 1778 0020 1846     		mov	r0, r3
 1779 0022 1037     		adds	r7, r7, #16
 1780              		.cfi_def_cfa_offset 8
 1781 0024 BD46     		mov	sp, r7
 1782              		.cfi_def_cfa_register 13
 1783              		@ sp needed
 1784 0026 80BD     		pop	{r7, pc}
 1785              	.L105:
 1786              		.align	2
 1787              	.L104:
 1788 0028 00000000 		.word	ch_factory
 1789 002c 40000000 		.word	ch_factory+64
 1790              		.cfi_endproc
 1791              	.LFE371:
 1792              		.size	chFactoryFindObjectsFIFO, .-chFactoryFindObjectsFIFO
 1793              		.section	.text.chFactoryReleaseObjectsFIFO,"ax",%progbits
 1794              		.align	1
 1795              		.global	chFactoryReleaseObjectsFIFO
 1796              		.syntax unified
 1797              		.thumb
 1798              		.thumb_func
 1799              		.type	chFactoryReleaseObjectsFIFO, %function
 1800              	chFactoryReleaseObjectsFIFO:
 1801              	.LFB372:
 1802              		.loc 4 760 60
 1803              		.cfi_startproc
 1804              		@ args = 0, pretend = 0, frame = 8
 1805              		@ frame_needed = 1, uses_anonymous_args = 0
 1806 0000 80B5     		push	{r7, lr}
 1807              		.cfi_def_cfa_offset 8
 1808              		.cfi_offset 7, -8
 1809              		.cfi_offset 14, -4
 1810 0002 82B0     		sub	sp, sp, #8
 1811              		.cfi_def_cfa_offset 16
 1812 0004 00AF     		add	r7, sp, #0
 1813              		.cfi_def_cfa_register 7
 1814 0006 7860     		str	r0, [r7, #4]
 1815              		.loc 4 762 3
 1816 0008 0748     		ldr	r0, .L107
 1817 000a FFF7FEFF 		bl	chMtxLock
 1818              		.loc 4 764 3
 1819 000e 7B68     		ldr	r3, [r7, #4]
 1820 0010 0649     		ldr	r1, .L107+4
ARM GAS  C:\Users\DEVELO~1\AppData\Local\Temp\ccn8NbSB.s 			page 33


 1821 0012 1846     		mov	r0, r3
 1822 0014 FFF7FEFF 		bl	dyn_release_object_heap
 1823              		.loc 4 766 3
 1824 0018 0348     		ldr	r0, .L107
 1825 001a FFF7FEFF 		bl	chMtxUnlock
 1826              		.loc 4 767 1
 1827 001e 00BF     		nop
 1828 0020 0837     		adds	r7, r7, #8
 1829              		.cfi_def_cfa_offset 8
 1830 0022 BD46     		mov	sp, r7
 1831              		.cfi_def_cfa_register 13
 1832              		@ sp needed
 1833 0024 80BD     		pop	{r7, pc}
 1834              	.L108:
 1835 0026 00BF     		.align	2
 1836              	.L107:
 1837 0028 00000000 		.word	ch_factory
 1838 002c 40000000 		.word	ch_factory+64
 1839              		.cfi_endproc
 1840              	.LFE372:
 1841              		.size	chFactoryReleaseObjectsFIFO, .-chFactoryReleaseObjectsFIFO
 1842              		.section	.text.chFactoryCreatePipe,"ax",%progbits
 1843              		.align	1
 1844              		.global	chFactoryCreatePipe
 1845              		.syntax unified
 1846              		.thumb
 1847              		.thumb_func
 1848              		.type	chFactoryCreatePipe, %function
 1849              	chFactoryCreatePipe:
 1850              	.LFB373:
 1851              		.loc 4 788 64
 1852              		.cfi_startproc
 1853              		@ args = 0, pretend = 0, frame = 16
 1854              		@ frame_needed = 1, uses_anonymous_args = 0
 1855 0000 80B5     		push	{r7, lr}
 1856              		.cfi_def_cfa_offset 8
 1857              		.cfi_offset 7, -8
 1858              		.cfi_offset 14, -4
 1859 0002 84B0     		sub	sp, sp, #16
 1860              		.cfi_def_cfa_offset 24
 1861 0004 00AF     		add	r7, sp, #0
 1862              		.cfi_def_cfa_register 7
 1863 0006 7860     		str	r0, [r7, #4]
 1864 0008 3960     		str	r1, [r7]
 1865              		.loc 4 791 3
 1866 000a 1048     		ldr	r0, .L112
 1867 000c FFF7FEFF 		bl	chMtxLock
 1868              		.loc 4 793 23
 1869 0010 3B68     		ldr	r3, [r7]
 1870 0012 03F16002 		add	r2, r3, #96
 1871 0016 0823     		movs	r3, #8
 1872 0018 0D49     		ldr	r1, .L112+4
 1873 001a 7868     		ldr	r0, [r7, #4]
 1874 001c FFF7FEFF 		bl	dyn_create_object_heap
 1875 0020 F860     		str	r0, [r7, #12]
 1876              		.loc 4 797 6
 1877 0022 FB68     		ldr	r3, [r7, #12]
ARM GAS  C:\Users\DEVELO~1\AppData\Local\Temp\ccn8NbSB.s 			page 34


 1878 0024 002B     		cmp	r3, #0
 1879 0026 08D0     		beq	.L110
 1880              		.loc 4 799 5
 1881 0028 FB68     		ldr	r3, [r7, #12]
 1882 002a 03F11000 		add	r0, r3, #16
 1883              		.loc 4 799 50
 1884 002e FB68     		ldr	r3, [r7, #12]
 1885 0030 6033     		adds	r3, r3, #96
 1886              		.loc 4 799 5
 1887 0032 3A68     		ldr	r2, [r7]
 1888 0034 1946     		mov	r1, r3
 1889 0036 FFF7FEFF 		bl	chPipeObjectInit
 1890              	.L110:
 1891              		.loc 4 802 3
 1892 003a 0448     		ldr	r0, .L112
 1893 003c FFF7FEFF 		bl	chMtxUnlock
 1894              		.loc 4 804 10
 1895 0040 FB68     		ldr	r3, [r7, #12]
 1896              		.loc 4 805 1
 1897 0042 1846     		mov	r0, r3
 1898 0044 1037     		adds	r7, r7, #16
 1899              		.cfi_def_cfa_offset 8
 1900 0046 BD46     		mov	sp, r7
 1901              		.cfi_def_cfa_register 13
 1902              		@ sp needed
 1903 0048 80BD     		pop	{r7, pc}
 1904              	.L113:
 1905 004a 00BF     		.align	2
 1906              	.L112:
 1907 004c 00000000 		.word	ch_factory
 1908 0050 44000000 		.word	ch_factory+68
 1909              		.cfi_endproc
 1910              	.LFE373:
 1911              		.size	chFactoryCreatePipe, .-chFactoryCreatePipe
 1912              		.section	.text.chFactoryFindPipe,"ax",%progbits
 1913              		.align	1
 1914              		.global	chFactoryFindPipe
 1915              		.syntax unified
 1916              		.thumb
 1917              		.thumb_func
 1918              		.type	chFactoryFindPipe, %function
 1919              	chFactoryFindPipe:
 1920              	.LFB374:
 1921              		.loc 4 821 49
 1922              		.cfi_startproc
 1923              		@ args = 0, pretend = 0, frame = 16
 1924              		@ frame_needed = 1, uses_anonymous_args = 0
 1925 0000 80B5     		push	{r7, lr}
 1926              		.cfi_def_cfa_offset 8
 1927              		.cfi_offset 7, -8
 1928              		.cfi_offset 14, -4
 1929 0002 84B0     		sub	sp, sp, #16
 1930              		.cfi_def_cfa_offset 24
 1931 0004 00AF     		add	r7, sp, #0
 1932              		.cfi_def_cfa_register 7
 1933 0006 7860     		str	r0, [r7, #4]
 1934              		.loc 4 824 3
ARM GAS  C:\Users\DEVELO~1\AppData\Local\Temp\ccn8NbSB.s 			page 35


 1935 0008 0748     		ldr	r0, .L116
 1936 000a FFF7FEFF 		bl	chMtxLock
 1937              		.loc 4 826 23
 1938 000e 0749     		ldr	r1, .L116+4
 1939 0010 7868     		ldr	r0, [r7, #4]
 1940 0012 FFF7FEFF 		bl	dyn_find_object
 1941 0016 F860     		str	r0, [r7, #12]
 1942              		.loc 4 828 3
 1943 0018 0348     		ldr	r0, .L116
 1944 001a FFF7FEFF 		bl	chMtxUnlock
 1945              		.loc 4 830 10
 1946 001e FB68     		ldr	r3, [r7, #12]
 1947              		.loc 4 831 1
 1948 0020 1846     		mov	r0, r3
 1949 0022 1037     		adds	r7, r7, #16
 1950              		.cfi_def_cfa_offset 8
 1951 0024 BD46     		mov	sp, r7
 1952              		.cfi_def_cfa_register 13
 1953              		@ sp needed
 1954 0026 80BD     		pop	{r7, pc}
 1955              	.L117:
 1956              		.align	2
 1957              	.L116:
 1958 0028 00000000 		.word	ch_factory
 1959 002c 44000000 		.word	ch_factory+68
 1960              		.cfi_endproc
 1961              	.LFE374:
 1962              		.size	chFactoryFindPipe, .-chFactoryFindPipe
 1963              		.section	.text.chFactoryReleasePipe,"ax",%progbits
 1964              		.align	1
 1965              		.global	chFactoryReleasePipe
 1966              		.syntax unified
 1967              		.thumb
 1968              		.thumb_func
 1969              		.type	chFactoryReleasePipe, %function
 1970              	chFactoryReleasePipe:
 1971              	.LFB375:
 1972              		.loc 4 843 44
 1973              		.cfi_startproc
 1974              		@ args = 0, pretend = 0, frame = 8
 1975              		@ frame_needed = 1, uses_anonymous_args = 0
 1976 0000 80B5     		push	{r7, lr}
 1977              		.cfi_def_cfa_offset 8
 1978              		.cfi_offset 7, -8
 1979              		.cfi_offset 14, -4
 1980 0002 82B0     		sub	sp, sp, #8
 1981              		.cfi_def_cfa_offset 16
 1982 0004 00AF     		add	r7, sp, #0
 1983              		.cfi_def_cfa_register 7
 1984 0006 7860     		str	r0, [r7, #4]
 1985              		.loc 4 845 3
 1986 0008 0748     		ldr	r0, .L119
 1987 000a FFF7FEFF 		bl	chMtxLock
 1988              		.loc 4 847 3
 1989 000e 7B68     		ldr	r3, [r7, #4]
 1990 0010 0649     		ldr	r1, .L119+4
 1991 0012 1846     		mov	r0, r3
ARM GAS  C:\Users\DEVELO~1\AppData\Local\Temp\ccn8NbSB.s 			page 36


 1992 0014 FFF7FEFF 		bl	dyn_release_object_heap
 1993              		.loc 4 849 3
 1994 0018 0348     		ldr	r0, .L119
 1995 001a FFF7FEFF 		bl	chMtxUnlock
 1996              		.loc 4 850 1
 1997 001e 00BF     		nop
 1998 0020 0837     		adds	r7, r7, #8
 1999              		.cfi_def_cfa_offset 8
 2000 0022 BD46     		mov	sp, r7
 2001              		.cfi_def_cfa_register 13
 2002              		@ sp needed
 2003 0024 80BD     		pop	{r7, pc}
 2004              	.L120:
 2005 0026 00BF     		.align	2
 2006              	.L119:
 2007 0028 00000000 		.word	ch_factory
 2008 002c 44000000 		.word	ch_factory+68
 2009              		.cfi_endproc
 2010              	.LFE375:
 2011              		.size	chFactoryReleasePipe, .-chFactoryReleasePipe
 2012              		.text
 2013              	.Letext0:
 2014              		.file 5 "c:\\chibistudio\\tools\\gnu tools arm embedded\\11.3 2022.08\\lib\\gcc\\arm-none-eabi\\11
 2015              		.file 6 "c:\\chibistudio\\tools\\gnu tools arm embedded\\11.3 2022.08\\arm-none-eabi\\include\\mac
 2016              		.file 7 "c:\\chibistudio\\tools\\gnu tools arm embedded\\11.3 2022.08\\arm-none-eabi\\include\\sys
 2017              		.file 8 "../../../os/common/ports/ARM-common/chtypes.h"
 2018              		.file 9 "../../../os/rt/include/chearly.h"
 2019              		.file 10 "../../../os/rt/include/chobjects.h"
 2020              		.file 11 "../../../os/rt/include/chrfcu.h"
 2021              		.file 12 "../../../os/rt/include/chdebug.h"
 2022              		.file 13 "../../../os/rt/include/chtime.h"
 2023              		.file 14 "../../../os/rt/include/chlists.h"
 2024              		.file 15 "../../../os/rt/include/chtrace.h"
 2025              		.file 16 "../../../os/common/ports/ARMv7-M/chcore.h"
 2026              		.file 17 "../../../os/rt/include/chsem.h"
 2027              		.file 18 "../../../os/rt/include/chmtx.h"
 2028              		.file 19 "../../../os/oslib/include/chmboxes.h"
 2029              		.file 20 "../../../os/oslib/include/chmemheaps.h"
 2030              		.file 21 "../../../os/oslib/include/chpipes.h"
 2031              		.file 22 "../../../os/oslib/include/chfactory.h"
 2032              		.file 23 "c:\\chibistudio\\tools\\gnu tools arm embedded\\11.3 2022.08\\arm-none-eabi\\include\\st