ARM GAS  C:\Users\DEVELO~1\AppData\Local\Temp\ccB3i39m.s 			page 1


   1              		.cpu cortex-m7
   2              		.arch armv7e-m
   3              		.fpu softvfp
   4              		.eabi_attribute 20, 1
   5              		.eabi_attribute 21, 1
   6              		.eabi_attribute 23, 3
   7              		.eabi_attribute 24, 1
   8              		.eabi_attribute 25, 1
   9              		.eabi_attribute 26, 1
  10              		.eabi_attribute 30, 6
  11              		.eabi_attribute 34, 1
  12              		.eabi_attribute 18, 4
  13              		.file	"chinstances.c"
  14              		.text
  15              	.Ltext0:
  16              		.cfi_sections	.debug_frame
  17              		.section	.text.__rfcu_object_init,"ax",%progbits
  18              		.align	1
  19              		.syntax unified
  20              		.thumb
  21              		.thumb_func
  22              		.type	__rfcu_object_init, %function
  23              	__rfcu_object_init:
  24              	.LFB0:
  25              		.file 1 "../../../os/rt/include/chrfcu.h"
  26              		.loc 1 104 54
  27              		.cfi_startproc
  28              		@ args = 0, pretend = 0, frame = 8
  29              		@ frame_needed = 1, uses_anonymous_args = 0
  30              		@ link register save eliminated.
  31 0000 80B4     		push	{r7}
  32              		.cfi_def_cfa_offset 4
  33              		.cfi_offset 7, -4
  34 0002 83B0     		sub	sp, sp, #12
  35              		.cfi_def_cfa_offset 16
  36 0004 00AF     		add	r7, sp, #0
  37              		.cfi_def_cfa_register 7
  38 0006 7860     		str	r0, [r7, #4]
  39              		.loc 1 106 15
  40 0008 7B68     		ldr	r3, [r7, #4]
  41 000a 0022     		movs	r2, #0
  42 000c 1A60     		str	r2, [r3]
  43              		.loc 1 107 1
  44 000e 00BF     		nop
  45 0010 0C37     		adds	r7, r7, #12
  46              		.cfi_def_cfa_offset 4
  47 0012 BD46     		mov	sp, r7
  48              		.cfi_def_cfa_register 13
  49              		@ sp needed
  50 0014 80BC     		pop	{r7}
  51              		.cfi_restore 7
  52              		.cfi_def_cfa_offset 0
  53 0016 7047     		bx	lr
  54              		.cfi_endproc
  55              	.LFE0:
  56              		.size	__rfcu_object_init, .-__rfcu_object_init
  57              		.section	.text.__dbg_object_init,"ax",%progbits
ARM GAS  C:\Users\DEVELO~1\AppData\Local\Temp\ccB3i39m.s 			page 2


  58              		.align	1
  59              		.syntax unified
  60              		.thumb
  61              		.thumb_func
  62              		.type	__dbg_object_init, %function
  63              	__dbg_object_init:
  64              	.LFB1:
  65              		.file 2 "../../../os/rt/include/chdebug.h"
  66              		.loc 2 192 59
  67              		.cfi_startproc
  68              		@ args = 0, pretend = 0, frame = 8
  69              		@ frame_needed = 1, uses_anonymous_args = 0
  70              		@ link register save eliminated.
  71 0000 80B4     		push	{r7}
  72              		.cfi_def_cfa_offset 4
  73              		.cfi_offset 7, -4
  74 0002 83B0     		sub	sp, sp, #12
  75              		.cfi_def_cfa_offset 16
  76 0004 00AF     		add	r7, sp, #0
  77              		.cfi_def_cfa_register 7
  78 0006 7860     		str	r0, [r7, #4]
  79              		.loc 2 194 18
  80 0008 7B68     		ldr	r3, [r7, #4]
  81 000a 0022     		movs	r2, #0
  82 000c 1A60     		str	r2, [r3]
  83              		.loc 2 201 1
  84 000e 00BF     		nop
  85 0010 0C37     		adds	r7, r7, #12
  86              		.cfi_def_cfa_offset 4
  87 0012 BD46     		mov	sp, r7
  88              		.cfi_def_cfa_register 13
  89              		@ sp needed
  90 0014 80BC     		pop	{r7}
  91              		.cfi_restore 7
  92              		.cfi_def_cfa_offset 0
  93 0016 7047     		bx	lr
  94              		.cfi_endproc
  95              	.LFE1:
  96              		.size	__dbg_object_init, .-__dbg_object_init
  97              		.section	.text.ch_queue_init,"ax",%progbits
  98              		.align	1
  99              		.syntax unified
 100              		.thumb
 101              		.thumb_func
 102              		.type	ch_queue_init, %function
 103              	ch_queue_init:
 104              	.LFB19:
 105              		.file 3 "../../../os/rt/include/chlists.h"
 106              		.loc 3 222 50
 107              		.cfi_startproc
 108              		@ args = 0, pretend = 0, frame = 8
 109              		@ frame_needed = 1, uses_anonymous_args = 0
 110              		@ link register save eliminated.
 111 0000 80B4     		push	{r7}
 112              		.cfi_def_cfa_offset 4
 113              		.cfi_offset 7, -4
 114 0002 83B0     		sub	sp, sp, #12
ARM GAS  C:\Users\DEVELO~1\AppData\Local\Temp\ccB3i39m.s 			page 3


 115              		.cfi_def_cfa_offset 16
 116 0004 00AF     		add	r7, sp, #0
 117              		.cfi_def_cfa_register 7
 118 0006 7860     		str	r0, [r7, #4]
 119              		.loc 3 224 12
 120 0008 7B68     		ldr	r3, [r7, #4]
 121 000a 7A68     		ldr	r2, [r7, #4]
 122 000c 1A60     		str	r2, [r3]
 123              		.loc 3 225 12
 124 000e 7B68     		ldr	r3, [r7, #4]
 125 0010 7A68     		ldr	r2, [r7, #4]
 126 0012 5A60     		str	r2, [r3, #4]
 127              		.loc 3 226 1
 128 0014 00BF     		nop
 129 0016 0C37     		adds	r7, r7, #12
 130              		.cfi_def_cfa_offset 4
 131 0018 BD46     		mov	sp, r7
 132              		.cfi_def_cfa_register 13
 133              		@ sp needed
 134 001a 80BC     		pop	{r7}
 135              		.cfi_restore 7
 136              		.cfi_def_cfa_offset 0
 137 001c 7047     		bx	lr
 138              		.cfi_endproc
 139              	.LFE19:
 140              		.size	ch_queue_init, .-ch_queue_init
 141              		.section	.text.ch_pqueue_init,"ax",%progbits
 142              		.align	1
 143              		.syntax unified
 144              		.thumb
 145              		.thumb_func
 146              		.type	ch_pqueue_init, %function
 147              	ch_pqueue_init:
 148              	.LFB26:
 149              		.loc 3 336 61
 150              		.cfi_startproc
 151              		@ args = 0, pretend = 0, frame = 8
 152              		@ frame_needed = 1, uses_anonymous_args = 0
 153              		@ link register save eliminated.
 154 0000 80B4     		push	{r7}
 155              		.cfi_def_cfa_offset 4
 156              		.cfi_offset 7, -4
 157 0002 83B0     		sub	sp, sp, #12
 158              		.cfi_def_cfa_offset 16
 159 0004 00AF     		add	r7, sp, #0
 160              		.cfi_def_cfa_register 7
 161 0006 7860     		str	r0, [r7, #4]
 162              		.loc 3 338 13
 163 0008 7B68     		ldr	r3, [r7, #4]
 164 000a 7A68     		ldr	r2, [r7, #4]
 165 000c 1A60     		str	r2, [r3]
 166              		.loc 3 339 13
 167 000e 7B68     		ldr	r3, [r7, #4]
 168 0010 7A68     		ldr	r2, [r7, #4]
 169 0012 5A60     		str	r2, [r3, #4]
 170              		.loc 3 340 13
 171 0014 7B68     		ldr	r3, [r7, #4]
ARM GAS  C:\Users\DEVELO~1\AppData\Local\Temp\ccB3i39m.s 			page 4


 172 0016 0022     		movs	r2, #0
 173 0018 9A60     		str	r2, [r3, #8]
 174              		.loc 3 341 1
 175 001a 00BF     		nop
 176 001c 0C37     		adds	r7, r7, #12
 177              		.cfi_def_cfa_offset 4
 178 001e BD46     		mov	sp, r7
 179              		.cfi_def_cfa_register 13
 180              		@ sp needed
 181 0020 80BC     		pop	{r7}
 182              		.cfi_restore 7
 183              		.cfi_def_cfa_offset 0
 184 0022 7047     		bx	lr
 185              		.cfi_endproc
 186              	.LFE26:
 187              		.size	ch_pqueue_init, .-ch_pqueue_init
 188              		.section	.text.ch_dlist_init,"ax",%progbits
 189              		.align	1
 190              		.syntax unified
 191              		.thumb
 192              		.thumb_func
 193              		.type	ch_dlist_init, %function
 194              	ch_dlist_init:
 195              	.LFB30:
 196              		.loc 3 426 57
 197              		.cfi_startproc
 198              		@ args = 0, pretend = 0, frame = 8
 199              		@ frame_needed = 1, uses_anonymous_args = 0
 200              		@ link register save eliminated.
 201 0000 80B4     		push	{r7}
 202              		.cfi_def_cfa_offset 4
 203              		.cfi_offset 7, -4
 204 0002 83B0     		sub	sp, sp, #12
 205              		.cfi_def_cfa_offset 16
 206 0004 00AF     		add	r7, sp, #0
 207              		.cfi_def_cfa_register 7
 208 0006 7860     		str	r0, [r7, #4]
 209              		.loc 3 428 15
 210 0008 7B68     		ldr	r3, [r7, #4]
 211 000a 7A68     		ldr	r2, [r7, #4]
 212 000c 1A60     		str	r2, [r3]
 213              		.loc 3 429 15
 214 000e 7B68     		ldr	r3, [r7, #4]
 215 0010 7A68     		ldr	r2, [r7, #4]
 216 0012 5A60     		str	r2, [r3, #4]
 217              		.loc 3 430 15
 218 0014 7B68     		ldr	r3, [r7, #4]
 219 0016 4FF0FF32 		mov	r2, #-1
 220 001a 9A60     		str	r2, [r3, #8]
 221              		.loc 3 431 1
 222 001c 00BF     		nop
 223 001e 0C37     		adds	r7, r7, #12
 224              		.cfi_def_cfa_offset 4
 225 0020 BD46     		mov	sp, r7
 226              		.cfi_def_cfa_register 13
 227              		@ sp needed
 228 0022 80BC     		pop	{r7}
ARM GAS  C:\Users\DEVELO~1\AppData\Local\Temp\ccB3i39m.s 			page 5


 229              		.cfi_restore 7
 230              		.cfi_def_cfa_offset 0
 231 0024 7047     		bx	lr
 232              		.cfi_endproc
 233              	.LFE30:
 234              		.size	ch_dlist_init, .-ch_dlist_init
 235              		.section	.text.port_timer_get_time,"ax",%progbits
 236              		.align	1
 237              		.syntax unified
 238              		.thumb
 239              		.thumb_func
 240              		.type	port_timer_get_time, %function
 241              	port_timer_get_time:
 242              	.LFB196:
 243              		.file 4 "../../../os/hal/osal/rt-nil/chcore_timer.h"
 244              		.loc 4 111 51
 245              		.cfi_startproc
 246              		@ args = 0, pretend = 0, frame = 0
 247              		@ frame_needed = 1, uses_anonymous_args = 0
 248 0000 80B5     		push	{r7, lr}
 249              		.cfi_def_cfa_offset 8
 250              		.cfi_offset 7, -8
 251              		.cfi_offset 14, -4
 252 0002 00AF     		add	r7, sp, #0
 253              		.cfi_def_cfa_register 7
 254              		.loc 4 113 10
 255 0004 FFF7FEFF 		bl	stGetCounter
 256 0008 0346     		mov	r3, r0
 257              		.loc 4 114 1
 258 000a 1846     		mov	r0, r3
 259 000c 80BD     		pop	{r7, pc}
 260              		.cfi_endproc
 261              	.LFE196:
 262              		.size	port_timer_get_time, .-port_timer_get_time
 263              		.section	.text.chVTGetSystemTimeX,"ax",%progbits
 264              		.align	1
 265              		.syntax unified
 266              		.thumb
 267              		.thumb_func
 268              		.type	chVTGetSystemTimeX, %function
 269              	chVTGetSystemTimeX:
 270              	.LFB209:
 271              		.file 5 "../../../os/rt/include/chvt.h"
 272              		.loc 5 122 50
 273              		.cfi_startproc
 274              		@ args = 0, pretend = 0, frame = 0
 275              		@ frame_needed = 1, uses_anonymous_args = 0
 276 0000 80B5     		push	{r7, lr}
 277              		.cfi_def_cfa_offset 8
 278              		.cfi_offset 7, -8
 279              		.cfi_offset 14, -4
 280 0002 00AF     		add	r7, sp, #0
 281              		.cfi_def_cfa_register 7
 282              		.loc 5 127 10
 283 0004 FFF7FEFF 		bl	port_timer_get_time
 284 0008 0346     		mov	r3, r0
 285              		.loc 5 129 1
ARM GAS  C:\Users\DEVELO~1\AppData\Local\Temp\ccB3i39m.s 			page 6


 286 000a 1846     		mov	r0, r3
 287 000c 80BD     		pop	{r7, pc}
 288              		.cfi_endproc
 289              	.LFE209:
 290              		.size	chVTGetSystemTimeX, .-chVTGetSystemTimeX
 291              		.section	.text.__vt_object_init,"ax",%progbits
 292              		.align	1
 293              		.syntax unified
 294              		.thumb
 295              		.thumb_func
 296              		.type	__vt_object_init, %function
 297              	__vt_object_init:
 298              	.LFB227:
 299              		.loc 5 509 66
 300              		.cfi_startproc
 301              		@ args = 0, pretend = 0, frame = 8
 302              		@ frame_needed = 1, uses_anonymous_args = 0
 303 0000 B0B5     		push	{r4, r5, r7, lr}
 304              		.cfi_def_cfa_offset 16
 305              		.cfi_offset 4, -16
 306              		.cfi_offset 5, -12
 307              		.cfi_offset 7, -8
 308              		.cfi_offset 14, -4
 309 0002 82B0     		sub	sp, sp, #8
 310              		.cfi_def_cfa_offset 24
 311 0004 00AF     		add	r7, sp, #0
 312              		.cfi_def_cfa_register 7
 313 0006 7860     		str	r0, [r7, #4]
 314              		.loc 5 511 3
 315 0008 7B68     		ldr	r3, [r7, #4]
 316 000a 1846     		mov	r0, r3
 317 000c FFF7FEFF 		bl	ch_dlist_init
 318              		.loc 5 515 18
 319 0010 7B68     		ldr	r3, [r7, #4]
 320 0012 0022     		movs	r2, #0
 321 0014 DA60     		str	r2, [r3, #12]
 322              		.loc 5 518 37
 323 0016 FFF7FEFF 		bl	chVTGetSystemTimeX
 324 001a 0346     		mov	r3, r0
 325              		.loc 5 518 21
 326 001c 0022     		movs	r2, #0
 327 001e 1C46     		mov	r4, r3
 328 0020 1546     		mov	r5, r2
 329              		.loc 5 518 19
 330 0022 7B68     		ldr	r3, [r7, #4]
 331 0024 C3E90445 		strd	r4, [r3, #16]
 332              		.loc 5 520 1
 333 0028 00BF     		nop
 334 002a 0837     		adds	r7, r7, #8
 335              		.cfi_def_cfa_offset 16
 336 002c BD46     		mov	sp, r7
 337              		.cfi_def_cfa_register 13
 338              		@ sp needed
 339 002e B0BD     		pop	{r4, r5, r7, pc}
 340              		.cfi_endproc
 341              	.LFE227:
 342              		.size	__vt_object_init, .-__vt_object_init
ARM GAS  C:\Users\DEVELO~1\AppData\Local\Temp\ccB3i39m.s 			page 7


 343              		.section	.text.__reg_object_init,"ax",%progbits
 344              		.align	1
 345              		.syntax unified
 346              		.thumb
 347              		.thumb_func
 348              		.type	__reg_object_init, %function
 349              	__reg_object_init:
 350              	.LFB239:
 351              		.file 6 "../../../os/rt/include/chregistry.h"
 352              		.loc 6 151 54
 353              		.cfi_startproc
 354              		@ args = 0, pretend = 0, frame = 8
 355              		@ frame_needed = 1, uses_anonymous_args = 0
 356 0000 80B5     		push	{r7, lr}
 357              		.cfi_def_cfa_offset 8
 358              		.cfi_offset 7, -8
 359              		.cfi_offset 14, -4
 360 0002 82B0     		sub	sp, sp, #8
 361              		.cfi_def_cfa_offset 16
 362 0004 00AF     		add	r7, sp, #0
 363              		.cfi_def_cfa_register 7
 364 0006 7860     		str	r0, [r7, #4]
 365              		.loc 6 153 3
 366 0008 7B68     		ldr	r3, [r7, #4]
 367 000a 1846     		mov	r0, r3
 368 000c FFF7FEFF 		bl	ch_queue_init
 369              		.loc 6 154 1
 370 0010 00BF     		nop
 371 0012 0837     		adds	r7, r7, #8
 372              		.cfi_def_cfa_offset 8
 373 0014 BD46     		mov	sp, r7
 374              		.cfi_def_cfa_register 13
 375              		@ sp needed
 376 0016 80BD     		pop	{r7, pc}
 377              		.cfi_endproc
 378              	.LFE239:
 379              		.size	__reg_object_init, .-__reg_object_init
 380              		.section	.text.__idle_thread,"ax",%progbits
 381              		.align	1
 382              		.syntax unified
 383              		.thumb
 384              		.thumb_func
 385              		.type	__idle_thread, %function
 386              	__idle_thread:
 387              	.LFB346:
 388              		.file 7 "../../../os/rt/src/chinstances.c"
 389              		.loc 7 62 36
 390              		.cfi_startproc
 391              		@ args = 0, pretend = 0, frame = 8
 392              		@ frame_needed = 1, uses_anonymous_args = 0
 393              		@ link register save eliminated.
 394 0000 80B4     		push	{r7}
 395              		.cfi_def_cfa_offset 4
 396              		.cfi_offset 7, -4
 397 0002 83B0     		sub	sp, sp, #12
 398              		.cfi_def_cfa_offset 16
 399 0004 00AF     		add	r7, sp, #0
ARM GAS  C:\Users\DEVELO~1\AppData\Local\Temp\ccB3i39m.s 			page 8


 400              		.cfi_def_cfa_register 7
 401 0006 7860     		str	r0, [r7, #4]
 402              	.L13:
 403              	.LBB4:
 404              	.LBB5:
 405              		.file 8 "../../../os/common/ports/ARMv7-M/chcore.h"
 406              		.loc 8 928 1 discriminator 1
 407 0008 00BF     		nop
 408              	.LBE5:
 409              	.LBE4:
 410              		.loc 7 69 5 discriminator 1
 411 000a FDE7     		b	.L13
 412              		.cfi_endproc
 413              	.LFE346:
 414              		.size	__idle_thread, .-__idle_thread
 415              		.section	.rodata
 416              		.align	2
 417              	.LC0:
 418 0000 69646C65 		.ascii	"idle\000"
 418      00
 419              		.section	.text.chInstanceObjectInit,"ax",%progbits
 420              		.align	1
 421              		.global	chInstanceObjectInit
 422              		.syntax unified
 423              		.thumb
 424              		.thumb_func
 425              		.type	chInstanceObjectInit, %function
 426              	chInstanceObjectInit:
 427              	.LFB347:
 428              		.loc 7 90 61
 429              		.cfi_startproc
 430              		@ args = 0, pretend = 0, frame = 40
 431              		@ frame_needed = 1, uses_anonymous_args = 0
 432 0000 80B5     		push	{r7, lr}
 433              		.cfi_def_cfa_offset 8
 434              		.cfi_offset 7, -8
 435              		.cfi_offset 14, -4
 436 0002 8AB0     		sub	sp, sp, #40
 437              		.cfi_def_cfa_offset 48
 438 0004 00AF     		add	r7, sp, #0
 439              		.cfi_def_cfa_register 7
 440 0006 7860     		str	r0, [r7, #4]
 441 0008 3960     		str	r1, [r7]
 442              		.loc 7 97 11
 443 000a 0023     		movs	r3, #0
 444 000c 7B62     		str	r3, [r7, #36]
 445              		.loc 7 100 32
 446 000e 2C4A     		ldr	r2, .L15
 447 0010 7B6A     		ldr	r3, [r7, #36]
 448 0012 9B00     		lsls	r3, r3, #2
 449 0014 1344     		add	r3, r3, r2
 450 0016 7A68     		ldr	r2, [r7, #4]
 451 0018 5A60     		str	r2, [r3, #4]
 452              		.loc 7 103 16
 453 001a 7B68     		ldr	r3, [r7, #4]
 454 001c 7A6A     		ldr	r2, [r7, #36]
 455 001e 1A63     		str	r2, [r3, #48]
ARM GAS  C:\Users\DEVELO~1\AppData\Local\Temp\ccB3i39m.s 			page 9


 456              		.loc 7 106 15
 457 0020 7B68     		ldr	r3, [r7, #4]
 458 0022 3A68     		ldr	r2, [r7]
 459 0024 9A63     		str	r2, [r3, #56]
 460              		.loc 7 109 3
 461 0026 7868     		ldr	r0, [r7, #4]
 462 0028 FFF7FEFF 		bl	port_init
 463              		.loc 7 112 3
 464 002c 7B68     		ldr	r3, [r7, #4]
 465 002e 1846     		mov	r0, r3
 466 0030 FFF7FEFF 		bl	ch_pqueue_init
 467              		.loc 7 116 3
 468 0034 7B68     		ldr	r3, [r7, #4]
 469 0036 2833     		adds	r3, r3, #40
 470 0038 1846     		mov	r0, r3
 471 003a FFF7FEFF 		bl	__reg_object_init
 472              		.loc 7 121 3
 473 003e 7B68     		ldr	r3, [r7, #4]
 474 0040 3433     		adds	r3, r3, #52
 475 0042 1846     		mov	r0, r3
 476 0044 FFF7FEFF 		bl	__rfcu_object_init
 477              		.loc 7 125 3
 478 0048 7B68     		ldr	r3, [r7, #4]
 479 004a 1033     		adds	r3, r3, #16
 480 004c 1846     		mov	r0, r3
 481 004e FFF7FEFF 		bl	__vt_object_init
 482              		.loc 7 128 3
 483 0052 7B68     		ldr	r3, [r7, #4]
 484 0054 8433     		adds	r3, r3, #132
 485 0056 1846     		mov	r0, r3
 486 0058 FFF7FEFF 		bl	__dbg_object_init
 487              		.loc 7 132 3
 488 005c 7B68     		ldr	r3, [r7, #4]
 489 005e 8833     		adds	r3, r3, #136
 490 0060 1846     		mov	r0, r3
 491 0062 FFF7FEFF 		bl	__trace_object_init
 492              		.loc 7 143 24
 493 0066 7B68     		ldr	r3, [r7, #4]
 494 0068 03F13C01 		add	r1, r3, #60
 495 006c 8023     		movs	r3, #128
 496 006e 154A     		ldr	r2, .L15+4
 497 0070 7868     		ldr	r0, [r7, #4]
 498 0072 FFF7FEFF 		bl	__thd_object_init
 499 0076 0246     		mov	r2, r0
 500              		.loc 7 143 22
 501 0078 7B68     		ldr	r3, [r7, #4]
 502 007a DA60     		str	r2, [r3, #12]
 503              		.loc 7 156 13
 504 007c 7B68     		ldr	r3, [r7, #4]
 505 007e DB68     		ldr	r3, [r3, #12]
 506              		.loc 7 156 36
 507 0080 3A68     		ldr	r2, [r7]
 508 0082 5268     		ldr	r2, [r2, #4]
 509              		.loc 7 156 30
 510 0084 1A62     		str	r2, [r3, #32]
 511              		.loc 7 160 13
 512 0086 7B68     		ldr	r3, [r7, #4]
ARM GAS  C:\Users\DEVELO~1\AppData\Local\Temp\ccB3i39m.s 			page 10


 513 0088 DB68     		ldr	r3, [r3, #12]
 514              		.loc 7 160 29
 515 008a 0122     		movs	r2, #1
 516 008c 83F82420 		strb	r2, [r3, #36]
 517              	.LBB6:
 518              		.loc 7 172 25
 519 0090 0D4B     		ldr	r3, .L15+8
 520 0092 FB60     		str	r3, [r7, #12]
 521              		.loc 7 174 23
 522 0094 3B68     		ldr	r3, [r7]
 523 0096 DB68     		ldr	r3, [r3, #12]
 524              		.loc 7 172 25
 525 0098 3B61     		str	r3, [r7, #16]
 526              		.loc 7 175 23
 527 009a 3B68     		ldr	r3, [r7]
 528 009c 1B69     		ldr	r3, [r3, #16]
 529              		.loc 7 172 25
 530 009e 7B61     		str	r3, [r7, #20]
 531 00a0 0123     		movs	r3, #1
 532 00a2 BB61     		str	r3, [r7, #24]
 533 00a4 094B     		ldr	r3, .L15+12
 534 00a6 FB61     		str	r3, [r7, #28]
 535 00a8 0023     		movs	r3, #0
 536 00aa 3B62     		str	r3, [r7, #32]
 537              		.loc 7 189 12
 538 00ac 07F10C03 		add	r3, r7, #12
 539 00b0 1846     		mov	r0, r3
 540 00b2 FFF7FEFF 		bl	chThdCreateI
 541              	.LBE6:
 542              		.loc 7 192 1
 543 00b6 00BF     		nop
 544 00b8 2837     		adds	r7, r7, #40
 545              		.cfi_def_cfa_offset 8
 546 00ba BD46     		mov	sp, r7
 547              		.cfi_def_cfa_register 13
 548              		@ sp needed
 549 00bc 80BD     		pop	{r7, pc}
 550              	.L16:
 551 00be 00BF     		.align	2
 552              	.L15:
 553 00c0 00000000 		.word	ch_system
 554 00c4 00000000 		.word	ch_debug
 555 00c8 00000000 		.word	.LC0
 556 00cc 00000000 		.word	__idle_thread
 557              		.cfi_endproc
 558              	.LFE347:
 559              		.size	chInstanceObjectInit, .-chInstanceObjectInit
 560              		.text
 561              	.Letext0:
 562              		.file 9 "c:\\chibistudio\\tools\\gnu tools arm embedded\\11.3 2022.08\\arm-none-eabi\\include\\mac
 563              		.file 10 "c:\\chibistudio\\tools\\gnu tools arm embedded\\11.3 2022.08\\arm-none-eabi\\include\\sy
 564              		.file 11 "../../../os/common/ports/ARM-common/chtypes.h"
 565              		.file 12 "../../../os/rt/include/chearly.h"
 566              		.file 13 "../../../os/rt/include/chobjects.h"
 567              		.file 14 "../../../os/rt/include/chtime.h"
 568              		.file 15 "../../../os/rt/include/chtrace.h"
 569              		.file 16 "../../../os/rt/include/chtm.h"
ARM GAS  C:\Users\DEVELO~1\AppData\Local\Temp\ccB3i39m.s 			page 11


 570              		.file 17 "../../../os/rt/include/chsem.h"
 571              		.file 18 "../../../os/rt/include/chmtx.h"
 572              		.file 19 "../../../os/rt/include/chthreads.h"
 573              		.file 20 "../../../os/rt/include/chsys.h"
 574              		.section	.debug_info,"",%progbits
 575              	.Ldebug_info0:
 576 0000 880E0000 		.4byte	0xe88
 577 0004 0500     		.2byte	0x5
 578 0006 01       		.byte	0x1
 579 0007 04       		.byte	0x4
 580 0008 00000000 		.4byte	.Ldebug_abbrev0
 581 000c 1F       		.uleb128 0x1f
 582 000d 6F010000 		.4byte	.LASF193
 583 0011 1D       		.byte	0x1d
 584 0012 65070000 		.4byte	.LASF194
 585 0016 D8030000 		.4byte	.LASF195
 586 001a 0C000000 		.4byte	.LLRL0
 587 001e 00000000 		.4byte	0
 588 0022 00000000 		.4byte	.Ldebug_line0
 589 0026 20       		.uleb128 0x20
 590 0027 04       		.byte	0x4
 591 0028 05       		.byte	0x5
 592 0029 696E7400 		.ascii	"int\000"
 593 002d 06       		.uleb128 0x6
 594 002e 04       		.byte	0x4
 595 002f 07       		.byte	0x7
 596 0030 57030000 		.4byte	.LASF0
 597 0034 06       		.uleb128 0x6
 598 0035 08       		.byte	0x8
 599 0036 05       		.byte	0x5
 600 0037 23010000 		.4byte	.LASF1
 601 003b 06       		.uleb128 0x6
 602 003c 08       		.byte	0x8
 603 003d 04       		.byte	0x4
 604 003e 59070000 		.4byte	.LASF2
 605 0042 06       		.uleb128 0x6
 606 0043 01       		.byte	0x1
 607 0044 06       		.byte	0x6
 608 0045 31010000 		.4byte	.LASF3
 609 0049 02       		.uleb128 0x2
 610 004a 5F000000 		.4byte	.LASF6
 611 004e 09       		.byte	0x9
 612 004f 2B       		.byte	0x2b
 613 0050 18       		.byte	0x18
 614 0051 55000000 		.4byte	0x55
 615 0055 06       		.uleb128 0x6
 616 0056 01       		.byte	0x1
 617 0057 08       		.byte	0x8
 618 0058 6D060000 		.4byte	.LASF4
 619 005c 06       		.uleb128 0x6
 620 005d 02       		.byte	0x2
 621 005e 05       		.byte	0x5
 622 005f AA060000 		.4byte	.LASF5
 623 0063 02       		.uleb128 0x2
 624 0064 C4070000 		.4byte	.LASF7
 625 0068 09       		.byte	0x9
 626 0069 39       		.byte	0x39
ARM GAS  C:\Users\DEVELO~1\AppData\Local\Temp\ccB3i39m.s 			page 12


 627 006a 19       		.byte	0x19
 628 006b 6F000000 		.4byte	0x6f
 629 006f 06       		.uleb128 0x6
 630 0070 02       		.byte	0x2
 631 0071 07       		.byte	0x7
 632 0072 4C080000 		.4byte	.LASF8
 633 0076 02       		.uleb128 0x2
 634 0077 DA040000 		.4byte	.LASF9
 635 007b 09       		.byte	0x9
 636 007c 4D       		.byte	0x4d
 637 007d 18       		.byte	0x18
 638 007e 82000000 		.4byte	0x82
 639 0082 06       		.uleb128 0x6
 640 0083 04       		.byte	0x4
 641 0084 05       		.byte	0x5
 642 0085 9A000000 		.4byte	.LASF10
 643 0089 02       		.uleb128 0x2
 644 008a E0020000 		.4byte	.LASF11
 645 008e 09       		.byte	0x9
 646 008f 4F       		.byte	0x4f
 647 0090 19       		.byte	0x19
 648 0091 95000000 		.4byte	0x95
 649 0095 06       		.uleb128 0x6
 650 0096 04       		.byte	0x4
 651 0097 07       		.byte	0x7
 652 0098 B6030000 		.4byte	.LASF12
 653 009c 02       		.uleb128 0x2
 654 009d 0F060000 		.4byte	.LASF13
 655 00a1 09       		.byte	0x9
 656 00a2 69       		.byte	0x69
 657 00a3 19       		.byte	0x19
 658 00a4 A8000000 		.4byte	0xa8
 659 00a8 06       		.uleb128 0x6
 660 00a9 08       		.byte	0x8
 661 00aa 07       		.byte	0x7
 662 00ab 61020000 		.4byte	.LASF14
 663 00af 02       		.uleb128 0x2
 664 00b0 21090000 		.4byte	.LASF15
 665 00b4 0A       		.byte	0xa
 666 00b5 18       		.byte	0x18
 667 00b6 13       		.byte	0x13
 668 00b7 49000000 		.4byte	0x49
 669 00bb 02       		.uleb128 0x2
 670 00bc 51020000 		.4byte	.LASF16
 671 00c0 0A       		.byte	0xa
 672 00c1 24       		.byte	0x24
 673 00c2 14       		.byte	0x14
 674 00c3 63000000 		.4byte	0x63
 675 00c7 02       		.uleb128 0x2
 676 00c8 65060000 		.4byte	.LASF17
 677 00cc 0A       		.byte	0xa
 678 00cd 2C       		.byte	0x2c
 679 00ce 13       		.byte	0x13
 680 00cf 76000000 		.4byte	0x76
 681 00d3 02       		.uleb128 0x2
 682 00d4 20070000 		.4byte	.LASF18
 683 00d8 0A       		.byte	0xa
ARM GAS  C:\Users\DEVELO~1\AppData\Local\Temp\ccB3i39m.s 			page 13


 684 00d9 30       		.byte	0x30
 685 00da 14       		.byte	0x14
 686 00db 89000000 		.4byte	0x89
 687 00df 02       		.uleb128 0x2
 688 00e0 94050000 		.4byte	.LASF19
 689 00e4 0A       		.byte	0xa
 690 00e5 3C       		.byte	0x3c
 691 00e6 14       		.byte	0x14
 692 00e7 9C000000 		.4byte	0x9c
 693 00eb 18       		.uleb128 0x18
 694 00ec DF000000 		.4byte	0xdf
 695 00f0 02       		.uleb128 0x2
 696 00f1 87050000 		.4byte	.LASF20
 697 00f5 0B       		.byte	0xb
 698 00f6 36       		.byte	0x36
 699 00f7 1D       		.byte	0x1d
 700 00f8 D3000000 		.4byte	0xd3
 701 00fc 02       		.uleb128 0x2
 702 00fd 30070000 		.4byte	.LASF21
 703 0101 0B       		.byte	0xb
 704 0102 48       		.byte	0x48
 705 0103 1D       		.byte	0x1d
 706 0104 DF000000 		.4byte	0xdf
 707 0108 02       		.uleb128 0x2
 708 0109 34050000 		.4byte	.LASF22
 709 010d 0C       		.byte	0xc
 710 010e 4D       		.byte	0x4d
 711 010f 19       		.byte	0x19
 712 0110 F0000000 		.4byte	0xf0
 713 0114 02       		.uleb128 0x2
 714 0115 FA040000 		.4byte	.LASF23
 715 0119 0C       		.byte	0xc
 716 011a 50       		.byte	0x50
 717 011b 19       		.byte	0x19
 718 011c FC000000 		.4byte	0xfc
 719 0120 02       		.uleb128 0x2
 720 0121 A7040000 		.4byte	.LASF24
 721 0125 0C       		.byte	0xc
 722 0126 53       		.byte	0x53
 723 0127 19       		.byte	0x19
 724 0128 AF000000 		.4byte	0xaf
 725 012c 02       		.uleb128 0x2
 726 012d 11020000 		.4byte	.LASF25
 727 0131 0C       		.byte	0xc
 728 0132 54       		.byte	0x54
 729 0133 19       		.byte	0x19
 730 0134 AF000000 		.4byte	0xaf
 731 0138 02       		.uleb128 0x2
 732 0139 24060000 		.4byte	.LASF26
 733 013d 0C       		.byte	0xc
 734 013e 55       		.byte	0x55
 735 013f 19       		.byte	0x19
 736 0140 AF000000 		.4byte	0xaf
 737 0144 02       		.uleb128 0x2
 738 0145 36060000 		.4byte	.LASF27
 739 0149 0C       		.byte	0xc
 740 014a 57       		.byte	0x57
ARM GAS  C:\Users\DEVELO~1\AppData\Local\Temp\ccB3i39m.s 			page 14


 741 014b 19       		.byte	0x19
 742 014c D3000000 		.4byte	0xd3
 743 0150 02       		.uleb128 0x2
 744 0151 74040000 		.4byte	.LASF28
 745 0155 0C       		.byte	0xc
 746 0156 58       		.byte	0x58
 747 0157 19       		.byte	0x19
 748 0158 C7000000 		.4byte	0xc7
 749 015c 02       		.uleb128 0x2
 750 015d C5040000 		.4byte	.LASF29
 751 0161 0C       		.byte	0xc
 752 0162 5A       		.byte	0x5a
 753 0163 19       		.byte	0x19
 754 0164 D3000000 		.4byte	0xd3
 755 0168 02       		.uleb128 0x2
 756 0169 48030000 		.4byte	.LASF30
 757 016d 0C       		.byte	0xc
 758 016e 5C       		.byte	0x5c
 759 016f 19       		.byte	0x19
 760 0170 C7000000 		.4byte	0xc7
 761 0174 02       		.uleb128 0x2
 762 0175 1A060000 		.4byte	.LASF31
 763 0179 0C       		.byte	0xc
 764 017a 80       		.byte	0x80
 765 017b 12       		.byte	0x12
 766 017c 2D000000 		.4byte	0x2d
 767 0180 02       		.uleb128 0x2
 768 0181 CF070000 		.4byte	.LASF32
 769 0185 0C       		.byte	0xc
 770 0186 85       		.byte	0x85
 771 0187 1A       		.byte	0x1a
 772 0188 8C010000 		.4byte	0x18c
 773 018c 07       		.uleb128 0x7
 774 018d 6A040000 		.4byte	.LASF47
 775 0191 48       		.byte	0x48
 776 0192 0D       		.byte	0xd
 777 0193 9C       		.byte	0x9c
 778 0194 08       		.byte	0x8
 779 0195 69020000 		.4byte	0x269
 780 0199 08       		.uleb128 0x8
 781 019a 68647200 		.ascii	"hdr\000"
 782 019e 0D       		.byte	0xd
 783 019f AD       		.byte	0xad
 784 01a0 05       		.byte	0x5
 785 01a1 81070000 		.4byte	0x781
 786 01a5 00       		.byte	0
 787 01a6 08       		.uleb128 0x8
 788 01a7 63747800 		.ascii	"ctx\000"
 789 01ab 0D       		.byte	0xd
 790 01ac B1       		.byte	0xb1
 791 01ad 21       		.byte	0x21
 792 01ae 96060000 		.4byte	0x696
 793 01b2 0C       		.byte	0xc
 794 01b3 01       		.uleb128 0x1
 795 01b4 C8030000 		.4byte	.LASF33
 796 01b8 0D       		.byte	0xd
 797 01b9 B6       		.byte	0xb6
ARM GAS  C:\Users\DEVELO~1\AppData\Local\Temp\ccB3i39m.s 			page 15


 798 01ba 21       		.byte	0x21
 799 01bb BB030000 		.4byte	0x3bb
 800 01bf 10       		.byte	0x10
 801 01c0 01       		.uleb128 0x1
 802 01c1 45070000 		.4byte	.LASF34
 803 01c5 0D       		.byte	0xd
 804 01c6 BB       		.byte	0xbb
 805 01c7 22       		.byte	0x22
 806 01c8 83080000 		.4byte	0x883
 807 01cc 18       		.byte	0x18
 808 01cd 01       		.uleb128 0x1
 809 01ce 37040000 		.4byte	.LASF35
 810 01d2 0D       		.byte	0xd
 811 01d3 C0       		.byte	0xc0
 812 01d4 22       		.byte	0x22
 813 01d5 49030000 		.4byte	0x349
 814 01d9 1C       		.byte	0x1c
 815 01da 01       		.uleb128 0x1
 816 01db 5A020000 		.4byte	.LASF36
 817 01df 0D       		.byte	0xd
 818 01e0 C9       		.byte	0xc9
 819 01e1 22       		.byte	0x22
 820 01e2 88080000 		.4byte	0x888
 821 01e6 20       		.byte	0x20
 822 01e7 01       		.uleb128 0x1
 823 01e8 FA010000 		.4byte	.LASF37
 824 01ec 0D       		.byte	0xd
 825 01ed CE       		.byte	0xce
 826 01ee 21       		.byte	0x21
 827 01ef 2C010000 		.4byte	0x12c
 828 01f3 24       		.byte	0x24
 829 01f4 01       		.uleb128 0x1
 830 01f5 29090000 		.4byte	.LASF38
 831 01f9 0D       		.byte	0xd
 832 01fa D2       		.byte	0xd2
 833 01fb 21       		.byte	0x21
 834 01fc 20010000 		.4byte	0x120
 835 0200 25       		.byte	0x25
 836 0201 01       		.uleb128 0x1
 837 0202 2C060000 		.4byte	.LASF39
 838 0206 0D       		.byte	0xd
 839 0207 D7       		.byte	0xd7
 840 0208 21       		.byte	0x21
 841 0209 38010000 		.4byte	0x138
 842 020d 26       		.byte	0x26
 843 020e 05       		.uleb128 0x5
 844 020f 7500     		.ascii	"u\000"
 845 0211 0D       		.byte	0xd
 846 0212 2801     		.2byte	0x128
 847 0214 21       		.byte	0x21
 848 0215 AE070000 		.4byte	0x7ae
 849 0219 28       		.byte	0x28
 850 021a 03       		.uleb128 0x3
 851 021b 02030000 		.4byte	.LASF40
 852 021f 2D01     		.2byte	0x12d
 853 0221 21       		.byte	0x21
 854 0222 8F030000 		.4byte	0x38f
ARM GAS  C:\Users\DEVELO~1\AppData\Local\Temp\ccB3i39m.s 			page 16


 855 0226 2C       		.byte	0x2c
 856 0227 03       		.uleb128 0x3
 857 0228 4E030000 		.4byte	.LASF41
 858 022c 3301     		.2byte	0x133
 859 022e 21       		.byte	0x21
 860 022f BB030000 		.4byte	0x3bb
 861 0233 30       		.byte	0x30
 862 0234 03       		.uleb128 0x3
 863 0235 7A040000 		.4byte	.LASF42
 864 0239 3901     		.2byte	0x139
 865 023b 21       		.byte	0x21
 866 023c 5C010000 		.4byte	0x15c
 867 0240 38       		.byte	0x38
 868 0241 03       		.uleb128 0x3
 869 0242 9B090000 		.4byte	.LASF43
 870 0246 4001     		.2byte	0x140
 871 0248 22       		.byte	0x22
 872 0249 7E080000 		.4byte	0x87e
 873 024d 3C       		.byte	0x3c
 874 024e 03       		.uleb128 0x3
 875 024f 17050000 		.4byte	.LASF44
 876 0253 4401     		.2byte	0x144
 877 0255 21       		.byte	0x21
 878 0256 44010000 		.4byte	0x144
 879 025a 40       		.byte	0x40
 880 025b 03       		.uleb128 0x3
 881 025c CD080000 		.4byte	.LASF45
 882 0260 4B01     		.2byte	0x14b
 883 0262 22       		.byte	0x22
 884 0263 A9040000 		.4byte	0x4a9
 885 0267 44       		.byte	0x44
 886 0268 00       		.byte	0
 887 0269 02       		.uleb128 0x2
 888 026a 2C080000 		.4byte	.LASF46
 889 026e 0C       		.byte	0xc
 890 026f 8A       		.byte	0x8a
 891 0270 1F       		.byte	0x1f
 892 0271 75020000 		.4byte	0x275
 893 0275 21       		.uleb128 0x21
 894 0276 24030000 		.4byte	.LASF48
 895 027a 9008     		.2byte	0x890
 896 027c 0D       		.byte	0xd
 897 027d 8A01     		.2byte	0x18a
 898 027f 08       		.byte	0x8
 899 0280 FB020000 		.4byte	0x2fb
 900 0284 03       		.uleb128 0x3
 901 0285 11090000 		.4byte	.LASF49
 902 0289 8E01     		.2byte	0x18e
 903 028b 21       		.byte	0x21
 904 028c B6080000 		.4byte	0x8b6
 905 0290 00       		.byte	0
 906 0291 03       		.uleb128 0x3
 907 0292 7A000000 		.4byte	.LASF50
 908 0296 9201     		.2byte	0x192
 909 0298 21       		.byte	0x21
 910 0299 42070000 		.4byte	0x742
 911 029d 10       		.byte	0x10
ARM GAS  C:\Users\DEVELO~1\AppData\Local\Temp\ccB3i39m.s 			page 17


 912 029e 03       		.uleb128 0x3
 913 029f 44080000 		.4byte	.LASF51
 914 02a3 9901     		.2byte	0x199
 915 02a5 21       		.byte	0x21
 916 02a6 69070000 		.4byte	0x769
 917 02aa 28       		.byte	0x28
 918 02ab 03       		.uleb128 0x3
 919 02ac 40030000 		.4byte	.LASF52
 920 02b0 9E01     		.2byte	0x19e
 921 02b2 21       		.byte	0x21
 922 02b3 74010000 		.4byte	0x174
 923 02b7 30       		.byte	0x30
 924 02b8 03       		.uleb128 0x3
 925 02b9 5A000000 		.4byte	.LASF53
 926 02bd A401     		.2byte	0x1a4
 927 02bf 21       		.byte	0x21
 928 02c0 22030000 		.4byte	0x322
 929 02c4 34       		.byte	0x34
 930 02c5 03       		.uleb128 0x3
 931 02c6 98030000 		.4byte	.LASF54
 932 02ca A901     		.2byte	0x1a9
 933 02cc 22       		.byte	0x22
 934 02cd 21090000 		.4byte	0x921
 935 02d1 38       		.byte	0x38
 936 02d2 03       		.uleb128 0x3
 937 02d3 FA000000 		.4byte	.LASF55
 938 02d7 AD01     		.2byte	0x1ad
 939 02d9 21       		.byte	0x21
 940 02da 80010000 		.4byte	0x180
 941 02de 3C       		.byte	0x3c
 942 02df 05       		.uleb128 0x5
 943 02e0 64626700 		.ascii	"dbg\000"
 944 02e4 0D       		.byte	0xd
 945 02e5 B101     		.2byte	0x1b1
 946 02e7 21       		.byte	0x21
 947 02e8 5F030000 		.4byte	0x35f
 948 02ec 84       		.byte	0x84
 949 02ed 03       		.uleb128 0x3
 950 02ee 53090000 		.4byte	.LASF56
 951 02f2 B601     		.2byte	0x1b6
 952 02f4 21       		.byte	0x21
 953 02f5 04060000 		.4byte	0x604
 954 02f9 88       		.byte	0x88
 955 02fa 00       		.byte	0
 956 02fb 02       		.uleb128 0x2
 957 02fc 28050000 		.4byte	.LASF57
 958 0300 01       		.byte	0x1
 959 0301 3F       		.byte	0x3f
 960 0302 12       		.byte	0x12
 961 0303 D3000000 		.4byte	0xd3
 962 0307 07       		.uleb128 0x7
 963 0308 27020000 		.4byte	.LASF58
 964 030c 04       		.byte	0x4
 965 030d 01       		.byte	0x1
 966 030e 44       		.byte	0x44
 967 030f 10       		.byte	0x10
 968 0310 22030000 		.4byte	0x322
ARM GAS  C:\Users\DEVELO~1\AppData\Local\Temp\ccB3i39m.s 			page 18


 969 0314 01       		.uleb128 0x1
 970 0315 EB020000 		.4byte	.LASF59
 971 0319 01       		.byte	0x1
 972 031a 48       		.byte	0x48
 973 031b 21       		.byte	0x21
 974 031c FB020000 		.4byte	0x2fb
 975 0320 00       		.byte	0
 976 0321 00       		.byte	0
 977 0322 02       		.uleb128 0x2
 978 0323 91060000 		.4byte	.LASF60
 979 0327 01       		.byte	0x1
 980 0328 49       		.byte	0x49
 981 0329 03       		.byte	0x3
 982 032a 07030000 		.4byte	0x307
 983 032e 07       		.uleb128 0x7
 984 032f 4F060000 		.4byte	.LASF61
 985 0333 04       		.byte	0x4
 986 0334 02       		.byte	0x2
 987 0335 3E       		.byte	0x3e
 988 0336 10       		.byte	0x10
 989 0337 49030000 		.4byte	0x349
 990 033b 01       		.uleb128 0x1
 991 033c 03080000 		.4byte	.LASF62
 992 0340 02       		.byte	0x2
 993 0341 46       		.byte	0x46
 994 0342 24       		.byte	0x24
 995 0343 4E030000 		.4byte	0x34e
 996 0347 00       		.byte	0
 997 0348 00       		.byte	0
 998 0349 04       		.uleb128 0x4
 999 034a 5A030000 		.4byte	0x35a
 1000 034e 18       		.uleb128 0x18
 1001 034f 49030000 		.4byte	0x349
 1002 0353 06       		.uleb128 0x6
 1003 0354 01       		.byte	0x1
 1004 0355 08       		.byte	0x8
 1005 0356 86070000 		.4byte	.LASF63
 1006 035a 0D       		.uleb128 0xd
 1007 035b 53030000 		.4byte	0x353
 1008 035f 02       		.uleb128 0x2
 1009 0360 A7030000 		.4byte	.LASF64
 1010 0364 02       		.byte	0x2
 1011 0365 51       		.byte	0x51
 1012 0366 03       		.byte	0x3
 1013 0367 2E030000 		.4byte	0x32e
 1014 036b 02       		.uleb128 0x2
 1015 036c DE070000 		.4byte	.LASF65
 1016 0370 0E       		.byte	0xe
 1017 0371 6D       		.byte	0x6d
 1018 0372 12       		.byte	0x12
 1019 0373 D3000000 		.4byte	0xd3
 1020 0377 02       		.uleb128 0x2
 1021 0378 2F020000 		.4byte	.LASF66
 1022 037c 0E       		.byte	0xe
 1023 037d 79       		.byte	0x79
 1024 037e 12       		.byte	0x12
 1025 037f D3000000 		.4byte	0xd3
ARM GAS  C:\Users\DEVELO~1\AppData\Local\Temp\ccB3i39m.s 			page 19


 1026 0383 02       		.uleb128 0x2
 1027 0384 B3020000 		.4byte	.LASF67
 1028 0388 0E       		.byte	0xe
 1029 0389 81       		.byte	0x81
 1030 038a 12       		.byte	0x12
 1031 038b DF000000 		.4byte	0xdf
 1032 038f 02       		.uleb128 0x2
 1033 0390 17090000 		.4byte	.LASF68
 1034 0394 03       		.byte	0x3
 1035 0395 32       		.byte	0x32
 1036 0396 18       		.byte	0x18
 1037 0397 9B030000 		.4byte	0x39b
 1038 039b 07       		.uleb128 0x7
 1039 039c AF040000 		.4byte	.LASF69
 1040 03a0 04       		.byte	0x4
 1041 03a1 03       		.byte	0x3
 1042 03a2 38       		.byte	0x38
 1043 03a3 08       		.byte	0x8
 1044 03a4 B6030000 		.4byte	0x3b6
 1045 03a8 01       		.uleb128 0x1
 1046 03a9 13010000 		.4byte	.LASF70
 1047 03ad 03       		.byte	0x3
 1048 03ae 39       		.byte	0x39
 1049 03af 1A       		.byte	0x1a
 1050 03b0 B6030000 		.4byte	0x3b6
 1051 03b4 00       		.byte	0
 1052 03b5 00       		.byte	0
 1053 03b6 04       		.uleb128 0x4
 1054 03b7 8F030000 		.4byte	0x38f
 1055 03bb 02       		.uleb128 0x2
 1056 03bc F0020000 		.4byte	.LASF71
 1057 03c0 03       		.byte	0x3
 1058 03c1 3F       		.byte	0x3f
 1059 03c2 19       		.byte	0x19
 1060 03c3 C7030000 		.4byte	0x3c7
 1061 03c7 07       		.uleb128 0x7
 1062 03c8 3D020000 		.4byte	.LASF72
 1063 03cc 08       		.byte	0x8
 1064 03cd 03       		.byte	0x3
 1065 03ce 45       		.byte	0x45
 1066 03cf 08       		.byte	0x8
 1067 03d0 EF030000 		.4byte	0x3ef
 1068 03d4 01       		.uleb128 0x1
 1069 03d5 13010000 		.4byte	.LASF70
 1070 03d9 03       		.byte	0x3
 1071 03da 46       		.byte	0x46
 1072 03db 1A       		.byte	0x1a
 1073 03dc EF030000 		.4byte	0x3ef
 1074 03e0 00       		.byte	0
 1075 03e1 01       		.uleb128 0x1
 1076 03e2 69000000 		.4byte	.LASF73
 1077 03e6 03       		.byte	0x3
 1078 03e7 47       		.byte	0x47
 1079 03e8 1A       		.byte	0x1a
 1080 03e9 EF030000 		.4byte	0x3ef
 1081 03ed 04       		.byte	0x4
 1082 03ee 00       		.byte	0
ARM GAS  C:\Users\DEVELO~1\AppData\Local\Temp\ccB3i39m.s 			page 20


 1083 03ef 04       		.uleb128 0x4
 1084 03f0 BB030000 		.4byte	0x3bb
 1085 03f4 02       		.uleb128 0x2
 1086 03f5 EF070000 		.4byte	.LASF74
 1087 03f9 03       		.byte	0x3
 1088 03fa 4E       		.byte	0x4e
 1089 03fb 22       		.byte	0x22
 1090 03fc 00040000 		.4byte	0x400
 1091 0400 07       		.uleb128 0x7
 1092 0401 6D080000 		.4byte	.LASF75
 1093 0405 0C       		.byte	0xc
 1094 0406 03       		.byte	0x3
 1095 0407 55       		.byte	0x55
 1096 0408 08       		.byte	0x8
 1097 0409 35040000 		.4byte	0x435
 1098 040d 01       		.uleb128 0x1
 1099 040e 13010000 		.4byte	.LASF70
 1100 0412 03       		.byte	0x3
 1101 0413 56       		.byte	0x56
 1102 0414 1A       		.byte	0x1a
 1103 0415 35040000 		.4byte	0x435
 1104 0419 00       		.byte	0
 1105 041a 01       		.uleb128 0x1
 1106 041b 69000000 		.4byte	.LASF73
 1107 041f 03       		.byte	0x3
 1108 0420 57       		.byte	0x57
 1109 0421 1A       		.byte	0x1a
 1110 0422 35040000 		.4byte	0x435
 1111 0426 04       		.byte	0x4
 1112 0427 01       		.uleb128 0x1
 1113 0428 F2050000 		.4byte	.LASF76
 1114 042c 03       		.byte	0x3
 1115 042d 58       		.byte	0x58
 1116 042e 19       		.byte	0x19
 1117 042f 44010000 		.4byte	0x144
 1118 0433 08       		.byte	0x8
 1119 0434 00       		.byte	0
 1120 0435 04       		.uleb128 0x4
 1121 0436 F4030000 		.4byte	0x3f4
 1122 043a 02       		.uleb128 0x2
 1123 043b 98080000 		.4byte	.LASF77
 1124 043f 03       		.byte	0x3
 1125 0440 5F       		.byte	0x5f
 1126 0441 1E       		.byte	0x1e
 1127 0442 46040000 		.4byte	0x446
 1128 0446 07       		.uleb128 0x7
 1129 0447 3D010000 		.4byte	.LASF78
 1130 044b 0C       		.byte	0xc
 1131 044c 03       		.byte	0x3
 1132 044d 64       		.byte	0x64
 1133 044e 08       		.byte	0x8
 1134 044f 7B040000 		.4byte	0x47b
 1135 0453 01       		.uleb128 0x1
 1136 0454 13010000 		.4byte	.LASF70
 1137 0458 03       		.byte	0x3
 1138 0459 65       		.byte	0x65
 1139 045a 1A       		.byte	0x1a
ARM GAS  C:\Users\DEVELO~1\AppData\Local\Temp\ccB3i39m.s 			page 21


 1140 045b 7B040000 		.4byte	0x47b
 1141 045f 00       		.byte	0
 1142 0460 01       		.uleb128 0x1
 1143 0461 69000000 		.4byte	.LASF73
 1144 0465 03       		.byte	0x3
 1145 0466 66       		.byte	0x66
 1146 0467 1A       		.byte	0x1a
 1147 0468 7B040000 		.4byte	0x47b
 1148 046c 04       		.byte	0x4
 1149 046d 01       		.uleb128 0x1
 1150 046e 0D010000 		.4byte	.LASF79
 1151 0472 03       		.byte	0x3
 1152 0473 67       		.byte	0x67
 1153 0474 19       		.byte	0x19
 1154 0475 77030000 		.4byte	0x377
 1155 0479 08       		.byte	0x8
 1156 047a 00       		.byte	0
 1157 047b 04       		.uleb128 0x4
 1158 047c 3A040000 		.4byte	0x43a
 1159 0480 09       		.uleb128 0x9
 1160 0481 08       		.byte	0x8
 1161 0482 0F       		.byte	0xf
 1162 0483 83       		.byte	0x83
 1163 0484 05       		.byte	0x5
 1164 0485 A4040000 		.4byte	0x4a4
 1165 0489 08       		.uleb128 0x8
 1166 048a 6E747000 		.ascii	"ntp\000"
 1167 048e 0F       		.byte	0xf
 1168 048f 87       		.byte	0x87
 1169 0490 1E       		.byte	0x1e
 1170 0491 A4040000 		.4byte	0x4a4
 1171 0495 00       		.byte	0
 1172 0496 01       		.uleb128 0x1
 1173 0497 CC060000 		.4byte	.LASF80
 1174 049b 0F       		.byte	0xf
 1175 049c 8B       		.byte	0x8b
 1176 049d 1E       		.byte	0x1e
 1177 049e A9040000 		.4byte	0x4a9
 1178 04a2 04       		.byte	0x4
 1179 04a3 00       		.byte	0
 1180 04a4 04       		.uleb128 0x4
 1181 04a5 80010000 		.4byte	0x180
 1182 04a9 22       		.uleb128 0x22
 1183 04aa 04       		.byte	0x4
 1184 04ab 09       		.uleb128 0x9
 1185 04ac 08       		.byte	0x8
 1186 04ad 0F       		.byte	0xf
 1187 04ae 90       		.byte	0x90
 1188 04af 05       		.byte	0x5
 1189 04b0 CE040000 		.4byte	0x4ce
 1190 04b4 08       		.uleb128 0x8
 1191 04b5 747000   		.ascii	"tp\000"
 1192 04b8 0F       		.byte	0xf
 1193 04b9 94       		.byte	0x94
 1194 04ba 1E       		.byte	0x1e
 1195 04bb A4040000 		.4byte	0x4a4
 1196 04bf 00       		.byte	0
ARM GAS  C:\Users\DEVELO~1\AppData\Local\Temp\ccB3i39m.s 			page 22


 1197 04c0 08       		.uleb128 0x8
 1198 04c1 6D736700 		.ascii	"msg\000"
 1199 04c5 0F       		.byte	0xf
 1200 04c6 98       		.byte	0x98
 1201 04c7 1D       		.byte	0x1d
 1202 04c8 50010000 		.4byte	0x150
 1203 04cc 04       		.byte	0x4
 1204 04cd 00       		.byte	0
 1205 04ce 09       		.uleb128 0x9
 1206 04cf 04       		.byte	0x4
 1207 04d0 0F       		.byte	0xf
 1208 04d1 9D       		.byte	0x9d
 1209 04d2 05       		.byte	0x5
 1210 04d3 E5040000 		.4byte	0x4e5
 1211 04d7 01       		.uleb128 0x1
 1212 04d8 37040000 		.4byte	.LASF35
 1213 04dc 0F       		.byte	0xf
 1214 04dd A1       		.byte	0xa1
 1215 04de 1E       		.byte	0x1e
 1216 04df 49030000 		.4byte	0x349
 1217 04e3 00       		.byte	0
 1218 04e4 00       		.byte	0
 1219 04e5 09       		.uleb128 0x9
 1220 04e6 04       		.byte	0x4
 1221 04e7 0F       		.byte	0xf
 1222 04e8 A6       		.byte	0xa6
 1223 04e9 05       		.byte	0x5
 1224 04ea FC040000 		.4byte	0x4fc
 1225 04ee 01       		.uleb128 0x1
 1226 04ef FA060000 		.4byte	.LASF81
 1227 04f3 0F       		.byte	0xf
 1228 04f4 AA       		.byte	0xaa
 1229 04f5 1E       		.byte	0x1e
 1230 04f6 49030000 		.4byte	0x349
 1231 04fa 00       		.byte	0
 1232 04fb 00       		.byte	0
 1233 04fc 09       		.uleb128 0x9
 1234 04fd 08       		.byte	0x8
 1235 04fe 0F       		.byte	0xf
 1236 04ff AF       		.byte	0xaf
 1237 0500 05       		.byte	0x5
 1238 0501 20050000 		.4byte	0x520
 1239 0505 08       		.uleb128 0x8
 1240 0506 75703100 		.ascii	"up1\000"
 1241 050a 0F       		.byte	0xf
 1242 050b B3       		.byte	0xb3
 1243 050c 1E       		.byte	0x1e
 1244 050d A9040000 		.4byte	0x4a9
 1245 0511 00       		.byte	0
 1246 0512 08       		.uleb128 0x8
 1247 0513 75703200 		.ascii	"up2\000"
 1248 0517 0F       		.byte	0xf
 1249 0518 B7       		.byte	0xb7
 1250 0519 1E       		.byte	0x1e
 1251 051a A9040000 		.4byte	0x4a9
 1252 051e 04       		.byte	0x4
 1253 051f 00       		.byte	0
ARM GAS  C:\Users\DEVELO~1\AppData\Local\Temp\ccB3i39m.s 			page 23


 1254 0520 14       		.uleb128 0x14
 1255 0521 08       		.byte	0x8
 1256 0522 0F       		.byte	0xf
 1257 0523 7F       		.byte	0x7f
 1258 0524 5E050000 		.4byte	0x55e
 1259 0528 15       		.uleb128 0x15
 1260 0529 737700   		.ascii	"sw\000"
 1261 052c 8C       		.byte	0x8c
 1262 052d 80040000 		.4byte	0x480
 1263 0531 15       		.uleb128 0x15
 1264 0532 72647900 		.ascii	"rdy\000"
 1265 0536 99       		.byte	0x99
 1266 0537 AB040000 		.4byte	0x4ab
 1267 053b 15       		.uleb128 0x15
 1268 053c 69737200 		.ascii	"isr\000"
 1269 0540 A2       		.byte	0xa2
 1270 0541 CE040000 		.4byte	0x4ce
 1271 0545 0B       		.uleb128 0xb
 1272 0546 DD000000 		.4byte	.LASF82
 1273 054a 0F       		.byte	0xf
 1274 054b AB       		.byte	0xab
 1275 054c 07       		.byte	0x7
 1276 054d E5040000 		.4byte	0x4e5
 1277 0551 0B       		.uleb128 0xb
 1278 0552 31060000 		.4byte	.LASF83
 1279 0556 0F       		.byte	0xf
 1280 0557 B8       		.byte	0xb8
 1281 0558 07       		.byte	0x7
 1282 0559 FC040000 		.4byte	0x4fc
 1283 055d 00       		.byte	0
 1284 055e 09       		.uleb128 0x9
 1285 055f 10       		.byte	0x10
 1286 0560 0F       		.byte	0xf
 1287 0561 6C       		.byte	0x6c
 1288 0562 09       		.byte	0x9
 1289 0563 A4050000 		.4byte	0x5a4
 1290 0567 16       		.uleb128 0x16
 1291 0568 81000000 		.4byte	.LASF84
 1292 056c 70       		.byte	0x70
 1293 056d D3000000 		.4byte	0xd3
 1294 0571 03       		.byte	0x3
 1295 0572 00       		.byte	0
 1296 0573 16       		.uleb128 0x16
 1297 0574 FA010000 		.4byte	.LASF37
 1298 0578 74       		.byte	0x74
 1299 0579 D3000000 		.4byte	0xd3
 1300 057d 05       		.byte	0x5
 1301 057e 03       		.byte	0x3
 1302 057f 16       		.uleb128 0x16
 1303 0580 05050000 		.4byte	.LASF85
 1304 0584 7A       		.byte	0x7a
 1305 0585 D3000000 		.4byte	0xd3
 1306 0589 18       		.byte	0x18
 1307 058a 08       		.byte	0x8
 1308 058b 01       		.uleb128 0x1
 1309 058c ED050000 		.4byte	.LASF86
 1310 0590 0F       		.byte	0xf
ARM GAS  C:\Users\DEVELO~1\AppData\Local\Temp\ccB3i39m.s 			page 24


 1311 0591 7E       		.byte	0x7e
 1312 0592 19       		.byte	0x19
 1313 0593 6B030000 		.4byte	0x36b
 1314 0597 04       		.byte	0x4
 1315 0598 08       		.uleb128 0x8
 1316 0599 7500     		.ascii	"u\000"
 1317 059b 0F       		.byte	0xf
 1318 059c B9       		.byte	0xb9
 1319 059d 05       		.byte	0x5
 1320 059e 20050000 		.4byte	0x520
 1321 05a2 08       		.byte	0x8
 1322 05a3 00       		.byte	0
 1323 05a4 02       		.uleb128 0x2
 1324 05a5 A3000000 		.4byte	.LASF87
 1325 05a9 0F       		.byte	0xf
 1326 05aa BA       		.byte	0xba
 1327 05ab 03       		.byte	0x3
 1328 05ac 5E050000 		.4byte	0x55e
 1329 05b0 23       		.uleb128 0x23
 1330 05b1 0808     		.2byte	0x808
 1331 05b3 0F       		.byte	0xf
 1332 05b4 C0       		.byte	0xc0
 1333 05b5 09       		.byte	0x9
 1334 05b6 EF050000 		.4byte	0x5ef
 1335 05ba 01       		.uleb128 0x1
 1336 05bb C6000000 		.4byte	.LASF88
 1337 05bf 0F       		.byte	0xf
 1338 05c0 C4       		.byte	0xc4
 1339 05c1 19       		.byte	0x19
 1340 05c2 BB000000 		.4byte	0xbb
 1341 05c6 00       		.byte	0
 1342 05c7 01       		.uleb128 0x1
 1343 05c8 52040000 		.4byte	.LASF89
 1344 05cc 0F       		.byte	0xf
 1345 05cd C8       		.byte	0xc8
 1346 05ce 19       		.byte	0x19
 1347 05cf BB000000 		.4byte	0xbb
 1348 05d3 02       		.byte	0x2
 1349 05d4 08       		.uleb128 0x8
 1350 05d5 70747200 		.ascii	"ptr\000"
 1351 05d9 0F       		.byte	0xf
 1352 05da CC       		.byte	0xcc
 1353 05db 1A       		.byte	0x1a
 1354 05dc EF050000 		.4byte	0x5ef
 1355 05e0 04       		.byte	0x4
 1356 05e1 01       		.uleb128 0x1
 1357 05e2 E8070000 		.4byte	.LASF90
 1358 05e6 0F       		.byte	0xf
 1359 05e7 D0       		.byte	0xd0
 1360 05e8 19       		.byte	0x19
 1361 05e9 F4050000 		.4byte	0x5f4
 1362 05ed 08       		.byte	0x8
 1363 05ee 00       		.byte	0
 1364 05ef 04       		.uleb128 0x4
 1365 05f0 A4050000 		.4byte	0x5a4
 1366 05f4 0E       		.uleb128 0xe
 1367 05f5 A4050000 		.4byte	0x5a4
ARM GAS  C:\Users\DEVELO~1\AppData\Local\Temp\ccB3i39m.s 			page 25


 1368 05f9 04060000 		.4byte	0x604
 1369 05fd 0F       		.uleb128 0xf
 1370 05fe 2D000000 		.4byte	0x2d
 1371 0602 7F       		.byte	0x7f
 1372 0603 00       		.byte	0
 1373 0604 02       		.uleb128 0x2
 1374 0605 BD060000 		.4byte	.LASF91
 1375 0609 0F       		.byte	0xf
 1376 060a D1       		.byte	0xd1
 1377 060b 03       		.byte	0x3
 1378 060c B0050000 		.4byte	0x5b0
 1379 0610 10       		.uleb128 0x10
 1380 0611 6E000000 		.4byte	.LASF92
 1381 0615 24       		.byte	0x24
 1382 0616 08       		.byte	0x8
 1383 0617 E001     		.2byte	0x1e0
 1384 0619 08       		.byte	0x8
 1385 061a 96060000 		.4byte	0x696
 1386 061e 05       		.uleb128 0x5
 1387 061f 723400   		.ascii	"r4\000"
 1388 0622 08       		.byte	0x8
 1389 0623 F901     		.2byte	0x1f9
 1390 0625 11       		.byte	0x11
 1391 0626 D3000000 		.4byte	0xd3
 1392 062a 00       		.byte	0
 1393 062b 05       		.uleb128 0x5
 1394 062c 723500   		.ascii	"r5\000"
 1395 062f 08       		.byte	0x8
 1396 0630 FA01     		.2byte	0x1fa
 1397 0632 11       		.byte	0x11
 1398 0633 D3000000 		.4byte	0xd3
 1399 0637 04       		.byte	0x4
 1400 0638 05       		.uleb128 0x5
 1401 0639 723600   		.ascii	"r6\000"
 1402 063c 08       		.byte	0x8
 1403 063d FB01     		.2byte	0x1fb
 1404 063f 11       		.byte	0x11
 1405 0640 D3000000 		.4byte	0xd3
 1406 0644 08       		.byte	0x8
 1407 0645 05       		.uleb128 0x5
 1408 0646 723700   		.ascii	"r7\000"
 1409 0649 08       		.byte	0x8
 1410 064a FC01     		.2byte	0x1fc
 1411 064c 11       		.byte	0x11
 1412 064d D3000000 		.4byte	0xd3
 1413 0651 0C       		.byte	0xc
 1414 0652 05       		.uleb128 0x5
 1415 0653 723800   		.ascii	"r8\000"
 1416 0656 08       		.byte	0x8
 1417 0657 FD01     		.2byte	0x1fd
 1418 0659 11       		.byte	0x11
 1419 065a D3000000 		.4byte	0xd3
 1420 065e 10       		.byte	0x10
 1421 065f 05       		.uleb128 0x5
 1422 0660 723900   		.ascii	"r9\000"
 1423 0663 08       		.byte	0x8
 1424 0664 FE01     		.2byte	0x1fe
ARM GAS  C:\Users\DEVELO~1\AppData\Local\Temp\ccB3i39m.s 			page 26


 1425 0666 11       		.byte	0x11
 1426 0667 D3000000 		.4byte	0xd3
 1427 066b 14       		.byte	0x14
 1428 066c 05       		.uleb128 0x5
 1429 066d 72313000 		.ascii	"r10\000"
 1430 0671 08       		.byte	0x8
 1431 0672 FF01     		.2byte	0x1ff
 1432 0674 11       		.byte	0x11
 1433 0675 D3000000 		.4byte	0xd3
 1434 0679 18       		.byte	0x18
 1435 067a 05       		.uleb128 0x5
 1436 067b 72313100 		.ascii	"r11\000"
 1437 067f 08       		.byte	0x8
 1438 0680 0002     		.2byte	0x200
 1439 0682 11       		.byte	0x11
 1440 0683 D3000000 		.4byte	0xd3
 1441 0687 1C       		.byte	0x1c
 1442 0688 05       		.uleb128 0x5
 1443 0689 6C7200   		.ascii	"lr\000"
 1444 068c 08       		.byte	0x8
 1445 068d 0102     		.2byte	0x201
 1446 068f 11       		.byte	0x11
 1447 0690 D3000000 		.4byte	0xd3
 1448 0694 20       		.byte	0x20
 1449 0695 00       		.byte	0
 1450 0696 10       		.uleb128 0x10
 1451 0697 33030000 		.4byte	.LASF93
 1452 069b 04       		.byte	0x4
 1453 069c 08       		.byte	0x8
 1454 069d 0A02     		.2byte	0x20a
 1455 069f 08       		.byte	0x8
 1456 06a0 B2060000 		.4byte	0x6b2
 1457 06a4 05       		.uleb128 0x5
 1458 06a5 737000   		.ascii	"sp\000"
 1459 06a8 08       		.byte	0x8
 1460 06a9 0B02     		.2byte	0x20b
 1461 06ab 1A       		.byte	0x1a
 1462 06ac B2060000 		.4byte	0x6b2
 1463 06b0 00       		.byte	0
 1464 06b1 00       		.byte	0
 1465 06b2 04       		.uleb128 0x4
 1466 06b3 10060000 		.4byte	0x610
 1467 06b7 09       		.uleb128 0x9
 1468 06b8 04       		.byte	0x4
 1469 06b9 10       		.byte	0x10
 1470 06ba 3F       		.byte	0x3f
 1471 06bb 09       		.byte	0x9
 1472 06bc CE060000 		.4byte	0x6ce
 1473 06c0 01       		.uleb128 0x1
 1474 06c1 FB020000 		.4byte	.LASF94
 1475 06c5 10       		.byte	0x10
 1476 06c6 43       		.byte	0x43
 1477 06c7 19       		.byte	0x19
 1478 06c8 08010000 		.4byte	0x108
 1479 06cc 00       		.byte	0
 1480 06cd 00       		.byte	0
 1481 06ce 02       		.uleb128 0x2
ARM GAS  C:\Users\DEVELO~1\AppData\Local\Temp\ccB3i39m.s 			page 27


 1482 06cf CC050000 		.4byte	.LASF95
 1483 06d3 10       		.byte	0x10
 1484 06d4 44       		.byte	0x44
 1485 06d5 03       		.byte	0x3
 1486 06d6 B7060000 		.4byte	0x6b7
 1487 06da 24       		.uleb128 0x24
 1488 06db 07       		.byte	0x7
 1489 06dc 01       		.byte	0x1
 1490 06dd 55000000 		.4byte	0x55
 1491 06e1 0D       		.byte	0xd
 1492 06e2 32       		.byte	0x32
 1493 06e3 0E       		.byte	0xe
 1494 06e4 01070000 		.4byte	0x701
 1495 06e8 12       		.uleb128 0x12
 1496 06e9 A2070000 		.4byte	.LASF96
 1497 06ed 00       		.byte	0
 1498 06ee 12       		.uleb128 0x12
 1499 06ef D3080000 		.4byte	.LASF97
 1500 06f3 01       		.byte	0x1
 1501 06f4 12       		.uleb128 0x12
 1502 06f5 E2000000 		.4byte	.LASF98
 1503 06f9 02       		.byte	0x2
 1504 06fa 12       		.uleb128 0x12
 1505 06fb 5F080000 		.4byte	.LASF99
 1506 06ff 03       		.byte	0x3
 1507 0700 00       		.byte	0
 1508 0701 02       		.uleb128 0x2
 1509 0702 73090000 		.4byte	.LASF100
 1510 0706 0D       		.byte	0xd
 1511 0707 37       		.byte	0x37
 1512 0708 03       		.byte	0x3
 1513 0709 DA060000 		.4byte	0x6da
 1514 070d 07       		.uleb128 0x7
 1515 070e 4F050000 		.4byte	.LASF101
 1516 0712 18       		.byte	0x18
 1517 0713 0D       		.byte	0xd
 1518 0714 64       		.byte	0x64
 1519 0715 10       		.byte	0x10
 1520 0716 42070000 		.4byte	0x742
 1521 071a 01       		.uleb128 0x1
 1522 071b D8070000 		.4byte	.LASF102
 1523 071f 0D       		.byte	0xd
 1524 0720 68       		.byte	0x68
 1525 0721 21       		.byte	0x21
 1526 0722 3A040000 		.4byte	0x43a
 1527 0726 00       		.byte	0
 1528 0727 01       		.uleb128 0x1
 1529 0728 B4060000 		.4byte	.LASF103
 1530 072c 0D       		.byte	0xd
 1531 072d 73       		.byte	0x73
 1532 072e 21       		.byte	0x21
 1533 072f 6B030000 		.4byte	0x36b
 1534 0733 0C       		.byte	0xc
 1535 0734 01       		.uleb128 0x1
 1536 0735 0D050000 		.4byte	.LASF104
 1537 0739 0D       		.byte	0xd
 1538 073a 79       		.byte	0x79
ARM GAS  C:\Users\DEVELO~1\AppData\Local\Temp\ccB3i39m.s 			page 28


 1539 073b 21       		.byte	0x21
 1540 073c EB000000 		.4byte	0xeb
 1541 0740 10       		.byte	0x10
 1542 0741 00       		.byte	0
 1543 0742 02       		.uleb128 0x2
 1544 0743 E4040000 		.4byte	.LASF105
 1545 0747 0D       		.byte	0xd
 1546 0748 7B       		.byte	0x7b
 1547 0749 03       		.byte	0x3
 1548 074a 0D070000 		.4byte	0x70d
 1549 074e 07       		.uleb128 0x7
 1550 074f 8E020000 		.4byte	.LASF106
 1551 0753 08       		.byte	0x8
 1552 0754 0D       		.byte	0xd
 1553 0755 80       		.byte	0x80
 1554 0756 10       		.byte	0x10
 1555 0757 69070000 		.4byte	0x769
 1556 075b 01       		.uleb128 0x1
 1557 075c 3C040000 		.4byte	.LASF107
 1558 0760 0D       		.byte	0xd
 1559 0761 84       		.byte	0x84
 1560 0762 21       		.byte	0x21
 1561 0763 BB030000 		.4byte	0x3bb
 1562 0767 00       		.byte	0
 1563 0768 00       		.byte	0
 1564 0769 02       		.uleb128 0x2
 1565 076a A8080000 		.4byte	.LASF108
 1566 076e 0D       		.byte	0xd
 1567 076f 85       		.byte	0x85
 1568 0770 03       		.byte	0x3
 1569 0771 4E070000 		.4byte	0x74e
 1570 0775 02       		.uleb128 0x2
 1571 0776 3C050000 		.4byte	.LASF109
 1572 077a 0D       		.byte	0xd
 1573 077b 8A       		.byte	0x8a
 1574 077c 14       		.byte	0x14
 1575 077d A4040000 		.4byte	0x4a4
 1576 0781 14       		.uleb128 0x14
 1577 0782 0C       		.byte	0xc
 1578 0783 0D       		.byte	0xd
 1579 0784 A0       		.byte	0xa0
 1580 0785 AE070000 		.4byte	0x7ae
 1581 0789 0B       		.uleb128 0xb
 1582 078a 6E090000 		.4byte	.LASF110
 1583 078e 0D       		.byte	0xd
 1584 078f A4       		.byte	0xa4
 1585 0790 21       		.byte	0x21
 1586 0791 8F030000 		.4byte	0x38f
 1587 0795 0B       		.uleb128 0xb
 1588 0796 3C040000 		.4byte	.LASF107
 1589 079a 0D       		.byte	0xd
 1590 079b A8       		.byte	0xa8
 1591 079c 21       		.byte	0x21
 1592 079d BB030000 		.4byte	0x3bb
 1593 07a1 0B       		.uleb128 0xb
 1594 07a2 0D080000 		.4byte	.LASF111
 1595 07a6 0D       		.byte	0xd
ARM GAS  C:\Users\DEVELO~1\AppData\Local\Temp\ccB3i39m.s 			page 29


 1596 07a7 AC       		.byte	0xac
 1597 07a8 21       		.byte	0x21
 1598 07a9 F4030000 		.4byte	0x3f4
 1599 07ad 00       		.byte	0
 1600 07ae 14       		.uleb128 0x14
 1601 07af 04       		.byte	0x4
 1602 07b0 0D       		.byte	0xd
 1603 07b1 EB       		.byte	0xeb
 1604 07b2 17080000 		.4byte	0x817
 1605 07b6 0B       		.uleb128 0xb
 1606 07b7 4D000000 		.4byte	.LASF112
 1607 07bb 0D       		.byte	0xd
 1608 07bc F2       		.byte	0xf2
 1609 07bd 21       		.byte	0x21
 1610 07be 50010000 		.4byte	0x150
 1611 07c2 0B       		.uleb128 0xb
 1612 07c3 F1000000 		.4byte	.LASF113
 1613 07c7 0D       		.byte	0xd
 1614 07c8 F9       		.byte	0xf9
 1615 07c9 21       		.byte	0x21
 1616 07ca 50010000 		.4byte	0x150
 1617 07ce 0C       		.uleb128 0xc
 1618 07cf CC060000 		.4byte	.LASF80
 1619 07d3 0001     		.2byte	0x100
 1620 07d5 22       		.byte	0x22
 1621 07d6 A9040000 		.4byte	0x4a9
 1622 07da 0C       		.uleb128 0xc
 1623 07db 38000000 		.4byte	.LASF114
 1624 07df 0701     		.2byte	0x107
 1625 07e1 22       		.byte	0x22
 1626 07e2 17080000 		.4byte	0x817
 1627 07e6 0C       		.uleb128 0xc
 1628 07e7 05010000 		.4byte	.LASF115
 1629 07eb 0C01     		.2byte	0x10c
 1630 07ed 21       		.byte	0x21
 1631 07ee 50010000 		.4byte	0x150
 1632 07f2 0C       		.uleb128 0xc
 1633 07f3 91030000 		.4byte	.LASF116
 1634 07f7 1501     		.2byte	0x115
 1635 07f9 22       		.byte	0x22
 1636 07fa 44080000 		.4byte	0x844
 1637 07fe 0C       		.uleb128 0xc
 1638 07ff 29070000 		.4byte	.LASF117
 1639 0803 1E01     		.2byte	0x11e
 1640 0805 22       		.byte	0x22
 1641 0806 7E080000 		.4byte	0x87e
 1642 080a 0C       		.uleb128 0xc
 1643 080b D3060000 		.4byte	.LASF118
 1644 080f 2601     		.2byte	0x126
 1645 0811 21       		.byte	0x21
 1646 0812 5C010000 		.4byte	0x15c
 1647 0816 00       		.byte	0
 1648 0817 04       		.uleb128 0x4
 1649 0818 75070000 		.4byte	0x775
 1650 081c 07       		.uleb128 0x7
 1651 081d 01070000 		.4byte	.LASF119
 1652 0821 0C       		.byte	0xc
ARM GAS  C:\Users\DEVELO~1\AppData\Local\Temp\ccB3i39m.s 			page 30


 1653 0822 11       		.byte	0x11
 1654 0823 34       		.byte	0x34
 1655 0824 10       		.byte	0x10
 1656 0825 44080000 		.4byte	0x844
 1657 0829 01       		.uleb128 0x1
 1658 082a 3C040000 		.4byte	.LASF107
 1659 082e 11       		.byte	0x11
 1660 082f 35       		.byte	0x35
 1661 0830 19       		.byte	0x19
 1662 0831 BB030000 		.4byte	0x3bb
 1663 0835 00       		.byte	0
 1664 0836 08       		.uleb128 0x8
 1665 0837 636E7400 		.ascii	"cnt\000"
 1666 083b 11       		.byte	0x11
 1667 083c 37       		.byte	0x37
 1668 083d 19       		.byte	0x19
 1669 083e 68010000 		.4byte	0x168
 1670 0842 08       		.byte	0x8
 1671 0843 00       		.byte	0
 1672 0844 04       		.uleb128 0x4
 1673 0845 1C080000 		.4byte	0x81c
 1674 0849 07       		.uleb128 0x7
 1675 084a 2F090000 		.4byte	.LASF120
 1676 084e 10       		.byte	0x10
 1677 084f 12       		.byte	0x12
 1678 0850 39       		.byte	0x39
 1679 0851 08       		.byte	0x8
 1680 0852 7E080000 		.4byte	0x87e
 1681 0856 01       		.uleb128 0x1
 1682 0857 3C040000 		.4byte	.LASF107
 1683 085b 12       		.byte	0x12
 1684 085c 3A       		.byte	0x3a
 1685 085d 19       		.byte	0x19
 1686 085e BB030000 		.4byte	0x3bb
 1687 0862 00       		.byte	0
 1688 0863 01       		.uleb128 0x1
 1689 0864 45070000 		.4byte	.LASF34
 1690 0868 12       		.byte	0x12
 1691 0869 3C       		.byte	0x3c
 1692 086a 1A       		.byte	0x1a
 1693 086b A4040000 		.4byte	0x4a4
 1694 086f 08       		.byte	0x8
 1695 0870 01       		.uleb128 0x1
 1696 0871 13010000 		.4byte	.LASF70
 1697 0875 12       		.byte	0x12
 1698 0876 3E       		.byte	0x3e
 1699 0877 1A       		.byte	0x1a
 1700 0878 0A0C0000 		.4byte	0xc0a
 1701 087c 0C       		.byte	0xc
 1702 087d 00       		.byte	0
 1703 087e 04       		.uleb128 0x4
 1704 087f 49080000 		.4byte	0x849
 1705 0883 04       		.uleb128 0x4
 1706 0884 69020000 		.4byte	0x269
 1707 0888 04       		.uleb128 0x4
 1708 0889 14010000 		.4byte	0x114
 1709 088d 10       		.uleb128 0x10
ARM GAS  C:\Users\DEVELO~1\AppData\Local\Temp\ccB3i39m.s 			page 31


 1710 088e B7040000 		.4byte	.LASF121
 1711 0892 10       		.byte	0x10
 1712 0893 0D       		.byte	0xd
 1713 0894 5C01     		.2byte	0x15c
 1714 0896 10       		.byte	0x10
 1715 0897 B6080000 		.4byte	0x8b6
 1716 089b 03       		.uleb128 0x3
 1717 089c 0D080000 		.4byte	.LASF111
 1718 08a0 6101     		.2byte	0x161
 1719 08a2 21       		.byte	0x21
 1720 08a3 F4030000 		.4byte	0x3f4
 1721 08a7 00       		.byte	0
 1722 08a8 03       		.uleb128 0x3
 1723 08a9 F7050000 		.4byte	.LASF122
 1724 08ad 6501     		.2byte	0x165
 1725 08af 22       		.byte	0x22
 1726 08b0 A4040000 		.4byte	0x4a4
 1727 08b4 0C       		.byte	0xc
 1728 08b5 00       		.byte	0
 1729 08b6 17       		.uleb128 0x17
 1730 08b7 2B000000 		.4byte	.LASF123
 1731 08bb 6601     		.2byte	0x166
 1732 08bd 8D080000 		.4byte	0x88d
 1733 08c1 10       		.uleb128 0x10
 1734 08c2 B0050000 		.4byte	.LASF124
 1735 08c6 14       		.byte	0x14
 1736 08c7 0D       		.byte	0xd
 1737 08c8 6B01     		.2byte	0x16b
 1738 08ca 10       		.byte	0x10
 1739 08cb 11090000 		.4byte	0x911
 1740 08cf 03       		.uleb128 0x3
 1741 08d0 37040000 		.4byte	.LASF35
 1742 08d4 6F01     		.2byte	0x16f
 1743 08d6 22       		.byte	0x22
 1744 08d7 49030000 		.4byte	0x349
 1745 08db 00       		.byte	0
 1746 08dc 03       		.uleb128 0x3
 1747 08dd 14080000 		.4byte	.LASF125
 1748 08e1 7501     		.2byte	0x175
 1749 08e3 22       		.byte	0x22
 1750 08e4 88080000 		.4byte	0x888
 1751 08e8 04       		.byte	0x4
 1752 08e9 03       		.uleb128 0x3
 1753 08ea B3080000 		.4byte	.LASF126
 1754 08ee 7901     		.2byte	0x179
 1755 08f0 22       		.byte	0x22
 1756 08f1 88080000 		.4byte	0x888
 1757 08f5 08       		.byte	0x8
 1758 08f6 03       		.uleb128 0x3
 1759 08f7 77030000 		.4byte	.LASF127
 1760 08fb 7F01     		.2byte	0x17f
 1761 08fd 22       		.byte	0x22
 1762 08fe 88080000 		.4byte	0x888
 1763 0902 0C       		.byte	0xc
 1764 0903 03       		.uleb128 0x3
 1765 0904 8C090000 		.4byte	.LASF128
 1766 0908 8301     		.2byte	0x183
ARM GAS  C:\Users\DEVELO~1\AppData\Local\Temp\ccB3i39m.s 			page 32


 1767 090a 22       		.byte	0x22
 1768 090b 88080000 		.4byte	0x888
 1769 090f 10       		.byte	0x10
 1770 0910 00       		.byte	0
 1771 0911 17       		.uleb128 0x17
 1772 0912 B1000000 		.4byte	.LASF129
 1773 0916 8501     		.2byte	0x185
 1774 0918 C1080000 		.4byte	0x8c1
 1775 091c 0D       		.uleb128 0xd
 1776 091d 11090000 		.4byte	0x911
 1777 0921 04       		.uleb128 0x4
 1778 0922 1C090000 		.4byte	0x91c
 1779 0926 10       		.uleb128 0x10
 1780 0927 DA060000 		.4byte	.LASF130
 1781 092b 0C       		.byte	0xc
 1782 092c 0D       		.byte	0xd
 1783 092d C901     		.2byte	0x1c9
 1784 092f 10       		.byte	0x10
 1785 0930 5D090000 		.4byte	0x95d
 1786 0934 03       		.uleb128 0x3
 1787 0935 FA010000 		.4byte	.LASF37
 1788 0939 CD01     		.2byte	0x1cd
 1789 093b 21       		.byte	0x21
 1790 093c 01070000 		.4byte	0x701
 1791 0940 00       		.byte	0
 1792 0941 03       		.uleb128 0x3
 1793 0942 87030000 		.4byte	.LASF131
 1794 0946 D101     		.2byte	0x1d1
 1795 0948 22       		.byte	0x22
 1796 0949 5D090000 		.4byte	0x95d
 1797 094d 04       		.byte	0x4
 1798 094e 05       		.uleb128 0x5
 1799 094f 746D6300 		.ascii	"tmc\000"
 1800 0953 0D       		.byte	0xd
 1801 0954 D601     		.2byte	0x1d6
 1802 0956 21       		.byte	0x21
 1803 0957 CE060000 		.4byte	0x6ce
 1804 095b 08       		.byte	0x8
 1805 095c 00       		.byte	0
 1806 095d 0E       		.uleb128 0xe
 1807 095e 83080000 		.4byte	0x883
 1808 0962 6D090000 		.4byte	0x96d
 1809 0966 0F       		.uleb128 0xf
 1810 0967 2D000000 		.4byte	0x2d
 1811 096b 00       		.byte	0
 1812 096c 00       		.byte	0
 1813 096d 17       		.uleb128 0x17
 1814 096e 83040000 		.4byte	.LASF132
 1815 0972 ED01     		.2byte	0x1ed
 1816 0974 26090000 		.4byte	0x926
 1817 0978 25       		.uleb128 0x25
 1818 0979 DA060000 		.4byte	.LASF130
 1819 097d 14       		.byte	0x14
 1820 097e 3E01     		.2byte	0x13e
 1821 0980 14       		.byte	0x14
 1822 0981 6D090000 		.4byte	0x96d
 1823 0985 02       		.uleb128 0x2
ARM GAS  C:\Users\DEVELO~1\AppData\Local\Temp\ccB3i39m.s 			page 33


 1824 0986 23000000 		.4byte	.LASF133
 1825 098a 13       		.byte	0x13
 1826 098b 34       		.byte	0x34
 1827 098c 10       		.byte	0x10
 1828 098d 91090000 		.4byte	0x991
 1829 0991 04       		.uleb128 0x4
 1830 0992 96090000 		.4byte	0x996
 1831 0996 26       		.uleb128 0x26
 1832 0997 A1090000 		.4byte	0x9a1
 1833 099b 0A       		.uleb128 0xa
 1834 099c A9040000 		.4byte	0x4a9
 1835 09a0 00       		.byte	0
 1836 09a1 09       		.uleb128 0x9
 1837 09a2 18       		.byte	0x18
 1838 09a3 13       		.byte	0x13
 1839 09a4 39       		.byte	0x39
 1840 09a5 09       		.byte	0x9
 1841 09a6 F9090000 		.4byte	0x9f9
 1842 09aa 01       		.uleb128 0x1
 1843 09ab 37040000 		.4byte	.LASF35
 1844 09af 13       		.byte	0x13
 1845 09b0 3D       		.byte	0x3d
 1846 09b1 16       		.byte	0x16
 1847 09b2 49030000 		.4byte	0x349
 1848 09b6 00       		.byte	0
 1849 09b7 01       		.uleb128 0x1
 1850 09b8 C6050000 		.4byte	.LASF134
 1851 09bc 13       		.byte	0x13
 1852 09bd 41       		.byte	0x41
 1853 09be 16       		.byte	0x16
 1854 09bf 88080000 		.4byte	0x888
 1855 09c3 04       		.byte	0x4
 1856 09c4 01       		.uleb128 0x1
 1857 09c5 40070000 		.4byte	.LASF135
 1858 09c9 13       		.byte	0x13
 1859 09ca 45       		.byte	0x45
 1860 09cb 16       		.byte	0x16
 1861 09cc 88080000 		.4byte	0x888
 1862 09d0 08       		.byte	0x8
 1863 09d1 01       		.uleb128 0x1
 1864 09d2 F2050000 		.4byte	.LASF76
 1865 09d6 13       		.byte	0x13
 1866 09d7 49       		.byte	0x49
 1867 09d8 15       		.byte	0x15
 1868 09d9 44010000 		.4byte	0x144
 1869 09dd 0C       		.byte	0xc
 1870 09de 01       		.uleb128 0x1
 1871 09df 54000000 		.4byte	.LASF136
 1872 09e3 13       		.byte	0x13
 1873 09e4 4D       		.byte	0x4d
 1874 09e5 15       		.byte	0x15
 1875 09e6 85090000 		.4byte	0x985
 1876 09ea 10       		.byte	0x10
 1877 09eb 08       		.uleb128 0x8
 1878 09ec 61726700 		.ascii	"arg\000"
 1879 09f0 13       		.byte	0x13
 1880 09f1 51       		.byte	0x51
ARM GAS  C:\Users\DEVELO~1\AppData\Local\Temp\ccB3i39m.s 			page 34


 1881 09f2 16       		.byte	0x16
 1882 09f3 A9040000 		.4byte	0x4a9
 1883 09f7 14       		.byte	0x14
 1884 09f8 00       		.byte	0
 1885 09f9 02       		.uleb128 0x2
 1886 09fa 86000000 		.4byte	.LASF137
 1887 09fe 13       		.byte	0x13
 1888 09ff 58       		.byte	0x58
 1889 0a00 03       		.byte	0x3
 1890 0a01 A1090000 		.4byte	0x9a1
 1891 0a05 0D       		.uleb128 0xd
 1892 0a06 F9090000 		.4byte	0x9f9
 1893 0a0a 09       		.uleb128 0x9
 1894 0a0b 2C       		.byte	0x2c
 1895 0a0c 06       		.byte	0x6
 1896 0a0d 34       		.byte	0x34
 1897 0a0e 09       		.byte	0x9
 1898 0a0f C10B0000 		.4byte	0xbc1
 1899 0a13 01       		.uleb128 0x1
 1900 0a14 46020000 		.4byte	.LASF138
 1901 0a18 06       		.byte	0x6
 1902 0a19 35       		.byte	0x35
 1903 0a1a 0D       		.byte	0xd
 1904 0a1b C10B0000 		.4byte	0xbc1
 1905 0a1f 00       		.byte	0
 1906 0a20 01       		.uleb128 0x1
 1907 0a21 17030000 		.4byte	.LASF139
 1908 0a25 06       		.byte	0x6
 1909 0a26 36       		.byte	0x36
 1910 0a27 0D       		.byte	0xd
 1911 0a28 AF000000 		.4byte	0xaf
 1912 0a2c 04       		.byte	0x4
 1913 0a2d 01       		.uleb128 0x1
 1914 0a2e 52040000 		.4byte	.LASF89
 1915 0a32 06       		.byte	0x6
 1916 0a33 37       		.byte	0x37
 1917 0a34 0D       		.byte	0xd
 1918 0a35 AF000000 		.4byte	0xaf
 1919 0a39 05       		.byte	0x5
 1920 0a3a 01       		.uleb128 0x1
 1921 0a3b 20050000 		.4byte	.LASF140
 1922 0a3f 06       		.byte	0x6
 1923 0a40 38       		.byte	0x38
 1924 0a41 0D       		.byte	0xd
 1925 0a42 BB000000 		.4byte	0xbb
 1926 0a46 06       		.byte	0x6
 1927 0a47 01       		.uleb128 0x1
 1928 0a48 24080000 		.4byte	.LASF141
 1929 0a4c 06       		.byte	0x6
 1930 0a4d 39       		.byte	0x39
 1931 0a4e 0D       		.byte	0xd
 1932 0a4f AF000000 		.4byte	0xaf
 1933 0a53 08       		.byte	0x8
 1934 0a54 01       		.uleb128 0x1
 1935 0a55 17070000 		.4byte	.LASF142
 1936 0a59 06       		.byte	0x6
 1937 0a5a 3A       		.byte	0x3a
ARM GAS  C:\Users\DEVELO~1\AppData\Local\Temp\ccB3i39m.s 			page 35


 1938 0a5b 0D       		.byte	0xd
 1939 0a5c AF000000 		.4byte	0xaf
 1940 0a60 09       		.byte	0x9
 1941 0a61 01       		.uleb128 0x1
 1942 0a62 18010000 		.4byte	.LASF143
 1943 0a66 06       		.byte	0x6
 1944 0a67 3B       		.byte	0x3b
 1945 0a68 0D       		.byte	0xd
 1946 0a69 AF000000 		.4byte	0xaf
 1947 0a6d 0A       		.byte	0xa
 1948 0a6e 01       		.uleb128 0x1
 1949 0a6f 7B060000 		.4byte	.LASF144
 1950 0a73 06       		.byte	0x6
 1951 0a74 3C       		.byte	0x3c
 1952 0a75 0D       		.byte	0xd
 1953 0a76 AF000000 		.4byte	0xaf
 1954 0a7a 0B       		.byte	0xb
 1955 0a7b 01       		.uleb128 0x1
 1956 0a7c 9F030000 		.4byte	.LASF145
 1957 0a80 06       		.byte	0x6
 1958 0a81 3D       		.byte	0x3d
 1959 0a82 0D       		.byte	0xd
 1960 0a83 AF000000 		.4byte	0xaf
 1961 0a87 0C       		.byte	0xc
 1962 0a88 01       		.uleb128 0x1
 1963 0a89 6B050000 		.4byte	.LASF146
 1964 0a8d 06       		.byte	0x6
 1965 0a8e 3E       		.byte	0x3e
 1966 0a8f 0D       		.byte	0xd
 1967 0a90 AF000000 		.4byte	0xaf
 1968 0a94 0D       		.byte	0xd
 1969 0a95 01       		.uleb128 0x1
 1970 0a96 3A080000 		.4byte	.LASF147
 1971 0a9a 06       		.byte	0x6
 1972 0a9b 3F       		.byte	0x3f
 1973 0a9c 0D       		.byte	0xd
 1974 0a9d AF000000 		.4byte	0xaf
 1975 0aa1 0E       		.byte	0xe
 1976 0aa2 01       		.uleb128 0x1
 1977 0aa3 D1040000 		.4byte	.LASF148
 1978 0aa7 06       		.byte	0x6
 1979 0aa8 40       		.byte	0x40
 1980 0aa9 0D       		.byte	0xd
 1981 0aaa AF000000 		.4byte	0xaf
 1982 0aae 0F       		.byte	0xf
 1983 0aaf 01       		.uleb128 0x1
 1984 0ab0 84060000 		.4byte	.LASF149
 1985 0ab4 06       		.byte	0x6
 1986 0ab5 41       		.byte	0x41
 1987 0ab6 0D       		.byte	0xd
 1988 0ab7 AF000000 		.4byte	0xaf
 1989 0abb 10       		.byte	0x10
 1990 0abc 01       		.uleb128 0x1
 1991 0abd 49090000 		.4byte	.LASF150
 1992 0ac1 06       		.byte	0x6
 1993 0ac2 42       		.byte	0x42
 1994 0ac3 0D       		.byte	0xd
ARM GAS  C:\Users\DEVELO~1\AppData\Local\Temp\ccB3i39m.s 			page 36


 1995 0ac4 AF000000 		.4byte	0xaf
 1996 0ac8 11       		.byte	0x11
 1997 0ac9 01       		.uleb128 0x1
 1998 0aca 82090000 		.4byte	.LASF151
 1999 0ace 06       		.byte	0x6
 2000 0acf 43       		.byte	0x43
 2001 0ad0 0D       		.byte	0xd
 2002 0ad1 AF000000 		.4byte	0xaf
 2003 0ad5 12       		.byte	0x12
 2004 0ad6 01       		.uleb128 0x1
 2005 0ad7 57040000 		.4byte	.LASF152
 2006 0adb 06       		.byte	0x6
 2007 0adc 44       		.byte	0x44
 2008 0add 0D       		.byte	0xd
 2009 0ade AF000000 		.4byte	0xaf
 2010 0ae2 13       		.byte	0x13
 2011 0ae3 01       		.uleb128 0x1
 2012 0ae4 82020000 		.4byte	.LASF153
 2013 0ae8 06       		.byte	0x6
 2014 0ae9 45       		.byte	0x45
 2015 0aea 0D       		.byte	0xd
 2016 0aeb AF000000 		.4byte	0xaf
 2017 0aef 14       		.byte	0x14
 2018 0af0 01       		.uleb128 0x1
 2019 0af1 0E070000 		.4byte	.LASF154
 2020 0af5 06       		.byte	0x6
 2021 0af6 46       		.byte	0x46
 2022 0af7 0D       		.byte	0xd
 2023 0af8 AF000000 		.4byte	0xaf
 2024 0afc 15       		.byte	0x15
 2025 0afd 01       		.uleb128 0x1
 2026 0afe 0A030000 		.4byte	.LASF155
 2027 0b02 06       		.byte	0x6
 2028 0b03 47       		.byte	0x47
 2029 0b04 0D       		.byte	0xd
 2030 0b05 D10B0000 		.4byte	0xbd1
 2031 0b09 16       		.byte	0x16
 2032 0b0a 01       		.uleb128 0x1
 2033 0b0b C2080000 		.4byte	.LASF156
 2034 0b0f 06       		.byte	0x6
 2035 0b10 48       		.byte	0x48
 2036 0b11 0D       		.byte	0xd
 2037 0b12 AF000000 		.4byte	0xaf
 2038 0b16 1A       		.byte	0x1a
 2039 0b17 01       		.uleb128 0x1
 2040 0b18 1A020000 		.4byte	.LASF157
 2041 0b1c 06       		.byte	0x6
 2042 0b1d 49       		.byte	0x49
 2043 0b1e 0D       		.byte	0xd
 2044 0b1f AF000000 		.4byte	0xaf
 2045 0b23 1B       		.byte	0x1b
 2046 0b24 01       		.uleb128 0x1
 2047 0b25 F6080000 		.4byte	.LASF158
 2048 0b29 06       		.byte	0x6
 2049 0b2a 4A       		.byte	0x4a
 2050 0b2b 0D       		.byte	0xd
 2051 0b2c AF000000 		.4byte	0xaf
ARM GAS  C:\Users\DEVELO~1\AppData\Local\Temp\ccB3i39m.s 			page 37


 2052 0b30 1C       		.byte	0x1c
 2053 0b31 01       		.uleb128 0x1
 2054 0b32 03090000 		.4byte	.LASF159
 2055 0b36 06       		.byte	0x6
 2056 0b37 4B       		.byte	0x4b
 2057 0b38 0D       		.byte	0xd
 2058 0b39 AF000000 		.4byte	0xaf
 2059 0b3d 1D       		.byte	0x1d
 2060 0b3e 01       		.uleb128 0x1
 2061 0b3f 75050000 		.4byte	.LASF160
 2062 0b43 06       		.byte	0x6
 2063 0b44 4C       		.byte	0x4c
 2064 0b45 0D       		.byte	0xd
 2065 0b46 AF000000 		.4byte	0xaf
 2066 0b4a 1E       		.byte	0x1e
 2067 0b4b 01       		.uleb128 0x1
 2068 0b4c FF050000 		.4byte	.LASF161
 2069 0b50 06       		.byte	0x6
 2070 0b51 4E       		.byte	0x4e
 2071 0b52 0D       		.byte	0xd
 2072 0b53 AF000000 		.4byte	0xaf
 2073 0b57 1F       		.byte	0x1f
 2074 0b58 01       		.uleb128 0x1
 2075 0b59 D0000000 		.4byte	.LASF162
 2076 0b5d 06       		.byte	0x6
 2077 0b5e 4F       		.byte	0x4f
 2078 0b5f 0D       		.byte	0xd
 2079 0b60 AF000000 		.4byte	0xaf
 2080 0b64 20       		.byte	0x20
 2081 0b65 01       		.uleb128 0x1
 2082 0b66 3E060000 		.4byte	.LASF163
 2083 0b6a 06       		.byte	0x6
 2084 0b6b 50       		.byte	0x50
 2085 0b6c 0D       		.byte	0xd
 2086 0b6d D10B0000 		.4byte	0xbd1
 2087 0b71 21       		.byte	0x21
 2088 0b72 01       		.uleb128 0x1
 2089 0b73 8B070000 		.4byte	.LASF164
 2090 0b77 06       		.byte	0x6
 2091 0b78 51       		.byte	0x51
 2092 0b79 0D       		.byte	0xd
 2093 0b7a AF000000 		.4byte	0xaf
 2094 0b7e 25       		.byte	0x25
 2095 0b7f 01       		.uleb128 0x1
 2096 0b80 3E000000 		.4byte	.LASF165
 2097 0b84 06       		.byte	0x6
 2098 0b85 53       		.byte	0x53
 2099 0b86 0D       		.byte	0xd
 2100 0b87 AF000000 		.4byte	0xaf
 2101 0b8b 26       		.byte	0x26
 2102 0b8c 01       		.uleb128 0x1
 2103 0b8d 42040000 		.4byte	.LASF166
 2104 0b91 06       		.byte	0x6
 2105 0b92 54       		.byte	0x54
 2106 0b93 0D       		.byte	0xd
 2107 0b94 AF000000 		.4byte	0xaf
 2108 0b98 27       		.byte	0x27
ARM GAS  C:\Users\DEVELO~1\AppData\Local\Temp\ccB3i39m.s 			page 38


 2109 0b99 01       		.uleb128 0x1
 2110 0b9a C2020000 		.4byte	.LASF167
 2111 0b9e 06       		.byte	0x6
 2112 0b9f 55       		.byte	0x55
 2113 0ba0 0D       		.byte	0xd
 2114 0ba1 AF000000 		.4byte	0xaf
 2115 0ba5 28       		.byte	0x28
 2116 0ba6 01       		.uleb128 0x1
 2117 0ba7 00020000 		.4byte	.LASF168
 2118 0bab 06       		.byte	0x6
 2119 0bac 56       		.byte	0x56
 2120 0bad 0D       		.byte	0xd
 2121 0bae AF000000 		.4byte	0xaf
 2122 0bb2 29       		.byte	0x29
 2123 0bb3 01       		.uleb128 0x1
 2124 0bb4 00000000 		.4byte	.LASF169
 2125 0bb8 06       		.byte	0x6
 2126 0bb9 57       		.byte	0x57
 2127 0bba 0D       		.byte	0xd
 2128 0bbb AF000000 		.4byte	0xaf
 2129 0bbf 2A       		.byte	0x2a
 2130 0bc0 00       		.byte	0
 2131 0bc1 0E       		.uleb128 0xe
 2132 0bc2 53030000 		.4byte	0x353
 2133 0bc6 D10B0000 		.4byte	0xbd1
 2134 0bca 0F       		.uleb128 0xf
 2135 0bcb 2D000000 		.4byte	0x2d
 2136 0bcf 03       		.byte	0x3
 2137 0bd0 00       		.byte	0
 2138 0bd1 0E       		.uleb128 0xe
 2139 0bd2 AF000000 		.4byte	0xaf
 2140 0bd6 E10B0000 		.4byte	0xbe1
 2141 0bda 0F       		.uleb128 0xf
 2142 0bdb 2D000000 		.4byte	0x2d
 2143 0bdf 03       		.byte	0x3
 2144 0be0 00       		.byte	0
 2145 0be1 02       		.uleb128 0x2
 2146 0be2 78020000 		.4byte	.LASF170
 2147 0be6 06       		.byte	0x6
 2148 0be7 58       		.byte	0x58
 2149 0be8 03       		.byte	0x3
 2150 0be9 0A0A0000 		.4byte	0xa0a
 2151 0bed 0D       		.uleb128 0xd
 2152 0bee E10B0000 		.4byte	0xbe1
 2153 0bf2 27       		.uleb128 0x27
 2154 0bf3 CF030000 		.4byte	.LASF171
 2155 0bf7 06       		.byte	0x6
 2156 0bf8 7F       		.byte	0x7f
 2157 0bf9 1D       		.byte	0x1d
 2158 0bfa ED0B0000 		.4byte	0xbed
 2159 0bfe 02       		.uleb128 0x2
 2160 0bff 1C030000 		.4byte	.LASF172
 2161 0c03 12       		.byte	0x12
 2162 0c04 34       		.byte	0x34
 2163 0c05 19       		.byte	0x19
 2164 0c06 49080000 		.4byte	0x849
 2165 0c0a 04       		.uleb128 0x4
ARM GAS  C:\Users\DEVELO~1\AppData\Local\Temp\ccB3i39m.s 			page 39


 2166 0c0b FE0B0000 		.4byte	0xbfe
 2167 0c0f 06       		.uleb128 0x6
 2168 0c10 01       		.byte	0x1
 2169 0c11 02       		.byte	0x2
 2170 0c12 5F060000 		.4byte	.LASF173
 2171 0c16 28       		.uleb128 0x28
 2172 0c17 E4060000 		.4byte	.LASF196
 2173 0c1b 04       		.byte	0x4
 2174 0c1c 3A       		.byte	0x3a
 2175 0c1d 0D       		.byte	0xd
 2176 0c1e 6B030000 		.4byte	0x36b
 2177 0c22 19       		.uleb128 0x19
 2178 0c23 D3020000 		.4byte	.LASF174
 2179 0c27 2A01     		.2byte	0x12a
 2180 0c29 0D       		.byte	0xd
 2181 0c2a A4040000 		.4byte	0x4a4
 2182 0c2e 380C0000 		.4byte	0xc38
 2183 0c32 0A       		.uleb128 0xa
 2184 0c33 380C0000 		.4byte	0xc38
 2185 0c37 00       		.byte	0
 2186 0c38 04       		.uleb128 0x4
 2187 0c39 050A0000 		.4byte	0xa05
 2188 0c3d 19       		.uleb128 0x19
 2189 0c3e 98060000 		.4byte	.LASF175
 2190 0c42 2101     		.2byte	0x121
 2191 0c44 0E       		.byte	0xe
 2192 0c45 A4040000 		.4byte	0x4a4
 2193 0c49 620C0000 		.4byte	0xc62
 2194 0c4d 0A       		.uleb128 0xa
 2195 0c4e 83080000 		.4byte	0x883
 2196 0c52 0A       		.uleb128 0xa
 2197 0c53 A4040000 		.4byte	0x4a4
 2198 0c57 0A       		.uleb128 0xa
 2199 0c58 49030000 		.4byte	0x349
 2200 0c5c 0A       		.uleb128 0xa
 2201 0c5d 44010000 		.4byte	0x144
 2202 0c61 00       		.byte	0
 2203 0c62 29       		.uleb128 0x29
 2204 0c63 9F020000 		.4byte	.LASF176
 2205 0c67 0F       		.byte	0xf
 2206 0c68 FB       		.byte	0xfb
 2207 0c69 08       		.byte	0x8
 2208 0c6a 740C0000 		.4byte	0xc74
 2209 0c6e 0A       		.uleb128 0xa
 2210 0c6f 740C0000 		.4byte	0xc74
 2211 0c73 00       		.byte	0
 2212 0c74 04       		.uleb128 0x4
 2213 0c75 04060000 		.4byte	0x604
 2214 0c79 2A       		.uleb128 0x2a
 2215 0c7a 60040000 		.4byte	.LASF177
 2216 0c7e 08       		.byte	0x8
 2217 0c7f F302     		.2byte	0x2f3
 2218 0c81 08       		.byte	0x8
 2219 0c82 8C0C0000 		.4byte	0xc8c
 2220 0c86 0A       		.uleb128 0xa
 2221 0c87 83080000 		.4byte	0x883
 2222 0c8b 00       		.byte	0
ARM GAS  C:\Users\DEVELO~1\AppData\Local\Temp\ccB3i39m.s 			page 40


 2223 0c8c 2B       		.uleb128 0x2b
 2224 0c8d 0E000000 		.4byte	.LASF197
 2225 0c91 07       		.byte	0x7
 2226 0c92 59       		.byte	0x59
 2227 0c93 06       		.byte	0x6
 2228 0c94 00000000 		.4byte	.LFB347
 2229 0c98 D0000000 		.4byte	.LFE347-.LFB347
 2230 0c9c 01       		.uleb128 0x1
 2231 0c9d 9C       		.byte	0x9c
 2232 0c9e F00C0000 		.4byte	0xcf0
 2233 0ca2 11       		.uleb128 0x11
 2234 0ca3 6F697000 		.ascii	"oip\000"
 2235 0ca7 07       		.byte	0x7
 2236 0ca8 59       		.byte	0x59
 2237 0ca9 2A       		.byte	0x2a
 2238 0caa 83080000 		.4byte	0x883
 2239 0cae 02       		.uleb128 0x2
 2240 0caf 91       		.byte	0x91
 2241 0cb0 54       		.sleb128 -44
 2242 0cb1 1A       		.uleb128 0x1a
 2243 0cb2 66050000 		.4byte	.LASF178
 2244 0cb6 07       		.byte	0x7
 2245 0cb7 5A       		.byte	0x5a
 2246 0cb8 37       		.byte	0x37
 2247 0cb9 21090000 		.4byte	0x921
 2248 0cbd 02       		.uleb128 0x2
 2249 0cbe 91       		.byte	0x91
 2250 0cbf 50       		.sleb128 -48
 2251 0cc0 1B       		.uleb128 0x1b
 2252 0cc1 40030000 		.4byte	.LASF52
 2253 0cc5 5B       		.byte	0x5b
 2254 0cc6 0D       		.byte	0xd
 2255 0cc7 74010000 		.4byte	0x174
 2256 0ccb 02       		.uleb128 0x2
 2257 0ccc 91       		.byte	0x91
 2258 0ccd 74       		.sleb128 -12
 2259 0cce 2C       		.uleb128 0x2c
 2260 0ccf F1060000 		.4byte	.LASF198
 2261 0cd3 000D0000 		.4byte	0xd00
 2262 0cd7 2D       		.uleb128 0x2d
 2263 0cd8 90000000 		.4byte	.LBB6
 2264 0cdc 26000000 		.4byte	.LBE6-.LBB6
 2265 0ce0 1B       		.uleb128 0x1b
 2266 0ce1 DD050000 		.4byte	.LASF179
 2267 0ce5 AC       		.byte	0xac
 2268 0ce6 19       		.byte	0x19
 2269 0ce7 F9090000 		.4byte	0x9f9
 2270 0ceb 02       		.uleb128 0x2
 2271 0cec 91       		.byte	0x91
 2272 0ced 5C       		.sleb128 -36
 2273 0cee 00       		.byte	0
 2274 0cef 00       		.byte	0
 2275 0cf0 0E       		.uleb128 0xe
 2276 0cf1 5A030000 		.4byte	0x35a
 2277 0cf5 000D0000 		.4byte	0xd00
 2278 0cf9 0F       		.uleb128 0xf
 2279 0cfa 2D000000 		.4byte	0x2d
ARM GAS  C:\Users\DEVELO~1\AppData\Local\Temp\ccB3i39m.s 			page 41


 2280 0cfe 14       		.byte	0x14
 2281 0cff 00       		.byte	0
 2282 0d00 0D       		.uleb128 0xd
 2283 0d01 F00C0000 		.4byte	0xcf0
 2284 0d05 13       		.uleb128 0x13
 2285 0d06 B0070000 		.4byte	.LASF180
 2286 0d0a 07       		.byte	0x7
 2287 0d0b 3E       		.byte	0x3e
 2288 0d0c 0D       		.byte	0xd
 2289 0d0d 00000000 		.4byte	.LFB346
 2290 0d11 0C000000 		.4byte	.LFE346-.LFB346
 2291 0d15 01       		.uleb128 0x1
 2292 0d16 9C       		.byte	0x9c
 2293 0d17 390D0000 		.4byte	0xd39
 2294 0d1b 11       		.uleb128 0x11
 2295 0d1c 7000     		.ascii	"p\000"
 2296 0d1e 07       		.byte	0x7
 2297 0d1f 3E       		.byte	0x3e
 2298 0d20 21       		.byte	0x21
 2299 0d21 A9040000 		.4byte	0x4a9
 2300 0d25 02       		.uleb128 0x2
 2301 0d26 91       		.byte	0x91
 2302 0d27 74       		.sleb128 -12
 2303 0d28 2E       		.uleb128 0x2e
 2304 0d29 BA0D0000 		.4byte	0xdba
 2305 0d2d 08000000 		.4byte	.LBB4
 2306 0d31 02000000 		.4byte	.LBE4-.LBB4
 2307 0d35 07       		.byte	0x7
 2308 0d36 45       		.byte	0x45
 2309 0d37 05       		.byte	0x5
 2310 0d38 00       		.byte	0
 2311 0d39 2F       		.uleb128 0x2f
 2312 0d3a 5D010000 		.4byte	.LASF181
 2313 0d3e 06       		.byte	0x6
 2314 0d3f 97       		.byte	0x97
 2315 0d40 14       		.byte	0x14
 2316 0d41 00000000 		.4byte	.LFB239
 2317 0d45 18000000 		.4byte	.LFE239-.LFB239
 2318 0d49 01       		.uleb128 0x1
 2319 0d4a 9C       		.byte	0x9c
 2320 0d4b 5E0D0000 		.4byte	0xd5e
 2321 0d4f 11       		.uleb128 0x11
 2322 0d50 727000   		.ascii	"rp\000"
 2323 0d53 06       		.byte	0x6
 2324 0d54 97       		.byte	0x97
 2325 0d55 32       		.byte	0x32
 2326 0d56 5E0D0000 		.4byte	0xd5e
 2327 0d5a 02       		.uleb128 0x2
 2328 0d5b 91       		.byte	0x91
 2329 0d5c 74       		.sleb128 -12
 2330 0d5d 00       		.byte	0
 2331 0d5e 04       		.uleb128 0x4
 2332 0d5f 69070000 		.4byte	0x769
 2333 0d63 30       		.uleb128 0x30
 2334 0d64 38090000 		.4byte	.LASF182
 2335 0d68 05       		.byte	0x5
 2336 0d69 FD01     		.2byte	0x1fd
ARM GAS  C:\Users\DEVELO~1\AppData\Local\Temp\ccB3i39m.s 			page 42


 2337 0d6b 14       		.byte	0x14
 2338 0d6c 00000000 		.4byte	.LFB227
 2339 0d70 30000000 		.4byte	.LFE227-.LFB227
 2340 0d74 01       		.uleb128 0x1
 2341 0d75 9C       		.byte	0x9c
 2342 0d76 8B0D0000 		.4byte	0xd8b
 2343 0d7a 1C       		.uleb128 0x1c
 2344 0d7b 9A020000 		.4byte	.LASF183
 2345 0d7f 05       		.byte	0x5
 2346 0d80 FD01     		.2byte	0x1fd
 2347 0d82 3C       		.byte	0x3c
 2348 0d83 8B0D0000 		.4byte	0xd8b
 2349 0d87 02       		.uleb128 0x2
 2350 0d88 91       		.byte	0x91
 2351 0d89 6C       		.sleb128 -20
 2352 0d8a 00       		.byte	0
 2353 0d8b 04       		.uleb128 0x4
 2354 0d8c 42070000 		.4byte	0x742
 2355 0d90 1D       		.uleb128 0x1d
 2356 0d91 9D050000 		.4byte	.LASF184
 2357 0d95 05       		.byte	0x5
 2358 0d96 7A       		.byte	0x7a
 2359 0d97 6B030000 		.4byte	0x36b
 2360 0d9b 00000000 		.4byte	.LFB209
 2361 0d9f 0E000000 		.4byte	.LFE209-.LFB209
 2362 0da3 01       		.uleb128 0x1
 2363 0da4 9C       		.byte	0x9c
 2364 0da5 1D       		.uleb128 0x1d
 2365 0da6 7F080000 		.4byte	.LASF185
 2366 0daa 04       		.byte	0x4
 2367 0dab 6F       		.byte	0x6f
 2368 0dac 6B030000 		.4byte	0x36b
 2369 0db0 00000000 		.4byte	.LFB196
 2370 0db4 0E000000 		.4byte	.LFE196-.LFB196
 2371 0db8 01       		.uleb128 0x1
 2372 0db9 9C       		.byte	0x9c
 2373 0dba 31       		.uleb128 0x31
 2374 0dbb 8F040000 		.4byte	.LASF199
 2375 0dbf 08       		.byte	0x8
 2376 0dc0 9B03     		.2byte	0x39b
 2377 0dc2 1B       		.byte	0x1b
 2378 0dc3 03       		.byte	0x3
 2379 0dc4 1E       		.uleb128 0x1e
 2380 0dc5 60090000 		.4byte	.LASF186
 2381 0dc9 AA01     		.2byte	0x1aa
 2382 0dcb 00000000 		.4byte	.LFB30
 2383 0dcf 26000000 		.4byte	.LFE30-.LFB30
 2384 0dd3 01       		.uleb128 0x1
 2385 0dd4 9C       		.byte	0x9c
 2386 0dd5 EA0D0000 		.4byte	0xdea
 2387 0dd9 1C       		.uleb128 0x1c
 2388 0dda 93080000 		.4byte	.LASF187
 2389 0dde 03       		.byte	0x3
 2390 0ddf AA01     		.2byte	0x1aa
 2391 0de1 33       		.byte	0x33
 2392 0de2 7B040000 		.4byte	0x47b
 2393 0de6 02       		.uleb128 0x2
ARM GAS  C:\Users\DEVELO~1\AppData\Local\Temp\ccB3i39m.s 			page 43


 2394 0de7 91       		.byte	0x91
 2395 0de8 74       		.sleb128 -12
 2396 0de9 00       		.byte	0
 2397 0dea 1E       		.uleb128 0x1e
 2398 0deb E7080000 		.4byte	.LASF188
 2399 0def 5001     		.2byte	0x150
 2400 0df1 00000000 		.4byte	.LFB26
 2401 0df5 24000000 		.4byte	.LFE26-.LFB26
 2402 0df9 01       		.uleb128 0x1
 2403 0dfa 9C       		.byte	0x9c
 2404 0dfb 100E0000 		.4byte	0xe10
 2405 0dff 32       		.uleb128 0x32
 2406 0e00 70717000 		.ascii	"pqp\000"
 2407 0e04 03       		.byte	0x3
 2408 0e05 5001     		.2byte	0x150
 2409 0e07 38       		.byte	0x38
 2410 0e08 35040000 		.4byte	0x435
 2411 0e0c 02       		.uleb128 0x2
 2412 0e0d 91       		.byte	0x91
 2413 0e0e 74       		.sleb128 -12
 2414 0e0f 00       		.byte	0
 2415 0e10 13       		.uleb128 0x13
 2416 0e11 4B070000 		.4byte	.LASF189
 2417 0e15 03       		.byte	0x3
 2418 0e16 DE       		.byte	0xde
 2419 0e17 14       		.byte	0x14
 2420 0e18 00000000 		.4byte	.LFB19
 2421 0e1c 1E000000 		.4byte	.LFE19-.LFB19
 2422 0e20 01       		.uleb128 0x1
 2423 0e21 9C       		.byte	0x9c
 2424 0e22 350E0000 		.4byte	0xe35
 2425 0e26 11       		.uleb128 0x11
 2426 0e27 717000   		.ascii	"qp\000"
 2427 0e2a 03       		.byte	0x3
 2428 0e2b DE       		.byte	0xde
 2429 0e2c 2E       		.byte	0x2e
 2430 0e2d EF030000 		.4byte	0x3ef
 2431 0e31 02       		.uleb128 0x2
 2432 0e32 91       		.byte	0x91
 2433 0e33 74       		.sleb128 -12
 2434 0e34 00       		.byte	0
 2435 0e35 13       		.uleb128 0x13
 2436 0e36 4B010000 		.4byte	.LASF190
 2437 0e3a 02       		.byte	0x2
 2438 0e3b C0       		.byte	0xc0
 2439 0e3c 14       		.byte	0x14
 2440 0e3d 00000000 		.4byte	.LFB1
 2441 0e41 18000000 		.4byte	.LFE1-.LFB1
 2442 0e45 01       		.uleb128 0x1
 2443 0e46 9C       		.byte	0x9c
 2444 0e47 5B0E0000 		.4byte	0xe5b
 2445 0e4b 11       		.uleb128 0x11
 2446 0e4c 73647000 		.ascii	"sdp\000"
 2447 0e50 02       		.byte	0x2
 2448 0e51 C0       		.byte	0xc0
 2449 0e52 36       		.byte	0x36
 2450 0e53 5B0E0000 		.4byte	0xe5b
ARM GAS  C:\Users\DEVELO~1\AppData\Local\Temp\ccB3i39m.s 			page 44


 2451 0e57 02       		.uleb128 0x2
 2452 0e58 91       		.byte	0x91
 2453 0e59 74       		.sleb128 -12
 2454 0e5a 00       		.byte	0
 2455 0e5b 04       		.uleb128 0x4
 2456 0e5c 5F030000 		.4byte	0x35f
 2457 0e60 13       		.uleb128 0x13
 2458 0e61 64030000 		.4byte	.LASF191
 2459 0e65 01       		.byte	0x1
 2460 0e66 68       		.byte	0x68
 2461 0e67 14       		.byte	0x14
 2462 0e68 00000000 		.4byte	.LFB0
 2463 0e6c 18000000 		.4byte	.LFE0-.LFB0
 2464 0e70 01       		.uleb128 0x1
 2465 0e71 9C       		.byte	0x9c
 2466 0e72 860E0000 		.4byte	0xe86
 2467 0e76 1A       		.uleb128 0x1a
 2468 0e77 BE070000 		.4byte	.LASF192
 2469 0e7b 01       		.byte	0x1
 2470 0e7c 68       		.byte	0x68
 2471 0e7d 2F       		.byte	0x2f
 2472 0e7e 860E0000 		.4byte	0xe86
 2473 0e82 02       		.uleb128 0x2
 2474 0e83 91       		.byte	0x91
 2475 0e84 74       		.sleb128 -12
 2476 0e85 00       		.byte	0
 2477 0e86 04       		.uleb128 0x4
 2478 0e87 22030000 		.4byte	0x322
 2479 0e8b 00       		.byte	0
 2480              		.section	.debug_abbrev,"",%progbits
 2481              	.Ldebug_abbrev0:
 2482 0000 01       		.uleb128 0x1
 2483 0001 0D       		.uleb128 0xd
 2484 0002 00       		.byte	0
 2485 0003 03       		.uleb128 0x3
 2486 0004 0E       		.uleb128 0xe
 2487 0005 3A       		.uleb128 0x3a
 2488 0006 0B       		.uleb128 0xb
 2489 0007 3B       		.uleb128 0x3b
 2490 0008 0B       		.uleb128 0xb
 2491 0009 39       		.uleb128 0x39
 2492 000a 0B       		.uleb128 0xb
 2493 000b 49       		.uleb128 0x49
 2494 000c 13       		.uleb128 0x13
 2495 000d 38       		.uleb128 0x38
 2496 000e 0B       		.uleb128 0xb
 2497 000f 00       		.byte	0
 2498 0010 00       		.byte	0
 2499 0011 02       		.uleb128 0x2
 2500 0012 16       		.uleb128 0x16
 2501 0013 00       		.byte	0
 2502 0014 03       		.uleb128 0x3
 2503 0015 0E       		.uleb128 0xe
 2504 0016 3A       		.uleb128 0x3a
 2505 0017 0B       		.uleb128 0xb
 2506 0018 3B       		.uleb128 0x3b
 2507 0019 0B       		.uleb128 0xb
ARM GAS  C:\Users\DEVELO~1\AppData\Local\Temp\ccB3i39m.s 			page 45


 2508 001a 39       		.uleb128 0x39
 2509 001b 0B       		.uleb128 0xb
 2510 001c 49       		.uleb128 0x49
 2511 001d 13       		.uleb128 0x13
 2512 001e 00       		.byte	0
 2513 001f 00       		.byte	0
 2514 0020 03       		.uleb128 0x3
 2515 0021 0D       		.uleb128 0xd
 2516 0022 00       		.byte	0
 2517 0023 03       		.uleb128 0x3
 2518 0024 0E       		.uleb128 0xe
 2519 0025 3A       		.uleb128 0x3a
 2520 0026 21       		.uleb128 0x21
 2521 0027 0D       		.sleb128 13
 2522 0028 3B       		.uleb128 0x3b
 2523 0029 05       		.uleb128 0x5
 2524 002a 39       		.uleb128 0x39
 2525 002b 0B       		.uleb128 0xb
 2526 002c 49       		.uleb128 0x49
 2527 002d 13       		.uleb128 0x13
 2528 002e 38       		.uleb128 0x38
 2529 002f 0B       		.uleb128 0xb
 2530 0030 00       		.byte	0
 2531 0031 00       		.byte	0
 2532 0032 04       		.uleb128 0x4
 2533 0033 0F       		.uleb128 0xf
 2534 0034 00       		.byte	0
 2535 0035 0B       		.uleb128 0xb
 2536 0036 21       		.uleb128 0x21
 2537 0037 04       		.sleb128 4
 2538 0038 49       		.uleb128 0x49
 2539 0039 13       		.uleb128 0x13
 2540 003a 00       		.byte	0
 2541 003b 00       		.byte	0
 2542 003c 05       		.uleb128 0x5
 2543 003d 0D       		.uleb128 0xd
 2544 003e 00       		.byte	0
 2545 003f 03       		.uleb128 0x3
 2546 0040 08       		.uleb128 0x8
 2547 0041 3A       		.uleb128 0x3a
 2548 0042 0B       		.uleb128 0xb
 2549 0043 3B       		.uleb128 0x3b
 2550 0044 05       		.uleb128 0x5
 2551 0045 39       		.uleb128 0x39
 2552 0046 0B       		.uleb128 0xb
 2553 0047 49       		.uleb128 0x49
 2554 0048 13       		.uleb128 0x13
 2555 0049 38       		.uleb128 0x38
 2556 004a 0B       		.uleb128 0xb
 2557 004b 00       		.byte	0
 2558 004c 00       		.byte	0
 2559 004d 06       		.uleb128 0x6
 2560 004e 24       		.uleb128 0x24
 2561 004f 00       		.byte	0
 2562 0050 0B       		.uleb128 0xb
 2563 0051 0B       		.uleb128 0xb
 2564 0052 3E       		.uleb128 0x3e
ARM GAS  C:\Users\DEVELO~1\AppData\Local\Temp\ccB3i39m.s 			page 46


 2565 0053 0B       		.uleb128 0xb
 2566 0054 03       		.uleb128 0x3
 2567 0055 0E       		.uleb128 0xe
 2568 0056 00       		.byte	0
 2569 0057 00       		.byte	0
 2570 0058 07       		.uleb128 0x7
 2571 0059 13       		.uleb128 0x13
 2572 005a 01       		.byte	0x1
 2573 005b 03       		.uleb128 0x3
 2574 005c 0E       		.uleb128 0xe
 2575 005d 0B       		.uleb128 0xb
 2576 005e 0B       		.uleb128 0xb
 2577 005f 3A       		.uleb128 0x3a
 2578 0060 0B       		.uleb128 0xb
 2579 0061 3B       		.uleb128 0x3b
 2580 0062 0B       		.uleb128 0xb
 2581 0063 39       		.uleb128 0x39
 2582 0064 0B       		.uleb128 0xb
 2583 0065 01       		.uleb128 0x1
 2584 0066 13       		.uleb128 0x13
 2585 0067 00       		.byte	0
 2586 0068 00       		.byte	0
 2587 0069 08       		.uleb128 0x8
 2588 006a 0D       		.uleb128 0xd
 2589 006b 00       		.byte	0
 2590 006c 03       		.uleb128 0x3
 2591 006d 08       		.uleb128 0x8
 2592 006e 3A       		.uleb128 0x3a
 2593 006f 0B       		.uleb128 0xb
 2594 0070 3B       		.uleb128 0x3b
 2595 0071 0B       		.uleb128 0xb
 2596 0072 39       		.uleb128 0x39
 2597 0073 0B       		.uleb128 0xb
 2598 0074 49       		.uleb128 0x49
 2599 0075 13       		.uleb128 0x13
 2600 0076 38       		.uleb128 0x38
 2601 0077 0B       		.uleb128 0xb
 2602 0078 00       		.byte	0
 2603 0079 00       		.byte	0
 2604 007a 09       		.uleb128 0x9
 2605 007b 13       		.uleb128 0x13
 2606 007c 01       		.byte	0x1
 2607 007d 0B       		.uleb128 0xb
 2608 007e 0B       		.uleb128 0xb
 2609 007f 3A       		.uleb128 0x3a
 2610 0080 0B       		.uleb128 0xb
 2611 0081 3B       		.uleb128 0x3b
 2612 0082 0B       		.uleb128 0xb
 2613 0083 39       		.uleb128 0x39
 2614 0084 0B       		.uleb128 0xb
 2615 0085 01       		.uleb128 0x1
 2616 0086 13       		.uleb128 0x13
 2617 0087 00       		.byte	0
 2618 0088 00       		.byte	0
 2619 0089 0A       		.uleb128 0xa
 2620 008a 05       		.uleb128 0x5
 2621 008b 00       		.byte	0
ARM GAS  C:\Users\DEVELO~1\AppData\Local\Temp\ccB3i39m.s 			page 47


 2622 008c 49       		.uleb128 0x49
 2623 008d 13       		.uleb128 0x13
 2624 008e 00       		.byte	0
 2625 008f 00       		.byte	0
 2626 0090 0B       		.uleb128 0xb
 2627 0091 0D       		.uleb128 0xd
 2628 0092 00       		.byte	0
 2629 0093 03       		.uleb128 0x3
 2630 0094 0E       		.uleb128 0xe
 2631 0095 3A       		.uleb128 0x3a
 2632 0096 0B       		.uleb128 0xb
 2633 0097 3B       		.uleb128 0x3b
 2634 0098 0B       		.uleb128 0xb
 2635 0099 39       		.uleb128 0x39
 2636 009a 0B       		.uleb128 0xb
 2637 009b 49       		.uleb128 0x49
 2638 009c 13       		.uleb128 0x13
 2639 009d 00       		.byte	0
 2640 009e 00       		.byte	0
 2641 009f 0C       		.uleb128 0xc
 2642 00a0 0D       		.uleb128 0xd
 2643 00a1 00       		.byte	0
 2644 00a2 03       		.uleb128 0x3
 2645 00a3 0E       		.uleb128 0xe
 2646 00a4 3A       		.uleb128 0x3a
 2647 00a5 21       		.uleb128 0x21
 2648 00a6 0D       		.sleb128 13
 2649 00a7 3B       		.uleb128 0x3b
 2650 00a8 05       		.uleb128 0x5
 2651 00a9 39       		.uleb128 0x39
 2652 00aa 0B       		.uleb128 0xb
 2653 00ab 49       		.uleb128 0x49
 2654 00ac 13       		.uleb128 0x13
 2655 00ad 00       		.byte	0
 2656 00ae 00       		.byte	0
 2657 00af 0D       		.uleb128 0xd
 2658 00b0 26       		.uleb128 0x26
 2659 00b1 00       		.byte	0
 2660 00b2 49       		.uleb128 0x49
 2661 00b3 13       		.uleb128 0x13
 2662 00b4 00       		.byte	0
 2663 00b5 00       		.byte	0
 2664 00b6 0E       		.uleb128 0xe
 2665 00b7 01       		.uleb128 0x1
 2666 00b8 01       		.byte	0x1
 2667 00b9 49       		.uleb128 0x49
 2668 00ba 13       		.uleb128 0x13
 2669 00bb 01       		.uleb128 0x1
 2670 00bc 13       		.uleb128 0x13
 2671 00bd 00       		.byte	0
 2672 00be 00       		.byte	0
 2673 00bf 0F       		.uleb128 0xf
 2674 00c0 21       		.uleb128 0x21
 2675 00c1 00       		.byte	0
 2676 00c2 49       		.uleb128 0x49
 2677 00c3 13       		.uleb128 0x13
 2678 00c4 2F       		.uleb128 0x2f
ARM GAS  C:\Users\DEVELO~1\AppData\Local\Temp\ccB3i39m.s 			page 48


 2679 00c5 0B       		.uleb128 0xb
 2680 00c6 00       		.byte	0
 2681 00c7 00       		.byte	0
 2682 00c8 10       		.uleb128 0x10
 2683 00c9 13       		.uleb128 0x13
 2684 00ca 01       		.byte	0x1
 2685 00cb 03       		.uleb128 0x3
 2686 00cc 0E       		.uleb128 0xe
 2687 00cd 0B       		.uleb128 0xb
 2688 00ce 0B       		.uleb128 0xb
 2689 00cf 3A       		.uleb128 0x3a
 2690 00d0 0B       		.uleb128 0xb
 2691 00d1 3B       		.uleb128 0x3b
 2692 00d2 05       		.uleb128 0x5
 2693 00d3 39       		.uleb128 0x39
 2694 00d4 0B       		.uleb128 0xb
 2695 00d5 01       		.uleb128 0x1
 2696 00d6 13       		.uleb128 0x13
 2697 00d7 00       		.byte	0
 2698 00d8 00       		.byte	0
 2699 00d9 11       		.uleb128 0x11
 2700 00da 05       		.uleb128 0x5
 2701 00db 00       		.byte	0
 2702 00dc 03       		.uleb128 0x3
 2703 00dd 08       		.uleb128 0x8
 2704 00de 3A       		.uleb128 0x3a
 2705 00df 0B       		.uleb128 0xb
 2706 00e0 3B       		.uleb128 0x3b
 2707 00e1 0B       		.uleb128 0xb
 2708 00e2 39       		.uleb128 0x39
 2709 00e3 0B       		.uleb128 0xb
 2710 00e4 49       		.uleb128 0x49
 2711 00e5 13       		.uleb128 0x13
 2712 00e6 02       		.uleb128 0x2
 2713 00e7 18       		.uleb128 0x18
 2714 00e8 00       		.byte	0
 2715 00e9 00       		.byte	0
 2716 00ea 12       		.uleb128 0x12
 2717 00eb 28       		.uleb128 0x28
 2718 00ec 00       		.byte	0
 2719 00ed 03       		.uleb128 0x3
 2720 00ee 0E       		.uleb128 0xe
 2721 00ef 1C       		.uleb128 0x1c
 2722 00f0 0B       		.uleb128 0xb
 2723 00f1 00       		.byte	0
 2724 00f2 00       		.byte	0
 2725 00f3 13       		.uleb128 0x13
 2726 00f4 2E       		.uleb128 0x2e
 2727 00f5 01       		.byte	0x1
 2728 00f6 03       		.uleb128 0x3
 2729 00f7 0E       		.uleb128 0xe
 2730 00f8 3A       		.uleb128 0x3a
 2731 00f9 0B       		.uleb128 0xb
 2732 00fa 3B       		.uleb128 0x3b
 2733 00fb 0B       		.uleb128 0xb
 2734 00fc 39       		.uleb128 0x39
 2735 00fd 0B       		.uleb128 0xb
ARM GAS  C:\Users\DEVELO~1\AppData\Local\Temp\ccB3i39m.s 			page 49


 2736 00fe 27       		.uleb128 0x27
 2737 00ff 19       		.uleb128 0x19
 2738 0100 11       		.uleb128 0x11
 2739 0101 01       		.uleb128 0x1
 2740 0102 12       		.uleb128 0x12
 2741 0103 06       		.uleb128 0x6
 2742 0104 40       		.uleb128 0x40
 2743 0105 18       		.uleb128 0x18
 2744 0106 7A       		.uleb128 0x7a
 2745 0107 19       		.uleb128 0x19
 2746 0108 01       		.uleb128 0x1
 2747 0109 13       		.uleb128 0x13
 2748 010a 00       		.byte	0
 2749 010b 00       		.byte	0
 2750 010c 14       		.uleb128 0x14
 2751 010d 17       		.uleb128 0x17
 2752 010e 01       		.byte	0x1
 2753 010f 0B       		.uleb128 0xb
 2754 0110 0B       		.uleb128 0xb
 2755 0111 3A       		.uleb128 0x3a
 2756 0112 0B       		.uleb128 0xb
 2757 0113 3B       		.uleb128 0x3b
 2758 0114 0B       		.uleb128 0xb
 2759 0115 39       		.uleb128 0x39
 2760 0116 21       		.uleb128 0x21
 2761 0117 03       		.sleb128 3
 2762 0118 01       		.uleb128 0x1
 2763 0119 13       		.uleb128 0x13
 2764 011a 00       		.byte	0
 2765 011b 00       		.byte	0
 2766 011c 15       		.uleb128 0x15
 2767 011d 0D       		.uleb128 0xd
 2768 011e 00       		.byte	0
 2769 011f 03       		.uleb128 0x3
 2770 0120 08       		.uleb128 0x8
 2771 0121 3A       		.uleb128 0x3a
 2772 0122 21       		.uleb128 0x21
 2773 0123 0F       		.sleb128 15
 2774 0124 3B       		.uleb128 0x3b
 2775 0125 0B       		.uleb128 0xb
 2776 0126 39       		.uleb128 0x39
 2777 0127 21       		.uleb128 0x21
 2778 0128 07       		.sleb128 7
 2779 0129 49       		.uleb128 0x49
 2780 012a 13       		.uleb128 0x13
 2781 012b 00       		.byte	0
 2782 012c 00       		.byte	0
 2783 012d 16       		.uleb128 0x16
 2784 012e 0D       		.uleb128 0xd
 2785 012f 00       		.byte	0
 2786 0130 03       		.uleb128 0x3
 2787 0131 0E       		.uleb128 0xe
 2788 0132 3A       		.uleb128 0x3a
 2789 0133 21       		.uleb128 0x21
 2790 0134 0F       		.sleb128 15
 2791 0135 3B       		.uleb128 0x3b
 2792 0136 0B       		.uleb128 0xb
ARM GAS  C:\Users\DEVELO~1\AppData\Local\Temp\ccB3i39m.s 			page 50


 2793 0137 39       		.uleb128 0x39
 2794 0138 21       		.uleb128 0x21
 2795 0139 19       		.sleb128 25
 2796 013a 49       		.uleb128 0x49
 2797 013b 13       		.uleb128 0x13
 2798 013c 0D       		.uleb128 0xd
 2799 013d 0B       		.uleb128 0xb
 2800 013e 6B       		.uleb128 0x6b
 2801 013f 0B       		.uleb128 0xb
 2802 0140 00       		.byte	0
 2803 0141 00       		.byte	0
 2804 0142 17       		.uleb128 0x17
 2805 0143 16       		.uleb128 0x16
 2806 0144 00       		.byte	0
 2807 0145 03       		.uleb128 0x3
 2808 0146 0E       		.uleb128 0xe
 2809 0147 3A       		.uleb128 0x3a
 2810 0148 21       		.uleb128 0x21
 2811 0149 0D       		.sleb128 13
 2812 014a 3B       		.uleb128 0x3b
 2813 014b 05       		.uleb128 0x5
 2814 014c 39       		.uleb128 0x39
 2815 014d 21       		.uleb128 0x21
 2816 014e 03       		.sleb128 3
 2817 014f 49       		.uleb128 0x49
 2818 0150 13       		.uleb128 0x13
 2819 0151 00       		.byte	0
 2820 0152 00       		.byte	0
 2821 0153 18       		.uleb128 0x18
 2822 0154 35       		.uleb128 0x35
 2823 0155 00       		.byte	0
 2824 0156 49       		.uleb128 0x49
 2825 0157 13       		.uleb128 0x13
 2826 0158 00       		.byte	0
 2827 0159 00       		.byte	0
 2828 015a 19       		.uleb128 0x19
 2829 015b 2E       		.uleb128 0x2e
 2830 015c 01       		.byte	0x1
 2831 015d 3F       		.uleb128 0x3f
 2832 015e 19       		.uleb128 0x19
 2833 015f 03       		.uleb128 0x3
 2834 0160 0E       		.uleb128 0xe
 2835 0161 3A       		.uleb128 0x3a
 2836 0162 21       		.uleb128 0x21
 2837 0163 13       		.sleb128 19
 2838 0164 3B       		.uleb128 0x3b
 2839 0165 05       		.uleb128 0x5
 2840 0166 39       		.uleb128 0x39
 2841 0167 0B       		.uleb128 0xb
 2842 0168 27       		.uleb128 0x27
 2843 0169 19       		.uleb128 0x19
 2844 016a 49       		.uleb128 0x49
 2845 016b 13       		.uleb128 0x13
 2846 016c 3C       		.uleb128 0x3c
 2847 016d 19       		.uleb128 0x19
 2848 016e 01       		.uleb128 0x1
 2849 016f 13       		.uleb128 0x13
ARM GAS  C:\Users\DEVELO~1\AppData\Local\Temp\ccB3i39m.s 			page 51


 2850 0170 00       		.byte	0
 2851 0171 00       		.byte	0
 2852 0172 1A       		.uleb128 0x1a
 2853 0173 05       		.uleb128 0x5
 2854 0174 00       		.byte	0
 2855 0175 03       		.uleb128 0x3
 2856 0176 0E       		.uleb128 0xe
 2857 0177 3A       		.uleb128 0x3a
 2858 0178 0B       		.uleb128 0xb
 2859 0179 3B       		.uleb128 0x3b
 2860 017a 0B       		.uleb128 0xb
 2861 017b 39       		.uleb128 0x39
 2862 017c 0B       		.uleb128 0xb
 2863 017d 49       		.uleb128 0x49
 2864 017e 13       		.uleb128 0x13
 2865 017f 02       		.uleb128 0x2
 2866 0180 18       		.uleb128 0x18
 2867 0181 00       		.byte	0
 2868 0182 00       		.byte	0
 2869 0183 1B       		.uleb128 0x1b
 2870 0184 34       		.uleb128 0x34
 2871 0185 00       		.byte	0
 2872 0186 03       		.uleb128 0x3
 2873 0187 0E       		.uleb128 0xe
 2874 0188 3A       		.uleb128 0x3a
 2875 0189 21       		.uleb128 0x21
 2876 018a 07       		.sleb128 7
 2877 018b 3B       		.uleb128 0x3b
 2878 018c 0B       		.uleb128 0xb
 2879 018d 39       		.uleb128 0x39
 2880 018e 0B       		.uleb128 0xb
 2881 018f 49       		.uleb128 0x49
 2882 0190 13       		.uleb128 0x13
 2883 0191 02       		.uleb128 0x2
 2884 0192 18       		.uleb128 0x18
 2885 0193 00       		.byte	0
 2886 0194 00       		.byte	0
 2887 0195 1C       		.uleb128 0x1c
 2888 0196 05       		.uleb128 0x5
 2889 0197 00       		.byte	0
 2890 0198 03       		.uleb128 0x3
 2891 0199 0E       		.uleb128 0xe
 2892 019a 3A       		.uleb128 0x3a
 2893 019b 0B       		.uleb128 0xb
 2894 019c 3B       		.uleb128 0x3b
 2895 019d 05       		.uleb128 0x5
 2896 019e 39       		.uleb128 0x39
 2897 019f 0B       		.uleb128 0xb
 2898 01a0 49       		.uleb128 0x49
 2899 01a1 13       		.uleb128 0x13
 2900 01a2 02       		.uleb128 0x2
 2901 01a3 18       		.uleb128 0x18
 2902 01a4 00       		.byte	0
 2903 01a5 00       		.byte	0
 2904 01a6 1D       		.uleb128 0x1d
 2905 01a7 2E       		.uleb128 0x2e
 2906 01a8 00       		.byte	0
ARM GAS  C:\Users\DEVELO~1\AppData\Local\Temp\ccB3i39m.s 			page 52


 2907 01a9 03       		.uleb128 0x3
 2908 01aa 0E       		.uleb128 0xe
 2909 01ab 3A       		.uleb128 0x3a
 2910 01ac 0B       		.uleb128 0xb
 2911 01ad 3B       		.uleb128 0x3b
 2912 01ae 0B       		.uleb128 0xb
 2913 01af 39       		.uleb128 0x39
 2914 01b0 21       		.uleb128 0x21
 2915 01b1 19       		.sleb128 25
 2916 01b2 27       		.uleb128 0x27
 2917 01b3 19       		.uleb128 0x19
 2918 01b4 49       		.uleb128 0x49
 2919 01b5 13       		.uleb128 0x13
 2920 01b6 11       		.uleb128 0x11
 2921 01b7 01       		.uleb128 0x1
 2922 01b8 12       		.uleb128 0x12
 2923 01b9 06       		.uleb128 0x6
 2924 01ba 40       		.uleb128 0x40
 2925 01bb 18       		.uleb128 0x18
 2926 01bc 7C       		.uleb128 0x7c
 2927 01bd 19       		.uleb128 0x19
 2928 01be 00       		.byte	0
 2929 01bf 00       		.byte	0
 2930 01c0 1E       		.uleb128 0x1e
 2931 01c1 2E       		.uleb128 0x2e
 2932 01c2 01       		.byte	0x1
 2933 01c3 03       		.uleb128 0x3
 2934 01c4 0E       		.uleb128 0xe
 2935 01c5 3A       		.uleb128 0x3a
 2936 01c6 21       		.uleb128 0x21
 2937 01c7 03       		.sleb128 3
 2938 01c8 3B       		.uleb128 0x3b
 2939 01c9 05       		.uleb128 0x5
 2940 01ca 39       		.uleb128 0x39
 2941 01cb 21       		.uleb128 0x21
 2942 01cc 14       		.sleb128 20
 2943 01cd 27       		.uleb128 0x27
 2944 01ce 19       		.uleb128 0x19
 2945 01cf 11       		.uleb128 0x11
 2946 01d0 01       		.uleb128 0x1
 2947 01d1 12       		.uleb128 0x12
 2948 01d2 06       		.uleb128 0x6
 2949 01d3 40       		.uleb128 0x40
 2950 01d4 18       		.uleb128 0x18
 2951 01d5 7A       		.uleb128 0x7a
 2952 01d6 19       		.uleb128 0x19
 2953 01d7 01       		.uleb128 0x1
 2954 01d8 13       		.uleb128 0x13
 2955 01d9 00       		.byte	0
 2956 01da 00       		.byte	0
 2957 01db 1F       		.uleb128 0x1f
 2958 01dc 11       		.uleb128 0x11
 2959 01dd 01       		.byte	0x1
 2960 01de 25       		.uleb128 0x25
 2961 01df 0E       		.uleb128 0xe
 2962 01e0 13       		.uleb128 0x13
 2963 01e1 0B       		.uleb128 0xb
ARM GAS  C:\Users\DEVELO~1\AppData\Local\Temp\ccB3i39m.s 			page 53


 2964 01e2 03       		.uleb128 0x3
 2965 01e3 0E       		.uleb128 0xe
 2966 01e4 1B       		.uleb128 0x1b
 2967 01e5 0E       		.uleb128 0xe
 2968 01e6 55       		.uleb128 0x55
 2969 01e7 17       		.uleb128 0x17
 2970 01e8 11       		.uleb128 0x11
 2971 01e9 01       		.uleb128 0x1
 2972 01ea 10       		.uleb128 0x10
 2973 01eb 17       		.uleb128 0x17
 2974 01ec 00       		.byte	0
 2975 01ed 00       		.byte	0
 2976 01ee 20       		.uleb128 0x20
 2977 01ef 24       		.uleb128 0x24
 2978 01f0 00       		.byte	0
 2979 01f1 0B       		.uleb128 0xb
 2980 01f2 0B       		.uleb128 0xb
 2981 01f3 3E       		.uleb128 0x3e
 2982 01f4 0B       		.uleb128 0xb
 2983 01f5 03       		.uleb128 0x3
 2984 01f6 08       		.uleb128 0x8
 2985 01f7 00       		.byte	0
 2986 01f8 00       		.byte	0
 2987 01f9 21       		.uleb128 0x21
 2988 01fa 13       		.uleb128 0x13
 2989 01fb 01       		.byte	0x1
 2990 01fc 03       		.uleb128 0x3
 2991 01fd 0E       		.uleb128 0xe
 2992 01fe 0B       		.uleb128 0xb
 2993 01ff 05       		.uleb128 0x5
 2994 0200 3A       		.uleb128 0x3a
 2995 0201 0B       		.uleb128 0xb
 2996 0202 3B       		.uleb128 0x3b
 2997 0203 05       		.uleb128 0x5
 2998 0204 39       		.uleb128 0x39
 2999 0205 0B       		.uleb128 0xb
 3000 0206 01       		.uleb128 0x1
 3001 0207 13       		.uleb128 0x13
 3002 0208 00       		.byte	0
 3003 0209 00       		.byte	0
 3004 020a 22       		.uleb128 0x22
 3005 020b 0F       		.uleb128 0xf
 3006 020c 00       		.byte	0
 3007 020d 0B       		.uleb128 0xb
 3008 020e 0B       		.uleb128 0xb
 3009 020f 00       		.byte	0
 3010 0210 00       		.byte	0
 3011 0211 23       		.uleb128 0x23
 3012 0212 13       		.uleb128 0x13
 3013 0213 01       		.byte	0x1
 3014 0214 0B       		.uleb128 0xb
 3015 0215 05       		.uleb128 0x5
 3016 0216 3A       		.uleb128 0x3a
 3017 0217 0B       		.uleb128 0xb
 3018 0218 3B       		.uleb128 0x3b
 3019 0219 0B       		.uleb128 0xb
 3020 021a 39       		.uleb128 0x39
ARM GAS  C:\Users\DEVELO~1\AppData\Local\Temp\ccB3i39m.s 			page 54


 3021 021b 0B       		.uleb128 0xb
 3022 021c 01       		.uleb128 0x1
 3023 021d 13       		.uleb128 0x13
 3024 021e 00       		.byte	0
 3025 021f 00       		.byte	0
 3026 0220 24       		.uleb128 0x24
 3027 0221 04       		.uleb128 0x4
 3028 0222 01       		.byte	0x1
 3029 0223 3E       		.uleb128 0x3e
 3030 0224 0B       		.uleb128 0xb
 3031 0225 0B       		.uleb128 0xb
 3032 0226 0B       		.uleb128 0xb
 3033 0227 49       		.uleb128 0x49
 3034 0228 13       		.uleb128 0x13
 3035 0229 3A       		.uleb128 0x3a
 3036 022a 0B       		.uleb128 0xb
 3037 022b 3B       		.uleb128 0x3b
 3038 022c 0B       		.uleb128 0xb
 3039 022d 39       		.uleb128 0x39
 3040 022e 0B       		.uleb128 0xb
 3041 022f 01       		.uleb128 0x1
 3042 0230 13       		.uleb128 0x13
 3043 0231 00       		.byte	0
 3044 0232 00       		.byte	0
 3045 0233 25       		.uleb128 0x25
 3046 0234 34       		.uleb128 0x34
 3047 0235 00       		.byte	0
 3048 0236 03       		.uleb128 0x3
 3049 0237 0E       		.uleb128 0xe
 3050 0238 3A       		.uleb128 0x3a
 3051 0239 0B       		.uleb128 0xb
 3052 023a 3B       		.uleb128 0x3b
 3053 023b 05       		.uleb128 0x5
 3054 023c 39       		.uleb128 0x39
 3055 023d 0B       		.uleb128 0xb
 3056 023e 49       		.uleb128 0x49
 3057 023f 13       		.uleb128 0x13
 3058 0240 3F       		.uleb128 0x3f
 3059 0241 19       		.uleb128 0x19
 3060 0242 3C       		.uleb128 0x3c
 3061 0243 19       		.uleb128 0x19
 3062 0244 00       		.byte	0
 3063 0245 00       		.byte	0
 3064 0246 26       		.uleb128 0x26
 3065 0247 15       		.uleb128 0x15
 3066 0248 01       		.byte	0x1
 3067 0249 27       		.uleb128 0x27
 3068 024a 19       		.uleb128 0x19
 3069 024b 01       		.uleb128 0x1
 3070 024c 13       		.uleb128 0x13
 3071 024d 00       		.byte	0
 3072 024e 00       		.byte	0
 3073 024f 27       		.uleb128 0x27
 3074 0250 34       		.uleb128 0x34
 3075 0251 00       		.byte	0
 3076 0252 03       		.uleb128 0x3
 3077 0253 0E       		.uleb128 0xe
ARM GAS  C:\Users\DEVELO~1\AppData\Local\Temp\ccB3i39m.s 			page 55


 3078 0254 3A       		.uleb128 0x3a
 3079 0255 0B       		.uleb128 0xb
 3080 0256 3B       		.uleb128 0x3b
 3081 0257 0B       		.uleb128 0xb
 3082 0258 39       		.uleb128 0x39
 3083 0259 0B       		.uleb128 0xb
 3084 025a 49       		.uleb128 0x49
 3085 025b 13       		.uleb128 0x13
 3086 025c 3F       		.uleb128 0x3f
 3087 025d 19       		.uleb128 0x19
 3088 025e 3C       		.uleb128 0x3c
 3089 025f 19       		.uleb128 0x19
 3090 0260 00       		.byte	0
 3091 0261 00       		.byte	0
 3092 0262 28       		.uleb128 0x28
 3093 0263 2E       		.uleb128 0x2e
 3094 0264 00       		.byte	0
 3095 0265 3F       		.uleb128 0x3f
 3096 0266 19       		.uleb128 0x19
 3097 0267 03       		.uleb128 0x3
 3098 0268 0E       		.uleb128 0xe
 3099 0269 3A       		.uleb128 0x3a
 3100 026a 0B       		.uleb128 0xb
 3101 026b 3B       		.uleb128 0x3b
 3102 026c 0B       		.uleb128 0xb
 3103 026d 39       		.uleb128 0x39
 3104 026e 0B       		.uleb128 0xb
 3105 026f 27       		.uleb128 0x27
 3106 0270 19       		.uleb128 0x19
 3107 0271 49       		.uleb128 0x49
 3108 0272 13       		.uleb128 0x13
 3109 0273 3C       		.uleb128 0x3c
 3110 0274 19       		.uleb128 0x19
 3111 0275 00       		.byte	0
 3112 0276 00       		.byte	0
 3113 0277 29       		.uleb128 0x29
 3114 0278 2E       		.uleb128 0x2e
 3115 0279 01       		.byte	0x1
 3116 027a 3F       		.uleb128 0x3f
 3117 027b 19       		.uleb128 0x19
 3118 027c 03       		.uleb128 0x3
 3119 027d 0E       		.uleb128 0xe
 3120 027e 3A       		.uleb128 0x3a
 3121 027f 0B       		.uleb128 0xb
 3122 0280 3B       		.uleb128 0x3b
 3123 0281 0B       		.uleb128 0xb
 3124 0282 39       		.uleb128 0x39
 3125 0283 0B       		.uleb128 0xb
 3126 0284 27       		.uleb128 0x27
 3127 0285 19       		.uleb128 0x19
 3128 0286 3C       		.uleb128 0x3c
 3129 0287 19       		.uleb128 0x19
 3130 0288 01       		.uleb128 0x1
 3131 0289 13       		.uleb128 0x13
 3132 028a 00       		.byte	0
 3133 028b 00       		.byte	0
 3134 028c 2A       		.uleb128 0x2a
ARM GAS  C:\Users\DEVELO~1\AppData\Local\Temp\ccB3i39m.s 			page 56


 3135 028d 2E       		.uleb128 0x2e
 3136 028e 01       		.byte	0x1
 3137 028f 3F       		.uleb128 0x3f
 3138 0290 19       		.uleb128 0x19
 3139 0291 03       		.uleb128 0x3
 3140 0292 0E       		.uleb128 0xe
 3141 0293 3A       		.uleb128 0x3a
 3142 0294 0B       		.uleb128 0xb
 3143 0295 3B       		.uleb128 0x3b
 3144 0296 05       		.uleb128 0x5
 3145 0297 39       		.uleb128 0x39
 3146 0298 0B       		.uleb128 0xb
 3147 0299 27       		.uleb128 0x27
 3148 029a 19       		.uleb128 0x19
 3149 029b 3C       		.uleb128 0x3c
 3150 029c 19       		.uleb128 0x19
 3151 029d 01       		.uleb128 0x1
 3152 029e 13       		.uleb128 0x13
 3153 029f 00       		.byte	0
 3154 02a0 00       		.byte	0
 3155 02a1 2B       		.uleb128 0x2b
 3156 02a2 2E       		.uleb128 0x2e
 3157 02a3 01       		.byte	0x1
 3158 02a4 3F       		.uleb128 0x3f
 3159 02a5 19       		.uleb128 0x19
 3160 02a6 03       		.uleb128 0x3
 3161 02a7 0E       		.uleb128 0xe
 3162 02a8 3A       		.uleb128 0x3a
 3163 02a9 0B       		.uleb128 0xb
 3164 02aa 3B       		.uleb128 0x3b
 3165 02ab 0B       		.uleb128 0xb
 3166 02ac 39       		.uleb128 0x39
 3167 02ad 0B       		.uleb128 0xb
 3168 02ae 27       		.uleb128 0x27
 3169 02af 19       		.uleb128 0x19
 3170 02b0 11       		.uleb128 0x11
 3171 02b1 01       		.uleb128 0x1
 3172 02b2 12       		.uleb128 0x12
 3173 02b3 06       		.uleb128 0x6
 3174 02b4 40       		.uleb128 0x40
 3175 02b5 18       		.uleb128 0x18
 3176 02b6 7C       		.uleb128 0x7c
 3177 02b7 19       		.uleb128 0x19
 3178 02b8 01       		.uleb128 0x1
 3179 02b9 13       		.uleb128 0x13
 3180 02ba 00       		.byte	0
 3181 02bb 00       		.byte	0
 3182 02bc 2C       		.uleb128 0x2c
 3183 02bd 34       		.uleb128 0x34
 3184 02be 00       		.byte	0
 3185 02bf 03       		.uleb128 0x3
 3186 02c0 0E       		.uleb128 0xe
 3187 02c1 49       		.uleb128 0x49
 3188 02c2 13       		.uleb128 0x13
 3189 02c3 34       		.uleb128 0x34
 3190 02c4 19       		.uleb128 0x19
 3191 02c5 00       		.byte	0
ARM GAS  C:\Users\DEVELO~1\AppData\Local\Temp\ccB3i39m.s 			page 57


 3192 02c6 00       		.byte	0
 3193 02c7 2D       		.uleb128 0x2d
 3194 02c8 0B       		.uleb128 0xb
 3195 02c9 01       		.byte	0x1
 3196 02ca 11       		.uleb128 0x11
 3197 02cb 01       		.uleb128 0x1
 3198 02cc 12       		.uleb128 0x12
 3199 02cd 06       		.uleb128 0x6
 3200 02ce 00       		.byte	0
 3201 02cf 00       		.byte	0
 3202 02d0 2E       		.uleb128 0x2e
 3203 02d1 1D       		.uleb128 0x1d
 3204 02d2 00       		.byte	0
 3205 02d3 31       		.uleb128 0x31
 3206 02d4 13       		.uleb128 0x13
 3207 02d5 11       		.uleb128 0x11
 3208 02d6 01       		.uleb128 0x1
 3209 02d7 12       		.uleb128 0x12
 3210 02d8 06       		.uleb128 0x6
 3211 02d9 58       		.uleb128 0x58
 3212 02da 0B       		.uleb128 0xb
 3213 02db 59       		.uleb128 0x59
 3214 02dc 0B       		.uleb128 0xb
 3215 02dd 57       		.uleb128 0x57
 3216 02de 0B       		.uleb128 0xb
 3217 02df 00       		.byte	0
 3218 02e0 00       		.byte	0
 3219 02e1 2F       		.uleb128 0x2f
 3220 02e2 2E       		.uleb128 0x2e
 3221 02e3 01       		.byte	0x1
 3222 02e4 03       		.uleb128 0x3
 3223 02e5 0E       		.uleb128 0xe
 3224 02e6 3A       		.uleb128 0x3a
 3225 02e7 0B       		.uleb128 0xb
 3226 02e8 3B       		.uleb128 0x3b
 3227 02e9 0B       		.uleb128 0xb
 3228 02ea 39       		.uleb128 0x39
 3229 02eb 0B       		.uleb128 0xb
 3230 02ec 27       		.uleb128 0x27
 3231 02ed 19       		.uleb128 0x19
 3232 02ee 11       		.uleb128 0x11
 3233 02ef 01       		.uleb128 0x1
 3234 02f0 12       		.uleb128 0x12
 3235 02f1 06       		.uleb128 0x6
 3236 02f2 40       		.uleb128 0x40
 3237 02f3 18       		.uleb128 0x18
 3238 02f4 7C       		.uleb128 0x7c
 3239 02f5 19       		.uleb128 0x19
 3240 02f6 01       		.uleb128 0x1
 3241 02f7 13       		.uleb128 0x13
 3242 02f8 00       		.byte	0
 3243 02f9 00       		.byte	0
 3244 02fa 30       		.uleb128 0x30
 3245 02fb 2E       		.uleb128 0x2e
 3246 02fc 01       		.byte	0x1
 3247 02fd 03       		.uleb128 0x3
 3248 02fe 0E       		.uleb128 0xe
ARM GAS  C:\Users\DEVELO~1\AppData\Local\Temp\ccB3i39m.s 			page 58


 3249 02ff 3A       		.uleb128 0x3a
 3250 0300 0B       		.uleb128 0xb
 3251 0301 3B       		.uleb128 0x3b
 3252 0302 05       		.uleb128 0x5
 3253 0303 39       		.uleb128 0x39
 3254 0304 0B       		.uleb128 0xb
 3255 0305 27       		.uleb128 0x27
 3256 0306 19       		.uleb128 0x19
 3257 0307 11       		.uleb128 0x11
 3258 0308 01       		.uleb128 0x1
 3259 0309 12       		.uleb128 0x12
 3260 030a 06       		.uleb128 0x6
 3261 030b 40       		.uleb128 0x40
 3262 030c 18       		.uleb128 0x18
 3263 030d 7C       		.uleb128 0x7c
 3264 030e 19       		.uleb128 0x19
 3265 030f 01       		.uleb128 0x1
 3266 0310 13       		.uleb128 0x13
 3267 0311 00       		.byte	0
 3268 0312 00       		.byte	0
 3269 0313 31       		.uleb128 0x31
 3270 0314 2E       		.uleb128 0x2e
 3271 0315 00       		.byte	0
 3272 0316 03       		.uleb128 0x3
 3273 0317 0E       		.uleb128 0xe
 3274 0318 3A       		.uleb128 0x3a
 3275 0319 0B       		.uleb128 0xb
 3276 031a 3B       		.uleb128 0x3b
 3277 031b 05       		.uleb128 0x5
 3278 031c 39       		.uleb128 0x39
 3279 031d 0B       		.uleb128 0xb
 3280 031e 27       		.uleb128 0x27
 3281 031f 19       		.uleb128 0x19
 3282 0320 20       		.uleb128 0x20
 3283 0321 0B       		.uleb128 0xb
 3284 0322 00       		.byte	0
 3285 0323 00       		.byte	0
 3286 0324 32       		.uleb128 0x32
 3287 0325 05       		.uleb128 0x5
 3288 0326 00       		.byte	0
 3289 0327 03       		.uleb128 0x3
 3290 0328 08       		.uleb128 0x8
 3291 0329 3A       		.uleb128 0x3a
 3292 032a 0B       		.uleb128 0xb
 3293 032b 3B       		.uleb128 0x3b
 3294 032c 05       		.uleb128 0x5
 3295 032d 39       		.uleb128 0x39
 3296 032e 0B       		.uleb128 0xb
 3297 032f 49       		.uleb128 0x49
 3298 0330 13       		.uleb128 0x13
 3299 0331 02       		.uleb128 0x2
 3300 0332 18       		.uleb128 0x18
 3301 0333 00       		.byte	0
 3302 0334 00       		.byte	0
 3303 0335 00       		.byte	0
 3304              		.section	.debug_aranges,"",%progbits
 3305 0000 6C000000 		.4byte	0x6c
ARM GAS  C:\Users\DEVELO~1\AppData\Local\Temp\ccB3i39m.s 			page 59


 3306 0004 0200     		.2byte	0x2
 3307 0006 00000000 		.4byte	.Ldebug_info0
 3308 000a 04       		.byte	0x4
 3309 000b 00       		.byte	0
 3310 000c 0000     		.2byte	0
 3311 000e 0000     		.2byte	0
 3312 0010 00000000 		.4byte	.LFB0
 3313 0014 18000000 		.4byte	.LFE0-.LFB0
 3314 0018 00000000 		.4byte	.LFB1
 3315 001c 18000000 		.4byte	.LFE1-.LFB1
 3316 0020 00000000 		.4byte	.LFB19
 3317 0024 1E000000 		.4byte	.LFE19-.LFB19
 3318 0028 00000000 		.4byte	.LFB26
 3319 002c 24000000 		.4byte	.LFE26-.LFB26
 3320 0030 00000000 		.4byte	.LFB30
 3321 0034 26000000 		.4byte	.LFE30-.LFB30
 3322 0038 00000000 		.4byte	.LFB196
 3323 003c 0E000000 		.4byte	.LFE196-.LFB196
 3324 0040 00000000 		.4byte	.LFB209
 3325 0044 0E000000 		.4byte	.LFE209-.LFB209
 3326 0048 00000000 		.4byte	.LFB227
 3327 004c 30000000 		.4byte	.LFE227-.LFB227
 3328 0050 00000000 		.4byte	.LFB239
 3329 0054 18000000 		.4byte	.LFE239-.LFB239
 3330 0058 00000000 		.4byte	.LFB346
 3331 005c 0C000000 		.4byte	.LFE346-.LFB346
 3332 0060 00000000 		.4byte	.LFB347
 3333 0064 D0000000 		.4byte	.LFE347-.LFB347
 3334 0068 00000000 		.4byte	0
 3335 006c 00000000 		.4byte	0
 3336              		.section	.debug_rnglists,"",%progbits
 3337              	.Ldebug_ranges0:
 3338 0000 4C000000 		.4byte	.Ldebug_ranges3-.Ldebug_ranges2
 3339              	.Ldebug_ranges2:
 3340 0004 0500     		.2byte	0x5
 3341 0006 04       		.byte	0x4
 3342 0007 00       		.byte	0
 3343 0008 00000000 		.4byte	0
 3344              	.LLRL0:
 3345 000c 07       		.byte	0x7
 3346 000d 00000000 		.4byte	.LFB0
 3347 0011 18       		.uleb128 .LFE0-.LFB0
 3348 0012 07       		.byte	0x7
 3349 0013 00000000 		.4byte	.LFB1
 3350 0017 18       		.uleb128 .LFE1-.LFB1
 3351 0018 07       		.byte	0x7
 3352 0019 00000000 		.4byte	.LFB19
 3353 001d 1E       		.uleb128 .LFE19-.LFB19
 3354 001e 07       		.byte	0x7
 3355 001f 00000000 		.4byte	.LFB26
 3356 0023 24       		.uleb128 .LFE26-.LFB26
 3357 0024 07       		.byte	0x7
 3358 0025 00000000 		.4byte	.LFB30
 3359 0029 26       		.uleb128 .LFE30-.LFB30
 3360 002a 07       		.byte	0x7
 3361 002b 00000000 		.4byte	.LFB196
 3362 002f 0E       		.uleb128 .LFE196-.LFB196
ARM GAS  C:\Users\DEVELO~1\AppData\Local\Temp\ccB3i39m.s 			page 60


 3363 0030 07       		.byte	0x7
 3364 0031 00000000 		.4byte	.LFB209
 3365 0035 0E       		.uleb128 .LFE209-.LFB209
 3366 0036 07       		.byte	0x7
 3367 0037 00000000 		.4byte	.LFB227
 3368 003b 30       		.uleb128 .LFE227-.LFB227
 3369 003c 07       		.byte	0x7
 3370 003d 00000000 		.4byte	.LFB239
 3371 0041 18       		.uleb128 .LFE239-.LFB239
 3372 0042 07       		.byte	0x7
 3373 0043 00000000 		.4byte	.LFB346
 3374 0047 0C       		.uleb128 .LFE346-.LFB346
 3375 0048 07       		.byte	0x7
 3376 0049 00000000 		.4byte	.LFB347
 3377 004d D001     		.uleb128 .LFE347-.LFB347
 3378 004f 00       		.byte	0
 3379              	.Ldebug_ranges3:
 3380              		.section	.debug_line,"",%progbits
 3381              	.Ldebug_line0:
 3382 0000 D9030000 		.section	.debug_str,"MS",%progbits,1
 3382      03005402 
 3382      00000201 
 3382      FB0E0D00 
 3382      01010101 
 3383              	.LASF169:
 3384 0000 6F66665F 		.ascii	"off_inst_rfcu\000"
 3384      696E7374 
 3384      5F726663 
 3384      7500
 3385              	.LASF197:
 3386 000e 6368496E 		.ascii	"chInstanceObjectInit\000"
 3386      7374616E 
 3386      63654F62 
 3386      6A656374 
 3386      496E6974 
 3387              	.LASF133:
 3388 0023 7466756E 		.ascii	"tfunc_t\000"
 3388      635F7400 
 3389              	.LASF123:
 3390 002b 72656164 		.ascii	"ready_list_t\000"
 3390      795F6C69 
 3390      73745F74 
 3390      00
 3391              	.LASF114:
 3392 0038 77747472 		.ascii	"wttrp\000"
 3392      7000
 3393              	.LASF165:
 3394 003e 6F66665F 		.ascii	"off_inst_rlist\000"
 3394      696E7374 
 3394      5F726C69 
 3394      737400
 3395              	.LASF112:
 3396 004d 7264796D 		.ascii	"rdymsg\000"
 3396      736700
 3397              	.LASF136:
 3398 0054 66756E63 		.ascii	"funcp\000"
 3398      7000
ARM GAS  C:\Users\DEVELO~1\AppData\Local\Temp\ccB3i39m.s 			page 61


 3399              	.LASF53:
 3400 005a 72666375 		.ascii	"rfcu\000"
 3400      00
 3401              	.LASF6:
 3402 005f 5F5F7569 		.ascii	"__uint8_t\000"
 3402      6E74385F 
 3402      7400
 3403              	.LASF73:
 3404 0069 70726576 		.ascii	"prev\000"
 3404      00
 3405              	.LASF92:
 3406 006e 706F7274 		.ascii	"port_intctx\000"
 3406      5F696E74 
 3406      63747800 
 3407              	.LASF50:
 3408 007a 76746C69 		.ascii	"vtlist\000"
 3408      737400
 3409              	.LASF84:
 3410 0081 74797065 		.ascii	"type\000"
 3410      00
 3411              	.LASF137:
 3412 0086 74687265 		.ascii	"thread_descriptor_t\000"
 3412      61645F64 
 3412      65736372 
 3412      6970746F 
 3412      725F7400 
 3413              	.LASF10:
 3414 009a 6C6F6E67 		.ascii	"long int\000"
 3414      20696E74 
 3414      00
 3415              	.LASF87:
 3416 00a3 74726163 		.ascii	"trace_event_t\000"
 3416      655F6576 
 3416      656E745F 
 3416      7400
 3417              	.LASF129:
 3418 00b1 6F735F69 		.ascii	"os_instance_config_t\000"
 3418      6E737461 
 3418      6E63655F 
 3418      636F6E66 
 3418      69675F74 
 3419              	.LASF88:
 3420 00c6 73757370 		.ascii	"suspended\000"
 3420      656E6465 
 3420      6400
 3421              	.LASF162:
 3422 00d0 6F66665F 		.ascii	"off_sys_rfcu\000"
 3422      7379735F 
 3422      72666375 
 3422      00
 3423              	.LASF82:
 3424 00dd 68616C74 		.ascii	"halt\000"
 3424      00
 3425              	.LASF98:
 3426 00e2 63685F73 		.ascii	"ch_sys_running\000"
 3426      79735F72 
 3426      756E6E69 
ARM GAS  C:\Users\DEVELO~1\AppData\Local\Temp\ccB3i39m.s 			page 62


 3426      6E6700
 3427              	.LASF113:
 3428 00f1 65786974 		.ascii	"exitcode\000"
 3428      636F6465 
 3428      00
 3429              	.LASF55:
 3430 00fa 6D61696E 		.ascii	"mainthread\000"
 3430      74687265 
 3430      616400
 3431              	.LASF115:
 3432 0105 73656E74 		.ascii	"sentmsg\000"
 3432      6D736700 
 3433              	.LASF79:
 3434 010d 64656C74 		.ascii	"delta\000"
 3434      6100
 3435              	.LASF70:
 3436 0113 6E657874 		.ascii	"next\000"
 3436      00
 3437              	.LASF143:
 3438 0118 74687265 		.ascii	"threadsize\000"
 3438      61647369 
 3438      7A6500
 3439              	.LASF1:
 3440 0123 6C6F6E67 		.ascii	"long long int\000"
 3440      206C6F6E 
 3440      6720696E 
 3440      7400
 3441              	.LASF3:
 3442 0131 7369676E 		.ascii	"signed char\000"
 3442      65642063 
 3442      68617200 
 3443              	.LASF78:
 3444 013d 63685F64 		.ascii	"ch_delta_list\000"
 3444      656C7461 
 3444      5F6C6973 
 3444      7400
 3445              	.LASF190:
 3446 014b 5F5F6462 		.ascii	"__dbg_object_init\000"
 3446      675F6F62 
 3446      6A656374 
 3446      5F696E69 
 3446      7400
 3447              	.LASF181:
 3448 015d 5F5F7265 		.ascii	"__reg_object_init\000"
 3448      675F6F62 
 3448      6A656374 
 3448      5F696E69 
 3448      7400
 3449              	.LASF193:
 3450 016f 474E5520 		.ascii	"GNU C17 11.3.1 20220712 -mcpu=cortex-m7 -mthumb -mf"
 3450      43313720 
 3450      31312E33 
 3450      2E312032 
 3450      30323230 
 3451 01a2 6C6F6174 		.ascii	"loat-abi=soft -march=armv7e-m -ggdb -O0 -ffunction-"
 3451      2D616269 
 3451      3D736F66 
ARM GAS  C:\Users\DEVELO~1\AppData\Local\Temp\ccB3i39m.s 			page 63


 3451      74202D6D 
 3451      61726368 
 3452 01d5 73656374 		.ascii	"sections -fdata-sections -fno-common\000"
 3452      696F6E73 
 3452      202D6664 
 3452      6174612D 
 3452      73656374 
 3453              	.LASF37:
 3454 01fa 73746174 		.ascii	"state\000"
 3454      6500
 3455              	.LASF168:
 3456 0200 6F66665F 		.ascii	"off_inst_core_id\000"
 3456      696E7374 
 3456      5F636F72 
 3456      655F6964 
 3456      00
 3457              	.LASF25:
 3458 0211 74737461 		.ascii	"tstate_t\000"
 3458      74655F74 
 3458      00
 3459              	.LASF157:
 3460 021a 696E7465 		.ascii	"intervalsize\000"
 3460      7276616C 
 3460      73697A65 
 3460      00
 3461              	.LASF58:
 3462 0227 63685F72 		.ascii	"ch_rfcu\000"
 3462      66637500 
 3463              	.LASF66:
 3464 022f 73797369 		.ascii	"sysinterval_t\000"
 3464      6E746572 
 3464      76616C5F 
 3464      7400
 3465              	.LASF72:
 3466 023d 63685F71 		.ascii	"ch_queue\000"
 3466      75657565 
 3466      00
 3467              	.LASF138:
 3468 0246 6964656E 		.ascii	"identifier\000"
 3468      74696669 
 3468      657200
 3469              	.LASF16:
 3470 0251 75696E74 		.ascii	"uint16_t\000"
 3470      31365F74 
 3470      00
 3471              	.LASF36:
 3472 025a 77616261 		.ascii	"wabase\000"
 3472      736500
 3473              	.LASF14:
 3474 0261 6C6F6E67 		.ascii	"long long unsigned int\000"
 3474      206C6F6E 
 3474      6720756E 
 3474      7369676E 
 3474      65642069 
 3475              	.LASF170:
 3476 0278 63686465 		.ascii	"chdebug_t\000"
 3476      6275675F 
ARM GAS  C:\Users\DEVELO~1\AppData\Local\Temp\ccB3i39m.s 			page 64


 3476      7400
 3477              	.LASF153:
 3478 0282 6F66665F 		.ascii	"off_preempt\000"
 3478      70726565 
 3478      6D707400 
 3479              	.LASF106:
 3480 028e 63685F72 		.ascii	"ch_registry\000"
 3480      65676973 
 3480      74727900 
 3481              	.LASF183:
 3482 029a 76746C70 		.ascii	"vtlp\000"
 3482      00
 3483              	.LASF176:
 3484 029f 5F5F7472 		.ascii	"__trace_object_init\000"
 3484      6163655F 
 3484      6F626A65 
 3484      63745F69 
 3484      6E697400 
 3485              	.LASF67:
 3486 02b3 73797374 		.ascii	"systimestamp_t\000"
 3486      696D6573 
 3486      74616D70 
 3486      5F7400
 3487              	.LASF167:
 3488 02c2 6F66665F 		.ascii	"off_inst_reglist\000"
 3488      696E7374 
 3488      5F726567 
 3488      6C697374 
 3488      00
 3489              	.LASF174:
 3490 02d3 63685468 		.ascii	"chThdCreateI\000"
 3490      64437265 
 3490      61746549 
 3490      00
 3491              	.LASF11:
 3492 02e0 5F5F7569 		.ascii	"__uint32_t\000"
 3492      6E743332 
 3492      5F7400
 3493              	.LASF59:
 3494 02eb 6D61736B 		.ascii	"mask\000"
 3494      00
 3495              	.LASF71:
 3496 02f0 63685F71 		.ascii	"ch_queue_t\000"
 3496      75657565 
 3496      5F7400
 3497              	.LASF94:
 3498 02fb 6F666673 		.ascii	"offset\000"
 3498      657400
 3499              	.LASF40:
 3500 0302 77616974 		.ascii	"waiting\000"
 3500      696E6700 
 3501              	.LASF155:
 3502 030a 6F66665F 		.ascii	"off_reserved\000"
 3502      72657365 
 3502      72766564 
 3502      00
 3503              	.LASF139:
ARM GAS  C:\Users\DEVELO~1\AppData\Local\Temp\ccB3i39m.s 			page 65


 3504 0317 7A65726F 		.ascii	"zero\000"
 3504      00
 3505              	.LASF172:
 3506 031c 6D757465 		.ascii	"mutex_t\000"
 3506      785F7400 
 3507              	.LASF48:
 3508 0324 63685F6F 		.ascii	"ch_os_instance\000"
 3508      735F696E 
 3508      7374616E 
 3508      636500
 3509              	.LASF93:
 3510 0333 706F7274 		.ascii	"port_context\000"
 3510      5F636F6E 
 3510      74657874 
 3510      00
 3511              	.LASF52:
 3512 0340 636F7265 		.ascii	"core_id\000"
 3512      5F696400 
 3513              	.LASF30:
 3514 0348 636E745F 		.ascii	"cnt_t\000"
 3514      7400
 3515              	.LASF41:
 3516 034e 6D736771 		.ascii	"msgqueue\000"
 3516      75657565 
 3516      00
 3517              	.LASF0:
 3518 0357 756E7369 		.ascii	"unsigned int\000"
 3518      676E6564 
 3518      20696E74 
 3518      00
 3519              	.LASF191:
 3520 0364 5F5F7266 		.ascii	"__rfcu_object_init\000"
 3520      63755F6F 
 3520      626A6563 
 3520      745F696E 
 3520      697400
 3521              	.LASF127:
 3522 0377 69646C65 		.ascii	"idlethread_base\000"
 3522      74687265 
 3522      61645F62 
 3522      61736500 
 3523              	.LASF131:
 3524 0387 696E7374 		.ascii	"instances\000"
 3524      616E6365 
 3524      7300
 3525              	.LASF116:
 3526 0391 77747365 		.ascii	"wtsemp\000"
 3526      6D7000
 3527              	.LASF54:
 3528 0398 636F6E66 		.ascii	"config\000"
 3528      696700
 3529              	.LASF145:
 3530 039f 6F66665F 		.ascii	"off_ctx\000"
 3530      63747800 
 3531              	.LASF64:
 3532 03a7 73797374 		.ascii	"system_debug_t\000"
 3532      656D5F64 
ARM GAS  C:\Users\DEVELO~1\AppData\Local\Temp\ccB3i39m.s 			page 66


 3532      65627567 
 3532      5F7400
 3533              	.LASF12:
 3534 03b6 6C6F6E67 		.ascii	"long unsigned int\000"
 3534      20756E73 
 3534      69676E65 
 3534      6420696E 
 3534      7400
 3535              	.LASF33:
 3536 03c8 72717565 		.ascii	"rqueue\000"
 3536      756500
 3537              	.LASF171:
 3538 03cf 63685F64 		.ascii	"ch_debug\000"
 3538      65627567 
 3538      00
 3539              	.LASF195:
 3540 03d8 433A5C50 		.ascii	"C:\\PROJET\\ChibiOS project\\ChibiOS_21.11.4\\demos"
 3540      524F4A45 
 3540      545C4368 
 3540      6962694F 
 3540      53207072 
 3541 0407 5C53544D 		.ascii	"\\STM32\\RT-STM32H743ZI_REV_XY-NUCLEO144_Quartz8M\000"
 3541      33325C52 
 3541      542D5354 
 3541      4D333248 
 3541      3734335A 
 3542              	.LASF35:
 3543 0437 6E616D65 		.ascii	"name\000"
 3543      00
 3544              	.LASF107:
 3545 043c 71756575 		.ascii	"queue\000"
 3545      6500
 3546              	.LASF166:
 3547 0442 6F66665F 		.ascii	"off_inst_vtlist\000"
 3547      696E7374 
 3547      5F76746C 
 3547      69737400 
 3548              	.LASF89:
 3549 0452 73697A65 		.ascii	"size\000"
 3549      00
 3550              	.LASF152:
 3551 0457 6F66665F 		.ascii	"off_refs\000"
 3551      72656673 
 3551      00
 3552              	.LASF177:
 3553 0460 706F7274 		.ascii	"port_init\000"
 3553      5F696E69 
 3553      7400
 3554              	.LASF47:
 3555 046a 63685F74 		.ascii	"ch_thread\000"
 3555      68726561 
 3555      6400
 3556              	.LASF28:
 3557 0474 6D73675F 		.ascii	"msg_t\000"
 3557      7400
 3558              	.LASF42:
 3559 047a 6570656E 		.ascii	"epending\000"
ARM GAS  C:\Users\DEVELO~1\AppData\Local\Temp\ccB3i39m.s 			page 67


 3559      64696E67 
 3559      00
 3560              	.LASF132:
 3561 0483 63685F73 		.ascii	"ch_system_t\000"
 3561      79737465 
 3561      6D5F7400 
 3562              	.LASF199:
 3563 048f 706F7274 		.ascii	"port_wait_for_interrupt\000"
 3563      5F776169 
 3563      745F666F 
 3563      725F696E 
 3563      74657272 
 3564              	.LASF24:
 3565 04a7 746D6F64 		.ascii	"tmode_t\000"
 3565      655F7400 
 3566              	.LASF69:
 3567 04af 63685F6C 		.ascii	"ch_list\000"
 3567      69737400 
 3568              	.LASF121:
 3569 04b7 63685F72 		.ascii	"ch_ready_list\000"
 3569      65616479 
 3569      5F6C6973 
 3569      7400
 3570              	.LASF29:
 3571 04c5 6576656E 		.ascii	"eventmask_t\000"
 3571      746D6173 
 3571      6B5F7400 
 3572              	.LASF148:
 3573 04d1 6F66665F 		.ascii	"off_name\000"
 3573      6E616D65 
 3573      00
 3574              	.LASF9:
 3575 04da 5F5F696E 		.ascii	"__int32_t\000"
 3575      7433325F 
 3575      7400
 3576              	.LASF105:
 3577 04e4 76697274 		.ascii	"virtual_timers_list_t\000"
 3577      75616C5F 
 3577      74696D65 
 3577      72735F6C 
 3577      6973745F 
 3578              	.LASF23:
 3579 04fa 73746B61 		.ascii	"stkalign_t\000"
 3579      6C69676E 
 3579      5F7400
 3580              	.LASF85:
 3581 0505 72747374 		.ascii	"rtstamp\000"
 3581      616D7000 
 3582              	.LASF104:
 3583 050d 6C617374 		.ascii	"laststamp\000"
 3583      7374616D 
 3583      7000
 3584              	.LASF44:
 3585 0517 7265616C 		.ascii	"realprio\000"
 3585      7072696F 
 3585      00
 3586              	.LASF140:
ARM GAS  C:\Users\DEVELO~1\AppData\Local\Temp\ccB3i39m.s 			page 68


 3587 0520 76657273 		.ascii	"version\000"
 3587      696F6E00 
 3588              	.LASF57:
 3589 0528 72666375 		.ascii	"rfcu_mask_t\000"
 3589      5F6D6173 
 3589      6B5F7400 
 3590              	.LASF22:
 3591 0534 7274636E 		.ascii	"rtcnt_t\000"
 3591      745F7400 
 3592              	.LASF109:
 3593 053c 74687265 		.ascii	"thread_reference_t\000"
 3593      61645F72 
 3593      65666572 
 3593      656E6365 
 3593      5F7400
 3594              	.LASF101:
 3595 054f 63685F76 		.ascii	"ch_virtual_timers_list\000"
 3595      69727475 
 3595      616C5F74 
 3595      696D6572 
 3595      735F6C69 
 3596              	.LASF178:
 3597 0566 6F696370 		.ascii	"oicp\000"
 3597      00
 3598              	.LASF146:
 3599 056b 6F66665F 		.ascii	"off_newer\000"
 3599      6E657765 
 3599      7200
 3600              	.LASF160:
 3601 0575 6F66665F 		.ascii	"off_sys_instances\000"
 3601      7379735F 
 3601      696E7374 
 3601      616E6365 
 3601      7300
 3602              	.LASF20:
 3603 0587 706F7274 		.ascii	"port_rtcnt_t\000"
 3603      5F727463 
 3603      6E745F74 
 3603      00
 3604              	.LASF19:
 3605 0594 75696E74 		.ascii	"uint64_t\000"
 3605      36345F74 
 3605      00
 3606              	.LASF184:
 3607 059d 63685654 		.ascii	"chVTGetSystemTimeX\000"
 3607      47657453 
 3607      79737465 
 3607      6D54696D 
 3607      655800
 3608              	.LASF124:
 3609 05b0 63685F6F 		.ascii	"ch_os_instance_config\000"
 3609      735F696E 
 3609      7374616E 
 3609      63655F63 
 3609      6F6E6669 
 3610              	.LASF134:
 3611 05c6 77626173 		.ascii	"wbase\000"
ARM GAS  C:\Users\DEVELO~1\AppData\Local\Temp\ccB3i39m.s 			page 69


 3611      6500
 3612              	.LASF95:
 3613 05cc 746D5F63 		.ascii	"tm_calibration_t\000"
 3613      616C6962 
 3613      72617469 
 3613      6F6E5F74 
 3613      00
 3614              	.LASF179:
 3615 05dd 69646C65 		.ascii	"idle_descriptor\000"
 3615      5F646573 
 3615      63726970 
 3615      746F7200 
 3616              	.LASF86:
 3617 05ed 74696D65 		.ascii	"time\000"
 3617      00
 3618              	.LASF76:
 3619 05f2 7072696F 		.ascii	"prio\000"
 3619      00
 3620              	.LASF122:
 3621 05f7 63757272 		.ascii	"current\000"
 3621      656E7400 
 3622              	.LASF161:
 3623 05ff 6F66665F 		.ascii	"off_sys_reglist\000"
 3623      7379735F 
 3623      7265676C 
 3623      69737400 
 3624              	.LASF13:
 3625 060f 5F5F7569 		.ascii	"__uint64_t\000"
 3625      6E743634 
 3625      5F7400
 3626              	.LASF31:
 3627 061a 636F7265 		.ascii	"core_id_t\000"
 3627      5F69645F 
 3627      7400
 3628              	.LASF26:
 3629 0624 74726566 		.ascii	"trefs_t\000"
 3629      735F7400 
 3630              	.LASF39:
 3631 062c 72656673 		.ascii	"refs\000"
 3631      00
 3632              	.LASF83:
 3633 0631 75736572 		.ascii	"user\000"
 3633      00
 3634              	.LASF27:
 3635 0636 74707269 		.ascii	"tprio_t\000"
 3635      6F5F7400 
 3636              	.LASF163:
 3637 063e 6F66665F 		.ascii	"off_sys_reserved\000"
 3637      7379735F 
 3637      72657365 
 3637      72766564 
 3637      00
 3638              	.LASF61:
 3639 064f 63685F73 		.ascii	"ch_system_debug\000"
 3639      79737465 
 3639      6D5F6465 
 3639      62756700 
ARM GAS  C:\Users\DEVELO~1\AppData\Local\Temp\ccB3i39m.s 			page 70


 3640              	.LASF173:
 3641 065f 5F426F6F 		.ascii	"_Bool\000"
 3641      6C00
 3642              	.LASF17:
 3643 0665 696E7433 		.ascii	"int32_t\000"
 3643      325F7400 
 3644              	.LASF4:
 3645 066d 756E7369 		.ascii	"unsigned char\000"
 3645      676E6564 
 3645      20636861 
 3645      7200
 3646              	.LASF144:
 3647 067b 6F66665F 		.ascii	"off_prio\000"
 3647      7072696F 
 3647      00
 3648              	.LASF149:
 3649 0684 6F66665F 		.ascii	"off_stklimit\000"
 3649      73746B6C 
 3649      696D6974 
 3649      00
 3650              	.LASF60:
 3651 0691 72666375 		.ascii	"rfcu_t\000"
 3651      5F7400
 3652              	.LASF175:
 3653 0698 5F5F7468 		.ascii	"__thd_object_init\000"
 3653      645F6F62 
 3653      6A656374 
 3653      5F696E69 
 3653      7400
 3654              	.LASF5:
 3655 06aa 73686F72 		.ascii	"short int\000"
 3655      7420696E 
 3655      7400
 3656              	.LASF103:
 3657 06b4 6C617374 		.ascii	"lasttime\000"
 3657      74696D65 
 3657      00
 3658              	.LASF91:
 3659 06bd 74726163 		.ascii	"trace_buffer_t\000"
 3659      655F6275 
 3659      66666572 
 3659      5F7400
 3660              	.LASF80:
 3661 06cc 77746F62 		.ascii	"wtobjp\000"
 3661      6A7000
 3662              	.LASF118:
 3663 06d3 65776D61 		.ascii	"ewmask\000"
 3663      736B00
 3664              	.LASF130:
 3665 06da 63685F73 		.ascii	"ch_system\000"
 3665      79737465 
 3665      6D00
 3666              	.LASF196:
 3667 06e4 73744765 		.ascii	"stGetCounter\000"
 3667      74436F75 
 3667      6E746572 
 3667      00
ARM GAS  C:\Users\DEVELO~1\AppData\Local\Temp\ccB3i39m.s 			page 71


 3668              	.LASF198:
 3669 06f1 5F5F6675 		.ascii	"__func__\000"
 3669      6E635F5F 
 3669      00
 3670              	.LASF81:
 3671 06fa 72656173 		.ascii	"reason\000"
 3671      6F6E00
 3672              	.LASF119:
 3673 0701 63685F73 		.ascii	"ch_semaphore\000"
 3673      656D6170 
 3673      686F7265 
 3673      00
 3674              	.LASF154:
 3675 070e 6F66665F 		.ascii	"off_time\000"
 3675      74696D65 
 3675      00
 3676              	.LASF142:
 3677 0717 74696D65 		.ascii	"timesize\000"
 3677      73697A65 
 3677      00
 3678              	.LASF18:
 3679 0720 75696E74 		.ascii	"uint32_t\000"
 3679      33325F74 
 3679      00
 3680              	.LASF117:
 3681 0729 77746D74 		.ascii	"wtmtxp\000"
 3681      787000
 3682              	.LASF21:
 3683 0730 706F7274 		.ascii	"port_stkalign_t\000"
 3683      5F73746B 
 3683      616C6967 
 3683      6E5F7400 
 3684              	.LASF135:
 3685 0740 77656E64 		.ascii	"wend\000"
 3685      00
 3686              	.LASF34:
 3687 0745 6F776E65 		.ascii	"owner\000"
 3687      7200
 3688              	.LASF189:
 3689 074b 63685F71 		.ascii	"ch_queue_init\000"
 3689      75657565 
 3689      5F696E69 
 3689      7400
 3690              	.LASF2:
 3691 0759 6C6F6E67 		.ascii	"long double\000"
 3691      20646F75 
 3691      626C6500 
 3692              	.LASF194:
 3693 0765 2E2E2F2E 		.ascii	"../../../os/rt/src/chinstances.c\000"
 3693      2E2F2E2E 
 3693      2F6F732F 
 3693      72742F73 
 3693      72632F63 
 3694              	.LASF63:
 3695 0786 63686172 		.ascii	"char\000"
 3695      00
 3696              	.LASF164:
ARM GAS  C:\Users\DEVELO~1\AppData\Local\Temp\ccB3i39m.s 			page 72


 3697 078b 6F66665F 		.ascii	"off_inst_rlist_current\000"
 3697      696E7374 
 3697      5F726C69 
 3697      73745F63 
 3697      75727265 
 3698              	.LASF96:
 3699 07a2 63685F73 		.ascii	"ch_sys_uninit\000"
 3699      79735F75 
 3699      6E696E69 
 3699      7400
 3700              	.LASF180:
 3701 07b0 5F5F6964 		.ascii	"__idle_thread\000"
 3701      6C655F74 
 3701      68726561 
 3701      6400
 3702              	.LASF192:
 3703 07be 72666375 		.ascii	"rfcup\000"
 3703      7000
 3704              	.LASF7:
 3705 07c4 5F5F7569 		.ascii	"__uint16_t\000"
 3705      6E743136 
 3705      5F7400
 3706              	.LASF32:
 3707 07cf 74687265 		.ascii	"thread_t\000"
 3707      61645F74 
 3707      00
 3708              	.LASF102:
 3709 07d8 646C6973 		.ascii	"dlist\000"
 3709      7400
 3710              	.LASF65:
 3711 07de 73797374 		.ascii	"systime_t\000"
 3711      696D655F 
 3711      7400
 3712              	.LASF90:
 3713 07e8 62756666 		.ascii	"buffer\000"
 3713      657200
 3714              	.LASF74:
 3715 07ef 63685F70 		.ascii	"ch_priority_queue_t\000"
 3715      72696F72 
 3715      6974795F 
 3715      71756575 
 3715      655F7400 
 3716              	.LASF62:
 3717 0803 70616E69 		.ascii	"panic_msg\000"
 3717      635F6D73 
 3717      6700
 3718              	.LASF111:
 3719 080d 70717565 		.ascii	"pqueue\000"
 3719      756500
 3720              	.LASF125:
 3721 0814 6D61696E 		.ascii	"mainthread_base\000"
 3721      74687265 
 3721      61645F62 
 3721      61736500 
 3722              	.LASF141:
 3723 0824 70747273 		.ascii	"ptrsize\000"
 3723      697A6500 
ARM GAS  C:\Users\DEVELO~1\AppData\Local\Temp\ccB3i39m.s 			page 73


 3724              	.LASF46:
 3725 082c 6F735F69 		.ascii	"os_instance_t\000"
 3725      6E737461 
 3725      6E63655F 
 3725      7400
 3726              	.LASF147:
 3727 083a 6F66665F 		.ascii	"off_older\000"
 3727      6F6C6465 
 3727      7200
 3728              	.LASF51:
 3729 0844 7265676C 		.ascii	"reglist\000"
 3729      69737400 
 3730              	.LASF8:
 3731 084c 73686F72 		.ascii	"short unsigned int\000"
 3731      7420756E 
 3731      7369676E 
 3731      65642069 
 3731      6E7400
 3732              	.LASF99:
 3733 085f 63685F73 		.ascii	"ch_sys_halted\000"
 3733      79735F68 
 3733      616C7465 
 3733      6400
 3734              	.LASF75:
 3735 086d 63685F70 		.ascii	"ch_priority_queue\000"
 3735      72696F72 
 3735      6974795F 
 3735      71756575 
 3735      6500
 3736              	.LASF185:
 3737 087f 706F7274 		.ascii	"port_timer_get_time\000"
 3737      5F74696D 
 3737      65725F67 
 3737      65745F74 
 3737      696D6500 
 3738              	.LASF187:
 3739 0893 646C6870 		.ascii	"dlhp\000"
 3739      00
 3740              	.LASF77:
 3741 0898 63685F64 		.ascii	"ch_delta_list_t\000"
 3741      656C7461 
 3741      5F6C6973 
 3741      745F7400 
 3742              	.LASF108:
 3743 08a8 72656769 		.ascii	"registry_t\000"
 3743      73747279 
 3743      5F7400
 3744              	.LASF126:
 3745 08b3 6D61696E 		.ascii	"mainthread_end\000"
 3745      74687265 
 3745      61645F65 
 3745      6E6400
 3746              	.LASF156:
 3747 08c2 696E7463 		.ascii	"intctxsize\000"
 3747      74787369 
 3747      7A6500
 3748              	.LASF45:
ARM GAS  C:\Users\DEVELO~1\AppData\Local\Temp\ccB3i39m.s 			page 74


 3749 08cd 6D706F6F 		.ascii	"mpool\000"
 3749      6C00
 3750              	.LASF97:
 3751 08d3 63685F73 		.ascii	"ch_sys_initializing\000"
 3751      79735F69 
 3751      6E697469 
 3751      616C697A 
 3751      696E6700 
 3752              	.LASF188:
 3753 08e7 63685F70 		.ascii	"ch_pqueue_init\000"
 3753      71756575 
 3753      655F696E 
 3753      697400
 3754              	.LASF158:
 3755 08f6 696E7374 		.ascii	"instancesnum\000"
 3755      616E6365 
 3755      736E756D 
 3755      00
 3756              	.LASF159:
 3757 0903 6F66665F 		.ascii	"off_sys_state\000"
 3757      7379735F 
 3757      73746174 
 3757      6500
 3758              	.LASF49:
 3759 0911 726C6973 		.ascii	"rlist\000"
 3759      7400
 3760              	.LASF68:
 3761 0917 63685F6C 		.ascii	"ch_list_t\000"
 3761      6973745F 
 3761      7400
 3762              	.LASF15:
 3763 0921 75696E74 		.ascii	"uint8_t\000"
 3763      385F7400 
 3764              	.LASF38:
 3765 0929 666C6167 		.ascii	"flags\000"
 3765      7300
 3766              	.LASF120:
 3767 092f 63685F6D 		.ascii	"ch_mutex\000"
 3767      75746578 
 3767      00
 3768              	.LASF182:
 3769 0938 5F5F7674 		.ascii	"__vt_object_init\000"
 3769      5F6F626A 
 3769      6563745F 
 3769      696E6974 
 3769      00
 3770              	.LASF150:
 3771 0949 6F66665F 		.ascii	"off_state\000"
 3771      73746174 
 3771      6500
 3772              	.LASF56:
 3773 0953 74726163 		.ascii	"trace_buffer\000"
 3773      655F6275 
 3773      66666572 
 3773      00
 3774              	.LASF186:
 3775 0960 63685F64 		.ascii	"ch_dlist_init\000"
ARM GAS  C:\Users\DEVELO~1\AppData\Local\Temp\ccB3i39m.s 			page 75


 3775      6C697374 
 3775      5F696E69 
 3775      7400
 3776              	.LASF110:
 3777 096e 6C697374 		.ascii	"list\000"
 3777      00
 3778              	.LASF100:
 3779 0973 73797374 		.ascii	"system_state_t\000"
 3779      656D5F73 
 3779      74617465 
 3779      5F7400
 3780              	.LASF151:
 3781 0982 6F66665F 		.ascii	"off_flags\000"
 3781      666C6167 
 3781      7300
 3782              	.LASF128:
 3783 098c 69646C65 		.ascii	"idlethread_end\000"
 3783      74687265 
 3783      61645F65 
 3783      6E6400
 3784              	.LASF43:
 3785 099b 6D74786C 		.ascii	"mtxlist\000"
 3785      69737400 
 3786              		.ident	"GCC: (Arm GNU Toolchain 11.3.Rel1) 11.3.1 20220712"
ARM GAS  C:\Users\DEVELO~1\AppData\Local\Temp\ccB3i39m.s 			page 76


DEFINED SYMBOLS
                            *ABS*:00000000 chinstances.c
C:\Users\DEVELO~1\AppData\Local\Temp\ccB3i39m.s:18     .text.__rfcu_object_init:00000000 $t
C:\Users\DEVELO~1\AppData\Local\Temp\ccB3i39m.s:23     .text.__rfcu_object_init:00000000 __rfcu_object_init
C:\Users\DEVELO~1\AppData\Local\Temp\ccB3i39m.s:58     .text.__dbg_object_init:00000000 $t
C:\Users\DEVELO~1\AppData\Local\Temp\ccB3i39m.s:63     .text.__dbg_object_init:00000000 __dbg_object_init
C:\Users\DEVELO~1\AppData\Local\Temp\ccB3i39m.s:98     .text.ch_queue_init:00000000 $t
C:\Users\DEVELO~1\AppData\Local\Temp\ccB3i39m.s:103    .text.ch_queue_init:00000000 ch_queue_init
C:\Users\DEVELO~1\AppData\Local\Temp\ccB3i39m.s:142    .text.ch_pqueue_init:00000000 $t
C:\Users\DEVELO~1\AppData\Local\Temp\ccB3i39m.s:147    .text.ch_pqueue_init:00000000 ch_pqueue_init
C:\Users\DEVELO~1\AppData\Local\Temp\ccB3i39m.s:189    .text.ch_dlist_init:00000000 $t
C:\Users\DEVELO~1\AppData\Local\Temp\ccB3i39m.s:194    .text.ch_dlist_init:00000000 ch_dlist_init
C:\Users\DEVELO~1\AppData\Local\Temp\ccB3i39m.s:236    .text.port_timer_get_time:00000000 $t
C:\Users\DEVELO~1\AppData\Local\Temp\ccB3i39m.s:241    .text.port_timer_get_time:00000000 port_timer_get_time
C:\Users\DEVELO~1\AppData\Local\Temp\ccB3i39m.s:264    .text.chVTGetSystemTimeX:00000000 $t
C:\Users\DEVELO~1\AppData\Local\Temp\ccB3i39m.s:269    .text.chVTGetSystemTimeX:00000000 chVTGetSystemTimeX
C:\Users\DEVELO~1\AppData\Local\Temp\ccB3i39m.s:292    .text.__vt_object_init:00000000 $t
C:\Users\DEVELO~1\AppData\Local\Temp\ccB3i39m.s:297    .text.__vt_object_init:00000000 __vt_object_init
C:\Users\DEVELO~1\AppData\Local\Temp\ccB3i39m.s:344    .text.__reg_object_init:00000000 $t
C:\Users\DEVELO~1\AppData\Local\Temp\ccB3i39m.s:349    .text.__reg_object_init:00000000 __reg_object_init
C:\Users\DEVELO~1\AppData\Local\Temp\ccB3i39m.s:381    .text.__idle_thread:00000000 $t
C:\Users\DEVELO~1\AppData\Local\Temp\ccB3i39m.s:386    .text.__idle_thread:00000000 __idle_thread
C:\Users\DEVELO~1\AppData\Local\Temp\ccB3i39m.s:416    .rodata:00000000 $d
C:\Users\DEVELO~1\AppData\Local\Temp\ccB3i39m.s:420    .text.chInstanceObjectInit:00000000 $t
C:\Users\DEVELO~1\AppData\Local\Temp\ccB3i39m.s:426    .text.chInstanceObjectInit:00000000 chInstanceObjectInit
C:\Users\DEVELO~1\AppData\Local\Temp\ccB3i39m.s:553    .text.chInstanceObjectInit:000000c0 $d

UNDEFINED SYMBOLS
stGetCounter
port_init
__trace_object_init
__thd_object_init
chThdCreateI
ch_system
ch_debug
