ARM GAS  C:\Users\DEVELO~1\AppData\Local\Temp\ccB3i39m.s 			page 1


   1              		.cpu cortex-m7
   2              		.arch armv7e-m
   3              		.fpu softvfp
   4              		.eabi_attribute 20, 1
   5              		.eabi_attribute 21, 1
   6              		.eabi_attribute 23, 3
   7              		.eabi_attribute 24, 1
   8              		.eabi_attribute 25, 1
   9              		.eabi_attribute 26, 1
  10              		.eabi_attribute 30, 6
  11              		.eabi_attribute 34, 1
  12              		.eabi_attribute 18, 4
  13              		.file	"chinstances.c"
  14              		.text
  15              	.Ltext0:
  16              		.cfi_sections	.debug_frame
  17              		.section	.text.__rfcu_object_init,"ax",%progbits
  18              		.align	1
  19              		.syntax unified
  20              		.thumb
  21              		.thumb_func
  22              		.type	__rfcu_object_init, %function
  23              	__rfcu_object_init:
  24              	.LFB0:
  25              		.file 1 "../../../os/rt/include/chrfcu.h"
  26              		.loc 1 104 54
  27              		.cfi_startproc
  28              		@ args = 0, pretend = 0, frame = 8
  29              		@ frame_needed = 1, uses_anonymous_args = 0
  30              		@ link register save eliminated.
  31 0000 80B4     		push	{r7}
  32              		.cfi_def_cfa_offset 4
  33              		.cfi_offset 7, -4
  34 0002 83B0     		sub	sp, sp, #12
  35              		.cfi_def_cfa_offset 16
  36 0004 00AF     		add	r7, sp, #0
  37              		.cfi_def_cfa_register 7
  38 0006 7860     		str	r0, [r7, #4]
  39              		.loc 1 106 15
  40 0008 7B68     		ldr	r3, [r7, #4]
  41 000a 0022     		movs	r2, #0
  42 000c 1A60     		str	r2, [r3]
  43              		.loc 1 107 1
  44 000e 00BF     		nop
  45 0010 0C37     		adds	r7, r7, #12
  46              		.cfi_def_cfa_offset 4
  47 0012 BD46     		mov	sp, r7
  48              		.cfi_def_cfa_register 13
  49              		@ sp needed
  50 0014 80BC     		pop	{r7}
  51              		.cfi_restore 7
  52              		.cfi_def_cfa_offset 0
  53 0016 7047     		bx	lr
  54              		.cfi_endproc
  55              	.LFE0:
  56              		.size	__rfcu_object_init, .-__rfcu_object_init
  57              		.section	.text.__dbg_object_init,"ax",%progbits
ARM GAS  C:\Users\DEVELO~1\AppData\Local\Temp\ccB3i39m.s 			page 2


  58              		.align	1
  59              		.syntax unified
  60              		.thumb
  61              		.thumb_func
  62              		.type	__dbg_object_init, %function
  63              	__dbg_object_init:
  64              	.LFB1:
  65              		.file 2 "../../../os/rt/include/chdebug.h"
  66              		.loc 2 192 59
  67              		.cfi_startproc
  68              		@ args = 0, pretend = 0, frame = 8
  69              		@ frame_needed = 1, uses_anonymous_args = 0
  70              		@ link register save eliminated.
  71 0000 80B4     		push	{r7}
  72              		.cfi_def_cfa_offset 4
  73              		.cfi_offset 7, -4
  74 0002 83B0     		sub	sp, sp, #12
  75              		.cfi_def_cfa_offset 16
  76 0004 00AF     		add	r7, sp, #0
  77              		.cfi_def_cfa_register 7
  78 0006 7860     		str	r0, [r7, #4]
  79              		.loc 2 194 18
  80 0008 7B68     		ldr	r3, [r7, #4]
  81 000a 0022     		movs	r2, #0
  82 000c 1A60     		str	r2, [r3]
  83              		.loc 2 201 1
  84 000e 00BF     		nop
  85 0010 0C37     		adds	r7, r7, #12
  86              		.cfi_def_cfa_offset 4
  87 0012 BD46     		mov	sp, r7
  88              		.cfi_def_cfa_register 13
  89              		@ sp needed
  90 0014 80BC     		pop	{r7}
  91              		.cfi_restore 7
  92              		.cfi_def_cfa_offset 0
  93 0016 7047     		bx	lr
  94              		.cfi_endproc
  95              	.LFE1:
  96              		.size	__dbg_object_init, .-__dbg_object_init
  97              		.section	.text.ch_queue_init,"ax",%progbits
  98              		.align	1
  99              		.syntax unified
 100              		.thumb
 101              		.thumb_func
 102              		.type	ch_queue_init, %function
 103              	ch_queue_init:
 104              	.LFB19:
 105              		.file 3 "../../../os/rt/include/chlists.h"
 106              		.loc 3 222 50
 107              		.cfi_startproc
 108              		@ args = 0, pretend = 0, frame = 8
 109              		@ frame_needed = 1, uses_anonymous_args = 0
 110              		@ link register save eliminated.
 111 0000 80B4     		push	{r7}
 112              		.cfi_def_cfa_offset 4
 113              		.cfi_offset 7, -4
 114 0002 83B0     		sub	sp, sp, #12
ARM GAS  C:\Users\DEVELO~1\AppData\Local\Temp\ccB3i39m.s 			page 3


 115              		.cfi_def_cfa_offset 16
 116 0004 00AF     		add	r7, sp, #0
 117              		.cfi_def_cfa_register 7
 118 0006 7860     		str	r0, [r7, #4]
 119              		.loc 3 224 12
 120 0008 7B68     		ldr	r3, [r7, #4]
 121 000a 7A68     		ldr	r2, [r7, #4]
 122 000c 1A60     		str	r2, [r3]
 123              		.loc 3 225 12
 124 000e 7B68     		ldr	r3, [r7, #4]
 125 0010 7A68     		ldr	r2, [r7, #4]
 126 0012 5A60     		str	r2, [r3, #4]
 127              		.loc 3 226 1
 128 0014 00BF     		nop
 129 0016 0C37     		adds	r7, r7, #12
 130              		.cfi_def_cfa_offset 4
 131 0018 BD46     		mov	sp, r7
 132              		.cfi_def_cfa_register 13
 133              		@ sp needed
 134 001a 80BC     		pop	{r7}
 135              		.cfi_restore 7
 136              		.cfi_def_cfa_offset 0
 137 001c 7047     		bx	lr
 138              		.cfi_endproc
 139              	.LFE19:
 140              		.size	ch_queue_init, .-ch_queue_init
 141              		.section	.text.ch_pqueue_init,"ax",%progbits
 142              		.align	1
 143              		.syntax unified
 144              		.thumb
 145              		.thumb_func
 146              		.type	ch_pqueue_init, %function
 147              	ch_pqueue_init:
 148              	.LFB26:
 149              		.loc 3 336 61
 150              		.cfi_startproc
 151              		@ args = 0, pretend = 0, frame = 8
 152              		@ frame_needed = 1, uses_anonymous_args = 0
 153              		@ link register save eliminated.
 154 0000 80B4     		push	{r7}
 155              		.cfi_def_cfa_offset 4
 156              		.cfi_offset 7, -4
 157 0002 83B0     		sub	sp, sp, #12
 158              		.cfi_def_cfa_offset 16
 159 0004 00AF     		add	r7, sp, #0
 160              		.cfi_def_cfa_register 7
 161 0006 7860     		str	r0, [r7, #4]
 162              		.loc 3 338 13
 163 0008 7B68     		ldr	r3, [r7, #4]
 164 000a 7A68     		ldr	r2, [r7, #4]
 165 000c 1A60     		str	r2, [r3]
 166              		.loc 3 339 13
 167 000e 7B68     		ldr	r3, [r7, #4]
 168 0010 7A68     		ldr	r2, [r7, #4]
 169 0012 5A60     		str	r2, [r3, #4]
 170              		.loc 3 340 13
 171 0014 7B68     		ldr	r3, [r7, #4]
ARM GAS  C:\Users\DEVELO~1\AppData\Local\Temp\ccB3i39m.s 			page 4


 172 0016 0022     		movs	r2, #0
 173 0018 9A60     		str	r2, [r3, #8]
 174              		.loc 3 341 1
 175 001a 00BF     		nop
 176 001c 0C37     		adds	r7, r7, #12
 177              		.cfi_def_cfa_offset 4
 178 001e BD46     		mov	sp, r7
 179              		.cfi_def_cfa_register 13
 180              		@ sp needed
 181 0020 80BC     		pop	{r7}
 182              		.cfi_restore 7
 183              		.cfi_def_cfa_offset 0
 184 0022 7047     		bx	lr
 185              		.cfi_endproc
 186              	.LFE26:
 187              		.size	ch_pqueue_init, .-ch_pqueue_init
 188              		.section	.text.ch_dlist_init,"ax",%progbits
 189              		.align	1
 190              		.syntax unified
 191              		.thumb
 192              		.thumb_func
 193              		.type	ch_dlist_init, %function
 194              	ch_dlist_init:
 195              	.LFB30:
 196              		.loc 3 426 57
 197              		.cfi_startproc
 198              		@ args = 0, pretend = 0, frame = 8
 199              		@ frame_needed = 1, uses_anonymous_args = 0
 200              		@ link register save eliminated.
 201 0000 80B4     		push	{r7}
 202              		.cfi_def_cfa_offset 4
 203              		.cfi_offset 7, -4
 204 0002 83B0     		sub	sp, sp, #12
 205              		.cfi_def_cfa_offset 16
 206 0004 00AF     		add	r7, sp, #0
 207              		.cfi_def_cfa_register 7
 208 0006 7860     		str	r0, [r7, #4]
 209              		.loc 3 428 15
 210 0008 7B68     		ldr	r3, [r7, #4]
 211 000a 7A68     		ldr	r2, [r7, #4]
 212 000c 1A60     		str	r2, [r3]
 213              		.loc 3 429 15
 214 000e 7B68     		ldr	r3, [r7, #4]
 215 0010 7A68     		ldr	r2, [r7, #4]
 216 0012 5A60     		str	r2, [r3, #4]
 217              		.loc 3 430 15
 218 0014 7B68     		ldr	r3, [r7, #4]
 219 0016 4FF0FF32 		mov	r2, #-1
 220 001a 9A60     		str	r2, [r3, #8]
 221              		.loc 3 431 1
 222 001c 00BF     		nop
 223 001e 0C37     		adds	r7, r7, #12
 224              		.cfi_def_cfa_offset 4
 225 0020 BD46     		mov	sp, r7
 226              		.cfi_def_cfa_register 13
 227              		@ sp needed
 228 0022 80BC     		pop	{r7}
ARM GAS  C:\Users\DEVELO~1\AppData\Local\Temp\ccB3i39m.s 			page 5


 229              		.cfi_restore 7
 230              		.cfi_def_cfa_offset 0
 231 0024 7047     		bx	lr
 232              		.cfi_endproc
 233              	.LFE30:
 234              		.size	ch_dlist_init, .-ch_dlist_init
 235              		.section	.text.port_timer_get_time,"ax",%progbits
 236              		.align	1
 237              		.syntax unified
 238              		.thumb
 239              		.thumb_func
 240              		.type	port_timer_get_time, %function
 241              	port_timer_get_time:
 242              	.LFB196:
 243              		.file 4 "../../../os/hal/osal/rt-nil/chcore_timer.h"
 244              		.loc 4 111 51
 245              		.cfi_startproc
 246              		@ args = 0, pretend = 0, frame = 0
 247              		@ frame_needed = 1, uses_anonymous_args = 0
 248 0000 80B5     		push	{r7, lr}
 249              		.cfi_def_cfa_offset 8
 250              		.cfi_offset 7, -8
 251              		.cfi_offset 14, -4
 252 0002 00AF     		add	r7, sp, #0
 253              		.cfi_def_cfa_register 7
 254              		.loc 4 113 10
 255 0004 FFF7FEFF 		bl	stGetCounter
 256 0008 0346     		mov	r3, r0
 257              		.loc 4 114 1
 258 000a 1846     		mov	r0, r3
 259 000c 80BD     		pop	{r7, pc}
 260              		.cfi_endproc
 261              	.LFE196:
 262              		.size	port_timer_get_time, .-port_timer_get_time
 263              		.section	.text.chVTGetSystemTimeX,"ax",%progbits
 264              		.align	1
 265              		.syntax unified
 266              		.thumb
 267              		.thumb_func
 268              		.type	chVTGetSystemTimeX, %function
 269              	chVTGetSystemTimeX:
 270              	.LFB209:
 271              		.file 5 "../../../os/rt/include/chvt.h"
 272              		.loc 5 122 50
 273              		.cfi_startproc
 274              		@ args = 0, pretend = 0, frame = 0
 275              		@ frame_needed = 1, uses_anonymous_args = 0
 276 0000 80B5     		push	{r7, lr}
 277              		.cfi_def_cfa_offset 8
 278              		.cfi_offset 7, -8
 279              		.cfi_offset 14, -4
 280 0002 00AF     		add	r7, sp, #0
 281              		.cfi_def_cfa_register 7
 282              		.loc 5 127 10
 283 0004 FFF7FEFF 		bl	port_timer_get_time
 284 0008 0346     		mov	r3, r0
 285              		.loc 5 129 1
ARM GAS  C:\Users\DEVELO~1\AppData\Local\Temp\ccB3i39m.s 			page 6


 286 000a 1846     		mov	r0, r3
 287 000c 80BD     		pop	{r7, pc}
 288              		.cfi_endproc
 289              	.LFE209:
 290              		.size	chVTGetSystemTimeX, .-chVTGetSystemTimeX
 291              		.section	.text.__vt_object_init,"ax",%progbits
 292              		.align	1
 293              		.syntax unified
 294              		.thumb
 295              		.thumb_func
 296              		.type	__vt_object_init, %function
 297              	__vt_object_init:
 298              	.LFB227:
 299              		.loc 5 509 66
 300              		.cfi_startproc
 301              		@ args = 0, pretend = 0, frame = 8
 302              		@ frame_needed = 1, uses_anonymous_args = 0
 303 0000 B0B5     		push	{r4, r5, r7, lr}
 304              		.cfi_def_cfa_offset 16
 305              		.cfi_offset 4, -16
 306              		.cfi_offset 5, -12
 307              		.cfi_offset 7, -8
 308              		.cfi_offset 14, -4
 309 0002 82B0     		sub	sp, sp, #8
 310              		.cfi_def_cfa_offset 24
 311 0004 00AF     		add	r7, sp, #0
 312              		.cfi_def_cfa_register 7
 313 0006 7860     		str	r0, [r7, #4]
 314              		.loc 5 511 3
 315 0008 7B68     		ldr	r3, [r7, #4]
 316 000a 1846     		mov	r0, r3
 317 000c FFF7FEFF 		bl	ch_dlist_init
 318              		.loc 5 515 18
 319 0010 7B68     		ldr	r3, [r7, #4]
 320 0012 0022     		movs	r2, #0
 321 0014 DA60     		str	r2, [r3, #12]
 322              		.loc 5 518 37
 323 0016 FFF7FEFF 		bl	chVTGetSystemTimeX
 324 001a 0346     		mov	r3, r0
 325              		.loc 5 518 21
 326 001c 0022     		movs	r2, #0
 327 001e 1C46     		mov	r4, r3
 328 0020 1546     		mov	r5, r2
 329              		.loc 5 518 19
 330 0022 7B68     		ldr	r3, [r7, #4]
 331 0024 C3E90445 		strd	r4, [r3, #16]
 332              		.loc 5 520 1
 333 0028 00BF     		nop
 334 002a 0837     		adds	r7, r7, #8
 335              		.cfi_def_cfa_offset 16
 336 002c BD46     		mov	sp, r7
 337              		.cfi_def_cfa_register 13
 338              		@ sp needed
 339 002e B0BD     		pop	{r4, r5, r7, pc}
 340              		.cfi_endproc
 341              	.LFE227:
 342              		.size	__vt_object_init, .-__vt_object_init
ARM GAS  C:\Users\DEVELO~1\AppData\Local\Temp\ccB3i39m.s 			page 7


 343              		.section	.text.__reg_object_init,"ax",%progbits
 344              		.align	1
 345              		.syntax unified
 346              		.thumb
 347              		.thumb_func
 348              		.type	__reg_object_init, %function
 349              	__reg_object_init:
 350              	.LFB239:
 351              		.file 6 "../../../os/rt/include/chregistry.h"
 352              		.loc 6 151 54
 353              		.cfi_startproc
 354              		@ args = 0, pretend = 0, frame = 8
 355              		@ frame_needed = 1, uses_anonymous_args = 0
 356 0000 80B5     		push	{r7, lr}
 357              		.cfi_def_cfa_offset 8
 358              		.cfi_offset 7, -8
 359              		.cfi_offset 14, -4
 360 0002 82B0     		sub	sp, sp, #8
 361              		.cfi_def_cfa_offset 16
 362 0004 00AF     		add	r7, sp, #0
 363              		.cfi_def_cfa_register 7
 364 0006 7860     		str	r0, [r7, #4]
 365              		.loc 6 153 3
 366 0008 7B68     		ldr	r3, [r7, #4]
 367 000a 1846     		mov	r0, r3
 368 000c FFF7FEFF 		bl	ch_queue_init
 369              		.loc 6 154 1
 370 0010 00BF     		nop
 371 0012 0837     		adds	r7, r7, #8
 372              		.cfi_def_cfa_offset 8
 373 0014 BD46     		mov	sp, r7
 374              		.cfi_def_cfa_register 13
 375              		@ sp needed
 376 0016 80BD     		pop	{r7, pc}
 377              		.cfi_endproc
 378              	.LFE239:
 379              		.size	__reg_object_init, .-__reg_object_init
 380              		.section	.text.__idle_thread,"ax",%progbits
 381              		.align	1
 382              		.syntax unified
 383              		.thumb
 384              		.thumb_func
 385              		.type	__idle_thread, %function
 386              	__idle_thread:
 387              	.LFB346:
 388              		.file 7 "../../../os/rt/src/chinstances.c"
 389              		.loc 7 62 36
 390              		.cfi_startproc
 391              		@ args = 0, pretend = 0, frame = 8
 392              		@ frame_needed = 1, uses_anonymous_args = 0
 393              		@ link register save eliminated.
 394 0000 80B4     		push	{r7}
 395              		.cfi_def_cfa_offset 4
 396              		.cfi_offset 7, -4
 397 0002 83B0     		sub	sp, sp, #12
 398              		.cfi_def_cfa_offset 16
 399 0004 00AF     		add	r7, sp, #0
ARM GAS  C:\Users\DEVELO~1\AppData\Local\Temp\ccB3i39m.s 			page 8


 400              		.cfi_def_cfa_register 7
 401 0006 7860     		str	r0, [r7, #4]
 402              	.L13:
 403              	.LBB4:
 404              	.LBB5:
 405              		.file 8 "../../../os/common/ports/ARMv7-M/chcore.h"
 406              		.loc 8 928 1 discriminator 1
 407 0008 00BF     		nop
 408              	.LBE5:
 409              	.LBE4:
 410              		.loc 7 69 5 discriminator 1
 411 000a FDE7     		b	.L13
 412              		.cfi_endproc
 413              	.LFE346:
 414              		.size	__idle_thread, .-__idle_thread
 415              		.section	.rodata
 416              		.align	2
 417              	.LC0:
 418 0000 69646C65 		.ascii	"idle\000"
 418      00
 419              		.section	.text.chInstanceObjectInit,"ax",%progbits
 420              		.align	1
 421              		.global	chInstanceObjectInit
 422              		.syntax unified
 423              		.thumb
 424              		.thumb_func
 425              		.type	chInstanceObjectInit, %function
 426              	chInstanceObjectInit:
 427              	.LFB347:
 428              		.loc 7 90 61
 429              		.cfi_startproc
 430              		@ args = 0, pretend = 0, frame = 40
 431              		@ frame_needed = 1, uses_anonymous_args = 0
 432 0000 80B5     		push	{r7, lr}
 433              		.cfi_def_cfa_offset 8
 434              		.cfi_offset 7, -8
 435              		.cfi_offset 14, -4
 436 0002 8AB0     		sub	sp, sp, #40
 437              		.cfi_def_cfa_offset 48
 438 0004 00AF     		add	r7, sp, #0
 439              		.cfi_def_cfa_register 7
 440 0006 7860     		str	r0, [r7, #4]
 441 0008 3960     		str	r1, [r7]
 442              		.loc 7 97 11
 443 000a 0023     		movs	r3, #0
 444 000c 7B62     		str	r3, [r7, #36]
 445              		.loc 7 100 32
 446 000e 2C4A     		ldr	r2, .L15
 447 0010 7B6A     		ldr	r3, [r7, #36]
 448 0012 9B00     		lsls	r3, r3, #2
 449 0014 1344     		add	r3, r3, r2
 450 0016 7A68     		ldr	r2, [r7, #4]
 451 0018 5A60     		str	r2, [r3, #4]
 452              		.loc 7 103 16
 453 001a 7B68     		ldr	r3, [r7, #4]
 454 001c 7A6A     		ldr	r2, [r7, #36]
 455 001e 1A63     		str	r2, [r3, #48]
ARM GAS  C:\Users\DEVELO~1\AppData\Local\Temp\ccB3i39m.s 			page 9


 456              		.loc 7 106 15
 457 0020 7B68     		ldr	r3, [r7, #4]
 458 0022 3A68     		ldr	r2, [r7]
 459 0024 9A63     		str	r2, [r3, #56]
 460              		.loc 7 109 3
 461 0026 7868     		ldr	r0, [r7, #4]
 462 0028 FFF7FEFF 		bl	port_init
 463              		.loc 7 112 3
 464 002c 7B68     		ldr	r3, [r7, #4]
 465 002e 1846     		mov	r0, r3
 466 0030 FFF7FEFF 		bl	ch_pqueue_init
 467              		.loc 7 116 3
 468 0034 7B68     		ldr	r3, [r7, #4]
 469 0036 2833     		adds	r3, r3, #40
 470 0038 1846     		mov	r0, r3
 471 003a FFF7FEFF 		bl	__reg_object_init
 472              		.loc 7 121 3
 473 003e 7B68     		ldr	r3, [r7, #4]
 474 0040 3433     		adds	r3, r3, #52
 475 0042 1846     		mov	r0, r3
 476 0044 FFF7FEFF 		bl	__rfcu_object_init
 477              		.loc 7 125 3
 478 0048 7B68     		ldr	r3, [r7, #4]
 479 004a 1033     		adds	r3, r3, #16
 480 004c 1846     		mov	r0, r3
 481 004e FFF7FEFF 		bl	__vt_object_init
 482              		.loc 7 128 3
 483 0052 7B68     		ldr	r3, [r7, #4]
 484 0054 8433     		adds	r3, r3, #132
 485 0056 1846     		mov	r0, r3
 486 0058 FFF7FEFF 		bl	__dbg_object_init
 487              		.loc 7 132 3
 488 005c 7B68     		ldr	r3, [r7, #4]
 489 005e 8833     		adds	r3, r3, #136
 490 0060 1846     		mov	r0, r3
 491 0062 FFF7FEFF 		bl	__trace_object_init
 492              		.loc 7 143 24
 493 0066 7B68     		ldr	r3, [r7, #4]
 494 0068 03F13C01 		add	r1, r3, #60
 495 006c 8023     		movs	r3, #128
 496 006e 154A     		ldr	r2, .L15+4
 497 0070 7868     		ldr	r0, [r7, #4]
 498 0072 FFF7FEFF 		bl	__thd_object_init
 499 0076 0246     		mov	r2, r0
 500              		.loc 7 143 22
 501 0078 7B68     		ldr	r3, [r7, #4]
 502 007a DA60     		str	r2, [r3, #12]
 503              		.loc 7 156 13
 504 007c 7B68     		ldr	r3, [r7, #4]
 505 007e DB68     		ldr	r3, [r3, #12]
 506              		.loc 7 156 36
 507 0080 3A68     		ldr	r2, [r7]
 508 0082 5268     		ldr	r2, [r2, #4]
 509              		.loc 7 156 30
 510 0084 1A62     		str	r2, [r3, #32]
 511              		.loc 7 160 13
 512 0086 7B68     		ldr	r3, [r7, #4]
ARM GAS  C:\Users\DEVELO~1\AppData\Local\Temp\ccB3i39m.s 			page 10


 513 0088 DB68     		ldr	r3, [r3, #12]
 514              		.loc 7 160 29
 515 008a 0122     		movs	r2, #1
 516 008c 83F82420 		strb	r2, [r3, #36]
 517              	.LBB6:
 518              		.loc 7 172 25
 519 0090 0D4B     		ldr	r3, .L15+8
 520 0092 FB60     		str	r3, [r7, #12]
 521              		.loc 7 174 23
 522 0094 3B68     		ldr	r3, [r7]
 523 0096 DB68     		ldr	r3, [r3, #12]
 524              		.loc 7 172 25
 525 0098 3B61     		str	r3, [r7, #16]
 526              		.loc 7 175 23
 527 009a 3B68     		ldr	r3, [r7]
 528 009c 1B69     		ldr	r3, [r3, #16]
 529              		.loc 7 172 25
 530 009e 7B61     		str	r3, [r7, #20]
 531 00a0 0123     		movs	r3, #1
 532 00a2 BB61     		str	r3, [r7, #24]
 533 00a4 094B     		ldr	r3, .L15+12
 534 00a6 FB61     		str	r3, [r7, #28]
 535 00a8 0023     		movs	r3, #0
 536 00aa 3B62     		str	r3, [r7, #32]
 537              		.loc 7 189 12
 538 00ac 07F10C03 		add	r3, r7, #12
 539 00b0 1846     		mov	r0, r3
 540 00b2 FFF7FEFF 		bl	chThdCreateI
 541              	.LBE6:
 542              		.loc 7 192 1
 543 00b6 00BF     		nop
 544 00b8 2837     		adds	r7, r7, #40
 545              		.cfi_def_cfa_offset 8
 546 00ba BD46     		mov	sp, r7
 547              		.cfi_def_cfa_register 13
 548              		@ sp needed
 549 00bc 80BD     		pop	{r7, pc}
 550              	.L16:
 551 00be 00BF     		.align	2
 552              	.L15:
 553 00c0 00000000 		.word	ch_system
 554 00c4 00000000 		.word	ch_debug
 555 00c8 00000000 		.word	.LC0
 556 00cc 00000000 		.word	__idle_thread
 557              		.cfi_endproc
 558              	.LFE347:
 559              		.size	chInstanceObjectInit, .-chInstanceObjectInit
 560              		.text
 561              	.Letext0:
 562              		.file 9 "c:\\chibistudio\\tools\\gnu tools arm embedded\\11.3 2022.08\\arm-none-eabi\\include\\mac
 563              		.file 10 "c:\\chibistudio\\tools\\gnu tools arm embedded\\11.3 2022.08\\arm-none-eabi\\include\\sy
 564              		.file 11 "../../../os/common/ports/ARM-common/chtypes.h"
 565              		.file 12 "../../../os/rt/include/chearly.h"
 566              		.file 13 "../../../os/rt/include/chobjects.h"
 567              		.file 14 "../../../os/rt/include/chtime.h"
 568              		.file 15 "../../../os/rt/include/chtrace.h"
 569              		.file 16 "../../../os/rt/include/chtm.h"
ARM GAS  C:\Users\DEVELO~1\AppData\Local\Temp\ccB3i39m.s 			page 11


 570              		.file 17 "../../../os/rt/include/chsem.h"
 571              		.file 18 "../../../os/rt/include/chmtx.h"
 572              		.file 19 "../../../os/rt/include/chthreads.h"
 573              		.file 20 "../../../os/rt/include/chsys.h"