ARM GAS  C:\Users\DEVELO~1\AppData\Local\Temp\ccnKUYf1.s 			page 1


   1              		.cpu cortex-m7
   2              		.arch armv7e-m
   3              		.fpu softvfp
   4              		.eabi_attribute 20, 1
   5              		.eabi_attribute 21, 1
   6              		.eabi_attribute 23, 3
   7              		.eabi_attribute 24, 1
   8              		.eabi_attribute 25, 1
   9              		.eabi_attribute 26, 1
  10              		.eabi_attribute 30, 6
  11              		.eabi_attribute 34, 1
  12              		.eabi_attribute 18, 4
  13              		.file	"chmboxes.c"
  14              		.text
  15              	.Ltext0:
  16              		.cfi_sections	.debug_frame
  17              		.section	.text.ch_queue_init,"ax",%progbits
  18              		.align	1
  19              		.syntax unified
  20              		.thumb
  21              		.thumb_func
  22              		.type	ch_queue_init, %function
  23              	ch_queue_init:
  24              	.LFB19:
  25              		.file 1 "../../../os/rt/include/chlists.h"
  26              		.loc 1 222 50
  27              		.cfi_startproc
  28              		@ args = 0, pretend = 0, frame = 8
  29              		@ frame_needed = 1, uses_anonymous_args = 0
  30              		@ link register save eliminated.
  31 0000 80B4     		push	{r7}
  32              		.cfi_def_cfa_offset 4
  33              		.cfi_offset 7, -4
  34 0002 83B0     		sub	sp, sp, #12
  35              		.cfi_def_cfa_offset 16
  36 0004 00AF     		add	r7, sp, #0
  37              		.cfi_def_cfa_register 7
  38 0006 7860     		str	r0, [r7, #4]
  39              		.loc 1 224 12
  40 0008 7B68     		ldr	r3, [r7, #4]
  41 000a 7A68     		ldr	r2, [r7, #4]
  42 000c 1A60     		str	r2, [r3]
  43              		.loc 1 225 12
  44 000e 7B68     		ldr	r3, [r7, #4]
  45 0010 7A68     		ldr	r2, [r7, #4]
  46 0012 5A60     		str	r2, [r3, #4]
  47              		.loc 1 226 1
  48 0014 00BF     		nop
  49 0016 0C37     		adds	r7, r7, #12
  50              		.cfi_def_cfa_offset 4
  51 0018 BD46     		mov	sp, r7
  52              		.cfi_def_cfa_register 13
  53              		@ sp needed
  54 001a 80BC     		pop	{r7}
  55              		.cfi_restore 7
  56              		.cfi_def_cfa_offset 0
  57 001c 7047     		bx	lr
ARM GAS  C:\Users\DEVELO~1\AppData\Local\Temp\ccnKUYf1.s 			page 2


  58              		.cfi_endproc
  59              	.LFE19:
  60              		.size	ch_queue_init, .-ch_queue_init
  61              		.section	.text.chSysLock,"ax",%progbits
  62              		.align	1
  63              		.syntax unified
  64              		.thumb
  65              		.thumb_func
  66              		.type	chSysLock, %function
  67              	chSysLock:
  68              	.LFB202:
  69              		.file 2 "../../../os/rt/include/chsys.h"
  70              		.loc 2 407 36
  71              		.cfi_startproc
  72              		@ args = 0, pretend = 0, frame = 8
  73              		@ frame_needed = 1, uses_anonymous_args = 0
  74              		@ link register save eliminated.
  75 0000 80B4     		push	{r7}
  76              		.cfi_def_cfa_offset 4
  77              		.cfi_offset 7, -4
  78 0002 83B0     		sub	sp, sp, #12
  79              		.cfi_def_cfa_offset 16
  80 0004 00AF     		add	r7, sp, #0
  81              		.cfi_def_cfa_register 7
  82 0006 3023     		movs	r3, #48
  83 0008 7B60     		str	r3, [r7, #4]
  84              	.LBB14:
  85              	.LBB15:
  86              	.LBB16:
  87              	.LBB17:
  88              		.file 3 "../../../os/common/ext/ARM/CMSIS/Core/Include/cmsis_gcc.h"
  89              		.loc 3 493 3
  90 000a 7B68     		ldr	r3, [r7, #4]
  91              		.syntax unified
  92              	@ 493 "../../../os/common/ext/ARM/CMSIS/Core/Include/cmsis_gcc.h" 1
  93 000c 83F31188 		MSR basepri, r3
  94              	@ 0 "" 2
  95              		.loc 3 494 1
  96              		.thumb
  97              		.syntax unified
  98 0010 00BF     		nop
  99              	.LBE17:
 100              	.LBE16:
 101              		.file 4 "../../../os/common/ports/ARMv7-M/chcore.h"
 102              		.loc 4 840 1
 103 0012 00BF     		nop
 104              	.LBE15:
 105              	.LBE14:
 106              		.loc 2 412 1
 107 0014 00BF     		nop
 108 0016 0C37     		adds	r7, r7, #12
 109              		.cfi_def_cfa_offset 4
 110 0018 BD46     		mov	sp, r7
 111              		.cfi_def_cfa_register 13
 112              		@ sp needed
 113 001a 80BC     		pop	{r7}
 114              		.cfi_restore 7
ARM GAS  C:\Users\DEVELO~1\AppData\Local\Temp\ccnKUYf1.s 			page 3


 115              		.cfi_def_cfa_offset 0
 116 001c 7047     		bx	lr
 117              		.cfi_endproc
 118              	.LFE202:
 119              		.size	chSysLock, .-chSysLock
 120              		.section	.text.chSysUnlock,"ax",%progbits
 121              		.align	1
 122              		.syntax unified
 123              		.thumb
 124              		.thumb_func
 125              		.type	chSysUnlock, %function
 126              	chSysUnlock:
 127              	.LFB203:
 128              		.loc 2 421 38
 129              		.cfi_startproc
 130              		@ args = 0, pretend = 0, frame = 8
 131              		@ frame_needed = 1, uses_anonymous_args = 0
 132              		@ link register save eliminated.
 133 0000 80B4     		push	{r7}
 134              		.cfi_def_cfa_offset 4
 135              		.cfi_offset 7, -4
 136 0002 83B0     		sub	sp, sp, #12
 137              		.cfi_def_cfa_offset 16
 138 0004 00AF     		add	r7, sp, #0
 139              		.cfi_def_cfa_register 7
 140 0006 0023     		movs	r3, #0
 141 0008 7B60     		str	r3, [r7, #4]
 142              	.LBB18:
 143              	.LBB19:
 144              	.LBB20:
 145              	.LBB21:
 146              		.loc 3 493 3
 147 000a 7B68     		ldr	r3, [r7, #4]
 148              		.syntax unified
 149              	@ 493 "../../../os/common/ext/ARM/CMSIS/Core/Include/cmsis_gcc.h" 1
 150 000c 83F31188 		MSR basepri, r3
 151              	@ 0 "" 2
 152              		.loc 3 494 1
 153              		.thumb
 154              		.syntax unified
 155 0010 00BF     		nop
 156              	.LBE21:
 157              	.LBE20:
 158              		.loc 4 854 1
 159 0012 00BF     		nop
 160              	.LBE19:
 161              	.LBE18:
 162              		.loc 2 435 1
 163 0014 00BF     		nop
 164 0016 0C37     		adds	r7, r7, #12
 165              		.cfi_def_cfa_offset 4
 166 0018 BD46     		mov	sp, r7
 167              		.cfi_def_cfa_register 13
 168              		@ sp needed
 169 001a 80BC     		pop	{r7}
 170              		.cfi_restore 7
 171              		.cfi_def_cfa_offset 0
ARM GAS  C:\Users\DEVELO~1\AppData\Local\Temp\ccnKUYf1.s 			page 4


 172 001c 7047     		bx	lr
 173              		.cfi_endproc
 174              	.LFE203:
 175              		.size	chSysUnlock, .-chSysUnlock
 176              		.section	.text.chThdQueueObjectInit,"ax",%progbits
 177              		.align	1
 178              		.syntax unified
 179              		.thumb
 180              		.thumb_func
 181              		.type	chThdQueueObjectInit, %function
 182              	chThdQueueObjectInit:
 183              	.LFB236:
 184              		.file 5 "../../../os/rt/include/chthreads.h"
 185              		.loc 5 461 63
 186              		.cfi_startproc
 187              		@ args = 0, pretend = 0, frame = 8
 188              		@ frame_needed = 1, uses_anonymous_args = 0
 189 0000 80B5     		push	{r7, lr}
 190              		.cfi_def_cfa_offset 8
 191              		.cfi_offset 7, -8
 192              		.cfi_offset 14, -4
 193 0002 82B0     		sub	sp, sp, #8
 194              		.cfi_def_cfa_offset 16
 195 0004 00AF     		add	r7, sp, #0
 196              		.cfi_def_cfa_register 7
 197 0006 7860     		str	r0, [r7, #4]
 198              		.loc 5 463 3
 199 0008 7B68     		ldr	r3, [r7, #4]
 200 000a 1846     		mov	r0, r3
 201 000c FFF7FEFF 		bl	ch_queue_init
 202              		.loc 5 464 1
 203 0010 00BF     		nop
 204 0012 0837     		adds	r7, r7, #8
 205              		.cfi_def_cfa_offset 8
 206 0014 BD46     		mov	sp, r7
 207              		.cfi_def_cfa_register 13
 208              		@ sp needed
 209 0016 80BD     		pop	{r7, pc}
 210              		.cfi_endproc
 211              	.LFE236:
 212              		.size	chThdQueueObjectInit, .-chThdQueueObjectInit
 213              		.section	.text.chMBGetSizeI,"ax",%progbits
 214              		.align	1
 215              		.syntax unified
 216              		.thumb
 217              		.thumb_func
 218              		.type	chMBGetSizeI, %function
 219              	chMBGetSizeI:
 220              	.LFB275:
 221              		.file 6 "../../../os/oslib/include/chmboxes.h"
 222              		.loc 6 136 57
 223              		.cfi_startproc
 224              		@ args = 0, pretend = 0, frame = 8
 225              		@ frame_needed = 1, uses_anonymous_args = 0
 226              		@ link register save eliminated.
 227 0000 80B4     		push	{r7}
 228              		.cfi_def_cfa_offset 4
ARM GAS  C:\Users\DEVELO~1\AppData\Local\Temp\ccnKUYf1.s 			page 5


 229              		.cfi_offset 7, -4
 230 0002 83B0     		sub	sp, sp, #12
 231              		.cfi_def_cfa_offset 16
 232 0004 00AF     		add	r7, sp, #0
 233              		.cfi_def_cfa_register 7
 234 0006 7860     		str	r0, [r7, #4]
 235              		.loc 6 140 22
 236 0008 7B68     		ldr	r3, [r7, #4]
 237 000a 5A68     		ldr	r2, [r3, #4]
 238              		.loc 6 140 33
 239 000c 7B68     		ldr	r3, [r7, #4]
 240 000e 1B68     		ldr	r3, [r3]
 241              		.loc 6 140 28
 242 0010 D31A     		subs	r3, r2, r3
 243 0012 9B10     		asrs	r3, r3, #2
 244              		.loc 6 142 1
 245 0014 1846     		mov	r0, r3
 246 0016 0C37     		adds	r7, r7, #12
 247              		.cfi_def_cfa_offset 4
 248 0018 BD46     		mov	sp, r7
 249              		.cfi_def_cfa_register 13
 250              		@ sp needed
 251 001a 80BC     		pop	{r7}
 252              		.cfi_restore 7
 253              		.cfi_def_cfa_offset 0
 254 001c 7047     		bx	lr
 255              		.cfi_endproc
 256              	.LFE275:
 257              		.size	chMBGetSizeI, .-chMBGetSizeI
 258              		.section	.text.chMBGetUsedCountI,"ax",%progbits
 259              		.align	1
 260              		.syntax unified
 261              		.thumb
 262              		.thumb_func
 263              		.type	chMBGetUsedCountI, %function
 264              	chMBGetUsedCountI:
 265              	.LFB276:
 266              		.loc 6 152 62
 267              		.cfi_startproc
 268              		@ args = 0, pretend = 0, frame = 8
 269              		@ frame_needed = 1, uses_anonymous_args = 0
 270              		@ link register save eliminated.
 271 0000 80B4     		push	{r7}
 272              		.cfi_def_cfa_offset 4
 273              		.cfi_offset 7, -4
 274 0002 83B0     		sub	sp, sp, #12
 275              		.cfi_def_cfa_offset 16
 276 0004 00AF     		add	r7, sp, #0
 277              		.cfi_def_cfa_register 7
 278 0006 7860     		str	r0, [r7, #4]
 279              		.loc 6 156 13
 280 0008 7B68     		ldr	r3, [r7, #4]
 281 000a 1B69     		ldr	r3, [r3, #16]
 282              		.loc 6 157 1
 283 000c 1846     		mov	r0, r3
 284 000e 0C37     		adds	r7, r7, #12
 285              		.cfi_def_cfa_offset 4
ARM GAS  C:\Users\DEVELO~1\AppData\Local\Temp\ccnKUYf1.s 			page 6


 286 0010 BD46     		mov	sp, r7
 287              		.cfi_def_cfa_register 13
 288              		@ sp needed
 289 0012 80BC     		pop	{r7}
 290              		.cfi_restore 7
 291              		.cfi_def_cfa_offset 0
 292 0014 7047     		bx	lr
 293              		.cfi_endproc
 294              	.LFE276:
 295              		.size	chMBGetUsedCountI, .-chMBGetUsedCountI
 296              		.section	.text.chMBGetFreeCountI,"ax",%progbits
 297              		.align	1
 298              		.syntax unified
 299              		.thumb
 300              		.thumb_func
 301              		.type	chMBGetFreeCountI, %function
 302              	chMBGetFreeCountI:
 303              	.LFB277:
 304              		.loc 6 167 62
 305              		.cfi_startproc
 306              		@ args = 0, pretend = 0, frame = 8
 307              		@ frame_needed = 1, uses_anonymous_args = 0
 308 0000 90B5     		push	{r4, r7, lr}
 309              		.cfi_def_cfa_offset 12
 310              		.cfi_offset 4, -12
 311              		.cfi_offset 7, -8
 312              		.cfi_offset 14, -4
 313 0002 83B0     		sub	sp, sp, #12
 314              		.cfi_def_cfa_offset 24
 315 0004 00AF     		add	r7, sp, #0
 316              		.cfi_def_cfa_register 7
 317 0006 7860     		str	r0, [r7, #4]
 318              		.loc 6 171 10
 319 0008 7868     		ldr	r0, [r7, #4]
 320 000a FFF7FEFF 		bl	chMBGetSizeI
 321 000e 0446     		mov	r4, r0
 322              		.loc 6 171 30
 323 0010 7868     		ldr	r0, [r7, #4]
 324 0012 FFF7FEFF 		bl	chMBGetUsedCountI
 325 0016 0346     		mov	r3, r0
 326              		.loc 6 171 28
 327 0018 E31A     		subs	r3, r4, r3
 328              		.loc 6 172 1
 329 001a 1846     		mov	r0, r3
 330 001c 0C37     		adds	r7, r7, #12
 331              		.cfi_def_cfa_offset 12
 332 001e BD46     		mov	sp, r7
 333              		.cfi_def_cfa_register 13
 334              		@ sp needed
 335 0020 90BD     		pop	{r4, r7, pc}
 336              		.cfi_endproc
 337              	.LFE277:
 338              		.size	chMBGetFreeCountI, .-chMBGetFreeCountI
 339              		.section	.text.chMBObjectInit,"ax",%progbits
 340              		.align	1
 341              		.global	chMBObjectInit
 342              		.syntax unified
ARM GAS  C:\Users\DEVELO~1\AppData\Local\Temp\ccnKUYf1.s 			page 7


 343              		.thumb
 344              		.thumb_func
 345              		.type	chMBObjectInit, %function
 346              	chMBObjectInit:
 347              	.LFB346:
 348              		.file 7 "../../../os/oslib/src/chmboxes.c"
 349              		.loc 7 87 59
 350              		.cfi_startproc
 351              		@ args = 0, pretend = 0, frame = 16
 352              		@ frame_needed = 1, uses_anonymous_args = 0
 353 0000 80B5     		push	{r7, lr}
 354              		.cfi_def_cfa_offset 8
 355              		.cfi_offset 7, -8
 356              		.cfi_offset 14, -4
 357 0002 84B0     		sub	sp, sp, #16
 358              		.cfi_def_cfa_offset 24
 359 0004 00AF     		add	r7, sp, #0
 360              		.cfi_def_cfa_register 7
 361 0006 F860     		str	r0, [r7, #12]
 362 0008 B960     		str	r1, [r7, #8]
 363 000a 7A60     		str	r2, [r7, #4]
 364              		.loc 7 91 15
 365 000c FB68     		ldr	r3, [r7, #12]
 366 000e BA68     		ldr	r2, [r7, #8]
 367 0010 1A60     		str	r2, [r3]
 368              		.loc 7 92 15
 369 0012 FB68     		ldr	r3, [r7, #12]
 370 0014 BA68     		ldr	r2, [r7, #8]
 371 0016 DA60     		str	r2, [r3, #12]
 372              		.loc 7 93 15
 373 0018 FB68     		ldr	r3, [r7, #12]
 374 001a BA68     		ldr	r2, [r7, #8]
 375 001c 9A60     		str	r2, [r3, #8]
 376              		.loc 7 94 21
 377 001e 7B68     		ldr	r3, [r7, #4]
 378 0020 9B00     		lsls	r3, r3, #2
 379              		.loc 7 94 17
 380 0022 BA68     		ldr	r2, [r7, #8]
 381 0024 1A44     		add	r2, r2, r3
 382              		.loc 7 94 15
 383 0026 FB68     		ldr	r3, [r7, #12]
 384 0028 5A60     		str	r2, [r3, #4]
 385              		.loc 7 95 15
 386 002a FB68     		ldr	r3, [r7, #12]
 387 002c 0022     		movs	r2, #0
 388 002e 1A61     		str	r2, [r3, #16]
 389              		.loc 7 96 15
 390 0030 FB68     		ldr	r3, [r7, #12]
 391 0032 0022     		movs	r2, #0
 392 0034 1A75     		strb	r2, [r3, #20]
 393              		.loc 7 97 3
 394 0036 FB68     		ldr	r3, [r7, #12]
 395 0038 1833     		adds	r3, r3, #24
 396 003a 1846     		mov	r0, r3
 397 003c FFF7FEFF 		bl	chThdQueueObjectInit
 398              		.loc 7 98 3
 399 0040 FB68     		ldr	r3, [r7, #12]
ARM GAS  C:\Users\DEVELO~1\AppData\Local\Temp\ccnKUYf1.s 			page 8


 400 0042 2033     		adds	r3, r3, #32
 401 0044 1846     		mov	r0, r3
 402 0046 FFF7FEFF 		bl	chThdQueueObjectInit
 403              		.loc 7 99 1
 404 004a 00BF     		nop
 405 004c 1037     		adds	r7, r7, #16
 406              		.cfi_def_cfa_offset 8
 407 004e BD46     		mov	sp, r7
 408              		.cfi_def_cfa_register 13
 409              		@ sp needed
 410 0050 80BD     		pop	{r7, pc}
 411              		.cfi_endproc
 412              	.LFE346:
 413              		.size	chMBObjectInit, .-chMBObjectInit
 414              		.section	.text.chMBReset,"ax",%progbits
 415              		.align	1
 416              		.global	chMBReset
 417              		.syntax unified
 418              		.thumb
 419              		.thumb_func
 420              		.type	chMBReset, %function
 421              	chMBReset:
 422              	.LFB347:
 423              		.loc 7 113 32
 424              		.cfi_startproc
 425              		@ args = 0, pretend = 0, frame = 8
 426              		@ frame_needed = 1, uses_anonymous_args = 0
 427 0000 80B5     		push	{r7, lr}
 428              		.cfi_def_cfa_offset 8
 429              		.cfi_offset 7, -8
 430              		.cfi_offset 14, -4
 431 0002 82B0     		sub	sp, sp, #8
 432              		.cfi_def_cfa_offset 16
 433 0004 00AF     		add	r7, sp, #0
 434              		.cfi_def_cfa_register 7
 435 0006 7860     		str	r0, [r7, #4]
 436              		.loc 7 115 3
 437 0008 FFF7FEFF 		bl	chSysLock
 438              		.loc 7 116 3
 439 000c 7868     		ldr	r0, [r7, #4]
 440 000e FFF7FEFF 		bl	chMBResetI
 441              		.loc 7 117 3
 442 0012 FFF7FEFF 		bl	chSchRescheduleS
 443              		.loc 7 118 3
 444 0016 FFF7FEFF 		bl	chSysUnlock
 445              		.loc 7 119 1
 446 001a 00BF     		nop
 447 001c 0837     		adds	r7, r7, #8
 448              		.cfi_def_cfa_offset 8
 449 001e BD46     		mov	sp, r7
 450              		.cfi_def_cfa_register 13
 451              		@ sp needed
 452 0020 80BD     		pop	{r7, pc}
 453              		.cfi_endproc
 454              	.LFE347:
 455              		.size	chMBReset, .-chMBReset
 456              		.section	.text.chMBResetI,"ax",%progbits
ARM GAS  C:\Users\DEVELO~1\AppData\Local\Temp\ccnKUYf1.s 			page 9


 457              		.align	1
 458              		.global	chMBResetI
 459              		.syntax unified
 460              		.thumb
 461              		.thumb_func
 462              		.type	chMBResetI, %function
 463              	chMBResetI:
 464              	.LFB348:
 465              		.loc 7 133 33
 466              		.cfi_startproc
 467              		@ args = 0, pretend = 0, frame = 8
 468              		@ frame_needed = 1, uses_anonymous_args = 0
 469 0000 80B5     		push	{r7, lr}
 470              		.cfi_def_cfa_offset 8
 471              		.cfi_offset 7, -8
 472              		.cfi_offset 14, -4
 473 0002 82B0     		sub	sp, sp, #8
 474              		.cfi_def_cfa_offset 16
 475 0004 00AF     		add	r7, sp, #0
 476              		.cfi_def_cfa_register 7
 477 0006 7860     		str	r0, [r7, #4]
 478              		.loc 7 138 19
 479 0008 7B68     		ldr	r3, [r7, #4]
 480 000a 1A68     		ldr	r2, [r3]
 481              		.loc 7 138 14
 482 000c 7B68     		ldr	r3, [r7, #4]
 483 000e 9A60     		str	r2, [r3, #8]
 484              		.loc 7 139 19
 485 0010 7B68     		ldr	r3, [r7, #4]
 486 0012 1A68     		ldr	r2, [r3]
 487              		.loc 7 139 14
 488 0014 7B68     		ldr	r3, [r7, #4]
 489 0016 DA60     		str	r2, [r3, #12]
 490              		.loc 7 140 14
 491 0018 7B68     		ldr	r3, [r7, #4]
 492 001a 0022     		movs	r2, #0
 493 001c 1A61     		str	r2, [r3, #16]
 494              		.loc 7 141 14
 495 001e 7B68     		ldr	r3, [r7, #4]
 496 0020 0122     		movs	r2, #1
 497 0022 1A75     		strb	r2, [r3, #20]
 498              		.loc 7 142 3
 499 0024 7B68     		ldr	r3, [r7, #4]
 500 0026 1833     		adds	r3, r3, #24
 501 0028 6FF00101 		mvn	r1, #1
 502 002c 1846     		mov	r0, r3
 503 002e FFF7FEFF 		bl	chThdDequeueAllI
 504              		.loc 7 143 3
 505 0032 7B68     		ldr	r3, [r7, #4]
 506 0034 2033     		adds	r3, r3, #32
 507 0036 6FF00101 		mvn	r1, #1
 508 003a 1846     		mov	r0, r3
 509 003c FFF7FEFF 		bl	chThdDequeueAllI
 510              		.loc 7 144 1
 511 0040 00BF     		nop
 512 0042 0837     		adds	r7, r7, #8
 513              		.cfi_def_cfa_offset 8
ARM GAS  C:\Users\DEVELO~1\AppData\Local\Temp\ccnKUYf1.s 			page 10


 514 0044 BD46     		mov	sp, r7
 515              		.cfi_def_cfa_register 13
 516              		@ sp needed
 517 0046 80BD     		pop	{r7, pc}
 518              		.cfi_endproc
 519              	.LFE348:
 520              		.size	chMBResetI, .-chMBResetI
 521              		.section	.text.chMBPostTimeout,"ax",%progbits
 522              		.align	1
 523              		.global	chMBPostTimeout
 524              		.syntax unified
 525              		.thumb
 526              		.thumb_func
 527              		.type	chMBPostTimeout, %function
 528              	chMBPostTimeout:
 529              	.LFB349:
 530              		.loc 7 165 73
 531              		.cfi_startproc
 532              		@ args = 0, pretend = 0, frame = 24
 533              		@ frame_needed = 1, uses_anonymous_args = 0
 534 0000 80B5     		push	{r7, lr}
 535              		.cfi_def_cfa_offset 8
 536              		.cfi_offset 7, -8
 537              		.cfi_offset 14, -4
 538 0002 86B0     		sub	sp, sp, #24
 539              		.cfi_def_cfa_offset 32
 540 0004 00AF     		add	r7, sp, #0
 541              		.cfi_def_cfa_register 7
 542 0006 F860     		str	r0, [r7, #12]
 543 0008 B960     		str	r1, [r7, #8]
 544 000a 7A60     		str	r2, [r7, #4]
 545              		.loc 7 168 3
 546 000c FFF7FEFF 		bl	chSysLock
 547              		.loc 7 169 12
 548 0010 7A68     		ldr	r2, [r7, #4]
 549 0012 B968     		ldr	r1, [r7, #8]
 550 0014 F868     		ldr	r0, [r7, #12]
 551 0016 FFF7FEFF 		bl	chMBPostTimeoutS
 552 001a 7861     		str	r0, [r7, #20]
 553              		.loc 7 170 3
 554 001c FFF7FEFF 		bl	chSysUnlock
 555              		.loc 7 172 10
 556 0020 7B69     		ldr	r3, [r7, #20]
 557              		.loc 7 173 1
 558 0022 1846     		mov	r0, r3
 559 0024 1837     		adds	r7, r7, #24
 560              		.cfi_def_cfa_offset 8
 561 0026 BD46     		mov	sp, r7
 562              		.cfi_def_cfa_register 13
 563              		@ sp needed
 564 0028 80BD     		pop	{r7, pc}
 565              		.cfi_endproc
 566              	.LFE349:
 567              		.size	chMBPostTimeout, .-chMBPostTimeout
 568              		.section	.text.chMBPostTimeoutS,"ax",%progbits
 569              		.align	1
 570              		.global	chMBPostTimeoutS
ARM GAS  C:\Users\DEVELO~1\AppData\Local\Temp\ccnKUYf1.s 			page 11


 571              		.syntax unified
 572              		.thumb
 573              		.thumb_func
 574              		.type	chMBPostTimeoutS, %function
 575              	chMBPostTimeoutS:
 576              	.LFB350:
 577              		.loc 7 194 74
 578              		.cfi_startproc
 579              		@ args = 0, pretend = 0, frame = 24
 580              		@ frame_needed = 1, uses_anonymous_args = 0
 581 0000 80B5     		push	{r7, lr}
 582              		.cfi_def_cfa_offset 8
 583              		.cfi_offset 7, -8
 584              		.cfi_offset 14, -4
 585 0002 86B0     		sub	sp, sp, #24
 586              		.cfi_def_cfa_offset 32
 587 0004 00AF     		add	r7, sp, #0
 588              		.cfi_def_cfa_register 7
 589 0006 F860     		str	r0, [r7, #12]
 590 0008 B960     		str	r1, [r7, #8]
 591 000a 7A60     		str	r2, [r7, #4]
 592              	.L21:
 593              		.loc 7 202 12
 594 000c FB68     		ldr	r3, [r7, #12]
 595 000e 1B7D     		ldrb	r3, [r3, #20]	@ zero_extendqisi2
 596              		.loc 7 202 8
 597 0010 002B     		cmp	r3, #0
 598 0012 02D0     		beq	.L17
 599              		.loc 7 203 14
 600 0014 6FF00103 		mvn	r3, #1
 601 0018 30E0     		b	.L18
 602              	.L17:
 603              		.loc 7 207 9
 604 001a F868     		ldr	r0, [r7, #12]
 605 001c FFF7FEFF 		bl	chMBGetFreeCountI
 606 0020 0346     		mov	r3, r0
 607              		.loc 7 207 8
 608 0022 002B     		cmp	r3, #0
 609 0024 1FD0     		beq	.L19
 610              		.loc 7 208 11
 611 0026 FB68     		ldr	r3, [r7, #12]
 612 0028 9B68     		ldr	r3, [r3, #8]
 613              		.loc 7 208 18
 614 002a 191D     		adds	r1, r3, #4
 615 002c FA68     		ldr	r2, [r7, #12]
 616 002e 9160     		str	r1, [r2, #8]
 617              		.loc 7 208 21
 618 0030 BA68     		ldr	r2, [r7, #8]
 619 0032 1A60     		str	r2, [r3]
 620              		.loc 7 209 14
 621 0034 FB68     		ldr	r3, [r7, #12]
 622 0036 9A68     		ldr	r2, [r3, #8]
 623              		.loc 7 209 28
 624 0038 FB68     		ldr	r3, [r7, #12]
 625 003a 5B68     		ldr	r3, [r3, #4]
 626              		.loc 7 209 10
 627 003c 9A42     		cmp	r2, r3
ARM GAS  C:\Users\DEVELO~1\AppData\Local\Temp\ccnKUYf1.s 			page 12


 628 003e 03D3     		bcc	.L20
 629              		.loc 7 210 25
 630 0040 FB68     		ldr	r3, [r7, #12]
 631 0042 1A68     		ldr	r2, [r3]
 632              		.loc 7 210 20
 633 0044 FB68     		ldr	r3, [r7, #12]
 634 0046 9A60     		str	r2, [r3, #8]
 635              	.L20:
 636              		.loc 7 212 10
 637 0048 FB68     		ldr	r3, [r7, #12]
 638 004a 1B69     		ldr	r3, [r3, #16]
 639              		.loc 7 212 15
 640 004c 5A1C     		adds	r2, r3, #1
 641 004e FB68     		ldr	r3, [r7, #12]
 642 0050 1A61     		str	r2, [r3, #16]
 643              		.loc 7 215 7
 644 0052 FB68     		ldr	r3, [r7, #12]
 645 0054 2033     		adds	r3, r3, #32
 646 0056 0021     		movs	r1, #0
 647 0058 1846     		mov	r0, r3
 648 005a FFF7FEFF 		bl	chThdDequeueNextI
 649              		.loc 7 216 7
 650 005e FFF7FEFF 		bl	chSchRescheduleS
 651              		.loc 7 218 14
 652 0062 0023     		movs	r3, #0
 653 0064 0AE0     		b	.L18
 654              	.L19:
 655              		.loc 7 222 14
 656 0066 FB68     		ldr	r3, [r7, #12]
 657 0068 1833     		adds	r3, r3, #24
 658 006a 7968     		ldr	r1, [r7, #4]
 659 006c 1846     		mov	r0, r3
 660 006e FFF7FEFF 		bl	chThdEnqueueTimeoutS
 661 0072 7861     		str	r0, [r7, #20]
 662              		.loc 7 223 19
 663 0074 7B69     		ldr	r3, [r7, #20]
 664 0076 002B     		cmp	r3, #0
 665 0078 C8D0     		beq	.L21
 666              		.loc 7 225 10
 667 007a 7B69     		ldr	r3, [r7, #20]
 668              	.L18:
 669              		.loc 7 226 1
 670 007c 1846     		mov	r0, r3
 671 007e 1837     		adds	r7, r7, #24
 672              		.cfi_def_cfa_offset 8
 673 0080 BD46     		mov	sp, r7
 674              		.cfi_def_cfa_register 13
 675              		@ sp needed
 676 0082 80BD     		pop	{r7, pc}
 677              		.cfi_endproc
 678              	.LFE350:
 679              		.size	chMBPostTimeoutS, .-chMBPostTimeoutS
 680              		.section	.text.chMBPostI,"ax",%progbits
 681              		.align	1
 682              		.global	chMBPostI
 683              		.syntax unified
 684              		.thumb
ARM GAS  C:\Users\DEVELO~1\AppData\Local\Temp\ccnKUYf1.s 			page 13


 685              		.thumb_func
 686              		.type	chMBPostI, %function
 687              	chMBPostI:
 688              	.LFB351:
 689              		.loc 7 243 44
 690              		.cfi_startproc
 691              		@ args = 0, pretend = 0, frame = 8
 692              		@ frame_needed = 1, uses_anonymous_args = 0
 693 0000 80B5     		push	{r7, lr}
 694              		.cfi_def_cfa_offset 8
 695              		.cfi_offset 7, -8
 696              		.cfi_offset 14, -4
 697 0002 82B0     		sub	sp, sp, #8
 698              		.cfi_def_cfa_offset 16
 699 0004 00AF     		add	r7, sp, #0
 700              		.cfi_def_cfa_register 7
 701 0006 7860     		str	r0, [r7, #4]
 702 0008 3960     		str	r1, [r7]
 703              		.loc 7 249 10
 704 000a 7B68     		ldr	r3, [r7, #4]
 705 000c 1B7D     		ldrb	r3, [r3, #20]	@ zero_extendqisi2
 706              		.loc 7 249 6
 707 000e 002B     		cmp	r3, #0
 708 0010 02D0     		beq	.L23
 709              		.loc 7 250 12
 710 0012 6FF00103 		mvn	r3, #1
 711 0016 25E0     		b	.L24
 712              	.L23:
 713              		.loc 7 254 7
 714 0018 7868     		ldr	r0, [r7, #4]
 715 001a FFF7FEFF 		bl	chMBGetFreeCountI
 716 001e 0346     		mov	r3, r0
 717              		.loc 7 254 6
 718 0020 002B     		cmp	r3, #0
 719 0022 1DD0     		beq	.L25
 720              		.loc 7 255 9
 721 0024 7B68     		ldr	r3, [r7, #4]
 722 0026 9B68     		ldr	r3, [r3, #8]
 723              		.loc 7 255 16
 724 0028 191D     		adds	r1, r3, #4
 725 002a 7A68     		ldr	r2, [r7, #4]
 726 002c 9160     		str	r1, [r2, #8]
 727              		.loc 7 255 19
 728 002e 3A68     		ldr	r2, [r7]
 729 0030 1A60     		str	r2, [r3]
 730              		.loc 7 256 12
 731 0032 7B68     		ldr	r3, [r7, #4]
 732 0034 9A68     		ldr	r2, [r3, #8]
 733              		.loc 7 256 26
 734 0036 7B68     		ldr	r3, [r7, #4]
 735 0038 5B68     		ldr	r3, [r3, #4]
 736              		.loc 7 256 8
 737 003a 9A42     		cmp	r2, r3
 738 003c 03D3     		bcc	.L26
 739              		.loc 7 257 23
 740 003e 7B68     		ldr	r3, [r7, #4]
 741 0040 1A68     		ldr	r2, [r3]
ARM GAS  C:\Users\DEVELO~1\AppData\Local\Temp\ccnKUYf1.s 			page 14


 742              		.loc 7 257 18
 743 0042 7B68     		ldr	r3, [r7, #4]
 744 0044 9A60     		str	r2, [r3, #8]
 745              	.L26:
 746              		.loc 7 259 8
 747 0046 7B68     		ldr	r3, [r7, #4]
 748 0048 1B69     		ldr	r3, [r3, #16]
 749              		.loc 7 259 13
 750 004a 5A1C     		adds	r2, r3, #1
 751 004c 7B68     		ldr	r3, [r7, #4]
 752 004e 1A61     		str	r2, [r3, #16]
 753              		.loc 7 262 5
 754 0050 7B68     		ldr	r3, [r7, #4]
 755 0052 2033     		adds	r3, r3, #32
 756 0054 0021     		movs	r1, #0
 757 0056 1846     		mov	r0, r3
 758 0058 FFF7FEFF 		bl	chThdDequeueNextI
 759              		.loc 7 264 12
 760 005c 0023     		movs	r3, #0
 761 005e 01E0     		b	.L24
 762              	.L25:
 763              		.loc 7 268 10
 764 0060 4FF0FF33 		mov	r3, #-1
 765              	.L24:
 766              		.loc 7 269 1
 767 0064 1846     		mov	r0, r3
 768 0066 0837     		adds	r7, r7, #8
 769              		.cfi_def_cfa_offset 8
 770 0068 BD46     		mov	sp, r7
 771              		.cfi_def_cfa_register 13
 772              		@ sp needed
 773 006a 80BD     		pop	{r7, pc}
 774              		.cfi_endproc
 775              	.LFE351:
 776              		.size	chMBPostI, .-chMBPostI
 777              		.section	.text.chMBPostAheadTimeout,"ax",%progbits
 778              		.align	1
 779              		.global	chMBPostAheadTimeout
 780              		.syntax unified
 781              		.thumb
 782              		.thumb_func
 783              		.type	chMBPostAheadTimeout, %function
 784              	chMBPostAheadTimeout:
 785              	.LFB352:
 786              		.loc 7 290 78
 787              		.cfi_startproc
 788              		@ args = 0, pretend = 0, frame = 24
 789              		@ frame_needed = 1, uses_anonymous_args = 0
 790 0000 80B5     		push	{r7, lr}
 791              		.cfi_def_cfa_offset 8
 792              		.cfi_offset 7, -8
 793              		.cfi_offset 14, -4
 794 0002 86B0     		sub	sp, sp, #24
 795              		.cfi_def_cfa_offset 32
 796 0004 00AF     		add	r7, sp, #0
 797              		.cfi_def_cfa_register 7
 798 0006 F860     		str	r0, [r7, #12]
ARM GAS  C:\Users\DEVELO~1\AppData\Local\Temp\ccnKUYf1.s 			page 15


 799 0008 B960     		str	r1, [r7, #8]
 800 000a 7A60     		str	r2, [r7, #4]
 801              		.loc 7 293 3
 802 000c FFF7FEFF 		bl	chSysLock
 803              		.loc 7 294 12
 804 0010 7A68     		ldr	r2, [r7, #4]
 805 0012 B968     		ldr	r1, [r7, #8]
 806 0014 F868     		ldr	r0, [r7, #12]
 807 0016 FFF7FEFF 		bl	chMBPostAheadTimeoutS
 808 001a 7861     		str	r0, [r7, #20]
 809              		.loc 7 295 3
 810 001c FFF7FEFF 		bl	chSysUnlock
 811              		.loc 7 297 10
 812 0020 7B69     		ldr	r3, [r7, #20]
 813              		.loc 7 298 1
 814 0022 1846     		mov	r0, r3
 815 0024 1837     		adds	r7, r7, #24
 816              		.cfi_def_cfa_offset 8
 817 0026 BD46     		mov	sp, r7
 818              		.cfi_def_cfa_register 13
 819              		@ sp needed
 820 0028 80BD     		pop	{r7, pc}
 821              		.cfi_endproc
 822              	.LFE352:
 823              		.size	chMBPostAheadTimeout, .-chMBPostAheadTimeout
 824              		.section	.text.chMBPostAheadTimeoutS,"ax",%progbits
 825              		.align	1
 826              		.global	chMBPostAheadTimeoutS
 827              		.syntax unified
 828              		.thumb
 829              		.thumb_func
 830              		.type	chMBPostAheadTimeoutS, %function
 831              	chMBPostAheadTimeoutS:
 832              	.LFB353:
 833              		.loc 7 319 79
 834              		.cfi_startproc
 835              		@ args = 0, pretend = 0, frame = 24
 836              		@ frame_needed = 1, uses_anonymous_args = 0
 837 0000 80B5     		push	{r7, lr}
 838              		.cfi_def_cfa_offset 8
 839              		.cfi_offset 7, -8
 840              		.cfi_offset 14, -4
 841 0002 86B0     		sub	sp, sp, #24
 842              		.cfi_def_cfa_offset 32
 843 0004 00AF     		add	r7, sp, #0
 844              		.cfi_def_cfa_register 7
 845 0006 F860     		str	r0, [r7, #12]
 846 0008 B960     		str	r1, [r7, #8]
 847 000a 7A60     		str	r2, [r7, #4]
 848              	.L34:
 849              		.loc 7 327 12
 850 000c FB68     		ldr	r3, [r7, #12]
 851 000e 1B7D     		ldrb	r3, [r3, #20]	@ zero_extendqisi2
 852              		.loc 7 327 8
 853 0010 002B     		cmp	r3, #0
 854 0012 02D0     		beq	.L30
 855              		.loc 7 328 14
ARM GAS  C:\Users\DEVELO~1\AppData\Local\Temp\ccnKUYf1.s 			page 16


 856 0014 6FF00103 		mvn	r3, #1
 857 0018 33E0     		b	.L31
 858              	.L30:
 859              		.loc 7 332 9
 860 001a F868     		ldr	r0, [r7, #12]
 861 001c FFF7FEFF 		bl	chMBGetFreeCountI
 862 0020 0346     		mov	r3, r0
 863              		.loc 7 332 8
 864 0022 002B     		cmp	r3, #0
 865 0024 22D0     		beq	.L32
 866              		.loc 7 333 16
 867 0026 FB68     		ldr	r3, [r7, #12]
 868 0028 DB68     		ldr	r3, [r3, #12]
 869              		.loc 7 333 11
 870 002a 1A1F     		subs	r2, r3, #4
 871              		.loc 7 333 10
 872 002c FB68     		ldr	r3, [r7, #12]
 873 002e DA60     		str	r2, [r3, #12]
 874              		.loc 7 333 16
 875 0030 FB68     		ldr	r3, [r7, #12]
 876 0032 DA68     		ldr	r2, [r3, #12]
 877              		.loc 7 333 29
 878 0034 FB68     		ldr	r3, [r7, #12]
 879 0036 1B68     		ldr	r3, [r3]
 880              		.loc 7 333 10
 881 0038 9A42     		cmp	r2, r3
 882 003a 04D2     		bcs	.L33
 883              		.loc 7 334 25
 884 003c FB68     		ldr	r3, [r7, #12]
 885 003e 5B68     		ldr	r3, [r3, #4]
 886              		.loc 7 334 31
 887 0040 1A1F     		subs	r2, r3, #4
 888              		.loc 7 334 20
 889 0042 FB68     		ldr	r3, [r7, #12]
 890 0044 DA60     		str	r2, [r3, #12]
 891              	.L33:
 892              		.loc 7 336 11
 893 0046 FB68     		ldr	r3, [r7, #12]
 894 0048 DB68     		ldr	r3, [r3, #12]
 895              		.loc 7 336 19
 896 004a BA68     		ldr	r2, [r7, #8]
 897 004c 1A60     		str	r2, [r3]
 898              		.loc 7 337 10
 899 004e FB68     		ldr	r3, [r7, #12]
 900 0050 1B69     		ldr	r3, [r3, #16]
 901              		.loc 7 337 15
 902 0052 5A1C     		adds	r2, r3, #1
 903 0054 FB68     		ldr	r3, [r7, #12]
 904 0056 1A61     		str	r2, [r3, #16]
 905              		.loc 7 340 7
 906 0058 FB68     		ldr	r3, [r7, #12]
 907 005a 2033     		adds	r3, r3, #32
 908 005c 0021     		movs	r1, #0
 909 005e 1846     		mov	r0, r3
 910 0060 FFF7FEFF 		bl	chThdDequeueNextI
 911              		.loc 7 341 7
 912 0064 FFF7FEFF 		bl	chSchRescheduleS
ARM GAS  C:\Users\DEVELO~1\AppData\Local\Temp\ccnKUYf1.s 			page 17


 913              		.loc 7 343 14
 914 0068 0023     		movs	r3, #0
 915 006a 0AE0     		b	.L31
 916              	.L32:
 917              		.loc 7 347 14
 918 006c FB68     		ldr	r3, [r7, #12]
 919 006e 1833     		adds	r3, r3, #24
 920 0070 7968     		ldr	r1, [r7, #4]
 921 0072 1846     		mov	r0, r3
 922 0074 FFF7FEFF 		bl	chThdEnqueueTimeoutS
 923 0078 7861     		str	r0, [r7, #20]
 924              		.loc 7 348 19
 925 007a 7B69     		ldr	r3, [r7, #20]
 926 007c 002B     		cmp	r3, #0
 927 007e C5D0     		beq	.L34
 928              		.loc 7 350 10
 929 0080 7B69     		ldr	r3, [r7, #20]
 930              	.L31:
 931              		.loc 7 351 1
 932 0082 1846     		mov	r0, r3
 933 0084 1837     		adds	r7, r7, #24
 934              		.cfi_def_cfa_offset 8
 935 0086 BD46     		mov	sp, r7
 936              		.cfi_def_cfa_register 13
 937              		@ sp needed
 938 0088 80BD     		pop	{r7, pc}
 939              		.cfi_endproc
 940              	.LFE353:
 941              		.size	chMBPostAheadTimeoutS, .-chMBPostAheadTimeoutS
 942              		.section	.text.chMBPostAheadI,"ax",%progbits
 943              		.align	1
 944              		.global	chMBPostAheadI
 945              		.syntax unified
 946              		.thumb
 947              		.thumb_func
 948              		.type	chMBPostAheadI, %function
 949              	chMBPostAheadI:
 950              	.LFB354:
 951              		.loc 7 368 49
 952              		.cfi_startproc
 953              		@ args = 0, pretend = 0, frame = 8
 954              		@ frame_needed = 1, uses_anonymous_args = 0
 955 0000 80B5     		push	{r7, lr}
 956              		.cfi_def_cfa_offset 8
 957              		.cfi_offset 7, -8
 958              		.cfi_offset 14, -4
 959 0002 82B0     		sub	sp, sp, #8
 960              		.cfi_def_cfa_offset 16
 961 0004 00AF     		add	r7, sp, #0
 962              		.cfi_def_cfa_register 7
 963 0006 7860     		str	r0, [r7, #4]
 964 0008 3960     		str	r1, [r7]
 965              		.loc 7 374 10
 966 000a 7B68     		ldr	r3, [r7, #4]
 967 000c 1B7D     		ldrb	r3, [r3, #20]	@ zero_extendqisi2
 968              		.loc 7 374 6
 969 000e 002B     		cmp	r3, #0
ARM GAS  C:\Users\DEVELO~1\AppData\Local\Temp\ccnKUYf1.s 			page 18


 970 0010 02D0     		beq	.L36
 971              		.loc 7 375 12
 972 0012 6FF00103 		mvn	r3, #1
 973 0016 28E0     		b	.L37
 974              	.L36:
 975              		.loc 7 379 7
 976 0018 7868     		ldr	r0, [r7, #4]
 977 001a FFF7FEFF 		bl	chMBGetFreeCountI
 978 001e 0346     		mov	r3, r0
 979              		.loc 7 379 6
 980 0020 002B     		cmp	r3, #0
 981 0022 20D0     		beq	.L38
 982              		.loc 7 380 14
 983 0024 7B68     		ldr	r3, [r7, #4]
 984 0026 DB68     		ldr	r3, [r3, #12]
 985              		.loc 7 380 9
 986 0028 1A1F     		subs	r2, r3, #4
 987              		.loc 7 380 8
 988 002a 7B68     		ldr	r3, [r7, #4]
 989 002c DA60     		str	r2, [r3, #12]
 990              		.loc 7 380 14
 991 002e 7B68     		ldr	r3, [r7, #4]
 992 0030 DA68     		ldr	r2, [r3, #12]
 993              		.loc 7 380 27
 994 0032 7B68     		ldr	r3, [r7, #4]
 995 0034 1B68     		ldr	r3, [r3]
 996              		.loc 7 380 8
 997 0036 9A42     		cmp	r2, r3
 998 0038 04D2     		bcs	.L39
 999              		.loc 7 381 23
 1000 003a 7B68     		ldr	r3, [r7, #4]
 1001 003c 5B68     		ldr	r3, [r3, #4]
 1002              		.loc 7 381 29
 1003 003e 1A1F     		subs	r2, r3, #4
 1004              		.loc 7 381 18
 1005 0040 7B68     		ldr	r3, [r7, #4]
 1006 0042 DA60     		str	r2, [r3, #12]
 1007              	.L39:
 1008              		.loc 7 383 9
 1009 0044 7B68     		ldr	r3, [r7, #4]
 1010 0046 DB68     		ldr	r3, [r3, #12]
 1011              		.loc 7 383 17
 1012 0048 3A68     		ldr	r2, [r7]
 1013 004a 1A60     		str	r2, [r3]
 1014              		.loc 7 384 8
 1015 004c 7B68     		ldr	r3, [r7, #4]
 1016 004e 1B69     		ldr	r3, [r3, #16]
 1017              		.loc 7 384 13
 1018 0050 5A1C     		adds	r2, r3, #1
 1019 0052 7B68     		ldr	r3, [r7, #4]
 1020 0054 1A61     		str	r2, [r3, #16]
 1021              		.loc 7 387 5
 1022 0056 7B68     		ldr	r3, [r7, #4]
 1023 0058 2033     		adds	r3, r3, #32
 1024 005a 0021     		movs	r1, #0
 1025 005c 1846     		mov	r0, r3
 1026 005e FFF7FEFF 		bl	chThdDequeueNextI
ARM GAS  C:\Users\DEVELO~1\AppData\Local\Temp\ccnKUYf1.s 			page 19


 1027              		.loc 7 389 12
 1028 0062 0023     		movs	r3, #0
 1029 0064 01E0     		b	.L37
 1030              	.L38:
 1031              		.loc 7 393 10
 1032 0066 4FF0FF33 		mov	r3, #-1
 1033              	.L37:
 1034              		.loc 7 394 1
 1035 006a 1846     		mov	r0, r3
 1036 006c 0837     		adds	r7, r7, #8
 1037              		.cfi_def_cfa_offset 8
 1038 006e BD46     		mov	sp, r7
 1039              		.cfi_def_cfa_register 13
 1040              		@ sp needed
 1041 0070 80BD     		pop	{r7, pc}
 1042              		.cfi_endproc
 1043              	.LFE354:
 1044              		.size	chMBPostAheadI, .-chMBPostAheadI
 1045              		.section	.text.chMBFetchTimeout,"ax",%progbits
 1046              		.align	1
 1047              		.global	chMBFetchTimeout
 1048              		.syntax unified
 1049              		.thumb
 1050              		.thumb_func
 1051              		.type	chMBFetchTimeout, %function
 1052              	chMBFetchTimeout:
 1053              	.LFB355:
 1054              		.loc 7 415 76
 1055              		.cfi_startproc
 1056              		@ args = 0, pretend = 0, frame = 24
 1057              		@ frame_needed = 1, uses_anonymous_args = 0
 1058 0000 80B5     		push	{r7, lr}
 1059              		.cfi_def_cfa_offset 8
 1060              		.cfi_offset 7, -8
 1061              		.cfi_offset 14, -4
 1062 0002 86B0     		sub	sp, sp, #24
 1063              		.cfi_def_cfa_offset 32
 1064 0004 00AF     		add	r7, sp, #0
 1065              		.cfi_def_cfa_register 7
 1066 0006 F860     		str	r0, [r7, #12]
 1067 0008 B960     		str	r1, [r7, #8]
 1068 000a 7A60     		str	r2, [r7, #4]
 1069              		.loc 7 418 3
 1070 000c FFF7FEFF 		bl	chSysLock
 1071              		.loc 7 419 12
 1072 0010 7A68     		ldr	r2, [r7, #4]
 1073 0012 B968     		ldr	r1, [r7, #8]
 1074 0014 F868     		ldr	r0, [r7, #12]
 1075 0016 FFF7FEFF 		bl	chMBFetchTimeoutS
 1076 001a 7861     		str	r0, [r7, #20]
 1077              		.loc 7 420 3
 1078 001c FFF7FEFF 		bl	chSysUnlock
 1079              		.loc 7 422 10
 1080 0020 7B69     		ldr	r3, [r7, #20]
 1081              		.loc 7 423 1
 1082 0022 1846     		mov	r0, r3
 1083 0024 1837     		adds	r7, r7, #24
ARM GAS  C:\Users\DEVELO~1\AppData\Local\Temp\ccnKUYf1.s 			page 20


 1084              		.cfi_def_cfa_offset 8
 1085 0026 BD46     		mov	sp, r7
 1086              		.cfi_def_cfa_register 13
 1087              		@ sp needed
 1088 0028 80BD     		pop	{r7, pc}
 1089              		.cfi_endproc
 1090              	.LFE355:
 1091              		.size	chMBFetchTimeout, .-chMBFetchTimeout
 1092              		.section	.text.chMBFetchTimeoutS,"ax",%progbits
 1093              		.align	1
 1094              		.global	chMBFetchTimeoutS
 1095              		.syntax unified
 1096              		.thumb
 1097              		.thumb_func
 1098              		.type	chMBFetchTimeoutS, %function
 1099              	chMBFetchTimeoutS:
 1100              	.LFB356:
 1101              		.loc 7 444 77
 1102              		.cfi_startproc
 1103              		@ args = 0, pretend = 0, frame = 24
 1104              		@ frame_needed = 1, uses_anonymous_args = 0
 1105 0000 80B5     		push	{r7, lr}
 1106              		.cfi_def_cfa_offset 8
 1107              		.cfi_offset 7, -8
 1108              		.cfi_offset 14, -4
 1109 0002 86B0     		sub	sp, sp, #24
 1110              		.cfi_def_cfa_offset 32
 1111 0004 00AF     		add	r7, sp, #0
 1112              		.cfi_def_cfa_register 7
 1113 0006 F860     		str	r0, [r7, #12]
 1114 0008 B960     		str	r1, [r7, #8]
 1115 000a 7A60     		str	r2, [r7, #4]
 1116              	.L47:
 1117              		.loc 7 452 12
 1118 000c FB68     		ldr	r3, [r7, #12]
 1119 000e 1B7D     		ldrb	r3, [r3, #20]	@ zero_extendqisi2
 1120              		.loc 7 452 8
 1121 0010 002B     		cmp	r3, #0
 1122 0012 02D0     		beq	.L43
 1123              		.loc 7 453 14
 1124 0014 6FF00103 		mvn	r3, #1
 1125 0018 31E0     		b	.L44
 1126              	.L43:
 1127              		.loc 7 457 9
 1128 001a F868     		ldr	r0, [r7, #12]
 1129 001c FFF7FEFF 		bl	chMBGetUsedCountI
 1130 0020 0346     		mov	r3, r0
 1131              		.loc 7 457 8
 1132 0022 002B     		cmp	r3, #0
 1133 0024 20D0     		beq	.L45
 1134              		.loc 7 458 19
 1135 0026 FB68     		ldr	r3, [r7, #12]
 1136 0028 DB68     		ldr	r3, [r3, #12]
 1137              		.loc 7 458 26
 1138 002a 191D     		adds	r1, r3, #4
 1139 002c FA68     		ldr	r2, [r7, #12]
 1140 002e D160     		str	r1, [r2, #12]
ARM GAS  C:\Users\DEVELO~1\AppData\Local\Temp\ccnKUYf1.s 			page 21


 1141              		.loc 7 458 15
 1142 0030 1A68     		ldr	r2, [r3]
 1143              		.loc 7 458 13
 1144 0032 BB68     		ldr	r3, [r7, #8]
 1145 0034 1A60     		str	r2, [r3]
 1146              		.loc 7 459 14
 1147 0036 FB68     		ldr	r3, [r7, #12]
 1148 0038 DA68     		ldr	r2, [r3, #12]
 1149              		.loc 7 459 28
 1150 003a FB68     		ldr	r3, [r7, #12]
 1151 003c 5B68     		ldr	r3, [r3, #4]
 1152              		.loc 7 459 10
 1153 003e 9A42     		cmp	r2, r3
 1154 0040 03D3     		bcc	.L46
 1155              		.loc 7 460 25
 1156 0042 FB68     		ldr	r3, [r7, #12]
 1157 0044 1A68     		ldr	r2, [r3]
 1158              		.loc 7 460 20
 1159 0046 FB68     		ldr	r3, [r7, #12]
 1160 0048 DA60     		str	r2, [r3, #12]
 1161              	.L46:
 1162              		.loc 7 462 10
 1163 004a FB68     		ldr	r3, [r7, #12]
 1164 004c 1B69     		ldr	r3, [r3, #16]
 1165              		.loc 7 462 15
 1166 004e 5A1E     		subs	r2, r3, #1
 1167 0050 FB68     		ldr	r3, [r7, #12]
 1168 0052 1A61     		str	r2, [r3, #16]
 1169              		.loc 7 465 7
 1170 0054 FB68     		ldr	r3, [r7, #12]
 1171 0056 1833     		adds	r3, r3, #24
 1172 0058 0021     		movs	r1, #0
 1173 005a 1846     		mov	r0, r3
 1174 005c FFF7FEFF 		bl	chThdDequeueNextI
 1175              		.loc 7 466 7
 1176 0060 FFF7FEFF 		bl	chSchRescheduleS
 1177              		.loc 7 468 14
 1178 0064 0023     		movs	r3, #0
 1179 0066 0AE0     		b	.L44
 1180              	.L45:
 1181              		.loc 7 472 14
 1182 0068 FB68     		ldr	r3, [r7, #12]
 1183 006a 2033     		adds	r3, r3, #32
 1184 006c 7968     		ldr	r1, [r7, #4]
 1185 006e 1846     		mov	r0, r3
 1186 0070 FFF7FEFF 		bl	chThdEnqueueTimeoutS
 1187 0074 7861     		str	r0, [r7, #20]
 1188              		.loc 7 473 19
 1189 0076 7B69     		ldr	r3, [r7, #20]
 1190 0078 002B     		cmp	r3, #0
 1191 007a C7D0     		beq	.L47
 1192              		.loc 7 475 10
 1193 007c 7B69     		ldr	r3, [r7, #20]
 1194              	.L44:
 1195              		.loc 7 476 1
 1196 007e 1846     		mov	r0, r3
 1197 0080 1837     		adds	r7, r7, #24
ARM GAS  C:\Users\DEVELO~1\AppData\Local\Temp\ccnKUYf1.s 			page 22


 1198              		.cfi_def_cfa_offset 8
 1199 0082 BD46     		mov	sp, r7
 1200              		.cfi_def_cfa_register 13
 1201              		@ sp needed
 1202 0084 80BD     		pop	{r7, pc}
 1203              		.cfi_endproc
 1204              	.LFE356:
 1205              		.size	chMBFetchTimeoutS, .-chMBFetchTimeoutS
 1206              		.section	.text.chMBFetchI,"ax",%progbits
 1207              		.align	1
 1208              		.global	chMBFetchI
 1209              		.syntax unified
 1210              		.thumb
 1211              		.thumb_func
 1212              		.type	chMBFetchI, %function
 1213              	chMBFetchI:
 1214              	.LFB357:
 1215              		.loc 7 493 47
 1216              		.cfi_startproc
 1217              		@ args = 0, pretend = 0, frame = 8
 1218              		@ frame_needed = 1, uses_anonymous_args = 0
 1219 0000 80B5     		push	{r7, lr}
 1220              		.cfi_def_cfa_offset 8
 1221              		.cfi_offset 7, -8
 1222              		.cfi_offset 14, -4
 1223 0002 82B0     		sub	sp, sp, #8
 1224              		.cfi_def_cfa_offset 16
 1225 0004 00AF     		add	r7, sp, #0
 1226              		.cfi_def_cfa_register 7
 1227 0006 7860     		str	r0, [r7, #4]
 1228 0008 3960     		str	r1, [r7]
 1229              		.loc 7 499 10
 1230 000a 7B68     		ldr	r3, [r7, #4]
 1231 000c 1B7D     		ldrb	r3, [r3, #20]	@ zero_extendqisi2
 1232              		.loc 7 499 6
 1233 000e 002B     		cmp	r3, #0
 1234 0010 02D0     		beq	.L49
 1235              		.loc 7 500 12
 1236 0012 6FF00103 		mvn	r3, #1
 1237 0016 26E0     		b	.L50
 1238              	.L49:
 1239              		.loc 7 504 7
 1240 0018 7868     		ldr	r0, [r7, #4]
 1241 001a FFF7FEFF 		bl	chMBGetUsedCountI
 1242 001e 0346     		mov	r3, r0
 1243              		.loc 7 504 6
 1244 0020 002B     		cmp	r3, #0
 1245 0022 1ED0     		beq	.L51
 1246              		.loc 7 505 17
 1247 0024 7B68     		ldr	r3, [r7, #4]
 1248 0026 DB68     		ldr	r3, [r3, #12]
 1249              		.loc 7 505 24
 1250 0028 191D     		adds	r1, r3, #4
 1251 002a 7A68     		ldr	r2, [r7, #4]
 1252 002c D160     		str	r1, [r2, #12]
 1253              		.loc 7 505 13
 1254 002e 1A68     		ldr	r2, [r3]
ARM GAS  C:\Users\DEVELO~1\AppData\Local\Temp\ccnKUYf1.s 			page 23


 1255              		.loc 7 505 11
 1256 0030 3B68     		ldr	r3, [r7]
 1257 0032 1A60     		str	r2, [r3]
 1258              		.loc 7 506 12
 1259 0034 7B68     		ldr	r3, [r7, #4]
 1260 0036 DA68     		ldr	r2, [r3, #12]
 1261              		.loc 7 506 26
 1262 0038 7B68     		ldr	r3, [r7, #4]
 1263 003a 5B68     		ldr	r3, [r3, #4]
 1264              		.loc 7 506 8
 1265 003c 9A42     		cmp	r2, r3
 1266 003e 03D3     		bcc	.L52
 1267              		.loc 7 507 23
 1268 0040 7B68     		ldr	r3, [r7, #4]
 1269 0042 1A68     		ldr	r2, [r3]
 1270              		.loc 7 507 18
 1271 0044 7B68     		ldr	r3, [r7, #4]
 1272 0046 DA60     		str	r2, [r3, #12]
 1273              	.L52:
 1274              		.loc 7 509 8
 1275 0048 7B68     		ldr	r3, [r7, #4]
 1276 004a 1B69     		ldr	r3, [r3, #16]
 1277              		.loc 7 509 13
 1278 004c 5A1E     		subs	r2, r3, #1
 1279 004e 7B68     		ldr	r3, [r7, #4]
 1280 0050 1A61     		str	r2, [r3, #16]
 1281              		.loc 7 512 5
 1282 0052 7B68     		ldr	r3, [r7, #4]
 1283 0054 1833     		adds	r3, r3, #24
 1284 0056 0021     		movs	r1, #0
 1285 0058 1846     		mov	r0, r3
 1286 005a FFF7FEFF 		bl	chThdDequeueNextI
 1287              		.loc 7 514 12
 1288 005e 0023     		movs	r3, #0
 1289 0060 01E0     		b	.L50
 1290              	.L51:
 1291              		.loc 7 518 10
 1292 0062 4FF0FF33 		mov	r3, #-1
 1293              	.L50:
 1294              		.loc 7 519 1
 1295 0066 1846     		mov	r0, r3
 1296 0068 0837     		adds	r7, r7, #8
 1297              		.cfi_def_cfa_offset 8
 1298 006a BD46     		mov	sp, r7
 1299              		.cfi_def_cfa_register 13
 1300              		@ sp needed
 1301 006c 80BD     		pop	{r7, pc}
 1302              		.cfi_endproc
 1303              	.LFE357:
 1304              		.size	chMBFetchI, .-chMBFetchI
 1305              		.text
 1306              	.Letext0:
 1307              		.file 8 "c:\\chibistudio\\tools\\gnu tools arm embedded\\11.3 2022.08\\lib\\gcc\\arm-none-eabi\\11
 1308              		.file 9 "c:\\chibistudio\\tools\\gnu tools arm embedded\\11.3 2022.08\\arm-none-eabi\\include\\mac
 1309              		.file 10 "c:\\chibistudio\\tools\\gnu tools arm embedded\\11.3 2022.08\\arm-none-eabi\\include\\sy
 1310              		.file 11 "../../../os/rt/include/chearly.h"
 1311              		.file 12 "../../../os/rt/include/chtime.h"
ARM GAS  C:\Users\DEVELO~1\AppData\Local\Temp\ccnKUYf1.s 			page 24


 1312              		.file 13 "../../../os/rt/include/chobjects.h"
 1313              		.file 14 "../../../os/rt/include/chschd.h"