ARM GAS  C:\Users\DEVELO~1\AppData\Local\Temp\ccnKUYf1.s 			page 1


   1              		.cpu cortex-m7
   2              		.arch armv7e-m
   3              		.fpu softvfp
   4              		.eabi_attribute 20, 1
   5              		.eabi_attribute 21, 1
   6              		.eabi_attribute 23, 3
   7              		.eabi_attribute 24, 1
   8              		.eabi_attribute 25, 1
   9              		.eabi_attribute 26, 1
  10              		.eabi_attribute 30, 6
  11              		.eabi_attribute 34, 1
  12              		.eabi_attribute 18, 4
  13              		.file	"chmboxes.c"
  14              		.text
  15              	.Ltext0:
  16              		.cfi_sections	.debug_frame
  17              		.section	.text.ch_queue_init,"ax",%progbits
  18              		.align	1
  19              		.syntax unified
  20              		.thumb
  21              		.thumb_func
  22              		.type	ch_queue_init, %function
  23              	ch_queue_init:
  24              	.LFB19:
  25              		.file 1 "../../../os/rt/include/chlists.h"
  26              		.loc 1 222 50
  27              		.cfi_startproc
  28              		@ args = 0, pretend = 0, frame = 8
  29              		@ frame_needed = 1, uses_anonymous_args = 0
  30              		@ link register save eliminated.
  31 0000 80B4     		push	{r7}
  32              		.cfi_def_cfa_offset 4
  33              		.cfi_offset 7, -4
  34 0002 83B0     		sub	sp, sp, #12
  35              		.cfi_def_cfa_offset 16
  36 0004 00AF     		add	r7, sp, #0
  37              		.cfi_def_cfa_register 7
  38 0006 7860     		str	r0, [r7, #4]
  39              		.loc 1 224 12
  40 0008 7B68     		ldr	r3, [r7, #4]
  41 000a 7A68     		ldr	r2, [r7, #4]
  42 000c 1A60     		str	r2, [r3]
  43              		.loc 1 225 12
  44 000e 7B68     		ldr	r3, [r7, #4]
  45 0010 7A68     		ldr	r2, [r7, #4]
  46 0012 5A60     		str	r2, [r3, #4]
  47              		.loc 1 226 1
  48 0014 00BF     		nop
  49 0016 0C37     		adds	r7, r7, #12
  50              		.cfi_def_cfa_offset 4
  51 0018 BD46     		mov	sp, r7
  52              		.cfi_def_cfa_register 13
  53              		@ sp needed
  54 001a 80BC     		pop	{r7}
  55              		.cfi_restore 7
  56              		.cfi_def_cfa_offset 0
  57 001c 7047     		bx	lr
ARM GAS  C:\Users\DEVELO~1\AppData\Local\Temp\ccnKUYf1.s 			page 2


  58              		.cfi_endproc
  59              	.LFE19:
  60              		.size	ch_queue_init, .-ch_queue_init
  61              		.section	.text.chSysLock,"ax",%progbits
  62              		.align	1
  63              		.syntax unified
  64              		.thumb
  65              		.thumb_func
  66              		.type	chSysLock, %function
  67              	chSysLock:
  68              	.LFB202:
  69              		.file 2 "../../../os/rt/include/chsys.h"
  70              		.loc 2 407 36
  71              		.cfi_startproc
  72              		@ args = 0, pretend = 0, frame = 8
  73              		@ frame_needed = 1, uses_anonymous_args = 0
  74              		@ link register save eliminated.
  75 0000 80B4     		push	{r7}
  76              		.cfi_def_cfa_offset 4
  77              		.cfi_offset 7, -4
  78 0002 83B0     		sub	sp, sp, #12
  79              		.cfi_def_cfa_offset 16
  80 0004 00AF     		add	r7, sp, #0
  81              		.cfi_def_cfa_register 7
  82 0006 3023     		movs	r3, #48
  83 0008 7B60     		str	r3, [r7, #4]
  84              	.LBB14:
  85              	.LBB15:
  86              	.LBB16:
  87              	.LBB17:
  88              		.file 3 "../../../os/common/ext/ARM/CMSIS/Core/Include/cmsis_gcc.h"
  89              		.loc 3 493 3
  90 000a 7B68     		ldr	r3, [r7, #4]
  91              		.syntax unified
  92              	@ 493 "../../../os/common/ext/ARM/CMSIS/Core/Include/cmsis_gcc.h" 1
  93 000c 83F31188 		MSR basepri, r3
  94              	@ 0 "" 2
  95              		.loc 3 494 1
  96              		.thumb
  97              		.syntax unified
  98 0010 00BF     		nop
  99              	.LBE17:
 100              	.LBE16:
 101              		.file 4 "../../../os/common/ports/ARMv7-M/chcore.h"
 102              		.loc 4 840 1
 103 0012 00BF     		nop
 104              	.LBE15:
 105              	.LBE14:
 106              		.loc 2 412 1
 107 0014 00BF     		nop
 108 0016 0C37     		adds	r7, r7, #12
 109              		.cfi_def_cfa_offset 4
 110 0018 BD46     		mov	sp, r7
 111              		.cfi_def_cfa_register 13
 112              		@ sp needed
 113 001a 80BC     		pop	{r7}
 114              		.cfi_restore 7
ARM GAS  C:\Users\DEVELO~1\AppData\Local\Temp\ccnKUYf1.s 			page 3


 115              		.cfi_def_cfa_offset 0
 116 001c 7047     		bx	lr
 117              		.cfi_endproc
 118              	.LFE202:
 119              		.size	chSysLock, .-chSysLock
 120              		.section	.text.chSysUnlock,"ax",%progbits
 121              		.align	1
 122              		.syntax unified
 123              		.thumb
 124              		.thumb_func
 125              		.type	chSysUnlock, %function
 126              	chSysUnlock:
 127              	.LFB203:
 128              		.loc 2 421 38
 129              		.cfi_startproc
 130              		@ args = 0, pretend = 0, frame = 8
 131              		@ frame_needed = 1, uses_anonymous_args = 0
 132              		@ link register save eliminated.
 133 0000 80B4     		push	{r7}
 134              		.cfi_def_cfa_offset 4
 135              		.cfi_offset 7, -4
 136 0002 83B0     		sub	sp, sp, #12
 137              		.cfi_def_cfa_offset 16
 138 0004 00AF     		add	r7, sp, #0
 139              		.cfi_def_cfa_register 7
 140 0006 0023     		movs	r3, #0
 141 0008 7B60     		str	r3, [r7, #4]
 142              	.LBB18:
 143              	.LBB19:
 144              	.LBB20:
 145              	.LBB21:
 146              		.loc 3 493 3
 147 000a 7B68     		ldr	r3, [r7, #4]
 148              		.syntax unified
 149              	@ 493 "../../../os/common/ext/ARM/CMSIS/Core/Include/cmsis_gcc.h" 1
 150 000c 83F31188 		MSR basepri, r3
 151              	@ 0 "" 2
 152              		.loc 3 494 1
 153              		.thumb
 154              		.syntax unified
 155 0010 00BF     		nop
 156              	.LBE21:
 157              	.LBE20:
 158              		.loc 4 854 1
 159 0012 00BF     		nop
 160              	.LBE19:
 161              	.LBE18:
 162              		.loc 2 435 1
 163 0014 00BF     		nop
 164 0016 0C37     		adds	r7, r7, #12
 165              		.cfi_def_cfa_offset 4
 166 0018 BD46     		mov	sp, r7
 167              		.cfi_def_cfa_register 13
 168              		@ sp needed
 169 001a 80BC     		pop	{r7}
 170              		.cfi_restore 7
 171              		.cfi_def_cfa_offset 0
ARM GAS  C:\Users\DEVELO~1\AppData\Local\Temp\ccnKUYf1.s 			page 4


 172 001c 7047     		bx	lr
 173              		.cfi_endproc
 174              	.LFE203:
 175              		.size	chSysUnlock, .-chSysUnlock
 176              		.section	.text.chThdQueueObjectInit,"ax",%progbits
 177              		.align	1
 178              		.syntax unified
 179              		.thumb
 180              		.thumb_func
 181              		.type	chThdQueueObjectInit, %function
 182              	chThdQueueObjectInit:
 183              	.LFB236:
 184              		.file 5 "../../../os/rt/include/chthreads.h"
 185              		.loc 5 461 63
 186              		.cfi_startproc
 187              		@ args = 0, pretend = 0, frame = 8
 188              		@ frame_needed = 1, uses_anonymous_args = 0
 189 0000 80B5     		push	{r7, lr}
 190              		.cfi_def_cfa_offset 8
 191              		.cfi_offset 7, -8
 192              		.cfi_offset 14, -4
 193 0002 82B0     		sub	sp, sp, #8
 194              		.cfi_def_cfa_offset 16
 195 0004 00AF     		add	r7, sp, #0
 196              		.cfi_def_cfa_register 7
 197 0006 7860     		str	r0, [r7, #4]
 198              		.loc 5 463 3
 199 0008 7B68     		ldr	r3, [r7, #4]
 200 000a 1846     		mov	r0, r3
 201 000c FFF7FEFF 		bl	ch_queue_init
 202              		.loc 5 464 1
 203 0010 00BF     		nop
 204 0012 0837     		adds	r7, r7, #8
 205              		.cfi_def_cfa_offset 8
 206 0014 BD46     		mov	sp, r7
 207              		.cfi_def_cfa_register 13
 208              		@ sp needed
 209 0016 80BD     		pop	{r7, pc}
 210              		.cfi_endproc
 211              	.LFE236:
 212              		.size	chThdQueueObjectInit, .-chThdQueueObjectInit
 213              		.section	.text.chMBGetSizeI,"ax",%progbits
 214              		.align	1
 215              		.syntax unified
 216              		.thumb
 217              		.thumb_func
 218              		.type	chMBGetSizeI, %function
 219              	chMBGetSizeI:
 220              	.LFB275:
 221              		.file 6 "../../../os/oslib/include/chmboxes.h"
 222              		.loc 6 136 57
 223              		.cfi_startproc
 224              		@ args = 0, pretend = 0, frame = 8
 225              		@ frame_needed = 1, uses_anonymous_args = 0
 226              		@ link register save eliminated.
 227 0000 80B4     		push	{r7}
 228              		.cfi_def_cfa_offset 4
ARM GAS  C:\Users\DEVELO~1\AppData\Local\Temp\ccnKUYf1.s 			page 5


 229              		.cfi_offset 7, -4
 230 0002 83B0     		sub	sp, sp, #12
 231              		.cfi_def_cfa_offset 16
 232 0004 00AF     		add	r7, sp, #0
 233              		.cfi_def_cfa_register 7
 234 0006 7860     		str	r0, [r7, #4]
 235              		.loc 6 140 22
 236 0008 7B68     		ldr	r3, [r7, #4]
 237 000a 5A68     		ldr	r2, [r3, #4]
 238              		.loc 6 140 33
 239 000c 7B68     		ldr	r3, [r7, #4]
 240 000e 1B68     		ldr	r3, [r3]
 241              		.loc 6 140 28
 242 0010 D31A     		subs	r3, r2, r3
 243 0012 9B10     		asrs	r3, r3, #2
 244              		.loc 6 142 1
 245 0014 1846     		mov	r0, r3
 246 0016 0C37     		adds	r7, r7, #12
 247              		.cfi_def_cfa_offset 4
 248 0018 BD46     		mov	sp, r7
 249              		.cfi_def_cfa_register 13
 250              		@ sp needed
 251 001a 80BC     		pop	{r7}
 252              		.cfi_restore 7
 253              		.cfi_def_cfa_offset 0
 254 001c 7047     		bx	lr
 255              		.cfi_endproc
 256              	.LFE275:
 257              		.size	chMBGetSizeI, .-chMBGetSizeI
 258              		.section	.text.chMBGetUsedCountI,"ax",%progbits
 259              		.align	1
 260              		.syntax unified
 261              		.thumb
 262              		.thumb_func
 263              		.type	chMBGetUsedCountI, %function
 264              	chMBGetUsedCountI:
 265              	.LFB276:
 266              		.loc 6 152 62
 267              		.cfi_startproc
 268              		@ args = 0, pretend = 0, frame = 8
 269              		@ frame_needed = 1, uses_anonymous_args = 0
 270              		@ link register save eliminated.
 271 0000 80B4     		push	{r7}
 272              		.cfi_def_cfa_offset 4
 273              		.cfi_offset 7, -4
 274 0002 83B0     		sub	sp, sp, #12
 275              		.cfi_def_cfa_offset 16
 276 0004 00AF     		add	r7, sp, #0
 277              		.cfi_def_cfa_register 7
 278 0006 7860     		str	r0, [r7, #4]
 279              		.loc 6 156 13
 280 0008 7B68     		ldr	r3, [r7, #4]
 281 000a 1B69     		ldr	r3, [r3, #16]
 282              		.loc 6 157 1
 283 000c 1846     		mov	r0, r3
 284 000e 0C37     		adds	r7, r7, #12
 285              		.cfi_def_cfa_offset 4
ARM GAS  C:\Users\DEVELO~1\AppData\Local\Temp\ccnKUYf1.s 			page 6


 286 0010 BD46     		mov	sp, r7
 287              		.cfi_def_cfa_register 13
 288              		@ sp needed
 289 0012 80BC     		pop	{r7}
 290              		.cfi_restore 7
 291              		.cfi_def_cfa_offset 0
 292 0014 7047     		bx	lr
 293              		.cfi_endproc
 294              	.LFE276:
 295              		.size	chMBGetUsedCountI, .-chMBGetUsedCountI
 296              		.section	.text.chMBGetFreeCountI,"ax",%progbits
 297              		.align	1
 298              		.syntax unified
 299              		.thumb
 300              		.thumb_func
 301              		.type	chMBGetFreeCountI, %function
 302              	chMBGetFreeCountI:
 303              	.LFB277:
 304              		.loc 6 167 62
 305              		.cfi_startproc
 306              		@ args = 0, pretend = 0, frame = 8
 307              		@ frame_needed = 1, uses_anonymous_args = 0
 308 0000 90B5     		push	{r4, r7, lr}
 309              		.cfi_def_cfa_offset 12
 310              		.cfi_offset 4, -12
 311              		.cfi_offset 7, -8
 312              		.cfi_offset 14, -4
 313 0002 83B0     		sub	sp, sp, #12
 314              		.cfi_def_cfa_offset 24
 315 0004 00AF     		add	r7, sp, #0
 316              		.cfi_def_cfa_register 7
 317 0006 7860     		str	r0, [r7, #4]
 318              		.loc 6 171 10
 319 0008 7868     		ldr	r0, [r7, #4]
 320 000a FFF7FEFF 		bl	chMBGetSizeI
 321 000e 0446     		mov	r4, r0
 322              		.loc 6 171 30
 323 0010 7868     		ldr	r0, [r7, #4]
 324 0012 FFF7FEFF 		bl	chMBGetUsedCountI
 325 0016 0346     		mov	r3, r0
 326              		.loc 6 171 28
 327 0018 E31A     		subs	r3, r4, r3
 328              		.loc 6 172 1
 329 001a 1846     		mov	r0, r3
 330 001c 0C37     		adds	r7, r7, #12
 331              		.cfi_def_cfa_offset 12
 332 001e BD46     		mov	sp, r7
 333              		.cfi_def_cfa_register 13
 334              		@ sp needed
 335 0020 90BD     		pop	{r4, r7, pc}
 336              		.cfi_endproc
 337              	.LFE277:
 338              		.size	chMBGetFreeCountI, .-chMBGetFreeCountI
 339              		.section	.text.chMBObjectInit,"ax",%progbits
 340              		.align	1
 341              		.global	chMBObjectInit
 342              		.syntax unified
ARM GAS  C:\Users\DEVELO~1\AppData\Local\Temp\ccnKUYf1.s 			page 7


 343              		.thumb
 344              		.thumb_func
 345              		.type	chMBObjectInit, %function
 346              	chMBObjectInit:
 347              	.LFB346:
 348              		.file 7 "../../../os/oslib/src/chmboxes.c"
 349              		.loc 7 87 59
 350              		.cfi_startproc
 351              		@ args = 0, pretend = 0, frame = 16
 352              		@ frame_needed = 1, uses_anonymous_args = 0
 353 0000 80B5     		push	{r7, lr}
 354              		.cfi_def_cfa_offset 8
 355              		.cfi_offset 7, -8
 356              		.cfi_offset 14, -4
 357 0002 84B0     		sub	sp, sp, #16
 358              		.cfi_def_cfa_offset 24
 359 0004 00AF     		add	r7, sp, #0
 360              		.cfi_def_cfa_register 7
 361 0006 F860     		str	r0, [r7, #12]
 362 0008 B960     		str	r1, [r7, #8]
 363 000a 7A60     		str	r2, [r7, #4]
 364              		.loc 7 91 15
 365 000c FB68     		ldr	r3, [r7, #12]
 366 000e BA68     		ldr	r2, [r7, #8]
 367 0010 1A60     		str	r2, [r3]
 368              		.loc 7 92 15
 369 0012 FB68     		ldr	r3, [r7, #12]
 370 0014 BA68     		ldr	r2, [r7, #8]
 371 0016 DA60     		str	r2, [r3, #12]
 372              		.loc 7 93 15
 373 0018 FB68     		ldr	r3, [r7, #12]
 374 001a BA68     		ldr	r2, [r7, #8]
 375 001c 9A60     		str	r2, [r3, #8]
 376              		.loc 7 94 21
 377 001e 7B68     		ldr	r3, [r7, #4]
 378 0020 9B00     		lsls	r3, r3, #2
 379              		.loc 7 94 17
 380 0022 BA68     		ldr	r2, [r7, #8]
 381 0024 1A44     		add	r2, r2, r3
 382              		.loc 7 94 15
 383 0026 FB68     		ldr	r3, [r7, #12]
 384 0028 5A60     		str	r2, [r3, #4]
 385              		.loc 7 95 15
 386 002a FB68     		ldr	r3, [r7, #12]
 387 002c 0022     		movs	r2, #0
 388 002e 1A61     		str	r2, [r3, #16]
 389              		.loc 7 96 15
 390 0030 FB68     		ldr	r3, [r7, #12]
 391 0032 0022     		movs	r2, #0
 392 0034 1A75     		strb	r2, [r3, #20]
 393              		.loc 7 97 3
 394 0036 FB68     		ldr	r3, [r7, #12]
 395 0038 1833     		adds	r3, r3, #24
 396 003a 1846     		mov	r0, r3
 397 003c FFF7FEFF 		bl	chThdQueueObjectInit
 398              		.loc 7 98 3
 399 0040 FB68     		ldr	r3, [r7, #12]
ARM GAS  C:\Users\DEVELO~1\AppData\Local\Temp\ccnKUYf1.s 			page 8


 400 0042 2033     		adds	r3, r3, #32
 401 0044 1846     		mov	r0, r3
 402 0046 FFF7FEFF 		bl	chThdQueueObjectInit
 403              		.loc 7 99 1
 404 004a 00BF     		nop
 405 004c 1037     		adds	r7, r7, #16
 406              		.cfi_def_cfa_offset 8
 407 004e BD46     		mov	sp, r7
 408              		.cfi_def_cfa_register 13
 409              		@ sp needed
 410 0050 80BD     		pop	{r7, pc}
 411              		.cfi_endproc
 412              	.LFE346:
 413              		.size	chMBObjectInit, .-chMBObjectInit
 414              		.section	.text.chMBReset,"ax",%progbits
 415              		.align	1
 416              		.global	chMBReset
 417              		.syntax unified
 418              		.thumb
 419              		.thumb_func
 420              		.type	chMBReset, %function
 421              	chMBReset:
 422              	.LFB347:
 423              		.loc 7 113 32
 424              		.cfi_startproc
 425              		@ args = 0, pretend = 0, frame = 8
 426              		@ frame_needed = 1, uses_anonymous_args = 0
 427 0000 80B5     		push	{r7, lr}
 428              		.cfi_def_cfa_offset 8
 429              		.cfi_offset 7, -8
 430              		.cfi_offset 14, -4
 431 0002 82B0     		sub	sp, sp, #8
 432              		.cfi_def_cfa_offset 16
 433 0004 00AF     		add	r7, sp, #0
 434              		.cfi_def_cfa_register 7
 435 0006 7860     		str	r0, [r7, #4]
 436              		.loc 7 115 3
 437 0008 FFF7FEFF 		bl	chSysLock
 438              		.loc 7 116 3
 439 000c 7868     		ldr	r0, [r7, #4]
 440 000e FFF7FEFF 		bl	chMBResetI
 441              		.loc 7 117 3
 442 0012 FFF7FEFF 		bl	chSchRescheduleS
 443              		.loc 7 118 3
 444 0016 FFF7FEFF 		bl	chSysUnlock
 445              		.loc 7 119 1
 446 001a 00BF     		nop
 447 001c 0837     		adds	r7, r7, #8
 448              		.cfi_def_cfa_offset 8
 449 001e BD46     		mov	sp, r7
 450              		.cfi_def_cfa_register 13
 451              		@ sp needed
 452 0020 80BD     		pop	{r7, pc}
 453              		.cfi_endproc
 454              	.LFE347:
 455              		.size	chMBReset, .-chMBReset
 456              		.section	.text.chMBResetI,"ax",%progbits
ARM GAS  C:\Users\DEVELO~1\AppData\Local\Temp\ccnKUYf1.s 			page 9


 457              		.align	1
 458              		.global	chMBResetI
 459              		.syntax unified
 460              		.thumb
 461              		.thumb_func
 462              		.type	chMBResetI, %function
 463              	chMBResetI:
 464              	.LFB348:
 465              		.loc 7 133 33
 466              		.cfi_startproc
 467              		@ args = 0, pretend = 0, frame = 8
 468              		@ frame_needed = 1, uses_anonymous_args = 0
 469 0000 80B5     		push	{r7, lr}
 470              		.cfi_def_cfa_offset 8
 471              		.cfi_offset 7, -8
 472              		.cfi_offset 14, -4
 473 0002 82B0     		sub	sp, sp, #8
 474              		.cfi_def_cfa_offset 16
 475 0004 00AF     		add	r7, sp, #0
 476              		.cfi_def_cfa_register 7
 477 0006 7860     		str	r0, [r7, #4]
 478              		.loc 7 138 19
 479 0008 7B68     		ldr	r3, [r7, #4]
 480 000a 1A68     		ldr	r2, [r3]
 481              		.loc 7 138 14
 482 000c 7B68     		ldr	r3, [r7, #4]
 483 000e 9A60     		str	r2, [r3, #8]
 484              		.loc 7 139 19
 485 0010 7B68     		ldr	r3, [r7, #4]
 486 0012 1A68     		ldr	r2, [r3]
 487              		.loc 7 139 14
 488 0014 7B68     		ldr	r3, [r7, #4]
 489 0016 DA60     		str	r2, [r3, #12]
 490              		.loc 7 140 14
 491 0018 7B68     		ldr	r3, [r7, #4]
 492 001a 0022     		movs	r2, #0
 493 001c 1A61     		str	r2, [r3, #16]
 494              		.loc 7 141 14
 495 001e 7B68     		ldr	r3, [r7, #4]
 496 0020 0122     		movs	r2, #1
 497 0022 1A75     		strb	r2, [r3, #20]
 498              		.loc 7 142 3
 499 0024 7B68     		ldr	r3, [r7, #4]
 500 0026 1833     		adds	r3, r3, #24
 501 0028 6FF00101 		mvn	r1, #1
 502 002c 1846     		mov	r0, r3
 503 002e FFF7FEFF 		bl	chThdDequeueAllI
 504              		.loc 7 143 3
 505 0032 7B68     		ldr	r3, [r7, #4]
 506 0034 2033     		adds	r3, r3, #32
 507 0036 6FF00101 		mvn	r1, #1
 508 003a 1846     		mov	r0, r3
 509 003c FFF7FEFF 		bl	chThdDequeueAllI
 510              		.loc 7 144 1
 511 0040 00BF     		nop
 512 0042 0837     		adds	r7, r7, #8
 513              		.cfi_def_cfa_offset 8
ARM GAS  C:\Users\DEVELO~1\AppData\Local\Temp\ccnKUYf1.s 			page 10


 514 0044 BD46     		mov	sp, r7
 515              		.cfi_def_cfa_register 13
 516              		@ sp needed
 517 0046 80BD     		pop	{r7, pc}
 518              		.cfi_endproc
 519              	.LFE348:
 520              		.size	chMBResetI, .-chMBResetI
 521              		.section	.text.chMBPostTimeout,"ax",%progbits
 522              		.align	1
 523              		.global	chMBPostTimeout
 524              		.syntax unified
 525              		.thumb
 526              		.thumb_func
 527              		.type	chMBPostTimeout, %function
 528              	chMBPostTimeout:
 529              	.LFB349:
 530              		.loc 7 165 73
 531              		.cfi_startproc
 532              		@ args = 0, pretend = 0, frame = 24
 533              		@ frame_needed = 1, uses_anonymous_args = 0
 534 0000 80B5     		push	{r7, lr}
 535              		.cfi_def_cfa_offset 8
 536              		.cfi_offset 7, -8
 537              		.cfi_offset 14, -4
 538 0002 86B0     		sub	sp, sp, #24
 539              		.cfi_def_cfa_offset 32
 540 0004 00AF     		add	r7, sp, #0
 541              		.cfi_def_cfa_register 7
 542 0006 F860     		str	r0, [r7, #12]
 543 0008 B960     		str	r1, [r7, #8]
 544 000a 7A60     		str	r2, [r7, #4]
 545              		.loc 7 168 3
 546 000c FFF7FEFF 		bl	chSysLock
 547              		.loc 7 169 12
 548 0010 7A68     		ldr	r2, [r7, #4]
 549 0012 B968     		ldr	r1, [r7, #8]
 550 0014 F868     		ldr	r0, [r7, #12]
 551 0016 FFF7FEFF 		bl	chMBPostTimeoutS
 552 001a 7861     		str	r0, [r7, #20]
 553              		.loc 7 170 3
 554 001c FFF7FEFF 		bl	chSysUnlock
 555              		.loc 7 172 10
 556 0020 7B69     		ldr	r3, [r7, #20]
 557              		.loc 7 173 1
 558 0022 1846     		mov	r0, r3
 559 0024 1837     		adds	r7, r7, #24
 560              		.cfi_def_cfa_offset 8
 561 0026 BD46     		mov	sp, r7
 562              		.cfi_def_cfa_register 13
 563              		@ sp needed
 564 0028 80BD     		pop	{r7, pc}
 565              		.cfi_endproc
 566              	.LFE349:
 567              		.size	chMBPostTimeout, .-chMBPostTimeout
 568              		.section	.text.chMBPostTimeoutS,"ax",%progbits
 569              		.align	1
 570              		.global	chMBPostTimeoutS
ARM GAS  C:\Users\DEVELO~1\AppData\Local\Temp\ccnKUYf1.s 			page 11


 571              		.syntax unified
 572              		.thumb
 573              		.thumb_func
 574              		.type	chMBPostTimeoutS, %function
 575              	chMBPostTimeoutS:
 576              	.LFB350:
 577              		.loc 7 194 74
 578              		.cfi_startproc
 579              		@ args = 0, pretend = 0, frame = 24
 580              		@ frame_needed = 1, uses_anonymous_args = 0
 581 0000 80B5     		push	{r7, lr}
 582              		.cfi_def_cfa_offset 8
 583              		.cfi_offset 7, -8
 584              		.cfi_offset 14, -4
 585 0002 86B0     		sub	sp, sp, #24
 586              		.cfi_def_cfa_offset 32
 587 0004 00AF     		add	r7, sp, #0
 588              		.cfi_def_cfa_register 7
 589 0006 F860     		str	r0, [r7, #12]
 590 0008 B960     		str	r1, [r7, #8]
 591 000a 7A60     		str	r2, [r7, #4]
 592              	.L21:
 593              		.loc 7 202 12
 594 000c FB68     		ldr	r3, [r7, #12]
 595 000e 1B7D     		ldrb	r3, [r3, #20]	@ zero_extendqisi2
 596              		.loc 7 202 8
 597 0010 002B     		cmp	r3, #0
 598 0012 02D0     		beq	.L17
 599              		.loc 7 203 14
 600 0014 6FF00103 		mvn	r3, #1
 601 0018 30E0     		b	.L18
 602              	.L17:
 603              		.loc 7 207 9
 604 001a F868     		ldr	r0, [r7, #12]
 605 001c FFF7FEFF 		bl	chMBGetFreeCountI
 606 0020 0346     		mov	r3, r0
 607              		.loc 7 207 8
 608 0022 002B     		cmp	r3, #0
 609 0024 1FD0     		beq	.L19
 610              		.loc 7 208 11
 611 0026 FB68     		ldr	r3, [r7, #12]
 612 0028 9B68     		ldr	r3, [r3, #8]
 613              		.loc 7 208 18
 614 002a 191D     		adds	r1, r3, #4
 615 002c FA68     		ldr	r2, [r7, #12]
 616 002e 9160     		str	r1, [r2, #8]
 617              		.loc 7 208 21
 618 0030 BA68     		ldr	r2, [r7, #8]
 619 0032 1A60     		str	r2, [r3]
 620              		.loc 7 209 14
 621 0034 FB68     		ldr	r3, [r7, #12]
 622 0036 9A68     		ldr	r2, [r3, #8]
 623              		.loc 7 209 28
 624 0038 FB68     		ldr	r3, [r7, #12]
 625 003a 5B68     		ldr	r3, [r3, #4]
 626              		.loc 7 209 10
 627 003c 9A42     		cmp	r2, r3
ARM GAS  C:\Users\DEVELO~1\AppData\Local\Temp\ccnKUYf1.s 			page 12


 628 003e 03D3     		bcc	.L20
 629              		.loc 7 210 25
 630 0040 FB68     		ldr	r3, [r7, #12]
 631 0042 1A68     		ldr	r2, [r3]
 632              		.loc 7 210 20
 633 0044 FB68     		ldr	r3, [r7, #12]
 634 0046 9A60     		str	r2, [r3, #8]
 635              	.L20:
 636              		.loc 7 212 10
 637 0048 FB68     		ldr	r3, [r7, #12]
 638 004a 1B69     		ldr	r3, [r3, #16]
 639              		.loc 7 212 15
 640 004c 5A1C     		adds	r2, r3, #1
 641 004e FB68     		ldr	r3, [r7, #12]
 642 0050 1A61     		str	r2, [r3, #16]
 643              		.loc 7 215 7
 644 0052 FB68     		ldr	r3, [r7, #12]
 645 0054 2033     		adds	r3, r3, #32
 646 0056 0021     		movs	r1, #0
 647 0058 1846     		mov	r0, r3
 648 005a FFF7FEFF 		bl	chThdDequeueNextI
 649              		.loc 7 216 7
 650 005e FFF7FEFF 		bl	chSchRescheduleS
 651              		.loc 7 218 14
 652 0062 0023     		movs	r3, #0
 653 0064 0AE0     		b	.L18
 654              	.L19:
 655              		.loc 7 222 14
 656 0066 FB68     		ldr	r3, [r7, #12]
 657 0068 1833     		adds	r3, r3, #24
 658 006a 7968     		ldr	r1, [r7, #4]
 659 006c 1846     		mov	r0, r3
 660 006e FFF7FEFF 		bl	chThdEnqueueTimeoutS
 661 0072 7861     		str	r0, [r7, #20]
 662              		.loc 7 223 19
 663 0074 7B69     		ldr	r3, [r7, #20]
 664 0076 002B     		cmp	r3, #0
 665 0078 C8D0     		beq	.L21
 666              		.loc 7 225 10
 667 007a 7B69     		ldr	r3, [r7, #20]
 668              	.L18:
 669              		.loc 7 226 1
 670 007c 1846     		mov	r0, r3
 671 007e 1837     		adds	r7, r7, #24
 672              		.cfi_def_cfa_offset 8
 673 0080 BD46     		mov	sp, r7
 674              		.cfi_def_cfa_register 13
 675              		@ sp needed
 676 0082 80BD     		pop	{r7, pc}
 677              		.cfi_endproc
 678              	.LFE350:
 679              		.size	chMBPostTimeoutS, .-chMBPostTimeoutS
 680              		.section	.text.chMBPostI,"ax",%progbits
 681              		.align	1
 682              		.global	chMBPostI
 683              		.syntax unified
 684              		.thumb
ARM GAS  C:\Users\DEVELO~1\AppData\Local\Temp\ccnKUYf1.s 			page 13


 685              		.thumb_func
 686              		.type	chMBPostI, %function
 687              	chMBPostI:
 688              	.LFB351:
 689              		.loc 7 243 44
 690              		.cfi_startproc
 691              		@ args = 0, pretend = 0, frame = 8
 692              		@ frame_needed = 1, uses_anonymous_args = 0
 693 0000 80B5     		push	{r7, lr}
 694              		.cfi_def_cfa_offset 8
 695              		.cfi_offset 7, -8
 696              		.cfi_offset 14, -4
 697 0002 82B0     		sub	sp, sp, #8
 698              		.cfi_def_cfa_offset 16
 699 0004 00AF     		add	r7, sp, #0
 700              		.cfi_def_cfa_register 7
 701 0006 7860     		str	r0, [r7, #4]
 702 0008 3960     		str	r1, [r7]
 703              		.loc 7 249 10
 704 000a 7B68     		ldr	r3, [r7, #4]
 705 000c 1B7D     		ldrb	r3, [r3, #20]	@ zero_extendqisi2
 706              		.loc 7 249 6
 707 000e 002B     		cmp	r3, #0
 708 0010 02D0     		beq	.L23
 709              		.loc 7 250 12
 710 0012 6FF00103 		mvn	r3, #1
 711 0016 25E0     		b	.L24
 712              	.L23:
 713              		.loc 7 254 7
 714 0018 7868     		ldr	r0, [r7, #4]
 715 001a FFF7FEFF 		bl	chMBGetFreeCountI
 716 001e 0346     		mov	r3, r0
 717              		.loc 7 254 6
 718 0020 002B     		cmp	r3, #0
 719 0022 1DD0     		beq	.L25
 720              		.loc 7 255 9
 721 0024 7B68     		ldr	r3, [r7, #4]
 722 0026 9B68     		ldr	r3, [r3, #8]
 723              		.loc 7 255 16
 724 0028 191D     		adds	r1, r3, #4
 725 002a 7A68     		ldr	r2, [r7, #4]
 726 002c 9160     		str	r1, [r2, #8]
 727              		.loc 7 255 19
 728 002e 3A68     		ldr	r2, [r7]
 729 0030 1A60     		str	r2, [r3]
 730              		.loc 7 256 12
 731 0032 7B68     		ldr	r3, [r7, #4]
 732 0034 9A68     		ldr	r2, [r3, #8]
 733              		.loc 7 256 26
 734 0036 7B68     		ldr	r3, [r7, #4]
 735 0038 5B68     		ldr	r3, [r3, #4]
 736              		.loc 7 256 8
 737 003a 9A42     		cmp	r2, r3
 738 003c 03D3     		bcc	.L26
 739              		.loc 7 257 23
 740 003e 7B68     		ldr	r3, [r7, #4]
 741 0040 1A68     		ldr	r2, [r3]
ARM GAS  C:\Users\DEVELO~1\AppData\Local\Temp\ccnKUYf1.s 			page 14


 742              		.loc 7 257 18
 743 0042 7B68     		ldr	r3, [r7, #4]
 744 0044 9A60     		str	r2, [r3, #8]
 745              	.L26:
 746              		.loc 7 259 8
 747 0046 7B68     		ldr	r3, [r7, #4]
 748 0048 1B69     		ldr	r3, [r3, #16]
 749              		.loc 7 259 13
 750 004a 5A1C     		adds	r2, r3, #1
 751 004c 7B68     		ldr	r3, [r7, #4]
 752 004e 1A61     		str	r2, [r3, #16]
 753              		.loc 7 262 5
 754 0050 7B68     		ldr	r3, [r7, #4]
 755 0052 2033     		adds	r3, r3, #32
 756 0054 0021     		movs	r1, #0
 757 0056 1846     		mov	r0, r3
 758 0058 FFF7FEFF 		bl	chThdDequeueNextI
 759              		.loc 7 264 12
 760 005c 0023     		movs	r3, #0
 761 005e 01E0     		b	.L24
 762              	.L25:
 763              		.loc 7 268 10
 764 0060 4FF0FF33 		mov	r3, #-1
 765              	.L24:
 766              		.loc 7 269 1
 767 0064 1846     		mov	r0, r3
 768 0066 0837     		adds	r7, r7, #8
 769              		.cfi_def_cfa_offset 8
 770 0068 BD46     		mov	sp, r7
 771              		.cfi_def_cfa_register 13
 772              		@ sp needed
 773 006a 80BD     		pop	{r7, pc}
 774              		.cfi_endproc
 775              	.LFE351:
 776              		.size	chMBPostI, .-chMBPostI
 777              		.section	.text.chMBPostAheadTimeout,"ax",%progbits
 778              		.align	1
 779              		.global	chMBPostAheadTimeout
 780              		.syntax unified
 781              		.thumb
 782              		.thumb_func
 783              		.type	chMBPostAheadTimeout, %function
 784              	chMBPostAheadTimeout:
 785              	.LFB352:
 786              		.loc 7 290 78
 787              		.cfi_startproc
 788              		@ args = 0, pretend = 0, frame = 24
 789              		@ frame_needed = 1, uses_anonymous_args = 0
 790 0000 80B5     		push	{r7, lr}
 791              		.cfi_def_cfa_offset 8
 792              		.cfi_offset 7, -8
 793              		.cfi_offset 14, -4
 794 0002 86B0     		sub	sp, sp, #24
 795              		.cfi_def_cfa_offset 32
 796 0004 00AF     		add	r7, sp, #0
 797              		.cfi_def_cfa_register 7
 798 0006 F860     		str	r0, [r7, #12]
ARM GAS  C:\Users\DEVELO~1\AppData\Local\Temp\ccnKUYf1.s 			page 15


 799 0008 B960     		str	r1, [r7, #8]
 800 000a 7A60     		str	r2, [r7, #4]
 801              		.loc 7 293 3
 802 000c FFF7FEFF 		bl	chSysLock
 803              		.loc 7 294 12
 804 0010 7A68     		ldr	r2, [r7, #4]
 805 0012 B968     		ldr	r1, [r7, #8]
 806 0014 F868     		ldr	r0, [r7, #12]
 807 0016 FFF7FEFF 		bl	chMBPostAheadTimeoutS
 808 001a 7861     		str	r0, [r7, #20]
 809              		.loc 7 295 3
 810 001c FFF7FEFF 		bl	chSysUnlock
 811              		.loc 7 297 10
 812 0020 7B69     		ldr	r3, [r7, #20]
 813              		.loc 7 298 1
 814 0022 1846     		mov	r0, r3
 815 0024 1837     		adds	r7, r7, #24
 816              		.cfi_def_cfa_offset 8
 817 0026 BD46     		mov	sp, r7
 818              		.cfi_def_cfa_register 13
 819              		@ sp needed
 820 0028 80BD     		pop	{r7, pc}
 821              		.cfi_endproc
 822              	.LFE352:
 823              		.size	chMBPostAheadTimeout, .-chMBPostAheadTimeout
 824              		.section	.text.chMBPostAheadTimeoutS,"ax",%progbits
 825              		.align	1
 826              		.global	chMBPostAheadTimeoutS
 827              		.syntax unified
 828              		.thumb
 829              		.thumb_func
 830              		.type	chMBPostAheadTimeoutS, %function
 831              	chMBPostAheadTimeoutS:
 832              	.LFB353:
 833              		.loc 7 319 79
 834              		.cfi_startproc
 835              		@ args = 0, pretend = 0, frame = 24
 836              		@ frame_needed = 1, uses_anonymous_args = 0
 837 0000 80B5     		push	{r7, lr}
 838              		.cfi_def_cfa_offset 8
 839              		.cfi_offset 7, -8
 840              		.cfi_offset 14, -4
 841 0002 86B0     		sub	sp, sp, #24
 842              		.cfi_def_cfa_offset 32
 843 0004 00AF     		add	r7, sp, #0
 844              		.cfi_def_cfa_register 7
 845 0006 F860     		str	r0, [r7, #12]
 846 0008 B960     		str	r1, [r7, #8]
 847 000a 7A60     		str	r2, [r7, #4]
 848              	.L34:
 849              		.loc 7 327 12
 850 000c FB68     		ldr	r3, [r7, #12]
 851 000e 1B7D     		ldrb	r3, [r3, #20]	@ zero_extendqisi2
 852              		.loc 7 327 8
 853 0010 002B     		cmp	r3, #0
 854 0012 02D0     		beq	.L30
 855              		.loc 7 328 14
ARM GAS  C:\Users\DEVELO~1\AppData\Local\Temp\ccnKUYf1.s 			page 16


 856 0014 6FF00103 		mvn	r3, #1
 857 0018 33E0     		b	.L31
 858              	.L30:
 859              		.loc 7 332 9
 860 001a F868     		ldr	r0, [r7, #12]
 861 001c FFF7FEFF 		bl	chMBGetFreeCountI
 862 0020 0346     		mov	r3, r0
 863              		.loc 7 332 8
 864 0022 002B     		cmp	r3, #0
 865 0024 22D0     		beq	.L32
 866              		.loc 7 333 16
 867 0026 FB68     		ldr	r3, [r7, #12]
 868 0028 DB68     		ldr	r3, [r3, #12]
 869              		.loc 7 333 11
 870 002a 1A1F     		subs	r2, r3, #4
 871              		.loc 7 333 10
 872 002c FB68     		ldr	r3, [r7, #12]
 873 002e DA60     		str	r2, [r3, #12]
 874              		.loc 7 333 16
 875 0030 FB68     		ldr	r3, [r7, #12]
 876 0032 DA68     		ldr	r2, [r3, #12]
 877              		.loc 7 333 29
 878 0034 FB68     		ldr	r3, [r7, #12]
 879 0036 1B68     		ldr	r3, [r3]
 880              		.loc 7 333 10
 881 0038 9A42     		cmp	r2, r3
 882 003a 04D2     		bcs	.L33
 883              		.loc 7 334 25
 884 003c FB68     		ldr	r3, [r7, #12]
 885 003e 5B68     		ldr	r3, [r3, #4]
 886              		.loc 7 334 31
 887 0040 1A1F     		subs	r2, r3, #4
 888              		.loc 7 334 20
 889 0042 FB68     		ldr	r3, [r7, #12]
 890 0044 DA60     		str	r2, [r3, #12]
 891              	.L33:
 892              		.loc 7 336 11
 893 0046 FB68     		ldr	r3, [r7, #12]
 894 0048 DB68     		ldr	r3, [r3, #12]
 895              		.loc 7 336 19
 896 004a BA68     		ldr	r2, [r7, #8]
 897 004c 1A60     		str	r2, [r3]
 898              		.loc 7 337 10
 899 004e FB68     		ldr	r3, [r7, #12]
 900 0050 1B69     		ldr	r3, [r3, #16]
 901              		.loc 7 337 15
 902 0052 5A1C     		adds	r2, r3, #1
 903 0054 FB68     		ldr	r3, [r7, #12]
 904 0056 1A61     		str	r2, [r3, #16]
 905              		.loc 7 340 7
 906 0058 FB68     		ldr	r3, [r7, #12]
 907 005a 2033     		adds	r3, r3, #32
 908 005c 0021     		movs	r1, #0
 909 005e 1846     		mov	r0, r3
 910 0060 FFF7FEFF 		bl	chThdDequeueNextI
 911              		.loc 7 341 7
 912 0064 FFF7FEFF 		bl	chSchRescheduleS
ARM GAS  C:\Users\DEVELO~1\AppData\Local\Temp\ccnKUYf1.s 			page 17


 913              		.loc 7 343 14
 914 0068 0023     		movs	r3, #0
 915 006a 0AE0     		b	.L31
 916              	.L32:
 917              		.loc 7 347 14
 918 006c FB68     		ldr	r3, [r7, #12]
 919 006e 1833     		adds	r3, r3, #24
 920 0070 7968     		ldr	r1, [r7, #4]
 921 0072 1846     		mov	r0, r3
 922 0074 FFF7FEFF 		bl	chThdEnqueueTimeoutS
 923 0078 7861     		str	r0, [r7, #20]
 924              		.loc 7 348 19
 925 007a 7B69     		ldr	r3, [r7, #20]
 926 007c 002B     		cmp	r3, #0
 927 007e C5D0     		beq	.L34
 928              		.loc 7 350 10
 929 0080 7B69     		ldr	r3, [r7, #20]
 930              	.L31:
 931              		.loc 7 351 1
 932 0082 1846     		mov	r0, r3
 933 0084 1837     		adds	r7, r7, #24
 934              		.cfi_def_cfa_offset 8
 935 0086 BD46     		mov	sp, r7
 936              		.cfi_def_cfa_register 13
 937              		@ sp needed
 938 0088 80BD     		pop	{r7, pc}
 939              		.cfi_endproc
 940              	.LFE353:
 941              		.size	chMBPostAheadTimeoutS, .-chMBPostAheadTimeoutS
 942              		.section	.text.chMBPostAheadI,"ax",%progbits
 943              		.align	1
 944              		.global	chMBPostAheadI
 945              		.syntax unified
 946              		.thumb
 947              		.thumb_func
 948              		.type	chMBPostAheadI, %function
 949              	chMBPostAheadI:
 950              	.LFB354:
 951              		.loc 7 368 49
 952              		.cfi_startproc
 953              		@ args = 0, pretend = 0, frame = 8
 954              		@ frame_needed = 1, uses_anonymous_args = 0
 955 0000 80B5     		push	{r7, lr}
 956              		.cfi_def_cfa_offset 8
 957              		.cfi_offset 7, -8
 958              		.cfi_offset 14, -4
 959 0002 82B0     		sub	sp, sp, #8
 960              		.cfi_def_cfa_offset 16
 961 0004 00AF     		add	r7, sp, #0
 962              		.cfi_def_cfa_register 7
 963 0006 7860     		str	r0, [r7, #4]
 964 0008 3960     		str	r1, [r7]
 965              		.loc 7 374 10
 966 000a 7B68     		ldr	r3, [r7, #4]
 967 000c 1B7D     		ldrb	r3, [r3, #20]	@ zero_extendqisi2
 968              		.loc 7 374 6
 969 000e 002B     		cmp	r3, #0
ARM GAS  C:\Users\DEVELO~1\AppData\Local\Temp\ccnKUYf1.s 			page 18


 970 0010 02D0     		beq	.L36
 971              		.loc 7 375 12
 972 0012 6FF00103 		mvn	r3, #1
 973 0016 28E0     		b	.L37
 974              	.L36:
 975              		.loc 7 379 7
 976 0018 7868     		ldr	r0, [r7, #4]
 977 001a FFF7FEFF 		bl	chMBGetFreeCountI
 978 001e 0346     		mov	r3, r0
 979              		.loc 7 379 6
 980 0020 002B     		cmp	r3, #0
 981 0022 20D0     		beq	.L38
 982              		.loc 7 380 14
 983 0024 7B68     		ldr	r3, [r7, #4]
 984 0026 DB68     		ldr	r3, [r3, #12]
 985              		.loc 7 380 9
 986 0028 1A1F     		subs	r2, r3, #4
 987              		.loc 7 380 8
 988 002a 7B68     		ldr	r3, [r7, #4]
 989 002c DA60     		str	r2, [r3, #12]
 990              		.loc 7 380 14
 991 002e 7B68     		ldr	r3, [r7, #4]
 992 0030 DA68     		ldr	r2, [r3, #12]
 993              		.loc 7 380 27
 994 0032 7B68     		ldr	r3, [r7, #4]
 995 0034 1B68     		ldr	r3, [r3]
 996              		.loc 7 380 8
 997 0036 9A42     		cmp	r2, r3
 998 0038 04D2     		bcs	.L39
 999              		.loc 7 381 23
 1000 003a 7B68     		ldr	r3, [r7, #4]
 1001 003c 5B68     		ldr	r3, [r3, #4]
 1002              		.loc 7 381 29
 1003 003e 1A1F     		subs	r2, r3, #4
 1004              		.loc 7 381 18
 1005 0040 7B68     		ldr	r3, [r7, #4]
 1006 0042 DA60     		str	r2, [r3, #12]
 1007              	.L39:
 1008              		.loc 7 383 9
 1009 0044 7B68     		ldr	r3, [r7, #4]
 1010 0046 DB68     		ldr	r3, [r3, #12]
 1011              		.loc 7 383 17
 1012 0048 3A68     		ldr	r2, [r7]
 1013 004a 1A60     		str	r2, [r3]
 1014              		.loc 7 384 8
 1015 004c 7B68     		ldr	r3, [r7, #4]
 1016 004e 1B69     		ldr	r3, [r3, #16]
 1017              		.loc 7 384 13
 1018 0050 5A1C     		adds	r2, r3, #1
 1019 0052 7B68     		ldr	r3, [r7, #4]
 1020 0054 1A61     		str	r2, [r3, #16]
 1021              		.loc 7 387 5
 1022 0056 7B68     		ldr	r3, [r7, #4]
 1023 0058 2033     		adds	r3, r3, #32
 1024 005a 0021     		movs	r1, #0
 1025 005c 1846     		mov	r0, r3
 1026 005e FFF7FEFF 		bl	chThdDequeueNextI
ARM GAS  C:\Users\DEVELO~1\AppData\Local\Temp\ccnKUYf1.s 			page 19


 1027              		.loc 7 389 12
 1028 0062 0023     		movs	r3, #0
 1029 0064 01E0     		b	.L37
 1030              	.L38:
 1031              		.loc 7 393 10
 1032 0066 4FF0FF33 		mov	r3, #-1
 1033              	.L37:
 1034              		.loc 7 394 1
 1035 006a 1846     		mov	r0, r3
 1036 006c 0837     		adds	r7, r7, #8
 1037              		.cfi_def_cfa_offset 8
 1038 006e BD46     		mov	sp, r7
 1039              		.cfi_def_cfa_register 13
 1040              		@ sp needed
 1041 0070 80BD     		pop	{r7, pc}
 1042              		.cfi_endproc
 1043              	.LFE354:
 1044              		.size	chMBPostAheadI, .-chMBPostAheadI
 1045              		.section	.text.chMBFetchTimeout,"ax",%progbits
 1046              		.align	1
 1047              		.global	chMBFetchTimeout
 1048              		.syntax unified
 1049              		.thumb
 1050              		.thumb_func
 1051              		.type	chMBFetchTimeout, %function
 1052              	chMBFetchTimeout:
 1053              	.LFB355:
 1054              		.loc 7 415 76
 1055              		.cfi_startproc
 1056              		@ args = 0, pretend = 0, frame = 24
 1057              		@ frame_needed = 1, uses_anonymous_args = 0
 1058 0000 80B5     		push	{r7, lr}
 1059              		.cfi_def_cfa_offset 8
 1060              		.cfi_offset 7, -8
 1061              		.cfi_offset 14, -4
 1062 0002 86B0     		sub	sp, sp, #24
 1063              		.cfi_def_cfa_offset 32
 1064 0004 00AF     		add	r7, sp, #0
 1065              		.cfi_def_cfa_register 7
 1066 0006 F860     		str	r0, [r7, #12]
 1067 0008 B960     		str	r1, [r7, #8]
 1068 000a 7A60     		str	r2, [r7, #4]
 1069              		.loc 7 418 3
 1070 000c FFF7FEFF 		bl	chSysLock
 1071              		.loc 7 419 12
 1072 0010 7A68     		ldr	r2, [r7, #4]
 1073 0012 B968     		ldr	r1, [r7, #8]
 1074 0014 F868     		ldr	r0, [r7, #12]
 1075 0016 FFF7FEFF 		bl	chMBFetchTimeoutS
 1076 001a 7861     		str	r0, [r7, #20]
 1077              		.loc 7 420 3
 1078 001c FFF7FEFF 		bl	chSysUnlock
 1079              		.loc 7 422 10
 1080 0020 7B69     		ldr	r3, [r7, #20]
 1081              		.loc 7 423 1
 1082 0022 1846     		mov	r0, r3
 1083 0024 1837     		adds	r7, r7, #24
ARM GAS  C:\Users\DEVELO~1\AppData\Local\Temp\ccnKUYf1.s 			page 20


 1084              		.cfi_def_cfa_offset 8
 1085 0026 BD46     		mov	sp, r7
 1086              		.cfi_def_cfa_register 13
 1087              		@ sp needed
 1088 0028 80BD     		pop	{r7, pc}
 1089              		.cfi_endproc
 1090              	.LFE355:
 1091              		.size	chMBFetchTimeout, .-chMBFetchTimeout
 1092              		.section	.text.chMBFetchTimeoutS,"ax",%progbits
 1093              		.align	1
 1094              		.global	chMBFetchTimeoutS
 1095              		.syntax unified
 1096              		.thumb
 1097              		.thumb_func
 1098              		.type	chMBFetchTimeoutS, %function
 1099              	chMBFetchTimeoutS:
 1100              	.LFB356:
 1101              		.loc 7 444 77
 1102              		.cfi_startproc
 1103              		@ args = 0, pretend = 0, frame = 24
 1104              		@ frame_needed = 1, uses_anonymous_args = 0
 1105 0000 80B5     		push	{r7, lr}
 1106              		.cfi_def_cfa_offset 8
 1107              		.cfi_offset 7, -8
 1108              		.cfi_offset 14, -4
 1109 0002 86B0     		sub	sp, sp, #24
 1110              		.cfi_def_cfa_offset 32
 1111 0004 00AF     		add	r7, sp, #0
 1112              		.cfi_def_cfa_register 7
 1113 0006 F860     		str	r0, [r7, #12]
 1114 0008 B960     		str	r1, [r7, #8]
 1115 000a 7A60     		str	r2, [r7, #4]
 1116              	.L47:
 1117              		.loc 7 452 12
 1118 000c FB68     		ldr	r3, [r7, #12]
 1119 000e 1B7D     		ldrb	r3, [r3, #20]	@ zero_extendqisi2
 1120              		.loc 7 452 8
 1121 0010 002B     		cmp	r3, #0
 1122 0012 02D0     		beq	.L43
 1123              		.loc 7 453 14
 1124 0014 6FF00103 		mvn	r3, #1
 1125 0018 31E0     		b	.L44
 1126              	.L43:
 1127              		.loc 7 457 9
 1128 001a F868     		ldr	r0, [r7, #12]
 1129 001c FFF7FEFF 		bl	chMBGetUsedCountI
 1130 0020 0346     		mov	r3, r0
 1131              		.loc 7 457 8
 1132 0022 002B     		cmp	r3, #0
 1133 0024 20D0     		beq	.L45
 1134              		.loc 7 458 19
 1135 0026 FB68     		ldr	r3, [r7, #12]
 1136 0028 DB68     		ldr	r3, [r3, #12]
 1137              		.loc 7 458 26
 1138 002a 191D     		adds	r1, r3, #4
 1139 002c FA68     		ldr	r2, [r7, #12]
 1140 002e D160     		str	r1, [r2, #12]
ARM GAS  C:\Users\DEVELO~1\AppData\Local\Temp\ccnKUYf1.s 			page 21


 1141              		.loc 7 458 15
 1142 0030 1A68     		ldr	r2, [r3]
 1143              		.loc 7 458 13
 1144 0032 BB68     		ldr	r3, [r7, #8]
 1145 0034 1A60     		str	r2, [r3]
 1146              		.loc 7 459 14
 1147 0036 FB68     		ldr	r3, [r7, #12]
 1148 0038 DA68     		ldr	r2, [r3, #12]
 1149              		.loc 7 459 28
 1150 003a FB68     		ldr	r3, [r7, #12]
 1151 003c 5B68     		ldr	r3, [r3, #4]
 1152              		.loc 7 459 10
 1153 003e 9A42     		cmp	r2, r3
 1154 0040 03D3     		bcc	.L46
 1155              		.loc 7 460 25
 1156 0042 FB68     		ldr	r3, [r7, #12]
 1157 0044 1A68     		ldr	r2, [r3]
 1158              		.loc 7 460 20
 1159 0046 FB68     		ldr	r3, [r7, #12]
 1160 0048 DA60     		str	r2, [r3, #12]
 1161              	.L46:
 1162              		.loc 7 462 10
 1163 004a FB68     		ldr	r3, [r7, #12]
 1164 004c 1B69     		ldr	r3, [r3, #16]
 1165              		.loc 7 462 15
 1166 004e 5A1E     		subs	r2, r3, #1
 1167 0050 FB68     		ldr	r3, [r7, #12]
 1168 0052 1A61     		str	r2, [r3, #16]
 1169              		.loc 7 465 7
 1170 0054 FB68     		ldr	r3, [r7, #12]
 1171 0056 1833     		adds	r3, r3, #24
 1172 0058 0021     		movs	r1, #0
 1173 005a 1846     		mov	r0, r3
 1174 005c FFF7FEFF 		bl	chThdDequeueNextI
 1175              		.loc 7 466 7
 1176 0060 FFF7FEFF 		bl	chSchRescheduleS
 1177              		.loc 7 468 14
 1178 0064 0023     		movs	r3, #0
 1179 0066 0AE0     		b	.L44
 1180              	.L45:
 1181              		.loc 7 472 14
 1182 0068 FB68     		ldr	r3, [r7, #12]
 1183 006a 2033     		adds	r3, r3, #32
 1184 006c 7968     		ldr	r1, [r7, #4]
 1185 006e 1846     		mov	r0, r3
 1186 0070 FFF7FEFF 		bl	chThdEnqueueTimeoutS
 1187 0074 7861     		str	r0, [r7, #20]
 1188              		.loc 7 473 19
 1189 0076 7B69     		ldr	r3, [r7, #20]
 1190 0078 002B     		cmp	r3, #0
 1191 007a C7D0     		beq	.L47
 1192              		.loc 7 475 10
 1193 007c 7B69     		ldr	r3, [r7, #20]
 1194              	.L44:
 1195              		.loc 7 476 1
 1196 007e 1846     		mov	r0, r3
 1197 0080 1837     		adds	r7, r7, #24
ARM GAS  C:\Users\DEVELO~1\AppData\Local\Temp\ccnKUYf1.s 			page 22


 1198              		.cfi_def_cfa_offset 8
 1199 0082 BD46     		mov	sp, r7
 1200              		.cfi_def_cfa_register 13
 1201              		@ sp needed
 1202 0084 80BD     		pop	{r7, pc}
 1203              		.cfi_endproc
 1204              	.LFE356:
 1205              		.size	chMBFetchTimeoutS, .-chMBFetchTimeoutS
 1206              		.section	.text.chMBFetchI,"ax",%progbits
 1207              		.align	1
 1208              		.global	chMBFetchI
 1209              		.syntax unified
 1210              		.thumb
 1211              		.thumb_func
 1212              		.type	chMBFetchI, %function
 1213              	chMBFetchI:
 1214              	.LFB357:
 1215              		.loc 7 493 47
 1216              		.cfi_startproc
 1217              		@ args = 0, pretend = 0, frame = 8
 1218              		@ frame_needed = 1, uses_anonymous_args = 0
 1219 0000 80B5     		push	{r7, lr}
 1220              		.cfi_def_cfa_offset 8
 1221              		.cfi_offset 7, -8
 1222              		.cfi_offset 14, -4
 1223 0002 82B0     		sub	sp, sp, #8
 1224              		.cfi_def_cfa_offset 16
 1225 0004 00AF     		add	r7, sp, #0
 1226              		.cfi_def_cfa_register 7
 1227 0006 7860     		str	r0, [r7, #4]
 1228 0008 3960     		str	r1, [r7]
 1229              		.loc 7 499 10
 1230 000a 7B68     		ldr	r3, [r7, #4]
 1231 000c 1B7D     		ldrb	r3, [r3, #20]	@ zero_extendqisi2
 1232              		.loc 7 499 6
 1233 000e 002B     		cmp	r3, #0
 1234 0010 02D0     		beq	.L49
 1235              		.loc 7 500 12
 1236 0012 6FF00103 		mvn	r3, #1
 1237 0016 26E0     		b	.L50
 1238              	.L49:
 1239              		.loc 7 504 7
 1240 0018 7868     		ldr	r0, [r7, #4]
 1241 001a FFF7FEFF 		bl	chMBGetUsedCountI
 1242 001e 0346     		mov	r3, r0
 1243              		.loc 7 504 6
 1244 0020 002B     		cmp	r3, #0
 1245 0022 1ED0     		beq	.L51
 1246              		.loc 7 505 17
 1247 0024 7B68     		ldr	r3, [r7, #4]
 1248 0026 DB68     		ldr	r3, [r3, #12]
 1249              		.loc 7 505 24
 1250 0028 191D     		adds	r1, r3, #4
 1251 002a 7A68     		ldr	r2, [r7, #4]
 1252 002c D160     		str	r1, [r2, #12]
 1253              		.loc 7 505 13
 1254 002e 1A68     		ldr	r2, [r3]
ARM GAS  C:\Users\DEVELO~1\AppData\Local\Temp\ccnKUYf1.s 			page 23


 1255              		.loc 7 505 11
 1256 0030 3B68     		ldr	r3, [r7]
 1257 0032 1A60     		str	r2, [r3]
 1258              		.loc 7 506 12
 1259 0034 7B68     		ldr	r3, [r7, #4]
 1260 0036 DA68     		ldr	r2, [r3, #12]
 1261              		.loc 7 506 26
 1262 0038 7B68     		ldr	r3, [r7, #4]
 1263 003a 5B68     		ldr	r3, [r3, #4]
 1264              		.loc 7 506 8
 1265 003c 9A42     		cmp	r2, r3
 1266 003e 03D3     		bcc	.L52
 1267              		.loc 7 507 23
 1268 0040 7B68     		ldr	r3, [r7, #4]
 1269 0042 1A68     		ldr	r2, [r3]
 1270              		.loc 7 507 18
 1271 0044 7B68     		ldr	r3, [r7, #4]
 1272 0046 DA60     		str	r2, [r3, #12]
 1273              	.L52:
 1274              		.loc 7 509 8
 1275 0048 7B68     		ldr	r3, [r7, #4]
 1276 004a 1B69     		ldr	r3, [r3, #16]
 1277              		.loc 7 509 13
 1278 004c 5A1E     		subs	r2, r3, #1
 1279 004e 7B68     		ldr	r3, [r7, #4]
 1280 0050 1A61     		str	r2, [r3, #16]
 1281              		.loc 7 512 5
 1282 0052 7B68     		ldr	r3, [r7, #4]
 1283 0054 1833     		adds	r3, r3, #24
 1284 0056 0021     		movs	r1, #0
 1285 0058 1846     		mov	r0, r3
 1286 005a FFF7FEFF 		bl	chThdDequeueNextI
 1287              		.loc 7 514 12
 1288 005e 0023     		movs	r3, #0
 1289 0060 01E0     		b	.L50
 1290              	.L51:
 1291              		.loc 7 518 10
 1292 0062 4FF0FF33 		mov	r3, #-1
 1293              	.L50:
 1294              		.loc 7 519 1
 1295 0066 1846     		mov	r0, r3
 1296 0068 0837     		adds	r7, r7, #8
 1297              		.cfi_def_cfa_offset 8
 1298 006a BD46     		mov	sp, r7
 1299              		.cfi_def_cfa_register 13
 1300              		@ sp needed
 1301 006c 80BD     		pop	{r7, pc}
 1302              		.cfi_endproc
 1303              	.LFE357:
 1304              		.size	chMBFetchI, .-chMBFetchI
 1305              		.text
 1306              	.Letext0:
 1307              		.file 8 "c:\\chibistudio\\tools\\gnu tools arm embedded\\11.3 2022.08\\lib\\gcc\\arm-none-eabi\\11
 1308              		.file 9 "c:\\chibistudio\\tools\\gnu tools arm embedded\\11.3 2022.08\\arm-none-eabi\\include\\mac
 1309              		.file 10 "c:\\chibistudio\\tools\\gnu tools arm embedded\\11.3 2022.08\\arm-none-eabi\\include\\sy
 1310              		.file 11 "../../../os/rt/include/chearly.h"
 1311              		.file 12 "../../../os/rt/include/chtime.h"
ARM GAS  C:\Users\DEVELO~1\AppData\Local\Temp\ccnKUYf1.s 			page 24


 1312              		.file 13 "../../../os/rt/include/chobjects.h"
 1313              		.file 14 "../../../os/rt/include/chschd.h"
 1314              		.section	.debug_info,"",%progbits
 1315              	.Ldebug_info0:
 1316 0000 97070000 		.4byte	0x797
 1317 0004 0500     		.2byte	0x5
 1318 0006 01       		.byte	0x1
 1319 0007 04       		.byte	0x4
 1320 0008 00000000 		.4byte	.Ldebug_abbrev0
 1321 000c 1B       		.uleb128 0x1b
 1322 000d 10000000 		.4byte	.LASF57
 1323 0011 1D       		.byte	0x1d
 1324 0012 27020000 		.4byte	.LASF58
 1325 0016 03010000 		.4byte	.LASF59
 1326 001a 0C000000 		.4byte	.LLRL0
 1327 001e 00000000 		.4byte	0
 1328 0022 00000000 		.4byte	.Ldebug_line0
 1329 0026 1C       		.uleb128 0x1c
 1330 0027 04       		.byte	0x4
 1331 0028 05       		.byte	0x5
 1332 0029 696E7400 		.ascii	"int\000"
 1333 002d 03       		.uleb128 0x3
 1334 002e B6000000 		.4byte	.LASF7
 1335 0032 08       		.byte	0x8
 1336 0033 D1       		.byte	0xd1
 1337 0034 17       		.byte	0x17
 1338 0035 39000000 		.4byte	0x39
 1339 0039 02       		.uleb128 0x2
 1340 003a 04       		.byte	0x4
 1341 003b 07       		.byte	0x7
 1342 003c DB030000 		.4byte	.LASF0
 1343 0040 02       		.uleb128 0x2
 1344 0041 08       		.byte	0x8
 1345 0042 05       		.byte	0x5
 1346 0043 EC010000 		.4byte	.LASF1
 1347 0047 02       		.uleb128 0x2
 1348 0048 08       		.byte	0x8
 1349 0049 04       		.byte	0x4
 1350 004a E0010000 		.4byte	.LASF2
 1351 004e 02       		.uleb128 0x2
 1352 004f 01       		.byte	0x1
 1353 0050 06       		.byte	0x6
 1354 0051 75020000 		.4byte	.LASF3
 1355 0055 02       		.uleb128 0x2
 1356 0056 01       		.byte	0x1
 1357 0057 08       		.byte	0x8
 1358 0058 54020000 		.4byte	.LASF4
 1359 005c 02       		.uleb128 0x2
 1360 005d 02       		.byte	0x2
 1361 005e 05       		.byte	0x5
 1362 005f AC000000 		.4byte	.LASF5
 1363 0063 02       		.uleb128 0x2
 1364 0064 02       		.byte	0x2
 1365 0065 07       		.byte	0x7
 1366 0066 BF020000 		.4byte	.LASF6
 1367 006a 03       		.uleb128 0x3
 1368 006b 88030000 		.4byte	.LASF8
ARM GAS  C:\Users\DEVELO~1\AppData\Local\Temp\ccnKUYf1.s 			page 25


 1369 006f 09       		.byte	0x9
 1370 0070 4D       		.byte	0x4d
 1371 0071 18       		.byte	0x18
 1372 0072 76000000 		.4byte	0x76
 1373 0076 02       		.uleb128 0x2
 1374 0077 04       		.byte	0x4
 1375 0078 05       		.byte	0x5
 1376 0079 1E020000 		.4byte	.LASF9
 1377 007d 03       		.uleb128 0x3
 1378 007e 5D030000 		.4byte	.LASF10
 1379 0082 09       		.byte	0x9
 1380 0083 4F       		.byte	0x4f
 1381 0084 19       		.byte	0x19
 1382 0085 89000000 		.4byte	0x89
 1383 0089 02       		.uleb128 0x2
 1384 008a 04       		.byte	0x4
 1385 008b 07       		.byte	0x7
 1386 008c 3E030000 		.4byte	.LASF11
 1387 0090 02       		.uleb128 0x2
 1388 0091 08       		.byte	0x8
 1389 0092 07       		.byte	0x7
 1390 0093 81020000 		.4byte	.LASF12
 1391 0097 03       		.uleb128 0x3
 1392 0098 DF020000 		.4byte	.LASF13
 1393 009c 0A       		.byte	0xa
 1394 009d 2C       		.byte	0x2c
 1395 009e 13       		.byte	0x13
 1396 009f 6A000000 		.4byte	0x6a
 1397 00a3 03       		.uleb128 0x3
 1398 00a4 98020000 		.4byte	.LASF14
 1399 00a8 0A       		.byte	0xa
 1400 00a9 30       		.byte	0x30
 1401 00aa 14       		.byte	0x14
 1402 00ab 7D000000 		.4byte	0x7d
 1403 00af 03       		.uleb128 0x3
 1404 00b0 EF030000 		.4byte	.LASF15
 1405 00b4 0B       		.byte	0xb
 1406 00b5 58       		.byte	0x58
 1407 00b6 19       		.byte	0x19
 1408 00b7 97000000 		.4byte	0x97
 1409 00bb 02       		.uleb128 0x2
 1410 00bc 01       		.byte	0x1
 1411 00bd 08       		.byte	0x8
 1412 00be DA020000 		.4byte	.LASF16
 1413 00c2 05       		.uleb128 0x5
 1414 00c3 BB000000 		.4byte	0xbb
 1415 00c7 03       		.uleb128 0x3
 1416 00c8 A6020000 		.4byte	.LASF17
 1417 00cc 0C       		.byte	0xc
 1418 00cd 79       		.byte	0x79
 1419 00ce 12       		.byte	0x12
 1420 00cf A3000000 		.4byte	0xa3
 1421 00d3 03       		.uleb128 0x3
 1422 00d4 CF010000 		.4byte	.LASF18
 1423 00d8 01       		.byte	0x1
 1424 00d9 3F       		.byte	0x3f
 1425 00da 19       		.byte	0x19
ARM GAS  C:\Users\DEVELO~1\AppData\Local\Temp\ccnKUYf1.s 			page 26


 1426 00db DF000000 		.4byte	0xdf
 1427 00df 13       		.uleb128 0x13
 1428 00e0 BF030000 		.4byte	.LASF21
 1429 00e4 01       		.byte	0x1
 1430 00e5 45       		.byte	0x45
 1431 00e6 08       		.byte	0x8
 1432 00e7 06010000 		.4byte	0x106
 1433 00eb 07       		.uleb128 0x7
 1434 00ec FD030000 		.4byte	.LASF19
 1435 00f0 01       		.byte	0x1
 1436 00f1 46       		.byte	0x46
 1437 00f2 1A       		.byte	0x1a
 1438 00f3 06010000 		.4byte	0x106
 1439 00f7 00       		.byte	0
 1440 00f8 07       		.uleb128 0x7
 1441 00f9 D6030000 		.4byte	.LASF20
 1442 00fd 01       		.byte	0x1
 1443 00fe 47       		.byte	0x47
 1444 00ff 1A       		.byte	0x1a
 1445 0100 06010000 		.4byte	0x106
 1446 0104 04       		.byte	0x4
 1447 0105 00       		.byte	0
 1448 0106 0D       		.uleb128 0xd
 1449 0107 D3000000 		.4byte	0xd3
 1450 010b 13       		.uleb128 0x13
 1451 010c BE010000 		.4byte	.LASF22
 1452 0110 0D       		.byte	0xd
 1453 0111 8F       		.byte	0x8f
 1454 0112 10       		.byte	0x10
 1455 0113 25010000 		.4byte	0x125
 1456 0117 07       		.uleb128 0x7
 1457 0118 4E020000 		.4byte	.LASF23
 1458 011c 0D       		.byte	0xd
 1459 011d 93       		.byte	0x93
 1460 011e 21       		.byte	0x21
 1461 011f D3000000 		.4byte	0xd3
 1462 0123 00       		.byte	0
 1463 0124 00       		.byte	0
 1464 0125 03       		.uleb128 0x3
 1465 0126 00000000 		.4byte	.LASF24
 1466 012a 0D       		.byte	0xd
 1467 012b 94       		.byte	0x94
 1468 012c 03       		.byte	0x3
 1469 012d 0B010000 		.4byte	0x10b
 1470 0131 1D       		.uleb128 0x1d
 1471 0132 28       		.byte	0x28
 1472 0133 06       		.byte	0x6
 1473 0134 34       		.byte	0x34
 1474 0135 09       		.byte	0x9
 1475 0136 9D010000 		.4byte	0x19d
 1476 013a 07       		.uleb128 0x7
 1477 013b 22030000 		.4byte	.LASF25
 1478 013f 06       		.byte	0x6
 1479 0140 35       		.byte	0x35
 1480 0141 1A       		.byte	0x1a
 1481 0142 9D010000 		.4byte	0x19d
 1482 0146 00       		.byte	0
ARM GAS  C:\Users\DEVELO~1\AppData\Local\Temp\ccnKUYf1.s 			page 27


 1483 0147 0E       		.uleb128 0xe
 1484 0148 746F7000 		.ascii	"top\000"
 1485 014c 37       		.byte	0x37
 1486 014d 1A       		.byte	0x1a
 1487 014e 9D010000 		.4byte	0x19d
 1488 0152 04       		.byte	0x4
 1489 0153 07       		.uleb128 0x7
 1490 0154 DA010000 		.4byte	.LASF26
 1491 0158 06       		.byte	0x6
 1492 0159 39       		.byte	0x39
 1493 015a 1A       		.byte	0x1a
 1494 015b 9D010000 		.4byte	0x19d
 1495 015f 08       		.byte	0x8
 1496 0160 07       		.uleb128 0x7
 1497 0161 48020000 		.4byte	.LASF27
 1498 0165 06       		.byte	0x6
 1499 0166 3A       		.byte	0x3a
 1500 0167 1A       		.byte	0x1a
 1501 0168 9D010000 		.4byte	0x19d
 1502 016c 0C       		.byte	0xc
 1503 016d 0E       		.uleb128 0xe
 1504 016e 636E7400 		.ascii	"cnt\000"
 1505 0172 3B       		.byte	0x3b
 1506 0173 19       		.byte	0x19
 1507 0174 2D000000 		.4byte	0x2d
 1508 0178 10       		.byte	0x10
 1509 0179 07       		.uleb128 0x7
 1510 017a 82030000 		.4byte	.LASF28
 1511 017e 06       		.byte	0x6
 1512 017f 3C       		.byte	0x3c
 1513 0180 19       		.byte	0x19
 1514 0181 A2010000 		.4byte	0x1a2
 1515 0185 14       		.byte	0x14
 1516 0186 0E       		.uleb128 0xe
 1517 0187 717700   		.ascii	"qw\000"
 1518 018a 3D       		.byte	0x3d
 1519 018b 19       		.byte	0x19
 1520 018c 25010000 		.4byte	0x125
 1521 0190 18       		.byte	0x18
 1522 0191 0E       		.uleb128 0xe
 1523 0192 717200   		.ascii	"qr\000"
 1524 0195 3E       		.byte	0x3e
 1525 0196 19       		.byte	0x19
 1526 0197 25010000 		.4byte	0x125
 1527 019b 20       		.byte	0x20
 1528 019c 00       		.byte	0
 1529 019d 0D       		.uleb128 0xd
 1530 019e AF000000 		.4byte	0xaf
 1531 01a2 02       		.uleb128 0x2
 1532 01a3 01       		.byte	0x1
 1533 01a4 02       		.byte	0x2
 1534 01a5 F1020000 		.4byte	.LASF29
 1535 01a9 03       		.uleb128 0x3
 1536 01aa E7020000 		.4byte	.LASF30
 1537 01ae 06       		.byte	0x6
 1538 01af 3F       		.byte	0x3f
 1539 01b0 03       		.byte	0x3
ARM GAS  C:\Users\DEVELO~1\AppData\Local\Temp\ccnKUYf1.s 			page 28


 1540 01b1 31010000 		.4byte	0x131
 1541 01b5 05       		.uleb128 0x5
 1542 01b6 A9010000 		.4byte	0x1a9
 1543 01ba 1E       		.uleb128 0x1e
 1544 01bb FA010000 		.4byte	.LASF60
 1545 01bf 05       		.byte	0x5
 1546 01c0 3F01     		.2byte	0x13f
 1547 01c2 09       		.byte	0x9
 1548 01c3 AF000000 		.4byte	0xaf
 1549 01c7 D6010000 		.4byte	0x1d6
 1550 01cb 0B       		.uleb128 0xb
 1551 01cc D6010000 		.4byte	0x1d6
 1552 01d0 0B       		.uleb128 0xb
 1553 01d1 C7000000 		.4byte	0xc7
 1554 01d5 00       		.byte	0
 1555 01d6 0D       		.uleb128 0xd
 1556 01d7 25010000 		.4byte	0x125
 1557 01db 14       		.uleb128 0x14
 1558 01dc 7C010000 		.4byte	.LASF31
 1559 01e0 4001     		.2byte	0x140
 1560 01e2 F1010000 		.4byte	0x1f1
 1561 01e6 0B       		.uleb128 0xb
 1562 01e7 D6010000 		.4byte	0x1d6
 1563 01eb 0B       		.uleb128 0xb
 1564 01ec AF000000 		.4byte	0xaf
 1565 01f0 00       		.byte	0
 1566 01f1 14       		.uleb128 0x14
 1567 01f2 E1000000 		.4byte	.LASF32
 1568 01f6 4101     		.2byte	0x141
 1569 01f8 07020000 		.4byte	0x207
 1570 01fc 0B       		.uleb128 0xb
 1571 01fd D6010000 		.4byte	0x1d6
 1572 0201 0B       		.uleb128 0xb
 1573 0202 AF000000 		.4byte	0xaf
 1574 0206 00       		.byte	0
 1575 0207 1F       		.uleb128 0x1f
 1576 0208 F2000000 		.4byte	.LASF61
 1577 020c 0E       		.byte	0xe
 1578 020d 9B       		.byte	0x9b
 1579 020e 08       		.byte	0x8
 1580 020f 0C       		.uleb128 0xc
 1581 0210 B4020000 		.4byte	.LASF34
 1582 0214 ED01     		.2byte	0x1ed
 1583 0216 AF000000 		.4byte	0xaf
 1584 021a 00000000 		.4byte	.LFB357
 1585 021e 6E000000 		.4byte	.LFE357-.LFB357
 1586 0222 01       		.uleb128 0x1
 1587 0223 9C       		.byte	0x9c
 1588 0224 51020000 		.4byte	0x251
 1589 0228 04       		.uleb128 0x4
 1590 0229 6D627000 		.ascii	"mbp\000"
 1591 022d 07       		.byte	0x7
 1592 022e ED01     		.2byte	0x1ed
 1593 0230 1D       		.byte	0x1d
 1594 0231 51020000 		.4byte	0x251
 1595 0235 02       		.uleb128 0x2
 1596 0236 91       		.byte	0x91
ARM GAS  C:\Users\DEVELO~1\AppData\Local\Temp\ccnKUYf1.s 			page 29


 1597 0237 74       		.sleb128 -12
 1598 0238 08       		.uleb128 0x8
 1599 0239 A1020000 		.4byte	.LASF33
 1600 023d ED01     		.2byte	0x1ed
 1601 023f 29       		.byte	0x29
 1602 0240 9D010000 		.4byte	0x19d
 1603 0244 02       		.uleb128 0x2
 1604 0245 91       		.byte	0x91
 1605 0246 70       		.sleb128 -16
 1606 0247 06       		.uleb128 0x6
 1607 0248 62020000 		.4byte	.LASF37
 1608 024c 66020000 		.4byte	0x266
 1609 0250 00       		.byte	0
 1610 0251 0D       		.uleb128 0xd
 1611 0252 A9010000 		.4byte	0x1a9
 1612 0256 09       		.uleb128 0x9
 1613 0257 C2000000 		.4byte	0xc2
 1614 025b 66020000 		.4byte	0x266
 1615 025f 0A       		.uleb128 0xa
 1616 0260 39000000 		.4byte	0x39
 1617 0264 0A       		.byte	0xa
 1618 0265 00       		.byte	0
 1619 0266 05       		.uleb128 0x5
 1620 0267 56020000 		.4byte	0x256
 1621 026b 0C       		.uleb128 0xc
 1622 026c 9C030000 		.4byte	.LASF35
 1623 0270 BC01     		.2byte	0x1bc
 1624 0272 AF000000 		.4byte	0xaf
 1625 0276 00000000 		.4byte	.LFB356
 1626 027a 86000000 		.4byte	.LFE356-.LFB356
 1627 027e 01       		.uleb128 0x1
 1628 027f 9C       		.byte	0x9c
 1629 0280 CA020000 		.4byte	0x2ca
 1630 0284 04       		.uleb128 0x4
 1631 0285 6D627000 		.ascii	"mbp\000"
 1632 0289 07       		.byte	0x7
 1633 028a BC01     		.2byte	0x1bc
 1634 028c 24       		.byte	0x24
 1635 028d 51020000 		.4byte	0x251
 1636 0291 02       		.uleb128 0x2
 1637 0292 91       		.byte	0x91
 1638 0293 6C       		.sleb128 -20
 1639 0294 08       		.uleb128 0x8
 1640 0295 A1020000 		.4byte	.LASF33
 1641 0299 BC01     		.2byte	0x1bc
 1642 029b 30       		.byte	0x30
 1643 029c 9D010000 		.4byte	0x19d
 1644 02a0 02       		.uleb128 0x2
 1645 02a1 91       		.byte	0x91
 1646 02a2 68       		.sleb128 -24
 1647 02a3 08       		.uleb128 0x8
 1648 02a4 F5030000 		.4byte	.LASF36
 1649 02a8 BC01     		.2byte	0x1bc
 1650 02aa 44       		.byte	0x44
 1651 02ab C7000000 		.4byte	0xc7
 1652 02af 02       		.uleb128 0x2
 1653 02b0 91       		.byte	0x91
ARM GAS  C:\Users\DEVELO~1\AppData\Local\Temp\ccnKUYf1.s 			page 30


 1654 02b1 64       		.sleb128 -28
 1655 02b2 0F       		.uleb128 0xf
 1656 02b3 E8030000 		.4byte	.LASF39
 1657 02b7 BD01     		.2byte	0x1bd
 1658 02b9 AF000000 		.4byte	0xaf
 1659 02bd 02       		.uleb128 0x2
 1660 02be 91       		.byte	0x91
 1661 02bf 74       		.sleb128 -12
 1662 02c0 06       		.uleb128 0x6
 1663 02c1 62020000 		.4byte	.LASF37
 1664 02c5 DA020000 		.4byte	0x2da
 1665 02c9 00       		.byte	0
 1666 02ca 09       		.uleb128 0x9
 1667 02cb C2000000 		.4byte	0xc2
 1668 02cf DA020000 		.4byte	0x2da
 1669 02d3 0A       		.uleb128 0xa
 1670 02d4 39000000 		.4byte	0x39
 1671 02d8 11       		.byte	0x11
 1672 02d9 00       		.byte	0
 1673 02da 05       		.uleb128 0x5
 1674 02db CA020000 		.4byte	0x2ca
 1675 02df 0C       		.uleb128 0xc
 1676 02e0 9B000000 		.4byte	.LASF38
 1677 02e4 9F01     		.2byte	0x19f
 1678 02e6 AF000000 		.4byte	0xaf
 1679 02ea 00000000 		.4byte	.LFB355
 1680 02ee 2A000000 		.4byte	.LFE355-.LFB355
 1681 02f2 01       		.uleb128 0x1
 1682 02f3 9C       		.byte	0x9c
 1683 02f4 35030000 		.4byte	0x335
 1684 02f8 04       		.uleb128 0x4
 1685 02f9 6D627000 		.ascii	"mbp\000"
 1686 02fd 07       		.byte	0x7
 1687 02fe 9F01     		.2byte	0x19f
 1688 0300 23       		.byte	0x23
 1689 0301 51020000 		.4byte	0x251
 1690 0305 02       		.uleb128 0x2
 1691 0306 91       		.byte	0x91
 1692 0307 6C       		.sleb128 -20
 1693 0308 08       		.uleb128 0x8
 1694 0309 A1020000 		.4byte	.LASF33
 1695 030d 9F01     		.2byte	0x19f
 1696 030f 2F       		.byte	0x2f
 1697 0310 9D010000 		.4byte	0x19d
 1698 0314 02       		.uleb128 0x2
 1699 0315 91       		.byte	0x91
 1700 0316 68       		.sleb128 -24
 1701 0317 08       		.uleb128 0x8
 1702 0318 F5030000 		.4byte	.LASF36
 1703 031c 9F01     		.2byte	0x19f
 1704 031e 43       		.byte	0x43
 1705 031f C7000000 		.4byte	0xc7
 1706 0323 02       		.uleb128 0x2
 1707 0324 91       		.byte	0x91
 1708 0325 64       		.sleb128 -28
 1709 0326 0F       		.uleb128 0xf
 1710 0327 E8030000 		.4byte	.LASF39
ARM GAS  C:\Users\DEVELO~1\AppData\Local\Temp\ccnKUYf1.s 			page 31


 1711 032b A001     		.2byte	0x1a0
 1712 032d AF000000 		.4byte	0xaf
 1713 0331 02       		.uleb128 0x2
 1714 0332 91       		.byte	0x91
 1715 0333 74       		.sleb128 -12
 1716 0334 00       		.byte	0
 1717 0335 0C       		.uleb128 0xc
 1718 0336 A4010000 		.4byte	.LASF40
 1719 033a 7001     		.2byte	0x170
 1720 033c AF000000 		.4byte	0xaf
 1721 0340 00000000 		.4byte	.LFB354
 1722 0344 72000000 		.4byte	.LFE354-.LFB354
 1723 0348 01       		.uleb128 0x1
 1724 0349 9C       		.byte	0x9c
 1725 034a 78030000 		.4byte	0x378
 1726 034e 04       		.uleb128 0x4
 1727 034f 6D627000 		.ascii	"mbp\000"
 1728 0353 07       		.byte	0x7
 1729 0354 7001     		.2byte	0x170
 1730 0356 21       		.byte	0x21
 1731 0357 51020000 		.4byte	0x251
 1732 035b 02       		.uleb128 0x2
 1733 035c 91       		.byte	0x91
 1734 035d 74       		.sleb128 -12
 1735 035e 04       		.uleb128 0x4
 1736 035f 6D736700 		.ascii	"msg\000"
 1737 0363 07       		.byte	0x7
 1738 0364 7001     		.2byte	0x170
 1739 0366 2C       		.byte	0x2c
 1740 0367 AF000000 		.4byte	0xaf
 1741 036b 02       		.uleb128 0x2
 1742 036c 91       		.byte	0x91
 1743 036d 70       		.sleb128 -16
 1744 036e 06       		.uleb128 0x6
 1745 036f 62020000 		.4byte	.LASF37
 1746 0373 88030000 		.4byte	0x388
 1747 0377 00       		.byte	0
 1748 0378 09       		.uleb128 0x9
 1749 0379 C2000000 		.4byte	0xc2
 1750 037d 88030000 		.4byte	0x388
 1751 0381 0A       		.uleb128 0xa
 1752 0382 39000000 		.4byte	0x39
 1753 0386 0E       		.byte	0xe
 1754 0387 00       		.byte	0
 1755 0388 05       		.uleb128 0x5
 1756 0389 78030000 		.4byte	0x378
 1757 038d 0C       		.uleb128 0xc
 1758 038e 8E010000 		.4byte	.LASF41
 1759 0392 3F01     		.2byte	0x13f
 1760 0394 AF000000 		.4byte	0xaf
 1761 0398 00000000 		.4byte	.LFB353
 1762 039c 8A000000 		.4byte	.LFE353-.LFB353
 1763 03a0 01       		.uleb128 0x1
 1764 03a1 9C       		.byte	0x9c
 1765 03a2 ED030000 		.4byte	0x3ed
 1766 03a6 04       		.uleb128 0x4
 1767 03a7 6D627000 		.ascii	"mbp\000"
ARM GAS  C:\Users\DEVELO~1\AppData\Local\Temp\ccnKUYf1.s 			page 32


 1768 03ab 07       		.byte	0x7
 1769 03ac 3F01     		.2byte	0x13f
 1770 03ae 28       		.byte	0x28
 1771 03af 51020000 		.4byte	0x251
 1772 03b3 02       		.uleb128 0x2
 1773 03b4 91       		.byte	0x91
 1774 03b5 6C       		.sleb128 -20
 1775 03b6 04       		.uleb128 0x4
 1776 03b7 6D736700 		.ascii	"msg\000"
 1777 03bb 07       		.byte	0x7
 1778 03bc 3F01     		.2byte	0x13f
 1779 03be 33       		.byte	0x33
 1780 03bf AF000000 		.4byte	0xaf
 1781 03c3 02       		.uleb128 0x2
 1782 03c4 91       		.byte	0x91
 1783 03c5 68       		.sleb128 -24
 1784 03c6 08       		.uleb128 0x8
 1785 03c7 F5030000 		.4byte	.LASF36
 1786 03cb 3F01     		.2byte	0x13f
 1787 03cd 46       		.byte	0x46
 1788 03ce C7000000 		.4byte	0xc7
 1789 03d2 02       		.uleb128 0x2
 1790 03d3 91       		.byte	0x91
 1791 03d4 64       		.sleb128 -28
 1792 03d5 0F       		.uleb128 0xf
 1793 03d6 E8030000 		.4byte	.LASF39
 1794 03da 4001     		.2byte	0x140
 1795 03dc AF000000 		.4byte	0xaf
 1796 03e0 02       		.uleb128 0x2
 1797 03e1 91       		.byte	0x91
 1798 03e2 74       		.sleb128 -12
 1799 03e3 06       		.uleb128 0x6
 1800 03e4 62020000 		.4byte	.LASF37
 1801 03e8 FD030000 		.4byte	0x3fd
 1802 03ec 00       		.byte	0
 1803 03ed 09       		.uleb128 0x9
 1804 03ee C2000000 		.4byte	0xc2
 1805 03f2 FD030000 		.4byte	0x3fd
 1806 03f6 0A       		.uleb128 0xa
 1807 03f7 39000000 		.4byte	0x39
 1808 03fb 15       		.byte	0x15
 1809 03fc 00       		.byte	0
 1810 03fd 05       		.uleb128 0x5
 1811 03fe ED030000 		.4byte	0x3ed
 1812 0402 0C       		.uleb128 0xc
 1813 0403 29030000 		.4byte	.LASF42
 1814 0407 2201     		.2byte	0x122
 1815 0409 AF000000 		.4byte	0xaf
 1816 040d 00000000 		.4byte	.LFB352
 1817 0411 2A000000 		.4byte	.LFE352-.LFB352
 1818 0415 01       		.uleb128 0x1
 1819 0416 9C       		.byte	0x9c
 1820 0417 59040000 		.4byte	0x459
 1821 041b 04       		.uleb128 0x4
 1822 041c 6D627000 		.ascii	"mbp\000"
 1823 0420 07       		.byte	0x7
 1824 0421 2201     		.2byte	0x122
ARM GAS  C:\Users\DEVELO~1\AppData\Local\Temp\ccnKUYf1.s 			page 33


 1825 0423 27       		.byte	0x27
 1826 0424 51020000 		.4byte	0x251
 1827 0428 02       		.uleb128 0x2
 1828 0429 91       		.byte	0x91
 1829 042a 6C       		.sleb128 -20
 1830 042b 04       		.uleb128 0x4
 1831 042c 6D736700 		.ascii	"msg\000"
 1832 0430 07       		.byte	0x7
 1833 0431 2201     		.2byte	0x122
 1834 0433 32       		.byte	0x32
 1835 0434 AF000000 		.4byte	0xaf
 1836 0438 02       		.uleb128 0x2
 1837 0439 91       		.byte	0x91
 1838 043a 68       		.sleb128 -24
 1839 043b 08       		.uleb128 0x8
 1840 043c F5030000 		.4byte	.LASF36
 1841 0440 2201     		.2byte	0x122
 1842 0442 45       		.byte	0x45
 1843 0443 C7000000 		.4byte	0xc7
 1844 0447 02       		.uleb128 0x2
 1845 0448 91       		.byte	0x91
 1846 0449 64       		.sleb128 -28
 1847 044a 0F       		.uleb128 0xf
 1848 044b E8030000 		.4byte	.LASF39
 1849 044f 2301     		.2byte	0x123
 1850 0451 AF000000 		.4byte	0xaf
 1851 0455 02       		.uleb128 0x2
 1852 0456 91       		.byte	0x91
 1853 0457 74       		.sleb128 -12
 1854 0458 00       		.byte	0
 1855 0459 11       		.uleb128 0x11
 1856 045a 6B020000 		.4byte	.LASF43
 1857 045e F3       		.byte	0xf3
 1858 045f AF000000 		.4byte	0xaf
 1859 0463 00000000 		.4byte	.LFB351
 1860 0467 6C000000 		.4byte	.LFE351-.LFB351
 1861 046b 01       		.uleb128 0x1
 1862 046c 9C       		.byte	0x9c
 1863 046d 99040000 		.4byte	0x499
 1864 0471 01       		.uleb128 0x1
 1865 0472 6D627000 		.ascii	"mbp\000"
 1866 0476 07       		.byte	0x7
 1867 0477 F3       		.byte	0xf3
 1868 0478 1C       		.byte	0x1c
 1869 0479 51020000 		.4byte	0x251
 1870 047d 02       		.uleb128 0x2
 1871 047e 91       		.byte	0x91
 1872 047f 74       		.sleb128 -12
 1873 0480 01       		.uleb128 0x1
 1874 0481 6D736700 		.ascii	"msg\000"
 1875 0485 07       		.byte	0x7
 1876 0486 F3       		.byte	0xf3
 1877 0487 27       		.byte	0x27
 1878 0488 AF000000 		.4byte	0xaf
 1879 048c 02       		.uleb128 0x2
 1880 048d 91       		.byte	0x91
 1881 048e 70       		.sleb128 -16
ARM GAS  C:\Users\DEVELO~1\AppData\Local\Temp\ccnKUYf1.s 			page 34


 1882 048f 06       		.uleb128 0x6
 1883 0490 62020000 		.4byte	.LASF37
 1884 0494 A9040000 		.4byte	0x4a9
 1885 0498 00       		.byte	0
 1886 0499 09       		.uleb128 0x9
 1887 049a C2000000 		.4byte	0xc2
 1888 049e A9040000 		.4byte	0x4a9
 1889 04a2 0A       		.uleb128 0xa
 1890 04a3 39000000 		.4byte	0x39
 1891 04a7 09       		.byte	0x9
 1892 04a8 00       		.byte	0
 1893 04a9 05       		.uleb128 0x5
 1894 04aa 99040000 		.4byte	0x499
 1895 04ae 11       		.uleb128 0x11
 1896 04af AE030000 		.4byte	.LASF44
 1897 04b3 C2       		.byte	0xc2
 1898 04b4 AF000000 		.4byte	0xaf
 1899 04b8 00000000 		.4byte	.LFB350
 1900 04bc 84000000 		.4byte	.LFE350-.LFB350
 1901 04c0 01       		.uleb128 0x1
 1902 04c1 9C       		.byte	0x9c
 1903 04c2 09050000 		.4byte	0x509
 1904 04c6 01       		.uleb128 0x1
 1905 04c7 6D627000 		.ascii	"mbp\000"
 1906 04cb 07       		.byte	0x7
 1907 04cc C2       		.byte	0xc2
 1908 04cd 23       		.byte	0x23
 1909 04ce 51020000 		.4byte	0x251
 1910 04d2 02       		.uleb128 0x2
 1911 04d3 91       		.byte	0x91
 1912 04d4 6C       		.sleb128 -20
 1913 04d5 01       		.uleb128 0x1
 1914 04d6 6D736700 		.ascii	"msg\000"
 1915 04da 07       		.byte	0x7
 1916 04db C2       		.byte	0xc2
 1917 04dc 2E       		.byte	0x2e
 1918 04dd AF000000 		.4byte	0xaf
 1919 04e1 02       		.uleb128 0x2
 1920 04e2 91       		.byte	0x91
 1921 04e3 68       		.sleb128 -24
 1922 04e4 15       		.uleb128 0x15
 1923 04e5 F5030000 		.4byte	.LASF36
 1924 04e9 C2       		.byte	0xc2
 1925 04ea 41       		.byte	0x41
 1926 04eb C7000000 		.4byte	0xc7
 1927 04ef 02       		.uleb128 0x2
 1928 04f0 91       		.byte	0x91
 1929 04f1 64       		.sleb128 -28
 1930 04f2 16       		.uleb128 0x16
 1931 04f3 E8030000 		.4byte	.LASF39
 1932 04f7 C3       		.byte	0xc3
 1933 04f8 AF000000 		.4byte	0xaf
 1934 04fc 02       		.uleb128 0x2
 1935 04fd 91       		.byte	0x91
 1936 04fe 74       		.sleb128 -12
 1937 04ff 06       		.uleb128 0x6
 1938 0500 62020000 		.4byte	.LASF37
ARM GAS  C:\Users\DEVELO~1\AppData\Local\Temp\ccnKUYf1.s 			page 35


 1939 0504 19050000 		.4byte	0x519
 1940 0508 00       		.byte	0
 1941 0509 09       		.uleb128 0x9
 1942 050a C2000000 		.4byte	0xc2
 1943 050e 19050000 		.4byte	0x519
 1944 0512 0A       		.uleb128 0xa
 1945 0513 39000000 		.4byte	0x39
 1946 0517 10       		.byte	0x10
 1947 0518 00       		.byte	0
 1948 0519 05       		.uleb128 0x5
 1949 051a 09050000 		.4byte	0x509
 1950 051e 11       		.uleb128 0x11
 1951 051f 62010000 		.4byte	.LASF45
 1952 0523 A5       		.byte	0xa5
 1953 0524 AF000000 		.4byte	0xaf
 1954 0528 00000000 		.4byte	.LFB349
 1955 052c 2A000000 		.4byte	.LFE349-.LFB349
 1956 0530 01       		.uleb128 0x1
 1957 0531 9C       		.byte	0x9c
 1958 0532 70050000 		.4byte	0x570
 1959 0536 01       		.uleb128 0x1
 1960 0537 6D627000 		.ascii	"mbp\000"
 1961 053b 07       		.byte	0x7
 1962 053c A5       		.byte	0xa5
 1963 053d 22       		.byte	0x22
 1964 053e 51020000 		.4byte	0x251
 1965 0542 02       		.uleb128 0x2
 1966 0543 91       		.byte	0x91
 1967 0544 6C       		.sleb128 -20
 1968 0545 01       		.uleb128 0x1
 1969 0546 6D736700 		.ascii	"msg\000"
 1970 054a 07       		.byte	0x7
 1971 054b A5       		.byte	0xa5
 1972 054c 2D       		.byte	0x2d
 1973 054d AF000000 		.4byte	0xaf
 1974 0551 02       		.uleb128 0x2
 1975 0552 91       		.byte	0x91
 1976 0553 68       		.sleb128 -24
 1977 0554 15       		.uleb128 0x15
 1978 0555 F5030000 		.4byte	.LASF36
 1979 0559 A5       		.byte	0xa5
 1980 055a 40       		.byte	0x40
 1981 055b C7000000 		.4byte	0xc7
 1982 055f 02       		.uleb128 0x2
 1983 0560 91       		.byte	0x91
 1984 0561 64       		.sleb128 -28
 1985 0562 16       		.uleb128 0x16
 1986 0563 E8030000 		.4byte	.LASF39
 1987 0567 A6       		.byte	0xa6
 1988 0568 AF000000 		.4byte	0xaf
 1989 056c 02       		.uleb128 0x2
 1990 056d 91       		.byte	0x91
 1991 056e 74       		.sleb128 -12
 1992 056f 00       		.byte	0
 1993 0570 12       		.uleb128 0x12
 1994 0571 B3010000 		.4byte	.LASF46
 1995 0575 85       		.byte	0x85
ARM GAS  C:\Users\DEVELO~1\AppData\Local\Temp\ccnKUYf1.s 			page 36


 1996 0576 00000000 		.4byte	.LFB348
 1997 057a 48000000 		.4byte	.LFE348-.LFB348
 1998 057e 01       		.uleb128 0x1
 1999 057f 9C       		.byte	0x9c
 2000 0580 9D050000 		.4byte	0x59d
 2001 0584 01       		.uleb128 0x1
 2002 0585 6D627000 		.ascii	"mbp\000"
 2003 0589 07       		.byte	0x7
 2004 058a 85       		.byte	0x85
 2005 058b 1C       		.byte	0x1c
 2006 058c 51020000 		.4byte	0x251
 2007 0590 02       		.uleb128 0x2
 2008 0591 91       		.byte	0x91
 2009 0592 74       		.sleb128 -12
 2010 0593 06       		.uleb128 0x6
 2011 0594 62020000 		.4byte	.LASF37
 2012 0598 66020000 		.4byte	0x266
 2013 059c 00       		.byte	0
 2014 059d 12       		.uleb128 0x12
 2015 059e 92030000 		.4byte	.LASF47
 2016 05a2 71       		.byte	0x71
 2017 05a3 00000000 		.4byte	.LFB347
 2018 05a7 22000000 		.4byte	.LFE347-.LFB347
 2019 05ab 01       		.uleb128 0x1
 2020 05ac 9C       		.byte	0x9c
 2021 05ad C1050000 		.4byte	0x5c1
 2022 05b1 01       		.uleb128 0x1
 2023 05b2 6D627000 		.ascii	"mbp\000"
 2024 05b6 07       		.byte	0x7
 2025 05b7 71       		.byte	0x71
 2026 05b8 1B       		.byte	0x1b
 2027 05b9 51020000 		.4byte	0x251
 2028 05bd 02       		.uleb128 0x2
 2029 05be 91       		.byte	0x91
 2030 05bf 74       		.sleb128 -12
 2031 05c0 00       		.byte	0
 2032 05c1 12       		.uleb128 0x12
 2033 05c2 0F020000 		.4byte	.LASF48
 2034 05c6 57       		.byte	0x57
 2035 05c7 00000000 		.4byte	.LFB346
 2036 05cb 52000000 		.4byte	.LFE346-.LFB346
 2037 05cf 01       		.uleb128 0x1
 2038 05d0 9C       		.byte	0x9c
 2039 05d1 0A060000 		.4byte	0x60a
 2040 05d5 01       		.uleb128 0x1
 2041 05d6 6D627000 		.ascii	"mbp\000"
 2042 05da 07       		.byte	0x7
 2043 05db 57       		.byte	0x57
 2044 05dc 20       		.byte	0x20
 2045 05dd 51020000 		.4byte	0x251
 2046 05e1 02       		.uleb128 0x2
 2047 05e2 91       		.byte	0x91
 2048 05e3 74       		.sleb128 -12
 2049 05e4 01       		.uleb128 0x1
 2050 05e5 62756600 		.ascii	"buf\000"
 2051 05e9 07       		.byte	0x7
 2052 05ea 57       		.byte	0x57
ARM GAS  C:\Users\DEVELO~1\AppData\Local\Temp\ccnKUYf1.s 			page 37


 2053 05eb 2C       		.byte	0x2c
 2054 05ec 9D010000 		.4byte	0x19d
 2055 05f0 02       		.uleb128 0x2
 2056 05f1 91       		.byte	0x91
 2057 05f2 70       		.sleb128 -16
 2058 05f3 01       		.uleb128 0x1
 2059 05f4 6E00     		.ascii	"n\000"
 2060 05f6 07       		.byte	0x7
 2061 05f7 57       		.byte	0x57
 2062 05f8 38       		.byte	0x38
 2063 05f9 2D000000 		.4byte	0x2d
 2064 05fd 02       		.uleb128 0x2
 2065 05fe 91       		.byte	0x91
 2066 05ff 6C       		.sleb128 -20
 2067 0600 06       		.uleb128 0x6
 2068 0601 62020000 		.4byte	.LASF37
 2069 0605 88030000 		.4byte	0x388
 2070 0609 00       		.byte	0
 2071 060a 20       		.uleb128 0x20
 2072 060b BD000000 		.4byte	.LASF49
 2073 060f 06       		.byte	0x6
 2074 0610 A7       		.byte	0xa7
 2075 0611 16       		.byte	0x16
 2076 0612 2D000000 		.4byte	0x2d
 2077 0616 00000000 		.4byte	.LFB277
 2078 061a 22000000 		.4byte	.LFE277-.LFB277
 2079 061e 01       		.uleb128 0x1
 2080 061f 9C       		.byte	0x9c
 2081 0620 34060000 		.4byte	0x634
 2082 0624 01       		.uleb128 0x1
 2083 0625 6D627000 		.ascii	"mbp\000"
 2084 0629 06       		.byte	0x6
 2085 062a A7       		.byte	0xa7
 2086 062b 39       		.byte	0x39
 2087 062c 34060000 		.4byte	0x634
 2088 0630 02       		.uleb128 0x2
 2089 0631 91       		.byte	0x91
 2090 0632 6C       		.sleb128 -20
 2091 0633 00       		.byte	0
 2092 0634 0D       		.uleb128 0xd
 2093 0635 B5010000 		.4byte	0x1b5
 2094 0639 17       		.uleb128 0x17
 2095 063a CF000000 		.4byte	.LASF50
 2096 063e 98       		.byte	0x98
 2097 063f 2D000000 		.4byte	0x2d
 2098 0643 00000000 		.4byte	.LFB276
 2099 0647 16000000 		.4byte	.LFE276-.LFB276
 2100 064b 01       		.uleb128 0x1
 2101 064c 9C       		.byte	0x9c
 2102 064d 61060000 		.4byte	0x661
 2103 0651 01       		.uleb128 0x1
 2104 0652 6D627000 		.ascii	"mbp\000"
 2105 0656 06       		.byte	0x6
 2106 0657 98       		.byte	0x98
 2107 0658 39       		.byte	0x39
 2108 0659 34060000 		.4byte	0x634
 2109 065d 02       		.uleb128 0x2
ARM GAS  C:\Users\DEVELO~1\AppData\Local\Temp\ccnKUYf1.s 			page 38


 2110 065e 91       		.byte	0x91
 2111 065f 74       		.sleb128 -12
 2112 0660 00       		.byte	0
 2113 0661 17       		.uleb128 0x17
 2114 0662 50030000 		.4byte	.LASF51
 2115 0666 88       		.byte	0x88
 2116 0667 2D000000 		.4byte	0x2d
 2117 066b 00000000 		.4byte	.LFB275
 2118 066f 1E000000 		.4byte	.LFE275-.LFB275
 2119 0673 01       		.uleb128 0x1
 2120 0674 9C       		.byte	0x9c
 2121 0675 89060000 		.4byte	0x689
 2122 0679 01       		.uleb128 0x1
 2123 067a 6D627000 		.ascii	"mbp\000"
 2124 067e 06       		.byte	0x6
 2125 067f 88       		.byte	0x88
 2126 0680 34       		.byte	0x34
 2127 0681 34060000 		.4byte	0x634
 2128 0685 02       		.uleb128 0x2
 2129 0686 91       		.byte	0x91
 2130 0687 74       		.sleb128 -12
 2131 0688 00       		.byte	0
 2132 0689 21       		.uleb128 0x21
 2133 068a 0D030000 		.4byte	.LASF52
 2134 068e 05       		.byte	0x5
 2135 068f CD01     		.2byte	0x1cd
 2136 0691 14       		.byte	0x14
 2137 0692 00000000 		.4byte	.LFB236
 2138 0696 18000000 		.4byte	.LFE236-.LFB236
 2139 069a 01       		.uleb128 0x1
 2140 069b 9C       		.byte	0x9c
 2141 069c B1060000 		.4byte	0x6b1
 2142 06a0 04       		.uleb128 0x4
 2143 06a1 74717000 		.ascii	"tqp\000"
 2144 06a5 05       		.byte	0x5
 2145 06a6 CD01     		.2byte	0x1cd
 2146 06a8 3A       		.byte	0x3a
 2147 06a9 D6010000 		.4byte	0x1d6
 2148 06ad 02       		.uleb128 0x2
 2149 06ae 91       		.byte	0x91
 2150 06af 74       		.sleb128 -12
 2151 06b0 00       		.byte	0
 2152 06b1 18       		.uleb128 0x18
 2153 06b2 68030000 		.4byte	.LASF53
 2154 06b6 A501     		.2byte	0x1a5
 2155 06b8 00000000 		.4byte	.LFB203
 2156 06bc 1E000000 		.4byte	.LFE203-.LFB203
 2157 06c0 01       		.uleb128 0x1
 2158 06c1 9C       		.byte	0x9c
 2159 06c2 FA060000 		.4byte	0x6fa
 2160 06c6 06       		.uleb128 0x6
 2161 06c7 62020000 		.4byte	.LASF37
 2162 06cb 0A070000 		.4byte	0x70a
 2163 06cf 10       		.uleb128 0x10
 2164 06d0 4F070000 		.4byte	0x74f
 2165 06d4 0A000000 		.4byte	.LBB18
 2166 06d8 0A000000 		.4byte	.LBE18-.LBB18
ARM GAS  C:\Users\DEVELO~1\AppData\Local\Temp\ccnKUYf1.s 			page 39


 2167 06dc 02       		.byte	0x2
 2168 06dd B201     		.2byte	0x1b2
 2169 06df 10       		.uleb128 0x10
 2170 06e0 5D070000 		.4byte	0x75d
 2171 06e4 0A000000 		.4byte	.LBB20
 2172 06e8 08000000 		.4byte	.LBE20-.LBB20
 2173 06ec 04       		.byte	0x4
 2174 06ed 5203     		.2byte	0x352
 2175 06ef 19       		.uleb128 0x19
 2176 06f0 6B070000 		.4byte	0x76b
 2177 06f4 02       		.uleb128 0x2
 2178 06f5 91       		.byte	0x91
 2179 06f6 74       		.sleb128 -12
 2180 06f7 00       		.byte	0
 2181 06f8 00       		.byte	0
 2182 06f9 00       		.byte	0
 2183 06fa 09       		.uleb128 0x9
 2184 06fb C2000000 		.4byte	0xc2
 2185 06ff 0A070000 		.4byte	0x70a
 2186 0703 0A       		.uleb128 0xa
 2187 0704 39000000 		.4byte	0x39
 2188 0708 0B       		.byte	0xb
 2189 0709 00       		.byte	0
 2190 070a 05       		.uleb128 0x5
 2191 070b FA060000 		.4byte	0x6fa
 2192 070f 18       		.uleb128 0x18
 2193 0710 72010000 		.4byte	.LASF54
 2194 0714 9701     		.2byte	0x197
 2195 0716 00000000 		.4byte	.LFB202
 2196 071a 1E000000 		.4byte	.LFE202-.LFB202
 2197 071e 01       		.uleb128 0x1
 2198 071f 9C       		.byte	0x9c
 2199 0720 4F070000 		.4byte	0x74f
 2200 0724 10       		.uleb128 0x10
 2201 0725 56070000 		.4byte	0x756
 2202 0729 0A000000 		.4byte	.LBB14
 2203 072d 0A000000 		.4byte	.LBE14-.LBB14
 2204 0731 02       		.byte	0x2
 2205 0732 9901     		.2byte	0x199
 2206 0734 10       		.uleb128 0x10
 2207 0735 5D070000 		.4byte	0x75d
 2208 0739 0A000000 		.4byte	.LBB16
 2209 073d 08000000 		.4byte	.LBE16-.LBB16
 2210 0741 04       		.byte	0x4
 2211 0742 3F03     		.2byte	0x33f
 2212 0744 19       		.uleb128 0x19
 2213 0745 6B070000 		.4byte	0x76b
 2214 0749 02       		.uleb128 0x2
 2215 074a 91       		.byte	0x91
 2216 074b 74       		.sleb128 -12
 2217 074c 00       		.byte	0
 2218 074d 00       		.byte	0
 2219 074e 00       		.byte	0
 2220 074f 1A       		.uleb128 0x1a
 2221 0750 F7020000 		.4byte	.LASF55
 2222 0754 4F03     		.2byte	0x34f
 2223 0756 1A       		.uleb128 0x1a
ARM GAS  C:\Users\DEVELO~1\AppData\Local\Temp\ccnKUYf1.s 			page 40


 2224 0757 03030000 		.4byte	.LASF56
 2225 075b 3703     		.2byte	0x337
 2226 075d 22       		.uleb128 0x22
 2227 075e C8030000 		.4byte	.LASF62
 2228 0762 03       		.byte	0x3
 2229 0763 EB01     		.2byte	0x1eb
 2230 0765 1B       		.byte	0x1b
 2231 0766 03       		.byte	0x3
 2232 0767 79070000 		.4byte	0x779
 2233 076b 23       		.uleb128 0x23
 2234 076c D2020000 		.4byte	.LASF63
 2235 0770 03       		.byte	0x3
 2236 0771 EB01     		.2byte	0x1eb
 2237 0773 32       		.byte	0x32
 2238 0774 A3000000 		.4byte	0xa3
 2239 0778 00       		.byte	0
 2240 0779 24       		.uleb128 0x24
 2241 077a 74030000 		.4byte	.LASF64
 2242 077e 01       		.byte	0x1
 2243 077f DE       		.byte	0xde
 2244 0780 14       		.byte	0x14
 2245 0781 00000000 		.4byte	.LFB19
 2246 0785 1E000000 		.4byte	.LFE19-.LFB19
 2247 0789 01       		.uleb128 0x1
 2248 078a 9C       		.byte	0x9c
 2249 078b 01       		.uleb128 0x1
 2250 078c 717000   		.ascii	"qp\000"
 2251 078f 01       		.byte	0x1
 2252 0790 DE       		.byte	0xde
 2253 0791 2E       		.byte	0x2e
 2254 0792 06010000 		.4byte	0x106
 2255 0796 02       		.uleb128 0x2
 2256 0797 91       		.byte	0x91
 2257 0798 74       		.sleb128 -12
 2258 0799 00       		.byte	0
 2259 079a 00       		.byte	0
 2260              		.section	.debug_abbrev,"",%progbits
 2261              	.Ldebug_abbrev0:
 2262 0000 01       		.uleb128 0x1
 2263 0001 05       		.uleb128 0x5
 2264 0002 00       		.byte	0
 2265 0003 03       		.uleb128 0x3
 2266 0004 08       		.uleb128 0x8
 2267 0005 3A       		.uleb128 0x3a
 2268 0006 0B       		.uleb128 0xb
 2269 0007 3B       		.uleb128 0x3b
 2270 0008 0B       		.uleb128 0xb
 2271 0009 39       		.uleb128 0x39
 2272 000a 0B       		.uleb128 0xb
 2273 000b 49       		.uleb128 0x49
 2274 000c 13       		.uleb128 0x13
 2275 000d 02       		.uleb128 0x2
 2276 000e 18       		.uleb128 0x18
 2277 000f 00       		.byte	0
 2278 0010 00       		.byte	0
 2279 0011 02       		.uleb128 0x2
 2280 0012 24       		.uleb128 0x24
ARM GAS  C:\Users\DEVELO~1\AppData\Local\Temp\ccnKUYf1.s 			page 41


 2281 0013 00       		.byte	0
 2282 0014 0B       		.uleb128 0xb
 2283 0015 0B       		.uleb128 0xb
 2284 0016 3E       		.uleb128 0x3e
 2285 0017 0B       		.uleb128 0xb
 2286 0018 03       		.uleb128 0x3
 2287 0019 0E       		.uleb128 0xe
 2288 001a 00       		.byte	0
 2289 001b 00       		.byte	0
 2290 001c 03       		.uleb128 0x3
 2291 001d 16       		.uleb128 0x16
 2292 001e 00       		.byte	0
 2293 001f 03       		.uleb128 0x3
 2294 0020 0E       		.uleb128 0xe
 2295 0021 3A       		.uleb128 0x3a
 2296 0022 0B       		.uleb128 0xb
 2297 0023 3B       		.uleb128 0x3b
 2298 0024 0B       		.uleb128 0xb
 2299 0025 39       		.uleb128 0x39
 2300 0026 0B       		.uleb128 0xb
 2301 0027 49       		.uleb128 0x49
 2302 0028 13       		.uleb128 0x13
 2303 0029 00       		.byte	0
 2304 002a 00       		.byte	0
 2305 002b 04       		.uleb128 0x4
 2306 002c 05       		.uleb128 0x5
 2307 002d 00       		.byte	0
 2308 002e 03       		.uleb128 0x3
 2309 002f 08       		.uleb128 0x8
 2310 0030 3A       		.uleb128 0x3a
 2311 0031 0B       		.uleb128 0xb
 2312 0032 3B       		.uleb128 0x3b
 2313 0033 05       		.uleb128 0x5
 2314 0034 39       		.uleb128 0x39
 2315 0035 0B       		.uleb128 0xb
 2316 0036 49       		.uleb128 0x49
 2317 0037 13       		.uleb128 0x13
 2318 0038 02       		.uleb128 0x2
 2319 0039 18       		.uleb128 0x18
 2320 003a 00       		.byte	0
 2321 003b 00       		.byte	0
 2322 003c 05       		.uleb128 0x5
 2323 003d 26       		.uleb128 0x26
 2324 003e 00       		.byte	0
 2325 003f 49       		.uleb128 0x49
 2326 0040 13       		.uleb128 0x13
 2327 0041 00       		.byte	0
 2328 0042 00       		.byte	0
 2329 0043 06       		.uleb128 0x6
 2330 0044 34       		.uleb128 0x34
 2331 0045 00       		.byte	0
 2332 0046 03       		.uleb128 0x3
 2333 0047 0E       		.uleb128 0xe
 2334 0048 49       		.uleb128 0x49
 2335 0049 13       		.uleb128 0x13
 2336 004a 34       		.uleb128 0x34
 2337 004b 19       		.uleb128 0x19
ARM GAS  C:\Users\DEVELO~1\AppData\Local\Temp\ccnKUYf1.s 			page 42


 2338 004c 00       		.byte	0
 2339 004d 00       		.byte	0
 2340 004e 07       		.uleb128 0x7
 2341 004f 0D       		.uleb128 0xd
 2342 0050 00       		.byte	0
 2343 0051 03       		.uleb128 0x3
 2344 0052 0E       		.uleb128 0xe
 2345 0053 3A       		.uleb128 0x3a
 2346 0054 0B       		.uleb128 0xb
 2347 0055 3B       		.uleb128 0x3b
 2348 0056 0B       		.uleb128 0xb
 2349 0057 39       		.uleb128 0x39
 2350 0058 0B       		.uleb128 0xb
 2351 0059 49       		.uleb128 0x49
 2352 005a 13       		.uleb128 0x13
 2353 005b 38       		.uleb128 0x38
 2354 005c 0B       		.uleb128 0xb
 2355 005d 00       		.byte	0
 2356 005e 00       		.byte	0
 2357 005f 08       		.uleb128 0x8
 2358 0060 05       		.uleb128 0x5
 2359 0061 00       		.byte	0
 2360 0062 03       		.uleb128 0x3
 2361 0063 0E       		.uleb128 0xe
 2362 0064 3A       		.uleb128 0x3a
 2363 0065 21       		.uleb128 0x21
 2364 0066 07       		.sleb128 7
 2365 0067 3B       		.uleb128 0x3b
 2366 0068 05       		.uleb128 0x5
 2367 0069 39       		.uleb128 0x39
 2368 006a 0B       		.uleb128 0xb
 2369 006b 49       		.uleb128 0x49
 2370 006c 13       		.uleb128 0x13
 2371 006d 02       		.uleb128 0x2
 2372 006e 18       		.uleb128 0x18
 2373 006f 00       		.byte	0
 2374 0070 00       		.byte	0
 2375 0071 09       		.uleb128 0x9
 2376 0072 01       		.uleb128 0x1
 2377 0073 01       		.byte	0x1
 2378 0074 49       		.uleb128 0x49
 2379 0075 13       		.uleb128 0x13
 2380 0076 01       		.uleb128 0x1
 2381 0077 13       		.uleb128 0x13
 2382 0078 00       		.byte	0
 2383 0079 00       		.byte	0
 2384 007a 0A       		.uleb128 0xa
 2385 007b 21       		.uleb128 0x21
 2386 007c 00       		.byte	0
 2387 007d 49       		.uleb128 0x49
 2388 007e 13       		.uleb128 0x13
 2389 007f 2F       		.uleb128 0x2f
 2390 0080 0B       		.uleb128 0xb
 2391 0081 00       		.byte	0
 2392 0082 00       		.byte	0
 2393 0083 0B       		.uleb128 0xb
 2394 0084 05       		.uleb128 0x5
ARM GAS  C:\Users\DEVELO~1\AppData\Local\Temp\ccnKUYf1.s 			page 43


 2395 0085 00       		.byte	0
 2396 0086 49       		.uleb128 0x49
 2397 0087 13       		.uleb128 0x13
 2398 0088 00       		.byte	0
 2399 0089 00       		.byte	0
 2400 008a 0C       		.uleb128 0xc
 2401 008b 2E       		.uleb128 0x2e
 2402 008c 01       		.byte	0x1
 2403 008d 3F       		.uleb128 0x3f
 2404 008e 19       		.uleb128 0x19
 2405 008f 03       		.uleb128 0x3
 2406 0090 0E       		.uleb128 0xe
 2407 0091 3A       		.uleb128 0x3a
 2408 0092 21       		.uleb128 0x21
 2409 0093 07       		.sleb128 7
 2410 0094 3B       		.uleb128 0x3b
 2411 0095 05       		.uleb128 0x5
 2412 0096 39       		.uleb128 0x39
 2413 0097 21       		.uleb128 0x21
 2414 0098 07       		.sleb128 7
 2415 0099 27       		.uleb128 0x27
 2416 009a 19       		.uleb128 0x19
 2417 009b 49       		.uleb128 0x49
 2418 009c 13       		.uleb128 0x13
 2419 009d 11       		.uleb128 0x11
 2420 009e 01       		.uleb128 0x1
 2421 009f 12       		.uleb128 0x12
 2422 00a0 06       		.uleb128 0x6
 2423 00a1 40       		.uleb128 0x40
 2424 00a2 18       		.uleb128 0x18
 2425 00a3 7C       		.uleb128 0x7c
 2426 00a4 19       		.uleb128 0x19
 2427 00a5 01       		.uleb128 0x1
 2428 00a6 13       		.uleb128 0x13
 2429 00a7 00       		.byte	0
 2430 00a8 00       		.byte	0
 2431 00a9 0D       		.uleb128 0xd
 2432 00aa 0F       		.uleb128 0xf
 2433 00ab 00       		.byte	0
 2434 00ac 0B       		.uleb128 0xb
 2435 00ad 21       		.uleb128 0x21
 2436 00ae 04       		.sleb128 4
 2437 00af 49       		.uleb128 0x49
 2438 00b0 13       		.uleb128 0x13
 2439 00b1 00       		.byte	0
 2440 00b2 00       		.byte	0
 2441 00b3 0E       		.uleb128 0xe
 2442 00b4 0D       		.uleb128 0xd
 2443 00b5 00       		.byte	0
 2444 00b6 03       		.uleb128 0x3
 2445 00b7 08       		.uleb128 0x8
 2446 00b8 3A       		.uleb128 0x3a
 2447 00b9 21       		.uleb128 0x21
 2448 00ba 06       		.sleb128 6
 2449 00bb 3B       		.uleb128 0x3b
 2450 00bc 0B       		.uleb128 0xb
 2451 00bd 39       		.uleb128 0x39
ARM GAS  C:\Users\DEVELO~1\AppData\Local\Temp\ccnKUYf1.s 			page 44


 2452 00be 0B       		.uleb128 0xb
 2453 00bf 49       		.uleb128 0x49
 2454 00c0 13       		.uleb128 0x13
 2455 00c1 38       		.uleb128 0x38
 2456 00c2 0B       		.uleb128 0xb
 2457 00c3 00       		.byte	0
 2458 00c4 00       		.byte	0
 2459 00c5 0F       		.uleb128 0xf
 2460 00c6 34       		.uleb128 0x34
 2461 00c7 00       		.byte	0
 2462 00c8 03       		.uleb128 0x3
 2463 00c9 0E       		.uleb128 0xe
 2464 00ca 3A       		.uleb128 0x3a
 2465 00cb 21       		.uleb128 0x21
 2466 00cc 07       		.sleb128 7
 2467 00cd 3B       		.uleb128 0x3b
 2468 00ce 05       		.uleb128 0x5
 2469 00cf 39       		.uleb128 0x39
 2470 00d0 21       		.uleb128 0x21
 2471 00d1 09       		.sleb128 9
 2472 00d2 49       		.uleb128 0x49
 2473 00d3 13       		.uleb128 0x13
 2474 00d4 02       		.uleb128 0x2
 2475 00d5 18       		.uleb128 0x18
 2476 00d6 00       		.byte	0
 2477 00d7 00       		.byte	0
 2478 00d8 10       		.uleb128 0x10
 2479 00d9 1D       		.uleb128 0x1d
 2480 00da 01       		.byte	0x1
 2481 00db 31       		.uleb128 0x31
 2482 00dc 13       		.uleb128 0x13
 2483 00dd 11       		.uleb128 0x11
 2484 00de 01       		.uleb128 0x1
 2485 00df 12       		.uleb128 0x12
 2486 00e0 06       		.uleb128 0x6
 2487 00e1 58       		.uleb128 0x58
 2488 00e2 0B       		.uleb128 0xb
 2489 00e3 59       		.uleb128 0x59
 2490 00e4 05       		.uleb128 0x5
 2491 00e5 57       		.uleb128 0x57
 2492 00e6 21       		.uleb128 0x21
 2493 00e7 03       		.sleb128 3
 2494 00e8 00       		.byte	0
 2495 00e9 00       		.byte	0
 2496 00ea 11       		.uleb128 0x11
 2497 00eb 2E       		.uleb128 0x2e
 2498 00ec 01       		.byte	0x1
 2499 00ed 3F       		.uleb128 0x3f
 2500 00ee 19       		.uleb128 0x19
 2501 00ef 03       		.uleb128 0x3
 2502 00f0 0E       		.uleb128 0xe
 2503 00f1 3A       		.uleb128 0x3a
 2504 00f2 21       		.uleb128 0x21
 2505 00f3 07       		.sleb128 7
 2506 00f4 3B       		.uleb128 0x3b
 2507 00f5 0B       		.uleb128 0xb
 2508 00f6 39       		.uleb128 0x39
ARM GAS  C:\Users\DEVELO~1\AppData\Local\Temp\ccnKUYf1.s 			page 45


 2509 00f7 21       		.uleb128 0x21
 2510 00f8 07       		.sleb128 7
 2511 00f9 27       		.uleb128 0x27
 2512 00fa 19       		.uleb128 0x19
 2513 00fb 49       		.uleb128 0x49
 2514 00fc 13       		.uleb128 0x13
 2515 00fd 11       		.uleb128 0x11
 2516 00fe 01       		.uleb128 0x1
 2517 00ff 12       		.uleb128 0x12
 2518 0100 06       		.uleb128 0x6
 2519 0101 40       		.uleb128 0x40
 2520 0102 18       		.uleb128 0x18
 2521 0103 7C       		.uleb128 0x7c
 2522 0104 19       		.uleb128 0x19
 2523 0105 01       		.uleb128 0x1
 2524 0106 13       		.uleb128 0x13
 2525 0107 00       		.byte	0
 2526 0108 00       		.byte	0
 2527 0109 12       		.uleb128 0x12
 2528 010a 2E       		.uleb128 0x2e
 2529 010b 01       		.byte	0x1
 2530 010c 3F       		.uleb128 0x3f
 2531 010d 19       		.uleb128 0x19
 2532 010e 03       		.uleb128 0x3
 2533 010f 0E       		.uleb128 0xe
 2534 0110 3A       		.uleb128 0x3a
 2535 0111 21       		.uleb128 0x21
 2536 0112 07       		.sleb128 7
 2537 0113 3B       		.uleb128 0x3b
 2538 0114 0B       		.uleb128 0xb
 2539 0115 39       		.uleb128 0x39
 2540 0116 21       		.uleb128 0x21
 2541 0117 06       		.sleb128 6
 2542 0118 27       		.uleb128 0x27
 2543 0119 19       		.uleb128 0x19
 2544 011a 11       		.uleb128 0x11
 2545 011b 01       		.uleb128 0x1
 2546 011c 12       		.uleb128 0x12
 2547 011d 06       		.uleb128 0x6
 2548 011e 40       		.uleb128 0x40
 2549 011f 18       		.uleb128 0x18
 2550 0120 7C       		.uleb128 0x7c
 2551 0121 19       		.uleb128 0x19
 2552 0122 01       		.uleb128 0x1
 2553 0123 13       		.uleb128 0x13
 2554 0124 00       		.byte	0
 2555 0125 00       		.byte	0
 2556 0126 13       		.uleb128 0x13
 2557 0127 13       		.uleb128 0x13
 2558 0128 01       		.byte	0x1
 2559 0129 03       		.uleb128 0x3
 2560 012a 0E       		.uleb128 0xe
 2561 012b 0B       		.uleb128 0xb
 2562 012c 21       		.uleb128 0x21
 2563 012d 08       		.sleb128 8
 2564 012e 3A       		.uleb128 0x3a
 2565 012f 0B       		.uleb128 0xb
ARM GAS  C:\Users\DEVELO~1\AppData\Local\Temp\ccnKUYf1.s 			page 46


 2566 0130 3B       		.uleb128 0x3b
 2567 0131 0B       		.uleb128 0xb
 2568 0132 39       		.uleb128 0x39
 2569 0133 0B       		.uleb128 0xb
 2570 0134 01       		.uleb128 0x1
 2571 0135 13       		.uleb128 0x13
 2572 0136 00       		.byte	0
 2573 0137 00       		.byte	0
 2574 0138 14       		.uleb128 0x14
 2575 0139 2E       		.uleb128 0x2e
 2576 013a 01       		.byte	0x1
 2577 013b 3F       		.uleb128 0x3f
 2578 013c 19       		.uleb128 0x19
 2579 013d 03       		.uleb128 0x3
 2580 013e 0E       		.uleb128 0xe
 2581 013f 3A       		.uleb128 0x3a
 2582 0140 21       		.uleb128 0x21
 2583 0141 05       		.sleb128 5
 2584 0142 3B       		.uleb128 0x3b
 2585 0143 05       		.uleb128 0x5
 2586 0144 39       		.uleb128 0x39
 2587 0145 21       		.uleb128 0x21
 2588 0146 08       		.sleb128 8
 2589 0147 27       		.uleb128 0x27
 2590 0148 19       		.uleb128 0x19
 2591 0149 3C       		.uleb128 0x3c
 2592 014a 19       		.uleb128 0x19
 2593 014b 01       		.uleb128 0x1
 2594 014c 13       		.uleb128 0x13
 2595 014d 00       		.byte	0
 2596 014e 00       		.byte	0
 2597 014f 15       		.uleb128 0x15
 2598 0150 05       		.uleb128 0x5
 2599 0151 00       		.byte	0
 2600 0152 03       		.uleb128 0x3
 2601 0153 0E       		.uleb128 0xe
 2602 0154 3A       		.uleb128 0x3a
 2603 0155 21       		.uleb128 0x21
 2604 0156 07       		.sleb128 7
 2605 0157 3B       		.uleb128 0x3b
 2606 0158 0B       		.uleb128 0xb
 2607 0159 39       		.uleb128 0x39
 2608 015a 0B       		.uleb128 0xb
 2609 015b 49       		.uleb128 0x49
 2610 015c 13       		.uleb128 0x13
 2611 015d 02       		.uleb128 0x2
 2612 015e 18       		.uleb128 0x18
 2613 015f 00       		.byte	0
 2614 0160 00       		.byte	0
 2615 0161 16       		.uleb128 0x16
 2616 0162 34       		.uleb128 0x34
 2617 0163 00       		.byte	0
 2618 0164 03       		.uleb128 0x3
 2619 0165 0E       		.uleb128 0xe
 2620 0166 3A       		.uleb128 0x3a
 2621 0167 21       		.uleb128 0x21
 2622 0168 07       		.sleb128 7
ARM GAS  C:\Users\DEVELO~1\AppData\Local\Temp\ccnKUYf1.s 			page 47


 2623 0169 3B       		.uleb128 0x3b
 2624 016a 0B       		.uleb128 0xb
 2625 016b 39       		.uleb128 0x39
 2626 016c 21       		.uleb128 0x21
 2627 016d 09       		.sleb128 9
 2628 016e 49       		.uleb128 0x49
 2629 016f 13       		.uleb128 0x13
 2630 0170 02       		.uleb128 0x2
 2631 0171 18       		.uleb128 0x18
 2632 0172 00       		.byte	0
 2633 0173 00       		.byte	0
 2634 0174 17       		.uleb128 0x17
 2635 0175 2E       		.uleb128 0x2e
 2636 0176 01       		.byte	0x1
 2637 0177 03       		.uleb128 0x3
 2638 0178 0E       		.uleb128 0xe
 2639 0179 3A       		.uleb128 0x3a
 2640 017a 21       		.uleb128 0x21
 2641 017b 06       		.sleb128 6
 2642 017c 3B       		.uleb128 0x3b
 2643 017d 0B       		.uleb128 0xb
 2644 017e 39       		.uleb128 0x39
 2645 017f 21       		.uleb128 0x21
 2646 0180 16       		.sleb128 22
 2647 0181 27       		.uleb128 0x27
 2648 0182 19       		.uleb128 0x19
 2649 0183 49       		.uleb128 0x49
 2650 0184 13       		.uleb128 0x13
 2651 0185 11       		.uleb128 0x11
 2652 0186 01       		.uleb128 0x1
 2653 0187 12       		.uleb128 0x12
 2654 0188 06       		.uleb128 0x6
 2655 0189 40       		.uleb128 0x40
 2656 018a 18       		.uleb128 0x18
 2657 018b 7A       		.uleb128 0x7a
 2658 018c 19       		.uleb128 0x19
 2659 018d 01       		.uleb128 0x1
 2660 018e 13       		.uleb128 0x13
 2661 018f 00       		.byte	0
 2662 0190 00       		.byte	0
 2663 0191 18       		.uleb128 0x18
 2664 0192 2E       		.uleb128 0x2e
 2665 0193 01       		.byte	0x1
 2666 0194 03       		.uleb128 0x3
 2667 0195 0E       		.uleb128 0xe
 2668 0196 3A       		.uleb128 0x3a
 2669 0197 21       		.uleb128 0x21
 2670 0198 02       		.sleb128 2
 2671 0199 3B       		.uleb128 0x3b
 2672 019a 05       		.uleb128 0x5
 2673 019b 39       		.uleb128 0x39
 2674 019c 21       		.uleb128 0x21
 2675 019d 14       		.sleb128 20
 2676 019e 27       		.uleb128 0x27
 2677 019f 19       		.uleb128 0x19
 2678 01a0 11       		.uleb128 0x11
 2679 01a1 01       		.uleb128 0x1
ARM GAS  C:\Users\DEVELO~1\AppData\Local\Temp\ccnKUYf1.s 			page 48


 2680 01a2 12       		.uleb128 0x12
 2681 01a3 06       		.uleb128 0x6
 2682 01a4 40       		.uleb128 0x40
 2683 01a5 18       		.uleb128 0x18
 2684 01a6 7A       		.uleb128 0x7a
 2685 01a7 19       		.uleb128 0x19
 2686 01a8 01       		.uleb128 0x1
 2687 01a9 13       		.uleb128 0x13
 2688 01aa 00       		.byte	0
 2689 01ab 00       		.byte	0
 2690 01ac 19       		.uleb128 0x19
 2691 01ad 05       		.uleb128 0x5
 2692 01ae 00       		.byte	0
 2693 01af 31       		.uleb128 0x31
 2694 01b0 13       		.uleb128 0x13
 2695 01b1 02       		.uleb128 0x2
 2696 01b2 18       		.uleb128 0x18
 2697 01b3 00       		.byte	0
 2698 01b4 00       		.byte	0
 2699 01b5 1A       		.uleb128 0x1a
 2700 01b6 2E       		.uleb128 0x2e
 2701 01b7 00       		.byte	0
 2702 01b8 03       		.uleb128 0x3
 2703 01b9 0E       		.uleb128 0xe
 2704 01ba 3A       		.uleb128 0x3a
 2705 01bb 21       		.uleb128 0x21
 2706 01bc 04       		.sleb128 4
 2707 01bd 3B       		.uleb128 0x3b
 2708 01be 05       		.uleb128 0x5
 2709 01bf 39       		.uleb128 0x39
 2710 01c0 21       		.uleb128 0x21
 2711 01c1 1B       		.sleb128 27
 2712 01c2 27       		.uleb128 0x27
 2713 01c3 19       		.uleb128 0x19
 2714 01c4 20       		.uleb128 0x20
 2715 01c5 21       		.uleb128 0x21
 2716 01c6 03       		.sleb128 3
 2717 01c7 00       		.byte	0
 2718 01c8 00       		.byte	0
 2719 01c9 1B       		.uleb128 0x1b
 2720 01ca 11       		.uleb128 0x11
 2721 01cb 01       		.byte	0x1
 2722 01cc 25       		.uleb128 0x25
 2723 01cd 0E       		.uleb128 0xe
 2724 01ce 13       		.uleb128 0x13
 2725 01cf 0B       		.uleb128 0xb
 2726 01d0 03       		.uleb128 0x3
 2727 01d1 0E       		.uleb128 0xe
 2728 01d2 1B       		.uleb128 0x1b
 2729 01d3 0E       		.uleb128 0xe
 2730 01d4 55       		.uleb128 0x55
 2731 01d5 17       		.uleb128 0x17
 2732 01d6 11       		.uleb128 0x11
 2733 01d7 01       		.uleb128 0x1
 2734 01d8 10       		.uleb128 0x10
 2735 01d9 17       		.uleb128 0x17
 2736 01da 00       		.byte	0
ARM GAS  C:\Users\DEVELO~1\AppData\Local\Temp\ccnKUYf1.s 			page 49


 2737 01db 00       		.byte	0
 2738 01dc 1C       		.uleb128 0x1c
 2739 01dd 24       		.uleb128 0x24
 2740 01de 00       		.byte	0
 2741 01df 0B       		.uleb128 0xb
 2742 01e0 0B       		.uleb128 0xb
 2743 01e1 3E       		.uleb128 0x3e
 2744 01e2 0B       		.uleb128 0xb
 2745 01e3 03       		.uleb128 0x3
 2746 01e4 08       		.uleb128 0x8
 2747 01e5 00       		.byte	0
 2748 01e6 00       		.byte	0
 2749 01e7 1D       		.uleb128 0x1d
 2750 01e8 13       		.uleb128 0x13
 2751 01e9 01       		.byte	0x1
 2752 01ea 0B       		.uleb128 0xb
 2753 01eb 0B       		.uleb128 0xb
 2754 01ec 3A       		.uleb128 0x3a
 2755 01ed 0B       		.uleb128 0xb
 2756 01ee 3B       		.uleb128 0x3b
 2757 01ef 0B       		.uleb128 0xb
 2758 01f0 39       		.uleb128 0x39
 2759 01f1 0B       		.uleb128 0xb
 2760 01f2 01       		.uleb128 0x1
 2761 01f3 13       		.uleb128 0x13
 2762 01f4 00       		.byte	0
 2763 01f5 00       		.byte	0
 2764 01f6 1E       		.uleb128 0x1e
 2765 01f7 2E       		.uleb128 0x2e
 2766 01f8 01       		.byte	0x1
 2767 01f9 3F       		.uleb128 0x3f
 2768 01fa 19       		.uleb128 0x19
 2769 01fb 03       		.uleb128 0x3
 2770 01fc 0E       		.uleb128 0xe
 2771 01fd 3A       		.uleb128 0x3a
 2772 01fe 0B       		.uleb128 0xb
 2773 01ff 3B       		.uleb128 0x3b
 2774 0200 05       		.uleb128 0x5
 2775 0201 39       		.uleb128 0x39
 2776 0202 0B       		.uleb128 0xb
 2777 0203 27       		.uleb128 0x27
 2778 0204 19       		.uleb128 0x19
 2779 0205 49       		.uleb128 0x49
 2780 0206 13       		.uleb128 0x13
 2781 0207 3C       		.uleb128 0x3c
 2782 0208 19       		.uleb128 0x19
 2783 0209 01       		.uleb128 0x1
 2784 020a 13       		.uleb128 0x13
 2785 020b 00       		.byte	0
 2786 020c 00       		.byte	0
 2787 020d 1F       		.uleb128 0x1f
 2788 020e 2E       		.uleb128 0x2e
 2789 020f 00       		.byte	0
 2790 0210 3F       		.uleb128 0x3f
 2791 0211 19       		.uleb128 0x19
 2792 0212 03       		.uleb128 0x3
 2793 0213 0E       		.uleb128 0xe
ARM GAS  C:\Users\DEVELO~1\AppData\Local\Temp\ccnKUYf1.s 			page 50


 2794 0214 3A       		.uleb128 0x3a
 2795 0215 0B       		.uleb128 0xb
 2796 0216 3B       		.uleb128 0x3b
 2797 0217 0B       		.uleb128 0xb
 2798 0218 39       		.uleb128 0x39
 2799 0219 0B       		.uleb128 0xb
 2800 021a 27       		.uleb128 0x27
 2801 021b 19       		.uleb128 0x19
 2802 021c 3C       		.uleb128 0x3c
 2803 021d 19       		.uleb128 0x19
 2804 021e 00       		.byte	0
 2805 021f 00       		.byte	0
 2806 0220 20       		.uleb128 0x20
 2807 0221 2E       		.uleb128 0x2e
 2808 0222 01       		.byte	0x1
 2809 0223 03       		.uleb128 0x3
 2810 0224 0E       		.uleb128 0xe
 2811 0225 3A       		.uleb128 0x3a
 2812 0226 0B       		.uleb128 0xb
 2813 0227 3B       		.uleb128 0x3b
 2814 0228 0B       		.uleb128 0xb
 2815 0229 39       		.uleb128 0x39
 2816 022a 0B       		.uleb128 0xb
 2817 022b 27       		.uleb128 0x27
 2818 022c 19       		.uleb128 0x19
 2819 022d 49       		.uleb128 0x49
 2820 022e 13       		.uleb128 0x13
 2821 022f 11       		.uleb128 0x11
 2822 0230 01       		.uleb128 0x1
 2823 0231 12       		.uleb128 0x12
 2824 0232 06       		.uleb128 0x6
 2825 0233 40       		.uleb128 0x40
 2826 0234 18       		.uleb128 0x18
 2827 0235 7C       		.uleb128 0x7c
 2828 0236 19       		.uleb128 0x19
 2829 0237 01       		.uleb128 0x1
 2830 0238 13       		.uleb128 0x13
 2831 0239 00       		.byte	0
 2832 023a 00       		.byte	0
 2833 023b 21       		.uleb128 0x21
 2834 023c 2E       		.uleb128 0x2e
 2835 023d 01       		.byte	0x1
 2836 023e 03       		.uleb128 0x3
 2837 023f 0E       		.uleb128 0xe
 2838 0240 3A       		.uleb128 0x3a
 2839 0241 0B       		.uleb128 0xb
 2840 0242 3B       		.uleb128 0x3b
 2841 0243 05       		.uleb128 0x5
 2842 0244 39       		.uleb128 0x39
 2843 0245 0B       		.uleb128 0xb
 2844 0246 27       		.uleb128 0x27
 2845 0247 19       		.uleb128 0x19
 2846 0248 11       		.uleb128 0x11
 2847 0249 01       		.uleb128 0x1
 2848 024a 12       		.uleb128 0x12
 2849 024b 06       		.uleb128 0x6
 2850 024c 40       		.uleb128 0x40
ARM GAS  C:\Users\DEVELO~1\AppData\Local\Temp\ccnKUYf1.s 			page 51


 2851 024d 18       		.uleb128 0x18
 2852 024e 7C       		.uleb128 0x7c
 2853 024f 19       		.uleb128 0x19
 2854 0250 01       		.uleb128 0x1
 2855 0251 13       		.uleb128 0x13
 2856 0252 00       		.byte	0
 2857 0253 00       		.byte	0
 2858 0254 22       		.uleb128 0x22
 2859 0255 2E       		.uleb128 0x2e
 2860 0256 01       		.byte	0x1
 2861 0257 03       		.uleb128 0x3
 2862 0258 0E       		.uleb128 0xe
 2863 0259 3A       		.uleb128 0x3a
 2864 025a 0B       		.uleb128 0xb
 2865 025b 3B       		.uleb128 0x3b
 2866 025c 05       		.uleb128 0x5
 2867 025d 39       		.uleb128 0x39
 2868 025e 0B       		.uleb128 0xb
 2869 025f 27       		.uleb128 0x27
 2870 0260 19       		.uleb128 0x19
 2871 0261 20       		.uleb128 0x20
 2872 0262 0B       		.uleb128 0xb
 2873 0263 01       		.uleb128 0x1
 2874 0264 13       		.uleb128 0x13
 2875 0265 00       		.byte	0
 2876 0266 00       		.byte	0
 2877 0267 23       		.uleb128 0x23
 2878 0268 05       		.uleb128 0x5
 2879 0269 00       		.byte	0
 2880 026a 03       		.uleb128 0x3
 2881 026b 0E       		.uleb128 0xe
 2882 026c 3A       		.uleb128 0x3a
 2883 026d 0B       		.uleb128 0xb
 2884 026e 3B       		.uleb128 0x3b
 2885 026f 05       		.uleb128 0x5
 2886 0270 39       		.uleb128 0x39
 2887 0271 0B       		.uleb128 0xb
 2888 0272 49       		.uleb128 0x49
 2889 0273 13       		.uleb128 0x13
 2890 0274 00       		.byte	0
 2891 0275 00       		.byte	0
 2892 0276 24       		.uleb128 0x24
 2893 0277 2E       		.uleb128 0x2e
 2894 0278 01       		.byte	0x1
 2895 0279 03       		.uleb128 0x3
 2896 027a 0E       		.uleb128 0xe
 2897 027b 3A       		.uleb128 0x3a
 2898 027c 0B       		.uleb128 0xb
 2899 027d 3B       		.uleb128 0x3b
 2900 027e 0B       		.uleb128 0xb
 2901 027f 39       		.uleb128 0x39
 2902 0280 0B       		.uleb128 0xb
 2903 0281 27       		.uleb128 0x27
 2904 0282 19       		.uleb128 0x19
 2905 0283 11       		.uleb128 0x11
 2906 0284 01       		.uleb128 0x1
 2907 0285 12       		.uleb128 0x12
ARM GAS  C:\Users\DEVELO~1\AppData\Local\Temp\ccnKUYf1.s 			page 52


 2908 0286 06       		.uleb128 0x6
 2909 0287 40       		.uleb128 0x40
 2910 0288 18       		.uleb128 0x18
 2911 0289 7A       		.uleb128 0x7a
 2912 028a 19       		.uleb128 0x19
 2913 028b 00       		.byte	0
 2914 028c 00       		.byte	0
 2915 028d 00       		.byte	0
 2916              		.section	.debug_aranges,"",%progbits
 2917 0000 AC000000 		.4byte	0xac
 2918 0004 0200     		.2byte	0x2
 2919 0006 00000000 		.4byte	.Ldebug_info0
 2920 000a 04       		.byte	0x4
 2921 000b 00       		.byte	0
 2922 000c 0000     		.2byte	0
 2923 000e 0000     		.2byte	0
 2924 0010 00000000 		.4byte	.LFB19
 2925 0014 1E000000 		.4byte	.LFE19-.LFB19
 2926 0018 00000000 		.4byte	.LFB202
 2927 001c 1E000000 		.4byte	.LFE202-.LFB202
 2928 0020 00000000 		.4byte	.LFB203
 2929 0024 1E000000 		.4byte	.LFE203-.LFB203
 2930 0028 00000000 		.4byte	.LFB236
 2931 002c 18000000 		.4byte	.LFE236-.LFB236
 2932 0030 00000000 		.4byte	.LFB275
 2933 0034 1E000000 		.4byte	.LFE275-.LFB275
 2934 0038 00000000 		.4byte	.LFB276
 2935 003c 16000000 		.4byte	.LFE276-.LFB276
 2936 0040 00000000 		.4byte	.LFB277
 2937 0044 22000000 		.4byte	.LFE277-.LFB277
 2938 0048 00000000 		.4byte	.LFB346
 2939 004c 52000000 		.4byte	.LFE346-.LFB346
 2940 0050 00000000 		.4byte	.LFB347
 2941 0054 22000000 		.4byte	.LFE347-.LFB347
 2942 0058 00000000 		.4byte	.LFB348
 2943 005c 48000000 		.4byte	.LFE348-.LFB348
 2944 0060 00000000 		.4byte	.LFB349
 2945 0064 2A000000 		.4byte	.LFE349-.LFB349
 2946 0068 00000000 		.4byte	.LFB350
 2947 006c 84000000 		.4byte	.LFE350-.LFB350
 2948 0070 00000000 		.4byte	.LFB351
 2949 0074 6C000000 		.4byte	.LFE351-.LFB351
 2950 0078 00000000 		.4byte	.LFB352
 2951 007c 2A000000 		.4byte	.LFE352-.LFB352
 2952 0080 00000000 		.4byte	.LFB353
 2953 0084 8A000000 		.4byte	.LFE353-.LFB353
 2954 0088 00000000 		.4byte	.LFB354
 2955 008c 72000000 		.4byte	.LFE354-.LFB354
 2956 0090 00000000 		.4byte	.LFB355
 2957 0094 2A000000 		.4byte	.LFE355-.LFB355
 2958 0098 00000000 		.4byte	.LFB356
 2959 009c 86000000 		.4byte	.LFE356-.LFB356
 2960 00a0 00000000 		.4byte	.LFB357
 2961 00a4 6E000000 		.4byte	.LFE357-.LFB357
 2962 00a8 00000000 		.4byte	0
 2963 00ac 00000000 		.4byte	0
 2964              		.section	.debug_rnglists,"",%progbits
ARM GAS  C:\Users\DEVELO~1\AppData\Local\Temp\ccnKUYf1.s 			page 53


 2965              	.Ldebug_ranges0:
 2966 0000 7E000000 		.4byte	.Ldebug_ranges3-.Ldebug_ranges2
 2967              	.Ldebug_ranges2:
 2968 0004 0500     		.2byte	0x5
 2969 0006 04       		.byte	0x4
 2970 0007 00       		.byte	0
 2971 0008 00000000 		.4byte	0
 2972              	.LLRL0:
 2973 000c 07       		.byte	0x7
 2974 000d 00000000 		.4byte	.LFB19
 2975 0011 1E       		.uleb128 .LFE19-.LFB19
 2976 0012 07       		.byte	0x7
 2977 0013 00000000 		.4byte	.LFB202
 2978 0017 1E       		.uleb128 .LFE202-.LFB202
 2979 0018 07       		.byte	0x7
 2980 0019 00000000 		.4byte	.LFB203
 2981 001d 1E       		.uleb128 .LFE203-.LFB203
 2982 001e 07       		.byte	0x7
 2983 001f 00000000 		.4byte	.LFB236
 2984 0023 18       		.uleb128 .LFE236-.LFB236
 2985 0024 07       		.byte	0x7
 2986 0025 00000000 		.4byte	.LFB275
 2987 0029 1E       		.uleb128 .LFE275-.LFB275
 2988 002a 07       		.byte	0x7
 2989 002b 00000000 		.4byte	.LFB276
 2990 002f 16       		.uleb128 .LFE276-.LFB276
 2991 0030 07       		.byte	0x7
 2992 0031 00000000 		.4byte	.LFB277
 2993 0035 22       		.uleb128 .LFE277-.LFB277
 2994 0036 07       		.byte	0x7
 2995 0037 00000000 		.4byte	.LFB346
 2996 003b 52       		.uleb128 .LFE346-.LFB346
 2997 003c 07       		.byte	0x7
 2998 003d 00000000 		.4byte	.LFB347
 2999 0041 22       		.uleb128 .LFE347-.LFB347
 3000 0042 07       		.byte	0x7
 3001 0043 00000000 		.4byte	.LFB348
 3002 0047 48       		.uleb128 .LFE348-.LFB348
 3003 0048 07       		.byte	0x7
 3004 0049 00000000 		.4byte	.LFB349
 3005 004d 2A       		.uleb128 .LFE349-.LFB349
 3006 004e 07       		.byte	0x7
 3007 004f 00000000 		.4byte	.LFB350
 3008 0053 8401     		.uleb128 .LFE350-.LFB350
 3009 0055 07       		.byte	0x7
 3010 0056 00000000 		.4byte	.LFB351
 3011 005a 6C       		.uleb128 .LFE351-.LFB351
 3012 005b 07       		.byte	0x7
 3013 005c 00000000 		.4byte	.LFB352
 3014 0060 2A       		.uleb128 .LFE352-.LFB352
 3015 0061 07       		.byte	0x7
 3016 0062 00000000 		.4byte	.LFB353
 3017 0066 8A01     		.uleb128 .LFE353-.LFB353
 3018 0068 07       		.byte	0x7
 3019 0069 00000000 		.4byte	.LFB354
 3020 006d 72       		.uleb128 .LFE354-.LFB354
 3021 006e 07       		.byte	0x7
ARM GAS  C:\Users\DEVELO~1\AppData\Local\Temp\ccnKUYf1.s 			page 54


 3022 006f 00000000 		.4byte	.LFB355
 3023 0073 2A       		.uleb128 .LFE355-.LFB355
 3024 0074 07       		.byte	0x7
 3025 0075 00000000 		.4byte	.LFB356
 3026 0079 8601     		.uleb128 .LFE356-.LFB356
 3027 007b 07       		.byte	0x7
 3028 007c 00000000 		.4byte	.LFB357
 3029 0080 6E       		.uleb128 .LFE357-.LFB357
 3030 0081 00       		.byte	0
 3031              	.Ldebug_ranges3:
 3032              		.section	.debug_line,"",%progbits
 3033              	.Ldebug_line0:
 3034 0000 28060000 		.section	.debug_str,"MS",%progbits,1
 3034      03007002 
 3034      00000201 
 3034      FB0E0D00 
 3034      01010101 
 3035              	.LASF24:
 3036 0000 74687265 		.ascii	"threads_queue_t\000"
 3036      6164735F 
 3036      71756575 
 3036      655F7400 
 3037              	.LASF57:
 3038 0010 474E5520 		.ascii	"GNU C17 11.3.1 20220712 -mcpu=cortex-m7 -mthumb -mf"
 3038      43313720 
 3038      31312E33 
 3038      2E312032 
 3038      30323230 
 3039 0043 6C6F6174 		.ascii	"loat-abi=soft -march=armv7e-m -ggdb -O0 -ffunction-"
 3039      2D616269 
 3039      3D736F66 
 3039      74202D6D 
 3039      61726368 
 3040 0076 73656374 		.ascii	"sections -fdata-sections -fno-common\000"
 3040      696F6E73 
 3040      202D6664 
 3040      6174612D 
 3040      73656374 
 3041              	.LASF38:
 3042 009b 63684D42 		.ascii	"chMBFetchTimeout\000"
 3042      46657463 
 3042      6854696D 
 3042      656F7574 
 3042      00
 3043              	.LASF5:
 3044 00ac 73686F72 		.ascii	"short int\000"
 3044      7420696E 
 3044      7400
 3045              	.LASF7:
 3046 00b6 73697A65 		.ascii	"size_t\000"
 3046      5F7400
 3047              	.LASF49:
 3048 00bd 63684D42 		.ascii	"chMBGetFreeCountI\000"
 3048      47657446 
 3048      72656543 
 3048      6F756E74 
 3048      4900
ARM GAS  C:\Users\DEVELO~1\AppData\Local\Temp\ccnKUYf1.s 			page 55


 3049              	.LASF50:
 3050 00cf 63684D42 		.ascii	"chMBGetUsedCountI\000"
 3050      47657455 
 3050      73656443 
 3050      6F756E74 
 3050      4900
 3051              	.LASF32:
 3052 00e1 63685468 		.ascii	"chThdDequeueAllI\000"
 3052      64446571 
 3052      75657565 
 3052      416C6C49 
 3052      00
 3053              	.LASF61:
 3054 00f2 63685363 		.ascii	"chSchRescheduleS\000"
 3054      68526573 
 3054      63686564 
 3054      756C6553 
 3054      00
 3055              	.LASF59:
 3056 0103 433A5C50 		.ascii	"C:\\PROJET\\ChibiOS project\\ChibiOS_21.11.4\\demos"
 3056      524F4A45 
 3056      545C4368 
 3056      6962694F 
 3056      53207072 
 3057 0132 5C53544D 		.ascii	"\\STM32\\RT-STM32H743ZI_REV_XY-NUCLEO144_Quartz8M\000"
 3057      33325C52 
 3057      542D5354 
 3057      4D333248 
 3057      3734335A 
 3058              	.LASF45:
 3059 0162 63684D42 		.ascii	"chMBPostTimeout\000"
 3059      506F7374 
 3059      54696D65 
 3059      6F757400 
 3060              	.LASF54:
 3061 0172 63685379 		.ascii	"chSysLock\000"
 3061      734C6F63 
 3061      6B00
 3062              	.LASF31:
 3063 017c 63685468 		.ascii	"chThdDequeueNextI\000"
 3063      64446571 
 3063      75657565 
 3063      4E657874 
 3063      4900
 3064              	.LASF41:
 3065 018e 63684D42 		.ascii	"chMBPostAheadTimeoutS\000"
 3065      506F7374 
 3065      41686561 
 3065      6454696D 
 3065      656F7574 
 3066              	.LASF40:
 3067 01a4 63684D42 		.ascii	"chMBPostAheadI\000"
 3067      506F7374 
 3067      41686561 
 3067      644900
 3068              	.LASF46:
 3069 01b3 63684D42 		.ascii	"chMBResetI\000"
ARM GAS  C:\Users\DEVELO~1\AppData\Local\Temp\ccnKUYf1.s 			page 56


 3069      52657365 
 3069      744900
 3070              	.LASF22:
 3071 01be 63685F74 		.ascii	"ch_threads_queue\000"
 3071      68726561 
 3071      64735F71 
 3071      75657565 
 3071      00
 3072              	.LASF18:
 3073 01cf 63685F71 		.ascii	"ch_queue_t\000"
 3073      75657565 
 3073      5F7400
 3074              	.LASF26:
 3075 01da 77727074 		.ascii	"wrptr\000"
 3075      7200
 3076              	.LASF2:
 3077 01e0 6C6F6E67 		.ascii	"long double\000"
 3077      20646F75 
 3077      626C6500 
 3078              	.LASF1:
 3079 01ec 6C6F6E67 		.ascii	"long long int\000"
 3079      206C6F6E 
 3079      6720696E 
 3079      7400
 3080              	.LASF60:
 3081 01fa 63685468 		.ascii	"chThdEnqueueTimeoutS\000"
 3081      64456E71 
 3081      75657565 
 3081      54696D65 
 3081      6F757453 
 3082              	.LASF48:
 3083 020f 63684D42 		.ascii	"chMBObjectInit\000"
 3083      4F626A65 
 3083      6374496E 
 3083      697400
 3084              	.LASF9:
 3085 021e 6C6F6E67 		.ascii	"long int\000"
 3085      20696E74 
 3085      00
 3086              	.LASF58:
 3087 0227 2E2E2F2E 		.ascii	"../../../os/oslib/src/chmboxes.c\000"
 3087      2E2F2E2E 
 3087      2F6F732F 
 3087      6F736C69 
 3087      622F7372 
 3088              	.LASF27:
 3089 0248 72647074 		.ascii	"rdptr\000"
 3089      7200
 3090              	.LASF23:
 3091 024e 71756575 		.ascii	"queue\000"
 3091      6500
 3092              	.LASF4:
 3093 0254 756E7369 		.ascii	"unsigned char\000"
 3093      676E6564 
 3093      20636861 
 3093      7200
 3094              	.LASF37:
ARM GAS  C:\Users\DEVELO~1\AppData\Local\Temp\ccnKUYf1.s 			page 57


 3095 0262 5F5F6675 		.ascii	"__func__\000"
 3095      6E635F5F 
 3095      00
 3096              	.LASF43:
 3097 026b 63684D42 		.ascii	"chMBPostI\000"
 3097      506F7374 
 3097      4900
 3098              	.LASF3:
 3099 0275 7369676E 		.ascii	"signed char\000"
 3099      65642063 
 3099      68617200 
 3100              	.LASF12:
 3101 0281 6C6F6E67 		.ascii	"long long unsigned int\000"
 3101      206C6F6E 
 3101      6720756E 
 3101      7369676E 
 3101      65642069 
 3102              	.LASF14:
 3103 0298 75696E74 		.ascii	"uint32_t\000"
 3103      33325F74 
 3103      00
 3104              	.LASF33:
 3105 02a1 6D736770 		.ascii	"msgp\000"
 3105      00
 3106              	.LASF17:
 3107 02a6 73797369 		.ascii	"sysinterval_t\000"
 3107      6E746572 
 3107      76616C5F 
 3107      7400
 3108              	.LASF34:
 3109 02b4 63684D42 		.ascii	"chMBFetchI\000"
 3109      46657463 
 3109      684900
 3110              	.LASF6:
 3111 02bf 73686F72 		.ascii	"short unsigned int\000"
 3111      7420756E 
 3111      7369676E 
 3111      65642069 
 3111      6E7400
 3112              	.LASF63:
 3113 02d2 62617365 		.ascii	"basePri\000"
 3113      50726900 
 3114              	.LASF16:
 3115 02da 63686172 		.ascii	"char\000"
 3115      00
 3116              	.LASF13:
 3117 02df 696E7433 		.ascii	"int32_t\000"
 3117      325F7400 
 3118              	.LASF30:
 3119 02e7 6D61696C 		.ascii	"mailbox_t\000"
 3119      626F785F 
 3119      7400
 3120              	.LASF29:
 3121 02f1 5F426F6F 		.ascii	"_Bool\000"
 3121      6C00
 3122              	.LASF55:
 3123 02f7 706F7274 		.ascii	"port_unlock\000"
ARM GAS  C:\Users\DEVELO~1\AppData\Local\Temp\ccnKUYf1.s 			page 58


 3123      5F756E6C 
 3123      6F636B00 
 3124              	.LASF56:
 3125 0303 706F7274 		.ascii	"port_lock\000"
 3125      5F6C6F63 
 3125      6B00
 3126              	.LASF52:
 3127 030d 63685468 		.ascii	"chThdQueueObjectInit\000"
 3127      64517565 
 3127      75654F62 
 3127      6A656374 
 3127      496E6974 
 3128              	.LASF25:
 3129 0322 62756666 		.ascii	"buffer\000"
 3129      657200
 3130              	.LASF42:
 3131 0329 63684D42 		.ascii	"chMBPostAheadTimeout\000"
 3131      506F7374 
 3131      41686561 
 3131      6454696D 
 3131      656F7574 
 3132              	.LASF11:
 3133 033e 6C6F6E67 		.ascii	"long unsigned int\000"
 3133      20756E73 
 3133      69676E65 
 3133      6420696E 
 3133      7400
 3134              	.LASF51:
 3135 0350 63684D42 		.ascii	"chMBGetSizeI\000"
 3135      47657453 
 3135      697A6549 
 3135      00
 3136              	.LASF10:
 3137 035d 5F5F7569 		.ascii	"__uint32_t\000"
 3137      6E743332 
 3137      5F7400
 3138              	.LASF53:
 3139 0368 63685379 		.ascii	"chSysUnlock\000"
 3139      73556E6C 
 3139      6F636B00 
 3140              	.LASF64:
 3141 0374 63685F71 		.ascii	"ch_queue_init\000"
 3141      75657565 
 3141      5F696E69 
 3141      7400
 3142              	.LASF28:
 3143 0382 72657365 		.ascii	"reset\000"
 3143      7400
 3144              	.LASF8:
 3145 0388 5F5F696E 		.ascii	"__int32_t\000"
 3145      7433325F 
 3145      7400
 3146              	.LASF47:
 3147 0392 63684D42 		.ascii	"chMBReset\000"
 3147      52657365 
 3147      7400
 3148              	.LASF35:
ARM GAS  C:\Users\DEVELO~1\AppData\Local\Temp\ccnKUYf1.s 			page 59


 3149 039c 63684D42 		.ascii	"chMBFetchTimeoutS\000"
 3149      46657463 
 3149      6854696D 
 3149      656F7574 
 3149      5300
 3150              	.LASF44:
 3151 03ae 63684D42 		.ascii	"chMBPostTimeoutS\000"
 3151      506F7374 
 3151      54696D65 
 3151      6F757453 
 3151      00
 3152              	.LASF21:
 3153 03bf 63685F71 		.ascii	"ch_queue\000"
 3153      75657565 
 3153      00
 3154              	.LASF62:
 3155 03c8 5F5F7365 		.ascii	"__set_BASEPRI\000"
 3155      745F4241 
 3155      53455052 
 3155      4900
 3156              	.LASF20:
 3157 03d6 70726576 		.ascii	"prev\000"
 3157      00
 3158              	.LASF0:
 3159 03db 756E7369 		.ascii	"unsigned int\000"
 3159      676E6564 
 3159      20696E74 
 3159      00
 3160              	.LASF39:
 3161 03e8 7264796D 		.ascii	"rdymsg\000"
 3161      736700
 3162              	.LASF15:
 3163 03ef 6D73675F 		.ascii	"msg_t\000"
 3163      7400
 3164              	.LASF36:
 3165 03f5 74696D65 		.ascii	"timeout\000"
 3165      6F757400 
 3166              	.LASF19:
 3167 03fd 6E657874 		.ascii	"next\000"
 3167      00
 3168              		.ident	"GCC: (Arm GNU Toolchain 11.3.Rel1) 11.3.1 20220712"
ARM GAS  C:\Users\DEVELO~1\AppData\Local\Temp\ccnKUYf1.s 			page 60


DEFINED SYMBOLS
                            *ABS*:00000000 chmboxes.c
C:\Users\DEVELO~1\AppData\Local\Temp\ccnKUYf1.s:18     .text.ch_queue_init:00000000 $t
C:\Users\DEVELO~1\AppData\Local\Temp\ccnKUYf1.s:23     .text.ch_queue_init:00000000 ch_queue_init
C:\Users\DEVELO~1\AppData\Local\Temp\ccnKUYf1.s:62     .text.chSysLock:00000000 $t
C:\Users\DEVELO~1\AppData\Local\Temp\ccnKUYf1.s:67     .text.chSysLock:00000000 chSysLock
C:\Users\DEVELO~1\AppData\Local\Temp\ccnKUYf1.s:121    .text.chSysUnlock:00000000 $t
C:\Users\DEVELO~1\AppData\Local\Temp\ccnKUYf1.s:126    .text.chSysUnlock:00000000 chSysUnlock
C:\Users\DEVELO~1\AppData\Local\Temp\ccnKUYf1.s:177    .text.chThdQueueObjectInit:00000000 $t
C:\Users\DEVELO~1\AppData\Local\Temp\ccnKUYf1.s:182    .text.chThdQueueObjectInit:00000000 chThdQueueObjectInit
C:\Users\DEVELO~1\AppData\Local\Temp\ccnKUYf1.s:214    .text.chMBGetSizeI:00000000 $t
C:\Users\DEVELO~1\AppData\Local\Temp\ccnKUYf1.s:219    .text.chMBGetSizeI:00000000 chMBGetSizeI
C:\Users\DEVELO~1\AppData\Local\Temp\ccnKUYf1.s:259    .text.chMBGetUsedCountI:00000000 $t
C:\Users\DEVELO~1\AppData\Local\Temp\ccnKUYf1.s:264    .text.chMBGetUsedCountI:00000000 chMBGetUsedCountI
C:\Users\DEVELO~1\AppData\Local\Temp\ccnKUYf1.s:297    .text.chMBGetFreeCountI:00000000 $t
C:\Users\DEVELO~1\AppData\Local\Temp\ccnKUYf1.s:302    .text.chMBGetFreeCountI:00000000 chMBGetFreeCountI
C:\Users\DEVELO~1\AppData\Local\Temp\ccnKUYf1.s:340    .text.chMBObjectInit:00000000 $t
C:\Users\DEVELO~1\AppData\Local\Temp\ccnKUYf1.s:346    .text.chMBObjectInit:00000000 chMBObjectInit
C:\Users\DEVELO~1\AppData\Local\Temp\ccnKUYf1.s:415    .text.chMBReset:00000000 $t
C:\Users\DEVELO~1\AppData\Local\Temp\ccnKUYf1.s:421    .text.chMBReset:00000000 chMBReset
C:\Users\DEVELO~1\AppData\Local\Temp\ccnKUYf1.s:463    .text.chMBResetI:00000000 chMBResetI
C:\Users\DEVELO~1\AppData\Local\Temp\ccnKUYf1.s:457    .text.chMBResetI:00000000 $t
C:\Users\DEVELO~1\AppData\Local\Temp\ccnKUYf1.s:522    .text.chMBPostTimeout:00000000 $t
C:\Users\DEVELO~1\AppData\Local\Temp\ccnKUYf1.s:528    .text.chMBPostTimeout:00000000 chMBPostTimeout
C:\Users\DEVELO~1\AppData\Local\Temp\ccnKUYf1.s:575    .text.chMBPostTimeoutS:00000000 chMBPostTimeoutS
C:\Users\DEVELO~1\AppData\Local\Temp\ccnKUYf1.s:569    .text.chMBPostTimeoutS:00000000 $t
C:\Users\DEVELO~1\AppData\Local\Temp\ccnKUYf1.s:681    .text.chMBPostI:00000000 $t
C:\Users\DEVELO~1\AppData\Local\Temp\ccnKUYf1.s:687    .text.chMBPostI:00000000 chMBPostI
C:\Users\DEVELO~1\AppData\Local\Temp\ccnKUYf1.s:778    .text.chMBPostAheadTimeout:00000000 $t
C:\Users\DEVELO~1\AppData\Local\Temp\ccnKUYf1.s:784    .text.chMBPostAheadTimeout:00000000 chMBPostAheadTimeout
C:\Users\DEVELO~1\AppData\Local\Temp\ccnKUYf1.s:831    .text.chMBPostAheadTimeoutS:00000000 chMBPostAheadTimeoutS
C:\Users\DEVELO~1\AppData\Local\Temp\ccnKUYf1.s:825    .text.chMBPostAheadTimeoutS:00000000 $t
C:\Users\DEVELO~1\AppData\Local\Temp\ccnKUYf1.s:943    .text.chMBPostAheadI:00000000 $t
C:\Users\DEVELO~1\AppData\Local\Temp\ccnKUYf1.s:949    .text.chMBPostAheadI:00000000 chMBPostAheadI
C:\Users\DEVELO~1\AppData\Local\Temp\ccnKUYf1.s:1046   .text.chMBFetchTimeout:00000000 $t
C:\Users\DEVELO~1\AppData\Local\Temp\ccnKUYf1.s:1052   .text.chMBFetchTimeout:00000000 chMBFetchTimeout
C:\Users\DEVELO~1\AppData\Local\Temp\ccnKUYf1.s:1099   .text.chMBFetchTimeoutS:00000000 chMBFetchTimeoutS
C:\Users\DEVELO~1\AppData\Local\Temp\ccnKUYf1.s:1093   .text.chMBFetchTimeoutS:00000000 $t
C:\Users\DEVELO~1\AppData\Local\Temp\ccnKUYf1.s:1207   .text.chMBFetchI:00000000 $t
C:\Users\DEVELO~1\AppData\Local\Temp\ccnKUYf1.s:1213   .text.chMBFetchI:00000000 chMBFetchI

UNDEFINED SYMBOLS
chSchRescheduleS
chThdDequeueAllI
chThdDequeueNextI
chThdEnqueueTimeoutS
