ARM GAS  C:\Users\DEVELO~1\AppData\Local\Temp\ccmqFCH5.s 			page 1


   1              		.cpu cortex-m7
   2              		.arch armv7e-m
   3              		.fpu softvfp
   4              		.eabi_attribute 20, 1
   5              		.eabi_attribute 21, 1
   6              		.eabi_attribute 23, 3
   7              		.eabi_attribute 24, 1
   8              		.eabi_attribute 25, 1
   9              		.eabi_attribute 26, 1
  10              		.eabi_attribute 30, 6
  11              		.eabi_attribute 34, 1
  12              		.eabi_attribute 18, 4
  13              		.file	"chmempools.c"
  14              		.text
  15              	.Ltext0:
  16              		.cfi_sections	.debug_frame
  17              		.section	.text.chSysLock,"ax",%progbits
  18              		.align	1
  19              		.syntax unified
  20              		.thumb
  21              		.thumb_func
  22              		.type	chSysLock, %function
  23              	chSysLock:
  24              	.LFB202:
  25              		.file 1 "../../../os/rt/include/chsys.h"
  26              		.loc 1 407 36
  27              		.cfi_startproc
  28              		@ args = 0, pretend = 0, frame = 8
  29              		@ frame_needed = 1, uses_anonymous_args = 0
  30              		@ link register save eliminated.
  31 0000 80B4     		push	{r7}
  32              		.cfi_def_cfa_offset 4
  33              		.cfi_offset 7, -4
  34 0002 83B0     		sub	sp, sp, #12
  35              		.cfi_def_cfa_offset 16
  36 0004 00AF     		add	r7, sp, #0
  37              		.cfi_def_cfa_register 7
  38 0006 3023     		movs	r3, #48
  39 0008 7B60     		str	r3, [r7, #4]
  40              	.LBB14:
  41              	.LBB15:
  42              	.LBB16:
  43              	.LBB17:
  44              		.file 2 "../../../os/common/ext/ARM/CMSIS/Core/Include/cmsis_gcc.h"
  45              		.loc 2 493 3
  46 000a 7B68     		ldr	r3, [r7, #4]
  47              		.syntax unified
  48              	@ 493 "../../../os/common/ext/ARM/CMSIS/Core/Include/cmsis_gcc.h" 1
  49 000c 83F31188 		MSR basepri, r3
  50              	@ 0 "" 2
  51              		.loc 2 494 1
  52              		.thumb
  53              		.syntax unified
  54 0010 00BF     		nop
  55              	.LBE17:
  56              	.LBE16:
  57              		.file 3 "../../../os/common/ports/ARMv7-M/chcore.h"
ARM GAS  C:\Users\DEVELO~1\AppData\Local\Temp\ccmqFCH5.s 			page 2


  58              		.loc 3 840 1
  59 0012 00BF     		nop
  60              	.LBE15:
  61              	.LBE14:
  62              		.loc 1 412 1
  63 0014 00BF     		nop
  64 0016 0C37     		adds	r7, r7, #12
  65              		.cfi_def_cfa_offset 4
  66 0018 BD46     		mov	sp, r7
  67              		.cfi_def_cfa_register 13
  68              		@ sp needed
  69 001a 80BC     		pop	{r7}
  70              		.cfi_restore 7
  71              		.cfi_def_cfa_offset 0
  72 001c 7047     		bx	lr
  73              		.cfi_endproc
  74              	.LFE202:
  75              		.size	chSysLock, .-chSysLock
  76              		.section	.text.chSysUnlock,"ax",%progbits
  77              		.align	1
  78              		.syntax unified
  79              		.thumb
  80              		.thumb_func
  81              		.type	chSysUnlock, %function
  82              	chSysUnlock:
  83              	.LFB203:
  84              		.loc 1 421 38
  85              		.cfi_startproc
  86              		@ args = 0, pretend = 0, frame = 8
  87              		@ frame_needed = 1, uses_anonymous_args = 0
  88              		@ link register save eliminated.
  89 0000 80B4     		push	{r7}
  90              		.cfi_def_cfa_offset 4
  91              		.cfi_offset 7, -4
  92 0002 83B0     		sub	sp, sp, #12
  93              		.cfi_def_cfa_offset 16
  94 0004 00AF     		add	r7, sp, #0
  95              		.cfi_def_cfa_register 7
  96 0006 0023     		movs	r3, #0
  97 0008 7B60     		str	r3, [r7, #4]
  98              	.LBB18:
  99              	.LBB19:
 100              	.LBB20:
 101              	.LBB21:
 102              		.loc 2 493 3
 103 000a 7B68     		ldr	r3, [r7, #4]
 104              		.syntax unified
 105              	@ 493 "../../../os/common/ext/ARM/CMSIS/Core/Include/cmsis_gcc.h" 1
 106 000c 83F31188 		MSR basepri, r3
 107              	@ 0 "" 2
 108              		.loc 2 494 1
 109              		.thumb
 110              		.syntax unified
 111 0010 00BF     		nop
 112              	.LBE21:
 113              	.LBE20:
 114              		.loc 3 854 1
ARM GAS  C:\Users\DEVELO~1\AppData\Local\Temp\ccmqFCH5.s 			page 3


 115 0012 00BF     		nop
 116              	.LBE19:
 117              	.LBE18:
 118              		.loc 1 435 1
 119 0014 00BF     		nop
 120 0016 0C37     		adds	r7, r7, #12
 121              		.cfi_def_cfa_offset 4
 122 0018 BD46     		mov	sp, r7
 123              		.cfi_def_cfa_register 13
 124              		@ sp needed
 125 001a 80BC     		pop	{r7}
 126              		.cfi_restore 7
 127              		.cfi_def_cfa_offset 0
 128 001c 7047     		bx	lr
 129              		.cfi_endproc
 130              	.LFE203:
 131              		.size	chSysUnlock, .-chSysUnlock
 132              		.section	.text.chPoolAdd,"ax",%progbits
 133              		.align	1
 134              		.syntax unified
 135              		.thumb
 136              		.thumb_func
 137              		.type	chPoolAdd, %function
 138              	chPoolAdd:
 139              	.LFB287:
 140              		.file 4 "../../../os/oslib/include/chmempools.h"
 141              		.loc 4 210 61
 142              		.cfi_startproc
 143              		@ args = 0, pretend = 0, frame = 8
 144              		@ frame_needed = 1, uses_anonymous_args = 0
 145 0000 80B5     		push	{r7, lr}
 146              		.cfi_def_cfa_offset 8
 147              		.cfi_offset 7, -8
 148              		.cfi_offset 14, -4
 149 0002 82B0     		sub	sp, sp, #8
 150              		.cfi_def_cfa_offset 16
 151 0004 00AF     		add	r7, sp, #0
 152              		.cfi_def_cfa_register 7
 153 0006 7860     		str	r0, [r7, #4]
 154 0008 3960     		str	r1, [r7]
 155              		.loc 4 212 3
 156 000a 3968     		ldr	r1, [r7]
 157 000c 7868     		ldr	r0, [r7, #4]
 158 000e FFF7FEFF 		bl	chPoolFree
 159              		.loc 4 213 1
 160 0012 00BF     		nop
 161 0014 0837     		adds	r7, r7, #8
 162              		.cfi_def_cfa_offset 8
 163 0016 BD46     		mov	sp, r7
 164              		.cfi_def_cfa_register 13
 165              		@ sp needed
 166 0018 80BD     		pop	{r7, pc}
 167              		.cfi_endproc
 168              	.LFE287:
 169              		.size	chPoolAdd, .-chPoolAdd
 170              		.section	.text.chGuardedPoolFreeI,"ax",%progbits
 171              		.align	1
ARM GAS  C:\Users\DEVELO~1\AppData\Local\Temp\ccmqFCH5.s 			page 4


 172              		.syntax unified
 173              		.thumb
 174              		.thumb_func
 175              		.type	chGuardedPoolFreeI, %function
 176              	chGuardedPoolFreeI:
 177              	.LFB292:
 178              		.loc 4 302 79
 179              		.cfi_startproc
 180              		@ args = 0, pretend = 0, frame = 8
 181              		@ frame_needed = 1, uses_anonymous_args = 0
 182 0000 80B5     		push	{r7, lr}
 183              		.cfi_def_cfa_offset 8
 184              		.cfi_offset 7, -8
 185              		.cfi_offset 14, -4
 186 0002 82B0     		sub	sp, sp, #8
 187              		.cfi_def_cfa_offset 16
 188 0004 00AF     		add	r7, sp, #0
 189              		.cfi_def_cfa_register 7
 190 0006 7860     		str	r0, [r7, #4]
 191 0008 3960     		str	r1, [r7]
 192              		.loc 4 304 3
 193 000a 7B68     		ldr	r3, [r7, #4]
 194 000c 0C33     		adds	r3, r3, #12
 195 000e 3968     		ldr	r1, [r7]
 196 0010 1846     		mov	r0, r3
 197 0012 FFF7FEFF 		bl	chPoolFreeI
 198              		.loc 4 305 3
 199 0016 7B68     		ldr	r3, [r7, #4]
 200 0018 1846     		mov	r0, r3
 201 001a FFF7FEFF 		bl	chSemSignalI
 202              		.loc 4 306 1
 203 001e 00BF     		nop
 204 0020 0837     		adds	r7, r7, #8
 205              		.cfi_def_cfa_offset 8
 206 0022 BD46     		mov	sp, r7
 207              		.cfi_def_cfa_register 13
 208              		@ sp needed
 209 0024 80BD     		pop	{r7, pc}
 210              		.cfi_endproc
 211              	.LFE292:
 212              		.size	chGuardedPoolFreeI, .-chGuardedPoolFreeI
 213              		.section	.text.chGuardedPoolAdd,"ax",%progbits
 214              		.align	1
 215              		.syntax unified
 216              		.thumb
 217              		.thumb_func
 218              		.type	chGuardedPoolAdd, %function
 219              	chGuardedPoolAdd:
 220              	.LFB294:
 221              		.loc 4 340 77
 222              		.cfi_startproc
 223              		@ args = 0, pretend = 0, frame = 8
 224              		@ frame_needed = 1, uses_anonymous_args = 0
 225 0000 80B5     		push	{r7, lr}
 226              		.cfi_def_cfa_offset 8
 227              		.cfi_offset 7, -8
 228              		.cfi_offset 14, -4
ARM GAS  C:\Users\DEVELO~1\AppData\Local\Temp\ccmqFCH5.s 			page 5


 229 0002 82B0     		sub	sp, sp, #8
 230              		.cfi_def_cfa_offset 16
 231 0004 00AF     		add	r7, sp, #0
 232              		.cfi_def_cfa_register 7
 233 0006 7860     		str	r0, [r7, #4]
 234 0008 3960     		str	r1, [r7]
 235              		.loc 4 342 3
 236 000a 3968     		ldr	r1, [r7]
 237 000c 7868     		ldr	r0, [r7, #4]
 238 000e FFF7FEFF 		bl	chGuardedPoolFree
 239              		.loc 4 343 1
 240 0012 00BF     		nop
 241 0014 0837     		adds	r7, r7, #8
 242              		.cfi_def_cfa_offset 8
 243 0016 BD46     		mov	sp, r7
 244              		.cfi_def_cfa_register 13
 245              		@ sp needed
 246 0018 80BD     		pop	{r7, pc}
 247              		.cfi_endproc
 248              	.LFE294:
 249              		.size	chGuardedPoolAdd, .-chGuardedPoolAdd
 250              		.section	.text.chPoolObjectInitAligned,"ax",%progbits
 251              		.align	1
 252              		.global	chPoolObjectInitAligned
 253              		.syntax unified
 254              		.thumb
 255              		.thumb_func
 256              		.type	chPoolObjectInitAligned, %function
 257              	chPoolObjectInitAligned:
 258              	.LFB346:
 259              		.file 5 "../../../os/oslib/src/chmempools.c"
 260              		.loc 5 78 69
 261              		.cfi_startproc
 262              		@ args = 0, pretend = 0, frame = 16
 263              		@ frame_needed = 1, uses_anonymous_args = 0
 264              		@ link register save eliminated.
 265 0000 80B4     		push	{r7}
 266              		.cfi_def_cfa_offset 4
 267              		.cfi_offset 7, -4
 268 0002 85B0     		sub	sp, sp, #20
 269              		.cfi_def_cfa_offset 24
 270 0004 00AF     		add	r7, sp, #0
 271              		.cfi_def_cfa_register 7
 272 0006 F860     		str	r0, [r7, #12]
 273 0008 B960     		str	r1, [r7, #8]
 274 000a 7A60     		str	r2, [r7, #4]
 275 000c 3B60     		str	r3, [r7]
 276              		.loc 5 85 12
 277 000e FB68     		ldr	r3, [r7, #12]
 278 0010 0022     		movs	r2, #0
 279 0012 1A60     		str	r2, [r3]
 280              		.loc 5 86 19
 281 0014 FB68     		ldr	r3, [r7, #12]
 282 0016 BA68     		ldr	r2, [r7, #8]
 283 0018 5A60     		str	r2, [r3, #4]
 284              		.loc 5 87 13
 285 001a FB68     		ldr	r3, [r7, #12]
ARM GAS  C:\Users\DEVELO~1\AppData\Local\Temp\ccmqFCH5.s 			page 6


 286 001c 7A68     		ldr	r2, [r7, #4]
 287 001e 9A60     		str	r2, [r3, #8]
 288              		.loc 5 88 16
 289 0020 FB68     		ldr	r3, [r7, #12]
 290 0022 3A68     		ldr	r2, [r7]
 291 0024 DA60     		str	r2, [r3, #12]
 292              		.loc 5 89 1
 293 0026 00BF     		nop
 294 0028 1437     		adds	r7, r7, #20
 295              		.cfi_def_cfa_offset 4
 296 002a BD46     		mov	sp, r7
 297              		.cfi_def_cfa_register 13
 298              		@ sp needed
 299 002c 80BC     		pop	{r7}
 300              		.cfi_restore 7
 301              		.cfi_def_cfa_offset 0
 302 002e 7047     		bx	lr
 303              		.cfi_endproc
 304              	.LFE346:
 305              		.size	chPoolObjectInitAligned, .-chPoolObjectInitAligned
 306              		.section	.text.chPoolLoadArray,"ax",%progbits
 307              		.align	1
 308              		.global	chPoolLoadArray
 309              		.syntax unified
 310              		.thumb
 311              		.thumb_func
 312              		.type	chPoolLoadArray, %function
 313              	chPoolLoadArray:
 314              	.LFB347:
 315              		.loc 5 106 60
 316              		.cfi_startproc
 317              		@ args = 0, pretend = 0, frame = 16
 318              		@ frame_needed = 1, uses_anonymous_args = 0
 319 0000 80B5     		push	{r7, lr}
 320              		.cfi_def_cfa_offset 8
 321              		.cfi_offset 7, -8
 322              		.cfi_offset 14, -4
 323 0002 84B0     		sub	sp, sp, #16
 324              		.cfi_def_cfa_offset 24
 325 0004 00AF     		add	r7, sp, #0
 326              		.cfi_def_cfa_register 7
 327 0006 F860     		str	r0, [r7, #12]
 328 0008 B960     		str	r1, [r7, #8]
 329 000a 7A60     		str	r2, [r7, #4]
 330              		.loc 5 110 9
 331 000c 0BE0     		b	.L8
 332              	.L9:
 333              		.loc 5 111 5
 334 000e B968     		ldr	r1, [r7, #8]
 335 0010 F868     		ldr	r0, [r7, #12]
 336 0012 FFF7FEFF 		bl	chPoolAdd
 337              		.loc 5 113 37
 338 0016 FB68     		ldr	r3, [r7, #12]
 339 0018 5B68     		ldr	r3, [r3, #4]
 340              		.loc 5 113 7
 341 001a BA68     		ldr	r2, [r7, #8]
 342 001c 1344     		add	r3, r3, r2
ARM GAS  C:\Users\DEVELO~1\AppData\Local\Temp\ccmqFCH5.s 			page 7


 343 001e BB60     		str	r3, [r7, #8]
 344              		.loc 5 115 6
 345 0020 7B68     		ldr	r3, [r7, #4]
 346 0022 013B     		subs	r3, r3, #1
 347 0024 7B60     		str	r3, [r7, #4]
 348              	.L8:
 349              		.loc 5 110 12
 350 0026 7B68     		ldr	r3, [r7, #4]
 351 0028 002B     		cmp	r3, #0
 352 002a F0D1     		bne	.L9
 353              		.loc 5 117 1
 354 002c 00BF     		nop
 355 002e 00BF     		nop
 356 0030 1037     		adds	r7, r7, #16
 357              		.cfi_def_cfa_offset 8
 358 0032 BD46     		mov	sp, r7
 359              		.cfi_def_cfa_register 13
 360              		@ sp needed
 361 0034 80BD     		pop	{r7, pc}
 362              		.cfi_endproc
 363              	.LFE347:
 364              		.size	chPoolLoadArray, .-chPoolLoadArray
 365              		.section	.text.chPoolAllocI,"ax",%progbits
 366              		.align	1
 367              		.global	chPoolAllocI
 368              		.syntax unified
 369              		.thumb
 370              		.thumb_func
 371              		.type	chPoolAllocI, %function
 372              	chPoolAllocI:
 373              	.LFB348:
 374              		.loc 5 129 39
 375              		.cfi_startproc
 376              		@ args = 0, pretend = 0, frame = 16
 377              		@ frame_needed = 1, uses_anonymous_args = 0
 378 0000 80B5     		push	{r7, lr}
 379              		.cfi_def_cfa_offset 8
 380              		.cfi_offset 7, -8
 381              		.cfi_offset 14, -4
 382 0002 84B0     		sub	sp, sp, #16
 383              		.cfi_def_cfa_offset 24
 384 0004 00AF     		add	r7, sp, #0
 385              		.cfi_def_cfa_register 7
 386 0006 7860     		str	r0, [r7, #4]
 387              		.loc 5 135 8
 388 0008 7B68     		ldr	r3, [r7, #4]
 389 000a 1B68     		ldr	r3, [r3]
 390 000c FB60     		str	r3, [r7, #12]
 391              		.loc 5 137 6
 392 000e FB68     		ldr	r3, [r7, #12]
 393 0010 002B     		cmp	r3, #0
 394 0012 05D0     		beq	.L11
 395              		.loc 5 138 18
 396 0014 7B68     		ldr	r3, [r7, #4]
 397 0016 1B68     		ldr	r3, [r3]
 398              		.loc 5 138 24
 399 0018 1A68     		ldr	r2, [r3]
ARM GAS  C:\Users\DEVELO~1\AppData\Local\Temp\ccmqFCH5.s 			page 8


 400              		.loc 5 138 14
 401 001a 7B68     		ldr	r3, [r7, #4]
 402 001c 1A60     		str	r2, [r3]
 403 001e 0CE0     		b	.L12
 404              	.L11:
 405              		.loc 5 140 14
 406 0020 7B68     		ldr	r3, [r7, #4]
 407 0022 DB68     		ldr	r3, [r3, #12]
 408              		.loc 5 140 11
 409 0024 002B     		cmp	r3, #0
 410 0026 08D0     		beq	.L12
 411              		.loc 5 141 14
 412 0028 7B68     		ldr	r3, [r7, #4]
 413 002a DB68     		ldr	r3, [r3, #12]
 414              		.loc 5 141 12
 415 002c 7A68     		ldr	r2, [r7, #4]
 416 002e 5068     		ldr	r0, [r2, #4]
 417 0030 7A68     		ldr	r2, [r7, #4]
 418 0032 9268     		ldr	r2, [r2, #8]
 419 0034 1146     		mov	r1, r2
 420 0036 9847     		blx	r3
 421              	.LVL0:
 422 0038 F860     		str	r0, [r7, #12]
 423              	.L12:
 424              		.loc 5 148 10
 425 003a FB68     		ldr	r3, [r7, #12]
 426              		.loc 5 149 1
 427 003c 1846     		mov	r0, r3
 428 003e 1037     		adds	r7, r7, #16
 429              		.cfi_def_cfa_offset 8
 430 0040 BD46     		mov	sp, r7
 431              		.cfi_def_cfa_register 13
 432              		@ sp needed
 433 0042 80BD     		pop	{r7, pc}
 434              		.cfi_endproc
 435              	.LFE348:
 436              		.size	chPoolAllocI, .-chPoolAllocI
 437              		.section	.text.chPoolAlloc,"ax",%progbits
 438              		.align	1
 439              		.global	chPoolAlloc
 440              		.syntax unified
 441              		.thumb
 442              		.thumb_func
 443              		.type	chPoolAlloc, %function
 444              	chPoolAlloc:
 445              	.LFB349:
 446              		.loc 5 161 38
 447              		.cfi_startproc
 448              		@ args = 0, pretend = 0, frame = 16
 449              		@ frame_needed = 1, uses_anonymous_args = 0
 450 0000 80B5     		push	{r7, lr}
 451              		.cfi_def_cfa_offset 8
 452              		.cfi_offset 7, -8
 453              		.cfi_offset 14, -4
 454 0002 84B0     		sub	sp, sp, #16
 455              		.cfi_def_cfa_offset 24
 456 0004 00AF     		add	r7, sp, #0
ARM GAS  C:\Users\DEVELO~1\AppData\Local\Temp\ccmqFCH5.s 			page 9


 457              		.cfi_def_cfa_register 7
 458 0006 7860     		str	r0, [r7, #4]
 459              		.loc 5 164 3
 460 0008 FFF7FEFF 		bl	chSysLock
 461              		.loc 5 165 10
 462 000c 7868     		ldr	r0, [r7, #4]
 463 000e FFF7FEFF 		bl	chPoolAllocI
 464 0012 F860     		str	r0, [r7, #12]
 465              		.loc 5 166 3
 466 0014 FFF7FEFF 		bl	chSysUnlock
 467              		.loc 5 168 10
 468 0018 FB68     		ldr	r3, [r7, #12]
 469              		.loc 5 169 1
 470 001a 1846     		mov	r0, r3
 471 001c 1037     		adds	r7, r7, #16
 472              		.cfi_def_cfa_offset 8
 473 001e BD46     		mov	sp, r7
 474              		.cfi_def_cfa_register 13
 475              		@ sp needed
 476 0020 80BD     		pop	{r7, pc}
 477              		.cfi_endproc
 478              	.LFE349:
 479              		.size	chPoolAlloc, .-chPoolAlloc
 480              		.section	.text.chPoolFreeI,"ax",%progbits
 481              		.align	1
 482              		.global	chPoolFreeI
 483              		.syntax unified
 484              		.thumb
 485              		.thumb_func
 486              		.type	chPoolFreeI, %function
 487              	chPoolFreeI:
 488              	.LFB350:
 489              		.loc 5 183 49
 490              		.cfi_startproc
 491              		@ args = 0, pretend = 0, frame = 16
 492              		@ frame_needed = 1, uses_anonymous_args = 0
 493              		@ link register save eliminated.
 494 0000 80B4     		push	{r7}
 495              		.cfi_def_cfa_offset 4
 496              		.cfi_offset 7, -4
 497 0002 85B0     		sub	sp, sp, #20
 498              		.cfi_def_cfa_offset 24
 499 0004 00AF     		add	r7, sp, #0
 500              		.cfi_def_cfa_register 7
 501 0006 7860     		str	r0, [r7, #4]
 502 0008 3960     		str	r1, [r7]
 503              		.loc 5 184 23
 504 000a 3B68     		ldr	r3, [r7]
 505 000c FB60     		str	r3, [r7, #12]
 506              		.loc 5 191 17
 507 000e 7B68     		ldr	r3, [r7, #4]
 508 0010 1A68     		ldr	r2, [r3]
 509              		.loc 5 191 13
 510 0012 FB68     		ldr	r3, [r7, #12]
 511 0014 1A60     		str	r2, [r3]
 512              		.loc 5 192 12
 513 0016 7B68     		ldr	r3, [r7, #4]
ARM GAS  C:\Users\DEVELO~1\AppData\Local\Temp\ccmqFCH5.s 			page 10


 514 0018 FA68     		ldr	r2, [r7, #12]
 515 001a 1A60     		str	r2, [r3]
 516              		.loc 5 193 1
 517 001c 00BF     		nop
 518 001e 1437     		adds	r7, r7, #20
 519              		.cfi_def_cfa_offset 4
 520 0020 BD46     		mov	sp, r7
 521              		.cfi_def_cfa_register 13
 522              		@ sp needed
 523 0022 80BC     		pop	{r7}
 524              		.cfi_restore 7
 525              		.cfi_def_cfa_offset 0
 526 0024 7047     		bx	lr
 527              		.cfi_endproc
 528              	.LFE350:
 529              		.size	chPoolFreeI, .-chPoolFreeI
 530              		.section	.text.chPoolFree,"ax",%progbits
 531              		.align	1
 532              		.global	chPoolFree
 533              		.syntax unified
 534              		.thumb
 535              		.thumb_func
 536              		.type	chPoolFree, %function
 537              	chPoolFree:
 538              	.LFB351:
 539              		.loc 5 207 48
 540              		.cfi_startproc
 541              		@ args = 0, pretend = 0, frame = 8
 542              		@ frame_needed = 1, uses_anonymous_args = 0
 543 0000 80B5     		push	{r7, lr}
 544              		.cfi_def_cfa_offset 8
 545              		.cfi_offset 7, -8
 546              		.cfi_offset 14, -4
 547 0002 82B0     		sub	sp, sp, #8
 548              		.cfi_def_cfa_offset 16
 549 0004 00AF     		add	r7, sp, #0
 550              		.cfi_def_cfa_register 7
 551 0006 7860     		str	r0, [r7, #4]
 552 0008 3960     		str	r1, [r7]
 553              		.loc 5 209 3
 554 000a FFF7FEFF 		bl	chSysLock
 555              		.loc 5 210 3
 556 000e 3968     		ldr	r1, [r7]
 557 0010 7868     		ldr	r0, [r7, #4]
 558 0012 FFF7FEFF 		bl	chPoolFreeI
 559              		.loc 5 211 3
 560 0016 FFF7FEFF 		bl	chSysUnlock
 561              		.loc 5 212 1
 562 001a 00BF     		nop
 563 001c 0837     		adds	r7, r7, #8
 564              		.cfi_def_cfa_offset 8
 565 001e BD46     		mov	sp, r7
 566              		.cfi_def_cfa_register 13
 567              		@ sp needed
 568 0020 80BD     		pop	{r7, pc}
 569              		.cfi_endproc
 570              	.LFE351:
ARM GAS  C:\Users\DEVELO~1\AppData\Local\Temp\ccmqFCH5.s 			page 11


 571              		.size	chPoolFree, .-chPoolFree
 572              		.section	.text.chGuardedPoolObjectInitAligned,"ax",%progbits
 573              		.align	1
 574              		.global	chGuardedPoolObjectInitAligned
 575              		.syntax unified
 576              		.thumb
 577              		.thumb_func
 578              		.type	chGuardedPoolObjectInitAligned, %function
 579              	chGuardedPoolObjectInitAligned:
 580              	.LFB352:
 581              		.loc 5 228 53
 582              		.cfi_startproc
 583              		@ args = 0, pretend = 0, frame = 16
 584              		@ frame_needed = 1, uses_anonymous_args = 0
 585 0000 80B5     		push	{r7, lr}
 586              		.cfi_def_cfa_offset 8
 587              		.cfi_offset 7, -8
 588              		.cfi_offset 14, -4
 589 0002 84B0     		sub	sp, sp, #16
 590              		.cfi_def_cfa_offset 24
 591 0004 00AF     		add	r7, sp, #0
 592              		.cfi_def_cfa_register 7
 593 0006 F860     		str	r0, [r7, #12]
 594 0008 B960     		str	r1, [r7, #8]
 595 000a 7A60     		str	r2, [r7, #4]
 596              		.loc 5 230 3
 597 000c FB68     		ldr	r3, [r7, #12]
 598 000e 03F10C00 		add	r0, r3, #12
 599 0012 0023     		movs	r3, #0
 600 0014 7A68     		ldr	r2, [r7, #4]
 601 0016 B968     		ldr	r1, [r7, #8]
 602 0018 FFF7FEFF 		bl	chPoolObjectInitAligned
 603              		.loc 5 231 3
 604 001c FB68     		ldr	r3, [r7, #12]
 605 001e 0021     		movs	r1, #0
 606 0020 1846     		mov	r0, r3
 607 0022 FFF7FEFF 		bl	chSemObjectInit
 608              		.loc 5 232 1
 609 0026 00BF     		nop
 610 0028 1037     		adds	r7, r7, #16
 611              		.cfi_def_cfa_offset 8
 612 002a BD46     		mov	sp, r7
 613              		.cfi_def_cfa_register 13
 614              		@ sp needed
 615 002c 80BD     		pop	{r7, pc}
 616              		.cfi_endproc
 617              	.LFE352:
 618              		.size	chGuardedPoolObjectInitAligned, .-chGuardedPoolObjectInitAligned
 619              		.section	.text.chGuardedPoolLoadArray,"ax",%progbits
 620              		.align	1
 621              		.global	chGuardedPoolLoadArray
 622              		.syntax unified
 623              		.thumb
 624              		.thumb_func
 625              		.type	chGuardedPoolLoadArray, %function
 626              	chGuardedPoolLoadArray:
 627              	.LFB353:
ARM GAS  C:\Users\DEVELO~1\AppData\Local\Temp\ccmqFCH5.s 			page 12


 628              		.loc 5 247 76
 629              		.cfi_startproc
 630              		@ args = 0, pretend = 0, frame = 16
 631              		@ frame_needed = 1, uses_anonymous_args = 0
 632 0000 80B5     		push	{r7, lr}
 633              		.cfi_def_cfa_offset 8
 634              		.cfi_offset 7, -8
 635              		.cfi_offset 14, -4
 636 0002 84B0     		sub	sp, sp, #16
 637              		.cfi_def_cfa_offset 24
 638 0004 00AF     		add	r7, sp, #0
 639              		.cfi_def_cfa_register 7
 640 0006 F860     		str	r0, [r7, #12]
 641 0008 B960     		str	r1, [r7, #8]
 642 000a 7A60     		str	r2, [r7, #4]
 643              		.loc 5 251 9
 644 000c 0BE0     		b	.L20
 645              	.L21:
 646              		.loc 5 252 5
 647 000e B968     		ldr	r1, [r7, #8]
 648 0010 F868     		ldr	r0, [r7, #12]
 649 0012 FFF7FEFF 		bl	chGuardedPoolAdd
 650              		.loc 5 254 44
 651 0016 FB68     		ldr	r3, [r7, #12]
 652 0018 1B69     		ldr	r3, [r3, #16]
 653              		.loc 5 254 7
 654 001a BA68     		ldr	r2, [r7, #8]
 655 001c 1344     		add	r3, r3, r2
 656 001e BB60     		str	r3, [r7, #8]
 657              		.loc 5 256 6
 658 0020 7B68     		ldr	r3, [r7, #4]
 659 0022 013B     		subs	r3, r3, #1
 660 0024 7B60     		str	r3, [r7, #4]
 661              	.L20:
 662              		.loc 5 251 12
 663 0026 7B68     		ldr	r3, [r7, #4]
 664 0028 002B     		cmp	r3, #0
 665 002a F0D1     		bne	.L21
 666              		.loc 5 258 1
 667 002c 00BF     		nop
 668 002e 00BF     		nop
 669 0030 1037     		adds	r7, r7, #16
 670              		.cfi_def_cfa_offset 8
 671 0032 BD46     		mov	sp, r7
 672              		.cfi_def_cfa_register 13
 673              		@ sp needed
 674 0034 80BD     		pop	{r7, pc}
 675              		.cfi_endproc
 676              	.LFE353:
 677              		.size	chGuardedPoolLoadArray, .-chGuardedPoolLoadArray
 678              		.section	.text.chGuardedPoolAllocTimeoutS,"ax",%progbits
 679              		.align	1
 680              		.global	chGuardedPoolAllocTimeoutS
 681              		.syntax unified
 682              		.thumb
 683              		.thumb_func
 684              		.type	chGuardedPoolAllocTimeoutS, %function
ARM GAS  C:\Users\DEVELO~1\AppData\Local\Temp\ccmqFCH5.s 			page 13


 685              	chGuardedPoolAllocTimeoutS:
 686              	.LFB354:
 687              		.loc 5 276 57
 688              		.cfi_startproc
 689              		@ args = 0, pretend = 0, frame = 16
 690              		@ frame_needed = 1, uses_anonymous_args = 0
 691 0000 80B5     		push	{r7, lr}
 692              		.cfi_def_cfa_offset 8
 693              		.cfi_offset 7, -8
 694              		.cfi_offset 14, -4
 695 0002 84B0     		sub	sp, sp, #16
 696              		.cfi_def_cfa_offset 24
 697 0004 00AF     		add	r7, sp, #0
 698              		.cfi_def_cfa_register 7
 699 0006 7860     		str	r0, [r7, #4]
 700 0008 3960     		str	r1, [r7]
 701              		.loc 5 279 9
 702 000a 7B68     		ldr	r3, [r7, #4]
 703 000c 3968     		ldr	r1, [r7]
 704 000e 1846     		mov	r0, r3
 705 0010 FFF7FEFF 		bl	chSemWaitTimeoutS
 706 0014 F860     		str	r0, [r7, #12]
 707              		.loc 5 280 6
 708 0016 FB68     		ldr	r3, [r7, #12]
 709 0018 002B     		cmp	r3, #0
 710 001a 01D0     		beq	.L23
 711              		.loc 5 281 12
 712 001c 0023     		movs	r3, #0
 713 001e 05E0     		b	.L24
 714              	.L23:
 715              		.loc 5 284 10
 716 0020 7B68     		ldr	r3, [r7, #4]
 717 0022 0C33     		adds	r3, r3, #12
 718 0024 1846     		mov	r0, r3
 719 0026 FFF7FEFF 		bl	chPoolAllocI
 720 002a 0346     		mov	r3, r0
 721              	.L24:
 722              		.loc 5 285 1
 723 002c 1846     		mov	r0, r3
 724 002e 1037     		adds	r7, r7, #16
 725              		.cfi_def_cfa_offset 8
 726 0030 BD46     		mov	sp, r7
 727              		.cfi_def_cfa_register 13
 728              		@ sp needed
 729 0032 80BD     		pop	{r7, pc}
 730              		.cfi_endproc
 731              	.LFE354:
 732              		.size	chGuardedPoolAllocTimeoutS, .-chGuardedPoolAllocTimeoutS
 733              		.section	.text.chGuardedPoolAllocTimeout,"ax",%progbits
 734              		.align	1
 735              		.global	chGuardedPoolAllocTimeout
 736              		.syntax unified
 737              		.thumb
 738              		.thumb_func
 739              		.type	chGuardedPoolAllocTimeout, %function
 740              	chGuardedPoolAllocTimeout:
 741              	.LFB355:
ARM GAS  C:\Users\DEVELO~1\AppData\Local\Temp\ccmqFCH5.s 			page 14


 742              		.loc 5 303 56
 743              		.cfi_startproc
 744              		@ args = 0, pretend = 0, frame = 16
 745              		@ frame_needed = 1, uses_anonymous_args = 0
 746 0000 80B5     		push	{r7, lr}
 747              		.cfi_def_cfa_offset 8
 748              		.cfi_offset 7, -8
 749              		.cfi_offset 14, -4
 750 0002 84B0     		sub	sp, sp, #16
 751              		.cfi_def_cfa_offset 24
 752 0004 00AF     		add	r7, sp, #0
 753              		.cfi_def_cfa_register 7
 754 0006 7860     		str	r0, [r7, #4]
 755 0008 3960     		str	r1, [r7]
 756              		.loc 5 306 3
 757 000a FFF7FEFF 		bl	chSysLock
 758              		.loc 5 307 7
 759 000e 3968     		ldr	r1, [r7]
 760 0010 7868     		ldr	r0, [r7, #4]
 761 0012 FFF7FEFF 		bl	chGuardedPoolAllocTimeoutS
 762 0016 F860     		str	r0, [r7, #12]
 763              		.loc 5 308 3
 764 0018 FFF7FEFF 		bl	chSysUnlock
 765              		.loc 5 310 10
 766 001c FB68     		ldr	r3, [r7, #12]
 767              		.loc 5 311 1
 768 001e 1846     		mov	r0, r3
 769 0020 1037     		adds	r7, r7, #16
 770              		.cfi_def_cfa_offset 8
 771 0022 BD46     		mov	sp, r7
 772              		.cfi_def_cfa_register 13
 773              		@ sp needed
 774 0024 80BD     		pop	{r7, pc}
 775              		.cfi_endproc
 776              	.LFE355:
 777              		.size	chGuardedPoolAllocTimeout, .-chGuardedPoolAllocTimeout
 778              		.section	.text.chGuardedPoolFree,"ax",%progbits
 779              		.align	1
 780              		.global	chGuardedPoolFree
 781              		.syntax unified
 782              		.thumb
 783              		.thumb_func
 784              		.type	chGuardedPoolFree, %function
 785              	chGuardedPoolFree:
 786              	.LFB356:
 787              		.loc 5 325 64
 788              		.cfi_startproc
 789              		@ args = 0, pretend = 0, frame = 8
 790              		@ frame_needed = 1, uses_anonymous_args = 0
 791 0000 80B5     		push	{r7, lr}
 792              		.cfi_def_cfa_offset 8
 793              		.cfi_offset 7, -8
 794              		.cfi_offset 14, -4
 795 0002 82B0     		sub	sp, sp, #8
 796              		.cfi_def_cfa_offset 16
 797 0004 00AF     		add	r7, sp, #0
 798              		.cfi_def_cfa_register 7
ARM GAS  C:\Users\DEVELO~1\AppData\Local\Temp\ccmqFCH5.s 			page 15


 799 0006 7860     		str	r0, [r7, #4]
 800 0008 3960     		str	r1, [r7]
 801              		.loc 5 327 3
 802 000a FFF7FEFF 		bl	chSysLock
 803              		.loc 5 328 3
 804 000e 3968     		ldr	r1, [r7]
 805 0010 7868     		ldr	r0, [r7, #4]
 806 0012 FFF7FEFF 		bl	chGuardedPoolFreeI
 807              		.loc 5 329 3
 808 0016 FFF7FEFF 		bl	chSchRescheduleS
 809              		.loc 5 330 3
 810 001a FFF7FEFF 		bl	chSysUnlock
 811              		.loc 5 331 1
 812 001e 00BF     		nop
 813 0020 0837     		adds	r7, r7, #8
 814              		.cfi_def_cfa_offset 8
 815 0022 BD46     		mov	sp, r7
 816              		.cfi_def_cfa_register 13
 817              		@ sp needed
 818 0024 80BD     		pop	{r7, pc}
 819              		.cfi_endproc
 820              	.LFE356:
 821              		.size	chGuardedPoolFree, .-chGuardedPoolFree
 822              		.text
 823              	.Letext0:
 824              		.file 6 "c:\\chibistudio\\tools\\gnu tools arm embedded\\11.3 2022.08\\lib\\gcc\\arm-none-eabi\\11
 825              		.file 7 "c:\\chibistudio\\tools\\gnu tools arm embedded\\11.3 2022.08\\arm-none-eabi\\include\\mac
 826              		.file 8 "c:\\chibistudio\\tools\\gnu tools arm embedded\\11.3 2022.08\\arm-none-eabi\\include\\sys
 827              		.file 9 "../../../os/rt/include/chearly.h"
 828              		.file 10 "../../../os/rt/include/chtime.h"
 829              		.file 11 "../../../os/rt/include/chlists.h"
 830              		.file 12 "../../../os/rt/include/chsem.h"
 831              		.file 13 "../../../os/oslib/include/chmemcore.h"
 832              		.file 14 "../../../os/rt/include/chschd.h"
 833              		.section	.debug_info,"",%progbits
 834              	.Ldebug_info0:
 835 0000 0D070000 		.4byte	0x70d
 836 0004 0500     		.2byte	0x5
 837 0006 01       		.byte	0x1
 838 0007 04       		.byte	0x4
 839 0008 00000000 		.4byte	.Ldebug_abbrev0
 840 000c 1D       		.uleb128 0x1d
 841 000d 00000000 		.4byte	.LASF61
 842 0011 1D       		.byte	0x1d
 843 0012 07040000 		.4byte	.LASF62
 844 0016 AD000000 		.4byte	.LASF63
 845 001a 0C000000 		.4byte	.LLRL0
 846 001e 00000000 		.4byte	0
 847 0022 00000000 		.4byte	.Ldebug_line0
 848 0026 1E       		.uleb128 0x1e
 849 0027 04       		.byte	0x4
 850 0028 05       		.byte	0x5
 851 0029 696E7400 		.ascii	"int\000"
 852 002d 01       		.uleb128 0x1
 853 002e 95000000 		.4byte	.LASF4
 854 0032 06       		.byte	0x6
 855 0033 D1       		.byte	0xd1
ARM GAS  C:\Users\DEVELO~1\AppData\Local\Temp\ccmqFCH5.s 			page 16


 856 0034 17       		.byte	0x17
 857 0035 39000000 		.4byte	0x39
 858 0039 03       		.uleb128 0x3
 859 003a 04       		.byte	0x4
 860 003b 07       		.byte	0x7
 861 003c 6A020000 		.4byte	.LASF0
 862 0040 03       		.uleb128 0x3
 863 0041 08       		.byte	0x8
 864 0042 05       		.byte	0x5
 865 0043 72010000 		.4byte	.LASF1
 866 0047 03       		.uleb128 0x3
 867 0048 08       		.byte	0x8
 868 0049 04       		.byte	0x4
 869 004a 66010000 		.4byte	.LASF2
 870 004e 03       		.uleb128 0x3
 871 004f 01       		.byte	0x1
 872 0050 06       		.byte	0x6
 873 0051 3B020000 		.4byte	.LASF3
 874 0055 01       		.uleb128 0x1
 875 0056 CF010000 		.4byte	.LASF5
 876 005a 07       		.byte	0x7
 877 005b 2B       		.byte	0x2b
 878 005c 18       		.byte	0x18
 879 005d 61000000 		.4byte	0x61
 880 0061 03       		.uleb128 0x3
 881 0062 01       		.byte	0x1
 882 0063 08       		.byte	0x8
 883 0064 F2010000 		.4byte	.LASF6
 884 0068 03       		.uleb128 0x3
 885 0069 02       		.byte	0x2
 886 006a 05       		.byte	0x5
 887 006b 8B000000 		.4byte	.LASF7
 888 006f 03       		.uleb128 0x3
 889 0070 02       		.byte	0x2
 890 0071 07       		.byte	0x7
 891 0072 92020000 		.4byte	.LASF8
 892 0076 01       		.uleb128 0x1
 893 0077 92030000 		.4byte	.LASF9
 894 007b 07       		.byte	0x7
 895 007c 4D       		.byte	0x4d
 896 007d 18       		.byte	0x18
 897 007e 82000000 		.4byte	0x82
 898 0082 03       		.uleb128 0x3
 899 0083 04       		.byte	0x4
 900 0084 05       		.byte	0x5
 901 0085 BB010000 		.4byte	.LASF10
 902 0089 01       		.uleb128 0x1
 903 008a 52030000 		.4byte	.LASF11
 904 008e 07       		.byte	0x7
 905 008f 4F       		.byte	0x4f
 906 0090 19       		.byte	0x19
 907 0091 95000000 		.4byte	0x95
 908 0095 03       		.uleb128 0x3
 909 0096 04       		.byte	0x4
 910 0097 07       		.byte	0x7
 911 0098 33030000 		.4byte	.LASF12
 912 009c 03       		.uleb128 0x3
ARM GAS  C:\Users\DEVELO~1\AppData\Local\Temp\ccmqFCH5.s 			page 17


 913 009d 08       		.byte	0x8
 914 009e 07       		.byte	0x7
 915 009f 80010000 		.4byte	.LASF13
 916 00a3 01       		.uleb128 0x1
 917 00a4 53010000 		.4byte	.LASF14
 918 00a8 08       		.byte	0x8
 919 00a9 18       		.byte	0x18
 920 00aa 13       		.byte	0x13
 921 00ab 55000000 		.4byte	0x55
 922 00af 01       		.uleb128 0x1
 923 00b0 C2020000 		.4byte	.LASF15
 924 00b4 08       		.byte	0x8
 925 00b5 2C       		.byte	0x2c
 926 00b6 13       		.byte	0x13
 927 00b7 76000000 		.4byte	0x76
 928 00bb 01       		.uleb128 0x1
 929 00bc 57020000 		.4byte	.LASF16
 930 00c0 08       		.byte	0x8
 931 00c1 30       		.byte	0x30
 932 00c2 14       		.byte	0x14
 933 00c3 89000000 		.4byte	0x89
 934 00c7 01       		.uleb128 0x1
 935 00c8 F4030000 		.4byte	.LASF17
 936 00cc 09       		.byte	0x9
 937 00cd 58       		.byte	0x58
 938 00ce 19       		.byte	0x19
 939 00cf AF000000 		.4byte	0xaf
 940 00d3 01       		.uleb128 0x1
 941 00d4 D6020000 		.4byte	.LASF18
 942 00d8 09       		.byte	0x9
 943 00d9 5C       		.byte	0x5c
 944 00da 19       		.byte	0x19
 945 00db AF000000 		.4byte	0xaf
 946 00df 03       		.uleb128 0x3
 947 00e0 01       		.byte	0x1
 948 00e1 08       		.byte	0x8
 949 00e2 BD020000 		.4byte	.LASF19
 950 00e6 07       		.uleb128 0x7
 951 00e7 DF000000 		.4byte	0xdf
 952 00eb 01       		.uleb128 0x1
 953 00ec 84020000 		.4byte	.LASF20
 954 00f0 0A       		.byte	0xa
 955 00f1 79       		.byte	0x79
 956 00f2 12       		.byte	0x12
 957 00f3 BB000000 		.4byte	0xbb
 958 00f7 01       		.uleb128 0x1
 959 00f8 5B010000 		.4byte	.LASF21
 960 00fc 0B       		.byte	0xb
 961 00fd 3F       		.byte	0x3f
 962 00fe 19       		.byte	0x19
 963 00ff 03010000 		.4byte	0x103
 964 0103 10       		.uleb128 0x10
 965 0104 A7030000 		.4byte	.LASF24
 966 0108 08       		.byte	0x8
 967 0109 0B       		.byte	0xb
 968 010a 45       		.byte	0x45
 969 010b 08       		.byte	0x8
ARM GAS  C:\Users\DEVELO~1\AppData\Local\Temp\ccmqFCH5.s 			page 18


 970 010c 2B010000 		.4byte	0x12b
 971 0110 04       		.uleb128 0x4
 972 0111 02040000 		.4byte	.LASF22
 973 0115 0B       		.byte	0xb
 974 0116 46       		.byte	0x46
 975 0117 1A       		.byte	0x1a
 976 0118 2B010000 		.4byte	0x12b
 977 011c 00       		.byte	0
 978 011d 04       		.uleb128 0x4
 979 011e EF030000 		.4byte	.LASF23
 980 0122 0B       		.byte	0xb
 981 0123 47       		.byte	0x47
 982 0124 1A       		.byte	0x1a
 983 0125 2B010000 		.4byte	0x12b
 984 0129 04       		.byte	0x4
 985 012a 00       		.byte	0
 986 012b 08       		.uleb128 0x8
 987 012c F7000000 		.4byte	0xf7
 988 0130 1F       		.uleb128 0x1f
 989 0131 04       		.byte	0x4
 990 0132 10       		.uleb128 0x10
 991 0133 85030000 		.4byte	.LASF25
 992 0137 0C       		.byte	0xc
 993 0138 0C       		.byte	0xc
 994 0139 34       		.byte	0x34
 995 013a 10       		.byte	0x10
 996 013b 59010000 		.4byte	0x159
 997 013f 04       		.uleb128 0x4
 998 0140 EC010000 		.4byte	.LASF26
 999 0144 0C       		.byte	0xc
 1000 0145 35       		.byte	0x35
 1001 0146 19       		.byte	0x19
 1002 0147 F7000000 		.4byte	0xf7
 1003 014b 00       		.byte	0
 1004 014c 11       		.uleb128 0x11
 1005 014d 636E7400 		.ascii	"cnt\000"
 1006 0151 0C       		.byte	0xc
 1007 0152 37       		.byte	0x37
 1008 0153 D3000000 		.4byte	0xd3
 1009 0157 08       		.byte	0x8
 1010 0158 00       		.byte	0
 1011 0159 01       		.uleb128 0x1
 1012 015a 23020000 		.4byte	.LASF27
 1013 015e 0C       		.byte	0xc
 1014 015f 38       		.byte	0x38
 1015 0160 03       		.byte	0x3
 1016 0161 32010000 		.4byte	0x132
 1017 0165 03       		.uleb128 0x3
 1018 0166 01       		.byte	0x1
 1019 0167 02       		.byte	0x2
 1020 0168 DC020000 		.4byte	.LASF28
 1021 016c 01       		.uleb128 0x1
 1022 016d 77020000 		.4byte	.LASF29
 1023 0171 0D       		.byte	0xd
 1024 0172 47       		.byte	0x47
 1025 0173 11       		.byte	0x11
 1026 0174 78010000 		.4byte	0x178
ARM GAS  C:\Users\DEVELO~1\AppData\Local\Temp\ccmqFCH5.s 			page 19


 1027 0178 08       		.uleb128 0x8
 1028 0179 7D010000 		.4byte	0x17d
 1029 017d 20       		.uleb128 0x20
 1030 017e 30010000 		.4byte	0x130
 1031 0182 91010000 		.4byte	0x191
 1032 0186 06       		.uleb128 0x6
 1033 0187 2D000000 		.4byte	0x2d
 1034 018b 06       		.uleb128 0x6
 1035 018c 39000000 		.4byte	0x39
 1036 0190 00       		.byte	0
 1037 0191 10       		.uleb128 0x10
 1038 0192 27030000 		.4byte	.LASF30
 1039 0196 04       		.byte	0x4
 1040 0197 04       		.byte	0x4
 1041 0198 38       		.byte	0x38
 1042 0199 08       		.byte	0x8
 1043 019a AC010000 		.4byte	0x1ac
 1044 019e 04       		.uleb128 0x4
 1045 019f 02040000 		.4byte	.LASF22
 1046 01a3 04       		.byte	0x4
 1047 01a4 39       		.byte	0x39
 1048 01a5 1A       		.byte	0x1a
 1049 01a6 AC010000 		.4byte	0x1ac
 1050 01aa 00       		.byte	0
 1051 01ab 00       		.byte	0
 1052 01ac 08       		.uleb128 0x8
 1053 01ad 91010000 		.4byte	0x191
 1054 01b1 12       		.uleb128 0x12
 1055 01b2 10       		.byte	0x10
 1056 01b3 40       		.byte	0x40
 1057 01b4 ED010000 		.4byte	0x1ed
 1058 01b8 04       		.uleb128 0x4
 1059 01b9 02040000 		.4byte	.LASF22
 1060 01bd 04       		.byte	0x4
 1061 01be 41       		.byte	0x41
 1062 01bf 1A       		.byte	0x1a
 1063 01c0 AC010000 		.4byte	0x1ac
 1064 01c4 00       		.byte	0
 1065 01c5 04       		.uleb128 0x4
 1066 01c6 CA020000 		.4byte	.LASF31
 1067 01ca 04       		.byte	0x4
 1068 01cb 42       		.byte	0x42
 1069 01cc 19       		.byte	0x19
 1070 01cd 2D000000 		.4byte	0x2d
 1071 01d1 04       		.byte	0x4
 1072 01d2 04       		.uleb128 0x4
 1073 01d3 9C030000 		.4byte	.LASF32
 1074 01d7 04       		.byte	0x4
 1075 01d8 44       		.byte	0x44
 1076 01d9 19       		.byte	0x19
 1077 01da 39000000 		.4byte	0x39
 1078 01de 08       		.byte	0x8
 1079 01df 04       		.uleb128 0x4
 1080 01e0 EE020000 		.4byte	.LASF33
 1081 01e4 04       		.byte	0x4
 1082 01e5 45       		.byte	0x45
 1083 01e6 19       		.byte	0x19
ARM GAS  C:\Users\DEVELO~1\AppData\Local\Temp\ccmqFCH5.s 			page 20


 1084 01e7 6C010000 		.4byte	0x16c
 1085 01eb 0C       		.byte	0xc
 1086 01ec 00       		.byte	0
 1087 01ed 01       		.uleb128 0x1
 1088 01ee 01030000 		.4byte	.LASF34
 1089 01f2 04       		.byte	0x4
 1090 01f3 47       		.byte	0x47
 1091 01f4 03       		.byte	0x3
 1092 01f5 B1010000 		.4byte	0x1b1
 1093 01f9 12       		.uleb128 0x12
 1094 01fa 1C       		.byte	0x1c
 1095 01fb 4D       		.byte	0x4d
 1096 01fc 1A020000 		.4byte	0x21a
 1097 0200 11       		.uleb128 0x11
 1098 0201 73656D00 		.ascii	"sem\000"
 1099 0205 04       		.byte	0x4
 1100 0206 4E       		.byte	0x4e
 1101 0207 59010000 		.4byte	0x159
 1102 020b 00       		.byte	0
 1103 020c 04       		.uleb128 0x4
 1104 020d EA030000 		.4byte	.LASF35
 1105 0211 04       		.byte	0x4
 1106 0212 50       		.byte	0x50
 1107 0213 19       		.byte	0x19
 1108 0214 ED010000 		.4byte	0x1ed
 1109 0218 0C       		.byte	0xc
 1110 0219 00       		.byte	0
 1111 021a 01       		.uleb128 0x1
 1112 021b 0C010000 		.4byte	.LASF36
 1113 021f 04       		.byte	0x4
 1114 0220 51       		.byte	0x51
 1115 0221 03       		.byte	0x3
 1116 0222 F9010000 		.4byte	0x1f9
 1117 0226 13       		.uleb128 0x13
 1118 0227 B0030000 		.4byte	.LASF37
 1119 022b 63       		.byte	0x63
 1120 022c 36020000 		.4byte	0x236
 1121 0230 06       		.uleb128 0x6
 1122 0231 36020000 		.4byte	0x236
 1123 0235 00       		.byte	0
 1124 0236 08       		.uleb128 0x8
 1125 0237 59010000 		.4byte	0x159
 1126 023b 21       		.uleb128 0x21
 1127 023c 9C000000 		.4byte	.LASF64
 1128 0240 0E       		.byte	0xe
 1129 0241 9B       		.byte	0x9b
 1130 0242 08       		.byte	0x8
 1131 0243 22       		.uleb128 0x22
 1132 0244 A9010000 		.4byte	.LASF65
 1133 0248 0C       		.byte	0xc
 1134 0249 61       		.byte	0x61
 1135 024a 09       		.byte	0x9
 1136 024b C7000000 		.4byte	0xc7
 1137 024f 5E020000 		.4byte	0x25e
 1138 0253 06       		.uleb128 0x6
 1139 0254 36020000 		.4byte	0x236
 1140 0258 06       		.uleb128 0x6
ARM GAS  C:\Users\DEVELO~1\AppData\Local\Temp\ccmqFCH5.s 			page 21


 1141 0259 EB000000 		.4byte	0xeb
 1142 025d 00       		.byte	0
 1143 025e 13       		.uleb128 0x13
 1144 025f AD020000 		.4byte	.LASF38
 1145 0263 5B       		.byte	0x5b
 1146 0264 73020000 		.4byte	0x273
 1147 0268 06       		.uleb128 0x6
 1148 0269 36020000 		.4byte	0x236
 1149 026d 06       		.uleb128 0x6
 1150 026e D3000000 		.4byte	0xd3
 1151 0272 00       		.byte	0
 1152 0273 23       		.uleb128 0x23
 1153 0274 97010000 		.4byte	.LASF43
 1154 0278 05       		.byte	0x5
 1155 0279 4501     		.2byte	0x145
 1156 027b 06       		.byte	0x6
 1157 027c 00000000 		.4byte	.LFB356
 1158 0280 26000000 		.4byte	.LFE356-.LFB356
 1159 0284 01       		.uleb128 0x1
 1160 0285 9C       		.byte	0x9c
 1161 0286 AB020000 		.4byte	0x2ab
 1162 028a 0A       		.uleb128 0xa
 1163 028b 676D7000 		.ascii	"gmp\000"
 1164 028f 05       		.byte	0x5
 1165 0290 4501     		.2byte	0x145
 1166 0292 2F       		.byte	0x2f
 1167 0293 AB020000 		.4byte	0x2ab
 1168 0297 02       		.uleb128 0x2
 1169 0298 91       		.byte	0x91
 1170 0299 74       		.sleb128 -12
 1171 029a 0B       		.uleb128 0xb
 1172 029b A2030000 		.4byte	.LASF39
 1173 029f 05       		.byte	0x5
 1174 02a0 4501     		.2byte	0x145
 1175 02a2 3A       		.byte	0x3a
 1176 02a3 30010000 		.4byte	0x130
 1177 02a7 02       		.uleb128 0x2
 1178 02a8 91       		.byte	0x91
 1179 02a9 70       		.sleb128 -16
 1180 02aa 00       		.byte	0
 1181 02ab 08       		.uleb128 0x8
 1182 02ac 1A020000 		.4byte	0x21a
 1183 02b0 14       		.uleb128 0x14
 1184 02b1 09020000 		.4byte	.LASF41
 1185 02b5 2E01     		.2byte	0x12e
 1186 02b7 30010000 		.4byte	0x130
 1187 02bb 00000000 		.4byte	.LFB355
 1188 02bf 26000000 		.4byte	.LFE355-.LFB355
 1189 02c3 01       		.uleb128 0x1
 1190 02c4 9C       		.byte	0x9c
 1191 02c5 F6020000 		.4byte	0x2f6
 1192 02c9 0A       		.uleb128 0xa
 1193 02ca 676D7000 		.ascii	"gmp\000"
 1194 02ce 05       		.byte	0x5
 1195 02cf 2E01     		.2byte	0x12e
 1196 02d1 38       		.byte	0x38
 1197 02d2 AB020000 		.4byte	0x2ab
ARM GAS  C:\Users\DEVELO~1\AppData\Local\Temp\ccmqFCH5.s 			page 22


 1198 02d6 02       		.uleb128 0x2
 1199 02d7 91       		.byte	0x91
 1200 02d8 6C       		.sleb128 -20
 1201 02d9 0B       		.uleb128 0xb
 1202 02da FA030000 		.4byte	.LASF40
 1203 02de 05       		.byte	0x5
 1204 02df 2F01     		.2byte	0x12f
 1205 02e1 2F       		.byte	0x2f
 1206 02e2 EB000000 		.4byte	0xeb
 1207 02e6 02       		.uleb128 0x2
 1208 02e7 91       		.byte	0x91
 1209 02e8 68       		.sleb128 -24
 1210 02e9 15       		.uleb128 0x15
 1211 02ea 7000     		.ascii	"p\000"
 1212 02ec 3001     		.2byte	0x130
 1213 02ee 30010000 		.4byte	0x130
 1214 02f2 02       		.uleb128 0x2
 1215 02f3 91       		.byte	0x91
 1216 02f4 74       		.sleb128 -12
 1217 02f5 00       		.byte	0
 1218 02f6 14       		.uleb128 0x14
 1219 02f7 38010000 		.4byte	.LASF42
 1220 02fb 1301     		.2byte	0x113
 1221 02fd 30010000 		.4byte	0x130
 1222 0301 00000000 		.4byte	.LFB354
 1223 0305 34000000 		.4byte	.LFE354-.LFB354
 1224 0309 01       		.uleb128 0x1
 1225 030a 9C       		.byte	0x9c
 1226 030b 3E030000 		.4byte	0x33e
 1227 030f 0A       		.uleb128 0xa
 1228 0310 676D7000 		.ascii	"gmp\000"
 1229 0314 05       		.byte	0x5
 1230 0315 1301     		.2byte	0x113
 1231 0317 39       		.byte	0x39
 1232 0318 AB020000 		.4byte	0x2ab
 1233 031c 02       		.uleb128 0x2
 1234 031d 91       		.byte	0x91
 1235 031e 6C       		.sleb128 -20
 1236 031f 0B       		.uleb128 0xb
 1237 0320 FA030000 		.4byte	.LASF40
 1238 0324 05       		.byte	0x5
 1239 0325 1401     		.2byte	0x114
 1240 0327 30       		.byte	0x30
 1241 0328 EB000000 		.4byte	0xeb
 1242 032c 02       		.uleb128 0x2
 1243 032d 91       		.byte	0x91
 1244 032e 68       		.sleb128 -24
 1245 032f 15       		.uleb128 0x15
 1246 0330 6D736700 		.ascii	"msg\000"
 1247 0334 1501     		.2byte	0x115
 1248 0336 C7000000 		.4byte	0xc7
 1249 033a 02       		.uleb128 0x2
 1250 033b 91       		.byte	0x91
 1251 033c 74       		.sleb128 -12
 1252 033d 00       		.byte	0
 1253 033e 0E       		.uleb128 0xe
 1254 033f 6E030000 		.4byte	.LASF44
ARM GAS  C:\Users\DEVELO~1\AppData\Local\Temp\ccmqFCH5.s 			page 23


 1255 0343 F7       		.byte	0xf7
 1256 0344 00000000 		.4byte	.LFB353
 1257 0348 36000000 		.4byte	.LFE353-.LFB353
 1258 034c 01       		.uleb128 0x1
 1259 034d 9C       		.byte	0x9c
 1260 034e 85030000 		.4byte	0x385
 1261 0352 02       		.uleb128 0x2
 1262 0353 676D7000 		.ascii	"gmp\000"
 1263 0357 05       		.byte	0x5
 1264 0358 F7       		.byte	0xf7
 1265 0359 34       		.byte	0x34
 1266 035a AB020000 		.4byte	0x2ab
 1267 035e 02       		.uleb128 0x2
 1268 035f 91       		.byte	0x91
 1269 0360 74       		.sleb128 -12
 1270 0361 02       		.uleb128 0x2
 1271 0362 7000     		.ascii	"p\000"
 1272 0364 05       		.byte	0x5
 1273 0365 F7       		.byte	0xf7
 1274 0366 3F       		.byte	0x3f
 1275 0367 30010000 		.4byte	0x130
 1276 036b 02       		.uleb128 0x2
 1277 036c 91       		.byte	0x91
 1278 036d 70       		.sleb128 -16
 1279 036e 02       		.uleb128 0x2
 1280 036f 6E00     		.ascii	"n\000"
 1281 0371 05       		.byte	0x5
 1282 0372 F7       		.byte	0xf7
 1283 0373 49       		.byte	0x49
 1284 0374 2D000000 		.4byte	0x2d
 1285 0378 02       		.uleb128 0x2
 1286 0379 91       		.byte	0x91
 1287 037a 6C       		.sleb128 -20
 1288 037b 09       		.uleb128 0x9
 1289 037c 00020000 		.4byte	.LASF49
 1290 0380 95030000 		.4byte	0x395
 1291 0384 00       		.byte	0
 1292 0385 0C       		.uleb128 0xc
 1293 0386 E6000000 		.4byte	0xe6
 1294 038a 95030000 		.4byte	0x395
 1295 038e 0D       		.uleb128 0xd
 1296 038f 39000000 		.4byte	0x39
 1297 0393 16       		.byte	0x16
 1298 0394 00       		.byte	0
 1299 0395 07       		.uleb128 0x7
 1300 0396 85030000 		.4byte	0x385
 1301 039a 0E       		.uleb128 0xe
 1302 039b BD030000 		.4byte	.LASF45
 1303 039f E2       		.byte	0xe2
 1304 03a0 00000000 		.4byte	.LFB352
 1305 03a4 2E000000 		.4byte	.LFE352-.LFB352
 1306 03a8 01       		.uleb128 0x1
 1307 03a9 9C       		.byte	0x9c
 1308 03aa DC030000 		.4byte	0x3dc
 1309 03ae 02       		.uleb128 0x2
 1310 03af 676D7000 		.ascii	"gmp\000"
 1311 03b3 05       		.byte	0x5
ARM GAS  C:\Users\DEVELO~1\AppData\Local\Temp\ccmqFCH5.s 			page 24


 1312 03b4 E2       		.byte	0xe2
 1313 03b5 3C       		.byte	0x3c
 1314 03b6 AB020000 		.4byte	0x2ab
 1315 03ba 02       		.uleb128 0x2
 1316 03bb 91       		.byte	0x91
 1317 03bc 74       		.sleb128 -12
 1318 03bd 05       		.uleb128 0x5
 1319 03be 5D030000 		.4byte	.LASF46
 1320 03c2 05       		.byte	0x5
 1321 03c3 E3       		.byte	0xe3
 1322 03c4 2C       		.byte	0x2c
 1323 03c5 2D000000 		.4byte	0x2d
 1324 03c9 02       		.uleb128 0x2
 1325 03ca 91       		.byte	0x91
 1326 03cb 70       		.sleb128 -16
 1327 03cc 05       		.uleb128 0x5
 1328 03cd 9C030000 		.4byte	.LASF32
 1329 03d1 05       		.byte	0x5
 1330 03d2 E4       		.byte	0xe4
 1331 03d3 2E       		.byte	0x2e
 1332 03d4 39000000 		.4byte	0x39
 1333 03d8 02       		.uleb128 0x2
 1334 03d9 91       		.byte	0x91
 1335 03da 6C       		.sleb128 -20
 1336 03db 00       		.byte	0
 1337 03dc 0E       		.uleb128 0xe
 1338 03dd C4010000 		.4byte	.LASF47
 1339 03e1 CF       		.byte	0xcf
 1340 03e2 00000000 		.4byte	.LFB351
 1341 03e6 22000000 		.4byte	.LFE351-.LFB351
 1342 03ea 01       		.uleb128 0x1
 1343 03eb 9C       		.byte	0x9c
 1344 03ec 0E040000 		.4byte	0x40e
 1345 03f0 02       		.uleb128 0x2
 1346 03f1 6D7000   		.ascii	"mp\000"
 1347 03f4 05       		.byte	0x5
 1348 03f5 CF       		.byte	0xcf
 1349 03f6 20       		.byte	0x20
 1350 03f7 0E040000 		.4byte	0x40e
 1351 03fb 02       		.uleb128 0x2
 1352 03fc 91       		.byte	0x91
 1353 03fd 74       		.sleb128 -12
 1354 03fe 05       		.uleb128 0x5
 1355 03ff A2030000 		.4byte	.LASF39
 1356 0403 05       		.byte	0x5
 1357 0404 CF       		.byte	0xcf
 1358 0405 2A       		.byte	0x2a
 1359 0406 30010000 		.4byte	0x130
 1360 040a 02       		.uleb128 0x2
 1361 040b 91       		.byte	0x91
 1362 040c 70       		.sleb128 -16
 1363 040d 00       		.byte	0
 1364 040e 08       		.uleb128 0x8
 1365 040f ED010000 		.4byte	0x1ed
 1366 0413 16       		.uleb128 0x16
 1367 0414 2F020000 		.4byte	.LASF48
 1368 0418 B7       		.byte	0xb7
ARM GAS  C:\Users\DEVELO~1\AppData\Local\Temp\ccmqFCH5.s 			page 25


 1369 0419 00000000 		.4byte	.LFB350
 1370 041d 26000000 		.4byte	.LFE350-.LFB350
 1371 0421 01       		.uleb128 0x1
 1372 0422 9C       		.byte	0x9c
 1373 0423 5D040000 		.4byte	0x45d
 1374 0427 02       		.uleb128 0x2
 1375 0428 6D7000   		.ascii	"mp\000"
 1376 042b 05       		.byte	0x5
 1377 042c B7       		.byte	0xb7
 1378 042d 21       		.byte	0x21
 1379 042e 0E040000 		.4byte	0x40e
 1380 0432 02       		.uleb128 0x2
 1381 0433 91       		.byte	0x91
 1382 0434 6C       		.sleb128 -20
 1383 0435 05       		.uleb128 0x5
 1384 0436 A2030000 		.4byte	.LASF39
 1385 043a 05       		.byte	0x5
 1386 043b B7       		.byte	0xb7
 1387 043c 2B       		.byte	0x2b
 1388 043d 30010000 		.4byte	0x130
 1389 0441 02       		.uleb128 0x2
 1390 0442 91       		.byte	0x91
 1391 0443 68       		.sleb128 -24
 1392 0444 24       		.uleb128 0x24
 1393 0445 70687000 		.ascii	"php\000"
 1394 0449 05       		.byte	0x5
 1395 044a B8       		.byte	0xb8
 1396 044b 17       		.byte	0x17
 1397 044c AC010000 		.4byte	0x1ac
 1398 0450 02       		.uleb128 0x2
 1399 0451 91       		.byte	0x91
 1400 0452 74       		.sleb128 -12
 1401 0453 09       		.uleb128 0x9
 1402 0454 00020000 		.4byte	.LASF49
 1403 0458 6D040000 		.4byte	0x46d
 1404 045c 00       		.byte	0
 1405 045d 0C       		.uleb128 0xc
 1406 045e E6000000 		.4byte	0xe6
 1407 0462 6D040000 		.4byte	0x46d
 1408 0466 0D       		.uleb128 0xd
 1409 0467 39000000 		.4byte	0x39
 1410 046b 0B       		.byte	0xb
 1411 046c 00       		.byte	0
 1412 046d 07       		.uleb128 0x7
 1413 046e 5D040000 		.4byte	0x45d
 1414 0472 17       		.uleb128 0x17
 1415 0473 2C010000 		.4byte	.LASF50
 1416 0477 A1       		.byte	0xa1
 1417 0478 30010000 		.4byte	0x130
 1418 047c 00000000 		.4byte	.LFB349
 1419 0480 22000000 		.4byte	.LFE349-.LFB349
 1420 0484 01       		.uleb128 0x1
 1421 0485 9C       		.byte	0x9c
 1422 0486 A6040000 		.4byte	0x4a6
 1423 048a 02       		.uleb128 0x2
 1424 048b 6D7000   		.ascii	"mp\000"
 1425 048e 05       		.byte	0x5
ARM GAS  C:\Users\DEVELO~1\AppData\Local\Temp\ccmqFCH5.s 			page 26


 1426 048f A1       		.byte	0xa1
 1427 0490 22       		.byte	0x22
 1428 0491 0E040000 		.4byte	0x40e
 1429 0495 02       		.uleb128 0x2
 1430 0496 91       		.byte	0x91
 1431 0497 6C       		.sleb128 -20
 1432 0498 18       		.uleb128 0x18
 1433 0499 A2030000 		.4byte	.LASF39
 1434 049d A2       		.byte	0xa2
 1435 049e 30010000 		.4byte	0x130
 1436 04a2 02       		.uleb128 0x2
 1437 04a3 91       		.byte	0x91
 1438 04a4 74       		.sleb128 -12
 1439 04a5 00       		.byte	0
 1440 04a6 17       		.uleb128 0x17
 1441 04a7 45030000 		.4byte	.LASF51
 1442 04ab 81       		.byte	0x81
 1443 04ac 30010000 		.4byte	0x130
 1444 04b0 00000000 		.4byte	.LFB348
 1445 04b4 44000000 		.4byte	.LFE348-.LFB348
 1446 04b8 01       		.uleb128 0x1
 1447 04b9 9C       		.byte	0x9c
 1448 04ba E3040000 		.4byte	0x4e3
 1449 04be 02       		.uleb128 0x2
 1450 04bf 6D7000   		.ascii	"mp\000"
 1451 04c2 05       		.byte	0x5
 1452 04c3 81       		.byte	0x81
 1453 04c4 23       		.byte	0x23
 1454 04c5 0E040000 		.4byte	0x40e
 1455 04c9 02       		.uleb128 0x2
 1456 04ca 91       		.byte	0x91
 1457 04cb 6C       		.sleb128 -20
 1458 04cc 18       		.uleb128 0x18
 1459 04cd A2030000 		.4byte	.LASF39
 1460 04d1 82       		.byte	0x82
 1461 04d2 30010000 		.4byte	0x130
 1462 04d6 02       		.uleb128 0x2
 1463 04d7 91       		.byte	0x91
 1464 04d8 74       		.sleb128 -12
 1465 04d9 09       		.uleb128 0x9
 1466 04da 00020000 		.4byte	.LASF49
 1467 04de F3040000 		.4byte	0x4f3
 1468 04e2 00       		.byte	0
 1469 04e3 0C       		.uleb128 0xc
 1470 04e4 E6000000 		.4byte	0xe6
 1471 04e8 F3040000 		.4byte	0x4f3
 1472 04ec 0D       		.uleb128 0xd
 1473 04ed 39000000 		.4byte	0x39
 1474 04f1 0C       		.byte	0xc
 1475 04f2 00       		.byte	0
 1476 04f3 07       		.uleb128 0x7
 1477 04f4 E3040000 		.4byte	0x4e3
 1478 04f8 0E       		.uleb128 0xe
 1479 04f9 47020000 		.4byte	.LASF52
 1480 04fd 6A       		.byte	0x6a
 1481 04fe 00000000 		.4byte	.LFB347
 1482 0502 36000000 		.4byte	.LFE347-.LFB347
ARM GAS  C:\Users\DEVELO~1\AppData\Local\Temp\ccmqFCH5.s 			page 27


 1483 0506 01       		.uleb128 0x1
 1484 0507 9C       		.byte	0x9c
 1485 0508 3E050000 		.4byte	0x53e
 1486 050c 02       		.uleb128 0x2
 1487 050d 6D7000   		.ascii	"mp\000"
 1488 0510 05       		.byte	0x5
 1489 0511 6A       		.byte	0x6a
 1490 0512 25       		.byte	0x25
 1491 0513 0E040000 		.4byte	0x40e
 1492 0517 02       		.uleb128 0x2
 1493 0518 91       		.byte	0x91
 1494 0519 74       		.sleb128 -12
 1495 051a 02       		.uleb128 0x2
 1496 051b 7000     		.ascii	"p\000"
 1497 051d 05       		.byte	0x5
 1498 051e 6A       		.byte	0x6a
 1499 051f 2F       		.byte	0x2f
 1500 0520 30010000 		.4byte	0x130
 1501 0524 02       		.uleb128 0x2
 1502 0525 91       		.byte	0x91
 1503 0526 70       		.sleb128 -16
 1504 0527 02       		.uleb128 0x2
 1505 0528 6E00     		.ascii	"n\000"
 1506 052a 05       		.byte	0x5
 1507 052b 6A       		.byte	0x6a
 1508 052c 39       		.byte	0x39
 1509 052d 2D000000 		.4byte	0x2d
 1510 0531 02       		.uleb128 0x2
 1511 0532 91       		.byte	0x91
 1512 0533 6C       		.sleb128 -20
 1513 0534 09       		.uleb128 0x9
 1514 0535 00020000 		.4byte	.LASF49
 1515 0539 4E050000 		.4byte	0x54e
 1516 053d 00       		.byte	0
 1517 053e 0C       		.uleb128 0xc
 1518 053f E6000000 		.4byte	0xe6
 1519 0543 4E050000 		.4byte	0x54e
 1520 0547 0D       		.uleb128 0xd
 1521 0548 39000000 		.4byte	0x39
 1522 054c 0F       		.byte	0xf
 1523 054d 00       		.byte	0
 1524 054e 07       		.uleb128 0x7
 1525 054f 3E050000 		.4byte	0x53e
 1526 0553 16       		.uleb128 0x16
 1527 0554 0F030000 		.4byte	.LASF53
 1528 0558 4D       		.byte	0x4d
 1529 0559 00000000 		.4byte	.LFB346
 1530 055d 30000000 		.4byte	.LFE346-.LFB346
 1531 0561 01       		.uleb128 0x1
 1532 0562 9C       		.byte	0x9c
 1533 0563 AC050000 		.4byte	0x5ac
 1534 0567 02       		.uleb128 0x2
 1535 0568 6D7000   		.ascii	"mp\000"
 1536 056b 05       		.byte	0x5
 1537 056c 4D       		.byte	0x4d
 1538 056d 2D       		.byte	0x2d
 1539 056e 0E040000 		.4byte	0x40e
ARM GAS  C:\Users\DEVELO~1\AppData\Local\Temp\ccmqFCH5.s 			page 28


 1540 0572 02       		.uleb128 0x2
 1541 0573 91       		.byte	0x91
 1542 0574 74       		.sleb128 -12
 1543 0575 05       		.uleb128 0x5
 1544 0576 5D030000 		.4byte	.LASF46
 1545 057a 05       		.byte	0x5
 1546 057b 4D       		.byte	0x4d
 1547 057c 38       		.byte	0x38
 1548 057d 2D000000 		.4byte	0x2d
 1549 0581 02       		.uleb128 0x2
 1550 0582 91       		.byte	0x91
 1551 0583 70       		.sleb128 -16
 1552 0584 05       		.uleb128 0x5
 1553 0585 9C030000 		.4byte	.LASF32
 1554 0589 05       		.byte	0x5
 1555 058a 4E       		.byte	0x4e
 1556 058b 27       		.byte	0x27
 1557 058c 39000000 		.4byte	0x39
 1558 0590 02       		.uleb128 0x2
 1559 0591 91       		.byte	0x91
 1560 0592 6C       		.sleb128 -20
 1561 0593 05       		.uleb128 0x5
 1562 0594 EE020000 		.4byte	.LASF33
 1563 0598 05       		.byte	0x5
 1564 0599 4E       		.byte	0x4e
 1565 059a 3B       		.byte	0x3b
 1566 059b 6C010000 		.4byte	0x16c
 1567 059f 02       		.uleb128 0x2
 1568 05a0 91       		.byte	0x91
 1569 05a1 68       		.sleb128 -24
 1570 05a2 09       		.uleb128 0x9
 1571 05a3 00020000 		.4byte	.LASF49
 1572 05a7 BC050000 		.4byte	0x5bc
 1573 05ab 00       		.byte	0
 1574 05ac 0C       		.uleb128 0xc
 1575 05ad E6000000 		.4byte	0xe6
 1576 05b1 BC050000 		.4byte	0x5bc
 1577 05b5 0D       		.uleb128 0xd
 1578 05b6 39000000 		.4byte	0x39
 1579 05ba 17       		.byte	0x17
 1580 05bb 00       		.byte	0
 1581 05bc 07       		.uleb128 0x7
 1582 05bd AC050000 		.4byte	0x5ac
 1583 05c1 19       		.uleb128 0x19
 1584 05c2 2A040000 		.4byte	.LASF54
 1585 05c6 5401     		.2byte	0x154
 1586 05c8 00000000 		.4byte	.LFB294
 1587 05cc 1A000000 		.4byte	.LFE294-.LFB294
 1588 05d0 01       		.uleb128 0x1
 1589 05d1 9C       		.byte	0x9c
 1590 05d2 F7050000 		.4byte	0x5f7
 1591 05d6 0A       		.uleb128 0xa
 1592 05d7 676D7000 		.ascii	"gmp\000"
 1593 05db 04       		.byte	0x4
 1594 05dc 5401     		.2byte	0x154
 1595 05de 3C       		.byte	0x3c
 1596 05df AB020000 		.4byte	0x2ab
ARM GAS  C:\Users\DEVELO~1\AppData\Local\Temp\ccmqFCH5.s 			page 29


 1597 05e3 02       		.uleb128 0x2
 1598 05e4 91       		.byte	0x91
 1599 05e5 74       		.sleb128 -12
 1600 05e6 0B       		.uleb128 0xb
 1601 05e7 A2030000 		.4byte	.LASF39
 1602 05eb 04       		.byte	0x4
 1603 05ec 5401     		.2byte	0x154
 1604 05ee 47       		.byte	0x47
 1605 05ef 30010000 		.4byte	0x130
 1606 05f3 02       		.uleb128 0x2
 1607 05f4 91       		.byte	0x91
 1608 05f5 70       		.sleb128 -16
 1609 05f6 00       		.byte	0
 1610 05f7 19       		.uleb128 0x19
 1611 05f8 D9010000 		.4byte	.LASF55
 1612 05fc 2E01     		.2byte	0x12e
 1613 05fe 00000000 		.4byte	.LFB292
 1614 0602 26000000 		.4byte	.LFE292-.LFB292
 1615 0606 01       		.uleb128 0x1
 1616 0607 9C       		.byte	0x9c
 1617 0608 2D060000 		.4byte	0x62d
 1618 060c 0A       		.uleb128 0xa
 1619 060d 676D7000 		.ascii	"gmp\000"
 1620 0611 04       		.byte	0x4
 1621 0612 2E01     		.2byte	0x12e
 1622 0614 3E       		.byte	0x3e
 1623 0615 AB020000 		.4byte	0x2ab
 1624 0619 02       		.uleb128 0x2
 1625 061a 91       		.byte	0x91
 1626 061b 74       		.sleb128 -12
 1627 061c 0B       		.uleb128 0xb
 1628 061d A2030000 		.4byte	.LASF39
 1629 0621 04       		.byte	0x4
 1630 0622 2E01     		.2byte	0x12e
 1631 0624 49       		.byte	0x49
 1632 0625 30010000 		.4byte	0x130
 1633 0629 02       		.uleb128 0x2
 1634 062a 91       		.byte	0x91
 1635 062b 70       		.sleb128 -16
 1636 062c 00       		.byte	0
 1637 062d 25       		.uleb128 0x25
 1638 062e 60020000 		.4byte	.LASF56
 1639 0632 04       		.byte	0x4
 1640 0633 D2       		.byte	0xd2
 1641 0634 14       		.byte	0x14
 1642 0635 00000000 		.4byte	.LFB287
 1643 0639 1A000000 		.4byte	.LFE287-.LFB287
 1644 063d 01       		.uleb128 0x1
 1645 063e 9C       		.byte	0x9c
 1646 063f 61060000 		.4byte	0x661
 1647 0643 02       		.uleb128 0x2
 1648 0644 6D7000   		.ascii	"mp\000"
 1649 0647 04       		.byte	0x4
 1650 0648 D2       		.byte	0xd2
 1651 0649 2D       		.byte	0x2d
 1652 064a 0E040000 		.4byte	0x40e
 1653 064e 02       		.uleb128 0x2
ARM GAS  C:\Users\DEVELO~1\AppData\Local\Temp\ccmqFCH5.s 			page 30


 1654 064f 91       		.byte	0x91
 1655 0650 74       		.sleb128 -12
 1656 0651 05       		.uleb128 0x5
 1657 0652 A2030000 		.4byte	.LASF39
 1658 0656 04       		.byte	0x4
 1659 0657 D2       		.byte	0xd2
 1660 0658 37       		.byte	0x37
 1661 0659 30010000 		.4byte	0x130
 1662 065d 02       		.uleb128 0x2
 1663 065e 91       		.byte	0x91
 1664 065f 70       		.sleb128 -16
 1665 0660 00       		.byte	0
 1666 0661 1A       		.uleb128 0x1a
 1667 0662 62030000 		.4byte	.LASF57
 1668 0666 A501     		.2byte	0x1a5
 1669 0668 00000000 		.4byte	.LFB203
 1670 066c 1E000000 		.4byte	.LFE203-.LFB203
 1671 0670 01       		.uleb128 0x1
 1672 0671 9C       		.byte	0x9c
 1673 0672 AA060000 		.4byte	0x6aa
 1674 0676 09       		.uleb128 0x9
 1675 0677 00020000 		.4byte	.LASF49
 1676 067b 6D040000 		.4byte	0x46d
 1677 067f 0F       		.uleb128 0xf
 1678 0680 EA060000 		.4byte	0x6ea
 1679 0684 0A000000 		.4byte	.LBB18
 1680 0688 0A000000 		.4byte	.LBE18-.LBB18
 1681 068c 01       		.byte	0x1
 1682 068d B201     		.2byte	0x1b2
 1683 068f 0F       		.uleb128 0xf
 1684 0690 F8060000 		.4byte	0x6f8
 1685 0694 0A000000 		.4byte	.LBB20
 1686 0698 08000000 		.4byte	.LBE20-.LBB20
 1687 069c 03       		.byte	0x3
 1688 069d 5203     		.2byte	0x352
 1689 069f 1B       		.uleb128 0x1b
 1690 06a0 02070000 		.4byte	0x702
 1691 06a4 02       		.uleb128 0x2
 1692 06a5 91       		.byte	0x91
 1693 06a6 74       		.sleb128 -12
 1694 06a7 00       		.byte	0
 1695 06a8 00       		.byte	0
 1696 06a9 00       		.byte	0
 1697 06aa 1A       		.uleb128 0x1a
 1698 06ab 22010000 		.4byte	.LASF58
 1699 06af 9701     		.2byte	0x197
 1700 06b1 00000000 		.4byte	.LFB202
 1701 06b5 1E000000 		.4byte	.LFE202-.LFB202
 1702 06b9 01       		.uleb128 0x1
 1703 06ba 9C       		.byte	0x9c
 1704 06bb EA060000 		.4byte	0x6ea
 1705 06bf 0F       		.uleb128 0xf
 1706 06c0 F1060000 		.4byte	0x6f1
 1707 06c4 0A000000 		.4byte	.LBB14
 1708 06c8 0A000000 		.4byte	.LBE14-.LBB14
 1709 06cc 01       		.byte	0x1
 1710 06cd 9901     		.2byte	0x199
ARM GAS  C:\Users\DEVELO~1\AppData\Local\Temp\ccmqFCH5.s 			page 31


 1711 06cf 0F       		.uleb128 0xf
 1712 06d0 F8060000 		.4byte	0x6f8
 1713 06d4 0A000000 		.4byte	.LBB16
 1714 06d8 08000000 		.4byte	.LBE16-.LBB16
 1715 06dc 03       		.byte	0x3
 1716 06dd 3F03     		.2byte	0x33f
 1717 06df 1B       		.uleb128 0x1b
 1718 06e0 02070000 		.4byte	0x702
 1719 06e4 02       		.uleb128 0x2
 1720 06e5 91       		.byte	0x91
 1721 06e6 74       		.sleb128 -12
 1722 06e7 00       		.byte	0
 1723 06e8 00       		.byte	0
 1724 06e9 00       		.byte	0
 1725 06ea 1C       		.uleb128 0x1c
 1726 06eb E2020000 		.4byte	.LASF59
 1727 06ef 4F03     		.2byte	0x34f
 1728 06f1 1C       		.uleb128 0x1c
 1729 06f2 F7020000 		.4byte	.LASF60
 1730 06f6 3703     		.2byte	0x337
 1731 06f8 26       		.uleb128 0x26
 1732 06f9 DC030000 		.4byte	.LASF66
 1733 06fd 02       		.byte	0x2
 1734 06fe EB01     		.2byte	0x1eb
 1735 0700 1B       		.byte	0x1b
 1736 0701 03       		.byte	0x3
 1737 0702 27       		.uleb128 0x27
 1738 0703 A5020000 		.4byte	.LASF67
 1739 0707 02       		.byte	0x2
 1740 0708 EB01     		.2byte	0x1eb
 1741 070a 32       		.byte	0x32
 1742 070b BB000000 		.4byte	0xbb
 1743 070f 00       		.byte	0
 1744 0710 00       		.byte	0
 1745              		.section	.debug_abbrev,"",%progbits
 1746              	.Ldebug_abbrev0:
 1747 0000 01       		.uleb128 0x1
 1748 0001 16       		.uleb128 0x16
 1749 0002 00       		.byte	0
 1750 0003 03       		.uleb128 0x3
 1751 0004 0E       		.uleb128 0xe
 1752 0005 3A       		.uleb128 0x3a
 1753 0006 0B       		.uleb128 0xb
 1754 0007 3B       		.uleb128 0x3b
 1755 0008 0B       		.uleb128 0xb
 1756 0009 39       		.uleb128 0x39
 1757 000a 0B       		.uleb128 0xb
 1758 000b 49       		.uleb128 0x49
 1759 000c 13       		.uleb128 0x13
 1760 000d 00       		.byte	0
 1761 000e 00       		.byte	0
 1762 000f 02       		.uleb128 0x2
 1763 0010 05       		.uleb128 0x5
 1764 0011 00       		.byte	0
 1765 0012 03       		.uleb128 0x3
 1766 0013 08       		.uleb128 0x8
 1767 0014 3A       		.uleb128 0x3a
ARM GAS  C:\Users\DEVELO~1\AppData\Local\Temp\ccmqFCH5.s 			page 32


 1768 0015 0B       		.uleb128 0xb
 1769 0016 3B       		.uleb128 0x3b
 1770 0017 0B       		.uleb128 0xb
 1771 0018 39       		.uleb128 0x39
 1772 0019 0B       		.uleb128 0xb
 1773 001a 49       		.uleb128 0x49
 1774 001b 13       		.uleb128 0x13
 1775 001c 02       		.uleb128 0x2
 1776 001d 18       		.uleb128 0x18
 1777 001e 00       		.byte	0
 1778 001f 00       		.byte	0
 1779 0020 03       		.uleb128 0x3
 1780 0021 24       		.uleb128 0x24
 1781 0022 00       		.byte	0
 1782 0023 0B       		.uleb128 0xb
 1783 0024 0B       		.uleb128 0xb
 1784 0025 3E       		.uleb128 0x3e
 1785 0026 0B       		.uleb128 0xb
 1786 0027 03       		.uleb128 0x3
 1787 0028 0E       		.uleb128 0xe
 1788 0029 00       		.byte	0
 1789 002a 00       		.byte	0
 1790 002b 04       		.uleb128 0x4
 1791 002c 0D       		.uleb128 0xd
 1792 002d 00       		.byte	0
 1793 002e 03       		.uleb128 0x3
 1794 002f 0E       		.uleb128 0xe
 1795 0030 3A       		.uleb128 0x3a
 1796 0031 0B       		.uleb128 0xb
 1797 0032 3B       		.uleb128 0x3b
 1798 0033 0B       		.uleb128 0xb
 1799 0034 39       		.uleb128 0x39
 1800 0035 0B       		.uleb128 0xb
 1801 0036 49       		.uleb128 0x49
 1802 0037 13       		.uleb128 0x13
 1803 0038 38       		.uleb128 0x38
 1804 0039 0B       		.uleb128 0xb
 1805 003a 00       		.byte	0
 1806 003b 00       		.byte	0
 1807 003c 05       		.uleb128 0x5
 1808 003d 05       		.uleb128 0x5
 1809 003e 00       		.byte	0
 1810 003f 03       		.uleb128 0x3
 1811 0040 0E       		.uleb128 0xe
 1812 0041 3A       		.uleb128 0x3a
 1813 0042 0B       		.uleb128 0xb
 1814 0043 3B       		.uleb128 0x3b
 1815 0044 0B       		.uleb128 0xb
 1816 0045 39       		.uleb128 0x39
 1817 0046 0B       		.uleb128 0xb
 1818 0047 49       		.uleb128 0x49
 1819 0048 13       		.uleb128 0x13
 1820 0049 02       		.uleb128 0x2
 1821 004a 18       		.uleb128 0x18
 1822 004b 00       		.byte	0
 1823 004c 00       		.byte	0
 1824 004d 06       		.uleb128 0x6
ARM GAS  C:\Users\DEVELO~1\AppData\Local\Temp\ccmqFCH5.s 			page 33


 1825 004e 05       		.uleb128 0x5
 1826 004f 00       		.byte	0
 1827 0050 49       		.uleb128 0x49
 1828 0051 13       		.uleb128 0x13
 1829 0052 00       		.byte	0
 1830 0053 00       		.byte	0
 1831 0054 07       		.uleb128 0x7
 1832 0055 26       		.uleb128 0x26
 1833 0056 00       		.byte	0
 1834 0057 49       		.uleb128 0x49
 1835 0058 13       		.uleb128 0x13
 1836 0059 00       		.byte	0
 1837 005a 00       		.byte	0
 1838 005b 08       		.uleb128 0x8
 1839 005c 0F       		.uleb128 0xf
 1840 005d 00       		.byte	0
 1841 005e 0B       		.uleb128 0xb
 1842 005f 21       		.uleb128 0x21
 1843 0060 04       		.sleb128 4
 1844 0061 49       		.uleb128 0x49
 1845 0062 13       		.uleb128 0x13
 1846 0063 00       		.byte	0
 1847 0064 00       		.byte	0
 1848 0065 09       		.uleb128 0x9
 1849 0066 34       		.uleb128 0x34
 1850 0067 00       		.byte	0
 1851 0068 03       		.uleb128 0x3
 1852 0069 0E       		.uleb128 0xe
 1853 006a 49       		.uleb128 0x49
 1854 006b 13       		.uleb128 0x13
 1855 006c 34       		.uleb128 0x34
 1856 006d 19       		.uleb128 0x19
 1857 006e 00       		.byte	0
 1858 006f 00       		.byte	0
 1859 0070 0A       		.uleb128 0xa
 1860 0071 05       		.uleb128 0x5
 1861 0072 00       		.byte	0
 1862 0073 03       		.uleb128 0x3
 1863 0074 08       		.uleb128 0x8
 1864 0075 3A       		.uleb128 0x3a
 1865 0076 0B       		.uleb128 0xb
 1866 0077 3B       		.uleb128 0x3b
 1867 0078 05       		.uleb128 0x5
 1868 0079 39       		.uleb128 0x39
 1869 007a 0B       		.uleb128 0xb
 1870 007b 49       		.uleb128 0x49
 1871 007c 13       		.uleb128 0x13
 1872 007d 02       		.uleb128 0x2
 1873 007e 18       		.uleb128 0x18
 1874 007f 00       		.byte	0
 1875 0080 00       		.byte	0
 1876 0081 0B       		.uleb128 0xb
 1877 0082 05       		.uleb128 0x5
 1878 0083 00       		.byte	0
 1879 0084 03       		.uleb128 0x3
 1880 0085 0E       		.uleb128 0xe
 1881 0086 3A       		.uleb128 0x3a
ARM GAS  C:\Users\DEVELO~1\AppData\Local\Temp\ccmqFCH5.s 			page 34


 1882 0087 0B       		.uleb128 0xb
 1883 0088 3B       		.uleb128 0x3b
 1884 0089 05       		.uleb128 0x5
 1885 008a 39       		.uleb128 0x39
 1886 008b 0B       		.uleb128 0xb
 1887 008c 49       		.uleb128 0x49
 1888 008d 13       		.uleb128 0x13
 1889 008e 02       		.uleb128 0x2
 1890 008f 18       		.uleb128 0x18
 1891 0090 00       		.byte	0
 1892 0091 00       		.byte	0
 1893 0092 0C       		.uleb128 0xc
 1894 0093 01       		.uleb128 0x1
 1895 0094 01       		.byte	0x1
 1896 0095 49       		.uleb128 0x49
 1897 0096 13       		.uleb128 0x13
 1898 0097 01       		.uleb128 0x1
 1899 0098 13       		.uleb128 0x13
 1900 0099 00       		.byte	0
 1901 009a 00       		.byte	0
 1902 009b 0D       		.uleb128 0xd
 1903 009c 21       		.uleb128 0x21
 1904 009d 00       		.byte	0
 1905 009e 49       		.uleb128 0x49
 1906 009f 13       		.uleb128 0x13
 1907 00a0 2F       		.uleb128 0x2f
 1908 00a1 0B       		.uleb128 0xb
 1909 00a2 00       		.byte	0
 1910 00a3 00       		.byte	0
 1911 00a4 0E       		.uleb128 0xe
 1912 00a5 2E       		.uleb128 0x2e
 1913 00a6 01       		.byte	0x1
 1914 00a7 3F       		.uleb128 0x3f
 1915 00a8 19       		.uleb128 0x19
 1916 00a9 03       		.uleb128 0x3
 1917 00aa 0E       		.uleb128 0xe
 1918 00ab 3A       		.uleb128 0x3a
 1919 00ac 21       		.uleb128 0x21
 1920 00ad 05       		.sleb128 5
 1921 00ae 3B       		.uleb128 0x3b
 1922 00af 0B       		.uleb128 0xb
 1923 00b0 39       		.uleb128 0x39
 1924 00b1 21       		.uleb128 0x21
 1925 00b2 06       		.sleb128 6
 1926 00b3 27       		.uleb128 0x27
 1927 00b4 19       		.uleb128 0x19
 1928 00b5 11       		.uleb128 0x11
 1929 00b6 01       		.uleb128 0x1
 1930 00b7 12       		.uleb128 0x12
 1931 00b8 06       		.uleb128 0x6
 1932 00b9 40       		.uleb128 0x40
 1933 00ba 18       		.uleb128 0x18
 1934 00bb 7C       		.uleb128 0x7c
 1935 00bc 19       		.uleb128 0x19
 1936 00bd 01       		.uleb128 0x1
 1937 00be 13       		.uleb128 0x13
 1938 00bf 00       		.byte	0
ARM GAS  C:\Users\DEVELO~1\AppData\Local\Temp\ccmqFCH5.s 			page 35


 1939 00c0 00       		.byte	0
 1940 00c1 0F       		.uleb128 0xf
 1941 00c2 1D       		.uleb128 0x1d
 1942 00c3 01       		.byte	0x1
 1943 00c4 31       		.uleb128 0x31
 1944 00c5 13       		.uleb128 0x13
 1945 00c6 11       		.uleb128 0x11
 1946 00c7 01       		.uleb128 0x1
 1947 00c8 12       		.uleb128 0x12
 1948 00c9 06       		.uleb128 0x6
 1949 00ca 58       		.uleb128 0x58
 1950 00cb 0B       		.uleb128 0xb
 1951 00cc 59       		.uleb128 0x59
 1952 00cd 05       		.uleb128 0x5
 1953 00ce 57       		.uleb128 0x57
 1954 00cf 21       		.uleb128 0x21
 1955 00d0 03       		.sleb128 3
 1956 00d1 00       		.byte	0
 1957 00d2 00       		.byte	0
 1958 00d3 10       		.uleb128 0x10
 1959 00d4 13       		.uleb128 0x13
 1960 00d5 01       		.byte	0x1
 1961 00d6 03       		.uleb128 0x3
 1962 00d7 0E       		.uleb128 0xe
 1963 00d8 0B       		.uleb128 0xb
 1964 00d9 0B       		.uleb128 0xb
 1965 00da 3A       		.uleb128 0x3a
 1966 00db 0B       		.uleb128 0xb
 1967 00dc 3B       		.uleb128 0x3b
 1968 00dd 0B       		.uleb128 0xb
 1969 00de 39       		.uleb128 0x39
 1970 00df 0B       		.uleb128 0xb
 1971 00e0 01       		.uleb128 0x1
 1972 00e1 13       		.uleb128 0x13
 1973 00e2 00       		.byte	0
 1974 00e3 00       		.byte	0
 1975 00e4 11       		.uleb128 0x11
 1976 00e5 0D       		.uleb128 0xd
 1977 00e6 00       		.byte	0
 1978 00e7 03       		.uleb128 0x3
 1979 00e8 08       		.uleb128 0x8
 1980 00e9 3A       		.uleb128 0x3a
 1981 00ea 0B       		.uleb128 0xb
 1982 00eb 3B       		.uleb128 0x3b
 1983 00ec 0B       		.uleb128 0xb
 1984 00ed 39       		.uleb128 0x39
 1985 00ee 21       		.uleb128 0x21
 1986 00ef 19       		.sleb128 25
 1987 00f0 49       		.uleb128 0x49
 1988 00f1 13       		.uleb128 0x13
 1989 00f2 38       		.uleb128 0x38
 1990 00f3 0B       		.uleb128 0xb
 1991 00f4 00       		.byte	0
 1992 00f5 00       		.byte	0
 1993 00f6 12       		.uleb128 0x12
 1994 00f7 13       		.uleb128 0x13
 1995 00f8 01       		.byte	0x1
ARM GAS  C:\Users\DEVELO~1\AppData\Local\Temp\ccmqFCH5.s 			page 36


 1996 00f9 0B       		.uleb128 0xb
 1997 00fa 0B       		.uleb128 0xb
 1998 00fb 3A       		.uleb128 0x3a
 1999 00fc 21       		.uleb128 0x21
 2000 00fd 04       		.sleb128 4
 2001 00fe 3B       		.uleb128 0x3b
 2002 00ff 0B       		.uleb128 0xb
 2003 0100 39       		.uleb128 0x39
 2004 0101 21       		.uleb128 0x21
 2005 0102 09       		.sleb128 9
 2006 0103 01       		.uleb128 0x1
 2007 0104 13       		.uleb128 0x13
 2008 0105 00       		.byte	0
 2009 0106 00       		.byte	0
 2010 0107 13       		.uleb128 0x13
 2011 0108 2E       		.uleb128 0x2e
 2012 0109 01       		.byte	0x1
 2013 010a 3F       		.uleb128 0x3f
 2014 010b 19       		.uleb128 0x19
 2015 010c 03       		.uleb128 0x3
 2016 010d 0E       		.uleb128 0xe
 2017 010e 3A       		.uleb128 0x3a
 2018 010f 21       		.uleb128 0x21
 2019 0110 0C       		.sleb128 12
 2020 0111 3B       		.uleb128 0x3b
 2021 0112 0B       		.uleb128 0xb
 2022 0113 39       		.uleb128 0x39
 2023 0114 21       		.uleb128 0x21
 2024 0115 08       		.sleb128 8
 2025 0116 27       		.uleb128 0x27
 2026 0117 19       		.uleb128 0x19
 2027 0118 3C       		.uleb128 0x3c
 2028 0119 19       		.uleb128 0x19
 2029 011a 01       		.uleb128 0x1
 2030 011b 13       		.uleb128 0x13
 2031 011c 00       		.byte	0
 2032 011d 00       		.byte	0
 2033 011e 14       		.uleb128 0x14
 2034 011f 2E       		.uleb128 0x2e
 2035 0120 01       		.byte	0x1
 2036 0121 3F       		.uleb128 0x3f
 2037 0122 19       		.uleb128 0x19
 2038 0123 03       		.uleb128 0x3
 2039 0124 0E       		.uleb128 0xe
 2040 0125 3A       		.uleb128 0x3a
 2041 0126 21       		.uleb128 0x21
 2042 0127 05       		.sleb128 5
 2043 0128 3B       		.uleb128 0x3b
 2044 0129 05       		.uleb128 0x5
 2045 012a 39       		.uleb128 0x39
 2046 012b 21       		.uleb128 0x21
 2047 012c 07       		.sleb128 7
 2048 012d 27       		.uleb128 0x27
 2049 012e 19       		.uleb128 0x19
 2050 012f 49       		.uleb128 0x49
 2051 0130 13       		.uleb128 0x13
 2052 0131 11       		.uleb128 0x11
ARM GAS  C:\Users\DEVELO~1\AppData\Local\Temp\ccmqFCH5.s 			page 37


 2053 0132 01       		.uleb128 0x1
 2054 0133 12       		.uleb128 0x12
 2055 0134 06       		.uleb128 0x6
 2056 0135 40       		.uleb128 0x40
 2057 0136 18       		.uleb128 0x18
 2058 0137 7C       		.uleb128 0x7c
 2059 0138 19       		.uleb128 0x19
 2060 0139 01       		.uleb128 0x1
 2061 013a 13       		.uleb128 0x13
 2062 013b 00       		.byte	0
 2063 013c 00       		.byte	0
 2064 013d 15       		.uleb128 0x15
 2065 013e 34       		.uleb128 0x34
 2066 013f 00       		.byte	0
 2067 0140 03       		.uleb128 0x3
 2068 0141 08       		.uleb128 0x8
 2069 0142 3A       		.uleb128 0x3a
 2070 0143 21       		.uleb128 0x21
 2071 0144 05       		.sleb128 5
 2072 0145 3B       		.uleb128 0x3b
 2073 0146 05       		.uleb128 0x5
 2074 0147 39       		.uleb128 0x39
 2075 0148 21       		.uleb128 0x21
 2076 0149 09       		.sleb128 9
 2077 014a 49       		.uleb128 0x49
 2078 014b 13       		.uleb128 0x13
 2079 014c 02       		.uleb128 0x2
 2080 014d 18       		.uleb128 0x18
 2081 014e 00       		.byte	0
 2082 014f 00       		.byte	0
 2083 0150 16       		.uleb128 0x16
 2084 0151 2E       		.uleb128 0x2e
 2085 0152 01       		.byte	0x1
 2086 0153 3F       		.uleb128 0x3f
 2087 0154 19       		.uleb128 0x19
 2088 0155 03       		.uleb128 0x3
 2089 0156 0E       		.uleb128 0xe
 2090 0157 3A       		.uleb128 0x3a
 2091 0158 21       		.uleb128 0x21
 2092 0159 05       		.sleb128 5
 2093 015a 3B       		.uleb128 0x3b
 2094 015b 0B       		.uleb128 0xb
 2095 015c 39       		.uleb128 0x39
 2096 015d 21       		.uleb128 0x21
 2097 015e 06       		.sleb128 6
 2098 015f 27       		.uleb128 0x27
 2099 0160 19       		.uleb128 0x19
 2100 0161 11       		.uleb128 0x11
 2101 0162 01       		.uleb128 0x1
 2102 0163 12       		.uleb128 0x12
 2103 0164 06       		.uleb128 0x6
 2104 0165 40       		.uleb128 0x40
 2105 0166 18       		.uleb128 0x18
 2106 0167 7A       		.uleb128 0x7a
 2107 0168 19       		.uleb128 0x19
 2108 0169 01       		.uleb128 0x1
 2109 016a 13       		.uleb128 0x13
ARM GAS  C:\Users\DEVELO~1\AppData\Local\Temp\ccmqFCH5.s 			page 38


 2110 016b 00       		.byte	0
 2111 016c 00       		.byte	0
 2112 016d 17       		.uleb128 0x17
 2113 016e 2E       		.uleb128 0x2e
 2114 016f 01       		.byte	0x1
 2115 0170 3F       		.uleb128 0x3f
 2116 0171 19       		.uleb128 0x19
 2117 0172 03       		.uleb128 0x3
 2118 0173 0E       		.uleb128 0xe
 2119 0174 3A       		.uleb128 0x3a
 2120 0175 21       		.uleb128 0x21
 2121 0176 05       		.sleb128 5
 2122 0177 3B       		.uleb128 0x3b
 2123 0178 0B       		.uleb128 0xb
 2124 0179 39       		.uleb128 0x39
 2125 017a 21       		.uleb128 0x21
 2126 017b 07       		.sleb128 7
 2127 017c 27       		.uleb128 0x27
 2128 017d 19       		.uleb128 0x19
 2129 017e 49       		.uleb128 0x49
 2130 017f 13       		.uleb128 0x13
 2131 0180 11       		.uleb128 0x11
 2132 0181 01       		.uleb128 0x1
 2133 0182 12       		.uleb128 0x12
 2134 0183 06       		.uleb128 0x6
 2135 0184 40       		.uleb128 0x40
 2136 0185 18       		.uleb128 0x18
 2137 0186 7C       		.uleb128 0x7c
 2138 0187 19       		.uleb128 0x19
 2139 0188 01       		.uleb128 0x1
 2140 0189 13       		.uleb128 0x13
 2141 018a 00       		.byte	0
 2142 018b 00       		.byte	0
 2143 018c 18       		.uleb128 0x18
 2144 018d 34       		.uleb128 0x34
 2145 018e 00       		.byte	0
 2146 018f 03       		.uleb128 0x3
 2147 0190 0E       		.uleb128 0xe
 2148 0191 3A       		.uleb128 0x3a
 2149 0192 21       		.uleb128 0x21
 2150 0193 05       		.sleb128 5
 2151 0194 3B       		.uleb128 0x3b
 2152 0195 0B       		.uleb128 0xb
 2153 0196 39       		.uleb128 0x39
 2154 0197 21       		.uleb128 0x21
 2155 0198 09       		.sleb128 9
 2156 0199 49       		.uleb128 0x49
 2157 019a 13       		.uleb128 0x13
 2158 019b 02       		.uleb128 0x2
 2159 019c 18       		.uleb128 0x18
 2160 019d 00       		.byte	0
 2161 019e 00       		.byte	0
 2162 019f 19       		.uleb128 0x19
 2163 01a0 2E       		.uleb128 0x2e
 2164 01a1 01       		.byte	0x1
 2165 01a2 03       		.uleb128 0x3
 2166 01a3 0E       		.uleb128 0xe
ARM GAS  C:\Users\DEVELO~1\AppData\Local\Temp\ccmqFCH5.s 			page 39


 2167 01a4 3A       		.uleb128 0x3a
 2168 01a5 21       		.uleb128 0x21
 2169 01a6 04       		.sleb128 4
 2170 01a7 3B       		.uleb128 0x3b
 2171 01a8 05       		.uleb128 0x5
 2172 01a9 39       		.uleb128 0x39
 2173 01aa 21       		.uleb128 0x21
 2174 01ab 14       		.sleb128 20
 2175 01ac 27       		.uleb128 0x27
 2176 01ad 19       		.uleb128 0x19
 2177 01ae 11       		.uleb128 0x11
 2178 01af 01       		.uleb128 0x1
 2179 01b0 12       		.uleb128 0x12
 2180 01b1 06       		.uleb128 0x6
 2181 01b2 40       		.uleb128 0x40
 2182 01b3 18       		.uleb128 0x18
 2183 01b4 7C       		.uleb128 0x7c
 2184 01b5 19       		.uleb128 0x19
 2185 01b6 01       		.uleb128 0x1
 2186 01b7 13       		.uleb128 0x13
 2187 01b8 00       		.byte	0
 2188 01b9 00       		.byte	0
 2189 01ba 1A       		.uleb128 0x1a
 2190 01bb 2E       		.uleb128 0x2e
 2191 01bc 01       		.byte	0x1
 2192 01bd 03       		.uleb128 0x3
 2193 01be 0E       		.uleb128 0xe
 2194 01bf 3A       		.uleb128 0x3a
 2195 01c0 21       		.uleb128 0x21
 2196 01c1 01       		.sleb128 1
 2197 01c2 3B       		.uleb128 0x3b
 2198 01c3 05       		.uleb128 0x5
 2199 01c4 39       		.uleb128 0x39
 2200 01c5 21       		.uleb128 0x21
 2201 01c6 14       		.sleb128 20
 2202 01c7 27       		.uleb128 0x27
 2203 01c8 19       		.uleb128 0x19
 2204 01c9 11       		.uleb128 0x11
 2205 01ca 01       		.uleb128 0x1
 2206 01cb 12       		.uleb128 0x12
 2207 01cc 06       		.uleb128 0x6
 2208 01cd 40       		.uleb128 0x40
 2209 01ce 18       		.uleb128 0x18
 2210 01cf 7A       		.uleb128 0x7a
 2211 01d0 19       		.uleb128 0x19
 2212 01d1 01       		.uleb128 0x1
 2213 01d2 13       		.uleb128 0x13
 2214 01d3 00       		.byte	0
 2215 01d4 00       		.byte	0
 2216 01d5 1B       		.uleb128 0x1b
 2217 01d6 05       		.uleb128 0x5
 2218 01d7 00       		.byte	0
 2219 01d8 31       		.uleb128 0x31
 2220 01d9 13       		.uleb128 0x13
 2221 01da 02       		.uleb128 0x2
 2222 01db 18       		.uleb128 0x18
 2223 01dc 00       		.byte	0
ARM GAS  C:\Users\DEVELO~1\AppData\Local\Temp\ccmqFCH5.s 			page 40


 2224 01dd 00       		.byte	0
 2225 01de 1C       		.uleb128 0x1c
 2226 01df 2E       		.uleb128 0x2e
 2227 01e0 00       		.byte	0
 2228 01e1 03       		.uleb128 0x3
 2229 01e2 0E       		.uleb128 0xe
 2230 01e3 3A       		.uleb128 0x3a
 2231 01e4 21       		.uleb128 0x21
 2232 01e5 03       		.sleb128 3
 2233 01e6 3B       		.uleb128 0x3b
 2234 01e7 05       		.uleb128 0x5
 2235 01e8 39       		.uleb128 0x39
 2236 01e9 21       		.uleb128 0x21
 2237 01ea 1B       		.sleb128 27
 2238 01eb 27       		.uleb128 0x27
 2239 01ec 19       		.uleb128 0x19
 2240 01ed 20       		.uleb128 0x20
 2241 01ee 21       		.uleb128 0x21
 2242 01ef 03       		.sleb128 3
 2243 01f0 00       		.byte	0
 2244 01f1 00       		.byte	0
 2245 01f2 1D       		.uleb128 0x1d
 2246 01f3 11       		.uleb128 0x11
 2247 01f4 01       		.byte	0x1
 2248 01f5 25       		.uleb128 0x25
 2249 01f6 0E       		.uleb128 0xe
 2250 01f7 13       		.uleb128 0x13
 2251 01f8 0B       		.uleb128 0xb
 2252 01f9 03       		.uleb128 0x3
 2253 01fa 0E       		.uleb128 0xe
 2254 01fb 1B       		.uleb128 0x1b
 2255 01fc 0E       		.uleb128 0xe
 2256 01fd 55       		.uleb128 0x55
 2257 01fe 17       		.uleb128 0x17
 2258 01ff 11       		.uleb128 0x11
 2259 0200 01       		.uleb128 0x1
 2260 0201 10       		.uleb128 0x10
 2261 0202 17       		.uleb128 0x17
 2262 0203 00       		.byte	0
 2263 0204 00       		.byte	0
 2264 0205 1E       		.uleb128 0x1e
 2265 0206 24       		.uleb128 0x24
 2266 0207 00       		.byte	0
 2267 0208 0B       		.uleb128 0xb
 2268 0209 0B       		.uleb128 0xb
 2269 020a 3E       		.uleb128 0x3e
 2270 020b 0B       		.uleb128 0xb
 2271 020c 03       		.uleb128 0x3
 2272 020d 08       		.uleb128 0x8
 2273 020e 00       		.byte	0
 2274 020f 00       		.byte	0
 2275 0210 1F       		.uleb128 0x1f
 2276 0211 0F       		.uleb128 0xf
 2277 0212 00       		.byte	0
 2278 0213 0B       		.uleb128 0xb
 2279 0214 0B       		.uleb128 0xb
 2280 0215 00       		.byte	0
ARM GAS  C:\Users\DEVELO~1\AppData\Local\Temp\ccmqFCH5.s 			page 41


 2281 0216 00       		.byte	0
 2282 0217 20       		.uleb128 0x20
 2283 0218 15       		.uleb128 0x15
 2284 0219 01       		.byte	0x1
 2285 021a 27       		.uleb128 0x27
 2286 021b 19       		.uleb128 0x19
 2287 021c 49       		.uleb128 0x49
 2288 021d 13       		.uleb128 0x13
 2289 021e 01       		.uleb128 0x1
 2290 021f 13       		.uleb128 0x13
 2291 0220 00       		.byte	0
 2292 0221 00       		.byte	0
 2293 0222 21       		.uleb128 0x21
 2294 0223 2E       		.uleb128 0x2e
 2295 0224 00       		.byte	0
 2296 0225 3F       		.uleb128 0x3f
 2297 0226 19       		.uleb128 0x19
 2298 0227 03       		.uleb128 0x3
 2299 0228 0E       		.uleb128 0xe
 2300 0229 3A       		.uleb128 0x3a
 2301 022a 0B       		.uleb128 0xb
 2302 022b 3B       		.uleb128 0x3b
 2303 022c 0B       		.uleb128 0xb
 2304 022d 39       		.uleb128 0x39
 2305 022e 0B       		.uleb128 0xb
 2306 022f 27       		.uleb128 0x27
 2307 0230 19       		.uleb128 0x19
 2308 0231 3C       		.uleb128 0x3c
 2309 0232 19       		.uleb128 0x19
 2310 0233 00       		.byte	0
 2311 0234 00       		.byte	0
 2312 0235 22       		.uleb128 0x22
 2313 0236 2E       		.uleb128 0x2e
 2314 0237 01       		.byte	0x1
 2315 0238 3F       		.uleb128 0x3f
 2316 0239 19       		.uleb128 0x19
 2317 023a 03       		.uleb128 0x3
 2318 023b 0E       		.uleb128 0xe
 2319 023c 3A       		.uleb128 0x3a
 2320 023d 0B       		.uleb128 0xb
 2321 023e 3B       		.uleb128 0x3b
 2322 023f 0B       		.uleb128 0xb
 2323 0240 39       		.uleb128 0x39
 2324 0241 0B       		.uleb128 0xb
 2325 0242 27       		.uleb128 0x27
 2326 0243 19       		.uleb128 0x19
 2327 0244 49       		.uleb128 0x49
 2328 0245 13       		.uleb128 0x13
 2329 0246 3C       		.uleb128 0x3c
 2330 0247 19       		.uleb128 0x19
 2331 0248 01       		.uleb128 0x1
 2332 0249 13       		.uleb128 0x13
 2333 024a 00       		.byte	0
 2334 024b 00       		.byte	0
 2335 024c 23       		.uleb128 0x23
 2336 024d 2E       		.uleb128 0x2e
 2337 024e 01       		.byte	0x1
ARM GAS  C:\Users\DEVELO~1\AppData\Local\Temp\ccmqFCH5.s 			page 42


 2338 024f 3F       		.uleb128 0x3f
 2339 0250 19       		.uleb128 0x19
 2340 0251 03       		.uleb128 0x3
 2341 0252 0E       		.uleb128 0xe
 2342 0253 3A       		.uleb128 0x3a
 2343 0254 0B       		.uleb128 0xb
 2344 0255 3B       		.uleb128 0x3b
 2345 0256 05       		.uleb128 0x5
 2346 0257 39       		.uleb128 0x39
 2347 0258 0B       		.uleb128 0xb
 2348 0259 27       		.uleb128 0x27
 2349 025a 19       		.uleb128 0x19
 2350 025b 11       		.uleb128 0x11
 2351 025c 01       		.uleb128 0x1
 2352 025d 12       		.uleb128 0x12
 2353 025e 06       		.uleb128 0x6
 2354 025f 40       		.uleb128 0x40
 2355 0260 18       		.uleb128 0x18
 2356 0261 7C       		.uleb128 0x7c
 2357 0262 19       		.uleb128 0x19
 2358 0263 01       		.uleb128 0x1
 2359 0264 13       		.uleb128 0x13
 2360 0265 00       		.byte	0
 2361 0266 00       		.byte	0
 2362 0267 24       		.uleb128 0x24
 2363 0268 34       		.uleb128 0x34
 2364 0269 00       		.byte	0
 2365 026a 03       		.uleb128 0x3
 2366 026b 08       		.uleb128 0x8
 2367 026c 3A       		.uleb128 0x3a
 2368 026d 0B       		.uleb128 0xb
 2369 026e 3B       		.uleb128 0x3b
 2370 026f 0B       		.uleb128 0xb
 2371 0270 39       		.uleb128 0x39
 2372 0271 0B       		.uleb128 0xb
 2373 0272 49       		.uleb128 0x49
 2374 0273 13       		.uleb128 0x13
 2375 0274 02       		.uleb128 0x2
 2376 0275 18       		.uleb128 0x18
 2377 0276 00       		.byte	0
 2378 0277 00       		.byte	0
 2379 0278 25       		.uleb128 0x25
 2380 0279 2E       		.uleb128 0x2e
 2381 027a 01       		.byte	0x1
 2382 027b 03       		.uleb128 0x3
 2383 027c 0E       		.uleb128 0xe
 2384 027d 3A       		.uleb128 0x3a
 2385 027e 0B       		.uleb128 0xb
 2386 027f 3B       		.uleb128 0x3b
 2387 0280 0B       		.uleb128 0xb
 2388 0281 39       		.uleb128 0x39
 2389 0282 0B       		.uleb128 0xb
 2390 0283 27       		.uleb128 0x27
 2391 0284 19       		.uleb128 0x19
 2392 0285 11       		.uleb128 0x11
 2393 0286 01       		.uleb128 0x1
 2394 0287 12       		.uleb128 0x12
ARM GAS  C:\Users\DEVELO~1\AppData\Local\Temp\ccmqFCH5.s 			page 43


 2395 0288 06       		.uleb128 0x6
 2396 0289 40       		.uleb128 0x40
 2397 028a 18       		.uleb128 0x18
 2398 028b 7C       		.uleb128 0x7c
 2399 028c 19       		.uleb128 0x19
 2400 028d 01       		.uleb128 0x1
 2401 028e 13       		.uleb128 0x13
 2402 028f 00       		.byte	0
 2403 0290 00       		.byte	0
 2404 0291 26       		.uleb128 0x26
 2405 0292 2E       		.uleb128 0x2e
 2406 0293 01       		.byte	0x1
 2407 0294 03       		.uleb128 0x3
 2408 0295 0E       		.uleb128 0xe
 2409 0296 3A       		.uleb128 0x3a
 2410 0297 0B       		.uleb128 0xb
 2411 0298 3B       		.uleb128 0x3b
 2412 0299 05       		.uleb128 0x5
 2413 029a 39       		.uleb128 0x39
 2414 029b 0B       		.uleb128 0xb
 2415 029c 27       		.uleb128 0x27
 2416 029d 19       		.uleb128 0x19
 2417 029e 20       		.uleb128 0x20
 2418 029f 0B       		.uleb128 0xb
 2419 02a0 00       		.byte	0
 2420 02a1 00       		.byte	0
 2421 02a2 27       		.uleb128 0x27
 2422 02a3 05       		.uleb128 0x5
 2423 02a4 00       		.byte	0
 2424 02a5 03       		.uleb128 0x3
 2425 02a6 0E       		.uleb128 0xe
 2426 02a7 3A       		.uleb128 0x3a
 2427 02a8 0B       		.uleb128 0xb
 2428 02a9 3B       		.uleb128 0x3b
 2429 02aa 05       		.uleb128 0x5
 2430 02ab 39       		.uleb128 0x39
 2431 02ac 0B       		.uleb128 0xb
 2432 02ad 49       		.uleb128 0x49
 2433 02ae 13       		.uleb128 0x13
 2434 02af 00       		.byte	0
 2435 02b0 00       		.byte	0
 2436 02b1 00       		.byte	0
 2437              		.section	.debug_aranges,"",%progbits
 2438 0000 94000000 		.4byte	0x94
 2439 0004 0200     		.2byte	0x2
 2440 0006 00000000 		.4byte	.Ldebug_info0
 2441 000a 04       		.byte	0x4
 2442 000b 00       		.byte	0
 2443 000c 0000     		.2byte	0
 2444 000e 0000     		.2byte	0
 2445 0010 00000000 		.4byte	.LFB202
 2446 0014 1E000000 		.4byte	.LFE202-.LFB202
 2447 0018 00000000 		.4byte	.LFB203
 2448 001c 1E000000 		.4byte	.LFE203-.LFB203
 2449 0020 00000000 		.4byte	.LFB287
 2450 0024 1A000000 		.4byte	.LFE287-.LFB287
 2451 0028 00000000 		.4byte	.LFB292
ARM GAS  C:\Users\DEVELO~1\AppData\Local\Temp\ccmqFCH5.s 			page 44


 2452 002c 26000000 		.4byte	.LFE292-.LFB292
 2453 0030 00000000 		.4byte	.LFB294
 2454 0034 1A000000 		.4byte	.LFE294-.LFB294
 2455 0038 00000000 		.4byte	.LFB346
 2456 003c 30000000 		.4byte	.LFE346-.LFB346
 2457 0040 00000000 		.4byte	.LFB347
 2458 0044 36000000 		.4byte	.LFE347-.LFB347
 2459 0048 00000000 		.4byte	.LFB348
 2460 004c 44000000 		.4byte	.LFE348-.LFB348
 2461 0050 00000000 		.4byte	.LFB349
 2462 0054 22000000 		.4byte	.LFE349-.LFB349
 2463 0058 00000000 		.4byte	.LFB350
 2464 005c 26000000 		.4byte	.LFE350-.LFB350
 2465 0060 00000000 		.4byte	.LFB351
 2466 0064 22000000 		.4byte	.LFE351-.LFB351
 2467 0068 00000000 		.4byte	.LFB352
 2468 006c 2E000000 		.4byte	.LFE352-.LFB352
 2469 0070 00000000 		.4byte	.LFB353
 2470 0074 36000000 		.4byte	.LFE353-.LFB353
 2471 0078 00000000 		.4byte	.LFB354
 2472 007c 34000000 		.4byte	.LFE354-.LFB354
 2473 0080 00000000 		.4byte	.LFB355
 2474 0084 26000000 		.4byte	.LFE355-.LFB355
 2475 0088 00000000 		.4byte	.LFB356
 2476 008c 26000000 		.4byte	.LFE356-.LFB356
 2477 0090 00000000 		.4byte	0
 2478 0094 00000000 		.4byte	0
 2479              		.section	.debug_rnglists,"",%progbits
 2480              	.Ldebug_ranges0:
 2481 0000 69000000 		.4byte	.Ldebug_ranges3-.Ldebug_ranges2
 2482              	.Ldebug_ranges2:
 2483 0004 0500     		.2byte	0x5
 2484 0006 04       		.byte	0x4
 2485 0007 00       		.byte	0
 2486 0008 00000000 		.4byte	0
 2487              	.LLRL0:
 2488 000c 07       		.byte	0x7
 2489 000d 00000000 		.4byte	.LFB202
 2490 0011 1E       		.uleb128 .LFE202-.LFB202
 2491 0012 07       		.byte	0x7
 2492 0013 00000000 		.4byte	.LFB203
 2493 0017 1E       		.uleb128 .LFE203-.LFB203
 2494 0018 07       		.byte	0x7
 2495 0019 00000000 		.4byte	.LFB287
 2496 001d 1A       		.uleb128 .LFE287-.LFB287
 2497 001e 07       		.byte	0x7
 2498 001f 00000000 		.4byte	.LFB292
 2499 0023 26       		.uleb128 .LFE292-.LFB292
 2500 0024 07       		.byte	0x7
 2501 0025 00000000 		.4byte	.LFB294
 2502 0029 1A       		.uleb128 .LFE294-.LFB294
 2503 002a 07       		.byte	0x7
 2504 002b 00000000 		.4byte	.LFB346
 2505 002f 30       		.uleb128 .LFE346-.LFB346
 2506 0030 07       		.byte	0x7
 2507 0031 00000000 		.4byte	.LFB347
 2508 0035 36       		.uleb128 .LFE347-.LFB347
ARM GAS  C:\Users\DEVELO~1\AppData\Local\Temp\ccmqFCH5.s 			page 45


 2509 0036 07       		.byte	0x7
 2510 0037 00000000 		.4byte	.LFB348
 2511 003b 44       		.uleb128 .LFE348-.LFB348
 2512 003c 07       		.byte	0x7
 2513 003d 00000000 		.4byte	.LFB349
 2514 0041 22       		.uleb128 .LFE349-.LFB349
 2515 0042 07       		.byte	0x7
 2516 0043 00000000 		.4byte	.LFB350
 2517 0047 26       		.uleb128 .LFE350-.LFB350
 2518 0048 07       		.byte	0x7
 2519 0049 00000000 		.4byte	.LFB351
 2520 004d 22       		.uleb128 .LFE351-.LFB351
 2521 004e 07       		.byte	0x7
 2522 004f 00000000 		.4byte	.LFB352
 2523 0053 2E       		.uleb128 .LFE352-.LFB352
 2524 0054 07       		.byte	0x7
 2525 0055 00000000 		.4byte	.LFB353
 2526 0059 36       		.uleb128 .LFE353-.LFB353
 2527 005a 07       		.byte	0x7
 2528 005b 00000000 		.4byte	.LFB354
 2529 005f 34       		.uleb128 .LFE354-.LFB354
 2530 0060 07       		.byte	0x7
 2531 0061 00000000 		.4byte	.LFB355
 2532 0065 26       		.uleb128 .LFE355-.LFB355
 2533 0066 07       		.byte	0x7
 2534 0067 00000000 		.4byte	.LFB356
 2535 006b 26       		.uleb128 .LFE356-.LFB356
 2536 006c 00       		.byte	0
 2537              	.Ldebug_ranges3:
 2538              		.section	.debug_line,"",%progbits
 2539              	.Ldebug_line0:
 2540 0000 9F040000 		.section	.debug_str,"MS",%progbits,1
 2540      03007002 
 2540      00000201 
 2540      FB0E0D00 
 2540      01010101 
 2541              	.LASF61:
 2542 0000 474E5520 		.ascii	"GNU C17 11.3.1 20220712 -mcpu=cortex-m7 -mthumb -mf"
 2542      43313720 
 2542      31312E33 
 2542      2E312032 
 2542      30323230 
 2543 0033 6C6F6174 		.ascii	"loat-abi=soft -march=armv7e-m -ggdb -O0 -ffunction-"
 2543      2D616269 
 2543      3D736F66 
 2543      74202D6D 
 2543      61726368 
 2544 0066 73656374 		.ascii	"sections -fdata-sections -fno-common\000"
 2544      696F6E73 
 2544      202D6664 
 2544      6174612D 
 2544      73656374 
 2545              	.LASF7:
 2546 008b 73686F72 		.ascii	"short int\000"
 2546      7420696E 
 2546      7400
 2547              	.LASF4:
ARM GAS  C:\Users\DEVELO~1\AppData\Local\Temp\ccmqFCH5.s 			page 46


 2548 0095 73697A65 		.ascii	"size_t\000"
 2548      5F7400
 2549              	.LASF64:
 2550 009c 63685363 		.ascii	"chSchRescheduleS\000"
 2550      68526573 
 2550      63686564 
 2550      756C6553 
 2550      00
 2551              	.LASF63:
 2552 00ad 433A5C50 		.ascii	"C:\\PROJET\\ChibiOS project\\ChibiOS_21.11.4\\demos"
 2552      524F4A45 
 2552      545C4368 
 2552      6962694F 
 2552      53207072 
 2553 00dc 5C53544D 		.ascii	"\\STM32\\RT-STM32H743ZI_REV_XY-NUCLEO144_Quartz8M\000"
 2553      33325C52 
 2553      542D5354 
 2553      4D333248 
 2553      3734335A 
 2554              	.LASF36:
 2555 010c 67756172 		.ascii	"guarded_memory_pool_t\000"
 2555      6465645F 
 2555      6D656D6F 
 2555      72795F70 
 2555      6F6F6C5F 
 2556              	.LASF58:
 2557 0122 63685379 		.ascii	"chSysLock\000"
 2557      734C6F63 
 2557      6B00
 2558              	.LASF50:
 2559 012c 6368506F 		.ascii	"chPoolAlloc\000"
 2559      6F6C416C 
 2559      6C6F6300 
 2560              	.LASF42:
 2561 0138 63684775 		.ascii	"chGuardedPoolAllocTimeoutS\000"
 2561      61726465 
 2561      64506F6F 
 2561      6C416C6C 
 2561      6F635469 
 2562              	.LASF14:
 2563 0153 75696E74 		.ascii	"uint8_t\000"
 2563      385F7400 
 2564              	.LASF21:
 2565 015b 63685F71 		.ascii	"ch_queue_t\000"
 2565      75657565 
 2565      5F7400
 2566              	.LASF2:
 2567 0166 6C6F6E67 		.ascii	"long double\000"
 2567      20646F75 
 2567      626C6500 
 2568              	.LASF1:
 2569 0172 6C6F6E67 		.ascii	"long long int\000"
 2569      206C6F6E 
 2569      6720696E 
 2569      7400
 2570              	.LASF13:
 2571 0180 6C6F6E67 		.ascii	"long long unsigned int\000"
ARM GAS  C:\Users\DEVELO~1\AppData\Local\Temp\ccmqFCH5.s 			page 47


 2571      206C6F6E 
 2571      6720756E 
 2571      7369676E 
 2571      65642069 
 2572              	.LASF43:
 2573 0197 63684775 		.ascii	"chGuardedPoolFree\000"
 2573      61726465 
 2573      64506F6F 
 2573      6C467265 
 2573      6500
 2574              	.LASF65:
 2575 01a9 63685365 		.ascii	"chSemWaitTimeoutS\000"
 2575      6D576169 
 2575      7454696D 
 2575      656F7574 
 2575      5300
 2576              	.LASF10:
 2577 01bb 6C6F6E67 		.ascii	"long int\000"
 2577      20696E74 
 2577      00
 2578              	.LASF47:
 2579 01c4 6368506F 		.ascii	"chPoolFree\000"
 2579      6F6C4672 
 2579      656500
 2580              	.LASF5:
 2581 01cf 5F5F7569 		.ascii	"__uint8_t\000"
 2581      6E74385F 
 2581      7400
 2582              	.LASF55:
 2583 01d9 63684775 		.ascii	"chGuardedPoolFreeI\000"
 2583      61726465 
 2583      64506F6F 
 2583      6C467265 
 2583      654900
 2584              	.LASF26:
 2585 01ec 71756575 		.ascii	"queue\000"
 2585      6500
 2586              	.LASF6:
 2587 01f2 756E7369 		.ascii	"unsigned char\000"
 2587      676E6564 
 2587      20636861 
 2587      7200
 2588              	.LASF49:
 2589 0200 5F5F6675 		.ascii	"__func__\000"
 2589      6E635F5F 
 2589      00
 2590              	.LASF41:
 2591 0209 63684775 		.ascii	"chGuardedPoolAllocTimeout\000"
 2591      61726465 
 2591      64506F6F 
 2591      6C416C6C 
 2591      6F635469 
 2592              	.LASF27:
 2593 0223 73656D61 		.ascii	"semaphore_t\000"
 2593      70686F72 
 2593      655F7400 
 2594              	.LASF48:
ARM GAS  C:\Users\DEVELO~1\AppData\Local\Temp\ccmqFCH5.s 			page 48


 2595 022f 6368506F 		.ascii	"chPoolFreeI\000"
 2595      6F6C4672 
 2595      65654900 
 2596              	.LASF3:
 2597 023b 7369676E 		.ascii	"signed char\000"
 2597      65642063 
 2597      68617200 
 2598              	.LASF52:
 2599 0247 6368506F 		.ascii	"chPoolLoadArray\000"
 2599      6F6C4C6F 
 2599      61644172 
 2599      72617900 
 2600              	.LASF16:
 2601 0257 75696E74 		.ascii	"uint32_t\000"
 2601      33325F74 
 2601      00
 2602              	.LASF56:
 2603 0260 6368506F 		.ascii	"chPoolAdd\000"
 2603      6F6C4164 
 2603      6400
 2604              	.LASF0:
 2605 026a 756E7369 		.ascii	"unsigned int\000"
 2605      676E6564 
 2605      20696E74 
 2605      00
 2606              	.LASF29:
 2607 0277 6D656D67 		.ascii	"memgetfunc_t\000"
 2607      65746675 
 2607      6E635F74 
 2607      00
 2608              	.LASF20:
 2609 0284 73797369 		.ascii	"sysinterval_t\000"
 2609      6E746572 
 2609      76616C5F 
 2609      7400
 2610              	.LASF8:
 2611 0292 73686F72 		.ascii	"short unsigned int\000"
 2611      7420756E 
 2611      7369676E 
 2611      65642069 
 2611      6E7400
 2612              	.LASF67:
 2613 02a5 62617365 		.ascii	"basePri\000"
 2613      50726900 
 2614              	.LASF38:
 2615 02ad 63685365 		.ascii	"chSemObjectInit\000"
 2615      6D4F626A 
 2615      65637449 
 2615      6E697400 
 2616              	.LASF19:
 2617 02bd 63686172 		.ascii	"char\000"
 2617      00
 2618              	.LASF15:
 2619 02c2 696E7433 		.ascii	"int32_t\000"
 2619      325F7400 
 2620              	.LASF31:
 2621 02ca 6F626A65 		.ascii	"object_size\000"
ARM GAS  C:\Users\DEVELO~1\AppData\Local\Temp\ccmqFCH5.s 			page 49


 2621      63745F73 
 2621      697A6500 
 2622              	.LASF18:
 2623 02d6 636E745F 		.ascii	"cnt_t\000"
 2623      7400
 2624              	.LASF28:
 2625 02dc 5F426F6F 		.ascii	"_Bool\000"
 2625      6C00
 2626              	.LASF59:
 2627 02e2 706F7274 		.ascii	"port_unlock\000"
 2627      5F756E6C 
 2627      6F636B00 
 2628              	.LASF33:
 2629 02ee 70726F76 		.ascii	"provider\000"
 2629      69646572 
 2629      00
 2630              	.LASF60:
 2631 02f7 706F7274 		.ascii	"port_lock\000"
 2631      5F6C6F63 
 2631      6B00
 2632              	.LASF34:
 2633 0301 6D656D6F 		.ascii	"memory_pool_t\000"
 2633      72795F70 
 2633      6F6F6C5F 
 2633      7400
 2634              	.LASF53:
 2635 030f 6368506F 		.ascii	"chPoolObjectInitAligned\000"
 2635      6F6C4F62 
 2635      6A656374 
 2635      496E6974 
 2635      416C6967 
 2636              	.LASF30:
 2637 0327 706F6F6C 		.ascii	"pool_header\000"
 2637      5F686561 
 2637      64657200 
 2638              	.LASF12:
 2639 0333 6C6F6E67 		.ascii	"long unsigned int\000"
 2639      20756E73 
 2639      69676E65 
 2639      6420696E 
 2639      7400
 2640              	.LASF51:
 2641 0345 6368506F 		.ascii	"chPoolAllocI\000"
 2641      6F6C416C 
 2641      6C6F6349 
 2641      00
 2642              	.LASF11:
 2643 0352 5F5F7569 		.ascii	"__uint32_t\000"
 2643      6E743332 
 2643      5F7400
 2644              	.LASF46:
 2645 035d 73697A65 		.ascii	"size\000"
 2645      00
 2646              	.LASF57:
 2647 0362 63685379 		.ascii	"chSysUnlock\000"
 2647      73556E6C 
 2647      6F636B00 
ARM GAS  C:\Users\DEVELO~1\AppData\Local\Temp\ccmqFCH5.s 			page 50


 2648              	.LASF44:
 2649 036e 63684775 		.ascii	"chGuardedPoolLoadArray\000"
 2649      61726465 
 2649      64506F6F 
 2649      6C4C6F61 
 2649      64417272 
 2650              	.LASF25:
 2651 0385 63685F73 		.ascii	"ch_semaphore\000"
 2651      656D6170 
 2651      686F7265 
 2651      00
 2652              	.LASF9:
 2653 0392 5F5F696E 		.ascii	"__int32_t\000"
 2653      7433325F 
 2653      7400
 2654              	.LASF32:
 2655 039c 616C6967 		.ascii	"align\000"
 2655      6E00
 2656              	.LASF39:
 2657 03a2 6F626A70 		.ascii	"objp\000"
 2657      00
 2658              	.LASF24:
 2659 03a7 63685F71 		.ascii	"ch_queue\000"
 2659      75657565 
 2659      00
 2660              	.LASF37:
 2661 03b0 63685365 		.ascii	"chSemSignalI\000"
 2661      6D536967 
 2661      6E616C49 
 2661      00
 2662              	.LASF45:
 2663 03bd 63684775 		.ascii	"chGuardedPoolObjectInitAligned\000"
 2663      61726465 
 2663      64506F6F 
 2663      6C4F626A 
 2663      65637449 
 2664              	.LASF66:
 2665 03dc 5F5F7365 		.ascii	"__set_BASEPRI\000"
 2665      745F4241 
 2665      53455052 
 2665      4900
 2666              	.LASF35:
 2667 03ea 706F6F6C 		.ascii	"pool\000"
 2667      00
 2668              	.LASF23:
 2669 03ef 70726576 		.ascii	"prev\000"
 2669      00
 2670              	.LASF17:
 2671 03f4 6D73675F 		.ascii	"msg_t\000"
 2671      7400
 2672              	.LASF40:
 2673 03fa 74696D65 		.ascii	"timeout\000"
 2673      6F757400 
 2674              	.LASF22:
 2675 0402 6E657874 		.ascii	"next\000"
 2675      00
 2676              	.LASF62:
ARM GAS  C:\Users\DEVELO~1\AppData\Local\Temp\ccmqFCH5.s 			page 51


 2677 0407 2E2E2F2E 		.ascii	"../../../os/oslib/src/chmempools.c\000"
 2677      2E2F2E2E 
 2677      2F6F732F 
 2677      6F736C69 
 2677      622F7372 
 2678              	.LASF54:
 2679 042a 63684775 		.ascii	"chGuardedPoolAdd\000"
 2679      61726465 
 2679      64506F6F 
 2679      6C416464 
 2679      00
 2680              		.ident	"GCC: (Arm GNU Toolchain 11.3.Rel1) 11.3.1 20220712"
ARM GAS  C:\Users\DEVELO~1\AppData\Local\Temp\ccmqFCH5.s 			page 52


DEFINED SYMBOLS
                            *ABS*:00000000 chmempools.c
C:\Users\DEVELO~1\AppData\Local\Temp\ccmqFCH5.s:18     .text.chSysLock:00000000 $t
C:\Users\DEVELO~1\AppData\Local\Temp\ccmqFCH5.s:23     .text.chSysLock:00000000 chSysLock
C:\Users\DEVELO~1\AppData\Local\Temp\ccmqFCH5.s:77     .text.chSysUnlock:00000000 $t
C:\Users\DEVELO~1\AppData\Local\Temp\ccmqFCH5.s:82     .text.chSysUnlock:00000000 chSysUnlock
C:\Users\DEVELO~1\AppData\Local\Temp\ccmqFCH5.s:133    .text.chPoolAdd:00000000 $t
C:\Users\DEVELO~1\AppData\Local\Temp\ccmqFCH5.s:138    .text.chPoolAdd:00000000 chPoolAdd
C:\Users\DEVELO~1\AppData\Local\Temp\ccmqFCH5.s:537    .text.chPoolFree:00000000 chPoolFree
C:\Users\DEVELO~1\AppData\Local\Temp\ccmqFCH5.s:171    .text.chGuardedPoolFreeI:00000000 $t
C:\Users\DEVELO~1\AppData\Local\Temp\ccmqFCH5.s:176    .text.chGuardedPoolFreeI:00000000 chGuardedPoolFreeI
C:\Users\DEVELO~1\AppData\Local\Temp\ccmqFCH5.s:487    .text.chPoolFreeI:00000000 chPoolFreeI
C:\Users\DEVELO~1\AppData\Local\Temp\ccmqFCH5.s:214    .text.chGuardedPoolAdd:00000000 $t
C:\Users\DEVELO~1\AppData\Local\Temp\ccmqFCH5.s:219    .text.chGuardedPoolAdd:00000000 chGuardedPoolAdd
C:\Users\DEVELO~1\AppData\Local\Temp\ccmqFCH5.s:785    .text.chGuardedPoolFree:00000000 chGuardedPoolFree
C:\Users\DEVELO~1\AppData\Local\Temp\ccmqFCH5.s:251    .text.chPoolObjectInitAligned:00000000 $t
C:\Users\DEVELO~1\AppData\Local\Temp\ccmqFCH5.s:257    .text.chPoolObjectInitAligned:00000000 chPoolObjectInitAligned
C:\Users\DEVELO~1\AppData\Local\Temp\ccmqFCH5.s:307    .text.chPoolLoadArray:00000000 $t
C:\Users\DEVELO~1\AppData\Local\Temp\ccmqFCH5.s:313    .text.chPoolLoadArray:00000000 chPoolLoadArray
C:\Users\DEVELO~1\AppData\Local\Temp\ccmqFCH5.s:366    .text.chPoolAllocI:00000000 $t
C:\Users\DEVELO~1\AppData\Local\Temp\ccmqFCH5.s:372    .text.chPoolAllocI:00000000 chPoolAllocI
C:\Users\DEVELO~1\AppData\Local\Temp\ccmqFCH5.s:438    .text.chPoolAlloc:00000000 $t
C:\Users\DEVELO~1\AppData\Local\Temp\ccmqFCH5.s:444    .text.chPoolAlloc:00000000 chPoolAlloc
C:\Users\DEVELO~1\AppData\Local\Temp\ccmqFCH5.s:481    .text.chPoolFreeI:00000000 $t
C:\Users\DEVELO~1\AppData\Local\Temp\ccmqFCH5.s:531    .text.chPoolFree:00000000 $t
C:\Users\DEVELO~1\AppData\Local\Temp\ccmqFCH5.s:573    .text.chGuardedPoolObjectInitAligned:00000000 $t
C:\Users\DEVELO~1\AppData\Local\Temp\ccmqFCH5.s:579    .text.chGuardedPoolObjectInitAligned:00000000 chGuardedPoolObjectInitAligned
C:\Users\DEVELO~1\AppData\Local\Temp\ccmqFCH5.s:620    .text.chGuardedPoolLoadArray:00000000 $t
C:\Users\DEVELO~1\AppData\Local\Temp\ccmqFCH5.s:626    .text.chGuardedPoolLoadArray:00000000 chGuardedPoolLoadArray
C:\Users\DEVELO~1\AppData\Local\Temp\ccmqFCH5.s:679    .text.chGuardedPoolAllocTimeoutS:00000000 $t
C:\Users\DEVELO~1\AppData\Local\Temp\ccmqFCH5.s:685    .text.chGuardedPoolAllocTimeoutS:00000000 chGuardedPoolAllocTimeoutS
C:\Users\DEVELO~1\AppData\Local\Temp\ccmqFCH5.s:734    .text.chGuardedPoolAllocTimeout:00000000 $t
C:\Users\DEVELO~1\AppData\Local\Temp\ccmqFCH5.s:740    .text.chGuardedPoolAllocTimeout:00000000 chGuardedPoolAllocTimeout
C:\Users\DEVELO~1\AppData\Local\Temp\ccmqFCH5.s:779    .text.chGuardedPoolFree:00000000 $t

UNDEFINED SYMBOLS
chSemSignalI
chSemObjectInit
chSemWaitTimeoutS
chSchRescheduleS
