ARM GAS  C:\Users\DEVELO~1\AppData\Local\Temp\ccmqFCH5.s 			page 1


   1              		.cpu cortex-m7
   2              		.arch armv7e-m
   3              		.fpu softvfp
   4              		.eabi_attribute 20, 1
   5              		.eabi_attribute 21, 1
   6              		.eabi_attribute 23, 3
   7              		.eabi_attribute 24, 1
   8              		.eabi_attribute 25, 1
   9              		.eabi_attribute 26, 1
  10              		.eabi_attribute 30, 6
  11              		.eabi_attribute 34, 1
  12              		.eabi_attribute 18, 4
  13              		.file	"chmempools.c"
  14              		.text
  15              	.Ltext0:
  16              		.cfi_sections	.debug_frame
  17              		.section	.text.chSysLock,"ax",%progbits
  18              		.align	1
  19              		.syntax unified
  20              		.thumb
  21              		.thumb_func
  22              		.type	chSysLock, %function
  23              	chSysLock:
  24              	.LFB202:
  25              		.file 1 "../../../os/rt/include/chsys.h"
  26              		.loc 1 407 36
  27              		.cfi_startproc
  28              		@ args = 0, pretend = 0, frame = 8
  29              		@ frame_needed = 1, uses_anonymous_args = 0
  30              		@ link register save eliminated.
  31 0000 80B4     		push	{r7}
  32              		.cfi_def_cfa_offset 4
  33              		.cfi_offset 7, -4
  34 0002 83B0     		sub	sp, sp, #12
  35              		.cfi_def_cfa_offset 16
  36 0004 00AF     		add	r7, sp, #0
  37              		.cfi_def_cfa_register 7
  38 0006 3023     		movs	r3, #48
  39 0008 7B60     		str	r3, [r7, #4]
  40              	.LBB14:
  41              	.LBB15:
  42              	.LBB16:
  43              	.LBB17:
  44              		.file 2 "../../../os/common/ext/ARM/CMSIS/Core/Include/cmsis_gcc.h"
  45              		.loc 2 493 3
  46 000a 7B68     		ldr	r3, [r7, #4]
  47              		.syntax unified
  48              	@ 493 "../../../os/common/ext/ARM/CMSIS/Core/Include/cmsis_gcc.h" 1
  49 000c 83F31188 		MSR basepri, r3
  50              	@ 0 "" 2
  51              		.loc 2 494 1
  52              		.thumb
  53              		.syntax unified
  54 0010 00BF     		nop
  55              	.LBE17:
  56              	.LBE16:
  57              		.file 3 "../../../os/common/ports/ARMv7-M/chcore.h"
ARM GAS  C:\Users\DEVELO~1\AppData\Local\Temp\ccmqFCH5.s 			page 2


  58              		.loc 3 840 1
  59 0012 00BF     		nop
  60              	.LBE15:
  61              	.LBE14:
  62              		.loc 1 412 1
  63 0014 00BF     		nop
  64 0016 0C37     		adds	r7, r7, #12
  65              		.cfi_def_cfa_offset 4
  66 0018 BD46     		mov	sp, r7
  67              		.cfi_def_cfa_register 13
  68              		@ sp needed
  69 001a 80BC     		pop	{r7}
  70              		.cfi_restore 7
  71              		.cfi_def_cfa_offset 0
  72 001c 7047     		bx	lr
  73              		.cfi_endproc
  74              	.LFE202:
  75              		.size	chSysLock, .-chSysLock
  76              		.section	.text.chSysUnlock,"ax",%progbits
  77              		.align	1
  78              		.syntax unified
  79              		.thumb
  80              		.thumb_func
  81              		.type	chSysUnlock, %function
  82              	chSysUnlock:
  83              	.LFB203:
  84              		.loc 1 421 38
  85              		.cfi_startproc
  86              		@ args = 0, pretend = 0, frame = 8
  87              		@ frame_needed = 1, uses_anonymous_args = 0
  88              		@ link register save eliminated.
  89 0000 80B4     		push	{r7}
  90              		.cfi_def_cfa_offset 4
  91              		.cfi_offset 7, -4
  92 0002 83B0     		sub	sp, sp, #12
  93              		.cfi_def_cfa_offset 16
  94 0004 00AF     		add	r7, sp, #0
  95              		.cfi_def_cfa_register 7
  96 0006 0023     		movs	r3, #0
  97 0008 7B60     		str	r3, [r7, #4]
  98              	.LBB18:
  99              	.LBB19:
 100              	.LBB20:
 101              	.LBB21:
 102              		.loc 2 493 3
 103 000a 7B68     		ldr	r3, [r7, #4]
 104              		.syntax unified
 105              	@ 493 "../../../os/common/ext/ARM/CMSIS/Core/Include/cmsis_gcc.h" 1
 106 000c 83F31188 		MSR basepri, r3
 107              	@ 0 "" 2
 108              		.loc 2 494 1
 109              		.thumb
 110              		.syntax unified
 111 0010 00BF     		nop
 112              	.LBE21:
 113              	.LBE20:
 114              		.loc 3 854 1
ARM GAS  C:\Users\DEVELO~1\AppData\Local\Temp\ccmqFCH5.s 			page 3


 115 0012 00BF     		nop
 116              	.LBE19:
 117              	.LBE18:
 118              		.loc 1 435 1
 119 0014 00BF     		nop
 120 0016 0C37     		adds	r7, r7, #12
 121              		.cfi_def_cfa_offset 4
 122 0018 BD46     		mov	sp, r7
 123              		.cfi_def_cfa_register 13
 124              		@ sp needed
 125 001a 80BC     		pop	{r7}
 126              		.cfi_restore 7
 127              		.cfi_def_cfa_offset 0
 128 001c 7047     		bx	lr
 129              		.cfi_endproc
 130              	.LFE203:
 131              		.size	chSysUnlock, .-chSysUnlock
 132              		.section	.text.chPoolAdd,"ax",%progbits
 133              		.align	1
 134              		.syntax unified
 135              		.thumb
 136              		.thumb_func
 137              		.type	chPoolAdd, %function
 138              	chPoolAdd:
 139              	.LFB287:
 140              		.file 4 "../../../os/oslib/include/chmempools.h"
 141              		.loc 4 210 61
 142              		.cfi_startproc
 143              		@ args = 0, pretend = 0, frame = 8
 144              		@ frame_needed = 1, uses_anonymous_args = 0
 145 0000 80B5     		push	{r7, lr}
 146              		.cfi_def_cfa_offset 8
 147              		.cfi_offset 7, -8
 148              		.cfi_offset 14, -4
 149 0002 82B0     		sub	sp, sp, #8
 150              		.cfi_def_cfa_offset 16
 151 0004 00AF     		add	r7, sp, #0
 152              		.cfi_def_cfa_register 7
 153 0006 7860     		str	r0, [r7, #4]
 154 0008 3960     		str	r1, [r7]
 155              		.loc 4 212 3
 156 000a 3968     		ldr	r1, [r7]
 157 000c 7868     		ldr	r0, [r7, #4]
 158 000e FFF7FEFF 		bl	chPoolFree
 159              		.loc 4 213 1
 160 0012 00BF     		nop
 161 0014 0837     		adds	r7, r7, #8
 162              		.cfi_def_cfa_offset 8
 163 0016 BD46     		mov	sp, r7
 164              		.cfi_def_cfa_register 13
 165              		@ sp needed
 166 0018 80BD     		pop	{r7, pc}
 167              		.cfi_endproc
 168              	.LFE287:
 169              		.size	chPoolAdd, .-chPoolAdd
 170              		.section	.text.chGuardedPoolFreeI,"ax",%progbits
 171              		.align	1
ARM GAS  C:\Users\DEVELO~1\AppData\Local\Temp\ccmqFCH5.s 			page 4


 172              		.syntax unified
 173              		.thumb
 174              		.thumb_func
 175              		.type	chGuardedPoolFreeI, %function
 176              	chGuardedPoolFreeI:
 177              	.LFB292:
 178              		.loc 4 302 79
 179              		.cfi_startproc
 180              		@ args = 0, pretend = 0, frame = 8
 181              		@ frame_needed = 1, uses_anonymous_args = 0
 182 0000 80B5     		push	{r7, lr}
 183              		.cfi_def_cfa_offset 8
 184              		.cfi_offset 7, -8
 185              		.cfi_offset 14, -4
 186 0002 82B0     		sub	sp, sp, #8
 187              		.cfi_def_cfa_offset 16
 188 0004 00AF     		add	r7, sp, #0
 189              		.cfi_def_cfa_register 7
 190 0006 7860     		str	r0, [r7, #4]
 191 0008 3960     		str	r1, [r7]
 192              		.loc 4 304 3
 193 000a 7B68     		ldr	r3, [r7, #4]
 194 000c 0C33     		adds	r3, r3, #12
 195 000e 3968     		ldr	r1, [r7]
 196 0010 1846     		mov	r0, r3
 197 0012 FFF7FEFF 		bl	chPoolFreeI
 198              		.loc 4 305 3
 199 0016 7B68     		ldr	r3, [r7, #4]
 200 0018 1846     		mov	r0, r3
 201 001a FFF7FEFF 		bl	chSemSignalI
 202              		.loc 4 306 1
 203 001e 00BF     		nop
 204 0020 0837     		adds	r7, r7, #8
 205              		.cfi_def_cfa_offset 8
 206 0022 BD46     		mov	sp, r7
 207              		.cfi_def_cfa_register 13
 208              		@ sp needed
 209 0024 80BD     		pop	{r7, pc}
 210              		.cfi_endproc
 211              	.LFE292:
 212              		.size	chGuardedPoolFreeI, .-chGuardedPoolFreeI
 213              		.section	.text.chGuardedPoolAdd,"ax",%progbits
 214              		.align	1
 215              		.syntax unified
 216              		.thumb
 217              		.thumb_func
 218              		.type	chGuardedPoolAdd, %function
 219              	chGuardedPoolAdd:
 220              	.LFB294:
 221              		.loc 4 340 77
 222              		.cfi_startproc
 223              		@ args = 0, pretend = 0, frame = 8
 224              		@ frame_needed = 1, uses_anonymous_args = 0
 225 0000 80B5     		push	{r7, lr}
 226              		.cfi_def_cfa_offset 8
 227              		.cfi_offset 7, -8
 228              		.cfi_offset 14, -4
ARM GAS  C:\Users\DEVELO~1\AppData\Local\Temp\ccmqFCH5.s 			page 5


 229 0002 82B0     		sub	sp, sp, #8
 230              		.cfi_def_cfa_offset 16
 231 0004 00AF     		add	r7, sp, #0
 232              		.cfi_def_cfa_register 7
 233 0006 7860     		str	r0, [r7, #4]
 234 0008 3960     		str	r1, [r7]
 235              		.loc 4 342 3
 236 000a 3968     		ldr	r1, [r7]
 237 000c 7868     		ldr	r0, [r7, #4]
 238 000e FFF7FEFF 		bl	chGuardedPoolFree
 239              		.loc 4 343 1
 240 0012 00BF     		nop
 241 0014 0837     		adds	r7, r7, #8
 242              		.cfi_def_cfa_offset 8
 243 0016 BD46     		mov	sp, r7
 244              		.cfi_def_cfa_register 13
 245              		@ sp needed
 246 0018 80BD     		pop	{r7, pc}
 247              		.cfi_endproc
 248              	.LFE294:
 249              		.size	chGuardedPoolAdd, .-chGuardedPoolAdd
 250              		.section	.text.chPoolObjectInitAligned,"ax",%progbits
 251              		.align	1
 252              		.global	chPoolObjectInitAligned
 253              		.syntax unified
 254              		.thumb
 255              		.thumb_func
 256              		.type	chPoolObjectInitAligned, %function
 257              	chPoolObjectInitAligned:
 258              	.LFB346:
 259              		.file 5 "../../../os/oslib/src/chmempools.c"
 260              		.loc 5 78 69
 261              		.cfi_startproc
 262              		@ args = 0, pretend = 0, frame = 16
 263              		@ frame_needed = 1, uses_anonymous_args = 0
 264              		@ link register save eliminated.
 265 0000 80B4     		push	{r7}
 266              		.cfi_def_cfa_offset 4
 267              		.cfi_offset 7, -4
 268 0002 85B0     		sub	sp, sp, #20
 269              		.cfi_def_cfa_offset 24
 270 0004 00AF     		add	r7, sp, #0
 271              		.cfi_def_cfa_register 7
 272 0006 F860     		str	r0, [r7, #12]
 273 0008 B960     		str	r1, [r7, #8]
 274 000a 7A60     		str	r2, [r7, #4]
 275 000c 3B60     		str	r3, [r7]
 276              		.loc 5 85 12
 277 000e FB68     		ldr	r3, [r7, #12]
 278 0010 0022     		movs	r2, #0
 279 0012 1A60     		str	r2, [r3]
 280              		.loc 5 86 19
 281 0014 FB68     		ldr	r3, [r7, #12]
 282 0016 BA68     		ldr	r2, [r7, #8]
 283 0018 5A60     		str	r2, [r3, #4]
 284              		.loc 5 87 13
 285 001a FB68     		ldr	r3, [r7, #12]
ARM GAS  C:\Users\DEVELO~1\AppData\Local\Temp\ccmqFCH5.s 			page 6


 286 001c 7A68     		ldr	r2, [r7, #4]
 287 001e 9A60     		str	r2, [r3, #8]
 288              		.loc 5 88 16
 289 0020 FB68     		ldr	r3, [r7, #12]
 290 0022 3A68     		ldr	r2, [r7]
 291 0024 DA60     		str	r2, [r3, #12]
 292              		.loc 5 89 1
 293 0026 00BF     		nop
 294 0028 1437     		adds	r7, r7, #20
 295              		.cfi_def_cfa_offset 4
 296 002a BD46     		mov	sp, r7
 297              		.cfi_def_cfa_register 13
 298              		@ sp needed
 299 002c 80BC     		pop	{r7}
 300              		.cfi_restore 7
 301              		.cfi_def_cfa_offset 0
 302 002e 7047     		bx	lr
 303              		.cfi_endproc
 304              	.LFE346:
 305              		.size	chPoolObjectInitAligned, .-chPoolObjectInitAligned
 306              		.section	.text.chPoolLoadArray,"ax",%progbits
 307              		.align	1
 308              		.global	chPoolLoadArray
 309              		.syntax unified
 310              		.thumb
 311              		.thumb_func
 312              		.type	chPoolLoadArray, %function
 313              	chPoolLoadArray:
 314              	.LFB347:
 315              		.loc 5 106 60
 316              		.cfi_startproc
 317              		@ args = 0, pretend = 0, frame = 16
 318              		@ frame_needed = 1, uses_anonymous_args = 0
 319 0000 80B5     		push	{r7, lr}
 320              		.cfi_def_cfa_offset 8
 321              		.cfi_offset 7, -8
 322              		.cfi_offset 14, -4
 323 0002 84B0     		sub	sp, sp, #16
 324              		.cfi_def_cfa_offset 24
 325 0004 00AF     		add	r7, sp, #0
 326              		.cfi_def_cfa_register 7
 327 0006 F860     		str	r0, [r7, #12]
 328 0008 B960     		str	r1, [r7, #8]
 329 000a 7A60     		str	r2, [r7, #4]
 330              		.loc 5 110 9
 331 000c 0BE0     		b	.L8
 332              	.L9:
 333              		.loc 5 111 5
 334 000e B968     		ldr	r1, [r7, #8]
 335 0010 F868     		ldr	r0, [r7, #12]
 336 0012 FFF7FEFF 		bl	chPoolAdd
 337              		.loc 5 113 37
 338 0016 FB68     		ldr	r3, [r7, #12]
 339 0018 5B68     		ldr	r3, [r3, #4]
 340              		.loc 5 113 7
 341 001a BA68     		ldr	r2, [r7, #8]
 342 001c 1344     		add	r3, r3, r2
ARM GAS  C:\Users\DEVELO~1\AppData\Local\Temp\ccmqFCH5.s 			page 7


 343 001e BB60     		str	r3, [r7, #8]
 344              		.loc 5 115 6
 345 0020 7B68     		ldr	r3, [r7, #4]
 346 0022 013B     		subs	r3, r3, #1
 347 0024 7B60     		str	r3, [r7, #4]
 348              	.L8:
 349              		.loc 5 110 12
 350 0026 7B68     		ldr	r3, [r7, #4]
 351 0028 002B     		cmp	r3, #0
 352 002a F0D1     		bne	.L9
 353              		.loc 5 117 1
 354 002c 00BF     		nop
 355 002e 00BF     		nop
 356 0030 1037     		adds	r7, r7, #16
 357              		.cfi_def_cfa_offset 8
 358 0032 BD46     		mov	sp, r7
 359              		.cfi_def_cfa_register 13
 360              		@ sp needed
 361 0034 80BD     		pop	{r7, pc}
 362              		.cfi_endproc
 363              	.LFE347:
 364              		.size	chPoolLoadArray, .-chPoolLoadArray
 365              		.section	.text.chPoolAllocI,"ax",%progbits
 366              		.align	1
 367              		.global	chPoolAllocI
 368              		.syntax unified
 369              		.thumb
 370              		.thumb_func
 371              		.type	chPoolAllocI, %function
 372              	chPoolAllocI:
 373              	.LFB348:
 374              		.loc 5 129 39
 375              		.cfi_startproc
 376              		@ args = 0, pretend = 0, frame = 16
 377              		@ frame_needed = 1, uses_anonymous_args = 0
 378 0000 80B5     		push	{r7, lr}
 379              		.cfi_def_cfa_offset 8
 380              		.cfi_offset 7, -8
 381              		.cfi_offset 14, -4
 382 0002 84B0     		sub	sp, sp, #16
 383              		.cfi_def_cfa_offset 24
 384 0004 00AF     		add	r7, sp, #0
 385              		.cfi_def_cfa_register 7
 386 0006 7860     		str	r0, [r7, #4]
 387              		.loc 5 135 8
 388 0008 7B68     		ldr	r3, [r7, #4]
 389 000a 1B68     		ldr	r3, [r3]
 390 000c FB60     		str	r3, [r7, #12]
 391              		.loc 5 137 6
 392 000e FB68     		ldr	r3, [r7, #12]
 393 0010 002B     		cmp	r3, #0
 394 0012 05D0     		beq	.L11
 395              		.loc 5 138 18
 396 0014 7B68     		ldr	r3, [r7, #4]
 397 0016 1B68     		ldr	r3, [r3]
 398              		.loc 5 138 24
 399 0018 1A68     		ldr	r2, [r3]
ARM GAS  C:\Users\DEVELO~1\AppData\Local\Temp\ccmqFCH5.s 			page 8


 400              		.loc 5 138 14
 401 001a 7B68     		ldr	r3, [r7, #4]
 402 001c 1A60     		str	r2, [r3]
 403 001e 0CE0     		b	.L12
 404              	.L11:
 405              		.loc 5 140 14
 406 0020 7B68     		ldr	r3, [r7, #4]
 407 0022 DB68     		ldr	r3, [r3, #12]
 408              		.loc 5 140 11
 409 0024 002B     		cmp	r3, #0
 410 0026 08D0     		beq	.L12
 411              		.loc 5 141 14
 412 0028 7B68     		ldr	r3, [r7, #4]
 413 002a DB68     		ldr	r3, [r3, #12]
 414              		.loc 5 141 12
 415 002c 7A68     		ldr	r2, [r7, #4]
 416 002e 5068     		ldr	r0, [r2, #4]
 417 0030 7A68     		ldr	r2, [r7, #4]
 418 0032 9268     		ldr	r2, [r2, #8]
 419 0034 1146     		mov	r1, r2
 420 0036 9847     		blx	r3
 421              	.LVL0:
 422 0038 F860     		str	r0, [r7, #12]
 423              	.L12:
 424              		.loc 5 148 10
 425 003a FB68     		ldr	r3, [r7, #12]
 426              		.loc 5 149 1
 427 003c 1846     		mov	r0, r3
 428 003e 1037     		adds	r7, r7, #16
 429              		.cfi_def_cfa_offset 8
 430 0040 BD46     		mov	sp, r7
 431              		.cfi_def_cfa_register 13
 432              		@ sp needed
 433 0042 80BD     		pop	{r7, pc}
 434              		.cfi_endproc
 435              	.LFE348:
 436              		.size	chPoolAllocI, .-chPoolAllocI
 437              		.section	.text.chPoolAlloc,"ax",%progbits
 438              		.align	1
 439              		.global	chPoolAlloc
 440              		.syntax unified
 441              		.thumb
 442              		.thumb_func
 443              		.type	chPoolAlloc, %function
 444              	chPoolAlloc:
 445              	.LFB349:
 446              		.loc 5 161 38
 447              		.cfi_startproc
 448              		@ args = 0, pretend = 0, frame = 16
 449              		@ frame_needed = 1, uses_anonymous_args = 0
 450 0000 80B5     		push	{r7, lr}
 451              		.cfi_def_cfa_offset 8
 452              		.cfi_offset 7, -8
 453              		.cfi_offset 14, -4
 454 0002 84B0     		sub	sp, sp, #16
 455              		.cfi_def_cfa_offset 24
 456 0004 00AF     		add	r7, sp, #0
ARM GAS  C:\Users\DEVELO~1\AppData\Local\Temp\ccmqFCH5.s 			page 9


 457              		.cfi_def_cfa_register 7
 458 0006 7860     		str	r0, [r7, #4]
 459              		.loc 5 164 3
 460 0008 FFF7FEFF 		bl	chSysLock
 461              		.loc 5 165 10
 462 000c 7868     		ldr	r0, [r7, #4]
 463 000e FFF7FEFF 		bl	chPoolAllocI
 464 0012 F860     		str	r0, [r7, #12]
 465              		.loc 5 166 3
 466 0014 FFF7FEFF 		bl	chSysUnlock
 467              		.loc 5 168 10
 468 0018 FB68     		ldr	r3, [r7, #12]
 469              		.loc 5 169 1
 470 001a 1846     		mov	r0, r3
 471 001c 1037     		adds	r7, r7, #16
 472              		.cfi_def_cfa_offset 8
 473 001e BD46     		mov	sp, r7
 474              		.cfi_def_cfa_register 13
 475              		@ sp needed
 476 0020 80BD     		pop	{r7, pc}
 477              		.cfi_endproc
 478              	.LFE349:
 479              		.size	chPoolAlloc, .-chPoolAlloc
 480              		.section	.text.chPoolFreeI,"ax",%progbits
 481              		.align	1
 482              		.global	chPoolFreeI
 483              		.syntax unified
 484              		.thumb
 485              		.thumb_func
 486              		.type	chPoolFreeI, %function
 487              	chPoolFreeI:
 488              	.LFB350:
 489              		.loc 5 183 49
 490              		.cfi_startproc
 491              		@ args = 0, pretend = 0, frame = 16
 492              		@ frame_needed = 1, uses_anonymous_args = 0
 493              		@ link register save eliminated.
 494 0000 80B4     		push	{r7}
 495              		.cfi_def_cfa_offset 4
 496              		.cfi_offset 7, -4
 497 0002 85B0     		sub	sp, sp, #20
 498              		.cfi_def_cfa_offset 24
 499 0004 00AF     		add	r7, sp, #0
 500              		.cfi_def_cfa_register 7
 501 0006 7860     		str	r0, [r7, #4]
 502 0008 3960     		str	r1, [r7]
 503              		.loc 5 184 23
 504 000a 3B68     		ldr	r3, [r7]
 505 000c FB60     		str	r3, [r7, #12]
 506              		.loc 5 191 17
 507 000e 7B68     		ldr	r3, [r7, #4]
 508 0010 1A68     		ldr	r2, [r3]
 509              		.loc 5 191 13
 510 0012 FB68     		ldr	r3, [r7, #12]
 511 0014 1A60     		str	r2, [r3]
 512              		.loc 5 192 12
 513 0016 7B68     		ldr	r3, [r7, #4]
ARM GAS  C:\Users\DEVELO~1\AppData\Local\Temp\ccmqFCH5.s 			page 10


 514 0018 FA68     		ldr	r2, [r7, #12]
 515 001a 1A60     		str	r2, [r3]
 516              		.loc 5 193 1
 517 001c 00BF     		nop
 518 001e 1437     		adds	r7, r7, #20
 519              		.cfi_def_cfa_offset 4
 520 0020 BD46     		mov	sp, r7
 521              		.cfi_def_cfa_register 13
 522              		@ sp needed
 523 0022 80BC     		pop	{r7}
 524              		.cfi_restore 7
 525              		.cfi_def_cfa_offset 0
 526 0024 7047     		bx	lr
 527              		.cfi_endproc
 528              	.LFE350:
 529              		.size	chPoolFreeI, .-chPoolFreeI
 530              		.section	.text.chPoolFree,"ax",%progbits
 531              		.align	1
 532              		.global	chPoolFree
 533              		.syntax unified
 534              		.thumb
 535              		.thumb_func
 536              		.type	chPoolFree, %function
 537              	chPoolFree:
 538              	.LFB351:
 539              		.loc 5 207 48
 540              		.cfi_startproc
 541              		@ args = 0, pretend = 0, frame = 8
 542              		@ frame_needed = 1, uses_anonymous_args = 0
 543 0000 80B5     		push	{r7, lr}
 544              		.cfi_def_cfa_offset 8
 545              		.cfi_offset 7, -8
 546              		.cfi_offset 14, -4
 547 0002 82B0     		sub	sp, sp, #8
 548              		.cfi_def_cfa_offset 16
 549 0004 00AF     		add	r7, sp, #0
 550              		.cfi_def_cfa_register 7
 551 0006 7860     		str	r0, [r7, #4]
 552 0008 3960     		str	r1, [r7]
 553              		.loc 5 209 3
 554 000a FFF7FEFF 		bl	chSysLock
 555              		.loc 5 210 3
 556 000e 3968     		ldr	r1, [r7]
 557 0010 7868     		ldr	r0, [r7, #4]
 558 0012 FFF7FEFF 		bl	chPoolFreeI
 559              		.loc 5 211 3
 560 0016 FFF7FEFF 		bl	chSysUnlock
 561              		.loc 5 212 1
 562 001a 00BF     		nop
 563 001c 0837     		adds	r7, r7, #8
 564              		.cfi_def_cfa_offset 8
 565 001e BD46     		mov	sp, r7
 566              		.cfi_def_cfa_register 13
 567              		@ sp needed
 568 0020 80BD     		pop	{r7, pc}
 569              		.cfi_endproc
 570              	.LFE351:
ARM GAS  C:\Users\DEVELO~1\AppData\Local\Temp\ccmqFCH5.s 			page 11


 571              		.size	chPoolFree, .-chPoolFree
 572              		.section	.text.chGuardedPoolObjectInitAligned,"ax",%progbits
 573              		.align	1
 574              		.global	chGuardedPoolObjectInitAligned
 575              		.syntax unified
 576              		.thumb
 577              		.thumb_func
 578              		.type	chGuardedPoolObjectInitAligned, %function
 579              	chGuardedPoolObjectInitAligned:
 580              	.LFB352:
 581              		.loc 5 228 53
 582              		.cfi_startproc
 583              		@ args = 0, pretend = 0, frame = 16
 584              		@ frame_needed = 1, uses_anonymous_args = 0
 585 0000 80B5     		push	{r7, lr}
 586              		.cfi_def_cfa_offset 8
 587              		.cfi_offset 7, -8
 588              		.cfi_offset 14, -4
 589 0002 84B0     		sub	sp, sp, #16
 590              		.cfi_def_cfa_offset 24
 591 0004 00AF     		add	r7, sp, #0
 592              		.cfi_def_cfa_register 7
 593 0006 F860     		str	r0, [r7, #12]
 594 0008 B960     		str	r1, [r7, #8]
 595 000a 7A60     		str	r2, [r7, #4]
 596              		.loc 5 230 3
 597 000c FB68     		ldr	r3, [r7, #12]
 598 000e 03F10C00 		add	r0, r3, #12
 599 0012 0023     		movs	r3, #0
 600 0014 7A68     		ldr	r2, [r7, #4]
 601 0016 B968     		ldr	r1, [r7, #8]
 602 0018 FFF7FEFF 		bl	chPoolObjectInitAligned
 603              		.loc 5 231 3
 604 001c FB68     		ldr	r3, [r7, #12]
 605 001e 0021     		movs	r1, #0
 606 0020 1846     		mov	r0, r3
 607 0022 FFF7FEFF 		bl	chSemObjectInit
 608              		.loc 5 232 1
 609 0026 00BF     		nop
 610 0028 1037     		adds	r7, r7, #16
 611              		.cfi_def_cfa_offset 8
 612 002a BD46     		mov	sp, r7
 613              		.cfi_def_cfa_register 13
 614              		@ sp needed
 615 002c 80BD     		pop	{r7, pc}
 616              		.cfi_endproc
 617              	.LFE352:
 618              		.size	chGuardedPoolObjectInitAligned, .-chGuardedPoolObjectInitAligned
 619              		.section	.text.chGuardedPoolLoadArray,"ax",%progbits
 620              		.align	1
 621              		.global	chGuardedPoolLoadArray
 622              		.syntax unified
 623              		.thumb
 624              		.thumb_func
 625              		.type	chGuardedPoolLoadArray, %function
 626              	chGuardedPoolLoadArray:
 627              	.LFB353:
ARM GAS  C:\Users\DEVELO~1\AppData\Local\Temp\ccmqFCH5.s 			page 12


 628              		.loc 5 247 76
 629              		.cfi_startproc
 630              		@ args = 0, pretend = 0, frame = 16
 631              		@ frame_needed = 1, uses_anonymous_args = 0
 632 0000 80B5     		push	{r7, lr}
 633              		.cfi_def_cfa_offset 8
 634              		.cfi_offset 7, -8
 635              		.cfi_offset 14, -4
 636 0002 84B0     		sub	sp, sp, #16
 637              		.cfi_def_cfa_offset 24
 638 0004 00AF     		add	r7, sp, #0
 639              		.cfi_def_cfa_register 7
 640 0006 F860     		str	r0, [r7, #12]
 641 0008 B960     		str	r1, [r7, #8]
 642 000a 7A60     		str	r2, [r7, #4]
 643              		.loc 5 251 9
 644 000c 0BE0     		b	.L20
 645              	.L21:
 646              		.loc 5 252 5
 647 000e B968     		ldr	r1, [r7, #8]
 648 0010 F868     		ldr	r0, [r7, #12]
 649 0012 FFF7FEFF 		bl	chGuardedPoolAdd
 650              		.loc 5 254 44
 651 0016 FB68     		ldr	r3, [r7, #12]
 652 0018 1B69     		ldr	r3, [r3, #16]
 653              		.loc 5 254 7
 654 001a BA68     		ldr	r2, [r7, #8]
 655 001c 1344     		add	r3, r3, r2
 656 001e BB60     		str	r3, [r7, #8]
 657              		.loc 5 256 6
 658 0020 7B68     		ldr	r3, [r7, #4]
 659 0022 013B     		subs	r3, r3, #1
 660 0024 7B60     		str	r3, [r7, #4]
 661              	.L20:
 662              		.loc 5 251 12
 663 0026 7B68     		ldr	r3, [r7, #4]
 664 0028 002B     		cmp	r3, #0
 665 002a F0D1     		bne	.L21
 666              		.loc 5 258 1
 667 002c 00BF     		nop
 668 002e 00BF     		nop
 669 0030 1037     		adds	r7, r7, #16
 670              		.cfi_def_cfa_offset 8
 671 0032 BD46     		mov	sp, r7
 672              		.cfi_def_cfa_register 13
 673              		@ sp needed
 674 0034 80BD     		pop	{r7, pc}
 675              		.cfi_endproc
 676              	.LFE353:
 677              		.size	chGuardedPoolLoadArray, .-chGuardedPoolLoadArray
 678              		.section	.text.chGuardedPoolAllocTimeoutS,"ax",%progbits
 679              		.align	1
 680              		.global	chGuardedPoolAllocTimeoutS
 681              		.syntax unified
 682              		.thumb
 683              		.thumb_func
 684              		.type	chGuardedPoolAllocTimeoutS, %function
ARM GAS  C:\Users\DEVELO~1\AppData\Local\Temp\ccmqFCH5.s 			page 13


 685              	chGuardedPoolAllocTimeoutS:
 686              	.LFB354:
 687              		.loc 5 276 57
 688              		.cfi_startproc
 689              		@ args = 0, pretend = 0, frame = 16
 690              		@ frame_needed = 1, uses_anonymous_args = 0
 691 0000 80B5     		push	{r7, lr}
 692              		.cfi_def_cfa_offset 8
 693              		.cfi_offset 7, -8
 694              		.cfi_offset 14, -4
 695 0002 84B0     		sub	sp, sp, #16
 696              		.cfi_def_cfa_offset 24
 697 0004 00AF     		add	r7, sp, #0
 698              		.cfi_def_cfa_register 7
 699 0006 7860     		str	r0, [r7, #4]
 700 0008 3960     		str	r1, [r7]
 701              		.loc 5 279 9
 702 000a 7B68     		ldr	r3, [r7, #4]
 703 000c 3968     		ldr	r1, [r7]
 704 000e 1846     		mov	r0, r3
 705 0010 FFF7FEFF 		bl	chSemWaitTimeoutS
 706 0014 F860     		str	r0, [r7, #12]
 707              		.loc 5 280 6
 708 0016 FB68     		ldr	r3, [r7, #12]
 709 0018 002B     		cmp	r3, #0
 710 001a 01D0     		beq	.L23
 711              		.loc 5 281 12
 712 001c 0023     		movs	r3, #0
 713 001e 05E0     		b	.L24
 714              	.L23:
 715              		.loc 5 284 10
 716 0020 7B68     		ldr	r3, [r7, #4]
 717 0022 0C33     		adds	r3, r3, #12
 718 0024 1846     		mov	r0, r3
 719 0026 FFF7FEFF 		bl	chPoolAllocI
 720 002a 0346     		mov	r3, r0
 721              	.L24:
 722              		.loc 5 285 1
 723 002c 1846     		mov	r0, r3
 724 002e 1037     		adds	r7, r7, #16
 725              		.cfi_def_cfa_offset 8
 726 0030 BD46     		mov	sp, r7
 727              		.cfi_def_cfa_register 13
 728              		@ sp needed
 729 0032 80BD     		pop	{r7, pc}
 730              		.cfi_endproc
 731              	.LFE354:
 732              		.size	chGuardedPoolAllocTimeoutS, .-chGuardedPoolAllocTimeoutS
 733              		.section	.text.chGuardedPoolAllocTimeout,"ax",%progbits
 734              		.align	1
 735              		.global	chGuardedPoolAllocTimeout
 736              		.syntax unified
 737              		.thumb
 738              		.thumb_func
 739              		.type	chGuardedPoolAllocTimeout, %function
 740              	chGuardedPoolAllocTimeout:
 741              	.LFB355:
ARM GAS  C:\Users\DEVELO~1\AppData\Local\Temp\ccmqFCH5.s 			page 14


 742              		.loc 5 303 56
 743              		.cfi_startproc
 744              		@ args = 0, pretend = 0, frame = 16
 745              		@ frame_needed = 1, uses_anonymous_args = 0
 746 0000 80B5     		push	{r7, lr}
 747              		.cfi_def_cfa_offset 8
 748              		.cfi_offset 7, -8
 749              		.cfi_offset 14, -4
 750 0002 84B0     		sub	sp, sp, #16
 751              		.cfi_def_cfa_offset 24
 752 0004 00AF     		add	r7, sp, #0
 753              		.cfi_def_cfa_register 7
 754 0006 7860     		str	r0, [r7, #4]
 755 0008 3960     		str	r1, [r7]
 756              		.loc 5 306 3
 757 000a FFF7FEFF 		bl	chSysLock
 758              		.loc 5 307 7
 759 000e 3968     		ldr	r1, [r7]
 760 0010 7868     		ldr	r0, [r7, #4]
 761 0012 FFF7FEFF 		bl	chGuardedPoolAllocTimeoutS
 762 0016 F860     		str	r0, [r7, #12]
 763              		.loc 5 308 3
 764 0018 FFF7FEFF 		bl	chSysUnlock
 765              		.loc 5 310 10
 766 001c FB68     		ldr	r3, [r7, #12]
 767              		.loc 5 311 1
 768 001e 1846     		mov	r0, r3
 769 0020 1037     		adds	r7, r7, #16
 770              		.cfi_def_cfa_offset 8
 771 0022 BD46     		mov	sp, r7
 772              		.cfi_def_cfa_register 13
 773              		@ sp needed
 774 0024 80BD     		pop	{r7, pc}
 775              		.cfi_endproc
 776              	.LFE355:
 777              		.size	chGuardedPoolAllocTimeout, .-chGuardedPoolAllocTimeout
 778              		.section	.text.chGuardedPoolFree,"ax",%progbits
 779              		.align	1
 780              		.global	chGuardedPoolFree
 781              		.syntax unified
 782              		.thumb
 783              		.thumb_func
 784              		.type	chGuardedPoolFree, %function
 785              	chGuardedPoolFree:
 786              	.LFB356:
 787              		.loc 5 325 64
 788              		.cfi_startproc
 789              		@ args = 0, pretend = 0, frame = 8
 790              		@ frame_needed = 1, uses_anonymous_args = 0
 791 0000 80B5     		push	{r7, lr}
 792              		.cfi_def_cfa_offset 8
 793              		.cfi_offset 7, -8
 794              		.cfi_offset 14, -4
 795 0002 82B0     		sub	sp, sp, #8
 796              		.cfi_def_cfa_offset 16
 797 0004 00AF     		add	r7, sp, #0
 798              		.cfi_def_cfa_register 7
ARM GAS  C:\Users\DEVELO~1\AppData\Local\Temp\ccmqFCH5.s 			page 15


 799 0006 7860     		str	r0, [r7, #4]
 800 0008 3960     		str	r1, [r7]
 801              		.loc 5 327 3
 802 000a FFF7FEFF 		bl	chSysLock
 803              		.loc 5 328 3
 804 000e 3968     		ldr	r1, [r7]
 805 0010 7868     		ldr	r0, [r7, #4]
 806 0012 FFF7FEFF 		bl	chGuardedPoolFreeI
 807              		.loc 5 329 3
 808 0016 FFF7FEFF 		bl	chSchRescheduleS
 809              		.loc 5 330 3
 810 001a FFF7FEFF 		bl	chSysUnlock
 811              		.loc 5 331 1
 812 001e 00BF     		nop
 813 0020 0837     		adds	r7, r7, #8
 814              		.cfi_def_cfa_offset 8
 815 0022 BD46     		mov	sp, r7
 816              		.cfi_def_cfa_register 13
 817              		@ sp needed
 818 0024 80BD     		pop	{r7, pc}
 819              		.cfi_endproc
 820              	.LFE356:
 821              		.size	chGuardedPoolFree, .-chGuardedPoolFree
 822              		.text
 823              	.Letext0:
 824              		.file 6 "c:\\chibistudio\\tools\\gnu tools arm embedded\\11.3 2022.08\\lib\\gcc\\arm-none-eabi\\11
 825              		.file 7 "c:\\chibistudio\\tools\\gnu tools arm embedded\\11.3 2022.08\\arm-none-eabi\\include\\mac
 826              		.file 8 "c:\\chibistudio\\tools\\gnu tools arm embedded\\11.3 2022.08\\arm-none-eabi\\include\\sys
 827              		.file 9 "../../../os/rt/include/chearly.h"
 828              		.file 10 "../../../os/rt/include/chtime.h"
 829              		.file 11 "../../../os/rt/include/chlists.h"
 830              		.file 12 "../../../os/rt/include/chsem.h"
 831              		.file 13 "../../../os/oslib/include/chmemcore.h"
 832              		.file 14 "../../../os/rt/include/chschd.h"