ARM GAS  C:\Users\DEVELO~1\AppData\Local\Temp\ccyCGzaf.s 			page 1


   1              		.cpu cortex-m7
   2              		.arch armv7e-m
   3              		.fpu softvfp
   4              		.eabi_attribute 20, 1
   5              		.eabi_attribute 21, 1
   6              		.eabi_attribute 23, 3
   7              		.eabi_attribute 24, 1
   8              		.eabi_attribute 25, 1
   9              		.eabi_attribute 26, 1
  10              		.eabi_attribute 30, 6
  11              		.eabi_attribute 34, 1
  12              		.eabi_attribute 18, 4
  13              		.file	"chmemcore.c"
  14              		.text
  15              	.Ltext0:
  16              		.cfi_sections	.debug_frame
  17              		.section	.text.chSysLock,"ax",%progbits
  18              		.align	1
  19              		.syntax unified
  20              		.thumb
  21              		.thumb_func
  22              		.type	chSysLock, %function
  23              	chSysLock:
  24              	.LFB202:
  25              		.file 1 "../../../os/rt/include/chsys.h"
  26              		.loc 1 407 36
  27              		.cfi_startproc
  28              		@ args = 0, pretend = 0, frame = 8
  29              		@ frame_needed = 1, uses_anonymous_args = 0
  30              		@ link register save eliminated.
  31 0000 80B4     		push	{r7}
  32              		.cfi_def_cfa_offset 4
  33              		.cfi_offset 7, -4
  34 0002 83B0     		sub	sp, sp, #12
  35              		.cfi_def_cfa_offset 16
  36 0004 00AF     		add	r7, sp, #0
  37              		.cfi_def_cfa_register 7
  38 0006 3023     		movs	r3, #48
  39 0008 7B60     		str	r3, [r7, #4]
  40              	.LBB14:
  41              	.LBB15:
  42              	.LBB16:
  43              	.LBB17:
  44              		.file 2 "../../../os/common/ext/ARM/CMSIS/Core/Include/cmsis_gcc.h"
  45              		.loc 2 493 3
  46 000a 7B68     		ldr	r3, [r7, #4]
  47              		.syntax unified
  48              	@ 493 "../../../os/common/ext/ARM/CMSIS/Core/Include/cmsis_gcc.h" 1
  49 000c 83F31188 		MSR basepri, r3
  50              	@ 0 "" 2
  51              		.loc 2 494 1
  52              		.thumb
  53              		.syntax unified
  54 0010 00BF     		nop
  55              	.LBE17:
  56              	.LBE16:
  57              		.file 3 "../../../os/common/ports/ARMv7-M/chcore.h"
ARM GAS  C:\Users\DEVELO~1\AppData\Local\Temp\ccyCGzaf.s 			page 2


  58              		.loc 3 840 1
  59 0012 00BF     		nop
  60              	.LBE15:
  61              	.LBE14:
  62              		.loc 1 412 1
  63 0014 00BF     		nop
  64 0016 0C37     		adds	r7, r7, #12
  65              		.cfi_def_cfa_offset 4
  66 0018 BD46     		mov	sp, r7
  67              		.cfi_def_cfa_register 13
  68              		@ sp needed
  69 001a 80BC     		pop	{r7}
  70              		.cfi_restore 7
  71              		.cfi_def_cfa_offset 0
  72 001c 7047     		bx	lr
  73              		.cfi_endproc
  74              	.LFE202:
  75              		.size	chSysLock, .-chSysLock
  76              		.section	.text.chSysUnlock,"ax",%progbits
  77              		.align	1
  78              		.syntax unified
  79              		.thumb
  80              		.thumb_func
  81              		.type	chSysUnlock, %function
  82              	chSysUnlock:
  83              	.LFB203:
  84              		.loc 1 421 38
  85              		.cfi_startproc
  86              		@ args = 0, pretend = 0, frame = 8
  87              		@ frame_needed = 1, uses_anonymous_args = 0
  88              		@ link register save eliminated.
  89 0000 80B4     		push	{r7}
  90              		.cfi_def_cfa_offset 4
  91              		.cfi_offset 7, -4
  92 0002 83B0     		sub	sp, sp, #12
  93              		.cfi_def_cfa_offset 16
  94 0004 00AF     		add	r7, sp, #0
  95              		.cfi_def_cfa_register 7
  96 0006 0023     		movs	r3, #0
  97 0008 7B60     		str	r3, [r7, #4]
  98              	.LBB18:
  99              	.LBB19:
 100              	.LBB20:
 101              	.LBB21:
 102              		.loc 2 493 3
 103 000a 7B68     		ldr	r3, [r7, #4]
 104              		.syntax unified
 105              	@ 493 "../../../os/common/ext/ARM/CMSIS/Core/Include/cmsis_gcc.h" 1
 106 000c 83F31188 		MSR basepri, r3
 107              	@ 0 "" 2
 108              		.loc 2 494 1
 109              		.thumb
 110              		.syntax unified
 111 0010 00BF     		nop
 112              	.LBE21:
 113              	.LBE20:
 114              		.loc 3 854 1
ARM GAS  C:\Users\DEVELO~1\AppData\Local\Temp\ccyCGzaf.s 			page 3


 115 0012 00BF     		nop
 116              	.LBE19:
 117              	.LBE18:
 118              		.loc 1 435 1
 119 0014 00BF     		nop
 120 0016 0C37     		adds	r7, r7, #12
 121              		.cfi_def_cfa_offset 4
 122 0018 BD46     		mov	sp, r7
 123              		.cfi_def_cfa_register 13
 124              		@ sp needed
 125 001a 80BC     		pop	{r7}
 126              		.cfi_restore 7
 127              		.cfi_def_cfa_offset 0
 128 001c 7047     		bx	lr
 129              		.cfi_endproc
 130              	.LFE203:
 131              		.size	chSysUnlock, .-chSysUnlock
 132              		.global	ch_memcore
 133              		.section	.bss.ch_memcore,"aw",%nobits
 134              		.align	2
 135              		.type	ch_memcore, %object
 136              		.size	ch_memcore, 8
 137              	ch_memcore:
 138 0000 00000000 		.space	8
 138      00000000 
 139              		.section	.text.__core_init,"ax",%progbits
 140              		.align	1
 141              		.global	__core_init
 142              		.syntax unified
 143              		.thumb
 144              		.thumb_func
 145              		.type	__core_init, %function
 146              	__core_init:
 147              	.LFB346:
 148              		.file 4 "../../../os/oslib/src/chmemcore.c"
 149              		.loc 4 81 24
 150              		.cfi_startproc
 151              		@ args = 0, pretend = 0, frame = 0
 152              		@ frame_needed = 1, uses_anonymous_args = 0
 153              		@ link register save eliminated.
 154 0000 80B4     		push	{r7}
 155              		.cfi_def_cfa_offset 4
 156              		.cfi_offset 7, -4
 157 0002 00AF     		add	r7, sp, #0
 158              		.cfi_def_cfa_register 7
 159              		.loc 4 87 22
 160 0004 044B     		ldr	r3, .L4
 161 0006 054A     		ldr	r2, .L4+4
 162 0008 1A60     		str	r2, [r3]
 163              		.loc 4 88 22
 164 000a 034B     		ldr	r3, .L4
 165 000c 044A     		ldr	r2, .L4+8
 166 000e 5A60     		str	r2, [r3, #4]
 167              		.loc 4 96 1
 168 0010 00BF     		nop
 169 0012 BD46     		mov	sp, r7
 170              		.cfi_def_cfa_register 13
ARM GAS  C:\Users\DEVELO~1\AppData\Local\Temp\ccyCGzaf.s 			page 4


 171              		@ sp needed
 172 0014 80BC     		pop	{r7}
 173              		.cfi_restore 7
 174              		.cfi_def_cfa_offset 0
 175 0016 7047     		bx	lr
 176              	.L5:
 177              		.align	2
 178              	.L4:
 179 0018 00000000 		.word	ch_memcore
 180 001c 00000000 		.word	__heap_base__
 181 0020 00000000 		.word	__heap_end__
 182              		.cfi_endproc
 183              	.LFE346:
 184              		.size	__core_init, .-__core_init
 185              		.section	.text.chCoreAllocFromBaseI,"ax",%progbits
 186              		.align	1
 187              		.global	chCoreAllocFromBaseI
 188              		.syntax unified
 189              		.thumb
 190              		.thumb_func
 191              		.type	chCoreAllocFromBaseI, %function
 192              	chCoreAllocFromBaseI:
 193              	.LFB347:
 194              		.loc 4 112 72
 195              		.cfi_startproc
 196              		@ args = 0, pretend = 0, frame = 24
 197              		@ frame_needed = 1, uses_anonymous_args = 0
 198              		@ link register save eliminated.
 199 0000 80B4     		push	{r7}
 200              		.cfi_def_cfa_offset 4
 201              		.cfi_offset 7, -4
 202 0002 87B0     		sub	sp, sp, #28
 203              		.cfi_def_cfa_offset 32
 204 0004 00AF     		add	r7, sp, #0
 205              		.cfi_def_cfa_register 7
 206 0006 F860     		str	r0, [r7, #12]
 207 0008 B960     		str	r1, [r7, #8]
 208 000a 7A60     		str	r2, [r7, #4]
 209              		.loc 4 118 18
 210 000c 124B     		ldr	r3, .L10
 211 000e 1A68     		ldr	r2, [r3]
 212 0010 7B68     		ldr	r3, [r7, #4]
 213 0012 1344     		add	r3, r3, r2
 214 0014 1A46     		mov	r2, r3
 215 0016 BB68     		ldr	r3, [r7, #8]
 216 0018 1344     		add	r3, r3, r2
 217 001a 5A1E     		subs	r2, r3, #1
 218 001c BB68     		ldr	r3, [r7, #8]
 219 001e 5B42     		rsbs	r3, r3, #0
 220 0020 1340     		ands	r3, r3, r2
 221              		.loc 4 118 5
 222 0022 7B61     		str	r3, [r7, #20]
 223              		.loc 4 119 8
 224 0024 7A69     		ldr	r2, [r7, #20]
 225 0026 FB68     		ldr	r3, [r7, #12]
 226 0028 1344     		add	r3, r3, r2
 227 002a 3B61     		str	r3, [r7, #16]
ARM GAS  C:\Users\DEVELO~1\AppData\Local\Temp\ccyCGzaf.s 			page 5


 228              		.loc 4 122 25
 229 002c 0A4B     		ldr	r3, .L10
 230 002e 5B68     		ldr	r3, [r3, #4]
 231              		.loc 4 122 6
 232 0030 3A69     		ldr	r2, [r7, #16]
 233 0032 9A42     		cmp	r2, r3
 234 0034 04D8     		bhi	.L7
 235              		.loc 4 122 55 discriminator 1
 236 0036 084B     		ldr	r3, .L10
 237 0038 1B68     		ldr	r3, [r3]
 238              		.loc 4 122 34 discriminator 1
 239 003a 3A69     		ldr	r2, [r7, #16]
 240 003c 9A42     		cmp	r2, r3
 241 003e 01D2     		bcs	.L8
 242              	.L7:
 243              		.loc 4 123 12
 244 0040 0023     		movs	r3, #0
 245 0042 03E0     		b	.L9
 246              	.L8:
 247              		.loc 4 126 22
 248 0044 044A     		ldr	r2, .L10
 249 0046 3B69     		ldr	r3, [r7, #16]
 250 0048 1360     		str	r3, [r2]
 251              		.loc 4 128 10
 252 004a 7B69     		ldr	r3, [r7, #20]
 253              	.L9:
 254              		.loc 4 129 1
 255 004c 1846     		mov	r0, r3
 256 004e 1C37     		adds	r7, r7, #28
 257              		.cfi_def_cfa_offset 4
 258 0050 BD46     		mov	sp, r7
 259              		.cfi_def_cfa_register 13
 260              		@ sp needed
 261 0052 80BC     		pop	{r7}
 262              		.cfi_restore 7
 263              		.cfi_def_cfa_offset 0
 264 0054 7047     		bx	lr
 265              	.L11:
 266 0056 00BF     		.align	2
 267              	.L10:
 268 0058 00000000 		.word	ch_memcore
 269              		.cfi_endproc
 270              	.LFE347:
 271              		.size	chCoreAllocFromBaseI, .-chCoreAllocFromBaseI
 272              		.section	.text.chCoreAllocFromTopI,"ax",%progbits
 273              		.align	1
 274              		.global	chCoreAllocFromTopI
 275              		.syntax unified
 276              		.thumb
 277              		.thumb_func
 278              		.type	chCoreAllocFromTopI, %function
 279              	chCoreAllocFromTopI:
 280              	.LFB348:
 281              		.loc 4 145 71
 282              		.cfi_startproc
 283              		@ args = 0, pretend = 0, frame = 24
 284              		@ frame_needed = 1, uses_anonymous_args = 0
ARM GAS  C:\Users\DEVELO~1\AppData\Local\Temp\ccyCGzaf.s 			page 6


 285              		@ link register save eliminated.
 286 0000 80B4     		push	{r7}
 287              		.cfi_def_cfa_offset 4
 288              		.cfi_offset 7, -4
 289 0002 87B0     		sub	sp, sp, #28
 290              		.cfi_def_cfa_offset 32
 291 0004 00AF     		add	r7, sp, #0
 292              		.cfi_def_cfa_register 7
 293 0006 F860     		str	r0, [r7, #12]
 294 0008 B960     		str	r1, [r7, #8]
 295 000a 7A60     		str	r2, [r7, #4]
 296              		.loc 4 151 18
 297 000c 114B     		ldr	r3, .L16
 298 000e 5A68     		ldr	r2, [r3, #4]
 299 0010 FB68     		ldr	r3, [r7, #12]
 300 0012 5B42     		rsbs	r3, r3, #0
 301 0014 1344     		add	r3, r3, r2
 302 0016 1A46     		mov	r2, r3
 303 0018 BB68     		ldr	r3, [r7, #8]
 304 001a 5B42     		rsbs	r3, r3, #0
 305 001c 1340     		ands	r3, r3, r2
 306              		.loc 4 151 5
 307 001e 7B61     		str	r3, [r7, #20]
 308              		.loc 4 152 12
 309 0020 7B68     		ldr	r3, [r7, #4]
 310 0022 5B42     		rsbs	r3, r3, #0
 311              		.loc 4 152 8
 312 0024 7A69     		ldr	r2, [r7, #20]
 313 0026 1344     		add	r3, r3, r2
 314 0028 3B61     		str	r3, [r7, #16]
 315              		.loc 4 155 25
 316 002a 0A4B     		ldr	r3, .L16
 317 002c 1B68     		ldr	r3, [r3]
 318              		.loc 4 155 6
 319 002e 3A69     		ldr	r2, [r7, #16]
 320 0030 9A42     		cmp	r2, r3
 321 0032 04D3     		bcc	.L13
 322              		.loc 4 155 56 discriminator 1
 323 0034 074B     		ldr	r3, .L16
 324 0036 5B68     		ldr	r3, [r3, #4]
 325              		.loc 4 155 35 discriminator 1
 326 0038 3A69     		ldr	r2, [r7, #16]
 327 003a 9A42     		cmp	r2, r3
 328 003c 01D9     		bls	.L14
 329              	.L13:
 330              		.loc 4 156 12
 331 003e 0023     		movs	r3, #0
 332 0040 03E0     		b	.L15
 333              	.L14:
 334              		.loc 4 159 21
 335 0042 044A     		ldr	r2, .L16
 336 0044 3B69     		ldr	r3, [r7, #16]
 337 0046 5360     		str	r3, [r2, #4]
 338              		.loc 4 161 10
 339 0048 7B69     		ldr	r3, [r7, #20]
 340              	.L15:
 341              		.loc 4 162 1
ARM GAS  C:\Users\DEVELO~1\AppData\Local\Temp\ccyCGzaf.s 			page 7


 342 004a 1846     		mov	r0, r3
 343 004c 1C37     		adds	r7, r7, #28
 344              		.cfi_def_cfa_offset 4
 345 004e BD46     		mov	sp, r7
 346              		.cfi_def_cfa_register 13
 347              		@ sp needed
 348 0050 80BC     		pop	{r7}
 349              		.cfi_restore 7
 350              		.cfi_def_cfa_offset 0
 351 0052 7047     		bx	lr
 352              	.L17:
 353              		.align	2
 354              	.L16:
 355 0054 00000000 		.word	ch_memcore
 356              		.cfi_endproc
 357              	.LFE348:
 358              		.size	chCoreAllocFromTopI, .-chCoreAllocFromTopI
 359              		.section	.text.chCoreAllocFromBase,"ax",%progbits
 360              		.align	1
 361              		.global	chCoreAllocFromBase
 362              		.syntax unified
 363              		.thumb
 364              		.thumb_func
 365              		.type	chCoreAllocFromBase, %function
 366              	chCoreAllocFromBase:
 367              	.LFB349:
 368              		.loc 4 178 71
 369              		.cfi_startproc
 370              		@ args = 0, pretend = 0, frame = 24
 371              		@ frame_needed = 1, uses_anonymous_args = 0
 372 0000 80B5     		push	{r7, lr}
 373              		.cfi_def_cfa_offset 8
 374              		.cfi_offset 7, -8
 375              		.cfi_offset 14, -4
 376 0002 86B0     		sub	sp, sp, #24
 377              		.cfi_def_cfa_offset 32
 378 0004 00AF     		add	r7, sp, #0
 379              		.cfi_def_cfa_register 7
 380 0006 F860     		str	r0, [r7, #12]
 381 0008 B960     		str	r1, [r7, #8]
 382 000a 7A60     		str	r2, [r7, #4]
 383              		.loc 4 181 3
 384 000c FFF7FEFF 		bl	chSysLock
 385              		.loc 4 182 7
 386 0010 7A68     		ldr	r2, [r7, #4]
 387 0012 B968     		ldr	r1, [r7, #8]
 388 0014 F868     		ldr	r0, [r7, #12]
 389 0016 FFF7FEFF 		bl	chCoreAllocFromBaseI
 390 001a 7861     		str	r0, [r7, #20]
 391              		.loc 4 183 3
 392 001c FFF7FEFF 		bl	chSysUnlock
 393              		.loc 4 185 10
 394 0020 7B69     		ldr	r3, [r7, #20]
 395              		.loc 4 186 1
 396 0022 1846     		mov	r0, r3
 397 0024 1837     		adds	r7, r7, #24
 398              		.cfi_def_cfa_offset 8
ARM GAS  C:\Users\DEVELO~1\AppData\Local\Temp\ccyCGzaf.s 			page 8


 399 0026 BD46     		mov	sp, r7
 400              		.cfi_def_cfa_register 13
 401              		@ sp needed
 402 0028 80BD     		pop	{r7, pc}
 403              		.cfi_endproc
 404              	.LFE349:
 405              		.size	chCoreAllocFromBase, .-chCoreAllocFromBase
 406              		.section	.text.chCoreAllocFromTop,"ax",%progbits
 407              		.align	1
 408              		.global	chCoreAllocFromTop
 409              		.syntax unified
 410              		.thumb
 411              		.thumb_func
 412              		.type	chCoreAllocFromTop, %function
 413              	chCoreAllocFromTop:
 414              	.LFB350:
 415              		.loc 4 202 70
 416              		.cfi_startproc
 417              		@ args = 0, pretend = 0, frame = 24
 418              		@ frame_needed = 1, uses_anonymous_args = 0
 419 0000 80B5     		push	{r7, lr}
 420              		.cfi_def_cfa_offset 8
 421              		.cfi_offset 7, -8
 422              		.cfi_offset 14, -4
 423 0002 86B0     		sub	sp, sp, #24
 424              		.cfi_def_cfa_offset 32
 425 0004 00AF     		add	r7, sp, #0
 426              		.cfi_def_cfa_register 7
 427 0006 F860     		str	r0, [r7, #12]
 428 0008 B960     		str	r1, [r7, #8]
 429 000a 7A60     		str	r2, [r7, #4]
 430              		.loc 4 205 3
 431 000c FFF7FEFF 		bl	chSysLock
 432              		.loc 4 206 7
 433 0010 7A68     		ldr	r2, [r7, #4]
 434 0012 B968     		ldr	r1, [r7, #8]
 435 0014 F868     		ldr	r0, [r7, #12]
 436 0016 FFF7FEFF 		bl	chCoreAllocFromTopI
 437 001a 7861     		str	r0, [r7, #20]
 438              		.loc 4 207 3
 439 001c FFF7FEFF 		bl	chSysUnlock
 440              		.loc 4 209 10
 441 0020 7B69     		ldr	r3, [r7, #20]
 442              		.loc 4 210 1
 443 0022 1846     		mov	r0, r3
 444 0024 1837     		adds	r7, r7, #24
 445              		.cfi_def_cfa_offset 8
 446 0026 BD46     		mov	sp, r7
 447              		.cfi_def_cfa_register 13
 448              		@ sp needed
 449 0028 80BD     		pop	{r7, pc}
 450              		.cfi_endproc
 451              	.LFE350:
 452              		.size	chCoreAllocFromTop, .-chCoreAllocFromTop
 453              		.section	.text.chCoreGetStatusX,"ax",%progbits
 454              		.align	1
 455              		.global	chCoreGetStatusX
ARM GAS  C:\Users\DEVELO~1\AppData\Local\Temp\ccyCGzaf.s 			page 9


 456              		.syntax unified
 457              		.thumb
 458              		.thumb_func
 459              		.type	chCoreGetStatusX, %function
 460              	chCoreGetStatusX:
 461              	.LFB351:
 462              		.loc 4 219 31
 463              		.cfi_startproc
 464              		@ args = 0, pretend = 0, frame = 0
 465              		@ frame_needed = 1, uses_anonymous_args = 0
 466              		@ link register save eliminated.
 467 0000 80B4     		push	{r7}
 468              		.cfi_def_cfa_offset 4
 469              		.cfi_offset 7, -4
 470 0002 00AF     		add	r7, sp, #0
 471              		.cfi_def_cfa_register 7
 472              		.loc 4 222 29
 473 0004 044B     		ldr	r3, .L24
 474 0006 5A68     		ldr	r2, [r3, #4]
 475              		.loc 4 222 49
 476 0008 034B     		ldr	r3, .L24
 477 000a 1B68     		ldr	r3, [r3]
 478              		.loc 4 222 37
 479 000c D31A     		subs	r3, r2, r3
 480              		.loc 4 224 1
 481 000e 1846     		mov	r0, r3
 482 0010 BD46     		mov	sp, r7
 483              		.cfi_def_cfa_register 13
 484              		@ sp needed
 485 0012 80BC     		pop	{r7}
 486              		.cfi_restore 7
 487              		.cfi_def_cfa_offset 0
 488 0014 7047     		bx	lr
 489              	.L25:
 490 0016 00BF     		.align	2
 491              	.L24:
 492 0018 00000000 		.word	ch_memcore
 493              		.cfi_endproc
 494              	.LFE351:
 495              		.size	chCoreGetStatusX, .-chCoreGetStatusX
 496              		.text
 497              	.Letext0:
 498              		.file 5 "c:\\chibistudio\\tools\\gnu tools arm embedded\\11.3 2022.08\\lib\\gcc\\arm-none-eabi\\11
 499              		.file 6 "c:\\chibistudio\\tools\\gnu tools arm embedded\\11.3 2022.08\\arm-none-eabi\\include\\mac
 500              		.file 7 "c:\\chibistudio\\tools\\gnu tools arm embedded\\11.3 2022.08\\arm-none-eabi\\include\\sys
 501              		.file 8 "../../../os/oslib/include/chmemcore.h"
 502              		.section	.debug_info,"",%progbits
 503              	.Ldebug_info0:
 504 0000 B0030000 		.4byte	0x3b0
 505 0004 0500     		.2byte	0x5
 506 0006 01       		.byte	0x1
 507 0007 04       		.byte	0x4
 508 0008 00000000 		.4byte	.Ldebug_abbrev0
 509 000c 12       		.uleb128 0x12
 510 000d 47010000 		.4byte	.LASF37
 511 0011 1D       		.byte	0x1d
 512 0012 00000000 		.4byte	.LASF38
ARM GAS  C:\Users\DEVELO~1\AppData\Local\Temp\ccyCGzaf.s 			page 10


 513 0016 DD000000 		.4byte	.LASF39
 514 001a 0C000000 		.4byte	.LLRL0
 515 001e 00000000 		.4byte	0
 516 0022 00000000 		.4byte	.Ldebug_line0
 517 0026 13       		.uleb128 0x13
 518 0027 04       		.byte	0x4
 519 0028 05       		.byte	0x5
 520 0029 696E7400 		.ascii	"int\000"
 521 002d 03       		.uleb128 0x3
 522 002e 2C000000 		.4byte	.LASF4
 523 0032 05       		.byte	0x5
 524 0033 D1       		.byte	0xd1
 525 0034 17       		.byte	0x17
 526 0035 39000000 		.4byte	0x39
 527 0039 01       		.uleb128 0x1
 528 003a 04       		.byte	0x4
 529 003b 07       		.byte	0x7
 530 003c E7010000 		.4byte	.LASF0
 531 0040 01       		.uleb128 0x1
 532 0041 08       		.byte	0x8
 533 0042 05       		.byte	0x5
 534 0043 56020000 		.4byte	.LASF1
 535 0047 01       		.uleb128 0x1
 536 0048 08       		.byte	0x8
 537 0049 04       		.byte	0x4
 538 004a B3020000 		.4byte	.LASF2
 539 004e 01       		.uleb128 0x1
 540 004f 01       		.byte	0x1
 541 0050 06       		.byte	0x6
 542 0051 BF020000 		.4byte	.LASF3
 543 0055 03       		.uleb128 0x3
 544 0056 22000000 		.4byte	.LASF5
 545 005a 06       		.byte	0x6
 546 005b 2B       		.byte	0x2b
 547 005c 18       		.byte	0x18
 548 005d 61000000 		.4byte	0x61
 549 0061 01       		.uleb128 0x1
 550 0062 01       		.byte	0x1
 551 0063 08       		.byte	0x8
 552 0064 AA000000 		.4byte	.LASF6
 553 0068 01       		.uleb128 0x1
 554 0069 02       		.byte	0x2
 555 006a 05       		.byte	0x5
 556 006b 7B020000 		.4byte	.LASF7
 557 006f 01       		.uleb128 0x1
 558 0070 02       		.byte	0x2
 559 0071 07       		.byte	0x7
 560 0072 CA000000 		.4byte	.LASF8
 561 0076 01       		.uleb128 0x1
 562 0077 04       		.byte	0x4
 563 0078 05       		.byte	0x5
 564 0079 AA020000 		.4byte	.LASF9
 565 007d 03       		.uleb128 0x3
 566 007e 3C010000 		.4byte	.LASF10
 567 0082 06       		.byte	0x6
 568 0083 4F       		.byte	0x4f
 569 0084 19       		.byte	0x19
ARM GAS  C:\Users\DEVELO~1\AppData\Local\Temp\ccyCGzaf.s 			page 11


 570 0085 89000000 		.4byte	0x89
 571 0089 01       		.uleb128 0x1
 572 008a 04       		.byte	0x4
 573 008b 07       		.byte	0x7
 574 008c B8000000 		.4byte	.LASF11
 575 0090 01       		.uleb128 0x1
 576 0091 08       		.byte	0x8
 577 0092 07       		.byte	0x7
 578 0093 85000000 		.4byte	.LASF12
 579 0097 03       		.uleb128 0x3
 580 0098 F9010000 		.4byte	.LASF13
 581 009c 07       		.byte	0x7
 582 009d 18       		.byte	0x18
 583 009e 13       		.byte	0x13
 584 009f 55000000 		.4byte	0x55
 585 00a3 03       		.uleb128 0x3
 586 00a4 A1020000 		.4byte	.LASF14
 587 00a8 07       		.byte	0x7
 588 00a9 30       		.byte	0x30
 589 00aa 14       		.byte	0x14
 590 00ab 7D000000 		.4byte	0x7d
 591 00af 01       		.uleb128 0x1
 592 00b0 01       		.byte	0x1
 593 00b1 08       		.byte	0x8
 594 00b2 F4010000 		.4byte	.LASF15
 595 00b6 04       		.uleb128 0x4
 596 00b7 AF000000 		.4byte	0xaf
 597 00bb 14       		.uleb128 0x14
 598 00bc 04       		.byte	0x4
 599 00bd 01       		.uleb128 0x1
 600 00be 01       		.byte	0x1
 601 00bf 02       		.byte	0x2
 602 00c0 D0020000 		.4byte	.LASF16
 603 00c4 15       		.uleb128 0x15
 604 00c5 08       		.byte	0x8
 605 00c6 08       		.byte	0x8
 606 00c7 51       		.byte	0x51
 607 00c8 09       		.byte	0x9
 608 00c9 E4000000 		.4byte	0xe4
 609 00cd 0B       		.uleb128 0xb
 610 00ce 99020000 		.4byte	.LASF17
 611 00d2 55       		.byte	0x55
 612 00d3 E4000000 		.4byte	0xe4
 613 00d7 00       		.byte	0
 614 00d8 0B       		.uleb128 0xb
 615 00d9 01020000 		.4byte	.LASF18
 616 00dd 59       		.byte	0x59
 617 00de E4000000 		.4byte	0xe4
 618 00e2 04       		.byte	0x4
 619 00e3 00       		.byte	0
 620 00e4 16       		.uleb128 0x16
 621 00e5 04       		.byte	0x4
 622 00e6 97000000 		.4byte	0x97
 623 00ea 03       		.uleb128 0x3
 624 00eb 66000000 		.4byte	.LASF19
 625 00ef 08       		.byte	0x8
 626 00f0 5A       		.byte	0x5a
ARM GAS  C:\Users\DEVELO~1\AppData\Local\Temp\ccyCGzaf.s 			page 12


 627 00f1 03       		.byte	0x3
 628 00f2 C4000000 		.4byte	0xc4
 629 00f6 08       		.uleb128 0x8
 630 00f7 D2010000 		.4byte	.LASF30
 631 00fb 08       		.byte	0x8
 632 00fc 75       		.byte	0x75
 633 00fd EA000000 		.4byte	0xea
 634 0101 17       		.uleb128 0x17
 635 0102 F6000000 		.4byte	0xf6
 636 0106 04       		.byte	0x4
 637 0107 3A       		.byte	0x3a
 638 0108 0B       		.byte	0xb
 639 0109 05       		.uleb128 0x5
 640 010a 03       		.byte	0x3
 641 010b 00000000 		.4byte	ch_memcore
 642 010f 18       		.uleb128 0x18
 643 0110 45020000 		.4byte	.LASF40
 644 0114 04       		.byte	0x4
 645 0115 DB       		.byte	0xdb
 646 0116 08       		.byte	0x8
 647 0117 2D000000 		.4byte	0x2d
 648 011b 00000000 		.4byte	.LFB351
 649 011f 1C000000 		.4byte	.LFE351-.LFB351
 650 0123 01       		.uleb128 0x1
 651 0124 9C       		.byte	0x9c
 652 0125 0C       		.uleb128 0xc
 653 0126 1E020000 		.4byte	.LASF23
 654 012a CA       		.byte	0xca
 655 012b BB000000 		.4byte	0xbb
 656 012f 00000000 		.4byte	.LFB350
 657 0133 2A000000 		.4byte	.LFE350-.LFB350
 658 0137 01       		.uleb128 0x1
 659 0138 9C       		.byte	0x9c
 660 0139 74010000 		.4byte	0x174
 661 013d 02       		.uleb128 0x2
 662 013e CB020000 		.4byte	.LASF20
 663 0142 CA       		.byte	0xca
 664 0143 21       		.byte	0x21
 665 0144 2D000000 		.4byte	0x2d
 666 0148 02       		.uleb128 0x2
 667 0149 91       		.byte	0x91
 668 014a 6C       		.sleb128 -20
 669 014b 02       		.uleb128 0x2
 670 014c 3F000000 		.4byte	.LASF21
 671 0150 CA       		.byte	0xca
 672 0151 30       		.byte	0x30
 673 0152 39000000 		.4byte	0x39
 674 0156 02       		.uleb128 0x2
 675 0157 91       		.byte	0x91
 676 0158 68       		.sleb128 -24
 677 0159 02       		.uleb128 0x2
 678 015a 38000000 		.4byte	.LASF22
 679 015e CA       		.byte	0xca
 680 015f 3E       		.byte	0x3e
 681 0160 2D000000 		.4byte	0x2d
 682 0164 02       		.uleb128 0x2
 683 0165 91       		.byte	0x91
ARM GAS  C:\Users\DEVELO~1\AppData\Local\Temp\ccyCGzaf.s 			page 13


 684 0166 64       		.sleb128 -28
 685 0167 05       		.uleb128 0x5
 686 0168 7000     		.ascii	"p\000"
 687 016a CB       		.byte	0xcb
 688 016b 09       		.byte	0x9
 689 016c BB000000 		.4byte	0xbb
 690 0170 02       		.uleb128 0x2
 691 0171 91       		.byte	0x91
 692 0172 74       		.sleb128 -12
 693 0173 00       		.byte	0
 694 0174 0C       		.uleb128 0xc
 695 0175 85020000 		.4byte	.LASF24
 696 0179 B2       		.byte	0xb2
 697 017a BB000000 		.4byte	0xbb
 698 017e 00000000 		.4byte	.LFB349
 699 0182 2A000000 		.4byte	.LFE349-.LFB349
 700 0186 01       		.uleb128 0x1
 701 0187 9C       		.byte	0x9c
 702 0188 C3010000 		.4byte	0x1c3
 703 018c 02       		.uleb128 0x2
 704 018d CB020000 		.4byte	.LASF20
 705 0191 B2       		.byte	0xb2
 706 0192 22       		.byte	0x22
 707 0193 2D000000 		.4byte	0x2d
 708 0197 02       		.uleb128 0x2
 709 0198 91       		.byte	0x91
 710 0199 6C       		.sleb128 -20
 711 019a 02       		.uleb128 0x2
 712 019b 3F000000 		.4byte	.LASF21
 713 019f B2       		.byte	0xb2
 714 01a0 31       		.byte	0x31
 715 01a1 39000000 		.4byte	0x39
 716 01a5 02       		.uleb128 0x2
 717 01a6 91       		.byte	0x91
 718 01a7 68       		.sleb128 -24
 719 01a8 02       		.uleb128 0x2
 720 01a9 38000000 		.4byte	.LASF22
 721 01ad B2       		.byte	0xb2
 722 01ae 3F       		.byte	0x3f
 723 01af 2D000000 		.4byte	0x2d
 724 01b3 02       		.uleb128 0x2
 725 01b4 91       		.byte	0x91
 726 01b5 64       		.sleb128 -28
 727 01b6 05       		.uleb128 0x5
 728 01b7 7000     		.ascii	"p\000"
 729 01b9 B3       		.byte	0xb3
 730 01ba 09       		.byte	0x9
 731 01bb BB000000 		.4byte	0xbb
 732 01bf 02       		.uleb128 0x2
 733 01c0 91       		.byte	0x91
 734 01c1 74       		.sleb128 -12
 735 01c2 00       		.byte	0
 736 01c3 0D       		.uleb128 0xd
 737 01c4 31020000 		.4byte	.LASF25
 738 01c8 91       		.byte	0x91
 739 01c9 BB000000 		.4byte	0xbb
 740 01cd 00000000 		.4byte	.LFB348
ARM GAS  C:\Users\DEVELO~1\AppData\Local\Temp\ccyCGzaf.s 			page 14


 741 01d1 58000000 		.4byte	.LFE348-.LFB348
 742 01d5 01       		.uleb128 0x1
 743 01d6 9C       		.byte	0x9c
 744 01d7 28020000 		.4byte	0x228
 745 01db 02       		.uleb128 0x2
 746 01dc CB020000 		.4byte	.LASF20
 747 01e0 91       		.byte	0x91
 748 01e1 22       		.byte	0x22
 749 01e2 2D000000 		.4byte	0x2d
 750 01e6 02       		.uleb128 0x2
 751 01e7 91       		.byte	0x91
 752 01e8 6C       		.sleb128 -20
 753 01e9 02       		.uleb128 0x2
 754 01ea 3F000000 		.4byte	.LASF21
 755 01ee 91       		.byte	0x91
 756 01ef 31       		.byte	0x31
 757 01f0 39000000 		.4byte	0x39
 758 01f4 02       		.uleb128 0x2
 759 01f5 91       		.byte	0x91
 760 01f6 68       		.sleb128 -24
 761 01f7 02       		.uleb128 0x2
 762 01f8 38000000 		.4byte	.LASF22
 763 01fc 91       		.byte	0x91
 764 01fd 3F       		.byte	0x3f
 765 01fe 2D000000 		.4byte	0x2d
 766 0202 02       		.uleb128 0x2
 767 0203 91       		.byte	0x91
 768 0204 64       		.sleb128 -28
 769 0205 05       		.uleb128 0x5
 770 0206 7000     		.ascii	"p\000"
 771 0208 92       		.byte	0x92
 772 0209 0C       		.byte	0xc
 773 020a E4000000 		.4byte	0xe4
 774 020e 02       		.uleb128 0x2
 775 020f 91       		.byte	0x91
 776 0210 74       		.sleb128 -12
 777 0211 0E       		.uleb128 0xe
 778 0212 D6020000 		.4byte	.LASF26
 779 0216 92       		.byte	0x92
 780 0217 E4000000 		.4byte	0xe4
 781 021b 02       		.uleb128 0x2
 782 021c 91       		.byte	0x91
 783 021d 70       		.sleb128 -16
 784 021e 09       		.uleb128 0x9
 785 021f 7C000000 		.4byte	.LASF29
 786 0223 38020000 		.4byte	0x238
 787 0227 00       		.byte	0
 788 0228 06       		.uleb128 0x6
 789 0229 B6000000 		.4byte	0xb6
 790 022d 38020000 		.4byte	0x238
 791 0231 0A       		.uleb128 0xa
 792 0232 39000000 		.4byte	0x39
 793 0236 13       		.byte	0x13
 794 0237 00       		.byte	0
 795 0238 04       		.uleb128 0x4
 796 0239 28020000 		.4byte	0x228
 797 023d 0D       		.uleb128 0xd
ARM GAS  C:\Users\DEVELO~1\AppData\Local\Temp\ccyCGzaf.s 			page 15


 798 023e 51000000 		.4byte	.LASF27
 799 0242 70       		.byte	0x70
 800 0243 BB000000 		.4byte	0xbb
 801 0247 00000000 		.4byte	.LFB347
 802 024b 5C000000 		.4byte	.LFE347-.LFB347
 803 024f 01       		.uleb128 0x1
 804 0250 9C       		.byte	0x9c
 805 0251 A2020000 		.4byte	0x2a2
 806 0255 02       		.uleb128 0x2
 807 0256 CB020000 		.4byte	.LASF20
 808 025a 70       		.byte	0x70
 809 025b 23       		.byte	0x23
 810 025c 2D000000 		.4byte	0x2d
 811 0260 02       		.uleb128 0x2
 812 0261 91       		.byte	0x91
 813 0262 6C       		.sleb128 -20
 814 0263 02       		.uleb128 0x2
 815 0264 3F000000 		.4byte	.LASF21
 816 0268 70       		.byte	0x70
 817 0269 32       		.byte	0x32
 818 026a 39000000 		.4byte	0x39
 819 026e 02       		.uleb128 0x2
 820 026f 91       		.byte	0x91
 821 0270 68       		.sleb128 -24
 822 0271 02       		.uleb128 0x2
 823 0272 38000000 		.4byte	.LASF22
 824 0276 70       		.byte	0x70
 825 0277 40       		.byte	0x40
 826 0278 2D000000 		.4byte	0x2d
 827 027c 02       		.uleb128 0x2
 828 027d 91       		.byte	0x91
 829 027e 64       		.sleb128 -28
 830 027f 05       		.uleb128 0x5
 831 0280 7000     		.ascii	"p\000"
 832 0282 71       		.byte	0x71
 833 0283 0C       		.byte	0xc
 834 0284 E4000000 		.4byte	0xe4
 835 0288 02       		.uleb128 0x2
 836 0289 91       		.byte	0x91
 837 028a 74       		.sleb128 -12
 838 028b 0E       		.uleb128 0xe
 839 028c 33000000 		.4byte	.LASF28
 840 0290 71       		.byte	0x71
 841 0291 E4000000 		.4byte	0xe4
 842 0295 02       		.uleb128 0x2
 843 0296 91       		.byte	0x91
 844 0297 70       		.sleb128 -16
 845 0298 09       		.uleb128 0x9
 846 0299 7C000000 		.4byte	.LASF29
 847 029d B2020000 		.4byte	0x2b2
 848 02a1 00       		.byte	0
 849 02a2 06       		.uleb128 0x6
 850 02a3 B6000000 		.4byte	0xb6
 851 02a7 B2020000 		.4byte	0x2b2
 852 02ab 0A       		.uleb128 0xa
 853 02ac 39000000 		.4byte	0x39
 854 02b0 14       		.byte	0x14
ARM GAS  C:\Users\DEVELO~1\AppData\Local\Temp\ccyCGzaf.s 			page 16


 855 02b1 00       		.byte	0
 856 02b2 04       		.uleb128 0x4
 857 02b3 A2020000 		.4byte	0x2a2
 858 02b7 19       		.uleb128 0x19
 859 02b8 45000000 		.4byte	.LASF41
 860 02bc 04       		.byte	0x4
 861 02bd 51       		.byte	0x51
 862 02be 06       		.byte	0x6
 863 02bf 00000000 		.4byte	.LFB346
 864 02c3 24000000 		.4byte	.LFE346-.LFB346
 865 02c7 01       		.uleb128 0x1
 866 02c8 9C       		.byte	0x9c
 867 02c9 E4020000 		.4byte	0x2e4
 868 02cd 08       		.uleb128 0x8
 869 02ce 08020000 		.4byte	.LASF31
 870 02d2 04       		.byte	0x4
 871 02d3 53       		.byte	0x53
 872 02d4 E4020000 		.4byte	0x2e4
 873 02d8 08       		.uleb128 0x8
 874 02d9 64020000 		.4byte	.LASF32
 875 02dd 04       		.byte	0x4
 876 02de 54       		.byte	0x54
 877 02df E4020000 		.4byte	0x2e4
 878 02e3 00       		.byte	0
 879 02e4 06       		.uleb128 0x6
 880 02e5 97000000 		.4byte	0x97
 881 02e9 EF020000 		.4byte	0x2ef
 882 02ed 1A       		.uleb128 0x1a
 883 02ee 00       		.byte	0
 884 02ef 0F       		.uleb128 0xf
 885 02f0 DB020000 		.4byte	.LASF33
 886 02f4 A501     		.2byte	0x1a5
 887 02f6 00000000 		.4byte	.LFB203
 888 02fa 1E000000 		.4byte	.LFE203-.LFB203
 889 02fe 01       		.uleb128 0x1
 890 02ff 9C       		.byte	0x9c
 891 0300 38030000 		.4byte	0x338
 892 0304 09       		.uleb128 0x9
 893 0305 7C000000 		.4byte	.LASF29
 894 0309 48030000 		.4byte	0x348
 895 030d 07       		.uleb128 0x7
 896 030e 8D030000 		.4byte	0x38d
 897 0312 0A000000 		.4byte	.LBB18
 898 0316 0A000000 		.4byte	.LBE18-.LBB18
 899 031a 01       		.byte	0x1
 900 031b B201     		.2byte	0x1b2
 901 031d 07       		.uleb128 0x7
 902 031e 9B030000 		.4byte	0x39b
 903 0322 0A000000 		.4byte	.LBB20
 904 0326 08000000 		.4byte	.LBE20-.LBB20
 905 032a 03       		.byte	0x3
 906 032b 5203     		.2byte	0x352
 907 032d 10       		.uleb128 0x10
 908 032e A5030000 		.4byte	0x3a5
 909 0332 02       		.uleb128 0x2
 910 0333 91       		.byte	0x91
 911 0334 74       		.sleb128 -12
ARM GAS  C:\Users\DEVELO~1\AppData\Local\Temp\ccyCGzaf.s 			page 17


 912 0335 00       		.byte	0
 913 0336 00       		.byte	0
 914 0337 00       		.byte	0
 915 0338 06       		.uleb128 0x6
 916 0339 B6000000 		.4byte	0xb6
 917 033d 48030000 		.4byte	0x348
 918 0341 0A       		.uleb128 0xa
 919 0342 39000000 		.4byte	0x39
 920 0346 0B       		.byte	0xb
 921 0347 00       		.byte	0
 922 0348 04       		.uleb128 0x4
 923 0349 38030000 		.4byte	0x338
 924 034d 0F       		.uleb128 0xf
 925 034e 71020000 		.4byte	.LASF34
 926 0352 9701     		.2byte	0x197
 927 0354 00000000 		.4byte	.LFB202
 928 0358 1E000000 		.4byte	.LFE202-.LFB202
 929 035c 01       		.uleb128 0x1
 930 035d 9C       		.byte	0x9c
 931 035e 8D030000 		.4byte	0x38d
 932 0362 07       		.uleb128 0x7
 933 0363 94030000 		.4byte	0x394
 934 0367 0A000000 		.4byte	.LBB14
 935 036b 0A000000 		.4byte	.LBE14-.LBB14
 936 036f 01       		.byte	0x1
 937 0370 9901     		.2byte	0x199
 938 0372 07       		.uleb128 0x7
 939 0373 9B030000 		.4byte	0x39b
 940 0377 0A000000 		.4byte	.LBB16
 941 037b 08000000 		.4byte	.LBE16-.LBB16
 942 037f 03       		.byte	0x3
 943 0380 3F03     		.2byte	0x33f
 944 0382 10       		.uleb128 0x10
 945 0383 A5030000 		.4byte	0x3a5
 946 0387 02       		.uleb128 0x2
 947 0388 91       		.byte	0x91
 948 0389 74       		.sleb128 -12
 949 038a 00       		.byte	0
 950 038b 00       		.byte	0
 951 038c 00       		.byte	0
 952 038d 11       		.uleb128 0x11
 953 038e 70000000 		.4byte	.LASF35
 954 0392 4F03     		.2byte	0x34f
 955 0394 11       		.uleb128 0x11
 956 0395 DD010000 		.4byte	.LASF36
 957 0399 3703     		.2byte	0x337
 958 039b 1B       		.uleb128 0x1b
 959 039c 9C000000 		.4byte	.LASF42
 960 03a0 02       		.byte	0x2
 961 03a1 EB01     		.2byte	0x1eb
 962 03a3 1B       		.byte	0x1b
 963 03a4 03       		.byte	0x3
 964 03a5 1C       		.uleb128 0x1c
 965 03a6 16020000 		.4byte	.LASF43
 966 03aa 02       		.byte	0x2
 967 03ab EB01     		.2byte	0x1eb
 968 03ad 32       		.byte	0x32
ARM GAS  C:\Users\DEVELO~1\AppData\Local\Temp\ccyCGzaf.s 			page 18


 969 03ae A3000000 		.4byte	0xa3
 970 03b2 00       		.byte	0
 971 03b3 00       		.byte	0
 972              		.section	.debug_abbrev,"",%progbits
 973              	.Ldebug_abbrev0:
 974 0000 01       		.uleb128 0x1
 975 0001 24       		.uleb128 0x24
 976 0002 00       		.byte	0
 977 0003 0B       		.uleb128 0xb
 978 0004 0B       		.uleb128 0xb
 979 0005 3E       		.uleb128 0x3e
 980 0006 0B       		.uleb128 0xb
 981 0007 03       		.uleb128 0x3
 982 0008 0E       		.uleb128 0xe
 983 0009 00       		.byte	0
 984 000a 00       		.byte	0
 985 000b 02       		.uleb128 0x2
 986 000c 05       		.uleb128 0x5
 987 000d 00       		.byte	0
 988 000e 03       		.uleb128 0x3
 989 000f 0E       		.uleb128 0xe
 990 0010 3A       		.uleb128 0x3a
 991 0011 21       		.uleb128 0x21
 992 0012 04       		.sleb128 4
 993 0013 3B       		.uleb128 0x3b
 994 0014 0B       		.uleb128 0xb
 995 0015 39       		.uleb128 0x39
 996 0016 0B       		.uleb128 0xb
 997 0017 49       		.uleb128 0x49
 998 0018 13       		.uleb128 0x13
 999 0019 02       		.uleb128 0x2
 1000 001a 18       		.uleb128 0x18
 1001 001b 00       		.byte	0
 1002 001c 00       		.byte	0
 1003 001d 03       		.uleb128 0x3
 1004 001e 16       		.uleb128 0x16
 1005 001f 00       		.byte	0
 1006 0020 03       		.uleb128 0x3
 1007 0021 0E       		.uleb128 0xe
 1008 0022 3A       		.uleb128 0x3a
 1009 0023 0B       		.uleb128 0xb
 1010 0024 3B       		.uleb128 0x3b
 1011 0025 0B       		.uleb128 0xb
 1012 0026 39       		.uleb128 0x39
 1013 0027 0B       		.uleb128 0xb
 1014 0028 49       		.uleb128 0x49
 1015 0029 13       		.uleb128 0x13
 1016 002a 00       		.byte	0
 1017 002b 00       		.byte	0
 1018 002c 04       		.uleb128 0x4
 1019 002d 26       		.uleb128 0x26
 1020 002e 00       		.byte	0
 1021 002f 49       		.uleb128 0x49
 1022 0030 13       		.uleb128 0x13
 1023 0031 00       		.byte	0
 1024 0032 00       		.byte	0
 1025 0033 05       		.uleb128 0x5
ARM GAS  C:\Users\DEVELO~1\AppData\Local\Temp\ccyCGzaf.s 			page 19


 1026 0034 34       		.uleb128 0x34
 1027 0035 00       		.byte	0
 1028 0036 03       		.uleb128 0x3
 1029 0037 08       		.uleb128 0x8
 1030 0038 3A       		.uleb128 0x3a
 1031 0039 21       		.uleb128 0x21
 1032 003a 04       		.sleb128 4
 1033 003b 3B       		.uleb128 0x3b
 1034 003c 0B       		.uleb128 0xb
 1035 003d 39       		.uleb128 0x39
 1036 003e 0B       		.uleb128 0xb
 1037 003f 49       		.uleb128 0x49
 1038 0040 13       		.uleb128 0x13
 1039 0041 02       		.uleb128 0x2
 1040 0042 18       		.uleb128 0x18
 1041 0043 00       		.byte	0
 1042 0044 00       		.byte	0
 1043 0045 06       		.uleb128 0x6
 1044 0046 01       		.uleb128 0x1
 1045 0047 01       		.byte	0x1
 1046 0048 49       		.uleb128 0x49
 1047 0049 13       		.uleb128 0x13
 1048 004a 01       		.uleb128 0x1
 1049 004b 13       		.uleb128 0x13
 1050 004c 00       		.byte	0
 1051 004d 00       		.byte	0
 1052 004e 07       		.uleb128 0x7
 1053 004f 1D       		.uleb128 0x1d
 1054 0050 01       		.byte	0x1
 1055 0051 31       		.uleb128 0x31
 1056 0052 13       		.uleb128 0x13
 1057 0053 11       		.uleb128 0x11
 1058 0054 01       		.uleb128 0x1
 1059 0055 12       		.uleb128 0x12
 1060 0056 06       		.uleb128 0x6
 1061 0057 58       		.uleb128 0x58
 1062 0058 0B       		.uleb128 0xb
 1063 0059 59       		.uleb128 0x59
 1064 005a 05       		.uleb128 0x5
 1065 005b 57       		.uleb128 0x57
 1066 005c 21       		.uleb128 0x21
 1067 005d 03       		.sleb128 3
 1068 005e 00       		.byte	0
 1069 005f 00       		.byte	0
 1070 0060 08       		.uleb128 0x8
 1071 0061 34       		.uleb128 0x34
 1072 0062 00       		.byte	0
 1073 0063 03       		.uleb128 0x3
 1074 0064 0E       		.uleb128 0xe
 1075 0065 3A       		.uleb128 0x3a
 1076 0066 0B       		.uleb128 0xb
 1077 0067 3B       		.uleb128 0x3b
 1078 0068 0B       		.uleb128 0xb
 1079 0069 39       		.uleb128 0x39
 1080 006a 21       		.uleb128 0x21
 1081 006b 12       		.sleb128 18
 1082 006c 49       		.uleb128 0x49
ARM GAS  C:\Users\DEVELO~1\AppData\Local\Temp\ccyCGzaf.s 			page 20


 1083 006d 13       		.uleb128 0x13
 1084 006e 3F       		.uleb128 0x3f
 1085 006f 19       		.uleb128 0x19
 1086 0070 3C       		.uleb128 0x3c
 1087 0071 19       		.uleb128 0x19
 1088 0072 00       		.byte	0
 1089 0073 00       		.byte	0
 1090 0074 09       		.uleb128 0x9
 1091 0075 34       		.uleb128 0x34
 1092 0076 00       		.byte	0
 1093 0077 03       		.uleb128 0x3
 1094 0078 0E       		.uleb128 0xe
 1095 0079 49       		.uleb128 0x49
 1096 007a 13       		.uleb128 0x13
 1097 007b 34       		.uleb128 0x34
 1098 007c 19       		.uleb128 0x19
 1099 007d 00       		.byte	0
 1100 007e 00       		.byte	0
 1101 007f 0A       		.uleb128 0xa
 1102 0080 21       		.uleb128 0x21
 1103 0081 00       		.byte	0
 1104 0082 49       		.uleb128 0x49
 1105 0083 13       		.uleb128 0x13
 1106 0084 2F       		.uleb128 0x2f
 1107 0085 0B       		.uleb128 0xb
 1108 0086 00       		.byte	0
 1109 0087 00       		.byte	0
 1110 0088 0B       		.uleb128 0xb
 1111 0089 0D       		.uleb128 0xd
 1112 008a 00       		.byte	0
 1113 008b 03       		.uleb128 0x3
 1114 008c 0E       		.uleb128 0xe
 1115 008d 3A       		.uleb128 0x3a
 1116 008e 21       		.uleb128 0x21
 1117 008f 08       		.sleb128 8
 1118 0090 3B       		.uleb128 0x3b
 1119 0091 0B       		.uleb128 0xb
 1120 0092 39       		.uleb128 0x39
 1121 0093 21       		.uleb128 0x21
 1122 0094 0C       		.sleb128 12
 1123 0095 49       		.uleb128 0x49
 1124 0096 13       		.uleb128 0x13
 1125 0097 38       		.uleb128 0x38
 1126 0098 0B       		.uleb128 0xb
 1127 0099 00       		.byte	0
 1128 009a 00       		.byte	0
 1129 009b 0C       		.uleb128 0xc
 1130 009c 2E       		.uleb128 0x2e
 1131 009d 01       		.byte	0x1
 1132 009e 3F       		.uleb128 0x3f
 1133 009f 19       		.uleb128 0x19
 1134 00a0 03       		.uleb128 0x3
 1135 00a1 0E       		.uleb128 0xe
 1136 00a2 3A       		.uleb128 0x3a
 1137 00a3 21       		.uleb128 0x21
 1138 00a4 04       		.sleb128 4
 1139 00a5 3B       		.uleb128 0x3b
ARM GAS  C:\Users\DEVELO~1\AppData\Local\Temp\ccyCGzaf.s 			page 21


 1140 00a6 0B       		.uleb128 0xb
 1141 00a7 39       		.uleb128 0x39
 1142 00a8 21       		.uleb128 0x21
 1143 00a9 07       		.sleb128 7
 1144 00aa 27       		.uleb128 0x27
 1145 00ab 19       		.uleb128 0x19
 1146 00ac 49       		.uleb128 0x49
 1147 00ad 13       		.uleb128 0x13
 1148 00ae 11       		.uleb128 0x11
 1149 00af 01       		.uleb128 0x1
 1150 00b0 12       		.uleb128 0x12
 1151 00b1 06       		.uleb128 0x6
 1152 00b2 40       		.uleb128 0x40
 1153 00b3 18       		.uleb128 0x18
 1154 00b4 7C       		.uleb128 0x7c
 1155 00b5 19       		.uleb128 0x19
 1156 00b6 01       		.uleb128 0x1
 1157 00b7 13       		.uleb128 0x13
 1158 00b8 00       		.byte	0
 1159 00b9 00       		.byte	0
 1160 00ba 0D       		.uleb128 0xd
 1161 00bb 2E       		.uleb128 0x2e
 1162 00bc 01       		.byte	0x1
 1163 00bd 3F       		.uleb128 0x3f
 1164 00be 19       		.uleb128 0x19
 1165 00bf 03       		.uleb128 0x3
 1166 00c0 0E       		.uleb128 0xe
 1167 00c1 3A       		.uleb128 0x3a
 1168 00c2 21       		.uleb128 0x21
 1169 00c3 04       		.sleb128 4
 1170 00c4 3B       		.uleb128 0x3b
 1171 00c5 0B       		.uleb128 0xb
 1172 00c6 39       		.uleb128 0x39
 1173 00c7 21       		.uleb128 0x21
 1174 00c8 07       		.sleb128 7
 1175 00c9 27       		.uleb128 0x27
 1176 00ca 19       		.uleb128 0x19
 1177 00cb 49       		.uleb128 0x49
 1178 00cc 13       		.uleb128 0x13
 1179 00cd 11       		.uleb128 0x11
 1180 00ce 01       		.uleb128 0x1
 1181 00cf 12       		.uleb128 0x12
 1182 00d0 06       		.uleb128 0x6
 1183 00d1 40       		.uleb128 0x40
 1184 00d2 18       		.uleb128 0x18
 1185 00d3 7A       		.uleb128 0x7a
 1186 00d4 19       		.uleb128 0x19
 1187 00d5 01       		.uleb128 0x1
 1188 00d6 13       		.uleb128 0x13
 1189 00d7 00       		.byte	0
 1190 00d8 00       		.byte	0
 1191 00d9 0E       		.uleb128 0xe
 1192 00da 34       		.uleb128 0x34
 1193 00db 00       		.byte	0
 1194 00dc 03       		.uleb128 0x3
 1195 00dd 0E       		.uleb128 0xe
 1196 00de 3A       		.uleb128 0x3a
ARM GAS  C:\Users\DEVELO~1\AppData\Local\Temp\ccyCGzaf.s 			page 22


 1197 00df 21       		.uleb128 0x21
 1198 00e0 04       		.sleb128 4
 1199 00e1 3B       		.uleb128 0x3b
 1200 00e2 0B       		.uleb128 0xb
 1201 00e3 39       		.uleb128 0x39
 1202 00e4 21       		.uleb128 0x21
 1203 00e5 10       		.sleb128 16
 1204 00e6 49       		.uleb128 0x49
 1205 00e7 13       		.uleb128 0x13
 1206 00e8 02       		.uleb128 0x2
 1207 00e9 18       		.uleb128 0x18
 1208 00ea 00       		.byte	0
 1209 00eb 00       		.byte	0
 1210 00ec 0F       		.uleb128 0xf
 1211 00ed 2E       		.uleb128 0x2e
 1212 00ee 01       		.byte	0x1
 1213 00ef 03       		.uleb128 0x3
 1214 00f0 0E       		.uleb128 0xe
 1215 00f1 3A       		.uleb128 0x3a
 1216 00f2 21       		.uleb128 0x21
 1217 00f3 01       		.sleb128 1
 1218 00f4 3B       		.uleb128 0x3b
 1219 00f5 05       		.uleb128 0x5
 1220 00f6 39       		.uleb128 0x39
 1221 00f7 21       		.uleb128 0x21
 1222 00f8 14       		.sleb128 20
 1223 00f9 27       		.uleb128 0x27
 1224 00fa 19       		.uleb128 0x19
 1225 00fb 11       		.uleb128 0x11
 1226 00fc 01       		.uleb128 0x1
 1227 00fd 12       		.uleb128 0x12
 1228 00fe 06       		.uleb128 0x6
 1229 00ff 40       		.uleb128 0x40
 1230 0100 18       		.uleb128 0x18
 1231 0101 7A       		.uleb128 0x7a
 1232 0102 19       		.uleb128 0x19
 1233 0103 01       		.uleb128 0x1
 1234 0104 13       		.uleb128 0x13
 1235 0105 00       		.byte	0
 1236 0106 00       		.byte	0
 1237 0107 10       		.uleb128 0x10
 1238 0108 05       		.uleb128 0x5
 1239 0109 00       		.byte	0
 1240 010a 31       		.uleb128 0x31
 1241 010b 13       		.uleb128 0x13
 1242 010c 02       		.uleb128 0x2
 1243 010d 18       		.uleb128 0x18
 1244 010e 00       		.byte	0
 1245 010f 00       		.byte	0
 1246 0110 11       		.uleb128 0x11
 1247 0111 2E       		.uleb128 0x2e
 1248 0112 00       		.byte	0
 1249 0113 03       		.uleb128 0x3
 1250 0114 0E       		.uleb128 0xe
 1251 0115 3A       		.uleb128 0x3a
 1252 0116 21       		.uleb128 0x21
 1253 0117 03       		.sleb128 3
ARM GAS  C:\Users\DEVELO~1\AppData\Local\Temp\ccyCGzaf.s 			page 23


 1254 0118 3B       		.uleb128 0x3b
 1255 0119 05       		.uleb128 0x5
 1256 011a 39       		.uleb128 0x39
 1257 011b 21       		.uleb128 0x21
 1258 011c 1B       		.sleb128 27
 1259 011d 27       		.uleb128 0x27
 1260 011e 19       		.uleb128 0x19
 1261 011f 20       		.uleb128 0x20
 1262 0120 21       		.uleb128 0x21
 1263 0121 03       		.sleb128 3
 1264 0122 00       		.byte	0
 1265 0123 00       		.byte	0
 1266 0124 12       		.uleb128 0x12
 1267 0125 11       		.uleb128 0x11
 1268 0126 01       		.byte	0x1
 1269 0127 25       		.uleb128 0x25
 1270 0128 0E       		.uleb128 0xe
 1271 0129 13       		.uleb128 0x13
 1272 012a 0B       		.uleb128 0xb
 1273 012b 03       		.uleb128 0x3
 1274 012c 0E       		.uleb128 0xe
 1275 012d 1B       		.uleb128 0x1b
 1276 012e 0E       		.uleb128 0xe
 1277 012f 55       		.uleb128 0x55
 1278 0130 17       		.uleb128 0x17
 1279 0131 11       		.uleb128 0x11
 1280 0132 01       		.uleb128 0x1
 1281 0133 10       		.uleb128 0x10
 1282 0134 17       		.uleb128 0x17
 1283 0135 00       		.byte	0
 1284 0136 00       		.byte	0
 1285 0137 13       		.uleb128 0x13
 1286 0138 24       		.uleb128 0x24
 1287 0139 00       		.byte	0
 1288 013a 0B       		.uleb128 0xb
 1289 013b 0B       		.uleb128 0xb
 1290 013c 3E       		.uleb128 0x3e
 1291 013d 0B       		.uleb128 0xb
 1292 013e 03       		.uleb128 0x3
 1293 013f 08       		.uleb128 0x8
 1294 0140 00       		.byte	0
 1295 0141 00       		.byte	0
 1296 0142 14       		.uleb128 0x14
 1297 0143 0F       		.uleb128 0xf
 1298 0144 00       		.byte	0
 1299 0145 0B       		.uleb128 0xb
 1300 0146 0B       		.uleb128 0xb
 1301 0147 00       		.byte	0
 1302 0148 00       		.byte	0
 1303 0149 15       		.uleb128 0x15
 1304 014a 13       		.uleb128 0x13
 1305 014b 01       		.byte	0x1
 1306 014c 0B       		.uleb128 0xb
 1307 014d 0B       		.uleb128 0xb
 1308 014e 3A       		.uleb128 0x3a
 1309 014f 0B       		.uleb128 0xb
 1310 0150 3B       		.uleb128 0x3b
ARM GAS  C:\Users\DEVELO~1\AppData\Local\Temp\ccyCGzaf.s 			page 24


 1311 0151 0B       		.uleb128 0xb
 1312 0152 39       		.uleb128 0x39
 1313 0153 0B       		.uleb128 0xb
 1314 0154 01       		.uleb128 0x1
 1315 0155 13       		.uleb128 0x13
 1316 0156 00       		.byte	0
 1317 0157 00       		.byte	0
 1318 0158 16       		.uleb128 0x16
 1319 0159 0F       		.uleb128 0xf
 1320 015a 00       		.byte	0
 1321 015b 0B       		.uleb128 0xb
 1322 015c 0B       		.uleb128 0xb
 1323 015d 49       		.uleb128 0x49
 1324 015e 13       		.uleb128 0x13
 1325 015f 00       		.byte	0
 1326 0160 00       		.byte	0
 1327 0161 17       		.uleb128 0x17
 1328 0162 34       		.uleb128 0x34
 1329 0163 00       		.byte	0
 1330 0164 47       		.uleb128 0x47
 1331 0165 13       		.uleb128 0x13
 1332 0166 3A       		.uleb128 0x3a
 1333 0167 0B       		.uleb128 0xb
 1334 0168 3B       		.uleb128 0x3b
 1335 0169 0B       		.uleb128 0xb
 1336 016a 39       		.uleb128 0x39
 1337 016b 0B       		.uleb128 0xb
 1338 016c 02       		.uleb128 0x2
 1339 016d 18       		.uleb128 0x18
 1340 016e 00       		.byte	0
 1341 016f 00       		.byte	0
 1342 0170 18       		.uleb128 0x18
 1343 0171 2E       		.uleb128 0x2e
 1344 0172 00       		.byte	0
 1345 0173 3F       		.uleb128 0x3f
 1346 0174 19       		.uleb128 0x19
 1347 0175 03       		.uleb128 0x3
 1348 0176 0E       		.uleb128 0xe
 1349 0177 3A       		.uleb128 0x3a
 1350 0178 0B       		.uleb128 0xb
 1351 0179 3B       		.uleb128 0x3b
 1352 017a 0B       		.uleb128 0xb
 1353 017b 39       		.uleb128 0x39
 1354 017c 0B       		.uleb128 0xb
 1355 017d 27       		.uleb128 0x27
 1356 017e 19       		.uleb128 0x19
 1357 017f 49       		.uleb128 0x49
 1358 0180 13       		.uleb128 0x13
 1359 0181 11       		.uleb128 0x11
 1360 0182 01       		.uleb128 0x1
 1361 0183 12       		.uleb128 0x12
 1362 0184 06       		.uleb128 0x6
 1363 0185 40       		.uleb128 0x40
 1364 0186 18       		.uleb128 0x18
 1365 0187 7A       		.uleb128 0x7a
 1366 0188 19       		.uleb128 0x19
 1367 0189 00       		.byte	0
ARM GAS  C:\Users\DEVELO~1\AppData\Local\Temp\ccyCGzaf.s 			page 25


 1368 018a 00       		.byte	0
 1369 018b 19       		.uleb128 0x19
 1370 018c 2E       		.uleb128 0x2e
 1371 018d 01       		.byte	0x1
 1372 018e 3F       		.uleb128 0x3f
 1373 018f 19       		.uleb128 0x19
 1374 0190 03       		.uleb128 0x3
 1375 0191 0E       		.uleb128 0xe
 1376 0192 3A       		.uleb128 0x3a
 1377 0193 0B       		.uleb128 0xb
 1378 0194 3B       		.uleb128 0x3b
 1379 0195 0B       		.uleb128 0xb
 1380 0196 39       		.uleb128 0x39
 1381 0197 0B       		.uleb128 0xb
 1382 0198 27       		.uleb128 0x27
 1383 0199 19       		.uleb128 0x19
 1384 019a 11       		.uleb128 0x11
 1385 019b 01       		.uleb128 0x1
 1386 019c 12       		.uleb128 0x12
 1387 019d 06       		.uleb128 0x6
 1388 019e 40       		.uleb128 0x40
 1389 019f 18       		.uleb128 0x18
 1390 01a0 7A       		.uleb128 0x7a
 1391 01a1 19       		.uleb128 0x19
 1392 01a2 01       		.uleb128 0x1
 1393 01a3 13       		.uleb128 0x13
 1394 01a4 00       		.byte	0
 1395 01a5 00       		.byte	0
 1396 01a6 1A       		.uleb128 0x1a
 1397 01a7 21       		.uleb128 0x21
 1398 01a8 00       		.byte	0
 1399 01a9 00       		.byte	0
 1400 01aa 00       		.byte	0
 1401 01ab 1B       		.uleb128 0x1b
 1402 01ac 2E       		.uleb128 0x2e
 1403 01ad 01       		.byte	0x1
 1404 01ae 03       		.uleb128 0x3
 1405 01af 0E       		.uleb128 0xe
 1406 01b0 3A       		.uleb128 0x3a
 1407 01b1 0B       		.uleb128 0xb
 1408 01b2 3B       		.uleb128 0x3b
 1409 01b3 05       		.uleb128 0x5
 1410 01b4 39       		.uleb128 0x39
 1411 01b5 0B       		.uleb128 0xb
 1412 01b6 27       		.uleb128 0x27
 1413 01b7 19       		.uleb128 0x19
 1414 01b8 20       		.uleb128 0x20
 1415 01b9 0B       		.uleb128 0xb
 1416 01ba 00       		.byte	0
 1417 01bb 00       		.byte	0
 1418 01bc 1C       		.uleb128 0x1c
 1419 01bd 05       		.uleb128 0x5
 1420 01be 00       		.byte	0
 1421 01bf 03       		.uleb128 0x3
 1422 01c0 0E       		.uleb128 0xe
 1423 01c1 3A       		.uleb128 0x3a
 1424 01c2 0B       		.uleb128 0xb
ARM GAS  C:\Users\DEVELO~1\AppData\Local\Temp\ccyCGzaf.s 			page 26


 1425 01c3 3B       		.uleb128 0x3b
 1426 01c4 05       		.uleb128 0x5
 1427 01c5 39       		.uleb128 0x39
 1428 01c6 0B       		.uleb128 0xb
 1429 01c7 49       		.uleb128 0x49
 1430 01c8 13       		.uleb128 0x13
 1431 01c9 00       		.byte	0
 1432 01ca 00       		.byte	0
 1433 01cb 00       		.byte	0
 1434              		.section	.debug_aranges,"",%progbits
 1435 0000 54000000 		.4byte	0x54
 1436 0004 0200     		.2byte	0x2
 1437 0006 00000000 		.4byte	.Ldebug_info0
 1438 000a 04       		.byte	0x4
 1439 000b 00       		.byte	0
 1440 000c 0000     		.2byte	0
 1441 000e 0000     		.2byte	0
 1442 0010 00000000 		.4byte	.LFB202
 1443 0014 1E000000 		.4byte	.LFE202-.LFB202
 1444 0018 00000000 		.4byte	.LFB203
 1445 001c 1E000000 		.4byte	.LFE203-.LFB203
 1446 0020 00000000 		.4byte	.LFB346
 1447 0024 24000000 		.4byte	.LFE346-.LFB346
 1448 0028 00000000 		.4byte	.LFB347
 1449 002c 5C000000 		.4byte	.LFE347-.LFB347
 1450 0030 00000000 		.4byte	.LFB348
 1451 0034 58000000 		.4byte	.LFE348-.LFB348
 1452 0038 00000000 		.4byte	.LFB349
 1453 003c 2A000000 		.4byte	.LFE349-.LFB349
 1454 0040 00000000 		.4byte	.LFB350
 1455 0044 2A000000 		.4byte	.LFE350-.LFB350
 1456 0048 00000000 		.4byte	.LFB351
 1457 004c 1C000000 		.4byte	.LFE351-.LFB351
 1458 0050 00000000 		.4byte	0
 1459 0054 00000000 		.4byte	0
 1460              		.section	.debug_rnglists,"",%progbits
 1461              	.Ldebug_ranges0:
 1462 0000 39000000 		.4byte	.Ldebug_ranges3-.Ldebug_ranges2
 1463              	.Ldebug_ranges2:
 1464 0004 0500     		.2byte	0x5
 1465 0006 04       		.byte	0x4
 1466 0007 00       		.byte	0
 1467 0008 00000000 		.4byte	0
 1468              	.LLRL0:
 1469 000c 07       		.byte	0x7
 1470 000d 00000000 		.4byte	.LFB202
 1471 0011 1E       		.uleb128 .LFE202-.LFB202
 1472 0012 07       		.byte	0x7
 1473 0013 00000000 		.4byte	.LFB203
 1474 0017 1E       		.uleb128 .LFE203-.LFB203
 1475 0018 07       		.byte	0x7
 1476 0019 00000000 		.4byte	.LFB346
 1477 001d 24       		.uleb128 .LFE346-.LFB346
 1478 001e 07       		.byte	0x7
 1479 001f 00000000 		.4byte	.LFB347
 1480 0023 5C       		.uleb128 .LFE347-.LFB347
 1481 0024 07       		.byte	0x7
ARM GAS  C:\Users\DEVELO~1\AppData\Local\Temp\ccyCGzaf.s 			page 27


 1482 0025 00000000 		.4byte	.LFB348
 1483 0029 58       		.uleb128 .LFE348-.LFB348
 1484 002a 07       		.byte	0x7
 1485 002b 00000000 		.4byte	.LFB349
 1486 002f 2A       		.uleb128 .LFE349-.LFB349
 1487 0030 07       		.byte	0x7
 1488 0031 00000000 		.4byte	.LFB350
 1489 0035 2A       		.uleb128 .LFE350-.LFB350
 1490 0036 07       		.byte	0x7
 1491 0037 00000000 		.4byte	.LFB351
 1492 003b 1C       		.uleb128 .LFE351-.LFB351
 1493 003c 00       		.byte	0
 1494              	.Ldebug_ranges3:
 1495              		.section	.debug_line,"",%progbits
 1496              	.Ldebug_line0:
 1497 0000 78030000 		.section	.debug_str,"MS",%progbits,1
 1497      03002202 
 1497      00000201 
 1497      FB0E0D00 
 1497      01010101 
 1498              	.LASF38:
 1499 0000 2E2E2F2E 		.ascii	"../../../os/oslib/src/chmemcore.c\000"
 1499      2E2F2E2E 
 1499      2F6F732F 
 1499      6F736C69 
 1499      622F7372 
 1500              	.LASF5:
 1501 0022 5F5F7569 		.ascii	"__uint8_t\000"
 1501      6E74385F 
 1501      7400
 1502              	.LASF4:
 1503 002c 73697A65 		.ascii	"size_t\000"
 1503      5F7400
 1504              	.LASF28:
 1505 0033 6E657874 		.ascii	"next\000"
 1505      00
 1506              	.LASF22:
 1507 0038 6F666673 		.ascii	"offset\000"
 1507      657400
 1508              	.LASF21:
 1509 003f 616C6967 		.ascii	"align\000"
 1509      6E00
 1510              	.LASF41:
 1511 0045 5F5F636F 		.ascii	"__core_init\000"
 1511      72655F69 
 1511      6E697400 
 1512              	.LASF27:
 1513 0051 6368436F 		.ascii	"chCoreAllocFromBaseI\000"
 1513      7265416C 
 1513      6C6F6346 
 1513      726F6D42 
 1513      61736549 
 1514              	.LASF19:
 1515 0066 6D656D63 		.ascii	"memcore_t\000"
 1515      6F72655F 
 1515      7400
 1516              	.LASF35:
ARM GAS  C:\Users\DEVELO~1\AppData\Local\Temp\ccyCGzaf.s 			page 28


 1517 0070 706F7274 		.ascii	"port_unlock\000"
 1517      5F756E6C 
 1517      6F636B00 
 1518              	.LASF29:
 1519 007c 5F5F6675 		.ascii	"__func__\000"
 1519      6E635F5F 
 1519      00
 1520              	.LASF12:
 1521 0085 6C6F6E67 		.ascii	"long long unsigned int\000"
 1521      206C6F6E 
 1521      6720756E 
 1521      7369676E 
 1521      65642069 
 1522              	.LASF42:
 1523 009c 5F5F7365 		.ascii	"__set_BASEPRI\000"
 1523      745F4241 
 1523      53455052 
 1523      4900
 1524              	.LASF6:
 1525 00aa 756E7369 		.ascii	"unsigned char\000"
 1525      676E6564 
 1525      20636861 
 1525      7200
 1526              	.LASF11:
 1527 00b8 6C6F6E67 		.ascii	"long unsigned int\000"
 1527      20756E73 
 1527      69676E65 
 1527      6420696E 
 1527      7400
 1528              	.LASF8:
 1529 00ca 73686F72 		.ascii	"short unsigned int\000"
 1529      7420756E 
 1529      7369676E 
 1529      65642069 
 1529      6E7400
 1530              	.LASF39:
 1531 00dd 433A5C50 		.ascii	"C:\\PROJET\\ChibiOS project\\ChibiOS_21.11.4\\demos"
 1531      524F4A45 
 1531      545C4368 
 1531      6962694F 
 1531      53207072 
 1532 010c 5C53544D 		.ascii	"\\STM32\\RT-STM32H743ZI_REV_XY-NUCLEO144_Quartz8M\000"
 1532      33325C52 
 1532      542D5354 
 1532      4D333248 
 1532      3734335A 
 1533              	.LASF10:
 1534 013c 5F5F7569 		.ascii	"__uint32_t\000"
 1534      6E743332 
 1534      5F7400
 1535              	.LASF37:
 1536 0147 474E5520 		.ascii	"GNU C17 11.3.1 20220712 -mcpu=cortex-m7 -mthumb -mf"
 1536      43313720 
 1536      31312E33 
 1536      2E312032 
 1536      30323230 
 1537 017a 6C6F6174 		.ascii	"loat-abi=soft -march=armv7e-m -ggdb -O0 -ffunction-"
ARM GAS  C:\Users\DEVELO~1\AppData\Local\Temp\ccyCGzaf.s 			page 29


 1537      2D616269 
 1537      3D736F66 
 1537      74202D6D 
 1537      61726368 
 1538 01ad 73656374 		.ascii	"sections -fdata-sections -fno-common\000"
 1538      696F6E73 
 1538      202D6664 
 1538      6174612D 
 1538      73656374 
 1539              	.LASF30:
 1540 01d2 63685F6D 		.ascii	"ch_memcore\000"
 1540      656D636F 
 1540      726500
 1541              	.LASF36:
 1542 01dd 706F7274 		.ascii	"port_lock\000"
 1542      5F6C6F63 
 1542      6B00
 1543              	.LASF0:
 1544 01e7 756E7369 		.ascii	"unsigned int\000"
 1544      676E6564 
 1544      20696E74 
 1544      00
 1545              	.LASF15:
 1546 01f4 63686172 		.ascii	"char\000"
 1546      00
 1547              	.LASF13:
 1548 01f9 75696E74 		.ascii	"uint8_t\000"
 1548      385F7400 
 1549              	.LASF18:
 1550 0201 746F706D 		.ascii	"topmem\000"
 1550      656D00
 1551              	.LASF31:
 1552 0208 5F5F6865 		.ascii	"__heap_base__\000"
 1552      61705F62 
 1552      6173655F 
 1552      5F00
 1553              	.LASF43:
 1554 0216 62617365 		.ascii	"basePri\000"
 1554      50726900 
 1555              	.LASF23:
 1556 021e 6368436F 		.ascii	"chCoreAllocFromTop\000"
 1556      7265416C 
 1556      6C6F6346 
 1556      726F6D54 
 1556      6F7000
 1557              	.LASF25:
 1558 0231 6368436F 		.ascii	"chCoreAllocFromTopI\000"
 1558      7265416C 
 1558      6C6F6346 
 1558      726F6D54 
 1558      6F704900 
 1559              	.LASF40:
 1560 0245 6368436F 		.ascii	"chCoreGetStatusX\000"
 1560      72654765 
 1560      74537461 
 1560      74757358 
 1560      00
ARM GAS  C:\Users\DEVELO~1\AppData\Local\Temp\ccyCGzaf.s 			page 30


 1561              	.LASF1:
 1562 0256 6C6F6E67 		.ascii	"long long int\000"
 1562      206C6F6E 
 1562      6720696E 
 1562      7400
 1563              	.LASF32:
 1564 0264 5F5F6865 		.ascii	"__heap_end__\000"
 1564      61705F65 
 1564      6E645F5F 
 1564      00
 1565              	.LASF34:
 1566 0271 63685379 		.ascii	"chSysLock\000"
 1566      734C6F63 
 1566      6B00
 1567              	.LASF7:
 1568 027b 73686F72 		.ascii	"short int\000"
 1568      7420696E 
 1568      7400
 1569              	.LASF24:
 1570 0285 6368436F 		.ascii	"chCoreAllocFromBase\000"
 1570      7265416C 
 1570      6C6F6346 
 1570      726F6D42 
 1570      61736500 
 1571              	.LASF17:
 1572 0299 62617365 		.ascii	"basemem\000"
 1572      6D656D00 
 1573              	.LASF14:
 1574 02a1 75696E74 		.ascii	"uint32_t\000"
 1574      33325F74 
 1574      00
 1575              	.LASF9:
 1576 02aa 6C6F6E67 		.ascii	"long int\000"
 1576      20696E74 
 1576      00
 1577              	.LASF2:
 1578 02b3 6C6F6E67 		.ascii	"long double\000"
 1578      20646F75 
 1578      626C6500 
 1579              	.LASF3:
 1580 02bf 7369676E 		.ascii	"signed char\000"
 1580      65642063 
 1580      68617200 
 1581              	.LASF20:
 1582 02cb 73697A65 		.ascii	"size\000"
 1582      00
 1583              	.LASF16:
 1584 02d0 5F426F6F 		.ascii	"_Bool\000"
 1584      6C00
 1585              	.LASF26:
 1586 02d6 70726576 		.ascii	"prev\000"
 1586      00
 1587              	.LASF33:
 1588 02db 63685379 		.ascii	"chSysUnlock\000"
 1588      73556E6C 
 1588      6F636B00 
 1589              		.ident	"GCC: (Arm GNU Toolchain 11.3.Rel1) 11.3.1 20220712"
ARM GAS  C:\Users\DEVELO~1\AppData\Local\Temp\ccyCGzaf.s 			page 31


ARM GAS  C:\Users\DEVELO~1\AppData\Local\Temp\ccyCGzaf.s 			page 32


DEFINED SYMBOLS
                            *ABS*:00000000 chmemcore.c
C:\Users\DEVELO~1\AppData\Local\Temp\ccyCGzaf.s:18     .text.chSysLock:00000000 $t
C:\Users\DEVELO~1\AppData\Local\Temp\ccyCGzaf.s:23     .text.chSysLock:00000000 chSysLock
C:\Users\DEVELO~1\AppData\Local\Temp\ccyCGzaf.s:77     .text.chSysUnlock:00000000 $t
C:\Users\DEVELO~1\AppData\Local\Temp\ccyCGzaf.s:82     .text.chSysUnlock:00000000 chSysUnlock
C:\Users\DEVELO~1\AppData\Local\Temp\ccyCGzaf.s:137    .bss.ch_memcore:00000000 ch_memcore
C:\Users\DEVELO~1\AppData\Local\Temp\ccyCGzaf.s:134    .bss.ch_memcore:00000000 $d
C:\Users\DEVELO~1\AppData\Local\Temp\ccyCGzaf.s:140    .text.__core_init:00000000 $t
C:\Users\DEVELO~1\AppData\Local\Temp\ccyCGzaf.s:146    .text.__core_init:00000000 __core_init
C:\Users\DEVELO~1\AppData\Local\Temp\ccyCGzaf.s:179    .text.__core_init:00000018 $d
C:\Users\DEVELO~1\AppData\Local\Temp\ccyCGzaf.s:186    .text.chCoreAllocFromBaseI:00000000 $t
C:\Users\DEVELO~1\AppData\Local\Temp\ccyCGzaf.s:192    .text.chCoreAllocFromBaseI:00000000 chCoreAllocFromBaseI
C:\Users\DEVELO~1\AppData\Local\Temp\ccyCGzaf.s:268    .text.chCoreAllocFromBaseI:00000058 $d
C:\Users\DEVELO~1\AppData\Local\Temp\ccyCGzaf.s:273    .text.chCoreAllocFromTopI:00000000 $t
C:\Users\DEVELO~1\AppData\Local\Temp\ccyCGzaf.s:279    .text.chCoreAllocFromTopI:00000000 chCoreAllocFromTopI
C:\Users\DEVELO~1\AppData\Local\Temp\ccyCGzaf.s:355    .text.chCoreAllocFromTopI:00000054 $d
C:\Users\DEVELO~1\AppData\Local\Temp\ccyCGzaf.s:360    .text.chCoreAllocFromBase:00000000 $t
C:\Users\DEVELO~1\AppData\Local\Temp\ccyCGzaf.s:366    .text.chCoreAllocFromBase:00000000 chCoreAllocFromBase
C:\Users\DEVELO~1\AppData\Local\Temp\ccyCGzaf.s:407    .text.chCoreAllocFromTop:00000000 $t
C:\Users\DEVELO~1\AppData\Local\Temp\ccyCGzaf.s:413    .text.chCoreAllocFromTop:00000000 chCoreAllocFromTop
C:\Users\DEVELO~1\AppData\Local\Temp\ccyCGzaf.s:454    .text.chCoreGetStatusX:00000000 $t
C:\Users\DEVELO~1\AppData\Local\Temp\ccyCGzaf.s:460    .text.chCoreGetStatusX:00000000 chCoreGetStatusX
C:\Users\DEVELO~1\AppData\Local\Temp\ccyCGzaf.s:492    .text.chCoreGetStatusX:00000018 $d

UNDEFINED SYMBOLS
__heap_base__
__heap_end__
