ARM GAS  C:\Users\DEVELO~1\AppData\Local\Temp\ccyCGzaf.s 			page 1


   1              		.cpu cortex-m7
   2              		.arch armv7e-m
   3              		.fpu softvfp
   4              		.eabi_attribute 20, 1
   5              		.eabi_attribute 21, 1
   6              		.eabi_attribute 23, 3
   7              		.eabi_attribute 24, 1
   8              		.eabi_attribute 25, 1
   9              		.eabi_attribute 26, 1
  10              		.eabi_attribute 30, 6
  11              		.eabi_attribute 34, 1
  12              		.eabi_attribute 18, 4
  13              		.file	"chmemcore.c"
  14              		.text
  15              	.Ltext0:
  16              		.cfi_sections	.debug_frame
  17              		.section	.text.chSysLock,"ax",%progbits
  18              		.align	1
  19              		.syntax unified
  20              		.thumb
  21              		.thumb_func
  22              		.type	chSysLock, %function
  23              	chSysLock:
  24              	.LFB202:
  25              		.file 1 "../../../os/rt/include/chsys.h"
  26              		.loc 1 407 36
  27              		.cfi_startproc
  28              		@ args = 0, pretend = 0, frame = 8
  29              		@ frame_needed = 1, uses_anonymous_args = 0
  30              		@ link register save eliminated.
  31 0000 80B4     		push	{r7}
  32              		.cfi_def_cfa_offset 4
  33              		.cfi_offset 7, -4
  34 0002 83B0     		sub	sp, sp, #12
  35              		.cfi_def_cfa_offset 16
  36 0004 00AF     		add	r7, sp, #0
  37              		.cfi_def_cfa_register 7
  38 0006 3023     		movs	r3, #48
  39 0008 7B60     		str	r3, [r7, #4]
  40              	.LBB14:
  41              	.LBB15:
  42              	.LBB16:
  43              	.LBB17:
  44              		.file 2 "../../../os/common/ext/ARM/CMSIS/Core/Include/cmsis_gcc.h"
  45              		.loc 2 493 3
  46 000a 7B68     		ldr	r3, [r7, #4]
  47              		.syntax unified
  48              	@ 493 "../../../os/common/ext/ARM/CMSIS/Core/Include/cmsis_gcc.h" 1
  49 000c 83F31188 		MSR basepri, r3
  50              	@ 0 "" 2
  51              		.loc 2 494 1
  52              		.thumb
  53              		.syntax unified
  54 0010 00BF     		nop
  55              	.LBE17:
  56              	.LBE16:
  57              		.file 3 "../../../os/common/ports/ARMv7-M/chcore.h"
ARM GAS  C:\Users\DEVELO~1\AppData\Local\Temp\ccyCGzaf.s 			page 2


  58              		.loc 3 840 1
  59 0012 00BF     		nop
  60              	.LBE15:
  61              	.LBE14:
  62              		.loc 1 412 1
  63 0014 00BF     		nop
  64 0016 0C37     		adds	r7, r7, #12
  65              		.cfi_def_cfa_offset 4
  66 0018 BD46     		mov	sp, r7
  67              		.cfi_def_cfa_register 13
  68              		@ sp needed
  69 001a 80BC     		pop	{r7}
  70              		.cfi_restore 7
  71              		.cfi_def_cfa_offset 0
  72 001c 7047     		bx	lr
  73              		.cfi_endproc
  74              	.LFE202:
  75              		.size	chSysLock, .-chSysLock
  76              		.section	.text.chSysUnlock,"ax",%progbits
  77              		.align	1
  78              		.syntax unified
  79              		.thumb
  80              		.thumb_func
  81              		.type	chSysUnlock, %function
  82              	chSysUnlock:
  83              	.LFB203:
  84              		.loc 1 421 38
  85              		.cfi_startproc
  86              		@ args = 0, pretend = 0, frame = 8
  87              		@ frame_needed = 1, uses_anonymous_args = 0
  88              		@ link register save eliminated.
  89 0000 80B4     		push	{r7}
  90              		.cfi_def_cfa_offset 4
  91              		.cfi_offset 7, -4
  92 0002 83B0     		sub	sp, sp, #12
  93              		.cfi_def_cfa_offset 16
  94 0004 00AF     		add	r7, sp, #0
  95              		.cfi_def_cfa_register 7
  96 0006 0023     		movs	r3, #0
  97 0008 7B60     		str	r3, [r7, #4]
  98              	.LBB18:
  99              	.LBB19:
 100              	.LBB20:
 101              	.LBB21:
 102              		.loc 2 493 3
 103 000a 7B68     		ldr	r3, [r7, #4]
 104              		.syntax unified
 105              	@ 493 "../../../os/common/ext/ARM/CMSIS/Core/Include/cmsis_gcc.h" 1
 106 000c 83F31188 		MSR basepri, r3
 107              	@ 0 "" 2
 108              		.loc 2 494 1
 109              		.thumb
 110              		.syntax unified
 111 0010 00BF     		nop
 112              	.LBE21:
 113              	.LBE20:
 114              		.loc 3 854 1
ARM GAS  C:\Users\DEVELO~1\AppData\Local\Temp\ccyCGzaf.s 			page 3


 115 0012 00BF     		nop
 116              	.LBE19:
 117              	.LBE18:
 118              		.loc 1 435 1
 119 0014 00BF     		nop
 120 0016 0C37     		adds	r7, r7, #12
 121              		.cfi_def_cfa_offset 4
 122 0018 BD46     		mov	sp, r7
 123              		.cfi_def_cfa_register 13
 124              		@ sp needed
 125 001a 80BC     		pop	{r7}
 126              		.cfi_restore 7
 127              		.cfi_def_cfa_offset 0
 128 001c 7047     		bx	lr
 129              		.cfi_endproc
 130              	.LFE203:
 131              		.size	chSysUnlock, .-chSysUnlock
 132              		.global	ch_memcore
 133              		.section	.bss.ch_memcore,"aw",%nobits
 134              		.align	2
 135              		.type	ch_memcore, %object
 136              		.size	ch_memcore, 8
 137              	ch_memcore:
 138 0000 00000000 		.space	8
 138      00000000 
 139              		.section	.text.__core_init,"ax",%progbits
 140              		.align	1
 141              		.global	__core_init
 142              		.syntax unified
 143              		.thumb
 144              		.thumb_func
 145              		.type	__core_init, %function
 146              	__core_init:
 147              	.LFB346:
 148              		.file 4 "../../../os/oslib/src/chmemcore.c"
 149              		.loc 4 81 24
 150              		.cfi_startproc
 151              		@ args = 0, pretend = 0, frame = 0
 152              		@ frame_needed = 1, uses_anonymous_args = 0
 153              		@ link register save eliminated.
 154 0000 80B4     		push	{r7}
 155              		.cfi_def_cfa_offset 4
 156              		.cfi_offset 7, -4
 157 0002 00AF     		add	r7, sp, #0
 158              		.cfi_def_cfa_register 7
 159              		.loc 4 87 22
 160 0004 044B     		ldr	r3, .L4
 161 0006 054A     		ldr	r2, .L4+4
 162 0008 1A60     		str	r2, [r3]
 163              		.loc 4 88 22
 164 000a 034B     		ldr	r3, .L4
 165 000c 044A     		ldr	r2, .L4+8
 166 000e 5A60     		str	r2, [r3, #4]
 167              		.loc 4 96 1
 168 0010 00BF     		nop
 169 0012 BD46     		mov	sp, r7
 170              		.cfi_def_cfa_register 13
ARM GAS  C:\Users\DEVELO~1\AppData\Local\Temp\ccyCGzaf.s 			page 4


 171              		@ sp needed
 172 0014 80BC     		pop	{r7}
 173              		.cfi_restore 7
 174              		.cfi_def_cfa_offset 0
 175 0016 7047     		bx	lr
 176              	.L5:
 177              		.align	2
 178              	.L4:
 179 0018 00000000 		.word	ch_memcore
 180 001c 00000000 		.word	__heap_base__
 181 0020 00000000 		.word	__heap_end__
 182              		.cfi_endproc
 183              	.LFE346:
 184              		.size	__core_init, .-__core_init
 185              		.section	.text.chCoreAllocFromBaseI,"ax",%progbits
 186              		.align	1
 187              		.global	chCoreAllocFromBaseI
 188              		.syntax unified
 189              		.thumb
 190              		.thumb_func
 191              		.type	chCoreAllocFromBaseI, %function
 192              	chCoreAllocFromBaseI:
 193              	.LFB347:
 194              		.loc 4 112 72
 195              		.cfi_startproc
 196              		@ args = 0, pretend = 0, frame = 24
 197              		@ frame_needed = 1, uses_anonymous_args = 0
 198              		@ link register save eliminated.
 199 0000 80B4     		push	{r7}
 200              		.cfi_def_cfa_offset 4
 201              		.cfi_offset 7, -4
 202 0002 87B0     		sub	sp, sp, #28
 203              		.cfi_def_cfa_offset 32
 204 0004 00AF     		add	r7, sp, #0
 205              		.cfi_def_cfa_register 7
 206 0006 F860     		str	r0, [r7, #12]
 207 0008 B960     		str	r1, [r7, #8]
 208 000a 7A60     		str	r2, [r7, #4]
 209              		.loc 4 118 18
 210 000c 124B     		ldr	r3, .L10
 211 000e 1A68     		ldr	r2, [r3]
 212 0010 7B68     		ldr	r3, [r7, #4]
 213 0012 1344     		add	r3, r3, r2
 214 0014 1A46     		mov	r2, r3
 215 0016 BB68     		ldr	r3, [r7, #8]
 216 0018 1344     		add	r3, r3, r2
 217 001a 5A1E     		subs	r2, r3, #1
 218 001c BB68     		ldr	r3, [r7, #8]
 219 001e 5B42     		rsbs	r3, r3, #0
 220 0020 1340     		ands	r3, r3, r2
 221              		.loc 4 118 5
 222 0022 7B61     		str	r3, [r7, #20]
 223              		.loc 4 119 8
 224 0024 7A69     		ldr	r2, [r7, #20]
 225 0026 FB68     		ldr	r3, [r7, #12]
 226 0028 1344     		add	r3, r3, r2
 227 002a 3B61     		str	r3, [r7, #16]
ARM GAS  C:\Users\DEVELO~1\AppData\Local\Temp\ccyCGzaf.s 			page 5


 228              		.loc 4 122 25
 229 002c 0A4B     		ldr	r3, .L10
 230 002e 5B68     		ldr	r3, [r3, #4]
 231              		.loc 4 122 6
 232 0030 3A69     		ldr	r2, [r7, #16]
 233 0032 9A42     		cmp	r2, r3
 234 0034 04D8     		bhi	.L7
 235              		.loc 4 122 55 discriminator 1
 236 0036 084B     		ldr	r3, .L10
 237 0038 1B68     		ldr	r3, [r3]
 238              		.loc 4 122 34 discriminator 1
 239 003a 3A69     		ldr	r2, [r7, #16]
 240 003c 9A42     		cmp	r2, r3
 241 003e 01D2     		bcs	.L8
 242              	.L7:
 243              		.loc 4 123 12
 244 0040 0023     		movs	r3, #0
 245 0042 03E0     		b	.L9
 246              	.L8:
 247              		.loc 4 126 22
 248 0044 044A     		ldr	r2, .L10
 249 0046 3B69     		ldr	r3, [r7, #16]
 250 0048 1360     		str	r3, [r2]
 251              		.loc 4 128 10
 252 004a 7B69     		ldr	r3, [r7, #20]
 253              	.L9:
 254              		.loc 4 129 1
 255 004c 1846     		mov	r0, r3
 256 004e 1C37     		adds	r7, r7, #28
 257              		.cfi_def_cfa_offset 4
 258 0050 BD46     		mov	sp, r7
 259              		.cfi_def_cfa_register 13
 260              		@ sp needed
 261 0052 80BC     		pop	{r7}
 262              		.cfi_restore 7
 263              		.cfi_def_cfa_offset 0
 264 0054 7047     		bx	lr
 265              	.L11:
 266 0056 00BF     		.align	2
 267              	.L10:
 268 0058 00000000 		.word	ch_memcore
 269              		.cfi_endproc
 270              	.LFE347:
 271              		.size	chCoreAllocFromBaseI, .-chCoreAllocFromBaseI
 272              		.section	.text.chCoreAllocFromTopI,"ax",%progbits
 273              		.align	1
 274              		.global	chCoreAllocFromTopI
 275              		.syntax unified
 276              		.thumb
 277              		.thumb_func
 278              		.type	chCoreAllocFromTopI, %function
 279              	chCoreAllocFromTopI:
 280              	.LFB348:
 281              		.loc 4 145 71
 282              		.cfi_startproc
 283              		@ args = 0, pretend = 0, frame = 24
 284              		@ frame_needed = 1, uses_anonymous_args = 0
ARM GAS  C:\Users\DEVELO~1\AppData\Local\Temp\ccyCGzaf.s 			page 6


 285              		@ link register save eliminated.
 286 0000 80B4     		push	{r7}
 287              		.cfi_def_cfa_offset 4
 288              		.cfi_offset 7, -4
 289 0002 87B0     		sub	sp, sp, #28
 290              		.cfi_def_cfa_offset 32
 291 0004 00AF     		add	r7, sp, #0
 292              		.cfi_def_cfa_register 7
 293 0006 F860     		str	r0, [r7, #12]
 294 0008 B960     		str	r1, [r7, #8]
 295 000a 7A60     		str	r2, [r7, #4]
 296              		.loc 4 151 18
 297 000c 114B     		ldr	r3, .L16
 298 000e 5A68     		ldr	r2, [r3, #4]
 299 0010 FB68     		ldr	r3, [r7, #12]
 300 0012 5B42     		rsbs	r3, r3, #0
 301 0014 1344     		add	r3, r3, r2
 302 0016 1A46     		mov	r2, r3
 303 0018 BB68     		ldr	r3, [r7, #8]
 304 001a 5B42     		rsbs	r3, r3, #0
 305 001c 1340     		ands	r3, r3, r2
 306              		.loc 4 151 5
 307 001e 7B61     		str	r3, [r7, #20]
 308              		.loc 4 152 12
 309 0020 7B68     		ldr	r3, [r7, #4]
 310 0022 5B42     		rsbs	r3, r3, #0
 311              		.loc 4 152 8
 312 0024 7A69     		ldr	r2, [r7, #20]
 313 0026 1344     		add	r3, r3, r2
 314 0028 3B61     		str	r3, [r7, #16]
 315              		.loc 4 155 25
 316 002a 0A4B     		ldr	r3, .L16
 317 002c 1B68     		ldr	r3, [r3]
 318              		.loc 4 155 6
 319 002e 3A69     		ldr	r2, [r7, #16]
 320 0030 9A42     		cmp	r2, r3
 321 0032 04D3     		bcc	.L13
 322              		.loc 4 155 56 discriminator 1
 323 0034 074B     		ldr	r3, .L16
 324 0036 5B68     		ldr	r3, [r3, #4]
 325              		.loc 4 155 35 discriminator 1
 326 0038 3A69     		ldr	r2, [r7, #16]
 327 003a 9A42     		cmp	r2, r3
 328 003c 01D9     		bls	.L14
 329              	.L13:
 330              		.loc 4 156 12
 331 003e 0023     		movs	r3, #0
 332 0040 03E0     		b	.L15
 333              	.L14:
 334              		.loc 4 159 21
 335 0042 044A     		ldr	r2, .L16
 336 0044 3B69     		ldr	r3, [r7, #16]
 337 0046 5360     		str	r3, [r2, #4]
 338              		.loc 4 161 10
 339 0048 7B69     		ldr	r3, [r7, #20]
 340              	.L15:
 341              		.loc 4 162 1
ARM GAS  C:\Users\DEVELO~1\AppData\Local\Temp\ccyCGzaf.s 			page 7


 342 004a 1846     		mov	r0, r3
 343 004c 1C37     		adds	r7, r7, #28
 344              		.cfi_def_cfa_offset 4
 345 004e BD46     		mov	sp, r7
 346              		.cfi_def_cfa_register 13
 347              		@ sp needed
 348 0050 80BC     		pop	{r7}
 349              		.cfi_restore 7
 350              		.cfi_def_cfa_offset 0
 351 0052 7047     		bx	lr
 352              	.L17:
 353              		.align	2
 354              	.L16:
 355 0054 00000000 		.word	ch_memcore
 356              		.cfi_endproc
 357              	.LFE348:
 358              		.size	chCoreAllocFromTopI, .-chCoreAllocFromTopI
 359              		.section	.text.chCoreAllocFromBase,"ax",%progbits
 360              		.align	1
 361              		.global	chCoreAllocFromBase
 362              		.syntax unified
 363              		.thumb
 364              		.thumb_func
 365              		.type	chCoreAllocFromBase, %function
 366              	chCoreAllocFromBase:
 367              	.LFB349:
 368              		.loc 4 178 71
 369              		.cfi_startproc
 370              		@ args = 0, pretend = 0, frame = 24
 371              		@ frame_needed = 1, uses_anonymous_args = 0
 372 0000 80B5     		push	{r7, lr}
 373              		.cfi_def_cfa_offset 8
 374              		.cfi_offset 7, -8
 375              		.cfi_offset 14, -4
 376 0002 86B0     		sub	sp, sp, #24
 377              		.cfi_def_cfa_offset 32
 378 0004 00AF     		add	r7, sp, #0
 379              		.cfi_def_cfa_register 7
 380 0006 F860     		str	r0, [r7, #12]
 381 0008 B960     		str	r1, [r7, #8]
 382 000a 7A60     		str	r2, [r7, #4]
 383              		.loc 4 181 3
 384 000c FFF7FEFF 		bl	chSysLock
 385              		.loc 4 182 7
 386 0010 7A68     		ldr	r2, [r7, #4]
 387 0012 B968     		ldr	r1, [r7, #8]
 388 0014 F868     		ldr	r0, [r7, #12]
 389 0016 FFF7FEFF 		bl	chCoreAllocFromBaseI
 390 001a 7861     		str	r0, [r7, #20]
 391              		.loc 4 183 3
 392 001c FFF7FEFF 		bl	chSysUnlock
 393              		.loc 4 185 10
 394 0020 7B69     		ldr	r3, [r7, #20]
 395              		.loc 4 186 1
 396 0022 1846     		mov	r0, r3
 397 0024 1837     		adds	r7, r7, #24
 398              		.cfi_def_cfa_offset 8
ARM GAS  C:\Users\DEVELO~1\AppData\Local\Temp\ccyCGzaf.s 			page 8


 399 0026 BD46     		mov	sp, r7
 400              		.cfi_def_cfa_register 13
 401              		@ sp needed
 402 0028 80BD     		pop	{r7, pc}
 403              		.cfi_endproc
 404              	.LFE349:
 405              		.size	chCoreAllocFromBase, .-chCoreAllocFromBase
 406              		.section	.text.chCoreAllocFromTop,"ax",%progbits
 407              		.align	1
 408              		.global	chCoreAllocFromTop
 409              		.syntax unified
 410              		.thumb
 411              		.thumb_func
 412              		.type	chCoreAllocFromTop, %function
 413              	chCoreAllocFromTop:
 414              	.LFB350:
 415              		.loc 4 202 70
 416              		.cfi_startproc
 417              		@ args = 0, pretend = 0, frame = 24
 418              		@ frame_needed = 1, uses_anonymous_args = 0
 419 0000 80B5     		push	{r7, lr}
 420              		.cfi_def_cfa_offset 8
 421              		.cfi_offset 7, -8
 422              		.cfi_offset 14, -4
 423 0002 86B0     		sub	sp, sp, #24
 424              		.cfi_def_cfa_offset 32
 425 0004 00AF     		add	r7, sp, #0
 426              		.cfi_def_cfa_register 7
 427 0006 F860     		str	r0, [r7, #12]
 428 0008 B960     		str	r1, [r7, #8]
 429 000a 7A60     		str	r2, [r7, #4]
 430              		.loc 4 205 3
 431 000c FFF7FEFF 		bl	chSysLock
 432              		.loc 4 206 7
 433 0010 7A68     		ldr	r2, [r7, #4]
 434 0012 B968     		ldr	r1, [r7, #8]
 435 0014 F868     		ldr	r0, [r7, #12]
 436 0016 FFF7FEFF 		bl	chCoreAllocFromTopI
 437 001a 7861     		str	r0, [r7, #20]
 438              		.loc 4 207 3
 439 001c FFF7FEFF 		bl	chSysUnlock
 440              		.loc 4 209 10
 441 0020 7B69     		ldr	r3, [r7, #20]
 442              		.loc 4 210 1
 443 0022 1846     		mov	r0, r3
 444 0024 1837     		adds	r7, r7, #24
 445              		.cfi_def_cfa_offset 8
 446 0026 BD46     		mov	sp, r7
 447              		.cfi_def_cfa_register 13
 448              		@ sp needed
 449 0028 80BD     		pop	{r7, pc}
 450              		.cfi_endproc
 451              	.LFE350:
 452              		.size	chCoreAllocFromTop, .-chCoreAllocFromTop
 453              		.section	.text.chCoreGetStatusX,"ax",%progbits
 454              		.align	1
 455              		.global	chCoreGetStatusX
ARM GAS  C:\Users\DEVELO~1\AppData\Local\Temp\ccyCGzaf.s 			page 9


 456              		.syntax unified
 457              		.thumb
 458              		.thumb_func
 459              		.type	chCoreGetStatusX, %function
 460              	chCoreGetStatusX:
 461              	.LFB351:
 462              		.loc 4 219 31
 463              		.cfi_startproc
 464              		@ args = 0, pretend = 0, frame = 0
 465              		@ frame_needed = 1, uses_anonymous_args = 0
 466              		@ link register save eliminated.
 467 0000 80B4     		push	{r7}
 468              		.cfi_def_cfa_offset 4
 469              		.cfi_offset 7, -4
 470 0002 00AF     		add	r7, sp, #0
 471              		.cfi_def_cfa_register 7
 472              		.loc 4 222 29
 473 0004 044B     		ldr	r3, .L24
 474 0006 5A68     		ldr	r2, [r3, #4]
 475              		.loc 4 222 49
 476 0008 034B     		ldr	r3, .L24
 477 000a 1B68     		ldr	r3, [r3]
 478              		.loc 4 222 37
 479 000c D31A     		subs	r3, r2, r3
 480              		.loc 4 224 1
 481 000e 1846     		mov	r0, r3
 482 0010 BD46     		mov	sp, r7
 483              		.cfi_def_cfa_register 13
 484              		@ sp needed
 485 0012 80BC     		pop	{r7}
 486              		.cfi_restore 7
 487              		.cfi_def_cfa_offset 0
 488 0014 7047     		bx	lr
 489              	.L25:
 490 0016 00BF     		.align	2
 491              	.L24:
 492 0018 00000000 		.word	ch_memcore
 493              		.cfi_endproc
 494              	.LFE351:
 495              		.size	chCoreGetStatusX, .-chCoreGetStatusX
 496              		.text
 497              	.Letext0:
 498              		.file 5 "c:\\chibistudio\\tools\\gnu tools arm embedded\\11.3 2022.08\\lib\\gcc\\arm-none-eabi\\11
 499              		.file 6 "c:\\chibistudio\\tools\\gnu tools arm embedded\\11.3 2022.08\\arm-none-eabi\\include\\mac
 500              		.file 7 "c:\\chibistudio\\tools\\gnu tools arm embedded\\11.3 2022.08\\arm-none-eabi\\include\\sys
 501              		.file 8 "../../../os/oslib/include/chmemcore.h"