ARM GAS  C:\Users\DEVELO~1\AppData\Local\Temp\cciz7EIg.s 			page 1


   1              		.cpu cortex-m7
   2              		.arch armv7e-m
   3              		.fpu softvfp
   4              		.eabi_attribute 20, 1
   5              		.eabi_attribute 21, 1
   6              		.eabi_attribute 23, 3
   7              		.eabi_attribute 24, 1
   8              		.eabi_attribute 25, 1
   9              		.eabi_attribute 26, 1
  10              		.eabi_attribute 30, 6
  11              		.eabi_attribute 34, 1
  12              		.eabi_attribute 18, 4
  13              		.file	"chmsg.c"
  14              		.text
  15              	.Ltext0:
  16              		.cfi_sections	.debug_frame
  17              		.section	.text.ch_queue_insert,"ax",%progbits
  18              		.align	1
  19              		.syntax unified
  20              		.thumb
  21              		.thumb_func
  22              		.type	ch_queue_insert, %function
  23              	ch_queue_insert:
  24              	.LFB22:
  25              		.file 1 "../../../os/rt/include/chlists.h"
  26              		.loc 1 262 67
  27              		.cfi_startproc
  28              		@ args = 0, pretend = 0, frame = 8
  29              		@ frame_needed = 1, uses_anonymous_args = 0
  30              		@ link register save eliminated.
  31 0000 80B4     		push	{r7}
  32              		.cfi_def_cfa_offset 4
  33              		.cfi_offset 7, -4
  34 0002 83B0     		sub	sp, sp, #12
  35              		.cfi_def_cfa_offset 16
  36 0004 00AF     		add	r7, sp, #0
  37              		.cfi_def_cfa_register 7
  38 0006 7860     		str	r0, [r7, #4]
  39 0008 3960     		str	r1, [r7]
  40              		.loc 1 264 17
  41 000a 3B68     		ldr	r3, [r7]
  42 000c 7A68     		ldr	r2, [r7, #4]
  43 000e 1A60     		str	r2, [r3]
  44              		.loc 1 265 21
  45 0010 7B68     		ldr	r3, [r7, #4]
  46 0012 5A68     		ldr	r2, [r3, #4]
  47              		.loc 1 265 17
  48 0014 3B68     		ldr	r3, [r7]
  49 0016 5A60     		str	r2, [r3, #4]
  50              		.loc 1 266 4
  51 0018 3B68     		ldr	r3, [r7]
  52 001a 5B68     		ldr	r3, [r3, #4]
  53              		.loc 1 266 17
  54 001c 3A68     		ldr	r2, [r7]
  55 001e 1A60     		str	r2, [r3]
  56              		.loc 1 267 17
  57 0020 7B68     		ldr	r3, [r7, #4]
ARM GAS  C:\Users\DEVELO~1\AppData\Local\Temp\cciz7EIg.s 			page 2


  58 0022 3A68     		ldr	r2, [r7]
  59 0024 5A60     		str	r2, [r3, #4]
  60              		.loc 1 268 1
  61 0026 00BF     		nop
  62 0028 0C37     		adds	r7, r7, #12
  63              		.cfi_def_cfa_offset 4
  64 002a BD46     		mov	sp, r7
  65              		.cfi_def_cfa_register 13
  66              		@ sp needed
  67 002c 80BC     		pop	{r7}
  68              		.cfi_restore 7
  69              		.cfi_def_cfa_offset 0
  70 002e 7047     		bx	lr
  71              		.cfi_endproc
  72              	.LFE22:
  73              		.size	ch_queue_insert, .-ch_queue_insert
  74              		.section	.text.ch_queue_fifo_remove,"ax",%progbits
  75              		.align	1
  76              		.syntax unified
  77              		.thumb
  78              		.thumb_func
  79              		.type	ch_queue_fifo_remove, %function
  80              	ch_queue_fifo_remove:
  81              	.LFB23:
  82              		.loc 1 280 64
  83              		.cfi_startproc
  84              		@ args = 0, pretend = 0, frame = 16
  85              		@ frame_needed = 1, uses_anonymous_args = 0
  86              		@ link register save eliminated.
  87 0000 80B4     		push	{r7}
  88              		.cfi_def_cfa_offset 4
  89              		.cfi_offset 7, -4
  90 0002 85B0     		sub	sp, sp, #20
  91              		.cfi_def_cfa_offset 24
  92 0004 00AF     		add	r7, sp, #0
  93              		.cfi_def_cfa_register 7
  94 0006 7860     		str	r0, [r7, #4]
  95              		.loc 1 281 15
  96 0008 7B68     		ldr	r3, [r7, #4]
  97 000a 1B68     		ldr	r3, [r3]
  98 000c FB60     		str	r3, [r7, #12]
  99              		.loc 1 283 21
 100 000e FB68     		ldr	r3, [r7, #12]
 101 0010 1A68     		ldr	r2, [r3]
 102              		.loc 1 283 18
 103 0012 7B68     		ldr	r3, [r7, #4]
 104 0014 1A60     		str	r2, [r3]
 105              		.loc 1 284 5
 106 0016 7B68     		ldr	r3, [r7, #4]
 107 0018 1B68     		ldr	r3, [r3]
 108              		.loc 1 284 18
 109 001a 7A68     		ldr	r2, [r7, #4]
 110 001c 5A60     		str	r2, [r3, #4]
 111              		.loc 1 286 10
 112 001e FB68     		ldr	r3, [r7, #12]
 113              		.loc 1 287 1
 114 0020 1846     		mov	r0, r3
ARM GAS  C:\Users\DEVELO~1\AppData\Local\Temp\cciz7EIg.s 			page 3


 115 0022 1437     		adds	r7, r7, #20
 116              		.cfi_def_cfa_offset 4
 117 0024 BD46     		mov	sp, r7
 118              		.cfi_def_cfa_register 13
 119              		@ sp needed
 120 0026 80BC     		pop	{r7}
 121              		.cfi_restore 7
 122              		.cfi_def_cfa_offset 0
 123 0028 7047     		bx	lr
 124              		.cfi_endproc
 125              	.LFE23:
 126              		.size	ch_queue_fifo_remove, .-ch_queue_fifo_remove
 127              		.section	.text.chSysLock,"ax",%progbits
 128              		.align	1
 129              		.syntax unified
 130              		.thumb
 131              		.thumb_func
 132              		.type	chSysLock, %function
 133              	chSysLock:
 134              	.LFB202:
 135              		.file 2 "../../../os/rt/include/chsys.h"
 136              		.loc 2 407 36
 137              		.cfi_startproc
 138              		@ args = 0, pretend = 0, frame = 8
 139              		@ frame_needed = 1, uses_anonymous_args = 0
 140              		@ link register save eliminated.
 141 0000 80B4     		push	{r7}
 142              		.cfi_def_cfa_offset 4
 143              		.cfi_offset 7, -4
 144 0002 83B0     		sub	sp, sp, #12
 145              		.cfi_def_cfa_offset 16
 146 0004 00AF     		add	r7, sp, #0
 147              		.cfi_def_cfa_register 7
 148 0006 3023     		movs	r3, #48
 149 0008 7B60     		str	r3, [r7, #4]
 150              	.LBB14:
 151              	.LBB15:
 152              	.LBB16:
 153              	.LBB17:
 154              		.file 3 "../../../os/common/ext/ARM/CMSIS/Core/Include/cmsis_gcc.h"
 155              		.loc 3 493 3
 156 000a 7B68     		ldr	r3, [r7, #4]
 157              		.syntax unified
 158              	@ 493 "../../../os/common/ext/ARM/CMSIS/Core/Include/cmsis_gcc.h" 1
 159 000c 83F31188 		MSR basepri, r3
 160              	@ 0 "" 2
 161              		.loc 3 494 1
 162              		.thumb
 163              		.syntax unified
 164 0010 00BF     		nop
 165              	.LBE17:
 166              	.LBE16:
 167              		.file 4 "../../../os/common/ports/ARMv7-M/chcore.h"
 168              		.loc 4 840 1
 169 0012 00BF     		nop
 170              	.LBE15:
 171              	.LBE14:
ARM GAS  C:\Users\DEVELO~1\AppData\Local\Temp\cciz7EIg.s 			page 4


 172              		.loc 2 412 1
 173 0014 00BF     		nop
 174 0016 0C37     		adds	r7, r7, #12
 175              		.cfi_def_cfa_offset 4
 176 0018 BD46     		mov	sp, r7
 177              		.cfi_def_cfa_register 13
 178              		@ sp needed
 179 001a 80BC     		pop	{r7}
 180              		.cfi_restore 7
 181              		.cfi_def_cfa_offset 0
 182 001c 7047     		bx	lr
 183              		.cfi_endproc
 184              	.LFE202:
 185              		.size	chSysLock, .-chSysLock
 186              		.section	.text.chSysUnlock,"ax",%progbits
 187              		.align	1
 188              		.syntax unified
 189              		.thumb
 190              		.thumb_func
 191              		.type	chSysUnlock, %function
 192              	chSysUnlock:
 193              	.LFB203:
 194              		.loc 2 421 38
 195              		.cfi_startproc
 196              		@ args = 0, pretend = 0, frame = 8
 197              		@ frame_needed = 1, uses_anonymous_args = 0
 198              		@ link register save eliminated.
 199 0000 80B4     		push	{r7}
 200              		.cfi_def_cfa_offset 4
 201              		.cfi_offset 7, -4
 202 0002 83B0     		sub	sp, sp, #12
 203              		.cfi_def_cfa_offset 16
 204 0004 00AF     		add	r7, sp, #0
 205              		.cfi_def_cfa_register 7
 206 0006 0023     		movs	r3, #0
 207 0008 7B60     		str	r3, [r7, #4]
 208              	.LBB18:
 209              	.LBB19:
 210              	.LBB20:
 211              	.LBB21:
 212              		.loc 3 493 3
 213 000a 7B68     		ldr	r3, [r7, #4]
 214              		.syntax unified
 215              	@ 493 "../../../os/common/ext/ARM/CMSIS/Core/Include/cmsis_gcc.h" 1
 216 000c 83F31188 		MSR basepri, r3
 217              	@ 0 "" 2
 218              		.loc 3 494 1
 219              		.thumb
 220              		.syntax unified
 221 0010 00BF     		nop
 222              	.LBE21:
 223              	.LBE20:
 224              		.loc 4 854 1
 225 0012 00BF     		nop
 226              	.LBE19:
 227              	.LBE18:
 228              		.loc 2 435 1
ARM GAS  C:\Users\DEVELO~1\AppData\Local\Temp\cciz7EIg.s 			page 5


 229 0014 00BF     		nop
 230 0016 0C37     		adds	r7, r7, #12
 231              		.cfi_def_cfa_offset 4
 232 0018 BD46     		mov	sp, r7
 233              		.cfi_def_cfa_register 13
 234              		@ sp needed
 235 001a 80BC     		pop	{r7}
 236              		.cfi_restore 7
 237              		.cfi_def_cfa_offset 0
 238 001c 7047     		bx	lr
 239              		.cfi_endproc
 240              	.LFE203:
 241              		.size	chSysUnlock, .-chSysUnlock
 242              		.section	.text.chThdGetSelfX,"ax",%progbits
 243              		.align	1
 244              		.syntax unified
 245              		.thumb
 246              		.thumb_func
 247              		.type	chThdGetSelfX, %function
 248              	chThdGetSelfX:
 249              	.LFB229:
 250              		.file 5 "../../../os/rt/include/chthreads.h"
 251              		.loc 5 341 45
 252              		.cfi_startproc
 253              		@ args = 0, pretend = 0, frame = 0
 254              		@ frame_needed = 1, uses_anonymous_args = 0
 255              		@ link register save eliminated.
 256 0000 80B4     		push	{r7}
 257              		.cfi_def_cfa_offset 4
 258              		.cfi_offset 7, -4
 259 0002 00AF     		add	r7, sp, #0
 260              		.cfi_def_cfa_register 7
 261              		.loc 5 343 10
 262 0004 024B     		ldr	r3, .L8
 263 0006 DB68     		ldr	r3, [r3, #12]
 264              		.loc 5 344 1
 265 0008 1846     		mov	r0, r3
 266 000a BD46     		mov	sp, r7
 267              		.cfi_def_cfa_register 13
 268              		@ sp needed
 269 000c 80BC     		pop	{r7}
 270              		.cfi_restore 7
 271              		.cfi_def_cfa_offset 0
 272 000e 7047     		bx	lr
 273              	.L9:
 274              		.align	2
 275              	.L8:
 276 0010 00000000 		.word	ch0
 277              		.cfi_endproc
 278              	.LFE229:
 279              		.size	chThdGetSelfX, .-chThdGetSelfX
 280              		.section	.text.chMsgIsPendingI,"ax",%progbits
 281              		.align	1
 282              		.syntax unified
 283              		.thumb
 284              		.thumb_func
 285              		.type	chMsgIsPendingI, %function
ARM GAS  C:\Users\DEVELO~1\AppData\Local\Temp\cciz7EIg.s 			page 6


 286              	chMsgIsPendingI:
 287              	.LFB262:
 288              		.file 6 "../../../os/rt/include/chmsg.h"
 289              		.loc 6 173 50
 290              		.cfi_startproc
 291              		@ args = 0, pretend = 0, frame = 8
 292              		@ frame_needed = 1, uses_anonymous_args = 0
 293              		@ link register save eliminated.
 294 0000 80B4     		push	{r7}
 295              		.cfi_def_cfa_offset 4
 296              		.cfi_offset 7, -4
 297 0002 83B0     		sub	sp, sp, #12
 298              		.cfi_def_cfa_offset 16
 299 0004 00AF     		add	r7, sp, #0
 300              		.cfi_def_cfa_register 7
 301 0006 7860     		str	r0, [r7, #4]
 302              		.loc 6 177 29
 303 0008 7B68     		ldr	r3, [r7, #4]
 304 000a 1A6B     		ldr	r2, [r3, #48]
 305              		.loc 6 177 38
 306 000c 7B68     		ldr	r3, [r7, #4]
 307 000e 3033     		adds	r3, r3, #48
 308              		.loc 6 177 10
 309 0010 9A42     		cmp	r2, r3
 310 0012 14BF     		ite	ne
 311 0014 0123     		movne	r3, #1
 312 0016 0023     		moveq	r3, #0
 313 0018 DBB2     		uxtb	r3, r3
 314              		.loc 6 178 1
 315 001a 1846     		mov	r0, r3
 316 001c 0C37     		adds	r7, r7, #12
 317              		.cfi_def_cfa_offset 4
 318 001e BD46     		mov	sp, r7
 319              		.cfi_def_cfa_register 13
 320              		@ sp needed
 321 0020 80BC     		pop	{r7}
 322              		.cfi_restore 7
 323              		.cfi_def_cfa_offset 0
 324 0022 7047     		bx	lr
 325              		.cfi_endproc
 326              	.LFE262:
 327              		.size	chMsgIsPendingI, .-chMsgIsPendingI
 328              		.section	.text.chMsgReleaseS,"ax",%progbits
 329              		.align	1
 330              		.syntax unified
 331              		.thumb
 332              		.thumb_func
 333              		.type	chMsgReleaseS, %function
 334              	chMsgReleaseS:
 335              	.LFB264:
 336              		.loc 6 207 59
 337              		.cfi_startproc
 338              		@ args = 0, pretend = 0, frame = 8
 339              		@ frame_needed = 1, uses_anonymous_args = 0
 340 0000 80B5     		push	{r7, lr}
 341              		.cfi_def_cfa_offset 8
 342              		.cfi_offset 7, -8
ARM GAS  C:\Users\DEVELO~1\AppData\Local\Temp\cciz7EIg.s 			page 7


 343              		.cfi_offset 14, -4
 344 0002 82B0     		sub	sp, sp, #8
 345              		.cfi_def_cfa_offset 16
 346 0004 00AF     		add	r7, sp, #0
 347              		.cfi_def_cfa_register 7
 348 0006 7860     		str	r0, [r7, #4]
 349 0008 3960     		str	r1, [r7]
 350              		.loc 6 211 3
 351 000a 3968     		ldr	r1, [r7]
 352 000c 7868     		ldr	r0, [r7, #4]
 353 000e FFF7FEFF 		bl	chSchWakeupS
 354              		.loc 6 212 1
 355 0012 00BF     		nop
 356 0014 0837     		adds	r7, r7, #8
 357              		.cfi_def_cfa_offset 8
 358 0016 BD46     		mov	sp, r7
 359              		.cfi_def_cfa_register 13
 360              		@ sp needed
 361 0018 80BD     		pop	{r7, pc}
 362              		.cfi_endproc
 363              	.LFE264:
 364              		.size	chMsgReleaseS, .-chMsgReleaseS
 365              		.section	.text.chMsgSend,"ax",%progbits
 366              		.align	1
 367              		.global	chMsgSend
 368              		.syntax unified
 369              		.thumb
 370              		.thumb_func
 371              		.type	chMsgSend, %function
 372              	chMsgSend:
 373              	.LFB346:
 374              		.file 7 "../../../os/rt/src/chmsg.c"
 375              		.loc 7 81 42
 376              		.cfi_startproc
 377              		@ args = 0, pretend = 0, frame = 16
 378              		@ frame_needed = 1, uses_anonymous_args = 0
 379 0000 80B5     		push	{r7, lr}
 380              		.cfi_def_cfa_offset 8
 381              		.cfi_offset 7, -8
 382              		.cfi_offset 14, -4
 383 0002 84B0     		sub	sp, sp, #16
 384              		.cfi_def_cfa_offset 24
 385 0004 00AF     		add	r7, sp, #0
 386              		.cfi_def_cfa_register 7
 387 0006 7860     		str	r0, [r7, #4]
 388 0008 3960     		str	r1, [r7]
 389              		.loc 7 82 22
 390 000a FFF7FEFF 		bl	chThdGetSelfX
 391 000e F860     		str	r0, [r7, #12]
 392              		.loc 7 86 3
 393 0010 FFF7FEFF 		bl	chSysLock
 394              		.loc 7 87 21
 395 0014 FB68     		ldr	r3, [r7, #12]
 396 0016 3A68     		ldr	r2, [r7]
 397 0018 9A62     		str	r2, [r3, #40]
 398              		.loc 7 88 3
 399 001a 7B68     		ldr	r3, [r7, #4]
ARM GAS  C:\Users\DEVELO~1\AppData\Local\Temp\cciz7EIg.s 			page 8


 400 001c 3033     		adds	r3, r3, #48
 401 001e FA68     		ldr	r2, [r7, #12]
 402 0020 1146     		mov	r1, r2
 403 0022 1846     		mov	r0, r3
 404 0024 FFF7FEFF 		bl	ch_queue_insert
 405              		.loc 7 89 9
 406 0028 7B68     		ldr	r3, [r7, #4]
 407 002a 93F82430 		ldrb	r3, [r3, #36]	@ zero_extendqisi2
 408              		.loc 7 89 6
 409 002e 0E2B     		cmp	r3, #14
 410 0030 02D1     		bne	.L14
 411              		.loc 7 90 12
 412 0032 7868     		ldr	r0, [r7, #4]
 413 0034 FFF7FEFF 		bl	chSchReadyI
 414              	.L14:
 415              		.loc 7 92 3
 416 0038 0C20     		movs	r0, #12
 417 003a FFF7FEFF 		bl	chSchGoSleepS
 418              		.loc 7 93 7
 419 003e FB68     		ldr	r3, [r7, #12]
 420 0040 9B6A     		ldr	r3, [r3, #40]
 421 0042 3B60     		str	r3, [r7]
 422              		.loc 7 94 3
 423 0044 FFF7FEFF 		bl	chSysUnlock
 424              		.loc 7 96 10
 425 0048 3B68     		ldr	r3, [r7]
 426              		.loc 7 97 1
 427 004a 1846     		mov	r0, r3
 428 004c 1037     		adds	r7, r7, #16
 429              		.cfi_def_cfa_offset 8
 430 004e BD46     		mov	sp, r7
 431              		.cfi_def_cfa_register 13
 432              		@ sp needed
 433 0050 80BD     		pop	{r7, pc}
 434              		.cfi_endproc
 435              	.LFE346:
 436              		.size	chMsgSend, .-chMsgSend
 437              		.section	.text.chMsgWaitS,"ax",%progbits
 438              		.align	1
 439              		.global	chMsgWaitS
 440              		.syntax unified
 441              		.thumb
 442              		.thumb_func
 443              		.type	chMsgWaitS, %function
 444              	chMsgWaitS:
 445              	.LFB347:
 446              		.loc 7 115 28
 447              		.cfi_startproc
 448              		@ args = 0, pretend = 0, frame = 8
 449              		@ frame_needed = 1, uses_anonymous_args = 0
 450 0000 80B5     		push	{r7, lr}
 451              		.cfi_def_cfa_offset 8
 452              		.cfi_offset 7, -8
 453              		.cfi_offset 14, -4
 454 0002 82B0     		sub	sp, sp, #8
 455              		.cfi_def_cfa_offset 16
 456 0004 00AF     		add	r7, sp, #0
ARM GAS  C:\Users\DEVELO~1\AppData\Local\Temp\cciz7EIg.s 			page 9


 457              		.cfi_def_cfa_register 7
 458              		.loc 7 116 22
 459 0006 FFF7FEFF 		bl	chThdGetSelfX
 460 000a 7860     		str	r0, [r7, #4]
 461              		.loc 7 121 8
 462 000c 7868     		ldr	r0, [r7, #4]
 463 000e FFF7FEFF 		bl	chMsgIsPendingI
 464 0012 0346     		mov	r3, r0
 465              		.loc 7 121 7
 466 0014 83F00103 		eor	r3, r3, #1
 467 0018 DBB2     		uxtb	r3, r3
 468              		.loc 7 121 6
 469 001a 002B     		cmp	r3, #0
 470 001c 02D0     		beq	.L17
 471              		.loc 7 122 5
 472 001e 0E20     		movs	r0, #14
 473 0020 FFF7FEFF 		bl	chSchGoSleepS
 474              	.L17:
 475              		.loc 7 124 8
 476 0024 7B68     		ldr	r3, [r7, #4]
 477 0026 3033     		adds	r3, r3, #48
 478 0028 1846     		mov	r0, r3
 479 002a FFF7FEFF 		bl	ch_queue_fifo_remove
 480 002e 3860     		str	r0, [r7]
 481              		.loc 7 125 13
 482 0030 3B68     		ldr	r3, [r7]
 483 0032 0D22     		movs	r2, #13
 484 0034 83F82420 		strb	r2, [r3, #36]
 485              		.loc 7 127 10
 486 0038 3B68     		ldr	r3, [r7]
 487              		.loc 7 128 1
 488 003a 1846     		mov	r0, r3
 489 003c 0837     		adds	r7, r7, #8
 490              		.cfi_def_cfa_offset 8
 491 003e BD46     		mov	sp, r7
 492              		.cfi_def_cfa_register 13
 493              		@ sp needed
 494 0040 80BD     		pop	{r7, pc}
 495              		.cfi_endproc
 496              	.LFE347:
 497              		.size	chMsgWaitS, .-chMsgWaitS
 498              		.section	.text.chMsgWaitTimeoutS,"ax",%progbits
 499              		.align	1
 500              		.global	chMsgWaitTimeoutS
 501              		.syntax unified
 502              		.thumb
 503              		.thumb_func
 504              		.type	chMsgWaitTimeoutS, %function
 505              	chMsgWaitTimeoutS:
 506              	.LFB348:
 507              		.loc 7 152 52
 508              		.cfi_startproc
 509              		@ args = 0, pretend = 0, frame = 16
 510              		@ frame_needed = 1, uses_anonymous_args = 0
 511 0000 80B5     		push	{r7, lr}
 512              		.cfi_def_cfa_offset 8
 513              		.cfi_offset 7, -8
ARM GAS  C:\Users\DEVELO~1\AppData\Local\Temp\cciz7EIg.s 			page 10


 514              		.cfi_offset 14, -4
 515 0002 84B0     		sub	sp, sp, #16
 516              		.cfi_def_cfa_offset 24
 517 0004 00AF     		add	r7, sp, #0
 518              		.cfi_def_cfa_register 7
 519 0006 7860     		str	r0, [r7, #4]
 520              		.loc 7 153 22
 521 0008 FFF7FEFF 		bl	chThdGetSelfX
 522 000c F860     		str	r0, [r7, #12]
 523              		.loc 7 158 8
 524 000e F868     		ldr	r0, [r7, #12]
 525 0010 FFF7FEFF 		bl	chMsgIsPendingI
 526 0014 0346     		mov	r3, r0
 527              		.loc 7 158 7
 528 0016 83F00103 		eor	r3, r3, #1
 529 001a DBB2     		uxtb	r3, r3
 530              		.loc 7 158 6
 531 001c 002B     		cmp	r3, #0
 532 001e 08D0     		beq	.L20
 533              		.loc 7 159 9
 534 0020 7968     		ldr	r1, [r7, #4]
 535 0022 0E20     		movs	r0, #14
 536 0024 FFF7FEFF 		bl	chSchGoSleepTimeoutS
 537 0028 0346     		mov	r3, r0
 538              		.loc 7 159 8
 539 002a 002B     		cmp	r3, #0
 540 002c 01D0     		beq	.L20
 541              		.loc 7 160 14
 542 002e 0023     		movs	r3, #0
 543 0030 0AE0     		b	.L21
 544              	.L20:
 545              		.loc 7 163 8
 546 0032 FB68     		ldr	r3, [r7, #12]
 547 0034 3033     		adds	r3, r3, #48
 548 0036 1846     		mov	r0, r3
 549 0038 FFF7FEFF 		bl	ch_queue_fifo_remove
 550 003c B860     		str	r0, [r7, #8]
 551              		.loc 7 164 13
 552 003e BB68     		ldr	r3, [r7, #8]
 553 0040 0D22     		movs	r2, #13
 554 0042 83F82420 		strb	r2, [r3, #36]
 555              		.loc 7 166 10
 556 0046 BB68     		ldr	r3, [r7, #8]
 557              	.L21:
 558              		.loc 7 167 1
 559 0048 1846     		mov	r0, r3
 560 004a 1037     		adds	r7, r7, #16
 561              		.cfi_def_cfa_offset 8
 562 004c BD46     		mov	sp, r7
 563              		.cfi_def_cfa_register 13
 564              		@ sp needed
 565 004e 80BD     		pop	{r7, pc}
 566              		.cfi_endproc
 567              	.LFE348:
 568              		.size	chMsgWaitTimeoutS, .-chMsgWaitTimeoutS
 569              		.section	.text.chMsgPollS,"ax",%progbits
 570              		.align	1
ARM GAS  C:\Users\DEVELO~1\AppData\Local\Temp\cciz7EIg.s 			page 11


 571              		.global	chMsgPollS
 572              		.syntax unified
 573              		.thumb
 574              		.thumb_func
 575              		.type	chMsgPollS, %function
 576              	chMsgPollS:
 577              	.LFB349:
 578              		.loc 7 186 28
 579              		.cfi_startproc
 580              		@ args = 0, pretend = 0, frame = 8
 581              		@ frame_needed = 1, uses_anonymous_args = 0
 582 0000 80B5     		push	{r7, lr}
 583              		.cfi_def_cfa_offset 8
 584              		.cfi_offset 7, -8
 585              		.cfi_offset 14, -4
 586 0002 82B0     		sub	sp, sp, #8
 587              		.cfi_def_cfa_offset 16
 588 0004 00AF     		add	r7, sp, #0
 589              		.cfi_def_cfa_register 7
 590              		.loc 7 187 22
 591 0006 FFF7FEFF 		bl	chThdGetSelfX
 592 000a 3860     		str	r0, [r7]
 593              		.loc 7 188 13
 594 000c 0023     		movs	r3, #0
 595 000e 7B60     		str	r3, [r7, #4]
 596              		.loc 7 190 7
 597 0010 3868     		ldr	r0, [r7]
 598 0012 FFF7FEFF 		bl	chMsgIsPendingI
 599 0016 0346     		mov	r3, r0
 600              		.loc 7 190 6
 601 0018 002B     		cmp	r3, #0
 602 001a 09D0     		beq	.L23
 603              		.loc 7 191 10
 604 001c 3B68     		ldr	r3, [r7]
 605 001e 3033     		adds	r3, r3, #48
 606 0020 1846     		mov	r0, r3
 607 0022 FFF7FEFF 		bl	ch_queue_fifo_remove
 608 0026 7860     		str	r0, [r7, #4]
 609              		.loc 7 192 15
 610 0028 7B68     		ldr	r3, [r7, #4]
 611 002a 0D22     		movs	r2, #13
 612 002c 83F82420 		strb	r2, [r3, #36]
 613              	.L23:
 614              		.loc 7 195 10
 615 0030 7B68     		ldr	r3, [r7, #4]
 616              		.loc 7 196 1
 617 0032 1846     		mov	r0, r3
 618 0034 0837     		adds	r7, r7, #8
 619              		.cfi_def_cfa_offset 8
 620 0036 BD46     		mov	sp, r7
 621              		.cfi_def_cfa_register 13
 622              		@ sp needed
 623 0038 80BD     		pop	{r7, pc}
 624              		.cfi_endproc
 625              	.LFE349:
 626              		.size	chMsgPollS, .-chMsgPollS
 627              		.section	.text.chMsgRelease,"ax",%progbits
ARM GAS  C:\Users\DEVELO~1\AppData\Local\Temp\cciz7EIg.s 			page 12


 628              		.align	1
 629              		.global	chMsgRelease
 630              		.syntax unified
 631              		.thumb
 632              		.thumb_func
 633              		.type	chMsgRelease, %function
 634              	chMsgRelease:
 635              	.LFB350:
 636              		.loc 7 208 44
 637              		.cfi_startproc
 638              		@ args = 0, pretend = 0, frame = 8
 639              		@ frame_needed = 1, uses_anonymous_args = 0
 640 0000 80B5     		push	{r7, lr}
 641              		.cfi_def_cfa_offset 8
 642              		.cfi_offset 7, -8
 643              		.cfi_offset 14, -4
 644 0002 82B0     		sub	sp, sp, #8
 645              		.cfi_def_cfa_offset 16
 646 0004 00AF     		add	r7, sp, #0
 647              		.cfi_def_cfa_register 7
 648 0006 7860     		str	r0, [r7, #4]
 649 0008 3960     		str	r1, [r7]
 650              		.loc 7 210 3
 651 000a FFF7FEFF 		bl	chSysLock
 652              		.loc 7 212 3
 653 000e 3968     		ldr	r1, [r7]
 654 0010 7868     		ldr	r0, [r7, #4]
 655 0012 FFF7FEFF 		bl	chMsgReleaseS
 656              		.loc 7 213 3
 657 0016 FFF7FEFF 		bl	chSysUnlock
 658              		.loc 7 214 1
 659 001a 00BF     		nop
 660 001c 0837     		adds	r7, r7, #8
 661              		.cfi_def_cfa_offset 8
 662 001e BD46     		mov	sp, r7
 663              		.cfi_def_cfa_register 13
 664              		@ sp needed
 665 0020 80BD     		pop	{r7, pc}
 666              		.cfi_endproc
 667              	.LFE350:
 668              		.size	chMsgRelease, .-chMsgRelease
 669              		.text
 670              	.Letext0:
 671              		.file 8 "c:\\chibistudio\\tools\\gnu tools arm embedded\\11.3 2022.08\\arm-none-eabi\\include\\mac
 672              		.file 9 "c:\\chibistudio\\tools\\gnu tools arm embedded\\11.3 2022.08\\arm-none-eabi\\include\\sys
 673              		.file 10 "../../../os/common/ports/ARM-common/chtypes.h"
 674              		.file 11 "../../../os/rt/include/chearly.h"
 675              		.file 12 "../../../os/rt/include/chobjects.h"
 676              		.file 13 "../../../os/rt/include/chrfcu.h"
 677              		.file 14 "../../../os/rt/include/chdebug.h"
 678              		.file 15 "../../../os/rt/include/chtime.h"
 679              		.file 16 "../../../os/rt/include/chtrace.h"
 680              		.file 17 "../../../os/rt/include/chsem.h"
 681              		.file 18 "../../../os/rt/include/chmtx.h"
 682              		.file 19 "../../../os/rt/include/chschd.h"