ARM GAS  C:\Users\DEVELO~1\AppData\Local\Temp\cc69bNlm.s 			page 1


   1              		.cpu cortex-m7
   2              		.arch armv7e-m
   3              		.fpu softvfp
   4              		.eabi_attribute 20, 1
   5              		.eabi_attribute 21, 1
   6              		.eabi_attribute 23, 3
   7              		.eabi_attribute 24, 1
   8              		.eabi_attribute 25, 1
   9              		.eabi_attribute 26, 1
  10              		.eabi_attribute 30, 6
  11              		.eabi_attribute 34, 1
  12              		.eabi_attribute 18, 4
  13              		.file	"chmtx.c"
  14              		.text
  15              	.Ltext0:
  16              		.cfi_sections	.debug_frame
  17              		.section	.text.ch_queue_init,"ax",%progbits
  18              		.align	1
  19              		.syntax unified
  20              		.thumb
  21              		.thumb_func
  22              		.type	ch_queue_init, %function
  23              	ch_queue_init:
  24              	.LFB19:
  25              		.file 1 "../../../os/rt/include/chlists.h"
  26              		.loc 1 222 50
  27              		.cfi_startproc
  28              		@ args = 0, pretend = 0, frame = 8
  29              		@ frame_needed = 1, uses_anonymous_args = 0
  30              		@ link register save eliminated.
  31 0000 80B4     		push	{r7}
  32              		.cfi_def_cfa_offset 4
  33              		.cfi_offset 7, -4
  34 0002 83B0     		sub	sp, sp, #12
  35              		.cfi_def_cfa_offset 16
  36 0004 00AF     		add	r7, sp, #0
  37              		.cfi_def_cfa_register 7
  38 0006 7860     		str	r0, [r7, #4]
  39              		.loc 1 224 12
  40 0008 7B68     		ldr	r3, [r7, #4]
  41 000a 7A68     		ldr	r2, [r7, #4]
  42 000c 1A60     		str	r2, [r3]
  43              		.loc 1 225 12
  44 000e 7B68     		ldr	r3, [r7, #4]
  45 0010 7A68     		ldr	r2, [r7, #4]
  46 0012 5A60     		str	r2, [r3, #4]
  47              		.loc 1 226 1
  48 0014 00BF     		nop
  49 0016 0C37     		adds	r7, r7, #12
  50              		.cfi_def_cfa_offset 4
  51 0018 BD46     		mov	sp, r7
  52              		.cfi_def_cfa_register 13
  53              		@ sp needed
  54 001a 80BC     		pop	{r7}
  55              		.cfi_restore 7
  56              		.cfi_def_cfa_offset 0
  57 001c 7047     		bx	lr
ARM GAS  C:\Users\DEVELO~1\AppData\Local\Temp\cc69bNlm.s 			page 2


  58              		.cfi_endproc
  59              	.LFE19:
  60              		.size	ch_queue_init, .-ch_queue_init
  61              		.section	.text.ch_queue_notempty,"ax",%progbits
  62              		.align	1
  63              		.syntax unified
  64              		.thumb
  65              		.thumb_func
  66              		.type	ch_queue_notempty, %function
  67              	ch_queue_notempty:
  68              	.LFB21:
  69              		.loc 1 249 60
  70              		.cfi_startproc
  71              		@ args = 0, pretend = 0, frame = 8
  72              		@ frame_needed = 1, uses_anonymous_args = 0
  73              		@ link register save eliminated.
  74 0000 80B4     		push	{r7}
  75              		.cfi_def_cfa_offset 4
  76              		.cfi_offset 7, -4
  77 0002 83B0     		sub	sp, sp, #12
  78              		.cfi_def_cfa_offset 16
  79 0004 00AF     		add	r7, sp, #0
  80              		.cfi_def_cfa_register 7
  81 0006 7860     		str	r0, [r7, #4]
  82              		.loc 1 251 19
  83 0008 7B68     		ldr	r3, [r7, #4]
  84 000a 1B68     		ldr	r3, [r3]
  85              		.loc 1 251 10
  86 000c 7A68     		ldr	r2, [r7, #4]
  87 000e 9A42     		cmp	r2, r3
  88 0010 14BF     		ite	ne
  89 0012 0123     		movne	r3, #1
  90 0014 0023     		moveq	r3, #0
  91 0016 DBB2     		uxtb	r3, r3
  92              		.loc 1 252 1
  93 0018 1846     		mov	r0, r3
  94 001a 0C37     		adds	r7, r7, #12
  95              		.cfi_def_cfa_offset 4
  96 001c BD46     		mov	sp, r7
  97              		.cfi_def_cfa_register 13
  98              		@ sp needed
  99 001e 80BC     		pop	{r7}
 100              		.cfi_restore 7
 101              		.cfi_def_cfa_offset 0
 102 0020 7047     		bx	lr
 103              		.cfi_endproc
 104              	.LFE21:
 105              		.size	ch_queue_notempty, .-ch_queue_notempty
 106              		.section	.text.ch_queue_fifo_remove,"ax",%progbits
 107              		.align	1
 108              		.syntax unified
 109              		.thumb
 110              		.thumb_func
 111              		.type	ch_queue_fifo_remove, %function
 112              	ch_queue_fifo_remove:
 113              	.LFB23:
 114              		.loc 1 280 64
ARM GAS  C:\Users\DEVELO~1\AppData\Local\Temp\cc69bNlm.s 			page 3


 115              		.cfi_startproc
 116              		@ args = 0, pretend = 0, frame = 16
 117              		@ frame_needed = 1, uses_anonymous_args = 0
 118              		@ link register save eliminated.
 119 0000 80B4     		push	{r7}
 120              		.cfi_def_cfa_offset 4
 121              		.cfi_offset 7, -4
 122 0002 85B0     		sub	sp, sp, #20
 123              		.cfi_def_cfa_offset 24
 124 0004 00AF     		add	r7, sp, #0
 125              		.cfi_def_cfa_register 7
 126 0006 7860     		str	r0, [r7, #4]
 127              		.loc 1 281 15
 128 0008 7B68     		ldr	r3, [r7, #4]
 129 000a 1B68     		ldr	r3, [r3]
 130 000c FB60     		str	r3, [r7, #12]
 131              		.loc 1 283 21
 132 000e FB68     		ldr	r3, [r7, #12]
 133 0010 1A68     		ldr	r2, [r3]
 134              		.loc 1 283 18
 135 0012 7B68     		ldr	r3, [r7, #4]
 136 0014 1A60     		str	r2, [r3]
 137              		.loc 1 284 5
 138 0016 7B68     		ldr	r3, [r7, #4]
 139 0018 1B68     		ldr	r3, [r3]
 140              		.loc 1 284 18
 141 001a 7A68     		ldr	r2, [r7, #4]
 142 001c 5A60     		str	r2, [r3, #4]
 143              		.loc 1 286 10
 144 001e FB68     		ldr	r3, [r7, #12]
 145              		.loc 1 287 1
 146 0020 1846     		mov	r0, r3
 147 0022 1437     		adds	r7, r7, #20
 148              		.cfi_def_cfa_offset 4
 149 0024 BD46     		mov	sp, r7
 150              		.cfi_def_cfa_register 13
 151              		@ sp needed
 152 0026 80BC     		pop	{r7}
 153              		.cfi_restore 7
 154              		.cfi_def_cfa_offset 0
 155 0028 7047     		bx	lr
 156              		.cfi_endproc
 157              	.LFE23:
 158              		.size	ch_queue_fifo_remove, .-ch_queue_fifo_remove
 159              		.section	.text.ch_queue_dequeue,"ax",%progbits
 160              		.align	1
 161              		.syntax unified
 162              		.thumb
 163              		.thumb_func
 164              		.type	ch_queue_dequeue, %function
 165              	ch_queue_dequeue:
 166              	.LFB25:
 167              		.loc 1 318 59
 168              		.cfi_startproc
 169              		@ args = 0, pretend = 0, frame = 8
 170              		@ frame_needed = 1, uses_anonymous_args = 0
 171              		@ link register save eliminated.
ARM GAS  C:\Users\DEVELO~1\AppData\Local\Temp\cc69bNlm.s 			page 4


 172 0000 80B4     		push	{r7}
 173              		.cfi_def_cfa_offset 4
 174              		.cfi_offset 7, -4
 175 0002 83B0     		sub	sp, sp, #12
 176              		.cfi_def_cfa_offset 16
 177 0004 00AF     		add	r7, sp, #0
 178              		.cfi_def_cfa_register 7
 179 0006 7860     		str	r0, [r7, #4]
 180              		.loc 1 320 4
 181 0008 7B68     		ldr	r3, [r7, #4]
 182 000a 5B68     		ldr	r3, [r3, #4]
 183              		.loc 1 320 20
 184 000c 7A68     		ldr	r2, [r7, #4]
 185 000e 1268     		ldr	r2, [r2]
 186              		.loc 1 320 17
 187 0010 1A60     		str	r2, [r3]
 188              		.loc 1 321 4
 189 0012 7B68     		ldr	r3, [r7, #4]
 190 0014 1B68     		ldr	r3, [r3]
 191              		.loc 1 321 20
 192 0016 7A68     		ldr	r2, [r7, #4]
 193 0018 5268     		ldr	r2, [r2, #4]
 194              		.loc 1 321 17
 195 001a 5A60     		str	r2, [r3, #4]
 196              		.loc 1 323 10
 197 001c 7B68     		ldr	r3, [r7, #4]
 198              		.loc 1 324 1
 199 001e 1846     		mov	r0, r3
 200 0020 0C37     		adds	r7, r7, #12
 201              		.cfi_def_cfa_offset 4
 202 0022 BD46     		mov	sp, r7
 203              		.cfi_def_cfa_register 13
 204              		@ sp needed
 205 0024 80BC     		pop	{r7}
 206              		.cfi_restore 7
 207              		.cfi_def_cfa_offset 0
 208 0026 7047     		bx	lr
 209              		.cfi_endproc
 210              	.LFE25:
 211              		.size	ch_queue_dequeue, .-ch_queue_dequeue
 212              		.section	.text.chSysLock,"ax",%progbits
 213              		.align	1
 214              		.syntax unified
 215              		.thumb
 216              		.thumb_func
 217              		.type	chSysLock, %function
 218              	chSysLock:
 219              	.LFB202:
 220              		.file 2 "../../../os/rt/include/chsys.h"
 221              		.loc 2 407 36
 222              		.cfi_startproc
 223              		@ args = 0, pretend = 0, frame = 8
 224              		@ frame_needed = 1, uses_anonymous_args = 0
 225              		@ link register save eliminated.
 226 0000 80B4     		push	{r7}
 227              		.cfi_def_cfa_offset 4
 228              		.cfi_offset 7, -4
ARM GAS  C:\Users\DEVELO~1\AppData\Local\Temp\cc69bNlm.s 			page 5


 229 0002 83B0     		sub	sp, sp, #12
 230              		.cfi_def_cfa_offset 16
 231 0004 00AF     		add	r7, sp, #0
 232              		.cfi_def_cfa_register 7
 233 0006 3023     		movs	r3, #48
 234 0008 7B60     		str	r3, [r7, #4]
 235              	.LBB14:
 236              	.LBB15:
 237              	.LBB16:
 238              	.LBB17:
 239              		.file 3 "../../../os/common/ext/ARM/CMSIS/Core/Include/cmsis_gcc.h"
 240              		.loc 3 493 3
 241 000a 7B68     		ldr	r3, [r7, #4]
 242              		.syntax unified
 243              	@ 493 "../../../os/common/ext/ARM/CMSIS/Core/Include/cmsis_gcc.h" 1
 244 000c 83F31188 		MSR basepri, r3
 245              	@ 0 "" 2
 246              		.loc 3 494 1
 247              		.thumb
 248              		.syntax unified
 249 0010 00BF     		nop
 250              	.LBE17:
 251              	.LBE16:
 252              		.file 4 "../../../os/common/ports/ARMv7-M/chcore.h"
 253              		.loc 4 840 1
 254 0012 00BF     		nop
 255              	.LBE15:
 256              	.LBE14:
 257              		.loc 2 412 1
 258 0014 00BF     		nop
 259 0016 0C37     		adds	r7, r7, #12
 260              		.cfi_def_cfa_offset 4
 261 0018 BD46     		mov	sp, r7
 262              		.cfi_def_cfa_register 13
 263              		@ sp needed
 264 001a 80BC     		pop	{r7}
 265              		.cfi_restore 7
 266              		.cfi_def_cfa_offset 0
 267 001c 7047     		bx	lr
 268              		.cfi_endproc
 269              	.LFE202:
 270              		.size	chSysLock, .-chSysLock
 271              		.section	.text.chSysUnlock,"ax",%progbits
 272              		.align	1
 273              		.syntax unified
 274              		.thumb
 275              		.thumb_func
 276              		.type	chSysUnlock, %function
 277              	chSysUnlock:
 278              	.LFB203:
 279              		.loc 2 421 38
 280              		.cfi_startproc
 281              		@ args = 0, pretend = 0, frame = 8
 282              		@ frame_needed = 1, uses_anonymous_args = 0
 283              		@ link register save eliminated.
 284 0000 80B4     		push	{r7}
 285              		.cfi_def_cfa_offset 4
ARM GAS  C:\Users\DEVELO~1\AppData\Local\Temp\cc69bNlm.s 			page 6


 286              		.cfi_offset 7, -4
 287 0002 83B0     		sub	sp, sp, #12
 288              		.cfi_def_cfa_offset 16
 289 0004 00AF     		add	r7, sp, #0
 290              		.cfi_def_cfa_register 7
 291 0006 0023     		movs	r3, #0
 292 0008 7B60     		str	r3, [r7, #4]
 293              	.LBB18:
 294              	.LBB19:
 295              	.LBB20:
 296              	.LBB21:
 297              		.loc 3 493 3
 298 000a 7B68     		ldr	r3, [r7, #4]
 299              		.syntax unified
 300              	@ 493 "../../../os/common/ext/ARM/CMSIS/Core/Include/cmsis_gcc.h" 1
 301 000c 83F31188 		MSR basepri, r3
 302              	@ 0 "" 2
 303              		.loc 3 494 1
 304              		.thumb
 305              		.syntax unified
 306 0010 00BF     		nop
 307              	.LBE21:
 308              	.LBE20:
 309              		.loc 4 854 1
 310 0012 00BF     		nop
 311              	.LBE19:
 312              	.LBE18:
 313              		.loc 2 435 1
 314 0014 00BF     		nop
 315 0016 0C37     		adds	r7, r7, #12
 316              		.cfi_def_cfa_offset 4
 317 0018 BD46     		mov	sp, r7
 318              		.cfi_def_cfa_register 13
 319              		@ sp needed
 320 001a 80BC     		pop	{r7}
 321              		.cfi_restore 7
 322              		.cfi_def_cfa_offset 0
 323 001c 7047     		bx	lr
 324              		.cfi_endproc
 325              	.LFE203:
 326              		.size	chSysUnlock, .-chSysUnlock
 327              		.section	.text.ch_sch_prio_insert,"ax",%progbits
 328              		.align	1
 329              		.syntax unified
 330              		.thumb
 331              		.thumb_func
 332              		.type	ch_sch_prio_insert, %function
 333              	ch_sch_prio_insert:
 334              	.LFB228:
 335              		.file 5 "../../../os/rt/include/chschd.h"
 336              		.loc 5 175 71
 337              		.cfi_startproc
 338              		@ args = 0, pretend = 0, frame = 16
 339              		@ frame_needed = 1, uses_anonymous_args = 0
 340              		@ link register save eliminated.
 341 0000 80B4     		push	{r7}
 342              		.cfi_def_cfa_offset 4
ARM GAS  C:\Users\DEVELO~1\AppData\Local\Temp\cc69bNlm.s 			page 7


 343              		.cfi_offset 7, -4
 344 0002 85B0     		sub	sp, sp, #20
 345              		.cfi_def_cfa_offset 24
 346 0004 00AF     		add	r7, sp, #0
 347              		.cfi_def_cfa_register 7
 348 0006 7860     		str	r0, [r7, #4]
 349 0008 3960     		str	r1, [r7]
 350              		.loc 5 177 15
 351 000a 7B68     		ldr	r3, [r7, #4]
 352 000c FB60     		str	r3, [r7, #12]
 353              	.L12:
 354              		.loc 5 179 8 discriminator 2
 355 000e FB68     		ldr	r3, [r7, #12]
 356 0010 1B68     		ldr	r3, [r3]
 357 0012 FB60     		str	r3, [r7, #12]
 358              		.loc 5 180 23 discriminator 2
 359 0014 FA68     		ldr	r2, [r7, #12]
 360 0016 7B68     		ldr	r3, [r7, #4]
 361 0018 9A42     		cmp	r2, r3
 362 001a 05D0     		beq	.L11
 363              		.loc 5 181 38 discriminator 1
 364 001c FB68     		ldr	r3, [r7, #12]
 365 001e 9A68     		ldr	r2, [r3, #8]
 366              		.loc 5 181 72 discriminator 1
 367 0020 3B68     		ldr	r3, [r7]
 368 0022 9B68     		ldr	r3, [r3, #8]
 369              		.loc 5 180 23 discriminator 1
 370 0024 9A42     		cmp	r2, r3
 371 0026 F2D2     		bcs	.L12
 372              	.L11:
 373              		.loc 5 182 18
 374 0028 3B68     		ldr	r3, [r7]
 375 002a FA68     		ldr	r2, [r7, #12]
 376 002c 1A60     		str	r2, [r3]
 377              		.loc 5 183 22
 378 002e FB68     		ldr	r3, [r7, #12]
 379 0030 5A68     		ldr	r2, [r3, #4]
 380              		.loc 5 183 18
 381 0032 3B68     		ldr	r3, [r7]
 382 0034 5A60     		str	r2, [r3, #4]
 383              		.loc 5 184 5
 384 0036 3B68     		ldr	r3, [r7]
 385 0038 5B68     		ldr	r3, [r3, #4]
 386              		.loc 5 184 18
 387 003a 3A68     		ldr	r2, [r7]
 388 003c 1A60     		str	r2, [r3]
 389              		.loc 5 185 18
 390 003e FB68     		ldr	r3, [r7, #12]
 391 0040 3A68     		ldr	r2, [r7]
 392 0042 5A60     		str	r2, [r3, #4]
 393              		.loc 5 186 1
 394 0044 00BF     		nop
 395 0046 1437     		adds	r7, r7, #20
 396              		.cfi_def_cfa_offset 4
 397 0048 BD46     		mov	sp, r7
 398              		.cfi_def_cfa_register 13
 399              		@ sp needed
ARM GAS  C:\Users\DEVELO~1\AppData\Local\Temp\cc69bNlm.s 			page 8


 400 004a 80BC     		pop	{r7}
 401              		.cfi_restore 7
 402              		.cfi_def_cfa_offset 0
 403 004c 7047     		bx	lr
 404              		.cfi_endproc
 405              	.LFE228:
 406              		.size	ch_sch_prio_insert, .-ch_sch_prio_insert
 407              		.section	.text.chThdGetSelfX,"ax",%progbits
 408              		.align	1
 409              		.syntax unified
 410              		.thumb
 411              		.thumb_func
 412              		.type	chThdGetSelfX, %function
 413              	chThdGetSelfX:
 414              	.LFB229:
 415              		.file 6 "../../../os/rt/include/chthreads.h"
 416              		.loc 6 341 45
 417              		.cfi_startproc
 418              		@ args = 0, pretend = 0, frame = 0
 419              		@ frame_needed = 1, uses_anonymous_args = 0
 420              		@ link register save eliminated.
 421 0000 80B4     		push	{r7}
 422              		.cfi_def_cfa_offset 4
 423              		.cfi_offset 7, -4
 424 0002 00AF     		add	r7, sp, #0
 425              		.cfi_def_cfa_register 7
 426              		.loc 6 343 10
 427 0004 024B     		ldr	r3, .L15
 428 0006 DB68     		ldr	r3, [r3, #12]
 429              		.loc 6 344 1
 430 0008 1846     		mov	r0, r3
 431 000a BD46     		mov	sp, r7
 432              		.cfi_def_cfa_register 13
 433              		@ sp needed
 434 000c 80BC     		pop	{r7}
 435              		.cfi_restore 7
 436              		.cfi_def_cfa_offset 0
 437 000e 7047     		bx	lr
 438              	.L16:
 439              		.align	2
 440              	.L15:
 441 0010 00000000 		.word	ch0
 442              		.cfi_endproc
 443              	.LFE229:
 444              		.size	chThdGetSelfX, .-chThdGetSelfX
 445              		.section	.text.chMtxQueueNotEmptyS,"ax",%progbits
 446              		.align	1
 447              		.syntax unified
 448              		.thumb
 449              		.thumb_func
 450              		.type	chMtxQueueNotEmptyS, %function
 451              	chMtxQueueNotEmptyS:
 452              	.LFB248:
 453              		.file 7 "../../../os/rt/include/chmtx.h"
 454              		.loc 7 128 53
 455              		.cfi_startproc
 456              		@ args = 0, pretend = 0, frame = 8
ARM GAS  C:\Users\DEVELO~1\AppData\Local\Temp\cc69bNlm.s 			page 9


 457              		@ frame_needed = 1, uses_anonymous_args = 0
 458 0000 80B5     		push	{r7, lr}
 459              		.cfi_def_cfa_offset 8
 460              		.cfi_offset 7, -8
 461              		.cfi_offset 14, -4
 462 0002 82B0     		sub	sp, sp, #8
 463              		.cfi_def_cfa_offset 16
 464 0004 00AF     		add	r7, sp, #0
 465              		.cfi_def_cfa_register 7
 466 0006 7860     		str	r0, [r7, #4]
 467              		.loc 7 132 28
 468 0008 7B68     		ldr	r3, [r7, #4]
 469              		.loc 7 132 10
 470 000a 1846     		mov	r0, r3
 471 000c FFF7FEFF 		bl	ch_queue_notempty
 472 0010 0346     		mov	r3, r0
 473              		.loc 7 133 1
 474 0012 1846     		mov	r0, r3
 475 0014 0837     		adds	r7, r7, #8
 476              		.cfi_def_cfa_offset 8
 477 0016 BD46     		mov	sp, r7
 478              		.cfi_def_cfa_register 13
 479              		@ sp needed
 480 0018 80BD     		pop	{r7, pc}
 481              		.cfi_endproc
 482              	.LFE248:
 483              		.size	chMtxQueueNotEmptyS, .-chMtxQueueNotEmptyS
 484              		.section	.text.chMtxObjectInit,"ax",%progbits
 485              		.align	1
 486              		.global	chMtxObjectInit
 487              		.syntax unified
 488              		.thumb
 489              		.thumb_func
 490              		.type	chMtxObjectInit, %function
 491              	chMtxObjectInit:
 492              	.LFB346:
 493              		.file 8 "../../../os/rt/src/chmtx.c"
 494              		.loc 8 103 35
 495              		.cfi_startproc
 496              		@ args = 0, pretend = 0, frame = 8
 497              		@ frame_needed = 1, uses_anonymous_args = 0
 498 0000 80B5     		push	{r7, lr}
 499              		.cfi_def_cfa_offset 8
 500              		.cfi_offset 7, -8
 501              		.cfi_offset 14, -4
 502 0002 82B0     		sub	sp, sp, #8
 503              		.cfi_def_cfa_offset 16
 504 0004 00AF     		add	r7, sp, #0
 505              		.cfi_def_cfa_register 7
 506 0006 7860     		str	r0, [r7, #4]
 507              		.loc 8 107 3
 508 0008 7B68     		ldr	r3, [r7, #4]
 509 000a 1846     		mov	r0, r3
 510 000c FFF7FEFF 		bl	ch_queue_init
 511              		.loc 8 108 13
 512 0010 7B68     		ldr	r3, [r7, #4]
 513 0012 0022     		movs	r2, #0
ARM GAS  C:\Users\DEVELO~1\AppData\Local\Temp\cc69bNlm.s 			page 10


 514 0014 9A60     		str	r2, [r3, #8]
 515              		.loc 8 112 1
 516 0016 00BF     		nop
 517 0018 0837     		adds	r7, r7, #8
 518              		.cfi_def_cfa_offset 8
 519 001a BD46     		mov	sp, r7
 520              		.cfi_def_cfa_register 13
 521              		@ sp needed
 522 001c 80BD     		pop	{r7, pc}
 523              		.cfi_endproc
 524              	.LFE346:
 525              		.size	chMtxObjectInit, .-chMtxObjectInit
 526              		.section	.text.chMtxLock,"ax",%progbits
 527              		.align	1
 528              		.global	chMtxLock
 529              		.syntax unified
 530              		.thumb
 531              		.thumb_func
 532              		.type	chMtxLock, %function
 533              	chMtxLock:
 534              	.LFB347:
 535              		.loc 8 123 29
 536              		.cfi_startproc
 537              		@ args = 0, pretend = 0, frame = 8
 538              		@ frame_needed = 1, uses_anonymous_args = 0
 539 0000 80B5     		push	{r7, lr}
 540              		.cfi_def_cfa_offset 8
 541              		.cfi_offset 7, -8
 542              		.cfi_offset 14, -4
 543 0002 82B0     		sub	sp, sp, #8
 544              		.cfi_def_cfa_offset 16
 545 0004 00AF     		add	r7, sp, #0
 546              		.cfi_def_cfa_register 7
 547 0006 7860     		str	r0, [r7, #4]
 548              		.loc 8 125 3
 549 0008 FFF7FEFF 		bl	chSysLock
 550              		.loc 8 126 3
 551 000c 7868     		ldr	r0, [r7, #4]
 552 000e FFF7FEFF 		bl	chMtxLockS
 553              		.loc 8 127 3
 554 0012 FFF7FEFF 		bl	chSysUnlock
 555              		.loc 8 128 1
 556 0016 00BF     		nop
 557 0018 0837     		adds	r7, r7, #8
 558              		.cfi_def_cfa_offset 8
 559 001a BD46     		mov	sp, r7
 560              		.cfi_def_cfa_register 13
 561              		@ sp needed
 562 001c 80BD     		pop	{r7, pc}
 563              		.cfi_endproc
 564              	.LFE347:
 565              		.size	chMtxLock, .-chMtxLock
 566              		.section	.text.chMtxLockS,"ax",%progbits
 567              		.align	1
 568              		.global	chMtxLockS
 569              		.syntax unified
 570              		.thumb
ARM GAS  C:\Users\DEVELO~1\AppData\Local\Temp\cc69bNlm.s 			page 11


 571              		.thumb_func
 572              		.type	chMtxLockS, %function
 573              	chMtxLockS:
 574              	.LFB348:
 575              		.loc 8 139 30
 576              		.cfi_startproc
 577              		@ args = 0, pretend = 0, frame = 16
 578              		@ frame_needed = 1, uses_anonymous_args = 0
 579 0000 90B5     		push	{r4, r7, lr}
 580              		.cfi_def_cfa_offset 12
 581              		.cfi_offset 4, -12
 582              		.cfi_offset 7, -8
 583              		.cfi_offset 14, -4
 584 0002 85B0     		sub	sp, sp, #20
 585              		.cfi_def_cfa_offset 32
 586 0004 00AF     		add	r7, sp, #0
 587              		.cfi_def_cfa_register 7
 588 0006 7860     		str	r0, [r7, #4]
 589              		.loc 8 140 22
 590 0008 FFF7FEFF 		bl	chThdGetSelfX
 591 000c F860     		str	r0, [r7, #12]
 592              		.loc 8 146 9
 593 000e 7B68     		ldr	r3, [r7, #4]
 594 0010 9B68     		ldr	r3, [r3, #8]
 595              		.loc 8 146 6
 596 0012 002B     		cmp	r3, #0
 597 0014 4ED0     		beq	.L22
 598              	.LBB22:
 599              		.loc 8 161 17
 600 0016 7B68     		ldr	r3, [r7, #4]
 601 0018 9B68     		ldr	r3, [r3, #8]
 602 001a BB60     		str	r3, [r7, #8]
 603              		.loc 8 165 13
 604 001c 37E0     		b	.L23
 605              	.L29:
 606              		.loc 8 167 49
 607 001e FB68     		ldr	r3, [r7, #12]
 608 0020 9A68     		ldr	r2, [r3, #8]
 609              		.loc 8 167 29
 610 0022 BB68     		ldr	r3, [r7, #8]
 611 0024 9A60     		str	r2, [r3, #8]
 612              		.loc 8 170 19
 613 0026 BB68     		ldr	r3, [r7, #8]
 614 0028 93F82430 		ldrb	r3, [r3, #36]	@ zero_extendqisi2
 615              		.loc 8 170 9
 616 002c 072B     		cmp	r3, #7
 617 002e 16D0     		beq	.L24
 618 0030 072B     		cmp	r3, #7
 619 0032 2ADC     		bgt	.L31
 620 0034 002B     		cmp	r3, #0
 621 0036 1FD0     		beq	.L26
 622 0038 062B     		cmp	r3, #6
 623 003a 26D1     		bne	.L31
 624              		.loc 8 173 36 discriminator 1
 625 003c BB68     		ldr	r3, [r7, #8]
 626 003e 9B6A     		ldr	r3, [r3, #40]
 627              		.loc 8 173 11 discriminator 1
ARM GAS  C:\Users\DEVELO~1\AppData\Local\Temp\cc69bNlm.s 			page 12


 628 0040 1C46     		mov	r4, r3
 629 0042 BB68     		ldr	r3, [r7, #8]
 630 0044 1846     		mov	r0, r3
 631 0046 FFF7FEFF 		bl	ch_queue_dequeue
 632 004a 0346     		mov	r3, r0
 633 004c 1946     		mov	r1, r3
 634 004e 2046     		mov	r0, r4
 635 0050 FFF7FEFF 		bl	ch_sch_prio_insert
 636              		.loc 8 175 21 discriminator 1
 637 0054 BB68     		ldr	r3, [r7, #8]
 638 0056 9B6A     		ldr	r3, [r3, #40]
 639              		.loc 8 175 14 discriminator 1
 640 0058 9B68     		ldr	r3, [r3, #8]
 641 005a BB60     		str	r3, [r7, #8]
 642              		.loc 8 177 11 discriminator 1
 643 005c 17E0     		b	.L23
 644              	.L24:
 645              		.loc 8 194 36
 646 005e BB68     		ldr	r3, [r7, #8]
 647 0060 9B6A     		ldr	r3, [r3, #40]
 648              		.loc 8 194 11
 649 0062 1C46     		mov	r4, r3
 650 0064 BB68     		ldr	r3, [r7, #8]
 651 0066 1846     		mov	r0, r3
 652 0068 FFF7FEFF 		bl	ch_queue_dequeue
 653 006c 0346     		mov	r3, r0
 654 006e 1946     		mov	r1, r3
 655 0070 2046     		mov	r0, r4
 656 0072 FFF7FEFF 		bl	ch_sch_prio_insert
 657              		.loc 8 196 11
 658 0076 09E0     		b	.L27
 659              	.L26:
 660              		.loc 8 204 30
 661 0078 BB68     		ldr	r3, [r7, #8]
 662 007a 1846     		mov	r0, r3
 663 007c FFF7FEFF 		bl	ch_queue_dequeue
 664 0080 0346     		mov	r3, r0
 665              		.loc 8 204 18
 666 0082 1846     		mov	r0, r3
 667 0084 FFF7FEFF 		bl	chSchReadyI
 668              		.loc 8 205 11
 669 0088 00E0     		b	.L27
 670              	.L31:
 671              		.loc 8 208 11
 672 008a 00BF     		nop
 673              	.L27:
 674              		.loc 8 210 9
 675 008c 05E0     		b	.L28
 676              	.L23:
 677              		.loc 8 165 28
 678 008e BB68     		ldr	r3, [r7, #8]
 679 0090 9A68     		ldr	r2, [r3, #8]
 680              		.loc 8 165 54
 681 0092 FB68     		ldr	r3, [r7, #12]
 682 0094 9B68     		ldr	r3, [r3, #8]
 683              		.loc 8 165 34
 684 0096 9A42     		cmp	r2, r3
ARM GAS  C:\Users\DEVELO~1\AppData\Local\Temp\cc69bNlm.s 			page 13


 685 0098 C1D3     		bcc	.L29
 686              	.L28:
 687              		.loc 8 214 7
 688 009a 7B68     		ldr	r3, [r7, #4]
 689 009c FA68     		ldr	r2, [r7, #12]
 690 009e 1146     		mov	r1, r2
 691 00a0 1846     		mov	r0, r3
 692 00a2 FFF7FEFF 		bl	ch_sch_prio_insert
 693              		.loc 8 215 24
 694 00a6 FB68     		ldr	r3, [r7, #12]
 695 00a8 7A68     		ldr	r2, [r7, #4]
 696 00aa 9A62     		str	r2, [r3, #40]
 697              		.loc 8 216 7
 698 00ac 0620     		movs	r0, #6
 699 00ae FFF7FEFF 		bl	chSchGoSleepS
 700              	.LBE22:
 701              		.loc 8 238 1
 702 00b2 09E0     		b	.L32
 703              	.L22:
 704              		.loc 8 234 15
 705 00b4 7B68     		ldr	r3, [r7, #4]
 706 00b6 FA68     		ldr	r2, [r7, #12]
 707 00b8 9A60     		str	r2, [r3, #8]
 708              		.loc 8 235 22
 709 00ba FB68     		ldr	r3, [r7, #12]
 710 00bc DA6B     		ldr	r2, [r3, #60]
 711              		.loc 8 235 14
 712 00be 7B68     		ldr	r3, [r7, #4]
 713 00c0 DA60     		str	r2, [r3, #12]
 714              		.loc 8 236 21
 715 00c2 FB68     		ldr	r3, [r7, #12]
 716 00c4 7A68     		ldr	r2, [r7, #4]
 717 00c6 DA63     		str	r2, [r3, #60]
 718              	.L32:
 719              		.loc 8 238 1
 720 00c8 00BF     		nop
 721 00ca 1437     		adds	r7, r7, #20
 722              		.cfi_def_cfa_offset 12
 723 00cc BD46     		mov	sp, r7
 724              		.cfi_def_cfa_register 13
 725              		@ sp needed
 726 00ce 90BD     		pop	{r4, r7, pc}
 727              		.cfi_endproc
 728              	.LFE348:
 729              		.size	chMtxLockS, .-chMtxLockS
 730              		.section	.text.chMtxTryLock,"ax",%progbits
 731              		.align	1
 732              		.global	chMtxTryLock
 733              		.syntax unified
 734              		.thumb
 735              		.thumb_func
 736              		.type	chMtxTryLock, %function
 737              	chMtxTryLock:
 738              	.LFB349:
 739              		.loc 8 257 32
 740              		.cfi_startproc
 741              		@ args = 0, pretend = 0, frame = 16
ARM GAS  C:\Users\DEVELO~1\AppData\Local\Temp\cc69bNlm.s 			page 14


 742              		@ frame_needed = 1, uses_anonymous_args = 0
 743 0000 80B5     		push	{r7, lr}
 744              		.cfi_def_cfa_offset 8
 745              		.cfi_offset 7, -8
 746              		.cfi_offset 14, -4
 747 0002 84B0     		sub	sp, sp, #16
 748              		.cfi_def_cfa_offset 24
 749 0004 00AF     		add	r7, sp, #0
 750              		.cfi_def_cfa_register 7
 751 0006 7860     		str	r0, [r7, #4]
 752              		.loc 8 260 3
 753 0008 FFF7FEFF 		bl	chSysLock
 754              		.loc 8 261 7
 755 000c 7868     		ldr	r0, [r7, #4]
 756 000e FFF7FEFF 		bl	chMtxTryLockS
 757 0012 0346     		mov	r3, r0
 758 0014 FB73     		strb	r3, [r7, #15]
 759              		.loc 8 262 3
 760 0016 FFF7FEFF 		bl	chSysUnlock
 761              		.loc 8 264 10
 762 001a FB7B     		ldrb	r3, [r7, #15]	@ zero_extendqisi2
 763              		.loc 8 265 1
 764 001c 1846     		mov	r0, r3
 765 001e 1037     		adds	r7, r7, #16
 766              		.cfi_def_cfa_offset 8
 767 0020 BD46     		mov	sp, r7
 768              		.cfi_def_cfa_register 13
 769              		@ sp needed
 770 0022 80BD     		pop	{r7, pc}
 771              		.cfi_endproc
 772              	.LFE349:
 773              		.size	chMtxTryLock, .-chMtxTryLock
 774              		.section	.text.chMtxTryLockS,"ax",%progbits
 775              		.align	1
 776              		.global	chMtxTryLockS
 777              		.syntax unified
 778              		.thumb
 779              		.thumb_func
 780              		.type	chMtxTryLockS, %function
 781              	chMtxTryLockS:
 782              	.LFB350:
 783              		.loc 8 284 33
 784              		.cfi_startproc
 785              		@ args = 0, pretend = 0, frame = 16
 786              		@ frame_needed = 1, uses_anonymous_args = 0
 787 0000 80B5     		push	{r7, lr}
 788              		.cfi_def_cfa_offset 8
 789              		.cfi_offset 7, -8
 790              		.cfi_offset 14, -4
 791 0002 84B0     		sub	sp, sp, #16
 792              		.cfi_def_cfa_offset 24
 793 0004 00AF     		add	r7, sp, #0
 794              		.cfi_def_cfa_register 7
 795 0006 7860     		str	r0, [r7, #4]
 796              		.loc 8 285 22
 797 0008 FFF7FEFF 		bl	chThdGetSelfX
 798 000c F860     		str	r0, [r7, #12]
ARM GAS  C:\Users\DEVELO~1\AppData\Local\Temp\cc69bNlm.s 			page 15


 799              		.loc 8 290 9
 800 000e 7B68     		ldr	r3, [r7, #4]
 801 0010 9B68     		ldr	r3, [r3, #8]
 802              		.loc 8 290 6
 803 0012 002B     		cmp	r3, #0
 804 0014 01D0     		beq	.L36
 805              		.loc 8 300 12
 806 0016 0023     		movs	r3, #0
 807 0018 0AE0     		b	.L37
 808              	.L36:
 809              		.loc 8 308 13
 810 001a 7B68     		ldr	r3, [r7, #4]
 811 001c FA68     		ldr	r2, [r7, #12]
 812 001e 9A60     		str	r2, [r3, #8]
 813              		.loc 8 309 20
 814 0020 FB68     		ldr	r3, [r7, #12]
 815 0022 DA6B     		ldr	r2, [r3, #60]
 816              		.loc 8 309 12
 817 0024 7B68     		ldr	r3, [r7, #4]
 818 0026 DA60     		str	r2, [r3, #12]
 819              		.loc 8 310 19
 820 0028 FB68     		ldr	r3, [r7, #12]
 821 002a 7A68     		ldr	r2, [r7, #4]
 822 002c DA63     		str	r2, [r3, #60]
 823              		.loc 8 311 10
 824 002e 0123     		movs	r3, #1
 825              	.L37:
 826              		.loc 8 312 1
 827 0030 1846     		mov	r0, r3
 828 0032 1037     		adds	r7, r7, #16
 829              		.cfi_def_cfa_offset 8
 830 0034 BD46     		mov	sp, r7
 831              		.cfi_def_cfa_register 13
 832              		@ sp needed
 833 0036 80BD     		pop	{r7, pc}
 834              		.cfi_endproc
 835              	.LFE350:
 836              		.size	chMtxTryLockS, .-chMtxTryLockS
 837              		.section	.text.chMtxUnlock,"ax",%progbits
 838              		.align	1
 839              		.global	chMtxUnlock
 840              		.syntax unified
 841              		.thumb
 842              		.thumb_func
 843              		.type	chMtxUnlock, %function
 844              	chMtxUnlock:
 845              	.LFB351:
 846              		.loc 8 326 31
 847              		.cfi_startproc
 848              		@ args = 0, pretend = 0, frame = 24
 849              		@ frame_needed = 1, uses_anonymous_args = 0
 850 0000 80B5     		push	{r7, lr}
 851              		.cfi_def_cfa_offset 8
 852              		.cfi_offset 7, -8
 853              		.cfi_offset 14, -4
 854 0002 86B0     		sub	sp, sp, #24
 855              		.cfi_def_cfa_offset 32
ARM GAS  C:\Users\DEVELO~1\AppData\Local\Temp\cc69bNlm.s 			page 16


 856 0004 00AF     		add	r7, sp, #0
 857              		.cfi_def_cfa_register 7
 858 0006 7860     		str	r0, [r7, #4]
 859              		.loc 8 327 22
 860 0008 FFF7FEFF 		bl	chThdGetSelfX
 861 000c F860     		str	r0, [r7, #12]
 862              		.loc 8 332 3
 863 000e FFF7FEFF 		bl	chSysLock
 864              		.loc 8 347 25
 865 0012 7B68     		ldr	r3, [r7, #4]
 866 0014 DA68     		ldr	r2, [r3, #12]
 867              		.loc 8 347 21
 868 0016 FB68     		ldr	r3, [r7, #12]
 869 0018 DA63     		str	r2, [r3, #60]
 870              		.loc 8 350 9
 871 001a 7868     		ldr	r0, [r7, #4]
 872 001c FFF7FEFF 		bl	chMtxQueueNotEmptyS
 873 0020 0346     		mov	r3, r0
 874              		.loc 8 350 8
 875 0022 002B     		cmp	r3, #0
 876 0024 34D0     		beq	.L39
 877              	.LBB23:
 878              		.loc 8 355 15
 879 0026 FB68     		ldr	r3, [r7, #12]
 880 0028 1B6C     		ldr	r3, [r3, #64]
 881 002a 7B61     		str	r3, [r7, #20]
 882              		.loc 8 356 11
 883 002c FB68     		ldr	r3, [r7, #12]
 884 002e DB6B     		ldr	r3, [r3, #60]
 885 0030 3B61     		str	r3, [r7, #16]
 886              		.loc 8 357 13
 887 0032 12E0     		b	.L40
 888              	.L42:
 889              		.loc 8 361 13
 890 0034 3869     		ldr	r0, [r7, #16]
 891 0036 FFF7FEFF 		bl	chMtxQueueNotEmptyS
 892 003a 0346     		mov	r3, r0
 893              		.loc 8 361 12
 894 003c 002B     		cmp	r3, #0
 895 003e 09D0     		beq	.L41
 896              		.loc 8 362 15 discriminator 1
 897 0040 3B69     		ldr	r3, [r7, #16]
 898 0042 1B68     		ldr	r3, [r3]
 899              		.loc 8 362 54 discriminator 1
 900 0044 9B68     		ldr	r3, [r3, #8]
 901              		.loc 8 361 38 discriminator 1
 902 0046 7A69     		ldr	r2, [r7, #20]
 903 0048 9A42     		cmp	r2, r3
 904 004a 03D2     		bcs	.L41
 905              		.loc 8 363 22
 906 004c 3B69     		ldr	r3, [r7, #16]
 907 004e 1B68     		ldr	r3, [r3]
 908              		.loc 8 363 19
 909 0050 9B68     		ldr	r3, [r3, #8]
 910 0052 7B61     		str	r3, [r7, #20]
 911              	.L41:
 912              		.loc 8 365 13
ARM GAS  C:\Users\DEVELO~1\AppData\Local\Temp\cc69bNlm.s 			page 17


 913 0054 3B69     		ldr	r3, [r7, #16]
 914 0056 DB68     		ldr	r3, [r3, #12]
 915 0058 3B61     		str	r3, [r7, #16]
 916              	.L40:
 917              		.loc 8 357 18
 918 005a 3B69     		ldr	r3, [r7, #16]
 919 005c 002B     		cmp	r3, #0
 920 005e E9D1     		bne	.L42
 921              		.loc 8 370 31
 922 0060 FB68     		ldr	r3, [r7, #12]
 923 0062 7A69     		ldr	r2, [r7, #20]
 924 0064 9A60     		str	r2, [r3, #8]
 925              		.loc 8 377 12
 926 0066 7B68     		ldr	r3, [r7, #4]
 927 0068 1846     		mov	r0, r3
 928 006a FFF7FEFF 		bl	ch_queue_fifo_remove
 929 006e B860     		str	r0, [r7, #8]
 930              		.loc 8 378 17
 931 0070 7B68     		ldr	r3, [r7, #4]
 932 0072 BA68     		ldr	r2, [r7, #8]
 933 0074 9A60     		str	r2, [r3, #8]
 934              		.loc 8 379 20
 935 0076 BB68     		ldr	r3, [r7, #8]
 936 0078 DA6B     		ldr	r2, [r3, #60]
 937              		.loc 8 379 16
 938 007a 7B68     		ldr	r3, [r7, #4]
 939 007c DA60     		str	r2, [r3, #12]
 940              		.loc 8 380 19
 941 007e BB68     		ldr	r3, [r7, #8]
 942 0080 7A68     		ldr	r2, [r7, #4]
 943 0082 DA63     		str	r2, [r3, #60]
 944              		.loc 8 386 14
 945 0084 B868     		ldr	r0, [r7, #8]
 946 0086 FFF7FEFF 		bl	chSchReadyI
 947              		.loc 8 387 7
 948 008a FFF7FEFF 		bl	chSchRescheduleS
 949              	.LBE23:
 950 008e 02E0     		b	.L43
 951              	.L39:
 952              		.loc 8 390 17
 953 0090 7B68     		ldr	r3, [r7, #4]
 954 0092 0022     		movs	r2, #0
 955 0094 9A60     		str	r2, [r3, #8]
 956              	.L43:
 957              		.loc 8 396 3
 958 0096 FFF7FEFF 		bl	chSysUnlock
 959              		.loc 8 397 1
 960 009a 00BF     		nop
 961 009c 1837     		adds	r7, r7, #24
 962              		.cfi_def_cfa_offset 8
 963 009e BD46     		mov	sp, r7
 964              		.cfi_def_cfa_register 13
 965              		@ sp needed
 966 00a0 80BD     		pop	{r7, pc}
 967              		.cfi_endproc
 968              	.LFE351:
 969              		.size	chMtxUnlock, .-chMtxUnlock
ARM GAS  C:\Users\DEVELO~1\AppData\Local\Temp\cc69bNlm.s 			page 18


 970              		.section	.text.chMtxUnlockS,"ax",%progbits
 971              		.align	1
 972              		.global	chMtxUnlockS
 973              		.syntax unified
 974              		.thumb
 975              		.thumb_func
 976              		.type	chMtxUnlockS, %function
 977              	chMtxUnlockS:
 978              	.LFB352:
 979              		.loc 8 413 32
 980              		.cfi_startproc
 981              		@ args = 0, pretend = 0, frame = 24
 982              		@ frame_needed = 1, uses_anonymous_args = 0
 983 0000 80B5     		push	{r7, lr}
 984              		.cfi_def_cfa_offset 8
 985              		.cfi_offset 7, -8
 986              		.cfi_offset 14, -4
 987 0002 86B0     		sub	sp, sp, #24
 988              		.cfi_def_cfa_offset 32
 989 0004 00AF     		add	r7, sp, #0
 990              		.cfi_def_cfa_register 7
 991 0006 7860     		str	r0, [r7, #4]
 992              		.loc 8 414 22
 993 0008 FFF7FEFF 		bl	chThdGetSelfX
 994 000c F860     		str	r0, [r7, #12]
 995              		.loc 8 433 25
 996 000e 7B68     		ldr	r3, [r7, #4]
 997 0010 DA68     		ldr	r2, [r3, #12]
 998              		.loc 8 433 21
 999 0012 FB68     		ldr	r3, [r7, #12]
 1000 0014 DA63     		str	r2, [r3, #60]
 1001              		.loc 8 436 9
 1002 0016 7868     		ldr	r0, [r7, #4]
 1003 0018 FFF7FEFF 		bl	chMtxQueueNotEmptyS
 1004 001c 0346     		mov	r3, r0
 1005              		.loc 8 436 8
 1006 001e 002B     		cmp	r3, #0
 1007 0020 32D0     		beq	.L45
 1008              	.LBB24:
 1009              		.loc 8 441 15
 1010 0022 FB68     		ldr	r3, [r7, #12]
 1011 0024 1B6C     		ldr	r3, [r3, #64]
 1012 0026 3B61     		str	r3, [r7, #16]
 1013              		.loc 8 442 11
 1014 0028 FB68     		ldr	r3, [r7, #12]
 1015 002a DB6B     		ldr	r3, [r3, #60]
 1016 002c 7B61     		str	r3, [r7, #20]
 1017              		.loc 8 443 13
 1018 002e 12E0     		b	.L46
 1019              	.L48:
 1020              		.loc 8 447 13
 1021 0030 7869     		ldr	r0, [r7, #20]
 1022 0032 FFF7FEFF 		bl	chMtxQueueNotEmptyS
 1023 0036 0346     		mov	r3, r0
 1024              		.loc 8 447 12
 1025 0038 002B     		cmp	r3, #0
 1026 003a 09D0     		beq	.L47
ARM GAS  C:\Users\DEVELO~1\AppData\Local\Temp\cc69bNlm.s 			page 19


 1027              		.loc 8 448 15 discriminator 1
 1028 003c 7B69     		ldr	r3, [r7, #20]
 1029 003e 1B68     		ldr	r3, [r3]
 1030              		.loc 8 448 54 discriminator 1
 1031 0040 9B68     		ldr	r3, [r3, #8]
 1032              		.loc 8 447 38 discriminator 1
 1033 0042 3A69     		ldr	r2, [r7, #16]
 1034 0044 9A42     		cmp	r2, r3
 1035 0046 03D2     		bcs	.L47
 1036              		.loc 8 449 21
 1037 0048 7B69     		ldr	r3, [r7, #20]
 1038 004a 1B68     		ldr	r3, [r3]
 1039              		.loc 8 449 19
 1040 004c 9B68     		ldr	r3, [r3, #8]
 1041 004e 3B61     		str	r3, [r7, #16]
 1042              	.L47:
 1043              		.loc 8 451 13
 1044 0050 7B69     		ldr	r3, [r7, #20]
 1045 0052 DB68     		ldr	r3, [r3, #12]
 1046 0054 7B61     		str	r3, [r7, #20]
 1047              	.L46:
 1048              		.loc 8 443 18
 1049 0056 7B69     		ldr	r3, [r7, #20]
 1050 0058 002B     		cmp	r3, #0
 1051 005a E9D1     		bne	.L48
 1052              		.loc 8 456 31
 1053 005c FB68     		ldr	r3, [r7, #12]
 1054 005e 3A69     		ldr	r2, [r7, #16]
 1055 0060 9A60     		str	r2, [r3, #8]
 1056              		.loc 8 463 12
 1057 0062 7B68     		ldr	r3, [r7, #4]
 1058 0064 1846     		mov	r0, r3
 1059 0066 FFF7FEFF 		bl	ch_queue_fifo_remove
 1060 006a B860     		str	r0, [r7, #8]
 1061              		.loc 8 464 17
 1062 006c 7B68     		ldr	r3, [r7, #4]
 1063 006e BA68     		ldr	r2, [r7, #8]
 1064 0070 9A60     		str	r2, [r3, #8]
 1065              		.loc 8 465 20
 1066 0072 BB68     		ldr	r3, [r7, #8]
 1067 0074 DA6B     		ldr	r2, [r3, #60]
 1068              		.loc 8 465 16
 1069 0076 7B68     		ldr	r3, [r7, #4]
 1070 0078 DA60     		str	r2, [r3, #12]
 1071              		.loc 8 466 19
 1072 007a BB68     		ldr	r3, [r7, #8]
 1073 007c 7A68     		ldr	r2, [r7, #4]
 1074 007e DA63     		str	r2, [r3, #60]
 1075              		.loc 8 467 14
 1076 0080 B868     		ldr	r0, [r7, #8]
 1077 0082 FFF7FEFF 		bl	chSchReadyI
 1078              	.LBE24:
 1079              		.loc 8 475 1
 1080 0086 02E0     		b	.L50
 1081              	.L45:
 1082              		.loc 8 470 17
 1083 0088 7B68     		ldr	r3, [r7, #4]
ARM GAS  C:\Users\DEVELO~1\AppData\Local\Temp\cc69bNlm.s 			page 20


 1084 008a 0022     		movs	r2, #0
 1085 008c 9A60     		str	r2, [r3, #8]
 1086              	.L50:
 1087              		.loc 8 475 1
 1088 008e 00BF     		nop
 1089 0090 1837     		adds	r7, r7, #24
 1090              		.cfi_def_cfa_offset 8
 1091 0092 BD46     		mov	sp, r7
 1092              		.cfi_def_cfa_register 13
 1093              		@ sp needed
 1094 0094 80BD     		pop	{r7, pc}
 1095              		.cfi_endproc
 1096              	.LFE352:
 1097              		.size	chMtxUnlockS, .-chMtxUnlockS
 1098              		.section	.text.chMtxUnlockAllS,"ax",%progbits
 1099              		.align	1
 1100              		.global	chMtxUnlockAllS
 1101              		.syntax unified
 1102              		.thumb
 1103              		.thumb_func
 1104              		.type	chMtxUnlockAllS, %function
 1105              	chMtxUnlockAllS:
 1106              	.LFB353:
 1107              		.loc 8 490 28
 1108              		.cfi_startproc
 1109              		@ args = 0, pretend = 0, frame = 16
 1110              		@ frame_needed = 1, uses_anonymous_args = 0
 1111 0000 80B5     		push	{r7, lr}
 1112              		.cfi_def_cfa_offset 8
 1113              		.cfi_offset 7, -8
 1114              		.cfi_offset 14, -4
 1115 0002 84B0     		sub	sp, sp, #16
 1116              		.cfi_def_cfa_offset 24
 1117 0004 00AF     		add	r7, sp, #0
 1118              		.cfi_def_cfa_register 7
 1119              		.loc 8 491 22
 1120 0006 FFF7FEFF 		bl	chThdGetSelfX
 1121 000a F860     		str	r0, [r7, #12]
 1122              		.loc 8 493 13
 1123 000c FB68     		ldr	r3, [r7, #12]
 1124 000e DB6B     		ldr	r3, [r3, #60]
 1125              		.loc 8 493 6
 1126 0010 002B     		cmp	r3, #0
 1127 0012 2CD0     		beq	.L56
 1128              	.L55:
 1129              	.LBB25:
 1130              		.loc 8 495 16
 1131 0014 FB68     		ldr	r3, [r7, #12]
 1132 0016 DB6B     		ldr	r3, [r3, #60]
 1133 0018 BB60     		str	r3, [r7, #8]
 1134              		.loc 8 496 27
 1135 001a BB68     		ldr	r3, [r7, #8]
 1136 001c DA68     		ldr	r2, [r3, #12]
 1137              		.loc 8 496 23
 1138 001e FB68     		ldr	r3, [r7, #12]
 1139 0020 DA63     		str	r2, [r3, #60]
 1140              		.loc 8 497 11
ARM GAS  C:\Users\DEVELO~1\AppData\Local\Temp\cc69bNlm.s 			page 21


 1141 0022 B868     		ldr	r0, [r7, #8]
 1142 0024 FFF7FEFF 		bl	chMtxQueueNotEmptyS
 1143 0028 0346     		mov	r3, r0
 1144              		.loc 8 497 10
 1145 002a 002B     		cmp	r3, #0
 1146 002c 12D0     		beq	.L53
 1147              	.LBB26:
 1148              		.loc 8 502 14
 1149 002e BB68     		ldr	r3, [r7, #8]
 1150 0030 1846     		mov	r0, r3
 1151 0032 FFF7FEFF 		bl	ch_queue_fifo_remove
 1152 0036 7860     		str	r0, [r7, #4]
 1153              		.loc 8 503 21
 1154 0038 BB68     		ldr	r3, [r7, #8]
 1155 003a 7A68     		ldr	r2, [r7, #4]
 1156 003c 9A60     		str	r2, [r3, #8]
 1157              		.loc 8 504 25
 1158 003e 7B68     		ldr	r3, [r7, #4]
 1159 0040 DA6B     		ldr	r2, [r3, #60]
 1160              		.loc 8 504 21
 1161 0042 BB68     		ldr	r3, [r7, #8]
 1162 0044 DA60     		str	r2, [r3, #12]
 1163              		.loc 8 505 21
 1164 0046 7B68     		ldr	r3, [r7, #4]
 1165 0048 BA68     		ldr	r2, [r7, #8]
 1166 004a DA63     		str	r2, [r3, #60]
 1167              		.loc 8 506 16
 1168 004c 7868     		ldr	r0, [r7, #4]
 1169 004e FFF7FEFF 		bl	chSchReadyI
 1170              	.LBE26:
 1171 0052 02E0     		b	.L54
 1172              	.L53:
 1173              		.loc 8 512 19
 1174 0054 BB68     		ldr	r3, [r7, #8]
 1175 0056 0022     		movs	r2, #0
 1176 0058 9A60     		str	r2, [r3, #8]
 1177              	.L54:
 1178              	.LBE25:
 1179              		.loc 8 514 20
 1180 005a FB68     		ldr	r3, [r7, #12]
 1181 005c DB6B     		ldr	r3, [r3, #60]
 1182              		.loc 8 514 30
 1183 005e 002B     		cmp	r3, #0
 1184 0060 D8D1     		bne	.L55
 1185              		.loc 8 515 37
 1186 0062 FB68     		ldr	r3, [r7, #12]
 1187 0064 1A6C     		ldr	r2, [r3, #64]
 1188              		.loc 8 515 29
 1189 0066 FB68     		ldr	r3, [r7, #12]
 1190 0068 9A60     		str	r2, [r3, #8]
 1191              		.loc 8 516 5
 1192 006a FFF7FEFF 		bl	chSchRescheduleS
 1193              	.L56:
 1194              		.loc 8 518 1
 1195 006e 00BF     		nop
 1196 0070 1037     		adds	r7, r7, #16
 1197              		.cfi_def_cfa_offset 8
ARM GAS  C:\Users\DEVELO~1\AppData\Local\Temp\cc69bNlm.s 			page 22


 1198 0072 BD46     		mov	sp, r7
 1199              		.cfi_def_cfa_register 13
 1200              		@ sp needed
 1201 0074 80BD     		pop	{r7, pc}
 1202              		.cfi_endproc
 1203              	.LFE353:
 1204              		.size	chMtxUnlockAllS, .-chMtxUnlockAllS
 1205              		.section	.text.chMtxUnlockAll,"ax",%progbits
 1206              		.align	1
 1207              		.global	chMtxUnlockAll
 1208              		.syntax unified
 1209              		.thumb
 1210              		.thumb_func
 1211              		.type	chMtxUnlockAll, %function
 1212              	chMtxUnlockAll:
 1213              	.LFB354:
 1214              		.loc 8 531 27
 1215              		.cfi_startproc
 1216              		@ args = 0, pretend = 0, frame = 0
 1217              		@ frame_needed = 1, uses_anonymous_args = 0
 1218 0000 80B5     		push	{r7, lr}
 1219              		.cfi_def_cfa_offset 8
 1220              		.cfi_offset 7, -8
 1221              		.cfi_offset 14, -4
 1222 0002 00AF     		add	r7, sp, #0
 1223              		.cfi_def_cfa_register 7
 1224              		.loc 8 533 3
 1225 0004 FFF7FEFF 		bl	chSysLock
 1226              		.loc 8 534 3
 1227 0008 FFF7FEFF 		bl	chMtxUnlockAllS
 1228              		.loc 8 535 3
 1229 000c FFF7FEFF 		bl	chSysUnlock
 1230              		.loc 8 536 1
 1231 0010 00BF     		nop
 1232 0012 80BD     		pop	{r7, pc}
 1233              		.cfi_endproc
 1234              	.LFE354:
 1235              		.size	chMtxUnlockAll, .-chMtxUnlockAll
 1236              		.text
 1237              	.Letext0:
 1238              		.file 9 "c:\\chibistudio\\tools\\gnu tools arm embedded\\11.3 2022.08\\arm-none-eabi\\include\\mac
 1239              		.file 10 "c:\\chibistudio\\tools\\gnu tools arm embedded\\11.3 2022.08\\arm-none-eabi\\include\\sy
 1240              		.file 11 "../../../os/common/ports/ARM-common/chtypes.h"
 1241              		.file 12 "../../../os/rt/include/chearly.h"
 1242              		.file 13 "../../../os/rt/include/chobjects.h"
 1243              		.file 14 "../../../os/rt/include/chrfcu.h"
 1244              		.file 15 "../../../os/rt/include/chdebug.h"
 1245              		.file 16 "../../../os/rt/include/chtime.h"
 1246              		.file 17 "../../../os/rt/include/chtrace.h"
 1247              		.file 18 "../../../os/rt/include/chsem.h"