ARM GAS  C:\Users\DEVELO~1\AppData\Local\Temp\cc0E6Q26.s 			page 1


   1              		.cpu cortex-m7
   2              		.arch armv7e-m
   3              		.fpu softvfp
   4              		.eabi_attribute 20, 1
   5              		.eabi_attribute 21, 1
   6              		.eabi_attribute 23, 3
   7              		.eabi_attribute 24, 1
   8              		.eabi_attribute 25, 1
   9              		.eabi_attribute 26, 1
  10              		.eabi_attribute 30, 6
  11              		.eabi_attribute 34, 1
  12              		.eabi_attribute 18, 4
  13              		.file	"chobjcaches.c"
  14              		.text
  15              	.Ltext0:
  16              		.cfi_sections	.debug_frame
  17              		.section	.text.chSysLock,"ax",%progbits
  18              		.align	1
  19              		.syntax unified
  20              		.thumb
  21              		.thumb_func
  22              		.type	chSysLock, %function
  23              	chSysLock:
  24              	.LFB202:
  25              		.file 1 "../../../os/rt/include/chsys.h"
  26              		.loc 1 407 36
  27              		.cfi_startproc
  28              		@ args = 0, pretend = 0, frame = 8
  29              		@ frame_needed = 1, uses_anonymous_args = 0
  30              		@ link register save eliminated.
  31 0000 80B4     		push	{r7}
  32              		.cfi_def_cfa_offset 4
  33              		.cfi_offset 7, -4
  34 0002 83B0     		sub	sp, sp, #12
  35              		.cfi_def_cfa_offset 16
  36 0004 00AF     		add	r7, sp, #0
  37              		.cfi_def_cfa_register 7
  38 0006 3023     		movs	r3, #48
  39 0008 7B60     		str	r3, [r7, #4]
  40              	.LBB14:
  41              	.LBB15:
  42              	.LBB16:
  43              	.LBB17:
  44              		.file 2 "../../../os/common/ext/ARM/CMSIS/Core/Include/cmsis_gcc.h"
  45              		.loc 2 493 3
  46 000a 7B68     		ldr	r3, [r7, #4]
  47              		.syntax unified
  48              	@ 493 "../../../os/common/ext/ARM/CMSIS/Core/Include/cmsis_gcc.h" 1
  49 000c 83F31188 		MSR basepri, r3
  50              	@ 0 "" 2
  51              		.loc 2 494 1
  52              		.thumb
  53              		.syntax unified
  54 0010 00BF     		nop
  55              	.LBE17:
  56              	.LBE16:
  57              		.file 3 "../../../os/common/ports/ARMv7-M/chcore.h"
ARM GAS  C:\Users\DEVELO~1\AppData\Local\Temp\cc0E6Q26.s 			page 2


  58              		.loc 3 840 1
  59 0012 00BF     		nop
  60              	.LBE15:
  61              	.LBE14:
  62              		.loc 1 412 1
  63 0014 00BF     		nop
  64 0016 0C37     		adds	r7, r7, #12
  65              		.cfi_def_cfa_offset 4
  66 0018 BD46     		mov	sp, r7
  67              		.cfi_def_cfa_register 13
  68              		@ sp needed
  69 001a 80BC     		pop	{r7}
  70              		.cfi_restore 7
  71              		.cfi_def_cfa_offset 0
  72 001c 7047     		bx	lr
  73              		.cfi_endproc
  74              	.LFE202:
  75              		.size	chSysLock, .-chSysLock
  76              		.section	.text.chSysUnlock,"ax",%progbits
  77              		.align	1
  78              		.syntax unified
  79              		.thumb
  80              		.thumb_func
  81              		.type	chSysUnlock, %function
  82              	chSysUnlock:
  83              	.LFB203:
  84              		.loc 1 421 38
  85              		.cfi_startproc
  86              		@ args = 0, pretend = 0, frame = 8
  87              		@ frame_needed = 1, uses_anonymous_args = 0
  88              		@ link register save eliminated.
  89 0000 80B4     		push	{r7}
  90              		.cfi_def_cfa_offset 4
  91              		.cfi_offset 7, -4
  92 0002 83B0     		sub	sp, sp, #12
  93              		.cfi_def_cfa_offset 16
  94 0004 00AF     		add	r7, sp, #0
  95              		.cfi_def_cfa_register 7
  96 0006 0023     		movs	r3, #0
  97 0008 7B60     		str	r3, [r7, #4]
  98              	.LBB18:
  99              	.LBB19:
 100              	.LBB20:
 101              	.LBB21:
 102              		.loc 2 493 3
 103 000a 7B68     		ldr	r3, [r7, #4]
 104              		.syntax unified
 105              	@ 493 "../../../os/common/ext/ARM/CMSIS/Core/Include/cmsis_gcc.h" 1
 106 000c 83F31188 		MSR basepri, r3
 107              	@ 0 "" 2
 108              		.loc 2 494 1
 109              		.thumb
 110              		.syntax unified
 111 0010 00BF     		nop
 112              	.LBE21:
 113              	.LBE20:
 114              		.loc 3 854 1
ARM GAS  C:\Users\DEVELO~1\AppData\Local\Temp\cc0E6Q26.s 			page 3


 115 0012 00BF     		nop
 116              	.LBE19:
 117              	.LBE18:
 118              		.loc 1 435 1
 119 0014 00BF     		nop
 120 0016 0C37     		adds	r7, r7, #12
 121              		.cfi_def_cfa_offset 4
 122 0018 BD46     		mov	sp, r7
 123              		.cfi_def_cfa_register 13
 124              		@ sp needed
 125 001a 80BC     		pop	{r7}
 126              		.cfi_restore 7
 127              		.cfi_def_cfa_offset 0
 128 001c 7047     		bx	lr
 129              		.cfi_endproc
 130              	.LFE203:
 131              		.size	chSysUnlock, .-chSysUnlock
 132              		.section	.text.chSemFastWaitI,"ax",%progbits
 133              		.align	1
 134              		.syntax unified
 135              		.thumb
 136              		.thumb_func
 137              		.type	chSemFastWaitI, %function
 138              	chSemFastWaitI:
 139              	.LFB245:
 140              		.file 4 "../../../os/rt/include/chsem.h"
 141              		.loc 4 158 52
 142              		.cfi_startproc
 143              		@ args = 0, pretend = 0, frame = 8
 144              		@ frame_needed = 1, uses_anonymous_args = 0
 145              		@ link register save eliminated.
 146 0000 80B4     		push	{r7}
 147              		.cfi_def_cfa_offset 4
 148              		.cfi_offset 7, -4
 149 0002 83B0     		sub	sp, sp, #12
 150              		.cfi_def_cfa_offset 16
 151 0004 00AF     		add	r7, sp, #0
 152              		.cfi_def_cfa_register 7
 153 0006 7860     		str	r0, [r7, #4]
 154              		.loc 4 162 5
 155 0008 7B68     		ldr	r3, [r7, #4]
 156 000a 9B68     		ldr	r3, [r3, #8]
 157              		.loc 4 162 10
 158 000c 5A1E     		subs	r2, r3, #1
 159 000e 7B68     		ldr	r3, [r7, #4]
 160 0010 9A60     		str	r2, [r3, #8]
 161              		.loc 4 163 1
 162 0012 00BF     		nop
 163 0014 0C37     		adds	r7, r7, #12
 164              		.cfi_def_cfa_offset 4
 165 0016 BD46     		mov	sp, r7
 166              		.cfi_def_cfa_register 13
 167              		@ sp needed
 168 0018 80BC     		pop	{r7}
 169              		.cfi_restore 7
 170              		.cfi_def_cfa_offset 0
 171 001a 7047     		bx	lr
ARM GAS  C:\Users\DEVELO~1\AppData\Local\Temp\cc0E6Q26.s 			page 4


 172              		.cfi_endproc
 173              	.LFE245:
 174              		.size	chSemFastWaitI, .-chSemFastWaitI
 175              		.section	.text.chSemFastSignalI,"ax",%progbits
 176              		.align	1
 177              		.syntax unified
 178              		.thumb
 179              		.thumb_func
 180              		.type	chSemFastSignalI, %function
 181              	chSemFastSignalI:
 182              	.LFB246:
 183              		.loc 4 174 54
 184              		.cfi_startproc
 185              		@ args = 0, pretend = 0, frame = 8
 186              		@ frame_needed = 1, uses_anonymous_args = 0
 187              		@ link register save eliminated.
 188 0000 80B4     		push	{r7}
 189              		.cfi_def_cfa_offset 4
 190              		.cfi_offset 7, -4
 191 0002 83B0     		sub	sp, sp, #12
 192              		.cfi_def_cfa_offset 16
 193 0004 00AF     		add	r7, sp, #0
 194              		.cfi_def_cfa_register 7
 195 0006 7860     		str	r0, [r7, #4]
 196              		.loc 4 178 5
 197 0008 7B68     		ldr	r3, [r7, #4]
 198 000a 9B68     		ldr	r3, [r3, #8]
 199              		.loc 4 178 10
 200 000c 5A1C     		adds	r2, r3, #1
 201 000e 7B68     		ldr	r3, [r7, #4]
 202 0010 9A60     		str	r2, [r3, #8]
 203              		.loc 4 179 1
 204 0012 00BF     		nop
 205 0014 0C37     		adds	r7, r7, #12
 206              		.cfi_def_cfa_offset 4
 207 0016 BD46     		mov	sp, r7
 208              		.cfi_def_cfa_register 13
 209              		@ sp needed
 210 0018 80BC     		pop	{r7}
 211              		.cfi_restore 7
 212              		.cfi_def_cfa_offset 0
 213 001a 7047     		bx	lr
 214              		.cfi_endproc
 215              	.LFE246:
 216              		.size	chSemFastSignalI, .-chSemFastSignalI
 217              		.section	.text.chSemGetCounterI,"ax",%progbits
 218              		.align	1
 219              		.syntax unified
 220              		.thumb
 221              		.thumb_func
 222              		.type	chSemGetCounterI, %function
 223              	chSemGetCounterI:
 224              	.LFB247:
 225              		.loc 4 189 61
 226              		.cfi_startproc
 227              		@ args = 0, pretend = 0, frame = 8
 228              		@ frame_needed = 1, uses_anonymous_args = 0
ARM GAS  C:\Users\DEVELO~1\AppData\Local\Temp\cc0E6Q26.s 			page 5


 229              		@ link register save eliminated.
 230 0000 80B4     		push	{r7}
 231              		.cfi_def_cfa_offset 4
 232              		.cfi_offset 7, -4
 233 0002 83B0     		sub	sp, sp, #12
 234              		.cfi_def_cfa_offset 16
 235 0004 00AF     		add	r7, sp, #0
 236              		.cfi_def_cfa_register 7
 237 0006 7860     		str	r0, [r7, #4]
 238              		.loc 4 193 12
 239 0008 7B68     		ldr	r3, [r7, #4]
 240 000a 9B68     		ldr	r3, [r3, #8]
 241              		.loc 4 194 1
 242 000c 1846     		mov	r0, r3
 243 000e 0C37     		adds	r7, r7, #12
 244              		.cfi_def_cfa_offset 4
 245 0010 BD46     		mov	sp, r7
 246              		.cfi_def_cfa_register 13
 247              		@ sp needed
 248 0012 80BC     		pop	{r7}
 249              		.cfi_restore 7
 250              		.cfi_def_cfa_offset 0
 251 0014 7047     		bx	lr
 252              		.cfi_endproc
 253              	.LFE247:
 254              		.size	chSemGetCounterI, .-chSemGetCounterI
 255              		.section	.text.hash_get_s,"ax",%progbits
 256              		.align	1
 257              		.syntax unified
 258              		.thumb
 259              		.thumb_func
 260              		.type	hash_get_s, %function
 261              	hash_get_s:
 262              	.LFB346:
 263              		.file 5 "../../../os/oslib/src/chobjcaches.c"
 264              		.loc 5 136 46
 265              		.cfi_startproc
 266              		@ args = 0, pretend = 0, frame = 24
 267              		@ frame_needed = 1, uses_anonymous_args = 0
 268              		@ link register save eliminated.
 269 0000 80B4     		push	{r7}
 270              		.cfi_def_cfa_offset 4
 271              		.cfi_offset 7, -4
 272 0002 87B0     		sub	sp, sp, #28
 273              		.cfi_def_cfa_offset 32
 274 0004 00AF     		add	r7, sp, #0
 275              		.cfi_def_cfa_register 7
 276 0006 F860     		str	r0, [r7, #12]
 277 0008 B960     		str	r1, [r7, #8]
 278 000a 7A60     		str	r2, [r7, #4]
 279              		.loc 5 141 14
 280 000c FB68     		ldr	r3, [r7, #12]
 281 000e 5A68     		ldr	r2, [r3, #4]
 282              		.loc 5 141 22
 283 0010 B968     		ldr	r1, [r7, #8]
 284 0012 7B68     		ldr	r3, [r7, #4]
 285 0014 1944     		add	r1, r1, r3
ARM GAS  C:\Users\DEVELO~1\AppData\Local\Temp\cc0E6Q26.s 			page 6


 286 0016 FB68     		ldr	r3, [r7, #12]
 287 0018 1B68     		ldr	r3, [r3]
 288 001a 013B     		subs	r3, r3, #1
 289 001c 0B40     		ands	r3, r3, r1
 290              		.loc 5 141 21
 291 001e DB00     		lsls	r3, r3, #3
 292              		.loc 5 141 8
 293 0020 1344     		add	r3, r3, r2
 294 0022 3B61     		str	r3, [r7, #16]
 295              		.loc 5 142 8
 296 0024 3B69     		ldr	r3, [r7, #16]
 297 0026 1B68     		ldr	r3, [r3]
 298 0028 7B61     		str	r3, [r7, #20]
 299              		.loc 5 145 9
 300 002a 0EE0     		b	.L8
 301              	.L11:
 302              		.loc 5 146 14
 303 002c 7B69     		ldr	r3, [r7, #20]
 304 002e 5B69     		ldr	r3, [r3, #20]
 305              		.loc 5 146 8
 306 0030 7A68     		ldr	r2, [r7, #4]
 307 0032 9A42     		cmp	r2, r3
 308 0034 06D1     		bne	.L9
 309              		.loc 5 146 40 discriminator 1
 310 0036 7B69     		ldr	r3, [r7, #20]
 311 0038 1B69     		ldr	r3, [r3, #16]
 312              		.loc 5 146 32 discriminator 1
 313 003a BA68     		ldr	r2, [r7, #8]
 314 003c 9A42     		cmp	r2, r3
 315 003e 01D1     		bne	.L9
 316              		.loc 5 149 14
 317 0040 7B69     		ldr	r3, [r7, #20]
 318 0042 07E0     		b	.L10
 319              	.L9:
 320              		.loc 5 151 10
 321 0044 7B69     		ldr	r3, [r7, #20]
 322 0046 1B68     		ldr	r3, [r3]
 323 0048 7B61     		str	r3, [r7, #20]
 324              	.L8:
 325              		.loc 5 145 15
 326 004a 7A69     		ldr	r2, [r7, #20]
 327 004c 3B69     		ldr	r3, [r7, #16]
 328 004e 9A42     		cmp	r2, r3
 329 0050 ECD1     		bne	.L11
 330              		.loc 5 154 10
 331 0052 0023     		movs	r3, #0
 332              	.L10:
 333              		.loc 5 155 1
 334 0054 1846     		mov	r0, r3
 335 0056 1C37     		adds	r7, r7, #28
 336              		.cfi_def_cfa_offset 4
 337 0058 BD46     		mov	sp, r7
 338              		.cfi_def_cfa_register 13
 339              		@ sp needed
 340 005a 80BC     		pop	{r7}
 341              		.cfi_restore 7
 342              		.cfi_def_cfa_offset 0
ARM GAS  C:\Users\DEVELO~1\AppData\Local\Temp\cc0E6Q26.s 			page 7


 343 005c 7047     		bx	lr
 344              		.cfi_endproc
 345              	.LFE346:
 346              		.size	hash_get_s, .-hash_get_s
 347              		.section	.text.lru_get_last_s,"ax",%progbits
 348              		.align	1
 349              		.syntax unified
 350              		.thumb
 351              		.thumb_func
 352              		.type	lru_get_last_s, %function
 353              	lru_get_last_s:
 354              	.LFB347:
 355              		.loc 5 165 58
 356              		.cfi_startproc
 357              		@ args = 0, pretend = 0, frame = 16
 358              		@ frame_needed = 1, uses_anonymous_args = 0
 359 0000 80B5     		push	{r7, lr}
 360              		.cfi_def_cfa_offset 8
 361              		.cfi_offset 7, -8
 362              		.cfi_offset 14, -4
 363 0002 84B0     		sub	sp, sp, #16
 364              		.cfi_def_cfa_offset 24
 365 0004 00AF     		add	r7, sp, #0
 366              		.cfi_def_cfa_register 7
 367 0006 7860     		str	r0, [r7, #4]
 368              	.L16:
 369              		.loc 5 170 12
 370 0008 7B68     		ldr	r3, [r7, #4]
 371 000a 3033     		adds	r3, r3, #48
 372 000c 1846     		mov	r0, r3
 373 000e FFF7FEFF 		bl	chSemWaitS
 374              		.loc 5 174 10
 375 0012 7B68     		ldr	r3, [r7, #4]
 376 0014 1B6A     		ldr	r3, [r3, #32]
 377 0016 FB60     		str	r3, [r7, #12]
 378              		.loc 5 181 5
 379 0018 FB68     		ldr	r3, [r7, #12]
 380 001a DB68     		ldr	r3, [r3, #12]
 381 001c FA68     		ldr	r2, [r7, #12]
 382 001e 9268     		ldr	r2, [r2, #8]
 383 0020 9A60     		str	r2, [r3, #8]
 384 0022 FB68     		ldr	r3, [r7, #12]
 385 0024 9B68     		ldr	r3, [r3, #8]
 386 0026 FA68     		ldr	r2, [r7, #12]
 387 0028 D268     		ldr	r2, [r2, #12]
 388 002a DA60     		str	r2, [r3, #12]
 389              		.loc 5 182 21
 390 002c FB68     		ldr	r3, [r7, #12]
 391 002e 5B6A     		ldr	r3, [r3, #36]
 392 0030 23F00102 		bic	r2, r3, #1
 393 0034 FB68     		ldr	r3, [r7, #12]
 394 0036 5A62     		str	r2, [r3, #36]
 395              		.loc 5 186 5
 396 0038 FB68     		ldr	r3, [r7, #12]
 397 003a 1833     		adds	r3, r3, #24
 398 003c 1846     		mov	r0, r3
 399 003e FFF7FEFF 		bl	chSemFastWaitI
ARM GAS  C:\Users\DEVELO~1\AppData\Local\Temp\cc0E6Q26.s 			page 8


 400              		.loc 5 190 14
 401 0042 FB68     		ldr	r3, [r7, #12]
 402 0044 5B6A     		ldr	r3, [r3, #36]
 403              		.loc 5 190 26
 404 0046 03F01003 		and	r3, r3, #16
 405              		.loc 5 190 8
 406 004a 002B     		cmp	r3, #0
 407 004c 14D1     		bne	.L13
 408              		.loc 5 193 16
 409 004e FB68     		ldr	r3, [r7, #12]
 410 0050 5B6A     		ldr	r3, [r3, #36]
 411              		.loc 5 193 28
 412 0052 03F00203 		and	r3, r3, #2
 413              		.loc 5 193 10
 414 0056 002B     		cmp	r3, #0
 415 0058 09D0     		beq	.L14
 416              		.loc 5 194 9
 417 005a FB68     		ldr	r3, [r7, #12]
 418 005c 5B68     		ldr	r3, [r3, #4]
 419 005e FA68     		ldr	r2, [r7, #12]
 420 0060 1268     		ldr	r2, [r2]
 421 0062 1A60     		str	r2, [r3]
 422 0064 FB68     		ldr	r3, [r7, #12]
 423 0066 1B68     		ldr	r3, [r3]
 424 0068 FA68     		ldr	r2, [r7, #12]
 425 006a 5268     		ldr	r2, [r2, #4]
 426 006c 5A60     		str	r2, [r3, #4]
 427              	.L14:
 428              		.loc 5 198 23
 429 006e FB68     		ldr	r3, [r7, #12]
 430 0070 0022     		movs	r2, #0
 431 0072 5A62     		str	r2, [r3, #36]
 432              		.loc 5 200 14
 433 0074 FB68     		ldr	r3, [r7, #12]
 434 0076 0DE0     		b	.L17
 435              	.L13:
 436              		.loc 5 204 5
 437 0078 FFF7FEFF 		bl	chSysUnlock
 438              		.loc 5 209 21
 439 007c FB68     		ldr	r3, [r7, #12]
 440 007e 2222     		movs	r2, #34
 441 0080 5A62     		str	r2, [r3, #36]
 442              		.loc 5 210 15
 443 0082 7B68     		ldr	r3, [r7, #4]
 444 0084 1B6C     		ldr	r3, [r3, #64]
 445              		.loc 5 210 12
 446 0086 0122     		movs	r2, #1
 447 0088 F968     		ldr	r1, [r7, #12]
 448 008a 7868     		ldr	r0, [r7, #4]
 449 008c 9847     		blx	r3
 450              	.LVL0:
 451              		.loc 5 213 5
 452 008e FFF7FEFF 		bl	chSysLock
 453              		.loc 5 170 5
 454 0092 B9E7     		b	.L16
 455              	.L17:
 456              		.loc 5 215 1 discriminator 1
ARM GAS  C:\Users\DEVELO~1\AppData\Local\Temp\cc0E6Q26.s 			page 9


 457 0094 1846     		mov	r0, r3
 458 0096 1037     		adds	r7, r7, #16
 459              		.cfi_def_cfa_offset 8
 460 0098 BD46     		mov	sp, r7
 461              		.cfi_def_cfa_register 13
 462              		@ sp needed
 463 009a 80BD     		pop	{r7, pc}
 464              		.cfi_endproc
 465              	.LFE347:
 466              		.size	lru_get_last_s, .-lru_get_last_s
 467              		.section	.text.chCacheObjectInit,"ax",%progbits
 468              		.align	1
 469              		.global	chCacheObjectInit
 470              		.syntax unified
 471              		.thumb
 472              		.thumb_func
 473              		.type	chCacheObjectInit, %function
 474              	chCacheObjectInit:
 475              	.LFB348:
 476              		.loc 5 247 44
 477              		.cfi_startproc
 478              		@ args = 16, pretend = 0, frame = 24
 479              		@ frame_needed = 1, uses_anonymous_args = 0
 480 0000 80B5     		push	{r7, lr}
 481              		.cfi_def_cfa_offset 8
 482              		.cfi_offset 7, -8
 483              		.cfi_offset 14, -4
 484 0002 86B0     		sub	sp, sp, #24
 485              		.cfi_def_cfa_offset 32
 486 0004 00AF     		add	r7, sp, #0
 487              		.cfi_def_cfa_register 7
 488 0006 F860     		str	r0, [r7, #12]
 489 0008 B960     		str	r1, [r7, #8]
 490 000a 7A60     		str	r2, [r7, #4]
 491 000c 3B60     		str	r3, [r7]
 492              		.loc 5 255 3
 493 000e FB68     		ldr	r3, [r7, #12]
 494 0010 2433     		adds	r3, r3, #36
 495 0012 0121     		movs	r1, #1
 496 0014 1846     		mov	r0, r3
 497 0016 FFF7FEFF 		bl	chSemObjectInit
 498              		.loc 5 256 3
 499 001a FB68     		ldr	r3, [r7, #12]
 500 001c 3033     		adds	r3, r3, #48
 501 001e 3A68     		ldr	r2, [r7]
 502 0020 1146     		mov	r1, r2
 503 0022 1846     		mov	r0, r3
 504 0024 FFF7FEFF 		bl	chSemObjectInit
 505              		.loc 5 257 25
 506 0028 FB68     		ldr	r3, [r7, #12]
 507 002a BA68     		ldr	r2, [r7, #8]
 508 002c 1A60     		str	r2, [r3]
 509              		.loc 5 258 25
 510 002e FB68     		ldr	r3, [r7, #12]
 511 0030 7A68     		ldr	r2, [r7, #4]
 512 0032 5A60     		str	r2, [r3, #4]
 513              		.loc 5 259 25
ARM GAS  C:\Users\DEVELO~1\AppData\Local\Temp\cc0E6Q26.s 			page 10


 514 0034 FB68     		ldr	r3, [r7, #12]
 515 0036 3A68     		ldr	r2, [r7]
 516 0038 9A60     		str	r2, [r3, #8]
 517              		.loc 5 260 25
 518 003a FB68     		ldr	r3, [r7, #12]
 519 003c 7A6A     		ldr	r2, [r7, #36]
 520 003e 1A61     		str	r2, [r3, #16]
 521              		.loc 5 261 25
 522 0040 FB68     		ldr	r3, [r7, #12]
 523 0042 BA6A     		ldr	r2, [r7, #40]
 524 0044 DA63     		str	r2, [r3, #60]
 525              		.loc 5 262 25
 526 0046 FB68     		ldr	r3, [r7, #12]
 527 0048 FA6A     		ldr	r2, [r7, #44]
 528 004a 1A64     		str	r2, [r3, #64]
 529              		.loc 5 263 25
 530 004c FB68     		ldr	r3, [r7, #12]
 531 004e 0022     		movs	r2, #0
 532 0050 5A61     		str	r2, [r3, #20]
 533              		.loc 5 264 25
 534 0052 FB68     		ldr	r3, [r7, #12]
 535 0054 0022     		movs	r2, #0
 536 0056 9A61     		str	r2, [r3, #24]
 537              		.loc 5 265 42
 538 0058 FB68     		ldr	r3, [r7, #12]
 539 005a 03F11402 		add	r2, r3, #20
 540              		.loc 5 265 25
 541 005e FB68     		ldr	r3, [r7, #12]
 542 0060 DA61     		str	r2, [r3, #28]
 543              		.loc 5 266 42
 544 0062 FB68     		ldr	r3, [r7, #12]
 545 0064 03F11402 		add	r2, r3, #20
 546              		.loc 5 266 25
 547 0068 FB68     		ldr	r3, [r7, #12]
 548 006a 1A62     		str	r2, [r3, #32]
 549              	.L19:
 550              		.loc 5 270 22 discriminator 1
 551 006c 7B68     		ldr	r3, [r7, #4]
 552 006e 7A68     		ldr	r2, [r7, #4]
 553 0070 1A60     		str	r2, [r3]
 554              		.loc 5 271 22 discriminator 1
 555 0072 7B68     		ldr	r3, [r7, #4]
 556 0074 7A68     		ldr	r2, [r7, #4]
 557 0076 5A60     		str	r2, [r3, #4]
 558              		.loc 5 272 10 discriminator 1
 559 0078 7B68     		ldr	r3, [r7, #4]
 560 007a 0833     		adds	r3, r3, #8
 561 007c 7B60     		str	r3, [r7, #4]
 562              		.loc 5 273 24 discriminator 1
 563 007e FB68     		ldr	r3, [r7, #12]
 564 0080 5A68     		ldr	r2, [r3, #4]
 565              		.loc 5 273 35 discriminator 1
 566 0082 FB68     		ldr	r3, [r7, #12]
 567 0084 1B68     		ldr	r3, [r3]
 568              		.loc 5 273 31 discriminator 1
 569 0086 DB00     		lsls	r3, r3, #3
 570              		.loc 5 273 20 discriminator 1
ARM GAS  C:\Users\DEVELO~1\AppData\Local\Temp\cc0E6Q26.s 			page 11


 571 0088 1344     		add	r3, r3, r2
 572              		.loc 5 273 18 discriminator 1
 573 008a 7A68     		ldr	r2, [r7, #4]
 574 008c 9A42     		cmp	r2, r3
 575 008e EDD3     		bcc	.L19
 576              	.L20:
 577              	.LBB22:
 578              		.loc 5 277 18 discriminator 1
 579 0090 7B6A     		ldr	r3, [r7, #36]
 580 0092 7B61     		str	r3, [r7, #20]
 581              		.loc 5 279 5 discriminator 1
 582 0094 7B69     		ldr	r3, [r7, #20]
 583 0096 1833     		adds	r3, r3, #24
 584 0098 0121     		movs	r1, #1
 585 009a 1846     		mov	r0, r3
 586 009c FFF7FEFF 		bl	chSemObjectInit
 587              		.loc 5 280 5 discriminator 1
 588 00a0 FB68     		ldr	r3, [r7, #12]
 589 00a2 DA69     		ldr	r2, [r3, #28]
 590 00a4 7B69     		ldr	r3, [r7, #20]
 591 00a6 9A60     		str	r2, [r3, #8]
 592 00a8 FB68     		ldr	r3, [r7, #12]
 593 00aa 03F11402 		add	r2, r3, #20
 594 00ae 7B69     		ldr	r3, [r7, #20]
 595 00b0 DA60     		str	r2, [r3, #12]
 596 00b2 FB68     		ldr	r3, [r7, #12]
 597 00b4 DB69     		ldr	r3, [r3, #28]
 598 00b6 7A69     		ldr	r2, [r7, #20]
 599 00b8 DA60     		str	r2, [r3, #12]
 600 00ba FB68     		ldr	r3, [r7, #12]
 601 00bc 7A69     		ldr	r2, [r7, #20]
 602 00be DA61     		str	r2, [r3, #28]
 603              		.loc 5 281 21 discriminator 1
 604 00c0 7B69     		ldr	r3, [r7, #20]
 605 00c2 0022     		movs	r2, #0
 606 00c4 1A61     		str	r2, [r3, #16]
 607              		.loc 5 282 21 discriminator 1
 608 00c6 7B69     		ldr	r3, [r7, #20]
 609 00c8 0022     		movs	r2, #0
 610 00ca 5A61     		str	r2, [r3, #20]
 611              		.loc 5 283 21 discriminator 1
 612 00cc 7B69     		ldr	r3, [r7, #20]
 613 00ce 0122     		movs	r2, #1
 614 00d0 5A62     		str	r2, [r3, #36]
 615              		.loc 5 284 21 discriminator 1
 616 00d2 7B69     		ldr	r3, [r7, #20]
 617 00d4 0022     		movs	r2, #0
 618 00d6 9A62     		str	r2, [r3, #40]
 619              		.loc 5 285 11 discriminator 1
 620 00d8 7A6A     		ldr	r2, [r7, #36]
 621 00da 3B6A     		ldr	r3, [r7, #32]
 622 00dc 1344     		add	r3, r3, r2
 623 00de 7B62     		str	r3, [r7, #36]
 624              		.loc 5 286 9 discriminator 1
 625 00e0 3B68     		ldr	r3, [r7]
 626 00e2 013B     		subs	r3, r3, #1
 627 00e4 3B60     		str	r3, [r7]
ARM GAS  C:\Users\DEVELO~1\AppData\Local\Temp\cc0E6Q26.s 			page 12


 628              	.LBE22:
 629              		.loc 5 287 17 discriminator 1
 630 00e6 3B68     		ldr	r3, [r7]
 631 00e8 002B     		cmp	r3, #0
 632 00ea D1D1     		bne	.L20
 633              		.loc 5 288 1
 634 00ec 00BF     		nop
 635 00ee 00BF     		nop
 636 00f0 1837     		adds	r7, r7, #24
 637              		.cfi_def_cfa_offset 8
 638 00f2 BD46     		mov	sp, r7
 639              		.cfi_def_cfa_register 13
 640              		@ sp needed
 641 00f4 80BD     		pop	{r7, pc}
 642              		.cfi_endproc
 643              	.LFE348:
 644              		.size	chCacheObjectInit, .-chCacheObjectInit
 645              		.section	.text.chCacheGetObject,"ax",%progbits
 646              		.align	1
 647              		.global	chCacheGetObject
 648              		.syntax unified
 649              		.thumb
 650              		.thumb_func
 651              		.type	chCacheGetObject, %function
 652              	chCacheGetObject:
 653              	.LFB349:
 654              		.loc 5 305 45
 655              		.cfi_startproc
 656              		@ args = 0, pretend = 0, frame = 24
 657              		@ frame_needed = 1, uses_anonymous_args = 0
 658 0000 80B5     		push	{r7, lr}
 659              		.cfi_def_cfa_offset 8
 660              		.cfi_offset 7, -8
 661              		.cfi_offset 14, -4
 662 0002 86B0     		sub	sp, sp, #24
 663              		.cfi_def_cfa_offset 32
 664 0004 00AF     		add	r7, sp, #0
 665              		.cfi_def_cfa_register 7
 666 0006 F860     		str	r0, [r7, #12]
 667 0008 B960     		str	r1, [r7, #8]
 668 000a 7A60     		str	r2, [r7, #4]
 669              		.loc 5 309 3
 670 000c FFF7FEFF 		bl	chSysLock
 671              		.loc 5 312 10
 672 0010 7A68     		ldr	r2, [r7, #4]
 673 0012 B968     		ldr	r1, [r7, #8]
 674 0014 F868     		ldr	r0, [r7, #12]
 675 0016 FFF7FEFF 		bl	hash_get_s
 676 001a 7861     		str	r0, [r7, #20]
 677              		.loc 5 313 6
 678 001c 7B69     		ldr	r3, [r7, #20]
 679 001e 002B     		cmp	r3, #0
 680 0020 23D0     		beq	.L22
 681              		.loc 5 320 26
 682 0022 7B69     		ldr	r3, [r7, #20]
 683 0024 1833     		adds	r3, r3, #24
 684              		.loc 5 320 9
ARM GAS  C:\Users\DEVELO~1\AppData\Local\Temp\cc0E6Q26.s 			page 13


 685 0026 1846     		mov	r0, r3
 686 0028 FFF7FEFF 		bl	chSemGetCounterI
 687 002c 0346     		mov	r3, r0
 688              		.loc 5 320 8
 689 002e 002B     		cmp	r3, #0
 690 0030 15DD     		ble	.L23
 691              		.loc 5 327 7
 692 0032 7B69     		ldr	r3, [r7, #20]
 693 0034 DB68     		ldr	r3, [r3, #12]
 694 0036 7A69     		ldr	r2, [r7, #20]
 695 0038 9268     		ldr	r2, [r2, #8]
 696 003a 9A60     		str	r2, [r3, #8]
 697 003c 7B69     		ldr	r3, [r7, #20]
 698 003e 9B68     		ldr	r3, [r3, #8]
 699 0040 7A69     		ldr	r2, [r7, #20]
 700 0042 D268     		ldr	r2, [r2, #12]
 701 0044 DA60     		str	r2, [r3, #12]
 702              		.loc 5 328 23
 703 0046 7B69     		ldr	r3, [r7, #20]
 704 0048 5B6A     		ldr	r3, [r3, #36]
 705 004a 23F00102 		bic	r2, r3, #1
 706 004e 7B69     		ldr	r3, [r7, #20]
 707 0050 5A62     		str	r2, [r3, #36]
 708              		.loc 5 332 7
 709 0052 7B69     		ldr	r3, [r7, #20]
 710 0054 1833     		adds	r3, r3, #24
 711 0056 1846     		mov	r0, r3
 712 0058 FFF7FEFF 		bl	chSemFastWaitI
 713 005c 2CE0     		b	.L24
 714              	.L23:
 715              		.loc 5 341 14
 716 005e 7B69     		ldr	r3, [r7, #20]
 717 0060 1833     		adds	r3, r3, #24
 718 0062 1846     		mov	r0, r3
 719 0064 FFF7FEFF 		bl	chSemWaitS
 720 0068 26E0     		b	.L24
 721              	.L22:
 722              		.loc 5 346 12
 723 006a F868     		ldr	r0, [r7, #12]
 724 006c FFF7FEFF 		bl	lru_get_last_s
 725 0070 7861     		str	r0, [r7, #20]
 726              		.loc 5 349 21
 727 0072 7B69     		ldr	r3, [r7, #20]
 728 0074 BA68     		ldr	r2, [r7, #8]
 729 0076 1A61     		str	r2, [r3, #16]
 730              		.loc 5 350 21
 731 0078 7B69     		ldr	r3, [r7, #20]
 732 007a 7A68     		ldr	r2, [r7, #4]
 733 007c 5A61     		str	r2, [r3, #20]
 734              		.loc 5 351 21
 735 007e 7B69     		ldr	r3, [r7, #20]
 736 0080 0A22     		movs	r2, #10
 737 0082 5A62     		str	r2, [r3, #36]
 738              	.LBB23:
 739              		.loc 5 352 5
 740 0084 FB68     		ldr	r3, [r7, #12]
 741 0086 5A68     		ldr	r2, [r3, #4]
ARM GAS  C:\Users\DEVELO~1\AppData\Local\Temp\cc0E6Q26.s 			page 14


 742 0088 B968     		ldr	r1, [r7, #8]
 743 008a 7B68     		ldr	r3, [r7, #4]
 744 008c 1944     		add	r1, r1, r3
 745 008e FB68     		ldr	r3, [r7, #12]
 746 0090 1B68     		ldr	r3, [r3]
 747 0092 013B     		subs	r3, r3, #1
 748 0094 0B40     		ands	r3, r3, r1
 749 0096 DB00     		lsls	r3, r3, #3
 750 0098 1344     		add	r3, r3, r2
 751 009a 3B61     		str	r3, [r7, #16]
 752 009c 3B69     		ldr	r3, [r7, #16]
 753 009e 1A68     		ldr	r2, [r3]
 754 00a0 7B69     		ldr	r3, [r7, #20]
 755 00a2 1A60     		str	r2, [r3]
 756 00a4 7B69     		ldr	r3, [r7, #20]
 757 00a6 3A69     		ldr	r2, [r7, #16]
 758 00a8 5A60     		str	r2, [r3, #4]
 759 00aa 3B69     		ldr	r3, [r7, #16]
 760 00ac 1B68     		ldr	r3, [r3]
 761 00ae 7A69     		ldr	r2, [r7, #20]
 762 00b0 5A60     		str	r2, [r3, #4]
 763 00b2 3B69     		ldr	r3, [r7, #16]
 764 00b4 7A69     		ldr	r2, [r7, #20]
 765 00b6 1A60     		str	r2, [r3]
 766              	.L24:
 767              	.LBE23:
 768              		.loc 5 356 3
 769 00b8 FFF7FEFF 		bl	chSysUnlock
 770              		.loc 5 358 10
 771 00bc 7B69     		ldr	r3, [r7, #20]
 772              		.loc 5 359 1
 773 00be 1846     		mov	r0, r3
 774 00c0 1837     		adds	r7, r7, #24
 775              		.cfi_def_cfa_offset 8
 776 00c2 BD46     		mov	sp, r7
 777              		.cfi_def_cfa_register 13
 778              		@ sp needed
 779 00c4 80BD     		pop	{r7, pc}
 780              		.cfi_endproc
 781              	.LFE349:
 782              		.size	chCacheGetObject, .-chCacheGetObject
 783              		.section	.text.chCacheReleaseObjectI,"ax",%progbits
 784              		.align	1
 785              		.global	chCacheReleaseObjectI
 786              		.syntax unified
 787              		.thumb
 788              		.thumb_func
 789              		.type	chCacheReleaseObjectI, %function
 790              	chCacheReleaseObjectI:
 791              	.LFB350:
 792              		.loc 5 379 47
 793              		.cfi_startproc
 794              		@ args = 0, pretend = 0, frame = 8
 795              		@ frame_needed = 1, uses_anonymous_args = 0
 796 0000 80B5     		push	{r7, lr}
 797              		.cfi_def_cfa_offset 8
 798              		.cfi_offset 7, -8
ARM GAS  C:\Users\DEVELO~1\AppData\Local\Temp\cc0E6Q26.s 			page 15


 799              		.cfi_offset 14, -4
 800 0002 82B0     		sub	sp, sp, #8
 801              		.cfi_def_cfa_offset 16
 802 0004 00AF     		add	r7, sp, #0
 803              		.cfi_def_cfa_register 7
 804 0006 7860     		str	r0, [r7, #4]
 805 0008 3960     		str	r1, [r7]
 806              		.loc 5 391 24
 807 000a 3B68     		ldr	r3, [r7]
 808 000c 1833     		adds	r3, r3, #24
 809              		.loc 5 391 7
 810 000e 1846     		mov	r0, r3
 811 0010 FFF7FEFF 		bl	chSemGetCounterI
 812 0014 0346     		mov	r3, r0
 813              		.loc 5 391 6
 814 0016 002B     		cmp	r3, #0
 815 0018 0BDA     		bge	.L27
 816              		.loc 5 395 21
 817 001a 3B68     		ldr	r3, [r7]
 818 001c 5B6A     		ldr	r3, [r3, #36]
 819 001e 03F01A02 		and	r2, r3, #26
 820 0022 3B68     		ldr	r3, [r7]
 821 0024 5A62     		str	r2, [r3, #36]
 822              		.loc 5 396 5
 823 0026 3B68     		ldr	r3, [r7]
 824 0028 1833     		adds	r3, r3, #24
 825 002a 1846     		mov	r0, r3
 826 002c FFF7FEFF 		bl	chSemSignalI
 827              		.loc 5 397 5
 828 0030 66E0     		b	.L26
 829              	.L27:
 830              		.loc 5 402 12
 831 0032 3B68     		ldr	r3, [r7]
 832 0034 5B6A     		ldr	r3, [r3, #36]
 833              		.loc 5 402 24
 834 0036 03F00803 		and	r3, r3, #8
 835              		.loc 5 402 6
 836 003a 002B     		cmp	r3, #0
 837 003c 23D0     		beq	.L29
 838              		.loc 5 403 5
 839 003e 3B68     		ldr	r3, [r7]
 840 0040 5B68     		ldr	r3, [r3, #4]
 841 0042 3A68     		ldr	r2, [r7]
 842 0044 1268     		ldr	r2, [r2]
 843 0046 1A60     		str	r2, [r3]
 844 0048 3B68     		ldr	r3, [r7]
 845 004a 1B68     		ldr	r3, [r3]
 846 004c 3A68     		ldr	r2, [r7]
 847 004e 5268     		ldr	r2, [r2, #4]
 848 0050 5A60     		str	r2, [r3, #4]
 849              		.loc 5 404 5
 850 0052 7B68     		ldr	r3, [r7, #4]
 851 0054 1A6A     		ldr	r2, [r3, #32]
 852 0056 3B68     		ldr	r3, [r7]
 853 0058 DA60     		str	r2, [r3, #12]
 854 005a 7B68     		ldr	r3, [r7, #4]
 855 005c 03F11402 		add	r2, r3, #20
ARM GAS  C:\Users\DEVELO~1\AppData\Local\Temp\cc0E6Q26.s 			page 16


 856 0060 3B68     		ldr	r3, [r7]
 857 0062 9A60     		str	r2, [r3, #8]
 858 0064 7B68     		ldr	r3, [r7, #4]
 859 0066 1B6A     		ldr	r3, [r3, #32]
 860 0068 3A68     		ldr	r2, [r7]
 861 006a 9A60     		str	r2, [r3, #8]
 862 006c 7B68     		ldr	r3, [r7, #4]
 863 006e 3A68     		ldr	r2, [r7]
 864 0070 1A62     		str	r2, [r3, #32]
 865              		.loc 5 405 21
 866 0072 3B68     		ldr	r3, [r7]
 867 0074 0022     		movs	r2, #0
 868 0076 1A61     		str	r2, [r3, #16]
 869              		.loc 5 406 21
 870 0078 3B68     		ldr	r3, [r7]
 871 007a 0022     		movs	r2, #0
 872 007c 5A61     		str	r2, [r3, #20]
 873              		.loc 5 407 21
 874 007e 3B68     		ldr	r3, [r7]
 875 0080 0122     		movs	r2, #1
 876 0082 5A62     		str	r2, [r3, #36]
 877 0084 32E0     		b	.L30
 878              	.L29:
 879              		.loc 5 411 14
 880 0086 3B68     		ldr	r3, [r7]
 881 0088 5B6A     		ldr	r3, [r3, #36]
 882              		.loc 5 411 26
 883 008a 03F02003 		and	r3, r3, #32
 884              		.loc 5 411 8
 885 008e 002B     		cmp	r3, #0
 886 0090 10D1     		bne	.L31
 887              		.loc 5 413 7
 888 0092 7B68     		ldr	r3, [r7, #4]
 889 0094 DA69     		ldr	r2, [r3, #28]
 890 0096 3B68     		ldr	r3, [r7]
 891 0098 9A60     		str	r2, [r3, #8]
 892 009a 7B68     		ldr	r3, [r7, #4]
 893 009c 03F11402 		add	r2, r3, #20
 894 00a0 3B68     		ldr	r3, [r7]
 895 00a2 DA60     		str	r2, [r3, #12]
 896 00a4 7B68     		ldr	r3, [r7, #4]
 897 00a6 DB69     		ldr	r3, [r3, #28]
 898 00a8 3A68     		ldr	r2, [r7]
 899 00aa DA60     		str	r2, [r3, #12]
 900 00ac 7B68     		ldr	r3, [r7, #4]
 901 00ae 3A68     		ldr	r2, [r7]
 902 00b0 DA61     		str	r2, [r3, #28]
 903 00b2 0FE0     		b	.L32
 904              	.L31:
 905              		.loc 5 417 7
 906 00b4 7B68     		ldr	r3, [r7, #4]
 907 00b6 1A6A     		ldr	r2, [r3, #32]
 908 00b8 3B68     		ldr	r3, [r7]
 909 00ba DA60     		str	r2, [r3, #12]
 910 00bc 7B68     		ldr	r3, [r7, #4]
 911 00be 03F11402 		add	r2, r3, #20
 912 00c2 3B68     		ldr	r3, [r7]
ARM GAS  C:\Users\DEVELO~1\AppData\Local\Temp\cc0E6Q26.s 			page 17


 913 00c4 9A60     		str	r2, [r3, #8]
 914 00c6 7B68     		ldr	r3, [r7, #4]
 915 00c8 1B6A     		ldr	r3, [r3, #32]
 916 00ca 3A68     		ldr	r2, [r7]
 917 00cc 9A60     		str	r2, [r3, #8]
 918 00ce 7B68     		ldr	r3, [r7, #4]
 919 00d0 3A68     		ldr	r2, [r7]
 920 00d2 1A62     		str	r2, [r3, #32]
 921              	.L32:
 922              		.loc 5 419 21
 923 00d4 3B68     		ldr	r3, [r7]
 924 00d6 5B6A     		ldr	r3, [r3, #36]
 925 00d8 03F01202 		and	r2, r3, #18
 926 00dc 3B68     		ldr	r3, [r7]
 927 00de 5A62     		str	r2, [r3, #36]
 928              		.loc 5 420 21
 929 00e0 3B68     		ldr	r3, [r7]
 930 00e2 5B6A     		ldr	r3, [r3, #36]
 931 00e4 43F00102 		orr	r2, r3, #1
 932 00e8 3B68     		ldr	r3, [r7]
 933 00ea 5A62     		str	r2, [r3, #36]
 934              	.L30:
 935              		.loc 5 424 3
 936 00ec 7B68     		ldr	r3, [r7, #4]
 937 00ee 3033     		adds	r3, r3, #48
 938 00f0 1846     		mov	r0, r3
 939 00f2 FFF7FEFF 		bl	chSemSignalI
 940              		.loc 5 428 3
 941 00f6 3B68     		ldr	r3, [r7]
 942 00f8 1833     		adds	r3, r3, #24
 943 00fa 1846     		mov	r0, r3
 944 00fc FFF7FEFF 		bl	chSemFastSignalI
 945              	.L26:
 946              		.loc 5 429 1
 947 0100 0837     		adds	r7, r7, #8
 948              		.cfi_def_cfa_offset 8
 949 0102 BD46     		mov	sp, r7
 950              		.cfi_def_cfa_register 13
 951              		@ sp needed
 952 0104 80BD     		pop	{r7, pc}
 953              		.cfi_endproc
 954              	.LFE350:
 955              		.size	chCacheReleaseObjectI, .-chCacheReleaseObjectI
 956              		.section	.text.chCacheReadObject,"ax",%progbits
 957              		.align	1
 958              		.global	chCacheReadObject
 959              		.syntax unified
 960              		.thumb
 961              		.thumb_func
 962              		.type	chCacheReadObject, %function
 963              	chCacheReadObject:
 964              	.LFB351:
 965              		.loc 5 450 36
 966              		.cfi_startproc
 967              		@ args = 0, pretend = 0, frame = 16
 968              		@ frame_needed = 1, uses_anonymous_args = 0
 969 0000 80B5     		push	{r7, lr}
ARM GAS  C:\Users\DEVELO~1\AppData\Local\Temp\cc0E6Q26.s 			page 18


 970              		.cfi_def_cfa_offset 8
 971              		.cfi_offset 7, -8
 972              		.cfi_offset 14, -4
 973 0002 84B0     		sub	sp, sp, #16
 974              		.cfi_def_cfa_offset 24
 975 0004 00AF     		add	r7, sp, #0
 976              		.cfi_def_cfa_register 7
 977 0006 F860     		str	r0, [r7, #12]
 978 0008 B960     		str	r1, [r7, #8]
 979 000a 1346     		mov	r3, r2
 980 000c FB71     		strb	r3, [r7, #7]
 981              		.loc 5 455 19
 982 000e BB68     		ldr	r3, [r7, #8]
 983 0010 5B6A     		ldr	r3, [r3, #36]
 984 0012 43F00802 		orr	r2, r3, #8
 985 0016 BB68     		ldr	r3, [r7, #8]
 986 0018 5A62     		str	r2, [r3, #36]
 987              		.loc 5 457 13
 988 001a FB68     		ldr	r3, [r7, #12]
 989 001c DB6B     		ldr	r3, [r3, #60]
 990              		.loc 5 457 10
 991 001e FA79     		ldrb	r2, [r7, #7]	@ zero_extendqisi2
 992 0020 B968     		ldr	r1, [r7, #8]
 993 0022 F868     		ldr	r0, [r7, #12]
 994 0024 9847     		blx	r3
 995              	.LVL1:
 996 0026 0346     		mov	r3, r0
 997              		.loc 5 458 1
 998 0028 1846     		mov	r0, r3
 999 002a 1037     		adds	r7, r7, #16
 1000              		.cfi_def_cfa_offset 8
 1001 002c BD46     		mov	sp, r7
 1002              		.cfi_def_cfa_register 13
 1003              		@ sp needed
 1004 002e 80BD     		pop	{r7, pc}
 1005              		.cfi_endproc
 1006              	.LFE351:
 1007              		.size	chCacheReadObject, .-chCacheReadObject
 1008              		.section	.text.chCacheWriteObject,"ax",%progbits
 1009              		.align	1
 1010              		.global	chCacheWriteObject
 1011              		.syntax unified
 1012              		.thumb
 1013              		.thumb_func
 1014              		.type	chCacheWriteObject, %function
 1015              	chCacheWriteObject:
 1016              	.LFB352:
 1017              		.loc 5 479 37
 1018              		.cfi_startproc
 1019              		@ args = 0, pretend = 0, frame = 16
 1020              		@ frame_needed = 1, uses_anonymous_args = 0
 1021 0000 80B5     		push	{r7, lr}
 1022              		.cfi_def_cfa_offset 8
 1023              		.cfi_offset 7, -8
 1024              		.cfi_offset 14, -4
 1025 0002 84B0     		sub	sp, sp, #16
 1026              		.cfi_def_cfa_offset 24
ARM GAS  C:\Users\DEVELO~1\AppData\Local\Temp\cc0E6Q26.s 			page 19


 1027 0004 00AF     		add	r7, sp, #0
 1028              		.cfi_def_cfa_register 7
 1029 0006 F860     		str	r0, [r7, #12]
 1030 0008 B960     		str	r1, [r7, #8]
 1031 000a 1346     		mov	r3, r2
 1032 000c FB71     		strb	r3, [r7, #7]
 1033              		.loc 5 483 19
 1034 000e BB68     		ldr	r3, [r7, #8]
 1035 0010 5B6A     		ldr	r3, [r3, #36]
 1036 0012 23F01002 		bic	r2, r3, #16
 1037 0016 BB68     		ldr	r3, [r7, #8]
 1038 0018 5A62     		str	r2, [r3, #36]
 1039              		.loc 5 485 13
 1040 001a FB68     		ldr	r3, [r7, #12]
 1041 001c 1B6C     		ldr	r3, [r3, #64]
 1042              		.loc 5 485 10
 1043 001e FA79     		ldrb	r2, [r7, #7]	@ zero_extendqisi2
 1044 0020 B968     		ldr	r1, [r7, #8]
 1045 0022 F868     		ldr	r0, [r7, #12]
 1046 0024 9847     		blx	r3
 1047              	.LVL2:
 1048 0026 0346     		mov	r3, r0
 1049              		.loc 5 486 1
 1050 0028 1846     		mov	r0, r3
 1051 002a 1037     		adds	r7, r7, #16
 1052              		.cfi_def_cfa_offset 8
 1053 002c BD46     		mov	sp, r7
 1054              		.cfi_def_cfa_register 13
 1055              		@ sp needed
 1056 002e 80BD     		pop	{r7, pc}
 1057              		.cfi_endproc
 1058              	.LFE352:
 1059              		.size	chCacheWriteObject, .-chCacheWriteObject
 1060              		.text
 1061              	.Letext0:
 1062              		.file 6 "c:\\chibistudio\\tools\\gnu tools arm embedded\\11.3 2022.08\\lib\\gcc\\arm-none-eabi\\11
 1063              		.file 7 "c:\\chibistudio\\tools\\gnu tools arm embedded\\11.3 2022.08\\arm-none-eabi\\include\\mac
 1064              		.file 8 "c:\\chibistudio\\tools\\gnu tools arm embedded\\11.3 2022.08\\arm-none-eabi\\include\\sys
 1065              		.file 9 "../../../os/rt/include/chearly.h"
 1066              		.file 10 "../../../os/rt/include/chlists.h"
 1067              		.file 11 "../../../os/oslib/include/chobjcaches.h"