ARM GAS  C:\Users\DEVELO~1\AppData\Local\Temp\cc0E6Q26.s 			page 1


   1              		.cpu cortex-m7
   2              		.arch armv7e-m
   3              		.fpu softvfp
   4              		.eabi_attribute 20, 1
   5              		.eabi_attribute 21, 1
   6              		.eabi_attribute 23, 3
   7              		.eabi_attribute 24, 1
   8              		.eabi_attribute 25, 1
   9              		.eabi_attribute 26, 1
  10              		.eabi_attribute 30, 6
  11              		.eabi_attribute 34, 1
  12              		.eabi_attribute 18, 4
  13              		.file	"chobjcaches.c"
  14              		.text
  15              	.Ltext0:
  16              		.cfi_sections	.debug_frame
  17              		.section	.text.chSysLock,"ax",%progbits
  18              		.align	1
  19              		.syntax unified
  20              		.thumb
  21              		.thumb_func
  22              		.type	chSysLock, %function
  23              	chSysLock:
  24              	.LFB202:
  25              		.file 1 "../../../os/rt/include/chsys.h"
  26              		.loc 1 407 36
  27              		.cfi_startproc
  28              		@ args = 0, pretend = 0, frame = 8
  29              		@ frame_needed = 1, uses_anonymous_args = 0
  30              		@ link register save eliminated.
  31 0000 80B4     		push	{r7}
  32              		.cfi_def_cfa_offset 4
  33              		.cfi_offset 7, -4
  34 0002 83B0     		sub	sp, sp, #12
  35              		.cfi_def_cfa_offset 16
  36 0004 00AF     		add	r7, sp, #0
  37              		.cfi_def_cfa_register 7
  38 0006 3023     		movs	r3, #48
  39 0008 7B60     		str	r3, [r7, #4]
  40              	.LBB14:
  41              	.LBB15:
  42              	.LBB16:
  43              	.LBB17:
  44              		.file 2 "../../../os/common/ext/ARM/CMSIS/Core/Include/cmsis_gcc.h"
  45              		.loc 2 493 3
  46 000a 7B68     		ldr	r3, [r7, #4]
  47              		.syntax unified
  48              	@ 493 "../../../os/common/ext/ARM/CMSIS/Core/Include/cmsis_gcc.h" 1
  49 000c 83F31188 		MSR basepri, r3
  50              	@ 0 "" 2
  51              		.loc 2 494 1
  52              		.thumb
  53              		.syntax unified
  54 0010 00BF     		nop
  55              	.LBE17:
  56              	.LBE16:
  57              		.file 3 "../../../os/common/ports/ARMv7-M/chcore.h"
ARM GAS  C:\Users\DEVELO~1\AppData\Local\Temp\cc0E6Q26.s 			page 2


  58              		.loc 3 840 1
  59 0012 00BF     		nop
  60              	.LBE15:
  61              	.LBE14:
  62              		.loc 1 412 1
  63 0014 00BF     		nop
  64 0016 0C37     		adds	r7, r7, #12
  65              		.cfi_def_cfa_offset 4
  66 0018 BD46     		mov	sp, r7
  67              		.cfi_def_cfa_register 13
  68              		@ sp needed
  69 001a 80BC     		pop	{r7}
  70              		.cfi_restore 7
  71              		.cfi_def_cfa_offset 0
  72 001c 7047     		bx	lr
  73              		.cfi_endproc
  74              	.LFE202:
  75              		.size	chSysLock, .-chSysLock
  76              		.section	.text.chSysUnlock,"ax",%progbits
  77              		.align	1
  78              		.syntax unified
  79              		.thumb
  80              		.thumb_func
  81              		.type	chSysUnlock, %function
  82              	chSysUnlock:
  83              	.LFB203:
  84              		.loc 1 421 38
  85              		.cfi_startproc
  86              		@ args = 0, pretend = 0, frame = 8
  87              		@ frame_needed = 1, uses_anonymous_args = 0
  88              		@ link register save eliminated.
  89 0000 80B4     		push	{r7}
  90              		.cfi_def_cfa_offset 4
  91              		.cfi_offset 7, -4
  92 0002 83B0     		sub	sp, sp, #12
  93              		.cfi_def_cfa_offset 16
  94 0004 00AF     		add	r7, sp, #0
  95              		.cfi_def_cfa_register 7
  96 0006 0023     		movs	r3, #0
  97 0008 7B60     		str	r3, [r7, #4]
  98              	.LBB18:
  99              	.LBB19:
 100              	.LBB20:
 101              	.LBB21:
 102              		.loc 2 493 3
 103 000a 7B68     		ldr	r3, [r7, #4]
 104              		.syntax unified
 105              	@ 493 "../../../os/common/ext/ARM/CMSIS/Core/Include/cmsis_gcc.h" 1
 106 000c 83F31188 		MSR basepri, r3
 107              	@ 0 "" 2
 108              		.loc 2 494 1
 109              		.thumb
 110              		.syntax unified
 111 0010 00BF     		nop
 112              	.LBE21:
 113              	.LBE20:
 114              		.loc 3 854 1
ARM GAS  C:\Users\DEVELO~1\AppData\Local\Temp\cc0E6Q26.s 			page 3


 115 0012 00BF     		nop
 116              	.LBE19:
 117              	.LBE18:
 118              		.loc 1 435 1
 119 0014 00BF     		nop
 120 0016 0C37     		adds	r7, r7, #12
 121              		.cfi_def_cfa_offset 4
 122 0018 BD46     		mov	sp, r7
 123              		.cfi_def_cfa_register 13
 124              		@ sp needed
 125 001a 80BC     		pop	{r7}
 126              		.cfi_restore 7
 127              		.cfi_def_cfa_offset 0
 128 001c 7047     		bx	lr
 129              		.cfi_endproc
 130              	.LFE203:
 131              		.size	chSysUnlock, .-chSysUnlock
 132              		.section	.text.chSemFastWaitI,"ax",%progbits
 133              		.align	1
 134              		.syntax unified
 135              		.thumb
 136              		.thumb_func
 137              		.type	chSemFastWaitI, %function
 138              	chSemFastWaitI:
 139              	.LFB245:
 140              		.file 4 "../../../os/rt/include/chsem.h"
 141              		.loc 4 158 52
 142              		.cfi_startproc
 143              		@ args = 0, pretend = 0, frame = 8
 144              		@ frame_needed = 1, uses_anonymous_args = 0
 145              		@ link register save eliminated.
 146 0000 80B4     		push	{r7}
 147              		.cfi_def_cfa_offset 4
 148              		.cfi_offset 7, -4
 149 0002 83B0     		sub	sp, sp, #12
 150              		.cfi_def_cfa_offset 16
 151 0004 00AF     		add	r7, sp, #0
 152              		.cfi_def_cfa_register 7
 153 0006 7860     		str	r0, [r7, #4]
 154              		.loc 4 162 5
 155 0008 7B68     		ldr	r3, [r7, #4]
 156 000a 9B68     		ldr	r3, [r3, #8]
 157              		.loc 4 162 10
 158 000c 5A1E     		subs	r2, r3, #1
 159 000e 7B68     		ldr	r3, [r7, #4]
 160 0010 9A60     		str	r2, [r3, #8]
 161              		.loc 4 163 1
 162 0012 00BF     		nop
 163 0014 0C37     		adds	r7, r7, #12
 164              		.cfi_def_cfa_offset 4
 165 0016 BD46     		mov	sp, r7
 166              		.cfi_def_cfa_register 13
 167              		@ sp needed
 168 0018 80BC     		pop	{r7}
 169              		.cfi_restore 7
 170              		.cfi_def_cfa_offset 0
 171 001a 7047     		bx	lr
ARM GAS  C:\Users\DEVELO~1\AppData\Local\Temp\cc0E6Q26.s 			page 4


 172              		.cfi_endproc
 173              	.LFE245:
 174              		.size	chSemFastWaitI, .-chSemFastWaitI
 175              		.section	.text.chSemFastSignalI,"ax",%progbits
 176              		.align	1
 177              		.syntax unified
 178              		.thumb
 179              		.thumb_func
 180              		.type	chSemFastSignalI, %function
 181              	chSemFastSignalI:
 182              	.LFB246:
 183              		.loc 4 174 54
 184              		.cfi_startproc
 185              		@ args = 0, pretend = 0, frame = 8
 186              		@ frame_needed = 1, uses_anonymous_args = 0
 187              		@ link register save eliminated.
 188 0000 80B4     		push	{r7}
 189              		.cfi_def_cfa_offset 4
 190              		.cfi_offset 7, -4
 191 0002 83B0     		sub	sp, sp, #12
 192              		.cfi_def_cfa_offset 16
 193 0004 00AF     		add	r7, sp, #0
 194              		.cfi_def_cfa_register 7
 195 0006 7860     		str	r0, [r7, #4]
 196              		.loc 4 178 5
 197 0008 7B68     		ldr	r3, [r7, #4]
 198 000a 9B68     		ldr	r3, [r3, #8]
 199              		.loc 4 178 10
 200 000c 5A1C     		adds	r2, r3, #1
 201 000e 7B68     		ldr	r3, [r7, #4]
 202 0010 9A60     		str	r2, [r3, #8]
 203              		.loc 4 179 1
 204 0012 00BF     		nop
 205 0014 0C37     		adds	r7, r7, #12
 206              		.cfi_def_cfa_offset 4
 207 0016 BD46     		mov	sp, r7
 208              		.cfi_def_cfa_register 13
 209              		@ sp needed
 210 0018 80BC     		pop	{r7}
 211              		.cfi_restore 7
 212              		.cfi_def_cfa_offset 0
 213 001a 7047     		bx	lr
 214              		.cfi_endproc
 215              	.LFE246:
 216              		.size	chSemFastSignalI, .-chSemFastSignalI
 217              		.section	.text.chSemGetCounterI,"ax",%progbits
 218              		.align	1
 219              		.syntax unified
 220              		.thumb
 221              		.thumb_func
 222              		.type	chSemGetCounterI, %function
 223              	chSemGetCounterI:
 224              	.LFB247:
 225              		.loc 4 189 61
 226              		.cfi_startproc
 227              		@ args = 0, pretend = 0, frame = 8
 228              		@ frame_needed = 1, uses_anonymous_args = 0
ARM GAS  C:\Users\DEVELO~1\AppData\Local\Temp\cc0E6Q26.s 			page 5


 229              		@ link register save eliminated.
 230 0000 80B4     		push	{r7}
 231              		.cfi_def_cfa_offset 4
 232              		.cfi_offset 7, -4
 233 0002 83B0     		sub	sp, sp, #12
 234              		.cfi_def_cfa_offset 16
 235 0004 00AF     		add	r7, sp, #0
 236              		.cfi_def_cfa_register 7
 237 0006 7860     		str	r0, [r7, #4]
 238              		.loc 4 193 12
 239 0008 7B68     		ldr	r3, [r7, #4]
 240 000a 9B68     		ldr	r3, [r3, #8]
 241              		.loc 4 194 1
 242 000c 1846     		mov	r0, r3
 243 000e 0C37     		adds	r7, r7, #12
 244              		.cfi_def_cfa_offset 4
 245 0010 BD46     		mov	sp, r7
 246              		.cfi_def_cfa_register 13
 247              		@ sp needed
 248 0012 80BC     		pop	{r7}
 249              		.cfi_restore 7
 250              		.cfi_def_cfa_offset 0
 251 0014 7047     		bx	lr
 252              		.cfi_endproc
 253              	.LFE247:
 254              		.size	chSemGetCounterI, .-chSemGetCounterI
 255              		.section	.text.hash_get_s,"ax",%progbits
 256              		.align	1
 257              		.syntax unified
 258              		.thumb
 259              		.thumb_func
 260              		.type	hash_get_s, %function
 261              	hash_get_s:
 262              	.LFB346:
 263              		.file 5 "../../../os/oslib/src/chobjcaches.c"
 264              		.loc 5 136 46
 265              		.cfi_startproc
 266              		@ args = 0, pretend = 0, frame = 24
 267              		@ frame_needed = 1, uses_anonymous_args = 0
 268              		@ link register save eliminated.
 269 0000 80B4     		push	{r7}
 270              		.cfi_def_cfa_offset 4
 271              		.cfi_offset 7, -4
 272 0002 87B0     		sub	sp, sp, #28
 273              		.cfi_def_cfa_offset 32
 274 0004 00AF     		add	r7, sp, #0
 275              		.cfi_def_cfa_register 7
 276 0006 F860     		str	r0, [r7, #12]
 277 0008 B960     		str	r1, [r7, #8]
 278 000a 7A60     		str	r2, [r7, #4]
 279              		.loc 5 141 14
 280 000c FB68     		ldr	r3, [r7, #12]
 281 000e 5A68     		ldr	r2, [r3, #4]
 282              		.loc 5 141 22
 283 0010 B968     		ldr	r1, [r7, #8]
 284 0012 7B68     		ldr	r3, [r7, #4]
 285 0014 1944     		add	r1, r1, r3
ARM GAS  C:\Users\DEVELO~1\AppData\Local\Temp\cc0E6Q26.s 			page 6


 286 0016 FB68     		ldr	r3, [r7, #12]
 287 0018 1B68     		ldr	r3, [r3]
 288 001a 013B     		subs	r3, r3, #1
 289 001c 0B40     		ands	r3, r3, r1
 290              		.loc 5 141 21
 291 001e DB00     		lsls	r3, r3, #3
 292              		.loc 5 141 8
 293 0020 1344     		add	r3, r3, r2
 294 0022 3B61     		str	r3, [r7, #16]
 295              		.loc 5 142 8
 296 0024 3B69     		ldr	r3, [r7, #16]
 297 0026 1B68     		ldr	r3, [r3]
 298 0028 7B61     		str	r3, [r7, #20]
 299              		.loc 5 145 9
 300 002a 0EE0     		b	.L8
 301              	.L11:
 302              		.loc 5 146 14
 303 002c 7B69     		ldr	r3, [r7, #20]
 304 002e 5B69     		ldr	r3, [r3, #20]
 305              		.loc 5 146 8
 306 0030 7A68     		ldr	r2, [r7, #4]
 307 0032 9A42     		cmp	r2, r3
 308 0034 06D1     		bne	.L9
 309              		.loc 5 146 40 discriminator 1
 310 0036 7B69     		ldr	r3, [r7, #20]
 311 0038 1B69     		ldr	r3, [r3, #16]
 312              		.loc 5 146 32 discriminator 1
 313 003a BA68     		ldr	r2, [r7, #8]
 314 003c 9A42     		cmp	r2, r3
 315 003e 01D1     		bne	.L9
 316              		.loc 5 149 14
 317 0040 7B69     		ldr	r3, [r7, #20]
 318 0042 07E0     		b	.L10
 319              	.L9:
 320              		.loc 5 151 10
 321 0044 7B69     		ldr	r3, [r7, #20]
 322 0046 1B68     		ldr	r3, [r3]
 323 0048 7B61     		str	r3, [r7, #20]
 324              	.L8:
 325              		.loc 5 145 15
 326 004a 7A69     		ldr	r2, [r7, #20]
 327 004c 3B69     		ldr	r3, [r7, #16]
 328 004e 9A42     		cmp	r2, r3
 329 0050 ECD1     		bne	.L11
 330              		.loc 5 154 10
 331 0052 0023     		movs	r3, #0
 332              	.L10:
 333              		.loc 5 155 1
 334 0054 1846     		mov	r0, r3
 335 0056 1C37     		adds	r7, r7, #28
 336              		.cfi_def_cfa_offset 4
 337 0058 BD46     		mov	sp, r7
 338              		.cfi_def_cfa_register 13
 339              		@ sp needed
 340 005a 80BC     		pop	{r7}
 341              		.cfi_restore 7
 342              		.cfi_def_cfa_offset 0
ARM GAS  C:\Users\DEVELO~1\AppData\Local\Temp\cc0E6Q26.s 			page 7


 343 005c 7047     		bx	lr
 344              		.cfi_endproc
 345              	.LFE346:
 346              		.size	hash_get_s, .-hash_get_s
 347              		.section	.text.lru_get_last_s,"ax",%progbits
 348              		.align	1
 349              		.syntax unified
 350              		.thumb
 351              		.thumb_func
 352              		.type	lru_get_last_s, %function
 353              	lru_get_last_s:
 354              	.LFB347:
 355              		.loc 5 165 58
 356              		.cfi_startproc
 357              		@ args = 0, pretend = 0, frame = 16
 358              		@ frame_needed = 1, uses_anonymous_args = 0
 359 0000 80B5     		push	{r7, lr}
 360              		.cfi_def_cfa_offset 8
 361              		.cfi_offset 7, -8
 362              		.cfi_offset 14, -4
 363 0002 84B0     		sub	sp, sp, #16
 364              		.cfi_def_cfa_offset 24
 365 0004 00AF     		add	r7, sp, #0
 366              		.cfi_def_cfa_register 7
 367 0006 7860     		str	r0, [r7, #4]
 368              	.L16:
 369              		.loc 5 170 12
 370 0008 7B68     		ldr	r3, [r7, #4]
 371 000a 3033     		adds	r3, r3, #48
 372 000c 1846     		mov	r0, r3
 373 000e FFF7FEFF 		bl	chSemWaitS
 374              		.loc 5 174 10
 375 0012 7B68     		ldr	r3, [r7, #4]
 376 0014 1B6A     		ldr	r3, [r3, #32]
 377 0016 FB60     		str	r3, [r7, #12]
 378              		.loc 5 181 5
 379 0018 FB68     		ldr	r3, [r7, #12]
 380 001a DB68     		ldr	r3, [r3, #12]
 381 001c FA68     		ldr	r2, [r7, #12]
 382 001e 9268     		ldr	r2, [r2, #8]
 383 0020 9A60     		str	r2, [r3, #8]
 384 0022 FB68     		ldr	r3, [r7, #12]
 385 0024 9B68     		ldr	r3, [r3, #8]
 386 0026 FA68     		ldr	r2, [r7, #12]
 387 0028 D268     		ldr	r2, [r2, #12]
 388 002a DA60     		str	r2, [r3, #12]
 389              		.loc 5 182 21
 390 002c FB68     		ldr	r3, [r7, #12]
 391 002e 5B6A     		ldr	r3, [r3, #36]
 392 0030 23F00102 		bic	r2, r3, #1
 393 0034 FB68     		ldr	r3, [r7, #12]
 394 0036 5A62     		str	r2, [r3, #36]
 395              		.loc 5 186 5
 396 0038 FB68     		ldr	r3, [r7, #12]
 397 003a 1833     		adds	r3, r3, #24
 398 003c 1846     		mov	r0, r3
 399 003e FFF7FEFF 		bl	chSemFastWaitI
ARM GAS  C:\Users\DEVELO~1\AppData\Local\Temp\cc0E6Q26.s 			page 8


 400              		.loc 5 190 14
 401 0042 FB68     		ldr	r3, [r7, #12]
 402 0044 5B6A     		ldr	r3, [r3, #36]
 403              		.loc 5 190 26
 404 0046 03F01003 		and	r3, r3, #16
 405              		.loc 5 190 8
 406 004a 002B     		cmp	r3, #0
 407 004c 14D1     		bne	.L13
 408              		.loc 5 193 16
 409 004e FB68     		ldr	r3, [r7, #12]
 410 0050 5B6A     		ldr	r3, [r3, #36]
 411              		.loc 5 193 28
 412 0052 03F00203 		and	r3, r3, #2
 413              		.loc 5 193 10
 414 0056 002B     		cmp	r3, #0
 415 0058 09D0     		beq	.L14
 416              		.loc 5 194 9
 417 005a FB68     		ldr	r3, [r7, #12]
 418 005c 5B68     		ldr	r3, [r3, #4]
 419 005e FA68     		ldr	r2, [r7, #12]
 420 0060 1268     		ldr	r2, [r2]
 421 0062 1A60     		str	r2, [r3]
 422 0064 FB68     		ldr	r3, [r7, #12]
 423 0066 1B68     		ldr	r3, [r3]
 424 0068 FA68     		ldr	r2, [r7, #12]
 425 006a 5268     		ldr	r2, [r2, #4]
 426 006c 5A60     		str	r2, [r3, #4]
 427              	.L14:
 428              		.loc 5 198 23
 429 006e FB68     		ldr	r3, [r7, #12]
 430 0070 0022     		movs	r2, #0
 431 0072 5A62     		str	r2, [r3, #36]
 432              		.loc 5 200 14
 433 0074 FB68     		ldr	r3, [r7, #12]
 434 0076 0DE0     		b	.L17
 435              	.L13:
 436              		.loc 5 204 5
 437 0078 FFF7FEFF 		bl	chSysUnlock
 438              		.loc 5 209 21
 439 007c FB68     		ldr	r3, [r7, #12]
 440 007e 2222     		movs	r2, #34
 441 0080 5A62     		str	r2, [r3, #36]
 442              		.loc 5 210 15
 443 0082 7B68     		ldr	r3, [r7, #4]
 444 0084 1B6C     		ldr	r3, [r3, #64]
 445              		.loc 5 210 12
 446 0086 0122     		movs	r2, #1
 447 0088 F968     		ldr	r1, [r7, #12]
 448 008a 7868     		ldr	r0, [r7, #4]
 449 008c 9847     		blx	r3
 450              	.LVL0:
 451              		.loc 5 213 5
 452 008e FFF7FEFF 		bl	chSysLock
 453              		.loc 5 170 5
 454 0092 B9E7     		b	.L16
 455              	.L17:
 456              		.loc 5 215 1 discriminator 1
ARM GAS  C:\Users\DEVELO~1\AppData\Local\Temp\cc0E6Q26.s 			page 9


 457 0094 1846     		mov	r0, r3
 458 0096 1037     		adds	r7, r7, #16
 459              		.cfi_def_cfa_offset 8
 460 0098 BD46     		mov	sp, r7
 461              		.cfi_def_cfa_register 13
 462              		@ sp needed
 463 009a 80BD     		pop	{r7, pc}
 464              		.cfi_endproc
 465              	.LFE347:
 466              		.size	lru_get_last_s, .-lru_get_last_s
 467              		.section	.text.chCacheObjectInit,"ax",%progbits
 468              		.align	1
 469              		.global	chCacheObjectInit
 470              		.syntax unified
 471              		.thumb
 472              		.thumb_func
 473              		.type	chCacheObjectInit, %function
 474              	chCacheObjectInit:
 475              	.LFB348:
 476              		.loc 5 247 44
 477              		.cfi_startproc
 478              		@ args = 16, pretend = 0, frame = 24
 479              		@ frame_needed = 1, uses_anonymous_args = 0
 480 0000 80B5     		push	{r7, lr}
 481              		.cfi_def_cfa_offset 8
 482              		.cfi_offset 7, -8
 483              		.cfi_offset 14, -4
 484 0002 86B0     		sub	sp, sp, #24
 485              		.cfi_def_cfa_offset 32
 486 0004 00AF     		add	r7, sp, #0
 487              		.cfi_def_cfa_register 7
 488 0006 F860     		str	r0, [r7, #12]
 489 0008 B960     		str	r1, [r7, #8]
 490 000a 7A60     		str	r2, [r7, #4]
 491 000c 3B60     		str	r3, [r7]
 492              		.loc 5 255 3
 493 000e FB68     		ldr	r3, [r7, #12]
 494 0010 2433     		adds	r3, r3, #36
 495 0012 0121     		movs	r1, #1
 496 0014 1846     		mov	r0, r3
 497 0016 FFF7FEFF 		bl	chSemObjectInit
 498              		.loc 5 256 3
 499 001a FB68     		ldr	r3, [r7, #12]
 500 001c 3033     		adds	r3, r3, #48
 501 001e 3A68     		ldr	r2, [r7]
 502 0020 1146     		mov	r1, r2
 503 0022 1846     		mov	r0, r3
 504 0024 FFF7FEFF 		bl	chSemObjectInit
 505              		.loc 5 257 25
 506 0028 FB68     		ldr	r3, [r7, #12]
 507 002a BA68     		ldr	r2, [r7, #8]
 508 002c 1A60     		str	r2, [r3]
 509              		.loc 5 258 25
 510 002e FB68     		ldr	r3, [r7, #12]
 511 0030 7A68     		ldr	r2, [r7, #4]
 512 0032 5A60     		str	r2, [r3, #4]
 513              		.loc 5 259 25
ARM GAS  C:\Users\DEVELO~1\AppData\Local\Temp\cc0E6Q26.s 			page 10


 514 0034 FB68     		ldr	r3, [r7, #12]
 515 0036 3A68     		ldr	r2, [r7]
 516 0038 9A60     		str	r2, [r3, #8]
 517              		.loc 5 260 25
 518 003a FB68     		ldr	r3, [r7, #12]
 519 003c 7A6A     		ldr	r2, [r7, #36]
 520 003e 1A61     		str	r2, [r3, #16]
 521              		.loc 5 261 25
 522 0040 FB68     		ldr	r3, [r7, #12]
 523 0042 BA6A     		ldr	r2, [r7, #40]
 524 0044 DA63     		str	r2, [r3, #60]
 525              		.loc 5 262 25
 526 0046 FB68     		ldr	r3, [r7, #12]
 527 0048 FA6A     		ldr	r2, [r7, #44]
 528 004a 1A64     		str	r2, [r3, #64]
 529              		.loc 5 263 25
 530 004c FB68     		ldr	r3, [r7, #12]
 531 004e 0022     		movs	r2, #0
 532 0050 5A61     		str	r2, [r3, #20]
 533              		.loc 5 264 25
 534 0052 FB68     		ldr	r3, [r7, #12]
 535 0054 0022     		movs	r2, #0
 536 0056 9A61     		str	r2, [r3, #24]
 537              		.loc 5 265 42
 538 0058 FB68     		ldr	r3, [r7, #12]
 539 005a 03F11402 		add	r2, r3, #20
 540              		.loc 5 265 25
 541 005e FB68     		ldr	r3, [r7, #12]
 542 0060 DA61     		str	r2, [r3, #28]
 543              		.loc 5 266 42
 544 0062 FB68     		ldr	r3, [r7, #12]
 545 0064 03F11402 		add	r2, r3, #20
 546              		.loc 5 266 25
 547 0068 FB68     		ldr	r3, [r7, #12]
 548 006a 1A62     		str	r2, [r3, #32]
 549              	.L19:
 550              		.loc 5 270 22 discriminator 1
 551 006c 7B68     		ldr	r3, [r7, #4]
 552 006e 7A68     		ldr	r2, [r7, #4]
 553 0070 1A60     		str	r2, [r3]
 554              		.loc 5 271 22 discriminator 1
 555 0072 7B68     		ldr	r3, [r7, #4]
 556 0074 7A68     		ldr	r2, [r7, #4]
 557 0076 5A60     		str	r2, [r3, #4]
 558              		.loc 5 272 10 discriminator 1
 559 0078 7B68     		ldr	r3, [r7, #4]
 560 007a 0833     		adds	r3, r3, #8
 561 007c 7B60     		str	r3, [r7, #4]
 562              		.loc 5 273 24 discriminator 1
 563 007e FB68     		ldr	r3, [r7, #12]
 564 0080 5A68     		ldr	r2, [r3, #4]
 565              		.loc 5 273 35 discriminator 1
 566 0082 FB68     		ldr	r3, [r7, #12]
 567 0084 1B68     		ldr	r3, [r3]
 568              		.loc 5 273 31 discriminator 1
 569 0086 DB00     		lsls	r3, r3, #3
 570              		.loc 5 273 20 discriminator 1
ARM GAS  C:\Users\DEVELO~1\AppData\Local\Temp\cc0E6Q26.s 			page 11


 571 0088 1344     		add	r3, r3, r2
 572              		.loc 5 273 18 discriminator 1
 573 008a 7A68     		ldr	r2, [r7, #4]
 574 008c 9A42     		cmp	r2, r3
 575 008e EDD3     		bcc	.L19
 576              	.L20:
 577              	.LBB22:
 578              		.loc 5 277 18 discriminator 1
 579 0090 7B6A     		ldr	r3, [r7, #36]
 580 0092 7B61     		str	r3, [r7, #20]
 581              		.loc 5 279 5 discriminator 1
 582 0094 7B69     		ldr	r3, [r7, #20]
 583 0096 1833     		adds	r3, r3, #24
 584 0098 0121     		movs	r1, #1
 585 009a 1846     		mov	r0, r3
 586 009c FFF7FEFF 		bl	chSemObjectInit
 587              		.loc 5 280 5 discriminator 1
 588 00a0 FB68     		ldr	r3, [r7, #12]
 589 00a2 DA69     		ldr	r2, [r3, #28]
 590 00a4 7B69     		ldr	r3, [r7, #20]
 591 00a6 9A60     		str	r2, [r3, #8]
 592 00a8 FB68     		ldr	r3, [r7, #12]
 593 00aa 03F11402 		add	r2, r3, #20
 594 00ae 7B69     		ldr	r3, [r7, #20]
 595 00b0 DA60     		str	r2, [r3, #12]
 596 00b2 FB68     		ldr	r3, [r7, #12]
 597 00b4 DB69     		ldr	r3, [r3, #28]
 598 00b6 7A69     		ldr	r2, [r7, #20]
 599 00b8 DA60     		str	r2, [r3, #12]
 600 00ba FB68     		ldr	r3, [r7, #12]
 601 00bc 7A69     		ldr	r2, [r7, #20]
 602 00be DA61     		str	r2, [r3, #28]
 603              		.loc 5 281 21 discriminator 1
 604 00c0 7B69     		ldr	r3, [r7, #20]
 605 00c2 0022     		movs	r2, #0
 606 00c4 1A61     		str	r2, [r3, #16]
 607              		.loc 5 282 21 discriminator 1
 608 00c6 7B69     		ldr	r3, [r7, #20]
 609 00c8 0022     		movs	r2, #0
 610 00ca 5A61     		str	r2, [r3, #20]
 611              		.loc 5 283 21 discriminator 1
 612 00cc 7B69     		ldr	r3, [r7, #20]
 613 00ce 0122     		movs	r2, #1
 614 00d0 5A62     		str	r2, [r3, #36]
 615              		.loc 5 284 21 discriminator 1
 616 00d2 7B69     		ldr	r3, [r7, #20]
 617 00d4 0022     		movs	r2, #0
 618 00d6 9A62     		str	r2, [r3, #40]
 619              		.loc 5 285 11 discriminator 1
 620 00d8 7A6A     		ldr	r2, [r7, #36]
 621 00da 3B6A     		ldr	r3, [r7, #32]
 622 00dc 1344     		add	r3, r3, r2
 623 00de 7B62     		str	r3, [r7, #36]
 624              		.loc 5 286 9 discriminator 1
 625 00e0 3B68     		ldr	r3, [r7]
 626 00e2 013B     		subs	r3, r3, #1
 627 00e4 3B60     		str	r3, [r7]
ARM GAS  C:\Users\DEVELO~1\AppData\Local\Temp\cc0E6Q26.s 			page 12


 628              	.LBE22:
 629              		.loc 5 287 17 discriminator 1
 630 00e6 3B68     		ldr	r3, [r7]
 631 00e8 002B     		cmp	r3, #0
 632 00ea D1D1     		bne	.L20
 633              		.loc 5 288 1
 634 00ec 00BF     		nop
 635 00ee 00BF     		nop
 636 00f0 1837     		adds	r7, r7, #24
 637              		.cfi_def_cfa_offset 8
 638 00f2 BD46     		mov	sp, r7
 639              		.cfi_def_cfa_register 13
 640              		@ sp needed
 641 00f4 80BD     		pop	{r7, pc}
 642              		.cfi_endproc
 643              	.LFE348:
 644              		.size	chCacheObjectInit, .-chCacheObjectInit
 645              		.section	.text.chCacheGetObject,"ax",%progbits
 646              		.align	1
 647              		.global	chCacheGetObject
 648              		.syntax unified
 649              		.thumb
 650              		.thumb_func
 651              		.type	chCacheGetObject, %function
 652              	chCacheGetObject:
 653              	.LFB349:
 654              		.loc 5 305 45
 655              		.cfi_startproc
 656              		@ args = 0, pretend = 0, frame = 24
 657              		@ frame_needed = 1, uses_anonymous_args = 0
 658 0000 80B5     		push	{r7, lr}
 659              		.cfi_def_cfa_offset 8
 660              		.cfi_offset 7, -8
 661              		.cfi_offset 14, -4
 662 0002 86B0     		sub	sp, sp, #24
 663              		.cfi_def_cfa_offset 32
 664 0004 00AF     		add	r7, sp, #0
 665              		.cfi_def_cfa_register 7
 666 0006 F860     		str	r0, [r7, #12]
 667 0008 B960     		str	r1, [r7, #8]
 668 000a 7A60     		str	r2, [r7, #4]
 669              		.loc 5 309 3
 670 000c FFF7FEFF 		bl	chSysLock
 671              		.loc 5 312 10
 672 0010 7A68     		ldr	r2, [r7, #4]
 673 0012 B968     		ldr	r1, [r7, #8]
 674 0014 F868     		ldr	r0, [r7, #12]
 675 0016 FFF7FEFF 		bl	hash_get_s
 676 001a 7861     		str	r0, [r7, #20]
 677              		.loc 5 313 6
 678 001c 7B69     		ldr	r3, [r7, #20]
 679 001e 002B     		cmp	r3, #0
 680 0020 23D0     		beq	.L22
 681              		.loc 5 320 26
 682 0022 7B69     		ldr	r3, [r7, #20]
 683 0024 1833     		adds	r3, r3, #24
 684              		.loc 5 320 9
ARM GAS  C:\Users\DEVELO~1\AppData\Local\Temp\cc0E6Q26.s 			page 13


 685 0026 1846     		mov	r0, r3
 686 0028 FFF7FEFF 		bl	chSemGetCounterI
 687 002c 0346     		mov	r3, r0
 688              		.loc 5 320 8
 689 002e 002B     		cmp	r3, #0
 690 0030 15DD     		ble	.L23
 691              		.loc 5 327 7
 692 0032 7B69     		ldr	r3, [r7, #20]
 693 0034 DB68     		ldr	r3, [r3, #12]
 694 0036 7A69     		ldr	r2, [r7, #20]
 695 0038 9268     		ldr	r2, [r2, #8]
 696 003a 9A60     		str	r2, [r3, #8]
 697 003c 7B69     		ldr	r3, [r7, #20]
 698 003e 9B68     		ldr	r3, [r3, #8]
 699 0040 7A69     		ldr	r2, [r7, #20]
 700 0042 D268     		ldr	r2, [r2, #12]
 701 0044 DA60     		str	r2, [r3, #12]
 702              		.loc 5 328 23
 703 0046 7B69     		ldr	r3, [r7, #20]
 704 0048 5B6A     		ldr	r3, [r3, #36]
 705 004a 23F00102 		bic	r2, r3, #1
 706 004e 7B69     		ldr	r3, [r7, #20]
 707 0050 5A62     		str	r2, [r3, #36]
 708              		.loc 5 332 7
 709 0052 7B69     		ldr	r3, [r7, #20]
 710 0054 1833     		adds	r3, r3, #24
 711 0056 1846     		mov	r0, r3
 712 0058 FFF7FEFF 		bl	chSemFastWaitI
 713 005c 2CE0     		b	.L24
 714              	.L23:
 715              		.loc 5 341 14
 716 005e 7B69     		ldr	r3, [r7, #20]
 717 0060 1833     		adds	r3, r3, #24
 718 0062 1846     		mov	r0, r3
 719 0064 FFF7FEFF 		bl	chSemWaitS
 720 0068 26E0     		b	.L24
 721              	.L22:
 722              		.loc 5 346 12
 723 006a F868     		ldr	r0, [r7, #12]
 724 006c FFF7FEFF 		bl	lru_get_last_s
 725 0070 7861     		str	r0, [r7, #20]
 726              		.loc 5 349 21
 727 0072 7B69     		ldr	r3, [r7, #20]
 728 0074 BA68     		ldr	r2, [r7, #8]
 729 0076 1A61     		str	r2, [r3, #16]
 730              		.loc 5 350 21
 731 0078 7B69     		ldr	r3, [r7, #20]
 732 007a 7A68     		ldr	r2, [r7, #4]
 733 007c 5A61     		str	r2, [r3, #20]
 734              		.loc 5 351 21
 735 007e 7B69     		ldr	r3, [r7, #20]
 736 0080 0A22     		movs	r2, #10
 737 0082 5A62     		str	r2, [r3, #36]
 738              	.LBB23:
 739              		.loc 5 352 5
 740 0084 FB68     		ldr	r3, [r7, #12]
 741 0086 5A68     		ldr	r2, [r3, #4]
ARM GAS  C:\Users\DEVELO~1\AppData\Local\Temp\cc0E6Q26.s 			page 14


 742 0088 B968     		ldr	r1, [r7, #8]
 743 008a 7B68     		ldr	r3, [r7, #4]
 744 008c 1944     		add	r1, r1, r3
 745 008e FB68     		ldr	r3, [r7, #12]
 746 0090 1B68     		ldr	r3, [r3]
 747 0092 013B     		subs	r3, r3, #1
 748 0094 0B40     		ands	r3, r3, r1
 749 0096 DB00     		lsls	r3, r3, #3
 750 0098 1344     		add	r3, r3, r2
 751 009a 3B61     		str	r3, [r7, #16]
 752 009c 3B69     		ldr	r3, [r7, #16]
 753 009e 1A68     		ldr	r2, [r3]
 754 00a0 7B69     		ldr	r3, [r7, #20]
 755 00a2 1A60     		str	r2, [r3]
 756 00a4 7B69     		ldr	r3, [r7, #20]
 757 00a6 3A69     		ldr	r2, [r7, #16]
 758 00a8 5A60     		str	r2, [r3, #4]
 759 00aa 3B69     		ldr	r3, [r7, #16]
 760 00ac 1B68     		ldr	r3, [r3]
 761 00ae 7A69     		ldr	r2, [r7, #20]
 762 00b0 5A60     		str	r2, [r3, #4]
 763 00b2 3B69     		ldr	r3, [r7, #16]
 764 00b4 7A69     		ldr	r2, [r7, #20]
 765 00b6 1A60     		str	r2, [r3]
 766              	.L24:
 767              	.LBE23:
 768              		.loc 5 356 3
 769 00b8 FFF7FEFF 		bl	chSysUnlock
 770              		.loc 5 358 10
 771 00bc 7B69     		ldr	r3, [r7, #20]
 772              		.loc 5 359 1
 773 00be 1846     		mov	r0, r3
 774 00c0 1837     		adds	r7, r7, #24
 775              		.cfi_def_cfa_offset 8
 776 00c2 BD46     		mov	sp, r7
 777              		.cfi_def_cfa_register 13
 778              		@ sp needed
 779 00c4 80BD     		pop	{r7, pc}
 780              		.cfi_endproc
 781              	.LFE349:
 782              		.size	chCacheGetObject, .-chCacheGetObject
 783              		.section	.text.chCacheReleaseObjectI,"ax",%progbits
 784              		.align	1
 785              		.global	chCacheReleaseObjectI
 786              		.syntax unified
 787              		.thumb
 788              		.thumb_func
 789              		.type	chCacheReleaseObjectI, %function
 790              	chCacheReleaseObjectI:
 791              	.LFB350:
 792              		.loc 5 379 47
 793              		.cfi_startproc
 794              		@ args = 0, pretend = 0, frame = 8
 795              		@ frame_needed = 1, uses_anonymous_args = 0
 796 0000 80B5     		push	{r7, lr}
 797              		.cfi_def_cfa_offset 8
 798              		.cfi_offset 7, -8
ARM GAS  C:\Users\DEVELO~1\AppData\Local\Temp\cc0E6Q26.s 			page 15


 799              		.cfi_offset 14, -4
 800 0002 82B0     		sub	sp, sp, #8
 801              		.cfi_def_cfa_offset 16
 802 0004 00AF     		add	r7, sp, #0
 803              		.cfi_def_cfa_register 7
 804 0006 7860     		str	r0, [r7, #4]
 805 0008 3960     		str	r1, [r7]
 806              		.loc 5 391 24
 807 000a 3B68     		ldr	r3, [r7]
 808 000c 1833     		adds	r3, r3, #24
 809              		.loc 5 391 7
 810 000e 1846     		mov	r0, r3
 811 0010 FFF7FEFF 		bl	chSemGetCounterI
 812 0014 0346     		mov	r3, r0
 813              		.loc 5 391 6
 814 0016 002B     		cmp	r3, #0
 815 0018 0BDA     		bge	.L27
 816              		.loc 5 395 21
 817 001a 3B68     		ldr	r3, [r7]
 818 001c 5B6A     		ldr	r3, [r3, #36]
 819 001e 03F01A02 		and	r2, r3, #26
 820 0022 3B68     		ldr	r3, [r7]
 821 0024 5A62     		str	r2, [r3, #36]
 822              		.loc 5 396 5
 823 0026 3B68     		ldr	r3, [r7]
 824 0028 1833     		adds	r3, r3, #24
 825 002a 1846     		mov	r0, r3
 826 002c FFF7FEFF 		bl	chSemSignalI
 827              		.loc 5 397 5
 828 0030 66E0     		b	.L26
 829              	.L27:
 830              		.loc 5 402 12
 831 0032 3B68     		ldr	r3, [r7]
 832 0034 5B6A     		ldr	r3, [r3, #36]
 833              		.loc 5 402 24
 834 0036 03F00803 		and	r3, r3, #8
 835              		.loc 5 402 6
 836 003a 002B     		cmp	r3, #0
 837 003c 23D0     		beq	.L29
 838              		.loc 5 403 5
 839 003e 3B68     		ldr	r3, [r7]
 840 0040 5B68     		ldr	r3, [r3, #4]
 841 0042 3A68     		ldr	r2, [r7]
 842 0044 1268     		ldr	r2, [r2]
 843 0046 1A60     		str	r2, [r3]
 844 0048 3B68     		ldr	r3, [r7]
 845 004a 1B68     		ldr	r3, [r3]
 846 004c 3A68     		ldr	r2, [r7]
 847 004e 5268     		ldr	r2, [r2, #4]
 848 0050 5A60     		str	r2, [r3, #4]
 849              		.loc 5 404 5
 850 0052 7B68     		ldr	r3, [r7, #4]
 851 0054 1A6A     		ldr	r2, [r3, #32]
 852 0056 3B68     		ldr	r3, [r7]
 853 0058 DA60     		str	r2, [r3, #12]
 854 005a 7B68     		ldr	r3, [r7, #4]
 855 005c 03F11402 		add	r2, r3, #20
ARM GAS  C:\Users\DEVELO~1\AppData\Local\Temp\cc0E6Q26.s 			page 16


 856 0060 3B68     		ldr	r3, [r7]
 857 0062 9A60     		str	r2, [r3, #8]
 858 0064 7B68     		ldr	r3, [r7, #4]
 859 0066 1B6A     		ldr	r3, [r3, #32]
 860 0068 3A68     		ldr	r2, [r7]
 861 006a 9A60     		str	r2, [r3, #8]
 862 006c 7B68     		ldr	r3, [r7, #4]
 863 006e 3A68     		ldr	r2, [r7]
 864 0070 1A62     		str	r2, [r3, #32]
 865              		.loc 5 405 21
 866 0072 3B68     		ldr	r3, [r7]
 867 0074 0022     		movs	r2, #0
 868 0076 1A61     		str	r2, [r3, #16]
 869              		.loc 5 406 21
 870 0078 3B68     		ldr	r3, [r7]
 871 007a 0022     		movs	r2, #0
 872 007c 5A61     		str	r2, [r3, #20]
 873              		.loc 5 407 21
 874 007e 3B68     		ldr	r3, [r7]
 875 0080 0122     		movs	r2, #1
 876 0082 5A62     		str	r2, [r3, #36]
 877 0084 32E0     		b	.L30
 878              	.L29:
 879              		.loc 5 411 14
 880 0086 3B68     		ldr	r3, [r7]
 881 0088 5B6A     		ldr	r3, [r3, #36]
 882              		.loc 5 411 26
 883 008a 03F02003 		and	r3, r3, #32
 884              		.loc 5 411 8
 885 008e 002B     		cmp	r3, #0
 886 0090 10D1     		bne	.L31
 887              		.loc 5 413 7
 888 0092 7B68     		ldr	r3, [r7, #4]
 889 0094 DA69     		ldr	r2, [r3, #28]
 890 0096 3B68     		ldr	r3, [r7]
 891 0098 9A60     		str	r2, [r3, #8]
 892 009a 7B68     		ldr	r3, [r7, #4]
 893 009c 03F11402 		add	r2, r3, #20
 894 00a0 3B68     		ldr	r3, [r7]
 895 00a2 DA60     		str	r2, [r3, #12]
 896 00a4 7B68     		ldr	r3, [r7, #4]
 897 00a6 DB69     		ldr	r3, [r3, #28]
 898 00a8 3A68     		ldr	r2, [r7]
 899 00aa DA60     		str	r2, [r3, #12]
 900 00ac 7B68     		ldr	r3, [r7, #4]
 901 00ae 3A68     		ldr	r2, [r7]
 902 00b0 DA61     		str	r2, [r3, #28]
 903 00b2 0FE0     		b	.L32
 904              	.L31:
 905              		.loc 5 417 7
 906 00b4 7B68     		ldr	r3, [r7, #4]
 907 00b6 1A6A     		ldr	r2, [r3, #32]
 908 00b8 3B68     		ldr	r3, [r7]
 909 00ba DA60     		str	r2, [r3, #12]
 910 00bc 7B68     		ldr	r3, [r7, #4]
 911 00be 03F11402 		add	r2, r3, #20
 912 00c2 3B68     		ldr	r3, [r7]
ARM GAS  C:\Users\DEVELO~1\AppData\Local\Temp\cc0E6Q26.s 			page 17


 913 00c4 9A60     		str	r2, [r3, #8]
 914 00c6 7B68     		ldr	r3, [r7, #4]
 915 00c8 1B6A     		ldr	r3, [r3, #32]
 916 00ca 3A68     		ldr	r2, [r7]
 917 00cc 9A60     		str	r2, [r3, #8]
 918 00ce 7B68     		ldr	r3, [r7, #4]
 919 00d0 3A68     		ldr	r2, [r7]
 920 00d2 1A62     		str	r2, [r3, #32]
 921              	.L32:
 922              		.loc 5 419 21
 923 00d4 3B68     		ldr	r3, [r7]
 924 00d6 5B6A     		ldr	r3, [r3, #36]
 925 00d8 03F01202 		and	r2, r3, #18
 926 00dc 3B68     		ldr	r3, [r7]
 927 00de 5A62     		str	r2, [r3, #36]
 928              		.loc 5 420 21
 929 00e0 3B68     		ldr	r3, [r7]
 930 00e2 5B6A     		ldr	r3, [r3, #36]
 931 00e4 43F00102 		orr	r2, r3, #1
 932 00e8 3B68     		ldr	r3, [r7]
 933 00ea 5A62     		str	r2, [r3, #36]
 934              	.L30:
 935              		.loc 5 424 3
 936 00ec 7B68     		ldr	r3, [r7, #4]
 937 00ee 3033     		adds	r3, r3, #48
 938 00f0 1846     		mov	r0, r3
 939 00f2 FFF7FEFF 		bl	chSemSignalI
 940              		.loc 5 428 3
 941 00f6 3B68     		ldr	r3, [r7]
 942 00f8 1833     		adds	r3, r3, #24
 943 00fa 1846     		mov	r0, r3
 944 00fc FFF7FEFF 		bl	chSemFastSignalI
 945              	.L26:
 946              		.loc 5 429 1
 947 0100 0837     		adds	r7, r7, #8
 948              		.cfi_def_cfa_offset 8
 949 0102 BD46     		mov	sp, r7
 950              		.cfi_def_cfa_register 13
 951              		@ sp needed
 952 0104 80BD     		pop	{r7, pc}
 953              		.cfi_endproc
 954              	.LFE350:
 955              		.size	chCacheReleaseObjectI, .-chCacheReleaseObjectI
 956              		.section	.text.chCacheReadObject,"ax",%progbits
 957              		.align	1
 958              		.global	chCacheReadObject
 959              		.syntax unified
 960              		.thumb
 961              		.thumb_func
 962              		.type	chCacheReadObject, %function
 963              	chCacheReadObject:
 964              	.LFB351:
 965              		.loc 5 450 36
 966              		.cfi_startproc
 967              		@ args = 0, pretend = 0, frame = 16
 968              		@ frame_needed = 1, uses_anonymous_args = 0
 969 0000 80B5     		push	{r7, lr}
ARM GAS  C:\Users\DEVELO~1\AppData\Local\Temp\cc0E6Q26.s 			page 18


 970              		.cfi_def_cfa_offset 8
 971              		.cfi_offset 7, -8
 972              		.cfi_offset 14, -4
 973 0002 84B0     		sub	sp, sp, #16
 974              		.cfi_def_cfa_offset 24
 975 0004 00AF     		add	r7, sp, #0
 976              		.cfi_def_cfa_register 7
 977 0006 F860     		str	r0, [r7, #12]
 978 0008 B960     		str	r1, [r7, #8]
 979 000a 1346     		mov	r3, r2
 980 000c FB71     		strb	r3, [r7, #7]
 981              		.loc 5 455 19
 982 000e BB68     		ldr	r3, [r7, #8]
 983 0010 5B6A     		ldr	r3, [r3, #36]
 984 0012 43F00802 		orr	r2, r3, #8
 985 0016 BB68     		ldr	r3, [r7, #8]
 986 0018 5A62     		str	r2, [r3, #36]
 987              		.loc 5 457 13
 988 001a FB68     		ldr	r3, [r7, #12]
 989 001c DB6B     		ldr	r3, [r3, #60]
 990              		.loc 5 457 10
 991 001e FA79     		ldrb	r2, [r7, #7]	@ zero_extendqisi2
 992 0020 B968     		ldr	r1, [r7, #8]
 993 0022 F868     		ldr	r0, [r7, #12]
 994 0024 9847     		blx	r3
 995              	.LVL1:
 996 0026 0346     		mov	r3, r0
 997              		.loc 5 458 1
 998 0028 1846     		mov	r0, r3
 999 002a 1037     		adds	r7, r7, #16
 1000              		.cfi_def_cfa_offset 8
 1001 002c BD46     		mov	sp, r7
 1002              		.cfi_def_cfa_register 13
 1003              		@ sp needed
 1004 002e 80BD     		pop	{r7, pc}
 1005              		.cfi_endproc
 1006              	.LFE351:
 1007              		.size	chCacheReadObject, .-chCacheReadObject
 1008              		.section	.text.chCacheWriteObject,"ax",%progbits
 1009              		.align	1
 1010              		.global	chCacheWriteObject
 1011              		.syntax unified
 1012              		.thumb
 1013              		.thumb_func
 1014              		.type	chCacheWriteObject, %function
 1015              	chCacheWriteObject:
 1016              	.LFB352:
 1017              		.loc 5 479 37
 1018              		.cfi_startproc
 1019              		@ args = 0, pretend = 0, frame = 16
 1020              		@ frame_needed = 1, uses_anonymous_args = 0
 1021 0000 80B5     		push	{r7, lr}
 1022              		.cfi_def_cfa_offset 8
 1023              		.cfi_offset 7, -8
 1024              		.cfi_offset 14, -4
 1025 0002 84B0     		sub	sp, sp, #16
 1026              		.cfi_def_cfa_offset 24
ARM GAS  C:\Users\DEVELO~1\AppData\Local\Temp\cc0E6Q26.s 			page 19


 1027 0004 00AF     		add	r7, sp, #0
 1028              		.cfi_def_cfa_register 7
 1029 0006 F860     		str	r0, [r7, #12]
 1030 0008 B960     		str	r1, [r7, #8]
 1031 000a 1346     		mov	r3, r2
 1032 000c FB71     		strb	r3, [r7, #7]
 1033              		.loc 5 483 19
 1034 000e BB68     		ldr	r3, [r7, #8]
 1035 0010 5B6A     		ldr	r3, [r3, #36]
 1036 0012 23F01002 		bic	r2, r3, #16
 1037 0016 BB68     		ldr	r3, [r7, #8]
 1038 0018 5A62     		str	r2, [r3, #36]
 1039              		.loc 5 485 13
 1040 001a FB68     		ldr	r3, [r7, #12]
 1041 001c 1B6C     		ldr	r3, [r3, #64]
 1042              		.loc 5 485 10
 1043 001e FA79     		ldrb	r2, [r7, #7]	@ zero_extendqisi2
 1044 0020 B968     		ldr	r1, [r7, #8]
 1045 0022 F868     		ldr	r0, [r7, #12]
 1046 0024 9847     		blx	r3
 1047              	.LVL2:
 1048 0026 0346     		mov	r3, r0
 1049              		.loc 5 486 1
 1050 0028 1846     		mov	r0, r3
 1051 002a 1037     		adds	r7, r7, #16
 1052              		.cfi_def_cfa_offset 8
 1053 002c BD46     		mov	sp, r7
 1054              		.cfi_def_cfa_register 13
 1055              		@ sp needed
 1056 002e 80BD     		pop	{r7, pc}
 1057              		.cfi_endproc
 1058              	.LFE352:
 1059              		.size	chCacheWriteObject, .-chCacheWriteObject
 1060              		.text
 1061              	.Letext0:
 1062              		.file 6 "c:\\chibistudio\\tools\\gnu tools arm embedded\\11.3 2022.08\\lib\\gcc\\arm-none-eabi\\11
 1063              		.file 7 "c:\\chibistudio\\tools\\gnu tools arm embedded\\11.3 2022.08\\arm-none-eabi\\include\\mac
 1064              		.file 8 "c:\\chibistudio\\tools\\gnu tools arm embedded\\11.3 2022.08\\arm-none-eabi\\include\\sys
 1065              		.file 9 "../../../os/rt/include/chearly.h"
 1066              		.file 10 "../../../os/rt/include/chlists.h"
 1067              		.file 11 "../../../os/oslib/include/chobjcaches.h"
 1068              		.section	.debug_info,"",%progbits
 1069              	.Ldebug_info0:
 1070 0000 CB070000 		.4byte	0x7cb
 1071 0004 0500     		.2byte	0x5
 1072 0006 01       		.byte	0x1
 1073 0007 04       		.byte	0x4
 1074 0008 00000000 		.4byte	.Ldebug_abbrev0
 1075 000c 1B       		.uleb128 0x1b
 1076 000d 1A000000 		.4byte	.LASF78
 1077 0011 1D       		.byte	0x1d
 1078 0012 68010000 		.4byte	.LASF79
 1079 0016 D6030000 		.4byte	.LASF80
 1080 001a 0C000000 		.4byte	.LLRL0
 1081 001e 00000000 		.4byte	0
 1082 0022 00000000 		.4byte	.Ldebug_line0
 1083 0026 1C       		.uleb128 0x1c
ARM GAS  C:\Users\DEVELO~1\AppData\Local\Temp\cc0E6Q26.s 			page 20


 1084 0027 04       		.byte	0x4
 1085 0028 05       		.byte	0x5
 1086 0029 696E7400 		.ascii	"int\000"
 1087 002d 02       		.uleb128 0x2
 1088 002e AF000000 		.4byte	.LASF4
 1089 0032 06       		.byte	0x6
 1090 0033 D1       		.byte	0xd1
 1091 0034 17       		.byte	0x17
 1092 0035 39000000 		.4byte	0x39
 1093 0039 03       		.uleb128 0x3
 1094 003a 04       		.byte	0x4
 1095 003b 07       		.byte	0x7
 1096 003c B9020000 		.4byte	.LASF0
 1097 0040 03       		.uleb128 0x3
 1098 0041 08       		.byte	0x8
 1099 0042 05       		.byte	0x5
 1100 0043 E8010000 		.4byte	.LASF1
 1101 0047 03       		.uleb128 0x3
 1102 0048 08       		.byte	0x8
 1103 0049 04       		.byte	0x4
 1104 004a DC010000 		.4byte	.LASF2
 1105 004e 03       		.uleb128 0x3
 1106 004f 01       		.byte	0x1
 1107 0050 06       		.byte	0x6
 1108 0051 9C020000 		.4byte	.LASF3
 1109 0055 02       		.uleb128 0x2
 1110 0056 21020000 		.4byte	.LASF5
 1111 005a 07       		.byte	0x7
 1112 005b 2B       		.byte	0x2b
 1113 005c 18       		.byte	0x18
 1114 005d 61000000 		.4byte	0x61
 1115 0061 03       		.uleb128 0x3
 1116 0062 01       		.byte	0x1
 1117 0063 08       		.byte	0x8
 1118 0064 5D020000 		.4byte	.LASF6
 1119 0068 03       		.uleb128 0x3
 1120 0069 02       		.byte	0x2
 1121 006a 05       		.byte	0x5
 1122 006b A5000000 		.4byte	.LASF7
 1123 006f 03       		.uleb128 0x3
 1124 0070 02       		.byte	0x2
 1125 0071 07       		.byte	0x7
 1126 0072 E4020000 		.4byte	.LASF8
 1127 0076 02       		.uleb128 0x2
 1128 0077 92020000 		.4byte	.LASF9
 1129 007b 07       		.byte	0x7
 1130 007c 4D       		.byte	0x4d
 1131 007d 18       		.byte	0x18
 1132 007e 82000000 		.4byte	0x82
 1133 0082 03       		.uleb128 0x3
 1134 0083 04       		.byte	0x4
 1135 0084 05       		.byte	0x5
 1136 0085 18020000 		.4byte	.LASF10
 1137 0089 02       		.uleb128 0x2
 1138 008a 39020000 		.4byte	.LASF11
 1139 008e 07       		.byte	0x7
 1140 008f 4F       		.byte	0x4f
ARM GAS  C:\Users\DEVELO~1\AppData\Local\Temp\cc0E6Q26.s 			page 21


 1141 0090 19       		.byte	0x19
 1142 0091 95000000 		.4byte	0x95
 1143 0095 03       		.uleb128 0x3
 1144 0096 04       		.byte	0x4
 1145 0097 07       		.byte	0x7
 1146 0098 62030000 		.4byte	.LASF12
 1147 009c 03       		.uleb128 0x3
 1148 009d 08       		.byte	0x8
 1149 009e 07       		.byte	0x7
 1150 009f F6010000 		.4byte	.LASF13
 1151 00a3 02       		.uleb128 0x2
 1152 00a4 9D010000 		.4byte	.LASF14
 1153 00a8 08       		.byte	0x8
 1154 00a9 18       		.byte	0x18
 1155 00aa 13       		.byte	0x13
 1156 00ab 55000000 		.4byte	0x55
 1157 00af 02       		.uleb128 0x2
 1158 00b0 30030000 		.4byte	.LASF15
 1159 00b4 08       		.byte	0x8
 1160 00b5 2C       		.byte	0x2c
 1161 00b6 13       		.byte	0x13
 1162 00b7 76000000 		.4byte	0x76
 1163 00bb 02       		.uleb128 0x2
 1164 00bc C1010000 		.4byte	.LASF16
 1165 00c0 08       		.byte	0x8
 1166 00c1 30       		.byte	0x30
 1167 00c2 14       		.byte	0x14
 1168 00c3 89000000 		.4byte	0x89
 1169 00c7 02       		.uleb128 0x2
 1170 00c8 7A040000 		.4byte	.LASF17
 1171 00cc 09       		.byte	0x9
 1172 00cd 58       		.byte	0x58
 1173 00ce 19       		.byte	0x19
 1174 00cf AF000000 		.4byte	0xaf
 1175 00d3 02       		.uleb128 0x2
 1176 00d4 38030000 		.4byte	.LASF18
 1177 00d8 09       		.byte	0x9
 1178 00d9 5C       		.byte	0x5c
 1179 00da 19       		.byte	0x19
 1180 00db AF000000 		.4byte	0xaf
 1181 00df 02       		.uleb128 0x2
 1182 00e0 29030000 		.4byte	.LASF19
 1183 00e4 09       		.byte	0x9
 1184 00e5 5D       		.byte	0x5d
 1185 00e6 19       		.byte	0x19
 1186 00e7 BB000000 		.4byte	0xbb
 1187 00eb 03       		.uleb128 0x3
 1188 00ec 01       		.byte	0x1
 1189 00ed 08       		.byte	0x8
 1190 00ee 1A030000 		.4byte	.LASF20
 1191 00f2 05       		.uleb128 0x5
 1192 00f3 EB000000 		.4byte	0xeb
 1193 00f7 02       		.uleb128 0x2
 1194 00f8 B6010000 		.4byte	.LASF21
 1195 00fc 0A       		.byte	0xa
 1196 00fd 3F       		.byte	0x3f
 1197 00fe 19       		.byte	0x19
ARM GAS  C:\Users\DEVELO~1\AppData\Local\Temp\cc0E6Q26.s 			page 22


 1198 00ff 03010000 		.4byte	0x103
 1199 0103 09       		.uleb128 0x9
 1200 0104 CD030000 		.4byte	.LASF24
 1201 0108 08       		.byte	0x8
 1202 0109 0A       		.byte	0xa
 1203 010a 45       		.byte	0x45
 1204 010b 08       		.byte	0x8
 1205 010c 2B010000 		.4byte	0x12b
 1206 0110 01       		.uleb128 0x1
 1207 0111 8B040000 		.4byte	.LASF22
 1208 0115 0A       		.byte	0xa
 1209 0116 46       		.byte	0x46
 1210 0117 1A       		.byte	0x1a
 1211 0118 2B010000 		.4byte	0x12b
 1212 011c 00       		.byte	0
 1213 011d 01       		.uleb128 0x1
 1214 011e 75040000 		.4byte	.LASF23
 1215 0122 0A       		.byte	0xa
 1216 0123 47       		.byte	0x47
 1217 0124 1A       		.byte	0x1a
 1218 0125 2B010000 		.4byte	0x12b
 1219 0129 04       		.byte	0x4
 1220 012a 00       		.byte	0
 1221 012b 06       		.uleb128 0x6
 1222 012c F7000000 		.4byte	0xf7
 1223 0130 1D       		.uleb128 0x1d
 1224 0131 04       		.byte	0x4
 1225 0132 09       		.uleb128 0x9
 1226 0133 9D030000 		.4byte	.LASF25
 1227 0137 0C       		.byte	0xc
 1228 0138 04       		.byte	0x4
 1229 0139 34       		.byte	0x34
 1230 013a 10       		.byte	0x10
 1231 013b 59010000 		.4byte	0x159
 1232 013f 01       		.uleb128 0x1
 1233 0140 42040000 		.4byte	.LASF26
 1234 0144 04       		.byte	0x4
 1235 0145 35       		.byte	0x35
 1236 0146 19       		.byte	0x19
 1237 0147 F7000000 		.4byte	0xf7
 1238 014b 00       		.byte	0
 1239 014c 11       		.uleb128 0x11
 1240 014d 636E7400 		.ascii	"cnt\000"
 1241 0151 04       		.byte	0x4
 1242 0152 37       		.byte	0x37
 1243 0153 D3000000 		.4byte	0xd3
 1244 0157 08       		.byte	0x8
 1245 0158 00       		.byte	0
 1246 0159 02       		.uleb128 0x2
 1247 015a CA010000 		.4byte	.LASF27
 1248 015e 04       		.byte	0x4
 1249 015f 38       		.byte	0x38
 1250 0160 03       		.byte	0x3
 1251 0161 32010000 		.4byte	0x132
 1252 0165 05       		.uleb128 0x5
 1253 0166 59010000 		.4byte	0x159
 1254 016a 03       		.uleb128 0x3
ARM GAS  C:\Users\DEVELO~1\AppData\Local\Temp\cc0E6Q26.s 			page 23


 1255 016b 01       		.byte	0x1
 1256 016c 02       		.byte	0x2
 1257 016d 50030000 		.4byte	.LASF28
 1258 0171 02       		.uleb128 0x2
 1259 0172 0D020000 		.4byte	.LASF29
 1260 0176 0B       		.byte	0xb
 1261 0177 44       		.byte	0x44
 1262 0178 12       		.byte	0x12
 1263 0179 BB000000 		.4byte	0xbb
 1264 017d 02       		.uleb128 0x2
 1265 017e 48040000 		.4byte	.LASF30
 1266 0182 0B       		.byte	0xb
 1267 0183 49       		.byte	0x49
 1268 0184 22       		.byte	0x22
 1269 0185 89010000 		.4byte	0x189
 1270 0189 09       		.uleb128 0x9
 1271 018a D2020000 		.4byte	.LASF31
 1272 018e 08       		.byte	0x8
 1273 018f 0B       		.byte	0xb
 1274 0190 75       		.byte	0x75
 1275 0191 08       		.byte	0x8
 1276 0192 B1010000 		.4byte	0x1b1
 1277 0196 01       		.uleb128 0x1
 1278 0197 87030000 		.4byte	.LASF32
 1279 019b 0B       		.byte	0xb
 1280 019c 79       		.byte	0x79
 1281 019d 1A       		.byte	0x1a
 1282 019e 58030000 		.4byte	0x358
 1283 01a2 00       		.byte	0
 1284 01a3 01       		.uleb128 0x1
 1285 01a4 05030000 		.4byte	.LASF33
 1286 01a8 0B       		.byte	0xb
 1287 01a9 7D       		.byte	0x7d
 1288 01aa 1A       		.byte	0x1a
 1289 01ab 58030000 		.4byte	0x358
 1290 01af 04       		.byte	0x4
 1291 01b0 00       		.byte	0
 1292 01b1 02       		.uleb128 0x2
 1293 01b2 BD030000 		.4byte	.LASF34
 1294 01b6 0B       		.byte	0xb
 1295 01b7 4E       		.byte	0x4e
 1296 01b8 21       		.byte	0x21
 1297 01b9 BD010000 		.4byte	0x1bd
 1298 01bd 09       		.uleb128 0x9
 1299 01be 44020000 		.4byte	.LASF35
 1300 01c2 10       		.byte	0x10
 1301 01c3 0B       		.byte	0xb
 1302 01c4 83       		.byte	0x83
 1303 01c5 08       		.byte	0x8
 1304 01c6 FF010000 		.4byte	0x1ff
 1305 01ca 01       		.uleb128 0x1
 1306 01cb 87030000 		.4byte	.LASF32
 1307 01cf 0B       		.byte	0xb
 1308 01d0 87       		.byte	0x87
 1309 01d1 1A       		.byte	0x1a
 1310 01d2 58030000 		.4byte	0x358
 1311 01d6 00       		.byte	0
ARM GAS  C:\Users\DEVELO~1\AppData\Local\Temp\cc0E6Q26.s 			page 24


 1312 01d7 01       		.uleb128 0x1
 1313 01d8 05030000 		.4byte	.LASF33
 1314 01dc 0B       		.byte	0xb
 1315 01dd 8B       		.byte	0x8b
 1316 01de 1A       		.byte	0x1a
 1317 01df 58030000 		.4byte	0x358
 1318 01e3 04       		.byte	0x4
 1319 01e4 01       		.uleb128 0x1
 1320 01e5 AA030000 		.4byte	.LASF36
 1321 01e9 0B       		.byte	0xb
 1322 01ea 8F       		.byte	0x8f
 1323 01eb 1A       		.byte	0x1a
 1324 01ec 58030000 		.4byte	0x358
 1325 01f0 08       		.byte	0x8
 1326 01f1 01       		.uleb128 0x1
 1327 01f2 6C040000 		.4byte	.LASF37
 1328 01f6 0B       		.byte	0xb
 1329 01f7 93       		.byte	0x93
 1330 01f8 1A       		.byte	0x1a
 1331 01f9 58030000 		.4byte	0x358
 1332 01fd 0C       		.byte	0xc
 1333 01fe 00       		.byte	0
 1334 01ff 02       		.uleb128 0x2
 1335 0200 34010000 		.4byte	.LASF38
 1336 0204 0B       		.byte	0xb
 1337 0205 53       		.byte	0x53
 1338 0206 1D       		.byte	0x1d
 1339 0207 0B020000 		.4byte	0x20b
 1340 020b 09       		.uleb128 0x9
 1341 020c D7000000 		.4byte	.LASF39
 1342 0210 2C       		.byte	0x2c
 1343 0211 0B       		.byte	0xb
 1344 0212 99       		.byte	0x99
 1345 0213 08       		.byte	0x8
 1346 0214 8E020000 		.4byte	0x28e
 1347 0218 01       		.uleb128 0x1
 1348 0219 87030000 		.4byte	.LASF32
 1349 021d 0B       		.byte	0xb
 1350 021e 9D       		.byte	0x9d
 1351 021f 1A       		.byte	0x1a
 1352 0220 58030000 		.4byte	0x358
 1353 0224 00       		.byte	0
 1354 0225 01       		.uleb128 0x1
 1355 0226 05030000 		.4byte	.LASF33
 1356 022a 0B       		.byte	0xb
 1357 022b A1       		.byte	0xa1
 1358 022c 1A       		.byte	0x1a
 1359 022d 58030000 		.4byte	0x358
 1360 0231 04       		.byte	0x4
 1361 0232 01       		.uleb128 0x1
 1362 0233 AA030000 		.4byte	.LASF36
 1363 0237 0B       		.byte	0xb
 1364 0238 A5       		.byte	0xa5
 1365 0239 1A       		.byte	0x1a
 1366 023a 58030000 		.4byte	0x358
 1367 023e 08       		.byte	0x8
 1368 023f 01       		.uleb128 0x1
ARM GAS  C:\Users\DEVELO~1\AppData\Local\Temp\cc0E6Q26.s 			page 25


 1369 0240 6C040000 		.4byte	.LASF37
 1370 0244 0B       		.byte	0xb
 1371 0245 A9       		.byte	0xa9
 1372 0246 1A       		.byte	0x1a
 1373 0247 58030000 		.4byte	0x358
 1374 024b 0C       		.byte	0xc
 1375 024c 01       		.uleb128 0x1
 1376 024d 05010000 		.4byte	.LASF40
 1377 0251 0B       		.byte	0xb
 1378 0252 AD       		.byte	0xad
 1379 0253 19       		.byte	0x19
 1380 0254 BB000000 		.4byte	0xbb
 1381 0258 10       		.byte	0x10
 1382 0259 01       		.uleb128 0x1
 1383 025a 31020000 		.4byte	.LASF41
 1384 025e 0B       		.byte	0xb
 1385 025f B1       		.byte	0xb1
 1386 0260 19       		.byte	0x19
 1387 0261 BB000000 		.4byte	0xbb
 1388 0265 14       		.byte	0x14
 1389 0266 01       		.uleb128 0x1
 1390 0267 55020000 		.4byte	.LASF42
 1391 026b 0B       		.byte	0xb
 1392 026c B5       		.byte	0xb5
 1393 026d 19       		.byte	0x19
 1394 026e 59010000 		.4byte	0x159
 1395 0272 18       		.byte	0x18
 1396 0273 01       		.uleb128 0x1
 1397 0274 F4000000 		.4byte	.LASF43
 1398 0278 0B       		.byte	0xb
 1399 0279 B9       		.byte	0xb9
 1400 027a 19       		.byte	0x19
 1401 027b 71010000 		.4byte	0x171
 1402 027f 24       		.byte	0x24
 1403 0280 01       		.uleb128 0x1
 1404 0281 67040000 		.4byte	.LASF44
 1405 0285 0B       		.byte	0xb
 1406 0286 BF       		.byte	0xbf
 1407 0287 1A       		.byte	0x1a
 1408 0288 30010000 		.4byte	0x130
 1409 028c 28       		.byte	0x28
 1410 028d 00       		.byte	0
 1411 028e 02       		.uleb128 0x2
 1412 028f C7000000 		.4byte	.LASF45
 1413 0293 0B       		.byte	0xb
 1414 0294 58       		.byte	0x58
 1415 0295 21       		.byte	0x21
 1416 0296 9A020000 		.4byte	0x29a
 1417 029a 09       		.uleb128 0x9
 1418 029b 8C010000 		.4byte	.LASF46
 1419 029f 44       		.byte	0x44
 1420 02a0 0B       		.byte	0xb
 1421 02a1 C5       		.byte	0xc5
 1422 02a2 08       		.byte	0x8
 1423 02a3 29030000 		.4byte	0x329
 1424 02a7 01       		.uleb128 0x1
 1425 02a8 B3020000 		.4byte	.LASF47
ARM GAS  C:\Users\DEVELO~1\AppData\Local\Temp\cc0E6Q26.s 			page 26


 1426 02ac 0B       		.byte	0xb
 1427 02ad C9       		.byte	0xc9
 1428 02ae 19       		.byte	0x19
 1429 02af DF000000 		.4byte	0xdf
 1430 02b3 00       		.byte	0
 1431 02b4 01       		.uleb128 0x1
 1432 02b5 C6020000 		.4byte	.LASF48
 1433 02b9 0B       		.byte	0xb
 1434 02ba CD       		.byte	0xcd
 1435 02bb 1A       		.byte	0x1a
 1436 02bc 69030000 		.4byte	0x369
 1437 02c0 04       		.byte	0x4
 1438 02c1 01       		.uleb128 0x1
 1439 02c2 B3030000 		.4byte	.LASF49
 1440 02c6 0B       		.byte	0xb
 1441 02c7 D1       		.byte	0xd1
 1442 02c8 19       		.byte	0x19
 1443 02c9 DF000000 		.4byte	0xdf
 1444 02cd 08       		.byte	0x8
 1445 02ce 01       		.uleb128 0x1
 1446 02cf D6010000 		.4byte	.LASF50
 1447 02d3 0B       		.byte	0xb
 1448 02d4 D5       		.byte	0xd5
 1449 02d5 19       		.byte	0x19
 1450 02d6 2D000000 		.4byte	0x2d
 1451 02da 0C       		.byte	0xc
 1452 02db 01       		.uleb128 0x1
 1453 02dc 0C000000 		.4byte	.LASF51
 1454 02e0 0B       		.byte	0xb
 1455 02e1 D9       		.byte	0xd9
 1456 02e2 1A       		.byte	0x1a
 1457 02e3 30010000 		.4byte	0x130
 1458 02e7 10       		.byte	0x10
 1459 02e8 11       		.uleb128 0x11
 1460 02e9 6C727500 		.ascii	"lru\000"
 1461 02ed 0B       		.byte	0xb
 1462 02ee DD       		.byte	0xdd
 1463 02ef B1010000 		.4byte	0x1b1
 1464 02f3 14       		.byte	0x14
 1465 02f4 01       		.uleb128 0x1
 1466 02f5 1F030000 		.4byte	.LASF52
 1467 02f9 0B       		.byte	0xb
 1468 02fa E1       		.byte	0xe1
 1469 02fb 19       		.byte	0x19
 1470 02fc 59010000 		.4byte	0x159
 1471 0300 24       		.byte	0x24
 1472 0301 01       		.uleb128 0x1
 1473 0302 12000000 		.4byte	.LASF53
 1474 0306 0B       		.byte	0xb
 1475 0307 E5       		.byte	0xe5
 1476 0308 19       		.byte	0x19
 1477 0309 59010000 		.4byte	0x159
 1478 030d 30       		.byte	0x30
 1479 030e 01       		.uleb128 0x1
 1480 030f CC020000 		.4byte	.LASF54
 1481 0313 0B       		.byte	0xb
 1482 0314 E9       		.byte	0xe9
ARM GAS  C:\Users\DEVELO~1\AppData\Local\Temp\cc0E6Q26.s 			page 27


 1483 0315 19       		.byte	0x19
 1484 0316 29030000 		.4byte	0x329
 1485 031a 3C       		.byte	0x3c
 1486 031b 01       		.uleb128 0x1
 1487 031c FE000000 		.4byte	.LASF55
 1488 0320 0B       		.byte	0xb
 1489 0321 ED       		.byte	0xed
 1490 0322 19       		.byte	0x19
 1491 0323 5D030000 		.4byte	0x35d
 1492 0327 40       		.byte	0x40
 1493 0328 00       		.byte	0
 1494 0329 02       		.uleb128 0x2
 1495 032a 0F030000 		.4byte	.LASF56
 1496 032e 0B       		.byte	0xb
 1497 032f 62       		.byte	0x62
 1498 0330 10       		.byte	0x10
 1499 0331 35030000 		.4byte	0x335
 1500 0335 06       		.uleb128 0x6
 1501 0336 3A030000 		.4byte	0x33a
 1502 033a 1E       		.uleb128 0x1e
 1503 033b 6A010000 		.4byte	0x16a
 1504 033f 53030000 		.4byte	0x353
 1505 0343 07       		.uleb128 0x7
 1506 0344 53030000 		.4byte	0x353
 1507 0348 07       		.uleb128 0x7
 1508 0349 58030000 		.4byte	0x358
 1509 034d 07       		.uleb128 0x7
 1510 034e 6A010000 		.4byte	0x16a
 1511 0352 00       		.byte	0
 1512 0353 06       		.uleb128 0x6
 1513 0354 8E020000 		.4byte	0x28e
 1514 0358 06       		.uleb128 0x6
 1515 0359 FF010000 		.4byte	0x1ff
 1516 035d 02       		.uleb128 0x2
 1517 035e 00000000 		.4byte	.LASF57
 1518 0362 0B       		.byte	0xb
 1519 0363 6E       		.byte	0x6e
 1520 0364 10       		.byte	0x10
 1521 0365 35030000 		.4byte	0x335
 1522 0369 06       		.uleb128 0x6
 1523 036a 7D010000 		.4byte	0x17d
 1524 036e 12       		.uleb128 0x12
 1525 036f 35040000 		.4byte	.LASF58
 1526 0373 63       		.byte	0x63
 1527 0374 7E030000 		.4byte	0x37e
 1528 0378 07       		.uleb128 0x7
 1529 0379 7E030000 		.4byte	0x37e
 1530 037d 00       		.byte	0
 1531 037e 06       		.uleb128 0x6
 1532 037f 59010000 		.4byte	0x159
 1533 0383 12       		.uleb128 0x12
 1534 0384 E4000000 		.4byte	.LASF59
 1535 0388 5B       		.byte	0x5b
 1536 0389 98030000 		.4byte	0x398
 1537 038d 07       		.uleb128 0x7
 1538 038e 7E030000 		.4byte	0x37e
 1539 0392 07       		.uleb128 0x7
ARM GAS  C:\Users\DEVELO~1\AppData\Local\Temp\cc0E6Q26.s 			page 28


 1540 0393 D3000000 		.4byte	0xd3
 1541 0397 00       		.byte	0
 1542 0398 1F       		.uleb128 0x1f
 1543 0399 A8020000 		.4byte	.LASF81
 1544 039d 04       		.byte	0x4
 1545 039e 5F       		.byte	0x5f
 1546 039f 09       		.byte	0x9
 1547 03a0 C7000000 		.4byte	0xc7
 1548 03a4 AE030000 		.4byte	0x3ae
 1549 03a8 07       		.uleb128 0x7
 1550 03a9 7E030000 		.4byte	0x37e
 1551 03ad 00       		.byte	0
 1552 03ae 10       		.uleb128 0x10
 1553 03af 74030000 		.4byte	.LASF62
 1554 03b3 DD01     		.2byte	0x1dd
 1555 03b5 06       		.byte	0x6
 1556 03b6 6A010000 		.4byte	0x16a
 1557 03ba 00000000 		.4byte	.LFB352
 1558 03be 30000000 		.4byte	.LFE352-.LFB352
 1559 03c2 01       		.uleb128 0x1
 1560 03c3 9C       		.byte	0x9c
 1561 03c4 F6030000 		.4byte	0x3f6
 1562 03c8 0B       		.uleb128 0xb
 1563 03c9 6F637000 		.ascii	"ocp\000"
 1564 03cd DD01     		.2byte	0x1dd
 1565 03cf 2A       		.byte	0x2a
 1566 03d0 53030000 		.4byte	0x353
 1567 03d4 02       		.uleb128 0x2
 1568 03d5 91       		.byte	0x91
 1569 03d6 74       		.sleb128 -12
 1570 03d7 0A       		.uleb128 0xa
 1571 03d8 B8030000 		.4byte	.LASF60
 1572 03dc DE01     		.2byte	0x1de
 1573 03de 26       		.byte	0x26
 1574 03df 58030000 		.4byte	0x358
 1575 03e3 02       		.uleb128 0x2
 1576 03e4 91       		.byte	0x91
 1577 03e5 70       		.sleb128 -16
 1578 03e6 0A       		.uleb128 0xa
 1579 03e7 FF020000 		.4byte	.LASF61
 1580 03eb DF01     		.2byte	0x1df
 1581 03ed 1E       		.byte	0x1e
 1582 03ee 6A010000 		.4byte	0x16a
 1583 03f2 02       		.uleb128 0x2
 1584 03f3 91       		.byte	0x91
 1585 03f4 6F       		.sleb128 -17
 1586 03f5 00       		.byte	0
 1587 03f6 10       		.uleb128 0x10
 1588 03f7 3E030000 		.4byte	.LASF63
 1589 03fb C001     		.2byte	0x1c0
 1590 03fd 06       		.byte	0x6
 1591 03fe 6A010000 		.4byte	0x16a
 1592 0402 00000000 		.4byte	.LFB351
 1593 0406 30000000 		.4byte	.LFE351-.LFB351
 1594 040a 01       		.uleb128 0x1
 1595 040b 9C       		.byte	0x9c
 1596 040c 3E040000 		.4byte	0x43e
ARM GAS  C:\Users\DEVELO~1\AppData\Local\Temp\cc0E6Q26.s 			page 29


 1597 0410 0B       		.uleb128 0xb
 1598 0411 6F637000 		.ascii	"ocp\000"
 1599 0415 C001     		.2byte	0x1c0
 1600 0417 29       		.byte	0x29
 1601 0418 53030000 		.4byte	0x353
 1602 041c 02       		.uleb128 0x2
 1603 041d 91       		.byte	0x91
 1604 041e 74       		.sleb128 -12
 1605 041f 0A       		.uleb128 0xa
 1606 0420 B8030000 		.4byte	.LASF60
 1607 0424 C101     		.2byte	0x1c1
 1608 0426 25       		.byte	0x25
 1609 0427 58030000 		.4byte	0x358
 1610 042b 02       		.uleb128 0x2
 1611 042c 91       		.byte	0x91
 1612 042d 70       		.sleb128 -16
 1613 042e 0A       		.uleb128 0xa
 1614 042f FF020000 		.4byte	.LASF61
 1615 0433 C201     		.2byte	0x1c2
 1616 0435 1D       		.byte	0x1d
 1617 0436 6A010000 		.4byte	0x16a
 1618 043a 02       		.uleb128 0x2
 1619 043b 91       		.byte	0x91
 1620 043c 6F       		.sleb128 -17
 1621 043d 00       		.byte	0
 1622 043e 20       		.uleb128 0x20
 1623 043f 40010000 		.4byte	.LASF67
 1624 0443 05       		.byte	0x5
 1625 0444 7A01     		.2byte	0x17a
 1626 0446 06       		.byte	0x6
 1627 0447 00000000 		.4byte	.LFB350
 1628 044b 06010000 		.4byte	.LFE350-.LFB350
 1629 044f 01       		.uleb128 0x1
 1630 0450 9C       		.byte	0x9c
 1631 0451 7D040000 		.4byte	0x47d
 1632 0455 0B       		.uleb128 0xb
 1633 0456 6F637000 		.ascii	"ocp\000"
 1634 045a 7A01     		.2byte	0x17a
 1635 045c 2D       		.byte	0x2d
 1636 045d 53030000 		.4byte	0x353
 1637 0461 02       		.uleb128 0x2
 1638 0462 91       		.byte	0x91
 1639 0463 74       		.sleb128 -12
 1640 0464 0A       		.uleb128 0xa
 1641 0465 B8030000 		.4byte	.LASF60
 1642 0469 7B01     		.2byte	0x17b
 1643 046b 29       		.byte	0x29
 1644 046c 58030000 		.4byte	0x358
 1645 0470 02       		.uleb128 0x2
 1646 0471 91       		.byte	0x91
 1647 0472 70       		.sleb128 -16
 1648 0473 0C       		.uleb128 0xc
 1649 0474 7A020000 		.4byte	.LASF66
 1650 0478 8D040000 		.4byte	0x48d
 1651 047c 00       		.byte	0
 1652 047d 0D       		.uleb128 0xd
 1653 047e F2000000 		.4byte	0xf2
ARM GAS  C:\Users\DEVELO~1\AppData\Local\Temp\cc0E6Q26.s 			page 30


 1654 0482 8D040000 		.4byte	0x48d
 1655 0486 0E       		.uleb128 0xe
 1656 0487 39000000 		.4byte	0x39
 1657 048b 15       		.byte	0x15
 1658 048c 00       		.byte	0
 1659 048d 05       		.uleb128 0x5
 1660 048e 7D040000 		.4byte	0x47d
 1661 0492 10       		.uleb128 0x10
 1662 0493 A5010000 		.4byte	.LASF64
 1663 0497 2F01     		.2byte	0x12f
 1664 0499 0E       		.byte	0xe
 1665 049a 58030000 		.4byte	0x358
 1666 049e 00000000 		.4byte	.LFB349
 1667 04a2 C6000000 		.4byte	.LFE349-.LFB349
 1668 04a6 01       		.uleb128 0x1
 1669 04a7 9C       		.byte	0x9c
 1670 04a8 0C050000 		.4byte	0x50c
 1671 04ac 0B       		.uleb128 0xb
 1672 04ad 6F637000 		.ascii	"ocp\000"
 1673 04b1 2F01     		.2byte	0x12f
 1674 04b3 30       		.byte	0x30
 1675 04b4 53030000 		.4byte	0x353
 1676 04b8 02       		.uleb128 0x2
 1677 04b9 91       		.byte	0x91
 1678 04ba 6C       		.sleb128 -20
 1679 04bb 0A       		.uleb128 0xa
 1680 04bc 2B020000 		.4byte	.LASF65
 1681 04c0 3001     		.2byte	0x130
 1682 04c2 28       		.byte	0x28
 1683 04c3 BB000000 		.4byte	0xbb
 1684 04c7 02       		.uleb128 0x2
 1685 04c8 91       		.byte	0x91
 1686 04c9 68       		.sleb128 -24
 1687 04ca 0B       		.uleb128 0xb
 1688 04cb 6B657900 		.ascii	"key\000"
 1689 04cf 3101     		.2byte	0x131
 1690 04d1 28       		.byte	0x28
 1691 04d2 BB000000 		.4byte	0xbb
 1692 04d6 02       		.uleb128 0x2
 1693 04d7 91       		.byte	0x91
 1694 04d8 64       		.sleb128 -28
 1695 04d9 13       		.uleb128 0x13
 1696 04da B8030000 		.4byte	.LASF60
 1697 04de 3201     		.2byte	0x132
 1698 04e0 10       		.byte	0x10
 1699 04e1 58030000 		.4byte	0x358
 1700 04e5 02       		.uleb128 0x2
 1701 04e6 91       		.byte	0x91
 1702 04e7 74       		.sleb128 -12
 1703 04e8 0C       		.uleb128 0xc
 1704 04e9 7A020000 		.4byte	.LASF66
 1705 04ed 1C050000 		.4byte	0x51c
 1706 04f1 14       		.uleb128 0x14
 1707 04f2 84000000 		.4byte	.LBB23
 1708 04f6 34000000 		.4byte	.LBE23-.LBB23
 1709 04fa 21       		.uleb128 0x21
 1710 04fb 68687000 		.ascii	"hhp\000"
ARM GAS  C:\Users\DEVELO~1\AppData\Local\Temp\cc0E6Q26.s 			page 31


 1711 04ff 05       		.byte	0x5
 1712 0500 6001     		.2byte	0x160
 1713 0502 05       		.byte	0x5
 1714 0503 69030000 		.4byte	0x369
 1715 0507 02       		.uleb128 0x2
 1716 0508 91       		.byte	0x91
 1717 0509 70       		.sleb128 -16
 1718 050a 00       		.byte	0
 1719 050b 00       		.byte	0
 1720 050c 0D       		.uleb128 0xd
 1721 050d F2000000 		.4byte	0xf2
 1722 0511 1C050000 		.4byte	0x51c
 1723 0515 0E       		.uleb128 0xe
 1724 0516 39000000 		.4byte	0x39
 1725 051a 10       		.byte	0x10
 1726 051b 00       		.byte	0
 1727 051c 05       		.uleb128 0x5
 1728 051d 0C050000 		.4byte	0x50c
 1729 0521 22       		.uleb128 0x22
 1730 0522 56010000 		.4byte	.LASF68
 1731 0526 05       		.byte	0x5
 1732 0527 F0       		.byte	0xf0
 1733 0528 06       		.byte	0x6
 1734 0529 00000000 		.4byte	.LFB348
 1735 052d F6000000 		.4byte	.LFE348-.LFB348
 1736 0531 01       		.uleb128 0x1
 1737 0532 9C       		.byte	0x9c
 1738 0533 CB050000 		.4byte	0x5cb
 1739 0537 08       		.uleb128 0x8
 1740 0538 6F637000 		.ascii	"ocp\000"
 1741 053c 05       		.byte	0x5
 1742 053d F0       		.byte	0xf0
 1743 053e 29       		.byte	0x29
 1744 053f 53030000 		.4byte	0x353
 1745 0543 02       		.uleb128 0x2
 1746 0544 91       		.byte	0x91
 1747 0545 6C       		.sleb128 -20
 1748 0546 04       		.uleb128 0x4
 1749 0547 B3020000 		.4byte	.LASF47
 1750 054b F1       		.byte	0xf1
 1751 054c 1F       		.byte	0x1f
 1752 054d DF000000 		.4byte	0xdf
 1753 0551 02       		.uleb128 0x2
 1754 0552 91       		.byte	0x91
 1755 0553 68       		.sleb128 -24
 1756 0554 04       		.uleb128 0x4
 1757 0555 C6020000 		.4byte	.LASF48
 1758 0559 F2       		.byte	0xf2
 1759 055a 2A       		.byte	0x2a
 1760 055b 69030000 		.4byte	0x369
 1761 055f 02       		.uleb128 0x2
 1762 0560 91       		.byte	0x91
 1763 0561 64       		.sleb128 -28
 1764 0562 04       		.uleb128 0x4
 1765 0563 B3030000 		.4byte	.LASF49
 1766 0567 F3       		.byte	0xf3
 1767 0568 1F       		.byte	0x1f
ARM GAS  C:\Users\DEVELO~1\AppData\Local\Temp\cc0E6Q26.s 			page 32


 1768 0569 DF000000 		.4byte	0xdf
 1769 056d 02       		.uleb128 0x2
 1770 056e 91       		.byte	0x91
 1771 056f 60       		.sleb128 -32
 1772 0570 04       		.uleb128 0x4
 1773 0571 D6010000 		.4byte	.LASF50
 1774 0575 F4       		.byte	0xf4
 1775 0576 1F       		.byte	0x1f
 1776 0577 2D000000 		.4byte	0x2d
 1777 057b 02       		.uleb128 0x2
 1778 057c 91       		.byte	0x91
 1779 057d 00       		.sleb128 0
 1780 057e 04       		.uleb128 0x4
 1781 057f 0C000000 		.4byte	.LASF51
 1782 0583 F5       		.byte	0xf5
 1783 0584 1E       		.byte	0x1e
 1784 0585 30010000 		.4byte	0x130
 1785 0589 02       		.uleb128 0x2
 1786 058a 91       		.byte	0x91
 1787 058b 04       		.sleb128 4
 1788 058c 04       		.uleb128 0x4
 1789 058d CC020000 		.4byte	.LASF54
 1790 0591 F6       		.byte	0xf6
 1791 0592 23       		.byte	0x23
 1792 0593 29030000 		.4byte	0x329
 1793 0597 02       		.uleb128 0x2
 1794 0598 91       		.byte	0x91
 1795 0599 08       		.sleb128 8
 1796 059a 04       		.uleb128 0x4
 1797 059b FE000000 		.4byte	.LASF55
 1798 059f F7       		.byte	0xf7
 1799 05a0 24       		.byte	0x24
 1800 05a1 5D030000 		.4byte	0x35d
 1801 05a5 02       		.uleb128 0x2
 1802 05a6 91       		.byte	0x91
 1803 05a7 0C       		.sleb128 12
 1804 05a8 0C       		.uleb128 0xc
 1805 05a9 7A020000 		.4byte	.LASF66
 1806 05ad DB050000 		.4byte	0x5db
 1807 05b1 14       		.uleb128 0x14
 1808 05b2 90000000 		.4byte	.LBB22
 1809 05b6 56000000 		.4byte	.LBE22-.LBB22
 1810 05ba 13       		.uleb128 0x13
 1811 05bb B8030000 		.4byte	.LASF60
 1812 05bf 1501     		.2byte	0x115
 1813 05c1 12       		.byte	0x12
 1814 05c2 58030000 		.4byte	0x358
 1815 05c6 02       		.uleb128 0x2
 1816 05c7 91       		.byte	0x91
 1817 05c8 74       		.sleb128 -12
 1818 05c9 00       		.byte	0
 1819 05ca 00       		.byte	0
 1820 05cb 0D       		.uleb128 0xd
 1821 05cc F2000000 		.4byte	0xf2
 1822 05d0 DB050000 		.4byte	0x5db
 1823 05d4 0E       		.uleb128 0xe
 1824 05d5 39000000 		.4byte	0x39
ARM GAS  C:\Users\DEVELO~1\AppData\Local\Temp\cc0E6Q26.s 			page 33


 1825 05d9 11       		.byte	0x11
 1826 05da 00       		.byte	0
 1827 05db 05       		.uleb128 0x5
 1828 05dc CB050000 		.4byte	0x5cb
 1829 05e0 23       		.uleb128 0x23
 1830 05e1 6B020000 		.4byte	.LASF69
 1831 05e5 05       		.byte	0x5
 1832 05e6 A5       		.byte	0xa5
 1833 05e7 15       		.byte	0x15
 1834 05e8 58030000 		.4byte	0x358
 1835 05ec 00000000 		.4byte	.LFB347
 1836 05f0 9C000000 		.4byte	.LFE347-.LFB347
 1837 05f4 01       		.uleb128 0x1
 1838 05f5 9C       		.byte	0x9c
 1839 05f6 20060000 		.4byte	0x620
 1840 05fa 08       		.uleb128 0x8
 1841 05fb 6F637000 		.ascii	"ocp\000"
 1842 05ff 05       		.byte	0x5
 1843 0600 A5       		.byte	0xa5
 1844 0601 35       		.byte	0x35
 1845 0602 53030000 		.4byte	0x353
 1846 0606 02       		.uleb128 0x2
 1847 0607 91       		.byte	0x91
 1848 0608 6C       		.sleb128 -20
 1849 0609 15       		.uleb128 0x15
 1850 060a B8030000 		.4byte	.LASF60
 1851 060e A6       		.byte	0xa6
 1852 060f 58030000 		.4byte	0x358
 1853 0613 02       		.uleb128 0x2
 1854 0614 91       		.byte	0x91
 1855 0615 74       		.sleb128 -12
 1856 0616 0C       		.uleb128 0xc
 1857 0617 7A020000 		.4byte	.LASF66
 1858 061b 30060000 		.4byte	0x630
 1859 061f 00       		.byte	0
 1860 0620 0D       		.uleb128 0xd
 1861 0621 F2000000 		.4byte	0xf2
 1862 0625 30060000 		.4byte	0x630
 1863 0629 0E       		.uleb128 0xe
 1864 062a 39000000 		.4byte	0x39
 1865 062e 0E       		.byte	0xe
 1866 062f 00       		.byte	0
 1867 0630 05       		.uleb128 0x5
 1868 0631 20060000 		.4byte	0x620
 1869 0635 16       		.uleb128 0x16
 1870 0636 80040000 		.4byte	.LASF70
 1871 063a 05       		.byte	0x5
 1872 063b 86       		.byte	0x86
 1873 063c 58030000 		.4byte	0x358
 1874 0640 00000000 		.4byte	.LFB346
 1875 0644 5E000000 		.4byte	.LFE346-.LFB346
 1876 0648 01       		.uleb128 0x1
 1877 0649 9C       		.byte	0x9c
 1878 064a 97060000 		.4byte	0x697
 1879 064e 08       		.uleb128 0x8
 1880 064f 6F637000 		.ascii	"ocp\000"
 1881 0653 05       		.byte	0x5
ARM GAS  C:\Users\DEVELO~1\AppData\Local\Temp\cc0E6Q26.s 			page 34


 1882 0654 86       		.byte	0x86
 1883 0655 31       		.byte	0x31
 1884 0656 53030000 		.4byte	0x353
 1885 065a 02       		.uleb128 0x2
 1886 065b 91       		.byte	0x91
 1887 065c 6C       		.sleb128 -20
 1888 065d 04       		.uleb128 0x4
 1889 065e 2B020000 		.4byte	.LASF65
 1890 0662 87       		.byte	0x87
 1891 0663 29       		.byte	0x29
 1892 0664 BB000000 		.4byte	0xbb
 1893 0668 02       		.uleb128 0x2
 1894 0669 91       		.byte	0x91
 1895 066a 68       		.sleb128 -24
 1896 066b 08       		.uleb128 0x8
 1897 066c 6B657900 		.ascii	"key\000"
 1898 0670 05       		.byte	0x5
 1899 0671 88       		.byte	0x88
 1900 0672 29       		.byte	0x29
 1901 0673 BB000000 		.4byte	0xbb
 1902 0677 02       		.uleb128 0x2
 1903 0678 91       		.byte	0x91
 1904 0679 64       		.sleb128 -28
 1905 067a 24       		.uleb128 0x24
 1906 067b 68687000 		.ascii	"hhp\000"
 1907 067f 05       		.byte	0x5
 1908 0680 89       		.byte	0x89
 1909 0681 15       		.byte	0x15
 1910 0682 69030000 		.4byte	0x369
 1911 0686 02       		.uleb128 0x2
 1912 0687 91       		.byte	0x91
 1913 0688 70       		.sleb128 -16
 1914 0689 15       		.uleb128 0x15
 1915 068a B8030000 		.4byte	.LASF60
 1916 068e 8A       		.byte	0x8a
 1917 068f 58030000 		.4byte	0x358
 1918 0693 02       		.uleb128 0x2
 1919 0694 91       		.byte	0x91
 1920 0695 74       		.sleb128 -12
 1921 0696 00       		.byte	0
 1922 0697 16       		.uleb128 0x16
 1923 0698 B6000000 		.4byte	.LASF71
 1924 069c 04       		.byte	0x4
 1925 069d BD       		.byte	0xbd
 1926 069e D3000000 		.4byte	0xd3
 1927 06a2 00000000 		.4byte	.LFB247
 1928 06a6 16000000 		.4byte	.LFE247-.LFB247
 1929 06aa 01       		.uleb128 0x1
 1930 06ab 9C       		.byte	0x9c
 1931 06ac BF060000 		.4byte	0x6bf
 1932 06b0 08       		.uleb128 0x8
 1933 06b1 737000   		.ascii	"sp\000"
 1934 06b4 04       		.byte	0x4
 1935 06b5 BD       		.byte	0xbd
 1936 06b6 39       		.byte	0x39
 1937 06b7 BF060000 		.4byte	0x6bf
 1938 06bb 02       		.uleb128 0x2
ARM GAS  C:\Users\DEVELO~1\AppData\Local\Temp\cc0E6Q26.s 			page 35


 1939 06bc 91       		.byte	0x91
 1940 06bd 74       		.sleb128 -12
 1941 06be 00       		.byte	0
 1942 06bf 06       		.uleb128 0x6
 1943 06c0 65010000 		.4byte	0x165
 1944 06c4 17       		.uleb128 0x17
 1945 06c5 0F010000 		.4byte	.LASF72
 1946 06c9 AE       		.byte	0xae
 1947 06ca 00000000 		.4byte	.LFB246
 1948 06ce 1C000000 		.4byte	.LFE246-.LFB246
 1949 06d2 01       		.uleb128 0x1
 1950 06d3 9C       		.byte	0x9c
 1951 06d4 E7060000 		.4byte	0x6e7
 1952 06d8 08       		.uleb128 0x8
 1953 06d9 737000   		.ascii	"sp\000"
 1954 06dc 04       		.byte	0x4
 1955 06dd AE       		.byte	0xae
 1956 06de 32       		.byte	0x32
 1957 06df 7E030000 		.4byte	0x37e
 1958 06e3 02       		.uleb128 0x2
 1959 06e4 91       		.byte	0x91
 1960 06e5 74       		.sleb128 -12
 1961 06e6 00       		.byte	0
 1962 06e7 17       		.uleb128 0x17
 1963 06e8 83020000 		.4byte	.LASF73
 1964 06ec 9E       		.byte	0x9e
 1965 06ed 00000000 		.4byte	.LFB245
 1966 06f1 1C000000 		.4byte	.LFE245-.LFB245
 1967 06f5 01       		.uleb128 0x1
 1968 06f6 9C       		.byte	0x9c
 1969 06f7 0A070000 		.4byte	0x70a
 1970 06fb 08       		.uleb128 0x8
 1971 06fc 737000   		.ascii	"sp\000"
 1972 06ff 04       		.byte	0x4
 1973 0700 9E       		.byte	0x9e
 1974 0701 30       		.byte	0x30
 1975 0702 7E030000 		.4byte	0x37e
 1976 0706 02       		.uleb128 0x2
 1977 0707 91       		.byte	0x91
 1978 0708 74       		.sleb128 -12
 1979 0709 00       		.byte	0
 1980 070a 18       		.uleb128 0x18
 1981 070b 91030000 		.4byte	.LASF74
 1982 070f A501     		.2byte	0x1a5
 1983 0711 00000000 		.4byte	.LFB203
 1984 0715 1E000000 		.4byte	.LFE203-.LFB203
 1985 0719 01       		.uleb128 0x1
 1986 071a 9C       		.byte	0x9c
 1987 071b 53070000 		.4byte	0x753
 1988 071f 0C       		.uleb128 0xc
 1989 0720 7A020000 		.4byte	.LASF66
 1990 0724 63070000 		.4byte	0x763
 1991 0728 0F       		.uleb128 0xf
 1992 0729 A8070000 		.4byte	0x7a8
 1993 072d 0A000000 		.4byte	.LBB18
 1994 0731 0A000000 		.4byte	.LBE18-.LBB18
 1995 0735 01       		.byte	0x1
ARM GAS  C:\Users\DEVELO~1\AppData\Local\Temp\cc0E6Q26.s 			page 36


 1996 0736 B201     		.2byte	0x1b2
 1997 0738 0F       		.uleb128 0xf
 1998 0739 B6070000 		.4byte	0x7b6
 1999 073d 0A000000 		.4byte	.LBB20
 2000 0741 08000000 		.4byte	.LBE20-.LBB20
 2001 0745 03       		.byte	0x3
 2002 0746 5203     		.2byte	0x352
 2003 0748 19       		.uleb128 0x19
 2004 0749 C0070000 		.4byte	0x7c0
 2005 074d 02       		.uleb128 0x2
 2006 074e 91       		.byte	0x91
 2007 074f 74       		.sleb128 -12
 2008 0750 00       		.byte	0
 2009 0751 00       		.byte	0
 2010 0752 00       		.byte	0
 2011 0753 0D       		.uleb128 0xd
 2012 0754 F2000000 		.4byte	0xf2
 2013 0758 63070000 		.4byte	0x763
 2014 075c 0E       		.uleb128 0xe
 2015 075d 39000000 		.4byte	0x39
 2016 0761 0B       		.byte	0xb
 2017 0762 00       		.byte	0
 2018 0763 05       		.uleb128 0x5
 2019 0764 53070000 		.4byte	0x753
 2020 0768 18       		.uleb128 0x18
 2021 0769 2A010000 		.4byte	.LASF75
 2022 076d 9701     		.2byte	0x197
 2023 076f 00000000 		.4byte	.LFB202
 2024 0773 1E000000 		.4byte	.LFE202-.LFB202
 2025 0777 01       		.uleb128 0x1
 2026 0778 9C       		.byte	0x9c
 2027 0779 A8070000 		.4byte	0x7a8
 2028 077d 0F       		.uleb128 0xf
 2029 077e AF070000 		.4byte	0x7af
 2030 0782 0A000000 		.4byte	.LBB14
 2031 0786 0A000000 		.4byte	.LBE14-.LBB14
 2032 078a 01       		.byte	0x1
 2033 078b 9901     		.2byte	0x199
 2034 078d 0F       		.uleb128 0xf
 2035 078e B6070000 		.4byte	0x7b6
 2036 0792 0A000000 		.4byte	.LBB16
 2037 0796 08000000 		.4byte	.LBE16-.LBB16
 2038 079a 03       		.byte	0x3
 2039 079b 3F03     		.2byte	0x33f
 2040 079d 19       		.uleb128 0x19
 2041 079e C0070000 		.4byte	0x7c0
 2042 07a2 02       		.uleb128 0x2
 2043 07a3 91       		.byte	0x91
 2044 07a4 74       		.sleb128 -12
 2045 07a5 00       		.byte	0
 2046 07a6 00       		.byte	0
 2047 07a7 00       		.byte	0
 2048 07a8 1A       		.uleb128 0x1a
 2049 07a9 56030000 		.4byte	.LASF76
 2050 07ad 4F03     		.2byte	0x34f
 2051 07af 1A       		.uleb128 0x1a
 2052 07b0 20010000 		.4byte	.LASF77
ARM GAS  C:\Users\DEVELO~1\AppData\Local\Temp\cc0E6Q26.s 			page 37


 2053 07b4 3703     		.2byte	0x337
 2054 07b6 25       		.uleb128 0x25
 2055 07b7 59040000 		.4byte	.LASF82
 2056 07bb 02       		.byte	0x2
 2057 07bc EB01     		.2byte	0x1eb
 2058 07be 1B       		.byte	0x1b
 2059 07bf 03       		.byte	0x3
 2060 07c0 26       		.uleb128 0x26
 2061 07c1 F7020000 		.4byte	.LASF83
 2062 07c5 02       		.byte	0x2
 2063 07c6 EB01     		.2byte	0x1eb
 2064 07c8 32       		.byte	0x32
 2065 07c9 BB000000 		.4byte	0xbb
 2066 07cd 00       		.byte	0
 2067 07ce 00       		.byte	0
 2068              		.section	.debug_abbrev,"",%progbits
 2069              	.Ldebug_abbrev0:
 2070 0000 01       		.uleb128 0x1
 2071 0001 0D       		.uleb128 0xd
 2072 0002 00       		.byte	0
 2073 0003 03       		.uleb128 0x3
 2074 0004 0E       		.uleb128 0xe
 2075 0005 3A       		.uleb128 0x3a
 2076 0006 0B       		.uleb128 0xb
 2077 0007 3B       		.uleb128 0x3b
 2078 0008 0B       		.uleb128 0xb
 2079 0009 39       		.uleb128 0x39
 2080 000a 0B       		.uleb128 0xb
 2081 000b 49       		.uleb128 0x49
 2082 000c 13       		.uleb128 0x13
 2083 000d 38       		.uleb128 0x38
 2084 000e 0B       		.uleb128 0xb
 2085 000f 00       		.byte	0
 2086 0010 00       		.byte	0
 2087 0011 02       		.uleb128 0x2
 2088 0012 16       		.uleb128 0x16
 2089 0013 00       		.byte	0
 2090 0014 03       		.uleb128 0x3
 2091 0015 0E       		.uleb128 0xe
 2092 0016 3A       		.uleb128 0x3a
 2093 0017 0B       		.uleb128 0xb
 2094 0018 3B       		.uleb128 0x3b
 2095 0019 0B       		.uleb128 0xb
 2096 001a 39       		.uleb128 0x39
 2097 001b 0B       		.uleb128 0xb
 2098 001c 49       		.uleb128 0x49
 2099 001d 13       		.uleb128 0x13
 2100 001e 00       		.byte	0
 2101 001f 00       		.byte	0
 2102 0020 03       		.uleb128 0x3
 2103 0021 24       		.uleb128 0x24
 2104 0022 00       		.byte	0
 2105 0023 0B       		.uleb128 0xb
 2106 0024 0B       		.uleb128 0xb
 2107 0025 3E       		.uleb128 0x3e
 2108 0026 0B       		.uleb128 0xb
 2109 0027 03       		.uleb128 0x3
ARM GAS  C:\Users\DEVELO~1\AppData\Local\Temp\cc0E6Q26.s 			page 38


 2110 0028 0E       		.uleb128 0xe
 2111 0029 00       		.byte	0
 2112 002a 00       		.byte	0
 2113 002b 04       		.uleb128 0x4
 2114 002c 05       		.uleb128 0x5
 2115 002d 00       		.byte	0
 2116 002e 03       		.uleb128 0x3
 2117 002f 0E       		.uleb128 0xe
 2118 0030 3A       		.uleb128 0x3a
 2119 0031 21       		.uleb128 0x21
 2120 0032 05       		.sleb128 5
 2121 0033 3B       		.uleb128 0x3b
 2122 0034 0B       		.uleb128 0xb
 2123 0035 39       		.uleb128 0x39
 2124 0036 0B       		.uleb128 0xb
 2125 0037 49       		.uleb128 0x49
 2126 0038 13       		.uleb128 0x13
 2127 0039 02       		.uleb128 0x2
 2128 003a 18       		.uleb128 0x18
 2129 003b 00       		.byte	0
 2130 003c 00       		.byte	0
 2131 003d 05       		.uleb128 0x5
 2132 003e 26       		.uleb128 0x26
 2133 003f 00       		.byte	0
 2134 0040 49       		.uleb128 0x49
 2135 0041 13       		.uleb128 0x13
 2136 0042 00       		.byte	0
 2137 0043 00       		.byte	0
 2138 0044 06       		.uleb128 0x6
 2139 0045 0F       		.uleb128 0xf
 2140 0046 00       		.byte	0
 2141 0047 0B       		.uleb128 0xb
 2142 0048 21       		.uleb128 0x21
 2143 0049 04       		.sleb128 4
 2144 004a 49       		.uleb128 0x49
 2145 004b 13       		.uleb128 0x13
 2146 004c 00       		.byte	0
 2147 004d 00       		.byte	0
 2148 004e 07       		.uleb128 0x7
 2149 004f 05       		.uleb128 0x5
 2150 0050 00       		.byte	0
 2151 0051 49       		.uleb128 0x49
 2152 0052 13       		.uleb128 0x13
 2153 0053 00       		.byte	0
 2154 0054 00       		.byte	0
 2155 0055 08       		.uleb128 0x8
 2156 0056 05       		.uleb128 0x5
 2157 0057 00       		.byte	0
 2158 0058 03       		.uleb128 0x3
 2159 0059 08       		.uleb128 0x8
 2160 005a 3A       		.uleb128 0x3a
 2161 005b 0B       		.uleb128 0xb
 2162 005c 3B       		.uleb128 0x3b
 2163 005d 0B       		.uleb128 0xb
 2164 005e 39       		.uleb128 0x39
 2165 005f 0B       		.uleb128 0xb
 2166 0060 49       		.uleb128 0x49
ARM GAS  C:\Users\DEVELO~1\AppData\Local\Temp\cc0E6Q26.s 			page 39


 2167 0061 13       		.uleb128 0x13
 2168 0062 02       		.uleb128 0x2
 2169 0063 18       		.uleb128 0x18
 2170 0064 00       		.byte	0
 2171 0065 00       		.byte	0
 2172 0066 09       		.uleb128 0x9
 2173 0067 13       		.uleb128 0x13
 2174 0068 01       		.byte	0x1
 2175 0069 03       		.uleb128 0x3
 2176 006a 0E       		.uleb128 0xe
 2177 006b 0B       		.uleb128 0xb
 2178 006c 0B       		.uleb128 0xb
 2179 006d 3A       		.uleb128 0x3a
 2180 006e 0B       		.uleb128 0xb
 2181 006f 3B       		.uleb128 0x3b
 2182 0070 0B       		.uleb128 0xb
 2183 0071 39       		.uleb128 0x39
 2184 0072 0B       		.uleb128 0xb
 2185 0073 01       		.uleb128 0x1
 2186 0074 13       		.uleb128 0x13
 2187 0075 00       		.byte	0
 2188 0076 00       		.byte	0
 2189 0077 0A       		.uleb128 0xa
 2190 0078 05       		.uleb128 0x5
 2191 0079 00       		.byte	0
 2192 007a 03       		.uleb128 0x3
 2193 007b 0E       		.uleb128 0xe
 2194 007c 3A       		.uleb128 0x3a
 2195 007d 21       		.uleb128 0x21
 2196 007e 05       		.sleb128 5
 2197 007f 3B       		.uleb128 0x3b
 2198 0080 05       		.uleb128 0x5
 2199 0081 39       		.uleb128 0x39
 2200 0082 0B       		.uleb128 0xb
 2201 0083 49       		.uleb128 0x49
 2202 0084 13       		.uleb128 0x13
 2203 0085 02       		.uleb128 0x2
 2204 0086 18       		.uleb128 0x18
 2205 0087 00       		.byte	0
 2206 0088 00       		.byte	0
 2207 0089 0B       		.uleb128 0xb
 2208 008a 05       		.uleb128 0x5
 2209 008b 00       		.byte	0
 2210 008c 03       		.uleb128 0x3
 2211 008d 08       		.uleb128 0x8
 2212 008e 3A       		.uleb128 0x3a
 2213 008f 21       		.uleb128 0x21
 2214 0090 05       		.sleb128 5
 2215 0091 3B       		.uleb128 0x3b
 2216 0092 05       		.uleb128 0x5
 2217 0093 39       		.uleb128 0x39
 2218 0094 0B       		.uleb128 0xb
 2219 0095 49       		.uleb128 0x49
 2220 0096 13       		.uleb128 0x13
 2221 0097 02       		.uleb128 0x2
 2222 0098 18       		.uleb128 0x18
 2223 0099 00       		.byte	0
ARM GAS  C:\Users\DEVELO~1\AppData\Local\Temp\cc0E6Q26.s 			page 40


 2224 009a 00       		.byte	0
 2225 009b 0C       		.uleb128 0xc
 2226 009c 34       		.uleb128 0x34
 2227 009d 00       		.byte	0
 2228 009e 03       		.uleb128 0x3
 2229 009f 0E       		.uleb128 0xe
 2230 00a0 49       		.uleb128 0x49
 2231 00a1 13       		.uleb128 0x13
 2232 00a2 34       		.uleb128 0x34
 2233 00a3 19       		.uleb128 0x19
 2234 00a4 00       		.byte	0
 2235 00a5 00       		.byte	0
 2236 00a6 0D       		.uleb128 0xd
 2237 00a7 01       		.uleb128 0x1
 2238 00a8 01       		.byte	0x1
 2239 00a9 49       		.uleb128 0x49
 2240 00aa 13       		.uleb128 0x13
 2241 00ab 01       		.uleb128 0x1
 2242 00ac 13       		.uleb128 0x13
 2243 00ad 00       		.byte	0
 2244 00ae 00       		.byte	0
 2245 00af 0E       		.uleb128 0xe
 2246 00b0 21       		.uleb128 0x21
 2247 00b1 00       		.byte	0
 2248 00b2 49       		.uleb128 0x49
 2249 00b3 13       		.uleb128 0x13
 2250 00b4 2F       		.uleb128 0x2f
 2251 00b5 0B       		.uleb128 0xb
 2252 00b6 00       		.byte	0
 2253 00b7 00       		.byte	0
 2254 00b8 0F       		.uleb128 0xf
 2255 00b9 1D       		.uleb128 0x1d
 2256 00ba 01       		.byte	0x1
 2257 00bb 31       		.uleb128 0x31
 2258 00bc 13       		.uleb128 0x13
 2259 00bd 11       		.uleb128 0x11
 2260 00be 01       		.uleb128 0x1
 2261 00bf 12       		.uleb128 0x12
 2262 00c0 06       		.uleb128 0x6
 2263 00c1 58       		.uleb128 0x58
 2264 00c2 0B       		.uleb128 0xb
 2265 00c3 59       		.uleb128 0x59
 2266 00c4 05       		.uleb128 0x5
 2267 00c5 57       		.uleb128 0x57
 2268 00c6 21       		.uleb128 0x21
 2269 00c7 03       		.sleb128 3
 2270 00c8 00       		.byte	0
 2271 00c9 00       		.byte	0
 2272 00ca 10       		.uleb128 0x10
 2273 00cb 2E       		.uleb128 0x2e
 2274 00cc 01       		.byte	0x1
 2275 00cd 3F       		.uleb128 0x3f
 2276 00ce 19       		.uleb128 0x19
 2277 00cf 03       		.uleb128 0x3
 2278 00d0 0E       		.uleb128 0xe
 2279 00d1 3A       		.uleb128 0x3a
 2280 00d2 21       		.uleb128 0x21
ARM GAS  C:\Users\DEVELO~1\AppData\Local\Temp\cc0E6Q26.s 			page 41


 2281 00d3 05       		.sleb128 5
 2282 00d4 3B       		.uleb128 0x3b
 2283 00d5 05       		.uleb128 0x5
 2284 00d6 39       		.uleb128 0x39
 2285 00d7 0B       		.uleb128 0xb
 2286 00d8 27       		.uleb128 0x27
 2287 00d9 19       		.uleb128 0x19
 2288 00da 49       		.uleb128 0x49
 2289 00db 13       		.uleb128 0x13
 2290 00dc 11       		.uleb128 0x11
 2291 00dd 01       		.uleb128 0x1
 2292 00de 12       		.uleb128 0x12
 2293 00df 06       		.uleb128 0x6
 2294 00e0 40       		.uleb128 0x40
 2295 00e1 18       		.uleb128 0x18
 2296 00e2 7C       		.uleb128 0x7c
 2297 00e3 19       		.uleb128 0x19
 2298 00e4 01       		.uleb128 0x1
 2299 00e5 13       		.uleb128 0x13
 2300 00e6 00       		.byte	0
 2301 00e7 00       		.byte	0
 2302 00e8 11       		.uleb128 0x11
 2303 00e9 0D       		.uleb128 0xd
 2304 00ea 00       		.byte	0
 2305 00eb 03       		.uleb128 0x3
 2306 00ec 08       		.uleb128 0x8
 2307 00ed 3A       		.uleb128 0x3a
 2308 00ee 0B       		.uleb128 0xb
 2309 00ef 3B       		.uleb128 0x3b
 2310 00f0 0B       		.uleb128 0xb
 2311 00f1 39       		.uleb128 0x39
 2312 00f2 21       		.uleb128 0x21
 2313 00f3 19       		.sleb128 25
 2314 00f4 49       		.uleb128 0x49
 2315 00f5 13       		.uleb128 0x13
 2316 00f6 38       		.uleb128 0x38
 2317 00f7 0B       		.uleb128 0xb
 2318 00f8 00       		.byte	0
 2319 00f9 00       		.byte	0
 2320 00fa 12       		.uleb128 0x12
 2321 00fb 2E       		.uleb128 0x2e
 2322 00fc 01       		.byte	0x1
 2323 00fd 3F       		.uleb128 0x3f
 2324 00fe 19       		.uleb128 0x19
 2325 00ff 03       		.uleb128 0x3
 2326 0100 0E       		.uleb128 0xe
 2327 0101 3A       		.uleb128 0x3a
 2328 0102 21       		.uleb128 0x21
 2329 0103 04       		.sleb128 4
 2330 0104 3B       		.uleb128 0x3b
 2331 0105 0B       		.uleb128 0xb
 2332 0106 39       		.uleb128 0x39
 2333 0107 21       		.uleb128 0x21
 2334 0108 08       		.sleb128 8
 2335 0109 27       		.uleb128 0x27
 2336 010a 19       		.uleb128 0x19
 2337 010b 3C       		.uleb128 0x3c
ARM GAS  C:\Users\DEVELO~1\AppData\Local\Temp\cc0E6Q26.s 			page 42


 2338 010c 19       		.uleb128 0x19
 2339 010d 01       		.uleb128 0x1
 2340 010e 13       		.uleb128 0x13
 2341 010f 00       		.byte	0
 2342 0110 00       		.byte	0
 2343 0111 13       		.uleb128 0x13
 2344 0112 34       		.uleb128 0x34
 2345 0113 00       		.byte	0
 2346 0114 03       		.uleb128 0x3
 2347 0115 0E       		.uleb128 0xe
 2348 0116 3A       		.uleb128 0x3a
 2349 0117 21       		.uleb128 0x21
 2350 0118 05       		.sleb128 5
 2351 0119 3B       		.uleb128 0x3b
 2352 011a 05       		.uleb128 0x5
 2353 011b 39       		.uleb128 0x39
 2354 011c 0B       		.uleb128 0xb
 2355 011d 49       		.uleb128 0x49
 2356 011e 13       		.uleb128 0x13
 2357 011f 02       		.uleb128 0x2
 2358 0120 18       		.uleb128 0x18
 2359 0121 00       		.byte	0
 2360 0122 00       		.byte	0
 2361 0123 14       		.uleb128 0x14
 2362 0124 0B       		.uleb128 0xb
 2363 0125 01       		.byte	0x1
 2364 0126 11       		.uleb128 0x11
 2365 0127 01       		.uleb128 0x1
 2366 0128 12       		.uleb128 0x12
 2367 0129 06       		.uleb128 0x6
 2368 012a 00       		.byte	0
 2369 012b 00       		.byte	0
 2370 012c 15       		.uleb128 0x15
 2371 012d 34       		.uleb128 0x34
 2372 012e 00       		.byte	0
 2373 012f 03       		.uleb128 0x3
 2374 0130 0E       		.uleb128 0xe
 2375 0131 3A       		.uleb128 0x3a
 2376 0132 21       		.uleb128 0x21
 2377 0133 05       		.sleb128 5
 2378 0134 3B       		.uleb128 0x3b
 2379 0135 0B       		.uleb128 0xb
 2380 0136 39       		.uleb128 0x39
 2381 0137 21       		.uleb128 0x21
 2382 0138 10       		.sleb128 16
 2383 0139 49       		.uleb128 0x49
 2384 013a 13       		.uleb128 0x13
 2385 013b 02       		.uleb128 0x2
 2386 013c 18       		.uleb128 0x18
 2387 013d 00       		.byte	0
 2388 013e 00       		.byte	0
 2389 013f 16       		.uleb128 0x16
 2390 0140 2E       		.uleb128 0x2e
 2391 0141 01       		.byte	0x1
 2392 0142 03       		.uleb128 0x3
 2393 0143 0E       		.uleb128 0xe
 2394 0144 3A       		.uleb128 0x3a
ARM GAS  C:\Users\DEVELO~1\AppData\Local\Temp\cc0E6Q26.s 			page 43


 2395 0145 0B       		.uleb128 0xb
 2396 0146 3B       		.uleb128 0x3b
 2397 0147 0B       		.uleb128 0xb
 2398 0148 39       		.uleb128 0x39
 2399 0149 21       		.uleb128 0x21
 2400 014a 15       		.sleb128 21
 2401 014b 27       		.uleb128 0x27
 2402 014c 19       		.uleb128 0x19
 2403 014d 49       		.uleb128 0x49
 2404 014e 13       		.uleb128 0x13
 2405 014f 11       		.uleb128 0x11
 2406 0150 01       		.uleb128 0x1
 2407 0151 12       		.uleb128 0x12
 2408 0152 06       		.uleb128 0x6
 2409 0153 40       		.uleb128 0x40
 2410 0154 18       		.uleb128 0x18
 2411 0155 7A       		.uleb128 0x7a
 2412 0156 19       		.uleb128 0x19
 2413 0157 01       		.uleb128 0x1
 2414 0158 13       		.uleb128 0x13
 2415 0159 00       		.byte	0
 2416 015a 00       		.byte	0
 2417 015b 17       		.uleb128 0x17
 2418 015c 2E       		.uleb128 0x2e
 2419 015d 01       		.byte	0x1
 2420 015e 03       		.uleb128 0x3
 2421 015f 0E       		.uleb128 0xe
 2422 0160 3A       		.uleb128 0x3a
 2423 0161 21       		.uleb128 0x21
 2424 0162 04       		.sleb128 4
 2425 0163 3B       		.uleb128 0x3b
 2426 0164 0B       		.uleb128 0xb
 2427 0165 39       		.uleb128 0x39
 2428 0166 21       		.uleb128 0x21
 2429 0167 14       		.sleb128 20
 2430 0168 27       		.uleb128 0x27
 2431 0169 19       		.uleb128 0x19
 2432 016a 11       		.uleb128 0x11
 2433 016b 01       		.uleb128 0x1
 2434 016c 12       		.uleb128 0x12
 2435 016d 06       		.uleb128 0x6
 2436 016e 40       		.uleb128 0x40
 2437 016f 18       		.uleb128 0x18
 2438 0170 7A       		.uleb128 0x7a
 2439 0171 19       		.uleb128 0x19
 2440 0172 01       		.uleb128 0x1
 2441 0173 13       		.uleb128 0x13
 2442 0174 00       		.byte	0
 2443 0175 00       		.byte	0
 2444 0176 18       		.uleb128 0x18
 2445 0177 2E       		.uleb128 0x2e
 2446 0178 01       		.byte	0x1
 2447 0179 03       		.uleb128 0x3
 2448 017a 0E       		.uleb128 0xe
 2449 017b 3A       		.uleb128 0x3a
 2450 017c 21       		.uleb128 0x21
 2451 017d 01       		.sleb128 1
ARM GAS  C:\Users\DEVELO~1\AppData\Local\Temp\cc0E6Q26.s 			page 44


 2452 017e 3B       		.uleb128 0x3b
 2453 017f 05       		.uleb128 0x5
 2454 0180 39       		.uleb128 0x39
 2455 0181 21       		.uleb128 0x21
 2456 0182 14       		.sleb128 20
 2457 0183 27       		.uleb128 0x27
 2458 0184 19       		.uleb128 0x19
 2459 0185 11       		.uleb128 0x11
 2460 0186 01       		.uleb128 0x1
 2461 0187 12       		.uleb128 0x12
 2462 0188 06       		.uleb128 0x6
 2463 0189 40       		.uleb128 0x40
 2464 018a 18       		.uleb128 0x18
 2465 018b 7A       		.uleb128 0x7a
 2466 018c 19       		.uleb128 0x19
 2467 018d 01       		.uleb128 0x1
 2468 018e 13       		.uleb128 0x13
 2469 018f 00       		.byte	0
 2470 0190 00       		.byte	0
 2471 0191 19       		.uleb128 0x19
 2472 0192 05       		.uleb128 0x5
 2473 0193 00       		.byte	0
 2474 0194 31       		.uleb128 0x31
 2475 0195 13       		.uleb128 0x13
 2476 0196 02       		.uleb128 0x2
 2477 0197 18       		.uleb128 0x18
 2478 0198 00       		.byte	0
 2479 0199 00       		.byte	0
 2480 019a 1A       		.uleb128 0x1a
 2481 019b 2E       		.uleb128 0x2e
 2482 019c 00       		.byte	0
 2483 019d 03       		.uleb128 0x3
 2484 019e 0E       		.uleb128 0xe
 2485 019f 3A       		.uleb128 0x3a
 2486 01a0 21       		.uleb128 0x21
 2487 01a1 03       		.sleb128 3
 2488 01a2 3B       		.uleb128 0x3b
 2489 01a3 05       		.uleb128 0x5
 2490 01a4 39       		.uleb128 0x39
 2491 01a5 21       		.uleb128 0x21
 2492 01a6 1B       		.sleb128 27
 2493 01a7 27       		.uleb128 0x27
 2494 01a8 19       		.uleb128 0x19
 2495 01a9 20       		.uleb128 0x20
 2496 01aa 21       		.uleb128 0x21
 2497 01ab 03       		.sleb128 3
 2498 01ac 00       		.byte	0
 2499 01ad 00       		.byte	0
 2500 01ae 1B       		.uleb128 0x1b
 2501 01af 11       		.uleb128 0x11
 2502 01b0 01       		.byte	0x1
 2503 01b1 25       		.uleb128 0x25
 2504 01b2 0E       		.uleb128 0xe
 2505 01b3 13       		.uleb128 0x13
 2506 01b4 0B       		.uleb128 0xb
 2507 01b5 03       		.uleb128 0x3
 2508 01b6 0E       		.uleb128 0xe
ARM GAS  C:\Users\DEVELO~1\AppData\Local\Temp\cc0E6Q26.s 			page 45


 2509 01b7 1B       		.uleb128 0x1b
 2510 01b8 0E       		.uleb128 0xe
 2511 01b9 55       		.uleb128 0x55
 2512 01ba 17       		.uleb128 0x17
 2513 01bb 11       		.uleb128 0x11
 2514 01bc 01       		.uleb128 0x1
 2515 01bd 10       		.uleb128 0x10
 2516 01be 17       		.uleb128 0x17
 2517 01bf 00       		.byte	0
 2518 01c0 00       		.byte	0
 2519 01c1 1C       		.uleb128 0x1c
 2520 01c2 24       		.uleb128 0x24
 2521 01c3 00       		.byte	0
 2522 01c4 0B       		.uleb128 0xb
 2523 01c5 0B       		.uleb128 0xb
 2524 01c6 3E       		.uleb128 0x3e
 2525 01c7 0B       		.uleb128 0xb
 2526 01c8 03       		.uleb128 0x3
 2527 01c9 08       		.uleb128 0x8
 2528 01ca 00       		.byte	0
 2529 01cb 00       		.byte	0
 2530 01cc 1D       		.uleb128 0x1d
 2531 01cd 0F       		.uleb128 0xf
 2532 01ce 00       		.byte	0
 2533 01cf 0B       		.uleb128 0xb
 2534 01d0 0B       		.uleb128 0xb
 2535 01d1 00       		.byte	0
 2536 01d2 00       		.byte	0
 2537 01d3 1E       		.uleb128 0x1e
 2538 01d4 15       		.uleb128 0x15
 2539 01d5 01       		.byte	0x1
 2540 01d6 27       		.uleb128 0x27
 2541 01d7 19       		.uleb128 0x19
 2542 01d8 49       		.uleb128 0x49
 2543 01d9 13       		.uleb128 0x13
 2544 01da 01       		.uleb128 0x1
 2545 01db 13       		.uleb128 0x13
 2546 01dc 00       		.byte	0
 2547 01dd 00       		.byte	0
 2548 01de 1F       		.uleb128 0x1f
 2549 01df 2E       		.uleb128 0x2e
 2550 01e0 01       		.byte	0x1
 2551 01e1 3F       		.uleb128 0x3f
 2552 01e2 19       		.uleb128 0x19
 2553 01e3 03       		.uleb128 0x3
 2554 01e4 0E       		.uleb128 0xe
 2555 01e5 3A       		.uleb128 0x3a
 2556 01e6 0B       		.uleb128 0xb
 2557 01e7 3B       		.uleb128 0x3b
 2558 01e8 0B       		.uleb128 0xb
 2559 01e9 39       		.uleb128 0x39
 2560 01ea 0B       		.uleb128 0xb
 2561 01eb 27       		.uleb128 0x27
 2562 01ec 19       		.uleb128 0x19
 2563 01ed 49       		.uleb128 0x49
 2564 01ee 13       		.uleb128 0x13
 2565 01ef 3C       		.uleb128 0x3c
ARM GAS  C:\Users\DEVELO~1\AppData\Local\Temp\cc0E6Q26.s 			page 46


 2566 01f0 19       		.uleb128 0x19
 2567 01f1 01       		.uleb128 0x1
 2568 01f2 13       		.uleb128 0x13
 2569 01f3 00       		.byte	0
 2570 01f4 00       		.byte	0
 2571 01f5 20       		.uleb128 0x20
 2572 01f6 2E       		.uleb128 0x2e
 2573 01f7 01       		.byte	0x1
 2574 01f8 3F       		.uleb128 0x3f
 2575 01f9 19       		.uleb128 0x19
 2576 01fa 03       		.uleb128 0x3
 2577 01fb 0E       		.uleb128 0xe
 2578 01fc 3A       		.uleb128 0x3a
 2579 01fd 0B       		.uleb128 0xb
 2580 01fe 3B       		.uleb128 0x3b
 2581 01ff 05       		.uleb128 0x5
 2582 0200 39       		.uleb128 0x39
 2583 0201 0B       		.uleb128 0xb
 2584 0202 27       		.uleb128 0x27
 2585 0203 19       		.uleb128 0x19
 2586 0204 11       		.uleb128 0x11
 2587 0205 01       		.uleb128 0x1
 2588 0206 12       		.uleb128 0x12
 2589 0207 06       		.uleb128 0x6
 2590 0208 40       		.uleb128 0x40
 2591 0209 18       		.uleb128 0x18
 2592 020a 7C       		.uleb128 0x7c
 2593 020b 19       		.uleb128 0x19
 2594 020c 01       		.uleb128 0x1
 2595 020d 13       		.uleb128 0x13
 2596 020e 00       		.byte	0
 2597 020f 00       		.byte	0
 2598 0210 21       		.uleb128 0x21
 2599 0211 34       		.uleb128 0x34
 2600 0212 00       		.byte	0
 2601 0213 03       		.uleb128 0x3
 2602 0214 08       		.uleb128 0x8
 2603 0215 3A       		.uleb128 0x3a
 2604 0216 0B       		.uleb128 0xb
 2605 0217 3B       		.uleb128 0x3b
 2606 0218 05       		.uleb128 0x5
 2607 0219 39       		.uleb128 0x39
 2608 021a 0B       		.uleb128 0xb
 2609 021b 49       		.uleb128 0x49
 2610 021c 13       		.uleb128 0x13
 2611 021d 02       		.uleb128 0x2
 2612 021e 18       		.uleb128 0x18
 2613 021f 00       		.byte	0
 2614 0220 00       		.byte	0
 2615 0221 22       		.uleb128 0x22
 2616 0222 2E       		.uleb128 0x2e
 2617 0223 01       		.byte	0x1
 2618 0224 3F       		.uleb128 0x3f
 2619 0225 19       		.uleb128 0x19
 2620 0226 03       		.uleb128 0x3
 2621 0227 0E       		.uleb128 0xe
 2622 0228 3A       		.uleb128 0x3a
ARM GAS  C:\Users\DEVELO~1\AppData\Local\Temp\cc0E6Q26.s 			page 47


 2623 0229 0B       		.uleb128 0xb
 2624 022a 3B       		.uleb128 0x3b
 2625 022b 0B       		.uleb128 0xb
 2626 022c 39       		.uleb128 0x39
 2627 022d 0B       		.uleb128 0xb
 2628 022e 27       		.uleb128 0x27
 2629 022f 19       		.uleb128 0x19
 2630 0230 11       		.uleb128 0x11
 2631 0231 01       		.uleb128 0x1
 2632 0232 12       		.uleb128 0x12
 2633 0233 06       		.uleb128 0x6
 2634 0234 40       		.uleb128 0x40
 2635 0235 18       		.uleb128 0x18
 2636 0236 7C       		.uleb128 0x7c
 2637 0237 19       		.uleb128 0x19
 2638 0238 01       		.uleb128 0x1
 2639 0239 13       		.uleb128 0x13
 2640 023a 00       		.byte	0
 2641 023b 00       		.byte	0
 2642 023c 23       		.uleb128 0x23
 2643 023d 2E       		.uleb128 0x2e
 2644 023e 01       		.byte	0x1
 2645 023f 03       		.uleb128 0x3
 2646 0240 0E       		.uleb128 0xe
 2647 0241 3A       		.uleb128 0x3a
 2648 0242 0B       		.uleb128 0xb
 2649 0243 3B       		.uleb128 0x3b
 2650 0244 0B       		.uleb128 0xb
 2651 0245 39       		.uleb128 0x39
 2652 0246 0B       		.uleb128 0xb
 2653 0247 27       		.uleb128 0x27
 2654 0248 19       		.uleb128 0x19
 2655 0249 49       		.uleb128 0x49
 2656 024a 13       		.uleb128 0x13
 2657 024b 11       		.uleb128 0x11
 2658 024c 01       		.uleb128 0x1
 2659 024d 12       		.uleb128 0x12
 2660 024e 06       		.uleb128 0x6
 2661 024f 40       		.uleb128 0x40
 2662 0250 18       		.uleb128 0x18
 2663 0251 7C       		.uleb128 0x7c
 2664 0252 19       		.uleb128 0x19
 2665 0253 01       		.uleb128 0x1
 2666 0254 13       		.uleb128 0x13
 2667 0255 00       		.byte	0
 2668 0256 00       		.byte	0
 2669 0257 24       		.uleb128 0x24
 2670 0258 34       		.uleb128 0x34
 2671 0259 00       		.byte	0
 2672 025a 03       		.uleb128 0x3
 2673 025b 08       		.uleb128 0x8
 2674 025c 3A       		.uleb128 0x3a
 2675 025d 0B       		.uleb128 0xb
 2676 025e 3B       		.uleb128 0x3b
 2677 025f 0B       		.uleb128 0xb
 2678 0260 39       		.uleb128 0x39
 2679 0261 0B       		.uleb128 0xb
ARM GAS  C:\Users\DEVELO~1\AppData\Local\Temp\cc0E6Q26.s 			page 48


 2680 0262 49       		.uleb128 0x49
 2681 0263 13       		.uleb128 0x13
 2682 0264 02       		.uleb128 0x2
 2683 0265 18       		.uleb128 0x18
 2684 0266 00       		.byte	0
 2685 0267 00       		.byte	0
 2686 0268 25       		.uleb128 0x25
 2687 0269 2E       		.uleb128 0x2e
 2688 026a 01       		.byte	0x1
 2689 026b 03       		.uleb128 0x3
 2690 026c 0E       		.uleb128 0xe
 2691 026d 3A       		.uleb128 0x3a
 2692 026e 0B       		.uleb128 0xb
 2693 026f 3B       		.uleb128 0x3b
 2694 0270 05       		.uleb128 0x5
 2695 0271 39       		.uleb128 0x39
 2696 0272 0B       		.uleb128 0xb
 2697 0273 27       		.uleb128 0x27
 2698 0274 19       		.uleb128 0x19
 2699 0275 20       		.uleb128 0x20
 2700 0276 0B       		.uleb128 0xb
 2701 0277 00       		.byte	0
 2702 0278 00       		.byte	0
 2703 0279 26       		.uleb128 0x26
 2704 027a 05       		.uleb128 0x5
 2705 027b 00       		.byte	0
 2706 027c 03       		.uleb128 0x3
 2707 027d 0E       		.uleb128 0xe
 2708 027e 3A       		.uleb128 0x3a
 2709 027f 0B       		.uleb128 0xb
 2710 0280 3B       		.uleb128 0x3b
 2711 0281 05       		.uleb128 0x5
 2712 0282 39       		.uleb128 0x39
 2713 0283 0B       		.uleb128 0xb
 2714 0284 49       		.uleb128 0x49
 2715 0285 13       		.uleb128 0x13
 2716 0286 00       		.byte	0
 2717 0287 00       		.byte	0
 2718 0288 00       		.byte	0
 2719              		.section	.debug_aranges,"",%progbits
 2720 0000 74000000 		.4byte	0x74
 2721 0004 0200     		.2byte	0x2
 2722 0006 00000000 		.4byte	.Ldebug_info0
 2723 000a 04       		.byte	0x4
 2724 000b 00       		.byte	0
 2725 000c 0000     		.2byte	0
 2726 000e 0000     		.2byte	0
 2727 0010 00000000 		.4byte	.LFB202
 2728 0014 1E000000 		.4byte	.LFE202-.LFB202
 2729 0018 00000000 		.4byte	.LFB203
 2730 001c 1E000000 		.4byte	.LFE203-.LFB203
 2731 0020 00000000 		.4byte	.LFB245
 2732 0024 1C000000 		.4byte	.LFE245-.LFB245
 2733 0028 00000000 		.4byte	.LFB246
 2734 002c 1C000000 		.4byte	.LFE246-.LFB246
 2735 0030 00000000 		.4byte	.LFB247
 2736 0034 16000000 		.4byte	.LFE247-.LFB247
ARM GAS  C:\Users\DEVELO~1\AppData\Local\Temp\cc0E6Q26.s 			page 49


 2737 0038 00000000 		.4byte	.LFB346
 2738 003c 5E000000 		.4byte	.LFE346-.LFB346
 2739 0040 00000000 		.4byte	.LFB347
 2740 0044 9C000000 		.4byte	.LFE347-.LFB347
 2741 0048 00000000 		.4byte	.LFB348
 2742 004c F6000000 		.4byte	.LFE348-.LFB348
 2743 0050 00000000 		.4byte	.LFB349
 2744 0054 C6000000 		.4byte	.LFE349-.LFB349
 2745 0058 00000000 		.4byte	.LFB350
 2746 005c 06010000 		.4byte	.LFE350-.LFB350
 2747 0060 00000000 		.4byte	.LFB351
 2748 0064 30000000 		.4byte	.LFE351-.LFB351
 2749 0068 00000000 		.4byte	.LFB352
 2750 006c 30000000 		.4byte	.LFE352-.LFB352
 2751 0070 00000000 		.4byte	0
 2752 0074 00000000 		.4byte	0
 2753              		.section	.debug_rnglists,"",%progbits
 2754              	.Ldebug_ranges0:
 2755 0000 55000000 		.4byte	.Ldebug_ranges3-.Ldebug_ranges2
 2756              	.Ldebug_ranges2:
 2757 0004 0500     		.2byte	0x5
 2758 0006 04       		.byte	0x4
 2759 0007 00       		.byte	0
 2760 0008 00000000 		.4byte	0
 2761              	.LLRL0:
 2762 000c 07       		.byte	0x7
 2763 000d 00000000 		.4byte	.LFB202
 2764 0011 1E       		.uleb128 .LFE202-.LFB202
 2765 0012 07       		.byte	0x7
 2766 0013 00000000 		.4byte	.LFB203
 2767 0017 1E       		.uleb128 .LFE203-.LFB203
 2768 0018 07       		.byte	0x7
 2769 0019 00000000 		.4byte	.LFB245
 2770 001d 1C       		.uleb128 .LFE245-.LFB245
 2771 001e 07       		.byte	0x7
 2772 001f 00000000 		.4byte	.LFB246
 2773 0023 1C       		.uleb128 .LFE246-.LFB246
 2774 0024 07       		.byte	0x7
 2775 0025 00000000 		.4byte	.LFB247
 2776 0029 16       		.uleb128 .LFE247-.LFB247
 2777 002a 07       		.byte	0x7
 2778 002b 00000000 		.4byte	.LFB346
 2779 002f 5E       		.uleb128 .LFE346-.LFB346
 2780 0030 07       		.byte	0x7
 2781 0031 00000000 		.4byte	.LFB347
 2782 0035 9C01     		.uleb128 .LFE347-.LFB347
 2783 0037 07       		.byte	0x7
 2784 0038 00000000 		.4byte	.LFB348
 2785 003c F601     		.uleb128 .LFE348-.LFB348
 2786 003e 07       		.byte	0x7
 2787 003f 00000000 		.4byte	.LFB349
 2788 0043 C601     		.uleb128 .LFE349-.LFB349
 2789 0045 07       		.byte	0x7
 2790 0046 00000000 		.4byte	.LFB350
 2791 004a 8602     		.uleb128 .LFE350-.LFB350
 2792 004c 07       		.byte	0x7
 2793 004d 00000000 		.4byte	.LFB351
ARM GAS  C:\Users\DEVELO~1\AppData\Local\Temp\cc0E6Q26.s 			page 50


 2794 0051 30       		.uleb128 .LFE351-.LFB351
 2795 0052 07       		.byte	0x7
 2796 0053 00000000 		.4byte	.LFB352
 2797 0057 30       		.uleb128 .LFE352-.LFB352
 2798 0058 00       		.byte	0
 2799              	.Ldebug_ranges3:
 2800              		.section	.debug_line,"",%progbits
 2801              	.Ldebug_line0:
 2802 0000 18050000 		.section	.debug_str,"MS",%progbits,1
 2802      03004B02 
 2802      00000201 
 2802      FB0E0D00 
 2802      01010101 
 2803              	.LASF57:
 2804 0000 6F635F77 		.ascii	"oc_writef_t\000"
 2804      72697465 
 2804      665F7400 
 2805              	.LASF51:
 2806 000c 6F626A76 		.ascii	"objvp\000"
 2806      7000
 2807              	.LASF53:
 2808 0012 6C72755F 		.ascii	"lru_sem\000"
 2808      73656D00 
 2809              	.LASF78:
 2810 001a 474E5520 		.ascii	"GNU C17 11.3.1 20220712 -mcpu=cortex-m7 -mthumb -mf"
 2810      43313720 
 2810      31312E33 
 2810      2E312032 
 2810      30323230 
 2811 004d 6C6F6174 		.ascii	"loat-abi=soft -march=armv7e-m -ggdb -O0 -ffunction-"
 2811      2D616269 
 2811      3D736F66 
 2811      74202D6D 
 2811      61726368 
 2812 0080 73656374 		.ascii	"sections -fdata-sections -fno-common\000"
 2812      696F6E73 
 2812      202D6664 
 2812      6174612D 
 2812      73656374 
 2813              	.LASF7:
 2814 00a5 73686F72 		.ascii	"short int\000"
 2814      7420696E 
 2814      7400
 2815              	.LASF4:
 2816 00af 73697A65 		.ascii	"size_t\000"
 2816      5F7400
 2817              	.LASF71:
 2818 00b6 63685365 		.ascii	"chSemGetCounterI\000"
 2818      6D476574 
 2818      436F756E 
 2818      74657249 
 2818      00
 2819              	.LASF45:
 2820 00c7 6F626A65 		.ascii	"objects_cache_t\000"
 2820      6374735F 
 2820      63616368 
 2820      655F7400 
ARM GAS  C:\Users\DEVELO~1\AppData\Local\Temp\cc0E6Q26.s 			page 51


 2821              	.LASF39:
 2822 00d7 63685F6F 		.ascii	"ch_oc_object\000"
 2822      635F6F62 
 2822      6A656374 
 2822      00
 2823              	.LASF59:
 2824 00e4 63685365 		.ascii	"chSemObjectInit\000"
 2824      6D4F626A 
 2824      65637449 
 2824      6E697400 
 2825              	.LASF43:
 2826 00f4 6F626A5F 		.ascii	"obj_flags\000"
 2826      666C6167 
 2826      7300
 2827              	.LASF55:
 2828 00fe 77726974 		.ascii	"writef\000"
 2828      656600
 2829              	.LASF40:
 2830 0105 6F626A5F 		.ascii	"obj_group\000"
 2830      67726F75 
 2830      7000
 2831              	.LASF72:
 2832 010f 63685365 		.ascii	"chSemFastSignalI\000"
 2832      6D466173 
 2832      74536967 
 2832      6E616C49 
 2832      00
 2833              	.LASF77:
 2834 0120 706F7274 		.ascii	"port_lock\000"
 2834      5F6C6F63 
 2834      6B00
 2835              	.LASF75:
 2836 012a 63685379 		.ascii	"chSysLock\000"
 2836      734C6F63 
 2836      6B00
 2837              	.LASF38:
 2838 0134 6F635F6F 		.ascii	"oc_object_t\000"
 2838      626A6563 
 2838      745F7400 
 2839              	.LASF67:
 2840 0140 63684361 		.ascii	"chCacheReleaseObjectI\000"
 2840      63686552 
 2840      656C6561 
 2840      73654F62 
 2840      6A656374 
 2841              	.LASF68:
 2842 0156 63684361 		.ascii	"chCacheObjectInit\000"
 2842      6368654F 
 2842      626A6563 
 2842      74496E69 
 2842      7400
 2843              	.LASF79:
 2844 0168 2E2E2F2E 		.ascii	"../../../os/oslib/src/chobjcaches.c\000"
 2844      2E2F2E2E 
 2844      2F6F732F 
 2844      6F736C69 
 2844      622F7372 
ARM GAS  C:\Users\DEVELO~1\AppData\Local\Temp\cc0E6Q26.s 			page 52


 2845              	.LASF46:
 2846 018c 63685F6F 		.ascii	"ch_objects_cache\000"
 2846      626A6563 
 2846      74735F63 
 2846      61636865 
 2846      00
 2847              	.LASF14:
 2848 019d 75696E74 		.ascii	"uint8_t\000"
 2848      385F7400 
 2849              	.LASF64:
 2850 01a5 63684361 		.ascii	"chCacheGetObject\000"
 2850      63686547 
 2850      65744F62 
 2850      6A656374 
 2850      00
 2851              	.LASF21:
 2852 01b6 63685F71 		.ascii	"ch_queue_t\000"
 2852      75657565 
 2852      5F7400
 2853              	.LASF16:
 2854 01c1 75696E74 		.ascii	"uint32_t\000"
 2854      33325F74 
 2854      00
 2855              	.LASF27:
 2856 01ca 73656D61 		.ascii	"semaphore_t\000"
 2856      70686F72 
 2856      655F7400 
 2857              	.LASF50:
 2858 01d6 6F626A73 		.ascii	"objsz\000"
 2858      7A00
 2859              	.LASF2:
 2860 01dc 6C6F6E67 		.ascii	"long double\000"
 2860      20646F75 
 2860      626C6500 
 2861              	.LASF1:
 2862 01e8 6C6F6E67 		.ascii	"long long int\000"
 2862      206C6F6E 
 2862      6720696E 
 2862      7400
 2863              	.LASF13:
 2864 01f6 6C6F6E67 		.ascii	"long long unsigned int\000"
 2864      206C6F6E 
 2864      6720756E 
 2864      7369676E 
 2864      65642069 
 2865              	.LASF29:
 2866 020d 6F635F66 		.ascii	"oc_flags_t\000"
 2866      6C616773 
 2866      5F7400
 2867              	.LASF10:
 2868 0218 6C6F6E67 		.ascii	"long int\000"
 2868      20696E74 
 2868      00
 2869              	.LASF5:
 2870 0221 5F5F7569 		.ascii	"__uint8_t\000"
 2870      6E74385F 
 2870      7400
ARM GAS  C:\Users\DEVELO~1\AppData\Local\Temp\cc0E6Q26.s 			page 53


 2871              	.LASF65:
 2872 022b 67726F75 		.ascii	"group\000"
 2872      7000
 2873              	.LASF41:
 2874 0231 6F626A5F 		.ascii	"obj_key\000"
 2874      6B657900 
 2875              	.LASF11:
 2876 0239 5F5F7569 		.ascii	"__uint32_t\000"
 2876      6E743332 
 2876      5F7400
 2877              	.LASF35:
 2878 0244 63685F6F 		.ascii	"ch_oc_lru_header\000"
 2878      635F6C72 
 2878      755F6865 
 2878      61646572 
 2878      00
 2879              	.LASF42:
 2880 0255 6F626A5F 		.ascii	"obj_sem\000"
 2880      73656D00 
 2881              	.LASF6:
 2882 025d 756E7369 		.ascii	"unsigned char\000"
 2882      676E6564 
 2882      20636861 
 2882      7200
 2883              	.LASF69:
 2884 026b 6C72755F 		.ascii	"lru_get_last_s\000"
 2884      6765745F 
 2884      6C617374 
 2884      5F7300
 2885              	.LASF66:
 2886 027a 5F5F6675 		.ascii	"__func__\000"
 2886      6E635F5F 
 2886      00
 2887              	.LASF73:
 2888 0283 63685365 		.ascii	"chSemFastWaitI\000"
 2888      6D466173 
 2888      74576169 
 2888      744900
 2889              	.LASF9:
 2890 0292 5F5F696E 		.ascii	"__int32_t\000"
 2890      7433325F 
 2890      7400
 2891              	.LASF3:
 2892 029c 7369676E 		.ascii	"signed char\000"
 2892      65642063 
 2892      68617200 
 2893              	.LASF81:
 2894 02a8 63685365 		.ascii	"chSemWaitS\000"
 2894      6D576169 
 2894      745300
 2895              	.LASF47:
 2896 02b3 68617368 		.ascii	"hashn\000"
 2896      6E00
 2897              	.LASF0:
 2898 02b9 756E7369 		.ascii	"unsigned int\000"
 2898      676E6564 
 2898      20696E74 
ARM GAS  C:\Users\DEVELO~1\AppData\Local\Temp\cc0E6Q26.s 			page 54


 2898      00
 2899              	.LASF48:
 2900 02c6 68617368 		.ascii	"hashp\000"
 2900      7000
 2901              	.LASF54:
 2902 02cc 72656164 		.ascii	"readf\000"
 2902      6600
 2903              	.LASF31:
 2904 02d2 63685F6F 		.ascii	"ch_oc_hash_header\000"
 2904      635F6861 
 2904      73685F68 
 2904      65616465 
 2904      7200
 2905              	.LASF8:
 2906 02e4 73686F72 		.ascii	"short unsigned int\000"
 2906      7420756E 
 2906      7369676E 
 2906      65642069 
 2906      6E7400
 2907              	.LASF83:
 2908 02f7 62617365 		.ascii	"basePri\000"
 2908      50726900 
 2909              	.LASF61:
 2910 02ff 6173796E 		.ascii	"async\000"
 2910      6300
 2911              	.LASF33:
 2912 0305 68617368 		.ascii	"hash_prev\000"
 2912      5F707265 
 2912      7600
 2913              	.LASF56:
 2914 030f 6F635F72 		.ascii	"oc_readf_t\000"
 2914      65616466 
 2914      5F7400
 2915              	.LASF20:
 2916 031a 63686172 		.ascii	"char\000"
 2916      00
 2917              	.LASF52:
 2918 031f 63616368 		.ascii	"cache_sem\000"
 2918      655F7365 
 2918      6D00
 2919              	.LASF19:
 2920 0329 75636E74 		.ascii	"ucnt_t\000"
 2920      5F7400
 2921              	.LASF15:
 2922 0330 696E7433 		.ascii	"int32_t\000"
 2922      325F7400 
 2923              	.LASF18:
 2924 0338 636E745F 		.ascii	"cnt_t\000"
 2924      7400
 2925              	.LASF63:
 2926 033e 63684361 		.ascii	"chCacheReadObject\000"
 2926      63686552 
 2926      6561644F 
 2926      626A6563 
 2926      7400
 2927              	.LASF28:
 2928 0350 5F426F6F 		.ascii	"_Bool\000"
ARM GAS  C:\Users\DEVELO~1\AppData\Local\Temp\cc0E6Q26.s 			page 55


 2928      6C00
 2929              	.LASF76:
 2930 0356 706F7274 		.ascii	"port_unlock\000"
 2930      5F756E6C 
 2930      6F636B00 
 2931              	.LASF12:
 2932 0362 6C6F6E67 		.ascii	"long unsigned int\000"
 2932      20756E73 
 2932      69676E65 
 2932      6420696E 
 2932      7400
 2933              	.LASF62:
 2934 0374 63684361 		.ascii	"chCacheWriteObject\000"
 2934      63686557 
 2934      72697465 
 2934      4F626A65 
 2934      637400
 2935              	.LASF32:
 2936 0387 68617368 		.ascii	"hash_next\000"
 2936      5F6E6578 
 2936      7400
 2937              	.LASF74:
 2938 0391 63685379 		.ascii	"chSysUnlock\000"
 2938      73556E6C 
 2938      6F636B00 
 2939              	.LASF25:
 2940 039d 63685F73 		.ascii	"ch_semaphore\000"
 2940      656D6170 
 2940      686F7265 
 2940      00
 2941              	.LASF36:
 2942 03aa 6C72755F 		.ascii	"lru_next\000"
 2942      6E657874 
 2942      00
 2943              	.LASF49:
 2944 03b3 6F626A6E 		.ascii	"objn\000"
 2944      00
 2945              	.LASF60:
 2946 03b8 6F626A70 		.ascii	"objp\000"
 2946      00
 2947              	.LASF34:
 2948 03bd 6F635F6C 		.ascii	"oc_lru_header_t\000"
 2948      72755F68 
 2948      65616465 
 2948      725F7400 
 2949              	.LASF24:
 2950 03cd 63685F71 		.ascii	"ch_queue\000"
 2950      75657565 
 2950      00
 2951              	.LASF80:
 2952 03d6 433A5C50 		.ascii	"C:\\PROJET\\ChibiOS project\\ChibiOS_21.11.4\\demos"
 2952      524F4A45 
 2952      545C4368 
 2952      6962694F 
 2952      53207072 
 2953 0405 5C53544D 		.ascii	"\\STM32\\RT-STM32H743ZI_REV_XY-NUCLEO144_Quartz8M\000"
 2953      33325C52 
ARM GAS  C:\Users\DEVELO~1\AppData\Local\Temp\cc0E6Q26.s 			page 56


 2953      542D5354 
 2953      4D333248 
 2953      3734335A 
 2954              	.LASF58:
 2955 0435 63685365 		.ascii	"chSemSignalI\000"
 2955      6D536967 
 2955      6E616C49 
 2955      00
 2956              	.LASF26:
 2957 0442 71756575 		.ascii	"queue\000"
 2957      6500
 2958              	.LASF30:
 2959 0448 6F635F68 		.ascii	"oc_hash_header_t\000"
 2959      6173685F 
 2959      68656164 
 2959      65725F74 
 2959      00
 2960              	.LASF82:
 2961 0459 5F5F7365 		.ascii	"__set_BASEPRI\000"
 2961      745F4241 
 2961      53455052 
 2961      4900
 2962              	.LASF44:
 2963 0467 64707472 		.ascii	"dptr\000"
 2963      00
 2964              	.LASF37:
 2965 046c 6C72755F 		.ascii	"lru_prev\000"
 2965      70726576 
 2965      00
 2966              	.LASF23:
 2967 0475 70726576 		.ascii	"prev\000"
 2967      00
 2968              	.LASF17:
 2969 047a 6D73675F 		.ascii	"msg_t\000"
 2969      7400
 2970              	.LASF70:
 2971 0480 68617368 		.ascii	"hash_get_s\000"
 2971      5F676574 
 2971      5F7300
 2972              	.LASF22:
 2973 048b 6E657874 		.ascii	"next\000"
 2973      00
 2974              		.ident	"GCC: (Arm GNU Toolchain 11.3.Rel1) 11.3.1 20220712"
ARM GAS  C:\Users\DEVELO~1\AppData\Local\Temp\cc0E6Q26.s 			page 57


DEFINED SYMBOLS
                            *ABS*:00000000 chobjcaches.c
C:\Users\DEVELO~1\AppData\Local\Temp\cc0E6Q26.s:18     .text.chSysLock:00000000 $t
C:\Users\DEVELO~1\AppData\Local\Temp\cc0E6Q26.s:23     .text.chSysLock:00000000 chSysLock
C:\Users\DEVELO~1\AppData\Local\Temp\cc0E6Q26.s:77     .text.chSysUnlock:00000000 $t
C:\Users\DEVELO~1\AppData\Local\Temp\cc0E6Q26.s:82     .text.chSysUnlock:00000000 chSysUnlock
C:\Users\DEVELO~1\AppData\Local\Temp\cc0E6Q26.s:133    .text.chSemFastWaitI:00000000 $t
C:\Users\DEVELO~1\AppData\Local\Temp\cc0E6Q26.s:138    .text.chSemFastWaitI:00000000 chSemFastWaitI
C:\Users\DEVELO~1\AppData\Local\Temp\cc0E6Q26.s:176    .text.chSemFastSignalI:00000000 $t
C:\Users\DEVELO~1\AppData\Local\Temp\cc0E6Q26.s:181    .text.chSemFastSignalI:00000000 chSemFastSignalI
C:\Users\DEVELO~1\AppData\Local\Temp\cc0E6Q26.s:218    .text.chSemGetCounterI:00000000 $t
C:\Users\DEVELO~1\AppData\Local\Temp\cc0E6Q26.s:223    .text.chSemGetCounterI:00000000 chSemGetCounterI
C:\Users\DEVELO~1\AppData\Local\Temp\cc0E6Q26.s:256    .text.hash_get_s:00000000 $t
C:\Users\DEVELO~1\AppData\Local\Temp\cc0E6Q26.s:261    .text.hash_get_s:00000000 hash_get_s
C:\Users\DEVELO~1\AppData\Local\Temp\cc0E6Q26.s:348    .text.lru_get_last_s:00000000 $t
C:\Users\DEVELO~1\AppData\Local\Temp\cc0E6Q26.s:353    .text.lru_get_last_s:00000000 lru_get_last_s
C:\Users\DEVELO~1\AppData\Local\Temp\cc0E6Q26.s:468    .text.chCacheObjectInit:00000000 $t
C:\Users\DEVELO~1\AppData\Local\Temp\cc0E6Q26.s:474    .text.chCacheObjectInit:00000000 chCacheObjectInit
C:\Users\DEVELO~1\AppData\Local\Temp\cc0E6Q26.s:646    .text.chCacheGetObject:00000000 $t
C:\Users\DEVELO~1\AppData\Local\Temp\cc0E6Q26.s:652    .text.chCacheGetObject:00000000 chCacheGetObject
C:\Users\DEVELO~1\AppData\Local\Temp\cc0E6Q26.s:784    .text.chCacheReleaseObjectI:00000000 $t
C:\Users\DEVELO~1\AppData\Local\Temp\cc0E6Q26.s:790    .text.chCacheReleaseObjectI:00000000 chCacheReleaseObjectI
C:\Users\DEVELO~1\AppData\Local\Temp\cc0E6Q26.s:957    .text.chCacheReadObject:00000000 $t
C:\Users\DEVELO~1\AppData\Local\Temp\cc0E6Q26.s:963    .text.chCacheReadObject:00000000 chCacheReadObject
C:\Users\DEVELO~1\AppData\Local\Temp\cc0E6Q26.s:1009   .text.chCacheWriteObject:00000000 $t
C:\Users\DEVELO~1\AppData\Local\Temp\cc0E6Q26.s:1015   .text.chCacheWriteObject:00000000 chCacheWriteObject

UNDEFINED SYMBOLS
chSemWaitS
chSemObjectInit
chSemSignalI
