ARM GAS  C:\Users\DEVELO~1\AppData\Local\Temp\ccPWz6Q2.s 			page 1


   1              		.cpu cortex-m7
   2              		.arch armv7e-m
   3              		.fpu softvfp
   4              		.eabi_attribute 20, 1
   5              		.eabi_attribute 21, 1
   6              		.eabi_attribute 23, 3
   7              		.eabi_attribute 24, 1
   8              		.eabi_attribute 25, 1
   9              		.eabi_attribute 26, 1
  10              		.eabi_attribute 30, 6
  11              		.eabi_attribute 34, 1
  12              		.eabi_attribute 18, 4
  13              		.file	"chpipes.c"
  14              		.text
  15              	.Ltext0:
  16              		.cfi_sections	.debug_frame
  17              		.section	.text.chSysLock,"ax",%progbits
  18              		.align	1
  19              		.syntax unified
  20              		.thumb
  21              		.thumb_func
  22              		.type	chSysLock, %function
  23              	chSysLock:
  24              	.LFB202:
  25              		.file 1 "../../../os/rt/include/chsys.h"
  26              		.loc 1 407 36
  27              		.cfi_startproc
  28              		@ args = 0, pretend = 0, frame = 8
  29              		@ frame_needed = 1, uses_anonymous_args = 0
  30              		@ link register save eliminated.
  31 0000 80B4     		push	{r7}
  32              		.cfi_def_cfa_offset 4
  33              		.cfi_offset 7, -4
  34 0002 83B0     		sub	sp, sp, #12
  35              		.cfi_def_cfa_offset 16
  36 0004 00AF     		add	r7, sp, #0
  37              		.cfi_def_cfa_register 7
  38 0006 3023     		movs	r3, #48
  39 0008 7B60     		str	r3, [r7, #4]
  40              	.LBB14:
  41              	.LBB15:
  42              	.LBB16:
  43              	.LBB17:
  44              		.file 2 "../../../os/common/ext/ARM/CMSIS/Core/Include/cmsis_gcc.h"
  45              		.loc 2 493 3
  46 000a 7B68     		ldr	r3, [r7, #4]
  47              		.syntax unified
  48              	@ 493 "../../../os/common/ext/ARM/CMSIS/Core/Include/cmsis_gcc.h" 1
  49 000c 83F31188 		MSR basepri, r3
  50              	@ 0 "" 2
  51              		.loc 2 494 1
  52              		.thumb
  53              		.syntax unified
  54 0010 00BF     		nop
  55              	.LBE17:
  56              	.LBE16:
  57              		.file 3 "../../../os/common/ports/ARMv7-M/chcore.h"
ARM GAS  C:\Users\DEVELO~1\AppData\Local\Temp\ccPWz6Q2.s 			page 2


  58              		.loc 3 840 1
  59 0012 00BF     		nop
  60              	.LBE15:
  61              	.LBE14:
  62              		.loc 1 412 1
  63 0014 00BF     		nop
  64 0016 0C37     		adds	r7, r7, #12
  65              		.cfi_def_cfa_offset 4
  66 0018 BD46     		mov	sp, r7
  67              		.cfi_def_cfa_register 13
  68              		@ sp needed
  69 001a 80BC     		pop	{r7}
  70              		.cfi_restore 7
  71              		.cfi_def_cfa_offset 0
  72 001c 7047     		bx	lr
  73              		.cfi_endproc
  74              	.LFE202:
  75              		.size	chSysLock, .-chSysLock
  76              		.section	.text.chSysUnlock,"ax",%progbits
  77              		.align	1
  78              		.syntax unified
  79              		.thumb
  80              		.thumb_func
  81              		.type	chSysUnlock, %function
  82              	chSysUnlock:
  83              	.LFB203:
  84              		.loc 1 421 38
  85              		.cfi_startproc
  86              		@ args = 0, pretend = 0, frame = 8
  87              		@ frame_needed = 1, uses_anonymous_args = 0
  88              		@ link register save eliminated.
  89 0000 80B4     		push	{r7}
  90              		.cfi_def_cfa_offset 4
  91              		.cfi_offset 7, -4
  92 0002 83B0     		sub	sp, sp, #12
  93              		.cfi_def_cfa_offset 16
  94 0004 00AF     		add	r7, sp, #0
  95              		.cfi_def_cfa_register 7
  96 0006 0023     		movs	r3, #0
  97 0008 7B60     		str	r3, [r7, #4]
  98              	.LBB18:
  99              	.LBB19:
 100              	.LBB20:
 101              	.LBB21:
 102              		.loc 2 493 3
 103 000a 7B68     		ldr	r3, [r7, #4]
 104              		.syntax unified
 105              	@ 493 "../../../os/common/ext/ARM/CMSIS/Core/Include/cmsis_gcc.h" 1
 106 000c 83F31188 		MSR basepri, r3
 107              	@ 0 "" 2
 108              		.loc 2 494 1
 109              		.thumb
 110              		.syntax unified
 111 0010 00BF     		nop
 112              	.LBE21:
 113              	.LBE20:
 114              		.loc 3 854 1
ARM GAS  C:\Users\DEVELO~1\AppData\Local\Temp\ccPWz6Q2.s 			page 3


 115 0012 00BF     		nop
 116              	.LBE19:
 117              	.LBE18:
 118              		.loc 1 435 1
 119 0014 00BF     		nop
 120 0016 0C37     		adds	r7, r7, #12
 121              		.cfi_def_cfa_offset 4
 122 0018 BD46     		mov	sp, r7
 123              		.cfi_def_cfa_register 13
 124              		@ sp needed
 125 001a 80BC     		pop	{r7}
 126              		.cfi_restore 7
 127              		.cfi_def_cfa_offset 0
 128 001c 7047     		bx	lr
 129              		.cfi_endproc
 130              	.LFE203:
 131              		.size	chSysUnlock, .-chSysUnlock
 132              		.section	.text.chPipeGetSize,"ax",%progbits
 133              		.align	1
 134              		.syntax unified
 135              		.thumb
 136              		.thumb_func
 137              		.type	chPipeGetSize, %function
 138              	chPipeGetSize:
 139              	.LFB314:
 140              		.file 4 "../../../os/oslib/include/chpipes.h"
 141              		.loc 4 158 54
 142              		.cfi_startproc
 143              		@ args = 0, pretend = 0, frame = 8
 144              		@ frame_needed = 1, uses_anonymous_args = 0
 145              		@ link register save eliminated.
 146 0000 80B4     		push	{r7}
 147              		.cfi_def_cfa_offset 4
 148              		.cfi_offset 7, -4
 149 0002 83B0     		sub	sp, sp, #12
 150              		.cfi_def_cfa_offset 16
 151 0004 00AF     		add	r7, sp, #0
 152              		.cfi_def_cfa_register 7
 153 0006 7860     		str	r0, [r7, #4]
 154              		.loc 4 162 21
 155 0008 7B68     		ldr	r3, [r7, #4]
 156 000a 5A68     		ldr	r2, [r3, #4]
 157              		.loc 4 162 31
 158 000c 7B68     		ldr	r3, [r7, #4]
 159 000e 1B68     		ldr	r3, [r3]
 160              		.loc 4 162 27
 161 0010 D31A     		subs	r3, r2, r3
 162              		.loc 4 164 1
 163 0012 1846     		mov	r0, r3
 164 0014 0C37     		adds	r7, r7, #12
 165              		.cfi_def_cfa_offset 4
 166 0016 BD46     		mov	sp, r7
 167              		.cfi_def_cfa_register 13
 168              		@ sp needed
 169 0018 80BC     		pop	{r7}
 170              		.cfi_restore 7
 171              		.cfi_def_cfa_offset 0
ARM GAS  C:\Users\DEVELO~1\AppData\Local\Temp\ccPWz6Q2.s 			page 4


 172 001a 7047     		bx	lr
 173              		.cfi_endproc
 174              	.LFE314:
 175              		.size	chPipeGetSize, .-chPipeGetSize
 176              		.section	.text.chPipeGetUsedCount,"ax",%progbits
 177              		.align	1
 178              		.syntax unified
 179              		.thumb
 180              		.thumb_func
 181              		.type	chPipeGetUsedCount, %function
 182              	chPipeGetUsedCount:
 183              	.LFB315:
 184              		.loc 4 174 59
 185              		.cfi_startproc
 186              		@ args = 0, pretend = 0, frame = 8
 187              		@ frame_needed = 1, uses_anonymous_args = 0
 188              		@ link register save eliminated.
 189 0000 80B4     		push	{r7}
 190              		.cfi_def_cfa_offset 4
 191              		.cfi_offset 7, -4
 192 0002 83B0     		sub	sp, sp, #12
 193              		.cfi_def_cfa_offset 16
 194 0004 00AF     		add	r7, sp, #0
 195              		.cfi_def_cfa_register 7
 196 0006 7860     		str	r0, [r7, #4]
 197              		.loc 4 176 12
 198 0008 7B68     		ldr	r3, [r7, #4]
 199 000a 1B69     		ldr	r3, [r3, #16]
 200              		.loc 4 177 1
 201 000c 1846     		mov	r0, r3
 202 000e 0C37     		adds	r7, r7, #12
 203              		.cfi_def_cfa_offset 4
 204 0010 BD46     		mov	sp, r7
 205              		.cfi_def_cfa_register 13
 206              		@ sp needed
 207 0012 80BC     		pop	{r7}
 208              		.cfi_restore 7
 209              		.cfi_def_cfa_offset 0
 210 0014 7047     		bx	lr
 211              		.cfi_endproc
 212              	.LFE315:
 213              		.size	chPipeGetUsedCount, .-chPipeGetUsedCount
 214              		.section	.text.chPipeGetFreeCount,"ax",%progbits
 215              		.align	1
 216              		.syntax unified
 217              		.thumb
 218              		.thumb_func
 219              		.type	chPipeGetFreeCount, %function
 220              	chPipeGetFreeCount:
 221              	.LFB316:
 222              		.loc 4 187 59
 223              		.cfi_startproc
 224              		@ args = 0, pretend = 0, frame = 8
 225              		@ frame_needed = 1, uses_anonymous_args = 0
 226 0000 90B5     		push	{r4, r7, lr}
 227              		.cfi_def_cfa_offset 12
 228              		.cfi_offset 4, -12
ARM GAS  C:\Users\DEVELO~1\AppData\Local\Temp\ccPWz6Q2.s 			page 5


 229              		.cfi_offset 7, -8
 230              		.cfi_offset 14, -4
 231 0002 83B0     		sub	sp, sp, #12
 232              		.cfi_def_cfa_offset 24
 233 0004 00AF     		add	r7, sp, #0
 234              		.cfi_def_cfa_register 7
 235 0006 7860     		str	r0, [r7, #4]
 236              		.loc 4 189 10
 237 0008 7868     		ldr	r0, [r7, #4]
 238 000a FFF7FEFF 		bl	chPipeGetSize
 239 000e 0446     		mov	r4, r0
 240              		.loc 4 189 30
 241 0010 7868     		ldr	r0, [r7, #4]
 242 0012 FFF7FEFF 		bl	chPipeGetUsedCount
 243 0016 0346     		mov	r3, r0
 244              		.loc 4 189 28
 245 0018 E31A     		subs	r3, r4, r3
 246              		.loc 4 190 1
 247 001a 1846     		mov	r0, r3
 248 001c 0C37     		adds	r7, r7, #12
 249              		.cfi_def_cfa_offset 12
 250 001e BD46     		mov	sp, r7
 251              		.cfi_def_cfa_register 13
 252              		@ sp needed
 253 0020 90BD     		pop	{r4, r7, pc}
 254              		.cfi_endproc
 255              	.LFE316:
 256              		.size	chPipeGetFreeCount, .-chPipeGetFreeCount
 257              		.section	.text.pipe_write,"ax",%progbits
 258              		.align	1
 259              		.syntax unified
 260              		.thumb
 261              		.thumb_func
 262              		.type	pipe_write, %function
 263              	pipe_write:
 264              	.LFB346:
 265              		.file 5 "../../../os/oslib/src/chpipes.c"
 266              		.loc 5 105 67
 267              		.cfi_startproc
 268              		@ args = 0, pretend = 0, frame = 24
 269              		@ frame_needed = 1, uses_anonymous_args = 0
 270 0000 80B5     		push	{r7, lr}
 271              		.cfi_def_cfa_offset 8
 272              		.cfi_offset 7, -8
 273              		.cfi_offset 14, -4
 274 0002 86B0     		sub	sp, sp, #24
 275              		.cfi_def_cfa_offset 32
 276 0004 00AF     		add	r7, sp, #0
 277              		.cfi_def_cfa_register 7
 278 0006 F860     		str	r0, [r7, #12]
 279 0008 B960     		str	r1, [r7, #8]
 280 000a 7A60     		str	r2, [r7, #4]
 281              		.loc 5 108 3
 282 000c FB68     		ldr	r3, [r7, #12]
 283 000e 2033     		adds	r3, r3, #32
 284 0010 1846     		mov	r0, r3
 285 0012 FFF7FEFF 		bl	chMtxLock
ARM GAS  C:\Users\DEVELO~1\AppData\Local\Temp\ccPWz6Q2.s 			page 6


 286              		.loc 5 111 11
 287 0016 F868     		ldr	r0, [r7, #12]
 288 0018 FFF7FEFF 		bl	chPipeGetFreeCount
 289 001c 0246     		mov	r2, r0
 290              		.loc 5 111 6
 291 001e 7B68     		ldr	r3, [r7, #4]
 292 0020 9342     		cmp	r3, r2
 293 0022 03D9     		bls	.L10
 294              		.loc 5 112 9
 295 0024 F868     		ldr	r0, [r7, #12]
 296 0026 FFF7FEFF 		bl	chPipeGetFreeCount
 297 002a 7860     		str	r0, [r7, #4]
 298              	.L10:
 299              		.loc 5 114 11
 300 002c FB68     		ldr	r3, [r7, #12]
 301 002e 1A69     		ldr	r2, [r3, #16]
 302 0030 7B68     		ldr	r3, [r7, #4]
 303 0032 1A44     		add	r2, r2, r3
 304 0034 FB68     		ldr	r3, [r7, #12]
 305 0036 1A61     		str	r2, [r3, #16]
 306              		.loc 5 118 19
 307 0038 FB68     		ldr	r3, [r7, #12]
 308 003a 5A68     		ldr	r2, [r3, #4]
 309              		.loc 5 118 29
 310 003c FB68     		ldr	r3, [r7, #12]
 311 003e 9B68     		ldr	r3, [r3, #8]
 312              		.loc 5 118 25
 313 0040 D31A     		subs	r3, r2, r3
 314              		.loc 5 118 6
 315 0042 7B61     		str	r3, [r7, #20]
 316              		.loc 5 121 6
 317 0044 7A68     		ldr	r2, [r7, #4]
 318 0046 7B69     		ldr	r3, [r7, #20]
 319 0048 9A42     		cmp	r2, r3
 320 004a 0DD2     		bcs	.L11
 321              		.loc 5 122 22
 322 004c FB68     		ldr	r3, [r7, #12]
 323 004e 9B68     		ldr	r3, [r3, #8]
 324              		.loc 5 122 5
 325 0050 7A68     		ldr	r2, [r7, #4]
 326 0052 B968     		ldr	r1, [r7, #8]
 327 0054 1846     		mov	r0, r3
 328 0056 FFF7FEFF 		bl	memcpy
 329              		.loc 5 123 15
 330 005a FB68     		ldr	r3, [r7, #12]
 331 005c 9A68     		ldr	r2, [r3, #8]
 332 005e 7B68     		ldr	r3, [r7, #4]
 333 0060 1A44     		add	r2, r2, r3
 334 0062 FB68     		ldr	r3, [r7, #12]
 335 0064 9A60     		str	r2, [r3, #8]
 336 0066 2BE0     		b	.L12
 337              	.L11:
 338              		.loc 5 125 11
 339 0068 7A68     		ldr	r2, [r7, #4]
 340 006a 7B69     		ldr	r3, [r7, #20]
 341 006c 9A42     		cmp	r2, r3
 342 006e 1CD9     		bls	.L13
ARM GAS  C:\Users\DEVELO~1\AppData\Local\Temp\ccPWz6Q2.s 			page 7


 343              		.loc 5 126 22
 344 0070 FB68     		ldr	r3, [r7, #12]
 345 0072 9B68     		ldr	r3, [r3, #8]
 346              		.loc 5 126 5
 347 0074 7A69     		ldr	r2, [r7, #20]
 348 0076 B968     		ldr	r1, [r7, #8]
 349 0078 1846     		mov	r0, r3
 350 007a FFF7FEFF 		bl	memcpy
 351              		.loc 5 127 8
 352 007e BA68     		ldr	r2, [r7, #8]
 353 0080 7B69     		ldr	r3, [r7, #20]
 354 0082 1344     		add	r3, r3, r2
 355 0084 BB60     		str	r3, [r7, #8]
 356              		.loc 5 128 8
 357 0086 7A68     		ldr	r2, [r7, #4]
 358 0088 7B69     		ldr	r3, [r7, #20]
 359 008a D31A     		subs	r3, r2, r3
 360 008c 3B61     		str	r3, [r7, #16]
 361              		.loc 5 129 22
 362 008e FB68     		ldr	r3, [r7, #12]
 363 0090 1B68     		ldr	r3, [r3]
 364              		.loc 5 129 5
 365 0092 3A69     		ldr	r2, [r7, #16]
 366 0094 B968     		ldr	r1, [r7, #8]
 367 0096 1846     		mov	r0, r3
 368 0098 FFF7FEFF 		bl	memcpy
 369              		.loc 5 130 19
 370 009c FB68     		ldr	r3, [r7, #12]
 371 009e 1A68     		ldr	r2, [r3]
 372              		.loc 5 130 28
 373 00a0 3B69     		ldr	r3, [r7, #16]
 374 00a2 1A44     		add	r2, r2, r3
 375              		.loc 5 130 15
 376 00a4 FB68     		ldr	r3, [r7, #12]
 377 00a6 9A60     		str	r2, [r3, #8]
 378 00a8 0AE0     		b	.L12
 379              	.L13:
 380              		.loc 5 133 22
 381 00aa FB68     		ldr	r3, [r7, #12]
 382 00ac 9B68     		ldr	r3, [r3, #8]
 383              		.loc 5 133 5
 384 00ae 7A68     		ldr	r2, [r7, #4]
 385 00b0 B968     		ldr	r1, [r7, #8]
 386 00b2 1846     		mov	r0, r3
 387 00b4 FFF7FEFF 		bl	memcpy
 388              		.loc 5 134 19
 389 00b8 FB68     		ldr	r3, [r7, #12]
 390 00ba 1A68     		ldr	r2, [r3]
 391              		.loc 5 134 15
 392 00bc FB68     		ldr	r3, [r7, #12]
 393 00be 9A60     		str	r2, [r3, #8]
 394              	.L12:
 395              		.loc 5 137 3
 396 00c0 FB68     		ldr	r3, [r7, #12]
 397 00c2 2033     		adds	r3, r3, #32
 398 00c4 1846     		mov	r0, r3
 399 00c6 FFF7FEFF 		bl	chMtxUnlock
ARM GAS  C:\Users\DEVELO~1\AppData\Local\Temp\ccPWz6Q2.s 			page 8


 400              		.loc 5 139 10
 401 00ca 7B68     		ldr	r3, [r7, #4]
 402              		.loc 5 140 1
 403 00cc 1846     		mov	r0, r3
 404 00ce 1837     		adds	r7, r7, #24
 405              		.cfi_def_cfa_offset 8
 406 00d0 BD46     		mov	sp, r7
 407              		.cfi_def_cfa_register 13
 408              		@ sp needed
 409 00d2 80BD     		pop	{r7, pc}
 410              		.cfi_endproc
 411              	.LFE346:
 412              		.size	pipe_write, .-pipe_write
 413              		.section	.text.pipe_read,"ax",%progbits
 414              		.align	1
 415              		.syntax unified
 416              		.thumb
 417              		.thumb_func
 418              		.type	pipe_read, %function
 419              	pipe_read:
 420              	.LFB347:
 421              		.loc 5 156 60
 422              		.cfi_startproc
 423              		@ args = 0, pretend = 0, frame = 24
 424              		@ frame_needed = 1, uses_anonymous_args = 0
 425 0000 80B5     		push	{r7, lr}
 426              		.cfi_def_cfa_offset 8
 427              		.cfi_offset 7, -8
 428              		.cfi_offset 14, -4
 429 0002 86B0     		sub	sp, sp, #24
 430              		.cfi_def_cfa_offset 32
 431 0004 00AF     		add	r7, sp, #0
 432              		.cfi_def_cfa_register 7
 433 0006 F860     		str	r0, [r7, #12]
 434 0008 B960     		str	r1, [r7, #8]
 435 000a 7A60     		str	r2, [r7, #4]
 436              		.loc 5 159 3
 437 000c FB68     		ldr	r3, [r7, #12]
 438 000e 2033     		adds	r3, r3, #32
 439 0010 1846     		mov	r0, r3
 440 0012 FFF7FEFF 		bl	chMtxLock
 441              		.loc 5 162 11
 442 0016 F868     		ldr	r0, [r7, #12]
 443 0018 FFF7FEFF 		bl	chPipeGetUsedCount
 444 001c 0246     		mov	r2, r0
 445              		.loc 5 162 6
 446 001e 7B68     		ldr	r3, [r7, #4]
 447 0020 9342     		cmp	r3, r2
 448 0022 03D9     		bls	.L16
 449              		.loc 5 163 9
 450 0024 F868     		ldr	r0, [r7, #12]
 451 0026 FFF7FEFF 		bl	chPipeGetUsedCount
 452 002a 7860     		str	r0, [r7, #4]
 453              	.L16:
 454              		.loc 5 165 11
 455 002c FB68     		ldr	r3, [r7, #12]
 456 002e 1A69     		ldr	r2, [r3, #16]
ARM GAS  C:\Users\DEVELO~1\AppData\Local\Temp\ccPWz6Q2.s 			page 9


 457 0030 7B68     		ldr	r3, [r7, #4]
 458 0032 D21A     		subs	r2, r2, r3
 459 0034 FB68     		ldr	r3, [r7, #12]
 460 0036 1A61     		str	r2, [r3, #16]
 461              		.loc 5 169 19
 462 0038 FB68     		ldr	r3, [r7, #12]
 463 003a 5A68     		ldr	r2, [r3, #4]
 464              		.loc 5 169 29
 465 003c FB68     		ldr	r3, [r7, #12]
 466 003e DB68     		ldr	r3, [r3, #12]
 467              		.loc 5 169 25
 468 0040 D31A     		subs	r3, r2, r3
 469              		.loc 5 169 6
 470 0042 7B61     		str	r3, [r7, #20]
 471              		.loc 5 172 6
 472 0044 7A68     		ldr	r2, [r7, #4]
 473 0046 7B69     		ldr	r3, [r7, #20]
 474 0048 9A42     		cmp	r2, r3
 475 004a 0DD2     		bcs	.L17
 476              		.loc 5 173 34
 477 004c FB68     		ldr	r3, [r7, #12]
 478 004e DB68     		ldr	r3, [r3, #12]
 479              		.loc 5 173 5
 480 0050 7A68     		ldr	r2, [r7, #4]
 481 0052 1946     		mov	r1, r3
 482 0054 B868     		ldr	r0, [r7, #8]
 483 0056 FFF7FEFF 		bl	memcpy
 484              		.loc 5 174 15
 485 005a FB68     		ldr	r3, [r7, #12]
 486 005c DA68     		ldr	r2, [r3, #12]
 487 005e 7B68     		ldr	r3, [r7, #4]
 488 0060 1A44     		add	r2, r2, r3
 489 0062 FB68     		ldr	r3, [r7, #12]
 490 0064 DA60     		str	r2, [r3, #12]
 491 0066 2BE0     		b	.L18
 492              	.L17:
 493              		.loc 5 176 11
 494 0068 7A68     		ldr	r2, [r7, #4]
 495 006a 7B69     		ldr	r3, [r7, #20]
 496 006c 9A42     		cmp	r2, r3
 497 006e 1CD9     		bls	.L19
 498              		.loc 5 177 34
 499 0070 FB68     		ldr	r3, [r7, #12]
 500 0072 DB68     		ldr	r3, [r3, #12]
 501              		.loc 5 177 5
 502 0074 7A69     		ldr	r2, [r7, #20]
 503 0076 1946     		mov	r1, r3
 504 0078 B868     		ldr	r0, [r7, #8]
 505 007a FFF7FEFF 		bl	memcpy
 506              		.loc 5 178 8
 507 007e BA68     		ldr	r2, [r7, #8]
 508 0080 7B69     		ldr	r3, [r7, #20]
 509 0082 1344     		add	r3, r3, r2
 510 0084 BB60     		str	r3, [r7, #8]
 511              		.loc 5 179 8
 512 0086 7A68     		ldr	r2, [r7, #4]
 513 0088 7B69     		ldr	r3, [r7, #20]
ARM GAS  C:\Users\DEVELO~1\AppData\Local\Temp\ccPWz6Q2.s 			page 10


 514 008a D31A     		subs	r3, r2, r3
 515 008c 3B61     		str	r3, [r7, #16]
 516              		.loc 5 180 34
 517 008e FB68     		ldr	r3, [r7, #12]
 518 0090 1B68     		ldr	r3, [r3]
 519              		.loc 5 180 5
 520 0092 3A69     		ldr	r2, [r7, #16]
 521 0094 1946     		mov	r1, r3
 522 0096 B868     		ldr	r0, [r7, #8]
 523 0098 FFF7FEFF 		bl	memcpy
 524              		.loc 5 181 19
 525 009c FB68     		ldr	r3, [r7, #12]
 526 009e 1A68     		ldr	r2, [r3]
 527              		.loc 5 181 28
 528 00a0 3B69     		ldr	r3, [r7, #16]
 529 00a2 1A44     		add	r2, r2, r3
 530              		.loc 5 181 15
 531 00a4 FB68     		ldr	r3, [r7, #12]
 532 00a6 DA60     		str	r2, [r3, #12]
 533 00a8 0AE0     		b	.L18
 534              	.L19:
 535              		.loc 5 184 34
 536 00aa FB68     		ldr	r3, [r7, #12]
 537 00ac DB68     		ldr	r3, [r3, #12]
 538              		.loc 5 184 5
 539 00ae 7A68     		ldr	r2, [r7, #4]
 540 00b0 1946     		mov	r1, r3
 541 00b2 B868     		ldr	r0, [r7, #8]
 542 00b4 FFF7FEFF 		bl	memcpy
 543              		.loc 5 185 19
 544 00b8 FB68     		ldr	r3, [r7, #12]
 545 00ba 1A68     		ldr	r2, [r3]
 546              		.loc 5 185 15
 547 00bc FB68     		ldr	r3, [r7, #12]
 548 00be DA60     		str	r2, [r3, #12]
 549              	.L18:
 550              		.loc 5 188 3
 551 00c0 FB68     		ldr	r3, [r7, #12]
 552 00c2 2033     		adds	r3, r3, #32
 553 00c4 1846     		mov	r0, r3
 554 00c6 FFF7FEFF 		bl	chMtxUnlock
 555              		.loc 5 190 10
 556 00ca 7B68     		ldr	r3, [r7, #4]
 557              		.loc 5 191 1
 558 00cc 1846     		mov	r0, r3
 559 00ce 1837     		adds	r7, r7, #24
 560              		.cfi_def_cfa_offset 8
 561 00d0 BD46     		mov	sp, r7
 562              		.cfi_def_cfa_register 13
 563              		@ sp needed
 564 00d2 80BD     		pop	{r7, pc}
 565              		.cfi_endproc
 566              	.LFE347:
 567              		.size	pipe_read, .-pipe_read
 568              		.section	.text.chPipeObjectInit,"ax",%progbits
 569              		.align	1
 570              		.global	chPipeObjectInit
ARM GAS  C:\Users\DEVELO~1\AppData\Local\Temp\ccPWz6Q2.s 			page 11


 571              		.syntax unified
 572              		.thumb
 573              		.thumb_func
 574              		.type	chPipeObjectInit, %function
 575              	chPipeObjectInit:
 576              	.LFB348:
 577              		.loc 5 207 59
 578              		.cfi_startproc
 579              		@ args = 0, pretend = 0, frame = 16
 580              		@ frame_needed = 1, uses_anonymous_args = 0
 581 0000 80B5     		push	{r7, lr}
 582              		.cfi_def_cfa_offset 8
 583              		.cfi_offset 7, -8
 584              		.cfi_offset 14, -4
 585 0002 84B0     		sub	sp, sp, #16
 586              		.cfi_def_cfa_offset 24
 587 0004 00AF     		add	r7, sp, #0
 588              		.cfi_def_cfa_register 7
 589 0006 F860     		str	r0, [r7, #12]
 590 0008 B960     		str	r1, [r7, #8]
 591 000a 7A60     		str	r2, [r7, #4]
 592              		.loc 5 211 14
 593 000c FB68     		ldr	r3, [r7, #12]
 594 000e BA68     		ldr	r2, [r7, #8]
 595 0010 1A60     		str	r2, [r3]
 596              		.loc 5 212 14
 597 0012 FB68     		ldr	r3, [r7, #12]
 598 0014 BA68     		ldr	r2, [r7, #8]
 599 0016 DA60     		str	r2, [r3, #12]
 600              		.loc 5 213 14
 601 0018 FB68     		ldr	r3, [r7, #12]
 602 001a BA68     		ldr	r2, [r7, #8]
 603 001c 9A60     		str	r2, [r3, #8]
 604              		.loc 5 214 16
 605 001e BA68     		ldr	r2, [r7, #8]
 606 0020 7B68     		ldr	r3, [r7, #4]
 607 0022 1A44     		add	r2, r2, r3
 608              		.loc 5 214 14
 609 0024 FB68     		ldr	r3, [r7, #12]
 610 0026 5A60     		str	r2, [r3, #4]
 611              		.loc 5 215 14
 612 0028 FB68     		ldr	r3, [r7, #12]
 613 002a 0022     		movs	r2, #0
 614 002c 1A61     		str	r2, [r3, #16]
 615              		.loc 5 216 14
 616 002e FB68     		ldr	r3, [r7, #12]
 617 0030 0022     		movs	r2, #0
 618 0032 1A75     		strb	r2, [r3, #20]
 619              		.loc 5 217 14
 620 0034 FB68     		ldr	r3, [r7, #12]
 621 0036 0022     		movs	r2, #0
 622 0038 9A61     		str	r2, [r3, #24]
 623              		.loc 5 218 14
 624 003a FB68     		ldr	r3, [r7, #12]
 625 003c 0022     		movs	r2, #0
 626 003e DA61     		str	r2, [r3, #28]
 627              		.loc 5 219 3
ARM GAS  C:\Users\DEVELO~1\AppData\Local\Temp\ccPWz6Q2.s 			page 12


 628 0040 FB68     		ldr	r3, [r7, #12]
 629 0042 2033     		adds	r3, r3, #32
 630 0044 1846     		mov	r0, r3
 631 0046 FFF7FEFF 		bl	chMtxObjectInit
 632              		.loc 5 220 3
 633 004a FB68     		ldr	r3, [r7, #12]
 634 004c 3033     		adds	r3, r3, #48
 635 004e 1846     		mov	r0, r3
 636 0050 FFF7FEFF 		bl	chMtxObjectInit
 637              		.loc 5 221 3
 638 0054 FB68     		ldr	r3, [r7, #12]
 639 0056 4033     		adds	r3, r3, #64
 640 0058 1846     		mov	r0, r3
 641 005a FFF7FEFF 		bl	chMtxObjectInit
 642              		.loc 5 222 1
 643 005e 00BF     		nop
 644 0060 1037     		adds	r7, r7, #16
 645              		.cfi_def_cfa_offset 8
 646 0062 BD46     		mov	sp, r7
 647              		.cfi_def_cfa_register 13
 648              		@ sp needed
 649 0064 80BD     		pop	{r7, pc}
 650              		.cfi_endproc
 651              	.LFE348:
 652              		.size	chPipeObjectInit, .-chPipeObjectInit
 653              		.section	.text.chPipeReset,"ax",%progbits
 654              		.align	1
 655              		.global	chPipeReset
 656              		.syntax unified
 657              		.thumb
 658              		.thumb_func
 659              		.type	chPipeReset, %function
 660              	chPipeReset:
 661              	.LFB349:
 662              		.loc 5 236 30
 663              		.cfi_startproc
 664              		@ args = 0, pretend = 0, frame = 8
 665              		@ frame_needed = 1, uses_anonymous_args = 0
 666 0000 80B5     		push	{r7, lr}
 667              		.cfi_def_cfa_offset 8
 668              		.cfi_offset 7, -8
 669              		.cfi_offset 14, -4
 670 0002 82B0     		sub	sp, sp, #8
 671              		.cfi_def_cfa_offset 16
 672 0004 00AF     		add	r7, sp, #0
 673              		.cfi_def_cfa_register 7
 674 0006 7860     		str	r0, [r7, #4]
 675              		.loc 5 240 3
 676 0008 7B68     		ldr	r3, [r7, #4]
 677 000a 2033     		adds	r3, r3, #32
 678 000c 1846     		mov	r0, r3
 679 000e FFF7FEFF 		bl	chMtxLock
 680              		.loc 5 242 17
 681 0012 7B68     		ldr	r3, [r7, #4]
 682 0014 1A68     		ldr	r2, [r3]
 683              		.loc 5 242 13
 684 0016 7B68     		ldr	r3, [r7, #4]
ARM GAS  C:\Users\DEVELO~1\AppData\Local\Temp\ccPWz6Q2.s 			page 13


 685 0018 9A60     		str	r2, [r3, #8]
 686              		.loc 5 243 17
 687 001a 7B68     		ldr	r3, [r7, #4]
 688 001c 1A68     		ldr	r2, [r3]
 689              		.loc 5 243 13
 690 001e 7B68     		ldr	r3, [r7, #4]
 691 0020 DA60     		str	r2, [r3, #12]
 692              		.loc 5 244 13
 693 0022 7B68     		ldr	r3, [r7, #4]
 694 0024 0022     		movs	r2, #0
 695 0026 1A61     		str	r2, [r3, #16]
 696              		.loc 5 245 13
 697 0028 7B68     		ldr	r3, [r7, #4]
 698 002a 0122     		movs	r2, #1
 699 002c 1A75     		strb	r2, [r3, #20]
 700              		.loc 5 247 3
 701 002e FFF7FEFF 		bl	chSysLock
 702              		.loc 5 248 3
 703 0032 7B68     		ldr	r3, [r7, #4]
 704 0034 1833     		adds	r3, r3, #24
 705 0036 6FF00101 		mvn	r1, #1
 706 003a 1846     		mov	r0, r3
 707 003c FFF7FEFF 		bl	chThdResumeI
 708              		.loc 5 249 3
 709 0040 7B68     		ldr	r3, [r7, #4]
 710 0042 1C33     		adds	r3, r3, #28
 711 0044 6FF00101 		mvn	r1, #1
 712 0048 1846     		mov	r0, r3
 713 004a FFF7FEFF 		bl	chThdResumeI
 714              		.loc 5 250 3
 715 004e FFF7FEFF 		bl	chSchRescheduleS
 716              		.loc 5 251 3
 717 0052 FFF7FEFF 		bl	chSysUnlock
 718              		.loc 5 253 3
 719 0056 7B68     		ldr	r3, [r7, #4]
 720 0058 2033     		adds	r3, r3, #32
 721 005a 1846     		mov	r0, r3
 722 005c FFF7FEFF 		bl	chMtxUnlock
 723              		.loc 5 254 1
 724 0060 00BF     		nop
 725 0062 0837     		adds	r7, r7, #8
 726              		.cfi_def_cfa_offset 8
 727 0064 BD46     		mov	sp, r7
 728              		.cfi_def_cfa_register 13
 729              		@ sp needed
 730 0066 80BD     		pop	{r7, pc}
 731              		.cfi_endproc
 732              	.LFE349:
 733              		.size	chPipeReset, .-chPipeReset
 734              		.section	.text.chPipeWriteTimeout,"ax",%progbits
 735              		.align	1
 736              		.global	chPipeWriteTimeout
 737              		.syntax unified
 738              		.thumb
 739              		.thumb_func
 740              		.type	chPipeWriteTimeout, %function
 741              	chPipeWriteTimeout:
ARM GAS  C:\Users\DEVELO~1\AppData\Local\Temp\ccPWz6Q2.s 			page 14


 742              	.LFB350:
 743              		.loc 5 279 60
 744              		.cfi_startproc
 745              		@ args = 0, pretend = 0, frame = 32
 746              		@ frame_needed = 1, uses_anonymous_args = 0
 747 0000 80B5     		push	{r7, lr}
 748              		.cfi_def_cfa_offset 8
 749              		.cfi_offset 7, -8
 750              		.cfi_offset 14, -4
 751 0002 88B0     		sub	sp, sp, #32
 752              		.cfi_def_cfa_offset 40
 753 0004 00AF     		add	r7, sp, #0
 754              		.cfi_def_cfa_register 7
 755 0006 F860     		str	r0, [r7, #12]
 756 0008 B960     		str	r1, [r7, #8]
 757 000a 7A60     		str	r2, [r7, #4]
 758 000c 3B60     		str	r3, [r7]
 759              		.loc 5 280 10
 760 000e 7B68     		ldr	r3, [r7, #4]
 761 0010 FB61     		str	r3, [r7, #28]
 762              		.loc 5 285 9
 763 0012 FB68     		ldr	r3, [r7, #12]
 764 0014 1B7D     		ldrb	r3, [r3, #20]	@ zero_extendqisi2
 765              		.loc 5 285 6
 766 0016 002B     		cmp	r3, #0
 767 0018 01D0     		beq	.L24
 768              		.loc 5 286 12
 769 001a 0023     		movs	r3, #0
 770 001c 36E0     		b	.L25
 771              	.L24:
 772              		.loc 5 289 3
 773 001e FB68     		ldr	r3, [r7, #12]
 774 0020 3033     		adds	r3, r3, #48
 775 0022 1846     		mov	r0, r3
 776 0024 FFF7FEFF 		bl	chMtxLock
 777              		.loc 5 291 9
 778 0028 25E0     		b	.L26
 779              	.L29:
 780              	.LBB22:
 781              		.loc 5 294 12
 782 002a 7A68     		ldr	r2, [r7, #4]
 783 002c B968     		ldr	r1, [r7, #8]
 784 002e F868     		ldr	r0, [r7, #12]
 785 0030 FFF7FEFF 		bl	pipe_write
 786 0034 B861     		str	r0, [r7, #24]
 787              		.loc 5 295 8
 788 0036 BB69     		ldr	r3, [r7, #24]
 789 0038 002B     		cmp	r3, #0
 790 003a 0ED1     		bne	.L27
 791              	.LBB23:
 792              		.loc 5 298 7
 793 003c FFF7FEFF 		bl	chSysLock
 794              		.loc 5 299 13
 795 0040 FB68     		ldr	r3, [r7, #12]
 796 0042 1833     		adds	r3, r3, #24
 797 0044 3968     		ldr	r1, [r7]
 798 0046 1846     		mov	r0, r3
ARM GAS  C:\Users\DEVELO~1\AppData\Local\Temp\ccPWz6Q2.s 			page 15


 799 0048 FFF7FEFF 		bl	chThdSuspendTimeoutS
 800 004c 7861     		str	r0, [r7, #20]
 801              		.loc 5 300 7
 802 004e FFF7FEFF 		bl	chSysUnlock
 803              		.loc 5 303 10
 804 0052 7B69     		ldr	r3, [r7, #20]
 805 0054 002B     		cmp	r3, #0
 806 0056 0ED0     		beq	.L26
 807              		.loc 5 304 9
 808 0058 10E0     		b	.L28
 809              	.L27:
 810              	.LBE23:
 811              		.loc 5 308 10
 812 005a 7A68     		ldr	r2, [r7, #4]
 813 005c BB69     		ldr	r3, [r7, #24]
 814 005e D31A     		subs	r3, r2, r3
 815 0060 7B60     		str	r3, [r7, #4]
 816              		.loc 5 309 10
 817 0062 BA68     		ldr	r2, [r7, #8]
 818 0064 BB69     		ldr	r3, [r7, #24]
 819 0066 1344     		add	r3, r3, r2
 820 0068 BB60     		str	r3, [r7, #8]
 821              		.loc 5 312 7
 822 006a FB68     		ldr	r3, [r7, #12]
 823 006c 1C33     		adds	r3, r3, #28
 824 006e 0021     		movs	r1, #0
 825 0070 1846     		mov	r0, r3
 826 0072 FFF7FEFF 		bl	chThdResume
 827              	.L26:
 828              	.LBE22:
 829              		.loc 5 291 12
 830 0076 7B68     		ldr	r3, [r7, #4]
 831 0078 002B     		cmp	r3, #0
 832 007a D6D1     		bne	.L29
 833              	.L28:
 834              		.loc 5 316 3
 835 007c FB68     		ldr	r3, [r7, #12]
 836 007e 3033     		adds	r3, r3, #48
 837 0080 1846     		mov	r0, r3
 838 0082 FFF7FEFF 		bl	chMtxUnlock
 839              		.loc 5 318 14
 840 0086 FA69     		ldr	r2, [r7, #28]
 841 0088 7B68     		ldr	r3, [r7, #4]
 842 008a D31A     		subs	r3, r2, r3
 843              	.L25:
 844              		.loc 5 319 1
 845 008c 1846     		mov	r0, r3
 846 008e 2037     		adds	r7, r7, #32
 847              		.cfi_def_cfa_offset 8
 848 0090 BD46     		mov	sp, r7
 849              		.cfi_def_cfa_register 13
 850              		@ sp needed
 851 0092 80BD     		pop	{r7, pc}
 852              		.cfi_endproc
 853              	.LFE350:
 854              		.size	chPipeWriteTimeout, .-chPipeWriteTimeout
 855              		.section	.text.chPipeReadTimeout,"ax",%progbits
ARM GAS  C:\Users\DEVELO~1\AppData\Local\Temp\ccPWz6Q2.s 			page 16


 856              		.align	1
 857              		.global	chPipeReadTimeout
 858              		.syntax unified
 859              		.thumb
 860              		.thumb_func
 861              		.type	chPipeReadTimeout, %function
 862              	chPipeReadTimeout:
 863              	.LFB351:
 864              		.loc 5 344 59
 865              		.cfi_startproc
 866              		@ args = 0, pretend = 0, frame = 32
 867              		@ frame_needed = 1, uses_anonymous_args = 0
 868 0000 80B5     		push	{r7, lr}
 869              		.cfi_def_cfa_offset 8
 870              		.cfi_offset 7, -8
 871              		.cfi_offset 14, -4
 872 0002 88B0     		sub	sp, sp, #32
 873              		.cfi_def_cfa_offset 40
 874 0004 00AF     		add	r7, sp, #0
 875              		.cfi_def_cfa_register 7
 876 0006 F860     		str	r0, [r7, #12]
 877 0008 B960     		str	r1, [r7, #8]
 878 000a 7A60     		str	r2, [r7, #4]
 879 000c 3B60     		str	r3, [r7]
 880              		.loc 5 345 10
 881 000e 7B68     		ldr	r3, [r7, #4]
 882 0010 FB61     		str	r3, [r7, #28]
 883              		.loc 5 350 9
 884 0012 FB68     		ldr	r3, [r7, #12]
 885 0014 1B7D     		ldrb	r3, [r3, #20]	@ zero_extendqisi2
 886              		.loc 5 350 6
 887 0016 002B     		cmp	r3, #0
 888 0018 01D0     		beq	.L31
 889              		.loc 5 351 12
 890 001a 0023     		movs	r3, #0
 891 001c 36E0     		b	.L32
 892              	.L31:
 893              		.loc 5 354 3
 894 001e FB68     		ldr	r3, [r7, #12]
 895 0020 4033     		adds	r3, r3, #64
 896 0022 1846     		mov	r0, r3
 897 0024 FFF7FEFF 		bl	chMtxLock
 898              		.loc 5 356 9
 899 0028 25E0     		b	.L33
 900              	.L36:
 901              	.LBB24:
 902              		.loc 5 359 12
 903 002a 7A68     		ldr	r2, [r7, #4]
 904 002c B968     		ldr	r1, [r7, #8]
 905 002e F868     		ldr	r0, [r7, #12]
 906 0030 FFF7FEFF 		bl	pipe_read
 907 0034 B861     		str	r0, [r7, #24]
 908              		.loc 5 360 8
 909 0036 BB69     		ldr	r3, [r7, #24]
 910 0038 002B     		cmp	r3, #0
 911 003a 0ED1     		bne	.L34
 912              	.LBB25:
ARM GAS  C:\Users\DEVELO~1\AppData\Local\Temp\ccPWz6Q2.s 			page 17


 913              		.loc 5 363 7
 914 003c FFF7FEFF 		bl	chSysLock
 915              		.loc 5 364 13
 916 0040 FB68     		ldr	r3, [r7, #12]
 917 0042 1C33     		adds	r3, r3, #28
 918 0044 3968     		ldr	r1, [r7]
 919 0046 1846     		mov	r0, r3
 920 0048 FFF7FEFF 		bl	chThdSuspendTimeoutS
 921 004c 7861     		str	r0, [r7, #20]
 922              		.loc 5 365 7
 923 004e FFF7FEFF 		bl	chSysUnlock
 924              		.loc 5 368 10
 925 0052 7B69     		ldr	r3, [r7, #20]
 926 0054 002B     		cmp	r3, #0
 927 0056 0ED0     		beq	.L33
 928              		.loc 5 369 9
 929 0058 10E0     		b	.L35
 930              	.L34:
 931              	.LBE25:
 932              		.loc 5 373 10
 933 005a 7A68     		ldr	r2, [r7, #4]
 934 005c BB69     		ldr	r3, [r7, #24]
 935 005e D31A     		subs	r3, r2, r3
 936 0060 7B60     		str	r3, [r7, #4]
 937              		.loc 5 374 10
 938 0062 BA68     		ldr	r2, [r7, #8]
 939 0064 BB69     		ldr	r3, [r7, #24]
 940 0066 1344     		add	r3, r3, r2
 941 0068 BB60     		str	r3, [r7, #8]
 942              		.loc 5 377 7
 943 006a FB68     		ldr	r3, [r7, #12]
 944 006c 1833     		adds	r3, r3, #24
 945 006e 0021     		movs	r1, #0
 946 0070 1846     		mov	r0, r3
 947 0072 FFF7FEFF 		bl	chThdResume
 948              	.L33:
 949              	.LBE24:
 950              		.loc 5 356 12
 951 0076 7B68     		ldr	r3, [r7, #4]
 952 0078 002B     		cmp	r3, #0
 953 007a D6D1     		bne	.L36
 954              	.L35:
 955              		.loc 5 381 3
 956 007c FB68     		ldr	r3, [r7, #12]
 957 007e 4033     		adds	r3, r3, #64
 958 0080 1846     		mov	r0, r3
 959 0082 FFF7FEFF 		bl	chMtxUnlock
 960              		.loc 5 383 14
 961 0086 FA69     		ldr	r2, [r7, #28]
 962 0088 7B68     		ldr	r3, [r7, #4]
 963 008a D31A     		subs	r3, r2, r3
 964              	.L32:
 965              		.loc 5 384 1
 966 008c 1846     		mov	r0, r3
 967 008e 2037     		adds	r7, r7, #32
 968              		.cfi_def_cfa_offset 8
 969 0090 BD46     		mov	sp, r7
ARM GAS  C:\Users\DEVELO~1\AppData\Local\Temp\ccPWz6Q2.s 			page 18


 970              		.cfi_def_cfa_register 13
 971              		@ sp needed
 972 0092 80BD     		pop	{r7, pc}
 973              		.cfi_endproc
 974              	.LFE351:
 975              		.size	chPipeReadTimeout, .-chPipeReadTimeout
 976              		.text
 977              	.Letext0:
 978              		.file 6 "c:\\chibistudio\\tools\\gnu tools arm embedded\\11.3 2022.08\\lib\\gcc\\arm-none-eabi\\11
 979              		.file 7 "c:\\chibistudio\\tools\\gnu tools arm embedded\\11.3 2022.08\\arm-none-eabi\\include\\mac
 980              		.file 8 "c:\\chibistudio\\tools\\gnu tools arm embedded\\11.3 2022.08\\arm-none-eabi\\include\\sys
 981              		.file 9 "../../../os/common/ports/ARM-common/chtypes.h"
 982              		.file 10 "../../../os/rt/include/chearly.h"
 983              		.file 11 "../../../os/rt/include/chobjects.h"
 984              		.file 12 "../../../os/rt/include/chrfcu.h"
 985              		.file 13 "../../../os/rt/include/chdebug.h"
 986              		.file 14 "../../../os/rt/include/chtime.h"
 987              		.file 15 "../../../os/rt/include/chlists.h"
 988              		.file 16 "../../../os/rt/include/chtrace.h"
 989              		.file 17 "../../../os/rt/include/chsem.h"
 990              		.file 18 "../../../os/rt/include/chmtx.h"
 991              		.file 19 "../../../os/rt/include/chthreads.h"
 992              		.file 20 "c:\\chibistudio\\tools\\gnu tools arm embedded\\11.3 2022.08\\arm-none-eabi\\include\\st
 993              		.file 21 "../../../os/rt/include/chschd.h"