ARM GAS  C:\Users\DEVELO~1\AppData\Local\Temp\ccPWz6Q2.s 			page 1


   1              		.cpu cortex-m7
   2              		.arch armv7e-m
   3              		.fpu softvfp
   4              		.eabi_attribute 20, 1
   5              		.eabi_attribute 21, 1
   6              		.eabi_attribute 23, 3
   7              		.eabi_attribute 24, 1
   8              		.eabi_attribute 25, 1
   9              		.eabi_attribute 26, 1
  10              		.eabi_attribute 30, 6
  11              		.eabi_attribute 34, 1
  12              		.eabi_attribute 18, 4
  13              		.file	"chpipes.c"
  14              		.text
  15              	.Ltext0:
  16              		.cfi_sections	.debug_frame
  17              		.section	.text.chSysLock,"ax",%progbits
  18              		.align	1
  19              		.syntax unified
  20              		.thumb
  21              		.thumb_func
  22              		.type	chSysLock, %function
  23              	chSysLock:
  24              	.LFB202:
  25              		.file 1 "../../../os/rt/include/chsys.h"
  26              		.loc 1 407 36
  27              		.cfi_startproc
  28              		@ args = 0, pretend = 0, frame = 8
  29              		@ frame_needed = 1, uses_anonymous_args = 0
  30              		@ link register save eliminated.
  31 0000 80B4     		push	{r7}
  32              		.cfi_def_cfa_offset 4
  33              		.cfi_offset 7, -4
  34 0002 83B0     		sub	sp, sp, #12
  35              		.cfi_def_cfa_offset 16
  36 0004 00AF     		add	r7, sp, #0
  37              		.cfi_def_cfa_register 7
  38 0006 3023     		movs	r3, #48
  39 0008 7B60     		str	r3, [r7, #4]
  40              	.LBB14:
  41              	.LBB15:
  42              	.LBB16:
  43              	.LBB17:
  44              		.file 2 "../../../os/common/ext/ARM/CMSIS/Core/Include/cmsis_gcc.h"
  45              		.loc 2 493 3
  46 000a 7B68     		ldr	r3, [r7, #4]
  47              		.syntax unified
  48              	@ 493 "../../../os/common/ext/ARM/CMSIS/Core/Include/cmsis_gcc.h" 1
  49 000c 83F31188 		MSR basepri, r3
  50              	@ 0 "" 2
  51              		.loc 2 494 1
  52              		.thumb
  53              		.syntax unified
  54 0010 00BF     		nop
  55              	.LBE17:
  56              	.LBE16:
  57              		.file 3 "../../../os/common/ports/ARMv7-M/chcore.h"
ARM GAS  C:\Users\DEVELO~1\AppData\Local\Temp\ccPWz6Q2.s 			page 2


  58              		.loc 3 840 1
  59 0012 00BF     		nop
  60              	.LBE15:
  61              	.LBE14:
  62              		.loc 1 412 1
  63 0014 00BF     		nop
  64 0016 0C37     		adds	r7, r7, #12
  65              		.cfi_def_cfa_offset 4
  66 0018 BD46     		mov	sp, r7
  67              		.cfi_def_cfa_register 13
  68              		@ sp needed
  69 001a 80BC     		pop	{r7}
  70              		.cfi_restore 7
  71              		.cfi_def_cfa_offset 0
  72 001c 7047     		bx	lr
  73              		.cfi_endproc
  74              	.LFE202:
  75              		.size	chSysLock, .-chSysLock
  76              		.section	.text.chSysUnlock,"ax",%progbits
  77              		.align	1
  78              		.syntax unified
  79              		.thumb
  80              		.thumb_func
  81              		.type	chSysUnlock, %function
  82              	chSysUnlock:
  83              	.LFB203:
  84              		.loc 1 421 38
  85              		.cfi_startproc
  86              		@ args = 0, pretend = 0, frame = 8
  87              		@ frame_needed = 1, uses_anonymous_args = 0
  88              		@ link register save eliminated.
  89 0000 80B4     		push	{r7}
  90              		.cfi_def_cfa_offset 4
  91              		.cfi_offset 7, -4
  92 0002 83B0     		sub	sp, sp, #12
  93              		.cfi_def_cfa_offset 16
  94 0004 00AF     		add	r7, sp, #0
  95              		.cfi_def_cfa_register 7
  96 0006 0023     		movs	r3, #0
  97 0008 7B60     		str	r3, [r7, #4]
  98              	.LBB18:
  99              	.LBB19:
 100              	.LBB20:
 101              	.LBB21:
 102              		.loc 2 493 3
 103 000a 7B68     		ldr	r3, [r7, #4]
 104              		.syntax unified
 105              	@ 493 "../../../os/common/ext/ARM/CMSIS/Core/Include/cmsis_gcc.h" 1
 106 000c 83F31188 		MSR basepri, r3
 107              	@ 0 "" 2
 108              		.loc 2 494 1
 109              		.thumb
 110              		.syntax unified
 111 0010 00BF     		nop
 112              	.LBE21:
 113              	.LBE20:
 114              		.loc 3 854 1
ARM GAS  C:\Users\DEVELO~1\AppData\Local\Temp\ccPWz6Q2.s 			page 3


 115 0012 00BF     		nop
 116              	.LBE19:
 117              	.LBE18:
 118              		.loc 1 435 1
 119 0014 00BF     		nop
 120 0016 0C37     		adds	r7, r7, #12
 121              		.cfi_def_cfa_offset 4
 122 0018 BD46     		mov	sp, r7
 123              		.cfi_def_cfa_register 13
 124              		@ sp needed
 125 001a 80BC     		pop	{r7}
 126              		.cfi_restore 7
 127              		.cfi_def_cfa_offset 0
 128 001c 7047     		bx	lr
 129              		.cfi_endproc
 130              	.LFE203:
 131              		.size	chSysUnlock, .-chSysUnlock
 132              		.section	.text.chPipeGetSize,"ax",%progbits
 133              		.align	1
 134              		.syntax unified
 135              		.thumb
 136              		.thumb_func
 137              		.type	chPipeGetSize, %function
 138              	chPipeGetSize:
 139              	.LFB314:
 140              		.file 4 "../../../os/oslib/include/chpipes.h"
 141              		.loc 4 158 54
 142              		.cfi_startproc
 143              		@ args = 0, pretend = 0, frame = 8
 144              		@ frame_needed = 1, uses_anonymous_args = 0
 145              		@ link register save eliminated.
 146 0000 80B4     		push	{r7}
 147              		.cfi_def_cfa_offset 4
 148              		.cfi_offset 7, -4
 149 0002 83B0     		sub	sp, sp, #12
 150              		.cfi_def_cfa_offset 16
 151 0004 00AF     		add	r7, sp, #0
 152              		.cfi_def_cfa_register 7
 153 0006 7860     		str	r0, [r7, #4]
 154              		.loc 4 162 21
 155 0008 7B68     		ldr	r3, [r7, #4]
 156 000a 5A68     		ldr	r2, [r3, #4]
 157              		.loc 4 162 31
 158 000c 7B68     		ldr	r3, [r7, #4]
 159 000e 1B68     		ldr	r3, [r3]
 160              		.loc 4 162 27
 161 0010 D31A     		subs	r3, r2, r3
 162              		.loc 4 164 1
 163 0012 1846     		mov	r0, r3
 164 0014 0C37     		adds	r7, r7, #12
 165              		.cfi_def_cfa_offset 4
 166 0016 BD46     		mov	sp, r7
 167              		.cfi_def_cfa_register 13
 168              		@ sp needed
 169 0018 80BC     		pop	{r7}
 170              		.cfi_restore 7
 171              		.cfi_def_cfa_offset 0
ARM GAS  C:\Users\DEVELO~1\AppData\Local\Temp\ccPWz6Q2.s 			page 4


 172 001a 7047     		bx	lr
 173              		.cfi_endproc
 174              	.LFE314:
 175              		.size	chPipeGetSize, .-chPipeGetSize
 176              		.section	.text.chPipeGetUsedCount,"ax",%progbits
 177              		.align	1
 178              		.syntax unified
 179              		.thumb
 180              		.thumb_func
 181              		.type	chPipeGetUsedCount, %function
 182              	chPipeGetUsedCount:
 183              	.LFB315:
 184              		.loc 4 174 59
 185              		.cfi_startproc
 186              		@ args = 0, pretend = 0, frame = 8
 187              		@ frame_needed = 1, uses_anonymous_args = 0
 188              		@ link register save eliminated.
 189 0000 80B4     		push	{r7}
 190              		.cfi_def_cfa_offset 4
 191              		.cfi_offset 7, -4
 192 0002 83B0     		sub	sp, sp, #12
 193              		.cfi_def_cfa_offset 16
 194 0004 00AF     		add	r7, sp, #0
 195              		.cfi_def_cfa_register 7
 196 0006 7860     		str	r0, [r7, #4]
 197              		.loc 4 176 12
 198 0008 7B68     		ldr	r3, [r7, #4]
 199 000a 1B69     		ldr	r3, [r3, #16]
 200              		.loc 4 177 1
 201 000c 1846     		mov	r0, r3
 202 000e 0C37     		adds	r7, r7, #12
 203              		.cfi_def_cfa_offset 4
 204 0010 BD46     		mov	sp, r7
 205              		.cfi_def_cfa_register 13
 206              		@ sp needed
 207 0012 80BC     		pop	{r7}
 208              		.cfi_restore 7
 209              		.cfi_def_cfa_offset 0
 210 0014 7047     		bx	lr
 211              		.cfi_endproc
 212              	.LFE315:
 213              		.size	chPipeGetUsedCount, .-chPipeGetUsedCount
 214              		.section	.text.chPipeGetFreeCount,"ax",%progbits
 215              		.align	1
 216              		.syntax unified
 217              		.thumb
 218              		.thumb_func
 219              		.type	chPipeGetFreeCount, %function
 220              	chPipeGetFreeCount:
 221              	.LFB316:
 222              		.loc 4 187 59
 223              		.cfi_startproc
 224              		@ args = 0, pretend = 0, frame = 8
 225              		@ frame_needed = 1, uses_anonymous_args = 0
 226 0000 90B5     		push	{r4, r7, lr}
 227              		.cfi_def_cfa_offset 12
 228              		.cfi_offset 4, -12
ARM GAS  C:\Users\DEVELO~1\AppData\Local\Temp\ccPWz6Q2.s 			page 5


 229              		.cfi_offset 7, -8
 230              		.cfi_offset 14, -4
 231 0002 83B0     		sub	sp, sp, #12
 232              		.cfi_def_cfa_offset 24
 233 0004 00AF     		add	r7, sp, #0
 234              		.cfi_def_cfa_register 7
 235 0006 7860     		str	r0, [r7, #4]
 236              		.loc 4 189 10
 237 0008 7868     		ldr	r0, [r7, #4]
 238 000a FFF7FEFF 		bl	chPipeGetSize
 239 000e 0446     		mov	r4, r0
 240              		.loc 4 189 30
 241 0010 7868     		ldr	r0, [r7, #4]
 242 0012 FFF7FEFF 		bl	chPipeGetUsedCount
 243 0016 0346     		mov	r3, r0
 244              		.loc 4 189 28
 245 0018 E31A     		subs	r3, r4, r3
 246              		.loc 4 190 1
 247 001a 1846     		mov	r0, r3
 248 001c 0C37     		adds	r7, r7, #12
 249              		.cfi_def_cfa_offset 12
 250 001e BD46     		mov	sp, r7
 251              		.cfi_def_cfa_register 13
 252              		@ sp needed
 253 0020 90BD     		pop	{r4, r7, pc}
 254              		.cfi_endproc
 255              	.LFE316:
 256              		.size	chPipeGetFreeCount, .-chPipeGetFreeCount
 257              		.section	.text.pipe_write,"ax",%progbits
 258              		.align	1
 259              		.syntax unified
 260              		.thumb
 261              		.thumb_func
 262              		.type	pipe_write, %function
 263              	pipe_write:
 264              	.LFB346:
 265              		.file 5 "../../../os/oslib/src/chpipes.c"
 266              		.loc 5 105 67
 267              		.cfi_startproc
 268              		@ args = 0, pretend = 0, frame = 24
 269              		@ frame_needed = 1, uses_anonymous_args = 0
 270 0000 80B5     		push	{r7, lr}
 271              		.cfi_def_cfa_offset 8
 272              		.cfi_offset 7, -8
 273              		.cfi_offset 14, -4
 274 0002 86B0     		sub	sp, sp, #24
 275              		.cfi_def_cfa_offset 32
 276 0004 00AF     		add	r7, sp, #0
 277              		.cfi_def_cfa_register 7
 278 0006 F860     		str	r0, [r7, #12]
 279 0008 B960     		str	r1, [r7, #8]
 280 000a 7A60     		str	r2, [r7, #4]
 281              		.loc 5 108 3
 282 000c FB68     		ldr	r3, [r7, #12]
 283 000e 2033     		adds	r3, r3, #32
 284 0010 1846     		mov	r0, r3
 285 0012 FFF7FEFF 		bl	chMtxLock
ARM GAS  C:\Users\DEVELO~1\AppData\Local\Temp\ccPWz6Q2.s 			page 6


 286              		.loc 5 111 11
 287 0016 F868     		ldr	r0, [r7, #12]
 288 0018 FFF7FEFF 		bl	chPipeGetFreeCount
 289 001c 0246     		mov	r2, r0
 290              		.loc 5 111 6
 291 001e 7B68     		ldr	r3, [r7, #4]
 292 0020 9342     		cmp	r3, r2
 293 0022 03D9     		bls	.L10
 294              		.loc 5 112 9
 295 0024 F868     		ldr	r0, [r7, #12]
 296 0026 FFF7FEFF 		bl	chPipeGetFreeCount
 297 002a 7860     		str	r0, [r7, #4]
 298              	.L10:
 299              		.loc 5 114 11
 300 002c FB68     		ldr	r3, [r7, #12]
 301 002e 1A69     		ldr	r2, [r3, #16]
 302 0030 7B68     		ldr	r3, [r7, #4]
 303 0032 1A44     		add	r2, r2, r3
 304 0034 FB68     		ldr	r3, [r7, #12]
 305 0036 1A61     		str	r2, [r3, #16]
 306              		.loc 5 118 19
 307 0038 FB68     		ldr	r3, [r7, #12]
 308 003a 5A68     		ldr	r2, [r3, #4]
 309              		.loc 5 118 29
 310 003c FB68     		ldr	r3, [r7, #12]
 311 003e 9B68     		ldr	r3, [r3, #8]
 312              		.loc 5 118 25
 313 0040 D31A     		subs	r3, r2, r3
 314              		.loc 5 118 6
 315 0042 7B61     		str	r3, [r7, #20]
 316              		.loc 5 121 6
 317 0044 7A68     		ldr	r2, [r7, #4]
 318 0046 7B69     		ldr	r3, [r7, #20]
 319 0048 9A42     		cmp	r2, r3
 320 004a 0DD2     		bcs	.L11
 321              		.loc 5 122 22
 322 004c FB68     		ldr	r3, [r7, #12]
 323 004e 9B68     		ldr	r3, [r3, #8]
 324              		.loc 5 122 5
 325 0050 7A68     		ldr	r2, [r7, #4]
 326 0052 B968     		ldr	r1, [r7, #8]
 327 0054 1846     		mov	r0, r3
 328 0056 FFF7FEFF 		bl	memcpy
 329              		.loc 5 123 15
 330 005a FB68     		ldr	r3, [r7, #12]
 331 005c 9A68     		ldr	r2, [r3, #8]
 332 005e 7B68     		ldr	r3, [r7, #4]
 333 0060 1A44     		add	r2, r2, r3
 334 0062 FB68     		ldr	r3, [r7, #12]
 335 0064 9A60     		str	r2, [r3, #8]
 336 0066 2BE0     		b	.L12
 337              	.L11:
 338              		.loc 5 125 11
 339 0068 7A68     		ldr	r2, [r7, #4]
 340 006a 7B69     		ldr	r3, [r7, #20]
 341 006c 9A42     		cmp	r2, r3
 342 006e 1CD9     		bls	.L13
ARM GAS  C:\Users\DEVELO~1\AppData\Local\Temp\ccPWz6Q2.s 			page 7


 343              		.loc 5 126 22
 344 0070 FB68     		ldr	r3, [r7, #12]
 345 0072 9B68     		ldr	r3, [r3, #8]
 346              		.loc 5 126 5
 347 0074 7A69     		ldr	r2, [r7, #20]
 348 0076 B968     		ldr	r1, [r7, #8]
 349 0078 1846     		mov	r0, r3
 350 007a FFF7FEFF 		bl	memcpy
 351              		.loc 5 127 8
 352 007e BA68     		ldr	r2, [r7, #8]
 353 0080 7B69     		ldr	r3, [r7, #20]
 354 0082 1344     		add	r3, r3, r2
 355 0084 BB60     		str	r3, [r7, #8]
 356              		.loc 5 128 8
 357 0086 7A68     		ldr	r2, [r7, #4]
 358 0088 7B69     		ldr	r3, [r7, #20]
 359 008a D31A     		subs	r3, r2, r3
 360 008c 3B61     		str	r3, [r7, #16]
 361              		.loc 5 129 22
 362 008e FB68     		ldr	r3, [r7, #12]
 363 0090 1B68     		ldr	r3, [r3]
 364              		.loc 5 129 5
 365 0092 3A69     		ldr	r2, [r7, #16]
 366 0094 B968     		ldr	r1, [r7, #8]
 367 0096 1846     		mov	r0, r3
 368 0098 FFF7FEFF 		bl	memcpy
 369              		.loc 5 130 19
 370 009c FB68     		ldr	r3, [r7, #12]
 371 009e 1A68     		ldr	r2, [r3]
 372              		.loc 5 130 28
 373 00a0 3B69     		ldr	r3, [r7, #16]
 374 00a2 1A44     		add	r2, r2, r3
 375              		.loc 5 130 15
 376 00a4 FB68     		ldr	r3, [r7, #12]
 377 00a6 9A60     		str	r2, [r3, #8]
 378 00a8 0AE0     		b	.L12
 379              	.L13:
 380              		.loc 5 133 22
 381 00aa FB68     		ldr	r3, [r7, #12]
 382 00ac 9B68     		ldr	r3, [r3, #8]
 383              		.loc 5 133 5
 384 00ae 7A68     		ldr	r2, [r7, #4]
 385 00b0 B968     		ldr	r1, [r7, #8]
 386 00b2 1846     		mov	r0, r3
 387 00b4 FFF7FEFF 		bl	memcpy
 388              		.loc 5 134 19
 389 00b8 FB68     		ldr	r3, [r7, #12]
 390 00ba 1A68     		ldr	r2, [r3]
 391              		.loc 5 134 15
 392 00bc FB68     		ldr	r3, [r7, #12]
 393 00be 9A60     		str	r2, [r3, #8]
 394              	.L12:
 395              		.loc 5 137 3
 396 00c0 FB68     		ldr	r3, [r7, #12]
 397 00c2 2033     		adds	r3, r3, #32
 398 00c4 1846     		mov	r0, r3
 399 00c6 FFF7FEFF 		bl	chMtxUnlock
ARM GAS  C:\Users\DEVELO~1\AppData\Local\Temp\ccPWz6Q2.s 			page 8


 400              		.loc 5 139 10
 401 00ca 7B68     		ldr	r3, [r7, #4]
 402              		.loc 5 140 1
 403 00cc 1846     		mov	r0, r3
 404 00ce 1837     		adds	r7, r7, #24
 405              		.cfi_def_cfa_offset 8
 406 00d0 BD46     		mov	sp, r7
 407              		.cfi_def_cfa_register 13
 408              		@ sp needed
 409 00d2 80BD     		pop	{r7, pc}
 410              		.cfi_endproc
 411              	.LFE346:
 412              		.size	pipe_write, .-pipe_write
 413              		.section	.text.pipe_read,"ax",%progbits
 414              		.align	1
 415              		.syntax unified
 416              		.thumb
 417              		.thumb_func
 418              		.type	pipe_read, %function
 419              	pipe_read:
 420              	.LFB347:
 421              		.loc 5 156 60
 422              		.cfi_startproc
 423              		@ args = 0, pretend = 0, frame = 24
 424              		@ frame_needed = 1, uses_anonymous_args = 0
 425 0000 80B5     		push	{r7, lr}
 426              		.cfi_def_cfa_offset 8
 427              		.cfi_offset 7, -8
 428              		.cfi_offset 14, -4
 429 0002 86B0     		sub	sp, sp, #24
 430              		.cfi_def_cfa_offset 32
 431 0004 00AF     		add	r7, sp, #0
 432              		.cfi_def_cfa_register 7
 433 0006 F860     		str	r0, [r7, #12]
 434 0008 B960     		str	r1, [r7, #8]
 435 000a 7A60     		str	r2, [r7, #4]
 436              		.loc 5 159 3
 437 000c FB68     		ldr	r3, [r7, #12]
 438 000e 2033     		adds	r3, r3, #32
 439 0010 1846     		mov	r0, r3
 440 0012 FFF7FEFF 		bl	chMtxLock
 441              		.loc 5 162 11
 442 0016 F868     		ldr	r0, [r7, #12]
 443 0018 FFF7FEFF 		bl	chPipeGetUsedCount
 444 001c 0246     		mov	r2, r0
 445              		.loc 5 162 6
 446 001e 7B68     		ldr	r3, [r7, #4]
 447 0020 9342     		cmp	r3, r2
 448 0022 03D9     		bls	.L16
 449              		.loc 5 163 9
 450 0024 F868     		ldr	r0, [r7, #12]
 451 0026 FFF7FEFF 		bl	chPipeGetUsedCount
 452 002a 7860     		str	r0, [r7, #4]
 453              	.L16:
 454              		.loc 5 165 11
 455 002c FB68     		ldr	r3, [r7, #12]
 456 002e 1A69     		ldr	r2, [r3, #16]
ARM GAS  C:\Users\DEVELO~1\AppData\Local\Temp\ccPWz6Q2.s 			page 9


 457 0030 7B68     		ldr	r3, [r7, #4]
 458 0032 D21A     		subs	r2, r2, r3
 459 0034 FB68     		ldr	r3, [r7, #12]
 460 0036 1A61     		str	r2, [r3, #16]
 461              		.loc 5 169 19
 462 0038 FB68     		ldr	r3, [r7, #12]
 463 003a 5A68     		ldr	r2, [r3, #4]
 464              		.loc 5 169 29
 465 003c FB68     		ldr	r3, [r7, #12]
 466 003e DB68     		ldr	r3, [r3, #12]
 467              		.loc 5 169 25
 468 0040 D31A     		subs	r3, r2, r3
 469              		.loc 5 169 6
 470 0042 7B61     		str	r3, [r7, #20]
 471              		.loc 5 172 6
 472 0044 7A68     		ldr	r2, [r7, #4]
 473 0046 7B69     		ldr	r3, [r7, #20]
 474 0048 9A42     		cmp	r2, r3
 475 004a 0DD2     		bcs	.L17
 476              		.loc 5 173 34
 477 004c FB68     		ldr	r3, [r7, #12]
 478 004e DB68     		ldr	r3, [r3, #12]
 479              		.loc 5 173 5
 480 0050 7A68     		ldr	r2, [r7, #4]
 481 0052 1946     		mov	r1, r3
 482 0054 B868     		ldr	r0, [r7, #8]
 483 0056 FFF7FEFF 		bl	memcpy
 484              		.loc 5 174 15
 485 005a FB68     		ldr	r3, [r7, #12]
 486 005c DA68     		ldr	r2, [r3, #12]
 487 005e 7B68     		ldr	r3, [r7, #4]
 488 0060 1A44     		add	r2, r2, r3
 489 0062 FB68     		ldr	r3, [r7, #12]
 490 0064 DA60     		str	r2, [r3, #12]
 491 0066 2BE0     		b	.L18
 492              	.L17:
 493              		.loc 5 176 11
 494 0068 7A68     		ldr	r2, [r7, #4]
 495 006a 7B69     		ldr	r3, [r7, #20]
 496 006c 9A42     		cmp	r2, r3
 497 006e 1CD9     		bls	.L19
 498              		.loc 5 177 34
 499 0070 FB68     		ldr	r3, [r7, #12]
 500 0072 DB68     		ldr	r3, [r3, #12]
 501              		.loc 5 177 5
 502 0074 7A69     		ldr	r2, [r7, #20]
 503 0076 1946     		mov	r1, r3
 504 0078 B868     		ldr	r0, [r7, #8]
 505 007a FFF7FEFF 		bl	memcpy
 506              		.loc 5 178 8
 507 007e BA68     		ldr	r2, [r7, #8]
 508 0080 7B69     		ldr	r3, [r7, #20]
 509 0082 1344     		add	r3, r3, r2
 510 0084 BB60     		str	r3, [r7, #8]
 511              		.loc 5 179 8
 512 0086 7A68     		ldr	r2, [r7, #4]
 513 0088 7B69     		ldr	r3, [r7, #20]
ARM GAS  C:\Users\DEVELO~1\AppData\Local\Temp\ccPWz6Q2.s 			page 10


 514 008a D31A     		subs	r3, r2, r3
 515 008c 3B61     		str	r3, [r7, #16]
 516              		.loc 5 180 34
 517 008e FB68     		ldr	r3, [r7, #12]
 518 0090 1B68     		ldr	r3, [r3]
 519              		.loc 5 180 5
 520 0092 3A69     		ldr	r2, [r7, #16]
 521 0094 1946     		mov	r1, r3
 522 0096 B868     		ldr	r0, [r7, #8]
 523 0098 FFF7FEFF 		bl	memcpy
 524              		.loc 5 181 19
 525 009c FB68     		ldr	r3, [r7, #12]
 526 009e 1A68     		ldr	r2, [r3]
 527              		.loc 5 181 28
 528 00a0 3B69     		ldr	r3, [r7, #16]
 529 00a2 1A44     		add	r2, r2, r3
 530              		.loc 5 181 15
 531 00a4 FB68     		ldr	r3, [r7, #12]
 532 00a6 DA60     		str	r2, [r3, #12]
 533 00a8 0AE0     		b	.L18
 534              	.L19:
 535              		.loc 5 184 34
 536 00aa FB68     		ldr	r3, [r7, #12]
 537 00ac DB68     		ldr	r3, [r3, #12]
 538              		.loc 5 184 5
 539 00ae 7A68     		ldr	r2, [r7, #4]
 540 00b0 1946     		mov	r1, r3
 541 00b2 B868     		ldr	r0, [r7, #8]
 542 00b4 FFF7FEFF 		bl	memcpy
 543              		.loc 5 185 19
 544 00b8 FB68     		ldr	r3, [r7, #12]
 545 00ba 1A68     		ldr	r2, [r3]
 546              		.loc 5 185 15
 547 00bc FB68     		ldr	r3, [r7, #12]
 548 00be DA60     		str	r2, [r3, #12]
 549              	.L18:
 550              		.loc 5 188 3
 551 00c0 FB68     		ldr	r3, [r7, #12]
 552 00c2 2033     		adds	r3, r3, #32
 553 00c4 1846     		mov	r0, r3
 554 00c6 FFF7FEFF 		bl	chMtxUnlock
 555              		.loc 5 190 10
 556 00ca 7B68     		ldr	r3, [r7, #4]
 557              		.loc 5 191 1
 558 00cc 1846     		mov	r0, r3
 559 00ce 1837     		adds	r7, r7, #24
 560              		.cfi_def_cfa_offset 8
 561 00d0 BD46     		mov	sp, r7
 562              		.cfi_def_cfa_register 13
 563              		@ sp needed
 564 00d2 80BD     		pop	{r7, pc}
 565              		.cfi_endproc
 566              	.LFE347:
 567              		.size	pipe_read, .-pipe_read
 568              		.section	.text.chPipeObjectInit,"ax",%progbits
 569              		.align	1
 570              		.global	chPipeObjectInit
ARM GAS  C:\Users\DEVELO~1\AppData\Local\Temp\ccPWz6Q2.s 			page 11


 571              		.syntax unified
 572              		.thumb
 573              		.thumb_func
 574              		.type	chPipeObjectInit, %function
 575              	chPipeObjectInit:
 576              	.LFB348:
 577              		.loc 5 207 59
 578              		.cfi_startproc
 579              		@ args = 0, pretend = 0, frame = 16
 580              		@ frame_needed = 1, uses_anonymous_args = 0
 581 0000 80B5     		push	{r7, lr}
 582              		.cfi_def_cfa_offset 8
 583              		.cfi_offset 7, -8
 584              		.cfi_offset 14, -4
 585 0002 84B0     		sub	sp, sp, #16
 586              		.cfi_def_cfa_offset 24
 587 0004 00AF     		add	r7, sp, #0
 588              		.cfi_def_cfa_register 7
 589 0006 F860     		str	r0, [r7, #12]
 590 0008 B960     		str	r1, [r7, #8]
 591 000a 7A60     		str	r2, [r7, #4]
 592              		.loc 5 211 14
 593 000c FB68     		ldr	r3, [r7, #12]
 594 000e BA68     		ldr	r2, [r7, #8]
 595 0010 1A60     		str	r2, [r3]
 596              		.loc 5 212 14
 597 0012 FB68     		ldr	r3, [r7, #12]
 598 0014 BA68     		ldr	r2, [r7, #8]
 599 0016 DA60     		str	r2, [r3, #12]
 600              		.loc 5 213 14
 601 0018 FB68     		ldr	r3, [r7, #12]
 602 001a BA68     		ldr	r2, [r7, #8]
 603 001c 9A60     		str	r2, [r3, #8]
 604              		.loc 5 214 16
 605 001e BA68     		ldr	r2, [r7, #8]
 606 0020 7B68     		ldr	r3, [r7, #4]
 607 0022 1A44     		add	r2, r2, r3
 608              		.loc 5 214 14
 609 0024 FB68     		ldr	r3, [r7, #12]
 610 0026 5A60     		str	r2, [r3, #4]
 611              		.loc 5 215 14
 612 0028 FB68     		ldr	r3, [r7, #12]
 613 002a 0022     		movs	r2, #0
 614 002c 1A61     		str	r2, [r3, #16]
 615              		.loc 5 216 14
 616 002e FB68     		ldr	r3, [r7, #12]
 617 0030 0022     		movs	r2, #0
 618 0032 1A75     		strb	r2, [r3, #20]
 619              		.loc 5 217 14
 620 0034 FB68     		ldr	r3, [r7, #12]
 621 0036 0022     		movs	r2, #0
 622 0038 9A61     		str	r2, [r3, #24]
 623              		.loc 5 218 14
 624 003a FB68     		ldr	r3, [r7, #12]
 625 003c 0022     		movs	r2, #0
 626 003e DA61     		str	r2, [r3, #28]
 627              		.loc 5 219 3
ARM GAS  C:\Users\DEVELO~1\AppData\Local\Temp\ccPWz6Q2.s 			page 12


 628 0040 FB68     		ldr	r3, [r7, #12]
 629 0042 2033     		adds	r3, r3, #32
 630 0044 1846     		mov	r0, r3
 631 0046 FFF7FEFF 		bl	chMtxObjectInit
 632              		.loc 5 220 3
 633 004a FB68     		ldr	r3, [r7, #12]
 634 004c 3033     		adds	r3, r3, #48
 635 004e 1846     		mov	r0, r3
 636 0050 FFF7FEFF 		bl	chMtxObjectInit
 637              		.loc 5 221 3
 638 0054 FB68     		ldr	r3, [r7, #12]
 639 0056 4033     		adds	r3, r3, #64
 640 0058 1846     		mov	r0, r3
 641 005a FFF7FEFF 		bl	chMtxObjectInit
 642              		.loc 5 222 1
 643 005e 00BF     		nop
 644 0060 1037     		adds	r7, r7, #16
 645              		.cfi_def_cfa_offset 8
 646 0062 BD46     		mov	sp, r7
 647              		.cfi_def_cfa_register 13
 648              		@ sp needed
 649 0064 80BD     		pop	{r7, pc}
 650              		.cfi_endproc
 651              	.LFE348:
 652              		.size	chPipeObjectInit, .-chPipeObjectInit
 653              		.section	.text.chPipeReset,"ax",%progbits
 654              		.align	1
 655              		.global	chPipeReset
 656              		.syntax unified
 657              		.thumb
 658              		.thumb_func
 659              		.type	chPipeReset, %function
 660              	chPipeReset:
 661              	.LFB349:
 662              		.loc 5 236 30
 663              		.cfi_startproc
 664              		@ args = 0, pretend = 0, frame = 8
 665              		@ frame_needed = 1, uses_anonymous_args = 0
 666 0000 80B5     		push	{r7, lr}
 667              		.cfi_def_cfa_offset 8
 668              		.cfi_offset 7, -8
 669              		.cfi_offset 14, -4
 670 0002 82B0     		sub	sp, sp, #8
 671              		.cfi_def_cfa_offset 16
 672 0004 00AF     		add	r7, sp, #0
 673              		.cfi_def_cfa_register 7
 674 0006 7860     		str	r0, [r7, #4]
 675              		.loc 5 240 3
 676 0008 7B68     		ldr	r3, [r7, #4]
 677 000a 2033     		adds	r3, r3, #32
 678 000c 1846     		mov	r0, r3
 679 000e FFF7FEFF 		bl	chMtxLock
 680              		.loc 5 242 17
 681 0012 7B68     		ldr	r3, [r7, #4]
 682 0014 1A68     		ldr	r2, [r3]
 683              		.loc 5 242 13
 684 0016 7B68     		ldr	r3, [r7, #4]
ARM GAS  C:\Users\DEVELO~1\AppData\Local\Temp\ccPWz6Q2.s 			page 13


 685 0018 9A60     		str	r2, [r3, #8]
 686              		.loc 5 243 17
 687 001a 7B68     		ldr	r3, [r7, #4]
 688 001c 1A68     		ldr	r2, [r3]
 689              		.loc 5 243 13
 690 001e 7B68     		ldr	r3, [r7, #4]
 691 0020 DA60     		str	r2, [r3, #12]
 692              		.loc 5 244 13
 693 0022 7B68     		ldr	r3, [r7, #4]
 694 0024 0022     		movs	r2, #0
 695 0026 1A61     		str	r2, [r3, #16]
 696              		.loc 5 245 13
 697 0028 7B68     		ldr	r3, [r7, #4]
 698 002a 0122     		movs	r2, #1
 699 002c 1A75     		strb	r2, [r3, #20]
 700              		.loc 5 247 3
 701 002e FFF7FEFF 		bl	chSysLock
 702              		.loc 5 248 3
 703 0032 7B68     		ldr	r3, [r7, #4]
 704 0034 1833     		adds	r3, r3, #24
 705 0036 6FF00101 		mvn	r1, #1
 706 003a 1846     		mov	r0, r3
 707 003c FFF7FEFF 		bl	chThdResumeI
 708              		.loc 5 249 3
 709 0040 7B68     		ldr	r3, [r7, #4]
 710 0042 1C33     		adds	r3, r3, #28
 711 0044 6FF00101 		mvn	r1, #1
 712 0048 1846     		mov	r0, r3
 713 004a FFF7FEFF 		bl	chThdResumeI
 714              		.loc 5 250 3
 715 004e FFF7FEFF 		bl	chSchRescheduleS
 716              		.loc 5 251 3
 717 0052 FFF7FEFF 		bl	chSysUnlock
 718              		.loc 5 253 3
 719 0056 7B68     		ldr	r3, [r7, #4]
 720 0058 2033     		adds	r3, r3, #32
 721 005a 1846     		mov	r0, r3
 722 005c FFF7FEFF 		bl	chMtxUnlock
 723              		.loc 5 254 1
 724 0060 00BF     		nop
 725 0062 0837     		adds	r7, r7, #8
 726              		.cfi_def_cfa_offset 8
 727 0064 BD46     		mov	sp, r7
 728              		.cfi_def_cfa_register 13
 729              		@ sp needed
 730 0066 80BD     		pop	{r7, pc}
 731              		.cfi_endproc
 732              	.LFE349:
 733              		.size	chPipeReset, .-chPipeReset
 734              		.section	.text.chPipeWriteTimeout,"ax",%progbits
 735              		.align	1
 736              		.global	chPipeWriteTimeout
 737              		.syntax unified
 738              		.thumb
 739              		.thumb_func
 740              		.type	chPipeWriteTimeout, %function
 741              	chPipeWriteTimeout:
ARM GAS  C:\Users\DEVELO~1\AppData\Local\Temp\ccPWz6Q2.s 			page 14


 742              	.LFB350:
 743              		.loc 5 279 60
 744              		.cfi_startproc
 745              		@ args = 0, pretend = 0, frame = 32
 746              		@ frame_needed = 1, uses_anonymous_args = 0
 747 0000 80B5     		push	{r7, lr}
 748              		.cfi_def_cfa_offset 8
 749              		.cfi_offset 7, -8
 750              		.cfi_offset 14, -4
 751 0002 88B0     		sub	sp, sp, #32
 752              		.cfi_def_cfa_offset 40
 753 0004 00AF     		add	r7, sp, #0
 754              		.cfi_def_cfa_register 7
 755 0006 F860     		str	r0, [r7, #12]
 756 0008 B960     		str	r1, [r7, #8]
 757 000a 7A60     		str	r2, [r7, #4]
 758 000c 3B60     		str	r3, [r7]
 759              		.loc 5 280 10
 760 000e 7B68     		ldr	r3, [r7, #4]
 761 0010 FB61     		str	r3, [r7, #28]
 762              		.loc 5 285 9
 763 0012 FB68     		ldr	r3, [r7, #12]
 764 0014 1B7D     		ldrb	r3, [r3, #20]	@ zero_extendqisi2
 765              		.loc 5 285 6
 766 0016 002B     		cmp	r3, #0
 767 0018 01D0     		beq	.L24
 768              		.loc 5 286 12
 769 001a 0023     		movs	r3, #0
 770 001c 36E0     		b	.L25
 771              	.L24:
 772              		.loc 5 289 3
 773 001e FB68     		ldr	r3, [r7, #12]
 774 0020 3033     		adds	r3, r3, #48
 775 0022 1846     		mov	r0, r3
 776 0024 FFF7FEFF 		bl	chMtxLock
 777              		.loc 5 291 9
 778 0028 25E0     		b	.L26
 779              	.L29:
 780              	.LBB22:
 781              		.loc 5 294 12
 782 002a 7A68     		ldr	r2, [r7, #4]
 783 002c B968     		ldr	r1, [r7, #8]
 784 002e F868     		ldr	r0, [r7, #12]
 785 0030 FFF7FEFF 		bl	pipe_write
 786 0034 B861     		str	r0, [r7, #24]
 787              		.loc 5 295 8
 788 0036 BB69     		ldr	r3, [r7, #24]
 789 0038 002B     		cmp	r3, #0
 790 003a 0ED1     		bne	.L27
 791              	.LBB23:
 792              		.loc 5 298 7
 793 003c FFF7FEFF 		bl	chSysLock
 794              		.loc 5 299 13
 795 0040 FB68     		ldr	r3, [r7, #12]
 796 0042 1833     		adds	r3, r3, #24
 797 0044 3968     		ldr	r1, [r7]
 798 0046 1846     		mov	r0, r3
ARM GAS  C:\Users\DEVELO~1\AppData\Local\Temp\ccPWz6Q2.s 			page 15


 799 0048 FFF7FEFF 		bl	chThdSuspendTimeoutS
 800 004c 7861     		str	r0, [r7, #20]
 801              		.loc 5 300 7
 802 004e FFF7FEFF 		bl	chSysUnlock
 803              		.loc 5 303 10
 804 0052 7B69     		ldr	r3, [r7, #20]
 805 0054 002B     		cmp	r3, #0
 806 0056 0ED0     		beq	.L26
 807              		.loc 5 304 9
 808 0058 10E0     		b	.L28
 809              	.L27:
 810              	.LBE23:
 811              		.loc 5 308 10
 812 005a 7A68     		ldr	r2, [r7, #4]
 813 005c BB69     		ldr	r3, [r7, #24]
 814 005e D31A     		subs	r3, r2, r3
 815 0060 7B60     		str	r3, [r7, #4]
 816              		.loc 5 309 10
 817 0062 BA68     		ldr	r2, [r7, #8]
 818 0064 BB69     		ldr	r3, [r7, #24]
 819 0066 1344     		add	r3, r3, r2
 820 0068 BB60     		str	r3, [r7, #8]
 821              		.loc 5 312 7
 822 006a FB68     		ldr	r3, [r7, #12]
 823 006c 1C33     		adds	r3, r3, #28
 824 006e 0021     		movs	r1, #0
 825 0070 1846     		mov	r0, r3
 826 0072 FFF7FEFF 		bl	chThdResume
 827              	.L26:
 828              	.LBE22:
 829              		.loc 5 291 12
 830 0076 7B68     		ldr	r3, [r7, #4]
 831 0078 002B     		cmp	r3, #0
 832 007a D6D1     		bne	.L29
 833              	.L28:
 834              		.loc 5 316 3
 835 007c FB68     		ldr	r3, [r7, #12]
 836 007e 3033     		adds	r3, r3, #48
 837 0080 1846     		mov	r0, r3
 838 0082 FFF7FEFF 		bl	chMtxUnlock
 839              		.loc 5 318 14
 840 0086 FA69     		ldr	r2, [r7, #28]
 841 0088 7B68     		ldr	r3, [r7, #4]
 842 008a D31A     		subs	r3, r2, r3
 843              	.L25:
 844              		.loc 5 319 1
 845 008c 1846     		mov	r0, r3
 846 008e 2037     		adds	r7, r7, #32
 847              		.cfi_def_cfa_offset 8
 848 0090 BD46     		mov	sp, r7
 849              		.cfi_def_cfa_register 13
 850              		@ sp needed
 851 0092 80BD     		pop	{r7, pc}
 852              		.cfi_endproc
 853              	.LFE350:
 854              		.size	chPipeWriteTimeout, .-chPipeWriteTimeout
 855              		.section	.text.chPipeReadTimeout,"ax",%progbits
ARM GAS  C:\Users\DEVELO~1\AppData\Local\Temp\ccPWz6Q2.s 			page 16


 856              		.align	1
 857              		.global	chPipeReadTimeout
 858              		.syntax unified
 859              		.thumb
 860              		.thumb_func
 861              		.type	chPipeReadTimeout, %function
 862              	chPipeReadTimeout:
 863              	.LFB351:
 864              		.loc 5 344 59
 865              		.cfi_startproc
 866              		@ args = 0, pretend = 0, frame = 32
 867              		@ frame_needed = 1, uses_anonymous_args = 0
 868 0000 80B5     		push	{r7, lr}
 869              		.cfi_def_cfa_offset 8
 870              		.cfi_offset 7, -8
 871              		.cfi_offset 14, -4
 872 0002 88B0     		sub	sp, sp, #32
 873              		.cfi_def_cfa_offset 40
 874 0004 00AF     		add	r7, sp, #0
 875              		.cfi_def_cfa_register 7
 876 0006 F860     		str	r0, [r7, #12]
 877 0008 B960     		str	r1, [r7, #8]
 878 000a 7A60     		str	r2, [r7, #4]
 879 000c 3B60     		str	r3, [r7]
 880              		.loc 5 345 10
 881 000e 7B68     		ldr	r3, [r7, #4]
 882 0010 FB61     		str	r3, [r7, #28]
 883              		.loc 5 350 9
 884 0012 FB68     		ldr	r3, [r7, #12]
 885 0014 1B7D     		ldrb	r3, [r3, #20]	@ zero_extendqisi2
 886              		.loc 5 350 6
 887 0016 002B     		cmp	r3, #0
 888 0018 01D0     		beq	.L31
 889              		.loc 5 351 12
 890 001a 0023     		movs	r3, #0
 891 001c 36E0     		b	.L32
 892              	.L31:
 893              		.loc 5 354 3
 894 001e FB68     		ldr	r3, [r7, #12]
 895 0020 4033     		adds	r3, r3, #64
 896 0022 1846     		mov	r0, r3
 897 0024 FFF7FEFF 		bl	chMtxLock
 898              		.loc 5 356 9
 899 0028 25E0     		b	.L33
 900              	.L36:
 901              	.LBB24:
 902              		.loc 5 359 12
 903 002a 7A68     		ldr	r2, [r7, #4]
 904 002c B968     		ldr	r1, [r7, #8]
 905 002e F868     		ldr	r0, [r7, #12]
 906 0030 FFF7FEFF 		bl	pipe_read
 907 0034 B861     		str	r0, [r7, #24]
 908              		.loc 5 360 8
 909 0036 BB69     		ldr	r3, [r7, #24]
 910 0038 002B     		cmp	r3, #0
 911 003a 0ED1     		bne	.L34
 912              	.LBB25:
ARM GAS  C:\Users\DEVELO~1\AppData\Local\Temp\ccPWz6Q2.s 			page 17


 913              		.loc 5 363 7
 914 003c FFF7FEFF 		bl	chSysLock
 915              		.loc 5 364 13
 916 0040 FB68     		ldr	r3, [r7, #12]
 917 0042 1C33     		adds	r3, r3, #28
 918 0044 3968     		ldr	r1, [r7]
 919 0046 1846     		mov	r0, r3
 920 0048 FFF7FEFF 		bl	chThdSuspendTimeoutS
 921 004c 7861     		str	r0, [r7, #20]
 922              		.loc 5 365 7
 923 004e FFF7FEFF 		bl	chSysUnlock
 924              		.loc 5 368 10
 925 0052 7B69     		ldr	r3, [r7, #20]
 926 0054 002B     		cmp	r3, #0
 927 0056 0ED0     		beq	.L33
 928              		.loc 5 369 9
 929 0058 10E0     		b	.L35
 930              	.L34:
 931              	.LBE25:
 932              		.loc 5 373 10
 933 005a 7A68     		ldr	r2, [r7, #4]
 934 005c BB69     		ldr	r3, [r7, #24]
 935 005e D31A     		subs	r3, r2, r3
 936 0060 7B60     		str	r3, [r7, #4]
 937              		.loc 5 374 10
 938 0062 BA68     		ldr	r2, [r7, #8]
 939 0064 BB69     		ldr	r3, [r7, #24]
 940 0066 1344     		add	r3, r3, r2
 941 0068 BB60     		str	r3, [r7, #8]
 942              		.loc 5 377 7
 943 006a FB68     		ldr	r3, [r7, #12]
 944 006c 1833     		adds	r3, r3, #24
 945 006e 0021     		movs	r1, #0
 946 0070 1846     		mov	r0, r3
 947 0072 FFF7FEFF 		bl	chThdResume
 948              	.L33:
 949              	.LBE24:
 950              		.loc 5 356 12
 951 0076 7B68     		ldr	r3, [r7, #4]
 952 0078 002B     		cmp	r3, #0
 953 007a D6D1     		bne	.L36
 954              	.L35:
 955              		.loc 5 381 3
 956 007c FB68     		ldr	r3, [r7, #12]
 957 007e 4033     		adds	r3, r3, #64
 958 0080 1846     		mov	r0, r3
 959 0082 FFF7FEFF 		bl	chMtxUnlock
 960              		.loc 5 383 14
 961 0086 FA69     		ldr	r2, [r7, #28]
 962 0088 7B68     		ldr	r3, [r7, #4]
 963 008a D31A     		subs	r3, r2, r3
 964              	.L32:
 965              		.loc 5 384 1
 966 008c 1846     		mov	r0, r3
 967 008e 2037     		adds	r7, r7, #32
 968              		.cfi_def_cfa_offset 8
 969 0090 BD46     		mov	sp, r7
ARM GAS  C:\Users\DEVELO~1\AppData\Local\Temp\ccPWz6Q2.s 			page 18


 970              		.cfi_def_cfa_register 13
 971              		@ sp needed
 972 0092 80BD     		pop	{r7, pc}
 973              		.cfi_endproc
 974              	.LFE351:
 975              		.size	chPipeReadTimeout, .-chPipeReadTimeout
 976              		.text
 977              	.Letext0:
 978              		.file 6 "c:\\chibistudio\\tools\\gnu tools arm embedded\\11.3 2022.08\\lib\\gcc\\arm-none-eabi\\11
 979              		.file 7 "c:\\chibistudio\\tools\\gnu tools arm embedded\\11.3 2022.08\\arm-none-eabi\\include\\mac
 980              		.file 8 "c:\\chibistudio\\tools\\gnu tools arm embedded\\11.3 2022.08\\arm-none-eabi\\include\\sys
 981              		.file 9 "../../../os/common/ports/ARM-common/chtypes.h"
 982              		.file 10 "../../../os/rt/include/chearly.h"
 983              		.file 11 "../../../os/rt/include/chobjects.h"
 984              		.file 12 "../../../os/rt/include/chrfcu.h"
 985              		.file 13 "../../../os/rt/include/chdebug.h"
 986              		.file 14 "../../../os/rt/include/chtime.h"
 987              		.file 15 "../../../os/rt/include/chlists.h"
 988              		.file 16 "../../../os/rt/include/chtrace.h"
 989              		.file 17 "../../../os/rt/include/chsem.h"
 990              		.file 18 "../../../os/rt/include/chmtx.h"
 991              		.file 19 "../../../os/rt/include/chthreads.h"
 992              		.file 20 "c:\\chibistudio\\tools\\gnu tools arm embedded\\11.3 2022.08\\arm-none-eabi\\include\\st
 993              		.file 21 "../../../os/rt/include/chschd.h"
 994              		.section	.debug_info,"",%progbits
 995              	.Ldebug_info0:
 996 0000 160E0000 		.4byte	0xe16
 997 0004 0500     		.2byte	0x5
 998 0006 01       		.byte	0x1
 999 0007 04       		.byte	0x4
 1000 0008 00000000 		.4byte	.Ldebug_abbrev0
 1001 000c 28       		.uleb128 0x28
 1002 000d F6000000 		.4byte	.LASF153
 1003 0011 1D       		.byte	0x1d
 1004 0012 38050000 		.4byte	.LASF154
 1005 0016 03070000 		.4byte	.LASF155
 1006 001a 0C000000 		.4byte	.LLRL0
 1007 001e 00000000 		.4byte	0
 1008 0022 00000000 		.4byte	.Ldebug_line0
 1009 0026 29       		.uleb128 0x29
 1010 0027 04       		.byte	0x4
 1011 0028 05       		.byte	0x5
 1012 0029 696E7400 		.ascii	"int\000"
 1013 002d 02       		.uleb128 0x2
 1014 002e 15000000 		.4byte	.LASF4
 1015 0032 06       		.byte	0x6
 1016 0033 D1       		.byte	0xd1
 1017 0034 17       		.byte	0x17
 1018 0035 39000000 		.4byte	0x39
 1019 0039 07       		.uleb128 0x7
 1020 003a 04       		.byte	0x4
 1021 003b 07       		.byte	0x7
 1022 003c 5D020000 		.4byte	.LASF0
 1023 0040 07       		.uleb128 0x7
 1024 0041 08       		.byte	0x8
 1025 0042 05       		.byte	0x5
 1026 0043 BD010000 		.4byte	.LASF1
ARM GAS  C:\Users\DEVELO~1\AppData\Local\Temp\ccPWz6Q2.s 			page 19


 1027 0047 07       		.uleb128 0x7
 1028 0048 08       		.byte	0x8
 1029 0049 04       		.byte	0x4
 1030 004a BA050000 		.4byte	.LASF2
 1031 004e 07       		.uleb128 0x7
 1032 004f 01       		.byte	0x1
 1033 0050 06       		.byte	0x6
 1034 0051 AB000000 		.4byte	.LASF3
 1035 0055 02       		.uleb128 0x2
 1036 0056 28000000 		.4byte	.LASF5
 1037 005a 07       		.byte	0x7
 1038 005b 2B       		.byte	0x2b
 1039 005c 18       		.byte	0x18
 1040 005d 61000000 		.4byte	0x61
 1041 0061 07       		.uleb128 0x7
 1042 0062 01       		.byte	0x1
 1043 0063 08       		.byte	0x8
 1044 0064 01050000 		.4byte	.LASF6
 1045 0068 07       		.uleb128 0x7
 1046 0069 02       		.byte	0x2
 1047 006a 05       		.byte	0x5
 1048 006b 16050000 		.4byte	.LASF7
 1049 006f 02       		.uleb128 0x2
 1050 0070 D9050000 		.4byte	.LASF8
 1051 0074 07       		.byte	0x7
 1052 0075 39       		.byte	0x39
 1053 0076 19       		.byte	0x19
 1054 0077 7B000000 		.4byte	0x7b
 1055 007b 07       		.uleb128 0x7
 1056 007c 02       		.byte	0x2
 1057 007d 07       		.byte	0x7
 1058 007e E1020000 		.4byte	.LASF9
 1059 0082 02       		.uleb128 0x2
 1060 0083 54030000 		.4byte	.LASF10
 1061 0087 07       		.byte	0x7
 1062 0088 4D       		.byte	0x4d
 1063 0089 18       		.byte	0x18
 1064 008a 8E000000 		.4byte	0x8e
 1065 008e 07       		.uleb128 0x7
 1066 008f 04       		.byte	0x4
 1067 0090 05       		.byte	0x5
 1068 0091 87010000 		.4byte	.LASF11
 1069 0095 02       		.uleb128 0x2
 1070 0096 0A020000 		.4byte	.LASF12
 1071 009a 07       		.byte	0x7
 1072 009b 4F       		.byte	0x4f
 1073 009c 19       		.byte	0x19
 1074 009d A1000000 		.4byte	0xa1
 1075 00a1 07       		.uleb128 0x7
 1076 00a2 04       		.byte	0x4
 1077 00a3 07       		.byte	0x7
 1078 00a4 B7000000 		.4byte	.LASF13
 1079 00a8 02       		.uleb128 0x2
 1080 00a9 7D040000 		.4byte	.LASF14
 1081 00ad 07       		.byte	0x7
 1082 00ae 69       		.byte	0x69
 1083 00af 19       		.byte	0x19
ARM GAS  C:\Users\DEVELO~1\AppData\Local\Temp\ccPWz6Q2.s 			page 20


 1084 00b0 B4000000 		.4byte	0xb4
 1085 00b4 07       		.uleb128 0x7
 1086 00b5 08       		.byte	0x8
 1087 00b6 07       		.byte	0x7
 1088 00b7 D7000000 		.4byte	.LASF15
 1089 00bb 2A       		.uleb128 0x2a
 1090 00bc 04       		.byte	0x4
 1091 00bd 07       		.uleb128 0x7
 1092 00be 01       		.byte	0x1
 1093 00bf 08       		.byte	0x8
 1094 00c0 CD050000 		.4byte	.LASF16
 1095 00c4 0B       		.uleb128 0xb
 1096 00c5 BD000000 		.4byte	0xbd
 1097 00c9 04       		.uleb128 0x4
 1098 00ca C4000000 		.4byte	0xc4
 1099 00ce 1D       		.uleb128 0x1d
 1100 00cf C9000000 		.4byte	0xc9
 1101 00d3 02       		.uleb128 0x2
 1102 00d4 A0060000 		.4byte	.LASF17
 1103 00d8 08       		.byte	0x8
 1104 00d9 18       		.byte	0x18
 1105 00da 13       		.byte	0x13
 1106 00db 55000000 		.4byte	0x55
 1107 00df 0B       		.uleb128 0xb
 1108 00e0 D3000000 		.4byte	0xd3
 1109 00e4 02       		.uleb128 0x2
 1110 00e5 CB010000 		.4byte	.LASF18
 1111 00e9 08       		.byte	0x8
 1112 00ea 24       		.byte	0x24
 1113 00eb 14       		.byte	0x14
 1114 00ec 6F000000 		.4byte	0x6f
 1115 00f0 02       		.uleb128 0x2
 1116 00f1 F9040000 		.4byte	.LASF19
 1117 00f5 08       		.byte	0x8
 1118 00f6 2C       		.byte	0x2c
 1119 00f7 13       		.byte	0x13
 1120 00f8 82000000 		.4byte	0x82
 1121 00fc 02       		.uleb128 0x2
 1122 00fd 98050000 		.4byte	.LASF20
 1123 0101 08       		.byte	0x8
 1124 0102 30       		.byte	0x30
 1125 0103 14       		.byte	0x14
 1126 0104 95000000 		.4byte	0x95
 1127 0108 02       		.uleb128 0x2
 1128 0109 2F040000 		.4byte	.LASF21
 1129 010d 08       		.byte	0x8
 1130 010e 3C       		.byte	0x3c
 1131 010f 14       		.byte	0x14
 1132 0110 A8000000 		.4byte	0xa8
 1133 0114 1D       		.uleb128 0x1d
 1134 0115 08010000 		.4byte	0x108
 1135 0119 02       		.uleb128 0x2
 1136 011a A8020000 		.4byte	.LASF22
 1137 011e 09       		.byte	0x9
 1138 011f 48       		.byte	0x48
 1139 0120 1D       		.byte	0x1d
 1140 0121 08010000 		.4byte	0x108
ARM GAS  C:\Users\DEVELO~1\AppData\Local\Temp\ccPWz6Q2.s 			page 21


 1141 0125 02       		.uleb128 0x2
 1142 0126 7B030000 		.4byte	.LASF23
 1143 012a 0A       		.byte	0xa
 1144 012b 50       		.byte	0x50
 1145 012c 19       		.byte	0x19
 1146 012d 19010000 		.4byte	0x119
 1147 0131 02       		.uleb128 0x2
 1148 0132 17030000 		.4byte	.LASF24
 1149 0136 0A       		.byte	0xa
 1150 0137 53       		.byte	0x53
 1151 0138 19       		.byte	0x19
 1152 0139 D3000000 		.4byte	0xd3
 1153 013d 02       		.uleb128 0x2
 1154 013e 90010000 		.4byte	.LASF25
 1155 0142 0A       		.byte	0xa
 1156 0143 54       		.byte	0x54
 1157 0144 19       		.byte	0x19
 1158 0145 D3000000 		.4byte	0xd3
 1159 0149 02       		.uleb128 0x2
 1160 014a A3040000 		.4byte	.LASF26
 1161 014e 0A       		.byte	0xa
 1162 014f 55       		.byte	0x55
 1163 0150 19       		.byte	0x19
 1164 0151 D3000000 		.4byte	0xd3
 1165 0155 02       		.uleb128 0x2
 1166 0156 C8040000 		.4byte	.LASF27
 1167 015a 0A       		.byte	0xa
 1168 015b 57       		.byte	0x57
 1169 015c 19       		.byte	0x19
 1170 015d FC000000 		.4byte	0xfc
 1171 0161 02       		.uleb128 0x2
 1172 0162 08030000 		.4byte	.LASF28
 1173 0166 0A       		.byte	0xa
 1174 0167 58       		.byte	0x58
 1175 0168 19       		.byte	0x19
 1176 0169 F0000000 		.4byte	0xf0
 1177 016d 02       		.uleb128 0x2
 1178 016e 35030000 		.4byte	.LASF29
 1179 0172 0A       		.byte	0xa
 1180 0173 5A       		.byte	0x5a
 1181 0174 19       		.byte	0x19
 1182 0175 FC000000 		.4byte	0xfc
 1183 0179 02       		.uleb128 0x2
 1184 017a 4E020000 		.4byte	.LASF30
 1185 017e 0A       		.byte	0xa
 1186 017f 5C       		.byte	0x5c
 1187 0180 19       		.byte	0x19
 1188 0181 F0000000 		.4byte	0xf0
 1189 0185 02       		.uleb128 0x2
 1190 0186 99040000 		.4byte	.LASF31
 1191 018a 0A       		.byte	0xa
 1192 018b 80       		.byte	0x80
 1193 018c 12       		.byte	0x12
 1194 018d 39000000 		.4byte	0x39
 1195 0191 02       		.uleb128 0x2
 1196 0192 E4050000 		.4byte	.LASF32
 1197 0196 0A       		.byte	0xa
ARM GAS  C:\Users\DEVELO~1\AppData\Local\Temp\ccPWz6Q2.s 			page 22


 1198 0197 85       		.byte	0x85
 1199 0198 1A       		.byte	0x1a
 1200 0199 9D010000 		.4byte	0x19d
 1201 019d 0A       		.uleb128 0xa
 1202 019e FE020000 		.4byte	.LASF47
 1203 01a2 48       		.byte	0x48
 1204 01a3 0B       		.byte	0xb
 1205 01a4 9C       		.byte	0x9c
 1206 01a5 08       		.byte	0x8
 1207 01a6 7A020000 		.4byte	0x27a
 1208 01aa 05       		.uleb128 0x5
 1209 01ab 68647200 		.ascii	"hdr\000"
 1210 01af 0B       		.byte	0xb
 1211 01b0 AD       		.byte	0xad
 1212 01b1 05       		.byte	0x5
 1213 01b2 18070000 		.4byte	0x718
 1214 01b6 00       		.byte	0
 1215 01b7 05       		.uleb128 0x5
 1216 01b8 63747800 		.ascii	"ctx\000"
 1217 01bc 0B       		.byte	0xb
 1218 01bd B1       		.byte	0xb1
 1219 01be 21       		.byte	0x21
 1220 01bf 83060000 		.4byte	0x683
 1221 01c3 0C       		.byte	0xc
 1222 01c4 01       		.uleb128 0x1
 1223 01c5 96020000 		.4byte	.LASF33
 1224 01c9 0B       		.byte	0xb
 1225 01ca B6       		.byte	0xb6
 1226 01cb 21       		.byte	0x21
 1227 01cc AA030000 		.4byte	0x3aa
 1228 01d0 10       		.byte	0x10
 1229 01d1 01       		.uleb128 0x1
 1230 01d2 B4050000 		.4byte	.LASF34
 1231 01d6 0B       		.byte	0xb
 1232 01d7 BB       		.byte	0xbb
 1233 01d8 22       		.byte	0x22
 1234 01d9 1A080000 		.4byte	0x81a
 1235 01dd 18       		.byte	0x18
 1236 01de 01       		.uleb128 0x1
 1237 01df CB020000 		.4byte	.LASF35
 1238 01e3 0B       		.byte	0xb
 1239 01e4 C0       		.byte	0xc0
 1240 01e5 22       		.byte	0x22
 1241 01e6 C9000000 		.4byte	0xc9
 1242 01ea 1C       		.byte	0x1c
 1243 01eb 01       		.uleb128 0x1
 1244 01ec C6050000 		.4byte	.LASF36
 1245 01f0 0B       		.byte	0xb
 1246 01f1 C9       		.byte	0xc9
 1247 01f2 22       		.byte	0x22
 1248 01f3 1F080000 		.4byte	0x81f
 1249 01f7 20       		.byte	0x20
 1250 01f8 01       		.uleb128 0x1
 1251 01f9 81010000 		.4byte	.LASF37
 1252 01fd 0B       		.byte	0xb
 1253 01fe CE       		.byte	0xce
 1254 01ff 21       		.byte	0x21
ARM GAS  C:\Users\DEVELO~1\AppData\Local\Temp\ccPWz6Q2.s 			page 23


 1255 0200 3D010000 		.4byte	0x13d
 1256 0204 24       		.byte	0x24
 1257 0205 01       		.uleb128 0x1
 1258 0206 A8060000 		.4byte	.LASF38
 1259 020a 0B       		.byte	0xb
 1260 020b D2       		.byte	0xd2
 1261 020c 21       		.byte	0x21
 1262 020d 31010000 		.4byte	0x131
 1263 0211 25       		.byte	0x25
 1264 0212 01       		.uleb128 0x1
 1265 0213 BE040000 		.4byte	.LASF39
 1266 0217 0B       		.byte	0xb
 1267 0218 D7       		.byte	0xd7
 1268 0219 21       		.byte	0x21
 1269 021a 49010000 		.4byte	0x149
 1270 021e 26       		.byte	0x26
 1271 021f 08       		.uleb128 0x8
 1272 0220 7500     		.ascii	"u\000"
 1273 0222 0B       		.byte	0xb
 1274 0223 2801     		.2byte	0x128
 1275 0225 21       		.byte	0x21
 1276 0226 45070000 		.4byte	0x745
 1277 022a 28       		.byte	0x28
 1278 022b 03       		.uleb128 0x3
 1279 022c 20020000 		.4byte	.LASF40
 1280 0230 2D01     		.2byte	0x12d
 1281 0232 21       		.byte	0x21
 1282 0233 7E030000 		.4byte	0x37e
 1283 0237 2C       		.byte	0x2c
 1284 0238 03       		.uleb128 0x3
 1285 0239 54020000 		.4byte	.LASF41
 1286 023d 3301     		.2byte	0x133
 1287 023f 21       		.byte	0x21
 1288 0240 AA030000 		.4byte	0x3aa
 1289 0244 30       		.byte	0x30
 1290 0245 03       		.uleb128 0x3
 1291 0246 0E030000 		.4byte	.LASF42
 1292 024a 3901     		.2byte	0x139
 1293 024c 21       		.byte	0x21
 1294 024d 6D010000 		.4byte	0x16d
 1295 0251 38       		.byte	0x38
 1296 0252 03       		.uleb128 0x3
 1297 0253 FB060000 		.4byte	.LASF43
 1298 0257 4001     		.2byte	0x140
 1299 0259 22       		.byte	0x22
 1300 025a 15080000 		.4byte	0x815
 1301 025e 3C       		.byte	0x3c
 1302 025f 03       		.uleb128 0x3
 1303 0260 9D030000 		.4byte	.LASF44
 1304 0264 4401     		.2byte	0x144
 1305 0266 21       		.byte	0x21
 1306 0267 55010000 		.4byte	0x155
 1307 026b 40       		.byte	0x40
 1308 026c 03       		.uleb128 0x3
 1309 026d 7F060000 		.4byte	.LASF45
 1310 0271 4B01     		.2byte	0x14b
 1311 0273 22       		.byte	0x22
ARM GAS  C:\Users\DEVELO~1\AppData\Local\Temp\ccPWz6Q2.s 			page 24


 1312 0274 BB000000 		.4byte	0xbb
 1313 0278 44       		.byte	0x44
 1314 0279 00       		.byte	0
 1315 027a 02       		.uleb128 0x2
 1316 027b 38060000 		.4byte	.LASF46
 1317 027f 0A       		.byte	0xa
 1318 0280 8A       		.byte	0x8a
 1319 0281 1F       		.byte	0x1f
 1320 0282 86020000 		.4byte	0x286
 1321 0286 2B       		.uleb128 0x2b
 1322 0287 29060000 		.4byte	.LASF48
 1323 028b 9008     		.2byte	0x890
 1324 028d 0B       		.byte	0xb
 1325 028e 8A01     		.2byte	0x18a
 1326 0290 08       		.byte	0x8
 1327 0291 0C030000 		.4byte	0x30c
 1328 0295 03       		.uleb128 0x3
 1329 0296 9A060000 		.4byte	.LASF49
 1330 029a 8E01     		.2byte	0x18e
 1331 029c 21       		.byte	0x21
 1332 029d 4D080000 		.4byte	0x84d
 1333 02a1 00       		.byte	0
 1334 02a2 03       		.uleb128 0x3
 1335 02a3 43000000 		.4byte	.LASF50
 1336 02a7 9201     		.2byte	0x192
 1337 02a9 21       		.byte	0x21
 1338 02aa D9060000 		.4byte	0x6d9
 1339 02ae 10       		.byte	0x10
 1340 02af 03       		.uleb128 0x3
 1341 02b0 46060000 		.4byte	.LASF51
 1342 02b4 9901     		.2byte	0x199
 1343 02b6 21       		.byte	0x21
 1344 02b7 00070000 		.4byte	0x700
 1345 02bb 28       		.byte	0x28
 1346 02bc 03       		.uleb128 0x3
 1347 02bd 00000000 		.4byte	.LASF52
 1348 02c1 9E01     		.2byte	0x19e
 1349 02c3 21       		.byte	0x21
 1350 02c4 85010000 		.4byte	0x185
 1351 02c8 30       		.byte	0x30
 1352 02c9 03       		.uleb128 0x3
 1353 02ca 23000000 		.4byte	.LASF53
 1354 02ce A401     		.2byte	0x1a4
 1355 02d0 21       		.byte	0x21
 1356 02d1 33030000 		.4byte	0x333
 1357 02d5 34       		.byte	0x34
 1358 02d6 03       		.uleb128 0x3
 1359 02d7 D2050000 		.4byte	.LASF54
 1360 02db A901     		.2byte	0x1a9
 1361 02dd 22       		.byte	0x22
 1362 02de B8080000 		.4byte	0x8b8
 1363 02e2 38       		.byte	0x38
 1364 02e3 03       		.uleb128 0x3
 1365 02e4 7B000000 		.4byte	.LASF55
 1366 02e8 AD01     		.2byte	0x1ad
 1367 02ea 21       		.byte	0x21
 1368 02eb 91010000 		.4byte	0x191
ARM GAS  C:\Users\DEVELO~1\AppData\Local\Temp\ccPWz6Q2.s 			page 25


 1369 02ef 3C       		.byte	0x3c
 1370 02f0 08       		.uleb128 0x8
 1371 02f1 64626700 		.ascii	"dbg\000"
 1372 02f5 0B       		.byte	0xb
 1373 02f6 B101     		.2byte	0x1b1
 1374 02f8 21       		.byte	0x21
 1375 02f9 5A030000 		.4byte	0x35a
 1376 02fd 84       		.byte	0x84
 1377 02fe 03       		.uleb128 0x3
 1378 02ff C4060000 		.4byte	.LASF56
 1379 0303 B601     		.2byte	0x1b6
 1380 0305 21       		.byte	0x21
 1381 0306 F1050000 		.4byte	0x5f1
 1382 030a 88       		.byte	0x88
 1383 030b 00       		.byte	0
 1384 030c 02       		.uleb128 0x2
 1385 030d BB030000 		.4byte	.LASF57
 1386 0311 0C       		.byte	0xc
 1387 0312 3F       		.byte	0x3f
 1388 0313 12       		.byte	0x12
 1389 0314 FC000000 		.4byte	0xfc
 1390 0318 0A       		.uleb128 0xa
 1391 0319 99010000 		.4byte	.LASF58
 1392 031d 04       		.byte	0x4
 1393 031e 0C       		.byte	0xc
 1394 031f 44       		.byte	0x44
 1395 0320 10       		.byte	0x10
 1396 0321 33030000 		.4byte	0x333
 1397 0325 01       		.uleb128 0x1
 1398 0326 15020000 		.4byte	.LASF59
 1399 032a 0C       		.byte	0xc
 1400 032b 48       		.byte	0x48
 1401 032c 21       		.byte	0x21
 1402 032d 0C030000 		.4byte	0x30c
 1403 0331 00       		.byte	0
 1404 0332 00       		.byte	0
 1405 0333 02       		.uleb128 0x2
 1406 0334 0F050000 		.4byte	.LASF60
 1407 0338 0C       		.byte	0xc
 1408 0339 49       		.byte	0x49
 1409 033a 03       		.byte	0x3
 1410 033b 18030000 		.4byte	0x318
 1411 033f 0A       		.uleb128 0xa
 1412 0340 E3040000 		.4byte	.LASF61
 1413 0344 04       		.byte	0x4
 1414 0345 0D       		.byte	0xd
 1415 0346 3E       		.byte	0x3e
 1416 0347 10       		.byte	0x10
 1417 0348 5A030000 		.4byte	0x35a
 1418 034c 01       		.uleb128 0x1
 1419 034d 18060000 		.4byte	.LASF62
 1420 0351 0D       		.byte	0xd
 1421 0352 46       		.byte	0x46
 1422 0353 24       		.byte	0x24
 1423 0354 CE000000 		.4byte	0xce
 1424 0358 00       		.byte	0
 1425 0359 00       		.byte	0
ARM GAS  C:\Users\DEVELO~1\AppData\Local\Temp\ccPWz6Q2.s 			page 26


 1426 035a 02       		.uleb128 0x2
 1427 035b 81020000 		.4byte	.LASF63
 1428 035f 0D       		.byte	0xd
 1429 0360 51       		.byte	0x51
 1430 0361 03       		.byte	0x3
 1431 0362 3F030000 		.4byte	0x33f
 1432 0366 02       		.uleb128 0x2
 1433 0367 F3050000 		.4byte	.LASF64
 1434 036b 0E       		.byte	0xe
 1435 036c 6D       		.byte	0x6d
 1436 036d 12       		.byte	0x12
 1437 036e FC000000 		.4byte	0xfc
 1438 0372 02       		.uleb128 0x2
 1439 0373 40020000 		.4byte	.LASF65
 1440 0377 0E       		.byte	0xe
 1441 0378 79       		.byte	0x79
 1442 0379 12       		.byte	0x12
 1443 037a FC000000 		.4byte	0xfc
 1444 037e 02       		.uleb128 0x2
 1445 037f 11040000 		.4byte	.LASF66
 1446 0383 0F       		.byte	0xf
 1447 0384 32       		.byte	0x32
 1448 0385 18       		.byte	0x18
 1449 0386 8A030000 		.4byte	0x38a
 1450 038a 0A       		.uleb128 0xa
 1451 038b 1F030000 		.4byte	.LASF67
 1452 038f 04       		.byte	0x4
 1453 0390 0F       		.byte	0xf
 1454 0391 38       		.byte	0x38
 1455 0392 08       		.byte	0x8
 1456 0393 A5030000 		.4byte	0x3a5
 1457 0397 01       		.uleb128 0x1
 1458 0398 9A000000 		.4byte	.LASF68
 1459 039c 0F       		.byte	0xf
 1460 039d 39       		.byte	0x39
 1461 039e 1A       		.byte	0x1a
 1462 039f A5030000 		.4byte	0x3a5
 1463 03a3 00       		.byte	0
 1464 03a4 00       		.byte	0
 1465 03a5 04       		.uleb128 0x4
 1466 03a6 7E030000 		.4byte	0x37e
 1467 03aa 02       		.uleb128 0x2
 1468 03ab 9D020000 		.4byte	.LASF69
 1469 03af 0F       		.byte	0xf
 1470 03b0 3F       		.byte	0x3f
 1471 03b1 19       		.byte	0x19
 1472 03b2 B6030000 		.4byte	0x3b6
 1473 03b6 0A       		.uleb128 0xa
 1474 03b7 B4010000 		.4byte	.LASF70
 1475 03bb 08       		.byte	0x8
 1476 03bc 0F       		.byte	0xf
 1477 03bd 45       		.byte	0x45
 1478 03be 08       		.byte	0x8
 1479 03bf DE030000 		.4byte	0x3de
 1480 03c3 01       		.uleb128 0x1
 1481 03c4 9A000000 		.4byte	.LASF68
 1482 03c8 0F       		.byte	0xf
ARM GAS  C:\Users\DEVELO~1\AppData\Local\Temp\ccPWz6Q2.s 			page 27


 1483 03c9 46       		.byte	0x46
 1484 03ca 1A       		.byte	0x1a
 1485 03cb DE030000 		.4byte	0x3de
 1486 03cf 00       		.byte	0
 1487 03d0 01       		.uleb128 0x1
 1488 03d1 32000000 		.4byte	.LASF71
 1489 03d5 0F       		.byte	0xf
 1490 03d6 47       		.byte	0x47
 1491 03d7 1A       		.byte	0x1a
 1492 03d8 DE030000 		.4byte	0x3de
 1493 03dc 04       		.byte	0x4
 1494 03dd 00       		.byte	0
 1495 03de 04       		.uleb128 0x4
 1496 03df AA030000 		.4byte	0x3aa
 1497 03e3 02       		.uleb128 0x2
 1498 03e4 04060000 		.4byte	.LASF72
 1499 03e8 0F       		.byte	0xf
 1500 03e9 4E       		.byte	0x4e
 1501 03ea 22       		.byte	0x22
 1502 03eb EF030000 		.4byte	0x3ef
 1503 03ef 0A       		.uleb128 0xa
 1504 03f0 4E060000 		.4byte	.LASF73
 1505 03f4 0C       		.byte	0xc
 1506 03f5 0F       		.byte	0xf
 1507 03f6 55       		.byte	0x55
 1508 03f7 08       		.byte	0x8
 1509 03f8 24040000 		.4byte	0x424
 1510 03fc 01       		.uleb128 0x1
 1511 03fd 9A000000 		.4byte	.LASF68
 1512 0401 0F       		.byte	0xf
 1513 0402 56       		.byte	0x56
 1514 0403 1A       		.byte	0x1a
 1515 0404 24040000 		.4byte	0x424
 1516 0408 00       		.byte	0
 1517 0409 01       		.uleb128 0x1
 1518 040a 32000000 		.4byte	.LASF71
 1519 040e 0F       		.byte	0xf
 1520 040f 57       		.byte	0x57
 1521 0410 1A       		.byte	0x1a
 1522 0411 24040000 		.4byte	0x424
 1523 0415 04       		.byte	0x4
 1524 0416 01       		.uleb128 0x1
 1525 0417 70040000 		.4byte	.LASF74
 1526 041b 0F       		.byte	0xf
 1527 041c 58       		.byte	0x58
 1528 041d 19       		.byte	0x19
 1529 041e 55010000 		.4byte	0x155
 1530 0422 08       		.byte	0x8
 1531 0423 00       		.byte	0
 1532 0424 04       		.uleb128 0x4
 1533 0425 E3030000 		.4byte	0x3e3
 1534 0429 02       		.uleb128 0x2
 1535 042a 60060000 		.4byte	.LASF75
 1536 042e 0F       		.byte	0xf
 1537 042f 5F       		.byte	0x5f
 1538 0430 1E       		.byte	0x1e
 1539 0431 35040000 		.4byte	0x435
ARM GAS  C:\Users\DEVELO~1\AppData\Local\Temp\ccPWz6Q2.s 			page 28


 1540 0435 0A       		.uleb128 0xa
 1541 0436 C9000000 		.4byte	.LASF76
 1542 043a 0C       		.byte	0xc
 1543 043b 0F       		.byte	0xf
 1544 043c 64       		.byte	0x64
 1545 043d 08       		.byte	0x8
 1546 043e 6A040000 		.4byte	0x46a
 1547 0442 01       		.uleb128 0x1
 1548 0443 9A000000 		.4byte	.LASF68
 1549 0447 0F       		.byte	0xf
 1550 0448 65       		.byte	0x65
 1551 0449 1A       		.byte	0x1a
 1552 044a 6A040000 		.4byte	0x46a
 1553 044e 00       		.byte	0
 1554 044f 01       		.uleb128 0x1
 1555 0450 32000000 		.4byte	.LASF71
 1556 0454 0F       		.byte	0xf
 1557 0455 66       		.byte	0x66
 1558 0456 1A       		.byte	0x1a
 1559 0457 6A040000 		.4byte	0x46a
 1560 045b 04       		.byte	0x4
 1561 045c 01       		.uleb128 0x1
 1562 045d 94000000 		.4byte	.LASF77
 1563 0461 0F       		.byte	0xf
 1564 0462 67       		.byte	0x67
 1565 0463 19       		.byte	0x19
 1566 0464 72030000 		.4byte	0x372
 1567 0468 08       		.byte	0x8
 1568 0469 00       		.byte	0
 1569 046a 04       		.uleb128 0x4
 1570 046b 29040000 		.4byte	0x429
 1571 046f 0C       		.uleb128 0xc
 1572 0470 08       		.byte	0x8
 1573 0471 10       		.byte	0x10
 1574 0472 83       		.byte	0x83
 1575 0473 05       		.byte	0x5
 1576 0474 93040000 		.4byte	0x493
 1577 0478 05       		.uleb128 0x5
 1578 0479 6E747000 		.ascii	"ntp\000"
 1579 047d 10       		.byte	0x10
 1580 047e 87       		.byte	0x87
 1581 047f 1E       		.byte	0x1e
 1582 0480 93040000 		.4byte	0x493
 1583 0484 00       		.byte	0
 1584 0485 01       		.uleb128 0x1
 1585 0486 58050000 		.4byte	.LASF78
 1586 048a 10       		.byte	0x10
 1587 048b 8B       		.byte	0x8b
 1588 048c 1E       		.byte	0x1e
 1589 048d BB000000 		.4byte	0xbb
 1590 0491 04       		.byte	0x4
 1591 0492 00       		.byte	0
 1592 0493 04       		.uleb128 0x4
 1593 0494 91010000 		.4byte	0x191
 1594 0498 0C       		.uleb128 0xc
 1595 0499 08       		.byte	0x8
 1596 049a 10       		.byte	0x10
ARM GAS  C:\Users\DEVELO~1\AppData\Local\Temp\ccPWz6Q2.s 			page 29


 1597 049b 90       		.byte	0x90
 1598 049c 05       		.byte	0x5
 1599 049d BB040000 		.4byte	0x4bb
 1600 04a1 05       		.uleb128 0x5
 1601 04a2 747000   		.ascii	"tp\000"
 1602 04a5 10       		.byte	0x10
 1603 04a6 94       		.byte	0x94
 1604 04a7 1E       		.byte	0x1e
 1605 04a8 93040000 		.4byte	0x493
 1606 04ac 00       		.byte	0
 1607 04ad 05       		.uleb128 0x5
 1608 04ae 6D736700 		.ascii	"msg\000"
 1609 04b2 10       		.byte	0x10
 1610 04b3 98       		.byte	0x98
 1611 04b4 1D       		.byte	0x1d
 1612 04b5 61010000 		.4byte	0x161
 1613 04b9 04       		.byte	0x4
 1614 04ba 00       		.byte	0
 1615 04bb 0C       		.uleb128 0xc
 1616 04bc 04       		.byte	0x4
 1617 04bd 10       		.byte	0x10
 1618 04be 9D       		.byte	0x9d
 1619 04bf 05       		.byte	0x5
 1620 04c0 D2040000 		.4byte	0x4d2
 1621 04c4 01       		.uleb128 0x1
 1622 04c5 CB020000 		.4byte	.LASF35
 1623 04c9 10       		.byte	0x10
 1624 04ca A1       		.byte	0xa1
 1625 04cb 1E       		.byte	0x1e
 1626 04cc C9000000 		.4byte	0xc9
 1627 04d0 00       		.byte	0
 1628 04d1 00       		.byte	0
 1629 04d2 0C       		.uleb128 0xc
 1630 04d3 04       		.byte	0x4
 1631 04d4 10       		.byte	0x10
 1632 04d5 A6       		.byte	0xa6
 1633 04d6 05       		.byte	0x5
 1634 04d7 E9040000 		.4byte	0x4e9
 1635 04db 01       		.uleb128 0x1
 1636 04dc 79050000 		.4byte	.LASF79
 1637 04e0 10       		.byte	0x10
 1638 04e1 AA       		.byte	0xaa
 1639 04e2 1E       		.byte	0x1e
 1640 04e3 C9000000 		.4byte	0xc9
 1641 04e7 00       		.byte	0
 1642 04e8 00       		.byte	0
 1643 04e9 0C       		.uleb128 0xc
 1644 04ea 08       		.byte	0x8
 1645 04eb 10       		.byte	0x10
 1646 04ec AF       		.byte	0xaf
 1647 04ed 05       		.byte	0x5
 1648 04ee 0D050000 		.4byte	0x50d
 1649 04f2 05       		.uleb128 0x5
 1650 04f3 75703100 		.ascii	"up1\000"
 1651 04f7 10       		.byte	0x10
 1652 04f8 B3       		.byte	0xb3
 1653 04f9 1E       		.byte	0x1e
ARM GAS  C:\Users\DEVELO~1\AppData\Local\Temp\ccPWz6Q2.s 			page 30


 1654 04fa BB000000 		.4byte	0xbb
 1655 04fe 00       		.byte	0
 1656 04ff 05       		.uleb128 0x5
 1657 0500 75703200 		.ascii	"up2\000"
 1658 0504 10       		.byte	0x10
 1659 0505 B7       		.byte	0xb7
 1660 0506 1E       		.byte	0x1e
 1661 0507 BB000000 		.4byte	0xbb
 1662 050b 04       		.byte	0x4
 1663 050c 00       		.byte	0
 1664 050d 18       		.uleb128 0x18
 1665 050e 08       		.byte	0x8
 1666 050f 10       		.byte	0x10
 1667 0510 7F       		.byte	0x7f
 1668 0511 4B050000 		.4byte	0x54b
 1669 0515 19       		.uleb128 0x19
 1670 0516 737700   		.ascii	"sw\000"
 1671 0519 8C       		.byte	0x8c
 1672 051a 6F040000 		.4byte	0x46f
 1673 051e 19       		.uleb128 0x19
 1674 051f 72647900 		.ascii	"rdy\000"
 1675 0523 99       		.byte	0x99
 1676 0524 98040000 		.4byte	0x498
 1677 0528 19       		.uleb128 0x19
 1678 0529 69737200 		.ascii	"isr\000"
 1679 052d A2       		.byte	0xa2
 1680 052e BB040000 		.4byte	0x4bb
 1681 0532 0D       		.uleb128 0xd
 1682 0533 62000000 		.4byte	.LASF80
 1683 0537 10       		.byte	0x10
 1684 0538 AB       		.byte	0xab
 1685 0539 07       		.byte	0x7
 1686 053a D2040000 		.4byte	0x4d2
 1687 053e 0D       		.uleb128 0xd
 1688 053f C3040000 		.4byte	.LASF81
 1689 0543 10       		.byte	0x10
 1690 0544 B8       		.byte	0xb8
 1691 0545 07       		.byte	0x7
 1692 0546 E9040000 		.4byte	0x4e9
 1693 054a 00       		.byte	0
 1694 054b 0C       		.uleb128 0xc
 1695 054c 10       		.byte	0x10
 1696 054d 10       		.byte	0x10
 1697 054e 6C       		.byte	0x6c
 1698 054f 09       		.byte	0x9
 1699 0550 91050000 		.4byte	0x591
 1700 0554 1A       		.uleb128 0x1a
 1701 0555 4A000000 		.4byte	.LASF82
 1702 0559 70       		.byte	0x70
 1703 055a FC000000 		.4byte	0xfc
 1704 055e 03       		.byte	0x3
 1705 055f 00       		.byte	0
 1706 0560 1A       		.uleb128 0x1a
 1707 0561 81010000 		.4byte	.LASF37
 1708 0565 74       		.byte	0x74
 1709 0566 FC000000 		.4byte	0xfc
 1710 056a 05       		.byte	0x5
ARM GAS  C:\Users\DEVELO~1\AppData\Local\Temp\ccPWz6Q2.s 			page 31


 1711 056b 03       		.byte	0x3
 1712 056c 1A       		.uleb128 0x1a
 1713 056d 8B030000 		.4byte	.LASF83
 1714 0571 7A       		.byte	0x7a
 1715 0572 FC000000 		.4byte	0xfc
 1716 0576 18       		.byte	0x18
 1717 0577 08       		.byte	0x8
 1718 0578 01       		.uleb128 0x1
 1719 0579 6B040000 		.4byte	.LASF84
 1720 057d 10       		.byte	0x10
 1721 057e 7E       		.byte	0x7e
 1722 057f 19       		.byte	0x19
 1723 0580 66030000 		.4byte	0x366
 1724 0584 04       		.byte	0x4
 1725 0585 05       		.uleb128 0x5
 1726 0586 7500     		.ascii	"u\000"
 1727 0588 10       		.byte	0x10
 1728 0589 B9       		.byte	0xb9
 1729 058a 05       		.byte	0x5
 1730 058b 0D050000 		.4byte	0x50d
 1731 058f 08       		.byte	0x8
 1732 0590 00       		.byte	0
 1733 0591 02       		.uleb128 0x2
 1734 0592 54000000 		.4byte	.LASF85
 1735 0596 10       		.byte	0x10
 1736 0597 BA       		.byte	0xba
 1737 0598 03       		.byte	0x3
 1738 0599 4B050000 		.4byte	0x54b
 1739 059d 2C       		.uleb128 0x2c
 1740 059e 0808     		.2byte	0x808
 1741 05a0 10       		.byte	0x10
 1742 05a1 C0       		.byte	0xc0
 1743 05a2 09       		.byte	0x9
 1744 05a3 DC050000 		.4byte	0x5dc
 1745 05a7 01       		.uleb128 0x1
 1746 05a8 1B040000 		.4byte	.LASF86
 1747 05ac 10       		.byte	0x10
 1748 05ad C4       		.byte	0xc4
 1749 05ae 19       		.byte	0x19
 1750 05af E4000000 		.4byte	0xe4
 1751 05b3 00       		.byte	0
 1752 05b4 01       		.uleb128 0x1
 1753 05b5 DC020000 		.4byte	.LASF87
 1754 05b9 10       		.byte	0x10
 1755 05ba C8       		.byte	0xc8
 1756 05bb 19       		.byte	0x19
 1757 05bc E4000000 		.4byte	0xe4
 1758 05c0 02       		.byte	0x2
 1759 05c1 05       		.uleb128 0x5
 1760 05c2 70747200 		.ascii	"ptr\000"
 1761 05c6 10       		.byte	0x10
 1762 05c7 CC       		.byte	0xcc
 1763 05c8 1A       		.byte	0x1a
 1764 05c9 DC050000 		.4byte	0x5dc
 1765 05cd 04       		.byte	0x4
 1766 05ce 01       		.uleb128 0x1
 1767 05cf FD050000 		.4byte	.LASF88
ARM GAS  C:\Users\DEVELO~1\AppData\Local\Temp\ccPWz6Q2.s 			page 32


 1768 05d3 10       		.byte	0x10
 1769 05d4 D0       		.byte	0xd0
 1770 05d5 19       		.byte	0x19
 1771 05d6 E1050000 		.4byte	0x5e1
 1772 05da 08       		.byte	0x8
 1773 05db 00       		.byte	0
 1774 05dc 04       		.uleb128 0x4
 1775 05dd 91050000 		.4byte	0x591
 1776 05e1 10       		.uleb128 0x10
 1777 05e2 91050000 		.4byte	0x591
 1778 05e6 F1050000 		.4byte	0x5f1
 1779 05ea 11       		.uleb128 0x11
 1780 05eb 39000000 		.4byte	0x39
 1781 05ef 7F       		.byte	0x7f
 1782 05f0 00       		.byte	0
 1783 05f1 02       		.uleb128 0x2
 1784 05f2 29050000 		.4byte	.LASF89
 1785 05f6 10       		.byte	0x10
 1786 05f7 D1       		.byte	0xd1
 1787 05f8 03       		.byte	0x3
 1788 05f9 9D050000 		.4byte	0x59d
 1789 05fd 13       		.uleb128 0x13
 1790 05fe 37000000 		.4byte	.LASF90
 1791 0602 24       		.byte	0x24
 1792 0603 03       		.byte	0x3
 1793 0604 E001     		.2byte	0x1e0
 1794 0606 08       		.byte	0x8
 1795 0607 83060000 		.4byte	0x683
 1796 060b 08       		.uleb128 0x8
 1797 060c 723400   		.ascii	"r4\000"
 1798 060f 03       		.byte	0x3
 1799 0610 F901     		.2byte	0x1f9
 1800 0612 11       		.byte	0x11
 1801 0613 FC000000 		.4byte	0xfc
 1802 0617 00       		.byte	0
 1803 0618 08       		.uleb128 0x8
 1804 0619 723500   		.ascii	"r5\000"
 1805 061c 03       		.byte	0x3
 1806 061d FA01     		.2byte	0x1fa
 1807 061f 11       		.byte	0x11
 1808 0620 FC000000 		.4byte	0xfc
 1809 0624 04       		.byte	0x4
 1810 0625 08       		.uleb128 0x8
 1811 0626 723600   		.ascii	"r6\000"
 1812 0629 03       		.byte	0x3
 1813 062a FB01     		.2byte	0x1fb
 1814 062c 11       		.byte	0x11
 1815 062d FC000000 		.4byte	0xfc
 1816 0631 08       		.byte	0x8
 1817 0632 08       		.uleb128 0x8
 1818 0633 723700   		.ascii	"r7\000"
 1819 0636 03       		.byte	0x3
 1820 0637 FC01     		.2byte	0x1fc
 1821 0639 11       		.byte	0x11
 1822 063a FC000000 		.4byte	0xfc
 1823 063e 0C       		.byte	0xc
 1824 063f 08       		.uleb128 0x8
ARM GAS  C:\Users\DEVELO~1\AppData\Local\Temp\ccPWz6Q2.s 			page 33


 1825 0640 723800   		.ascii	"r8\000"
 1826 0643 03       		.byte	0x3
 1827 0644 FD01     		.2byte	0x1fd
 1828 0646 11       		.byte	0x11
 1829 0647 FC000000 		.4byte	0xfc
 1830 064b 10       		.byte	0x10
 1831 064c 08       		.uleb128 0x8
 1832 064d 723900   		.ascii	"r9\000"
 1833 0650 03       		.byte	0x3
 1834 0651 FE01     		.2byte	0x1fe
 1835 0653 11       		.byte	0x11
 1836 0654 FC000000 		.4byte	0xfc
 1837 0658 14       		.byte	0x14
 1838 0659 08       		.uleb128 0x8
 1839 065a 72313000 		.ascii	"r10\000"
 1840 065e 03       		.byte	0x3
 1841 065f FF01     		.2byte	0x1ff
 1842 0661 11       		.byte	0x11
 1843 0662 FC000000 		.4byte	0xfc
 1844 0666 18       		.byte	0x18
 1845 0667 08       		.uleb128 0x8
 1846 0668 72313100 		.ascii	"r11\000"
 1847 066c 03       		.byte	0x3
 1848 066d 0002     		.2byte	0x200
 1849 066f 11       		.byte	0x11
 1850 0670 FC000000 		.4byte	0xfc
 1851 0674 1C       		.byte	0x1c
 1852 0675 08       		.uleb128 0x8
 1853 0676 6C7200   		.ascii	"lr\000"
 1854 0679 03       		.byte	0x3
 1855 067a 0102     		.2byte	0x201
 1856 067c 11       		.byte	0x11
 1857 067d FC000000 		.4byte	0xfc
 1858 0681 20       		.byte	0x20
 1859 0682 00       		.byte	0
 1860 0683 13       		.uleb128 0x13
 1861 0684 5E040000 		.4byte	.LASF91
 1862 0688 04       		.byte	0x4
 1863 0689 03       		.byte	0x3
 1864 068a 0A02     		.2byte	0x20a
 1865 068c 08       		.byte	0x8
 1866 068d 9F060000 		.4byte	0x69f
 1867 0691 08       		.uleb128 0x8
 1868 0692 737000   		.ascii	"sp\000"
 1869 0695 03       		.byte	0x3
 1870 0696 0B02     		.2byte	0x20b
 1871 0698 1A       		.byte	0x1a
 1872 0699 9F060000 		.4byte	0x69f
 1873 069d 00       		.byte	0
 1874 069e 00       		.byte	0
 1875 069f 04       		.uleb128 0x4
 1876 06a0 FD050000 		.4byte	0x5fd
 1877 06a4 0A       		.uleb128 0xa
 1878 06a5 EC030000 		.4byte	.LASF92
 1879 06a9 18       		.byte	0x18
 1880 06aa 0B       		.byte	0xb
 1881 06ab 64       		.byte	0x64
ARM GAS  C:\Users\DEVELO~1\AppData\Local\Temp\ccPWz6Q2.s 			page 34


 1882 06ac 10       		.byte	0x10
 1883 06ad D9060000 		.4byte	0x6d9
 1884 06b1 01       		.uleb128 0x1
 1885 06b2 ED050000 		.4byte	.LASF93
 1886 06b6 0B       		.byte	0xb
 1887 06b7 68       		.byte	0x68
 1888 06b8 21       		.byte	0x21
 1889 06b9 29040000 		.4byte	0x429
 1890 06bd 00       		.byte	0
 1891 06be 01       		.uleb128 0x1
 1892 06bf 20050000 		.4byte	.LASF94
 1893 06c3 0B       		.byte	0xb
 1894 06c4 73       		.byte	0x73
 1895 06c5 21       		.byte	0x21
 1896 06c6 66030000 		.4byte	0x366
 1897 06ca 0C       		.byte	0xc
 1898 06cb 01       		.uleb128 0x1
 1899 06cc 93030000 		.4byte	.LASF95
 1900 06d0 0B       		.byte	0xb
 1901 06d1 79       		.byte	0x79
 1902 06d2 21       		.byte	0x21
 1903 06d3 14010000 		.4byte	0x114
 1904 06d7 10       		.byte	0x10
 1905 06d8 00       		.byte	0
 1906 06d9 02       		.uleb128 0x2
 1907 06da 5E030000 		.4byte	.LASF96
 1908 06de 0B       		.byte	0xb
 1909 06df 7B       		.byte	0x7b
 1910 06e0 03       		.byte	0x3
 1911 06e1 A4060000 		.4byte	0x6a4
 1912 06e5 0A       		.uleb128 0xa
 1913 06e6 DF010000 		.4byte	.LASF97
 1914 06ea 08       		.byte	0x8
 1915 06eb 0B       		.byte	0xb
 1916 06ec 80       		.byte	0x80
 1917 06ed 10       		.byte	0x10
 1918 06ee 00070000 		.4byte	0x700
 1919 06f2 01       		.uleb128 0x1
 1920 06f3 C5020000 		.4byte	.LASF98
 1921 06f7 0B       		.byte	0xb
 1922 06f8 84       		.byte	0x84
 1923 06f9 21       		.byte	0x21
 1924 06fa AA030000 		.4byte	0x3aa
 1925 06fe 00       		.byte	0
 1926 06ff 00       		.byte	0
 1927 0700 02       		.uleb128 0x2
 1928 0701 8D050000 		.4byte	.LASF99
 1929 0705 0B       		.byte	0xb
 1930 0706 85       		.byte	0x85
 1931 0707 03       		.byte	0x3
 1932 0708 E5060000 		.4byte	0x6e5
 1933 070c 02       		.uleb128 0x2
 1934 070d C7030000 		.4byte	.LASF100
 1935 0711 0B       		.byte	0xb
 1936 0712 8A       		.byte	0x8a
 1937 0713 14       		.byte	0x14
 1938 0714 93040000 		.4byte	0x493
ARM GAS  C:\Users\DEVELO~1\AppData\Local\Temp\ccPWz6Q2.s 			page 35


 1939 0718 18       		.uleb128 0x18
 1940 0719 0C       		.byte	0xc
 1941 071a 0B       		.byte	0xb
 1942 071b A0       		.byte	0xa0
 1943 071c 45070000 		.4byte	0x745
 1944 0720 0D       		.uleb128 0xd
 1945 0721 DD060000 		.4byte	.LASF101
 1946 0725 0B       		.byte	0xb
 1947 0726 A4       		.byte	0xa4
 1948 0727 21       		.byte	0x21
 1949 0728 7E030000 		.4byte	0x37e
 1950 072c 0D       		.uleb128 0xd
 1951 072d C5020000 		.4byte	.LASF98
 1952 0731 0B       		.byte	0xb
 1953 0732 A8       		.byte	0xa8
 1954 0733 21       		.byte	0x21
 1955 0734 AA030000 		.4byte	0x3aa
 1956 0738 0D       		.uleb128 0xd
 1957 0739 22060000 		.4byte	.LASF102
 1958 073d 0B       		.byte	0xb
 1959 073e AC       		.byte	0xac
 1960 073f 21       		.byte	0x21
 1961 0740 E3030000 		.4byte	0x3e3
 1962 0744 00       		.byte	0
 1963 0745 18       		.uleb128 0x18
 1964 0746 04       		.byte	0x4
 1965 0747 0B       		.byte	0xb
 1966 0748 EB       		.byte	0xeb
 1967 0749 AE070000 		.4byte	0x7ae
 1968 074d 0D       		.uleb128 0xd
 1969 074e 1C000000 		.4byte	.LASF103
 1970 0752 0B       		.byte	0xb
 1971 0753 F2       		.byte	0xf2
 1972 0754 21       		.byte	0x21
 1973 0755 61010000 		.4byte	0x161
 1974 0759 0D       		.uleb128 0xd
 1975 075a 72000000 		.4byte	.LASF104
 1976 075e 0B       		.byte	0xb
 1977 075f F9       		.byte	0xf9
 1978 0760 21       		.byte	0x21
 1979 0761 61010000 		.4byte	0x161
 1980 0765 0E       		.uleb128 0xe
 1981 0766 58050000 		.4byte	.LASF78
 1982 076a 0001     		.2byte	0x100
 1983 076c 22       		.byte	0x22
 1984 076d BB000000 		.4byte	0xbb
 1985 0771 0E       		.uleb128 0xe
 1986 0772 90020000 		.4byte	.LASF105
 1987 0776 0701     		.2byte	0x107
 1988 0778 22       		.byte	0x22
 1989 0779 AE070000 		.4byte	0x7ae
 1990 077d 0E       		.uleb128 0xe
 1991 077e 86000000 		.4byte	.LASF106
 1992 0782 0C01     		.2byte	0x10c
 1993 0784 21       		.byte	0x21
 1994 0785 61010000 		.4byte	0x161
 1995 0789 0E       		.uleb128 0xe
ARM GAS  C:\Users\DEVELO~1\AppData\Local\Temp\ccPWz6Q2.s 			page 36


 1996 078a 7A020000 		.4byte	.LASF107
 1997 078e 1501     		.2byte	0x115
 1998 0790 22       		.byte	0x22
 1999 0791 DB070000 		.4byte	0x7db
 2000 0795 0E       		.uleb128 0xe
 2001 0796 A1050000 		.4byte	.LASF108
 2002 079a 1E01     		.2byte	0x11e
 2003 079c 22       		.byte	0x22
 2004 079d 15080000 		.4byte	0x815
 2005 07a1 0E       		.uleb128 0xe
 2006 07a2 5F050000 		.4byte	.LASF109
 2007 07a6 2601     		.2byte	0x126
 2008 07a8 21       		.byte	0x21
 2009 07a9 6D010000 		.4byte	0x16d
 2010 07ad 00       		.byte	0
 2011 07ae 04       		.uleb128 0x4
 2012 07af 0C070000 		.4byte	0x70c
 2013 07b3 0A       		.uleb128 0xa
 2014 07b4 80050000 		.4byte	.LASF110
 2015 07b8 0C       		.byte	0xc
 2016 07b9 11       		.byte	0x11
 2017 07ba 34       		.byte	0x34
 2018 07bb 10       		.byte	0x10
 2019 07bc DB070000 		.4byte	0x7db
 2020 07c0 01       		.uleb128 0x1
 2021 07c1 C5020000 		.4byte	.LASF98
 2022 07c5 11       		.byte	0x11
 2023 07c6 35       		.byte	0x35
 2024 07c7 19       		.byte	0x19
 2025 07c8 AA030000 		.4byte	0x3aa
 2026 07cc 00       		.byte	0
 2027 07cd 05       		.uleb128 0x5
 2028 07ce 636E7400 		.ascii	"cnt\000"
 2029 07d2 11       		.byte	0x11
 2030 07d3 37       		.byte	0x37
 2031 07d4 19       		.byte	0x19
 2032 07d5 79010000 		.4byte	0x179
 2033 07d9 08       		.byte	0x8
 2034 07da 00       		.byte	0
 2035 07db 04       		.uleb128 0x4
 2036 07dc B3070000 		.4byte	0x7b3
 2037 07e0 0A       		.uleb128 0xa
 2038 07e1 AE060000 		.4byte	.LASF111
 2039 07e5 10       		.byte	0x10
 2040 07e6 12       		.byte	0x12
 2041 07e7 39       		.byte	0x39
 2042 07e8 08       		.byte	0x8
 2043 07e9 15080000 		.4byte	0x815
 2044 07ed 01       		.uleb128 0x1
 2045 07ee C5020000 		.4byte	.LASF98
 2046 07f2 12       		.byte	0x12
 2047 07f3 3A       		.byte	0x3a
 2048 07f4 19       		.byte	0x19
 2049 07f5 AA030000 		.4byte	0x3aa
 2050 07f9 00       		.byte	0
 2051 07fa 01       		.uleb128 0x1
 2052 07fb B4050000 		.4byte	.LASF34
ARM GAS  C:\Users\DEVELO~1\AppData\Local\Temp\ccPWz6Q2.s 			page 37


 2053 07ff 12       		.byte	0x12
 2054 0800 3C       		.byte	0x3c
 2055 0801 1A       		.byte	0x1a
 2056 0802 93040000 		.4byte	0x493
 2057 0806 08       		.byte	0x8
 2058 0807 01       		.uleb128 0x1
 2059 0808 9A000000 		.4byte	.LASF68
 2060 080c 12       		.byte	0x12
 2061 080d 3E       		.byte	0x3e
 2062 080e 1A       		.byte	0x1a
 2063 080f C9080000 		.4byte	0x8c9
 2064 0813 0C       		.byte	0xc
 2065 0814 00       		.byte	0
 2066 0815 04       		.uleb128 0x4
 2067 0816 E0070000 		.4byte	0x7e0
 2068 081a 04       		.uleb128 0x4
 2069 081b 7A020000 		.4byte	0x27a
 2070 081f 04       		.uleb128 0x4
 2071 0820 25010000 		.4byte	0x125
 2072 0824 13       		.uleb128 0x13
 2073 0825 27030000 		.4byte	.LASF112
 2074 0829 10       		.byte	0x10
 2075 082a 0B       		.byte	0xb
 2076 082b 5C01     		.2byte	0x15c
 2077 082d 10       		.byte	0x10
 2078 082e 4D080000 		.4byte	0x84d
 2079 0832 03       		.uleb128 0x3
 2080 0833 22060000 		.4byte	.LASF102
 2081 0837 6101     		.2byte	0x161
 2082 0839 21       		.byte	0x21
 2083 083a E3030000 		.4byte	0x3e3
 2084 083e 00       		.byte	0
 2085 083f 03       		.uleb128 0x3
 2086 0840 75040000 		.4byte	.LASF113
 2087 0844 6501     		.2byte	0x165
 2088 0846 22       		.byte	0x22
 2089 0847 93040000 		.4byte	0x493
 2090 084b 0C       		.byte	0xc
 2091 084c 00       		.byte	0
 2092 084d 1E       		.uleb128 0x1e
 2093 084e 08000000 		.4byte	.LASF114
 2094 0852 6601     		.2byte	0x166
 2095 0854 24080000 		.4byte	0x824
 2096 0858 13       		.uleb128 0x13
 2097 0859 48040000 		.4byte	.LASF115
 2098 085d 14       		.byte	0x14
 2099 085e 0B       		.byte	0xb
 2100 085f 6B01     		.2byte	0x16b
 2101 0861 10       		.byte	0x10
 2102 0862 A8080000 		.4byte	0x8a8
 2103 0866 03       		.uleb128 0x3
 2104 0867 CB020000 		.4byte	.LASF35
 2105 086b 6F01     		.2byte	0x16f
 2106 086d 22       		.byte	0x22
 2107 086e C9000000 		.4byte	0xc9
 2108 0872 00       		.byte	0
 2109 0873 03       		.uleb128 0x3
ARM GAS  C:\Users\DEVELO~1\AppData\Local\Temp\ccPWz6Q2.s 			page 38


 2110 0874 28020000 		.4byte	.LASF116
 2111 0878 7501     		.2byte	0x175
 2112 087a 22       		.byte	0x22
 2113 087b 1F080000 		.4byte	0x81f
 2114 087f 04       		.byte	0x4
 2115 0880 03       		.uleb128 0x3
 2116 0881 70060000 		.4byte	.LASF117
 2117 0885 7901     		.2byte	0x179
 2118 0887 22       		.byte	0x22
 2119 0888 1F080000 		.4byte	0x81f
 2120 088c 08       		.byte	0x8
 2121 088d 03       		.uleb128 0x3
 2122 088e 6A020000 		.4byte	.LASF118
 2123 0892 7F01     		.2byte	0x17f
 2124 0894 22       		.byte	0x22
 2125 0895 1F080000 		.4byte	0x81f
 2126 0899 0C       		.byte	0xc
 2127 089a 03       		.uleb128 0x3
 2128 089b EC060000 		.4byte	.LASF119
 2129 089f 8301     		.2byte	0x183
 2130 08a1 22       		.byte	0x22
 2131 08a2 1F080000 		.4byte	0x81f
 2132 08a6 10       		.byte	0x10
 2133 08a7 00       		.byte	0
 2134 08a8 1E       		.uleb128 0x1e
 2135 08a9 85060000 		.4byte	.LASF120
 2136 08ad 8501     		.2byte	0x185
 2137 08af 58080000 		.4byte	0x858
 2138 08b3 0B       		.uleb128 0xb
 2139 08b4 A8080000 		.4byte	0x8a8
 2140 08b8 04       		.uleb128 0x4
 2141 08b9 B3080000 		.4byte	0x8b3
 2142 08bd 02       		.uleb128 0x2
 2143 08be 38020000 		.4byte	.LASF121
 2144 08c2 12       		.byte	0x12
 2145 08c3 34       		.byte	0x34
 2146 08c4 19       		.byte	0x19
 2147 08c5 E0070000 		.4byte	0x7e0
 2148 08c9 04       		.uleb128 0x4
 2149 08ca BD080000 		.4byte	0x8bd
 2150 08ce 07       		.uleb128 0x7
 2151 08cf 01       		.byte	0x1
 2152 08d0 02       		.byte	0x2
 2153 08d1 F3040000 		.4byte	.LASF122
 2154 08d5 04       		.uleb128 0x4
 2155 08d6 D3000000 		.4byte	0xd3
 2156 08da 0C       		.uleb128 0xc
 2157 08db 50       		.byte	0x50
 2158 08dc 04       		.byte	0x4
 2159 08dd 34       		.byte	0x34
 2160 08de 09       		.byte	0x9
 2161 08df 73090000 		.4byte	0x973
 2162 08e3 01       		.uleb128 0x1
 2163 08e4 FD050000 		.4byte	.LASF88
 2164 08e8 04       		.byte	0x4
 2165 08e9 35       		.byte	0x35
 2166 08ea 1A       		.byte	0x1a
ARM GAS  C:\Users\DEVELO~1\AppData\Local\Temp\ccPWz6Q2.s 			page 39


 2167 08eb D5080000 		.4byte	0x8d5
 2168 08ef 00       		.byte	0
 2169 08f0 05       		.uleb128 0x5
 2170 08f1 746F7000 		.ascii	"top\000"
 2171 08f5 04       		.byte	0x4
 2172 08f6 37       		.byte	0x37
 2173 08f7 1A       		.byte	0x1a
 2174 08f8 D5080000 		.4byte	0x8d5
 2175 08fc 04       		.byte	0x4
 2176 08fd 01       		.uleb128 0x1
 2177 08fe D9010000 		.4byte	.LASF123
 2178 0902 04       		.byte	0x4
 2179 0903 39       		.byte	0x39
 2180 0904 1A       		.byte	0x1a
 2181 0905 D5080000 		.4byte	0x8d5
 2182 0909 08       		.byte	0x8
 2183 090a 01       		.uleb128 0x1
 2184 090b 8E000000 		.4byte	.LASF124
 2185 090f 04       		.byte	0x4
 2186 0910 3A       		.byte	0x3a
 2187 0911 1A       		.byte	0x1a
 2188 0912 D5080000 		.4byte	0x8d5
 2189 0916 0C       		.byte	0xc
 2190 0917 05       		.uleb128 0x5
 2191 0918 636E7400 		.ascii	"cnt\000"
 2192 091c 04       		.byte	0x4
 2193 091d 3B       		.byte	0x3b
 2194 091e 19       		.byte	0x19
 2195 091f 2D000000 		.4byte	0x2d
 2196 0923 10       		.byte	0x10
 2197 0924 01       		.uleb128 0x1
 2198 0925 1A020000 		.4byte	.LASF125
 2199 0929 04       		.byte	0x4
 2200 092a 3C       		.byte	0x3c
 2201 092b 19       		.byte	0x19
 2202 092c CE080000 		.4byte	0x8ce
 2203 0930 14       		.byte	0x14
 2204 0931 05       		.uleb128 0x5
 2205 0932 77747200 		.ascii	"wtr\000"
 2206 0936 04       		.byte	0x4
 2207 0937 3D       		.byte	0x3d
 2208 0938 19       		.byte	0x19
 2209 0939 0C070000 		.4byte	0x70c
 2210 093d 18       		.byte	0x18
 2211 093e 05       		.uleb128 0x5
 2212 093f 72747200 		.ascii	"rtr\000"
 2213 0943 04       		.byte	0x4
 2214 0944 3E       		.byte	0x3e
 2215 0945 19       		.byte	0x19
 2216 0946 0C070000 		.4byte	0x70c
 2217 094a 1C       		.byte	0x1c
 2218 094b 01       		.uleb128 0x1
 2219 094c C0020000 		.4byte	.LASF126
 2220 0950 04       		.byte	0x4
 2221 0951 40       		.byte	0x40
 2222 0952 19       		.byte	0x19
 2223 0953 BD080000 		.4byte	0x8bd
ARM GAS  C:\Users\DEVELO~1\AppData\Local\Temp\ccPWz6Q2.s 			page 40


 2224 0957 20       		.byte	0x20
 2225 0958 01       		.uleb128 0x1
 2226 0959 86030000 		.4byte	.LASF127
 2227 095d 04       		.byte	0x4
 2228 095e 41       		.byte	0x41
 2229 095f 19       		.byte	0x19
 2230 0960 BD080000 		.4byte	0x8bd
 2231 0964 30       		.byte	0x30
 2232 0965 01       		.uleb128 0x1
 2233 0966 D4010000 		.4byte	.LASF128
 2234 096a 04       		.byte	0x4
 2235 096b 42       		.byte	0x42
 2236 096c 19       		.byte	0x19
 2237 096d BD080000 		.4byte	0x8bd
 2238 0971 40       		.byte	0x40
 2239 0972 00       		.byte	0
 2240 0973 02       		.uleb128 0x2
 2241 0974 74030000 		.4byte	.LASF129
 2242 0978 04       		.byte	0x4
 2243 0979 48       		.byte	0x48
 2244 097a 03       		.byte	0x3
 2245 097b DA080000 		.4byte	0x8da
 2246 097f 0B       		.uleb128 0xb
 2247 0980 73090000 		.4byte	0x973
 2248 0984 1F       		.uleb128 0x1f
 2249 0985 A8050000 		.4byte	.LASF130
 2250 0989 3E01     		.2byte	0x13e
 2251 098b 9A090000 		.4byte	0x99a
 2252 098f 09       		.uleb128 0x9
 2253 0990 AE070000 		.4byte	0x7ae
 2254 0994 09       		.uleb128 0x9
 2255 0995 61010000 		.4byte	0x161
 2256 0999 00       		.byte	0
 2257 099a 2D       		.uleb128 0x2d
 2258 099b A6030000 		.4byte	.LASF134
 2259 099f 13       		.byte	0x13
 2260 09a0 3B01     		.2byte	0x13b
 2261 09a2 09       		.byte	0x9
 2262 09a3 61010000 		.4byte	0x161
 2263 09a7 B6090000 		.4byte	0x9b6
 2264 09ab 09       		.uleb128 0x9
 2265 09ac AE070000 		.4byte	0x7ae
 2266 09b0 09       		.uleb128 0x9
 2267 09b1 72030000 		.4byte	0x372
 2268 09b5 00       		.byte	0
 2269 09b6 2E       		.uleb128 0x2e
 2270 09b7 EB010000 		.4byte	.LASF156
 2271 09bb 15       		.byte	0x15
 2272 09bc 9B       		.byte	0x9b
 2273 09bd 08       		.byte	0x8
 2274 09be 1F       		.uleb128 0x1f
 2275 09bf B7060000 		.4byte	.LASF131
 2276 09c3 3C01     		.2byte	0x13c
 2277 09c5 D4090000 		.4byte	0x9d4
 2278 09c9 09       		.uleb128 0x9
 2279 09ca AE070000 		.4byte	0x7ae
 2280 09ce 09       		.uleb128 0x9
ARM GAS  C:\Users\DEVELO~1\AppData\Local\Temp\ccPWz6Q2.s 			page 41


 2281 09cf 61010000 		.4byte	0x161
 2282 09d3 00       		.byte	0
 2283 09d4 1B       		.uleb128 0x1b
 2284 09d5 38040000 		.4byte	.LASF132
 2285 09d9 66       		.byte	0x66
 2286 09da E4090000 		.4byte	0x9e4
 2287 09de 09       		.uleb128 0x9
 2288 09df C9080000 		.4byte	0x8c9
 2289 09e3 00       		.byte	0
 2290 09e4 1B       		.uleb128 0x1b
 2291 09e5 9F000000 		.4byte	.LASF133
 2292 09e9 6B       		.byte	0x6b
 2293 09ea F4090000 		.4byte	0x9f4
 2294 09ee 09       		.uleb128 0x9
 2295 09ef C9080000 		.4byte	0x8c9
 2296 09f3 00       		.byte	0
 2297 09f4 2F       		.uleb128 0x2f
 2298 09f5 A1010000 		.4byte	.LASF135
 2299 09f9 14       		.byte	0x14
 2300 09fa 1F       		.byte	0x1f
 2301 09fb 09       		.byte	0x9
 2302 09fc BB000000 		.4byte	0xbb
 2303 0a00 140A0000 		.4byte	0xa14
 2304 0a04 09       		.uleb128 0x9
 2305 0a05 BB000000 		.4byte	0xbb
 2306 0a09 09       		.uleb128 0x9
 2307 0a0a 140A0000 		.4byte	0xa14
 2308 0a0e 09       		.uleb128 0x9
 2309 0a0f 2D000000 		.4byte	0x2d
 2310 0a13 00       		.byte	0
 2311 0a14 04       		.uleb128 0x4
 2312 0a15 190A0000 		.4byte	0xa19
 2313 0a19 30       		.uleb128 0x30
 2314 0a1a 1B       		.uleb128 0x1b
 2315 0a1b 25040000 		.4byte	.LASF136
 2316 0a1f 67       		.byte	0x67
 2317 0a20 2A0A0000 		.4byte	0xa2a
 2318 0a24 09       		.uleb128 0x9
 2319 0a25 C9080000 		.4byte	0x8c9
 2320 0a29 00       		.byte	0
 2321 0a2a 20       		.uleb128 0x20
 2322 0a2b DA030000 		.4byte	.LASF139
 2323 0a2f 5701     		.2byte	0x157
 2324 0a31 2D000000 		.4byte	0x2d
 2325 0a35 00000000 		.4byte	.LFB351
 2326 0a39 94000000 		.4byte	.LFE351-.LFB351
 2327 0a3d 01       		.uleb128 0x1
 2328 0a3e 9C       		.byte	0x9c
 2329 0a3f C50A0000 		.4byte	0xac5
 2330 0a43 0F       		.uleb128 0xf
 2331 0a44 707000   		.ascii	"pp\000"
 2332 0a47 5701     		.2byte	0x157
 2333 0a49 22       		.byte	0x22
 2334 0a4a C50A0000 		.4byte	0xac5
 2335 0a4e 02       		.uleb128 0x2
 2336 0a4f 91       		.byte	0x91
 2337 0a50 64       		.sleb128 -28
ARM GAS  C:\Users\DEVELO~1\AppData\Local\Temp\ccPWz6Q2.s 			page 42


 2338 0a51 0F       		.uleb128 0xf
 2339 0a52 627000   		.ascii	"bp\000"
 2340 0a55 5701     		.2byte	0x157
 2341 0a57 2F       		.byte	0x2f
 2342 0a58 D5080000 		.4byte	0x8d5
 2343 0a5c 02       		.uleb128 0x2
 2344 0a5d 91       		.byte	0x91
 2345 0a5e 60       		.sleb128 -32
 2346 0a5f 0F       		.uleb128 0xf
 2347 0a60 6E00     		.ascii	"n\000"
 2348 0a62 5801     		.2byte	0x158
 2349 0a64 21       		.byte	0x21
 2350 0a65 2D000000 		.4byte	0x2d
 2351 0a69 02       		.uleb128 0x2
 2352 0a6a 91       		.byte	0x91
 2353 0a6b 5C       		.sleb128 -36
 2354 0a6c 21       		.uleb128 0x21
 2355 0a6d B8020000 		.4byte	.LASF137
 2356 0a71 5801     		.2byte	0x158
 2357 0a73 32       		.byte	0x32
 2358 0a74 72030000 		.4byte	0x372
 2359 0a78 02       		.uleb128 0x2
 2360 0a79 91       		.byte	0x91
 2361 0a7a 58       		.sleb128 -40
 2362 0a7b 14       		.uleb128 0x14
 2363 0a7c 6D617800 		.ascii	"max\000"
 2364 0a80 5901     		.2byte	0x159
 2365 0a82 0A       		.byte	0xa
 2366 0a83 2D000000 		.4byte	0x2d
 2367 0a87 02       		.uleb128 0x2
 2368 0a88 91       		.byte	0x91
 2369 0a89 74       		.sleb128 -12
 2370 0a8a 12       		.uleb128 0x12
 2371 0a8b 66050000 		.4byte	.LASF141
 2372 0a8f DA0A0000 		.4byte	0xada
 2373 0a93 15       		.uleb128 0x15
 2374 0a94 2A000000 		.4byte	.LBB24
 2375 0a98 4C000000 		.4byte	.LBE24-.LBB24
 2376 0a9c 22       		.uleb128 0x22
 2377 0a9d 4F000000 		.4byte	.LASF138
 2378 0aa1 6501     		.2byte	0x165
 2379 0aa3 2D000000 		.4byte	0x2d
 2380 0aa7 02       		.uleb128 0x2
 2381 0aa8 91       		.byte	0x91
 2382 0aa9 70       		.sleb128 -16
 2383 0aaa 15       		.uleb128 0x15
 2384 0aab 3C000000 		.4byte	.LBB25
 2385 0aaf 1E000000 		.4byte	.LBE25-.LBB25
 2386 0ab3 14       		.uleb128 0x14
 2387 0ab4 6D736700 		.ascii	"msg\000"
 2388 0ab8 6901     		.2byte	0x169
 2389 0aba 0D       		.byte	0xd
 2390 0abb 61010000 		.4byte	0x161
 2391 0abf 02       		.uleb128 0x2
 2392 0ac0 91       		.byte	0x91
 2393 0ac1 6C       		.sleb128 -20
 2394 0ac2 00       		.byte	0
ARM GAS  C:\Users\DEVELO~1\AppData\Local\Temp\ccPWz6Q2.s 			page 43


 2395 0ac3 00       		.byte	0
 2396 0ac4 00       		.byte	0
 2397 0ac5 04       		.uleb128 0x4
 2398 0ac6 73090000 		.4byte	0x973
 2399 0aca 10       		.uleb128 0x10
 2400 0acb C4000000 		.4byte	0xc4
 2401 0acf DA0A0000 		.4byte	0xada
 2402 0ad3 11       		.uleb128 0x11
 2403 0ad4 39000000 		.4byte	0x39
 2404 0ad8 11       		.byte	0x11
 2405 0ad9 00       		.byte	0
 2406 0ada 0B       		.uleb128 0xb
 2407 0adb CA0A0000 		.4byte	0xaca
 2408 0adf 20       		.uleb128 0x20
 2409 0ae0 AB040000 		.4byte	.LASF140
 2410 0ae4 1601     		.2byte	0x116
 2411 0ae6 2D000000 		.4byte	0x2d
 2412 0aea 00000000 		.4byte	.LFB350
 2413 0aee 94000000 		.4byte	.LFE350-.LFB350
 2414 0af2 01       		.uleb128 0x1
 2415 0af3 9C       		.byte	0x9c
 2416 0af4 7A0B0000 		.4byte	0xb7a
 2417 0af8 0F       		.uleb128 0xf
 2418 0af9 707000   		.ascii	"pp\000"
 2419 0afc 1601     		.2byte	0x116
 2420 0afe 23       		.byte	0x23
 2421 0aff C50A0000 		.4byte	0xac5
 2422 0b03 02       		.uleb128 0x2
 2423 0b04 91       		.byte	0x91
 2424 0b05 64       		.sleb128 -28
 2425 0b06 0F       		.uleb128 0xf
 2426 0b07 627000   		.ascii	"bp\000"
 2427 0b0a 1601     		.2byte	0x116
 2428 0b0c 36       		.byte	0x36
 2429 0b0d 7A0B0000 		.4byte	0xb7a
 2430 0b11 02       		.uleb128 0x2
 2431 0b12 91       		.byte	0x91
 2432 0b13 60       		.sleb128 -32
 2433 0b14 0F       		.uleb128 0xf
 2434 0b15 6E00     		.ascii	"n\000"
 2435 0b17 1701     		.2byte	0x117
 2436 0b19 22       		.byte	0x22
 2437 0b1a 2D000000 		.4byte	0x2d
 2438 0b1e 02       		.uleb128 0x2
 2439 0b1f 91       		.byte	0x91
 2440 0b20 5C       		.sleb128 -36
 2441 0b21 21       		.uleb128 0x21
 2442 0b22 B8020000 		.4byte	.LASF137
 2443 0b26 1701     		.2byte	0x117
 2444 0b28 33       		.byte	0x33
 2445 0b29 72030000 		.4byte	0x372
 2446 0b2d 02       		.uleb128 0x2
 2447 0b2e 91       		.byte	0x91
 2448 0b2f 58       		.sleb128 -40
 2449 0b30 14       		.uleb128 0x14
 2450 0b31 6D617800 		.ascii	"max\000"
 2451 0b35 1801     		.2byte	0x118
ARM GAS  C:\Users\DEVELO~1\AppData\Local\Temp\ccPWz6Q2.s 			page 44


 2452 0b37 0A       		.byte	0xa
 2453 0b38 2D000000 		.4byte	0x2d
 2454 0b3c 02       		.uleb128 0x2
 2455 0b3d 91       		.byte	0x91
 2456 0b3e 74       		.sleb128 -12
 2457 0b3f 12       		.uleb128 0x12
 2458 0b40 66050000 		.4byte	.LASF141
 2459 0b44 8F0B0000 		.4byte	0xb8f
 2460 0b48 15       		.uleb128 0x15
 2461 0b49 2A000000 		.4byte	.LBB22
 2462 0b4d 4C000000 		.4byte	.LBE22-.LBB22
 2463 0b51 22       		.uleb128 0x22
 2464 0b52 4F000000 		.4byte	.LASF138
 2465 0b56 2401     		.2byte	0x124
 2466 0b58 2D000000 		.4byte	0x2d
 2467 0b5c 02       		.uleb128 0x2
 2468 0b5d 91       		.byte	0x91
 2469 0b5e 70       		.sleb128 -16
 2470 0b5f 15       		.uleb128 0x15
 2471 0b60 3C000000 		.4byte	.LBB23
 2472 0b64 1E000000 		.4byte	.LBE23-.LBB23
 2473 0b68 14       		.uleb128 0x14
 2474 0b69 6D736700 		.ascii	"msg\000"
 2475 0b6d 2801     		.2byte	0x128
 2476 0b6f 0D       		.byte	0xd
 2477 0b70 61010000 		.4byte	0x161
 2478 0b74 02       		.uleb128 0x2
 2479 0b75 91       		.byte	0x91
 2480 0b76 6C       		.sleb128 -20
 2481 0b77 00       		.byte	0
 2482 0b78 00       		.byte	0
 2483 0b79 00       		.byte	0
 2484 0b7a 04       		.uleb128 0x4
 2485 0b7b DF000000 		.4byte	0xdf
 2486 0b7f 10       		.uleb128 0x10
 2487 0b80 C4000000 		.4byte	0xc4
 2488 0b84 8F0B0000 		.4byte	0xb8f
 2489 0b88 11       		.uleb128 0x11
 2490 0b89 39000000 		.4byte	0x39
 2491 0b8d 12       		.byte	0x12
 2492 0b8e 00       		.byte	0
 2493 0b8f 0B       		.uleb128 0xb
 2494 0b90 7F0B0000 		.4byte	0xb7f
 2495 0b94 23       		.uleb128 0x23
 2496 0b95 D0020000 		.4byte	.LASF142
 2497 0b99 EC       		.byte	0xec
 2498 0b9a 00000000 		.4byte	.LFB349
 2499 0b9e 68000000 		.4byte	.LFE349-.LFB349
 2500 0ba2 01       		.uleb128 0x1
 2501 0ba3 9C       		.byte	0x9c
 2502 0ba4 C00B0000 		.4byte	0xbc0
 2503 0ba8 06       		.uleb128 0x6
 2504 0ba9 707000   		.ascii	"pp\000"
 2505 0bac 05       		.byte	0x5
 2506 0bad EC       		.byte	0xec
 2507 0bae 1A       		.byte	0x1a
 2508 0baf C50A0000 		.4byte	0xac5
ARM GAS  C:\Users\DEVELO~1\AppData\Local\Temp\ccPWz6Q2.s 			page 45


 2509 0bb3 02       		.uleb128 0x2
 2510 0bb4 91       		.byte	0x91
 2511 0bb5 74       		.sleb128 -12
 2512 0bb6 12       		.uleb128 0x12
 2513 0bb7 66050000 		.4byte	.LASF141
 2514 0bbb D00B0000 		.4byte	0xbd0
 2515 0bbf 00       		.byte	0
 2516 0bc0 10       		.uleb128 0x10
 2517 0bc1 C4000000 		.4byte	0xc4
 2518 0bc5 D00B0000 		.4byte	0xbd0
 2519 0bc9 11       		.uleb128 0x11
 2520 0bca 39000000 		.4byte	0x39
 2521 0bce 0B       		.byte	0xb
 2522 0bcf 00       		.byte	0
 2523 0bd0 0B       		.uleb128 0xb
 2524 0bd1 C00B0000 		.4byte	0xbc0
 2525 0bd5 23       		.uleb128 0x23
 2526 0bd6 88040000 		.4byte	.LASF143
 2527 0bda CF       		.byte	0xcf
 2528 0bdb 00000000 		.4byte	.LFB348
 2529 0bdf 66000000 		.4byte	.LFE348-.LFB348
 2530 0be3 01       		.uleb128 0x1
 2531 0be4 9C       		.byte	0x9c
 2532 0be5 1D0C0000 		.4byte	0xc1d
 2533 0be9 06       		.uleb128 0x6
 2534 0bea 707000   		.ascii	"pp\000"
 2535 0bed 05       		.byte	0x5
 2536 0bee CF       		.byte	0xcf
 2537 0bef 1F       		.byte	0x1f
 2538 0bf0 C50A0000 		.4byte	0xac5
 2539 0bf4 02       		.uleb128 0x2
 2540 0bf5 91       		.byte	0x91
 2541 0bf6 74       		.sleb128 -12
 2542 0bf7 06       		.uleb128 0x6
 2543 0bf8 62756600 		.ascii	"buf\000"
 2544 0bfc 05       		.byte	0x5
 2545 0bfd CF       		.byte	0xcf
 2546 0bfe 2C       		.byte	0x2c
 2547 0bff D5080000 		.4byte	0x8d5
 2548 0c03 02       		.uleb128 0x2
 2549 0c04 91       		.byte	0x91
 2550 0c05 70       		.sleb128 -16
 2551 0c06 06       		.uleb128 0x6
 2552 0c07 6E00     		.ascii	"n\000"
 2553 0c09 05       		.byte	0x5
 2554 0c0a CF       		.byte	0xcf
 2555 0c0b 38       		.byte	0x38
 2556 0c0c 2D000000 		.4byte	0x2d
 2557 0c10 02       		.uleb128 0x2
 2558 0c11 91       		.byte	0x91
 2559 0c12 6C       		.sleb128 -20
 2560 0c13 12       		.uleb128 0x12
 2561 0c14 66050000 		.4byte	.LASF141
 2562 0c18 2D0C0000 		.4byte	0xc2d
 2563 0c1c 00       		.byte	0
 2564 0c1d 10       		.uleb128 0x10
 2565 0c1e C4000000 		.4byte	0xc4
ARM GAS  C:\Users\DEVELO~1\AppData\Local\Temp\ccPWz6Q2.s 			page 46


 2566 0c22 2D0C0000 		.4byte	0xc2d
 2567 0c26 11       		.uleb128 0x11
 2568 0c27 39000000 		.4byte	0x39
 2569 0c2b 10       		.byte	0x10
 2570 0c2c 00       		.byte	0
 2571 0c2d 0B       		.uleb128 0xb
 2572 0c2e 1D0C0000 		.4byte	0xc1d
 2573 0c32 1C       		.uleb128 0x1c
 2574 0c33 F4020000 		.4byte	.LASF144
 2575 0c37 05       		.byte	0x5
 2576 0c38 9C       		.byte	0x9c
 2577 0c39 0F       		.byte	0xf
 2578 0c3a 2D000000 		.4byte	0x2d
 2579 0c3e 00000000 		.4byte	.LFB347
 2580 0c42 D4000000 		.4byte	.LFE347-.LFB347
 2581 0c46 01       		.uleb128 0x1
 2582 0c47 9C       		.byte	0x9c
 2583 0c48 900C0000 		.4byte	0xc90
 2584 0c4c 06       		.uleb128 0x6
 2585 0c4d 707000   		.ascii	"pp\000"
 2586 0c50 05       		.byte	0x5
 2587 0c51 9C       		.byte	0x9c
 2588 0c52 21       		.byte	0x21
 2589 0c53 C50A0000 		.4byte	0xac5
 2590 0c57 02       		.uleb128 0x2
 2591 0c58 91       		.byte	0x91
 2592 0c59 6C       		.sleb128 -20
 2593 0c5a 06       		.uleb128 0x6
 2594 0c5b 627000   		.ascii	"bp\000"
 2595 0c5e 05       		.byte	0x5
 2596 0c5f 9C       		.byte	0x9c
 2597 0c60 2E       		.byte	0x2e
 2598 0c61 D5080000 		.4byte	0x8d5
 2599 0c65 02       		.uleb128 0x2
 2600 0c66 91       		.byte	0x91
 2601 0c67 68       		.sleb128 -24
 2602 0c68 06       		.uleb128 0x6
 2603 0c69 6E00     		.ascii	"n\000"
 2604 0c6b 05       		.byte	0x5
 2605 0c6c 9C       		.byte	0x9c
 2606 0c6d 39       		.byte	0x39
 2607 0c6e 2D000000 		.4byte	0x2d
 2608 0c72 02       		.uleb128 0x2
 2609 0c73 91       		.byte	0x91
 2610 0c74 64       		.sleb128 -28
 2611 0c75 16       		.uleb128 0x16
 2612 0c76 733100   		.ascii	"s1\000"
 2613 0c79 9D       		.byte	0x9d
 2614 0c7a 0A       		.byte	0xa
 2615 0c7b 2D000000 		.4byte	0x2d
 2616 0c7f 02       		.uleb128 0x2
 2617 0c80 91       		.byte	0x91
 2618 0c81 74       		.sleb128 -12
 2619 0c82 16       		.uleb128 0x16
 2620 0c83 733200   		.ascii	"s2\000"
 2621 0c86 9D       		.byte	0x9d
 2622 0c87 0E       		.byte	0xe
ARM GAS  C:\Users\DEVELO~1\AppData\Local\Temp\ccPWz6Q2.s 			page 47


 2623 0c88 2D000000 		.4byte	0x2d
 2624 0c8c 02       		.uleb128 0x2
 2625 0c8d 91       		.byte	0x91
 2626 0c8e 70       		.sleb128 -16
 2627 0c8f 00       		.byte	0
 2628 0c90 1C       		.uleb128 0x1c
 2629 0c91 67000000 		.4byte	.LASF145
 2630 0c95 05       		.byte	0x5
 2631 0c96 69       		.byte	0x69
 2632 0c97 0F       		.byte	0xf
 2633 0c98 2D000000 		.4byte	0x2d
 2634 0c9c 00000000 		.4byte	.LFB346
 2635 0ca0 D4000000 		.4byte	.LFE346-.LFB346
 2636 0ca4 01       		.uleb128 0x1
 2637 0ca5 9C       		.byte	0x9c
 2638 0ca6 EE0C0000 		.4byte	0xcee
 2639 0caa 06       		.uleb128 0x6
 2640 0cab 707000   		.ascii	"pp\000"
 2641 0cae 05       		.byte	0x5
 2642 0caf 69       		.byte	0x69
 2643 0cb0 22       		.byte	0x22
 2644 0cb1 C50A0000 		.4byte	0xac5
 2645 0cb5 02       		.uleb128 0x2
 2646 0cb6 91       		.byte	0x91
 2647 0cb7 6C       		.sleb128 -20
 2648 0cb8 06       		.uleb128 0x6
 2649 0cb9 627000   		.ascii	"bp\000"
 2650 0cbc 05       		.byte	0x5
 2651 0cbd 69       		.byte	0x69
 2652 0cbe 35       		.byte	0x35
 2653 0cbf 7A0B0000 		.4byte	0xb7a
 2654 0cc3 02       		.uleb128 0x2
 2655 0cc4 91       		.byte	0x91
 2656 0cc5 68       		.sleb128 -24
 2657 0cc6 06       		.uleb128 0x6
 2658 0cc7 6E00     		.ascii	"n\000"
 2659 0cc9 05       		.byte	0x5
 2660 0cca 69       		.byte	0x69
 2661 0ccb 40       		.byte	0x40
 2662 0ccc 2D000000 		.4byte	0x2d
 2663 0cd0 02       		.uleb128 0x2
 2664 0cd1 91       		.byte	0x91
 2665 0cd2 64       		.sleb128 -28
 2666 0cd3 16       		.uleb128 0x16
 2667 0cd4 733100   		.ascii	"s1\000"
 2668 0cd7 6A       		.byte	0x6a
 2669 0cd8 0A       		.byte	0xa
 2670 0cd9 2D000000 		.4byte	0x2d
 2671 0cdd 02       		.uleb128 0x2
 2672 0cde 91       		.byte	0x91
 2673 0cdf 74       		.sleb128 -12
 2674 0ce0 16       		.uleb128 0x16
 2675 0ce1 733200   		.ascii	"s2\000"
 2676 0ce4 6A       		.byte	0x6a
 2677 0ce5 0E       		.byte	0xe
 2678 0ce6 2D000000 		.4byte	0x2d
 2679 0cea 02       		.uleb128 0x2
ARM GAS  C:\Users\DEVELO~1\AppData\Local\Temp\ccPWz6Q2.s 			page 48


 2680 0ceb 91       		.byte	0x91
 2681 0cec 70       		.sleb128 -16
 2682 0ced 00       		.byte	0
 2683 0cee 1C       		.uleb128 0x1c
 2684 0cef D0040000 		.4byte	.LASF146
 2685 0cf3 04       		.byte	0x4
 2686 0cf4 BB       		.byte	0xbb
 2687 0cf5 16       		.byte	0x16
 2688 0cf6 2D000000 		.4byte	0x2d
 2689 0cfa 00000000 		.4byte	.LFB316
 2690 0cfe 22000000 		.4byte	.LFE316-.LFB316
 2691 0d02 01       		.uleb128 0x1
 2692 0d03 9C       		.byte	0x9c
 2693 0d04 170D0000 		.4byte	0xd17
 2694 0d08 06       		.uleb128 0x6
 2695 0d09 707000   		.ascii	"pp\000"
 2696 0d0c 04       		.byte	0x4
 2697 0d0d BB       		.byte	0xbb
 2698 0d0e 37       		.byte	0x37
 2699 0d0f 170D0000 		.4byte	0xd17
 2700 0d13 02       		.uleb128 0x2
 2701 0d14 91       		.byte	0x91
 2702 0d15 6C       		.sleb128 -20
 2703 0d16 00       		.byte	0
 2704 0d17 04       		.uleb128 0x4
 2705 0d18 7F090000 		.4byte	0x97f
 2706 0d1c 24       		.uleb128 0x24
 2707 0d1d 41030000 		.4byte	.LASF147
 2708 0d21 AE       		.byte	0xae
 2709 0d22 2D000000 		.4byte	0x2d
 2710 0d26 00000000 		.4byte	.LFB315
 2711 0d2a 16000000 		.4byte	.LFE315-.LFB315
 2712 0d2e 01       		.uleb128 0x1
 2713 0d2f 9C       		.byte	0x9c
 2714 0d30 430D0000 		.4byte	0xd43
 2715 0d34 06       		.uleb128 0x6
 2716 0d35 707000   		.ascii	"pp\000"
 2717 0d38 04       		.byte	0x4
 2718 0d39 AE       		.byte	0xae
 2719 0d3a 37       		.byte	0x37
 2720 0d3b 170D0000 		.4byte	0xd17
 2721 0d3f 02       		.uleb128 0x2
 2722 0d40 91       		.byte	0x91
 2723 0d41 74       		.sleb128 -12
 2724 0d42 00       		.byte	0
 2725 0d43 24       		.uleb128 0x24
 2726 0d44 FC010000 		.4byte	.LASF148
 2727 0d48 9E       		.byte	0x9e
 2728 0d49 2D000000 		.4byte	0x2d
 2729 0d4d 00000000 		.4byte	.LFB314
 2730 0d51 1C000000 		.4byte	.LFE314-.LFB314
 2731 0d55 01       		.uleb128 0x1
 2732 0d56 9C       		.byte	0x9c
 2733 0d57 6A0D0000 		.4byte	0xd6a
 2734 0d5b 06       		.uleb128 0x6
 2735 0d5c 707000   		.ascii	"pp\000"
 2736 0d5f 04       		.byte	0x4
ARM GAS  C:\Users\DEVELO~1\AppData\Local\Temp\ccPWz6Q2.s 			page 49


 2737 0d60 9E       		.byte	0x9e
 2738 0d61 32       		.byte	0x32
 2739 0d62 170D0000 		.4byte	0xd17
 2740 0d66 02       		.uleb128 0x2
 2741 0d67 91       		.byte	0x91
 2742 0d68 74       		.sleb128 -12
 2743 0d69 00       		.byte	0
 2744 0d6a 25       		.uleb128 0x25
 2745 0d6b D1060000 		.4byte	.LASF149
 2746 0d6f A501     		.2byte	0x1a5
 2747 0d71 00000000 		.4byte	.LFB203
 2748 0d75 1E000000 		.4byte	.LFE203-.LFB203
 2749 0d79 01       		.uleb128 0x1
 2750 0d7a 9C       		.byte	0x9c
 2751 0d7b B30D0000 		.4byte	0xdb3
 2752 0d7f 12       		.uleb128 0x12
 2753 0d80 66050000 		.4byte	.LASF141
 2754 0d84 D00B0000 		.4byte	0xbd0
 2755 0d88 17       		.uleb128 0x17
 2756 0d89 F30D0000 		.4byte	0xdf3
 2757 0d8d 0A000000 		.4byte	.LBB18
 2758 0d91 0A000000 		.4byte	.LBE18-.LBB18
 2759 0d95 01       		.byte	0x1
 2760 0d96 B201     		.2byte	0x1b2
 2761 0d98 17       		.uleb128 0x17
 2762 0d99 010E0000 		.4byte	0xe01
 2763 0d9d 0A000000 		.4byte	.LBB20
 2764 0da1 08000000 		.4byte	.LBE20-.LBB20
 2765 0da5 03       		.byte	0x3
 2766 0da6 5203     		.2byte	0x352
 2767 0da8 26       		.uleb128 0x26
 2768 0da9 0B0E0000 		.4byte	0xe0b
 2769 0dad 02       		.uleb128 0x2
 2770 0dae 91       		.byte	0x91
 2771 0daf 74       		.sleb128 -12
 2772 0db0 00       		.byte	0
 2773 0db1 00       		.byte	0
 2774 0db2 00       		.byte	0
 2775 0db3 25       		.uleb128 0x25
 2776 0db4 6F050000 		.4byte	.LASF150
 2777 0db8 9701     		.2byte	0x197
 2778 0dba 00000000 		.4byte	.LFB202
 2779 0dbe 1E000000 		.4byte	.LFE202-.LFB202
 2780 0dc2 01       		.uleb128 0x1
 2781 0dc3 9C       		.byte	0x9c
 2782 0dc4 F30D0000 		.4byte	0xdf3
 2783 0dc8 17       		.uleb128 0x17
 2784 0dc9 FA0D0000 		.4byte	0xdfa
 2785 0dcd 0A000000 		.4byte	.LBB14
 2786 0dd1 0A000000 		.4byte	.LBE14-.LBB14
 2787 0dd5 01       		.byte	0x1
 2788 0dd6 9901     		.2byte	0x199
 2789 0dd8 17       		.uleb128 0x17
 2790 0dd9 010E0000 		.4byte	0xe01
 2791 0ddd 0A000000 		.4byte	.LBB16
 2792 0de1 08000000 		.4byte	.LBE16-.LBB16
 2793 0de5 03       		.byte	0x3
ARM GAS  C:\Users\DEVELO~1\AppData\Local\Temp\ccPWz6Q2.s 			page 50


 2794 0de6 3F03     		.2byte	0x33f
 2795 0de8 26       		.uleb128 0x26
 2796 0de9 0B0E0000 		.4byte	0xe0b
 2797 0ded 02       		.uleb128 0x2
 2798 0dee 91       		.byte	0x91
 2799 0def 74       		.sleb128 -12
 2800 0df0 00       		.byte	0
 2801 0df1 00       		.byte	0
 2802 0df2 00       		.byte	0
 2803 0df3 27       		.uleb128 0x27
 2804 0df4 A8010000 		.4byte	.LASF151
 2805 0df8 4F03     		.2byte	0x34f
 2806 0dfa 27       		.uleb128 0x27
 2807 0dfb E2060000 		.4byte	.LASF152
 2808 0dff 3703     		.2byte	0x337
 2809 0e01 31       		.uleb128 0x31
 2810 0e02 03040000 		.4byte	.LASF157
 2811 0e06 02       		.byte	0x2
 2812 0e07 EB01     		.2byte	0x1eb
 2813 0e09 1B       		.byte	0x1b
 2814 0e0a 03       		.byte	0x3
 2815 0e0b 32       		.uleb128 0x32
 2816 0e0c EE000000 		.4byte	.LASF158
 2817 0e10 02       		.byte	0x2
 2818 0e11 EB01     		.2byte	0x1eb
 2819 0e13 32       		.byte	0x32
 2820 0e14 FC000000 		.4byte	0xfc
 2821 0e18 00       		.byte	0
 2822 0e19 00       		.byte	0
 2823              		.section	.debug_abbrev,"",%progbits
 2824              	.Ldebug_abbrev0:
 2825 0000 01       		.uleb128 0x1
 2826 0001 0D       		.uleb128 0xd
 2827 0002 00       		.byte	0
 2828 0003 03       		.uleb128 0x3
 2829 0004 0E       		.uleb128 0xe
 2830 0005 3A       		.uleb128 0x3a
 2831 0006 0B       		.uleb128 0xb
 2832 0007 3B       		.uleb128 0x3b
 2833 0008 0B       		.uleb128 0xb
 2834 0009 39       		.uleb128 0x39
 2835 000a 0B       		.uleb128 0xb
 2836 000b 49       		.uleb128 0x49
 2837 000c 13       		.uleb128 0x13
 2838 000d 38       		.uleb128 0x38
 2839 000e 0B       		.uleb128 0xb
 2840 000f 00       		.byte	0
 2841 0010 00       		.byte	0
 2842 0011 02       		.uleb128 0x2
 2843 0012 16       		.uleb128 0x16
 2844 0013 00       		.byte	0
 2845 0014 03       		.uleb128 0x3
 2846 0015 0E       		.uleb128 0xe
 2847 0016 3A       		.uleb128 0x3a
 2848 0017 0B       		.uleb128 0xb
 2849 0018 3B       		.uleb128 0x3b
 2850 0019 0B       		.uleb128 0xb
ARM GAS  C:\Users\DEVELO~1\AppData\Local\Temp\ccPWz6Q2.s 			page 51


 2851 001a 39       		.uleb128 0x39
 2852 001b 0B       		.uleb128 0xb
 2853 001c 49       		.uleb128 0x49
 2854 001d 13       		.uleb128 0x13
 2855 001e 00       		.byte	0
 2856 001f 00       		.byte	0
 2857 0020 03       		.uleb128 0x3
 2858 0021 0D       		.uleb128 0xd
 2859 0022 00       		.byte	0
 2860 0023 03       		.uleb128 0x3
 2861 0024 0E       		.uleb128 0xe
 2862 0025 3A       		.uleb128 0x3a
 2863 0026 21       		.uleb128 0x21
 2864 0027 0B       		.sleb128 11
 2865 0028 3B       		.uleb128 0x3b
 2866 0029 05       		.uleb128 0x5
 2867 002a 39       		.uleb128 0x39
 2868 002b 0B       		.uleb128 0xb
 2869 002c 49       		.uleb128 0x49
 2870 002d 13       		.uleb128 0x13
 2871 002e 38       		.uleb128 0x38
 2872 002f 0B       		.uleb128 0xb
 2873 0030 00       		.byte	0
 2874 0031 00       		.byte	0
 2875 0032 04       		.uleb128 0x4
 2876 0033 0F       		.uleb128 0xf
 2877 0034 00       		.byte	0
 2878 0035 0B       		.uleb128 0xb
 2879 0036 21       		.uleb128 0x21
 2880 0037 04       		.sleb128 4
 2881 0038 49       		.uleb128 0x49
 2882 0039 13       		.uleb128 0x13
 2883 003a 00       		.byte	0
 2884 003b 00       		.byte	0
 2885 003c 05       		.uleb128 0x5
 2886 003d 0D       		.uleb128 0xd
 2887 003e 00       		.byte	0
 2888 003f 03       		.uleb128 0x3
 2889 0040 08       		.uleb128 0x8
 2890 0041 3A       		.uleb128 0x3a
 2891 0042 0B       		.uleb128 0xb
 2892 0043 3B       		.uleb128 0x3b
 2893 0044 0B       		.uleb128 0xb
 2894 0045 39       		.uleb128 0x39
 2895 0046 0B       		.uleb128 0xb
 2896 0047 49       		.uleb128 0x49
 2897 0048 13       		.uleb128 0x13
 2898 0049 38       		.uleb128 0x38
 2899 004a 0B       		.uleb128 0xb
 2900 004b 00       		.byte	0
 2901 004c 00       		.byte	0
 2902 004d 06       		.uleb128 0x6
 2903 004e 05       		.uleb128 0x5
 2904 004f 00       		.byte	0
 2905 0050 03       		.uleb128 0x3
 2906 0051 08       		.uleb128 0x8
 2907 0052 3A       		.uleb128 0x3a
ARM GAS  C:\Users\DEVELO~1\AppData\Local\Temp\ccPWz6Q2.s 			page 52


 2908 0053 0B       		.uleb128 0xb
 2909 0054 3B       		.uleb128 0x3b
 2910 0055 0B       		.uleb128 0xb
 2911 0056 39       		.uleb128 0x39
 2912 0057 0B       		.uleb128 0xb
 2913 0058 49       		.uleb128 0x49
 2914 0059 13       		.uleb128 0x13
 2915 005a 02       		.uleb128 0x2
 2916 005b 18       		.uleb128 0x18
 2917 005c 00       		.byte	0
 2918 005d 00       		.byte	0
 2919 005e 07       		.uleb128 0x7
 2920 005f 24       		.uleb128 0x24
 2921 0060 00       		.byte	0
 2922 0061 0B       		.uleb128 0xb
 2923 0062 0B       		.uleb128 0xb
 2924 0063 3E       		.uleb128 0x3e
 2925 0064 0B       		.uleb128 0xb
 2926 0065 03       		.uleb128 0x3
 2927 0066 0E       		.uleb128 0xe
 2928 0067 00       		.byte	0
 2929 0068 00       		.byte	0
 2930 0069 08       		.uleb128 0x8
 2931 006a 0D       		.uleb128 0xd
 2932 006b 00       		.byte	0
 2933 006c 03       		.uleb128 0x3
 2934 006d 08       		.uleb128 0x8
 2935 006e 3A       		.uleb128 0x3a
 2936 006f 0B       		.uleb128 0xb
 2937 0070 3B       		.uleb128 0x3b
 2938 0071 05       		.uleb128 0x5
 2939 0072 39       		.uleb128 0x39
 2940 0073 0B       		.uleb128 0xb
 2941 0074 49       		.uleb128 0x49
 2942 0075 13       		.uleb128 0x13
 2943 0076 38       		.uleb128 0x38
 2944 0077 0B       		.uleb128 0xb
 2945 0078 00       		.byte	0
 2946 0079 00       		.byte	0
 2947 007a 09       		.uleb128 0x9
 2948 007b 05       		.uleb128 0x5
 2949 007c 00       		.byte	0
 2950 007d 49       		.uleb128 0x49
 2951 007e 13       		.uleb128 0x13
 2952 007f 00       		.byte	0
 2953 0080 00       		.byte	0
 2954 0081 0A       		.uleb128 0xa
 2955 0082 13       		.uleb128 0x13
 2956 0083 01       		.byte	0x1
 2957 0084 03       		.uleb128 0x3
 2958 0085 0E       		.uleb128 0xe
 2959 0086 0B       		.uleb128 0xb
 2960 0087 0B       		.uleb128 0xb
 2961 0088 3A       		.uleb128 0x3a
 2962 0089 0B       		.uleb128 0xb
 2963 008a 3B       		.uleb128 0x3b
 2964 008b 0B       		.uleb128 0xb
ARM GAS  C:\Users\DEVELO~1\AppData\Local\Temp\ccPWz6Q2.s 			page 53


 2965 008c 39       		.uleb128 0x39
 2966 008d 0B       		.uleb128 0xb
 2967 008e 01       		.uleb128 0x1
 2968 008f 13       		.uleb128 0x13
 2969 0090 00       		.byte	0
 2970 0091 00       		.byte	0
 2971 0092 0B       		.uleb128 0xb
 2972 0093 26       		.uleb128 0x26
 2973 0094 00       		.byte	0
 2974 0095 49       		.uleb128 0x49
 2975 0096 13       		.uleb128 0x13
 2976 0097 00       		.byte	0
 2977 0098 00       		.byte	0
 2978 0099 0C       		.uleb128 0xc
 2979 009a 13       		.uleb128 0x13
 2980 009b 01       		.byte	0x1
 2981 009c 0B       		.uleb128 0xb
 2982 009d 0B       		.uleb128 0xb
 2983 009e 3A       		.uleb128 0x3a
 2984 009f 0B       		.uleb128 0xb
 2985 00a0 3B       		.uleb128 0x3b
 2986 00a1 0B       		.uleb128 0xb
 2987 00a2 39       		.uleb128 0x39
 2988 00a3 0B       		.uleb128 0xb
 2989 00a4 01       		.uleb128 0x1
 2990 00a5 13       		.uleb128 0x13
 2991 00a6 00       		.byte	0
 2992 00a7 00       		.byte	0
 2993 00a8 0D       		.uleb128 0xd
 2994 00a9 0D       		.uleb128 0xd
 2995 00aa 00       		.byte	0
 2996 00ab 03       		.uleb128 0x3
 2997 00ac 0E       		.uleb128 0xe
 2998 00ad 3A       		.uleb128 0x3a
 2999 00ae 0B       		.uleb128 0xb
 3000 00af 3B       		.uleb128 0x3b
 3001 00b0 0B       		.uleb128 0xb
 3002 00b1 39       		.uleb128 0x39
 3003 00b2 0B       		.uleb128 0xb
 3004 00b3 49       		.uleb128 0x49
 3005 00b4 13       		.uleb128 0x13
 3006 00b5 00       		.byte	0
 3007 00b6 00       		.byte	0
 3008 00b7 0E       		.uleb128 0xe
 3009 00b8 0D       		.uleb128 0xd
 3010 00b9 00       		.byte	0
 3011 00ba 03       		.uleb128 0x3
 3012 00bb 0E       		.uleb128 0xe
 3013 00bc 3A       		.uleb128 0x3a
 3014 00bd 21       		.uleb128 0x21
 3015 00be 0B       		.sleb128 11
 3016 00bf 3B       		.uleb128 0x3b
 3017 00c0 05       		.uleb128 0x5
 3018 00c1 39       		.uleb128 0x39
 3019 00c2 0B       		.uleb128 0xb
 3020 00c3 49       		.uleb128 0x49
 3021 00c4 13       		.uleb128 0x13
ARM GAS  C:\Users\DEVELO~1\AppData\Local\Temp\ccPWz6Q2.s 			page 54


 3022 00c5 00       		.byte	0
 3023 00c6 00       		.byte	0
 3024 00c7 0F       		.uleb128 0xf
 3025 00c8 05       		.uleb128 0x5
 3026 00c9 00       		.byte	0
 3027 00ca 03       		.uleb128 0x3
 3028 00cb 08       		.uleb128 0x8
 3029 00cc 3A       		.uleb128 0x3a
 3030 00cd 21       		.uleb128 0x21
 3031 00ce 05       		.sleb128 5
 3032 00cf 3B       		.uleb128 0x3b
 3033 00d0 05       		.uleb128 0x5
 3034 00d1 39       		.uleb128 0x39
 3035 00d2 0B       		.uleb128 0xb
 3036 00d3 49       		.uleb128 0x49
 3037 00d4 13       		.uleb128 0x13
 3038 00d5 02       		.uleb128 0x2
 3039 00d6 18       		.uleb128 0x18
 3040 00d7 00       		.byte	0
 3041 00d8 00       		.byte	0
 3042 00d9 10       		.uleb128 0x10
 3043 00da 01       		.uleb128 0x1
 3044 00db 01       		.byte	0x1
 3045 00dc 49       		.uleb128 0x49
 3046 00dd 13       		.uleb128 0x13
 3047 00de 01       		.uleb128 0x1
 3048 00df 13       		.uleb128 0x13
 3049 00e0 00       		.byte	0
 3050 00e1 00       		.byte	0
 3051 00e2 11       		.uleb128 0x11
 3052 00e3 21       		.uleb128 0x21
 3053 00e4 00       		.byte	0
 3054 00e5 49       		.uleb128 0x49
 3055 00e6 13       		.uleb128 0x13
 3056 00e7 2F       		.uleb128 0x2f
 3057 00e8 0B       		.uleb128 0xb
 3058 00e9 00       		.byte	0
 3059 00ea 00       		.byte	0
 3060 00eb 12       		.uleb128 0x12
 3061 00ec 34       		.uleb128 0x34
 3062 00ed 00       		.byte	0
 3063 00ee 03       		.uleb128 0x3
 3064 00ef 0E       		.uleb128 0xe
 3065 00f0 49       		.uleb128 0x49
 3066 00f1 13       		.uleb128 0x13
 3067 00f2 34       		.uleb128 0x34
 3068 00f3 19       		.uleb128 0x19
 3069 00f4 00       		.byte	0
 3070 00f5 00       		.byte	0
 3071 00f6 13       		.uleb128 0x13
 3072 00f7 13       		.uleb128 0x13
 3073 00f8 01       		.byte	0x1
 3074 00f9 03       		.uleb128 0x3
 3075 00fa 0E       		.uleb128 0xe
 3076 00fb 0B       		.uleb128 0xb
 3077 00fc 0B       		.uleb128 0xb
 3078 00fd 3A       		.uleb128 0x3a
ARM GAS  C:\Users\DEVELO~1\AppData\Local\Temp\ccPWz6Q2.s 			page 55


 3079 00fe 0B       		.uleb128 0xb
 3080 00ff 3B       		.uleb128 0x3b
 3081 0100 05       		.uleb128 0x5
 3082 0101 39       		.uleb128 0x39
 3083 0102 0B       		.uleb128 0xb
 3084 0103 01       		.uleb128 0x1
 3085 0104 13       		.uleb128 0x13
 3086 0105 00       		.byte	0
 3087 0106 00       		.byte	0
 3088 0107 14       		.uleb128 0x14
 3089 0108 34       		.uleb128 0x34
 3090 0109 00       		.byte	0
 3091 010a 03       		.uleb128 0x3
 3092 010b 08       		.uleb128 0x8
 3093 010c 3A       		.uleb128 0x3a
 3094 010d 21       		.uleb128 0x21
 3095 010e 05       		.sleb128 5
 3096 010f 3B       		.uleb128 0x3b
 3097 0110 05       		.uleb128 0x5
 3098 0111 39       		.uleb128 0x39
 3099 0112 0B       		.uleb128 0xb
 3100 0113 49       		.uleb128 0x49
 3101 0114 13       		.uleb128 0x13
 3102 0115 02       		.uleb128 0x2
 3103 0116 18       		.uleb128 0x18
 3104 0117 00       		.byte	0
 3105 0118 00       		.byte	0
 3106 0119 15       		.uleb128 0x15
 3107 011a 0B       		.uleb128 0xb
 3108 011b 01       		.byte	0x1
 3109 011c 11       		.uleb128 0x11
 3110 011d 01       		.uleb128 0x1
 3111 011e 12       		.uleb128 0x12
 3112 011f 06       		.uleb128 0x6
 3113 0120 00       		.byte	0
 3114 0121 00       		.byte	0
 3115 0122 16       		.uleb128 0x16
 3116 0123 34       		.uleb128 0x34
 3117 0124 00       		.byte	0
 3118 0125 03       		.uleb128 0x3
 3119 0126 08       		.uleb128 0x8
 3120 0127 3A       		.uleb128 0x3a
 3121 0128 21       		.uleb128 0x21
 3122 0129 05       		.sleb128 5
 3123 012a 3B       		.uleb128 0x3b
 3124 012b 0B       		.uleb128 0xb
 3125 012c 39       		.uleb128 0x39
 3126 012d 0B       		.uleb128 0xb
 3127 012e 49       		.uleb128 0x49
 3128 012f 13       		.uleb128 0x13
 3129 0130 02       		.uleb128 0x2
 3130 0131 18       		.uleb128 0x18
 3131 0132 00       		.byte	0
 3132 0133 00       		.byte	0
 3133 0134 17       		.uleb128 0x17
 3134 0135 1D       		.uleb128 0x1d
 3135 0136 01       		.byte	0x1
ARM GAS  C:\Users\DEVELO~1\AppData\Local\Temp\ccPWz6Q2.s 			page 56


 3136 0137 31       		.uleb128 0x31
 3137 0138 13       		.uleb128 0x13
 3138 0139 11       		.uleb128 0x11
 3139 013a 01       		.uleb128 0x1
 3140 013b 12       		.uleb128 0x12
 3141 013c 06       		.uleb128 0x6
 3142 013d 58       		.uleb128 0x58
 3143 013e 0B       		.uleb128 0xb
 3144 013f 59       		.uleb128 0x59
 3145 0140 05       		.uleb128 0x5
 3146 0141 57       		.uleb128 0x57
 3147 0142 21       		.uleb128 0x21
 3148 0143 03       		.sleb128 3
 3149 0144 00       		.byte	0
 3150 0145 00       		.byte	0
 3151 0146 18       		.uleb128 0x18
 3152 0147 17       		.uleb128 0x17
 3153 0148 01       		.byte	0x1
 3154 0149 0B       		.uleb128 0xb
 3155 014a 0B       		.uleb128 0xb
 3156 014b 3A       		.uleb128 0x3a
 3157 014c 0B       		.uleb128 0xb
 3158 014d 3B       		.uleb128 0x3b
 3159 014e 0B       		.uleb128 0xb
 3160 014f 39       		.uleb128 0x39
 3161 0150 21       		.uleb128 0x21
 3162 0151 03       		.sleb128 3
 3163 0152 01       		.uleb128 0x1
 3164 0153 13       		.uleb128 0x13
 3165 0154 00       		.byte	0
 3166 0155 00       		.byte	0
 3167 0156 19       		.uleb128 0x19
 3168 0157 0D       		.uleb128 0xd
 3169 0158 00       		.byte	0
 3170 0159 03       		.uleb128 0x3
 3171 015a 08       		.uleb128 0x8
 3172 015b 3A       		.uleb128 0x3a
 3173 015c 21       		.uleb128 0x21
 3174 015d 10       		.sleb128 16
 3175 015e 3B       		.uleb128 0x3b
 3176 015f 0B       		.uleb128 0xb
 3177 0160 39       		.uleb128 0x39
 3178 0161 21       		.uleb128 0x21
 3179 0162 07       		.sleb128 7
 3180 0163 49       		.uleb128 0x49
 3181 0164 13       		.uleb128 0x13
 3182 0165 00       		.byte	0
 3183 0166 00       		.byte	0
 3184 0167 1A       		.uleb128 0x1a
 3185 0168 0D       		.uleb128 0xd
 3186 0169 00       		.byte	0
 3187 016a 03       		.uleb128 0x3
 3188 016b 0E       		.uleb128 0xe
 3189 016c 3A       		.uleb128 0x3a
 3190 016d 21       		.uleb128 0x21
 3191 016e 10       		.sleb128 16
 3192 016f 3B       		.uleb128 0x3b
ARM GAS  C:\Users\DEVELO~1\AppData\Local\Temp\ccPWz6Q2.s 			page 57


 3193 0170 0B       		.uleb128 0xb
 3194 0171 39       		.uleb128 0x39
 3195 0172 21       		.uleb128 0x21
 3196 0173 19       		.sleb128 25
 3197 0174 49       		.uleb128 0x49
 3198 0175 13       		.uleb128 0x13
 3199 0176 0D       		.uleb128 0xd
 3200 0177 0B       		.uleb128 0xb
 3201 0178 6B       		.uleb128 0x6b
 3202 0179 0B       		.uleb128 0xb
 3203 017a 00       		.byte	0
 3204 017b 00       		.byte	0
 3205 017c 1B       		.uleb128 0x1b
 3206 017d 2E       		.uleb128 0x2e
 3207 017e 01       		.byte	0x1
 3208 017f 3F       		.uleb128 0x3f
 3209 0180 19       		.uleb128 0x19
 3210 0181 03       		.uleb128 0x3
 3211 0182 0E       		.uleb128 0xe
 3212 0183 3A       		.uleb128 0x3a
 3213 0184 21       		.uleb128 0x21
 3214 0185 12       		.sleb128 18
 3215 0186 3B       		.uleb128 0x3b
 3216 0187 0B       		.uleb128 0xb
 3217 0188 39       		.uleb128 0x39
 3218 0189 21       		.uleb128 0x21
 3219 018a 08       		.sleb128 8
 3220 018b 27       		.uleb128 0x27
 3221 018c 19       		.uleb128 0x19
 3222 018d 3C       		.uleb128 0x3c
 3223 018e 19       		.uleb128 0x19
 3224 018f 01       		.uleb128 0x1
 3225 0190 13       		.uleb128 0x13
 3226 0191 00       		.byte	0
 3227 0192 00       		.byte	0
 3228 0193 1C       		.uleb128 0x1c
 3229 0194 2E       		.uleb128 0x2e
 3230 0195 01       		.byte	0x1
 3231 0196 03       		.uleb128 0x3
 3232 0197 0E       		.uleb128 0xe
 3233 0198 3A       		.uleb128 0x3a
 3234 0199 0B       		.uleb128 0xb
 3235 019a 3B       		.uleb128 0x3b
 3236 019b 0B       		.uleb128 0xb
 3237 019c 39       		.uleb128 0x39
 3238 019d 0B       		.uleb128 0xb
 3239 019e 27       		.uleb128 0x27
 3240 019f 19       		.uleb128 0x19
 3241 01a0 49       		.uleb128 0x49
 3242 01a1 13       		.uleb128 0x13
 3243 01a2 11       		.uleb128 0x11
 3244 01a3 01       		.uleb128 0x1
 3245 01a4 12       		.uleb128 0x12
 3246 01a5 06       		.uleb128 0x6
 3247 01a6 40       		.uleb128 0x40
 3248 01a7 18       		.uleb128 0x18
 3249 01a8 7C       		.uleb128 0x7c
ARM GAS  C:\Users\DEVELO~1\AppData\Local\Temp\ccPWz6Q2.s 			page 58


 3250 01a9 19       		.uleb128 0x19
 3251 01aa 01       		.uleb128 0x1
 3252 01ab 13       		.uleb128 0x13
 3253 01ac 00       		.byte	0
 3254 01ad 00       		.byte	0
 3255 01ae 1D       		.uleb128 0x1d
 3256 01af 35       		.uleb128 0x35
 3257 01b0 00       		.byte	0
 3258 01b1 49       		.uleb128 0x49
 3259 01b2 13       		.uleb128 0x13
 3260 01b3 00       		.byte	0
 3261 01b4 00       		.byte	0
 3262 01b5 1E       		.uleb128 0x1e
 3263 01b6 16       		.uleb128 0x16
 3264 01b7 00       		.byte	0
 3265 01b8 03       		.uleb128 0x3
 3266 01b9 0E       		.uleb128 0xe
 3267 01ba 3A       		.uleb128 0x3a
 3268 01bb 21       		.uleb128 0x21
 3269 01bc 0B       		.sleb128 11
 3270 01bd 3B       		.uleb128 0x3b
 3271 01be 05       		.uleb128 0x5
 3272 01bf 39       		.uleb128 0x39
 3273 01c0 21       		.uleb128 0x21
 3274 01c1 03       		.sleb128 3
 3275 01c2 49       		.uleb128 0x49
 3276 01c3 13       		.uleb128 0x13
 3277 01c4 00       		.byte	0
 3278 01c5 00       		.byte	0
 3279 01c6 1F       		.uleb128 0x1f
 3280 01c7 2E       		.uleb128 0x2e
 3281 01c8 01       		.byte	0x1
 3282 01c9 3F       		.uleb128 0x3f
 3283 01ca 19       		.uleb128 0x19
 3284 01cb 03       		.uleb128 0x3
 3285 01cc 0E       		.uleb128 0xe
 3286 01cd 3A       		.uleb128 0x3a
 3287 01ce 21       		.uleb128 0x21
 3288 01cf 13       		.sleb128 19
 3289 01d0 3B       		.uleb128 0x3b
 3290 01d1 05       		.uleb128 0x5
 3291 01d2 39       		.uleb128 0x39
 3292 01d3 21       		.uleb128 0x21
 3293 01d4 08       		.sleb128 8
 3294 01d5 27       		.uleb128 0x27
 3295 01d6 19       		.uleb128 0x19
 3296 01d7 3C       		.uleb128 0x3c
 3297 01d8 19       		.uleb128 0x19
 3298 01d9 01       		.uleb128 0x1
 3299 01da 13       		.uleb128 0x13
 3300 01db 00       		.byte	0
 3301 01dc 00       		.byte	0
 3302 01dd 20       		.uleb128 0x20
 3303 01de 2E       		.uleb128 0x2e
 3304 01df 01       		.byte	0x1
 3305 01e0 3F       		.uleb128 0x3f
 3306 01e1 19       		.uleb128 0x19
ARM GAS  C:\Users\DEVELO~1\AppData\Local\Temp\ccPWz6Q2.s 			page 59


 3307 01e2 03       		.uleb128 0x3
 3308 01e3 0E       		.uleb128 0xe
 3309 01e4 3A       		.uleb128 0x3a
 3310 01e5 21       		.uleb128 0x21
 3311 01e6 05       		.sleb128 5
 3312 01e7 3B       		.uleb128 0x3b
 3313 01e8 05       		.uleb128 0x5
 3314 01e9 39       		.uleb128 0x39
 3315 01ea 21       		.uleb128 0x21
 3316 01eb 08       		.sleb128 8
 3317 01ec 27       		.uleb128 0x27
 3318 01ed 19       		.uleb128 0x19
 3319 01ee 49       		.uleb128 0x49
 3320 01ef 13       		.uleb128 0x13
 3321 01f0 11       		.uleb128 0x11
 3322 01f1 01       		.uleb128 0x1
 3323 01f2 12       		.uleb128 0x12
 3324 01f3 06       		.uleb128 0x6
 3325 01f4 40       		.uleb128 0x40
 3326 01f5 18       		.uleb128 0x18
 3327 01f6 7C       		.uleb128 0x7c
 3328 01f7 19       		.uleb128 0x19
 3329 01f8 01       		.uleb128 0x1
 3330 01f9 13       		.uleb128 0x13
 3331 01fa 00       		.byte	0
 3332 01fb 00       		.byte	0
 3333 01fc 21       		.uleb128 0x21
 3334 01fd 05       		.uleb128 0x5
 3335 01fe 00       		.byte	0
 3336 01ff 03       		.uleb128 0x3
 3337 0200 0E       		.uleb128 0xe
 3338 0201 3A       		.uleb128 0x3a
 3339 0202 21       		.uleb128 0x21
 3340 0203 05       		.sleb128 5
 3341 0204 3B       		.uleb128 0x3b
 3342 0205 05       		.uleb128 0x5
 3343 0206 39       		.uleb128 0x39
 3344 0207 0B       		.uleb128 0xb
 3345 0208 49       		.uleb128 0x49
 3346 0209 13       		.uleb128 0x13
 3347 020a 02       		.uleb128 0x2
 3348 020b 18       		.uleb128 0x18
 3349 020c 00       		.byte	0
 3350 020d 00       		.byte	0
 3351 020e 22       		.uleb128 0x22
 3352 020f 34       		.uleb128 0x34
 3353 0210 00       		.byte	0
 3354 0211 03       		.uleb128 0x3
 3355 0212 0E       		.uleb128 0xe
 3356 0213 3A       		.uleb128 0x3a
 3357 0214 21       		.uleb128 0x21
 3358 0215 05       		.sleb128 5
 3359 0216 3B       		.uleb128 0x3b
 3360 0217 05       		.uleb128 0x5
 3361 0218 39       		.uleb128 0x39
 3362 0219 21       		.uleb128 0x21
 3363 021a 0C       		.sleb128 12
ARM GAS  C:\Users\DEVELO~1\AppData\Local\Temp\ccPWz6Q2.s 			page 60


 3364 021b 49       		.uleb128 0x49
 3365 021c 13       		.uleb128 0x13
 3366 021d 02       		.uleb128 0x2
 3367 021e 18       		.uleb128 0x18
 3368 021f 00       		.byte	0
 3369 0220 00       		.byte	0
 3370 0221 23       		.uleb128 0x23
 3371 0222 2E       		.uleb128 0x2e
 3372 0223 01       		.byte	0x1
 3373 0224 3F       		.uleb128 0x3f
 3374 0225 19       		.uleb128 0x19
 3375 0226 03       		.uleb128 0x3
 3376 0227 0E       		.uleb128 0xe
 3377 0228 3A       		.uleb128 0x3a
 3378 0229 21       		.uleb128 0x21
 3379 022a 05       		.sleb128 5
 3380 022b 3B       		.uleb128 0x3b
 3381 022c 0B       		.uleb128 0xb
 3382 022d 39       		.uleb128 0x39
 3383 022e 21       		.uleb128 0x21
 3384 022f 06       		.sleb128 6
 3385 0230 27       		.uleb128 0x27
 3386 0231 19       		.uleb128 0x19
 3387 0232 11       		.uleb128 0x11
 3388 0233 01       		.uleb128 0x1
 3389 0234 12       		.uleb128 0x12
 3390 0235 06       		.uleb128 0x6
 3391 0236 40       		.uleb128 0x40
 3392 0237 18       		.uleb128 0x18
 3393 0238 7C       		.uleb128 0x7c
 3394 0239 19       		.uleb128 0x19
 3395 023a 01       		.uleb128 0x1
 3396 023b 13       		.uleb128 0x13
 3397 023c 00       		.byte	0
 3398 023d 00       		.byte	0
 3399 023e 24       		.uleb128 0x24
 3400 023f 2E       		.uleb128 0x2e
 3401 0240 01       		.byte	0x1
 3402 0241 03       		.uleb128 0x3
 3403 0242 0E       		.uleb128 0xe
 3404 0243 3A       		.uleb128 0x3a
 3405 0244 21       		.uleb128 0x21
 3406 0245 04       		.sleb128 4
 3407 0246 3B       		.uleb128 0x3b
 3408 0247 0B       		.uleb128 0xb
 3409 0248 39       		.uleb128 0x39
 3410 0249 21       		.uleb128 0x21
 3411 024a 16       		.sleb128 22
 3412 024b 27       		.uleb128 0x27
 3413 024c 19       		.uleb128 0x19
 3414 024d 49       		.uleb128 0x49
 3415 024e 13       		.uleb128 0x13
 3416 024f 11       		.uleb128 0x11
 3417 0250 01       		.uleb128 0x1
 3418 0251 12       		.uleb128 0x12
 3419 0252 06       		.uleb128 0x6
 3420 0253 40       		.uleb128 0x40
ARM GAS  C:\Users\DEVELO~1\AppData\Local\Temp\ccPWz6Q2.s 			page 61


 3421 0254 18       		.uleb128 0x18
 3422 0255 7A       		.uleb128 0x7a
 3423 0256 19       		.uleb128 0x19
 3424 0257 01       		.uleb128 0x1
 3425 0258 13       		.uleb128 0x13
 3426 0259 00       		.byte	0
 3427 025a 00       		.byte	0
 3428 025b 25       		.uleb128 0x25
 3429 025c 2E       		.uleb128 0x2e
 3430 025d 01       		.byte	0x1
 3431 025e 03       		.uleb128 0x3
 3432 025f 0E       		.uleb128 0xe
 3433 0260 3A       		.uleb128 0x3a
 3434 0261 21       		.uleb128 0x21
 3435 0262 01       		.sleb128 1
 3436 0263 3B       		.uleb128 0x3b
 3437 0264 05       		.uleb128 0x5
 3438 0265 39       		.uleb128 0x39
 3439 0266 21       		.uleb128 0x21
 3440 0267 14       		.sleb128 20
 3441 0268 27       		.uleb128 0x27
 3442 0269 19       		.uleb128 0x19
 3443 026a 11       		.uleb128 0x11
 3444 026b 01       		.uleb128 0x1
 3445 026c 12       		.uleb128 0x12
 3446 026d 06       		.uleb128 0x6
 3447 026e 40       		.uleb128 0x40
 3448 026f 18       		.uleb128 0x18
 3449 0270 7A       		.uleb128 0x7a
 3450 0271 19       		.uleb128 0x19
 3451 0272 01       		.uleb128 0x1
 3452 0273 13       		.uleb128 0x13
 3453 0274 00       		.byte	0
 3454 0275 00       		.byte	0
 3455 0276 26       		.uleb128 0x26
 3456 0277 05       		.uleb128 0x5
 3457 0278 00       		.byte	0
 3458 0279 31       		.uleb128 0x31
 3459 027a 13       		.uleb128 0x13
 3460 027b 02       		.uleb128 0x2
 3461 027c 18       		.uleb128 0x18
 3462 027d 00       		.byte	0
 3463 027e 00       		.byte	0
 3464 027f 27       		.uleb128 0x27
 3465 0280 2E       		.uleb128 0x2e
 3466 0281 00       		.byte	0
 3467 0282 03       		.uleb128 0x3
 3468 0283 0E       		.uleb128 0xe
 3469 0284 3A       		.uleb128 0x3a
 3470 0285 21       		.uleb128 0x21
 3471 0286 03       		.sleb128 3
 3472 0287 3B       		.uleb128 0x3b
 3473 0288 05       		.uleb128 0x5
 3474 0289 39       		.uleb128 0x39
 3475 028a 21       		.uleb128 0x21
 3476 028b 1B       		.sleb128 27
 3477 028c 27       		.uleb128 0x27
ARM GAS  C:\Users\DEVELO~1\AppData\Local\Temp\ccPWz6Q2.s 			page 62


 3478 028d 19       		.uleb128 0x19
 3479 028e 20       		.uleb128 0x20
 3480 028f 21       		.uleb128 0x21
 3481 0290 03       		.sleb128 3
 3482 0291 00       		.byte	0
 3483 0292 00       		.byte	0
 3484 0293 28       		.uleb128 0x28
 3485 0294 11       		.uleb128 0x11
 3486 0295 01       		.byte	0x1
 3487 0296 25       		.uleb128 0x25
 3488 0297 0E       		.uleb128 0xe
 3489 0298 13       		.uleb128 0x13
 3490 0299 0B       		.uleb128 0xb
 3491 029a 03       		.uleb128 0x3
 3492 029b 0E       		.uleb128 0xe
 3493 029c 1B       		.uleb128 0x1b
 3494 029d 0E       		.uleb128 0xe
 3495 029e 55       		.uleb128 0x55
 3496 029f 17       		.uleb128 0x17
 3497 02a0 11       		.uleb128 0x11
 3498 02a1 01       		.uleb128 0x1
 3499 02a2 10       		.uleb128 0x10
 3500 02a3 17       		.uleb128 0x17
 3501 02a4 00       		.byte	0
 3502 02a5 00       		.byte	0
 3503 02a6 29       		.uleb128 0x29
 3504 02a7 24       		.uleb128 0x24
 3505 02a8 00       		.byte	0
 3506 02a9 0B       		.uleb128 0xb
 3507 02aa 0B       		.uleb128 0xb
 3508 02ab 3E       		.uleb128 0x3e
 3509 02ac 0B       		.uleb128 0xb
 3510 02ad 03       		.uleb128 0x3
 3511 02ae 08       		.uleb128 0x8
 3512 02af 00       		.byte	0
 3513 02b0 00       		.byte	0
 3514 02b1 2A       		.uleb128 0x2a
 3515 02b2 0F       		.uleb128 0xf
 3516 02b3 00       		.byte	0
 3517 02b4 0B       		.uleb128 0xb
 3518 02b5 0B       		.uleb128 0xb
 3519 02b6 00       		.byte	0
 3520 02b7 00       		.byte	0
 3521 02b8 2B       		.uleb128 0x2b
 3522 02b9 13       		.uleb128 0x13
 3523 02ba 01       		.byte	0x1
 3524 02bb 03       		.uleb128 0x3
 3525 02bc 0E       		.uleb128 0xe
 3526 02bd 0B       		.uleb128 0xb
 3527 02be 05       		.uleb128 0x5
 3528 02bf 3A       		.uleb128 0x3a
 3529 02c0 0B       		.uleb128 0xb
 3530 02c1 3B       		.uleb128 0x3b
 3531 02c2 05       		.uleb128 0x5
 3532 02c3 39       		.uleb128 0x39
 3533 02c4 0B       		.uleb128 0xb
 3534 02c5 01       		.uleb128 0x1
ARM GAS  C:\Users\DEVELO~1\AppData\Local\Temp\ccPWz6Q2.s 			page 63


 3535 02c6 13       		.uleb128 0x13
 3536 02c7 00       		.byte	0
 3537 02c8 00       		.byte	0
 3538 02c9 2C       		.uleb128 0x2c
 3539 02ca 13       		.uleb128 0x13
 3540 02cb 01       		.byte	0x1
 3541 02cc 0B       		.uleb128 0xb
 3542 02cd 05       		.uleb128 0x5
 3543 02ce 3A       		.uleb128 0x3a
 3544 02cf 0B       		.uleb128 0xb
 3545 02d0 3B       		.uleb128 0x3b
 3546 02d1 0B       		.uleb128 0xb
 3547 02d2 39       		.uleb128 0x39
 3548 02d3 0B       		.uleb128 0xb
 3549 02d4 01       		.uleb128 0x1
 3550 02d5 13       		.uleb128 0x13
 3551 02d6 00       		.byte	0
 3552 02d7 00       		.byte	0
 3553 02d8 2D       		.uleb128 0x2d
 3554 02d9 2E       		.uleb128 0x2e
 3555 02da 01       		.byte	0x1
 3556 02db 3F       		.uleb128 0x3f
 3557 02dc 19       		.uleb128 0x19
 3558 02dd 03       		.uleb128 0x3
 3559 02de 0E       		.uleb128 0xe
 3560 02df 3A       		.uleb128 0x3a
 3561 02e0 0B       		.uleb128 0xb
 3562 02e1 3B       		.uleb128 0x3b
 3563 02e2 05       		.uleb128 0x5
 3564 02e3 39       		.uleb128 0x39
 3565 02e4 0B       		.uleb128 0xb
 3566 02e5 27       		.uleb128 0x27
 3567 02e6 19       		.uleb128 0x19
 3568 02e7 49       		.uleb128 0x49
 3569 02e8 13       		.uleb128 0x13
 3570 02e9 3C       		.uleb128 0x3c
 3571 02ea 19       		.uleb128 0x19
 3572 02eb 01       		.uleb128 0x1
 3573 02ec 13       		.uleb128 0x13
 3574 02ed 00       		.byte	0
 3575 02ee 00       		.byte	0
 3576 02ef 2E       		.uleb128 0x2e
 3577 02f0 2E       		.uleb128 0x2e
 3578 02f1 00       		.byte	0
 3579 02f2 3F       		.uleb128 0x3f
 3580 02f3 19       		.uleb128 0x19
 3581 02f4 03       		.uleb128 0x3
 3582 02f5 0E       		.uleb128 0xe
 3583 02f6 3A       		.uleb128 0x3a
 3584 02f7 0B       		.uleb128 0xb
 3585 02f8 3B       		.uleb128 0x3b
 3586 02f9 0B       		.uleb128 0xb
 3587 02fa 39       		.uleb128 0x39
 3588 02fb 0B       		.uleb128 0xb
 3589 02fc 27       		.uleb128 0x27
 3590 02fd 19       		.uleb128 0x19
 3591 02fe 3C       		.uleb128 0x3c
ARM GAS  C:\Users\DEVELO~1\AppData\Local\Temp\ccPWz6Q2.s 			page 64


 3592 02ff 19       		.uleb128 0x19
 3593 0300 00       		.byte	0
 3594 0301 00       		.byte	0
 3595 0302 2F       		.uleb128 0x2f
 3596 0303 2E       		.uleb128 0x2e
 3597 0304 01       		.byte	0x1
 3598 0305 3F       		.uleb128 0x3f
 3599 0306 19       		.uleb128 0x19
 3600 0307 03       		.uleb128 0x3
 3601 0308 0E       		.uleb128 0xe
 3602 0309 3A       		.uleb128 0x3a
 3603 030a 0B       		.uleb128 0xb
 3604 030b 3B       		.uleb128 0x3b
 3605 030c 0B       		.uleb128 0xb
 3606 030d 39       		.uleb128 0x39
 3607 030e 0B       		.uleb128 0xb
 3608 030f 27       		.uleb128 0x27
 3609 0310 19       		.uleb128 0x19
 3610 0311 49       		.uleb128 0x49
 3611 0312 13       		.uleb128 0x13
 3612 0313 3C       		.uleb128 0x3c
 3613 0314 19       		.uleb128 0x19
 3614 0315 01       		.uleb128 0x1
 3615 0316 13       		.uleb128 0x13
 3616 0317 00       		.byte	0
 3617 0318 00       		.byte	0
 3618 0319 30       		.uleb128 0x30
 3619 031a 26       		.uleb128 0x26
 3620 031b 00       		.byte	0
 3621 031c 00       		.byte	0
 3622 031d 00       		.byte	0
 3623 031e 31       		.uleb128 0x31
 3624 031f 2E       		.uleb128 0x2e
 3625 0320 01       		.byte	0x1
 3626 0321 03       		.uleb128 0x3
 3627 0322 0E       		.uleb128 0xe
 3628 0323 3A       		.uleb128 0x3a
 3629 0324 0B       		.uleb128 0xb
 3630 0325 3B       		.uleb128 0x3b
 3631 0326 05       		.uleb128 0x5
 3632 0327 39       		.uleb128 0x39
 3633 0328 0B       		.uleb128 0xb
 3634 0329 27       		.uleb128 0x27
 3635 032a 19       		.uleb128 0x19
 3636 032b 20       		.uleb128 0x20
 3637 032c 0B       		.uleb128 0xb
 3638 032d 00       		.byte	0
 3639 032e 00       		.byte	0
 3640 032f 32       		.uleb128 0x32
 3641 0330 05       		.uleb128 0x5
 3642 0331 00       		.byte	0
 3643 0332 03       		.uleb128 0x3
 3644 0333 0E       		.uleb128 0xe
 3645 0334 3A       		.uleb128 0x3a
 3646 0335 0B       		.uleb128 0xb
 3647 0336 3B       		.uleb128 0x3b
 3648 0337 05       		.uleb128 0x5
ARM GAS  C:\Users\DEVELO~1\AppData\Local\Temp\ccPWz6Q2.s 			page 65


 3649 0338 39       		.uleb128 0x39
 3650 0339 0B       		.uleb128 0xb
 3651 033a 49       		.uleb128 0x49
 3652 033b 13       		.uleb128 0x13
 3653 033c 00       		.byte	0
 3654 033d 00       		.byte	0
 3655 033e 00       		.byte	0
 3656              		.section	.debug_aranges,"",%progbits
 3657 0000 6C000000 		.4byte	0x6c
 3658 0004 0200     		.2byte	0x2
 3659 0006 00000000 		.4byte	.Ldebug_info0
 3660 000a 04       		.byte	0x4
 3661 000b 00       		.byte	0
 3662 000c 0000     		.2byte	0
 3663 000e 0000     		.2byte	0
 3664 0010 00000000 		.4byte	.LFB202
 3665 0014 1E000000 		.4byte	.LFE202-.LFB202
 3666 0018 00000000 		.4byte	.LFB203
 3667 001c 1E000000 		.4byte	.LFE203-.LFB203
 3668 0020 00000000 		.4byte	.LFB314
 3669 0024 1C000000 		.4byte	.LFE314-.LFB314
 3670 0028 00000000 		.4byte	.LFB315
 3671 002c 16000000 		.4byte	.LFE315-.LFB315
 3672 0030 00000000 		.4byte	.LFB316
 3673 0034 22000000 		.4byte	.LFE316-.LFB316
 3674 0038 00000000 		.4byte	.LFB346
 3675 003c D4000000 		.4byte	.LFE346-.LFB346
 3676 0040 00000000 		.4byte	.LFB347
 3677 0044 D4000000 		.4byte	.LFE347-.LFB347
 3678 0048 00000000 		.4byte	.LFB348
 3679 004c 66000000 		.4byte	.LFE348-.LFB348
 3680 0050 00000000 		.4byte	.LFB349
 3681 0054 68000000 		.4byte	.LFE349-.LFB349
 3682 0058 00000000 		.4byte	.LFB350
 3683 005c 94000000 		.4byte	.LFE350-.LFB350
 3684 0060 00000000 		.4byte	.LFB351
 3685 0064 94000000 		.4byte	.LFE351-.LFB351
 3686 0068 00000000 		.4byte	0
 3687 006c 00000000 		.4byte	0
 3688              		.section	.debug_rnglists,"",%progbits
 3689              	.Ldebug_ranges0:
 3690 0000 4F000000 		.4byte	.Ldebug_ranges3-.Ldebug_ranges2
 3691              	.Ldebug_ranges2:
 3692 0004 0500     		.2byte	0x5
 3693 0006 04       		.byte	0x4
 3694 0007 00       		.byte	0
 3695 0008 00000000 		.4byte	0
 3696              	.LLRL0:
 3697 000c 07       		.byte	0x7
 3698 000d 00000000 		.4byte	.LFB202
 3699 0011 1E       		.uleb128 .LFE202-.LFB202
 3700 0012 07       		.byte	0x7
 3701 0013 00000000 		.4byte	.LFB203
 3702 0017 1E       		.uleb128 .LFE203-.LFB203
 3703 0018 07       		.byte	0x7
 3704 0019 00000000 		.4byte	.LFB314
 3705 001d 1C       		.uleb128 .LFE314-.LFB314
ARM GAS  C:\Users\DEVELO~1\AppData\Local\Temp\ccPWz6Q2.s 			page 66


 3706 001e 07       		.byte	0x7
 3707 001f 00000000 		.4byte	.LFB315
 3708 0023 16       		.uleb128 .LFE315-.LFB315
 3709 0024 07       		.byte	0x7
 3710 0025 00000000 		.4byte	.LFB316
 3711 0029 22       		.uleb128 .LFE316-.LFB316
 3712 002a 07       		.byte	0x7
 3713 002b 00000000 		.4byte	.LFB346
 3714 002f D401     		.uleb128 .LFE346-.LFB346
 3715 0031 07       		.byte	0x7
 3716 0032 00000000 		.4byte	.LFB347
 3717 0036 D401     		.uleb128 .LFE347-.LFB347
 3718 0038 07       		.byte	0x7
 3719 0039 00000000 		.4byte	.LFB348
 3720 003d 66       		.uleb128 .LFE348-.LFB348
 3721 003e 07       		.byte	0x7
 3722 003f 00000000 		.4byte	.LFB349
 3723 0043 68       		.uleb128 .LFE349-.LFB349
 3724 0044 07       		.byte	0x7
 3725 0045 00000000 		.4byte	.LFB350
 3726 0049 9401     		.uleb128 .LFE350-.LFB350
 3727 004b 07       		.byte	0x7
 3728 004c 00000000 		.4byte	.LFB351
 3729 0050 9401     		.uleb128 .LFE351-.LFB351
 3730 0052 00       		.byte	0
 3731              	.Ldebug_ranges3:
 3732              		.section	.debug_line,"",%progbits
 3733              	.Ldebug_line0:
 3734 0000 BB050000 		.section	.debug_str,"MS",%progbits,1
 3734      03003603 
 3734      00000201 
 3734      FB0E0D00 
 3734      01010101 
 3735              	.LASF52:
 3736 0000 636F7265 		.ascii	"core_id\000"
 3736      5F696400 
 3737              	.LASF114:
 3738 0008 72656164 		.ascii	"ready_list_t\000"
 3738      795F6C69 
 3738      73745F74 
 3738      00
 3739              	.LASF4:
 3740 0015 73697A65 		.ascii	"size_t\000"
 3740      5F7400
 3741              	.LASF103:
 3742 001c 7264796D 		.ascii	"rdymsg\000"
 3742      736700
 3743              	.LASF53:
 3744 0023 72666375 		.ascii	"rfcu\000"
 3744      00
 3745              	.LASF5:
 3746 0028 5F5F7569 		.ascii	"__uint8_t\000"
 3746      6E74385F 
 3746      7400
 3747              	.LASF71:
 3748 0032 70726576 		.ascii	"prev\000"
 3748      00
ARM GAS  C:\Users\DEVELO~1\AppData\Local\Temp\ccPWz6Q2.s 			page 67


 3749              	.LASF90:
 3750 0037 706F7274 		.ascii	"port_intctx\000"
 3750      5F696E74 
 3750      63747800 
 3751              	.LASF50:
 3752 0043 76746C69 		.ascii	"vtlist\000"
 3752      737400
 3753              	.LASF82:
 3754 004a 74797065 		.ascii	"type\000"
 3754      00
 3755              	.LASF138:
 3756 004f 646F6E65 		.ascii	"done\000"
 3756      00
 3757              	.LASF85:
 3758 0054 74726163 		.ascii	"trace_event_t\000"
 3758      655F6576 
 3758      656E745F 
 3758      7400
 3759              	.LASF80:
 3760 0062 68616C74 		.ascii	"halt\000"
 3760      00
 3761              	.LASF145:
 3762 0067 70697065 		.ascii	"pipe_write\000"
 3762      5F777269 
 3762      746500
 3763              	.LASF104:
 3764 0072 65786974 		.ascii	"exitcode\000"
 3764      636F6465 
 3764      00
 3765              	.LASF55:
 3766 007b 6D61696E 		.ascii	"mainthread\000"
 3766      74687265 
 3766      616400
 3767              	.LASF106:
 3768 0086 73656E74 		.ascii	"sentmsg\000"
 3768      6D736700 
 3769              	.LASF124:
 3770 008e 72647074 		.ascii	"rdptr\000"
 3770      7200
 3771              	.LASF77:
 3772 0094 64656C74 		.ascii	"delta\000"
 3772      6100
 3773              	.LASF68:
 3774 009a 6E657874 		.ascii	"next\000"
 3774      00
 3775              	.LASF133:
 3776 009f 63684D74 		.ascii	"chMtxUnlock\000"
 3776      78556E6C 
 3776      6F636B00 
 3777              	.LASF3:
 3778 00ab 7369676E 		.ascii	"signed char\000"
 3778      65642063 
 3778      68617200 
 3779              	.LASF13:
 3780 00b7 6C6F6E67 		.ascii	"long unsigned int\000"
 3780      20756E73 
 3780      69676E65 
ARM GAS  C:\Users\DEVELO~1\AppData\Local\Temp\ccPWz6Q2.s 			page 68


 3780      6420696E 
 3780      7400
 3781              	.LASF76:
 3782 00c9 63685F64 		.ascii	"ch_delta_list\000"
 3782      656C7461 
 3782      5F6C6973 
 3782      7400
 3783              	.LASF15:
 3784 00d7 6C6F6E67 		.ascii	"long long unsigned int\000"
 3784      206C6F6E 
 3784      6720756E 
 3784      7369676E 
 3784      65642069 
 3785              	.LASF158:
 3786 00ee 62617365 		.ascii	"basePri\000"
 3786      50726900 
 3787              	.LASF153:
 3788 00f6 474E5520 		.ascii	"GNU C17 11.3.1 20220712 -mcpu=cortex-m7 -mthumb -mf"
 3788      43313720 
 3788      31312E33 
 3788      2E312032 
 3788      30323230 
 3789 0129 6C6F6174 		.ascii	"loat-abi=soft -march=armv7e-m -ggdb -O0 -ffunction-"
 3789      2D616269 
 3789      3D736F66 
 3789      74202D6D 
 3789      61726368 
 3790 015c 73656374 		.ascii	"sections -fdata-sections -fno-common\000"
 3790      696F6E73 
 3790      202D6664 
 3790      6174612D 
 3790      73656374 
 3791              	.LASF37:
 3792 0181 73746174 		.ascii	"state\000"
 3792      6500
 3793              	.LASF11:
 3794 0187 6C6F6E67 		.ascii	"long int\000"
 3794      20696E74 
 3794      00
 3795              	.LASF25:
 3796 0190 74737461 		.ascii	"tstate_t\000"
 3796      74655F74 
 3796      00
 3797              	.LASF58:
 3798 0199 63685F72 		.ascii	"ch_rfcu\000"
 3798      66637500 
 3799              	.LASF135:
 3800 01a1 6D656D63 		.ascii	"memcpy\000"
 3800      707900
 3801              	.LASF151:
 3802 01a8 706F7274 		.ascii	"port_unlock\000"
 3802      5F756E6C 
 3802      6F636B00 
 3803              	.LASF70:
 3804 01b4 63685F71 		.ascii	"ch_queue\000"
 3804      75657565 
 3804      00
ARM GAS  C:\Users\DEVELO~1\AppData\Local\Temp\ccPWz6Q2.s 			page 69


 3805              	.LASF1:
 3806 01bd 6C6F6E67 		.ascii	"long long int\000"
 3806      206C6F6E 
 3806      6720696E 
 3806      7400
 3807              	.LASF18:
 3808 01cb 75696E74 		.ascii	"uint16_t\000"
 3808      31365F74 
 3808      00
 3809              	.LASF128:
 3810 01d4 726D7478 		.ascii	"rmtx\000"
 3810      00
 3811              	.LASF123:
 3812 01d9 77727074 		.ascii	"wrptr\000"
 3812      7200
 3813              	.LASF97:
 3814 01df 63685F72 		.ascii	"ch_registry\000"
 3814      65676973 
 3814      74727900 
 3815              	.LASF156:
 3816 01eb 63685363 		.ascii	"chSchRescheduleS\000"
 3816      68526573 
 3816      63686564 
 3816      756C6553 
 3816      00
 3817              	.LASF148:
 3818 01fc 63685069 		.ascii	"chPipeGetSize\000"
 3818      70654765 
 3818      7453697A 
 3818      6500
 3819              	.LASF12:
 3820 020a 5F5F7569 		.ascii	"__uint32_t\000"
 3820      6E743332 
 3820      5F7400
 3821              	.LASF59:
 3822 0215 6D61736B 		.ascii	"mask\000"
 3822      00
 3823              	.LASF125:
 3824 021a 72657365 		.ascii	"reset\000"
 3824      7400
 3825              	.LASF40:
 3826 0220 77616974 		.ascii	"waiting\000"
 3826      696E6700 
 3827              	.LASF116:
 3828 0228 6D61696E 		.ascii	"mainthread_base\000"
 3828      74687265 
 3828      61645F62 
 3828      61736500 
 3829              	.LASF121:
 3830 0238 6D757465 		.ascii	"mutex_t\000"
 3830      785F7400 
 3831              	.LASF65:
 3832 0240 73797369 		.ascii	"sysinterval_t\000"
 3832      6E746572 
 3832      76616C5F 
 3832      7400
 3833              	.LASF30:
ARM GAS  C:\Users\DEVELO~1\AppData\Local\Temp\ccPWz6Q2.s 			page 70


 3834 024e 636E745F 		.ascii	"cnt_t\000"
 3834      7400
 3835              	.LASF41:
 3836 0254 6D736771 		.ascii	"msgqueue\000"
 3836      75657565 
 3836      00
 3837              	.LASF0:
 3838 025d 756E7369 		.ascii	"unsigned int\000"
 3838      676E6564 
 3838      20696E74 
 3838      00
 3839              	.LASF118:
 3840 026a 69646C65 		.ascii	"idlethread_base\000"
 3840      74687265 
 3840      61645F62 
 3840      61736500 
 3841              	.LASF107:
 3842 027a 77747365 		.ascii	"wtsemp\000"
 3842      6D7000
 3843              	.LASF63:
 3844 0281 73797374 		.ascii	"system_debug_t\000"
 3844      656D5F64 
 3844      65627567 
 3844      5F7400
 3845              	.LASF105:
 3846 0290 77747472 		.ascii	"wttrp\000"
 3846      7000
 3847              	.LASF33:
 3848 0296 72717565 		.ascii	"rqueue\000"
 3848      756500
 3849              	.LASF69:
 3850 029d 63685F71 		.ascii	"ch_queue_t\000"
 3850      75657565 
 3850      5F7400
 3851              	.LASF22:
 3852 02a8 706F7274 		.ascii	"port_stkalign_t\000"
 3852      5F73746B 
 3852      616C6967 
 3852      6E5F7400 
 3853              	.LASF137:
 3854 02b8 74696D65 		.ascii	"timeout\000"
 3854      6F757400 
 3855              	.LASF126:
 3856 02c0 636D7478 		.ascii	"cmtx\000"
 3856      00
 3857              	.LASF98:
 3858 02c5 71756575 		.ascii	"queue\000"
 3858      6500
 3859              	.LASF35:
 3860 02cb 6E616D65 		.ascii	"name\000"
 3860      00
 3861              	.LASF142:
 3862 02d0 63685069 		.ascii	"chPipeReset\000"
 3862      70655265 
 3862      73657400 
 3863              	.LASF87:
 3864 02dc 73697A65 		.ascii	"size\000"
ARM GAS  C:\Users\DEVELO~1\AppData\Local\Temp\ccPWz6Q2.s 			page 71


 3864      00
 3865              	.LASF9:
 3866 02e1 73686F72 		.ascii	"short unsigned int\000"
 3866      7420756E 
 3866      7369676E 
 3866      65642069 
 3866      6E7400
 3867              	.LASF144:
 3868 02f4 70697065 		.ascii	"pipe_read\000"
 3868      5F726561 
 3868      6400
 3869              	.LASF47:
 3870 02fe 63685F74 		.ascii	"ch_thread\000"
 3870      68726561 
 3870      6400
 3871              	.LASF28:
 3872 0308 6D73675F 		.ascii	"msg_t\000"
 3872      7400
 3873              	.LASF42:
 3874 030e 6570656E 		.ascii	"epending\000"
 3874      64696E67 
 3874      00
 3875              	.LASF24:
 3876 0317 746D6F64 		.ascii	"tmode_t\000"
 3876      655F7400 
 3877              	.LASF67:
 3878 031f 63685F6C 		.ascii	"ch_list\000"
 3878      69737400 
 3879              	.LASF112:
 3880 0327 63685F72 		.ascii	"ch_ready_list\000"
 3880      65616479 
 3880      5F6C6973 
 3880      7400
 3881              	.LASF29:
 3882 0335 6576656E 		.ascii	"eventmask_t\000"
 3882      746D6173 
 3882      6B5F7400 
 3883              	.LASF147:
 3884 0341 63685069 		.ascii	"chPipeGetUsedCount\000"
 3884      70654765 
 3884      74557365 
 3884      64436F75 
 3884      6E7400
 3885              	.LASF10:
 3886 0354 5F5F696E 		.ascii	"__int32_t\000"
 3886      7433325F 
 3886      7400
 3887              	.LASF96:
 3888 035e 76697274 		.ascii	"virtual_timers_list_t\000"
 3888      75616C5F 
 3888      74696D65 
 3888      72735F6C 
 3888      6973745F 
 3889              	.LASF129:
 3890 0374 70697065 		.ascii	"pipe_t\000"
 3890      5F7400
 3891              	.LASF23:
ARM GAS  C:\Users\DEVELO~1\AppData\Local\Temp\ccPWz6Q2.s 			page 72


 3892 037b 73746B61 		.ascii	"stkalign_t\000"
 3892      6C69676E 
 3892      5F7400
 3893              	.LASF127:
 3894 0386 776D7478 		.ascii	"wmtx\000"
 3894      00
 3895              	.LASF83:
 3896 038b 72747374 		.ascii	"rtstamp\000"
 3896      616D7000 
 3897              	.LASF95:
 3898 0393 6C617374 		.ascii	"laststamp\000"
 3898      7374616D 
 3898      7000
 3899              	.LASF44:
 3900 039d 7265616C 		.ascii	"realprio\000"
 3900      7072696F 
 3900      00
 3901              	.LASF134:
 3902 03a6 63685468 		.ascii	"chThdSuspendTimeoutS\000"
 3902      64537573 
 3902      70656E64 
 3902      54696D65 
 3902      6F757453 
 3903              	.LASF57:
 3904 03bb 72666375 		.ascii	"rfcu_mask_t\000"
 3904      5F6D6173 
 3904      6B5F7400 
 3905              	.LASF100:
 3906 03c7 74687265 		.ascii	"thread_reference_t\000"
 3906      61645F72 
 3906      65666572 
 3906      656E6365 
 3906      5F7400
 3907              	.LASF139:
 3908 03da 63685069 		.ascii	"chPipeReadTimeout\000"
 3908      70655265 
 3908      61645469 
 3908      6D656F75 
 3908      7400
 3909              	.LASF92:
 3910 03ec 63685F76 		.ascii	"ch_virtual_timers_list\000"
 3910      69727475 
 3910      616C5F74 
 3910      696D6572 
 3910      735F6C69 
 3911              	.LASF157:
 3912 0403 5F5F7365 		.ascii	"__set_BASEPRI\000"
 3912      745F4241 
 3912      53455052 
 3912      4900
 3913              	.LASF66:
 3914 0411 63685F6C 		.ascii	"ch_list_t\000"
 3914      6973745F 
 3914      7400
 3915              	.LASF86:
 3916 041b 73757370 		.ascii	"suspended\000"
 3916      656E6465 
ARM GAS  C:\Users\DEVELO~1\AppData\Local\Temp\ccPWz6Q2.s 			page 73


 3916      6400
 3917              	.LASF136:
 3918 0425 63684D74 		.ascii	"chMtxLock\000"
 3918      784C6F63 
 3918      6B00
 3919              	.LASF21:
 3920 042f 75696E74 		.ascii	"uint64_t\000"
 3920      36345F74 
 3920      00
 3921              	.LASF132:
 3922 0438 63684D74 		.ascii	"chMtxObjectInit\000"
 3922      784F626A 
 3922      65637449 
 3922      6E697400 
 3923              	.LASF115:
 3924 0448 63685F6F 		.ascii	"ch_os_instance_config\000"
 3924      735F696E 
 3924      7374616E 
 3924      63655F63 
 3924      6F6E6669 
 3925              	.LASF91:
 3926 045e 706F7274 		.ascii	"port_context\000"
 3926      5F636F6E 
 3926      74657874 
 3926      00
 3927              	.LASF84:
 3928 046b 74696D65 		.ascii	"time\000"
 3928      00
 3929              	.LASF74:
 3930 0470 7072696F 		.ascii	"prio\000"
 3930      00
 3931              	.LASF113:
 3932 0475 63757272 		.ascii	"current\000"
 3932      656E7400 
 3933              	.LASF14:
 3934 047d 5F5F7569 		.ascii	"__uint64_t\000"
 3934      6E743634 
 3934      5F7400
 3935              	.LASF143:
 3936 0488 63685069 		.ascii	"chPipeObjectInit\000"
 3936      70654F62 
 3936      6A656374 
 3936      496E6974 
 3936      00
 3937              	.LASF31:
 3938 0499 636F7265 		.ascii	"core_id_t\000"
 3938      5F69645F 
 3938      7400
 3939              	.LASF26:
 3940 04a3 74726566 		.ascii	"trefs_t\000"
 3940      735F7400 
 3941              	.LASF140:
 3942 04ab 63685069 		.ascii	"chPipeWriteTimeout\000"
 3942      70655772 
 3942      69746554 
 3942      696D656F 
 3942      757400
ARM GAS  C:\Users\DEVELO~1\AppData\Local\Temp\ccPWz6Q2.s 			page 74


 3943              	.LASF39:
 3944 04be 72656673 		.ascii	"refs\000"
 3944      00
 3945              	.LASF81:
 3946 04c3 75736572 		.ascii	"user\000"
 3946      00
 3947              	.LASF27:
 3948 04c8 74707269 		.ascii	"tprio_t\000"
 3948      6F5F7400 
 3949              	.LASF146:
 3950 04d0 63685069 		.ascii	"chPipeGetFreeCount\000"
 3950      70654765 
 3950      74467265 
 3950      65436F75 
 3950      6E7400
 3951              	.LASF61:
 3952 04e3 63685F73 		.ascii	"ch_system_debug\000"
 3952      79737465 
 3952      6D5F6465 
 3952      62756700 
 3953              	.LASF122:
 3954 04f3 5F426F6F 		.ascii	"_Bool\000"
 3954      6C00
 3955              	.LASF19:
 3956 04f9 696E7433 		.ascii	"int32_t\000"
 3956      325F7400 
 3957              	.LASF6:
 3958 0501 756E7369 		.ascii	"unsigned char\000"
 3958      676E6564 
 3958      20636861 
 3958      7200
 3959              	.LASF60:
 3960 050f 72666375 		.ascii	"rfcu_t\000"
 3960      5F7400
 3961              	.LASF7:
 3962 0516 73686F72 		.ascii	"short int\000"
 3962      7420696E 
 3962      7400
 3963              	.LASF94:
 3964 0520 6C617374 		.ascii	"lasttime\000"
 3964      74696D65 
 3964      00
 3965              	.LASF89:
 3966 0529 74726163 		.ascii	"trace_buffer_t\000"
 3966      655F6275 
 3966      66666572 
 3966      5F7400
 3967              	.LASF154:
 3968 0538 2E2E2F2E 		.ascii	"../../../os/oslib/src/chpipes.c\000"
 3968      2E2F2E2E 
 3968      2F6F732F 
 3968      6F736C69 
 3968      622F7372 
 3969              	.LASF78:
 3970 0558 77746F62 		.ascii	"wtobjp\000"
 3970      6A7000
 3971              	.LASF109:
ARM GAS  C:\Users\DEVELO~1\AppData\Local\Temp\ccPWz6Q2.s 			page 75


 3972 055f 65776D61 		.ascii	"ewmask\000"
 3972      736B00
 3973              	.LASF141:
 3974 0566 5F5F6675 		.ascii	"__func__\000"
 3974      6E635F5F 
 3974      00
 3975              	.LASF150:
 3976 056f 63685379 		.ascii	"chSysLock\000"
 3976      734C6F63 
 3976      6B00
 3977              	.LASF79:
 3978 0579 72656173 		.ascii	"reason\000"
 3978      6F6E00
 3979              	.LASF110:
 3980 0580 63685F73 		.ascii	"ch_semaphore\000"
 3980      656D6170 
 3980      686F7265 
 3980      00
 3981              	.LASF99:
 3982 058d 72656769 		.ascii	"registry_t\000"
 3982      73747279 
 3982      5F7400
 3983              	.LASF20:
 3984 0598 75696E74 		.ascii	"uint32_t\000"
 3984      33325F74 
 3984      00
 3985              	.LASF108:
 3986 05a1 77746D74 		.ascii	"wtmtxp\000"
 3986      787000
 3987              	.LASF130:
 3988 05a8 63685468 		.ascii	"chThdResume\000"
 3988      64526573 
 3988      756D6500 
 3989              	.LASF34:
 3990 05b4 6F776E65 		.ascii	"owner\000"
 3990      7200
 3991              	.LASF2:
 3992 05ba 6C6F6E67 		.ascii	"long double\000"
 3992      20646F75 
 3992      626C6500 
 3993              	.LASF36:
 3994 05c6 77616261 		.ascii	"wabase\000"
 3994      736500
 3995              	.LASF16:
 3996 05cd 63686172 		.ascii	"char\000"
 3996      00
 3997              	.LASF54:
 3998 05d2 636F6E66 		.ascii	"config\000"
 3998      696700
 3999              	.LASF8:
 4000 05d9 5F5F7569 		.ascii	"__uint16_t\000"
 4000      6E743136 
 4000      5F7400
 4001              	.LASF32:
 4002 05e4 74687265 		.ascii	"thread_t\000"
 4002      61645F74 
 4002      00
ARM GAS  C:\Users\DEVELO~1\AppData\Local\Temp\ccPWz6Q2.s 			page 76


 4003              	.LASF93:
 4004 05ed 646C6973 		.ascii	"dlist\000"
 4004      7400
 4005              	.LASF64:
 4006 05f3 73797374 		.ascii	"systime_t\000"
 4006      696D655F 
 4006      7400
 4007              	.LASF88:
 4008 05fd 62756666 		.ascii	"buffer\000"
 4008      657200
 4009              	.LASF72:
 4010 0604 63685F70 		.ascii	"ch_priority_queue_t\000"
 4010      72696F72 
 4010      6974795F 
 4010      71756575 
 4010      655F7400 
 4011              	.LASF62:
 4012 0618 70616E69 		.ascii	"panic_msg\000"
 4012      635F6D73 
 4012      6700
 4013              	.LASF102:
 4014 0622 70717565 		.ascii	"pqueue\000"
 4014      756500
 4015              	.LASF48:
 4016 0629 63685F6F 		.ascii	"ch_os_instance\000"
 4016      735F696E 
 4016      7374616E 
 4016      636500
 4017              	.LASF46:
 4018 0638 6F735F69 		.ascii	"os_instance_t\000"
 4018      6E737461 
 4018      6E63655F 
 4018      7400
 4019              	.LASF51:
 4020 0646 7265676C 		.ascii	"reglist\000"
 4020      69737400 
 4021              	.LASF73:
 4022 064e 63685F70 		.ascii	"ch_priority_queue\000"
 4022      72696F72 
 4022      6974795F 
 4022      71756575 
 4022      6500
 4023              	.LASF75:
 4024 0660 63685F64 		.ascii	"ch_delta_list_t\000"
 4024      656C7461 
 4024      5F6C6973 
 4024      745F7400 
 4025              	.LASF117:
 4026 0670 6D61696E 		.ascii	"mainthread_end\000"
 4026      74687265 
 4026      61645F65 
 4026      6E6400
 4027              	.LASF45:
 4028 067f 6D706F6F 		.ascii	"mpool\000"
 4028      6C00
 4029              	.LASF120:
 4030 0685 6F735F69 		.ascii	"os_instance_config_t\000"
ARM GAS  C:\Users\DEVELO~1\AppData\Local\Temp\ccPWz6Q2.s 			page 77


 4030      6E737461 
 4030      6E63655F 
 4030      636F6E66 
 4030      69675F74 
 4031              	.LASF49:
 4032 069a 726C6973 		.ascii	"rlist\000"
 4032      7400
 4033              	.LASF17:
 4034 06a0 75696E74 		.ascii	"uint8_t\000"
 4034      385F7400 
 4035              	.LASF38:
 4036 06a8 666C6167 		.ascii	"flags\000"
 4036      7300
 4037              	.LASF111:
 4038 06ae 63685F6D 		.ascii	"ch_mutex\000"
 4038      75746578 
 4038      00
 4039              	.LASF131:
 4040 06b7 63685468 		.ascii	"chThdResumeI\000"
 4040      64526573 
 4040      756D6549 
 4040      00
 4041              	.LASF56:
 4042 06c4 74726163 		.ascii	"trace_buffer\000"
 4042      655F6275 
 4042      66666572 
 4042      00
 4043              	.LASF149:
 4044 06d1 63685379 		.ascii	"chSysUnlock\000"
 4044      73556E6C 
 4044      6F636B00 
 4045              	.LASF101:
 4046 06dd 6C697374 		.ascii	"list\000"
 4046      00
 4047              	.LASF152:
 4048 06e2 706F7274 		.ascii	"port_lock\000"
 4048      5F6C6F63 
 4048      6B00
 4049              	.LASF119:
 4050 06ec 69646C65 		.ascii	"idlethread_end\000"
 4050      74687265 
 4050      61645F65 
 4050      6E6400
 4051              	.LASF43:
 4052 06fb 6D74786C 		.ascii	"mtxlist\000"
 4052      69737400 
 4053              	.LASF155:
 4054 0703 433A5C50 		.ascii	"C:\\PROJET\\ChibiOS project\\ChibiOS_21.11.4\\demos"
 4054      524F4A45 
 4054      545C4368 
 4054      6962694F 
 4054      53207072 
 4055 0732 5C53544D 		.ascii	"\\STM32\\RT-STM32H743ZI_REV_XY-NUCLEO144_Quartz8M\000"
 4055      33325C52 
 4055      542D5354 
 4055      4D333248 
 4055      3734335A 
ARM GAS  C:\Users\DEVELO~1\AppData\Local\Temp\ccPWz6Q2.s 			page 78


 4056              		.ident	"GCC: (Arm GNU Toolchain 11.3.Rel1) 11.3.1 20220712"
ARM GAS  C:\Users\DEVELO~1\AppData\Local\Temp\ccPWz6Q2.s 			page 79


DEFINED SYMBOLS
                            *ABS*:00000000 chpipes.c
C:\Users\DEVELO~1\AppData\Local\Temp\ccPWz6Q2.s:18     .text.chSysLock:00000000 $t
C:\Users\DEVELO~1\AppData\Local\Temp\ccPWz6Q2.s:23     .text.chSysLock:00000000 chSysLock
C:\Users\DEVELO~1\AppData\Local\Temp\ccPWz6Q2.s:77     .text.chSysUnlock:00000000 $t
C:\Users\DEVELO~1\AppData\Local\Temp\ccPWz6Q2.s:82     .text.chSysUnlock:00000000 chSysUnlock
C:\Users\DEVELO~1\AppData\Local\Temp\ccPWz6Q2.s:133    .text.chPipeGetSize:00000000 $t
C:\Users\DEVELO~1\AppData\Local\Temp\ccPWz6Q2.s:138    .text.chPipeGetSize:00000000 chPipeGetSize
C:\Users\DEVELO~1\AppData\Local\Temp\ccPWz6Q2.s:177    .text.chPipeGetUsedCount:00000000 $t
C:\Users\DEVELO~1\AppData\Local\Temp\ccPWz6Q2.s:182    .text.chPipeGetUsedCount:00000000 chPipeGetUsedCount
C:\Users\DEVELO~1\AppData\Local\Temp\ccPWz6Q2.s:215    .text.chPipeGetFreeCount:00000000 $t
C:\Users\DEVELO~1\AppData\Local\Temp\ccPWz6Q2.s:220    .text.chPipeGetFreeCount:00000000 chPipeGetFreeCount
C:\Users\DEVELO~1\AppData\Local\Temp\ccPWz6Q2.s:258    .text.pipe_write:00000000 $t
C:\Users\DEVELO~1\AppData\Local\Temp\ccPWz6Q2.s:263    .text.pipe_write:00000000 pipe_write
C:\Users\DEVELO~1\AppData\Local\Temp\ccPWz6Q2.s:414    .text.pipe_read:00000000 $t
C:\Users\DEVELO~1\AppData\Local\Temp\ccPWz6Q2.s:419    .text.pipe_read:00000000 pipe_read
C:\Users\DEVELO~1\AppData\Local\Temp\ccPWz6Q2.s:569    .text.chPipeObjectInit:00000000 $t
C:\Users\DEVELO~1\AppData\Local\Temp\ccPWz6Q2.s:575    .text.chPipeObjectInit:00000000 chPipeObjectInit
C:\Users\DEVELO~1\AppData\Local\Temp\ccPWz6Q2.s:654    .text.chPipeReset:00000000 $t
C:\Users\DEVELO~1\AppData\Local\Temp\ccPWz6Q2.s:660    .text.chPipeReset:00000000 chPipeReset
C:\Users\DEVELO~1\AppData\Local\Temp\ccPWz6Q2.s:735    .text.chPipeWriteTimeout:00000000 $t
C:\Users\DEVELO~1\AppData\Local\Temp\ccPWz6Q2.s:741    .text.chPipeWriteTimeout:00000000 chPipeWriteTimeout
C:\Users\DEVELO~1\AppData\Local\Temp\ccPWz6Q2.s:856    .text.chPipeReadTimeout:00000000 $t
C:\Users\DEVELO~1\AppData\Local\Temp\ccPWz6Q2.s:862    .text.chPipeReadTimeout:00000000 chPipeReadTimeout

UNDEFINED SYMBOLS
chMtxLock
memcpy
chMtxUnlock
chMtxObjectInit
chThdResumeI
chSchRescheduleS
chThdSuspendTimeoutS
chThdResume
