ARM GAS  C:\Users\DEVELO~1\AppData\Local\Temp\cc1u2N0m.s 			page 1


   1              		.cpu cortex-m7
   2              		.arch armv7e-m
   3              		.fpu softvfp
   4              		.eabi_attribute 20, 1
   5              		.eabi_attribute 21, 1
   6              		.eabi_attribute 23, 3
   7              		.eabi_attribute 24, 1
   8              		.eabi_attribute 25, 1
   9              		.eabi_attribute 26, 1
  10              		.eabi_attribute 30, 6
  11              		.eabi_attribute 34, 1
  12              		.eabi_attribute 18, 4
  13              		.file	"chregistry.c"
  14              		.text
  15              	.Ltext0:
  16              		.cfi_sections	.debug_frame
  17              		.section	.text.chSysLock,"ax",%progbits
  18              		.align	1
  19              		.syntax unified
  20              		.thumb
  21              		.thumb_func
  22              		.type	chSysLock, %function
  23              	chSysLock:
  24              	.LFB202:
  25              		.file 1 "../../../os/rt/include/chsys.h"
  26              		.loc 1 407 36
  27              		.cfi_startproc
  28              		@ args = 0, pretend = 0, frame = 8
  29              		@ frame_needed = 1, uses_anonymous_args = 0
  30              		@ link register save eliminated.
  31 0000 80B4     		push	{r7}
  32              		.cfi_def_cfa_offset 4
  33              		.cfi_offset 7, -4
  34 0002 83B0     		sub	sp, sp, #12
  35              		.cfi_def_cfa_offset 16
  36 0004 00AF     		add	r7, sp, #0
  37              		.cfi_def_cfa_register 7
  38 0006 3023     		movs	r3, #48
  39 0008 7B60     		str	r3, [r7, #4]
  40              	.LBB14:
  41              	.LBB15:
  42              	.LBB16:
  43              	.LBB17:
  44              		.file 2 "../../../os/common/ext/ARM/CMSIS/Core/Include/cmsis_gcc.h"
  45              		.loc 2 493 3
  46 000a 7B68     		ldr	r3, [r7, #4]
  47              		.syntax unified
  48              	@ 493 "../../../os/common/ext/ARM/CMSIS/Core/Include/cmsis_gcc.h" 1
  49 000c 83F31188 		MSR basepri, r3
  50              	@ 0 "" 2
  51              		.loc 2 494 1
  52              		.thumb
  53              		.syntax unified
  54 0010 00BF     		nop
  55              	.LBE17:
  56              	.LBE16:
  57              		.file 3 "../../../os/common/ports/ARMv7-M/chcore.h"
ARM GAS  C:\Users\DEVELO~1\AppData\Local\Temp\cc1u2N0m.s 			page 2


  58              		.loc 3 840 1
  59 0012 00BF     		nop
  60              	.LBE15:
  61              	.LBE14:
  62              		.loc 1 412 1
  63 0014 00BF     		nop
  64 0016 0C37     		adds	r7, r7, #12
  65              		.cfi_def_cfa_offset 4
  66 0018 BD46     		mov	sp, r7
  67              		.cfi_def_cfa_register 13
  68              		@ sp needed
  69 001a 80BC     		pop	{r7}
  70              		.cfi_restore 7
  71              		.cfi_def_cfa_offset 0
  72 001c 7047     		bx	lr
  73              		.cfi_endproc
  74              	.LFE202:
  75              		.size	chSysLock, .-chSysLock
  76              		.section	.text.chSysUnlock,"ax",%progbits
  77              		.align	1
  78              		.syntax unified
  79              		.thumb
  80              		.thumb_func
  81              		.type	chSysUnlock, %function
  82              	chSysUnlock:
  83              	.LFB203:
  84              		.loc 1 421 38
  85              		.cfi_startproc
  86              		@ args = 0, pretend = 0, frame = 8
  87              		@ frame_needed = 1, uses_anonymous_args = 0
  88              		@ link register save eliminated.
  89 0000 80B4     		push	{r7}
  90              		.cfi_def_cfa_offset 4
  91              		.cfi_offset 7, -4
  92 0002 83B0     		sub	sp, sp, #12
  93              		.cfi_def_cfa_offset 16
  94 0004 00AF     		add	r7, sp, #0
  95              		.cfi_def_cfa_register 7
  96 0006 0023     		movs	r3, #0
  97 0008 7B60     		str	r3, [r7, #4]
  98              	.LBB18:
  99              	.LBB19:
 100              	.LBB20:
 101              	.LBB21:
 102              		.loc 2 493 3
 103 000a 7B68     		ldr	r3, [r7, #4]
 104              		.syntax unified
 105              	@ 493 "../../../os/common/ext/ARM/CMSIS/Core/Include/cmsis_gcc.h" 1
 106 000c 83F31188 		MSR basepri, r3
 107              	@ 0 "" 2
 108              		.loc 2 494 1
 109              		.thumb
 110              		.syntax unified
 111 0010 00BF     		nop
 112              	.LBE21:
 113              	.LBE20:
 114              		.loc 3 854 1
ARM GAS  C:\Users\DEVELO~1\AppData\Local\Temp\cc1u2N0m.s 			page 3


 115 0012 00BF     		nop
 116              	.LBE19:
 117              	.LBE18:
 118              		.loc 1 435 1
 119 0014 00BF     		nop
 120 0016 0C37     		adds	r7, r7, #12
 121              		.cfi_def_cfa_offset 4
 122 0018 BD46     		mov	sp, r7
 123              		.cfi_def_cfa_register 13
 124              		@ sp needed
 125 001a 80BC     		pop	{r7}
 126              		.cfi_restore 7
 127              		.cfi_def_cfa_offset 0
 128 001c 7047     		bx	lr
 129              		.cfi_endproc
 130              	.LFE203:
 131              		.size	chSysUnlock, .-chSysUnlock
 132              		.section	.text.chThdGetWorkingAreaX,"ax",%progbits
 133              		.align	1
 134              		.syntax unified
 135              		.thumb
 136              		.thumb_func
 137              		.type	chThdGetWorkingAreaX, %function
 138              	chThdGetWorkingAreaX:
 139              	.LFB231:
 140              		.file 4 "../../../os/rt/include/chthreads.h"
 141              		.loc 4 386 62
 142              		.cfi_startproc
 143              		@ args = 0, pretend = 0, frame = 8
 144              		@ frame_needed = 1, uses_anonymous_args = 0
 145              		@ link register save eliminated.
 146 0000 80B4     		push	{r7}
 147              		.cfi_def_cfa_offset 4
 148              		.cfi_offset 7, -4
 149 0002 83B0     		sub	sp, sp, #12
 150              		.cfi_def_cfa_offset 16
 151 0004 00AF     		add	r7, sp, #0
 152              		.cfi_def_cfa_register 7
 153 0006 7860     		str	r0, [r7, #4]
 154              		.loc 4 388 12
 155 0008 7B68     		ldr	r3, [r7, #4]
 156 000a 1B6A     		ldr	r3, [r3, #32]
 157              		.loc 4 389 1
 158 000c 1846     		mov	r0, r3
 159 000e 0C37     		adds	r7, r7, #12
 160              		.cfi_def_cfa_offset 4
 161 0010 BD46     		mov	sp, r7
 162              		.cfi_def_cfa_register 13
 163              		@ sp needed
 164 0012 80BC     		pop	{r7}
 165              		.cfi_restore 7
 166              		.cfi_def_cfa_offset 0
 167 0014 7047     		bx	lr
 168              		.cfi_endproc
 169              	.LFE231:
 170              		.size	chThdGetWorkingAreaX, .-chThdGetWorkingAreaX
 171              		.section	.text.chRegGetThreadNameX,"ax",%progbits
ARM GAS  C:\Users\DEVELO~1\AppData\Local\Temp\cc1u2N0m.s 			page 4


 172              		.align	1
 173              		.syntax unified
 174              		.thumb
 175              		.thumb_func
 176              		.type	chRegGetThreadNameX, %function
 177              	chRegGetThreadNameX:
 178              	.LFB241:
 179              		.file 5 "../../../os/rt/include/chregistry.h"
 180              		.loc 5 185 61
 181              		.cfi_startproc
 182              		@ args = 0, pretend = 0, frame = 8
 183              		@ frame_needed = 1, uses_anonymous_args = 0
 184              		@ link register save eliminated.
 185 0000 80B4     		push	{r7}
 186              		.cfi_def_cfa_offset 4
 187              		.cfi_offset 7, -4
 188 0002 83B0     		sub	sp, sp, #12
 189              		.cfi_def_cfa_offset 16
 190 0004 00AF     		add	r7, sp, #0
 191              		.cfi_def_cfa_register 7
 192 0006 7860     		str	r0, [r7, #4]
 193              		.loc 5 188 12
 194 0008 7B68     		ldr	r3, [r7, #4]
 195 000a DB69     		ldr	r3, [r3, #28]
 196              		.loc 5 193 1
 197 000c 1846     		mov	r0, r3
 198 000e 0C37     		adds	r7, r7, #12
 199              		.cfi_def_cfa_offset 4
 200 0010 BD46     		mov	sp, r7
 201              		.cfi_def_cfa_register 13
 202              		@ sp needed
 203 0012 80BC     		pop	{r7}
 204              		.cfi_restore 7
 205              		.cfi_def_cfa_offset 0
 206 0014 7047     		bx	lr
 207              		.cfi_endproc
 208              	.LFE241:
 209              		.size	chRegGetThreadNameX, .-chRegGetThreadNameX
 210              		.global	ch_debug
 211              		.section	.rodata.ch_debug,"a"
 212              		.align	2
 213              		.type	ch_debug, %object
 214              		.size	ch_debug, 44
 215              	ch_debug:
 216 0000 6D61696E 		.ascii	"main"
 217 0004 00       		.byte	0
 218 0005 2C       		.byte	44
 219 0006 0538     		.short	14341
 220 0008 04       		.byte	4
 221 0009 04       		.byte	4
 222 000a 48       		.byte	72
 223 000b 08       		.byte	8
 224 000c 0C       		.byte	12
 225 000d 10       		.byte	16
 226 000e 14       		.byte	20
 227 000f 1C       		.byte	28
 228 0010 20       		.byte	32
ARM GAS  C:\Users\DEVELO~1\AppData\Local\Temp\cc1u2N0m.s 			page 5


 229 0011 24       		.byte	36
 230 0012 25       		.byte	37
 231 0013 26       		.byte	38
 232 0014 00       		.byte	0
 233 0015 00       		.byte	0
 234 0016 00000000 		.ascii	"\000\000\000\000"
 235 001a 24       		.byte	36
 236 001b 04       		.byte	4
 237 001c 01       		.byte	1
 238 001d 00       		.byte	0
 239 001e 04       		.byte	4
 240 001f 00       		.byte	0
 241 0020 00       		.byte	0
 242 0021 00000000 		.ascii	"\000\000\000\000"
 243 0025 0C       		.byte	12
 244 0026 00       		.byte	0
 245 0027 10       		.byte	16
 246 0028 28       		.byte	40
 247 0029 30       		.byte	48
 248 002a 34       		.byte	52
 249 002b 00       		.space	1
 250              		.section	.text.chRegFirstThread,"ax",%progbits
 251              		.align	1
 252              		.global	chRegFirstThread
 253              		.syntax unified
 254              		.thumb
 255              		.thumb_func
 256              		.type	chRegFirstThread, %function
 257              	chRegFirstThread:
 258              	.LFB346:
 259              		.file 6 "../../../os/rt/src/chregistry.c"
 260              		.loc 6 159 34
 261              		.cfi_startproc
 262              		@ args = 0, pretend = 0, frame = 8
 263              		@ frame_needed = 1, uses_anonymous_args = 0
 264 0000 80B5     		push	{r7, lr}
 265              		.cfi_def_cfa_offset 8
 266              		.cfi_offset 7, -8
 267              		.cfi_offset 14, -4
 268 0002 82B0     		sub	sp, sp, #8
 269              		.cfi_def_cfa_offset 16
 270 0004 00AF     		add	r7, sp, #0
 271              		.cfi_def_cfa_register 7
 272              		.loc 6 163 3
 273 0006 FFF7FEFF 		bl	chSysLock
 274              		.loc 6 164 5
 275 000a 0A4B     		ldr	r3, .L9
 276 000c 9B6A     		ldr	r3, [r3, #40]
 277 000e 7B60     		str	r3, [r7, #4]
 278              		.loc 6 166 6
 279 0010 7B68     		ldr	r3, [r7, #4]
 280 0012 103B     		subs	r3, r3, #16
 281 0014 3B60     		str	r3, [r7]
 282              		.loc 6 169 5
 283 0016 3B68     		ldr	r3, [r7]
 284 0018 93F82630 		ldrb	r3, [r3, #38]	@ zero_extendqisi2
 285              		.loc 6 169 11
ARM GAS  C:\Users\DEVELO~1\AppData\Local\Temp\cc1u2N0m.s 			page 6


 286 001c 0133     		adds	r3, r3, #1
 287 001e DAB2     		uxtb	r2, r3
 288 0020 3B68     		ldr	r3, [r7]
 289 0022 83F82620 		strb	r2, [r3, #38]
 290              		.loc 6 171 3
 291 0026 FFF7FEFF 		bl	chSysUnlock
 292              		.loc 6 173 10
 293 002a 3B68     		ldr	r3, [r7]
 294              		.loc 6 174 1
 295 002c 1846     		mov	r0, r3
 296 002e 0837     		adds	r7, r7, #8
 297              		.cfi_def_cfa_offset 8
 298 0030 BD46     		mov	sp, r7
 299              		.cfi_def_cfa_register 13
 300              		@ sp needed
 301 0032 80BD     		pop	{r7, pc}
 302              	.L10:
 303              		.align	2
 304              	.L9:
 305 0034 00000000 		.word	ch0
 306              		.cfi_endproc
 307              	.LFE346:
 308              		.size	chRegFirstThread, .-chRegFirstThread
 309              		.section	.text.chRegNextThread,"ax",%progbits
 310              		.align	1
 311              		.global	chRegNextThread
 312              		.syntax unified
 313              		.thumb
 314              		.thumb_func
 315              		.type	chRegNextThread, %function
 316              	chRegNextThread:
 317              	.LFB347:
 318              		.loc 6 187 41
 319              		.cfi_startproc
 320              		@ args = 0, pretend = 0, frame = 24
 321              		@ frame_needed = 1, uses_anonymous_args = 0
 322 0000 80B5     		push	{r7, lr}
 323              		.cfi_def_cfa_offset 8
 324              		.cfi_offset 7, -8
 325              		.cfi_offset 14, -4
 326 0002 86B0     		sub	sp, sp, #24
 327              		.cfi_def_cfa_offset 32
 328 0004 00AF     		add	r7, sp, #0
 329              		.cfi_def_cfa_register 7
 330 0006 7860     		str	r0, [r7, #4]
 331              		.loc 6 191 3
 332 0008 FFF7FEFF 		bl	chSysLock
 333              		.loc 6 194 7
 334 000c 7B68     		ldr	r3, [r7, #4]
 335 000e 1B69     		ldr	r3, [r3, #16]
 336 0010 3B61     		str	r3, [r7, #16]
 337              		.loc 6 195 6
 338 0012 3B69     		ldr	r3, [r7, #16]
 339 0014 0E4A     		ldr	r2, .L15
 340 0016 9342     		cmp	r3, r2
 341 0018 02D1     		bne	.L12
 342              		.loc 6 196 9
ARM GAS  C:\Users\DEVELO~1\AppData\Local\Temp\cc1u2N0m.s 			page 7


 343 001a 0023     		movs	r3, #0
 344 001c 7B61     		str	r3, [r7, #20]
 345 001e 0CE0     		b	.L13
 346              	.L12:
 347              	.LBB22:
 348              		.loc 6 199 14
 349 0020 3B69     		ldr	r3, [r7, #16]
 350 0022 FB60     		str	r3, [r7, #12]
 351              		.loc 6 201 9
 352 0024 FB68     		ldr	r3, [r7, #12]
 353 0026 103B     		subs	r3, r3, #16
 354 0028 7B61     		str	r3, [r7, #20]
 355              		.loc 6 207 8
 356 002a 7B69     		ldr	r3, [r7, #20]
 357 002c 93F82630 		ldrb	r3, [r3, #38]	@ zero_extendqisi2
 358              		.loc 6 207 14
 359 0030 0133     		adds	r3, r3, #1
 360 0032 DAB2     		uxtb	r2, r3
 361 0034 7B69     		ldr	r3, [r7, #20]
 362 0036 83F82620 		strb	r2, [r3, #38]
 363              	.L13:
 364              	.LBE22:
 365              		.loc 6 210 3
 366 003a FFF7FEFF 		bl	chSysUnlock
 367              		.loc 6 212 3
 368 003e 7868     		ldr	r0, [r7, #4]
 369 0040 FFF7FEFF 		bl	chThdRelease
 370              		.loc 6 215 10
 371 0044 7B69     		ldr	r3, [r7, #20]
 372              		.loc 6 216 1
 373 0046 1846     		mov	r0, r3
 374 0048 1837     		adds	r7, r7, #24
 375              		.cfi_def_cfa_offset 8
 376 004a BD46     		mov	sp, r7
 377              		.cfi_def_cfa_register 13
 378              		@ sp needed
 379 004c 80BD     		pop	{r7, pc}
 380              	.L16:
 381 004e 00BF     		.align	2
 382              	.L15:
 383 0050 28000000 		.word	ch0+40
 384              		.cfi_endproc
 385              	.LFE347:
 386              		.size	chRegNextThread, .-chRegNextThread
 387              		.section	.text.chRegFindThreadByName,"ax",%progbits
 388              		.align	1
 389              		.global	chRegFindThreadByName
 390              		.syntax unified
 391              		.thumb
 392              		.thumb_func
 393              		.type	chRegFindThreadByName, %function
 394              	chRegFindThreadByName:
 395              	.LFB348:
 396              		.loc 6 230 51
 397              		.cfi_startproc
 398              		@ args = 0, pretend = 0, frame = 16
 399              		@ frame_needed = 1, uses_anonymous_args = 0
ARM GAS  C:\Users\DEVELO~1\AppData\Local\Temp\cc1u2N0m.s 			page 8


 400 0000 80B5     		push	{r7, lr}
 401              		.cfi_def_cfa_offset 8
 402              		.cfi_offset 7, -8
 403              		.cfi_offset 14, -4
 404 0002 84B0     		sub	sp, sp, #16
 405              		.cfi_def_cfa_offset 24
 406 0004 00AF     		add	r7, sp, #0
 407              		.cfi_def_cfa_register 7
 408 0006 7860     		str	r0, [r7, #4]
 409              		.loc 6 234 9
 410 0008 FFF7FEFF 		bl	chRegFirstThread
 411 000c F860     		str	r0, [r7, #12]
 412              	.L20:
 413              		.loc 6 236 9
 414 000e F868     		ldr	r0, [r7, #12]
 415 0010 FFF7FEFF 		bl	chRegGetThreadNameX
 416 0014 0346     		mov	r3, r0
 417 0016 7968     		ldr	r1, [r7, #4]
 418 0018 1846     		mov	r0, r3
 419 001a FFF7FEFF 		bl	strcmp
 420 001e 0346     		mov	r3, r0
 421              		.loc 6 236 8
 422 0020 002B     		cmp	r3, #0
 423 0022 01D1     		bne	.L18
 424              		.loc 6 237 14
 425 0024 FB68     		ldr	r3, [r7, #12]
 426 0026 07E0     		b	.L19
 427              	.L18:
 428              		.loc 6 239 11
 429 0028 F868     		ldr	r0, [r7, #12]
 430 002a FFF7FEFF 		bl	chRegNextThread
 431 002e F860     		str	r0, [r7, #12]
 432              		.loc 6 240 16
 433 0030 FB68     		ldr	r3, [r7, #12]
 434 0032 002B     		cmp	r3, #0
 435 0034 EBD1     		bne	.L20
 436              		.loc 6 242 10
 437 0036 0023     		movs	r3, #0
 438              	.L19:
 439              		.loc 6 243 1
 440 0038 1846     		mov	r0, r3
 441 003a 1037     		adds	r7, r7, #16
 442              		.cfi_def_cfa_offset 8
 443 003c BD46     		mov	sp, r7
 444              		.cfi_def_cfa_register 13
 445              		@ sp needed
 446 003e 80BD     		pop	{r7, pc}
 447              		.cfi_endproc
 448              	.LFE348:
 449              		.size	chRegFindThreadByName, .-chRegFindThreadByName
 450              		.section	.text.chRegFindThreadByPointer,"ax",%progbits
 451              		.align	1
 452              		.global	chRegFindThreadByPointer
 453              		.syntax unified
 454              		.thumb
 455              		.thumb_func
 456              		.type	chRegFindThreadByPointer, %function
ARM GAS  C:\Users\DEVELO~1\AppData\Local\Temp\cc1u2N0m.s 			page 9


 457              	chRegFindThreadByPointer:
 458              	.LFB349:
 459              		.loc 6 257 50
 460              		.cfi_startproc
 461              		@ args = 0, pretend = 0, frame = 16
 462              		@ frame_needed = 1, uses_anonymous_args = 0
 463 0000 80B5     		push	{r7, lr}
 464              		.cfi_def_cfa_offset 8
 465              		.cfi_offset 7, -8
 466              		.cfi_offset 14, -4
 467 0002 84B0     		sub	sp, sp, #16
 468              		.cfi_def_cfa_offset 24
 469 0004 00AF     		add	r7, sp, #0
 470              		.cfi_def_cfa_register 7
 471 0006 7860     		str	r0, [r7, #4]
 472              		.loc 6 261 9
 473 0008 FFF7FEFF 		bl	chRegFirstThread
 474 000c F860     		str	r0, [r7, #12]
 475              	.L24:
 476              		.loc 6 263 8
 477 000e FA68     		ldr	r2, [r7, #12]
 478 0010 7B68     		ldr	r3, [r7, #4]
 479 0012 9A42     		cmp	r2, r3
 480 0014 01D1     		bne	.L22
 481              		.loc 6 264 14
 482 0016 FB68     		ldr	r3, [r7, #12]
 483 0018 07E0     		b	.L23
 484              	.L22:
 485              		.loc 6 266 11
 486 001a F868     		ldr	r0, [r7, #12]
 487 001c FFF7FEFF 		bl	chRegNextThread
 488 0020 F860     		str	r0, [r7, #12]
 489              		.loc 6 267 16
 490 0022 FB68     		ldr	r3, [r7, #12]
 491 0024 002B     		cmp	r3, #0
 492 0026 F2D1     		bne	.L24
 493              		.loc 6 269 10
 494 0028 0023     		movs	r3, #0
 495              	.L23:
 496              		.loc 6 270 1
 497 002a 1846     		mov	r0, r3
 498 002c 1037     		adds	r7, r7, #16
 499              		.cfi_def_cfa_offset 8
 500 002e BD46     		mov	sp, r7
 501              		.cfi_def_cfa_register 13
 502              		@ sp needed
 503 0030 80BD     		pop	{r7, pc}
 504              		.cfi_endproc
 505              	.LFE349:
 506              		.size	chRegFindThreadByPointer, .-chRegFindThreadByPointer
 507              		.section	.text.chRegFindThreadByWorkingArea,"ax",%progbits
 508              		.align	1
 509              		.global	chRegFindThreadByWorkingArea
 510              		.syntax unified
 511              		.thumb
 512              		.thumb_func
 513              		.type	chRegFindThreadByWorkingArea, %function
ARM GAS  C:\Users\DEVELO~1\AppData\Local\Temp\cc1u2N0m.s 			page 10


 514              	chRegFindThreadByWorkingArea:
 515              	.LFB350:
 516              		.loc 6 286 56
 517              		.cfi_startproc
 518              		@ args = 0, pretend = 0, frame = 16
 519              		@ frame_needed = 1, uses_anonymous_args = 0
 520 0000 80B5     		push	{r7, lr}
 521              		.cfi_def_cfa_offset 8
 522              		.cfi_offset 7, -8
 523              		.cfi_offset 14, -4
 524 0002 84B0     		sub	sp, sp, #16
 525              		.cfi_def_cfa_offset 24
 526 0004 00AF     		add	r7, sp, #0
 527              		.cfi_def_cfa_register 7
 528 0006 7860     		str	r0, [r7, #4]
 529              		.loc 6 290 9
 530 0008 FFF7FEFF 		bl	chRegFirstThread
 531 000c F860     		str	r0, [r7, #12]
 532              	.L28:
 533              		.loc 6 292 9
 534 000e F868     		ldr	r0, [r7, #12]
 535 0010 FFF7FEFF 		bl	chThdGetWorkingAreaX
 536 0014 0246     		mov	r2, r0
 537              		.loc 6 292 8
 538 0016 7B68     		ldr	r3, [r7, #4]
 539 0018 9342     		cmp	r3, r2
 540 001a 01D1     		bne	.L26
 541              		.loc 6 293 14
 542 001c FB68     		ldr	r3, [r7, #12]
 543 001e 07E0     		b	.L27
 544              	.L26:
 545              		.loc 6 295 11
 546 0020 F868     		ldr	r0, [r7, #12]
 547 0022 FFF7FEFF 		bl	chRegNextThread
 548 0026 F860     		str	r0, [r7, #12]
 549              		.loc 6 296 16
 550 0028 FB68     		ldr	r3, [r7, #12]
 551 002a 002B     		cmp	r3, #0
 552 002c EFD1     		bne	.L28
 553              		.loc 6 298 10
 554 002e 0023     		movs	r3, #0
 555              	.L27:
 556              		.loc 6 299 1
 557 0030 1846     		mov	r0, r3
 558 0032 1037     		adds	r7, r7, #16
 559              		.cfi_def_cfa_offset 8
 560 0034 BD46     		mov	sp, r7
 561              		.cfi_def_cfa_register 13
 562              		@ sp needed
 563 0036 80BD     		pop	{r7, pc}
 564              		.cfi_endproc
 565              	.LFE350:
 566              		.size	chRegFindThreadByWorkingArea, .-chRegFindThreadByWorkingArea
 567              		.text
 568              	.Letext0:
 569              		.file 7 "c:\\chibistudio\\tools\\gnu tools arm embedded\\11.3 2022.08\\lib\\gcc\\arm-none-eabi\\11
 570              		.file 8 "c:\\chibistudio\\tools\\gnu tools arm embedded\\11.3 2022.08\\arm-none-eabi\\include\\mac
ARM GAS  C:\Users\DEVELO~1\AppData\Local\Temp\cc1u2N0m.s 			page 11


 571              		.file 9 "c:\\chibistudio\\tools\\gnu tools arm embedded\\11.3 2022.08\\arm-none-eabi\\include\\sys
 572              		.file 10 "../../../os/common/ports/ARM-common/chtypes.h"
 573              		.file 11 "../../../os/rt/include/chearly.h"
 574              		.file 12 "../../../os/rt/include/chobjects.h"
 575              		.file 13 "../../../os/rt/include/chrfcu.h"
 576              		.file 14 "../../../os/rt/include/chdebug.h"
 577              		.file 15 "../../../os/rt/include/chtime.h"
 578              		.file 16 "../../../os/rt/include/chlists.h"
 579              		.file 17 "../../../os/rt/include/chtrace.h"
 580              		.file 18 "../../../os/rt/include/chtm.h"
 581              		.file 19 "../../../os/rt/include/chsem.h"
 582              		.file 20 "../../../os/rt/include/chmtx.h"
 583              		.file 21 "c:\\chibistudio\\tools\\gnu tools arm embedded\\11.3 2022.08\\arm-none-eabi\\include\\st