ARM GAS  C:\Users\DEVELO~1\AppData\Local\Temp\cc1u2N0m.s 			page 1


   1              		.cpu cortex-m7
   2              		.arch armv7e-m
   3              		.fpu softvfp
   4              		.eabi_attribute 20, 1
   5              		.eabi_attribute 21, 1
   6              		.eabi_attribute 23, 3
   7              		.eabi_attribute 24, 1
   8              		.eabi_attribute 25, 1
   9              		.eabi_attribute 26, 1
  10              		.eabi_attribute 30, 6
  11              		.eabi_attribute 34, 1
  12              		.eabi_attribute 18, 4
  13              		.file	"chregistry.c"
  14              		.text
  15              	.Ltext0:
  16              		.cfi_sections	.debug_frame
  17              		.section	.text.chSysLock,"ax",%progbits
  18              		.align	1
  19              		.syntax unified
  20              		.thumb
  21              		.thumb_func
  22              		.type	chSysLock, %function
  23              	chSysLock:
  24              	.LFB202:
  25              		.file 1 "../../../os/rt/include/chsys.h"
  26              		.loc 1 407 36
  27              		.cfi_startproc
  28              		@ args = 0, pretend = 0, frame = 8
  29              		@ frame_needed = 1, uses_anonymous_args = 0
  30              		@ link register save eliminated.
  31 0000 80B4     		push	{r7}
  32              		.cfi_def_cfa_offset 4
  33              		.cfi_offset 7, -4
  34 0002 83B0     		sub	sp, sp, #12
  35              		.cfi_def_cfa_offset 16
  36 0004 00AF     		add	r7, sp, #0
  37              		.cfi_def_cfa_register 7
  38 0006 3023     		movs	r3, #48
  39 0008 7B60     		str	r3, [r7, #4]
  40              	.LBB14:
  41              	.LBB15:
  42              	.LBB16:
  43              	.LBB17:
  44              		.file 2 "../../../os/common/ext/ARM/CMSIS/Core/Include/cmsis_gcc.h"
  45              		.loc 2 493 3
  46 000a 7B68     		ldr	r3, [r7, #4]
  47              		.syntax unified
  48              	@ 493 "../../../os/common/ext/ARM/CMSIS/Core/Include/cmsis_gcc.h" 1
  49 000c 83F31188 		MSR basepri, r3
  50              	@ 0 "" 2
  51              		.loc 2 494 1
  52              		.thumb
  53              		.syntax unified
  54 0010 00BF     		nop
  55              	.LBE17:
  56              	.LBE16:
  57              		.file 3 "../../../os/common/ports/ARMv7-M/chcore.h"
ARM GAS  C:\Users\DEVELO~1\AppData\Local\Temp\cc1u2N0m.s 			page 2


  58              		.loc 3 840 1
  59 0012 00BF     		nop
  60              	.LBE15:
  61              	.LBE14:
  62              		.loc 1 412 1
  63 0014 00BF     		nop
  64 0016 0C37     		adds	r7, r7, #12
  65              		.cfi_def_cfa_offset 4
  66 0018 BD46     		mov	sp, r7
  67              		.cfi_def_cfa_register 13
  68              		@ sp needed
  69 001a 80BC     		pop	{r7}
  70              		.cfi_restore 7
  71              		.cfi_def_cfa_offset 0
  72 001c 7047     		bx	lr
  73              		.cfi_endproc
  74              	.LFE202:
  75              		.size	chSysLock, .-chSysLock
  76              		.section	.text.chSysUnlock,"ax",%progbits
  77              		.align	1
  78              		.syntax unified
  79              		.thumb
  80              		.thumb_func
  81              		.type	chSysUnlock, %function
  82              	chSysUnlock:
  83              	.LFB203:
  84              		.loc 1 421 38
  85              		.cfi_startproc
  86              		@ args = 0, pretend = 0, frame = 8
  87              		@ frame_needed = 1, uses_anonymous_args = 0
  88              		@ link register save eliminated.
  89 0000 80B4     		push	{r7}
  90              		.cfi_def_cfa_offset 4
  91              		.cfi_offset 7, -4
  92 0002 83B0     		sub	sp, sp, #12
  93              		.cfi_def_cfa_offset 16
  94 0004 00AF     		add	r7, sp, #0
  95              		.cfi_def_cfa_register 7
  96 0006 0023     		movs	r3, #0
  97 0008 7B60     		str	r3, [r7, #4]
  98              	.LBB18:
  99              	.LBB19:
 100              	.LBB20:
 101              	.LBB21:
 102              		.loc 2 493 3
 103 000a 7B68     		ldr	r3, [r7, #4]
 104              		.syntax unified
 105              	@ 493 "../../../os/common/ext/ARM/CMSIS/Core/Include/cmsis_gcc.h" 1
 106 000c 83F31188 		MSR basepri, r3
 107              	@ 0 "" 2
 108              		.loc 2 494 1
 109              		.thumb
 110              		.syntax unified
 111 0010 00BF     		nop
 112              	.LBE21:
 113              	.LBE20:
 114              		.loc 3 854 1
ARM GAS  C:\Users\DEVELO~1\AppData\Local\Temp\cc1u2N0m.s 			page 3


 115 0012 00BF     		nop
 116              	.LBE19:
 117              	.LBE18:
 118              		.loc 1 435 1
 119 0014 00BF     		nop
 120 0016 0C37     		adds	r7, r7, #12
 121              		.cfi_def_cfa_offset 4
 122 0018 BD46     		mov	sp, r7
 123              		.cfi_def_cfa_register 13
 124              		@ sp needed
 125 001a 80BC     		pop	{r7}
 126              		.cfi_restore 7
 127              		.cfi_def_cfa_offset 0
 128 001c 7047     		bx	lr
 129              		.cfi_endproc
 130              	.LFE203:
 131              		.size	chSysUnlock, .-chSysUnlock
 132              		.section	.text.chThdGetWorkingAreaX,"ax",%progbits
 133              		.align	1
 134              		.syntax unified
 135              		.thumb
 136              		.thumb_func
 137              		.type	chThdGetWorkingAreaX, %function
 138              	chThdGetWorkingAreaX:
 139              	.LFB231:
 140              		.file 4 "../../../os/rt/include/chthreads.h"
 141              		.loc 4 386 62
 142              		.cfi_startproc
 143              		@ args = 0, pretend = 0, frame = 8
 144              		@ frame_needed = 1, uses_anonymous_args = 0
 145              		@ link register save eliminated.
 146 0000 80B4     		push	{r7}
 147              		.cfi_def_cfa_offset 4
 148              		.cfi_offset 7, -4
 149 0002 83B0     		sub	sp, sp, #12
 150              		.cfi_def_cfa_offset 16
 151 0004 00AF     		add	r7, sp, #0
 152              		.cfi_def_cfa_register 7
 153 0006 7860     		str	r0, [r7, #4]
 154              		.loc 4 388 12
 155 0008 7B68     		ldr	r3, [r7, #4]
 156 000a 1B6A     		ldr	r3, [r3, #32]
 157              		.loc 4 389 1
 158 000c 1846     		mov	r0, r3
 159 000e 0C37     		adds	r7, r7, #12
 160              		.cfi_def_cfa_offset 4
 161 0010 BD46     		mov	sp, r7
 162              		.cfi_def_cfa_register 13
 163              		@ sp needed
 164 0012 80BC     		pop	{r7}
 165              		.cfi_restore 7
 166              		.cfi_def_cfa_offset 0
 167 0014 7047     		bx	lr
 168              		.cfi_endproc
 169              	.LFE231:
 170              		.size	chThdGetWorkingAreaX, .-chThdGetWorkingAreaX
 171              		.section	.text.chRegGetThreadNameX,"ax",%progbits
ARM GAS  C:\Users\DEVELO~1\AppData\Local\Temp\cc1u2N0m.s 			page 4


 172              		.align	1
 173              		.syntax unified
 174              		.thumb
 175              		.thumb_func
 176              		.type	chRegGetThreadNameX, %function
 177              	chRegGetThreadNameX:
 178              	.LFB241:
 179              		.file 5 "../../../os/rt/include/chregistry.h"
 180              		.loc 5 185 61
 181              		.cfi_startproc
 182              		@ args = 0, pretend = 0, frame = 8
 183              		@ frame_needed = 1, uses_anonymous_args = 0
 184              		@ link register save eliminated.
 185 0000 80B4     		push	{r7}
 186              		.cfi_def_cfa_offset 4
 187              		.cfi_offset 7, -4
 188 0002 83B0     		sub	sp, sp, #12
 189              		.cfi_def_cfa_offset 16
 190 0004 00AF     		add	r7, sp, #0
 191              		.cfi_def_cfa_register 7
 192 0006 7860     		str	r0, [r7, #4]
 193              		.loc 5 188 12
 194 0008 7B68     		ldr	r3, [r7, #4]
 195 000a DB69     		ldr	r3, [r3, #28]
 196              		.loc 5 193 1
 197 000c 1846     		mov	r0, r3
 198 000e 0C37     		adds	r7, r7, #12
 199              		.cfi_def_cfa_offset 4
 200 0010 BD46     		mov	sp, r7
 201              		.cfi_def_cfa_register 13
 202              		@ sp needed
 203 0012 80BC     		pop	{r7}
 204              		.cfi_restore 7
 205              		.cfi_def_cfa_offset 0
 206 0014 7047     		bx	lr
 207              		.cfi_endproc
 208              	.LFE241:
 209              		.size	chRegGetThreadNameX, .-chRegGetThreadNameX
 210              		.global	ch_debug
 211              		.section	.rodata.ch_debug,"a"
 212              		.align	2
 213              		.type	ch_debug, %object
 214              		.size	ch_debug, 44
 215              	ch_debug:
 216 0000 6D61696E 		.ascii	"main"
 217 0004 00       		.byte	0
 218 0005 2C       		.byte	44
 219 0006 0538     		.short	14341
 220 0008 04       		.byte	4
 221 0009 04       		.byte	4
 222 000a 48       		.byte	72
 223 000b 08       		.byte	8
 224 000c 0C       		.byte	12
 225 000d 10       		.byte	16
 226 000e 14       		.byte	20
 227 000f 1C       		.byte	28
 228 0010 20       		.byte	32
ARM GAS  C:\Users\DEVELO~1\AppData\Local\Temp\cc1u2N0m.s 			page 5


 229 0011 24       		.byte	36
 230 0012 25       		.byte	37
 231 0013 26       		.byte	38
 232 0014 00       		.byte	0
 233 0015 00       		.byte	0
 234 0016 00000000 		.ascii	"\000\000\000\000"
 235 001a 24       		.byte	36
 236 001b 04       		.byte	4
 237 001c 01       		.byte	1
 238 001d 00       		.byte	0
 239 001e 04       		.byte	4
 240 001f 00       		.byte	0
 241 0020 00       		.byte	0
 242 0021 00000000 		.ascii	"\000\000\000\000"
 243 0025 0C       		.byte	12
 244 0026 00       		.byte	0
 245 0027 10       		.byte	16
 246 0028 28       		.byte	40
 247 0029 30       		.byte	48
 248 002a 34       		.byte	52
 249 002b 00       		.space	1
 250              		.section	.text.chRegFirstThread,"ax",%progbits
 251              		.align	1
 252              		.global	chRegFirstThread
 253              		.syntax unified
 254              		.thumb
 255              		.thumb_func
 256              		.type	chRegFirstThread, %function
 257              	chRegFirstThread:
 258              	.LFB346:
 259              		.file 6 "../../../os/rt/src/chregistry.c"
 260              		.loc 6 159 34
 261              		.cfi_startproc
 262              		@ args = 0, pretend = 0, frame = 8
 263              		@ frame_needed = 1, uses_anonymous_args = 0
 264 0000 80B5     		push	{r7, lr}
 265              		.cfi_def_cfa_offset 8
 266              		.cfi_offset 7, -8
 267              		.cfi_offset 14, -4
 268 0002 82B0     		sub	sp, sp, #8
 269              		.cfi_def_cfa_offset 16
 270 0004 00AF     		add	r7, sp, #0
 271              		.cfi_def_cfa_register 7
 272              		.loc 6 163 3
 273 0006 FFF7FEFF 		bl	chSysLock
 274              		.loc 6 164 5
 275 000a 0A4B     		ldr	r3, .L9
 276 000c 9B6A     		ldr	r3, [r3, #40]
 277 000e 7B60     		str	r3, [r7, #4]
 278              		.loc 6 166 6
 279 0010 7B68     		ldr	r3, [r7, #4]
 280 0012 103B     		subs	r3, r3, #16
 281 0014 3B60     		str	r3, [r7]
 282              		.loc 6 169 5
 283 0016 3B68     		ldr	r3, [r7]
 284 0018 93F82630 		ldrb	r3, [r3, #38]	@ zero_extendqisi2
 285              		.loc 6 169 11
ARM GAS  C:\Users\DEVELO~1\AppData\Local\Temp\cc1u2N0m.s 			page 6


 286 001c 0133     		adds	r3, r3, #1
 287 001e DAB2     		uxtb	r2, r3
 288 0020 3B68     		ldr	r3, [r7]
 289 0022 83F82620 		strb	r2, [r3, #38]
 290              		.loc 6 171 3
 291 0026 FFF7FEFF 		bl	chSysUnlock
 292              		.loc 6 173 10
 293 002a 3B68     		ldr	r3, [r7]
 294              		.loc 6 174 1
 295 002c 1846     		mov	r0, r3
 296 002e 0837     		adds	r7, r7, #8
 297              		.cfi_def_cfa_offset 8
 298 0030 BD46     		mov	sp, r7
 299              		.cfi_def_cfa_register 13
 300              		@ sp needed
 301 0032 80BD     		pop	{r7, pc}
 302              	.L10:
 303              		.align	2
 304              	.L9:
 305 0034 00000000 		.word	ch0
 306              		.cfi_endproc
 307              	.LFE346:
 308              		.size	chRegFirstThread, .-chRegFirstThread
 309              		.section	.text.chRegNextThread,"ax",%progbits
 310              		.align	1
 311              		.global	chRegNextThread
 312              		.syntax unified
 313              		.thumb
 314              		.thumb_func
 315              		.type	chRegNextThread, %function
 316              	chRegNextThread:
 317              	.LFB347:
 318              		.loc 6 187 41
 319              		.cfi_startproc
 320              		@ args = 0, pretend = 0, frame = 24
 321              		@ frame_needed = 1, uses_anonymous_args = 0
 322 0000 80B5     		push	{r7, lr}
 323              		.cfi_def_cfa_offset 8
 324              		.cfi_offset 7, -8
 325              		.cfi_offset 14, -4
 326 0002 86B0     		sub	sp, sp, #24
 327              		.cfi_def_cfa_offset 32
 328 0004 00AF     		add	r7, sp, #0
 329              		.cfi_def_cfa_register 7
 330 0006 7860     		str	r0, [r7, #4]
 331              		.loc 6 191 3
 332 0008 FFF7FEFF 		bl	chSysLock
 333              		.loc 6 194 7
 334 000c 7B68     		ldr	r3, [r7, #4]
 335 000e 1B69     		ldr	r3, [r3, #16]
 336 0010 3B61     		str	r3, [r7, #16]
 337              		.loc 6 195 6
 338 0012 3B69     		ldr	r3, [r7, #16]
 339 0014 0E4A     		ldr	r2, .L15
 340 0016 9342     		cmp	r3, r2
 341 0018 02D1     		bne	.L12
 342              		.loc 6 196 9
ARM GAS  C:\Users\DEVELO~1\AppData\Local\Temp\cc1u2N0m.s 			page 7


 343 001a 0023     		movs	r3, #0
 344 001c 7B61     		str	r3, [r7, #20]
 345 001e 0CE0     		b	.L13
 346              	.L12:
 347              	.LBB22:
 348              		.loc 6 199 14
 349 0020 3B69     		ldr	r3, [r7, #16]
 350 0022 FB60     		str	r3, [r7, #12]
 351              		.loc 6 201 9
 352 0024 FB68     		ldr	r3, [r7, #12]
 353 0026 103B     		subs	r3, r3, #16
 354 0028 7B61     		str	r3, [r7, #20]
 355              		.loc 6 207 8
 356 002a 7B69     		ldr	r3, [r7, #20]
 357 002c 93F82630 		ldrb	r3, [r3, #38]	@ zero_extendqisi2
 358              		.loc 6 207 14
 359 0030 0133     		adds	r3, r3, #1
 360 0032 DAB2     		uxtb	r2, r3
 361 0034 7B69     		ldr	r3, [r7, #20]
 362 0036 83F82620 		strb	r2, [r3, #38]
 363              	.L13:
 364              	.LBE22:
 365              		.loc 6 210 3
 366 003a FFF7FEFF 		bl	chSysUnlock
 367              		.loc 6 212 3
 368 003e 7868     		ldr	r0, [r7, #4]
 369 0040 FFF7FEFF 		bl	chThdRelease
 370              		.loc 6 215 10
 371 0044 7B69     		ldr	r3, [r7, #20]
 372              		.loc 6 216 1
 373 0046 1846     		mov	r0, r3
 374 0048 1837     		adds	r7, r7, #24
 375              		.cfi_def_cfa_offset 8
 376 004a BD46     		mov	sp, r7
 377              		.cfi_def_cfa_register 13
 378              		@ sp needed
 379 004c 80BD     		pop	{r7, pc}
 380              	.L16:
 381 004e 00BF     		.align	2
 382              	.L15:
 383 0050 28000000 		.word	ch0+40
 384              		.cfi_endproc
 385              	.LFE347:
 386              		.size	chRegNextThread, .-chRegNextThread
 387              		.section	.text.chRegFindThreadByName,"ax",%progbits
 388              		.align	1
 389              		.global	chRegFindThreadByName
 390              		.syntax unified
 391              		.thumb
 392              		.thumb_func
 393              		.type	chRegFindThreadByName, %function
 394              	chRegFindThreadByName:
 395              	.LFB348:
 396              		.loc 6 230 51
 397              		.cfi_startproc
 398              		@ args = 0, pretend = 0, frame = 16
 399              		@ frame_needed = 1, uses_anonymous_args = 0
ARM GAS  C:\Users\DEVELO~1\AppData\Local\Temp\cc1u2N0m.s 			page 8


 400 0000 80B5     		push	{r7, lr}
 401              		.cfi_def_cfa_offset 8
 402              		.cfi_offset 7, -8
 403              		.cfi_offset 14, -4
 404 0002 84B0     		sub	sp, sp, #16
 405              		.cfi_def_cfa_offset 24
 406 0004 00AF     		add	r7, sp, #0
 407              		.cfi_def_cfa_register 7
 408 0006 7860     		str	r0, [r7, #4]
 409              		.loc 6 234 9
 410 0008 FFF7FEFF 		bl	chRegFirstThread
 411 000c F860     		str	r0, [r7, #12]
 412              	.L20:
 413              		.loc 6 236 9
 414 000e F868     		ldr	r0, [r7, #12]
 415 0010 FFF7FEFF 		bl	chRegGetThreadNameX
 416 0014 0346     		mov	r3, r0
 417 0016 7968     		ldr	r1, [r7, #4]
 418 0018 1846     		mov	r0, r3
 419 001a FFF7FEFF 		bl	strcmp
 420 001e 0346     		mov	r3, r0
 421              		.loc 6 236 8
 422 0020 002B     		cmp	r3, #0
 423 0022 01D1     		bne	.L18
 424              		.loc 6 237 14
 425 0024 FB68     		ldr	r3, [r7, #12]
 426 0026 07E0     		b	.L19
 427              	.L18:
 428              		.loc 6 239 11
 429 0028 F868     		ldr	r0, [r7, #12]
 430 002a FFF7FEFF 		bl	chRegNextThread
 431 002e F860     		str	r0, [r7, #12]
 432              		.loc 6 240 16
 433 0030 FB68     		ldr	r3, [r7, #12]
 434 0032 002B     		cmp	r3, #0
 435 0034 EBD1     		bne	.L20
 436              		.loc 6 242 10
 437 0036 0023     		movs	r3, #0
 438              	.L19:
 439              		.loc 6 243 1
 440 0038 1846     		mov	r0, r3
 441 003a 1037     		adds	r7, r7, #16
 442              		.cfi_def_cfa_offset 8
 443 003c BD46     		mov	sp, r7
 444              		.cfi_def_cfa_register 13
 445              		@ sp needed
 446 003e 80BD     		pop	{r7, pc}
 447              		.cfi_endproc
 448              	.LFE348:
 449              		.size	chRegFindThreadByName, .-chRegFindThreadByName
 450              		.section	.text.chRegFindThreadByPointer,"ax",%progbits
 451              		.align	1
 452              		.global	chRegFindThreadByPointer
 453              		.syntax unified
 454              		.thumb
 455              		.thumb_func
 456              		.type	chRegFindThreadByPointer, %function
ARM GAS  C:\Users\DEVELO~1\AppData\Local\Temp\cc1u2N0m.s 			page 9


 457              	chRegFindThreadByPointer:
 458              	.LFB349:
 459              		.loc 6 257 50
 460              		.cfi_startproc
 461              		@ args = 0, pretend = 0, frame = 16
 462              		@ frame_needed = 1, uses_anonymous_args = 0
 463 0000 80B5     		push	{r7, lr}
 464              		.cfi_def_cfa_offset 8
 465              		.cfi_offset 7, -8
 466              		.cfi_offset 14, -4
 467 0002 84B0     		sub	sp, sp, #16
 468              		.cfi_def_cfa_offset 24
 469 0004 00AF     		add	r7, sp, #0
 470              		.cfi_def_cfa_register 7
 471 0006 7860     		str	r0, [r7, #4]
 472              		.loc 6 261 9
 473 0008 FFF7FEFF 		bl	chRegFirstThread
 474 000c F860     		str	r0, [r7, #12]
 475              	.L24:
 476              		.loc 6 263 8
 477 000e FA68     		ldr	r2, [r7, #12]
 478 0010 7B68     		ldr	r3, [r7, #4]
 479 0012 9A42     		cmp	r2, r3
 480 0014 01D1     		bne	.L22
 481              		.loc 6 264 14
 482 0016 FB68     		ldr	r3, [r7, #12]
 483 0018 07E0     		b	.L23
 484              	.L22:
 485              		.loc 6 266 11
 486 001a F868     		ldr	r0, [r7, #12]
 487 001c FFF7FEFF 		bl	chRegNextThread
 488 0020 F860     		str	r0, [r7, #12]
 489              		.loc 6 267 16
 490 0022 FB68     		ldr	r3, [r7, #12]
 491 0024 002B     		cmp	r3, #0
 492 0026 F2D1     		bne	.L24
 493              		.loc 6 269 10
 494 0028 0023     		movs	r3, #0
 495              	.L23:
 496              		.loc 6 270 1
 497 002a 1846     		mov	r0, r3
 498 002c 1037     		adds	r7, r7, #16
 499              		.cfi_def_cfa_offset 8
 500 002e BD46     		mov	sp, r7
 501              		.cfi_def_cfa_register 13
 502              		@ sp needed
 503 0030 80BD     		pop	{r7, pc}
 504              		.cfi_endproc
 505              	.LFE349:
 506              		.size	chRegFindThreadByPointer, .-chRegFindThreadByPointer
 507              		.section	.text.chRegFindThreadByWorkingArea,"ax",%progbits
 508              		.align	1
 509              		.global	chRegFindThreadByWorkingArea
 510              		.syntax unified
 511              		.thumb
 512              		.thumb_func
 513              		.type	chRegFindThreadByWorkingArea, %function
ARM GAS  C:\Users\DEVELO~1\AppData\Local\Temp\cc1u2N0m.s 			page 10


 514              	chRegFindThreadByWorkingArea:
 515              	.LFB350:
 516              		.loc 6 286 56
 517              		.cfi_startproc
 518              		@ args = 0, pretend = 0, frame = 16
 519              		@ frame_needed = 1, uses_anonymous_args = 0
 520 0000 80B5     		push	{r7, lr}
 521              		.cfi_def_cfa_offset 8
 522              		.cfi_offset 7, -8
 523              		.cfi_offset 14, -4
 524 0002 84B0     		sub	sp, sp, #16
 525              		.cfi_def_cfa_offset 24
 526 0004 00AF     		add	r7, sp, #0
 527              		.cfi_def_cfa_register 7
 528 0006 7860     		str	r0, [r7, #4]
 529              		.loc 6 290 9
 530 0008 FFF7FEFF 		bl	chRegFirstThread
 531 000c F860     		str	r0, [r7, #12]
 532              	.L28:
 533              		.loc 6 292 9
 534 000e F868     		ldr	r0, [r7, #12]
 535 0010 FFF7FEFF 		bl	chThdGetWorkingAreaX
 536 0014 0246     		mov	r2, r0
 537              		.loc 6 292 8
 538 0016 7B68     		ldr	r3, [r7, #4]
 539 0018 9342     		cmp	r3, r2
 540 001a 01D1     		bne	.L26
 541              		.loc 6 293 14
 542 001c FB68     		ldr	r3, [r7, #12]
 543 001e 07E0     		b	.L27
 544              	.L26:
 545              		.loc 6 295 11
 546 0020 F868     		ldr	r0, [r7, #12]
 547 0022 FFF7FEFF 		bl	chRegNextThread
 548 0026 F860     		str	r0, [r7, #12]
 549              		.loc 6 296 16
 550 0028 FB68     		ldr	r3, [r7, #12]
 551 002a 002B     		cmp	r3, #0
 552 002c EFD1     		bne	.L28
 553              		.loc 6 298 10
 554 002e 0023     		movs	r3, #0
 555              	.L27:
 556              		.loc 6 299 1
 557 0030 1846     		mov	r0, r3
 558 0032 1037     		adds	r7, r7, #16
 559              		.cfi_def_cfa_offset 8
 560 0034 BD46     		mov	sp, r7
 561              		.cfi_def_cfa_register 13
 562              		@ sp needed
 563 0036 80BD     		pop	{r7, pc}
 564              		.cfi_endproc
 565              	.LFE350:
 566              		.size	chRegFindThreadByWorkingArea, .-chRegFindThreadByWorkingArea
 567              		.text
 568              	.Letext0:
 569              		.file 7 "c:\\chibistudio\\tools\\gnu tools arm embedded\\11.3 2022.08\\lib\\gcc\\arm-none-eabi\\11
 570              		.file 8 "c:\\chibistudio\\tools\\gnu tools arm embedded\\11.3 2022.08\\arm-none-eabi\\include\\mac
ARM GAS  C:\Users\DEVELO~1\AppData\Local\Temp\cc1u2N0m.s 			page 11


 571              		.file 9 "c:\\chibistudio\\tools\\gnu tools arm embedded\\11.3 2022.08\\arm-none-eabi\\include\\sys
 572              		.file 10 "../../../os/common/ports/ARM-common/chtypes.h"
 573              		.file 11 "../../../os/rt/include/chearly.h"
 574              		.file 12 "../../../os/rt/include/chobjects.h"
 575              		.file 13 "../../../os/rt/include/chrfcu.h"
 576              		.file 14 "../../../os/rt/include/chdebug.h"
 577              		.file 15 "../../../os/rt/include/chtime.h"
 578              		.file 16 "../../../os/rt/include/chlists.h"
 579              		.file 17 "../../../os/rt/include/chtrace.h"
 580              		.file 18 "../../../os/rt/include/chtm.h"
 581              		.file 19 "../../../os/rt/include/chsem.h"
 582              		.file 20 "../../../os/rt/include/chmtx.h"
 583              		.file 21 "c:\\chibistudio\\tools\\gnu tools arm embedded\\11.3 2022.08\\arm-none-eabi\\include\\st
 584              		.section	.debug_info,"",%progbits
 585              	.Ldebug_info0:
 586 0000 340E0000 		.4byte	0xe34
 587 0004 0500     		.2byte	0x5
 588 0006 01       		.byte	0x1
 589 0007 04       		.byte	0x4
 590 0008 00000000 		.4byte	.Ldebug_abbrev0
 591 000c 22       		.uleb128 0x22
 592 000d 7C010000 		.4byte	.LASF181
 593 0011 1D       		.byte	0x1d
 594 0012 82070000 		.4byte	.LASF182
 595 0016 5B030000 		.4byte	.LASF183
 596 001a 0C000000 		.4byte	.LLRL0
 597 001e 00000000 		.4byte	0
 598 0022 00000000 		.4byte	.Ldebug_line0
 599 0026 23       		.uleb128 0x23
 600 0027 04       		.byte	0x4
 601 0028 05       		.byte	0x5
 602 0029 696E7400 		.ascii	"int\000"
 603 002d 02       		.uleb128 0x2
 604 002e 23000000 		.4byte	.LASF4
 605 0032 07       		.byte	0x7
 606 0033 D1       		.byte	0xd1
 607 0034 17       		.byte	0x17
 608 0035 39000000 		.4byte	0x39
 609 0039 06       		.uleb128 0x6
 610 003a 04       		.byte	0x4
 611 003b 07       		.byte	0x7
 612 003c 08030000 		.4byte	.LASF0
 613 0040 06       		.uleb128 0x6
 614 0041 08       		.byte	0x8
 615 0042 05       		.byte	0x5
 616 0043 06010000 		.4byte	.LASF1
 617 0047 06       		.uleb128 0x6
 618 0048 08       		.byte	0x8
 619 0049 04       		.byte	0x4
 620 004a 13070000 		.4byte	.LASF2
 621 004e 06       		.uleb128 0x6
 622 004f 01       		.byte	0x1
 623 0050 06       		.byte	0x6
 624 0051 14010000 		.4byte	.LASF3
 625 0055 02       		.uleb128 0x2
 626 0056 4B000000 		.4byte	.LASF5
 627 005a 08       		.byte	0x8
ARM GAS  C:\Users\DEVELO~1\AppData\Local\Temp\cc1u2N0m.s 			page 12


 628 005b 2B       		.byte	0x2b
 629 005c 18       		.byte	0x18
 630 005d 61000000 		.4byte	0x61
 631 0061 06       		.uleb128 0x6
 632 0062 01       		.byte	0x1
 633 0063 08       		.byte	0x8
 634 0064 19060000 		.4byte	.LASF6
 635 0068 06       		.uleb128 0x6
 636 0069 02       		.byte	0x2
 637 006a 05       		.byte	0x5
 638 006b 44060000 		.4byte	.LASF7
 639 006f 02       		.uleb128 0x2
 640 0070 57070000 		.4byte	.LASF8
 641 0074 08       		.byte	0x8
 642 0075 39       		.byte	0x39
 643 0076 19       		.byte	0x19
 644 0077 7B000000 		.4byte	0x7b
 645 007b 06       		.uleb128 0x6
 646 007c 02       		.byte	0x2
 647 007d 07       		.byte	0x7
 648 007e FF070000 		.4byte	.LASF9
 649 0082 02       		.uleb128 0x2
 650 0083 49040000 		.4byte	.LASF10
 651 0087 08       		.byte	0x8
 652 0088 4D       		.byte	0x4d
 653 0089 18       		.byte	0x18
 654 008a 8E000000 		.4byte	0x8e
 655 008e 06       		.uleb128 0x6
 656 008f 04       		.byte	0x4
 657 0090 05       		.byte	0x5
 658 0091 72000000 		.4byte	.LASF11
 659 0095 02       		.uleb128 0x2
 660 0096 A7020000 		.4byte	.LASF12
 661 009a 08       		.byte	0x8
 662 009b 4F       		.byte	0x4f
 663 009c 19       		.byte	0x19
 664 009d A1000000 		.4byte	0xa1
 665 00a1 06       		.uleb128 0x6
 666 00a2 04       		.byte	0x4
 667 00a3 07       		.byte	0x7
 668 00a4 20010000 		.4byte	.LASF13
 669 00a8 02       		.uleb128 0x2
 670 00a9 9B050000 		.4byte	.LASF14
 671 00ad 08       		.byte	0x8
 672 00ae 69       		.byte	0x69
 673 00af 19       		.byte	0x19
 674 00b0 B4000000 		.4byte	0xb4
 675 00b4 06       		.uleb128 0x6
 676 00b5 08       		.byte	0x8
 677 00b6 07       		.byte	0x7
 678 00b7 40010000 		.4byte	.LASF15
 679 00bb 24       		.uleb128 0x24
 680 00bc 04       		.byte	0x4
 681 00bd 06       		.uleb128 0x6
 682 00be 01       		.byte	0x1
 683 00bf 08       		.byte	0x8
 684 00c0 26070000 		.4byte	.LASF16
ARM GAS  C:\Users\DEVELO~1\AppData\Local\Temp\cc1u2N0m.s 			page 13


 685 00c4 0F       		.uleb128 0xf
 686 00c5 BD000000 		.4byte	0xbd
 687 00c9 04       		.uleb128 0x4
 688 00ca C4000000 		.4byte	0xc4
 689 00ce 1A       		.uleb128 0x1a
 690 00cf C9000000 		.4byte	0xc9
 691 00d3 02       		.uleb128 0x2
 692 00d4 99080000 		.4byte	.LASF17
 693 00d8 09       		.byte	0x9
 694 00d9 18       		.byte	0x18
 695 00da 13       		.byte	0x13
 696 00db 55000000 		.4byte	0x55
 697 00df 02       		.uleb128 0x2
 698 00e0 5C020000 		.4byte	.LASF18
 699 00e4 09       		.byte	0x9
 700 00e5 24       		.byte	0x24
 701 00e6 14       		.byte	0x14
 702 00e7 6F000000 		.4byte	0x6f
 703 00eb 02       		.uleb128 0x2
 704 00ec 11060000 		.4byte	.LASF19
 705 00f0 09       		.byte	0x9
 706 00f1 2C       		.byte	0x2c
 707 00f2 13       		.byte	0x13
 708 00f3 82000000 		.4byte	0x82
 709 00f7 02       		.uleb128 0x2
 710 00f8 D9060000 		.4byte	.LASF20
 711 00fc 09       		.byte	0x9
 712 00fd 30       		.byte	0x30
 713 00fe 14       		.byte	0x14
 714 00ff 95000000 		.4byte	0x95
 715 0103 02       		.uleb128 0x2
 716 0104 1D050000 		.4byte	.LASF21
 717 0108 09       		.byte	0x9
 718 0109 3C       		.byte	0x3c
 719 010a 14       		.byte	0x14
 720 010b A8000000 		.4byte	0xa8
 721 010f 1A       		.uleb128 0x1a
 722 0110 03010000 		.4byte	0x103
 723 0114 02       		.uleb128 0x2
 724 0115 10050000 		.4byte	.LASF22
 725 0119 0A       		.byte	0xa
 726 011a 36       		.byte	0x36
 727 011b 1D       		.byte	0x1d
 728 011c F7000000 		.4byte	0xf7
 729 0120 02       		.uleb128 0x2
 730 0121 E9060000 		.4byte	.LASF23
 731 0125 0A       		.byte	0xa
 732 0126 48       		.byte	0x48
 733 0127 1D       		.byte	0x1d
 734 0128 03010000 		.4byte	0x103
 735 012c 02       		.uleb128 0x2
 736 012d AA040000 		.4byte	.LASF24
 737 0131 0B       		.byte	0xb
 738 0132 4D       		.byte	0x4d
 739 0133 19       		.byte	0x19
 740 0134 14010000 		.4byte	0x114
 741 0138 02       		.uleb128 0x2
ARM GAS  C:\Users\DEVELO~1\AppData\Local\Temp\cc1u2N0m.s 			page 14


 742 0139 70040000 		.4byte	.LASF25
 743 013d 0B       		.byte	0xb
 744 013e 50       		.byte	0x50
 745 013f 19       		.byte	0x19
 746 0140 20010000 		.4byte	0x120
 747 0144 02       		.uleb128 0x2
 748 0145 16040000 		.4byte	.LASF26
 749 0149 0B       		.byte	0xb
 750 014a 53       		.byte	0x53
 751 014b 19       		.byte	0x19
 752 014c D3000000 		.4byte	0xd3
 753 0150 02       		.uleb128 0x2
 754 0151 1E020000 		.4byte	.LASF27
 755 0155 0B       		.byte	0xb
 756 0156 54       		.byte	0x54
 757 0157 19       		.byte	0x19
 758 0158 D3000000 		.4byte	0xd3
 759 015c 02       		.uleb128 0x2
 760 015d C6050000 		.4byte	.LASF28
 761 0161 0B       		.byte	0xb
 762 0162 55       		.byte	0x55
 763 0163 19       		.byte	0x19
 764 0164 D3000000 		.4byte	0xd3
 765 0168 02       		.uleb128 0x2
 766 0169 DD050000 		.4byte	.LASF29
 767 016d 0B       		.byte	0xb
 768 016e 57       		.byte	0x57
 769 016f 19       		.byte	0x19
 770 0170 F7000000 		.4byte	0xf7
 771 0174 02       		.uleb128 0x2
 772 0175 F3030000 		.4byte	.LASF30
 773 0179 0B       		.byte	0xb
 774 017a 58       		.byte	0x58
 775 017b 19       		.byte	0x19
 776 017c EB000000 		.4byte	0xeb
 777 0180 02       		.uleb128 0x2
 778 0181 34040000 		.4byte	.LASF31
 779 0185 0B       		.byte	0xb
 780 0186 5A       		.byte	0x5a
 781 0187 19       		.byte	0x19
 782 0188 F7000000 		.4byte	0xf7
 783 018c 02       		.uleb128 0x2
 784 018d F9020000 		.4byte	.LASF32
 785 0191 0B       		.byte	0xb
 786 0192 5C       		.byte	0x5c
 787 0193 19       		.byte	0x19
 788 0194 EB000000 		.4byte	0xeb
 789 0198 02       		.uleb128 0x2
 790 0199 BC050000 		.4byte	.LASF33
 791 019d 0B       		.byte	0xb
 792 019e 80       		.byte	0x80
 793 019f 12       		.byte	0x12
 794 01a0 39000000 		.4byte	0x39
 795 01a4 02       		.uleb128 0x2
 796 01a5 62070000 		.4byte	.LASF34
 797 01a9 0B       		.byte	0xb
 798 01aa 85       		.byte	0x85
ARM GAS  C:\Users\DEVELO~1\AppData\Local\Temp\cc1u2N0m.s 			page 15


 799 01ab 1A       		.byte	0x1a
 800 01ac B0010000 		.4byte	0x1b0
 801 01b0 07       		.uleb128 0x7
 802 01b1 E9030000 		.4byte	.LASF49
 803 01b5 48       		.byte	0x48
 804 01b6 0C       		.byte	0xc
 805 01b7 9C       		.byte	0x9c
 806 01b8 08       		.byte	0x8
 807 01b9 8D020000 		.4byte	0x28d
 808 01bd 08       		.uleb128 0x8
 809 01be 68647200 		.ascii	"hdr\000"
 810 01c2 0C       		.byte	0xc
 811 01c3 AD       		.byte	0xad
 812 01c4 05       		.byte	0x5
 813 01c5 81070000 		.4byte	0x781
 814 01c9 00       		.byte	0
 815 01ca 08       		.uleb128 0x8
 816 01cb 63747800 		.ascii	"ctx\000"
 817 01cf 0C       		.byte	0xc
 818 01d0 B1       		.byte	0xb1
 819 01d1 21       		.byte	0x21
 820 01d2 96060000 		.4byte	0x696
 821 01d6 0C       		.byte	0xc
 822 01d7 01       		.uleb128 0x1
 823 01d8 4B030000 		.4byte	.LASF35
 824 01dc 0C       		.byte	0xc
 825 01dd B6       		.byte	0xb6
 826 01de 21       		.byte	0x21
 827 01df BD030000 		.4byte	0x3bd
 828 01e3 10       		.byte	0x10
 829 01e4 01       		.uleb128 0x1
 830 01e5 F9060000 		.4byte	.LASF36
 831 01e9 0C       		.byte	0xc
 832 01ea BB       		.byte	0xbb
 833 01eb 22       		.byte	0x22
 834 01ec 83080000 		.4byte	0x883
 835 01f0 18       		.byte	0x18
 836 01f1 01       		.uleb128 0x1
 837 01f2 BA030000 		.4byte	.LASF37
 838 01f6 0C       		.byte	0xc
 839 01f7 C0       		.byte	0xc0
 840 01f8 22       		.byte	0x22
 841 01f9 C9000000 		.4byte	0xc9
 842 01fd 1C       		.byte	0x1c
 843 01fe 01       		.uleb128 0x1
 844 01ff 1F070000 		.4byte	.LASF38
 845 0203 0C       		.byte	0xc
 846 0204 C9       		.byte	0xc9
 847 0205 22       		.byte	0x22
 848 0206 88080000 		.4byte	0x888
 849 020a 20       		.byte	0x20
 850 020b 01       		.uleb128 0x1
 851 020c 07020000 		.4byte	.LASF39
 852 0210 0C       		.byte	0xc
 853 0211 CE       		.byte	0xce
 854 0212 21       		.byte	0x21
 855 0213 50010000 		.4byte	0x150
ARM GAS  C:\Users\DEVELO~1\AppData\Local\Temp\cc1u2N0m.s 			page 16


 856 0217 24       		.byte	0x24
 857 0218 01       		.uleb128 0x1
 858 0219 A1080000 		.4byte	.LASF40
 859 021d 0C       		.byte	0xc
 860 021e D2       		.byte	0xd2
 861 021f 21       		.byte	0x21
 862 0220 44010000 		.4byte	0x144
 863 0224 25       		.byte	0x25
 864 0225 01       		.uleb128 0x1
 865 0226 D8050000 		.4byte	.LASF41
 866 022a 0C       		.byte	0xc
 867 022b D7       		.byte	0xd7
 868 022c 21       		.byte	0x21
 869 022d 5C010000 		.4byte	0x15c
 870 0231 26       		.byte	0x26
 871 0232 05       		.uleb128 0x5
 872 0233 7500     		.ascii	"u\000"
 873 0235 0C       		.byte	0xc
 874 0236 2801     		.2byte	0x128
 875 0238 21       		.byte	0x21
 876 0239 AE070000 		.4byte	0x7ae
 877 023d 28       		.byte	0x28
 878 023e 03       		.uleb128 0x3
 879 023f C9020000 		.4byte	.LASF42
 880 0243 2D01     		.2byte	0x12d
 881 0245 21       		.byte	0x21
 882 0246 91030000 		.4byte	0x391
 883 024a 2C       		.byte	0x2c
 884 024b 03       		.uleb128 0x3
 885 024c FF020000 		.4byte	.LASF43
 886 0250 3301     		.2byte	0x133
 887 0252 21       		.byte	0x21
 888 0253 BD030000 		.4byte	0x3bd
 889 0257 30       		.byte	0x30
 890 0258 03       		.uleb128 0x3
 891 0259 F9030000 		.4byte	.LASF44
 892 025d 3901     		.2byte	0x139
 893 025f 21       		.byte	0x21
 894 0260 80010000 		.4byte	0x180
 895 0264 38       		.byte	0x38
 896 0265 03       		.uleb128 0x3
 897 0266 0D090000 		.4byte	.LASF45
 898 026a 4001     		.2byte	0x140
 899 026c 22       		.byte	0x22
 900 026d 7E080000 		.4byte	0x87e
 901 0271 3C       		.byte	0x3c
 902 0272 03       		.uleb128 0x3
 903 0273 8D040000 		.4byte	.LASF46
 904 0277 4401     		.2byte	0x144
 905 0279 21       		.byte	0x21
 906 027a 68010000 		.4byte	0x168
 907 027e 40       		.byte	0x40
 908 027f 03       		.uleb128 0x3
 909 0280 D5030000 		.4byte	.LASF47
 910 0284 4B01     		.2byte	0x14b
 911 0286 22       		.byte	0x22
 912 0287 BB000000 		.4byte	0xbb
ARM GAS  C:\Users\DEVELO~1\AppData\Local\Temp\cc1u2N0m.s 			page 17


 913 028b 44       		.byte	0x44
 914 028c 00       		.byte	0
 915 028d 02       		.uleb128 0x2
 916 028e DF070000 		.4byte	.LASF48
 917 0292 0B       		.byte	0xb
 918 0293 8A       		.byte	0x8a
 919 0294 1F       		.byte	0x1f
 920 0295 99020000 		.4byte	0x299
 921 0299 25       		.uleb128 0x25
 922 029a 5A050000 		.4byte	.LASF50
 923 029e 9008     		.2byte	0x890
 924 02a0 0C       		.byte	0xc
 925 02a1 8A01     		.2byte	0x18a
 926 02a3 08       		.byte	0x8
 927 02a4 1F030000 		.4byte	0x31f
 928 02a8 03       		.uleb128 0x3
 929 02a9 93080000 		.4byte	.LASF51
 930 02ad 8E01     		.2byte	0x18e
 931 02af 21       		.byte	0x21
 932 02b0 B6080000 		.4byte	0x8b6
 933 02b4 00       		.byte	0
 934 02b5 03       		.uleb128 0x3
 935 02b6 66000000 		.4byte	.LASF52
 936 02ba 9201     		.2byte	0x192
 937 02bc 21       		.byte	0x21
 938 02bd 42070000 		.4byte	0x742
 939 02c1 10       		.byte	0x10
 940 02c2 03       		.uleb128 0x3
 941 02c3 F7070000 		.4byte	.LASF53
 942 02c7 9901     		.2byte	0x199
 943 02c9 21       		.byte	0x21
 944 02ca 69070000 		.4byte	0x769
 945 02ce 28       		.byte	0x28
 946 02cf 03       		.uleb128 0x3
 947 02d0 0E000000 		.4byte	.LASF54
 948 02d4 9E01     		.2byte	0x19e
 949 02d6 21       		.byte	0x21
 950 02d7 98010000 		.4byte	0x198
 951 02db 30       		.byte	0x30
 952 02dc 03       		.uleb128 0x3
 953 02dd 46000000 		.4byte	.LASF55
 954 02e1 A401     		.2byte	0x1a4
 955 02e3 21       		.byte	0x21
 956 02e4 46030000 		.4byte	0x346
 957 02e8 34       		.byte	0x34
 958 02e9 03       		.uleb128 0x3
 959 02ea 50070000 		.4byte	.LASF56
 960 02ee A901     		.2byte	0x1a9
 961 02f0 22       		.byte	0x22
 962 02f1 21090000 		.4byte	0x921
 963 02f5 38       		.byte	0x38
 964 02f6 03       		.uleb128 0x3
 965 02f7 D2000000 		.4byte	.LASF57
 966 02fb AD01     		.2byte	0x1ad
 967 02fd 21       		.byte	0x21
 968 02fe A4010000 		.4byte	0x1a4
 969 0302 3C       		.byte	0x3c
ARM GAS  C:\Users\DEVELO~1\AppData\Local\Temp\cc1u2N0m.s 			page 18


 970 0303 05       		.uleb128 0x5
 971 0304 64626700 		.ascii	"dbg\000"
 972 0308 0C       		.byte	0xc
 973 0309 B101     		.2byte	0x1b1
 974 030b 21       		.byte	0x21
 975 030c 6D030000 		.4byte	0x36d
 976 0310 84       		.byte	0x84
 977 0311 03       		.uleb128 0x3
 978 0312 BA080000 		.4byte	.LASF58
 979 0316 B601     		.2byte	0x1b6
 980 0318 21       		.byte	0x21
 981 0319 04060000 		.4byte	0x604
 982 031d 88       		.byte	0x88
 983 031e 00       		.byte	0
 984 031f 02       		.uleb128 0x2
 985 0320 9E040000 		.4byte	.LASF59
 986 0324 0D       		.byte	0xd
 987 0325 3F       		.byte	0x3f
 988 0326 12       		.byte	0x12
 989 0327 F7000000 		.4byte	0xf7
 990 032b 07       		.uleb128 0x7
 991 032c 34020000 		.4byte	.LASF60
 992 0330 04       		.byte	0x4
 993 0331 0D       		.byte	0xd
 994 0332 44       		.byte	0x44
 995 0333 10       		.byte	0x10
 996 0334 46030000 		.4byte	0x346
 997 0338 01       		.uleb128 0x1
 998 0339 B2020000 		.4byte	.LASF61
 999 033d 0D       		.byte	0xd
 1000 033e 48       		.byte	0x48
 1001 033f 21       		.byte	0x21
 1002 0340 1F030000 		.4byte	0x31f
 1003 0344 00       		.byte	0
 1004 0345 00       		.byte	0
 1005 0346 02       		.uleb128 0x2
 1006 0347 3D060000 		.4byte	.LASF62
 1007 034b 0D       		.byte	0xd
 1008 034c 49       		.byte	0x49
 1009 034d 03       		.byte	0x3
 1010 034e 2B030000 		.4byte	0x32b
 1011 0352 07       		.uleb128 0x7
 1012 0353 FB050000 		.4byte	.LASF63
 1013 0357 04       		.byte	0x4
 1014 0358 0E       		.byte	0xe
 1015 0359 3E       		.byte	0x3e
 1016 035a 10       		.byte	0x10
 1017 035b 6D030000 		.4byte	0x36d
 1018 035f 01       		.uleb128 0x1
 1019 0360 B6070000 		.4byte	.LASF64
 1020 0364 0E       		.byte	0xe
 1021 0365 46       		.byte	0x46
 1022 0366 24       		.byte	0x24
 1023 0367 CE000000 		.4byte	0xce
 1024 036b 00       		.byte	0
 1025 036c 00       		.byte	0
 1026 036d 02       		.uleb128 0x2
ARM GAS  C:\Users\DEVELO~1\AppData\Local\Temp\cc1u2N0m.s 			page 19


 1027 036e 36030000 		.4byte	.LASF65
 1028 0372 0E       		.byte	0xe
 1029 0373 51       		.byte	0x51
 1030 0374 03       		.byte	0x3
 1031 0375 52030000 		.4byte	0x352
 1032 0379 02       		.uleb128 0x2
 1033 037a 71070000 		.4byte	.LASF66
 1034 037e 0F       		.byte	0xf
 1035 037f 6D       		.byte	0x6d
 1036 0380 12       		.byte	0x12
 1037 0381 F7000000 		.4byte	0xf7
 1038 0385 02       		.uleb128 0x2
 1039 0386 EB020000 		.4byte	.LASF67
 1040 038a 0F       		.byte	0xf
 1041 038b 79       		.byte	0x79
 1042 038c 12       		.byte	0x12
 1043 038d F7000000 		.4byte	0xf7
 1044 0391 02       		.uleb128 0x2
 1045 0392 EA040000 		.4byte	.LASF68
 1046 0396 10       		.byte	0x10
 1047 0397 32       		.byte	0x32
 1048 0398 18       		.byte	0x18
 1049 0399 9D030000 		.4byte	0x39d
 1050 039d 07       		.uleb128 0x7
 1051 039e 1E040000 		.4byte	.LASF69
 1052 03a2 04       		.byte	0x4
 1053 03a3 10       		.byte	0x10
 1054 03a4 38       		.byte	0x38
 1055 03a5 08       		.byte	0x8
 1056 03a6 B8030000 		.4byte	0x3b8
 1057 03aa 01       		.uleb128 0x1
 1058 03ab F6000000 		.4byte	.LASF70
 1059 03af 10       		.byte	0x10
 1060 03b0 39       		.byte	0x39
 1061 03b1 1A       		.byte	0x1a
 1062 03b2 B8030000 		.4byte	0x3b8
 1063 03b6 00       		.byte	0
 1064 03b7 00       		.byte	0
 1065 03b8 04       		.uleb128 0x4
 1066 03b9 91030000 		.4byte	0x391
 1067 03bd 02       		.uleb128 0x2
 1068 03be B7020000 		.4byte	.LASF71
 1069 03c2 10       		.byte	0x10
 1070 03c3 3F       		.byte	0x3f
 1071 03c4 19       		.byte	0x19
 1072 03c5 C9030000 		.4byte	0x3c9
 1073 03c9 07       		.uleb128 0x7
 1074 03ca 48020000 		.4byte	.LASF72
 1075 03ce 08       		.byte	0x8
 1076 03cf 10       		.byte	0x10
 1077 03d0 45       		.byte	0x45
 1078 03d1 08       		.byte	0x8
 1079 03d2 F1030000 		.4byte	0x3f1
 1080 03d6 01       		.uleb128 0x1
 1081 03d7 F6000000 		.4byte	.LASF70
 1082 03db 10       		.byte	0x10
 1083 03dc 46       		.byte	0x46
ARM GAS  C:\Users\DEVELO~1\AppData\Local\Temp\cc1u2N0m.s 			page 20


 1084 03dd 1A       		.byte	0x1a
 1085 03de F1030000 		.4byte	0x3f1
 1086 03e2 00       		.byte	0
 1087 03e3 01       		.uleb128 0x1
 1088 03e4 55000000 		.4byte	.LASF73
 1089 03e8 10       		.byte	0x10
 1090 03e9 47       		.byte	0x47
 1091 03ea 1A       		.byte	0x1a
 1092 03eb F1030000 		.4byte	0x3f1
 1093 03ef 04       		.byte	0x4
 1094 03f0 00       		.byte	0
 1095 03f1 04       		.uleb128 0x4
 1096 03f2 BD030000 		.4byte	0x3bd
 1097 03f6 02       		.uleb128 0x2
 1098 03f7 A2070000 		.4byte	.LASF74
 1099 03fb 10       		.byte	0x10
 1100 03fc 4E       		.byte	0x4e
 1101 03fd 22       		.byte	0x22
 1102 03fe 02040000 		.4byte	0x402
 1103 0402 07       		.uleb128 0x7
 1104 0403 20080000 		.4byte	.LASF75
 1105 0407 0C       		.byte	0xc
 1106 0408 10       		.byte	0x10
 1107 0409 55       		.byte	0x55
 1108 040a 08       		.byte	0x8
 1109 040b 37040000 		.4byte	0x437
 1110 040f 01       		.uleb128 0x1
 1111 0410 F6000000 		.4byte	.LASF70
 1112 0414 10       		.byte	0x10
 1113 0415 56       		.byte	0x56
 1114 0416 1A       		.byte	0x1a
 1115 0417 37040000 		.4byte	0x437
 1116 041b 00       		.byte	0
 1117 041c 01       		.uleb128 0x1
 1118 041d 55000000 		.4byte	.LASF73
 1119 0421 10       		.byte	0x10
 1120 0422 57       		.byte	0x57
 1121 0423 1A       		.byte	0x1a
 1122 0424 37040000 		.4byte	0x437
 1123 0428 04       		.byte	0x4
 1124 0429 01       		.uleb128 0x1
 1125 042a 6E050000 		.4byte	.LASF76
 1126 042e 10       		.byte	0x10
 1127 042f 58       		.byte	0x58
 1128 0430 19       		.byte	0x19
 1129 0431 68010000 		.4byte	0x168
 1130 0435 08       		.byte	0x8
 1131 0436 00       		.byte	0
 1132 0437 04       		.uleb128 0x4
 1133 0438 F6030000 		.4byte	0x3f6
 1134 043c 02       		.uleb128 0x2
 1135 043d 32080000 		.4byte	.LASF77
 1136 0441 10       		.byte	0x10
 1137 0442 5F       		.byte	0x5f
 1138 0443 1E       		.byte	0x1e
 1139 0444 48040000 		.4byte	0x448
 1140 0448 07       		.uleb128 0x7
ARM GAS  C:\Users\DEVELO~1\AppData\Local\Temp\cc1u2N0m.s 			page 21


 1141 0449 32010000 		.4byte	.LASF78
 1142 044d 0C       		.byte	0xc
 1143 044e 10       		.byte	0x10
 1144 044f 64       		.byte	0x64
 1145 0450 08       		.byte	0x8
 1146 0451 7D040000 		.4byte	0x47d
 1147 0455 01       		.uleb128 0x1
 1148 0456 F6000000 		.4byte	.LASF70
 1149 045a 10       		.byte	0x10
 1150 045b 65       		.byte	0x65
 1151 045c 1A       		.byte	0x1a
 1152 045d 7D040000 		.4byte	0x47d
 1153 0461 00       		.byte	0
 1154 0462 01       		.uleb128 0x1
 1155 0463 55000000 		.4byte	.LASF73
 1156 0467 10       		.byte	0x10
 1157 0468 66       		.byte	0x66
 1158 0469 1A       		.byte	0x1a
 1159 046a 7D040000 		.4byte	0x47d
 1160 046e 04       		.byte	0x4
 1161 046f 01       		.uleb128 0x1
 1162 0470 39000000 		.4byte	.LASF79
 1163 0474 10       		.byte	0x10
 1164 0475 67       		.byte	0x67
 1165 0476 19       		.byte	0x19
 1166 0477 85030000 		.4byte	0x385
 1167 047b 08       		.byte	0x8
 1168 047c 00       		.byte	0
 1169 047d 04       		.uleb128 0x4
 1170 047e 3C040000 		.4byte	0x43c
 1171 0482 09       		.uleb128 0x9
 1172 0483 08       		.byte	0x8
 1173 0484 11       		.byte	0x11
 1174 0485 83       		.byte	0x83
 1175 0486 05       		.byte	0x5
 1176 0487 A6040000 		.4byte	0x4a6
 1177 048b 08       		.uleb128 0x8
 1178 048c 6E747000 		.ascii	"ntp\000"
 1179 0490 11       		.byte	0x11
 1180 0491 87       		.byte	0x87
 1181 0492 1E       		.byte	0x1e
 1182 0493 A6040000 		.4byte	0x4a6
 1183 0497 00       		.byte	0
 1184 0498 01       		.uleb128 0x1
 1185 0499 7B060000 		.4byte	.LASF80
 1186 049d 11       		.byte	0x11
 1187 049e 8B       		.byte	0x8b
 1188 049f 1E       		.byte	0x1e
 1189 04a0 BB000000 		.4byte	0xbb
 1190 04a4 04       		.byte	0x4
 1191 04a5 00       		.byte	0
 1192 04a6 04       		.uleb128 0x4
 1193 04a7 A4010000 		.4byte	0x1a4
 1194 04ab 09       		.uleb128 0x9
 1195 04ac 08       		.byte	0x8
 1196 04ad 11       		.byte	0x11
 1197 04ae 90       		.byte	0x90
ARM GAS  C:\Users\DEVELO~1\AppData\Local\Temp\cc1u2N0m.s 			page 22


 1198 04af 05       		.byte	0x5
 1199 04b0 CE040000 		.4byte	0x4ce
 1200 04b4 08       		.uleb128 0x8
 1201 04b5 747000   		.ascii	"tp\000"
 1202 04b8 11       		.byte	0x11
 1203 04b9 94       		.byte	0x94
 1204 04ba 1E       		.byte	0x1e
 1205 04bb A6040000 		.4byte	0x4a6
 1206 04bf 00       		.byte	0
 1207 04c0 08       		.uleb128 0x8
 1208 04c1 6D736700 		.ascii	"msg\000"
 1209 04c5 11       		.byte	0x11
 1210 04c6 98       		.byte	0x98
 1211 04c7 1D       		.byte	0x1d
 1212 04c8 74010000 		.4byte	0x174
 1213 04cc 04       		.byte	0x4
 1214 04cd 00       		.byte	0
 1215 04ce 09       		.uleb128 0x9
 1216 04cf 04       		.byte	0x4
 1217 04d0 11       		.byte	0x11
 1218 04d1 9D       		.byte	0x9d
 1219 04d2 05       		.byte	0x5
 1220 04d3 E5040000 		.4byte	0x4e5
 1221 04d7 01       		.uleb128 0x1
 1222 04d8 BA030000 		.4byte	.LASF37
 1223 04dc 11       		.byte	0x11
 1224 04dd A1       		.byte	0xa1
 1225 04de 1E       		.byte	0x1e
 1226 04df C9000000 		.4byte	0xc9
 1227 04e3 00       		.byte	0
 1228 04e4 00       		.byte	0
 1229 04e5 09       		.uleb128 0x9
 1230 04e6 04       		.byte	0x4
 1231 04e7 11       		.byte	0x11
 1232 04e8 A6       		.byte	0xa6
 1233 04e9 05       		.byte	0x5
 1234 04ea FC040000 		.4byte	0x4fc
 1235 04ee 01       		.uleb128 0x1
 1236 04ef B3060000 		.4byte	.LASF81
 1237 04f3 11       		.byte	0x11
 1238 04f4 AA       		.byte	0xaa
 1239 04f5 1E       		.byte	0x1e
 1240 04f6 C9000000 		.4byte	0xc9
 1241 04fa 00       		.byte	0
 1242 04fb 00       		.byte	0
 1243 04fc 09       		.uleb128 0x9
 1244 04fd 08       		.byte	0x8
 1245 04fe 11       		.byte	0x11
 1246 04ff AF       		.byte	0xaf
 1247 0500 05       		.byte	0x5
 1248 0501 20050000 		.4byte	0x520
 1249 0505 08       		.uleb128 0x8
 1250 0506 75703100 		.ascii	"up1\000"
 1251 050a 11       		.byte	0x11
 1252 050b B3       		.byte	0xb3
 1253 050c 1E       		.byte	0x1e
 1254 050d BB000000 		.4byte	0xbb
ARM GAS  C:\Users\DEVELO~1\AppData\Local\Temp\cc1u2N0m.s 			page 23


 1255 0511 00       		.byte	0
 1256 0512 08       		.uleb128 0x8
 1257 0513 75703200 		.ascii	"up2\000"
 1258 0517 11       		.byte	0x11
 1259 0518 B7       		.byte	0xb7
 1260 0519 1E       		.byte	0x1e
 1261 051a BB000000 		.4byte	0xbb
 1262 051e 04       		.byte	0x4
 1263 051f 00       		.byte	0
 1264 0520 13       		.uleb128 0x13
 1265 0521 08       		.byte	0x8
 1266 0522 11       		.byte	0x11
 1267 0523 7F       		.byte	0x7f
 1268 0524 5E050000 		.4byte	0x55e
 1269 0528 14       		.uleb128 0x14
 1270 0529 737700   		.ascii	"sw\000"
 1271 052c 8C       		.byte	0x8c
 1272 052d 82040000 		.4byte	0x482
 1273 0531 14       		.uleb128 0x14
 1274 0532 72647900 		.ascii	"rdy\000"
 1275 0536 99       		.byte	0x99
 1276 0537 AB040000 		.4byte	0x4ab
 1277 053b 14       		.uleb128 0x14
 1278 053c 69737200 		.ascii	"isr\000"
 1279 0540 A2       		.byte	0xa2
 1280 0541 CE040000 		.4byte	0x4ce
 1281 0545 0A       		.uleb128 0xa
 1282 0546 B5000000 		.4byte	.LASF82
 1283 054a 11       		.byte	0x11
 1284 054b AB       		.byte	0xab
 1285 054c 07       		.byte	0x7
 1286 054d E5040000 		.4byte	0x4e5
 1287 0551 0A       		.uleb128 0xa
 1288 0552 E5050000 		.4byte	.LASF83
 1289 0556 11       		.byte	0x11
 1290 0557 B8       		.byte	0xb8
 1291 0558 07       		.byte	0x7
 1292 0559 FC040000 		.4byte	0x4fc
 1293 055d 00       		.byte	0
 1294 055e 09       		.uleb128 0x9
 1295 055f 10       		.byte	0x10
 1296 0560 11       		.byte	0x11
 1297 0561 6C       		.byte	0x6c
 1298 0562 09       		.byte	0x9
 1299 0563 A4050000 		.4byte	0x5a4
 1300 0567 15       		.uleb128 0x15
 1301 0568 6D000000 		.4byte	.LASF84
 1302 056c 70       		.byte	0x70
 1303 056d F7000000 		.4byte	0xf7
 1304 0571 03       		.byte	0x3
 1305 0572 00       		.byte	0
 1306 0573 15       		.uleb128 0x15
 1307 0574 07020000 		.4byte	.LASF39
 1308 0578 74       		.byte	0x74
 1309 0579 F7000000 		.4byte	0xf7
 1310 057d 05       		.byte	0x5
 1311 057e 03       		.byte	0x3
ARM GAS  C:\Users\DEVELO~1\AppData\Local\Temp\cc1u2N0m.s 			page 24


 1312 057f 15       		.uleb128 0x15
 1313 0580 7B040000 		.4byte	.LASF85
 1314 0584 7A       		.byte	0x7a
 1315 0585 F7000000 		.4byte	0xf7
 1316 0589 18       		.byte	0x18
 1317 058a 08       		.byte	0x8
 1318 058b 01       		.uleb128 0x1
 1319 058c 69050000 		.4byte	.LASF86
 1320 0590 11       		.byte	0x11
 1321 0591 7E       		.byte	0x7e
 1322 0592 19       		.byte	0x19
 1323 0593 79030000 		.4byte	0x379
 1324 0597 04       		.byte	0x4
 1325 0598 08       		.uleb128 0x8
 1326 0599 7500     		.ascii	"u\000"
 1327 059b 11       		.byte	0x11
 1328 059c B9       		.byte	0xb9
 1329 059d 05       		.byte	0x5
 1330 059e 20050000 		.4byte	0x520
 1331 05a2 08       		.byte	0x8
 1332 05a3 00       		.byte	0
 1333 05a4 02       		.uleb128 0x2
 1334 05a5 7B000000 		.4byte	.LASF87
 1335 05a9 11       		.byte	0x11
 1336 05aa BA       		.byte	0xba
 1337 05ab 03       		.byte	0x3
 1338 05ac 5E050000 		.4byte	0x55e
 1339 05b0 26       		.uleb128 0x26
 1340 05b1 0808     		.2byte	0x808
 1341 05b3 11       		.byte	0x11
 1342 05b4 C0       		.byte	0xc0
 1343 05b5 09       		.byte	0x9
 1344 05b6 EF050000 		.4byte	0x5ef
 1345 05ba 01       		.uleb128 0x1
 1346 05bb 9E000000 		.4byte	.LASF88
 1347 05bf 11       		.byte	0x11
 1348 05c0 C4       		.byte	0xc4
 1349 05c1 19       		.byte	0x19
 1350 05c2 DF000000 		.4byte	0xdf
 1351 05c6 00       		.byte	0
 1352 05c7 01       		.uleb128 0x1
 1353 05c8 DB030000 		.4byte	.LASF89
 1354 05cc 11       		.byte	0x11
 1355 05cd C8       		.byte	0xc8
 1356 05ce 19       		.byte	0x19
 1357 05cf DF000000 		.4byte	0xdf
 1358 05d3 02       		.byte	0x2
 1359 05d4 08       		.uleb128 0x8
 1360 05d5 70747200 		.ascii	"ptr\000"
 1361 05d9 11       		.byte	0x11
 1362 05da CC       		.byte	0xcc
 1363 05db 1A       		.byte	0x1a
 1364 05dc EF050000 		.4byte	0x5ef
 1365 05e0 04       		.byte	0x4
 1366 05e1 01       		.uleb128 0x1
 1367 05e2 7B070000 		.4byte	.LASF90
 1368 05e6 11       		.byte	0x11
ARM GAS  C:\Users\DEVELO~1\AppData\Local\Temp\cc1u2N0m.s 			page 25


 1369 05e7 D0       		.byte	0xd0
 1370 05e8 19       		.byte	0x19
 1371 05e9 F4050000 		.4byte	0x5f4
 1372 05ed 08       		.byte	0x8
 1373 05ee 00       		.byte	0
 1374 05ef 04       		.uleb128 0x4
 1375 05f0 A4050000 		.4byte	0x5a4
 1376 05f4 0B       		.uleb128 0xb
 1377 05f5 A4050000 		.4byte	0x5a4
 1378 05f9 04060000 		.4byte	0x604
 1379 05fd 0C       		.uleb128 0xc
 1380 05fe 39000000 		.4byte	0x39
 1381 0602 7F       		.byte	0x7f
 1382 0603 00       		.byte	0
 1383 0604 02       		.uleb128 0x2
 1384 0605 6C060000 		.4byte	.LASF91
 1385 0609 11       		.byte	0x11
 1386 060a D1       		.byte	0xd1
 1387 060b 03       		.byte	0x3
 1388 060c B0050000 		.4byte	0x5b0
 1389 0610 10       		.uleb128 0x10
 1390 0611 5A000000 		.4byte	.LASF92
 1391 0615 24       		.byte	0x24
 1392 0616 03       		.byte	0x3
 1393 0617 E001     		.2byte	0x1e0
 1394 0619 08       		.byte	0x8
 1395 061a 96060000 		.4byte	0x696
 1396 061e 05       		.uleb128 0x5
 1397 061f 723400   		.ascii	"r4\000"
 1398 0622 03       		.byte	0x3
 1399 0623 F901     		.2byte	0x1f9
 1400 0625 11       		.byte	0x11
 1401 0626 F7000000 		.4byte	0xf7
 1402 062a 00       		.byte	0
 1403 062b 05       		.uleb128 0x5
 1404 062c 723500   		.ascii	"r5\000"
 1405 062f 03       		.byte	0x3
 1406 0630 FA01     		.2byte	0x1fa
 1407 0632 11       		.byte	0x11
 1408 0633 F7000000 		.4byte	0xf7
 1409 0637 04       		.byte	0x4
 1410 0638 05       		.uleb128 0x5
 1411 0639 723600   		.ascii	"r6\000"
 1412 063c 03       		.byte	0x3
 1413 063d FB01     		.2byte	0x1fb
 1414 063f 11       		.byte	0x11
 1415 0640 F7000000 		.4byte	0xf7
 1416 0644 08       		.byte	0x8
 1417 0645 05       		.uleb128 0x5
 1418 0646 723700   		.ascii	"r7\000"
 1419 0649 03       		.byte	0x3
 1420 064a FC01     		.2byte	0x1fc
 1421 064c 11       		.byte	0x11
 1422 064d F7000000 		.4byte	0xf7
 1423 0651 0C       		.byte	0xc
 1424 0652 05       		.uleb128 0x5
 1425 0653 723800   		.ascii	"r8\000"
ARM GAS  C:\Users\DEVELO~1\AppData\Local\Temp\cc1u2N0m.s 			page 26


 1426 0656 03       		.byte	0x3
 1427 0657 FD01     		.2byte	0x1fd
 1428 0659 11       		.byte	0x11
 1429 065a F7000000 		.4byte	0xf7
 1430 065e 10       		.byte	0x10
 1431 065f 05       		.uleb128 0x5
 1432 0660 723900   		.ascii	"r9\000"
 1433 0663 03       		.byte	0x3
 1434 0664 FE01     		.2byte	0x1fe
 1435 0666 11       		.byte	0x11
 1436 0667 F7000000 		.4byte	0xf7
 1437 066b 14       		.byte	0x14
 1438 066c 05       		.uleb128 0x5
 1439 066d 72313000 		.ascii	"r10\000"
 1440 0671 03       		.byte	0x3
 1441 0672 FF01     		.2byte	0x1ff
 1442 0674 11       		.byte	0x11
 1443 0675 F7000000 		.4byte	0xf7
 1444 0679 18       		.byte	0x18
 1445 067a 05       		.uleb128 0x5
 1446 067b 72313100 		.ascii	"r11\000"
 1447 067f 03       		.byte	0x3
 1448 0680 0002     		.2byte	0x200
 1449 0682 11       		.byte	0x11
 1450 0683 F7000000 		.4byte	0xf7
 1451 0687 1C       		.byte	0x1c
 1452 0688 05       		.uleb128 0x5
 1453 0689 6C7200   		.ascii	"lr\000"
 1454 068c 03       		.byte	0x3
 1455 068d 0102     		.2byte	0x201
 1456 068f 11       		.byte	0x11
 1457 0690 F7000000 		.4byte	0xf7
 1458 0694 20       		.byte	0x20
 1459 0695 00       		.byte	0
 1460 0696 10       		.uleb128 0x10
 1461 0697 3C050000 		.4byte	.LASF93
 1462 069b 04       		.byte	0x4
 1463 069c 03       		.byte	0x3
 1464 069d 0A02     		.2byte	0x20a
 1465 069f 08       		.byte	0x8
 1466 06a0 B2060000 		.4byte	0x6b2
 1467 06a4 05       		.uleb128 0x5
 1468 06a5 737000   		.ascii	"sp\000"
 1469 06a8 03       		.byte	0x3
 1470 06a9 0B02     		.2byte	0x20b
 1471 06ab 1A       		.byte	0x1a
 1472 06ac B2060000 		.4byte	0x6b2
 1473 06b0 00       		.byte	0
 1474 06b1 00       		.byte	0
 1475 06b2 04       		.uleb128 0x4
 1476 06b3 10060000 		.4byte	0x610
 1477 06b7 09       		.uleb128 0x9
 1478 06b8 04       		.byte	0x4
 1479 06b9 12       		.byte	0x12
 1480 06ba 3F       		.byte	0x3f
 1481 06bb 09       		.byte	0x9
 1482 06bc CE060000 		.4byte	0x6ce
ARM GAS  C:\Users\DEVELO~1\AppData\Local\Temp\cc1u2N0m.s 			page 27


 1483 06c0 01       		.uleb128 0x1
 1484 06c1 C2020000 		.4byte	.LASF94
 1485 06c5 12       		.byte	0x12
 1486 06c6 43       		.byte	0x43
 1487 06c7 19       		.byte	0x19
 1488 06c8 2C010000 		.4byte	0x12c
 1489 06cc 00       		.byte	0
 1490 06cd 00       		.byte	0
 1491 06ce 02       		.uleb128 0x2
 1492 06cf 49050000 		.4byte	.LASF95
 1493 06d3 12       		.byte	0x12
 1494 06d4 44       		.byte	0x44
 1495 06d5 03       		.byte	0x3
 1496 06d6 B7060000 		.4byte	0x6b7
 1497 06da 27       		.uleb128 0x27
 1498 06db 07       		.byte	0x7
 1499 06dc 01       		.byte	0x1
 1500 06dd 61000000 		.4byte	0x61
 1501 06e1 0C       		.byte	0xc
 1502 06e2 32       		.byte	0x32
 1503 06e3 0E       		.byte	0xe
 1504 06e4 01070000 		.4byte	0x701
 1505 06e8 11       		.uleb128 0x11
 1506 06e9 42070000 		.4byte	.LASF96
 1507 06ed 00       		.byte	0
 1508 06ee 11       		.uleb128 0x11
 1509 06ef 71080000 		.4byte	.LASF97
 1510 06f3 01       		.byte	0x1
 1511 06f4 11       		.uleb128 0x11
 1512 06f5 BA000000 		.4byte	.LASF98
 1513 06f9 02       		.byte	0x2
 1514 06fa 11       		.uleb128 0x11
 1515 06fb 12080000 		.4byte	.LASF99
 1516 06ff 03       		.byte	0x3
 1517 0700 00       		.byte	0
 1518 0701 02       		.uleb128 0x2
 1519 0702 E5080000 		.4byte	.LASF100
 1520 0706 0C       		.byte	0xc
 1521 0707 37       		.byte	0x37
 1522 0708 03       		.byte	0x3
 1523 0709 DA060000 		.4byte	0x6da
 1524 070d 07       		.uleb128 0x7
 1525 070e C5040000 		.4byte	.LASF101
 1526 0712 18       		.byte	0x18
 1527 0713 0C       		.byte	0xc
 1528 0714 64       		.byte	0x64
 1529 0715 10       		.byte	0x10
 1530 0716 42070000 		.4byte	0x742
 1531 071a 01       		.uleb128 0x1
 1532 071b 6B070000 		.4byte	.LASF102
 1533 071f 0C       		.byte	0xc
 1534 0720 68       		.byte	0x68
 1535 0721 21       		.byte	0x21
 1536 0722 3C040000 		.4byte	0x43c
 1537 0726 00       		.byte	0
 1538 0727 01       		.uleb128 0x1
 1539 0728 4E060000 		.4byte	.LASF103
ARM GAS  C:\Users\DEVELO~1\AppData\Local\Temp\cc1u2N0m.s 			page 28


 1540 072c 0C       		.byte	0xc
 1541 072d 73       		.byte	0x73
 1542 072e 21       		.byte	0x21
 1543 072f 79030000 		.4byte	0x379
 1544 0733 0C       		.byte	0xc
 1545 0734 01       		.uleb128 0x1
 1546 0735 83040000 		.4byte	.LASF104
 1547 0739 0C       		.byte	0xc
 1548 073a 79       		.byte	0x79
 1549 073b 21       		.byte	0x21
 1550 073c 0F010000 		.4byte	0x10f
 1551 0740 10       		.byte	0x10
 1552 0741 00       		.byte	0
 1553 0742 02       		.uleb128 0x2
 1554 0743 53040000 		.4byte	.LASF105
 1555 0747 0C       		.byte	0xc
 1556 0748 7B       		.byte	0x7b
 1557 0749 03       		.byte	0x3
 1558 074a 0D070000 		.4byte	0x70d
 1559 074e 07       		.uleb128 0x7
 1560 074f 71020000 		.4byte	.LASF106
 1561 0753 08       		.byte	0x8
 1562 0754 0C       		.byte	0xc
 1563 0755 80       		.byte	0x80
 1564 0756 10       		.byte	0x10
 1565 0757 69070000 		.4byte	0x769
 1566 075b 01       		.uleb128 0x1
 1567 075c BF030000 		.4byte	.LASF107
 1568 0760 0C       		.byte	0xc
 1569 0761 84       		.byte	0x84
 1570 0762 21       		.byte	0x21
 1571 0763 BD030000 		.4byte	0x3bd
 1572 0767 00       		.byte	0
 1573 0768 00       		.byte	0
 1574 0769 02       		.uleb128 0x2
 1575 076a 42080000 		.4byte	.LASF108
 1576 076e 0C       		.byte	0xc
 1577 076f 85       		.byte	0x85
 1578 0770 03       		.byte	0x3
 1579 0771 4E070000 		.4byte	0x74e
 1580 0775 02       		.uleb128 0x2
 1581 0776 B2040000 		.4byte	.LASF109
 1582 077a 0C       		.byte	0xc
 1583 077b 8A       		.byte	0x8a
 1584 077c 14       		.byte	0x14
 1585 077d A6040000 		.4byte	0x4a6
 1586 0781 13       		.uleb128 0x13
 1587 0782 0C       		.byte	0xc
 1588 0783 0C       		.byte	0xc
 1589 0784 A0       		.byte	0xa0
 1590 0785 AE070000 		.4byte	0x7ae
 1591 0789 0A       		.uleb128 0xa
 1592 078a E0080000 		.4byte	.LASF110
 1593 078e 0C       		.byte	0xc
 1594 078f A4       		.byte	0xa4
 1595 0790 21       		.byte	0x21
 1596 0791 91030000 		.4byte	0x391
ARM GAS  C:\Users\DEVELO~1\AppData\Local\Temp\cc1u2N0m.s 			page 29


 1597 0795 0A       		.uleb128 0xa
 1598 0796 BF030000 		.4byte	.LASF107
 1599 079a 0C       		.byte	0xc
 1600 079b A8       		.byte	0xa8
 1601 079c 21       		.byte	0x21
 1602 079d BD030000 		.4byte	0x3bd
 1603 07a1 0A       		.uleb128 0xa
 1604 07a2 C0070000 		.4byte	.LASF111
 1605 07a6 0C       		.byte	0xc
 1606 07a7 AC       		.byte	0xac
 1607 07a8 21       		.byte	0x21
 1608 07a9 F6030000 		.4byte	0x3f6
 1609 07ad 00       		.byte	0
 1610 07ae 13       		.uleb128 0x13
 1611 07af 04       		.byte	0x4
 1612 07b0 0C       		.byte	0xc
 1613 07b1 EB       		.byte	0xeb
 1614 07b2 17080000 		.4byte	0x817
 1615 07b6 0A       		.uleb128 0xa
 1616 07b7 3F000000 		.4byte	.LASF112
 1617 07bb 0C       		.byte	0xc
 1618 07bc F2       		.byte	0xf2
 1619 07bd 21       		.byte	0x21
 1620 07be 74010000 		.4byte	0x174
 1621 07c2 0A       		.uleb128 0xa
 1622 07c3 C9000000 		.4byte	.LASF113
 1623 07c7 0C       		.byte	0xc
 1624 07c8 F9       		.byte	0xf9
 1625 07c9 21       		.byte	0x21
 1626 07ca 74010000 		.4byte	0x174
 1627 07ce 0D       		.uleb128 0xd
 1628 07cf 7B060000 		.4byte	.LASF80
 1629 07d3 0001     		.2byte	0x100
 1630 07d5 22       		.byte	0x22
 1631 07d6 BB000000 		.4byte	0xbb
 1632 07da 0D       		.uleb128 0xd
 1633 07db 45030000 		.4byte	.LASF114
 1634 07df 0701     		.2byte	0x107
 1635 07e1 22       		.byte	0x22
 1636 07e2 17080000 		.4byte	0x817
 1637 07e6 0D       		.uleb128 0xd
 1638 07e7 DD000000 		.4byte	.LASF115
 1639 07eb 0C01     		.2byte	0x10c
 1640 07ed 21       		.byte	0x21
 1641 07ee 74010000 		.4byte	0x174
 1642 07f2 0D       		.uleb128 0xd
 1643 07f3 2F030000 		.4byte	.LASF116
 1644 07f7 1501     		.2byte	0x115
 1645 07f9 22       		.byte	0x22
 1646 07fa 44080000 		.4byte	0x844
 1647 07fe 0D       		.uleb128 0xd
 1648 07ff E2060000 		.4byte	.LASF117
 1649 0803 1E01     		.2byte	0x11e
 1650 0805 22       		.byte	0x22
 1651 0806 7E080000 		.4byte	0x87e
 1652 080a 0D       		.uleb128 0xd
 1653 080b 82060000 		.4byte	.LASF118
ARM GAS  C:\Users\DEVELO~1\AppData\Local\Temp\cc1u2N0m.s 			page 30


 1654 080f 2601     		.2byte	0x126
 1655 0811 21       		.byte	0x21
 1656 0812 80010000 		.4byte	0x180
 1657 0816 00       		.byte	0
 1658 0817 04       		.uleb128 0x4
 1659 0818 75070000 		.4byte	0x775
 1660 081c 07       		.uleb128 0x7
 1661 081d BA060000 		.4byte	.LASF119
 1662 0821 0C       		.byte	0xc
 1663 0822 13       		.byte	0x13
 1664 0823 34       		.byte	0x34
 1665 0824 10       		.byte	0x10
 1666 0825 44080000 		.4byte	0x844
 1667 0829 01       		.uleb128 0x1
 1668 082a BF030000 		.4byte	.LASF107
 1669 082e 13       		.byte	0x13
 1670 082f 35       		.byte	0x35
 1671 0830 19       		.byte	0x19
 1672 0831 BD030000 		.4byte	0x3bd
 1673 0835 00       		.byte	0
 1674 0836 08       		.uleb128 0x8
 1675 0837 636E7400 		.ascii	"cnt\000"
 1676 083b 13       		.byte	0x13
 1677 083c 37       		.byte	0x37
 1678 083d 19       		.byte	0x19
 1679 083e 8C010000 		.4byte	0x18c
 1680 0842 08       		.byte	0x8
 1681 0843 00       		.byte	0
 1682 0844 04       		.uleb128 0x4
 1683 0845 1C080000 		.4byte	0x81c
 1684 0849 07       		.uleb128 0x7
 1685 084a A7080000 		.4byte	.LASF120
 1686 084e 10       		.byte	0x10
 1687 084f 14       		.byte	0x14
 1688 0850 39       		.byte	0x39
 1689 0851 08       		.byte	0x8
 1690 0852 7E080000 		.4byte	0x87e
 1691 0856 01       		.uleb128 0x1
 1692 0857 BF030000 		.4byte	.LASF107
 1693 085b 14       		.byte	0x14
 1694 085c 3A       		.byte	0x3a
 1695 085d 19       		.byte	0x19
 1696 085e BD030000 		.4byte	0x3bd
 1697 0862 00       		.byte	0
 1698 0863 01       		.uleb128 0x1
 1699 0864 F9060000 		.4byte	.LASF36
 1700 0868 14       		.byte	0x14
 1701 0869 3C       		.byte	0x3c
 1702 086a 1A       		.byte	0x1a
 1703 086b A6040000 		.4byte	0x4a6
 1704 086f 08       		.byte	0x8
 1705 0870 01       		.uleb128 0x1
 1706 0871 F6000000 		.4byte	.LASF70
 1707 0875 14       		.byte	0x14
 1708 0876 3E       		.byte	0x3e
 1709 0877 1A       		.byte	0x1a
 1710 0878 850B0000 		.4byte	0xb85
ARM GAS  C:\Users\DEVELO~1\AppData\Local\Temp\cc1u2N0m.s 			page 31


 1711 087c 0C       		.byte	0xc
 1712 087d 00       		.byte	0
 1713 087e 04       		.uleb128 0x4
 1714 087f 49080000 		.4byte	0x849
 1715 0883 04       		.uleb128 0x4
 1716 0884 8D020000 		.4byte	0x28d
 1717 0888 04       		.uleb128 0x4
 1718 0889 38010000 		.4byte	0x138
 1719 088d 10       		.uleb128 0x10
 1720 088e 26040000 		.4byte	.LASF121
 1721 0892 10       		.byte	0x10
 1722 0893 0C       		.byte	0xc
 1723 0894 5C01     		.2byte	0x15c
 1724 0896 10       		.byte	0x10
 1725 0897 B6080000 		.4byte	0x8b6
 1726 089b 03       		.uleb128 0x3
 1727 089c C0070000 		.4byte	.LASF111
 1728 08a0 6101     		.2byte	0x161
 1729 08a2 21       		.byte	0x21
 1730 08a3 F6030000 		.4byte	0x3f6
 1731 08a7 00       		.byte	0
 1732 08a8 03       		.uleb128 0x3
 1733 08a9 83050000 		.4byte	.LASF122
 1734 08ad 6501     		.2byte	0x165
 1735 08af 22       		.byte	0x22
 1736 08b0 A6040000 		.4byte	0x4a6
 1737 08b4 0C       		.byte	0xc
 1738 08b5 00       		.byte	0
 1739 08b6 16       		.uleb128 0x16
 1740 08b7 16000000 		.4byte	.LASF123
 1741 08bb 6601     		.2byte	0x166
 1742 08bd 8D080000 		.4byte	0x88d
 1743 08c1 10       		.uleb128 0x10
 1744 08c2 26050000 		.4byte	.LASF124
 1745 08c6 14       		.byte	0x14
 1746 08c7 0C       		.byte	0xc
 1747 08c8 6B01     		.2byte	0x16b
 1748 08ca 10       		.byte	0x10
 1749 08cb 11090000 		.4byte	0x911
 1750 08cf 03       		.uleb128 0x3
 1751 08d0 BA030000 		.4byte	.LASF37
 1752 08d4 6F01     		.2byte	0x16f
 1753 08d6 22       		.byte	0x22
 1754 08d7 C9000000 		.4byte	0xc9
 1755 08db 00       		.byte	0
 1756 08dc 03       		.uleb128 0x3
 1757 08dd C7070000 		.4byte	.LASF125
 1758 08e1 7501     		.2byte	0x175
 1759 08e3 22       		.byte	0x22
 1760 08e4 88080000 		.4byte	0x888
 1761 08e8 04       		.byte	0x4
 1762 08e9 03       		.uleb128 0x3
 1763 08ea 4D080000 		.4byte	.LASF126
 1764 08ee 7901     		.2byte	0x179
 1765 08f0 22       		.byte	0x22
 1766 08f1 88080000 		.4byte	0x888
 1767 08f5 08       		.byte	0x8
ARM GAS  C:\Users\DEVELO~1\AppData\Local\Temp\cc1u2N0m.s 			page 32


 1768 08f6 03       		.uleb128 0x3
 1769 08f7 15030000 		.4byte	.LASF127
 1770 08fb 7F01     		.2byte	0x17f
 1771 08fd 22       		.byte	0x22
 1772 08fe 88080000 		.4byte	0x888
 1773 0902 0C       		.byte	0xc
 1774 0903 03       		.uleb128 0x3
 1775 0904 FE080000 		.4byte	.LASF128
 1776 0908 8301     		.2byte	0x183
 1777 090a 22       		.byte	0x22
 1778 090b 88080000 		.4byte	0x888
 1779 090f 10       		.byte	0x10
 1780 0910 00       		.byte	0
 1781 0911 16       		.uleb128 0x16
 1782 0912 89000000 		.4byte	.LASF129
 1783 0916 8501     		.2byte	0x185
 1784 0918 C1080000 		.4byte	0x8c1
 1785 091c 0F       		.uleb128 0xf
 1786 091d 11090000 		.4byte	0x911
 1787 0921 04       		.uleb128 0x4
 1788 0922 1C090000 		.4byte	0x91c
 1789 0926 10       		.uleb128 0x10
 1790 0927 89060000 		.4byte	.LASF130
 1791 092b 0C       		.byte	0xc
 1792 092c 0C       		.byte	0xc
 1793 092d C901     		.2byte	0x1c9
 1794 092f 10       		.byte	0x10
 1795 0930 5D090000 		.4byte	0x95d
 1796 0934 03       		.uleb128 0x3
 1797 0935 07020000 		.4byte	.LASF39
 1798 0939 CD01     		.2byte	0x1cd
 1799 093b 21       		.byte	0x21
 1800 093c 01070000 		.4byte	0x701
 1801 0940 00       		.byte	0
 1802 0941 03       		.uleb128 0x3
 1803 0942 25030000 		.4byte	.LASF131
 1804 0946 D101     		.2byte	0x1d1
 1805 0948 22       		.byte	0x22
 1806 0949 5D090000 		.4byte	0x95d
 1807 094d 04       		.byte	0x4
 1808 094e 05       		.uleb128 0x5
 1809 094f 746D6300 		.ascii	"tmc\000"
 1810 0953 0C       		.byte	0xc
 1811 0954 D601     		.2byte	0x1d6
 1812 0956 21       		.byte	0x21
 1813 0957 CE060000 		.4byte	0x6ce
 1814 095b 08       		.byte	0x8
 1815 095c 00       		.byte	0
 1816 095d 0B       		.uleb128 0xb
 1817 095e 83080000 		.4byte	0x883
 1818 0962 6D090000 		.4byte	0x96d
 1819 0966 0C       		.uleb128 0xc
 1820 0967 39000000 		.4byte	0x39
 1821 096b 00       		.byte	0
 1822 096c 00       		.byte	0
 1823 096d 16       		.uleb128 0x16
 1824 096e 02040000 		.4byte	.LASF132
ARM GAS  C:\Users\DEVELO~1\AppData\Local\Temp\cc1u2N0m.s 			page 33


 1825 0972 ED01     		.2byte	0x1ed
 1826 0974 26090000 		.4byte	0x926
 1827 0978 28       		.uleb128 0x28
 1828 0979 63683000 		.ascii	"ch0\000"
 1829 097d 01       		.byte	0x1
 1830 097e 4101     		.2byte	0x141
 1831 0980 16       		.byte	0x16
 1832 0981 8D020000 		.4byte	0x28d
 1833 0985 09       		.uleb128 0x9
 1834 0986 2C       		.byte	0x2c
 1835 0987 05       		.byte	0x5
 1836 0988 34       		.byte	0x34
 1837 0989 09       		.byte	0x9
 1838 098a 3C0B0000 		.4byte	0xb3c
 1839 098e 01       		.uleb128 0x1
 1840 098f 51020000 		.4byte	.LASF133
 1841 0993 05       		.byte	0x5
 1842 0994 35       		.byte	0x35
 1843 0995 0D       		.byte	0xd
 1844 0996 3C0B0000 		.4byte	0xb3c
 1845 099a 00       		.byte	0
 1846 099b 01       		.uleb128 0x1
 1847 099c DE020000 		.4byte	.LASF134
 1848 09a0 05       		.byte	0x5
 1849 09a1 36       		.byte	0x36
 1850 09a2 0D       		.byte	0xd
 1851 09a3 D3000000 		.4byte	0xd3
 1852 09a7 04       		.byte	0x4
 1853 09a8 01       		.uleb128 0x1
 1854 09a9 DB030000 		.4byte	.LASF89
 1855 09ad 05       		.byte	0x5
 1856 09ae 37       		.byte	0x37
 1857 09af 0D       		.byte	0xd
 1858 09b0 D3000000 		.4byte	0xd3
 1859 09b4 05       		.byte	0x5
 1860 09b5 01       		.uleb128 0x1
 1861 09b6 96040000 		.4byte	.LASF135
 1862 09ba 05       		.byte	0x5
 1863 09bb 38       		.byte	0x38
 1864 09bc 0D       		.byte	0xd
 1865 09bd DF000000 		.4byte	0xdf
 1866 09c1 06       		.byte	0x6
 1867 09c2 01       		.uleb128 0x1
 1868 09c3 D7070000 		.4byte	.LASF136
 1869 09c7 05       		.byte	0x5
 1870 09c8 39       		.byte	0x39
 1871 09c9 0D       		.byte	0xd
 1872 09ca D3000000 		.4byte	0xd3
 1873 09ce 08       		.byte	0x8
 1874 09cf 01       		.uleb128 0x1
 1875 09d0 D0060000 		.4byte	.LASF137
 1876 09d4 05       		.byte	0x5
 1877 09d5 3A       		.byte	0x3a
 1878 09d6 0D       		.byte	0xd
 1879 09d7 D3000000 		.4byte	0xd3
 1880 09db 09       		.byte	0x9
 1881 09dc 01       		.uleb128 0x1
ARM GAS  C:\Users\DEVELO~1\AppData\Local\Temp\cc1u2N0m.s 			page 34


 1882 09dd FB000000 		.4byte	.LASF138
 1883 09e1 05       		.byte	0x5
 1884 09e2 3B       		.byte	0x3b
 1885 09e3 0D       		.byte	0xd
 1886 09e4 D3000000 		.4byte	0xd3
 1887 09e8 0A       		.byte	0xa
 1888 09e9 01       		.uleb128 0x1
 1889 09ea 27060000 		.4byte	.LASF139
 1890 09ee 05       		.byte	0x5
 1891 09ef 3C       		.byte	0x3c
 1892 09f0 0D       		.byte	0xd
 1893 09f1 D3000000 		.4byte	0xd3
 1894 09f5 0B       		.byte	0xb
 1895 09f6 01       		.uleb128 0x1
 1896 09f7 0E040000 		.4byte	.LASF140
 1897 09fb 05       		.byte	0x5
 1898 09fc 3D       		.byte	0x3d
 1899 09fd 0D       		.byte	0xd
 1900 09fe D3000000 		.4byte	0xd3
 1901 0a02 0C       		.byte	0xc
 1902 0a03 01       		.uleb128 0x1
 1903 0a04 F4040000 		.4byte	.LASF141
 1904 0a08 05       		.byte	0x5
 1905 0a09 3E       		.byte	0x3e
 1906 0a0a 0D       		.byte	0xd
 1907 0a0b D3000000 		.4byte	0xd3
 1908 0a0f 0D       		.byte	0xd
 1909 0a10 01       		.uleb128 0x1
 1910 0a11 ED070000 		.4byte	.LASF142
 1911 0a15 05       		.byte	0x5
 1912 0a16 3F       		.byte	0x3f
 1913 0a17 0D       		.byte	0xd
 1914 0a18 D3000000 		.4byte	0xd3
 1915 0a1c 0E       		.byte	0xe
 1916 0a1d 01       		.uleb128 0x1
 1917 0a1e 40040000 		.4byte	.LASF143
 1918 0a22 05       		.byte	0x5
 1919 0a23 40       		.byte	0x40
 1920 0a24 0D       		.byte	0xd
 1921 0a25 D3000000 		.4byte	0xd3
 1922 0a29 0F       		.byte	0xf
 1923 0a2a 01       		.uleb128 0x1
 1924 0a2b 30060000 		.4byte	.LASF144
 1925 0a2f 05       		.byte	0x5
 1926 0a30 41       		.byte	0x41
 1927 0a31 0D       		.byte	0xd
 1928 0a32 D3000000 		.4byte	0xd3
 1929 0a36 10       		.byte	0x10
 1930 0a37 01       		.uleb128 0x1
 1931 0a38 B0080000 		.4byte	.LASF145
 1932 0a3c 05       		.byte	0x5
 1933 0a3d 42       		.byte	0x42
 1934 0a3e 0D       		.byte	0xd
 1935 0a3f D3000000 		.4byte	0xd3
 1936 0a43 11       		.byte	0x11
 1937 0a44 01       		.uleb128 0x1
 1938 0a45 F4080000 		.4byte	.LASF146
ARM GAS  C:\Users\DEVELO~1\AppData\Local\Temp\cc1u2N0m.s 			page 35


 1939 0a49 05       		.byte	0x5
 1940 0a4a 43       		.byte	0x43
 1941 0a4b 0D       		.byte	0xd
 1942 0a4c D3000000 		.4byte	0xd3
 1943 0a50 12       		.byte	0x12
 1944 0a51 01       		.uleb128 0x1
 1945 0a52 E0030000 		.4byte	.LASF147
 1946 0a56 05       		.byte	0x5
 1947 0a57 44       		.byte	0x44
 1948 0a58 0D       		.byte	0xd
 1949 0a59 D3000000 		.4byte	0xd3
 1950 0a5d 13       		.byte	0x13
 1951 0a5e 01       		.uleb128 0x1
 1952 0a5f 65020000 		.4byte	.LASF148
 1953 0a63 05       		.byte	0x5
 1954 0a64 45       		.byte	0x45
 1955 0a65 0D       		.byte	0xd
 1956 0a66 D3000000 		.4byte	0xd3
 1957 0a6a 14       		.byte	0x14
 1958 0a6b 01       		.uleb128 0x1
 1959 0a6c C7060000 		.4byte	.LASF149
 1960 0a70 05       		.byte	0x5
 1961 0a71 46       		.byte	0x46
 1962 0a72 0D       		.byte	0xd
 1963 0a73 D3000000 		.4byte	0xd3
 1964 0a77 15       		.byte	0x15
 1965 0a78 01       		.uleb128 0x1
 1966 0a79 D1020000 		.4byte	.LASF150
 1967 0a7d 05       		.byte	0x5
 1968 0a7e 47       		.byte	0x47
 1969 0a7f 0D       		.byte	0xd
 1970 0a80 4C0B0000 		.4byte	0xb4c
 1971 0a84 16       		.byte	0x16
 1972 0a85 01       		.uleb128 0x1
 1973 0a86 66080000 		.4byte	.LASF151
 1974 0a8a 05       		.byte	0x5
 1975 0a8b 48       		.byte	0x48
 1976 0a8c 0D       		.byte	0xd
 1977 0a8d D3000000 		.4byte	0xd3
 1978 0a91 1A       		.byte	0x1a
 1979 0a92 01       		.uleb128 0x1
 1980 0a93 27020000 		.4byte	.LASF152
 1981 0a97 05       		.byte	0x5
 1982 0a98 49       		.byte	0x49
 1983 0a99 0D       		.byte	0xd
 1984 0a9a D3000000 		.4byte	0xd3
 1985 0a9e 1B       		.byte	0x1b
 1986 0a9f 01       		.uleb128 0x1
 1987 0aa0 D3080000 		.4byte	.LASF153
 1988 0aa4 05       		.byte	0x5
 1989 0aa5 4A       		.byte	0x4a
 1990 0aa6 0D       		.byte	0xd
 1991 0aa7 D3000000 		.4byte	0xd3
 1992 0aab 1C       		.byte	0x1c
 1993 0aac 01       		.uleb128 0x1
 1994 0aad 85080000 		.4byte	.LASF154
 1995 0ab1 05       		.byte	0x5
ARM GAS  C:\Users\DEVELO~1\AppData\Local\Temp\cc1u2N0m.s 			page 36


 1996 0ab2 4B       		.byte	0x4b
 1997 0ab3 0D       		.byte	0xd
 1998 0ab4 D3000000 		.4byte	0xd3
 1999 0ab8 1D       		.byte	0x1d
 2000 0ab9 01       		.uleb128 0x1
 2001 0aba FE040000 		.4byte	.LASF155
 2002 0abe 05       		.byte	0x5
 2003 0abf 4C       		.byte	0x4c
 2004 0ac0 0D       		.byte	0xd
 2005 0ac1 D3000000 		.4byte	0xd3
 2006 0ac5 1E       		.byte	0x1e
 2007 0ac6 01       		.uleb128 0x1
 2008 0ac7 8B050000 		.4byte	.LASF156
 2009 0acb 05       		.byte	0x5
 2010 0acc 4E       		.byte	0x4e
 2011 0acd 0D       		.byte	0xd
 2012 0ace D3000000 		.4byte	0xd3
 2013 0ad2 1F       		.byte	0x1f
 2014 0ad3 01       		.uleb128 0x1
 2015 0ad4 A8000000 		.4byte	.LASF157
 2016 0ad8 05       		.byte	0x5
 2017 0ad9 4F       		.byte	0x4f
 2018 0ada 0D       		.byte	0xd
 2019 0adb D3000000 		.4byte	0xd3
 2020 0adf 20       		.byte	0x20
 2021 0ae0 01       		.uleb128 0x1
 2022 0ae1 EA050000 		.4byte	.LASF158
 2023 0ae5 05       		.byte	0x5
 2024 0ae6 50       		.byte	0x50
 2025 0ae7 0D       		.byte	0xd
 2026 0ae8 4C0B0000 		.4byte	0xb4c
 2027 0aec 21       		.byte	0x21
 2028 0aed 01       		.uleb128 0x1
 2029 0aee 2B070000 		.4byte	.LASF159
 2030 0af2 05       		.byte	0x5
 2031 0af3 51       		.byte	0x51
 2032 0af4 0D       		.byte	0xd
 2033 0af5 D3000000 		.4byte	0xd3
 2034 0af9 25       		.byte	0x25
 2035 0afa 01       		.uleb128 0x1
 2036 0afb 2A000000 		.4byte	.LASF160
 2037 0aff 05       		.byte	0x5
 2038 0b00 53       		.byte	0x53
 2039 0b01 0D       		.byte	0xd
 2040 0b02 D3000000 		.4byte	0xd3
 2041 0b06 26       		.byte	0x26
 2042 0b07 01       		.uleb128 0x1
 2043 0b08 C5030000 		.4byte	.LASF161
 2044 0b0c 05       		.byte	0x5
 2045 0b0d 54       		.byte	0x54
 2046 0b0e 0D       		.byte	0xd
 2047 0b0f D3000000 		.4byte	0xd3
 2048 0b13 27       		.byte	0x27
 2049 0b14 01       		.uleb128 0x1
 2050 0b15 96020000 		.4byte	.LASF162
 2051 0b19 05       		.byte	0x5
 2052 0b1a 55       		.byte	0x55
ARM GAS  C:\Users\DEVELO~1\AppData\Local\Temp\cc1u2N0m.s 			page 37


 2053 0b1b 0D       		.byte	0xd
 2054 0b1c D3000000 		.4byte	0xd3
 2055 0b20 28       		.byte	0x28
 2056 0b21 01       		.uleb128 0x1
 2057 0b22 0D020000 		.4byte	.LASF163
 2058 0b26 05       		.byte	0x5
 2059 0b27 56       		.byte	0x56
 2060 0b28 0D       		.byte	0xd
 2061 0b29 D3000000 		.4byte	0xd3
 2062 0b2d 29       		.byte	0x29
 2063 0b2e 01       		.uleb128 0x1
 2064 0b2f 00000000 		.4byte	.LASF164
 2065 0b33 05       		.byte	0x5
 2066 0b34 57       		.byte	0x57
 2067 0b35 0D       		.byte	0xd
 2068 0b36 D3000000 		.4byte	0xd3
 2069 0b3a 2A       		.byte	0x2a
 2070 0b3b 00       		.byte	0
 2071 0b3c 0B       		.uleb128 0xb
 2072 0b3d BD000000 		.4byte	0xbd
 2073 0b41 4C0B0000 		.4byte	0xb4c
 2074 0b45 0C       		.uleb128 0xc
 2075 0b46 39000000 		.4byte	0x39
 2076 0b4a 03       		.byte	0x3
 2077 0b4b 00       		.byte	0
 2078 0b4c 0B       		.uleb128 0xb
 2079 0b4d D3000000 		.4byte	0xd3
 2080 0b51 5C0B0000 		.4byte	0xb5c
 2081 0b55 0C       		.uleb128 0xc
 2082 0b56 39000000 		.4byte	0x39
 2083 0b5a 03       		.byte	0x3
 2084 0b5b 00       		.byte	0
 2085 0b5c 02       		.uleb128 0x2
 2086 0b5d CE050000 		.4byte	.LASF165
 2087 0b61 05       		.byte	0x5
 2088 0b62 58       		.byte	0x58
 2089 0b63 03       		.byte	0x3
 2090 0b64 85090000 		.4byte	0x985
 2091 0b68 0F       		.uleb128 0xf
 2092 0b69 5C0B0000 		.4byte	0xb5c
 2093 0b6d 29       		.uleb128 0x29
 2094 0b6e 52030000 		.4byte	.LASF166
 2095 0b72 05       		.byte	0x5
 2096 0b73 7F       		.byte	0x7f
 2097 0b74 1D       		.byte	0x1d
 2098 0b75 680B0000 		.4byte	0xb68
 2099 0b79 02       		.uleb128 0x2
 2100 0b7a E3020000 		.4byte	.LASF167
 2101 0b7e 14       		.byte	0x14
 2102 0b7f 34       		.byte	0x34
 2103 0b80 19       		.byte	0x19
 2104 0b81 49080000 		.4byte	0x849
 2105 0b85 04       		.uleb128 0x4
 2106 0b86 790B0000 		.4byte	0xb79
 2107 0b8a 06       		.uleb128 0x6
 2108 0b8b 01       		.byte	0x1
 2109 0b8c 02       		.byte	0x2
ARM GAS  C:\Users\DEVELO~1\AppData\Local\Temp\cc1u2N0m.s 			page 38


 2110 0b8d 0B060000 		.4byte	.LASF168
 2111 0b91 04       		.uleb128 0x4
 2112 0b92 D3000000 		.4byte	0xd3
 2113 0b96 2A       		.uleb128 0x2a
 2114 0b97 6D0B0000 		.4byte	0xb6d
 2115 0b9b 06       		.byte	0x6
 2116 0b9c 4D       		.byte	0x4d
 2117 0b9d 14       		.byte	0x14
 2118 0b9e 05       		.uleb128 0x5
 2119 0b9f 03       		.byte	0x3
 2120 0ba0 00000000 		.4byte	ch_debug
 2121 0ba4 2B       		.uleb128 0x2b
 2122 0ba5 69040000 		.4byte	.LASF184
 2123 0ba9 15       		.byte	0x15
 2124 0baa 24       		.byte	0x24
 2125 0bab 06       		.byte	0x6
 2126 0bac 26000000 		.4byte	0x26
 2127 0bb0 BF0B0000 		.4byte	0xbbf
 2128 0bb4 17       		.uleb128 0x17
 2129 0bb5 C9000000 		.4byte	0xc9
 2130 0bb9 17       		.uleb128 0x17
 2131 0bba C9000000 		.4byte	0xc9
 2132 0bbe 00       		.byte	0
 2133 0bbf 2C       		.uleb128 0x2c
 2134 0bc0 A6060000 		.4byte	.LASF185
 2135 0bc4 04       		.byte	0x4
 2136 0bc5 3101     		.2byte	0x131
 2137 0bc7 08       		.byte	0x8
 2138 0bc8 D20B0000 		.4byte	0xbd2
 2139 0bcc 17       		.uleb128 0x17
 2140 0bcd A6040000 		.4byte	0x4a6
 2141 0bd1 00       		.byte	0
 2142 0bd2 1B       		.uleb128 0x1b
 2143 0bd3 57010000 		.4byte	.LASF169
 2144 0bd7 1E01     		.2byte	0x11e
 2145 0bd9 A6040000 		.4byte	0x4a6
 2146 0bdd 00000000 		.4byte	.LFB350
 2147 0be1 38000000 		.4byte	.LFE350-.LFB350
 2148 0be5 01       		.uleb128 0x1
 2149 0be6 9C       		.byte	0x9c
 2150 0be7 090C0000 		.4byte	0xc09
 2151 0beb 18       		.uleb128 0x18
 2152 0bec 776100   		.ascii	"wa\000"
 2153 0bef 06       		.byte	0x6
 2154 0bf0 1E01     		.2byte	0x11e
 2155 0bf2 34       		.byte	0x34
 2156 0bf3 88080000 		.4byte	0x888
 2157 0bf7 02       		.uleb128 0x2
 2158 0bf8 91       		.byte	0x91
 2159 0bf9 6C       		.sleb128 -20
 2160 0bfa 1C       		.uleb128 0x1c
 2161 0bfb 63747000 		.ascii	"ctp\000"
 2162 0bff 1F01     		.2byte	0x11f
 2163 0c01 A6040000 		.4byte	0x4a6
 2164 0c05 02       		.uleb128 0x2
 2165 0c06 91       		.byte	0x91
 2166 0c07 74       		.sleb128 -12
ARM GAS  C:\Users\DEVELO~1\AppData\Local\Temp\cc1u2N0m.s 			page 39


 2167 0c08 00       		.byte	0
 2168 0c09 1B       		.uleb128 0x1b
 2169 0c0a 7D020000 		.4byte	.LASF170
 2170 0c0e 0101     		.2byte	0x101
 2171 0c10 A6040000 		.4byte	0x4a6
 2172 0c14 00000000 		.4byte	.LFB349
 2173 0c18 32000000 		.4byte	.LFE349-.LFB349
 2174 0c1c 01       		.uleb128 0x1
 2175 0c1d 9C       		.byte	0x9c
 2176 0c1e 400C0000 		.4byte	0xc40
 2177 0c22 18       		.uleb128 0x18
 2178 0c23 747000   		.ascii	"tp\000"
 2179 0c26 06       		.byte	0x6
 2180 0c27 0101     		.2byte	0x101
 2181 0c29 2E       		.byte	0x2e
 2182 0c2a A6040000 		.4byte	0x4a6
 2183 0c2e 02       		.uleb128 0x2
 2184 0c2f 91       		.byte	0x91
 2185 0c30 6C       		.sleb128 -20
 2186 0c31 1C       		.uleb128 0x1c
 2187 0c32 63747000 		.ascii	"ctp\000"
 2188 0c36 0201     		.2byte	0x102
 2189 0c38 A6040000 		.4byte	0x4a6
 2190 0c3c 02       		.uleb128 0x2
 2191 0c3d 91       		.byte	0x91
 2192 0c3e 74       		.sleb128 -12
 2193 0c3f 00       		.byte	0
 2194 0c40 19       		.uleb128 0x19
 2195 0c41 A6050000 		.4byte	.LASF171
 2196 0c45 E6       		.byte	0xe6
 2197 0c46 A6040000 		.4byte	0x4a6
 2198 0c4a 00000000 		.4byte	.LFB348
 2199 0c4e 40000000 		.4byte	.LFE348-.LFB348
 2200 0c52 01       		.uleb128 0x1
 2201 0c53 9C       		.byte	0x9c
 2202 0c54 760C0000 		.4byte	0xc76
 2203 0c58 2D       		.uleb128 0x2d
 2204 0c59 BA030000 		.4byte	.LASF37
 2205 0c5d 06       		.byte	0x6
 2206 0c5e E6       		.byte	0xe6
 2207 0c5f 2D       		.byte	0x2d
 2208 0c60 C9000000 		.4byte	0xc9
 2209 0c64 02       		.uleb128 0x2
 2210 0c65 91       		.byte	0x91
 2211 0c66 6C       		.sleb128 -20
 2212 0c67 0E       		.uleb128 0xe
 2213 0c68 63747000 		.ascii	"ctp\000"
 2214 0c6c E7       		.byte	0xe7
 2215 0c6d 0D       		.byte	0xd
 2216 0c6e A6040000 		.4byte	0x4a6
 2217 0c72 02       		.uleb128 0x2
 2218 0c73 91       		.byte	0x91
 2219 0c74 74       		.sleb128 -12
 2220 0c75 00       		.byte	0
 2221 0c76 19       		.uleb128 0x19
 2222 0c77 73050000 		.4byte	.LASF172
 2223 0c7b BB       		.byte	0xbb
ARM GAS  C:\Users\DEVELO~1\AppData\Local\Temp\cc1u2N0m.s 			page 40


 2224 0c7c A6040000 		.4byte	0x4a6
 2225 0c80 00000000 		.4byte	.LFB347
 2226 0c84 54000000 		.4byte	.LFE347-.LFB347
 2227 0c88 01       		.uleb128 0x1
 2228 0c89 9C       		.byte	0x9c
 2229 0c8a D80C0000 		.4byte	0xcd8
 2230 0c8e 1D       		.uleb128 0x1d
 2231 0c8f 747000   		.ascii	"tp\000"
 2232 0c92 06       		.byte	0x6
 2233 0c93 BB       		.byte	0xbb
 2234 0c94 25       		.byte	0x25
 2235 0c95 A6040000 		.4byte	0x4a6
 2236 0c99 02       		.uleb128 0x2
 2237 0c9a 91       		.byte	0x91
 2238 0c9b 64       		.sleb128 -28
 2239 0c9c 0E       		.uleb128 0xe
 2240 0c9d 6E747000 		.ascii	"ntp\000"
 2241 0ca1 BC       		.byte	0xbc
 2242 0ca2 0D       		.byte	0xd
 2243 0ca3 A6040000 		.4byte	0x4a6
 2244 0ca7 02       		.uleb128 0x2
 2245 0ca8 91       		.byte	0x91
 2246 0ca9 74       		.sleb128 -12
 2247 0caa 0E       		.uleb128 0xe
 2248 0cab 6E717000 		.ascii	"nqp\000"
 2249 0caf BD       		.byte	0xbd
 2250 0cb0 0F       		.byte	0xf
 2251 0cb1 F1030000 		.4byte	0x3f1
 2252 0cb5 02       		.uleb128 0x2
 2253 0cb6 91       		.byte	0x91
 2254 0cb7 70       		.sleb128 -16
 2255 0cb8 1E       		.uleb128 0x1e
 2256 0cb9 93060000 		.4byte	.LASF176
 2257 0cbd E80C0000 		.4byte	0xce8
 2258 0cc1 2E       		.uleb128 0x2e
 2259 0cc2 20000000 		.4byte	.LBB22
 2260 0cc6 1A000000 		.4byte	.LBE22-.LBB22
 2261 0cca 0E       		.uleb128 0xe
 2262 0ccb 7000     		.ascii	"p\000"
 2263 0ccd C7       		.byte	0xc7
 2264 0cce 0E       		.byte	0xe
 2265 0ccf 910B0000 		.4byte	0xb91
 2266 0cd3 02       		.uleb128 0x2
 2267 0cd4 91       		.byte	0x91
 2268 0cd5 6C       		.sleb128 -20
 2269 0cd6 00       		.byte	0
 2270 0cd7 00       		.byte	0
 2271 0cd8 0B       		.uleb128 0xb
 2272 0cd9 C4000000 		.4byte	0xc4
 2273 0cdd E80C0000 		.4byte	0xce8
 2274 0ce1 0C       		.uleb128 0xc
 2275 0ce2 39000000 		.4byte	0x39
 2276 0ce6 0F       		.byte	0xf
 2277 0ce7 00       		.byte	0
 2278 0ce8 0F       		.uleb128 0xf
 2279 0ce9 D80C0000 		.4byte	0xcd8
 2280 0ced 19       		.uleb128 0x19
ARM GAS  C:\Users\DEVELO~1\AppData\Local\Temp\cc1u2N0m.s 			page 41


 2281 0cee E5000000 		.4byte	.LASF173
 2282 0cf2 9F       		.byte	0x9f
 2283 0cf3 A6040000 		.4byte	0x4a6
 2284 0cf7 00000000 		.4byte	.LFB346
 2285 0cfb 38000000 		.4byte	.LFE346-.LFB346
 2286 0cff 01       		.uleb128 0x1
 2287 0d00 9C       		.byte	0x9c
 2288 0d01 1F0D0000 		.4byte	0xd1f
 2289 0d05 0E       		.uleb128 0xe
 2290 0d06 747000   		.ascii	"tp\000"
 2291 0d09 A0       		.byte	0xa0
 2292 0d0a 0D       		.byte	0xd
 2293 0d0b A6040000 		.4byte	0x4a6
 2294 0d0f 02       		.uleb128 0x2
 2295 0d10 91       		.byte	0x91
 2296 0d11 70       		.sleb128 -16
 2297 0d12 0E       		.uleb128 0xe
 2298 0d13 7000     		.ascii	"p\000"
 2299 0d15 A1       		.byte	0xa1
 2300 0d16 0C       		.byte	0xc
 2301 0d17 910B0000 		.4byte	0xb91
 2302 0d1b 02       		.uleb128 0x2
 2303 0d1c 91       		.byte	0x91
 2304 0d1d 74       		.sleb128 -12
 2305 0d1e 00       		.byte	0
 2306 0d1f 2F       		.uleb128 0x2f
 2307 0d20 FF060000 		.4byte	.LASF174
 2308 0d24 05       		.byte	0x5
 2309 0d25 B9       		.byte	0xb9
 2310 0d26 1B       		.byte	0x1b
 2311 0d27 C9000000 		.4byte	0xc9
 2312 0d2b 00000000 		.4byte	.LFB241
 2313 0d2f 16000000 		.4byte	.LFE241-.LFB241
 2314 0d33 01       		.uleb128 0x1
 2315 0d34 9C       		.byte	0x9c
 2316 0d35 480D0000 		.4byte	0xd48
 2317 0d39 1D       		.uleb128 0x1d
 2318 0d3a 747000   		.ascii	"tp\000"
 2319 0d3d 05       		.byte	0x5
 2320 0d3e B9       		.byte	0xb9
 2321 0d3f 39       		.byte	0x39
 2322 0d40 A6040000 		.4byte	0x4a6
 2323 0d44 02       		.uleb128 0x2
 2324 0d45 91       		.byte	0x91
 2325 0d46 74       		.sleb128 -12
 2326 0d47 00       		.byte	0
 2327 0d48 30       		.uleb128 0x30
 2328 0d49 57060000 		.4byte	.LASF175
 2329 0d4d 04       		.byte	0x4
 2330 0d4e 8201     		.2byte	0x182
 2331 0d50 1B       		.byte	0x1b
 2332 0d51 88080000 		.4byte	0x888
 2333 0d55 00000000 		.4byte	.LFB231
 2334 0d59 16000000 		.4byte	.LFE231-.LFB231
 2335 0d5d 01       		.uleb128 0x1
 2336 0d5e 9C       		.byte	0x9c
 2337 0d5f 730D0000 		.4byte	0xd73
ARM GAS  C:\Users\DEVELO~1\AppData\Local\Temp\cc1u2N0m.s 			page 42


 2338 0d63 18       		.uleb128 0x18
 2339 0d64 747000   		.ascii	"tp\000"
 2340 0d67 04       		.byte	0x4
 2341 0d68 8201     		.2byte	0x182
 2342 0d6a 3A       		.byte	0x3a
 2343 0d6b A6040000 		.4byte	0x4a6
 2344 0d6f 02       		.uleb128 0x2
 2345 0d70 91       		.byte	0x91
 2346 0d71 74       		.sleb128 -12
 2347 0d72 00       		.byte	0
 2348 0d73 1F       		.uleb128 0x1f
 2349 0d74 C7080000 		.4byte	.LASF177
 2350 0d78 A501     		.2byte	0x1a5
 2351 0d7a 00000000 		.4byte	.LFB203
 2352 0d7e 1E000000 		.4byte	.LFE203-.LFB203
 2353 0d82 01       		.uleb128 0x1
 2354 0d83 9C       		.byte	0x9c
 2355 0d84 BC0D0000 		.4byte	0xdbc
 2356 0d88 1E       		.uleb128 0x1e
 2357 0d89 93060000 		.4byte	.LASF176
 2358 0d8d CC0D0000 		.4byte	0xdcc
 2359 0d91 12       		.uleb128 0x12
 2360 0d92 110E0000 		.4byte	0xe11
 2361 0d96 0A000000 		.4byte	.LBB18
 2362 0d9a 0A000000 		.4byte	.LBE18-.LBB18
 2363 0d9e 01       		.byte	0x1
 2364 0d9f B201     		.2byte	0x1b2
 2365 0da1 12       		.uleb128 0x12
 2366 0da2 1F0E0000 		.4byte	0xe1f
 2367 0da6 0A000000 		.4byte	.LBB20
 2368 0daa 08000000 		.4byte	.LBE20-.LBB20
 2369 0dae 03       		.byte	0x3
 2370 0daf 5203     		.2byte	0x352
 2371 0db1 20       		.uleb128 0x20
 2372 0db2 290E0000 		.4byte	0xe29
 2373 0db6 02       		.uleb128 0x2
 2374 0db7 91       		.byte	0x91
 2375 0db8 74       		.sleb128 -12
 2376 0db9 00       		.byte	0
 2377 0dba 00       		.byte	0
 2378 0dbb 00       		.byte	0
 2379 0dbc 0B       		.uleb128 0xb
 2380 0dbd C4000000 		.4byte	0xc4
 2381 0dc1 CC0D0000 		.4byte	0xdcc
 2382 0dc5 0C       		.uleb128 0xc
 2383 0dc6 39000000 		.4byte	0x39
 2384 0dca 0B       		.byte	0xb
 2385 0dcb 00       		.byte	0
 2386 0dcc 0F       		.uleb128 0xf
 2387 0dcd BC0D0000 		.4byte	0xdbc
 2388 0dd1 1F       		.uleb128 0x1f
 2389 0dd2 9C060000 		.4byte	.LASF178
 2390 0dd6 9701     		.2byte	0x197
 2391 0dd8 00000000 		.4byte	.LFB202
 2392 0ddc 1E000000 		.4byte	.LFE202-.LFB202
 2393 0de0 01       		.uleb128 0x1
 2394 0de1 9C       		.byte	0x9c
ARM GAS  C:\Users\DEVELO~1\AppData\Local\Temp\cc1u2N0m.s 			page 43


 2395 0de2 110E0000 		.4byte	0xe11
 2396 0de6 12       		.uleb128 0x12
 2397 0de7 180E0000 		.4byte	0xe18
 2398 0deb 0A000000 		.4byte	.LBB14
 2399 0def 0A000000 		.4byte	.LBE14-.LBB14
 2400 0df3 01       		.byte	0x1
 2401 0df4 9901     		.2byte	0x199
 2402 0df6 12       		.uleb128 0x12
 2403 0df7 1F0E0000 		.4byte	0xe1f
 2404 0dfb 0A000000 		.4byte	.LBB16
 2405 0dff 08000000 		.4byte	.LBE16-.LBB16
 2406 0e03 03       		.byte	0x3
 2407 0e04 3F03     		.2byte	0x33f
 2408 0e06 20       		.uleb128 0x20
 2409 0e07 290E0000 		.4byte	0xe29
 2410 0e0b 02       		.uleb128 0x2
 2411 0e0c 91       		.byte	0x91
 2412 0e0d 74       		.sleb128 -12
 2413 0e0e 00       		.byte	0
 2414 0e0f 00       		.byte	0
 2415 0e10 00       		.byte	0
 2416 0e11 21       		.uleb128 0x21
 2417 0e12 3C020000 		.4byte	.LASF179
 2418 0e16 4F03     		.2byte	0x34f
 2419 0e18 21       		.uleb128 0x21
 2420 0e19 5C080000 		.4byte	.LASF180
 2421 0e1d 3703     		.2byte	0x337
 2422 0e1f 31       		.uleb128 0x31
 2423 0e20 DC040000 		.4byte	.LASF186
 2424 0e24 02       		.byte	0x2
 2425 0e25 EB01     		.2byte	0x1eb
 2426 0e27 1B       		.byte	0x1b
 2427 0e28 03       		.byte	0x3
 2428 0e29 32       		.uleb128 0x32
 2429 0e2a 74010000 		.4byte	.LASF187
 2430 0e2e 02       		.byte	0x2
 2431 0e2f EB01     		.2byte	0x1eb
 2432 0e31 32       		.byte	0x32
 2433 0e32 F7000000 		.4byte	0xf7
 2434 0e36 00       		.byte	0
 2435 0e37 00       		.byte	0
 2436              		.section	.debug_abbrev,"",%progbits
 2437              	.Ldebug_abbrev0:
 2438 0000 01       		.uleb128 0x1
 2439 0001 0D       		.uleb128 0xd
 2440 0002 00       		.byte	0
 2441 0003 03       		.uleb128 0x3
 2442 0004 0E       		.uleb128 0xe
 2443 0005 3A       		.uleb128 0x3a
 2444 0006 0B       		.uleb128 0xb
 2445 0007 3B       		.uleb128 0x3b
 2446 0008 0B       		.uleb128 0xb
 2447 0009 39       		.uleb128 0x39
 2448 000a 0B       		.uleb128 0xb
 2449 000b 49       		.uleb128 0x49
 2450 000c 13       		.uleb128 0x13
 2451 000d 38       		.uleb128 0x38
ARM GAS  C:\Users\DEVELO~1\AppData\Local\Temp\cc1u2N0m.s 			page 44


 2452 000e 0B       		.uleb128 0xb
 2453 000f 00       		.byte	0
 2454 0010 00       		.byte	0
 2455 0011 02       		.uleb128 0x2
 2456 0012 16       		.uleb128 0x16
 2457 0013 00       		.byte	0
 2458 0014 03       		.uleb128 0x3
 2459 0015 0E       		.uleb128 0xe
 2460 0016 3A       		.uleb128 0x3a
 2461 0017 0B       		.uleb128 0xb
 2462 0018 3B       		.uleb128 0x3b
 2463 0019 0B       		.uleb128 0xb
 2464 001a 39       		.uleb128 0x39
 2465 001b 0B       		.uleb128 0xb
 2466 001c 49       		.uleb128 0x49
 2467 001d 13       		.uleb128 0x13
 2468 001e 00       		.byte	0
 2469 001f 00       		.byte	0
 2470 0020 03       		.uleb128 0x3
 2471 0021 0D       		.uleb128 0xd
 2472 0022 00       		.byte	0
 2473 0023 03       		.uleb128 0x3
 2474 0024 0E       		.uleb128 0xe
 2475 0025 3A       		.uleb128 0x3a
 2476 0026 21       		.uleb128 0x21
 2477 0027 0C       		.sleb128 12
 2478 0028 3B       		.uleb128 0x3b
 2479 0029 05       		.uleb128 0x5
 2480 002a 39       		.uleb128 0x39
 2481 002b 0B       		.uleb128 0xb
 2482 002c 49       		.uleb128 0x49
 2483 002d 13       		.uleb128 0x13
 2484 002e 38       		.uleb128 0x38
 2485 002f 0B       		.uleb128 0xb
 2486 0030 00       		.byte	0
 2487 0031 00       		.byte	0
 2488 0032 04       		.uleb128 0x4
 2489 0033 0F       		.uleb128 0xf
 2490 0034 00       		.byte	0
 2491 0035 0B       		.uleb128 0xb
 2492 0036 21       		.uleb128 0x21
 2493 0037 04       		.sleb128 4
 2494 0038 49       		.uleb128 0x49
 2495 0039 13       		.uleb128 0x13
 2496 003a 00       		.byte	0
 2497 003b 00       		.byte	0
 2498 003c 05       		.uleb128 0x5
 2499 003d 0D       		.uleb128 0xd
 2500 003e 00       		.byte	0
 2501 003f 03       		.uleb128 0x3
 2502 0040 08       		.uleb128 0x8
 2503 0041 3A       		.uleb128 0x3a
 2504 0042 0B       		.uleb128 0xb
 2505 0043 3B       		.uleb128 0x3b
 2506 0044 05       		.uleb128 0x5
 2507 0045 39       		.uleb128 0x39
 2508 0046 0B       		.uleb128 0xb
ARM GAS  C:\Users\DEVELO~1\AppData\Local\Temp\cc1u2N0m.s 			page 45


 2509 0047 49       		.uleb128 0x49
 2510 0048 13       		.uleb128 0x13
 2511 0049 38       		.uleb128 0x38
 2512 004a 0B       		.uleb128 0xb
 2513 004b 00       		.byte	0
 2514 004c 00       		.byte	0
 2515 004d 06       		.uleb128 0x6
 2516 004e 24       		.uleb128 0x24
 2517 004f 00       		.byte	0
 2518 0050 0B       		.uleb128 0xb
 2519 0051 0B       		.uleb128 0xb
 2520 0052 3E       		.uleb128 0x3e
 2521 0053 0B       		.uleb128 0xb
 2522 0054 03       		.uleb128 0x3
 2523 0055 0E       		.uleb128 0xe
 2524 0056 00       		.byte	0
 2525 0057 00       		.byte	0
 2526 0058 07       		.uleb128 0x7
 2527 0059 13       		.uleb128 0x13
 2528 005a 01       		.byte	0x1
 2529 005b 03       		.uleb128 0x3
 2530 005c 0E       		.uleb128 0xe
 2531 005d 0B       		.uleb128 0xb
 2532 005e 0B       		.uleb128 0xb
 2533 005f 3A       		.uleb128 0x3a
 2534 0060 0B       		.uleb128 0xb
 2535 0061 3B       		.uleb128 0x3b
 2536 0062 0B       		.uleb128 0xb
 2537 0063 39       		.uleb128 0x39
 2538 0064 0B       		.uleb128 0xb
 2539 0065 01       		.uleb128 0x1
 2540 0066 13       		.uleb128 0x13
 2541 0067 00       		.byte	0
 2542 0068 00       		.byte	0
 2543 0069 08       		.uleb128 0x8
 2544 006a 0D       		.uleb128 0xd
 2545 006b 00       		.byte	0
 2546 006c 03       		.uleb128 0x3
 2547 006d 08       		.uleb128 0x8
 2548 006e 3A       		.uleb128 0x3a
 2549 006f 0B       		.uleb128 0xb
 2550 0070 3B       		.uleb128 0x3b
 2551 0071 0B       		.uleb128 0xb
 2552 0072 39       		.uleb128 0x39
 2553 0073 0B       		.uleb128 0xb
 2554 0074 49       		.uleb128 0x49
 2555 0075 13       		.uleb128 0x13
 2556 0076 38       		.uleb128 0x38
 2557 0077 0B       		.uleb128 0xb
 2558 0078 00       		.byte	0
 2559 0079 00       		.byte	0
 2560 007a 09       		.uleb128 0x9
 2561 007b 13       		.uleb128 0x13
 2562 007c 01       		.byte	0x1
 2563 007d 0B       		.uleb128 0xb
 2564 007e 0B       		.uleb128 0xb
 2565 007f 3A       		.uleb128 0x3a
ARM GAS  C:\Users\DEVELO~1\AppData\Local\Temp\cc1u2N0m.s 			page 46


 2566 0080 0B       		.uleb128 0xb
 2567 0081 3B       		.uleb128 0x3b
 2568 0082 0B       		.uleb128 0xb
 2569 0083 39       		.uleb128 0x39
 2570 0084 0B       		.uleb128 0xb
 2571 0085 01       		.uleb128 0x1
 2572 0086 13       		.uleb128 0x13
 2573 0087 00       		.byte	0
 2574 0088 00       		.byte	0
 2575 0089 0A       		.uleb128 0xa
 2576 008a 0D       		.uleb128 0xd
 2577 008b 00       		.byte	0
 2578 008c 03       		.uleb128 0x3
 2579 008d 0E       		.uleb128 0xe
 2580 008e 3A       		.uleb128 0x3a
 2581 008f 0B       		.uleb128 0xb
 2582 0090 3B       		.uleb128 0x3b
 2583 0091 0B       		.uleb128 0xb
 2584 0092 39       		.uleb128 0x39
 2585 0093 0B       		.uleb128 0xb
 2586 0094 49       		.uleb128 0x49
 2587 0095 13       		.uleb128 0x13
 2588 0096 00       		.byte	0
 2589 0097 00       		.byte	0
 2590 0098 0B       		.uleb128 0xb
 2591 0099 01       		.uleb128 0x1
 2592 009a 01       		.byte	0x1
 2593 009b 49       		.uleb128 0x49
 2594 009c 13       		.uleb128 0x13
 2595 009d 01       		.uleb128 0x1
 2596 009e 13       		.uleb128 0x13
 2597 009f 00       		.byte	0
 2598 00a0 00       		.byte	0
 2599 00a1 0C       		.uleb128 0xc
 2600 00a2 21       		.uleb128 0x21
 2601 00a3 00       		.byte	0
 2602 00a4 49       		.uleb128 0x49
 2603 00a5 13       		.uleb128 0x13
 2604 00a6 2F       		.uleb128 0x2f
 2605 00a7 0B       		.uleb128 0xb
 2606 00a8 00       		.byte	0
 2607 00a9 00       		.byte	0
 2608 00aa 0D       		.uleb128 0xd
 2609 00ab 0D       		.uleb128 0xd
 2610 00ac 00       		.byte	0
 2611 00ad 03       		.uleb128 0x3
 2612 00ae 0E       		.uleb128 0xe
 2613 00af 3A       		.uleb128 0x3a
 2614 00b0 21       		.uleb128 0x21
 2615 00b1 0C       		.sleb128 12
 2616 00b2 3B       		.uleb128 0x3b
 2617 00b3 05       		.uleb128 0x5
 2618 00b4 39       		.uleb128 0x39
 2619 00b5 0B       		.uleb128 0xb
 2620 00b6 49       		.uleb128 0x49
 2621 00b7 13       		.uleb128 0x13
 2622 00b8 00       		.byte	0
ARM GAS  C:\Users\DEVELO~1\AppData\Local\Temp\cc1u2N0m.s 			page 47


 2623 00b9 00       		.byte	0
 2624 00ba 0E       		.uleb128 0xe
 2625 00bb 34       		.uleb128 0x34
 2626 00bc 00       		.byte	0
 2627 00bd 03       		.uleb128 0x3
 2628 00be 08       		.uleb128 0x8
 2629 00bf 3A       		.uleb128 0x3a
 2630 00c0 21       		.uleb128 0x21
 2631 00c1 06       		.sleb128 6
 2632 00c2 3B       		.uleb128 0x3b
 2633 00c3 0B       		.uleb128 0xb
 2634 00c4 39       		.uleb128 0x39
 2635 00c5 0B       		.uleb128 0xb
 2636 00c6 49       		.uleb128 0x49
 2637 00c7 13       		.uleb128 0x13
 2638 00c8 02       		.uleb128 0x2
 2639 00c9 18       		.uleb128 0x18
 2640 00ca 00       		.byte	0
 2641 00cb 00       		.byte	0
 2642 00cc 0F       		.uleb128 0xf
 2643 00cd 26       		.uleb128 0x26
 2644 00ce 00       		.byte	0
 2645 00cf 49       		.uleb128 0x49
 2646 00d0 13       		.uleb128 0x13
 2647 00d1 00       		.byte	0
 2648 00d2 00       		.byte	0
 2649 00d3 10       		.uleb128 0x10
 2650 00d4 13       		.uleb128 0x13
 2651 00d5 01       		.byte	0x1
 2652 00d6 03       		.uleb128 0x3
 2653 00d7 0E       		.uleb128 0xe
 2654 00d8 0B       		.uleb128 0xb
 2655 00d9 0B       		.uleb128 0xb
 2656 00da 3A       		.uleb128 0x3a
 2657 00db 0B       		.uleb128 0xb
 2658 00dc 3B       		.uleb128 0x3b
 2659 00dd 05       		.uleb128 0x5
 2660 00de 39       		.uleb128 0x39
 2661 00df 0B       		.uleb128 0xb
 2662 00e0 01       		.uleb128 0x1
 2663 00e1 13       		.uleb128 0x13
 2664 00e2 00       		.byte	0
 2665 00e3 00       		.byte	0
 2666 00e4 11       		.uleb128 0x11
 2667 00e5 28       		.uleb128 0x28
 2668 00e6 00       		.byte	0
 2669 00e7 03       		.uleb128 0x3
 2670 00e8 0E       		.uleb128 0xe
 2671 00e9 1C       		.uleb128 0x1c
 2672 00ea 0B       		.uleb128 0xb
 2673 00eb 00       		.byte	0
 2674 00ec 00       		.byte	0
 2675 00ed 12       		.uleb128 0x12
 2676 00ee 1D       		.uleb128 0x1d
 2677 00ef 01       		.byte	0x1
 2678 00f0 31       		.uleb128 0x31
 2679 00f1 13       		.uleb128 0x13
ARM GAS  C:\Users\DEVELO~1\AppData\Local\Temp\cc1u2N0m.s 			page 48


 2680 00f2 11       		.uleb128 0x11
 2681 00f3 01       		.uleb128 0x1
 2682 00f4 12       		.uleb128 0x12
 2683 00f5 06       		.uleb128 0x6
 2684 00f6 58       		.uleb128 0x58
 2685 00f7 0B       		.uleb128 0xb
 2686 00f8 59       		.uleb128 0x59
 2687 00f9 05       		.uleb128 0x5
 2688 00fa 57       		.uleb128 0x57
 2689 00fb 21       		.uleb128 0x21
 2690 00fc 03       		.sleb128 3
 2691 00fd 00       		.byte	0
 2692 00fe 00       		.byte	0
 2693 00ff 13       		.uleb128 0x13
 2694 0100 17       		.uleb128 0x17
 2695 0101 01       		.byte	0x1
 2696 0102 0B       		.uleb128 0xb
 2697 0103 0B       		.uleb128 0xb
 2698 0104 3A       		.uleb128 0x3a
 2699 0105 0B       		.uleb128 0xb
 2700 0106 3B       		.uleb128 0x3b
 2701 0107 0B       		.uleb128 0xb
 2702 0108 39       		.uleb128 0x39
 2703 0109 21       		.uleb128 0x21
 2704 010a 03       		.sleb128 3
 2705 010b 01       		.uleb128 0x1
 2706 010c 13       		.uleb128 0x13
 2707 010d 00       		.byte	0
 2708 010e 00       		.byte	0
 2709 010f 14       		.uleb128 0x14
 2710 0110 0D       		.uleb128 0xd
 2711 0111 00       		.byte	0
 2712 0112 03       		.uleb128 0x3
 2713 0113 08       		.uleb128 0x8
 2714 0114 3A       		.uleb128 0x3a
 2715 0115 21       		.uleb128 0x21
 2716 0116 11       		.sleb128 17
 2717 0117 3B       		.uleb128 0x3b
 2718 0118 0B       		.uleb128 0xb
 2719 0119 39       		.uleb128 0x39
 2720 011a 21       		.uleb128 0x21
 2721 011b 07       		.sleb128 7
 2722 011c 49       		.uleb128 0x49
 2723 011d 13       		.uleb128 0x13
 2724 011e 00       		.byte	0
 2725 011f 00       		.byte	0
 2726 0120 15       		.uleb128 0x15
 2727 0121 0D       		.uleb128 0xd
 2728 0122 00       		.byte	0
 2729 0123 03       		.uleb128 0x3
 2730 0124 0E       		.uleb128 0xe
 2731 0125 3A       		.uleb128 0x3a
 2732 0126 21       		.uleb128 0x21
 2733 0127 11       		.sleb128 17
 2734 0128 3B       		.uleb128 0x3b
 2735 0129 0B       		.uleb128 0xb
 2736 012a 39       		.uleb128 0x39
ARM GAS  C:\Users\DEVELO~1\AppData\Local\Temp\cc1u2N0m.s 			page 49


 2737 012b 21       		.uleb128 0x21
 2738 012c 19       		.sleb128 25
 2739 012d 49       		.uleb128 0x49
 2740 012e 13       		.uleb128 0x13
 2741 012f 0D       		.uleb128 0xd
 2742 0130 0B       		.uleb128 0xb
 2743 0131 6B       		.uleb128 0x6b
 2744 0132 0B       		.uleb128 0xb
 2745 0133 00       		.byte	0
 2746 0134 00       		.byte	0
 2747 0135 16       		.uleb128 0x16
 2748 0136 16       		.uleb128 0x16
 2749 0137 00       		.byte	0
 2750 0138 03       		.uleb128 0x3
 2751 0139 0E       		.uleb128 0xe
 2752 013a 3A       		.uleb128 0x3a
 2753 013b 21       		.uleb128 0x21
 2754 013c 0C       		.sleb128 12
 2755 013d 3B       		.uleb128 0x3b
 2756 013e 05       		.uleb128 0x5
 2757 013f 39       		.uleb128 0x39
 2758 0140 21       		.uleb128 0x21
 2759 0141 03       		.sleb128 3
 2760 0142 49       		.uleb128 0x49
 2761 0143 13       		.uleb128 0x13
 2762 0144 00       		.byte	0
 2763 0145 00       		.byte	0
 2764 0146 17       		.uleb128 0x17
 2765 0147 05       		.uleb128 0x5
 2766 0148 00       		.byte	0
 2767 0149 49       		.uleb128 0x49
 2768 014a 13       		.uleb128 0x13
 2769 014b 00       		.byte	0
 2770 014c 00       		.byte	0
 2771 014d 18       		.uleb128 0x18
 2772 014e 05       		.uleb128 0x5
 2773 014f 00       		.byte	0
 2774 0150 03       		.uleb128 0x3
 2775 0151 08       		.uleb128 0x8
 2776 0152 3A       		.uleb128 0x3a
 2777 0153 0B       		.uleb128 0xb
 2778 0154 3B       		.uleb128 0x3b
 2779 0155 05       		.uleb128 0x5
 2780 0156 39       		.uleb128 0x39
 2781 0157 0B       		.uleb128 0xb
 2782 0158 49       		.uleb128 0x49
 2783 0159 13       		.uleb128 0x13
 2784 015a 02       		.uleb128 0x2
 2785 015b 18       		.uleb128 0x18
 2786 015c 00       		.byte	0
 2787 015d 00       		.byte	0
 2788 015e 19       		.uleb128 0x19
 2789 015f 2E       		.uleb128 0x2e
 2790 0160 01       		.byte	0x1
 2791 0161 3F       		.uleb128 0x3f
 2792 0162 19       		.uleb128 0x19
 2793 0163 03       		.uleb128 0x3
ARM GAS  C:\Users\DEVELO~1\AppData\Local\Temp\cc1u2N0m.s 			page 50


 2794 0164 0E       		.uleb128 0xe
 2795 0165 3A       		.uleb128 0x3a
 2796 0166 21       		.uleb128 0x21
 2797 0167 06       		.sleb128 6
 2798 0168 3B       		.uleb128 0x3b
 2799 0169 0B       		.uleb128 0xb
 2800 016a 39       		.uleb128 0x39
 2801 016b 21       		.uleb128 0x21
 2802 016c 0B       		.sleb128 11
 2803 016d 27       		.uleb128 0x27
 2804 016e 19       		.uleb128 0x19
 2805 016f 49       		.uleb128 0x49
 2806 0170 13       		.uleb128 0x13
 2807 0171 11       		.uleb128 0x11
 2808 0172 01       		.uleb128 0x1
 2809 0173 12       		.uleb128 0x12
 2810 0174 06       		.uleb128 0x6
 2811 0175 40       		.uleb128 0x40
 2812 0176 18       		.uleb128 0x18
 2813 0177 7C       		.uleb128 0x7c
 2814 0178 19       		.uleb128 0x19
 2815 0179 01       		.uleb128 0x1
 2816 017a 13       		.uleb128 0x13
 2817 017b 00       		.byte	0
 2818 017c 00       		.byte	0
 2819 017d 1A       		.uleb128 0x1a
 2820 017e 35       		.uleb128 0x35
 2821 017f 00       		.byte	0
 2822 0180 49       		.uleb128 0x49
 2823 0181 13       		.uleb128 0x13
 2824 0182 00       		.byte	0
 2825 0183 00       		.byte	0
 2826 0184 1B       		.uleb128 0x1b
 2827 0185 2E       		.uleb128 0x2e
 2828 0186 01       		.byte	0x1
 2829 0187 3F       		.uleb128 0x3f
 2830 0188 19       		.uleb128 0x19
 2831 0189 03       		.uleb128 0x3
 2832 018a 0E       		.uleb128 0xe
 2833 018b 3A       		.uleb128 0x3a
 2834 018c 21       		.uleb128 0x21
 2835 018d 06       		.sleb128 6
 2836 018e 3B       		.uleb128 0x3b
 2837 018f 05       		.uleb128 0x5
 2838 0190 39       		.uleb128 0x39
 2839 0191 21       		.uleb128 0x21
 2840 0192 0B       		.sleb128 11
 2841 0193 27       		.uleb128 0x27
 2842 0194 19       		.uleb128 0x19
 2843 0195 49       		.uleb128 0x49
 2844 0196 13       		.uleb128 0x13
 2845 0197 11       		.uleb128 0x11
 2846 0198 01       		.uleb128 0x1
 2847 0199 12       		.uleb128 0x12
 2848 019a 06       		.uleb128 0x6
 2849 019b 40       		.uleb128 0x40
 2850 019c 18       		.uleb128 0x18
ARM GAS  C:\Users\DEVELO~1\AppData\Local\Temp\cc1u2N0m.s 			page 51


 2851 019d 7C       		.uleb128 0x7c
 2852 019e 19       		.uleb128 0x19
 2853 019f 01       		.uleb128 0x1
 2854 01a0 13       		.uleb128 0x13
 2855 01a1 00       		.byte	0
 2856 01a2 00       		.byte	0
 2857 01a3 1C       		.uleb128 0x1c
 2858 01a4 34       		.uleb128 0x34
 2859 01a5 00       		.byte	0
 2860 01a6 03       		.uleb128 0x3
 2861 01a7 08       		.uleb128 0x8
 2862 01a8 3A       		.uleb128 0x3a
 2863 01a9 21       		.uleb128 0x21
 2864 01aa 06       		.sleb128 6
 2865 01ab 3B       		.uleb128 0x3b
 2866 01ac 05       		.uleb128 0x5
 2867 01ad 39       		.uleb128 0x39
 2868 01ae 21       		.uleb128 0x21
 2869 01af 0D       		.sleb128 13
 2870 01b0 49       		.uleb128 0x49
 2871 01b1 13       		.uleb128 0x13
 2872 01b2 02       		.uleb128 0x2
 2873 01b3 18       		.uleb128 0x18
 2874 01b4 00       		.byte	0
 2875 01b5 00       		.byte	0
 2876 01b6 1D       		.uleb128 0x1d
 2877 01b7 05       		.uleb128 0x5
 2878 01b8 00       		.byte	0
 2879 01b9 03       		.uleb128 0x3
 2880 01ba 08       		.uleb128 0x8
 2881 01bb 3A       		.uleb128 0x3a
 2882 01bc 0B       		.uleb128 0xb
 2883 01bd 3B       		.uleb128 0x3b
 2884 01be 0B       		.uleb128 0xb
 2885 01bf 39       		.uleb128 0x39
 2886 01c0 0B       		.uleb128 0xb
 2887 01c1 49       		.uleb128 0x49
 2888 01c2 13       		.uleb128 0x13
 2889 01c3 02       		.uleb128 0x2
 2890 01c4 18       		.uleb128 0x18
 2891 01c5 00       		.byte	0
 2892 01c6 00       		.byte	0
 2893 01c7 1E       		.uleb128 0x1e
 2894 01c8 34       		.uleb128 0x34
 2895 01c9 00       		.byte	0
 2896 01ca 03       		.uleb128 0x3
 2897 01cb 0E       		.uleb128 0xe
 2898 01cc 49       		.uleb128 0x49
 2899 01cd 13       		.uleb128 0x13
 2900 01ce 34       		.uleb128 0x34
 2901 01cf 19       		.uleb128 0x19
 2902 01d0 00       		.byte	0
 2903 01d1 00       		.byte	0
 2904 01d2 1F       		.uleb128 0x1f
 2905 01d3 2E       		.uleb128 0x2e
 2906 01d4 01       		.byte	0x1
 2907 01d5 03       		.uleb128 0x3
ARM GAS  C:\Users\DEVELO~1\AppData\Local\Temp\cc1u2N0m.s 			page 52


 2908 01d6 0E       		.uleb128 0xe
 2909 01d7 3A       		.uleb128 0x3a
 2910 01d8 21       		.uleb128 0x21
 2911 01d9 01       		.sleb128 1
 2912 01da 3B       		.uleb128 0x3b
 2913 01db 05       		.uleb128 0x5
 2914 01dc 39       		.uleb128 0x39
 2915 01dd 21       		.uleb128 0x21
 2916 01de 14       		.sleb128 20
 2917 01df 27       		.uleb128 0x27
 2918 01e0 19       		.uleb128 0x19
 2919 01e1 11       		.uleb128 0x11
 2920 01e2 01       		.uleb128 0x1
 2921 01e3 12       		.uleb128 0x12
 2922 01e4 06       		.uleb128 0x6
 2923 01e5 40       		.uleb128 0x40
 2924 01e6 18       		.uleb128 0x18
 2925 01e7 7A       		.uleb128 0x7a
 2926 01e8 19       		.uleb128 0x19
 2927 01e9 01       		.uleb128 0x1
 2928 01ea 13       		.uleb128 0x13
 2929 01eb 00       		.byte	0
 2930 01ec 00       		.byte	0
 2931 01ed 20       		.uleb128 0x20
 2932 01ee 05       		.uleb128 0x5
 2933 01ef 00       		.byte	0
 2934 01f0 31       		.uleb128 0x31
 2935 01f1 13       		.uleb128 0x13
 2936 01f2 02       		.uleb128 0x2
 2937 01f3 18       		.uleb128 0x18
 2938 01f4 00       		.byte	0
 2939 01f5 00       		.byte	0
 2940 01f6 21       		.uleb128 0x21
 2941 01f7 2E       		.uleb128 0x2e
 2942 01f8 00       		.byte	0
 2943 01f9 03       		.uleb128 0x3
 2944 01fa 0E       		.uleb128 0xe
 2945 01fb 3A       		.uleb128 0x3a
 2946 01fc 21       		.uleb128 0x21
 2947 01fd 03       		.sleb128 3
 2948 01fe 3B       		.uleb128 0x3b
 2949 01ff 05       		.uleb128 0x5
 2950 0200 39       		.uleb128 0x39
 2951 0201 21       		.uleb128 0x21
 2952 0202 1B       		.sleb128 27
 2953 0203 27       		.uleb128 0x27
 2954 0204 19       		.uleb128 0x19
 2955 0205 20       		.uleb128 0x20
 2956 0206 21       		.uleb128 0x21
 2957 0207 03       		.sleb128 3
 2958 0208 00       		.byte	0
 2959 0209 00       		.byte	0
 2960 020a 22       		.uleb128 0x22
 2961 020b 11       		.uleb128 0x11
 2962 020c 01       		.byte	0x1
 2963 020d 25       		.uleb128 0x25
 2964 020e 0E       		.uleb128 0xe
ARM GAS  C:\Users\DEVELO~1\AppData\Local\Temp\cc1u2N0m.s 			page 53


 2965 020f 13       		.uleb128 0x13
 2966 0210 0B       		.uleb128 0xb
 2967 0211 03       		.uleb128 0x3
 2968 0212 0E       		.uleb128 0xe
 2969 0213 1B       		.uleb128 0x1b
 2970 0214 0E       		.uleb128 0xe
 2971 0215 55       		.uleb128 0x55
 2972 0216 17       		.uleb128 0x17
 2973 0217 11       		.uleb128 0x11
 2974 0218 01       		.uleb128 0x1
 2975 0219 10       		.uleb128 0x10
 2976 021a 17       		.uleb128 0x17
 2977 021b 00       		.byte	0
 2978 021c 00       		.byte	0
 2979 021d 23       		.uleb128 0x23
 2980 021e 24       		.uleb128 0x24
 2981 021f 00       		.byte	0
 2982 0220 0B       		.uleb128 0xb
 2983 0221 0B       		.uleb128 0xb
 2984 0222 3E       		.uleb128 0x3e
 2985 0223 0B       		.uleb128 0xb
 2986 0224 03       		.uleb128 0x3
 2987 0225 08       		.uleb128 0x8
 2988 0226 00       		.byte	0
 2989 0227 00       		.byte	0
 2990 0228 24       		.uleb128 0x24
 2991 0229 0F       		.uleb128 0xf
 2992 022a 00       		.byte	0
 2993 022b 0B       		.uleb128 0xb
 2994 022c 0B       		.uleb128 0xb
 2995 022d 00       		.byte	0
 2996 022e 00       		.byte	0
 2997 022f 25       		.uleb128 0x25
 2998 0230 13       		.uleb128 0x13
 2999 0231 01       		.byte	0x1
 3000 0232 03       		.uleb128 0x3
 3001 0233 0E       		.uleb128 0xe
 3002 0234 0B       		.uleb128 0xb
 3003 0235 05       		.uleb128 0x5
 3004 0236 3A       		.uleb128 0x3a
 3005 0237 0B       		.uleb128 0xb
 3006 0238 3B       		.uleb128 0x3b
 3007 0239 05       		.uleb128 0x5
 3008 023a 39       		.uleb128 0x39
 3009 023b 0B       		.uleb128 0xb
 3010 023c 01       		.uleb128 0x1
 3011 023d 13       		.uleb128 0x13
 3012 023e 00       		.byte	0
 3013 023f 00       		.byte	0
 3014 0240 26       		.uleb128 0x26
 3015 0241 13       		.uleb128 0x13
 3016 0242 01       		.byte	0x1
 3017 0243 0B       		.uleb128 0xb
 3018 0244 05       		.uleb128 0x5
 3019 0245 3A       		.uleb128 0x3a
 3020 0246 0B       		.uleb128 0xb
 3021 0247 3B       		.uleb128 0x3b
ARM GAS  C:\Users\DEVELO~1\AppData\Local\Temp\cc1u2N0m.s 			page 54


 3022 0248 0B       		.uleb128 0xb
 3023 0249 39       		.uleb128 0x39
 3024 024a 0B       		.uleb128 0xb
 3025 024b 01       		.uleb128 0x1
 3026 024c 13       		.uleb128 0x13
 3027 024d 00       		.byte	0
 3028 024e 00       		.byte	0
 3029 024f 27       		.uleb128 0x27
 3030 0250 04       		.uleb128 0x4
 3031 0251 01       		.byte	0x1
 3032 0252 3E       		.uleb128 0x3e
 3033 0253 0B       		.uleb128 0xb
 3034 0254 0B       		.uleb128 0xb
 3035 0255 0B       		.uleb128 0xb
 3036 0256 49       		.uleb128 0x49
 3037 0257 13       		.uleb128 0x13
 3038 0258 3A       		.uleb128 0x3a
 3039 0259 0B       		.uleb128 0xb
 3040 025a 3B       		.uleb128 0x3b
 3041 025b 0B       		.uleb128 0xb
 3042 025c 39       		.uleb128 0x39
 3043 025d 0B       		.uleb128 0xb
 3044 025e 01       		.uleb128 0x1
 3045 025f 13       		.uleb128 0x13
 3046 0260 00       		.byte	0
 3047 0261 00       		.byte	0
 3048 0262 28       		.uleb128 0x28
 3049 0263 34       		.uleb128 0x34
 3050 0264 00       		.byte	0
 3051 0265 03       		.uleb128 0x3
 3052 0266 08       		.uleb128 0x8
 3053 0267 3A       		.uleb128 0x3a
 3054 0268 0B       		.uleb128 0xb
 3055 0269 3B       		.uleb128 0x3b
 3056 026a 05       		.uleb128 0x5
 3057 026b 39       		.uleb128 0x39
 3058 026c 0B       		.uleb128 0xb
 3059 026d 49       		.uleb128 0x49
 3060 026e 13       		.uleb128 0x13
 3061 026f 3F       		.uleb128 0x3f
 3062 0270 19       		.uleb128 0x19
 3063 0271 3C       		.uleb128 0x3c
 3064 0272 19       		.uleb128 0x19
 3065 0273 00       		.byte	0
 3066 0274 00       		.byte	0
 3067 0275 29       		.uleb128 0x29
 3068 0276 34       		.uleb128 0x34
 3069 0277 00       		.byte	0
 3070 0278 03       		.uleb128 0x3
 3071 0279 0E       		.uleb128 0xe
 3072 027a 3A       		.uleb128 0x3a
 3073 027b 0B       		.uleb128 0xb
 3074 027c 3B       		.uleb128 0x3b
 3075 027d 0B       		.uleb128 0xb
 3076 027e 39       		.uleb128 0x39
 3077 027f 0B       		.uleb128 0xb
 3078 0280 49       		.uleb128 0x49
ARM GAS  C:\Users\DEVELO~1\AppData\Local\Temp\cc1u2N0m.s 			page 55


 3079 0281 13       		.uleb128 0x13
 3080 0282 3F       		.uleb128 0x3f
 3081 0283 19       		.uleb128 0x19
 3082 0284 3C       		.uleb128 0x3c
 3083 0285 19       		.uleb128 0x19
 3084 0286 00       		.byte	0
 3085 0287 00       		.byte	0
 3086 0288 2A       		.uleb128 0x2a
 3087 0289 34       		.uleb128 0x34
 3088 028a 00       		.byte	0
 3089 028b 47       		.uleb128 0x47
 3090 028c 13       		.uleb128 0x13
 3091 028d 3A       		.uleb128 0x3a
 3092 028e 0B       		.uleb128 0xb
 3093 028f 3B       		.uleb128 0x3b
 3094 0290 0B       		.uleb128 0xb
 3095 0291 39       		.uleb128 0x39
 3096 0292 0B       		.uleb128 0xb
 3097 0293 02       		.uleb128 0x2
 3098 0294 18       		.uleb128 0x18
 3099 0295 00       		.byte	0
 3100 0296 00       		.byte	0
 3101 0297 2B       		.uleb128 0x2b
 3102 0298 2E       		.uleb128 0x2e
 3103 0299 01       		.byte	0x1
 3104 029a 3F       		.uleb128 0x3f
 3105 029b 19       		.uleb128 0x19
 3106 029c 03       		.uleb128 0x3
 3107 029d 0E       		.uleb128 0xe
 3108 029e 3A       		.uleb128 0x3a
 3109 029f 0B       		.uleb128 0xb
 3110 02a0 3B       		.uleb128 0x3b
 3111 02a1 0B       		.uleb128 0xb
 3112 02a2 39       		.uleb128 0x39
 3113 02a3 0B       		.uleb128 0xb
 3114 02a4 27       		.uleb128 0x27
 3115 02a5 19       		.uleb128 0x19
 3116 02a6 49       		.uleb128 0x49
 3117 02a7 13       		.uleb128 0x13
 3118 02a8 3C       		.uleb128 0x3c
 3119 02a9 19       		.uleb128 0x19
 3120 02aa 01       		.uleb128 0x1
 3121 02ab 13       		.uleb128 0x13
 3122 02ac 00       		.byte	0
 3123 02ad 00       		.byte	0
 3124 02ae 2C       		.uleb128 0x2c
 3125 02af 2E       		.uleb128 0x2e
 3126 02b0 01       		.byte	0x1
 3127 02b1 3F       		.uleb128 0x3f
 3128 02b2 19       		.uleb128 0x19
 3129 02b3 03       		.uleb128 0x3
 3130 02b4 0E       		.uleb128 0xe
 3131 02b5 3A       		.uleb128 0x3a
 3132 02b6 0B       		.uleb128 0xb
 3133 02b7 3B       		.uleb128 0x3b
 3134 02b8 05       		.uleb128 0x5
 3135 02b9 39       		.uleb128 0x39
ARM GAS  C:\Users\DEVELO~1\AppData\Local\Temp\cc1u2N0m.s 			page 56


 3136 02ba 0B       		.uleb128 0xb
 3137 02bb 27       		.uleb128 0x27
 3138 02bc 19       		.uleb128 0x19
 3139 02bd 3C       		.uleb128 0x3c
 3140 02be 19       		.uleb128 0x19
 3141 02bf 01       		.uleb128 0x1
 3142 02c0 13       		.uleb128 0x13
 3143 02c1 00       		.byte	0
 3144 02c2 00       		.byte	0
 3145 02c3 2D       		.uleb128 0x2d
 3146 02c4 05       		.uleb128 0x5
 3147 02c5 00       		.byte	0
 3148 02c6 03       		.uleb128 0x3
 3149 02c7 0E       		.uleb128 0xe
 3150 02c8 3A       		.uleb128 0x3a
 3151 02c9 0B       		.uleb128 0xb
 3152 02ca 3B       		.uleb128 0x3b
 3153 02cb 0B       		.uleb128 0xb
 3154 02cc 39       		.uleb128 0x39
 3155 02cd 0B       		.uleb128 0xb
 3156 02ce 49       		.uleb128 0x49
 3157 02cf 13       		.uleb128 0x13
 3158 02d0 02       		.uleb128 0x2
 3159 02d1 18       		.uleb128 0x18
 3160 02d2 00       		.byte	0
 3161 02d3 00       		.byte	0
 3162 02d4 2E       		.uleb128 0x2e
 3163 02d5 0B       		.uleb128 0xb
 3164 02d6 01       		.byte	0x1
 3165 02d7 11       		.uleb128 0x11
 3166 02d8 01       		.uleb128 0x1
 3167 02d9 12       		.uleb128 0x12
 3168 02da 06       		.uleb128 0x6
 3169 02db 00       		.byte	0
 3170 02dc 00       		.byte	0
 3171 02dd 2F       		.uleb128 0x2f
 3172 02de 2E       		.uleb128 0x2e
 3173 02df 01       		.byte	0x1
 3174 02e0 03       		.uleb128 0x3
 3175 02e1 0E       		.uleb128 0xe
 3176 02e2 3A       		.uleb128 0x3a
 3177 02e3 0B       		.uleb128 0xb
 3178 02e4 3B       		.uleb128 0x3b
 3179 02e5 0B       		.uleb128 0xb
 3180 02e6 39       		.uleb128 0x39
 3181 02e7 0B       		.uleb128 0xb
 3182 02e8 27       		.uleb128 0x27
 3183 02e9 19       		.uleb128 0x19
 3184 02ea 49       		.uleb128 0x49
 3185 02eb 13       		.uleb128 0x13
 3186 02ec 11       		.uleb128 0x11
 3187 02ed 01       		.uleb128 0x1
 3188 02ee 12       		.uleb128 0x12
 3189 02ef 06       		.uleb128 0x6
 3190 02f0 40       		.uleb128 0x40
 3191 02f1 18       		.uleb128 0x18
 3192 02f2 7A       		.uleb128 0x7a
ARM GAS  C:\Users\DEVELO~1\AppData\Local\Temp\cc1u2N0m.s 			page 57


 3193 02f3 19       		.uleb128 0x19
 3194 02f4 01       		.uleb128 0x1
 3195 02f5 13       		.uleb128 0x13
 3196 02f6 00       		.byte	0
 3197 02f7 00       		.byte	0
 3198 02f8 30       		.uleb128 0x30
 3199 02f9 2E       		.uleb128 0x2e
 3200 02fa 01       		.byte	0x1
 3201 02fb 03       		.uleb128 0x3
 3202 02fc 0E       		.uleb128 0xe
 3203 02fd 3A       		.uleb128 0x3a
 3204 02fe 0B       		.uleb128 0xb
 3205 02ff 3B       		.uleb128 0x3b
 3206 0300 05       		.uleb128 0x5
 3207 0301 39       		.uleb128 0x39
 3208 0302 0B       		.uleb128 0xb
 3209 0303 27       		.uleb128 0x27
 3210 0304 19       		.uleb128 0x19
 3211 0305 49       		.uleb128 0x49
 3212 0306 13       		.uleb128 0x13
 3213 0307 11       		.uleb128 0x11
 3214 0308 01       		.uleb128 0x1
 3215 0309 12       		.uleb128 0x12
 3216 030a 06       		.uleb128 0x6
 3217 030b 40       		.uleb128 0x40
 3218 030c 18       		.uleb128 0x18
 3219 030d 7A       		.uleb128 0x7a
 3220 030e 19       		.uleb128 0x19
 3221 030f 01       		.uleb128 0x1
 3222 0310 13       		.uleb128 0x13
 3223 0311 00       		.byte	0
 3224 0312 00       		.byte	0
 3225 0313 31       		.uleb128 0x31
 3226 0314 2E       		.uleb128 0x2e
 3227 0315 01       		.byte	0x1
 3228 0316 03       		.uleb128 0x3
 3229 0317 0E       		.uleb128 0xe
 3230 0318 3A       		.uleb128 0x3a
 3231 0319 0B       		.uleb128 0xb
 3232 031a 3B       		.uleb128 0x3b
 3233 031b 05       		.uleb128 0x5
 3234 031c 39       		.uleb128 0x39
 3235 031d 0B       		.uleb128 0xb
 3236 031e 27       		.uleb128 0x27
 3237 031f 19       		.uleb128 0x19
 3238 0320 20       		.uleb128 0x20
 3239 0321 0B       		.uleb128 0xb
 3240 0322 00       		.byte	0
 3241 0323 00       		.byte	0
 3242 0324 32       		.uleb128 0x32
 3243 0325 05       		.uleb128 0x5
 3244 0326 00       		.byte	0
 3245 0327 03       		.uleb128 0x3
 3246 0328 0E       		.uleb128 0xe
 3247 0329 3A       		.uleb128 0x3a
 3248 032a 0B       		.uleb128 0xb
 3249 032b 3B       		.uleb128 0x3b
ARM GAS  C:\Users\DEVELO~1\AppData\Local\Temp\cc1u2N0m.s 			page 58


 3250 032c 05       		.uleb128 0x5
 3251 032d 39       		.uleb128 0x39
 3252 032e 0B       		.uleb128 0xb
 3253 032f 49       		.uleb128 0x49
 3254 0330 13       		.uleb128 0x13
 3255 0331 00       		.byte	0
 3256 0332 00       		.byte	0
 3257 0333 00       		.byte	0
 3258              		.section	.debug_aranges,"",%progbits
 3259 0000 5C000000 		.4byte	0x5c
 3260 0004 0200     		.2byte	0x2
 3261 0006 00000000 		.4byte	.Ldebug_info0
 3262 000a 04       		.byte	0x4
 3263 000b 00       		.byte	0
 3264 000c 0000     		.2byte	0
 3265 000e 0000     		.2byte	0
 3266 0010 00000000 		.4byte	.LFB202
 3267 0014 1E000000 		.4byte	.LFE202-.LFB202
 3268 0018 00000000 		.4byte	.LFB203
 3269 001c 1E000000 		.4byte	.LFE203-.LFB203
 3270 0020 00000000 		.4byte	.LFB231
 3271 0024 16000000 		.4byte	.LFE231-.LFB231
 3272 0028 00000000 		.4byte	.LFB241
 3273 002c 16000000 		.4byte	.LFE241-.LFB241
 3274 0030 00000000 		.4byte	.LFB346
 3275 0034 38000000 		.4byte	.LFE346-.LFB346
 3276 0038 00000000 		.4byte	.LFB347
 3277 003c 54000000 		.4byte	.LFE347-.LFB347
 3278 0040 00000000 		.4byte	.LFB348
 3279 0044 40000000 		.4byte	.LFE348-.LFB348
 3280 0048 00000000 		.4byte	.LFB349
 3281 004c 32000000 		.4byte	.LFE349-.LFB349
 3282 0050 00000000 		.4byte	.LFB350
 3283 0054 38000000 		.4byte	.LFE350-.LFB350
 3284 0058 00000000 		.4byte	0
 3285 005c 00000000 		.4byte	0
 3286              		.section	.debug_rnglists,"",%progbits
 3287              	.Ldebug_ranges0:
 3288 0000 3F000000 		.4byte	.Ldebug_ranges3-.Ldebug_ranges2
 3289              	.Ldebug_ranges2:
 3290 0004 0500     		.2byte	0x5
 3291 0006 04       		.byte	0x4
 3292 0007 00       		.byte	0
 3293 0008 00000000 		.4byte	0
 3294              	.LLRL0:
 3295 000c 07       		.byte	0x7
 3296 000d 00000000 		.4byte	.LFB202
 3297 0011 1E       		.uleb128 .LFE202-.LFB202
 3298 0012 07       		.byte	0x7
 3299 0013 00000000 		.4byte	.LFB203
 3300 0017 1E       		.uleb128 .LFE203-.LFB203
 3301 0018 07       		.byte	0x7
 3302 0019 00000000 		.4byte	.LFB231
 3303 001d 16       		.uleb128 .LFE231-.LFB231
 3304 001e 07       		.byte	0x7
 3305 001f 00000000 		.4byte	.LFB241
 3306 0023 16       		.uleb128 .LFE241-.LFB241
ARM GAS  C:\Users\DEVELO~1\AppData\Local\Temp\cc1u2N0m.s 			page 59


 3307 0024 07       		.byte	0x7
 3308 0025 00000000 		.4byte	.LFB346
 3309 0029 38       		.uleb128 .LFE346-.LFB346
 3310 002a 07       		.byte	0x7
 3311 002b 00000000 		.4byte	.LFB347
 3312 002f 54       		.uleb128 .LFE347-.LFB347
 3313 0030 07       		.byte	0x7
 3314 0031 00000000 		.4byte	.LFB348
 3315 0035 40       		.uleb128 .LFE348-.LFB348
 3316 0036 07       		.byte	0x7
 3317 0037 00000000 		.4byte	.LFB349
 3318 003b 32       		.uleb128 .LFE349-.LFB349
 3319 003c 07       		.byte	0x7
 3320 003d 00000000 		.4byte	.LFB350
 3321 0041 38       		.uleb128 .LFE350-.LFB350
 3322 0042 00       		.byte	0
 3323              	.Ldebug_ranges3:
 3324              		.section	.debug_line,"",%progbits
 3325              	.Ldebug_line0:
 3326 0000 88040000 		.section	.debug_str,"MS",%progbits,1
 3326      03001D03 
 3326      00000201 
 3326      FB0E0D00 
 3326      01010101 
 3327              	.LASF164:
 3328 0000 6F66665F 		.ascii	"off_inst_rfcu\000"
 3328      696E7374 
 3328      5F726663 
 3328      7500
 3329              	.LASF54:
 3330 000e 636F7265 		.ascii	"core_id\000"
 3330      5F696400 
 3331              	.LASF123:
 3332 0016 72656164 		.ascii	"ready_list_t\000"
 3332      795F6C69 
 3332      73745F74 
 3332      00
 3333              	.LASF4:
 3334 0023 73697A65 		.ascii	"size_t\000"
 3334      5F7400
 3335              	.LASF160:
 3336 002a 6F66665F 		.ascii	"off_inst_rlist\000"
 3336      696E7374 
 3336      5F726C69 
 3336      737400
 3337              	.LASF79:
 3338 0039 64656C74 		.ascii	"delta\000"
 3338      6100
 3339              	.LASF112:
 3340 003f 7264796D 		.ascii	"rdymsg\000"
 3340      736700
 3341              	.LASF55:
 3342 0046 72666375 		.ascii	"rfcu\000"
 3342      00
 3343              	.LASF5:
 3344 004b 5F5F7569 		.ascii	"__uint8_t\000"
 3344      6E74385F 
ARM GAS  C:\Users\DEVELO~1\AppData\Local\Temp\cc1u2N0m.s 			page 60


 3344      7400
 3345              	.LASF73:
 3346 0055 70726576 		.ascii	"prev\000"
 3346      00
 3347              	.LASF92:
 3348 005a 706F7274 		.ascii	"port_intctx\000"
 3348      5F696E74 
 3348      63747800 
 3349              	.LASF52:
 3350 0066 76746C69 		.ascii	"vtlist\000"
 3350      737400
 3351              	.LASF84:
 3352 006d 74797065 		.ascii	"type\000"
 3352      00
 3353              	.LASF11:
 3354 0072 6C6F6E67 		.ascii	"long int\000"
 3354      20696E74 
 3354      00
 3355              	.LASF87:
 3356 007b 74726163 		.ascii	"trace_event_t\000"
 3356      655F6576 
 3356      656E745F 
 3356      7400
 3357              	.LASF129:
 3358 0089 6F735F69 		.ascii	"os_instance_config_t\000"
 3358      6E737461 
 3358      6E63655F 
 3358      636F6E66 
 3358      69675F74 
 3359              	.LASF88:
 3360 009e 73757370 		.ascii	"suspended\000"
 3360      656E6465 
 3360      6400
 3361              	.LASF157:
 3362 00a8 6F66665F 		.ascii	"off_sys_rfcu\000"
 3362      7379735F 
 3362      72666375 
 3362      00
 3363              	.LASF82:
 3364 00b5 68616C74 		.ascii	"halt\000"
 3364      00
 3365              	.LASF98:
 3366 00ba 63685F73 		.ascii	"ch_sys_running\000"
 3366      79735F72 
 3366      756E6E69 
 3366      6E6700
 3367              	.LASF113:
 3368 00c9 65786974 		.ascii	"exitcode\000"
 3368      636F6465 
 3368      00
 3369              	.LASF57:
 3370 00d2 6D61696E 		.ascii	"mainthread\000"
 3370      74687265 
 3370      616400
 3371              	.LASF115:
 3372 00dd 73656E74 		.ascii	"sentmsg\000"
 3372      6D736700 
ARM GAS  C:\Users\DEVELO~1\AppData\Local\Temp\cc1u2N0m.s 			page 61


 3373              	.LASF173:
 3374 00e5 63685265 		.ascii	"chRegFirstThread\000"
 3374      67466972 
 3374      73745468 
 3374      72656164 
 3374      00
 3375              	.LASF70:
 3376 00f6 6E657874 		.ascii	"next\000"
 3376      00
 3377              	.LASF138:
 3378 00fb 74687265 		.ascii	"threadsize\000"
 3378      61647369 
 3378      7A6500
 3379              	.LASF1:
 3380 0106 6C6F6E67 		.ascii	"long long int\000"
 3380      206C6F6E 
 3380      6720696E 
 3380      7400
 3381              	.LASF3:
 3382 0114 7369676E 		.ascii	"signed char\000"
 3382      65642063 
 3382      68617200 
 3383              	.LASF13:
 3384 0120 6C6F6E67 		.ascii	"long unsigned int\000"
 3384      20756E73 
 3384      69676E65 
 3384      6420696E 
 3384      7400
 3385              	.LASF78:
 3386 0132 63685F64 		.ascii	"ch_delta_list\000"
 3386      656C7461 
 3386      5F6C6973 
 3386      7400
 3387              	.LASF15:
 3388 0140 6C6F6E67 		.ascii	"long long unsigned int\000"
 3388      206C6F6E 
 3388      6720756E 
 3388      7369676E 
 3388      65642069 
 3389              	.LASF169:
 3390 0157 63685265 		.ascii	"chRegFindThreadByWorkingArea\000"
 3390      6746696E 
 3390      64546872 
 3390      65616442 
 3390      79576F72 
 3391              	.LASF187:
 3392 0174 62617365 		.ascii	"basePri\000"
 3392      50726900 
 3393              	.LASF181:
 3394 017c 474E5520 		.ascii	"GNU C17 11.3.1 20220712 -mcpu=cortex-m7 -mthumb -mf"
 3394      43313720 
 3394      31312E33 
 3394      2E312032 
 3394      30323230 
 3395 01af 6C6F6174 		.ascii	"loat-abi=soft -march=armv7e-m -ggdb -O0 -ffunction-"
 3395      2D616269 
 3395      3D736F66 
ARM GAS  C:\Users\DEVELO~1\AppData\Local\Temp\cc1u2N0m.s 			page 62


 3395      74202D6D 
 3395      61726368 
 3396 01e2 73656374 		.ascii	"sections -fdata-sections -fno-common\000"
 3396      696F6E73 
 3396      202D6664 
 3396      6174612D 
 3396      73656374 
 3397              	.LASF39:
 3398 0207 73746174 		.ascii	"state\000"
 3398      6500
 3399              	.LASF163:
 3400 020d 6F66665F 		.ascii	"off_inst_core_id\000"
 3400      696E7374 
 3400      5F636F72 
 3400      655F6964 
 3400      00
 3401              	.LASF27:
 3402 021e 74737461 		.ascii	"tstate_t\000"
 3402      74655F74 
 3402      00
 3403              	.LASF152:
 3404 0227 696E7465 		.ascii	"intervalsize\000"
 3404      7276616C 
 3404      73697A65 
 3404      00
 3405              	.LASF60:
 3406 0234 63685F72 		.ascii	"ch_rfcu\000"
 3406      66637500 
 3407              	.LASF179:
 3408 023c 706F7274 		.ascii	"port_unlock\000"
 3408      5F756E6C 
 3408      6F636B00 
 3409              	.LASF72:
 3410 0248 63685F71 		.ascii	"ch_queue\000"
 3410      75657565 
 3410      00
 3411              	.LASF133:
 3412 0251 6964656E 		.ascii	"identifier\000"
 3412      74696669 
 3412      657200
 3413              	.LASF18:
 3414 025c 75696E74 		.ascii	"uint16_t\000"
 3414      31365F74 
 3414      00
 3415              	.LASF148:
 3416 0265 6F66665F 		.ascii	"off_preempt\000"
 3416      70726565 
 3416      6D707400 
 3417              	.LASF106:
 3418 0271 63685F72 		.ascii	"ch_registry\000"
 3418      65676973 
 3418      74727900 
 3419              	.LASF170:
 3420 027d 63685265 		.ascii	"chRegFindThreadByPointer\000"
 3420      6746696E 
 3420      64546872 
 3420      65616442 
ARM GAS  C:\Users\DEVELO~1\AppData\Local\Temp\cc1u2N0m.s 			page 63


 3420      79506F69 
 3421              	.LASF162:
 3422 0296 6F66665F 		.ascii	"off_inst_reglist\000"
 3422      696E7374 
 3422      5F726567 
 3422      6C697374 
 3422      00
 3423              	.LASF12:
 3424 02a7 5F5F7569 		.ascii	"__uint32_t\000"
 3424      6E743332 
 3424      5F7400
 3425              	.LASF61:
 3426 02b2 6D61736B 		.ascii	"mask\000"
 3426      00
 3427              	.LASF71:
 3428 02b7 63685F71 		.ascii	"ch_queue_t\000"
 3428      75657565 
 3428      5F7400
 3429              	.LASF94:
 3430 02c2 6F666673 		.ascii	"offset\000"
 3430      657400
 3431              	.LASF42:
 3432 02c9 77616974 		.ascii	"waiting\000"
 3432      696E6700 
 3433              	.LASF150:
 3434 02d1 6F66665F 		.ascii	"off_reserved\000"
 3434      72657365 
 3434      72766564 
 3434      00
 3435              	.LASF134:
 3436 02de 7A65726F 		.ascii	"zero\000"
 3436      00
 3437              	.LASF167:
 3438 02e3 6D757465 		.ascii	"mutex_t\000"
 3438      785F7400 
 3439              	.LASF67:
 3440 02eb 73797369 		.ascii	"sysinterval_t\000"
 3440      6E746572 
 3440      76616C5F 
 3440      7400
 3441              	.LASF32:
 3442 02f9 636E745F 		.ascii	"cnt_t\000"
 3442      7400
 3443              	.LASF43:
 3444 02ff 6D736771 		.ascii	"msgqueue\000"
 3444      75657565 
 3444      00
 3445              	.LASF0:
 3446 0308 756E7369 		.ascii	"unsigned int\000"
 3446      676E6564 
 3446      20696E74 
 3446      00
 3447              	.LASF127:
 3448 0315 69646C65 		.ascii	"idlethread_base\000"
 3448      74687265 
 3448      61645F62 
 3448      61736500 
ARM GAS  C:\Users\DEVELO~1\AppData\Local\Temp\cc1u2N0m.s 			page 64


 3449              	.LASF131:
 3450 0325 696E7374 		.ascii	"instances\000"
 3450      616E6365 
 3450      7300
 3451              	.LASF116:
 3452 032f 77747365 		.ascii	"wtsemp\000"
 3452      6D7000
 3453              	.LASF65:
 3454 0336 73797374 		.ascii	"system_debug_t\000"
 3454      656D5F64 
 3454      65627567 
 3454      5F7400
 3455              	.LASF114:
 3456 0345 77747472 		.ascii	"wttrp\000"
 3456      7000
 3457              	.LASF35:
 3458 034b 72717565 		.ascii	"rqueue\000"
 3458      756500
 3459              	.LASF166:
 3460 0352 63685F64 		.ascii	"ch_debug\000"
 3460      65627567 
 3460      00
 3461              	.LASF183:
 3462 035b 433A5C50 		.ascii	"C:\\PROJET\\ChibiOS project\\ChibiOS_21.11.4\\demos"
 3462      524F4A45 
 3462      545C4368 
 3462      6962694F 
 3462      53207072 
 3463 038a 5C53544D 		.ascii	"\\STM32\\RT-STM32H743ZI_REV_XY-NUCLEO144_Quartz8M\000"
 3463      33325C52 
 3463      542D5354 
 3463      4D333248 
 3463      3734335A 
 3464              	.LASF37:
 3465 03ba 6E616D65 		.ascii	"name\000"
 3465      00
 3466              	.LASF107:
 3467 03bf 71756575 		.ascii	"queue\000"
 3467      6500
 3468              	.LASF161:
 3469 03c5 6F66665F 		.ascii	"off_inst_vtlist\000"
 3469      696E7374 
 3469      5F76746C 
 3469      69737400 
 3470              	.LASF47:
 3471 03d5 6D706F6F 		.ascii	"mpool\000"
 3471      6C00
 3472              	.LASF89:
 3473 03db 73697A65 		.ascii	"size\000"
 3473      00
 3474              	.LASF147:
 3475 03e0 6F66665F 		.ascii	"off_refs\000"
 3475      72656673 
 3475      00
 3476              	.LASF49:
 3477 03e9 63685F74 		.ascii	"ch_thread\000"
 3477      68726561 
ARM GAS  C:\Users\DEVELO~1\AppData\Local\Temp\cc1u2N0m.s 			page 65


 3477      6400
 3478              	.LASF30:
 3479 03f3 6D73675F 		.ascii	"msg_t\000"
 3479      7400
 3480              	.LASF44:
 3481 03f9 6570656E 		.ascii	"epending\000"
 3481      64696E67 
 3481      00
 3482              	.LASF132:
 3483 0402 63685F73 		.ascii	"ch_system_t\000"
 3483      79737465 
 3483      6D5F7400 
 3484              	.LASF140:
 3485 040e 6F66665F 		.ascii	"off_ctx\000"
 3485      63747800 
 3486              	.LASF26:
 3487 0416 746D6F64 		.ascii	"tmode_t\000"
 3487      655F7400 
 3488              	.LASF69:
 3489 041e 63685F6C 		.ascii	"ch_list\000"
 3489      69737400 
 3490              	.LASF121:
 3491 0426 63685F72 		.ascii	"ch_ready_list\000"
 3491      65616479 
 3491      5F6C6973 
 3491      7400
 3492              	.LASF31:
 3493 0434 6576656E 		.ascii	"eventmask_t\000"
 3493      746D6173 
 3493      6B5F7400 
 3494              	.LASF143:
 3495 0440 6F66665F 		.ascii	"off_name\000"
 3495      6E616D65 
 3495      00
 3496              	.LASF10:
 3497 0449 5F5F696E 		.ascii	"__int32_t\000"
 3497      7433325F 
 3497      7400
 3498              	.LASF105:
 3499 0453 76697274 		.ascii	"virtual_timers_list_t\000"
 3499      75616C5F 
 3499      74696D65 
 3499      72735F6C 
 3499      6973745F 
 3500              	.LASF184:
 3501 0469 73747263 		.ascii	"strcmp\000"
 3501      6D7000
 3502              	.LASF25:
 3503 0470 73746B61 		.ascii	"stkalign_t\000"
 3503      6C69676E 
 3503      5F7400
 3504              	.LASF85:
 3505 047b 72747374 		.ascii	"rtstamp\000"
 3505      616D7000 
 3506              	.LASF104:
 3507 0483 6C617374 		.ascii	"laststamp\000"
 3507      7374616D 
ARM GAS  C:\Users\DEVELO~1\AppData\Local\Temp\cc1u2N0m.s 			page 66


 3507      7000
 3508              	.LASF46:
 3509 048d 7265616C 		.ascii	"realprio\000"
 3509      7072696F 
 3509      00
 3510              	.LASF135:
 3511 0496 76657273 		.ascii	"version\000"
 3511      696F6E00 
 3512              	.LASF59:
 3513 049e 72666375 		.ascii	"rfcu_mask_t\000"
 3513      5F6D6173 
 3513      6B5F7400 
 3514              	.LASF24:
 3515 04aa 7274636E 		.ascii	"rtcnt_t\000"
 3515      745F7400 
 3516              	.LASF109:
 3517 04b2 74687265 		.ascii	"thread_reference_t\000"
 3517      61645F72 
 3517      65666572 
 3517      656E6365 
 3517      5F7400
 3518              	.LASF101:
 3519 04c5 63685F76 		.ascii	"ch_virtual_timers_list\000"
 3519      69727475 
 3519      616C5F74 
 3519      696D6572 
 3519      735F6C69 
 3520              	.LASF186:
 3521 04dc 5F5F7365 		.ascii	"__set_BASEPRI\000"
 3521      745F4241 
 3521      53455052 
 3521      4900
 3522              	.LASF68:
 3523 04ea 63685F6C 		.ascii	"ch_list_t\000"
 3523      6973745F 
 3523      7400
 3524              	.LASF141:
 3525 04f4 6F66665F 		.ascii	"off_newer\000"
 3525      6E657765 
 3525      7200
 3526              	.LASF155:
 3527 04fe 6F66665F 		.ascii	"off_sys_instances\000"
 3527      7379735F 
 3527      696E7374 
 3527      616E6365 
 3527      7300
 3528              	.LASF22:
 3529 0510 706F7274 		.ascii	"port_rtcnt_t\000"
 3529      5F727463 
 3529      6E745F74 
 3529      00
 3530              	.LASF21:
 3531 051d 75696E74 		.ascii	"uint64_t\000"
 3531      36345F74 
 3531      00
 3532              	.LASF124:
 3533 0526 63685F6F 		.ascii	"ch_os_instance_config\000"
ARM GAS  C:\Users\DEVELO~1\AppData\Local\Temp\cc1u2N0m.s 			page 67


 3533      735F696E 
 3533      7374616E 
 3533      63655F63 
 3533      6F6E6669 
 3534              	.LASF93:
 3535 053c 706F7274 		.ascii	"port_context\000"
 3535      5F636F6E 
 3535      74657874 
 3535      00
 3536              	.LASF95:
 3537 0549 746D5F63 		.ascii	"tm_calibration_t\000"
 3537      616C6962 
 3537      72617469 
 3537      6F6E5F74 
 3537      00
 3538              	.LASF50:
 3539 055a 63685F6F 		.ascii	"ch_os_instance\000"
 3539      735F696E 
 3539      7374616E 
 3539      636500
 3540              	.LASF86:
 3541 0569 74696D65 		.ascii	"time\000"
 3541      00
 3542              	.LASF76:
 3543 056e 7072696F 		.ascii	"prio\000"
 3543      00
 3544              	.LASF172:
 3545 0573 63685265 		.ascii	"chRegNextThread\000"
 3545      674E6578 
 3545      74546872 
 3545      65616400 
 3546              	.LASF122:
 3547 0583 63757272 		.ascii	"current\000"
 3547      656E7400 
 3548              	.LASF156:
 3549 058b 6F66665F 		.ascii	"off_sys_reglist\000"
 3549      7379735F 
 3549      7265676C 
 3549      69737400 
 3550              	.LASF14:
 3551 059b 5F5F7569 		.ascii	"__uint64_t\000"
 3551      6E743634 
 3551      5F7400
 3552              	.LASF171:
 3553 05a6 63685265 		.ascii	"chRegFindThreadByName\000"
 3553      6746696E 
 3553      64546872 
 3553      65616442 
 3553      794E616D 
 3554              	.LASF33:
 3555 05bc 636F7265 		.ascii	"core_id_t\000"
 3555      5F69645F 
 3555      7400
 3556              	.LASF28:
 3557 05c6 74726566 		.ascii	"trefs_t\000"
 3557      735F7400 
 3558              	.LASF165:
ARM GAS  C:\Users\DEVELO~1\AppData\Local\Temp\cc1u2N0m.s 			page 68


 3559 05ce 63686465 		.ascii	"chdebug_t\000"
 3559      6275675F 
 3559      7400
 3560              	.LASF41:
 3561 05d8 72656673 		.ascii	"refs\000"
 3561      00
 3562              	.LASF29:
 3563 05dd 74707269 		.ascii	"tprio_t\000"
 3563      6F5F7400 
 3564              	.LASF83:
 3565 05e5 75736572 		.ascii	"user\000"
 3565      00
 3566              	.LASF158:
 3567 05ea 6F66665F 		.ascii	"off_sys_reserved\000"
 3567      7379735F 
 3567      72657365 
 3567      72766564 
 3567      00
 3568              	.LASF63:
 3569 05fb 63685F73 		.ascii	"ch_system_debug\000"
 3569      79737465 
 3569      6D5F6465 
 3569      62756700 
 3570              	.LASF168:
 3571 060b 5F426F6F 		.ascii	"_Bool\000"
 3571      6C00
 3572              	.LASF19:
 3573 0611 696E7433 		.ascii	"int32_t\000"
 3573      325F7400 
 3574              	.LASF6:
 3575 0619 756E7369 		.ascii	"unsigned char\000"
 3575      676E6564 
 3575      20636861 
 3575      7200
 3576              	.LASF139:
 3577 0627 6F66665F 		.ascii	"off_prio\000"
 3577      7072696F 
 3577      00
 3578              	.LASF144:
 3579 0630 6F66665F 		.ascii	"off_stklimit\000"
 3579      73746B6C 
 3579      696D6974 
 3579      00
 3580              	.LASF62:
 3581 063d 72666375 		.ascii	"rfcu_t\000"
 3581      5F7400
 3582              	.LASF7:
 3583 0644 73686F72 		.ascii	"short int\000"
 3583      7420696E 
 3583      7400
 3584              	.LASF103:
 3585 064e 6C617374 		.ascii	"lasttime\000"
 3585      74696D65 
 3585      00
 3586              	.LASF175:
 3587 0657 63685468 		.ascii	"chThdGetWorkingAreaX\000"
 3587      64476574 
ARM GAS  C:\Users\DEVELO~1\AppData\Local\Temp\cc1u2N0m.s 			page 69


 3587      576F726B 
 3587      696E6741 
 3587      72656158 
 3588              	.LASF91:
 3589 066c 74726163 		.ascii	"trace_buffer_t\000"
 3589      655F6275 
 3589      66666572 
 3589      5F7400
 3590              	.LASF80:
 3591 067b 77746F62 		.ascii	"wtobjp\000"
 3591      6A7000
 3592              	.LASF118:
 3593 0682 65776D61 		.ascii	"ewmask\000"
 3593      736B00
 3594              	.LASF130:
 3595 0689 63685F73 		.ascii	"ch_system\000"
 3595      79737465 
 3595      6D00
 3596              	.LASF176:
 3597 0693 5F5F6675 		.ascii	"__func__\000"
 3597      6E635F5F 
 3597      00
 3598              	.LASF178:
 3599 069c 63685379 		.ascii	"chSysLock\000"
 3599      734C6F63 
 3599      6B00
 3600              	.LASF185:
 3601 06a6 63685468 		.ascii	"chThdRelease\000"
 3601      6452656C 
 3601      65617365 
 3601      00
 3602              	.LASF81:
 3603 06b3 72656173 		.ascii	"reason\000"
 3603      6F6E00
 3604              	.LASF119:
 3605 06ba 63685F73 		.ascii	"ch_semaphore\000"
 3605      656D6170 
 3605      686F7265 
 3605      00
 3606              	.LASF149:
 3607 06c7 6F66665F 		.ascii	"off_time\000"
 3607      74696D65 
 3607      00
 3608              	.LASF137:
 3609 06d0 74696D65 		.ascii	"timesize\000"
 3609      73697A65 
 3609      00
 3610              	.LASF20:
 3611 06d9 75696E74 		.ascii	"uint32_t\000"
 3611      33325F74 
 3611      00
 3612              	.LASF117:
 3613 06e2 77746D74 		.ascii	"wtmtxp\000"
 3613      787000
 3614              	.LASF23:
 3615 06e9 706F7274 		.ascii	"port_stkalign_t\000"
 3615      5F73746B 
ARM GAS  C:\Users\DEVELO~1\AppData\Local\Temp\cc1u2N0m.s 			page 70


 3615      616C6967 
 3615      6E5F7400 
 3616              	.LASF36:
 3617 06f9 6F776E65 		.ascii	"owner\000"
 3617      7200
 3618              	.LASF174:
 3619 06ff 63685265 		.ascii	"chRegGetThreadNameX\000"
 3619      67476574 
 3619      54687265 
 3619      61644E61 
 3619      6D655800 
 3620              	.LASF2:
 3621 0713 6C6F6E67 		.ascii	"long double\000"
 3621      20646F75 
 3621      626C6500 
 3622              	.LASF38:
 3623 071f 77616261 		.ascii	"wabase\000"
 3623      736500
 3624              	.LASF16:
 3625 0726 63686172 		.ascii	"char\000"
 3625      00
 3626              	.LASF159:
 3627 072b 6F66665F 		.ascii	"off_inst_rlist_current\000"
 3627      696E7374 
 3627      5F726C69 
 3627      73745F63 
 3627      75727265 
 3628              	.LASF96:
 3629 0742 63685F73 		.ascii	"ch_sys_uninit\000"
 3629      79735F75 
 3629      6E696E69 
 3629      7400
 3630              	.LASF56:
 3631 0750 636F6E66 		.ascii	"config\000"
 3631      696700
 3632              	.LASF8:
 3633 0757 5F5F7569 		.ascii	"__uint16_t\000"
 3633      6E743136 
 3633      5F7400
 3634              	.LASF34:
 3635 0762 74687265 		.ascii	"thread_t\000"
 3635      61645F74 
 3635      00
 3636              	.LASF102:
 3637 076b 646C6973 		.ascii	"dlist\000"
 3637      7400
 3638              	.LASF66:
 3639 0771 73797374 		.ascii	"systime_t\000"
 3639      696D655F 
 3639      7400
 3640              	.LASF90:
 3641 077b 62756666 		.ascii	"buffer\000"
 3641      657200
 3642              	.LASF182:
 3643 0782 2E2E2F2E 		.ascii	"../../../os/rt/src/chregistry.c\000"
 3643      2E2F2E2E 
 3643      2F6F732F 
ARM GAS  C:\Users\DEVELO~1\AppData\Local\Temp\cc1u2N0m.s 			page 71


 3643      72742F73 
 3643      72632F63 
 3644              	.LASF74:
 3645 07a2 63685F70 		.ascii	"ch_priority_queue_t\000"
 3645      72696F72 
 3645      6974795F 
 3645      71756575 
 3645      655F7400 
 3646              	.LASF64:
 3647 07b6 70616E69 		.ascii	"panic_msg\000"
 3647      635F6D73 
 3647      6700
 3648              	.LASF111:
 3649 07c0 70717565 		.ascii	"pqueue\000"
 3649      756500
 3650              	.LASF125:
 3651 07c7 6D61696E 		.ascii	"mainthread_base\000"
 3651      74687265 
 3651      61645F62 
 3651      61736500 
 3652              	.LASF136:
 3653 07d7 70747273 		.ascii	"ptrsize\000"
 3653      697A6500 
 3654              	.LASF48:
 3655 07df 6F735F69 		.ascii	"os_instance_t\000"
 3655      6E737461 
 3655      6E63655F 
 3655      7400
 3656              	.LASF142:
 3657 07ed 6F66665F 		.ascii	"off_older\000"
 3657      6F6C6465 
 3657      7200
 3658              	.LASF53:
 3659 07f7 7265676C 		.ascii	"reglist\000"
 3659      69737400 
 3660              	.LASF9:
 3661 07ff 73686F72 		.ascii	"short unsigned int\000"
 3661      7420756E 
 3661      7369676E 
 3661      65642069 
 3661      6E7400
 3662              	.LASF99:
 3663 0812 63685F73 		.ascii	"ch_sys_halted\000"
 3663      79735F68 
 3663      616C7465 
 3663      6400
 3664              	.LASF75:
 3665 0820 63685F70 		.ascii	"ch_priority_queue\000"
 3665      72696F72 
 3665      6974795F 
 3665      71756575 
 3665      6500
 3666              	.LASF77:
 3667 0832 63685F64 		.ascii	"ch_delta_list_t\000"
 3667      656C7461 
 3667      5F6C6973 
 3667      745F7400 
ARM GAS  C:\Users\DEVELO~1\AppData\Local\Temp\cc1u2N0m.s 			page 72


 3668              	.LASF108:
 3669 0842 72656769 		.ascii	"registry_t\000"
 3669      73747279 
 3669      5F7400
 3670              	.LASF126:
 3671 084d 6D61696E 		.ascii	"mainthread_end\000"
 3671      74687265 
 3671      61645F65 
 3671      6E6400
 3672              	.LASF180:
 3673 085c 706F7274 		.ascii	"port_lock\000"
 3673      5F6C6F63 
 3673      6B00
 3674              	.LASF151:
 3675 0866 696E7463 		.ascii	"intctxsize\000"
 3675      74787369 
 3675      7A6500
 3676              	.LASF97:
 3677 0871 63685F73 		.ascii	"ch_sys_initializing\000"
 3677      79735F69 
 3677      6E697469 
 3677      616C697A 
 3677      696E6700 
 3678              	.LASF154:
 3679 0885 6F66665F 		.ascii	"off_sys_state\000"
 3679      7379735F 
 3679      73746174 
 3679      6500
 3680              	.LASF51:
 3681 0893 726C6973 		.ascii	"rlist\000"
 3681      7400
 3682              	.LASF17:
 3683 0899 75696E74 		.ascii	"uint8_t\000"
 3683      385F7400 
 3684              	.LASF40:
 3685 08a1 666C6167 		.ascii	"flags\000"
 3685      7300
 3686              	.LASF120:
 3687 08a7 63685F6D 		.ascii	"ch_mutex\000"
 3687      75746578 
 3687      00
 3688              	.LASF145:
 3689 08b0 6F66665F 		.ascii	"off_state\000"
 3689      73746174 
 3689      6500
 3690              	.LASF58:
 3691 08ba 74726163 		.ascii	"trace_buffer\000"
 3691      655F6275 
 3691      66666572 
 3691      00
 3692              	.LASF177:
 3693 08c7 63685379 		.ascii	"chSysUnlock\000"
 3693      73556E6C 
 3693      6F636B00 
 3694              	.LASF153:
 3695 08d3 696E7374 		.ascii	"instancesnum\000"
 3695      616E6365 
ARM GAS  C:\Users\DEVELO~1\AppData\Local\Temp\cc1u2N0m.s 			page 73


 3695      736E756D 
 3695      00
 3696              	.LASF110:
 3697 08e0 6C697374 		.ascii	"list\000"
 3697      00
 3698              	.LASF100:
 3699 08e5 73797374 		.ascii	"system_state_t\000"
 3699      656D5F73 
 3699      74617465 
 3699      5F7400
 3700              	.LASF146:
 3701 08f4 6F66665F 		.ascii	"off_flags\000"
 3701      666C6167 
 3701      7300
 3702              	.LASF128:
 3703 08fe 69646C65 		.ascii	"idlethread_end\000"
 3703      74687265 
 3703      61645F65 
 3703      6E6400
 3704              	.LASF45:
 3705 090d 6D74786C 		.ascii	"mtxlist\000"
 3705      69737400 
 3706              		.ident	"GCC: (Arm GNU Toolchain 11.3.Rel1) 11.3.1 20220712"
ARM GAS  C:\Users\DEVELO~1\AppData\Local\Temp\cc1u2N0m.s 			page 74


DEFINED SYMBOLS
                            *ABS*:00000000 chregistry.c
C:\Users\DEVELO~1\AppData\Local\Temp\cc1u2N0m.s:18     .text.chSysLock:00000000 $t
C:\Users\DEVELO~1\AppData\Local\Temp\cc1u2N0m.s:23     .text.chSysLock:00000000 chSysLock
C:\Users\DEVELO~1\AppData\Local\Temp\cc1u2N0m.s:77     .text.chSysUnlock:00000000 $t
C:\Users\DEVELO~1\AppData\Local\Temp\cc1u2N0m.s:82     .text.chSysUnlock:00000000 chSysUnlock
C:\Users\DEVELO~1\AppData\Local\Temp\cc1u2N0m.s:133    .text.chThdGetWorkingAreaX:00000000 $t
C:\Users\DEVELO~1\AppData\Local\Temp\cc1u2N0m.s:138    .text.chThdGetWorkingAreaX:00000000 chThdGetWorkingAreaX
C:\Users\DEVELO~1\AppData\Local\Temp\cc1u2N0m.s:172    .text.chRegGetThreadNameX:00000000 $t
C:\Users\DEVELO~1\AppData\Local\Temp\cc1u2N0m.s:177    .text.chRegGetThreadNameX:00000000 chRegGetThreadNameX
C:\Users\DEVELO~1\AppData\Local\Temp\cc1u2N0m.s:215    .rodata.ch_debug:00000000 ch_debug
C:\Users\DEVELO~1\AppData\Local\Temp\cc1u2N0m.s:212    .rodata.ch_debug:00000000 $d
C:\Users\DEVELO~1\AppData\Local\Temp\cc1u2N0m.s:251    .text.chRegFirstThread:00000000 $t
C:\Users\DEVELO~1\AppData\Local\Temp\cc1u2N0m.s:257    .text.chRegFirstThread:00000000 chRegFirstThread
C:\Users\DEVELO~1\AppData\Local\Temp\cc1u2N0m.s:305    .text.chRegFirstThread:00000034 $d
C:\Users\DEVELO~1\AppData\Local\Temp\cc1u2N0m.s:310    .text.chRegNextThread:00000000 $t
C:\Users\DEVELO~1\AppData\Local\Temp\cc1u2N0m.s:316    .text.chRegNextThread:00000000 chRegNextThread
C:\Users\DEVELO~1\AppData\Local\Temp\cc1u2N0m.s:383    .text.chRegNextThread:00000050 $d
C:\Users\DEVELO~1\AppData\Local\Temp\cc1u2N0m.s:388    .text.chRegFindThreadByName:00000000 $t
C:\Users\DEVELO~1\AppData\Local\Temp\cc1u2N0m.s:394    .text.chRegFindThreadByName:00000000 chRegFindThreadByName
C:\Users\DEVELO~1\AppData\Local\Temp\cc1u2N0m.s:451    .text.chRegFindThreadByPointer:00000000 $t
C:\Users\DEVELO~1\AppData\Local\Temp\cc1u2N0m.s:457    .text.chRegFindThreadByPointer:00000000 chRegFindThreadByPointer
C:\Users\DEVELO~1\AppData\Local\Temp\cc1u2N0m.s:508    .text.chRegFindThreadByWorkingArea:00000000 $t
C:\Users\DEVELO~1\AppData\Local\Temp\cc1u2N0m.s:514    .text.chRegFindThreadByWorkingArea:00000000 chRegFindThreadByWorkingArea

UNDEFINED SYMBOLS
ch0
chThdRelease
strcmp
