ARM GAS  C:\Users\DEVELO~1\AppData\Local\Temp\ccaA9tIh.s 			page 1


   1              		.cpu cortex-m7
   2              		.arch armv7e-m
   3              		.fpu softvfp
   4              		.eabi_attribute 20, 1
   5              		.eabi_attribute 21, 1
   6              		.eabi_attribute 23, 3
   7              		.eabi_attribute 24, 1
   8              		.eabi_attribute 25, 1
   9              		.eabi_attribute 26, 1
  10              		.eabi_attribute 30, 6
  11              		.eabi_attribute 34, 1
  12              		.eabi_attribute 18, 4
  13              		.file	"chrfcu.c"
  14              		.text
  15              	.Ltext0:
  16              		.cfi_sections	.debug_frame
  17              		.section	.text.chRFCUCollectFaultsI,"ax",%progbits
  18              		.align	1
  19              		.global	chRFCUCollectFaultsI
  20              		.syntax unified
  21              		.thumb
  22              		.thumb_func
  23              		.type	chRFCUCollectFaultsI, %function
  24              	chRFCUCollectFaultsI:
  25              	.LFB346:
  26              		.file 1 "../../../os/rt/src/chrfcu.c"
  27              		.loc 1 60 45
  28              		.cfi_startproc
  29              		@ args = 0, pretend = 0, frame = 8
  30              		@ frame_needed = 1, uses_anonymous_args = 0
  31              		@ link register save eliminated.
  32 0000 80B4     		push	{r7}
  33              		.cfi_def_cfa_offset 4
  34              		.cfi_offset 7, -4
  35 0002 83B0     		sub	sp, sp, #12
  36              		.cfi_def_cfa_offset 16
  37 0004 00AF     		add	r7, sp, #0
  38              		.cfi_def_cfa_register 7
  39 0006 7860     		str	r0, [r7, #4]
  40              		.loc 1 63 23
  41 0008 054B     		ldr	r3, .L2
  42 000a 5A6B     		ldr	r2, [r3, #52]
  43 000c 7B68     		ldr	r3, [r7, #4]
  44 000e 1343     		orrs	r3, r3, r2
  45 0010 034A     		ldr	r2, .L2
  46 0012 5363     		str	r3, [r2, #52]
  47              		.loc 1 69 1
  48 0014 00BF     		nop
  49 0016 0C37     		adds	r7, r7, #12
  50              		.cfi_def_cfa_offset 4
  51 0018 BD46     		mov	sp, r7
  52              		.cfi_def_cfa_register 13
  53              		@ sp needed
  54 001a 80BC     		pop	{r7}
  55              		.cfi_restore 7
  56              		.cfi_def_cfa_offset 0
  57 001c 7047     		bx	lr
ARM GAS  C:\Users\DEVELO~1\AppData\Local\Temp\ccaA9tIh.s 			page 2


  58              	.L3:
  59 001e 00BF     		.align	2
  60              	.L2:
  61 0020 00000000 		.word	ch0
  62              		.cfi_endproc
  63              	.LFE346:
  64              		.size	chRFCUCollectFaultsI, .-chRFCUCollectFaultsI
  65              		.section	.text.chRFCUGetAndClearFaultsI,"ax",%progbits
  66              		.align	1
  67              		.global	chRFCUGetAndClearFaultsI
  68              		.syntax unified
  69              		.thumb
  70              		.thumb_func
  71              		.type	chRFCUGetAndClearFaultsI, %function
  72              	chRFCUGetAndClearFaultsI:
  73              	.LFB347:
  74              		.loc 1 79 56
  75              		.cfi_startproc
  76              		@ args = 0, pretend = 0, frame = 16
  77              		@ frame_needed = 1, uses_anonymous_args = 0
  78              		@ link register save eliminated.
  79 0000 80B4     		push	{r7}
  80              		.cfi_def_cfa_offset 4
  81              		.cfi_offset 7, -4
  82 0002 85B0     		sub	sp, sp, #20
  83              		.cfi_def_cfa_offset 24
  84 0004 00AF     		add	r7, sp, #0
  85              		.cfi_def_cfa_register 7
  86 0006 7860     		str	r0, [r7, #4]
  87              		.loc 1 83 18
  88 0008 094B     		ldr	r3, .L6
  89 000a FB60     		str	r3, [r7, #12]
  90              		.loc 1 85 16
  91 000c FB68     		ldr	r3, [r7, #12]
  92 000e 5B6B     		ldr	r3, [r3, #52]
  93              		.loc 1 85 5
  94 0010 7A68     		ldr	r2, [r7, #4]
  95 0012 1340     		ands	r3, r3, r2
  96 0014 BB60     		str	r3, [r7, #8]
  97              		.loc 1 86 18
  98 0016 FB68     		ldr	r3, [r7, #12]
  99 0018 5A6B     		ldr	r2, [r3, #52]
 100              		.loc 1 86 21
 101 001a BB68     		ldr	r3, [r7, #8]
 102 001c DB43     		mvns	r3, r3
 103              		.loc 1 86 18
 104 001e 1A40     		ands	r2, r2, r3
 105 0020 FB68     		ldr	r3, [r7, #12]
 106 0022 5A63     		str	r2, [r3, #52]
 107              		.loc 1 93 10
 108 0024 BB68     		ldr	r3, [r7, #8]
 109              		.loc 1 94 1
 110 0026 1846     		mov	r0, r3
 111 0028 1437     		adds	r7, r7, #20
 112              		.cfi_def_cfa_offset 4
 113 002a BD46     		mov	sp, r7
 114              		.cfi_def_cfa_register 13
ARM GAS  C:\Users\DEVELO~1\AppData\Local\Temp\ccaA9tIh.s 			page 3


 115              		@ sp needed
 116 002c 80BC     		pop	{r7}
 117              		.cfi_restore 7
 118              		.cfi_def_cfa_offset 0
 119 002e 7047     		bx	lr
 120              	.L7:
 121              		.align	2
 122              	.L6:
 123 0030 00000000 		.word	ch0
 124              		.cfi_endproc
 125              	.LFE347:
 126              		.size	chRFCUGetAndClearFaultsI, .-chRFCUGetAndClearFaultsI
 127              		.text
 128              	.Letext0:
 129              		.file 2 "c:\\chibistudio\\tools\\gnu tools arm embedded\\11.3 2022.08\\arm-none-eabi\\include\\mac
 130              		.file 3 "c:\\chibistudio\\tools\\gnu tools arm embedded\\11.3 2022.08\\arm-none-eabi\\include\\sys
 131              		.file 4 "../../../os/common/ports/ARM-common/chtypes.h"
 132              		.file 5 "../../../os/rt/include/chearly.h"
 133              		.file 6 "../../../os/rt/include/chobjects.h"
 134              		.file 7 "../../../os/rt/include/chrfcu.h"
 135              		.file 8 "../../../os/rt/include/chdebug.h"
 136              		.file 9 "../../../os/rt/include/chtime.h"
 137              		.file 10 "../../../os/rt/include/chlists.h"
 138              		.file 11 "../../../os/rt/include/chtrace.h"
 139              		.file 12 "../../../os/common/ports/ARMv7-M/chcore.h"
 140              		.file 13 "../../../os/rt/include/chsem.h"
 141              		.file 14 "../../../os/rt/include/chmtx.h"
 142              		.file 15 "../../../os/rt/include/chsys.h"