ARM GAS  C:\Users\DEVELO~1\AppData\Local\Temp\ccW7fz6e.s 			page 1


   1              		.cpu cortex-m7
   2              		.arch armv7e-m
   3              		.fpu softvfp
   4              		.eabi_attribute 20, 1
   5              		.eabi_attribute 21, 1
   6              		.eabi_attribute 23, 3
   7              		.eabi_attribute 24, 1
   8              		.eabi_attribute 25, 1
   9              		.eabi_attribute 26, 1
  10              		.eabi_attribute 30, 6
  11              		.eabi_attribute 34, 1
  12              		.eabi_attribute 18, 4
  13              		.file	"chschd.c"
  14              		.text
  15              	.Ltext0:
  16              		.cfi_sections	.debug_frame
  17              		.section	.text.ch_queue_dequeue,"ax",%progbits
  18              		.align	1
  19              		.syntax unified
  20              		.thumb
  21              		.thumb_func
  22              		.type	ch_queue_dequeue, %function
  23              	ch_queue_dequeue:
  24              	.LFB25:
  25              		.file 1 "../../../os/rt/include/chlists.h"
  26              		.loc 1 318 59
  27              		.cfi_startproc
  28              		@ args = 0, pretend = 0, frame = 8
  29              		@ frame_needed = 1, uses_anonymous_args = 0
  30              		@ link register save eliminated.
  31 0000 80B4     		push	{r7}
  32              		.cfi_def_cfa_offset 4
  33              		.cfi_offset 7, -4
  34 0002 83B0     		sub	sp, sp, #12
  35              		.cfi_def_cfa_offset 16
  36 0004 00AF     		add	r7, sp, #0
  37              		.cfi_def_cfa_register 7
  38 0006 7860     		str	r0, [r7, #4]
  39              		.loc 1 320 4
  40 0008 7B68     		ldr	r3, [r7, #4]
  41 000a 5B68     		ldr	r3, [r3, #4]
  42              		.loc 1 320 20
  43 000c 7A68     		ldr	r2, [r7, #4]
  44 000e 1268     		ldr	r2, [r2]
  45              		.loc 1 320 17
  46 0010 1A60     		str	r2, [r3]
  47              		.loc 1 321 4
  48 0012 7B68     		ldr	r3, [r7, #4]
  49 0014 1B68     		ldr	r3, [r3]
  50              		.loc 1 321 20
  51 0016 7A68     		ldr	r2, [r7, #4]
  52 0018 5268     		ldr	r2, [r2, #4]
  53              		.loc 1 321 17
  54 001a 5A60     		str	r2, [r3, #4]
  55              		.loc 1 323 10
  56 001c 7B68     		ldr	r3, [r7, #4]
  57              		.loc 1 324 1
ARM GAS  C:\Users\DEVELO~1\AppData\Local\Temp\ccW7fz6e.s 			page 2


  58 001e 1846     		mov	r0, r3
  59 0020 0C37     		adds	r7, r7, #12
  60              		.cfi_def_cfa_offset 4
  61 0022 BD46     		mov	sp, r7
  62              		.cfi_def_cfa_register 13
  63              		@ sp needed
  64 0024 80BC     		pop	{r7}
  65              		.cfi_restore 7
  66              		.cfi_def_cfa_offset 0
  67 0026 7047     		bx	lr
  68              		.cfi_endproc
  69              	.LFE25:
  70              		.size	ch_queue_dequeue, .-ch_queue_dequeue
  71              		.section	.text.ch_pqueue_remove_highest,"ax",%progbits
  72              		.align	1
  73              		.syntax unified
  74              		.thumb
  75              		.thumb_func
  76              		.type	ch_pqueue_remove_highest, %function
  77              	ch_pqueue_remove_highest:
  78              	.LFB27:
  79              		.loc 1 352 87
  80              		.cfi_startproc
  81              		@ args = 0, pretend = 0, frame = 16
  82              		@ frame_needed = 1, uses_anonymous_args = 0
  83              		@ link register save eliminated.
  84 0000 80B4     		push	{r7}
  85              		.cfi_def_cfa_offset 4
  86              		.cfi_offset 7, -4
  87 0002 85B0     		sub	sp, sp, #20
  88              		.cfi_def_cfa_offset 24
  89 0004 00AF     		add	r7, sp, #0
  90              		.cfi_def_cfa_register 7
  91 0006 7860     		str	r0, [r7, #4]
  92              		.loc 1 353 24
  93 0008 7B68     		ldr	r3, [r7, #4]
  94 000a 1B68     		ldr	r3, [r3]
  95 000c FB60     		str	r3, [r7, #12]
  96              		.loc 1 355 22
  97 000e FB68     		ldr	r3, [r7, #12]
  98 0010 1A68     		ldr	r2, [r3]
  99              		.loc 1 355 19
 100 0012 7B68     		ldr	r3, [r7, #4]
 101 0014 1A60     		str	r2, [r3]
 102              		.loc 1 356 6
 103 0016 7B68     		ldr	r3, [r7, #4]
 104 0018 1B68     		ldr	r3, [r3]
 105              		.loc 1 356 19
 106 001a 7A68     		ldr	r2, [r7, #4]
 107 001c 5A60     		str	r2, [r3, #4]
 108              		.loc 1 358 10
 109 001e FB68     		ldr	r3, [r7, #12]
 110              		.loc 1 359 1
 111 0020 1846     		mov	r0, r3
 112 0022 1437     		adds	r7, r7, #20
 113              		.cfi_def_cfa_offset 4
 114 0024 BD46     		mov	sp, r7
ARM GAS  C:\Users\DEVELO~1\AppData\Local\Temp\ccW7fz6e.s 			page 3


 115              		.cfi_def_cfa_register 13
 116              		@ sp needed
 117 0026 80BC     		pop	{r7}
 118              		.cfi_restore 7
 119              		.cfi_def_cfa_offset 0
 120 0028 7047     		bx	lr
 121              		.cfi_endproc
 122              	.LFE27:
 123              		.size	ch_pqueue_remove_highest, .-ch_pqueue_remove_highest
 124              		.section	.text.ch_pqueue_insert_behind,"ax",%progbits
 125              		.align	1
 126              		.syntax unified
 127              		.thumb
 128              		.thumb_func
 129              		.type	ch_pqueue_insert_behind, %function
 130              	ch_pqueue_insert_behind:
 131              	.LFB28:
 132              		.loc 1 374 84
 133              		.cfi_startproc
 134              		@ args = 0, pretend = 0, frame = 8
 135              		@ frame_needed = 1, uses_anonymous_args = 0
 136              		@ link register save eliminated.
 137 0000 80B4     		push	{r7}
 138              		.cfi_def_cfa_offset 4
 139              		.cfi_offset 7, -4
 140 0002 83B0     		sub	sp, sp, #12
 141              		.cfi_def_cfa_offset 16
 142 0004 00AF     		add	r7, sp, #0
 143              		.cfi_def_cfa_register 7
 144 0006 7860     		str	r0, [r7, #4]
 145 0008 3960     		str	r1, [r7]
 146              	.L6:
 147              		.loc 1 378 9 discriminator 1
 148 000a 7B68     		ldr	r3, [r7, #4]
 149 000c 1B68     		ldr	r3, [r3]
 150 000e 7B60     		str	r3, [r7, #4]
 151              		.loc 1 379 12 discriminator 1
 152 0010 7B68     		ldr	r3, [r7, #4]
 153 0012 9A68     		ldr	r2, [r3, #8]
 154 0014 3B68     		ldr	r3, [r7]
 155 0016 9B68     		ldr	r3, [r3, #8]
 156 0018 9A42     		cmp	r2, r3
 157 001a 2CBF     		ite	cs
 158 001c 0123     		movcs	r3, #1
 159 001e 0023     		movcc	r3, #0
 160 0020 DBB2     		uxtb	r3, r3
 161 0022 002B     		cmp	r3, #0
 162 0024 F1D1     		bne	.L6
 163              		.loc 1 382 17
 164 0026 3B68     		ldr	r3, [r7]
 165 0028 7A68     		ldr	r2, [r7, #4]
 166 002a 1A60     		str	r2, [r3]
 167              		.loc 1 383 22
 168 002c 7B68     		ldr	r3, [r7, #4]
 169 002e 5A68     		ldr	r2, [r3, #4]
 170              		.loc 1 383 17
 171 0030 3B68     		ldr	r3, [r7]
ARM GAS  C:\Users\DEVELO~1\AppData\Local\Temp\ccW7fz6e.s 			page 4


 172 0032 5A60     		str	r2, [r3, #4]
 173              		.loc 1 384 4
 174 0034 3B68     		ldr	r3, [r7]
 175 0036 5B68     		ldr	r3, [r3, #4]
 176              		.loc 1 384 17
 177 0038 3A68     		ldr	r2, [r7]
 178 003a 1A60     		str	r2, [r3]
 179              		.loc 1 385 17
 180 003c 7B68     		ldr	r3, [r7, #4]
 181 003e 3A68     		ldr	r2, [r7]
 182 0040 5A60     		str	r2, [r3, #4]
 183              		.loc 1 387 10
 184 0042 3B68     		ldr	r3, [r7]
 185              		.loc 1 388 1
 186 0044 1846     		mov	r0, r3
 187 0046 0C37     		adds	r7, r7, #12
 188              		.cfi_def_cfa_offset 4
 189 0048 BD46     		mov	sp, r7
 190              		.cfi_def_cfa_register 13
 191              		@ sp needed
 192 004a 80BC     		pop	{r7}
 193              		.cfi_restore 7
 194              		.cfi_def_cfa_offset 0
 195 004c 7047     		bx	lr
 196              		.cfi_endproc
 197              	.LFE28:
 198              		.size	ch_pqueue_insert_behind, .-ch_pqueue_insert_behind
 199              		.section	.text.ch_pqueue_insert_ahead,"ax",%progbits
 200              		.align	1
 201              		.syntax unified
 202              		.thumb
 203              		.thumb_func
 204              		.type	ch_pqueue_insert_ahead, %function
 205              	ch_pqueue_insert_ahead:
 206              	.LFB29:
 207              		.loc 1 403 83
 208              		.cfi_startproc
 209              		@ args = 0, pretend = 0, frame = 8
 210              		@ frame_needed = 1, uses_anonymous_args = 0
 211              		@ link register save eliminated.
 212 0000 80B4     		push	{r7}
 213              		.cfi_def_cfa_offset 4
 214              		.cfi_offset 7, -4
 215 0002 83B0     		sub	sp, sp, #12
 216              		.cfi_def_cfa_offset 16
 217 0004 00AF     		add	r7, sp, #0
 218              		.cfi_def_cfa_register 7
 219 0006 7860     		str	r0, [r7, #4]
 220 0008 3960     		str	r1, [r7]
 221              	.L9:
 222              		.loc 1 407 9 discriminator 1
 223 000a 7B68     		ldr	r3, [r7, #4]
 224 000c 1B68     		ldr	r3, [r3]
 225 000e 7B60     		str	r3, [r7, #4]
 226              		.loc 1 408 12 discriminator 1
 227 0010 7B68     		ldr	r3, [r7, #4]
 228 0012 9A68     		ldr	r2, [r3, #8]
ARM GAS  C:\Users\DEVELO~1\AppData\Local\Temp\ccW7fz6e.s 			page 5


 229 0014 3B68     		ldr	r3, [r7]
 230 0016 9B68     		ldr	r3, [r3, #8]
 231 0018 9A42     		cmp	r2, r3
 232 001a 8CBF     		ite	hi
 233 001c 0123     		movhi	r3, #1
 234 001e 0023     		movls	r3, #0
 235 0020 DBB2     		uxtb	r3, r3
 236 0022 002B     		cmp	r3, #0
 237 0024 F1D1     		bne	.L9
 238              		.loc 1 411 17
 239 0026 3B68     		ldr	r3, [r7]
 240 0028 7A68     		ldr	r2, [r7, #4]
 241 002a 1A60     		str	r2, [r3]
 242              		.loc 1 412 22
 243 002c 7B68     		ldr	r3, [r7, #4]
 244 002e 5A68     		ldr	r2, [r3, #4]
 245              		.loc 1 412 17
 246 0030 3B68     		ldr	r3, [r7]
 247 0032 5A60     		str	r2, [r3, #4]
 248              		.loc 1 413 4
 249 0034 3B68     		ldr	r3, [r7]
 250 0036 5B68     		ldr	r3, [r3, #4]
 251              		.loc 1 413 17
 252 0038 3A68     		ldr	r2, [r7]
 253 003a 1A60     		str	r2, [r3]
 254              		.loc 1 414 17
 255 003c 7B68     		ldr	r3, [r7, #4]
 256 003e 3A68     		ldr	r2, [r7]
 257 0040 5A60     		str	r2, [r3, #4]
 258              		.loc 1 416 10
 259 0042 3B68     		ldr	r3, [r7]
 260              		.loc 1 417 1
 261 0044 1846     		mov	r0, r3
 262 0046 0C37     		adds	r7, r7, #12
 263              		.cfi_def_cfa_offset 4
 264 0048 BD46     		mov	sp, r7
 265              		.cfi_def_cfa_register 13
 266              		@ sp needed
 267 004a 80BC     		pop	{r7}
 268              		.cfi_restore 7
 269              		.cfi_def_cfa_offset 0
 270 004c 7047     		bx	lr
 271              		.cfi_endproc
 272              	.LFE29:
 273              		.size	ch_pqueue_insert_ahead, .-ch_pqueue_insert_ahead
 274              		.section	.text.chSysLockFromISR,"ax",%progbits
 275              		.align	1
 276              		.syntax unified
 277              		.thumb
 278              		.thumb_func
 279              		.type	chSysLockFromISR, %function
 280              	chSysLockFromISR:
 281              	.LFB204:
 282              		.file 2 "../../../os/rt/include/chsys.h"
 283              		.loc 2 451 43
 284              		.cfi_startproc
 285              		@ args = 0, pretend = 0, frame = 8
ARM GAS  C:\Users\DEVELO~1\AppData\Local\Temp\ccW7fz6e.s 			page 6


 286              		@ frame_needed = 1, uses_anonymous_args = 0
 287              		@ link register save eliminated.
 288 0000 80B4     		push	{r7}
 289              		.cfi_def_cfa_offset 4
 290              		.cfi_offset 7, -4
 291 0002 83B0     		sub	sp, sp, #12
 292              		.cfi_def_cfa_offset 16
 293 0004 00AF     		add	r7, sp, #0
 294              		.cfi_def_cfa_register 7
 295 0006 3023     		movs	r3, #48
 296 0008 7B60     		str	r3, [r7, #4]
 297              	.LBB26:
 298              	.LBB27:
 299              	.LBB28:
 300              	.LBB29:
 301              	.LBB30:
 302              	.LBB31:
 303              		.file 3 "../../../os/common/ext/ARM/CMSIS/Core/Include/cmsis_gcc.h"
 304              		.loc 3 493 3
 305 000a 7B68     		ldr	r3, [r7, #4]
 306              		.syntax unified
 307              	@ 493 "../../../os/common/ext/ARM/CMSIS/Core/Include/cmsis_gcc.h" 1
 308 000c 83F31188 		MSR basepri, r3
 309              	@ 0 "" 2
 310              		.loc 3 494 1
 311              		.thumb
 312              		.syntax unified
 313 0010 00BF     		nop
 314              	.LBE31:
 315              	.LBE30:
 316              		.file 4 "../../../os/common/ports/ARMv7-M/chcore.h"
 317              		.loc 4 840 1
 318 0012 00BF     		nop
 319              	.LBE29:
 320              	.LBE28:
 321              		.loc 4 865 1
 322 0014 00BF     		nop
 323              	.LBE27:
 324              	.LBE26:
 325              		.loc 2 456 1
 326 0016 00BF     		nop
 327 0018 0C37     		adds	r7, r7, #12
 328              		.cfi_def_cfa_offset 4
 329 001a BD46     		mov	sp, r7
 330              		.cfi_def_cfa_register 13
 331              		@ sp needed
 332 001c 80BC     		pop	{r7}
 333              		.cfi_restore 7
 334              		.cfi_def_cfa_offset 0
 335 001e 7047     		bx	lr
 336              		.cfi_endproc
 337              	.LFE204:
 338              		.size	chSysLockFromISR, .-chSysLockFromISR
 339              		.section	.text.chSysUnlockFromISR,"ax",%progbits
 340              		.align	1
 341              		.syntax unified
 342              		.thumb
ARM GAS  C:\Users\DEVELO~1\AppData\Local\Temp\ccW7fz6e.s 			page 7


 343              		.thumb_func
 344              		.type	chSysUnlockFromISR, %function
 345              	chSysUnlockFromISR:
 346              	.LFB205:
 347              		.loc 2 473 45
 348              		.cfi_startproc
 349              		@ args = 0, pretend = 0, frame = 8
 350              		@ frame_needed = 1, uses_anonymous_args = 0
 351              		@ link register save eliminated.
 352 0000 80B4     		push	{r7}
 353              		.cfi_def_cfa_offset 4
 354              		.cfi_offset 7, -4
 355 0002 83B0     		sub	sp, sp, #12
 356              		.cfi_def_cfa_offset 16
 357 0004 00AF     		add	r7, sp, #0
 358              		.cfi_def_cfa_register 7
 359 0006 0023     		movs	r3, #0
 360 0008 7B60     		str	r3, [r7, #4]
 361              	.LBB32:
 362              	.LBB33:
 363              	.LBB34:
 364              	.LBB35:
 365              	.LBB36:
 366              	.LBB37:
 367              		.loc 3 493 3
 368 000a 7B68     		ldr	r3, [r7, #4]
 369              		.syntax unified
 370              	@ 493 "../../../os/common/ext/ARM/CMSIS/Core/Include/cmsis_gcc.h" 1
 371 000c 83F31188 		MSR basepri, r3
 372              	@ 0 "" 2
 373              		.loc 3 494 1
 374              		.thumb
 375              		.syntax unified
 376 0010 00BF     		nop
 377              	.LBE37:
 378              	.LBE36:
 379              		.loc 4 854 1
 380 0012 00BF     		nop
 381              	.LBE35:
 382              	.LBE34:
 383              		.loc 4 876 1
 384 0014 00BF     		nop
 385              	.LBE33:
 386              	.LBE32:
 387              		.loc 2 478 1
 388 0016 00BF     		nop
 389 0018 0C37     		adds	r7, r7, #12
 390              		.cfi_def_cfa_offset 4
 391 001a BD46     		mov	sp, r7
 392              		.cfi_def_cfa_register 13
 393              		@ sp needed
 394 001c 80BC     		pop	{r7}
 395              		.cfi_restore 7
 396              		.cfi_def_cfa_offset 0
 397 001e 7047     		bx	lr
 398              		.cfi_endproc
 399              	.LFE205:
ARM GAS  C:\Users\DEVELO~1\AppData\Local\Temp\ccW7fz6e.s 			page 8


 400              		.size	chSysUnlockFromISR, .-chSysUnlockFromISR
 401              		.section	.text.chVTIsArmedI,"ax",%progbits
 402              		.align	1
 403              		.syntax unified
 404              		.thumb
 405              		.thumb_func
 406              		.type	chVTIsArmedI, %function
 407              	chVTIsArmedI:
 408              	.LFB215:
 409              		.file 5 "../../../os/rt/include/chvt.h"
 410              		.loc 5 248 61
 411              		.cfi_startproc
 412              		@ args = 0, pretend = 0, frame = 8
 413              		@ frame_needed = 1, uses_anonymous_args = 0
 414              		@ link register save eliminated.
 415 0000 80B4     		push	{r7}
 416              		.cfi_def_cfa_offset 4
 417              		.cfi_offset 7, -4
 418 0002 83B0     		sub	sp, sp, #12
 419              		.cfi_def_cfa_offset 16
 420 0004 00AF     		add	r7, sp, #0
 421              		.cfi_def_cfa_register 7
 422 0006 7860     		str	r0, [r7, #4]
 423              		.loc 5 252 27
 424 0008 7B68     		ldr	r3, [r7, #4]
 425 000a 1B68     		ldr	r3, [r3]
 426              		.loc 5 252 10
 427 000c 002B     		cmp	r3, #0
 428 000e 14BF     		ite	ne
 429 0010 0123     		movne	r3, #1
 430 0012 0023     		moveq	r3, #0
 431 0014 DBB2     		uxtb	r3, r3
 432              		.loc 5 253 1
 433 0016 1846     		mov	r0, r3
 434 0018 0C37     		adds	r7, r7, #12
 435              		.cfi_def_cfa_offset 4
 436 001a BD46     		mov	sp, r7
 437              		.cfi_def_cfa_register 13
 438              		@ sp needed
 439 001c 80BC     		pop	{r7}
 440              		.cfi_restore 7
 441              		.cfi_def_cfa_offset 0
 442 001e 7047     		bx	lr
 443              		.cfi_endproc
 444              	.LFE215:
 445              		.size	chVTIsArmedI, .-chVTIsArmedI
 446              		.section	.text.chSemFastSignalI,"ax",%progbits
 447              		.align	1
 448              		.syntax unified
 449              		.thumb
 450              		.thumb_func
 451              		.type	chSemFastSignalI, %function
 452              	chSemFastSignalI:
 453              	.LFB246:
 454              		.file 6 "../../../os/rt/include/chsem.h"
 455              		.loc 6 174 54
 456              		.cfi_startproc
ARM GAS  C:\Users\DEVELO~1\AppData\Local\Temp\ccW7fz6e.s 			page 9


 457              		@ args = 0, pretend = 0, frame = 8
 458              		@ frame_needed = 1, uses_anonymous_args = 0
 459              		@ link register save eliminated.
 460 0000 80B4     		push	{r7}
 461              		.cfi_def_cfa_offset 4
 462              		.cfi_offset 7, -4
 463 0002 83B0     		sub	sp, sp, #12
 464              		.cfi_def_cfa_offset 16
 465 0004 00AF     		add	r7, sp, #0
 466              		.cfi_def_cfa_register 7
 467 0006 7860     		str	r0, [r7, #4]
 468              		.loc 6 178 5
 469 0008 7B68     		ldr	r3, [r7, #4]
 470 000a 9B68     		ldr	r3, [r3, #8]
 471              		.loc 6 178 10
 472 000c 5A1C     		adds	r2, r3, #1
 473 000e 7B68     		ldr	r3, [r7, #4]
 474 0010 9A60     		str	r2, [r3, #8]
 475              		.loc 6 179 1
 476 0012 00BF     		nop
 477 0014 0C37     		adds	r7, r7, #12
 478              		.cfi_def_cfa_offset 4
 479 0016 BD46     		mov	sp, r7
 480              		.cfi_def_cfa_register 13
 481              		@ sp needed
 482 0018 80BC     		pop	{r7}
 483              		.cfi_restore 7
 484              		.cfi_def_cfa_offset 0
 485 001a 7047     		bx	lr
 486              		.cfi_endproc
 487              	.LFE246:
 488              		.size	chSemFastSignalI, .-chSemFastSignalI
 489              		.section	.text.__sch_ready_behind,"ax",%progbits
 490              		.align	1
 491              		.syntax unified
 492              		.thumb
 493              		.thumb_func
 494              		.type	__sch_ready_behind, %function
 495              	__sch_ready_behind:
 496              	.LFB346:
 497              		.file 7 "../../../os/rt/src/chschd.c"
 498              		.loc 7 67 51
 499              		.cfi_startproc
 500              		@ args = 0, pretend = 0, frame = 8
 501              		@ frame_needed = 1, uses_anonymous_args = 0
 502 0000 80B5     		push	{r7, lr}
 503              		.cfi_def_cfa_offset 8
 504              		.cfi_offset 7, -8
 505              		.cfi_offset 14, -4
 506 0002 82B0     		sub	sp, sp, #8
 507              		.cfi_def_cfa_offset 16
 508 0004 00AF     		add	r7, sp, #0
 509              		.cfi_def_cfa_register 7
 510 0006 7860     		str	r0, [r7, #4]
 511              		.loc 7 74 3
 512 0008 7B68     		ldr	r3, [r7, #4]
 513 000a 9B6A     		ldr	r3, [r3, #40]
ARM GAS  C:\Users\DEVELO~1\AppData\Local\Temp\ccW7fz6e.s 			page 10


 514 000c 1946     		mov	r1, r3
 515 000e 7868     		ldr	r0, [r7, #4]
 516 0010 FFF7FEFF 		bl	__trace_ready
 517              		.loc 7 77 13
 518 0014 7B68     		ldr	r3, [r7, #4]
 519 0016 0022     		movs	r2, #0
 520 0018 83F82420 		strb	r2, [r3, #36]
 521              		.loc 7 80 10
 522 001c 7B68     		ldr	r3, [r7, #4]
 523 001e 9B69     		ldr	r3, [r3, #24]
 524 0020 1A46     		mov	r2, r3
 525 0022 7B68     		ldr	r3, [r7, #4]
 526 0024 1946     		mov	r1, r3
 527 0026 1046     		mov	r0, r2
 528 0028 FFF7FEFF 		bl	ch_pqueue_insert_behind
 529 002c 0346     		mov	r3, r0
 530              		.loc 7 82 1
 531 002e 1846     		mov	r0, r3
 532 0030 0837     		adds	r7, r7, #8
 533              		.cfi_def_cfa_offset 8
 534 0032 BD46     		mov	sp, r7
 535              		.cfi_def_cfa_register 13
 536              		@ sp needed
 537 0034 80BD     		pop	{r7, pc}
 538              		.cfi_endproc
 539              	.LFE346:
 540              		.size	__sch_ready_behind, .-__sch_ready_behind
 541              		.section	.text.__sch_ready_ahead,"ax",%progbits
 542              		.align	1
 543              		.syntax unified
 544              		.thumb
 545              		.thumb_func
 546              		.type	__sch_ready_ahead, %function
 547              	__sch_ready_ahead:
 548              	.LFB347:
 549              		.loc 7 100 50
 550              		.cfi_startproc
 551              		@ args = 0, pretend = 0, frame = 8
 552              		@ frame_needed = 1, uses_anonymous_args = 0
 553 0000 80B5     		push	{r7, lr}
 554              		.cfi_def_cfa_offset 8
 555              		.cfi_offset 7, -8
 556              		.cfi_offset 14, -4
 557 0002 82B0     		sub	sp, sp, #8
 558              		.cfi_def_cfa_offset 16
 559 0004 00AF     		add	r7, sp, #0
 560              		.cfi_def_cfa_register 7
 561 0006 7860     		str	r0, [r7, #4]
 562              		.loc 7 107 3
 563 0008 7B68     		ldr	r3, [r7, #4]
 564 000a 9B6A     		ldr	r3, [r3, #40]
 565 000c 1946     		mov	r1, r3
 566 000e 7868     		ldr	r0, [r7, #4]
 567 0010 FFF7FEFF 		bl	__trace_ready
 568              		.loc 7 110 13
 569 0014 7B68     		ldr	r3, [r7, #4]
 570 0016 0022     		movs	r2, #0
ARM GAS  C:\Users\DEVELO~1\AppData\Local\Temp\ccW7fz6e.s 			page 11


 571 0018 83F82420 		strb	r2, [r3, #36]
 572              		.loc 7 113 10
 573 001c 7B68     		ldr	r3, [r7, #4]
 574 001e 9B69     		ldr	r3, [r3, #24]
 575 0020 1A46     		mov	r2, r3
 576 0022 7B68     		ldr	r3, [r7, #4]
 577 0024 1946     		mov	r1, r3
 578 0026 1046     		mov	r0, r2
 579 0028 FFF7FEFF 		bl	ch_pqueue_insert_ahead
 580 002c 0346     		mov	r3, r0
 581              		.loc 7 115 1
 582 002e 1846     		mov	r0, r3
 583 0030 0837     		adds	r7, r7, #8
 584              		.cfi_def_cfa_offset 8
 585 0032 BD46     		mov	sp, r7
 586              		.cfi_def_cfa_register 13
 587              		@ sp needed
 588 0034 80BD     		pop	{r7, pc}
 589              		.cfi_endproc
 590              	.LFE347:
 591              		.size	__sch_ready_ahead, .-__sch_ready_ahead
 592              		.section	.text.__sch_reschedule_behind,"ax",%progbits
 593              		.align	1
 594              		.syntax unified
 595              		.thumb
 596              		.thumb_func
 597              		.type	__sch_reschedule_behind, %function
 598              	__sch_reschedule_behind:
 599              	.LFB348:
 600              		.loc 7 127 43
 601              		.cfi_startproc
 602              		@ args = 0, pretend = 0, frame = 16
 603              		@ frame_needed = 1, uses_anonymous_args = 0
 604 0000 80B5     		push	{r7, lr}
 605              		.cfi_def_cfa_offset 8
 606              		.cfi_offset 7, -8
 607              		.cfi_offset 14, -4
 608 0002 84B0     		sub	sp, sp, #16
 609              		.cfi_def_cfa_offset 24
 610 0004 00AF     		add	r7, sp, #0
 611              		.cfi_def_cfa_register 7
 612              		.loc 7 128 18
 613 0006 104B     		ldr	r3, .L21
 614 0008 FB60     		str	r3, [r7, #12]
 615              		.loc 7 129 13
 616 000a FB68     		ldr	r3, [r7, #12]
 617 000c DB68     		ldr	r3, [r3, #12]
 618 000e BB60     		str	r3, [r7, #8]
 619              		.loc 7 133 9
 620 0010 FB68     		ldr	r3, [r7, #12]
 621 0012 1846     		mov	r0, r3
 622 0014 FFF7FEFF 		bl	ch_pqueue_remove_highest
 623 0018 7860     		str	r0, [r7, #4]
 624              		.loc 7 134 14
 625 001a 7B68     		ldr	r3, [r7, #4]
 626 001c 0122     		movs	r2, #1
 627 001e 83F82420 		strb	r2, [r3, #36]
ARM GAS  C:\Users\DEVELO~1\AppData\Local\Temp\ccW7fz6e.s 			page 12


 628              		.loc 7 135 3
 629 0022 FB68     		ldr	r3, [r7, #12]
 630 0024 7A68     		ldr	r2, [r7, #4]
 631 0026 DA60     		str	r2, [r3, #12]
 632              		.loc 7 148 9
 633 0028 B868     		ldr	r0, [r7, #8]
 634 002a FFF7FEFF 		bl	__sch_ready_behind
 635 002e B860     		str	r0, [r7, #8]
 636              		.loc 7 151 3
 637 0030 B968     		ldr	r1, [r7, #8]
 638 0032 7868     		ldr	r0, [r7, #4]
 639 0034 FFF7FEFF 		bl	__trace_switch
 640 0038 B968     		ldr	r1, [r7, #8]
 641 003a 7868     		ldr	r0, [r7, #4]
 642 003c FFF7FEFF 		bl	__port_switch
 643              		.loc 7 152 1
 644 0040 00BF     		nop
 645 0042 1037     		adds	r7, r7, #16
 646              		.cfi_def_cfa_offset 8
 647 0044 BD46     		mov	sp, r7
 648              		.cfi_def_cfa_register 13
 649              		@ sp needed
 650 0046 80BD     		pop	{r7, pc}
 651              	.L22:
 652              		.align	2
 653              	.L21:
 654 0048 00000000 		.word	ch0
 655              		.cfi_endproc
 656              	.LFE348:
 657              		.size	__sch_reschedule_behind, .-__sch_reschedule_behind
 658              		.section	.text.__sch_reschedule_ahead,"ax",%progbits
 659              		.align	1
 660              		.syntax unified
 661              		.thumb
 662              		.thumb_func
 663              		.type	__sch_reschedule_ahead, %function
 664              	__sch_reschedule_ahead:
 665              	.LFB349:
 666              		.loc 7 163 42
 667              		.cfi_startproc
 668              		@ args = 0, pretend = 0, frame = 16
 669              		@ frame_needed = 1, uses_anonymous_args = 0
 670 0000 80B5     		push	{r7, lr}
 671              		.cfi_def_cfa_offset 8
 672              		.cfi_offset 7, -8
 673              		.cfi_offset 14, -4
 674 0002 84B0     		sub	sp, sp, #16
 675              		.cfi_def_cfa_offset 24
 676 0004 00AF     		add	r7, sp, #0
 677              		.cfi_def_cfa_register 7
 678              		.loc 7 164 18
 679 0006 104B     		ldr	r3, .L24
 680 0008 FB60     		str	r3, [r7, #12]
 681              		.loc 7 165 13
 682 000a FB68     		ldr	r3, [r7, #12]
 683 000c DB68     		ldr	r3, [r3, #12]
 684 000e BB60     		str	r3, [r7, #8]
ARM GAS  C:\Users\DEVELO~1\AppData\Local\Temp\ccW7fz6e.s 			page 13


 685              		.loc 7 169 9
 686 0010 FB68     		ldr	r3, [r7, #12]
 687 0012 1846     		mov	r0, r3
 688 0014 FFF7FEFF 		bl	ch_pqueue_remove_highest
 689 0018 7860     		str	r0, [r7, #4]
 690              		.loc 7 170 14
 691 001a 7B68     		ldr	r3, [r7, #4]
 692 001c 0122     		movs	r2, #1
 693 001e 83F82420 		strb	r2, [r3, #36]
 694              		.loc 7 171 3
 695 0022 FB68     		ldr	r3, [r7, #12]
 696 0024 7A68     		ldr	r2, [r7, #4]
 697 0026 DA60     		str	r2, [r3, #12]
 698              		.loc 7 179 9
 699 0028 B868     		ldr	r0, [r7, #8]
 700 002a FFF7FEFF 		bl	__sch_ready_ahead
 701 002e B860     		str	r0, [r7, #8]
 702              		.loc 7 182 3
 703 0030 B968     		ldr	r1, [r7, #8]
 704 0032 7868     		ldr	r0, [r7, #4]
 705 0034 FFF7FEFF 		bl	__trace_switch
 706 0038 B968     		ldr	r1, [r7, #8]
 707 003a 7868     		ldr	r0, [r7, #4]
 708 003c FFF7FEFF 		bl	__port_switch
 709              		.loc 7 183 1
 710 0040 00BF     		nop
 711 0042 1037     		adds	r7, r7, #16
 712              		.cfi_def_cfa_offset 8
 713 0044 BD46     		mov	sp, r7
 714              		.cfi_def_cfa_register 13
 715              		@ sp needed
 716 0046 80BD     		pop	{r7, pc}
 717              	.L25:
 718              		.align	2
 719              	.L24:
 720 0048 00000000 		.word	ch0
 721              		.cfi_endproc
 722              	.LFE349:
 723              		.size	__sch_reschedule_ahead, .-__sch_reschedule_ahead
 724              		.section	.text.__sch_wakeup,"ax",%progbits
 725              		.align	1
 726              		.syntax unified
 727              		.thumb
 728              		.thumb_func
 729              		.type	__sch_wakeup, %function
 730              	__sch_wakeup:
 731              	.LFB350:
 732              		.loc 7 188 57
 733              		.cfi_startproc
 734              		@ args = 0, pretend = 0, frame = 16
 735              		@ frame_needed = 1, uses_anonymous_args = 0
 736 0000 80B5     		push	{r7, lr}
 737              		.cfi_def_cfa_offset 8
 738              		.cfi_offset 7, -8
 739              		.cfi_offset 14, -4
 740 0002 84B0     		sub	sp, sp, #16
 741              		.cfi_def_cfa_offset 24
ARM GAS  C:\Users\DEVELO~1\AppData\Local\Temp\ccW7fz6e.s 			page 14


 742 0004 00AF     		add	r7, sp, #0
 743              		.cfi_def_cfa_register 7
 744 0006 7860     		str	r0, [r7, #4]
 745 0008 3960     		str	r1, [r7]
 746              		.loc 7 189 13
 747 000a 3B68     		ldr	r3, [r7]
 748 000c FB60     		str	r3, [r7, #12]
 749              		.loc 7 193 3
 750 000e FFF7FEFF 		bl	chSysLockFromISR
 751              		.loc 7 194 13
 752 0012 FB68     		ldr	r3, [r7, #12]
 753 0014 93F82430 		ldrb	r3, [r3, #36]	@ zero_extendqisi2
 754              		.loc 7 194 3
 755 0018 0C2B     		cmp	r3, #12
 756 001a 2FD8     		bhi	.L35
 757 001c 01A2     		adr	r2, .L29
 758 001e 52F823F0 		ldr	pc, [r2, r3, lsl #2]
 759 0022 00BF     		.p2align 2
 760              	.L29:
 761 0024 59000000 		.word	.L32+1
 762 0028 7D000000 		.word	.L35+1
 763 002c 7D000000 		.word	.L35+1
 764 0030 5F000000 		.word	.L31+1
 765 0034 73000000 		.word	.L28+1
 766 0038 69000000 		.word	.L30+1
 767 003c 7D000000 		.word	.L35+1
 768 0040 73000000 		.word	.L28+1
 769 0044 7D000000 		.word	.L35+1
 770 0048 7D000000 		.word	.L35+1
 771 004c 7D000000 		.word	.L35+1
 772 0050 7D000000 		.word	.L35+1
 773 0054 73000000 		.word	.L28+1
 774              		.p2align 1
 775              	.L32:
 776              		.loc 7 198 5
 777 0058 FFF7FEFF 		bl	chSysUnlockFromISR
 778              		.loc 7 199 5
 779 005c 19E0     		b	.L26
 780              	.L31:
 781              		.loc 7 201 11
 782 005e FB68     		ldr	r3, [r7, #12]
 783 0060 9B6A     		ldr	r3, [r3, #40]
 784              		.loc 7 201 18
 785 0062 0022     		movs	r2, #0
 786 0064 1A60     		str	r2, [r3]
 787              		.loc 7 202 5
 788 0066 0AE0     		b	.L34
 789              	.L30:
 790              		.loc 7 205 27
 791 0068 FB68     		ldr	r3, [r7, #12]
 792 006a 9B6A     		ldr	r3, [r3, #40]
 793              		.loc 7 205 5
 794 006c 1846     		mov	r0, r3
 795 006e FFF7FEFF 		bl	chSemFastSignalI
 796              	.L28:
 797              		.loc 7 218 12
 798 0072 FB68     		ldr	r3, [r7, #12]
ARM GAS  C:\Users\DEVELO~1\AppData\Local\Temp\ccW7fz6e.s 			page 15


 799 0074 1846     		mov	r0, r3
 800 0076 FFF7FEFF 		bl	ch_queue_dequeue
 801              		.loc 7 219 5
 802 007a 00E0     		b	.L34
 803              	.L35:
 804              		.loc 7 222 5
 805 007c 00BF     		nop
 806              	.L34:
 807              		.loc 7 226 16
 808 007e FB68     		ldr	r3, [r7, #12]
 809 0080 4FF0FF32 		mov	r2, #-1
 810 0084 9A62     		str	r2, [r3, #40]
 811              		.loc 7 229 10
 812 0086 F868     		ldr	r0, [r7, #12]
 813 0088 FFF7FEFF 		bl	__sch_ready_behind
 814              		.loc 7 230 3
 815 008c FFF7FEFF 		bl	chSysUnlockFromISR
 816              		.loc 7 232 3
 817 0090 00BF     		nop
 818              	.L26:
 819              		.loc 7 233 1
 820 0092 1037     		adds	r7, r7, #16
 821              		.cfi_def_cfa_offset 8
 822 0094 BD46     		mov	sp, r7
 823              		.cfi_def_cfa_register 13
 824              		@ sp needed
 825 0096 80BD     		pop	{r7, pc}
 826              		.cfi_endproc
 827              	.LFE350:
 828              		.size	__sch_wakeup, .-__sch_wakeup
 829              		.section	.text.chSchReadyI,"ax",%progbits
 830              		.align	1
 831              		.global	chSchReadyI
 832              		.syntax unified
 833              		.thumb
 834              		.thumb_func
 835              		.type	chSchReadyI, %function
 836              	chSchReadyI:
 837              	.LFB351:
 838              		.loc 7 280 37
 839              		.cfi_startproc
 840              		@ args = 0, pretend = 0, frame = 8
 841              		@ frame_needed = 1, uses_anonymous_args = 0
 842 0000 80B5     		push	{r7, lr}
 843              		.cfi_def_cfa_offset 8
 844              		.cfi_offset 7, -8
 845              		.cfi_offset 14, -4
 846 0002 82B0     		sub	sp, sp, #8
 847              		.cfi_def_cfa_offset 16
 848 0004 00AF     		add	r7, sp, #0
 849              		.cfi_def_cfa_register 7
 850 0006 7860     		str	r0, [r7, #4]
 851              		.loc 7 293 10
 852 0008 7868     		ldr	r0, [r7, #4]
 853 000a FFF7FEFF 		bl	__sch_ready_behind
 854 000e 0346     		mov	r3, r0
 855              		.loc 7 294 1
ARM GAS  C:\Users\DEVELO~1\AppData\Local\Temp\ccW7fz6e.s 			page 16


 856 0010 1846     		mov	r0, r3
 857 0012 0837     		adds	r7, r7, #8
 858              		.cfi_def_cfa_offset 8
 859 0014 BD46     		mov	sp, r7
 860              		.cfi_def_cfa_register 13
 861              		@ sp needed
 862 0016 80BD     		pop	{r7, pc}
 863              		.cfi_endproc
 864              	.LFE351:
 865              		.size	chSchReadyI, .-chSchReadyI
 866              		.section	.text.chSchGoSleepS,"ax",%progbits
 867              		.align	1
 868              		.global	chSchGoSleepS
 869              		.syntax unified
 870              		.thumb
 871              		.thumb_func
 872              		.type	chSchGoSleepS, %function
 873              	chSchGoSleepS:
 874              	.LFB352:
 875              		.loc 7 305 39
 876              		.cfi_startproc
 877              		@ args = 0, pretend = 0, frame = 24
 878              		@ frame_needed = 1, uses_anonymous_args = 0
 879 0000 80B5     		push	{r7, lr}
 880              		.cfi_def_cfa_offset 8
 881              		.cfi_offset 7, -8
 882              		.cfi_offset 14, -4
 883 0002 86B0     		sub	sp, sp, #24
 884              		.cfi_def_cfa_offset 32
 885 0004 00AF     		add	r7, sp, #0
 886              		.cfi_def_cfa_register 7
 887 0006 0346     		mov	r3, r0
 888 0008 FB71     		strb	r3, [r7, #7]
 889              		.loc 7 306 18
 890 000a 104B     		ldr	r3, .L40
 891 000c 3B61     		str	r3, [r7, #16]
 892              		.loc 7 307 13
 893 000e 3B69     		ldr	r3, [r7, #16]
 894 0010 DB68     		ldr	r3, [r3, #12]
 895 0012 FB60     		str	r3, [r7, #12]
 896              		.loc 7 316 14
 897 0014 FB68     		ldr	r3, [r7, #12]
 898 0016 FA79     		ldrb	r2, [r7, #7]
 899 0018 83F82420 		strb	r2, [r3, #36]
 900              		.loc 7 325 9
 901 001c 3B69     		ldr	r3, [r7, #16]
 902 001e 1846     		mov	r0, r3
 903 0020 FFF7FEFF 		bl	ch_pqueue_remove_highest
 904 0024 7861     		str	r0, [r7, #20]
 905              		.loc 7 326 14
 906 0026 7B69     		ldr	r3, [r7, #20]
 907 0028 0122     		movs	r2, #1
 908 002a 83F82420 		strb	r2, [r3, #36]
 909              		.loc 7 327 3
 910 002e 3B69     		ldr	r3, [r7, #16]
 911 0030 7A69     		ldr	r2, [r7, #20]
 912 0032 DA60     		str	r2, [r3, #12]
ARM GAS  C:\Users\DEVELO~1\AppData\Local\Temp\ccW7fz6e.s 			page 17


 913              		.loc 7 335 3
 914 0034 F968     		ldr	r1, [r7, #12]
 915 0036 7869     		ldr	r0, [r7, #20]
 916 0038 FFF7FEFF 		bl	__trace_switch
 917 003c F968     		ldr	r1, [r7, #12]
 918 003e 7869     		ldr	r0, [r7, #20]
 919 0040 FFF7FEFF 		bl	__port_switch
 920              		.loc 7 336 1
 921 0044 00BF     		nop
 922 0046 1837     		adds	r7, r7, #24
 923              		.cfi_def_cfa_offset 8
 924 0048 BD46     		mov	sp, r7
 925              		.cfi_def_cfa_register 13
 926              		@ sp needed
 927 004a 80BD     		pop	{r7, pc}
 928              	.L41:
 929              		.align	2
 930              	.L40:
 931 004c 00000000 		.word	ch0
 932              		.cfi_endproc
 933              	.LFE352:
 934              		.size	chSchGoSleepS, .-chSchGoSleepS
 935              		.section	.text.chSchGoSleepTimeoutS,"ax",%progbits
 936              		.align	1
 937              		.global	chSchGoSleepTimeoutS
 938              		.syntax unified
 939              		.thumb
 940              		.thumb_func
 941              		.type	chSchGoSleepTimeoutS, %function
 942              	chSchGoSleepTimeoutS:
 943              	.LFB353:
 944              		.loc 7 359 70
 945              		.cfi_startproc
 946              		@ args = 0, pretend = 0, frame = 40
 947              		@ frame_needed = 1, uses_anonymous_args = 0
 948 0000 80B5     		push	{r7, lr}
 949              		.cfi_def_cfa_offset 8
 950              		.cfi_offset 7, -8
 951              		.cfi_offset 14, -4
 952 0002 8AB0     		sub	sp, sp, #40
 953              		.cfi_def_cfa_offset 48
 954 0004 00AF     		add	r7, sp, #0
 955              		.cfi_def_cfa_register 7
 956 0006 0346     		mov	r3, r0
 957 0008 3960     		str	r1, [r7]
 958 000a FB71     		strb	r3, [r7, #7]
 959              		.loc 7 360 13
 960 000c 144B     		ldr	r3, .L47
 961 000e DB68     		ldr	r3, [r3, #12]
 962 0010 7B62     		str	r3, [r7, #36]
 963              		.loc 7 364 6
 964 0012 3B68     		ldr	r3, [r7]
 965 0014 B3F1FF3F 		cmp	r3, #-1
 966 0018 18D0     		beq	.L43
 967              	.LBB38:
 968              		.loc 7 367 5
 969 001a 07F10C00 		add	r0, r7, #12
ARM GAS  C:\Users\DEVELO~1\AppData\Local\Temp\ccW7fz6e.s 			page 18


 970 001e 7B6A     		ldr	r3, [r7, #36]
 971 0020 104A     		ldr	r2, .L47+4
 972 0022 3968     		ldr	r1, [r7]
 973 0024 FFF7FEFF 		bl	chVTDoSetI
 974              		.loc 7 368 5
 975 0028 FB79     		ldrb	r3, [r7, #7]	@ zero_extendqisi2
 976 002a 1846     		mov	r0, r3
 977 002c FFF7FEFF 		bl	chSchGoSleepS
 978              		.loc 7 369 9
 979 0030 07F10C03 		add	r3, r7, #12
 980 0034 1846     		mov	r0, r3
 981 0036 FFF7FEFF 		bl	chVTIsArmedI
 982 003a 0346     		mov	r3, r0
 983              		.loc 7 369 8
 984 003c 002B     		cmp	r3, #0
 985 003e 09D0     		beq	.L45
 986              		.loc 7 370 7
 987 0040 07F10C03 		add	r3, r7, #12
 988 0044 1846     		mov	r0, r3
 989 0046 FFF7FEFF 		bl	chVTDoResetI
 990 004a 03E0     		b	.L45
 991              	.L43:
 992              	.LBE38:
 993              		.loc 7 374 5
 994 004c FB79     		ldrb	r3, [r7, #7]	@ zero_extendqisi2
 995 004e 1846     		mov	r0, r3
 996 0050 FFF7FEFF 		bl	chSchGoSleepS
 997              	.L45:
 998              		.loc 7 377 15
 999 0054 7B6A     		ldr	r3, [r7, #36]
 1000 0056 9B6A     		ldr	r3, [r3, #40]
 1001              		.loc 7 378 1
 1002 0058 1846     		mov	r0, r3
 1003 005a 2837     		adds	r7, r7, #40
 1004              		.cfi_def_cfa_offset 8
 1005 005c BD46     		mov	sp, r7
 1006              		.cfi_def_cfa_register 13
 1007              		@ sp needed
 1008 005e 80BD     		pop	{r7, pc}
 1009              	.L48:
 1010              		.align	2
 1011              	.L47:
 1012 0060 00000000 		.word	ch0
 1013 0064 00000000 		.word	__sch_wakeup
 1014              		.cfi_endproc
 1015              	.LFE353:
 1016              		.size	chSchGoSleepTimeoutS, .-chSchGoSleepTimeoutS
 1017              		.section	.text.chSchWakeupS,"ax",%progbits
 1018              		.align	1
 1019              		.global	chSchWakeupS
 1020              		.syntax unified
 1021              		.thumb
 1022              		.thumb_func
 1023              		.type	chSchWakeupS, %function
 1024              	chSchWakeupS:
 1025              	.LFB354:
 1026              		.loc 7 397 45
ARM GAS  C:\Users\DEVELO~1\AppData\Local\Temp\ccW7fz6e.s 			page 19


 1027              		.cfi_startproc
 1028              		@ args = 0, pretend = 0, frame = 16
 1029              		@ frame_needed = 1, uses_anonymous_args = 0
 1030 0000 80B5     		push	{r7, lr}
 1031              		.cfi_def_cfa_offset 8
 1032              		.cfi_offset 7, -8
 1033              		.cfi_offset 14, -4
 1034 0002 84B0     		sub	sp, sp, #16
 1035              		.cfi_def_cfa_offset 24
 1036 0004 00AF     		add	r7, sp, #0
 1037              		.cfi_def_cfa_register 7
 1038 0006 7860     		str	r0, [r7, #4]
 1039 0008 3960     		str	r1, [r7]
 1040              		.loc 7 398 18
 1041 000a 174B     		ldr	r3, .L53
 1042 000c BB60     		str	r3, [r7, #8]
 1043              		.loc 7 399 13
 1044 000e BB68     		ldr	r3, [r7, #8]
 1045 0010 DB68     		ldr	r3, [r3, #12]
 1046 0012 FB60     		str	r3, [r7, #12]
 1047              		.loc 7 409 17
 1048 0014 7B68     		ldr	r3, [r7, #4]
 1049 0016 3A68     		ldr	r2, [r7]
 1050 0018 9A62     		str	r2, [r3, #40]
 1051              		.loc 7 427 7
 1052 001a 7B68     		ldr	r3, [r7, #4]
 1053 001c 9A68     		ldr	r2, [r3, #8]
 1054 001e FB68     		ldr	r3, [r7, #12]
 1055 0020 9B68     		ldr	r3, [r3, #8]
 1056 0022 9A42     		cmp	r2, r3
 1057 0024 94BF     		ite	ls
 1058 0026 0123     		movls	r3, #1
 1059 0028 0023     		movhi	r3, #0
 1060 002a DBB2     		uxtb	r3, r3
 1061              		.loc 7 427 6
 1062 002c 002B     		cmp	r3, #0
 1063 002e 03D0     		beq	.L50
 1064              		.loc 7 428 12
 1065 0030 7868     		ldr	r0, [r7, #4]
 1066 0032 FFF7FEFF 		bl	__sch_ready_behind
 1067              		.loc 7 447 1
 1068 0036 12E0     		b	.L52
 1069              	.L50:
 1070              		.loc 7 433 11
 1071 0038 F868     		ldr	r0, [r7, #12]
 1072 003a FFF7FEFF 		bl	__sch_ready_ahead
 1073 003e F860     		str	r0, [r7, #12]
 1074              		.loc 7 441 16
 1075 0040 7B68     		ldr	r3, [r7, #4]
 1076 0042 0122     		movs	r2, #1
 1077 0044 83F82420 		strb	r2, [r3, #36]
 1078              		.loc 7 442 5
 1079 0048 BB68     		ldr	r3, [r7, #8]
 1080 004a 7A68     		ldr	r2, [r7, #4]
 1081 004c DA60     		str	r2, [r3, #12]
 1082              		.loc 7 445 5
 1083 004e F968     		ldr	r1, [r7, #12]
ARM GAS  C:\Users\DEVELO~1\AppData\Local\Temp\ccW7fz6e.s 			page 20


 1084 0050 7868     		ldr	r0, [r7, #4]
 1085 0052 FFF7FEFF 		bl	__trace_switch
 1086 0056 F968     		ldr	r1, [r7, #12]
 1087 0058 7868     		ldr	r0, [r7, #4]
 1088 005a FFF7FEFF 		bl	__port_switch
 1089              	.L52:
 1090              		.loc 7 447 1
 1091 005e 00BF     		nop
 1092 0060 1037     		adds	r7, r7, #16
 1093              		.cfi_def_cfa_offset 8
 1094 0062 BD46     		mov	sp, r7
 1095              		.cfi_def_cfa_register 13
 1096              		@ sp needed
 1097 0064 80BD     		pop	{r7, pc}
 1098              	.L54:
 1099 0066 00BF     		.align	2
 1100              	.L53:
 1101 0068 00000000 		.word	ch0
 1102              		.cfi_endproc
 1103              	.LFE354:
 1104              		.size	chSchWakeupS, .-chSchWakeupS
 1105              		.section	.text.chSchRescheduleS,"ax",%progbits
 1106              		.align	1
 1107              		.global	chSchRescheduleS
 1108              		.syntax unified
 1109              		.thumb
 1110              		.thumb_func
 1111              		.type	chSchRescheduleS, %function
 1112              	chSchRescheduleS:
 1113              	.LFB355:
 1114              		.loc 7 458 29
 1115              		.cfi_startproc
 1116              		@ args = 0, pretend = 0, frame = 8
 1117              		@ frame_needed = 1, uses_anonymous_args = 0
 1118 0000 80B5     		push	{r7, lr}
 1119              		.cfi_def_cfa_offset 8
 1120              		.cfi_offset 7, -8
 1121              		.cfi_offset 14, -4
 1122 0002 82B0     		sub	sp, sp, #8
 1123              		.cfi_def_cfa_offset 16
 1124 0004 00AF     		add	r7, sp, #0
 1125              		.cfi_def_cfa_register 7
 1126              		.loc 7 459 18
 1127 0006 0B4B     		ldr	r3, .L58
 1128 0008 7B60     		str	r3, [r7, #4]
 1129              		.loc 7 460 13
 1130 000a 7B68     		ldr	r3, [r7, #4]
 1131 000c DB68     		ldr	r3, [r3, #12]
 1132 000e 3B60     		str	r3, [r7]
 1133              		.loc 7 466 7
 1134 0010 7B68     		ldr	r3, [r7, #4]
 1135 0012 1B68     		ldr	r3, [r3]
 1136 0014 9A68     		ldr	r2, [r3, #8]
 1137 0016 3B68     		ldr	r3, [r7]
 1138 0018 9B68     		ldr	r3, [r3, #8]
 1139 001a 9A42     		cmp	r2, r3
 1140 001c 8CBF     		ite	hi
ARM GAS  C:\Users\DEVELO~1\AppData\Local\Temp\ccW7fz6e.s 			page 21


 1141 001e 0123     		movhi	r3, #1
 1142 0020 0023     		movls	r3, #0
 1143 0022 DBB2     		uxtb	r3, r3
 1144              		.loc 7 466 6
 1145 0024 002B     		cmp	r3, #0
 1146 0026 01D0     		beq	.L57
 1147              		.loc 7 467 5
 1148 0028 FFF7FEFF 		bl	__sch_reschedule_ahead
 1149              	.L57:
 1150              		.loc 7 469 1
 1151 002c 00BF     		nop
 1152 002e 0837     		adds	r7, r7, #8
 1153              		.cfi_def_cfa_offset 8
 1154 0030 BD46     		mov	sp, r7
 1155              		.cfi_def_cfa_register 13
 1156              		@ sp needed
 1157 0032 80BD     		pop	{r7, pc}
 1158              	.L59:
 1159              		.align	2
 1160              	.L58:
 1161 0034 00000000 		.word	ch0
 1162              		.cfi_endproc
 1163              	.LFE355:
 1164              		.size	chSchRescheduleS, .-chSchRescheduleS
 1165              		.section	.text.chSchIsPreemptionRequired,"ax",%progbits
 1166              		.align	1
 1167              		.global	chSchIsPreemptionRequired
 1168              		.syntax unified
 1169              		.thumb
 1170              		.thumb_func
 1171              		.type	chSchIsPreemptionRequired, %function
 1172              	chSchIsPreemptionRequired:
 1173              	.LFB356:
 1174              		.loc 7 485 38
 1175              		.cfi_startproc
 1176              		@ args = 0, pretend = 0, frame = 16
 1177              		@ frame_needed = 1, uses_anonymous_args = 0
 1178              		@ link register save eliminated.
 1179 0000 80B4     		push	{r7}
 1180              		.cfi_def_cfa_offset 4
 1181              		.cfi_offset 7, -4
 1182 0002 85B0     		sub	sp, sp, #20
 1183              		.cfi_def_cfa_offset 24
 1184 0004 00AF     		add	r7, sp, #0
 1185              		.cfi_def_cfa_register 7
 1186              		.loc 7 486 18
 1187 0006 0C4B     		ldr	r3, .L62
 1188 0008 FB60     		str	r3, [r7, #12]
 1189              		.loc 7 487 13
 1190 000a FB68     		ldr	r3, [r7, #12]
 1191 000c DB68     		ldr	r3, [r3, #12]
 1192 000e BB60     		str	r3, [r7, #8]
 1193              		.loc 7 489 16
 1194 0010 FB68     		ldr	r3, [r7, #12]
 1195 0012 1B68     		ldr	r3, [r3]
 1196              		.loc 7 489 11
 1197 0014 9B68     		ldr	r3, [r3, #8]
ARM GAS  C:\Users\DEVELO~1\AppData\Local\Temp\ccW7fz6e.s 			page 22


 1198 0016 7B60     		str	r3, [r7, #4]
 1199              		.loc 7 490 11
 1200 0018 BB68     		ldr	r3, [r7, #8]
 1201 001a 9B68     		ldr	r3, [r3, #8]
 1202 001c 3B60     		str	r3, [r7]
 1203              		.loc 7 501 13
 1204 001e 7A68     		ldr	r2, [r7, #4]
 1205 0020 3B68     		ldr	r3, [r7]
 1206 0022 9A42     		cmp	r2, r3
 1207 0024 8CBF     		ite	hi
 1208 0026 0123     		movhi	r3, #1
 1209 0028 0023     		movls	r3, #0
 1210 002a DBB2     		uxtb	r3, r3
 1211              		.loc 7 503 1
 1212 002c 1846     		mov	r0, r3
 1213 002e 1437     		adds	r7, r7, #20
 1214              		.cfi_def_cfa_offset 4
 1215 0030 BD46     		mov	sp, r7
 1216              		.cfi_def_cfa_register 13
 1217              		@ sp needed
 1218 0032 80BC     		pop	{r7}
 1219              		.cfi_restore 7
 1220              		.cfi_def_cfa_offset 0
 1221 0034 7047     		bx	lr
 1222              	.L63:
 1223 0036 00BF     		.align	2
 1224              	.L62:
 1225 0038 00000000 		.word	ch0
 1226              		.cfi_endproc
 1227              	.LFE356:
 1228              		.size	chSchIsPreemptionRequired, .-chSchIsPreemptionRequired
 1229              		.section	.text.chSchDoPreemption,"ax",%progbits
 1230              		.align	1
 1231              		.global	chSchDoPreemption
 1232              		.syntax unified
 1233              		.thumb
 1234              		.thumb_func
 1235              		.type	chSchDoPreemption, %function
 1236              	chSchDoPreemption:
 1237              	.LFB357:
 1238              		.loc 7 517 30
 1239              		.cfi_startproc
 1240              		@ args = 0, pretend = 0, frame = 16
 1241              		@ frame_needed = 1, uses_anonymous_args = 0
 1242 0000 80B5     		push	{r7, lr}
 1243              		.cfi_def_cfa_offset 8
 1244              		.cfi_offset 7, -8
 1245              		.cfi_offset 14, -4
 1246 0002 84B0     		sub	sp, sp, #16
 1247              		.cfi_def_cfa_offset 24
 1248 0004 00AF     		add	r7, sp, #0
 1249              		.cfi_def_cfa_register 7
 1250              		.loc 7 518 18
 1251 0006 104B     		ldr	r3, .L65
 1252 0008 FB60     		str	r3, [r7, #12]
 1253              		.loc 7 519 13
 1254 000a FB68     		ldr	r3, [r7, #12]
ARM GAS  C:\Users\DEVELO~1\AppData\Local\Temp\ccW7fz6e.s 			page 23


 1255 000c DB68     		ldr	r3, [r3, #12]
 1256 000e BB60     		str	r3, [r7, #8]
 1257              		.loc 7 523 9
 1258 0010 FB68     		ldr	r3, [r7, #12]
 1259 0012 1846     		mov	r0, r3
 1260 0014 FFF7FEFF 		bl	ch_pqueue_remove_highest
 1261 0018 7860     		str	r0, [r7, #4]
 1262              		.loc 7 524 14
 1263 001a 7B68     		ldr	r3, [r7, #4]
 1264 001c 0122     		movs	r2, #1
 1265 001e 83F82420 		strb	r2, [r3, #36]
 1266              		.loc 7 525 3
 1267 0022 FB68     		ldr	r3, [r7, #12]
 1268 0024 7A68     		ldr	r2, [r7, #4]
 1269 0026 DA60     		str	r2, [r3, #12]
 1270              		.loc 7 552 9
 1271 0028 B868     		ldr	r0, [r7, #8]
 1272 002a FFF7FEFF 		bl	__sch_ready_ahead
 1273 002e B860     		str	r0, [r7, #8]
 1274              		.loc 7 556 3
 1275 0030 B968     		ldr	r1, [r7, #8]
 1276 0032 7868     		ldr	r0, [r7, #4]
 1277 0034 FFF7FEFF 		bl	__trace_switch
 1278 0038 B968     		ldr	r1, [r7, #8]
 1279 003a 7868     		ldr	r0, [r7, #4]
 1280 003c FFF7FEFF 		bl	__port_switch
 1281              		.loc 7 557 1
 1282 0040 00BF     		nop
 1283 0042 1037     		adds	r7, r7, #16
 1284              		.cfi_def_cfa_offset 8
 1285 0044 BD46     		mov	sp, r7
 1286              		.cfi_def_cfa_register 13
 1287              		@ sp needed
 1288 0046 80BD     		pop	{r7, pc}
 1289              	.L66:
 1290              		.align	2
 1291              	.L65:
 1292 0048 00000000 		.word	ch0
 1293              		.cfi_endproc
 1294              	.LFE357:
 1295              		.size	chSchDoPreemption, .-chSchDoPreemption
 1296              		.section	.text.chSchPreemption,"ax",%progbits
 1297              		.align	1
 1298              		.global	chSchPreemption
 1299              		.syntax unified
 1300              		.thumb
 1301              		.thumb_func
 1302              		.type	chSchPreemption, %function
 1303              	chSchPreemption:
 1304              	.LFB358:
 1305              		.loc 7 568 28
 1306              		.cfi_startproc
 1307              		@ args = 0, pretend = 0, frame = 16
 1308              		@ frame_needed = 1, uses_anonymous_args = 0
 1309 0000 80B5     		push	{r7, lr}
 1310              		.cfi_def_cfa_offset 8
 1311              		.cfi_offset 7, -8
ARM GAS  C:\Users\DEVELO~1\AppData\Local\Temp\ccW7fz6e.s 			page 24


 1312              		.cfi_offset 14, -4
 1313 0002 84B0     		sub	sp, sp, #16
 1314              		.cfi_def_cfa_offset 24
 1315 0004 00AF     		add	r7, sp, #0
 1316              		.cfi_def_cfa_register 7
 1317              		.loc 7 569 18
 1318 0006 0D4B     		ldr	r3, .L70
 1319 0008 FB60     		str	r3, [r7, #12]
 1320              		.loc 7 570 13
 1321 000a FB68     		ldr	r3, [r7, #12]
 1322 000c DB68     		ldr	r3, [r3, #12]
 1323 000e BB60     		str	r3, [r7, #8]
 1324              		.loc 7 571 16
 1325 0010 FB68     		ldr	r3, [r7, #12]
 1326 0012 1B68     		ldr	r3, [r3]
 1327              		.loc 7 571 11
 1328 0014 9B68     		ldr	r3, [r3, #8]
 1329 0016 7B60     		str	r3, [r7, #4]
 1330              		.loc 7 572 11
 1331 0018 BB68     		ldr	r3, [r7, #8]
 1332 001a 9B68     		ldr	r3, [r3, #8]
 1333 001c 3B60     		str	r3, [r7]
 1334              		.loc 7 588 7
 1335 001e 7A68     		ldr	r2, [r7, #4]
 1336 0020 3B68     		ldr	r3, [r7]
 1337 0022 9A42     		cmp	r2, r3
 1338 0024 8CBF     		ite	hi
 1339 0026 0123     		movhi	r3, #1
 1340 0028 0023     		movls	r3, #0
 1341 002a DBB2     		uxtb	r3, r3
 1342              		.loc 7 588 6
 1343 002c 002B     		cmp	r3, #0
 1344 002e 01D0     		beq	.L69
 1345              		.loc 7 589 5
 1346 0030 FFF7FEFF 		bl	__sch_reschedule_ahead
 1347              	.L69:
 1348              		.loc 7 592 1
 1349 0034 00BF     		nop
 1350 0036 1037     		adds	r7, r7, #16
 1351              		.cfi_def_cfa_offset 8
 1352 0038 BD46     		mov	sp, r7
 1353              		.cfi_def_cfa_register 13
 1354              		@ sp needed
 1355 003a 80BD     		pop	{r7, pc}
 1356              	.L71:
 1357              		.align	2
 1358              	.L70:
 1359 003c 00000000 		.word	ch0
 1360              		.cfi_endproc
 1361              	.LFE358:
 1362              		.size	chSchPreemption, .-chSchPreemption
 1363              		.section	.text.chSchDoYieldS,"ax",%progbits
 1364              		.align	1
 1365              		.global	chSchDoYieldS
 1366              		.syntax unified
 1367              		.thumb
 1368              		.thumb_func
ARM GAS  C:\Users\DEVELO~1\AppData\Local\Temp\ccW7fz6e.s 			page 25


 1369              		.type	chSchDoYieldS, %function
 1370              	chSchDoYieldS:
 1371              	.LFB359:
 1372              		.loc 7 602 26
 1373              		.cfi_startproc
 1374              		@ args = 0, pretend = 0, frame = 8
 1375              		@ frame_needed = 1, uses_anonymous_args = 0
 1376 0000 80B5     		push	{r7, lr}
 1377              		.cfi_def_cfa_offset 8
 1378              		.cfi_offset 7, -8
 1379              		.cfi_offset 14, -4
 1380 0002 82B0     		sub	sp, sp, #8
 1381              		.cfi_def_cfa_offset 16
 1382 0004 00AF     		add	r7, sp, #0
 1383              		.cfi_def_cfa_register 7
 1384              		.loc 7 603 18
 1385 0006 0B4B     		ldr	r3, .L75
 1386 0008 7B60     		str	r3, [r7, #4]
 1387              		.loc 7 604 13
 1388 000a 7B68     		ldr	r3, [r7, #4]
 1389 000c DB68     		ldr	r3, [r3, #12]
 1390 000e 3B60     		str	r3, [r7]
 1391              		.loc 7 610 7
 1392 0010 7B68     		ldr	r3, [r7, #4]
 1393 0012 1B68     		ldr	r3, [r3]
 1394 0014 9A68     		ldr	r2, [r3, #8]
 1395 0016 3B68     		ldr	r3, [r7]
 1396 0018 9B68     		ldr	r3, [r3, #8]
 1397 001a 9A42     		cmp	r2, r3
 1398 001c 2CBF     		ite	cs
 1399 001e 0123     		movcs	r3, #1
 1400 0020 0023     		movcc	r3, #0
 1401 0022 DBB2     		uxtb	r3, r3
 1402              		.loc 7 610 6
 1403 0024 002B     		cmp	r3, #0
 1404 0026 01D0     		beq	.L74
 1405              		.loc 7 611 5
 1406 0028 FFF7FEFF 		bl	__sch_reschedule_behind
 1407              	.L74:
 1408              		.loc 7 613 1
 1409 002c 00BF     		nop
 1410 002e 0837     		adds	r7, r7, #8
 1411              		.cfi_def_cfa_offset 8
 1412 0030 BD46     		mov	sp, r7
 1413              		.cfi_def_cfa_register 13
 1414              		@ sp needed
 1415 0032 80BD     		pop	{r7, pc}
 1416              	.L76:
 1417              		.align	2
 1418              	.L75:
 1419 0034 00000000 		.word	ch0
 1420              		.cfi_endproc
 1421              	.LFE359:
 1422              		.size	chSchDoYieldS, .-chSchDoYieldS
 1423              		.section	.text.chSchSelectFirst,"ax",%progbits
 1424              		.align	1
 1425              		.global	chSchSelectFirst
ARM GAS  C:\Users\DEVELO~1\AppData\Local\Temp\ccW7fz6e.s 			page 26


 1426              		.syntax unified
 1427              		.thumb
 1428              		.thumb_func
 1429              		.type	chSchSelectFirst, %function
 1430              	chSchSelectFirst:
 1431              	.LFB360:
 1432              		.loc 7 627 34
 1433              		.cfi_startproc
 1434              		@ args = 0, pretend = 0, frame = 16
 1435              		@ frame_needed = 1, uses_anonymous_args = 0
 1436 0000 80B5     		push	{r7, lr}
 1437              		.cfi_def_cfa_offset 8
 1438              		.cfi_offset 7, -8
 1439              		.cfi_offset 14, -4
 1440 0002 84B0     		sub	sp, sp, #16
 1441              		.cfi_def_cfa_offset 24
 1442 0004 00AF     		add	r7, sp, #0
 1443              		.cfi_def_cfa_register 7
 1444              		.loc 7 628 18
 1445 0006 0C4B     		ldr	r3, .L79
 1446 0008 FB60     		str	r3, [r7, #12]
 1447              		.loc 7 629 13
 1448 000a FB68     		ldr	r3, [r7, #12]
 1449 000c DB68     		ldr	r3, [r3, #12]
 1450 000e BB60     		str	r3, [r7, #8]
 1451              		.loc 7 633 9
 1452 0010 FB68     		ldr	r3, [r7, #12]
 1453 0012 1846     		mov	r0, r3
 1454 0014 FFF7FEFF 		bl	ch_pqueue_remove_highest
 1455 0018 7860     		str	r0, [r7, #4]
 1456              		.loc 7 634 14
 1457 001a 7B68     		ldr	r3, [r7, #4]
 1458 001c 0122     		movs	r2, #1
 1459 001e 83F82420 		strb	r2, [r3, #36]
 1460              		.loc 7 635 3
 1461 0022 FB68     		ldr	r3, [r7, #12]
 1462 0024 7A68     		ldr	r2, [r7, #4]
 1463 0026 DA60     		str	r2, [r3, #12]
 1464              		.loc 7 643 10
 1465 0028 B868     		ldr	r0, [r7, #8]
 1466 002a FFF7FEFF 		bl	__sch_ready_ahead
 1467              		.loc 7 645 10
 1468 002e 7B68     		ldr	r3, [r7, #4]
 1469              		.loc 7 646 1
 1470 0030 1846     		mov	r0, r3
 1471 0032 1037     		adds	r7, r7, #16
 1472              		.cfi_def_cfa_offset 8
 1473 0034 BD46     		mov	sp, r7
 1474              		.cfi_def_cfa_register 13
 1475              		@ sp needed
 1476 0036 80BD     		pop	{r7, pc}
 1477              	.L80:
 1478              		.align	2
 1479              	.L79:
 1480 0038 00000000 		.word	ch0
 1481              		.cfi_endproc
 1482              	.LFE360:
ARM GAS  C:\Users\DEVELO~1\AppData\Local\Temp\ccW7fz6e.s 			page 27


 1483              		.size	chSchSelectFirst, .-chSchSelectFirst
 1484              		.text
 1485              	.Letext0:
 1486              		.file 8 "c:\\chibistudio\\tools\\gnu tools arm embedded\\11.3 2022.08\\arm-none-eabi\\include\\mac
 1487              		.file 9 "c:\\chibistudio\\tools\\gnu tools arm embedded\\11.3 2022.08\\arm-none-eabi\\include\\sys
 1488              		.file 10 "../../../os/common/ports/ARM-common/chtypes.h"
 1489              		.file 11 "../../../os/rt/include/chearly.h"
 1490              		.file 12 "../../../os/rt/include/chobjects.h"
 1491              		.file 13 "../../../os/rt/include/chrfcu.h"
 1492              		.file 14 "../../../os/rt/include/chdebug.h"
 1493              		.file 15 "../../../os/rt/include/chtime.h"
 1494              		.file 16 "../../../os/rt/include/chtrace.h"
 1495              		.file 17 "../../../os/rt/include/chmtx.h"
 1496              		.section	.debug_info,"",%progbits
 1497              	.Ldebug_info0:
 1498 0000 40100000 		.4byte	0x1040
 1499 0004 0500     		.2byte	0x5
 1500 0006 01       		.byte	0x1
 1501 0007 04       		.byte	0x4
 1502 0008 00000000 		.4byte	.Ldebug_abbrev0
 1503 000c 26       		.uleb128 0x26
 1504 000d 48010000 		.4byte	.LASF163
 1505 0011 1D       		.byte	0x1d
 1506 0012 D1060000 		.4byte	.LASF164
 1507 0016 18080000 		.4byte	.LASF165
 1508 001a 0C000000 		.4byte	.LLRL0
 1509 001e 00000000 		.4byte	0
 1510 0022 00000000 		.4byte	.Ldebug_line0
 1511 0026 27       		.uleb128 0x27
 1512 0027 04       		.byte	0x4
 1513 0028 05       		.byte	0x5
 1514 0029 696E7400 		.ascii	"int\000"
 1515 002d 07       		.uleb128 0x7
 1516 002e 04       		.byte	0x4
 1517 002f 07       		.byte	0x7
 1518 0030 5D050000 		.4byte	.LASF0
 1519 0034 07       		.uleb128 0x7
 1520 0035 08       		.byte	0x8
 1521 0036 05       		.byte	0x5
 1522 0037 EA000000 		.4byte	.LASF1
 1523 003b 07       		.uleb128 0x7
 1524 003c 08       		.byte	0x8
 1525 003d 04       		.byte	0x4
 1526 003e 28060000 		.4byte	.LASF2
 1527 0042 07       		.uleb128 0x7
 1528 0043 01       		.byte	0x1
 1529 0044 06       		.byte	0x6
 1530 0045 F8000000 		.4byte	.LASF3
 1531 0049 01       		.uleb128 0x1
 1532 004a 33000000 		.4byte	.LASF6
 1533 004e 08       		.byte	0x8
 1534 004f 2B       		.byte	0x2b
 1535 0050 18       		.byte	0x18
 1536 0051 55000000 		.4byte	0x55
 1537 0055 07       		.uleb128 0x7
 1538 0056 01       		.byte	0x1
 1539 0057 08       		.byte	0x8
ARM GAS  C:\Users\DEVELO~1\AppData\Local\Temp\ccW7fz6e.s 			page 28


 1540 0058 46050000 		.4byte	.LASF4
 1541 005c 07       		.uleb128 0x7
 1542 005d 02       		.byte	0x2
 1543 005e 05       		.byte	0x5
 1544 005f BD030000 		.4byte	.LASF5
 1545 0063 01       		.uleb128 0x1
 1546 0064 60060000 		.4byte	.LASF7
 1547 0068 08       		.byte	0x8
 1548 0069 39       		.byte	0x39
 1549 006a 19       		.byte	0x19
 1550 006b 6F000000 		.4byte	0x6f
 1551 006f 07       		.uleb128 0x7
 1552 0070 02       		.byte	0x2
 1553 0071 07       		.byte	0x7
 1554 0072 5E030000 		.4byte	.LASF8
 1555 0076 01       		.uleb128 0x1
 1556 0077 45060000 		.4byte	.LASF9
 1557 007b 08       		.byte	0x8
 1558 007c 4D       		.byte	0x4d
 1559 007d 18       		.byte	0x18
 1560 007e 82000000 		.4byte	0x82
 1561 0082 07       		.uleb128 0x7
 1562 0083 04       		.byte	0x4
 1563 0084 05       		.byte	0x5
 1564 0085 D9010000 		.4byte	.LASF10
 1565 0089 01       		.uleb128 0x1
 1566 008a 5B020000 		.4byte	.LASF11
 1567 008e 08       		.byte	0x8
 1568 008f 4F       		.byte	0x4f
 1569 0090 19       		.byte	0x19
 1570 0091 95000000 		.4byte	0x95
 1571 0095 07       		.uleb128 0x7
 1572 0096 04       		.byte	0x4
 1573 0097 07       		.byte	0x7
 1574 0098 0D030000 		.4byte	.LASF12
 1575 009c 01       		.uleb128 0x1
 1576 009d D6040000 		.4byte	.LASF13
 1577 00a1 08       		.byte	0x8
 1578 00a2 69       		.byte	0x69
 1579 00a3 19       		.byte	0x19
 1580 00a4 A8000000 		.4byte	0xa8
 1581 00a8 07       		.uleb128 0x7
 1582 00a9 08       		.byte	0x8
 1583 00aa 07       		.byte	0x7
 1584 00ab 12010000 		.4byte	.LASF14
 1585 00af 01       		.uleb128 0x1
 1586 00b0 A2070000 		.4byte	.LASF15
 1587 00b4 09       		.byte	0x9
 1588 00b5 18       		.byte	0x18
 1589 00b6 13       		.byte	0x13
 1590 00b7 49000000 		.4byte	0x49
 1591 00bb 01       		.uleb128 0x1
 1592 00bc 18020000 		.4byte	.LASF16
 1593 00c0 09       		.byte	0x9
 1594 00c1 24       		.byte	0x24
 1595 00c2 14       		.byte	0x14
 1596 00c3 63000000 		.4byte	0x63
ARM GAS  C:\Users\DEVELO~1\AppData\Local\Temp\ccW7fz6e.s 			page 29


 1597 00c7 01       		.uleb128 0x1
 1598 00c8 3E050000 		.4byte	.LASF17
 1599 00cc 09       		.byte	0x9
 1600 00cd 2C       		.byte	0x2c
 1601 00ce 13       		.byte	0x13
 1602 00cf 76000000 		.4byte	0x76
 1603 00d3 01       		.uleb128 0x1
 1604 00d4 02060000 		.4byte	.LASF18
 1605 00d8 09       		.byte	0x9
 1606 00d9 30       		.byte	0x30
 1607 00da 14       		.byte	0x14
 1608 00db 89000000 		.4byte	0x89
 1609 00df 01       		.uleb128 0x1
 1610 00e0 86040000 		.4byte	.LASF19
 1611 00e4 09       		.byte	0x9
 1612 00e5 3C       		.byte	0x3c
 1613 00e6 14       		.byte	0x14
 1614 00e7 9C000000 		.4byte	0x9c
 1615 00eb 21       		.uleb128 0x21
 1616 00ec DF000000 		.4byte	0xdf
 1617 00f0 01       		.uleb128 0x1
 1618 00f1 12060000 		.4byte	.LASF20
 1619 00f5 0A       		.byte	0xa
 1620 00f6 48       		.byte	0x48
 1621 00f7 1D       		.byte	0x1d
 1622 00f8 DF000000 		.4byte	0xdf
 1623 00fc 01       		.uleb128 0x1
 1624 00fd F5030000 		.4byte	.LASF21
 1625 0101 0B       		.byte	0xb
 1626 0102 50       		.byte	0x50
 1627 0103 19       		.byte	0x19
 1628 0104 F0000000 		.4byte	0xf0
 1629 0108 01       		.uleb128 0x1
 1630 0109 A2030000 		.4byte	.LASF22
 1631 010d 0B       		.byte	0xb
 1632 010e 53       		.byte	0x53
 1633 010f 19       		.byte	0x19
 1634 0110 AF000000 		.4byte	0xaf
 1635 0114 01       		.uleb128 0x1
 1636 0115 E2010000 		.4byte	.LASF23
 1637 0119 0B       		.byte	0xb
 1638 011a 54       		.byte	0x54
 1639 011b 19       		.byte	0x19
 1640 011c AF000000 		.4byte	0xaf
 1641 0120 01       		.uleb128 0x1
 1642 0121 EB040000 		.4byte	.LASF24
 1643 0125 0B       		.byte	0xb
 1644 0126 55       		.byte	0x55
 1645 0127 19       		.byte	0x19
 1646 0128 AF000000 		.4byte	0xaf
 1647 012c 01       		.uleb128 0x1
 1648 012d 0D050000 		.4byte	.LASF25
 1649 0131 0B       		.byte	0xb
 1650 0132 57       		.byte	0x57
 1651 0133 19       		.byte	0x19
 1652 0134 D3000000 		.4byte	0xd3
 1653 0138 01       		.uleb128 0x1
ARM GAS  C:\Users\DEVELO~1\AppData\Local\Temp\ccW7fz6e.s 			page 30


 1654 0139 93030000 		.4byte	.LASF26
 1655 013d 0B       		.byte	0xb
 1656 013e 58       		.byte	0x58
 1657 013f 19       		.byte	0x19
 1658 0140 C7000000 		.4byte	0xc7
 1659 0144 01       		.uleb128 0x1
 1660 0145 27000000 		.4byte	.LASF27
 1661 0149 0B       		.byte	0xb
 1662 014a 5A       		.byte	0x5a
 1663 014b 19       		.byte	0x19
 1664 014c D3000000 		.4byte	0xd3
 1665 0150 01       		.uleb128 0x1
 1666 0151 B2020000 		.4byte	.LASF28
 1667 0155 0B       		.byte	0xb
 1668 0156 5C       		.byte	0x5c
 1669 0157 19       		.byte	0x19
 1670 0158 C7000000 		.4byte	0xc7
 1671 015c 01       		.uleb128 0x1
 1672 015d E1040000 		.4byte	.LASF29
 1673 0161 0B       		.byte	0xb
 1674 0162 80       		.byte	0x80
 1675 0163 12       		.byte	0x12
 1676 0164 2D000000 		.4byte	0x2d
 1677 0168 01       		.uleb128 0x1
 1678 0169 8C060000 		.4byte	.LASF30
 1679 016d 0B       		.byte	0xb
 1680 016e 85       		.byte	0x85
 1681 016f 1A       		.byte	0x1a
 1682 0170 74010000 		.4byte	0x174
 1683 0174 08       		.uleb128 0x8
 1684 0175 71030000 		.4byte	.LASF45
 1685 0179 48       		.byte	0x48
 1686 017a 0C       		.byte	0xc
 1687 017b 9C       		.byte	0x9c
 1688 017c 08       		.byte	0x8
 1689 017d 51020000 		.4byte	0x251
 1690 0181 0A       		.uleb128 0xa
 1691 0182 68647200 		.ascii	"hdr\000"
 1692 0186 0C       		.byte	0xc
 1693 0187 AD       		.byte	0xad
 1694 0188 05       		.byte	0x5
 1695 0189 7A070000 		.4byte	0x77a
 1696 018d 00       		.byte	0
 1697 018e 0A       		.uleb128 0xa
 1698 018f 63747800 		.ascii	"ctx\000"
 1699 0193 0C       		.byte	0xc
 1700 0194 B1       		.byte	0xb1
 1701 0195 21       		.byte	0x21
 1702 0196 6C060000 		.4byte	0x66c
 1703 019a 0C       		.byte	0xc
 1704 019b 02       		.uleb128 0x2
 1705 019c 1F030000 		.4byte	.LASF31
 1706 01a0 0C       		.byte	0xc
 1707 01a1 B6       		.byte	0xb6
 1708 01a2 21       		.byte	0x21
 1709 01a3 97030000 		.4byte	0x397
 1710 01a7 10       		.byte	0x10
ARM GAS  C:\Users\DEVELO~1\AppData\Local\Temp\ccW7fz6e.s 			page 31


 1711 01a8 02       		.uleb128 0x2
 1712 01a9 22060000 		.4byte	.LASF32
 1713 01ad 0C       		.byte	0xc
 1714 01ae BB       		.byte	0xbb
 1715 01af 22       		.byte	0x22
 1716 01b0 7C080000 		.4byte	0x87c
 1717 01b4 18       		.byte	0x18
 1718 01b5 02       		.uleb128 0x2
 1719 01b6 4E030000 		.4byte	.LASF33
 1720 01ba 0C       		.byte	0xc
 1721 01bb C0       		.byte	0xc0
 1722 01bc 22       		.byte	0x22
 1723 01bd 31030000 		.4byte	0x331
 1724 01c1 1C       		.byte	0x1c
 1725 01c2 02       		.uleb128 0x2
 1726 01c3 34060000 		.4byte	.LASF34
 1727 01c7 0C       		.byte	0xc
 1728 01c8 C9       		.byte	0xc9
 1729 01c9 22       		.byte	0x22
 1730 01ca 81080000 		.4byte	0x881
 1731 01ce 20       		.byte	0x20
 1732 01cf 02       		.uleb128 0x2
 1733 01d0 D3010000 		.4byte	.LASF35
 1734 01d4 0C       		.byte	0xc
 1735 01d5 CE       		.byte	0xce
 1736 01d6 21       		.byte	0x21
 1737 01d7 14010000 		.4byte	0x114
 1738 01db 24       		.byte	0x24
 1739 01dc 02       		.uleb128 0x2
 1740 01dd AA070000 		.4byte	.LASF36
 1741 01e1 0C       		.byte	0xc
 1742 01e2 D2       		.byte	0xd2
 1743 01e3 21       		.byte	0x21
 1744 01e4 08010000 		.4byte	0x108
 1745 01e8 25       		.byte	0x25
 1746 01e9 02       		.uleb128 0x2
 1747 01ea F3040000 		.4byte	.LASF37
 1748 01ee 0C       		.byte	0xc
 1749 01ef D7       		.byte	0xd7
 1750 01f0 21       		.byte	0x21
 1751 01f1 20010000 		.4byte	0x120
 1752 01f5 26       		.byte	0x26
 1753 01f6 09       		.uleb128 0x9
 1754 01f7 7500     		.ascii	"u\000"
 1755 01f9 0C       		.byte	0xc
 1756 01fa 2801     		.2byte	0x128
 1757 01fc 21       		.byte	0x21
 1758 01fd A7070000 		.4byte	0x7a7
 1759 0201 28       		.byte	0x28
 1760 0202 04       		.uleb128 0x4
 1761 0203 77020000 		.4byte	.LASF38
 1762 0207 2D01     		.2byte	0x12d
 1763 0209 21       		.byte	0x21
 1764 020a 6B030000 		.4byte	0x36b
 1765 020e 2C       		.byte	0x2c
 1766 020f 04       		.uleb128 0x4
 1767 0210 B8020000 		.4byte	.LASF39
ARM GAS  C:\Users\DEVELO~1\AppData\Local\Temp\ccW7fz6e.s 			page 32


 1768 0214 3301     		.2byte	0x133
 1769 0216 21       		.byte	0x21
 1770 0217 97030000 		.4byte	0x397
 1771 021b 30       		.byte	0x30
 1772 021c 04       		.uleb128 0x4
 1773 021d 99030000 		.4byte	.LASF40
 1774 0221 3901     		.2byte	0x139
 1775 0223 21       		.byte	0x21
 1776 0224 44010000 		.4byte	0x144
 1777 0228 38       		.byte	0x38
 1778 0229 04       		.uleb128 0x4
 1779 022a 10080000 		.4byte	.LASF41
 1780 022e 4001     		.2byte	0x140
 1781 0230 22       		.byte	0x22
 1782 0231 77080000 		.4byte	0x877
 1783 0235 3C       		.byte	0x3c
 1784 0236 04       		.uleb128 0x4
 1785 0237 25040000 		.4byte	.LASF42
 1786 023b 4401     		.2byte	0x144
 1787 023d 21       		.byte	0x21
 1788 023e 2C010000 		.4byte	0x12c
 1789 0242 40       		.byte	0x40
 1790 0243 04       		.uleb128 0x4
 1791 0244 75070000 		.4byte	.LASF43
 1792 0248 4B01     		.2byte	0x14b
 1793 024a 22       		.byte	0x22
 1794 024b 84040000 		.4byte	0x484
 1795 024f 44       		.byte	0x44
 1796 0250 00       		.byte	0
 1797 0251 01       		.uleb128 0x1
 1798 0252 FC060000 		.4byte	.LASF44
 1799 0256 0B       		.byte	0xb
 1800 0257 8A       		.byte	0x8a
 1801 0258 1F       		.byte	0x1f
 1802 0259 5D020000 		.4byte	0x25d
 1803 025d 28       		.uleb128 0x28
 1804 025e ED060000 		.4byte	.LASF46
 1805 0262 9008     		.2byte	0x890
 1806 0264 0C       		.byte	0xc
 1807 0265 8A01     		.2byte	0x18a
 1808 0267 08       		.byte	0x8
 1809 0268 E3020000 		.4byte	0x2e3
 1810 026c 04       		.uleb128 0x4
 1811 026d 9C070000 		.4byte	.LASF47
 1812 0271 8E01     		.2byte	0x18e
 1813 0273 21       		.byte	0x21
 1814 0274 AF080000 		.4byte	0x8af
 1815 0278 00       		.byte	0
 1816 0279 04       		.uleb128 0x4
 1817 027a 4E000000 		.4byte	.LASF48
 1818 027e 9201     		.2byte	0x192
 1819 0280 21       		.byte	0x21
 1820 0281 3B070000 		.4byte	0x73b
 1821 0285 10       		.byte	0x10
 1822 0286 04       		.uleb128 0x4
 1823 0287 0A070000 		.4byte	.LASF49
 1824 028b 9901     		.2byte	0x199
ARM GAS  C:\Users\DEVELO~1\AppData\Local\Temp\ccW7fz6e.s 			page 33


 1825 028d 21       		.byte	0x21
 1826 028e 62070000 		.4byte	0x762
 1827 0292 28       		.byte	0x28
 1828 0293 04       		.uleb128 0x4
 1829 0294 00000000 		.4byte	.LASF50
 1830 0298 9E01     		.2byte	0x19e
 1831 029a 21       		.byte	0x21
 1832 029b 5C010000 		.4byte	0x15c
 1833 029f 30       		.byte	0x30
 1834 02a0 04       		.uleb128 0x4
 1835 02a1 22000000 		.4byte	.LASF51
 1836 02a5 A401     		.2byte	0x1a4
 1837 02a7 21       		.byte	0x21
 1838 02a8 0A030000 		.4byte	0x30a
 1839 02ac 34       		.byte	0x34
 1840 02ad 04       		.uleb128 0x4
 1841 02ae BE070000 		.4byte	.LASF52
 1842 02b2 A901     		.2byte	0x1a9
 1843 02b4 22       		.byte	0x22
 1844 02b5 1A090000 		.4byte	0x91a
 1845 02b9 38       		.byte	0x38
 1846 02ba 04       		.uleb128 0x4
 1847 02bb A2000000 		.4byte	.LASF53
 1848 02bf AD01     		.2byte	0x1ad
 1849 02c1 21       		.byte	0x21
 1850 02c2 68010000 		.4byte	0x168
 1851 02c6 3C       		.byte	0x3c
 1852 02c7 09       		.uleb128 0x9
 1853 02c8 64626700 		.ascii	"dbg\000"
 1854 02cc 0C       		.byte	0xc
 1855 02cd B101     		.2byte	0x1b1
 1856 02cf 21       		.byte	0x21
 1857 02d0 47030000 		.4byte	0x347
 1858 02d4 84       		.byte	0x84
 1859 02d5 04       		.uleb128 0x4
 1860 02d6 E5070000 		.4byte	.LASF54
 1861 02da B601     		.2byte	0x1b6
 1862 02dc 21       		.byte	0x21
 1863 02dd DA050000 		.4byte	0x5da
 1864 02e1 88       		.byte	0x88
 1865 02e2 00       		.byte	0
 1866 02e3 01       		.uleb128 0x1
 1867 02e4 2E040000 		.4byte	.LASF55
 1868 02e8 0D       		.byte	0xd
 1869 02e9 3F       		.byte	0x3f
 1870 02ea 12       		.byte	0x12
 1871 02eb D3000000 		.4byte	0xd3
 1872 02ef 08       		.uleb128 0x8
 1873 02f0 FB010000 		.4byte	.LASF56
 1874 02f4 04       		.byte	0x4
 1875 02f5 0D       		.byte	0xd
 1876 02f6 44       		.byte	0x44
 1877 02f7 10       		.byte	0x10
 1878 02f8 0A030000 		.4byte	0x30a
 1879 02fc 02       		.uleb128 0x2
 1880 02fd 66020000 		.4byte	.LASF57
 1881 0301 0D       		.byte	0xd
ARM GAS  C:\Users\DEVELO~1\AppData\Local\Temp\ccW7fz6e.s 			page 34


 1882 0302 48       		.byte	0x48
 1883 0303 21       		.byte	0x21
 1884 0304 E3020000 		.4byte	0x2e3
 1885 0308 00       		.byte	0
 1886 0309 00       		.byte	0
 1887 030a 01       		.uleb128 0x1
 1888 030b 6A050000 		.4byte	.LASF58
 1889 030f 0D       		.byte	0xd
 1890 0310 49       		.byte	0x49
 1891 0311 03       		.byte	0x3
 1892 0312 EF020000 		.4byte	0x2ef
 1893 0316 08       		.uleb128 0x8
 1894 0317 28050000 		.4byte	.LASF59
 1895 031b 04       		.byte	0x4
 1896 031c 0E       		.byte	0xe
 1897 031d 3E       		.byte	0x3e
 1898 031e 10       		.byte	0x10
 1899 031f 31030000 		.4byte	0x331
 1900 0323 02       		.uleb128 0x2
 1901 0324 C0060000 		.4byte	.LASF60
 1902 0328 0E       		.byte	0xe
 1903 0329 46       		.byte	0x46
 1904 032a 24       		.byte	0x24
 1905 032b 36030000 		.4byte	0x336
 1906 032f 00       		.byte	0
 1907 0330 00       		.byte	0
 1908 0331 05       		.uleb128 0x5
 1909 0332 42030000 		.4byte	0x342
 1910 0336 21       		.uleb128 0x21
 1911 0337 31030000 		.4byte	0x331
 1912 033b 07       		.uleb128 0x7
 1913 033c 01       		.byte	0x1
 1914 033d 08       		.byte	0x8
 1915 033e 3B060000 		.4byte	.LASF61
 1916 0342 0C       		.uleb128 0xc
 1917 0343 3B030000 		.4byte	0x33b
 1918 0347 01       		.uleb128 0x1
 1919 0348 FE020000 		.4byte	.LASF62
 1920 034c 0E       		.byte	0xe
 1921 034d 51       		.byte	0x51
 1922 034e 03       		.byte	0x3
 1923 034f 16030000 		.4byte	0x316
 1924 0353 01       		.uleb128 0x1
 1925 0354 9B060000 		.4byte	.LASF63
 1926 0358 0F       		.byte	0xf
 1927 0359 6D       		.byte	0x6d
 1928 035a 12       		.byte	0x12
 1929 035b D3000000 		.4byte	0xd3
 1930 035f 01       		.uleb128 0x1
 1931 0360 A4020000 		.4byte	.LASF64
 1932 0364 0F       		.byte	0xf
 1933 0365 79       		.byte	0x79
 1934 0366 12       		.byte	0x12
 1935 0367 D3000000 		.4byte	0xd3
 1936 036b 01       		.uleb128 0x1
 1937 036c 72040000 		.4byte	.LASF65
 1938 0370 01       		.byte	0x1
ARM GAS  C:\Users\DEVELO~1\AppData\Local\Temp\ccW7fz6e.s 			page 35


 1939 0371 32       		.byte	0x32
 1940 0372 18       		.byte	0x18
 1941 0373 77030000 		.4byte	0x377
 1942 0377 08       		.uleb128 0x8
 1943 0378 AA030000 		.4byte	.LASF66
 1944 037c 04       		.byte	0x4
 1945 037d 01       		.byte	0x1
 1946 037e 38       		.byte	0x38
 1947 037f 08       		.byte	0x8
 1948 0380 92030000 		.4byte	0x392
 1949 0384 02       		.uleb128 0x2
 1950 0385 CC000000 		.4byte	.LASF67
 1951 0389 01       		.byte	0x1
 1952 038a 39       		.byte	0x39
 1953 038b 1A       		.byte	0x1a
 1954 038c 92030000 		.4byte	0x392
 1955 0390 00       		.byte	0
 1956 0391 00       		.byte	0
 1957 0392 05       		.uleb128 0x5
 1958 0393 6B030000 		.4byte	0x36b
 1959 0397 01       		.uleb128 0x1
 1960 0398 26030000 		.4byte	.LASF68
 1961 039c 01       		.byte	0x1
 1962 039d 3F       		.byte	0x3f
 1963 039e 19       		.byte	0x19
 1964 039f A3030000 		.4byte	0x3a3
 1965 03a3 08       		.uleb128 0x8
 1966 03a4 0F020000 		.4byte	.LASF69
 1967 03a8 08       		.byte	0x8
 1968 03a9 01       		.byte	0x1
 1969 03aa 45       		.byte	0x45
 1970 03ab 08       		.byte	0x8
 1971 03ac CB030000 		.4byte	0x3cb
 1972 03b0 02       		.uleb128 0x2
 1973 03b1 CC000000 		.4byte	.LASF67
 1974 03b5 01       		.byte	0x1
 1975 03b6 46       		.byte	0x46
 1976 03b7 1A       		.byte	0x1a
 1977 03b8 CB030000 		.4byte	0x3cb
 1978 03bc 00       		.byte	0
 1979 03bd 02       		.uleb128 0x2
 1980 03be 3D000000 		.4byte	.LASF70
 1981 03c2 01       		.byte	0x1
 1982 03c3 47       		.byte	0x47
 1983 03c4 1A       		.byte	0x1a
 1984 03c5 CB030000 		.4byte	0x3cb
 1985 03c9 04       		.byte	0x4
 1986 03ca 00       		.byte	0
 1987 03cb 05       		.uleb128 0x5
 1988 03cc 97030000 		.4byte	0x397
 1989 03d0 01       		.uleb128 0x1
 1990 03d1 AC060000 		.4byte	.LASF71
 1991 03d5 01       		.byte	0x1
 1992 03d6 4E       		.byte	0x4e
 1993 03d7 22       		.byte	0x22
 1994 03d8 DC030000 		.4byte	0x3dc
 1995 03dc 08       		.uleb128 0x8
ARM GAS  C:\Users\DEVELO~1\AppData\Local\Temp\ccW7fz6e.s 			page 36


 1996 03dd 24070000 		.4byte	.LASF72
 1997 03e1 0C       		.byte	0xc
 1998 03e2 01       		.byte	0x1
 1999 03e3 55       		.byte	0x55
 2000 03e4 08       		.byte	0x8
 2001 03e5 11040000 		.4byte	0x411
 2002 03e9 02       		.uleb128 0x2
 2003 03ea CC000000 		.4byte	.LASF67
 2004 03ee 01       		.byte	0x1
 2005 03ef 56       		.byte	0x56
 2006 03f0 1A       		.byte	0x1a
 2007 03f1 11040000 		.4byte	0x411
 2008 03f5 00       		.byte	0
 2009 03f6 02       		.uleb128 0x2
 2010 03f7 3D000000 		.4byte	.LASF70
 2011 03fb 01       		.byte	0x1
 2012 03fc 57       		.byte	0x57
 2013 03fd 1A       		.byte	0x1a
 2014 03fe 11040000 		.4byte	0x411
 2015 0402 04       		.byte	0x4
 2016 0403 02       		.uleb128 0x2
 2017 0404 B7040000 		.4byte	.LASF73
 2018 0408 01       		.byte	0x1
 2019 0409 58       		.byte	0x58
 2020 040a 19       		.byte	0x19
 2021 040b 2C010000 		.4byte	0x12c
 2022 040f 08       		.byte	0x8
 2023 0410 00       		.byte	0
 2024 0411 05       		.uleb128 0x5
 2025 0412 D0030000 		.4byte	0x3d0
 2026 0416 01       		.uleb128 0x1
 2027 0417 49070000 		.4byte	.LASF74
 2028 041b 01       		.byte	0x1
 2029 041c 5F       		.byte	0x5f
 2030 041d 1E       		.byte	0x1e
 2031 041e 22040000 		.4byte	0x422
 2032 0422 08       		.uleb128 0x8
 2033 0423 04010000 		.4byte	.LASF75
 2034 0427 0C       		.byte	0xc
 2035 0428 01       		.byte	0x1
 2036 0429 64       		.byte	0x64
 2037 042a 08       		.byte	0x8
 2038 042b 57040000 		.4byte	0x457
 2039 042f 02       		.uleb128 0x2
 2040 0430 CC000000 		.4byte	.LASF67
 2041 0434 01       		.byte	0x1
 2042 0435 65       		.byte	0x65
 2043 0436 1A       		.byte	0x1a
 2044 0437 57040000 		.4byte	0x457
 2045 043b 00       		.byte	0
 2046 043c 02       		.uleb128 0x2
 2047 043d 3D000000 		.4byte	.LASF70
 2048 0441 01       		.byte	0x1
 2049 0442 66       		.byte	0x66
 2050 0443 1A       		.byte	0x1a
 2051 0444 57040000 		.4byte	0x457
 2052 0448 04       		.byte	0x4
ARM GAS  C:\Users\DEVELO~1\AppData\Local\Temp\ccW7fz6e.s 			page 37


 2053 0449 02       		.uleb128 0x2
 2054 044a B5000000 		.4byte	.LASF76
 2055 044e 01       		.byte	0x1
 2056 044f 67       		.byte	0x67
 2057 0450 19       		.byte	0x19
 2058 0451 5F030000 		.4byte	0x35f
 2059 0455 08       		.byte	0x8
 2060 0456 00       		.byte	0
 2061 0457 05       		.uleb128 0x5
 2062 0458 16040000 		.4byte	0x416
 2063 045c 0F       		.uleb128 0xf
 2064 045d 08       		.byte	0x8
 2065 045e 83       		.byte	0x83
 2066 045f 05       		.byte	0x5
 2067 0460 7F040000 		.4byte	0x47f
 2068 0464 0A       		.uleb128 0xa
 2069 0465 6E747000 		.ascii	"ntp\000"
 2070 0469 10       		.byte	0x10
 2071 046a 87       		.byte	0x87
 2072 046b 1E       		.byte	0x1e
 2073 046c 7F040000 		.4byte	0x47f
 2074 0470 00       		.byte	0
 2075 0471 02       		.uleb128 0x2
 2076 0472 A0050000 		.4byte	.LASF77
 2077 0476 10       		.byte	0x10
 2078 0477 8B       		.byte	0x8b
 2079 0478 1E       		.byte	0x1e
 2080 0479 84040000 		.4byte	0x484
 2081 047d 04       		.byte	0x4
 2082 047e 00       		.byte	0
 2083 047f 05       		.uleb128 0x5
 2084 0480 68010000 		.4byte	0x168
 2085 0484 29       		.uleb128 0x29
 2086 0485 04       		.byte	0x4
 2087 0486 0F       		.uleb128 0xf
 2088 0487 08       		.byte	0x8
 2089 0488 90       		.byte	0x90
 2090 0489 05       		.byte	0x5
 2091 048a A8040000 		.4byte	0x4a8
 2092 048e 0A       		.uleb128 0xa
 2093 048f 747000   		.ascii	"tp\000"
 2094 0492 10       		.byte	0x10
 2095 0493 94       		.byte	0x94
 2096 0494 1E       		.byte	0x1e
 2097 0495 7F040000 		.4byte	0x47f
 2098 0499 00       		.byte	0
 2099 049a 0A       		.uleb128 0xa
 2100 049b 6D736700 		.ascii	"msg\000"
 2101 049f 10       		.byte	0x10
 2102 04a0 98       		.byte	0x98
 2103 04a1 1D       		.byte	0x1d
 2104 04a2 38010000 		.4byte	0x138
 2105 04a6 04       		.byte	0x4
 2106 04a7 00       		.byte	0
 2107 04a8 0F       		.uleb128 0xf
 2108 04a9 04       		.byte	0x4
 2109 04aa 9D       		.byte	0x9d
ARM GAS  C:\Users\DEVELO~1\AppData\Local\Temp\ccW7fz6e.s 			page 38


 2110 04ab 05       		.byte	0x5
 2111 04ac BE040000 		.4byte	0x4be
 2112 04b0 02       		.uleb128 0x2
 2113 04b1 4E030000 		.4byte	.LASF33
 2114 04b5 10       		.byte	0x10
 2115 04b6 A1       		.byte	0xa1
 2116 04b7 1E       		.byte	0x1e
 2117 04b8 31030000 		.4byte	0x331
 2118 04bc 00       		.byte	0
 2119 04bd 00       		.byte	0
 2120 04be 0F       		.uleb128 0xf
 2121 04bf 04       		.byte	0x4
 2122 04c0 A6       		.byte	0xa6
 2123 04c1 05       		.byte	0x5
 2124 04c2 D4040000 		.4byte	0x4d4
 2125 04c6 02       		.uleb128 0x2
 2126 04c7 C4050000 		.4byte	.LASF78
 2127 04cb 10       		.byte	0x10
 2128 04cc AA       		.byte	0xaa
 2129 04cd 1E       		.byte	0x1e
 2130 04ce 31030000 		.4byte	0x331
 2131 04d2 00       		.byte	0
 2132 04d3 00       		.byte	0
 2133 04d4 0F       		.uleb128 0xf
 2134 04d5 08       		.byte	0x8
 2135 04d6 AF       		.byte	0xaf
 2136 04d7 05       		.byte	0x5
 2137 04d8 F7040000 		.4byte	0x4f7
 2138 04dc 0A       		.uleb128 0xa
 2139 04dd 75703100 		.ascii	"up1\000"
 2140 04e1 10       		.byte	0x10
 2141 04e2 B3       		.byte	0xb3
 2142 04e3 1E       		.byte	0x1e
 2143 04e4 84040000 		.4byte	0x484
 2144 04e8 00       		.byte	0
 2145 04e9 0A       		.uleb128 0xa
 2146 04ea 75703200 		.ascii	"up2\000"
 2147 04ee 10       		.byte	0x10
 2148 04ef B7       		.byte	0xb7
 2149 04f0 1E       		.byte	0x1e
 2150 04f1 84040000 		.4byte	0x484
 2151 04f5 04       		.byte	0x4
 2152 04f6 00       		.byte	0
 2153 04f7 1A       		.uleb128 0x1a
 2154 04f8 08       		.byte	0x8
 2155 04f9 10       		.byte	0x10
 2156 04fa 7F       		.byte	0x7f
 2157 04fb 35050000 		.4byte	0x535
 2158 04ff 1B       		.uleb128 0x1b
 2159 0500 737700   		.ascii	"sw\000"
 2160 0503 8C       		.byte	0x8c
 2161 0504 5C040000 		.4byte	0x45c
 2162 0508 1B       		.uleb128 0x1b
 2163 0509 72647900 		.ascii	"rdy\000"
 2164 050d 99       		.byte	0x99
 2165 050e 86040000 		.4byte	0x486
 2166 0512 1B       		.uleb128 0x1b
ARM GAS  C:\Users\DEVELO~1\AppData\Local\Temp\ccW7fz6e.s 			page 39


 2167 0513 69737200 		.ascii	"isr\000"
 2168 0517 A2       		.byte	0xa2
 2169 0518 A8040000 		.4byte	0x4a8
 2170 051c 0D       		.uleb128 0xd
 2171 051d 87000000 		.4byte	.LASF79
 2172 0521 10       		.byte	0x10
 2173 0522 AB       		.byte	0xab
 2174 0523 07       		.byte	0x7
 2175 0524 BE040000 		.4byte	0x4be
 2176 0528 0D       		.uleb128 0xd
 2177 0529 08050000 		.4byte	.LASF80
 2178 052d 10       		.byte	0x10
 2179 052e B8       		.byte	0xb8
 2180 052f 07       		.byte	0x7
 2181 0530 D4040000 		.4byte	0x4d4
 2182 0534 00       		.byte	0
 2183 0535 0F       		.uleb128 0xf
 2184 0536 10       		.byte	0x10
 2185 0537 6C       		.byte	0x6c
 2186 0538 09       		.byte	0x9
 2187 0539 7A050000 		.4byte	0x57a
 2188 053d 1C       		.uleb128 0x1c
 2189 053e 66000000 		.4byte	.LASF81
 2190 0542 70       		.byte	0x70
 2191 0543 D3000000 		.4byte	0xd3
 2192 0547 03       		.byte	0x3
 2193 0548 00       		.byte	0
 2194 0549 1C       		.uleb128 0x1c
 2195 054a D3010000 		.4byte	.LASF35
 2196 054e 74       		.byte	0x74
 2197 054f D3000000 		.4byte	0xd3
 2198 0553 05       		.byte	0x5
 2199 0554 03       		.byte	0x3
 2200 0555 1C       		.uleb128 0x1c
 2201 0556 13040000 		.4byte	.LASF82
 2202 055a 7A       		.byte	0x7a
 2203 055b D3000000 		.4byte	0xd3
 2204 055f 18       		.byte	0x18
 2205 0560 08       		.byte	0x8
 2206 0561 02       		.uleb128 0x2
 2207 0562 B2040000 		.4byte	.LASF83
 2208 0566 10       		.byte	0x10
 2209 0567 7E       		.byte	0x7e
 2210 0568 19       		.byte	0x19
 2211 0569 53030000 		.4byte	0x353
 2212 056d 04       		.byte	0x4
 2213 056e 0A       		.uleb128 0xa
 2214 056f 7500     		.ascii	"u\000"
 2215 0571 10       		.byte	0x10
 2216 0572 B9       		.byte	0xb9
 2217 0573 05       		.byte	0x5
 2218 0574 F7040000 		.4byte	0x4f7
 2219 0578 08       		.byte	0x8
 2220 0579 00       		.byte	0
 2221 057a 01       		.uleb128 0x1
 2222 057b 79000000 		.4byte	.LASF84
 2223 057f 10       		.byte	0x10
ARM GAS  C:\Users\DEVELO~1\AppData\Local\Temp\ccW7fz6e.s 			page 40


 2224 0580 BA       		.byte	0xba
 2225 0581 03       		.byte	0x3
 2226 0582 35050000 		.4byte	0x535
 2227 0586 2A       		.uleb128 0x2a
 2228 0587 0808     		.2byte	0x808
 2229 0589 10       		.byte	0x10
 2230 058a C0       		.byte	0xc0
 2231 058b 09       		.byte	0x9
 2232 058c C5050000 		.4byte	0x5c5
 2233 0590 02       		.uleb128 0x2
 2234 0591 7C040000 		.4byte	.LASF85
 2235 0595 10       		.byte	0x10
 2236 0596 C4       		.byte	0xc4
 2237 0597 19       		.byte	0x19
 2238 0598 BB000000 		.4byte	0xbb
 2239 059c 00       		.byte	0
 2240 059d 02       		.uleb128 0x2
 2241 059e 59030000 		.4byte	.LASF86
 2242 05a2 10       		.byte	0x10
 2243 05a3 C8       		.byte	0xc8
 2244 05a4 19       		.byte	0x19
 2245 05a5 BB000000 		.4byte	0xbb
 2246 05a9 02       		.byte	0x2
 2247 05aa 0A       		.uleb128 0xa
 2248 05ab 70747200 		.ascii	"ptr\000"
 2249 05af 10       		.byte	0x10
 2250 05b0 CC       		.byte	0xcc
 2251 05b1 1A       		.byte	0x1a
 2252 05b2 C5050000 		.4byte	0x5c5
 2253 05b6 04       		.byte	0x4
 2254 05b7 02       		.uleb128 0x2
 2255 05b8 A5060000 		.4byte	.LASF87
 2256 05bc 10       		.byte	0x10
 2257 05bd D0       		.byte	0xd0
 2258 05be 19       		.byte	0x19
 2259 05bf CA050000 		.4byte	0x5ca
 2260 05c3 08       		.byte	0x8
 2261 05c4 00       		.byte	0
 2262 05c5 05       		.uleb128 0x5
 2263 05c6 7A050000 		.4byte	0x57a
 2264 05ca 10       		.uleb128 0x10
 2265 05cb 7A050000 		.4byte	0x57a
 2266 05cf DA050000 		.4byte	0x5da
 2267 05d3 11       		.uleb128 0x11
 2268 05d4 2D000000 		.4byte	0x2d
 2269 05d8 7F       		.byte	0x7f
 2270 05d9 00       		.byte	0
 2271 05da 01       		.uleb128 0x1
 2272 05db 21020000 		.4byte	.LASF88
 2273 05df 10       		.byte	0x10
 2274 05e0 D1       		.byte	0xd1
 2275 05e1 03       		.byte	0x3
 2276 05e2 86050000 		.4byte	0x586
 2277 05e6 17       		.uleb128 0x17
 2278 05e7 42000000 		.4byte	.LASF89
 2279 05eb 24       		.byte	0x24
 2280 05ec 04       		.byte	0x4
ARM GAS  C:\Users\DEVELO~1\AppData\Local\Temp\ccW7fz6e.s 			page 41


 2281 05ed E001     		.2byte	0x1e0
 2282 05ef 08       		.byte	0x8
 2283 05f0 6C060000 		.4byte	0x66c
 2284 05f4 09       		.uleb128 0x9
 2285 05f5 723400   		.ascii	"r4\000"
 2286 05f8 04       		.byte	0x4
 2287 05f9 F901     		.2byte	0x1f9
 2288 05fb 11       		.byte	0x11
 2289 05fc D3000000 		.4byte	0xd3
 2290 0600 00       		.byte	0
 2291 0601 09       		.uleb128 0x9
 2292 0602 723500   		.ascii	"r5\000"
 2293 0605 04       		.byte	0x4
 2294 0606 FA01     		.2byte	0x1fa
 2295 0608 11       		.byte	0x11
 2296 0609 D3000000 		.4byte	0xd3
 2297 060d 04       		.byte	0x4
 2298 060e 09       		.uleb128 0x9
 2299 060f 723600   		.ascii	"r6\000"
 2300 0612 04       		.byte	0x4
 2301 0613 FB01     		.2byte	0x1fb
 2302 0615 11       		.byte	0x11
 2303 0616 D3000000 		.4byte	0xd3
 2304 061a 08       		.byte	0x8
 2305 061b 09       		.uleb128 0x9
 2306 061c 723700   		.ascii	"r7\000"
 2307 061f 04       		.byte	0x4
 2308 0620 FC01     		.2byte	0x1fc
 2309 0622 11       		.byte	0x11
 2310 0623 D3000000 		.4byte	0xd3
 2311 0627 0C       		.byte	0xc
 2312 0628 09       		.uleb128 0x9
 2313 0629 723800   		.ascii	"r8\000"
 2314 062c 04       		.byte	0x4
 2315 062d FD01     		.2byte	0x1fd
 2316 062f 11       		.byte	0x11
 2317 0630 D3000000 		.4byte	0xd3
 2318 0634 10       		.byte	0x10
 2319 0635 09       		.uleb128 0x9
 2320 0636 723900   		.ascii	"r9\000"
 2321 0639 04       		.byte	0x4
 2322 063a FE01     		.2byte	0x1fe
 2323 063c 11       		.byte	0x11
 2324 063d D3000000 		.4byte	0xd3
 2325 0641 14       		.byte	0x14
 2326 0642 09       		.uleb128 0x9
 2327 0643 72313000 		.ascii	"r10\000"
 2328 0647 04       		.byte	0x4
 2329 0648 FF01     		.2byte	0x1ff
 2330 064a 11       		.byte	0x11
 2331 064b D3000000 		.4byte	0xd3
 2332 064f 18       		.byte	0x18
 2333 0650 09       		.uleb128 0x9
 2334 0651 72313100 		.ascii	"r11\000"
 2335 0655 04       		.byte	0x4
 2336 0656 0002     		.2byte	0x200
 2337 0658 11       		.byte	0x11
ARM GAS  C:\Users\DEVELO~1\AppData\Local\Temp\ccW7fz6e.s 			page 42


 2338 0659 D3000000 		.4byte	0xd3
 2339 065d 1C       		.byte	0x1c
 2340 065e 09       		.uleb128 0x9
 2341 065f 6C7200   		.ascii	"lr\000"
 2342 0662 04       		.byte	0x4
 2343 0663 0102     		.2byte	0x201
 2344 0665 11       		.byte	0x11
 2345 0666 D3000000 		.4byte	0xd3
 2346 066a 20       		.byte	0x20
 2347 066b 00       		.byte	0
 2348 066c 17       		.uleb128 0x17
 2349 066d A5040000 		.4byte	.LASF90
 2350 0671 04       		.byte	0x4
 2351 0672 04       		.byte	0x4
 2352 0673 0A02     		.2byte	0x20a
 2353 0675 08       		.byte	0x8
 2354 0676 88060000 		.4byte	0x688
 2355 067a 09       		.uleb128 0x9
 2356 067b 737000   		.ascii	"sp\000"
 2357 067e 04       		.byte	0x4
 2358 067f 0B02     		.2byte	0x20b
 2359 0681 1A       		.byte	0x1a
 2360 0682 88060000 		.4byte	0x688
 2361 0686 00       		.byte	0
 2362 0687 00       		.byte	0
 2363 0688 05       		.uleb128 0x5
 2364 0689 E6050000 		.4byte	0x5e6
 2365 068d 01       		.uleb128 0x1
 2366 068e F8040000 		.4byte	.LASF91
 2367 0692 0C       		.byte	0xc
 2368 0693 3C       		.byte	0x3c
 2369 0694 21       		.byte	0x21
 2370 0695 9E060000 		.4byte	0x69e
 2371 0699 0C       		.uleb128 0xc
 2372 069a 8D060000 		.4byte	0x68d
 2373 069e 08       		.uleb128 0x8
 2374 069f CB050000 		.4byte	.LASF92
 2375 06a3 18       		.byte	0x18
 2376 06a4 0C       		.byte	0xc
 2377 06a5 4B       		.byte	0x4b
 2378 06a6 08       		.byte	0x8
 2379 06a7 E0060000 		.4byte	0x6e0
 2380 06ab 02       		.uleb128 0x2
 2381 06ac 95060000 		.4byte	.LASF93
 2382 06b0 0C       		.byte	0xc
 2383 06b1 4F       		.byte	0x4f
 2384 06b2 21       		.byte	0x21
 2385 06b3 16040000 		.4byte	0x416
 2386 06b7 00       		.byte	0
 2387 06b8 02       		.uleb128 0x2
 2388 06b9 40060000 		.4byte	.LASF94
 2389 06bd 0C       		.byte	0xc
 2390 06be 53       		.byte	0x53
 2391 06bf 21       		.byte	0x21
 2392 06c0 E0060000 		.4byte	0x6e0
 2393 06c4 0C       		.byte	0xc
 2394 06c5 0A       		.uleb128 0xa
ARM GAS  C:\Users\DEVELO~1\AppData\Local\Temp\ccW7fz6e.s 			page 43


 2395 06c6 70617200 		.ascii	"par\000"
 2396 06ca 0C       		.byte	0xc
 2397 06cb 57       		.byte	0x57
 2398 06cc 22       		.byte	0x22
 2399 06cd 84040000 		.4byte	0x484
 2400 06d1 10       		.byte	0x10
 2401 06d2 02       		.uleb128 0x2
 2402 06d3 31030000 		.4byte	.LASF95
 2403 06d7 0C       		.byte	0xc
 2404 06d8 5B       		.byte	0x5b
 2405 06d9 21       		.byte	0x21
 2406 06da 5F030000 		.4byte	0x35f
 2407 06de 14       		.byte	0x14
 2408 06df 00       		.byte	0
 2409 06e0 01       		.uleb128 0x1
 2410 06e1 DC070000 		.4byte	.LASF96
 2411 06e5 0C       		.byte	0xc
 2412 06e6 46       		.byte	0x46
 2413 06e7 10       		.byte	0x10
 2414 06e8 EC060000 		.4byte	0x6ec
 2415 06ec 05       		.uleb128 0x5
 2416 06ed F1060000 		.4byte	0x6f1
 2417 06f1 2B       		.uleb128 0x2b
 2418 06f2 01070000 		.4byte	0x701
 2419 06f6 06       		.uleb128 0x6
 2420 06f7 01070000 		.4byte	0x701
 2421 06fb 06       		.uleb128 0x6
 2422 06fc 84040000 		.4byte	0x484
 2423 0700 00       		.byte	0
 2424 0701 05       		.uleb128 0x5
 2425 0702 8D060000 		.4byte	0x68d
 2426 0706 08       		.uleb128 0x8
 2427 0707 4D040000 		.4byte	.LASF97
 2428 070b 18       		.byte	0x18
 2429 070c 0C       		.byte	0xc
 2430 070d 64       		.byte	0x64
 2431 070e 10       		.byte	0x10
 2432 070f 3B070000 		.4byte	0x73b
 2433 0713 02       		.uleb128 0x2
 2434 0714 95060000 		.4byte	.LASF93
 2435 0718 0C       		.byte	0xc
 2436 0719 68       		.byte	0x68
 2437 071a 21       		.byte	0x21
 2438 071b 16040000 		.4byte	0x416
 2439 071f 00       		.byte	0
 2440 0720 02       		.uleb128 0x2
 2441 0721 86050000 		.4byte	.LASF98
 2442 0725 0C       		.byte	0xc
 2443 0726 73       		.byte	0x73
 2444 0727 21       		.byte	0x21
 2445 0728 53030000 		.4byte	0x353
 2446 072c 0C       		.byte	0xc
 2447 072d 02       		.uleb128 0x2
 2448 072e 1B040000 		.4byte	.LASF99
 2449 0732 0C       		.byte	0xc
 2450 0733 79       		.byte	0x79
 2451 0734 21       		.byte	0x21
ARM GAS  C:\Users\DEVELO~1\AppData\Local\Temp\ccW7fz6e.s 			page 44


 2452 0735 EB000000 		.4byte	0xeb
 2453 0739 10       		.byte	0x10
 2454 073a 00       		.byte	0
 2455 073b 01       		.uleb128 0x1
 2456 073c C7030000 		.4byte	.LASF100
 2457 0740 0C       		.byte	0xc
 2458 0741 7B       		.byte	0x7b
 2459 0742 03       		.byte	0x3
 2460 0743 06070000 		.4byte	0x706
 2461 0747 08       		.uleb128 0x8
 2462 0748 6B020000 		.4byte	.LASF101
 2463 074c 08       		.byte	0x8
 2464 074d 0C       		.byte	0xc
 2465 074e 80       		.byte	0x80
 2466 074f 10       		.byte	0x10
 2467 0750 62070000 		.4byte	0x762
 2468 0754 02       		.uleb128 0x2
 2469 0755 53030000 		.4byte	.LASF102
 2470 0759 0C       		.byte	0xc
 2471 075a 84       		.byte	0x84
 2472 075b 21       		.byte	0x21
 2473 075c 97030000 		.4byte	0x397
 2474 0760 00       		.byte	0
 2475 0761 00       		.byte	0
 2476 0762 01       		.uleb128 0x1
 2477 0763 F7050000 		.4byte	.LASF103
 2478 0767 0C       		.byte	0xc
 2479 0768 85       		.byte	0x85
 2480 0769 03       		.byte	0x3
 2481 076a 47070000 		.4byte	0x747
 2482 076e 01       		.uleb128 0x1
 2483 076f 3A040000 		.4byte	.LASF104
 2484 0773 0C       		.byte	0xc
 2485 0774 8A       		.byte	0x8a
 2486 0775 14       		.byte	0x14
 2487 0776 7F040000 		.4byte	0x47f
 2488 077a 1A       		.uleb128 0x1a
 2489 077b 0C       		.byte	0xc
 2490 077c 0C       		.byte	0xc
 2491 077d A0       		.byte	0xa0
 2492 077e A7070000 		.4byte	0x7a7
 2493 0782 0D       		.uleb128 0xd
 2494 0783 F2070000 		.4byte	.LASF105
 2495 0787 0C       		.byte	0xc
 2496 0788 A4       		.byte	0xa4
 2497 0789 21       		.byte	0x21
 2498 078a 6B030000 		.4byte	0x36b
 2499 078e 0D       		.uleb128 0xd
 2500 078f 53030000 		.4byte	.LASF102
 2501 0793 0C       		.byte	0xc
 2502 0794 A8       		.byte	0xa8
 2503 0795 21       		.byte	0x21
 2504 0796 97030000 		.4byte	0x397
 2505 079a 0D       		.uleb128 0xd
 2506 079b CA060000 		.4byte	.LASF106
 2507 079f 0C       		.byte	0xc
 2508 07a0 AC       		.byte	0xac
ARM GAS  C:\Users\DEVELO~1\AppData\Local\Temp\ccW7fz6e.s 			page 45


 2509 07a1 21       		.byte	0x21
 2510 07a2 D0030000 		.4byte	0x3d0
 2511 07a6 00       		.byte	0
 2512 07a7 1A       		.uleb128 0x1a
 2513 07a8 04       		.byte	0x4
 2514 07a9 0C       		.byte	0xc
 2515 07aa EB       		.byte	0xeb
 2516 07ab 10080000 		.4byte	0x810
 2517 07af 0D       		.uleb128 0xd
 2518 07b0 1B000000 		.4byte	.LASF107
 2519 07b4 0C       		.byte	0xc
 2520 07b5 F2       		.byte	0xf2
 2521 07b6 21       		.byte	0x21
 2522 07b7 38010000 		.4byte	0x138
 2523 07bb 0D       		.uleb128 0xd
 2524 07bc 99000000 		.4byte	.LASF108
 2525 07c0 0C       		.byte	0xc
 2526 07c1 F9       		.byte	0xf9
 2527 07c2 21       		.byte	0x21
 2528 07c3 38010000 		.4byte	0x138
 2529 07c7 12       		.uleb128 0x12
 2530 07c8 A0050000 		.4byte	.LASF77
 2531 07cc 0001     		.2byte	0x100
 2532 07ce 22       		.byte	0x22
 2533 07cf 84040000 		.4byte	0x484
 2534 07d3 12       		.uleb128 0x12
 2535 07d4 15000000 		.4byte	.LASF109
 2536 07d8 0701     		.2byte	0x107
 2537 07da 22       		.byte	0x22
 2538 07db 10080000 		.4byte	0x810
 2539 07df 12       		.uleb128 0x12
 2540 07e0 AD000000 		.4byte	.LASF110
 2541 07e4 0C01     		.2byte	0x10c
 2542 07e6 21       		.byte	0x21
 2543 07e7 38010000 		.4byte	0x138
 2544 07eb 12       		.uleb128 0x12
 2545 07ec E8020000 		.4byte	.LASF111
 2546 07f0 1501     		.2byte	0x115
 2547 07f2 22       		.byte	0x22
 2548 07f3 3D080000 		.4byte	0x83d
 2549 07f7 12       		.uleb128 0x12
 2550 07f8 0B060000 		.4byte	.LASF112
 2551 07fc 1E01     		.2byte	0x11e
 2552 07fe 22       		.byte	0x22
 2553 07ff 77080000 		.4byte	0x877
 2554 0803 12       		.uleb128 0x12
 2555 0804 A7050000 		.4byte	.LASF113
 2556 0808 2601     		.2byte	0x126
 2557 080a 21       		.byte	0x21
 2558 080b 44010000 		.4byte	0x144
 2559 080f 00       		.byte	0
 2560 0810 05       		.uleb128 0x5
 2561 0811 6E070000 		.4byte	0x76e
 2562 0815 08       		.uleb128 0x8
 2563 0816 DC050000 		.4byte	.LASF114
 2564 081a 0C       		.byte	0xc
 2565 081b 06       		.byte	0x6
ARM GAS  C:\Users\DEVELO~1\AppData\Local\Temp\ccW7fz6e.s 			page 46


 2566 081c 34       		.byte	0x34
 2567 081d 10       		.byte	0x10
 2568 081e 3D080000 		.4byte	0x83d
 2569 0822 02       		.uleb128 0x2
 2570 0823 53030000 		.4byte	.LASF102
 2571 0827 06       		.byte	0x6
 2572 0828 35       		.byte	0x35
 2573 0829 19       		.byte	0x19
 2574 082a 97030000 		.4byte	0x397
 2575 082e 00       		.byte	0
 2576 082f 0A       		.uleb128 0xa
 2577 0830 636E7400 		.ascii	"cnt\000"
 2578 0834 06       		.byte	0x6
 2579 0835 37       		.byte	0x37
 2580 0836 19       		.byte	0x19
 2581 0837 50010000 		.4byte	0x150
 2582 083b 08       		.byte	0x8
 2583 083c 00       		.byte	0
 2584 083d 05       		.uleb128 0x5
 2585 083e 15080000 		.4byte	0x815
 2586 0842 08       		.uleb128 0x8
 2587 0843 C5070000 		.4byte	.LASF115
 2588 0847 10       		.byte	0x10
 2589 0848 11       		.byte	0x11
 2590 0849 39       		.byte	0x39
 2591 084a 08       		.byte	0x8
 2592 084b 77080000 		.4byte	0x877
 2593 084f 02       		.uleb128 0x2
 2594 0850 53030000 		.4byte	.LASF102
 2595 0854 11       		.byte	0x11
 2596 0855 3A       		.byte	0x3a
 2597 0856 19       		.byte	0x19
 2598 0857 97030000 		.4byte	0x397
 2599 085b 00       		.byte	0
 2600 085c 02       		.uleb128 0x2
 2601 085d 22060000 		.4byte	.LASF32
 2602 0861 11       		.byte	0x11
 2603 0862 3C       		.byte	0x3c
 2604 0863 1A       		.byte	0x1a
 2605 0864 7F040000 		.4byte	0x47f
 2606 0868 08       		.byte	0x8
 2607 0869 02       		.uleb128 0x2
 2608 086a CC000000 		.4byte	.LASF67
 2609 086e 11       		.byte	0x11
 2610 086f 3E       		.byte	0x3e
 2611 0870 1A       		.byte	0x1a
 2612 0871 44090000 		.4byte	0x944
 2613 0875 0C       		.byte	0xc
 2614 0876 00       		.byte	0
 2615 0877 05       		.uleb128 0x5
 2616 0878 42080000 		.4byte	0x842
 2617 087c 05       		.uleb128 0x5
 2618 087d 51020000 		.4byte	0x251
 2619 0881 05       		.uleb128 0x5
 2620 0882 FC000000 		.4byte	0xfc
 2621 0886 17       		.uleb128 0x17
 2622 0887 40030000 		.4byte	.LASF116
ARM GAS  C:\Users\DEVELO~1\AppData\Local\Temp\ccW7fz6e.s 			page 47


 2623 088b 10       		.byte	0x10
 2624 088c 0C       		.byte	0xc
 2625 088d 5C01     		.2byte	0x15c
 2626 088f 10       		.byte	0x10
 2627 0890 AF080000 		.4byte	0x8af
 2628 0894 04       		.uleb128 0x4
 2629 0895 CA060000 		.4byte	.LASF106
 2630 0899 6101     		.2byte	0x161
 2631 089b 21       		.byte	0x21
 2632 089c D0030000 		.4byte	0x3d0
 2633 08a0 00       		.byte	0
 2634 08a1 04       		.uleb128 0x4
 2635 08a2 CE040000 		.4byte	.LASF117
 2636 08a6 6501     		.2byte	0x165
 2637 08a8 22       		.byte	0x22
 2638 08a9 7F040000 		.4byte	0x47f
 2639 08ad 0C       		.byte	0xc
 2640 08ae 00       		.byte	0
 2641 08af 22       		.uleb128 0x22
 2642 08b0 08000000 		.4byte	.LASF118
 2643 08b4 6601     		.2byte	0x166
 2644 08b6 86080000 		.4byte	0x886
 2645 08ba 17       		.uleb128 0x17
 2646 08bb 8F040000 		.4byte	.LASF119
 2647 08bf 14       		.byte	0x14
 2648 08c0 0C       		.byte	0xc
 2649 08c1 6B01     		.2byte	0x16b
 2650 08c3 10       		.byte	0x10
 2651 08c4 0A090000 		.4byte	0x90a
 2652 08c8 04       		.uleb128 0x4
 2653 08c9 4E030000 		.4byte	.LASF33
 2654 08cd 6F01     		.2byte	0x16f
 2655 08cf 22       		.byte	0x22
 2656 08d0 31030000 		.4byte	0x331
 2657 08d4 00       		.byte	0
 2658 08d5 04       		.uleb128 0x4
 2659 08d6 8C020000 		.4byte	.LASF120
 2660 08da 7501     		.2byte	0x175
 2661 08dc 22       		.byte	0x22
 2662 08dd 81080000 		.4byte	0x881
 2663 08e1 04       		.byte	0x4
 2664 08e2 04       		.uleb128 0x4
 2665 08e3 59070000 		.4byte	.LASF121
 2666 08e7 7901     		.2byte	0x179
 2667 08e9 22       		.byte	0x22
 2668 08ea 81080000 		.4byte	0x881
 2669 08ee 08       		.byte	0x8
 2670 08ef 04       		.uleb128 0x4
 2671 08f0 D8020000 		.4byte	.LASF122
 2672 08f4 7F01     		.2byte	0x17f
 2673 08f6 22       		.byte	0x22
 2674 08f7 81080000 		.4byte	0x881
 2675 08fb 0C       		.byte	0xc
 2676 08fc 04       		.uleb128 0x4
 2677 08fd 01080000 		.4byte	.LASF123
 2678 0901 8301     		.2byte	0x183
 2679 0903 22       		.byte	0x22
ARM GAS  C:\Users\DEVELO~1\AppData\Local\Temp\ccW7fz6e.s 			page 48


 2680 0904 81080000 		.4byte	0x881
 2681 0908 10       		.byte	0x10
 2682 0909 00       		.byte	0
 2683 090a 22       		.uleb128 0x22
 2684 090b 7B070000 		.4byte	.LASF124
 2685 090f 8501     		.2byte	0x185
 2686 0911 BA080000 		.4byte	0x8ba
 2687 0915 0C       		.uleb128 0xc
 2688 0916 0A090000 		.4byte	0x90a
 2689 091a 05       		.uleb128 0x5
 2690 091b 15090000 		.4byte	0x915
 2691 091f 2C       		.uleb128 0x2c
 2692 0920 63683000 		.ascii	"ch0\000"
 2693 0924 02       		.byte	0x2
 2694 0925 4101     		.2byte	0x141
 2695 0927 16       		.byte	0x16
 2696 0928 51020000 		.4byte	0x251
 2697 092c 01       		.uleb128 0x1
 2698 092d 90070000 		.4byte	.LASF125
 2699 0931 06       		.byte	0x6
 2700 0932 38       		.byte	0x38
 2701 0933 03       		.byte	0x3
 2702 0934 15080000 		.4byte	0x815
 2703 0938 01       		.uleb128 0x1
 2704 0939 9C020000 		.4byte	.LASF126
 2705 093d 11       		.byte	0x11
 2706 093e 34       		.byte	0x34
 2707 093f 19       		.byte	0x19
 2708 0940 42080000 		.4byte	0x842
 2709 0944 05       		.uleb128 0x5
 2710 0945 38090000 		.4byte	0x938
 2711 0949 07       		.uleb128 0x7
 2712 094a 01       		.byte	0x1
 2713 094b 02       		.byte	0x2
 2714 094c 38050000 		.4byte	.LASF127
 2715 0950 18       		.uleb128 0x18
 2716 0951 8C000000 		.4byte	.LASF128
 2717 0955 05       		.byte	0x5
 2718 0956 4E       		.byte	0x4e
 2719 0957 61090000 		.4byte	0x961
 2720 095b 06       		.uleb128 0x6
 2721 095c 01070000 		.4byte	0x701
 2722 0960 00       		.byte	0
 2723 0961 18       		.uleb128 0x18
 2724 0962 B2030000 		.4byte	.LASF129
 2725 0966 05       		.byte	0x5
 2726 0967 4A       		.byte	0x4a
 2727 0968 81090000 		.4byte	0x981
 2728 096c 06       		.uleb128 0x6
 2729 096d 01070000 		.4byte	0x701
 2730 0971 06       		.uleb128 0x6
 2731 0972 5F030000 		.4byte	0x35f
 2732 0976 06       		.uleb128 0x6
 2733 0977 E0060000 		.4byte	0x6e0
 2734 097b 06       		.uleb128 0x6
 2735 097c 84040000 		.4byte	0x484
 2736 0980 00       		.byte	0
ARM GAS  C:\Users\DEVELO~1\AppData\Local\Temp\ccW7fz6e.s 			page 49


 2737 0981 2D       		.uleb128 0x2d
 2738 0982 6B000000 		.4byte	.LASF130
 2739 0986 04       		.byte	0x4
 2740 0987 F502     		.2byte	0x2f5
 2741 0989 08       		.byte	0x8
 2742 098a 99090000 		.4byte	0x999
 2743 098e 06       		.uleb128 0x6
 2744 098f 7F040000 		.4byte	0x47f
 2745 0993 06       		.uleb128 0x6
 2746 0994 7F040000 		.4byte	0x47f
 2747 0998 00       		.byte	0
 2748 0999 18       		.uleb128 0x18
 2749 099a EF020000 		.4byte	.LASF131
 2750 099e 10       		.byte	0x10
 2751 099f FD       		.byte	0xfd
 2752 09a0 AF090000 		.4byte	0x9af
 2753 09a4 06       		.uleb128 0x6
 2754 09a5 7F040000 		.4byte	0x47f
 2755 09a9 06       		.uleb128 0x6
 2756 09aa 7F040000 		.4byte	0x47f
 2757 09ae 00       		.byte	0
 2758 09af 18       		.uleb128 0x18
 2759 09b0 B0070000 		.4byte	.LASF132
 2760 09b4 10       		.byte	0x10
 2761 09b5 FC       		.byte	0xfc
 2762 09b6 C5090000 		.4byte	0x9c5
 2763 09ba 06       		.uleb128 0x6
 2764 09bb 7F040000 		.4byte	0x47f
 2765 09bf 06       		.uleb128 0x6
 2766 09c0 38010000 		.4byte	0x138
 2767 09c4 00       		.byte	0
 2768 09c5 1D       		.uleb128 0x1d
 2769 09c6 BB000000 		.4byte	.LASF136
 2770 09ca 7302     		.2byte	0x273
 2771 09cc 0B       		.byte	0xb
 2772 09cd 7F040000 		.4byte	0x47f
 2773 09d1 00000000 		.4byte	.LFB360
 2774 09d5 3C000000 		.4byte	.LFE360-.LFB360
 2775 09d9 01       		.uleb128 0x1
 2776 09da 9C       		.byte	0x9c
 2777 09db 100A0000 		.4byte	0xa10
 2778 09df 03       		.uleb128 0x3
 2779 09e0 6F697000 		.ascii	"oip\000"
 2780 09e4 07       		.byte	0x7
 2781 09e5 7402     		.2byte	0x274
 2782 09e7 12       		.byte	0x12
 2783 09e8 7C080000 		.4byte	0x87c
 2784 09ec 02       		.uleb128 0x2
 2785 09ed 91       		.byte	0x91
 2786 09ee 74       		.sleb128 -12
 2787 09ef 03       		.uleb128 0x3
 2788 09f0 6F747000 		.ascii	"otp\000"
 2789 09f4 07       		.byte	0x7
 2790 09f5 7502     		.2byte	0x275
 2791 09f7 0D       		.byte	0xd
 2792 09f8 7F040000 		.4byte	0x47f
 2793 09fc 02       		.uleb128 0x2
ARM GAS  C:\Users\DEVELO~1\AppData\Local\Temp\ccW7fz6e.s 			page 50


 2794 09fd 91       		.byte	0x91
 2795 09fe 70       		.sleb128 -16
 2796 09ff 03       		.uleb128 0x3
 2797 0a00 6E747000 		.ascii	"ntp\000"
 2798 0a04 07       		.byte	0x7
 2799 0a05 7602     		.2byte	0x276
 2800 0a07 0D       		.byte	0xd
 2801 0a08 7F040000 		.4byte	0x47f
 2802 0a0c 02       		.uleb128 0x2
 2803 0a0d 91       		.byte	0x91
 2804 0a0e 6C       		.sleb128 -20
 2805 0a0f 00       		.byte	0
 2806 0a10 13       		.uleb128 0x13
 2807 0a11 CE070000 		.4byte	.LASF133
 2808 0a15 5A02     		.2byte	0x25a
 2809 0a17 00000000 		.4byte	.LFB359
 2810 0a1b 38000000 		.4byte	.LFE359-.LFB359
 2811 0a1f 01       		.uleb128 0x1
 2812 0a20 9C       		.byte	0x9c
 2813 0a21 450A0000 		.4byte	0xa45
 2814 0a25 03       		.uleb128 0x3
 2815 0a26 6F697000 		.ascii	"oip\000"
 2816 0a2a 07       		.byte	0x7
 2817 0a2b 5B02     		.2byte	0x25b
 2818 0a2d 12       		.byte	0x12
 2819 0a2e 7C080000 		.4byte	0x87c
 2820 0a32 02       		.uleb128 0x2
 2821 0a33 91       		.byte	0x91
 2822 0a34 74       		.sleb128 -12
 2823 0a35 03       		.uleb128 0x3
 2824 0a36 747000   		.ascii	"tp\000"
 2825 0a39 07       		.byte	0x7
 2826 0a3a 5C02     		.2byte	0x25c
 2827 0a3c 0D       		.byte	0xd
 2828 0a3d 7F040000 		.4byte	0x47f
 2829 0a41 02       		.uleb128 0x2
 2830 0a42 91       		.byte	0x91
 2831 0a43 70       		.sleb128 -16
 2832 0a44 00       		.byte	0
 2833 0a45 13       		.uleb128 0x13
 2834 0a46 EB010000 		.4byte	.LASF134
 2835 0a4a 3802     		.2byte	0x238
 2836 0a4c 00000000 		.4byte	.LFB358
 2837 0a50 40000000 		.4byte	.LFE358-.LFB358
 2838 0a54 01       		.uleb128 0x1
 2839 0a55 9C       		.byte	0x9c
 2840 0a56 980A0000 		.4byte	0xa98
 2841 0a5a 03       		.uleb128 0x3
 2842 0a5b 6F697000 		.ascii	"oip\000"
 2843 0a5f 07       		.byte	0x7
 2844 0a60 3902     		.2byte	0x239
 2845 0a62 12       		.byte	0x12
 2846 0a63 7C080000 		.4byte	0x87c
 2847 0a67 02       		.uleb128 0x2
 2848 0a68 91       		.byte	0x91
 2849 0a69 74       		.sleb128 -12
 2850 0a6a 03       		.uleb128 0x3
ARM GAS  C:\Users\DEVELO~1\AppData\Local\Temp\ccW7fz6e.s 			page 51


 2851 0a6b 747000   		.ascii	"tp\000"
 2852 0a6e 07       		.byte	0x7
 2853 0a6f 3A02     		.2byte	0x23a
 2854 0a71 0D       		.byte	0xd
 2855 0a72 7F040000 		.4byte	0x47f
 2856 0a76 02       		.uleb128 0x2
 2857 0a77 91       		.byte	0x91
 2858 0a78 70       		.sleb128 -16
 2859 0a79 03       		.uleb128 0x3
 2860 0a7a 703100   		.ascii	"p1\000"
 2861 0a7d 07       		.byte	0x7
 2862 0a7e 3B02     		.2byte	0x23b
 2863 0a80 0B       		.byte	0xb
 2864 0a81 2C010000 		.4byte	0x12c
 2865 0a85 02       		.uleb128 0x2
 2866 0a86 91       		.byte	0x91
 2867 0a87 6C       		.sleb128 -20
 2868 0a88 03       		.uleb128 0x3
 2869 0a89 703200   		.ascii	"p2\000"
 2870 0a8c 07       		.byte	0x7
 2871 0a8d 3C02     		.2byte	0x23c
 2872 0a8f 0B       		.byte	0xb
 2873 0a90 2C010000 		.4byte	0x12c
 2874 0a94 02       		.uleb128 0x2
 2875 0a95 91       		.byte	0x91
 2876 0a96 68       		.sleb128 -24
 2877 0a97 00       		.byte	0
 2878 0a98 13       		.uleb128 0x13
 2879 0a99 12070000 		.4byte	.LASF135
 2880 0a9d 0502     		.2byte	0x205
 2881 0a9f 00000000 		.4byte	.LFB357
 2882 0aa3 4C000000 		.4byte	.LFE357-.LFB357
 2883 0aa7 01       		.uleb128 0x1
 2884 0aa8 9C       		.byte	0x9c
 2885 0aa9 DE0A0000 		.4byte	0xade
 2886 0aad 03       		.uleb128 0x3
 2887 0aae 6F697000 		.ascii	"oip\000"
 2888 0ab2 07       		.byte	0x7
 2889 0ab3 0602     		.2byte	0x206
 2890 0ab5 12       		.byte	0x12
 2891 0ab6 7C080000 		.4byte	0x87c
 2892 0aba 02       		.uleb128 0x2
 2893 0abb 91       		.byte	0x91
 2894 0abc 74       		.sleb128 -12
 2895 0abd 03       		.uleb128 0x3
 2896 0abe 6F747000 		.ascii	"otp\000"
 2897 0ac2 07       		.byte	0x7
 2898 0ac3 0702     		.2byte	0x207
 2899 0ac5 0D       		.byte	0xd
 2900 0ac6 7F040000 		.4byte	0x47f
 2901 0aca 02       		.uleb128 0x2
 2902 0acb 91       		.byte	0x91
 2903 0acc 70       		.sleb128 -16
 2904 0acd 03       		.uleb128 0x3
 2905 0ace 6E747000 		.ascii	"ntp\000"
 2906 0ad2 07       		.byte	0x7
 2907 0ad3 0802     		.2byte	0x208
ARM GAS  C:\Users\DEVELO~1\AppData\Local\Temp\ccW7fz6e.s 			page 52


 2908 0ad5 0D       		.byte	0xd
 2909 0ad6 7F040000 		.4byte	0x47f
 2910 0ada 02       		.uleb128 0x2
 2911 0adb 91       		.byte	0x91
 2912 0adc 6C       		.sleb128 -20
 2913 0add 00       		.byte	0
 2914 0ade 2E       		.uleb128 0x2e
 2915 0adf 30020000 		.4byte	.LASF137
 2916 0ae3 07       		.byte	0x7
 2917 0ae4 E501     		.2byte	0x1e5
 2918 0ae6 06       		.byte	0x6
 2919 0ae7 49090000 		.4byte	0x949
 2920 0aeb 00000000 		.4byte	.LFB356
 2921 0aef 3C000000 		.4byte	.LFE356-.LFB356
 2922 0af3 01       		.uleb128 0x1
 2923 0af4 9C       		.byte	0x9c
 2924 0af5 370B0000 		.4byte	0xb37
 2925 0af9 03       		.uleb128 0x3
 2926 0afa 6F697000 		.ascii	"oip\000"
 2927 0afe 07       		.byte	0x7
 2928 0aff E601     		.2byte	0x1e6
 2929 0b01 12       		.byte	0x12
 2930 0b02 7C080000 		.4byte	0x87c
 2931 0b06 02       		.uleb128 0x2
 2932 0b07 91       		.byte	0x91
 2933 0b08 74       		.sleb128 -12
 2934 0b09 03       		.uleb128 0x3
 2935 0b0a 747000   		.ascii	"tp\000"
 2936 0b0d 07       		.byte	0x7
 2937 0b0e E701     		.2byte	0x1e7
 2938 0b10 0D       		.byte	0xd
 2939 0b11 7F040000 		.4byte	0x47f
 2940 0b15 02       		.uleb128 0x2
 2941 0b16 91       		.byte	0x91
 2942 0b17 70       		.sleb128 -16
 2943 0b18 03       		.uleb128 0x3
 2944 0b19 703100   		.ascii	"p1\000"
 2945 0b1c 07       		.byte	0x7
 2946 0b1d E901     		.2byte	0x1e9
 2947 0b1f 0B       		.byte	0xb
 2948 0b20 2C010000 		.4byte	0x12c
 2949 0b24 02       		.uleb128 0x2
 2950 0b25 91       		.byte	0x91
 2951 0b26 6C       		.sleb128 -20
 2952 0b27 03       		.uleb128 0x3
 2953 0b28 703200   		.ascii	"p2\000"
 2954 0b2b 07       		.byte	0x7
 2955 0b2c EA01     		.2byte	0x1ea
 2956 0b2e 0B       		.byte	0xb
 2957 0b2f 2C010000 		.4byte	0x12c
 2958 0b33 02       		.uleb128 0x2
 2959 0b34 91       		.byte	0x91
 2960 0b35 68       		.sleb128 -24
 2961 0b36 00       		.byte	0
 2962 0b37 13       		.uleb128 0x13
 2963 0b38 4A020000 		.4byte	.LASF138
 2964 0b3c CA01     		.2byte	0x1ca
ARM GAS  C:\Users\DEVELO~1\AppData\Local\Temp\ccW7fz6e.s 			page 53


 2965 0b3e 00000000 		.4byte	.LFB355
 2966 0b42 38000000 		.4byte	.LFE355-.LFB355
 2967 0b46 01       		.uleb128 0x1
 2968 0b47 9C       		.byte	0x9c
 2969 0b48 6C0B0000 		.4byte	0xb6c
 2970 0b4c 03       		.uleb128 0x3
 2971 0b4d 6F697000 		.ascii	"oip\000"
 2972 0b51 07       		.byte	0x7
 2973 0b52 CB01     		.2byte	0x1cb
 2974 0b54 12       		.byte	0x12
 2975 0b55 7C080000 		.4byte	0x87c
 2976 0b59 02       		.uleb128 0x2
 2977 0b5a 91       		.byte	0x91
 2978 0b5b 74       		.sleb128 -12
 2979 0b5c 03       		.uleb128 0x3
 2980 0b5d 747000   		.ascii	"tp\000"
 2981 0b60 07       		.byte	0x7
 2982 0b61 CC01     		.2byte	0x1cc
 2983 0b63 0D       		.byte	0xd
 2984 0b64 7F040000 		.4byte	0x47f
 2985 0b68 02       		.uleb128 0x2
 2986 0b69 91       		.byte	0x91
 2987 0b6a 70       		.sleb128 -16
 2988 0b6b 00       		.byte	0
 2989 0b6c 13       		.uleb128 0x13
 2990 0b6d 68070000 		.4byte	.LASF139
 2991 0b71 8D01     		.2byte	0x18d
 2992 0b73 00000000 		.4byte	.LFB354
 2993 0b77 6C000000 		.4byte	.LFE354-.LFB354
 2994 0b7b 01       		.uleb128 0x1
 2995 0b7c 9C       		.byte	0x9c
 2996 0b7d CB0B0000 		.4byte	0xbcb
 2997 0b81 0B       		.uleb128 0xb
 2998 0b82 6E747000 		.ascii	"ntp\000"
 2999 0b86 07       		.byte	0x7
 3000 0b87 8D01     		.2byte	0x18d
 3001 0b89 1D       		.byte	0x1d
 3002 0b8a 7F040000 		.4byte	0x47f
 3003 0b8e 02       		.uleb128 0x2
 3004 0b8f 91       		.byte	0x91
 3005 0b90 6C       		.sleb128 -20
 3006 0b91 0B       		.uleb128 0xb
 3007 0b92 6D736700 		.ascii	"msg\000"
 3008 0b96 07       		.byte	0x7
 3009 0b97 8D01     		.2byte	0x18d
 3010 0b99 28       		.byte	0x28
 3011 0b9a 38010000 		.4byte	0x138
 3012 0b9e 02       		.uleb128 0x2
 3013 0b9f 91       		.byte	0x91
 3014 0ba0 68       		.sleb128 -24
 3015 0ba1 03       		.uleb128 0x3
 3016 0ba2 6F697000 		.ascii	"oip\000"
 3017 0ba6 07       		.byte	0x7
 3018 0ba7 8E01     		.2byte	0x18e
 3019 0ba9 12       		.byte	0x12
 3020 0baa 7C080000 		.4byte	0x87c
 3021 0bae 02       		.uleb128 0x2
ARM GAS  C:\Users\DEVELO~1\AppData\Local\Temp\ccW7fz6e.s 			page 54


 3022 0baf 91       		.byte	0x91
 3023 0bb0 70       		.sleb128 -16
 3024 0bb1 03       		.uleb128 0x3
 3025 0bb2 6F747000 		.ascii	"otp\000"
 3026 0bb6 07       		.byte	0x7
 3027 0bb7 8F01     		.2byte	0x18f
 3028 0bb9 0D       		.byte	0xd
 3029 0bba 7F040000 		.4byte	0x47f
 3030 0bbe 02       		.uleb128 0x2
 3031 0bbf 91       		.byte	0x91
 3032 0bc0 74       		.sleb128 -12
 3033 0bc1 16       		.uleb128 0x16
 3034 0bc2 AE050000 		.4byte	.LASF144
 3035 0bc6 DB0B0000 		.4byte	0xbdb
 3036 0bca 00       		.byte	0
 3037 0bcb 10       		.uleb128 0x10
 3038 0bcc 42030000 		.4byte	0x342
 3039 0bd0 DB0B0000 		.4byte	0xbdb
 3040 0bd4 11       		.uleb128 0x11
 3041 0bd5 2D000000 		.4byte	0x2d
 3042 0bd9 0C       		.byte	0xc
 3043 0bda 00       		.byte	0
 3044 0bdb 0C       		.uleb128 0xc
 3045 0bdc CB0B0000 		.4byte	0xbcb
 3046 0be0 1D       		.uleb128 0x1d
 3047 0be1 71050000 		.4byte	.LASF140
 3048 0be5 6701     		.2byte	0x167
 3049 0be7 07       		.byte	0x7
 3050 0be8 38010000 		.4byte	0x138
 3051 0bec 00000000 		.4byte	.LFB353
 3052 0bf0 68000000 		.4byte	.LFE353-.LFB353
 3053 0bf4 01       		.uleb128 0x1
 3054 0bf5 9C       		.byte	0x9c
 3055 0bf6 410C0000 		.4byte	0xc41
 3056 0bfa 1E       		.uleb128 0x1e
 3057 0bfb 54050000 		.4byte	.LASF141
 3058 0bff 6701     		.2byte	0x167
 3059 0c01 25       		.byte	0x25
 3060 0c02 14010000 		.4byte	0x114
 3061 0c06 02       		.uleb128 0x2
 3062 0c07 91       		.byte	0x91
 3063 0c08 57       		.sleb128 -41
 3064 0c09 1E       		.uleb128 0x1e
 3065 0c0a 38030000 		.4byte	.LASF142
 3066 0c0e 6701     		.2byte	0x167
 3067 0c10 3D       		.byte	0x3d
 3068 0c11 5F030000 		.4byte	0x35f
 3069 0c15 02       		.uleb128 0x2
 3070 0c16 91       		.byte	0x91
 3071 0c17 50       		.sleb128 -48
 3072 0c18 03       		.uleb128 0x3
 3073 0c19 747000   		.ascii	"tp\000"
 3074 0c1c 07       		.byte	0x7
 3075 0c1d 6801     		.2byte	0x168
 3076 0c1f 0D       		.byte	0xd
 3077 0c20 7F040000 		.4byte	0x47f
 3078 0c24 02       		.uleb128 0x2
ARM GAS  C:\Users\DEVELO~1\AppData\Local\Temp\ccW7fz6e.s 			page 55


 3079 0c25 91       		.byte	0x91
 3080 0c26 74       		.sleb128 -12
 3081 0c27 2F       		.uleb128 0x2f
 3082 0c28 1A000000 		.4byte	.LBB38
 3083 0c2c 32000000 		.4byte	.LBE38-.LBB38
 3084 0c30 03       		.uleb128 0x3
 3085 0c31 767400   		.ascii	"vt\000"
 3086 0c34 07       		.byte	0x7
 3087 0c35 6D01     		.2byte	0x16d
 3088 0c37 15       		.byte	0x15
 3089 0c38 8D060000 		.4byte	0x68d
 3090 0c3c 02       		.uleb128 0x2
 3091 0c3d 91       		.byte	0x91
 3092 0c3e 5C       		.sleb128 -36
 3093 0c3f 00       		.byte	0
 3094 0c40 00       		.byte	0
 3095 0c41 13       		.uleb128 0x13
 3096 0c42 E9050000 		.4byte	.LASF143
 3097 0c46 3101     		.2byte	0x131
 3098 0c48 00000000 		.4byte	.LFB352
 3099 0c4c 50000000 		.4byte	.LFE352-.LFB352
 3100 0c50 01       		.uleb128 0x1
 3101 0c51 9C       		.byte	0x9c
 3102 0c52 9F0C0000 		.4byte	0xc9f
 3103 0c56 1E       		.uleb128 0x1e
 3104 0c57 54050000 		.4byte	.LASF141
 3105 0c5b 3101     		.2byte	0x131
 3106 0c5d 1D       		.byte	0x1d
 3107 0c5e 14010000 		.4byte	0x114
 3108 0c62 02       		.uleb128 0x2
 3109 0c63 91       		.byte	0x91
 3110 0c64 67       		.sleb128 -25
 3111 0c65 03       		.uleb128 0x3
 3112 0c66 6F697000 		.ascii	"oip\000"
 3113 0c6a 07       		.byte	0x7
 3114 0c6b 3201     		.2byte	0x132
 3115 0c6d 12       		.byte	0x12
 3116 0c6e 7C080000 		.4byte	0x87c
 3117 0c72 02       		.uleb128 0x2
 3118 0c73 91       		.byte	0x91
 3119 0c74 70       		.sleb128 -16
 3120 0c75 03       		.uleb128 0x3
 3121 0c76 6F747000 		.ascii	"otp\000"
 3122 0c7a 07       		.byte	0x7
 3123 0c7b 3301     		.2byte	0x133
 3124 0c7d 0D       		.byte	0xd
 3125 0c7e 7F040000 		.4byte	0x47f
 3126 0c82 02       		.uleb128 0x2
 3127 0c83 91       		.byte	0x91
 3128 0c84 6C       		.sleb128 -20
 3129 0c85 03       		.uleb128 0x3
 3130 0c86 6E747000 		.ascii	"ntp\000"
 3131 0c8a 07       		.byte	0x7
 3132 0c8b 3401     		.2byte	0x134
 3133 0c8d 0D       		.byte	0xd
 3134 0c8e 7F040000 		.4byte	0x47f
 3135 0c92 02       		.uleb128 0x2
ARM GAS  C:\Users\DEVELO~1\AppData\Local\Temp\ccW7fz6e.s 			page 56


 3136 0c93 91       		.byte	0x91
 3137 0c94 74       		.sleb128 -12
 3138 0c95 16       		.uleb128 0x16
 3139 0c96 AE050000 		.4byte	.LASF144
 3140 0c9a AF0C0000 		.4byte	0xcaf
 3141 0c9e 00       		.byte	0
 3142 0c9f 10       		.uleb128 0x10
 3143 0ca0 42030000 		.4byte	0x342
 3144 0ca4 AF0C0000 		.4byte	0xcaf
 3145 0ca8 11       		.uleb128 0x11
 3146 0ca9 2D000000 		.4byte	0x2d
 3147 0cad 0D       		.byte	0xd
 3148 0cae 00       		.byte	0
 3149 0caf 0C       		.uleb128 0xc
 3150 0cb0 9F0C0000 		.4byte	0xc9f
 3151 0cb4 1D       		.uleb128 0x1d
 3152 0cb5 6B060000 		.4byte	.LASF145
 3153 0cb9 1801     		.2byte	0x118
 3154 0cbb 0B       		.byte	0xb
 3155 0cbc 7F040000 		.4byte	0x47f
 3156 0cc0 00000000 		.4byte	.LFB351
 3157 0cc4 18000000 		.4byte	.LFE351-.LFB351
 3158 0cc8 01       		.uleb128 0x1
 3159 0cc9 9C       		.byte	0x9c
 3160 0cca E70C0000 		.4byte	0xce7
 3161 0cce 0B       		.uleb128 0xb
 3162 0ccf 747000   		.ascii	"tp\000"
 3163 0cd2 07       		.byte	0x7
 3164 0cd3 1801     		.2byte	0x118
 3165 0cd5 21       		.byte	0x21
 3166 0cd6 7F040000 		.4byte	0x47f
 3167 0cda 02       		.uleb128 0x2
 3168 0cdb 91       		.byte	0x91
 3169 0cdc 74       		.sleb128 -12
 3170 0cdd 16       		.uleb128 0x16
 3171 0cde AE050000 		.4byte	.LASF144
 3172 0ce2 F70C0000 		.4byte	0xcf7
 3173 0ce6 00       		.byte	0
 3174 0ce7 10       		.uleb128 0x10
 3175 0ce8 42030000 		.4byte	0x342
 3176 0cec F70C0000 		.4byte	0xcf7
 3177 0cf0 11       		.uleb128 0x11
 3178 0cf1 2D000000 		.4byte	0x2d
 3179 0cf5 0B       		.byte	0xb
 3180 0cf6 00       		.byte	0
 3181 0cf7 0C       		.uleb128 0xc
 3182 0cf8 E70C0000 		.4byte	0xce7
 3183 0cfc 1F       		.uleb128 0x1f
 3184 0cfd 7F020000 		.4byte	.LASF146
 3185 0d01 BC       		.byte	0xbc
 3186 0d02 00000000 		.4byte	.LFB350
 3187 0d06 98000000 		.4byte	.LFE350-.LFB350
 3188 0d0a 01       		.uleb128 0x1
 3189 0d0b 9C       		.byte	0x9c
 3190 0d0c 3A0D0000 		.4byte	0xd3a
 3191 0d10 14       		.uleb128 0x14
 3192 0d11 76747000 		.ascii	"vtp\000"
ARM GAS  C:\Users\DEVELO~1\AppData\Local\Temp\ccW7fz6e.s 			page 57


 3193 0d15 07       		.byte	0x7
 3194 0d16 BC       		.byte	0xbc
 3195 0d17 2B       		.byte	0x2b
 3196 0d18 01070000 		.4byte	0x701
 3197 0d1c 02       		.uleb128 0x2
 3198 0d1d 91       		.byte	0x91
 3199 0d1e 6C       		.sleb128 -20
 3200 0d1f 14       		.uleb128 0x14
 3201 0d20 7000     		.ascii	"p\000"
 3202 0d22 07       		.byte	0x7
 3203 0d23 BC       		.byte	0xbc
 3204 0d24 36       		.byte	0x36
 3205 0d25 84040000 		.4byte	0x484
 3206 0d29 02       		.uleb128 0x2
 3207 0d2a 91       		.byte	0x91
 3208 0d2b 68       		.sleb128 -24
 3209 0d2c 0E       		.uleb128 0xe
 3210 0d2d 747000   		.ascii	"tp\000"
 3211 0d30 BD       		.byte	0xbd
 3212 0d31 0D       		.byte	0xd
 3213 0d32 7F040000 		.4byte	0x47f
 3214 0d36 02       		.uleb128 0x2
 3215 0d37 91       		.byte	0x91
 3216 0d38 74       		.sleb128 -12
 3217 0d39 00       		.byte	0
 3218 0d3a 1F       		.uleb128 0x1f
 3219 0d3b 29010000 		.4byte	.LASF147
 3220 0d3f A3       		.byte	0xa3
 3221 0d40 00000000 		.4byte	.LFB349
 3222 0d44 4C000000 		.4byte	.LFE349-.LFB349
 3223 0d48 01       		.uleb128 0x1
 3224 0d49 9C       		.byte	0x9c
 3225 0d4a 790D0000 		.4byte	0xd79
 3226 0d4e 0E       		.uleb128 0xe
 3227 0d4f 6F697000 		.ascii	"oip\000"
 3228 0d53 A4       		.byte	0xa4
 3229 0d54 12       		.byte	0x12
 3230 0d55 7C080000 		.4byte	0x87c
 3231 0d59 02       		.uleb128 0x2
 3232 0d5a 91       		.byte	0x91
 3233 0d5b 74       		.sleb128 -12
 3234 0d5c 0E       		.uleb128 0xe
 3235 0d5d 6F747000 		.ascii	"otp\000"
 3236 0d61 A5       		.byte	0xa5
 3237 0d62 0D       		.byte	0xd
 3238 0d63 7F040000 		.4byte	0x47f
 3239 0d67 02       		.uleb128 0x2
 3240 0d68 91       		.byte	0x91
 3241 0d69 70       		.sleb128 -16
 3242 0d6a 0E       		.uleb128 0xe
 3243 0d6b 6E747000 		.ascii	"ntp\000"
 3244 0d6f A6       		.byte	0xa6
 3245 0d70 0D       		.byte	0xd
 3246 0d71 7F040000 		.4byte	0x47f
 3247 0d75 02       		.uleb128 0x2
 3248 0d76 91       		.byte	0x91
 3249 0d77 6C       		.sleb128 -20
ARM GAS  C:\Users\DEVELO~1\AppData\Local\Temp\ccW7fz6e.s 			page 58


 3250 0d78 00       		.byte	0
 3251 0d79 1F       		.uleb128 0x1f
 3252 0d7a DD030000 		.4byte	.LASF148
 3253 0d7e 7F       		.byte	0x7f
 3254 0d7f 00000000 		.4byte	.LFB348
 3255 0d83 4C000000 		.4byte	.LFE348-.LFB348
 3256 0d87 01       		.uleb128 0x1
 3257 0d88 9C       		.byte	0x9c
 3258 0d89 B80D0000 		.4byte	0xdb8
 3259 0d8d 0E       		.uleb128 0xe
 3260 0d8e 6F697000 		.ascii	"oip\000"
 3261 0d92 80       		.byte	0x80
 3262 0d93 12       		.byte	0x12
 3263 0d94 7C080000 		.4byte	0x87c
 3264 0d98 02       		.uleb128 0x2
 3265 0d99 91       		.byte	0x91
 3266 0d9a 74       		.sleb128 -12
 3267 0d9b 0E       		.uleb128 0xe
 3268 0d9c 6F747000 		.ascii	"otp\000"
 3269 0da0 81       		.byte	0x81
 3270 0da1 0D       		.byte	0xd
 3271 0da2 7F040000 		.4byte	0x47f
 3272 0da6 02       		.uleb128 0x2
 3273 0da7 91       		.byte	0x91
 3274 0da8 70       		.sleb128 -16
 3275 0da9 0E       		.uleb128 0xe
 3276 0daa 6E747000 		.ascii	"ntp\000"
 3277 0dae 82       		.byte	0x82
 3278 0daf 0D       		.byte	0xd
 3279 0db0 7F040000 		.4byte	0x47f
 3280 0db4 02       		.uleb128 0x2
 3281 0db5 91       		.byte	0x91
 3282 0db6 6C       		.sleb128 -20
 3283 0db7 00       		.byte	0
 3284 0db8 23       		.uleb128 0x23
 3285 0db9 BC040000 		.4byte	.LASF149
 3286 0dbd 64       		.byte	0x64
 3287 0dbe 7F040000 		.4byte	0x47f
 3288 0dc2 00000000 		.4byte	.LFB347
 3289 0dc6 36000000 		.4byte	.LFE347-.LFB347
 3290 0dca 01       		.uleb128 0x1
 3291 0dcb 9C       		.byte	0x9c
 3292 0dcc E80D0000 		.4byte	0xde8
 3293 0dd0 14       		.uleb128 0x14
 3294 0dd1 747000   		.ascii	"tp\000"
 3295 0dd4 07       		.byte	0x7
 3296 0dd5 64       		.byte	0x64
 3297 0dd6 2E       		.byte	0x2e
 3298 0dd7 7F040000 		.4byte	0x47f
 3299 0ddb 02       		.uleb128 0x2
 3300 0ddc 91       		.byte	0x91
 3301 0ddd 74       		.sleb128 -12
 3302 0dde 16       		.uleb128 0x16
 3303 0ddf AE050000 		.4byte	.LASF144
 3304 0de3 F80D0000 		.4byte	0xdf8
 3305 0de7 00       		.byte	0
 3306 0de8 10       		.uleb128 0x10
ARM GAS  C:\Users\DEVELO~1\AppData\Local\Temp\ccW7fz6e.s 			page 59


 3307 0de9 42030000 		.4byte	0x342
 3308 0ded F80D0000 		.4byte	0xdf8
 3309 0df1 11       		.uleb128 0x11
 3310 0df2 2D000000 		.4byte	0x2d
 3311 0df6 11       		.byte	0x11
 3312 0df7 00       		.byte	0
 3313 0df8 0C       		.uleb128 0xc
 3314 0df9 E80D0000 		.4byte	0xde8
 3315 0dfd 23       		.uleb128 0x23
 3316 0dfe 00040000 		.4byte	.LASF150
 3317 0e02 43       		.byte	0x43
 3318 0e03 7F040000 		.4byte	0x47f
 3319 0e07 00000000 		.4byte	.LFB346
 3320 0e0b 36000000 		.4byte	.LFE346-.LFB346
 3321 0e0f 01       		.uleb128 0x1
 3322 0e10 9C       		.byte	0x9c
 3323 0e11 2D0E0000 		.4byte	0xe2d
 3324 0e15 14       		.uleb128 0x14
 3325 0e16 747000   		.ascii	"tp\000"
 3326 0e19 07       		.byte	0x7
 3327 0e1a 43       		.byte	0x43
 3328 0e1b 2F       		.byte	0x2f
 3329 0e1c 7F040000 		.4byte	0x47f
 3330 0e20 02       		.uleb128 0x2
 3331 0e21 91       		.byte	0x91
 3332 0e22 74       		.sleb128 -12
 3333 0e23 16       		.uleb128 0x16
 3334 0e24 AE050000 		.4byte	.LASF144
 3335 0e28 3D0E0000 		.4byte	0xe3d
 3336 0e2c 00       		.byte	0
 3337 0e2d 10       		.uleb128 0x10
 3338 0e2e 42030000 		.4byte	0x342
 3339 0e32 3D0E0000 		.4byte	0xe3d
 3340 0e36 11       		.uleb128 0x11
 3341 0e37 2D000000 		.4byte	0x2d
 3342 0e3b 12       		.byte	0x12
 3343 0e3c 00       		.byte	0
 3344 0e3d 0C       		.uleb128 0xc
 3345 0e3e 2D0E0000 		.4byte	0xe2d
 3346 0e42 30       		.uleb128 0x30
 3347 0e43 8F050000 		.4byte	.LASF151
 3348 0e47 06       		.byte	0x6
 3349 0e48 AE       		.byte	0xae
 3350 0e49 14       		.byte	0x14
 3351 0e4a 00000000 		.4byte	.LFB246
 3352 0e4e 1C000000 		.4byte	.LFE246-.LFB246
 3353 0e52 01       		.uleb128 0x1
 3354 0e53 9C       		.byte	0x9c
 3355 0e54 670E0000 		.4byte	0xe67
 3356 0e58 14       		.uleb128 0x14
 3357 0e59 737000   		.ascii	"sp\000"
 3358 0e5c 06       		.byte	0x6
 3359 0e5d AE       		.byte	0xae
 3360 0e5e 32       		.byte	0x32
 3361 0e5f 670E0000 		.4byte	0xe67
 3362 0e63 02       		.uleb128 0x2
 3363 0e64 91       		.byte	0x91
ARM GAS  C:\Users\DEVELO~1\AppData\Local\Temp\ccW7fz6e.s 			page 60


 3364 0e65 74       		.sleb128 -12
 3365 0e66 00       		.byte	0
 3366 0e67 05       		.uleb128 0x5
 3367 0e68 2C090000 		.4byte	0x92c
 3368 0e6c 31       		.uleb128 0x31
 3369 0e6d B7050000 		.4byte	.LASF152
 3370 0e71 05       		.byte	0x5
 3371 0e72 F8       		.byte	0xf8
 3372 0e73 14       		.byte	0x14
 3373 0e74 49090000 		.4byte	0x949
 3374 0e78 00000000 		.4byte	.LFB215
 3375 0e7c 20000000 		.4byte	.LFE215-.LFB215
 3376 0e80 01       		.uleb128 0x1
 3377 0e81 9C       		.byte	0x9c
 3378 0e82 960E0000 		.4byte	0xe96
 3379 0e86 14       		.uleb128 0x14
 3380 0e87 76747000 		.ascii	"vtp\000"
 3381 0e8b 05       		.byte	0x5
 3382 0e8c F8       		.byte	0xf8
 3383 0e8d 38       		.byte	0x38
 3384 0e8e 960E0000 		.4byte	0xe96
 3385 0e92 02       		.uleb128 0x2
 3386 0e93 91       		.byte	0x91
 3387 0e94 74       		.sleb128 -12
 3388 0e95 00       		.byte	0
 3389 0e96 05       		.uleb128 0x5
 3390 0e97 99060000 		.4byte	0x699
 3391 0e9b 24       		.uleb128 0x24
 3392 0e9c 15050000 		.4byte	.LASF153
 3393 0ea0 D901     		.2byte	0x1d9
 3394 0ea2 00000000 		.4byte	.LFB205
 3395 0ea6 20000000 		.4byte	.LFE205-.LFB205
 3396 0eaa 01       		.uleb128 0x1
 3397 0eab 9C       		.byte	0x9c
 3398 0eac EC0E0000 		.4byte	0xeec
 3399 0eb0 15       		.uleb128 0x15
 3400 0eb1 3D0F0000 		.4byte	0xf3d
 3401 0eb5 0A000000 		.4byte	.LBB32
 3402 0eb9 0C000000 		.4byte	.LBE32-.LBB32
 3403 0ebd 02       		.byte	0x2
 3404 0ebe DD01     		.2byte	0x1dd
 3405 0ec0 15       		.uleb128 0x15
 3406 0ec1 4B0F0000 		.4byte	0xf4b
 3407 0ec5 0A000000 		.4byte	.LBB34
 3408 0ec9 0A000000 		.4byte	.LBE34-.LBB34
 3409 0ecd 04       		.byte	0x4
 3410 0ece 6B03     		.2byte	0x36b
 3411 0ed0 15       		.uleb128 0x15
 3412 0ed1 590F0000 		.4byte	0xf59
 3413 0ed5 0A000000 		.4byte	.LBB36
 3414 0ed9 08000000 		.4byte	.LBE36-.LBB36
 3415 0edd 04       		.byte	0x4
 3416 0ede 5203     		.2byte	0x352
 3417 0ee0 25       		.uleb128 0x25
 3418 0ee1 670F0000 		.4byte	0xf67
 3419 0ee5 02       		.uleb128 0x2
 3420 0ee6 91       		.byte	0x91
ARM GAS  C:\Users\DEVELO~1\AppData\Local\Temp\ccW7fz6e.s 			page 61


 3421 0ee7 74       		.sleb128 -12
 3422 0ee8 00       		.byte	0
 3423 0ee9 00       		.byte	0
 3424 0eea 00       		.byte	0
 3425 0eeb 00       		.byte	0
 3426 0eec 24       		.uleb128 0x24
 3427 0eed 55000000 		.4byte	.LASF154
 3428 0ef1 C301     		.2byte	0x1c3
 3429 0ef3 00000000 		.4byte	.LFB204
 3430 0ef7 20000000 		.4byte	.LFE204-.LFB204
 3431 0efb 01       		.uleb128 0x1
 3432 0efc 9C       		.byte	0x9c
 3433 0efd 3D0F0000 		.4byte	0xf3d
 3434 0f01 15       		.uleb128 0x15
 3435 0f02 440F0000 		.4byte	0xf44
 3436 0f06 0A000000 		.4byte	.LBB26
 3437 0f0a 0C000000 		.4byte	.LBE26-.LBB26
 3438 0f0e 02       		.byte	0x2
 3439 0f0f C501     		.2byte	0x1c5
 3440 0f11 15       		.uleb128 0x15
 3441 0f12 520F0000 		.4byte	0xf52
 3442 0f16 0A000000 		.4byte	.LBB28
 3443 0f1a 0A000000 		.4byte	.LBE28-.LBB28
 3444 0f1e 04       		.byte	0x4
 3445 0f1f 6003     		.2byte	0x360
 3446 0f21 15       		.uleb128 0x15
 3447 0f22 590F0000 		.4byte	0xf59
 3448 0f26 0A000000 		.4byte	.LBB30
 3449 0f2a 08000000 		.4byte	.LBE30-.LBB30
 3450 0f2e 04       		.byte	0x4
 3451 0f2f 3F03     		.2byte	0x33f
 3452 0f31 25       		.uleb128 0x25
 3453 0f32 670F0000 		.4byte	0xf67
 3454 0f36 02       		.uleb128 0x2
 3455 0f37 91       		.byte	0x91
 3456 0f38 74       		.sleb128 -12
 3457 0f39 00       		.byte	0
 3458 0f3a 00       		.byte	0
 3459 0f3b 00       		.byte	0
 3460 0f3c 00       		.byte	0
 3461 0f3d 19       		.uleb128 0x19
 3462 0f3e 77060000 		.4byte	.LASF155
 3463 0f42 6903     		.2byte	0x369
 3464 0f44 19       		.uleb128 0x19
 3465 0f45 36070000 		.4byte	.LASF156
 3466 0f49 5E03     		.2byte	0x35e
 3467 0f4b 19       		.uleb128 0x19
 3468 0f4c 03020000 		.4byte	.LASF157
 3469 0f50 4F03     		.2byte	0x34f
 3470 0f52 19       		.uleb128 0x19
 3471 0f53 F7070000 		.4byte	.LASF158
 3472 0f57 3703     		.2byte	0x337
 3473 0f59 32       		.uleb128 0x32
 3474 0f5a 64040000 		.4byte	.LASF166
 3475 0f5e 03       		.byte	0x3
 3476 0f5f EB01     		.2byte	0x1eb
 3477 0f61 1B       		.byte	0x1b
ARM GAS  C:\Users\DEVELO~1\AppData\Local\Temp\ccW7fz6e.s 			page 62


 3478 0f62 03       		.byte	0x3
 3479 0f63 750F0000 		.4byte	0xf75
 3480 0f67 33       		.uleb128 0x33
 3481 0f68 40010000 		.4byte	.LASF167
 3482 0f6c 03       		.byte	0x3
 3483 0f6d EB01     		.2byte	0x1eb
 3484 0f6f 32       		.byte	0x32
 3485 0f70 D3000000 		.4byte	0xd3
 3486 0f74 00       		.byte	0
 3487 0f75 20       		.uleb128 0x20
 3488 0f76 C1020000 		.4byte	.LASF159
 3489 0f7a 9201     		.2byte	0x192
 3490 0f7c 11040000 		.4byte	0x411
 3491 0f80 00000000 		.4byte	.LFB29
 3492 0f84 4E000000 		.4byte	.LFE29-.LFB29
 3493 0f88 01       		.uleb128 0x1
 3494 0f89 9C       		.byte	0x9c
 3495 0f8a AD0F0000 		.4byte	0xfad
 3496 0f8e 0B       		.uleb128 0xb
 3497 0f8f 70717000 		.ascii	"pqp\000"
 3498 0f93 01       		.byte	0x1
 3499 0f94 9201     		.2byte	0x192
 3500 0f96 50       		.byte	0x50
 3501 0f97 11040000 		.4byte	0x411
 3502 0f9b 02       		.uleb128 0x2
 3503 0f9c 91       		.byte	0x91
 3504 0f9d 74       		.sleb128 -12
 3505 0f9e 0B       		.uleb128 0xb
 3506 0f9f 7000     		.ascii	"p\000"
 3507 0fa1 01       		.byte	0x1
 3508 0fa2 9301     		.2byte	0x193
 3509 0fa4 50       		.byte	0x50
 3510 0fa5 11040000 		.4byte	0x411
 3511 0fa9 02       		.uleb128 0x2
 3512 0faa 91       		.byte	0x91
 3513 0fab 70       		.sleb128 -16
 3514 0fac 00       		.byte	0
 3515 0fad 20       		.uleb128 0x20
 3516 0fae 7B030000 		.4byte	.LASF160
 3517 0fb2 7501     		.2byte	0x175
 3518 0fb4 11040000 		.4byte	0x411
 3519 0fb8 00000000 		.4byte	.LFB28
 3520 0fbc 4E000000 		.4byte	.LFE28-.LFB28
 3521 0fc0 01       		.uleb128 0x1
 3522 0fc1 9C       		.byte	0x9c
 3523 0fc2 E50F0000 		.4byte	0xfe5
 3524 0fc6 0B       		.uleb128 0xb
 3525 0fc7 70717000 		.ascii	"pqp\000"
 3526 0fcb 01       		.byte	0x1
 3527 0fcc 7501     		.2byte	0x175
 3528 0fce 51       		.byte	0x51
 3529 0fcf 11040000 		.4byte	0x411
 3530 0fd3 02       		.uleb128 0x2
 3531 0fd4 91       		.byte	0x91
 3532 0fd5 74       		.sleb128 -12
 3533 0fd6 0B       		.uleb128 0xb
 3534 0fd7 7000     		.ascii	"p\000"
ARM GAS  C:\Users\DEVELO~1\AppData\Local\Temp\ccW7fz6e.s 			page 63


 3535 0fd9 01       		.byte	0x1
 3536 0fda 7601     		.2byte	0x176
 3537 0fdc 51       		.byte	0x51
 3538 0fdd 11040000 		.4byte	0x411
 3539 0fe1 02       		.uleb128 0x2
 3540 0fe2 91       		.byte	0x91
 3541 0fe3 70       		.sleb128 -16
 3542 0fe4 00       		.byte	0
 3543 0fe5 20       		.uleb128 0x20
 3544 0fe6 D1000000 		.4byte	.LASF161
 3545 0fea 6001     		.2byte	0x160
 3546 0fec 11040000 		.4byte	0x411
 3547 0ff0 00000000 		.4byte	.LFB27
 3548 0ff4 2A000000 		.4byte	.LFE27-.LFB27
 3549 0ff8 01       		.uleb128 0x1
 3550 0ff9 9C       		.byte	0x9c
 3551 0ffa 1D100000 		.4byte	0x101d
 3552 0ffe 0B       		.uleb128 0xb
 3553 0fff 70717000 		.ascii	"pqp\000"
 3554 1003 01       		.byte	0x1
 3555 1004 6001     		.2byte	0x160
 3556 1006 52       		.byte	0x52
 3557 1007 11040000 		.4byte	0x411
 3558 100b 02       		.uleb128 0x2
 3559 100c 91       		.byte	0x91
 3560 100d 6C       		.sleb128 -20
 3561 100e 03       		.uleb128 0x3
 3562 100f 7000     		.ascii	"p\000"
 3563 1011 01       		.byte	0x1
 3564 1012 6101     		.2byte	0x161
 3565 1014 18       		.byte	0x18
 3566 1015 11040000 		.4byte	0x411
 3567 1019 02       		.uleb128 0x2
 3568 101a 91       		.byte	0x91
 3569 101b 74       		.sleb128 -12
 3570 101c 00       		.byte	0
 3571 101d 34       		.uleb128 0x34
 3572 101e 4F060000 		.4byte	.LASF162
 3573 1022 01       		.byte	0x1
 3574 1023 3E01     		.2byte	0x13e
 3575 1025 1B       		.byte	0x1b
 3576 1026 CB030000 		.4byte	0x3cb
 3577 102a 00000000 		.4byte	.LFB25
 3578 102e 28000000 		.4byte	.LFE25-.LFB25
 3579 1032 01       		.uleb128 0x1
 3580 1033 9C       		.byte	0x9c
 3581 1034 0B       		.uleb128 0xb
 3582 1035 7000     		.ascii	"p\000"
 3583 1037 01       		.byte	0x1
 3584 1038 3E01     		.2byte	0x13e
 3585 103a 38       		.byte	0x38
 3586 103b CB030000 		.4byte	0x3cb
 3587 103f 02       		.uleb128 0x2
 3588 1040 91       		.byte	0x91
 3589 1041 74       		.sleb128 -12
 3590 1042 00       		.byte	0
 3591 1043 00       		.byte	0
ARM GAS  C:\Users\DEVELO~1\AppData\Local\Temp\ccW7fz6e.s 			page 64


 3592              		.section	.debug_abbrev,"",%progbits
 3593              	.Ldebug_abbrev0:
 3594 0000 01       		.uleb128 0x1
 3595 0001 16       		.uleb128 0x16
 3596 0002 00       		.byte	0
 3597 0003 03       		.uleb128 0x3
 3598 0004 0E       		.uleb128 0xe
 3599 0005 3A       		.uleb128 0x3a
 3600 0006 0B       		.uleb128 0xb
 3601 0007 3B       		.uleb128 0x3b
 3602 0008 0B       		.uleb128 0xb
 3603 0009 39       		.uleb128 0x39
 3604 000a 0B       		.uleb128 0xb
 3605 000b 49       		.uleb128 0x49
 3606 000c 13       		.uleb128 0x13
 3607 000d 00       		.byte	0
 3608 000e 00       		.byte	0
 3609 000f 02       		.uleb128 0x2
 3610 0010 0D       		.uleb128 0xd
 3611 0011 00       		.byte	0
 3612 0012 03       		.uleb128 0x3
 3613 0013 0E       		.uleb128 0xe
 3614 0014 3A       		.uleb128 0x3a
 3615 0015 0B       		.uleb128 0xb
 3616 0016 3B       		.uleb128 0x3b
 3617 0017 0B       		.uleb128 0xb
 3618 0018 39       		.uleb128 0x39
 3619 0019 0B       		.uleb128 0xb
 3620 001a 49       		.uleb128 0x49
 3621 001b 13       		.uleb128 0x13
 3622 001c 38       		.uleb128 0x38
 3623 001d 0B       		.uleb128 0xb
 3624 001e 00       		.byte	0
 3625 001f 00       		.byte	0
 3626 0020 03       		.uleb128 0x3
 3627 0021 34       		.uleb128 0x34
 3628 0022 00       		.byte	0
 3629 0023 03       		.uleb128 0x3
 3630 0024 08       		.uleb128 0x8
 3631 0025 3A       		.uleb128 0x3a
 3632 0026 0B       		.uleb128 0xb
 3633 0027 3B       		.uleb128 0x3b
 3634 0028 05       		.uleb128 0x5
 3635 0029 39       		.uleb128 0x39
 3636 002a 0B       		.uleb128 0xb
 3637 002b 49       		.uleb128 0x49
 3638 002c 13       		.uleb128 0x13
 3639 002d 02       		.uleb128 0x2
 3640 002e 18       		.uleb128 0x18
 3641 002f 00       		.byte	0
 3642 0030 00       		.byte	0
 3643 0031 04       		.uleb128 0x4
 3644 0032 0D       		.uleb128 0xd
 3645 0033 00       		.byte	0
 3646 0034 03       		.uleb128 0x3
 3647 0035 0E       		.uleb128 0xe
 3648 0036 3A       		.uleb128 0x3a
ARM GAS  C:\Users\DEVELO~1\AppData\Local\Temp\ccW7fz6e.s 			page 65


 3649 0037 21       		.uleb128 0x21
 3650 0038 0C       		.sleb128 12
 3651 0039 3B       		.uleb128 0x3b
 3652 003a 05       		.uleb128 0x5
 3653 003b 39       		.uleb128 0x39
 3654 003c 0B       		.uleb128 0xb
 3655 003d 49       		.uleb128 0x49
 3656 003e 13       		.uleb128 0x13
 3657 003f 38       		.uleb128 0x38
 3658 0040 0B       		.uleb128 0xb
 3659 0041 00       		.byte	0
 3660 0042 00       		.byte	0
 3661 0043 05       		.uleb128 0x5
 3662 0044 0F       		.uleb128 0xf
 3663 0045 00       		.byte	0
 3664 0046 0B       		.uleb128 0xb
 3665 0047 21       		.uleb128 0x21
 3666 0048 04       		.sleb128 4
 3667 0049 49       		.uleb128 0x49
 3668 004a 13       		.uleb128 0x13
 3669 004b 00       		.byte	0
 3670 004c 00       		.byte	0
 3671 004d 06       		.uleb128 0x6
 3672 004e 05       		.uleb128 0x5
 3673 004f 00       		.byte	0
 3674 0050 49       		.uleb128 0x49
 3675 0051 13       		.uleb128 0x13
 3676 0052 00       		.byte	0
 3677 0053 00       		.byte	0
 3678 0054 07       		.uleb128 0x7
 3679 0055 24       		.uleb128 0x24
 3680 0056 00       		.byte	0
 3681 0057 0B       		.uleb128 0xb
 3682 0058 0B       		.uleb128 0xb
 3683 0059 3E       		.uleb128 0x3e
 3684 005a 0B       		.uleb128 0xb
 3685 005b 03       		.uleb128 0x3
 3686 005c 0E       		.uleb128 0xe
 3687 005d 00       		.byte	0
 3688 005e 00       		.byte	0
 3689 005f 08       		.uleb128 0x8
 3690 0060 13       		.uleb128 0x13
 3691 0061 01       		.byte	0x1
 3692 0062 03       		.uleb128 0x3
 3693 0063 0E       		.uleb128 0xe
 3694 0064 0B       		.uleb128 0xb
 3695 0065 0B       		.uleb128 0xb
 3696 0066 3A       		.uleb128 0x3a
 3697 0067 0B       		.uleb128 0xb
 3698 0068 3B       		.uleb128 0x3b
 3699 0069 0B       		.uleb128 0xb
 3700 006a 39       		.uleb128 0x39
 3701 006b 0B       		.uleb128 0xb
 3702 006c 01       		.uleb128 0x1
 3703 006d 13       		.uleb128 0x13
 3704 006e 00       		.byte	0
 3705 006f 00       		.byte	0
ARM GAS  C:\Users\DEVELO~1\AppData\Local\Temp\ccW7fz6e.s 			page 66


 3706 0070 09       		.uleb128 0x9
 3707 0071 0D       		.uleb128 0xd
 3708 0072 00       		.byte	0
 3709 0073 03       		.uleb128 0x3
 3710 0074 08       		.uleb128 0x8
 3711 0075 3A       		.uleb128 0x3a
 3712 0076 0B       		.uleb128 0xb
 3713 0077 3B       		.uleb128 0x3b
 3714 0078 05       		.uleb128 0x5
 3715 0079 39       		.uleb128 0x39
 3716 007a 0B       		.uleb128 0xb
 3717 007b 49       		.uleb128 0x49
 3718 007c 13       		.uleb128 0x13
 3719 007d 38       		.uleb128 0x38
 3720 007e 0B       		.uleb128 0xb
 3721 007f 00       		.byte	0
 3722 0080 00       		.byte	0
 3723 0081 0A       		.uleb128 0xa
 3724 0082 0D       		.uleb128 0xd
 3725 0083 00       		.byte	0
 3726 0084 03       		.uleb128 0x3
 3727 0085 08       		.uleb128 0x8
 3728 0086 3A       		.uleb128 0x3a
 3729 0087 0B       		.uleb128 0xb
 3730 0088 3B       		.uleb128 0x3b
 3731 0089 0B       		.uleb128 0xb
 3732 008a 39       		.uleb128 0x39
 3733 008b 0B       		.uleb128 0xb
 3734 008c 49       		.uleb128 0x49
 3735 008d 13       		.uleb128 0x13
 3736 008e 38       		.uleb128 0x38
 3737 008f 0B       		.uleb128 0xb
 3738 0090 00       		.byte	0
 3739 0091 00       		.byte	0
 3740 0092 0B       		.uleb128 0xb
 3741 0093 05       		.uleb128 0x5
 3742 0094 00       		.byte	0
 3743 0095 03       		.uleb128 0x3
 3744 0096 08       		.uleb128 0x8
 3745 0097 3A       		.uleb128 0x3a
 3746 0098 0B       		.uleb128 0xb
 3747 0099 3B       		.uleb128 0x3b
 3748 009a 05       		.uleb128 0x5
 3749 009b 39       		.uleb128 0x39
 3750 009c 0B       		.uleb128 0xb
 3751 009d 49       		.uleb128 0x49
 3752 009e 13       		.uleb128 0x13
 3753 009f 02       		.uleb128 0x2
 3754 00a0 18       		.uleb128 0x18
 3755 00a1 00       		.byte	0
 3756 00a2 00       		.byte	0
 3757 00a3 0C       		.uleb128 0xc
 3758 00a4 26       		.uleb128 0x26
 3759 00a5 00       		.byte	0
 3760 00a6 49       		.uleb128 0x49
 3761 00a7 13       		.uleb128 0x13
 3762 00a8 00       		.byte	0
ARM GAS  C:\Users\DEVELO~1\AppData\Local\Temp\ccW7fz6e.s 			page 67


 3763 00a9 00       		.byte	0
 3764 00aa 0D       		.uleb128 0xd
 3765 00ab 0D       		.uleb128 0xd
 3766 00ac 00       		.byte	0
 3767 00ad 03       		.uleb128 0x3
 3768 00ae 0E       		.uleb128 0xe
 3769 00af 3A       		.uleb128 0x3a
 3770 00b0 0B       		.uleb128 0xb
 3771 00b1 3B       		.uleb128 0x3b
 3772 00b2 0B       		.uleb128 0xb
 3773 00b3 39       		.uleb128 0x39
 3774 00b4 0B       		.uleb128 0xb
 3775 00b5 49       		.uleb128 0x49
 3776 00b6 13       		.uleb128 0x13
 3777 00b7 00       		.byte	0
 3778 00b8 00       		.byte	0
 3779 00b9 0E       		.uleb128 0xe
 3780 00ba 34       		.uleb128 0x34
 3781 00bb 00       		.byte	0
 3782 00bc 03       		.uleb128 0x3
 3783 00bd 08       		.uleb128 0x8
 3784 00be 3A       		.uleb128 0x3a
 3785 00bf 21       		.uleb128 0x21
 3786 00c0 07       		.sleb128 7
 3787 00c1 3B       		.uleb128 0x3b
 3788 00c2 0B       		.uleb128 0xb
 3789 00c3 39       		.uleb128 0x39
 3790 00c4 0B       		.uleb128 0xb
 3791 00c5 49       		.uleb128 0x49
 3792 00c6 13       		.uleb128 0x13
 3793 00c7 02       		.uleb128 0x2
 3794 00c8 18       		.uleb128 0x18
 3795 00c9 00       		.byte	0
 3796 00ca 00       		.byte	0
 3797 00cb 0F       		.uleb128 0xf
 3798 00cc 13       		.uleb128 0x13
 3799 00cd 01       		.byte	0x1
 3800 00ce 0B       		.uleb128 0xb
 3801 00cf 0B       		.uleb128 0xb
 3802 00d0 3A       		.uleb128 0x3a
 3803 00d1 21       		.uleb128 0x21
 3804 00d2 10       		.sleb128 16
 3805 00d3 3B       		.uleb128 0x3b
 3806 00d4 0B       		.uleb128 0xb
 3807 00d5 39       		.uleb128 0x39
 3808 00d6 0B       		.uleb128 0xb
 3809 00d7 01       		.uleb128 0x1
 3810 00d8 13       		.uleb128 0x13
 3811 00d9 00       		.byte	0
 3812 00da 00       		.byte	0
 3813 00db 10       		.uleb128 0x10
 3814 00dc 01       		.uleb128 0x1
 3815 00dd 01       		.byte	0x1
 3816 00de 49       		.uleb128 0x49
 3817 00df 13       		.uleb128 0x13
 3818 00e0 01       		.uleb128 0x1
 3819 00e1 13       		.uleb128 0x13
ARM GAS  C:\Users\DEVELO~1\AppData\Local\Temp\ccW7fz6e.s 			page 68


 3820 00e2 00       		.byte	0
 3821 00e3 00       		.byte	0
 3822 00e4 11       		.uleb128 0x11
 3823 00e5 21       		.uleb128 0x21
 3824 00e6 00       		.byte	0
 3825 00e7 49       		.uleb128 0x49
 3826 00e8 13       		.uleb128 0x13
 3827 00e9 2F       		.uleb128 0x2f
 3828 00ea 0B       		.uleb128 0xb
 3829 00eb 00       		.byte	0
 3830 00ec 00       		.byte	0
 3831 00ed 12       		.uleb128 0x12
 3832 00ee 0D       		.uleb128 0xd
 3833 00ef 00       		.byte	0
 3834 00f0 03       		.uleb128 0x3
 3835 00f1 0E       		.uleb128 0xe
 3836 00f2 3A       		.uleb128 0x3a
 3837 00f3 21       		.uleb128 0x21
 3838 00f4 0C       		.sleb128 12
 3839 00f5 3B       		.uleb128 0x3b
 3840 00f6 05       		.uleb128 0x5
 3841 00f7 39       		.uleb128 0x39
 3842 00f8 0B       		.uleb128 0xb
 3843 00f9 49       		.uleb128 0x49
 3844 00fa 13       		.uleb128 0x13
 3845 00fb 00       		.byte	0
 3846 00fc 00       		.byte	0
 3847 00fd 13       		.uleb128 0x13
 3848 00fe 2E       		.uleb128 0x2e
 3849 00ff 01       		.byte	0x1
 3850 0100 3F       		.uleb128 0x3f
 3851 0101 19       		.uleb128 0x19
 3852 0102 03       		.uleb128 0x3
 3853 0103 0E       		.uleb128 0xe
 3854 0104 3A       		.uleb128 0x3a
 3855 0105 21       		.uleb128 0x21
 3856 0106 07       		.sleb128 7
 3857 0107 3B       		.uleb128 0x3b
 3858 0108 05       		.uleb128 0x5
 3859 0109 39       		.uleb128 0x39
 3860 010a 21       		.uleb128 0x21
 3861 010b 06       		.sleb128 6
 3862 010c 27       		.uleb128 0x27
 3863 010d 19       		.uleb128 0x19
 3864 010e 11       		.uleb128 0x11
 3865 010f 01       		.uleb128 0x1
 3866 0110 12       		.uleb128 0x12
 3867 0111 06       		.uleb128 0x6
 3868 0112 40       		.uleb128 0x40
 3869 0113 18       		.uleb128 0x18
 3870 0114 7C       		.uleb128 0x7c
 3871 0115 19       		.uleb128 0x19
 3872 0116 01       		.uleb128 0x1
 3873 0117 13       		.uleb128 0x13
 3874 0118 00       		.byte	0
 3875 0119 00       		.byte	0
 3876 011a 14       		.uleb128 0x14
ARM GAS  C:\Users\DEVELO~1\AppData\Local\Temp\ccW7fz6e.s 			page 69


 3877 011b 05       		.uleb128 0x5
 3878 011c 00       		.byte	0
 3879 011d 03       		.uleb128 0x3
 3880 011e 08       		.uleb128 0x8
 3881 011f 3A       		.uleb128 0x3a
 3882 0120 0B       		.uleb128 0xb
 3883 0121 3B       		.uleb128 0x3b
 3884 0122 0B       		.uleb128 0xb
 3885 0123 39       		.uleb128 0x39
 3886 0124 0B       		.uleb128 0xb
 3887 0125 49       		.uleb128 0x49
 3888 0126 13       		.uleb128 0x13
 3889 0127 02       		.uleb128 0x2
 3890 0128 18       		.uleb128 0x18
 3891 0129 00       		.byte	0
 3892 012a 00       		.byte	0
 3893 012b 15       		.uleb128 0x15
 3894 012c 1D       		.uleb128 0x1d
 3895 012d 01       		.byte	0x1
 3896 012e 31       		.uleb128 0x31
 3897 012f 13       		.uleb128 0x13
 3898 0130 11       		.uleb128 0x11
 3899 0131 01       		.uleb128 0x1
 3900 0132 12       		.uleb128 0x12
 3901 0133 06       		.uleb128 0x6
 3902 0134 58       		.uleb128 0x58
 3903 0135 0B       		.uleb128 0xb
 3904 0136 59       		.uleb128 0x59
 3905 0137 05       		.uleb128 0x5
 3906 0138 57       		.uleb128 0x57
 3907 0139 21       		.uleb128 0x21
 3908 013a 03       		.sleb128 3
 3909 013b 00       		.byte	0
 3910 013c 00       		.byte	0
 3911 013d 16       		.uleb128 0x16
 3912 013e 34       		.uleb128 0x34
 3913 013f 00       		.byte	0
 3914 0140 03       		.uleb128 0x3
 3915 0141 0E       		.uleb128 0xe
 3916 0142 49       		.uleb128 0x49
 3917 0143 13       		.uleb128 0x13
 3918 0144 34       		.uleb128 0x34
 3919 0145 19       		.uleb128 0x19
 3920 0146 00       		.byte	0
 3921 0147 00       		.byte	0
 3922 0148 17       		.uleb128 0x17
 3923 0149 13       		.uleb128 0x13
 3924 014a 01       		.byte	0x1
 3925 014b 03       		.uleb128 0x3
 3926 014c 0E       		.uleb128 0xe
 3927 014d 0B       		.uleb128 0xb
 3928 014e 0B       		.uleb128 0xb
 3929 014f 3A       		.uleb128 0x3a
 3930 0150 0B       		.uleb128 0xb
 3931 0151 3B       		.uleb128 0x3b
 3932 0152 05       		.uleb128 0x5
 3933 0153 39       		.uleb128 0x39
ARM GAS  C:\Users\DEVELO~1\AppData\Local\Temp\ccW7fz6e.s 			page 70


 3934 0154 0B       		.uleb128 0xb
 3935 0155 01       		.uleb128 0x1
 3936 0156 13       		.uleb128 0x13
 3937 0157 00       		.byte	0
 3938 0158 00       		.byte	0
 3939 0159 18       		.uleb128 0x18
 3940 015a 2E       		.uleb128 0x2e
 3941 015b 01       		.byte	0x1
 3942 015c 3F       		.uleb128 0x3f
 3943 015d 19       		.uleb128 0x19
 3944 015e 03       		.uleb128 0x3
 3945 015f 0E       		.uleb128 0xe
 3946 0160 3A       		.uleb128 0x3a
 3947 0161 0B       		.uleb128 0xb
 3948 0162 3B       		.uleb128 0x3b
 3949 0163 0B       		.uleb128 0xb
 3950 0164 39       		.uleb128 0x39
 3951 0165 21       		.uleb128 0x21
 3952 0166 08       		.sleb128 8
 3953 0167 27       		.uleb128 0x27
 3954 0168 19       		.uleb128 0x19
 3955 0169 3C       		.uleb128 0x3c
 3956 016a 19       		.uleb128 0x19
 3957 016b 01       		.uleb128 0x1
 3958 016c 13       		.uleb128 0x13
 3959 016d 00       		.byte	0
 3960 016e 00       		.byte	0
 3961 016f 19       		.uleb128 0x19
 3962 0170 2E       		.uleb128 0x2e
 3963 0171 00       		.byte	0
 3964 0172 03       		.uleb128 0x3
 3965 0173 0E       		.uleb128 0xe
 3966 0174 3A       		.uleb128 0x3a
 3967 0175 21       		.uleb128 0x21
 3968 0176 04       		.sleb128 4
 3969 0177 3B       		.uleb128 0x3b
 3970 0178 05       		.uleb128 0x5
 3971 0179 39       		.uleb128 0x39
 3972 017a 21       		.uleb128 0x21
 3973 017b 1B       		.sleb128 27
 3974 017c 27       		.uleb128 0x27
 3975 017d 19       		.uleb128 0x19
 3976 017e 20       		.uleb128 0x20
 3977 017f 21       		.uleb128 0x21
 3978 0180 03       		.sleb128 3
 3979 0181 00       		.byte	0
 3980 0182 00       		.byte	0
 3981 0183 1A       		.uleb128 0x1a
 3982 0184 17       		.uleb128 0x17
 3983 0185 01       		.byte	0x1
 3984 0186 0B       		.uleb128 0xb
 3985 0187 0B       		.uleb128 0xb
 3986 0188 3A       		.uleb128 0x3a
 3987 0189 0B       		.uleb128 0xb
 3988 018a 3B       		.uleb128 0x3b
 3989 018b 0B       		.uleb128 0xb
 3990 018c 39       		.uleb128 0x39
ARM GAS  C:\Users\DEVELO~1\AppData\Local\Temp\ccW7fz6e.s 			page 71


 3991 018d 21       		.uleb128 0x21
 3992 018e 03       		.sleb128 3
 3993 018f 01       		.uleb128 0x1
 3994 0190 13       		.uleb128 0x13
 3995 0191 00       		.byte	0
 3996 0192 00       		.byte	0
 3997 0193 1B       		.uleb128 0x1b
 3998 0194 0D       		.uleb128 0xd
 3999 0195 00       		.byte	0
 4000 0196 03       		.uleb128 0x3
 4001 0197 08       		.uleb128 0x8
 4002 0198 3A       		.uleb128 0x3a
 4003 0199 21       		.uleb128 0x21
 4004 019a 10       		.sleb128 16
 4005 019b 3B       		.uleb128 0x3b
 4006 019c 0B       		.uleb128 0xb
 4007 019d 39       		.uleb128 0x39
 4008 019e 21       		.uleb128 0x21
 4009 019f 07       		.sleb128 7
 4010 01a0 49       		.uleb128 0x49
 4011 01a1 13       		.uleb128 0x13
 4012 01a2 00       		.byte	0
 4013 01a3 00       		.byte	0
 4014 01a4 1C       		.uleb128 0x1c
 4015 01a5 0D       		.uleb128 0xd
 4016 01a6 00       		.byte	0
 4017 01a7 03       		.uleb128 0x3
 4018 01a8 0E       		.uleb128 0xe
 4019 01a9 3A       		.uleb128 0x3a
 4020 01aa 21       		.uleb128 0x21
 4021 01ab 10       		.sleb128 16
 4022 01ac 3B       		.uleb128 0x3b
 4023 01ad 0B       		.uleb128 0xb
 4024 01ae 39       		.uleb128 0x39
 4025 01af 21       		.uleb128 0x21
 4026 01b0 19       		.sleb128 25
 4027 01b1 49       		.uleb128 0x49
 4028 01b2 13       		.uleb128 0x13
 4029 01b3 0D       		.uleb128 0xd
 4030 01b4 0B       		.uleb128 0xb
 4031 01b5 6B       		.uleb128 0x6b
 4032 01b6 0B       		.uleb128 0xb
 4033 01b7 00       		.byte	0
 4034 01b8 00       		.byte	0
 4035 01b9 1D       		.uleb128 0x1d
 4036 01ba 2E       		.uleb128 0x2e
 4037 01bb 01       		.byte	0x1
 4038 01bc 3F       		.uleb128 0x3f
 4039 01bd 19       		.uleb128 0x19
 4040 01be 03       		.uleb128 0x3
 4041 01bf 0E       		.uleb128 0xe
 4042 01c0 3A       		.uleb128 0x3a
 4043 01c1 21       		.uleb128 0x21
 4044 01c2 07       		.sleb128 7
 4045 01c3 3B       		.uleb128 0x3b
 4046 01c4 05       		.uleb128 0x5
 4047 01c5 39       		.uleb128 0x39
ARM GAS  C:\Users\DEVELO~1\AppData\Local\Temp\ccW7fz6e.s 			page 72


 4048 01c6 0B       		.uleb128 0xb
 4049 01c7 27       		.uleb128 0x27
 4050 01c8 19       		.uleb128 0x19
 4051 01c9 49       		.uleb128 0x49
 4052 01ca 13       		.uleb128 0x13
 4053 01cb 11       		.uleb128 0x11
 4054 01cc 01       		.uleb128 0x1
 4055 01cd 12       		.uleb128 0x12
 4056 01ce 06       		.uleb128 0x6
 4057 01cf 40       		.uleb128 0x40
 4058 01d0 18       		.uleb128 0x18
 4059 01d1 7C       		.uleb128 0x7c
 4060 01d2 19       		.uleb128 0x19
 4061 01d3 01       		.uleb128 0x1
 4062 01d4 13       		.uleb128 0x13
 4063 01d5 00       		.byte	0
 4064 01d6 00       		.byte	0
 4065 01d7 1E       		.uleb128 0x1e
 4066 01d8 05       		.uleb128 0x5
 4067 01d9 00       		.byte	0
 4068 01da 03       		.uleb128 0x3
 4069 01db 0E       		.uleb128 0xe
 4070 01dc 3A       		.uleb128 0x3a
 4071 01dd 21       		.uleb128 0x21
 4072 01de 07       		.sleb128 7
 4073 01df 3B       		.uleb128 0x3b
 4074 01e0 05       		.uleb128 0x5
 4075 01e1 39       		.uleb128 0x39
 4076 01e2 0B       		.uleb128 0xb
 4077 01e3 49       		.uleb128 0x49
 4078 01e4 13       		.uleb128 0x13
 4079 01e5 02       		.uleb128 0x2
 4080 01e6 18       		.uleb128 0x18
 4081 01e7 00       		.byte	0
 4082 01e8 00       		.byte	0
 4083 01e9 1F       		.uleb128 0x1f
 4084 01ea 2E       		.uleb128 0x2e
 4085 01eb 01       		.byte	0x1
 4086 01ec 03       		.uleb128 0x3
 4087 01ed 0E       		.uleb128 0xe
 4088 01ee 3A       		.uleb128 0x3a
 4089 01ef 21       		.uleb128 0x21
 4090 01f0 07       		.sleb128 7
 4091 01f1 3B       		.uleb128 0x3b
 4092 01f2 0B       		.uleb128 0xb
 4093 01f3 39       		.uleb128 0x39
 4094 01f4 21       		.uleb128 0x21
 4095 01f5 0D       		.sleb128 13
 4096 01f6 27       		.uleb128 0x27
 4097 01f7 19       		.uleb128 0x19
 4098 01f8 11       		.uleb128 0x11
 4099 01f9 01       		.uleb128 0x1
 4100 01fa 12       		.uleb128 0x12
 4101 01fb 06       		.uleb128 0x6
 4102 01fc 40       		.uleb128 0x40
 4103 01fd 18       		.uleb128 0x18
 4104 01fe 7C       		.uleb128 0x7c
ARM GAS  C:\Users\DEVELO~1\AppData\Local\Temp\ccW7fz6e.s 			page 73


 4105 01ff 19       		.uleb128 0x19
 4106 0200 01       		.uleb128 0x1
 4107 0201 13       		.uleb128 0x13
 4108 0202 00       		.byte	0
 4109 0203 00       		.byte	0
 4110 0204 20       		.uleb128 0x20
 4111 0205 2E       		.uleb128 0x2e
 4112 0206 01       		.byte	0x1
 4113 0207 03       		.uleb128 0x3
 4114 0208 0E       		.uleb128 0xe
 4115 0209 3A       		.uleb128 0x3a
 4116 020a 21       		.uleb128 0x21
 4117 020b 01       		.sleb128 1
 4118 020c 3B       		.uleb128 0x3b
 4119 020d 05       		.uleb128 0x5
 4120 020e 39       		.uleb128 0x39
 4121 020f 21       		.uleb128 0x21
 4122 0210 24       		.sleb128 36
 4123 0211 27       		.uleb128 0x27
 4124 0212 19       		.uleb128 0x19
 4125 0213 49       		.uleb128 0x49
 4126 0214 13       		.uleb128 0x13
 4127 0215 11       		.uleb128 0x11
 4128 0216 01       		.uleb128 0x1
 4129 0217 12       		.uleb128 0x12
 4130 0218 06       		.uleb128 0x6
 4131 0219 40       		.uleb128 0x40
 4132 021a 18       		.uleb128 0x18
 4133 021b 7A       		.uleb128 0x7a
 4134 021c 19       		.uleb128 0x19
 4135 021d 01       		.uleb128 0x1
 4136 021e 13       		.uleb128 0x13
 4137 021f 00       		.byte	0
 4138 0220 00       		.byte	0
 4139 0221 21       		.uleb128 0x21
 4140 0222 35       		.uleb128 0x35
 4141 0223 00       		.byte	0
 4142 0224 49       		.uleb128 0x49
 4143 0225 13       		.uleb128 0x13
 4144 0226 00       		.byte	0
 4145 0227 00       		.byte	0
 4146 0228 22       		.uleb128 0x22
 4147 0229 16       		.uleb128 0x16
 4148 022a 00       		.byte	0
 4149 022b 03       		.uleb128 0x3
 4150 022c 0E       		.uleb128 0xe
 4151 022d 3A       		.uleb128 0x3a
 4152 022e 21       		.uleb128 0x21
 4153 022f 0C       		.sleb128 12
 4154 0230 3B       		.uleb128 0x3b
 4155 0231 05       		.uleb128 0x5
 4156 0232 39       		.uleb128 0x39
 4157 0233 21       		.uleb128 0x21
 4158 0234 03       		.sleb128 3
 4159 0235 49       		.uleb128 0x49
 4160 0236 13       		.uleb128 0x13
 4161 0237 00       		.byte	0
ARM GAS  C:\Users\DEVELO~1\AppData\Local\Temp\ccW7fz6e.s 			page 74


 4162 0238 00       		.byte	0
 4163 0239 23       		.uleb128 0x23
 4164 023a 2E       		.uleb128 0x2e
 4165 023b 01       		.byte	0x1
 4166 023c 03       		.uleb128 0x3
 4167 023d 0E       		.uleb128 0xe
 4168 023e 3A       		.uleb128 0x3a
 4169 023f 21       		.uleb128 0x21
 4170 0240 07       		.sleb128 7
 4171 0241 3B       		.uleb128 0x3b
 4172 0242 0B       		.uleb128 0xb
 4173 0243 39       		.uleb128 0x39
 4174 0244 21       		.uleb128 0x21
 4175 0245 12       		.sleb128 18
 4176 0246 27       		.uleb128 0x27
 4177 0247 19       		.uleb128 0x19
 4178 0248 49       		.uleb128 0x49
 4179 0249 13       		.uleb128 0x13
 4180 024a 11       		.uleb128 0x11
 4181 024b 01       		.uleb128 0x1
 4182 024c 12       		.uleb128 0x12
 4183 024d 06       		.uleb128 0x6
 4184 024e 40       		.uleb128 0x40
 4185 024f 18       		.uleb128 0x18
 4186 0250 7C       		.uleb128 0x7c
 4187 0251 19       		.uleb128 0x19
 4188 0252 01       		.uleb128 0x1
 4189 0253 13       		.uleb128 0x13
 4190 0254 00       		.byte	0
 4191 0255 00       		.byte	0
 4192 0256 24       		.uleb128 0x24
 4193 0257 2E       		.uleb128 0x2e
 4194 0258 01       		.byte	0x1
 4195 0259 03       		.uleb128 0x3
 4196 025a 0E       		.uleb128 0xe
 4197 025b 3A       		.uleb128 0x3a
 4198 025c 21       		.uleb128 0x21
 4199 025d 02       		.sleb128 2
 4200 025e 3B       		.uleb128 0x3b
 4201 025f 05       		.uleb128 0x5
 4202 0260 39       		.uleb128 0x39
 4203 0261 21       		.uleb128 0x21
 4204 0262 14       		.sleb128 20
 4205 0263 27       		.uleb128 0x27
 4206 0264 19       		.uleb128 0x19
 4207 0265 11       		.uleb128 0x11
 4208 0266 01       		.uleb128 0x1
 4209 0267 12       		.uleb128 0x12
 4210 0268 06       		.uleb128 0x6
 4211 0269 40       		.uleb128 0x40
 4212 026a 18       		.uleb128 0x18
 4213 026b 7A       		.uleb128 0x7a
 4214 026c 19       		.uleb128 0x19
 4215 026d 01       		.uleb128 0x1
 4216 026e 13       		.uleb128 0x13
 4217 026f 00       		.byte	0
 4218 0270 00       		.byte	0
ARM GAS  C:\Users\DEVELO~1\AppData\Local\Temp\ccW7fz6e.s 			page 75


 4219 0271 25       		.uleb128 0x25
 4220 0272 05       		.uleb128 0x5
 4221 0273 00       		.byte	0
 4222 0274 31       		.uleb128 0x31
 4223 0275 13       		.uleb128 0x13
 4224 0276 02       		.uleb128 0x2
 4225 0277 18       		.uleb128 0x18
 4226 0278 00       		.byte	0
 4227 0279 00       		.byte	0
 4228 027a 26       		.uleb128 0x26
 4229 027b 11       		.uleb128 0x11
 4230 027c 01       		.byte	0x1
 4231 027d 25       		.uleb128 0x25
 4232 027e 0E       		.uleb128 0xe
 4233 027f 13       		.uleb128 0x13
 4234 0280 0B       		.uleb128 0xb
 4235 0281 03       		.uleb128 0x3
 4236 0282 0E       		.uleb128 0xe
 4237 0283 1B       		.uleb128 0x1b
 4238 0284 0E       		.uleb128 0xe
 4239 0285 55       		.uleb128 0x55
 4240 0286 17       		.uleb128 0x17
 4241 0287 11       		.uleb128 0x11
 4242 0288 01       		.uleb128 0x1
 4243 0289 10       		.uleb128 0x10
 4244 028a 17       		.uleb128 0x17
 4245 028b 00       		.byte	0
 4246 028c 00       		.byte	0
 4247 028d 27       		.uleb128 0x27
 4248 028e 24       		.uleb128 0x24
 4249 028f 00       		.byte	0
 4250 0290 0B       		.uleb128 0xb
 4251 0291 0B       		.uleb128 0xb
 4252 0292 3E       		.uleb128 0x3e
 4253 0293 0B       		.uleb128 0xb
 4254 0294 03       		.uleb128 0x3
 4255 0295 08       		.uleb128 0x8
 4256 0296 00       		.byte	0
 4257 0297 00       		.byte	0
 4258 0298 28       		.uleb128 0x28
 4259 0299 13       		.uleb128 0x13
 4260 029a 01       		.byte	0x1
 4261 029b 03       		.uleb128 0x3
 4262 029c 0E       		.uleb128 0xe
 4263 029d 0B       		.uleb128 0xb
 4264 029e 05       		.uleb128 0x5
 4265 029f 3A       		.uleb128 0x3a
 4266 02a0 0B       		.uleb128 0xb
 4267 02a1 3B       		.uleb128 0x3b
 4268 02a2 05       		.uleb128 0x5
 4269 02a3 39       		.uleb128 0x39
 4270 02a4 0B       		.uleb128 0xb
 4271 02a5 01       		.uleb128 0x1
 4272 02a6 13       		.uleb128 0x13
 4273 02a7 00       		.byte	0
 4274 02a8 00       		.byte	0
 4275 02a9 29       		.uleb128 0x29
ARM GAS  C:\Users\DEVELO~1\AppData\Local\Temp\ccW7fz6e.s 			page 76


 4276 02aa 0F       		.uleb128 0xf
 4277 02ab 00       		.byte	0
 4278 02ac 0B       		.uleb128 0xb
 4279 02ad 0B       		.uleb128 0xb
 4280 02ae 00       		.byte	0
 4281 02af 00       		.byte	0
 4282 02b0 2A       		.uleb128 0x2a
 4283 02b1 13       		.uleb128 0x13
 4284 02b2 01       		.byte	0x1
 4285 02b3 0B       		.uleb128 0xb
 4286 02b4 05       		.uleb128 0x5
 4287 02b5 3A       		.uleb128 0x3a
 4288 02b6 0B       		.uleb128 0xb
 4289 02b7 3B       		.uleb128 0x3b
 4290 02b8 0B       		.uleb128 0xb
 4291 02b9 39       		.uleb128 0x39
 4292 02ba 0B       		.uleb128 0xb
 4293 02bb 01       		.uleb128 0x1
 4294 02bc 13       		.uleb128 0x13
 4295 02bd 00       		.byte	0
 4296 02be 00       		.byte	0
 4297 02bf 2B       		.uleb128 0x2b
 4298 02c0 15       		.uleb128 0x15
 4299 02c1 01       		.byte	0x1
 4300 02c2 27       		.uleb128 0x27
 4301 02c3 19       		.uleb128 0x19
 4302 02c4 01       		.uleb128 0x1
 4303 02c5 13       		.uleb128 0x13
 4304 02c6 00       		.byte	0
 4305 02c7 00       		.byte	0
 4306 02c8 2C       		.uleb128 0x2c
 4307 02c9 34       		.uleb128 0x34
 4308 02ca 00       		.byte	0
 4309 02cb 03       		.uleb128 0x3
 4310 02cc 08       		.uleb128 0x8
 4311 02cd 3A       		.uleb128 0x3a
 4312 02ce 0B       		.uleb128 0xb
 4313 02cf 3B       		.uleb128 0x3b
 4314 02d0 05       		.uleb128 0x5
 4315 02d1 39       		.uleb128 0x39
 4316 02d2 0B       		.uleb128 0xb
 4317 02d3 49       		.uleb128 0x49
 4318 02d4 13       		.uleb128 0x13
 4319 02d5 3F       		.uleb128 0x3f
 4320 02d6 19       		.uleb128 0x19
 4321 02d7 3C       		.uleb128 0x3c
 4322 02d8 19       		.uleb128 0x19
 4323 02d9 00       		.byte	0
 4324 02da 00       		.byte	0
 4325 02db 2D       		.uleb128 0x2d
 4326 02dc 2E       		.uleb128 0x2e
 4327 02dd 01       		.byte	0x1
 4328 02de 3F       		.uleb128 0x3f
 4329 02df 19       		.uleb128 0x19
 4330 02e0 03       		.uleb128 0x3
 4331 02e1 0E       		.uleb128 0xe
 4332 02e2 3A       		.uleb128 0x3a
ARM GAS  C:\Users\DEVELO~1\AppData\Local\Temp\ccW7fz6e.s 			page 77


 4333 02e3 0B       		.uleb128 0xb
 4334 02e4 3B       		.uleb128 0x3b
 4335 02e5 05       		.uleb128 0x5
 4336 02e6 39       		.uleb128 0x39
 4337 02e7 0B       		.uleb128 0xb
 4338 02e8 27       		.uleb128 0x27
 4339 02e9 19       		.uleb128 0x19
 4340 02ea 3C       		.uleb128 0x3c
 4341 02eb 19       		.uleb128 0x19
 4342 02ec 01       		.uleb128 0x1
 4343 02ed 13       		.uleb128 0x13
 4344 02ee 00       		.byte	0
 4345 02ef 00       		.byte	0
 4346 02f0 2E       		.uleb128 0x2e
 4347 02f1 2E       		.uleb128 0x2e
 4348 02f2 01       		.byte	0x1
 4349 02f3 3F       		.uleb128 0x3f
 4350 02f4 19       		.uleb128 0x19
 4351 02f5 03       		.uleb128 0x3
 4352 02f6 0E       		.uleb128 0xe
 4353 02f7 3A       		.uleb128 0x3a
 4354 02f8 0B       		.uleb128 0xb
 4355 02f9 3B       		.uleb128 0x3b
 4356 02fa 05       		.uleb128 0x5
 4357 02fb 39       		.uleb128 0x39
 4358 02fc 0B       		.uleb128 0xb
 4359 02fd 27       		.uleb128 0x27
 4360 02fe 19       		.uleb128 0x19
 4361 02ff 49       		.uleb128 0x49
 4362 0300 13       		.uleb128 0x13
 4363 0301 11       		.uleb128 0x11
 4364 0302 01       		.uleb128 0x1
 4365 0303 12       		.uleb128 0x12
 4366 0304 06       		.uleb128 0x6
 4367 0305 40       		.uleb128 0x40
 4368 0306 18       		.uleb128 0x18
 4369 0307 7A       		.uleb128 0x7a
 4370 0308 19       		.uleb128 0x19
 4371 0309 01       		.uleb128 0x1
 4372 030a 13       		.uleb128 0x13
 4373 030b 00       		.byte	0
 4374 030c 00       		.byte	0
 4375 030d 2F       		.uleb128 0x2f
 4376 030e 0B       		.uleb128 0xb
 4377 030f 01       		.byte	0x1
 4378 0310 11       		.uleb128 0x11
 4379 0311 01       		.uleb128 0x1
 4380 0312 12       		.uleb128 0x12
 4381 0313 06       		.uleb128 0x6
 4382 0314 00       		.byte	0
 4383 0315 00       		.byte	0
 4384 0316 30       		.uleb128 0x30
 4385 0317 2E       		.uleb128 0x2e
 4386 0318 01       		.byte	0x1
 4387 0319 03       		.uleb128 0x3
 4388 031a 0E       		.uleb128 0xe
 4389 031b 3A       		.uleb128 0x3a
ARM GAS  C:\Users\DEVELO~1\AppData\Local\Temp\ccW7fz6e.s 			page 78


 4390 031c 0B       		.uleb128 0xb
 4391 031d 3B       		.uleb128 0x3b
 4392 031e 0B       		.uleb128 0xb
 4393 031f 39       		.uleb128 0x39
 4394 0320 0B       		.uleb128 0xb
 4395 0321 27       		.uleb128 0x27
 4396 0322 19       		.uleb128 0x19
 4397 0323 11       		.uleb128 0x11
 4398 0324 01       		.uleb128 0x1
 4399 0325 12       		.uleb128 0x12
 4400 0326 06       		.uleb128 0x6
 4401 0327 40       		.uleb128 0x40
 4402 0328 18       		.uleb128 0x18
 4403 0329 7A       		.uleb128 0x7a
 4404 032a 19       		.uleb128 0x19
 4405 032b 01       		.uleb128 0x1
 4406 032c 13       		.uleb128 0x13
 4407 032d 00       		.byte	0
 4408 032e 00       		.byte	0
 4409 032f 31       		.uleb128 0x31
 4410 0330 2E       		.uleb128 0x2e
 4411 0331 01       		.byte	0x1
 4412 0332 03       		.uleb128 0x3
 4413 0333 0E       		.uleb128 0xe
 4414 0334 3A       		.uleb128 0x3a
 4415 0335 0B       		.uleb128 0xb
 4416 0336 3B       		.uleb128 0x3b
 4417 0337 0B       		.uleb128 0xb
 4418 0338 39       		.uleb128 0x39
 4419 0339 0B       		.uleb128 0xb
 4420 033a 27       		.uleb128 0x27
 4421 033b 19       		.uleb128 0x19
 4422 033c 49       		.uleb128 0x49
 4423 033d 13       		.uleb128 0x13
 4424 033e 11       		.uleb128 0x11
 4425 033f 01       		.uleb128 0x1
 4426 0340 12       		.uleb128 0x12
 4427 0341 06       		.uleb128 0x6
 4428 0342 40       		.uleb128 0x40
 4429 0343 18       		.uleb128 0x18
 4430 0344 7A       		.uleb128 0x7a
 4431 0345 19       		.uleb128 0x19
 4432 0346 01       		.uleb128 0x1
 4433 0347 13       		.uleb128 0x13
 4434 0348 00       		.byte	0
 4435 0349 00       		.byte	0
 4436 034a 32       		.uleb128 0x32
 4437 034b 2E       		.uleb128 0x2e
 4438 034c 01       		.byte	0x1
 4439 034d 03       		.uleb128 0x3
 4440 034e 0E       		.uleb128 0xe
 4441 034f 3A       		.uleb128 0x3a
 4442 0350 0B       		.uleb128 0xb
 4443 0351 3B       		.uleb128 0x3b
 4444 0352 05       		.uleb128 0x5
 4445 0353 39       		.uleb128 0x39
 4446 0354 0B       		.uleb128 0xb
ARM GAS  C:\Users\DEVELO~1\AppData\Local\Temp\ccW7fz6e.s 			page 79


 4447 0355 27       		.uleb128 0x27
 4448 0356 19       		.uleb128 0x19
 4449 0357 20       		.uleb128 0x20
 4450 0358 0B       		.uleb128 0xb
 4451 0359 01       		.uleb128 0x1
 4452 035a 13       		.uleb128 0x13
 4453 035b 00       		.byte	0
 4454 035c 00       		.byte	0
 4455 035d 33       		.uleb128 0x33
 4456 035e 05       		.uleb128 0x5
 4457 035f 00       		.byte	0
 4458 0360 03       		.uleb128 0x3
 4459 0361 0E       		.uleb128 0xe
 4460 0362 3A       		.uleb128 0x3a
 4461 0363 0B       		.uleb128 0xb
 4462 0364 3B       		.uleb128 0x3b
 4463 0365 05       		.uleb128 0x5
 4464 0366 39       		.uleb128 0x39
 4465 0367 0B       		.uleb128 0xb
 4466 0368 49       		.uleb128 0x49
 4467 0369 13       		.uleb128 0x13
 4468 036a 00       		.byte	0
 4469 036b 00       		.byte	0
 4470 036c 34       		.uleb128 0x34
 4471 036d 2E       		.uleb128 0x2e
 4472 036e 01       		.byte	0x1
 4473 036f 03       		.uleb128 0x3
 4474 0370 0E       		.uleb128 0xe
 4475 0371 3A       		.uleb128 0x3a
 4476 0372 0B       		.uleb128 0xb
 4477 0373 3B       		.uleb128 0x3b
 4478 0374 05       		.uleb128 0x5
 4479 0375 39       		.uleb128 0x39
 4480 0376 0B       		.uleb128 0xb
 4481 0377 27       		.uleb128 0x27
 4482 0378 19       		.uleb128 0x19
 4483 0379 49       		.uleb128 0x49
 4484 037a 13       		.uleb128 0x13
 4485 037b 11       		.uleb128 0x11
 4486 037c 01       		.uleb128 0x1
 4487 037d 12       		.uleb128 0x12
 4488 037e 06       		.uleb128 0x6
 4489 037f 40       		.uleb128 0x40
 4490 0380 18       		.uleb128 0x18
 4491 0381 7A       		.uleb128 0x7a
 4492 0382 19       		.uleb128 0x19
 4493 0383 00       		.byte	0
 4494 0384 00       		.byte	0
 4495 0385 00       		.byte	0
 4496              		.section	.debug_aranges,"",%progbits
 4497 0000 CC000000 		.4byte	0xcc
 4498 0004 0200     		.2byte	0x2
 4499 0006 00000000 		.4byte	.Ldebug_info0
 4500 000a 04       		.byte	0x4
 4501 000b 00       		.byte	0
 4502 000c 0000     		.2byte	0
 4503 000e 0000     		.2byte	0
ARM GAS  C:\Users\DEVELO~1\AppData\Local\Temp\ccW7fz6e.s 			page 80


 4504 0010 00000000 		.4byte	.LFB25
 4505 0014 28000000 		.4byte	.LFE25-.LFB25
 4506 0018 00000000 		.4byte	.LFB27
 4507 001c 2A000000 		.4byte	.LFE27-.LFB27
 4508 0020 00000000 		.4byte	.LFB28
 4509 0024 4E000000 		.4byte	.LFE28-.LFB28
 4510 0028 00000000 		.4byte	.LFB29
 4511 002c 4E000000 		.4byte	.LFE29-.LFB29
 4512 0030 00000000 		.4byte	.LFB204
 4513 0034 20000000 		.4byte	.LFE204-.LFB204
 4514 0038 00000000 		.4byte	.LFB205
 4515 003c 20000000 		.4byte	.LFE205-.LFB205
 4516 0040 00000000 		.4byte	.LFB215
 4517 0044 20000000 		.4byte	.LFE215-.LFB215
 4518 0048 00000000 		.4byte	.LFB246
 4519 004c 1C000000 		.4byte	.LFE246-.LFB246
 4520 0050 00000000 		.4byte	.LFB346
 4521 0054 36000000 		.4byte	.LFE346-.LFB346
 4522 0058 00000000 		.4byte	.LFB347
 4523 005c 36000000 		.4byte	.LFE347-.LFB347
 4524 0060 00000000 		.4byte	.LFB348
 4525 0064 4C000000 		.4byte	.LFE348-.LFB348
 4526 0068 00000000 		.4byte	.LFB349
 4527 006c 4C000000 		.4byte	.LFE349-.LFB349
 4528 0070 00000000 		.4byte	.LFB350
 4529 0074 98000000 		.4byte	.LFE350-.LFB350
 4530 0078 00000000 		.4byte	.LFB351
 4531 007c 18000000 		.4byte	.LFE351-.LFB351
 4532 0080 00000000 		.4byte	.LFB352
 4533 0084 50000000 		.4byte	.LFE352-.LFB352
 4534 0088 00000000 		.4byte	.LFB353
 4535 008c 68000000 		.4byte	.LFE353-.LFB353
 4536 0090 00000000 		.4byte	.LFB354
 4537 0094 6C000000 		.4byte	.LFE354-.LFB354
 4538 0098 00000000 		.4byte	.LFB355
 4539 009c 38000000 		.4byte	.LFE355-.LFB355
 4540 00a0 00000000 		.4byte	.LFB356
 4541 00a4 3C000000 		.4byte	.LFE356-.LFB356
 4542 00a8 00000000 		.4byte	.LFB357
 4543 00ac 4C000000 		.4byte	.LFE357-.LFB357
 4544 00b0 00000000 		.4byte	.LFB358
 4545 00b4 40000000 		.4byte	.LFE358-.LFB358
 4546 00b8 00000000 		.4byte	.LFB359
 4547 00bc 38000000 		.4byte	.LFE359-.LFB359
 4548 00c0 00000000 		.4byte	.LFB360
 4549 00c4 3C000000 		.4byte	.LFE360-.LFB360
 4550 00c8 00000000 		.4byte	0
 4551 00cc 00000000 		.4byte	0
 4552              		.section	.debug_rnglists,"",%progbits
 4553              	.Ldebug_ranges0:
 4554 0000 94000000 		.4byte	.Ldebug_ranges3-.Ldebug_ranges2
 4555              	.Ldebug_ranges2:
 4556 0004 0500     		.2byte	0x5
 4557 0006 04       		.byte	0x4
 4558 0007 00       		.byte	0
 4559 0008 00000000 		.4byte	0
 4560              	.LLRL0:
ARM GAS  C:\Users\DEVELO~1\AppData\Local\Temp\ccW7fz6e.s 			page 81


 4561 000c 07       		.byte	0x7
 4562 000d 00000000 		.4byte	.LFB25
 4563 0011 28       		.uleb128 .LFE25-.LFB25
 4564 0012 07       		.byte	0x7
 4565 0013 00000000 		.4byte	.LFB27
 4566 0017 2A       		.uleb128 .LFE27-.LFB27
 4567 0018 07       		.byte	0x7
 4568 0019 00000000 		.4byte	.LFB28
 4569 001d 4E       		.uleb128 .LFE28-.LFB28
 4570 001e 07       		.byte	0x7
 4571 001f 00000000 		.4byte	.LFB29
 4572 0023 4E       		.uleb128 .LFE29-.LFB29
 4573 0024 07       		.byte	0x7
 4574 0025 00000000 		.4byte	.LFB204
 4575 0029 20       		.uleb128 .LFE204-.LFB204
 4576 002a 07       		.byte	0x7
 4577 002b 00000000 		.4byte	.LFB205
 4578 002f 20       		.uleb128 .LFE205-.LFB205
 4579 0030 07       		.byte	0x7
 4580 0031 00000000 		.4byte	.LFB215
 4581 0035 20       		.uleb128 .LFE215-.LFB215
 4582 0036 07       		.byte	0x7
 4583 0037 00000000 		.4byte	.LFB246
 4584 003b 1C       		.uleb128 .LFE246-.LFB246
 4585 003c 07       		.byte	0x7
 4586 003d 00000000 		.4byte	.LFB346
 4587 0041 36       		.uleb128 .LFE346-.LFB346
 4588 0042 07       		.byte	0x7
 4589 0043 00000000 		.4byte	.LFB347
 4590 0047 36       		.uleb128 .LFE347-.LFB347
 4591 0048 07       		.byte	0x7
 4592 0049 00000000 		.4byte	.LFB348
 4593 004d 4C       		.uleb128 .LFE348-.LFB348
 4594 004e 07       		.byte	0x7
 4595 004f 00000000 		.4byte	.LFB349
 4596 0053 4C       		.uleb128 .LFE349-.LFB349
 4597 0054 07       		.byte	0x7
 4598 0055 00000000 		.4byte	.LFB350
 4599 0059 9801     		.uleb128 .LFE350-.LFB350
 4600 005b 07       		.byte	0x7
 4601 005c 00000000 		.4byte	.LFB351
 4602 0060 18       		.uleb128 .LFE351-.LFB351
 4603 0061 07       		.byte	0x7
 4604 0062 00000000 		.4byte	.LFB352
 4605 0066 50       		.uleb128 .LFE352-.LFB352
 4606 0067 07       		.byte	0x7
 4607 0068 00000000 		.4byte	.LFB353
 4608 006c 68       		.uleb128 .LFE353-.LFB353
 4609 006d 07       		.byte	0x7
 4610 006e 00000000 		.4byte	.LFB354
 4611 0072 6C       		.uleb128 .LFE354-.LFB354
 4612 0073 07       		.byte	0x7
 4613 0074 00000000 		.4byte	.LFB355
 4614 0078 38       		.uleb128 .LFE355-.LFB355
 4615 0079 07       		.byte	0x7
 4616 007a 00000000 		.4byte	.LFB356
 4617 007e 3C       		.uleb128 .LFE356-.LFB356
ARM GAS  C:\Users\DEVELO~1\AppData\Local\Temp\ccW7fz6e.s 			page 82


 4618 007f 07       		.byte	0x7
 4619 0080 00000000 		.4byte	.LFB357
 4620 0084 4C       		.uleb128 .LFE357-.LFB357
 4621 0085 07       		.byte	0x7
 4622 0086 00000000 		.4byte	.LFB358
 4623 008a 40       		.uleb128 .LFE358-.LFB358
 4624 008b 07       		.byte	0x7
 4625 008c 00000000 		.4byte	.LFB359
 4626 0090 38       		.uleb128 .LFE359-.LFB359
 4627 0091 07       		.byte	0x7
 4628 0092 00000000 		.4byte	.LFB360
 4629 0096 3C       		.uleb128 .LFE360-.LFB360
 4630 0097 00       		.byte	0
 4631              	.Ldebug_ranges3:
 4632              		.section	.debug_line,"",%progbits
 4633              	.Ldebug_line0:
 4634 0000 24060000 		.section	.debug_str,"MS",%progbits,1
 4634      03003502 
 4634      00000201 
 4634      FB0E0D00 
 4634      01010101 
 4635              	.LASF50:
 4636 0000 636F7265 		.ascii	"core_id\000"
 4636      5F696400 
 4637              	.LASF118:
 4638 0008 72656164 		.ascii	"ready_list_t\000"
 4638      795F6C69 
 4638      73745F74 
 4638      00
 4639              	.LASF109:
 4640 0015 77747472 		.ascii	"wttrp\000"
 4640      7000
 4641              	.LASF107:
 4642 001b 7264796D 		.ascii	"rdymsg\000"
 4642      736700
 4643              	.LASF51:
 4644 0022 72666375 		.ascii	"rfcu\000"
 4644      00
 4645              	.LASF27:
 4646 0027 6576656E 		.ascii	"eventmask_t\000"
 4646      746D6173 
 4646      6B5F7400 
 4647              	.LASF6:
 4648 0033 5F5F7569 		.ascii	"__uint8_t\000"
 4648      6E74385F 
 4648      7400
 4649              	.LASF70:
 4650 003d 70726576 		.ascii	"prev\000"
 4650      00
 4651              	.LASF89:
 4652 0042 706F7274 		.ascii	"port_intctx\000"
 4652      5F696E74 
 4652      63747800 
 4653              	.LASF48:
 4654 004e 76746C69 		.ascii	"vtlist\000"
 4654      737400
 4655              	.LASF154:
ARM GAS  C:\Users\DEVELO~1\AppData\Local\Temp\ccW7fz6e.s 			page 83


 4656 0055 63685379 		.ascii	"chSysLockFromISR\000"
 4656      734C6F63 
 4656      6B46726F 
 4656      6D495352 
 4656      00
 4657              	.LASF81:
 4658 0066 74797065 		.ascii	"type\000"
 4658      00
 4659              	.LASF130:
 4660 006b 5F5F706F 		.ascii	"__port_switch\000"
 4660      72745F73 
 4660      77697463 
 4660      6800
 4661              	.LASF84:
 4662 0079 74726163 		.ascii	"trace_event_t\000"
 4662      655F6576 
 4662      656E745F 
 4662      7400
 4663              	.LASF79:
 4664 0087 68616C74 		.ascii	"halt\000"
 4664      00
 4665              	.LASF128:
 4666 008c 63685654 		.ascii	"chVTDoResetI\000"
 4666      446F5265 
 4666      73657449 
 4666      00
 4667              	.LASF108:
 4668 0099 65786974 		.ascii	"exitcode\000"
 4668      636F6465 
 4668      00
 4669              	.LASF53:
 4670 00a2 6D61696E 		.ascii	"mainthread\000"
 4670      74687265 
 4670      616400
 4671              	.LASF110:
 4672 00ad 73656E74 		.ascii	"sentmsg\000"
 4672      6D736700 
 4673              	.LASF76:
 4674 00b5 64656C74 		.ascii	"delta\000"
 4674      6100
 4675              	.LASF136:
 4676 00bb 63685363 		.ascii	"chSchSelectFirst\000"
 4676      6853656C 
 4676      65637446 
 4676      69727374 
 4676      00
 4677              	.LASF67:
 4678 00cc 6E657874 		.ascii	"next\000"
 4678      00
 4679              	.LASF161:
 4680 00d1 63685F70 		.ascii	"ch_pqueue_remove_highest\000"
 4680      71756575 
 4680      655F7265 
 4680      6D6F7665 
 4680      5F686967 
 4681              	.LASF1:
 4682 00ea 6C6F6E67 		.ascii	"long long int\000"
ARM GAS  C:\Users\DEVELO~1\AppData\Local\Temp\ccW7fz6e.s 			page 84


 4682      206C6F6E 
 4682      6720696E 
 4682      7400
 4683              	.LASF3:
 4684 00f8 7369676E 		.ascii	"signed char\000"
 4684      65642063 
 4684      68617200 
 4685              	.LASF75:
 4686 0104 63685F64 		.ascii	"ch_delta_list\000"
 4686      656C7461 
 4686      5F6C6973 
 4686      7400
 4687              	.LASF14:
 4688 0112 6C6F6E67 		.ascii	"long long unsigned int\000"
 4688      206C6F6E 
 4688      6720756E 
 4688      7369676E 
 4688      65642069 
 4689              	.LASF147:
 4690 0129 5F5F7363 		.ascii	"__sch_reschedule_ahead\000"
 4690      685F7265 
 4690      73636865 
 4690      64756C65 
 4690      5F616865 
 4691              	.LASF167:
 4692 0140 62617365 		.ascii	"basePri\000"
 4692      50726900 
 4693              	.LASF163:
 4694 0148 474E5520 		.ascii	"GNU C17 11.3.1 20220712 -mcpu=cortex-m7 -mthumb -mf"
 4694      43313720 
 4694      31312E33 
 4694      2E312032 
 4694      30323230 
 4695 017b 6C6F6174 		.ascii	"loat-abi=soft -march=armv7e-m -ggdb -O0 -ffunction-"
 4695      2D616269 
 4695      3D736F66 
 4695      74202D6D 
 4695      61726368 
 4696 01ae 73656374 		.ascii	"sections -fdata-sections -fno-common\000"
 4696      696F6E73 
 4696      202D6664 
 4696      6174612D 
 4696      73656374 
 4697              	.LASF35:
 4698 01d3 73746174 		.ascii	"state\000"
 4698      6500
 4699              	.LASF10:
 4700 01d9 6C6F6E67 		.ascii	"long int\000"
 4700      20696E74 
 4700      00
 4701              	.LASF23:
 4702 01e2 74737461 		.ascii	"tstate_t\000"
 4702      74655F74 
 4702      00
 4703              	.LASF134:
 4704 01eb 63685363 		.ascii	"chSchPreemption\000"
 4704      68507265 
ARM GAS  C:\Users\DEVELO~1\AppData\Local\Temp\ccW7fz6e.s 			page 85


 4704      656D7074 
 4704      696F6E00 
 4705              	.LASF56:
 4706 01fb 63685F72 		.ascii	"ch_rfcu\000"
 4706      66637500 
 4707              	.LASF157:
 4708 0203 706F7274 		.ascii	"port_unlock\000"
 4708      5F756E6C 
 4708      6F636B00 
 4709              	.LASF69:
 4710 020f 63685F71 		.ascii	"ch_queue\000"
 4710      75657565 
 4710      00
 4711              	.LASF16:
 4712 0218 75696E74 		.ascii	"uint16_t\000"
 4712      31365F74 
 4712      00
 4713              	.LASF88:
 4714 0221 74726163 		.ascii	"trace_buffer_t\000"
 4714      655F6275 
 4714      66666572 
 4714      5F7400
 4715              	.LASF137:
 4716 0230 63685363 		.ascii	"chSchIsPreemptionRequired\000"
 4716      68497350 
 4716      7265656D 
 4716      7074696F 
 4716      6E526571 
 4717              	.LASF138:
 4718 024a 63685363 		.ascii	"chSchRescheduleS\000"
 4718      68526573 
 4718      63686564 
 4718      756C6553 
 4718      00
 4719              	.LASF11:
 4720 025b 5F5F7569 		.ascii	"__uint32_t\000"
 4720      6E743332 
 4720      5F7400
 4721              	.LASF57:
 4722 0266 6D61736B 		.ascii	"mask\000"
 4722      00
 4723              	.LASF101:
 4724 026b 63685F72 		.ascii	"ch_registry\000"
 4724      65676973 
 4724      74727900 
 4725              	.LASF38:
 4726 0277 77616974 		.ascii	"waiting\000"
 4726      696E6700 
 4727              	.LASF146:
 4728 027f 5F5F7363 		.ascii	"__sch_wakeup\000"
 4728      685F7761 
 4728      6B657570 
 4728      00
 4729              	.LASF120:
 4730 028c 6D61696E 		.ascii	"mainthread_base\000"
 4730      74687265 
 4730      61645F62 
ARM GAS  C:\Users\DEVELO~1\AppData\Local\Temp\ccW7fz6e.s 			page 86


 4730      61736500 
 4731              	.LASF126:
 4732 029c 6D757465 		.ascii	"mutex_t\000"
 4732      785F7400 
 4733              	.LASF64:
 4734 02a4 73797369 		.ascii	"sysinterval_t\000"
 4734      6E746572 
 4734      76616C5F 
 4734      7400
 4735              	.LASF28:
 4736 02b2 636E745F 		.ascii	"cnt_t\000"
 4736      7400
 4737              	.LASF39:
 4738 02b8 6D736771 		.ascii	"msgqueue\000"
 4738      75657565 
 4738      00
 4739              	.LASF159:
 4740 02c1 63685F70 		.ascii	"ch_pqueue_insert_ahead\000"
 4740      71756575 
 4740      655F696E 
 4740      73657274 
 4740      5F616865 
 4741              	.LASF122:
 4742 02d8 69646C65 		.ascii	"idlethread_base\000"
 4742      74687265 
 4742      61645F62 
 4742      61736500 
 4743              	.LASF111:
 4744 02e8 77747365 		.ascii	"wtsemp\000"
 4744      6D7000
 4745              	.LASF131:
 4746 02ef 5F5F7472 		.ascii	"__trace_switch\000"
 4746      6163655F 
 4746      73776974 
 4746      636800
 4747              	.LASF62:
 4748 02fe 73797374 		.ascii	"system_debug_t\000"
 4748      656D5F64 
 4748      65627567 
 4748      5F7400
 4749              	.LASF12:
 4750 030d 6C6F6E67 		.ascii	"long unsigned int\000"
 4750      20756E73 
 4750      69676E65 
 4750      6420696E 
 4750      7400
 4751              	.LASF31:
 4752 031f 72717565 		.ascii	"rqueue\000"
 4752      756500
 4753              	.LASF68:
 4754 0326 63685F71 		.ascii	"ch_queue_t\000"
 4754      75657565 
 4754      5F7400
 4755              	.LASF95:
 4756 0331 72656C6F 		.ascii	"reload\000"
 4756      616400
 4757              	.LASF142:
ARM GAS  C:\Users\DEVELO~1\AppData\Local\Temp\ccW7fz6e.s 			page 87


 4758 0338 74696D65 		.ascii	"timeout\000"
 4758      6F757400 
 4759              	.LASF116:
 4760 0340 63685F72 		.ascii	"ch_ready_list\000"
 4760      65616479 
 4760      5F6C6973 
 4760      7400
 4761              	.LASF33:
 4762 034e 6E616D65 		.ascii	"name\000"
 4762      00
 4763              	.LASF102:
 4764 0353 71756575 		.ascii	"queue\000"
 4764      6500
 4765              	.LASF86:
 4766 0359 73697A65 		.ascii	"size\000"
 4766      00
 4767              	.LASF8:
 4768 035e 73686F72 		.ascii	"short unsigned int\000"
 4768      7420756E 
 4768      7369676E 
 4768      65642069 
 4768      6E7400
 4769              	.LASF45:
 4770 0371 63685F74 		.ascii	"ch_thread\000"
 4770      68726561 
 4770      6400
 4771              	.LASF160:
 4772 037b 63685F70 		.ascii	"ch_pqueue_insert_behind\000"
 4772      71756575 
 4772      655F696E 
 4772      73657274 
 4772      5F626568 
 4773              	.LASF26:
 4774 0393 6D73675F 		.ascii	"msg_t\000"
 4774      7400
 4775              	.LASF40:
 4776 0399 6570656E 		.ascii	"epending\000"
 4776      64696E67 
 4776      00
 4777              	.LASF22:
 4778 03a2 746D6F64 		.ascii	"tmode_t\000"
 4778      655F7400 
 4779              	.LASF66:
 4780 03aa 63685F6C 		.ascii	"ch_list\000"
 4780      69737400 
 4781              	.LASF129:
 4782 03b2 63685654 		.ascii	"chVTDoSetI\000"
 4782      446F5365 
 4782      744900
 4783              	.LASF5:
 4784 03bd 73686F72 		.ascii	"short int\000"
 4784      7420696E 
 4784      7400
 4785              	.LASF100:
 4786 03c7 76697274 		.ascii	"virtual_timers_list_t\000"
 4786      75616C5F 
 4786      74696D65 
ARM GAS  C:\Users\DEVELO~1\AppData\Local\Temp\ccW7fz6e.s 			page 88


 4786      72735F6C 
 4786      6973745F 
 4787              	.LASF148:
 4788 03dd 5F5F7363 		.ascii	"__sch_reschedule_behind\000"
 4788      685F7265 
 4788      73636865 
 4788      64756C65 
 4788      5F626568 
 4789              	.LASF21:
 4790 03f5 73746B61 		.ascii	"stkalign_t\000"
 4790      6C69676E 
 4790      5F7400
 4791              	.LASF150:
 4792 0400 5F5F7363 		.ascii	"__sch_ready_behind\000"
 4792      685F7265 
 4792      6164795F 
 4792      62656869 
 4792      6E6400
 4793              	.LASF82:
 4794 0413 72747374 		.ascii	"rtstamp\000"
 4794      616D7000 
 4795              	.LASF99:
 4796 041b 6C617374 		.ascii	"laststamp\000"
 4796      7374616D 
 4796      7000
 4797              	.LASF42:
 4798 0425 7265616C 		.ascii	"realprio\000"
 4798      7072696F 
 4798      00
 4799              	.LASF55:
 4800 042e 72666375 		.ascii	"rfcu_mask_t\000"
 4800      5F6D6173 
 4800      6B5F7400 
 4801              	.LASF104:
 4802 043a 74687265 		.ascii	"thread_reference_t\000"
 4802      61645F72 
 4802      65666572 
 4802      656E6365 
 4802      5F7400
 4803              	.LASF97:
 4804 044d 63685F76 		.ascii	"ch_virtual_timers_list\000"
 4804      69727475 
 4804      616C5F74 
 4804      696D6572 
 4804      735F6C69 
 4805              	.LASF166:
 4806 0464 5F5F7365 		.ascii	"__set_BASEPRI\000"
 4806      745F4241 
 4806      53455052 
 4806      4900
 4807              	.LASF65:
 4808 0472 63685F6C 		.ascii	"ch_list_t\000"
 4808      6973745F 
 4808      7400
 4809              	.LASF85:
 4810 047c 73757370 		.ascii	"suspended\000"
 4810      656E6465 
ARM GAS  C:\Users\DEVELO~1\AppData\Local\Temp\ccW7fz6e.s 			page 89


 4810      6400
 4811              	.LASF19:
 4812 0486 75696E74 		.ascii	"uint64_t\000"
 4812      36345F74 
 4812      00
 4813              	.LASF119:
 4814 048f 63685F6F 		.ascii	"ch_os_instance_config\000"
 4814      735F696E 
 4814      7374616E 
 4814      63655F63 
 4814      6F6E6669 
 4815              	.LASF90:
 4816 04a5 706F7274 		.ascii	"port_context\000"
 4816      5F636F6E 
 4816      74657874 
 4816      00
 4817              	.LASF83:
 4818 04b2 74696D65 		.ascii	"time\000"
 4818      00
 4819              	.LASF73:
 4820 04b7 7072696F 		.ascii	"prio\000"
 4820      00
 4821              	.LASF149:
 4822 04bc 5F5F7363 		.ascii	"__sch_ready_ahead\000"
 4822      685F7265 
 4822      6164795F 
 4822      61686561 
 4822      6400
 4823              	.LASF117:
 4824 04ce 63757272 		.ascii	"current\000"
 4824      656E7400 
 4825              	.LASF13:
 4826 04d6 5F5F7569 		.ascii	"__uint64_t\000"
 4826      6E743634 
 4826      5F7400
 4827              	.LASF29:
 4828 04e1 636F7265 		.ascii	"core_id_t\000"
 4828      5F69645F 
 4828      7400
 4829              	.LASF24:
 4830 04eb 74726566 		.ascii	"trefs_t\000"
 4830      735F7400 
 4831              	.LASF37:
 4832 04f3 72656673 		.ascii	"refs\000"
 4832      00
 4833              	.LASF91:
 4834 04f8 76697274 		.ascii	"virtual_timer_t\000"
 4834      75616C5F 
 4834      74696D65 
 4834      725F7400 
 4835              	.LASF80:
 4836 0508 75736572 		.ascii	"user\000"
 4836      00
 4837              	.LASF25:
 4838 050d 74707269 		.ascii	"tprio_t\000"
 4838      6F5F7400 
 4839              	.LASF153:
ARM GAS  C:\Users\DEVELO~1\AppData\Local\Temp\ccW7fz6e.s 			page 90


 4840 0515 63685379 		.ascii	"chSysUnlockFromISR\000"
 4840      73556E6C 
 4840      6F636B46 
 4840      726F6D49 
 4840      535200
 4841              	.LASF59:
 4842 0528 63685F73 		.ascii	"ch_system_debug\000"
 4842      79737465 
 4842      6D5F6465 
 4842      62756700 
 4843              	.LASF127:
 4844 0538 5F426F6F 		.ascii	"_Bool\000"
 4844      6C00
 4845              	.LASF17:
 4846 053e 696E7433 		.ascii	"int32_t\000"
 4846      325F7400 
 4847              	.LASF4:
 4848 0546 756E7369 		.ascii	"unsigned char\000"
 4848      676E6564 
 4848      20636861 
 4848      7200
 4849              	.LASF141:
 4850 0554 6E657773 		.ascii	"newstate\000"
 4850      74617465 
 4850      00
 4851              	.LASF0:
 4852 055d 756E7369 		.ascii	"unsigned int\000"
 4852      676E6564 
 4852      20696E74 
 4852      00
 4853              	.LASF58:
 4854 056a 72666375 		.ascii	"rfcu_t\000"
 4854      5F7400
 4855              	.LASF140:
 4856 0571 63685363 		.ascii	"chSchGoSleepTimeoutS\000"
 4856      68476F53 
 4856      6C656570 
 4856      54696D65 
 4856      6F757453 
 4857              	.LASF98:
 4858 0586 6C617374 		.ascii	"lasttime\000"
 4858      74696D65 
 4858      00
 4859              	.LASF151:
 4860 058f 63685365 		.ascii	"chSemFastSignalI\000"
 4860      6D466173 
 4860      74536967 
 4860      6E616C49 
 4860      00
 4861              	.LASF77:
 4862 05a0 77746F62 		.ascii	"wtobjp\000"
 4862      6A7000
 4863              	.LASF113:
 4864 05a7 65776D61 		.ascii	"ewmask\000"
 4864      736B00
 4865              	.LASF144:
 4866 05ae 5F5F6675 		.ascii	"__func__\000"
ARM GAS  C:\Users\DEVELO~1\AppData\Local\Temp\ccW7fz6e.s 			page 91


 4866      6E635F5F 
 4866      00
 4867              	.LASF152:
 4868 05b7 63685654 		.ascii	"chVTIsArmedI\000"
 4868      49734172 
 4868      6D656449 
 4868      00
 4869              	.LASF78:
 4870 05c4 72656173 		.ascii	"reason\000"
 4870      6F6E00
 4871              	.LASF92:
 4872 05cb 63685F76 		.ascii	"ch_virtual_timer\000"
 4872      69727475 
 4872      616C5F74 
 4872      696D6572 
 4872      00
 4873              	.LASF114:
 4874 05dc 63685F73 		.ascii	"ch_semaphore\000"
 4874      656D6170 
 4874      686F7265 
 4874      00
 4875              	.LASF143:
 4876 05e9 63685363 		.ascii	"chSchGoSleepS\000"
 4876      68476F53 
 4876      6C656570 
 4876      5300
 4877              	.LASF103:
 4878 05f7 72656769 		.ascii	"registry_t\000"
 4878      73747279 
 4878      5F7400
 4879              	.LASF18:
 4880 0602 75696E74 		.ascii	"uint32_t\000"
 4880      33325F74 
 4880      00
 4881              	.LASF112:
 4882 060b 77746D74 		.ascii	"wtmtxp\000"
 4882      787000
 4883              	.LASF20:
 4884 0612 706F7274 		.ascii	"port_stkalign_t\000"
 4884      5F73746B 
 4884      616C6967 
 4884      6E5F7400 
 4885              	.LASF32:
 4886 0622 6F776E65 		.ascii	"owner\000"
 4886      7200
 4887              	.LASF2:
 4888 0628 6C6F6E67 		.ascii	"long double\000"
 4888      20646F75 
 4888      626C6500 
 4889              	.LASF34:
 4890 0634 77616261 		.ascii	"wabase\000"
 4890      736500
 4891              	.LASF61:
 4892 063b 63686172 		.ascii	"char\000"
 4892      00
 4893              	.LASF94:
 4894 0640 66756E63 		.ascii	"func\000"
ARM GAS  C:\Users\DEVELO~1\AppData\Local\Temp\ccW7fz6e.s 			page 92


 4894      00
 4895              	.LASF9:
 4896 0645 5F5F696E 		.ascii	"__int32_t\000"
 4896      7433325F 
 4896      7400
 4897              	.LASF162:
 4898 064f 63685F71 		.ascii	"ch_queue_dequeue\000"
 4898      75657565 
 4898      5F646571 
 4898      75657565 
 4898      00
 4899              	.LASF7:
 4900 0660 5F5F7569 		.ascii	"__uint16_t\000"
 4900      6E743136 
 4900      5F7400
 4901              	.LASF145:
 4902 066b 63685363 		.ascii	"chSchReadyI\000"
 4902      68526561 
 4902      64794900 
 4903              	.LASF155:
 4904 0677 706F7274 		.ascii	"port_unlock_from_isr\000"
 4904      5F756E6C 
 4904      6F636B5F 
 4904      66726F6D 
 4904      5F697372 
 4905              	.LASF30:
 4906 068c 74687265 		.ascii	"thread_t\000"
 4906      61645F74 
 4906      00
 4907              	.LASF93:
 4908 0695 646C6973 		.ascii	"dlist\000"
 4908      7400
 4909              	.LASF63:
 4910 069b 73797374 		.ascii	"systime_t\000"
 4910      696D655F 
 4910      7400
 4911              	.LASF87:
 4912 06a5 62756666 		.ascii	"buffer\000"
 4912      657200
 4913              	.LASF71:
 4914 06ac 63685F70 		.ascii	"ch_priority_queue_t\000"
 4914      72696F72 
 4914      6974795F 
 4914      71756575 
 4914      655F7400 
 4915              	.LASF60:
 4916 06c0 70616E69 		.ascii	"panic_msg\000"
 4916      635F6D73 
 4916      6700
 4917              	.LASF106:
 4918 06ca 70717565 		.ascii	"pqueue\000"
 4918      756500
 4919              	.LASF164:
 4920 06d1 2E2E2F2E 		.ascii	"../../../os/rt/src/chschd.c\000"
 4920      2E2F2E2E 
 4920      2F6F732F 
 4920      72742F73 
ARM GAS  C:\Users\DEVELO~1\AppData\Local\Temp\ccW7fz6e.s 			page 93


 4920      72632F63 
 4921              	.LASF46:
 4922 06ed 63685F6F 		.ascii	"ch_os_instance\000"
 4922      735F696E 
 4922      7374616E 
 4922      636500
 4923              	.LASF44:
 4924 06fc 6F735F69 		.ascii	"os_instance_t\000"
 4924      6E737461 
 4924      6E63655F 
 4924      7400
 4925              	.LASF49:
 4926 070a 7265676C 		.ascii	"reglist\000"
 4926      69737400 
 4927              	.LASF135:
 4928 0712 63685363 		.ascii	"chSchDoPreemption\000"
 4928      68446F50 
 4928      7265656D 
 4928      7074696F 
 4928      6E00
 4929              	.LASF72:
 4930 0724 63685F70 		.ascii	"ch_priority_queue\000"
 4930      72696F72 
 4930      6974795F 
 4930      71756575 
 4930      6500
 4931              	.LASF156:
 4932 0736 706F7274 		.ascii	"port_lock_from_isr\000"
 4932      5F6C6F63 
 4932      6B5F6672 
 4932      6F6D5F69 
 4932      737200
 4933              	.LASF74:
 4934 0749 63685F64 		.ascii	"ch_delta_list_t\000"
 4934      656C7461 
 4934      5F6C6973 
 4934      745F7400 
 4935              	.LASF121:
 4936 0759 6D61696E 		.ascii	"mainthread_end\000"
 4936      74687265 
 4936      61645F65 
 4936      6E6400
 4937              	.LASF139:
 4938 0768 63685363 		.ascii	"chSchWakeupS\000"
 4938      6857616B 
 4938      65757053 
 4938      00
 4939              	.LASF43:
 4940 0775 6D706F6F 		.ascii	"mpool\000"
 4940      6C00
 4941              	.LASF124:
 4942 077b 6F735F69 		.ascii	"os_instance_config_t\000"
 4942      6E737461 
 4942      6E63655F 
 4942      636F6E66 
 4942      69675F74 
 4943              	.LASF125:
ARM GAS  C:\Users\DEVELO~1\AppData\Local\Temp\ccW7fz6e.s 			page 94


 4944 0790 73656D61 		.ascii	"semaphore_t\000"
 4944      70686F72 
 4944      655F7400 
 4945              	.LASF47:
 4946 079c 726C6973 		.ascii	"rlist\000"
 4946      7400
 4947              	.LASF15:
 4948 07a2 75696E74 		.ascii	"uint8_t\000"
 4948      385F7400 
 4949              	.LASF36:
 4950 07aa 666C6167 		.ascii	"flags\000"
 4950      7300
 4951              	.LASF132:
 4952 07b0 5F5F7472 		.ascii	"__trace_ready\000"
 4952      6163655F 
 4952      72656164 
 4952      7900
 4953              	.LASF52:
 4954 07be 636F6E66 		.ascii	"config\000"
 4954      696700
 4955              	.LASF115:
 4956 07c5 63685F6D 		.ascii	"ch_mutex\000"
 4956      75746578 
 4956      00
 4957              	.LASF133:
 4958 07ce 63685363 		.ascii	"chSchDoYieldS\000"
 4958      68446F59 
 4958      69656C64 
 4958      5300
 4959              	.LASF96:
 4960 07dc 76746675 		.ascii	"vtfunc_t\000"
 4960      6E635F74 
 4960      00
 4961              	.LASF54:
 4962 07e5 74726163 		.ascii	"trace_buffer\000"
 4962      655F6275 
 4962      66666572 
 4962      00
 4963              	.LASF105:
 4964 07f2 6C697374 		.ascii	"list\000"
 4964      00
 4965              	.LASF158:
 4966 07f7 706F7274 		.ascii	"port_lock\000"
 4966      5F6C6F63 
 4966      6B00
 4967              	.LASF123:
 4968 0801 69646C65 		.ascii	"idlethread_end\000"
 4968      74687265 
 4968      61645F65 
 4968      6E6400
 4969              	.LASF41:
 4970 0810 6D74786C 		.ascii	"mtxlist\000"
 4970      69737400 
 4971              	.LASF165:
 4972 0818 433A5C50 		.ascii	"C:\\PROJET\\ChibiOS project\\ChibiOS_21.11.4\\demos"
 4972      524F4A45 
 4972      545C4368 
ARM GAS  C:\Users\DEVELO~1\AppData\Local\Temp\ccW7fz6e.s 			page 95


 4972      6962694F 
 4972      53207072 
 4973 0847 5C53544D 		.ascii	"\\STM32\\RT-STM32H743ZI_REV_XY-NUCLEO144_Quartz8M\000"
 4973      33325C52 
 4973      542D5354 
 4973      4D333248 
 4973      3734335A 
 4974              		.ident	"GCC: (Arm GNU Toolchain 11.3.Rel1) 11.3.1 20220712"
ARM GAS  C:\Users\DEVELO~1\AppData\Local\Temp\ccW7fz6e.s 			page 96


DEFINED SYMBOLS
                            *ABS*:00000000 chschd.c
C:\Users\DEVELO~1\AppData\Local\Temp\ccW7fz6e.s:18     .text.ch_queue_dequeue:00000000 $t
C:\Users\DEVELO~1\AppData\Local\Temp\ccW7fz6e.s:23     .text.ch_queue_dequeue:00000000 ch_queue_dequeue
C:\Users\DEVELO~1\AppData\Local\Temp\ccW7fz6e.s:72     .text.ch_pqueue_remove_highest:00000000 $t
C:\Users\DEVELO~1\AppData\Local\Temp\ccW7fz6e.s:77     .text.ch_pqueue_remove_highest:00000000 ch_pqueue_remove_highest
C:\Users\DEVELO~1\AppData\Local\Temp\ccW7fz6e.s:125    .text.ch_pqueue_insert_behind:00000000 $t
C:\Users\DEVELO~1\AppData\Local\Temp\ccW7fz6e.s:130    .text.ch_pqueue_insert_behind:00000000 ch_pqueue_insert_behind
C:\Users\DEVELO~1\AppData\Local\Temp\ccW7fz6e.s:200    .text.ch_pqueue_insert_ahead:00000000 $t
C:\Users\DEVELO~1\AppData\Local\Temp\ccW7fz6e.s:205    .text.ch_pqueue_insert_ahead:00000000 ch_pqueue_insert_ahead
C:\Users\DEVELO~1\AppData\Local\Temp\ccW7fz6e.s:275    .text.chSysLockFromISR:00000000 $t
C:\Users\DEVELO~1\AppData\Local\Temp\ccW7fz6e.s:280    .text.chSysLockFromISR:00000000 chSysLockFromISR
C:\Users\DEVELO~1\AppData\Local\Temp\ccW7fz6e.s:340    .text.chSysUnlockFromISR:00000000 $t
C:\Users\DEVELO~1\AppData\Local\Temp\ccW7fz6e.s:345    .text.chSysUnlockFromISR:00000000 chSysUnlockFromISR
C:\Users\DEVELO~1\AppData\Local\Temp\ccW7fz6e.s:402    .text.chVTIsArmedI:00000000 $t
C:\Users\DEVELO~1\AppData\Local\Temp\ccW7fz6e.s:407    .text.chVTIsArmedI:00000000 chVTIsArmedI
C:\Users\DEVELO~1\AppData\Local\Temp\ccW7fz6e.s:447    .text.chSemFastSignalI:00000000 $t
C:\Users\DEVELO~1\AppData\Local\Temp\ccW7fz6e.s:452    .text.chSemFastSignalI:00000000 chSemFastSignalI
C:\Users\DEVELO~1\AppData\Local\Temp\ccW7fz6e.s:490    .text.__sch_ready_behind:00000000 $t
C:\Users\DEVELO~1\AppData\Local\Temp\ccW7fz6e.s:495    .text.__sch_ready_behind:00000000 __sch_ready_behind
C:\Users\DEVELO~1\AppData\Local\Temp\ccW7fz6e.s:542    .text.__sch_ready_ahead:00000000 $t
C:\Users\DEVELO~1\AppData\Local\Temp\ccW7fz6e.s:547    .text.__sch_ready_ahead:00000000 __sch_ready_ahead
C:\Users\DEVELO~1\AppData\Local\Temp\ccW7fz6e.s:593    .text.__sch_reschedule_behind:00000000 $t
C:\Users\DEVELO~1\AppData\Local\Temp\ccW7fz6e.s:598    .text.__sch_reschedule_behind:00000000 __sch_reschedule_behind
C:\Users\DEVELO~1\AppData\Local\Temp\ccW7fz6e.s:654    .text.__sch_reschedule_behind:00000048 $d
C:\Users\DEVELO~1\AppData\Local\Temp\ccW7fz6e.s:659    .text.__sch_reschedule_ahead:00000000 $t
C:\Users\DEVELO~1\AppData\Local\Temp\ccW7fz6e.s:664    .text.__sch_reschedule_ahead:00000000 __sch_reschedule_ahead
C:\Users\DEVELO~1\AppData\Local\Temp\ccW7fz6e.s:720    .text.__sch_reschedule_ahead:00000048 $d
C:\Users\DEVELO~1\AppData\Local\Temp\ccW7fz6e.s:725    .text.__sch_wakeup:00000000 $t
C:\Users\DEVELO~1\AppData\Local\Temp\ccW7fz6e.s:730    .text.__sch_wakeup:00000000 __sch_wakeup
C:\Users\DEVELO~1\AppData\Local\Temp\ccW7fz6e.s:761    .text.__sch_wakeup:00000024 $d
C:\Users\DEVELO~1\AppData\Local\Temp\ccW7fz6e.s:774    .text.__sch_wakeup:00000058 $t
C:\Users\DEVELO~1\AppData\Local\Temp\ccW7fz6e.s:830    .text.chSchReadyI:00000000 $t
C:\Users\DEVELO~1\AppData\Local\Temp\ccW7fz6e.s:836    .text.chSchReadyI:00000000 chSchReadyI
C:\Users\DEVELO~1\AppData\Local\Temp\ccW7fz6e.s:867    .text.chSchGoSleepS:00000000 $t
C:\Users\DEVELO~1\AppData\Local\Temp\ccW7fz6e.s:873    .text.chSchGoSleepS:00000000 chSchGoSleepS
C:\Users\DEVELO~1\AppData\Local\Temp\ccW7fz6e.s:931    .text.chSchGoSleepS:0000004c $d
C:\Users\DEVELO~1\AppData\Local\Temp\ccW7fz6e.s:936    .text.chSchGoSleepTimeoutS:00000000 $t
C:\Users\DEVELO~1\AppData\Local\Temp\ccW7fz6e.s:942    .text.chSchGoSleepTimeoutS:00000000 chSchGoSleepTimeoutS
C:\Users\DEVELO~1\AppData\Local\Temp\ccW7fz6e.s:1012   .text.chSchGoSleepTimeoutS:00000060 $d
C:\Users\DEVELO~1\AppData\Local\Temp\ccW7fz6e.s:1018   .text.chSchWakeupS:00000000 $t
C:\Users\DEVELO~1\AppData\Local\Temp\ccW7fz6e.s:1024   .text.chSchWakeupS:00000000 chSchWakeupS
C:\Users\DEVELO~1\AppData\Local\Temp\ccW7fz6e.s:1101   .text.chSchWakeupS:00000068 $d
C:\Users\DEVELO~1\AppData\Local\Temp\ccW7fz6e.s:1106   .text.chSchRescheduleS:00000000 $t
C:\Users\DEVELO~1\AppData\Local\Temp\ccW7fz6e.s:1112   .text.chSchRescheduleS:00000000 chSchRescheduleS
C:\Users\DEVELO~1\AppData\Local\Temp\ccW7fz6e.s:1161   .text.chSchRescheduleS:00000034 $d
C:\Users\DEVELO~1\AppData\Local\Temp\ccW7fz6e.s:1166   .text.chSchIsPreemptionRequired:00000000 $t
C:\Users\DEVELO~1\AppData\Local\Temp\ccW7fz6e.s:1172   .text.chSchIsPreemptionRequired:00000000 chSchIsPreemptionRequired
C:\Users\DEVELO~1\AppData\Local\Temp\ccW7fz6e.s:1225   .text.chSchIsPreemptionRequired:00000038 $d
C:\Users\DEVELO~1\AppData\Local\Temp\ccW7fz6e.s:1230   .text.chSchDoPreemption:00000000 $t
C:\Users\DEVELO~1\AppData\Local\Temp\ccW7fz6e.s:1236   .text.chSchDoPreemption:00000000 chSchDoPreemption
C:\Users\DEVELO~1\AppData\Local\Temp\ccW7fz6e.s:1292   .text.chSchDoPreemption:00000048 $d
C:\Users\DEVELO~1\AppData\Local\Temp\ccW7fz6e.s:1297   .text.chSchPreemption:00000000 $t
C:\Users\DEVELO~1\AppData\Local\Temp\ccW7fz6e.s:1303   .text.chSchPreemption:00000000 chSchPreemption
C:\Users\DEVELO~1\AppData\Local\Temp\ccW7fz6e.s:1359   .text.chSchPreemption:0000003c $d
C:\Users\DEVELO~1\AppData\Local\Temp\ccW7fz6e.s:1364   .text.chSchDoYieldS:00000000 $t
C:\Users\DEVELO~1\AppData\Local\Temp\ccW7fz6e.s:1370   .text.chSchDoYieldS:00000000 chSchDoYieldS
ARM GAS  C:\Users\DEVELO~1\AppData\Local\Temp\ccW7fz6e.s 			page 97


C:\Users\DEVELO~1\AppData\Local\Temp\ccW7fz6e.s:1419   .text.chSchDoYieldS:00000034 $d
C:\Users\DEVELO~1\AppData\Local\Temp\ccW7fz6e.s:1424   .text.chSchSelectFirst:00000000 $t
C:\Users\DEVELO~1\AppData\Local\Temp\ccW7fz6e.s:1430   .text.chSchSelectFirst:00000000 chSchSelectFirst
C:\Users\DEVELO~1\AppData\Local\Temp\ccW7fz6e.s:1480   .text.chSchSelectFirst:00000038 $d

UNDEFINED SYMBOLS
__trace_ready
__trace_switch
__port_switch
ch0
chVTDoSetI
chVTDoResetI
