ARM GAS  C:\Users\DEVELO~1\AppData\Local\Temp\ccW7fz6e.s 			page 1


   1              		.cpu cortex-m7
   2              		.arch armv7e-m
   3              		.fpu softvfp
   4              		.eabi_attribute 20, 1
   5              		.eabi_attribute 21, 1
   6              		.eabi_attribute 23, 3
   7              		.eabi_attribute 24, 1
   8              		.eabi_attribute 25, 1
   9              		.eabi_attribute 26, 1
  10              		.eabi_attribute 30, 6
  11              		.eabi_attribute 34, 1
  12              		.eabi_attribute 18, 4
  13              		.file	"chschd.c"
  14              		.text
  15              	.Ltext0:
  16              		.cfi_sections	.debug_frame
  17              		.section	.text.ch_queue_dequeue,"ax",%progbits
  18              		.align	1
  19              		.syntax unified
  20              		.thumb
  21              		.thumb_func
  22              		.type	ch_queue_dequeue, %function
  23              	ch_queue_dequeue:
  24              	.LFB25:
  25              		.file 1 "../../../os/rt/include/chlists.h"
  26              		.loc 1 318 59
  27              		.cfi_startproc
  28              		@ args = 0, pretend = 0, frame = 8
  29              		@ frame_needed = 1, uses_anonymous_args = 0
  30              		@ link register save eliminated.
  31 0000 80B4     		push	{r7}
  32              		.cfi_def_cfa_offset 4
  33              		.cfi_offset 7, -4
  34 0002 83B0     		sub	sp, sp, #12
  35              		.cfi_def_cfa_offset 16
  36 0004 00AF     		add	r7, sp, #0
  37              		.cfi_def_cfa_register 7
  38 0006 7860     		str	r0, [r7, #4]
  39              		.loc 1 320 4
  40 0008 7B68     		ldr	r3, [r7, #4]
  41 000a 5B68     		ldr	r3, [r3, #4]
  42              		.loc 1 320 20
  43 000c 7A68     		ldr	r2, [r7, #4]
  44 000e 1268     		ldr	r2, [r2]
  45              		.loc 1 320 17
  46 0010 1A60     		str	r2, [r3]
  47              		.loc 1 321 4
  48 0012 7B68     		ldr	r3, [r7, #4]
  49 0014 1B68     		ldr	r3, [r3]
  50              		.loc 1 321 20
  51 0016 7A68     		ldr	r2, [r7, #4]
  52 0018 5268     		ldr	r2, [r2, #4]
  53              		.loc 1 321 17
  54 001a 5A60     		str	r2, [r3, #4]
  55              		.loc 1 323 10
  56 001c 7B68     		ldr	r3, [r7, #4]
  57              		.loc 1 324 1
ARM GAS  C:\Users\DEVELO~1\AppData\Local\Temp\ccW7fz6e.s 			page 2


  58 001e 1846     		mov	r0, r3
  59 0020 0C37     		adds	r7, r7, #12
  60              		.cfi_def_cfa_offset 4
  61 0022 BD46     		mov	sp, r7
  62              		.cfi_def_cfa_register 13
  63              		@ sp needed
  64 0024 80BC     		pop	{r7}
  65              		.cfi_restore 7
  66              		.cfi_def_cfa_offset 0
  67 0026 7047     		bx	lr
  68              		.cfi_endproc
  69              	.LFE25:
  70              		.size	ch_queue_dequeue, .-ch_queue_dequeue
  71              		.section	.text.ch_pqueue_remove_highest,"ax",%progbits
  72              		.align	1
  73              		.syntax unified
  74              		.thumb
  75              		.thumb_func
  76              		.type	ch_pqueue_remove_highest, %function
  77              	ch_pqueue_remove_highest:
  78              	.LFB27:
  79              		.loc 1 352 87
  80              		.cfi_startproc
  81              		@ args = 0, pretend = 0, frame = 16
  82              		@ frame_needed = 1, uses_anonymous_args = 0
  83              		@ link register save eliminated.
  84 0000 80B4     		push	{r7}
  85              		.cfi_def_cfa_offset 4
  86              		.cfi_offset 7, -4
  87 0002 85B0     		sub	sp, sp, #20
  88              		.cfi_def_cfa_offset 24
  89 0004 00AF     		add	r7, sp, #0
  90              		.cfi_def_cfa_register 7
  91 0006 7860     		str	r0, [r7, #4]
  92              		.loc 1 353 24
  93 0008 7B68     		ldr	r3, [r7, #4]
  94 000a 1B68     		ldr	r3, [r3]
  95 000c FB60     		str	r3, [r7, #12]
  96              		.loc 1 355 22
  97 000e FB68     		ldr	r3, [r7, #12]
  98 0010 1A68     		ldr	r2, [r3]
  99              		.loc 1 355 19
 100 0012 7B68     		ldr	r3, [r7, #4]
 101 0014 1A60     		str	r2, [r3]
 102              		.loc 1 356 6
 103 0016 7B68     		ldr	r3, [r7, #4]
 104 0018 1B68     		ldr	r3, [r3]
 105              		.loc 1 356 19
 106 001a 7A68     		ldr	r2, [r7, #4]
 107 001c 5A60     		str	r2, [r3, #4]
 108              		.loc 1 358 10
 109 001e FB68     		ldr	r3, [r7, #12]
 110              		.loc 1 359 1
 111 0020 1846     		mov	r0, r3
 112 0022 1437     		adds	r7, r7, #20
 113              		.cfi_def_cfa_offset 4
 114 0024 BD46     		mov	sp, r7
ARM GAS  C:\Users\DEVELO~1\AppData\Local\Temp\ccW7fz6e.s 			page 3


 115              		.cfi_def_cfa_register 13
 116              		@ sp needed
 117 0026 80BC     		pop	{r7}
 118              		.cfi_restore 7
 119              		.cfi_def_cfa_offset 0
 120 0028 7047     		bx	lr
 121              		.cfi_endproc
 122              	.LFE27:
 123              		.size	ch_pqueue_remove_highest, .-ch_pqueue_remove_highest
 124              		.section	.text.ch_pqueue_insert_behind,"ax",%progbits
 125              		.align	1
 126              		.syntax unified
 127              		.thumb
 128              		.thumb_func
 129              		.type	ch_pqueue_insert_behind, %function
 130              	ch_pqueue_insert_behind:
 131              	.LFB28:
 132              		.loc 1 374 84
 133              		.cfi_startproc
 134              		@ args = 0, pretend = 0, frame = 8
 135              		@ frame_needed = 1, uses_anonymous_args = 0
 136              		@ link register save eliminated.
 137 0000 80B4     		push	{r7}
 138              		.cfi_def_cfa_offset 4
 139              		.cfi_offset 7, -4
 140 0002 83B0     		sub	sp, sp, #12
 141              		.cfi_def_cfa_offset 16
 142 0004 00AF     		add	r7, sp, #0
 143              		.cfi_def_cfa_register 7
 144 0006 7860     		str	r0, [r7, #4]
 145 0008 3960     		str	r1, [r7]
 146              	.L6:
 147              		.loc 1 378 9 discriminator 1
 148 000a 7B68     		ldr	r3, [r7, #4]
 149 000c 1B68     		ldr	r3, [r3]
 150 000e 7B60     		str	r3, [r7, #4]
 151              		.loc 1 379 12 discriminator 1
 152 0010 7B68     		ldr	r3, [r7, #4]
 153 0012 9A68     		ldr	r2, [r3, #8]
 154 0014 3B68     		ldr	r3, [r7]
 155 0016 9B68     		ldr	r3, [r3, #8]
 156 0018 9A42     		cmp	r2, r3
 157 001a 2CBF     		ite	cs
 158 001c 0123     		movcs	r3, #1
 159 001e 0023     		movcc	r3, #0
 160 0020 DBB2     		uxtb	r3, r3
 161 0022 002B     		cmp	r3, #0
 162 0024 F1D1     		bne	.L6
 163              		.loc 1 382 17
 164 0026 3B68     		ldr	r3, [r7]
 165 0028 7A68     		ldr	r2, [r7, #4]
 166 002a 1A60     		str	r2, [r3]
 167              		.loc 1 383 22
 168 002c 7B68     		ldr	r3, [r7, #4]
 169 002e 5A68     		ldr	r2, [r3, #4]
 170              		.loc 1 383 17
 171 0030 3B68     		ldr	r3, [r7]
ARM GAS  C:\Users\DEVELO~1\AppData\Local\Temp\ccW7fz6e.s 			page 4


 172 0032 5A60     		str	r2, [r3, #4]
 173              		.loc 1 384 4
 174 0034 3B68     		ldr	r3, [r7]
 175 0036 5B68     		ldr	r3, [r3, #4]
 176              		.loc 1 384 17
 177 0038 3A68     		ldr	r2, [r7]
 178 003a 1A60     		str	r2, [r3]
 179              		.loc 1 385 17
 180 003c 7B68     		ldr	r3, [r7, #4]
 181 003e 3A68     		ldr	r2, [r7]
 182 0040 5A60     		str	r2, [r3, #4]
 183              		.loc 1 387 10
 184 0042 3B68     		ldr	r3, [r7]
 185              		.loc 1 388 1
 186 0044 1846     		mov	r0, r3
 187 0046 0C37     		adds	r7, r7, #12
 188              		.cfi_def_cfa_offset 4
 189 0048 BD46     		mov	sp, r7
 190              		.cfi_def_cfa_register 13
 191              		@ sp needed
 192 004a 80BC     		pop	{r7}
 193              		.cfi_restore 7
 194              		.cfi_def_cfa_offset 0
 195 004c 7047     		bx	lr
 196              		.cfi_endproc
 197              	.LFE28:
 198              		.size	ch_pqueue_insert_behind, .-ch_pqueue_insert_behind
 199              		.section	.text.ch_pqueue_insert_ahead,"ax",%progbits
 200              		.align	1
 201              		.syntax unified
 202              		.thumb
 203              		.thumb_func
 204              		.type	ch_pqueue_insert_ahead, %function
 205              	ch_pqueue_insert_ahead:
 206              	.LFB29:
 207              		.loc 1 403 83
 208              		.cfi_startproc
 209              		@ args = 0, pretend = 0, frame = 8
 210              		@ frame_needed = 1, uses_anonymous_args = 0
 211              		@ link register save eliminated.
 212 0000 80B4     		push	{r7}
 213              		.cfi_def_cfa_offset 4
 214              		.cfi_offset 7, -4
 215 0002 83B0     		sub	sp, sp, #12
 216              		.cfi_def_cfa_offset 16
 217 0004 00AF     		add	r7, sp, #0
 218              		.cfi_def_cfa_register 7
 219 0006 7860     		str	r0, [r7, #4]
 220 0008 3960     		str	r1, [r7]
 221              	.L9:
 222              		.loc 1 407 9 discriminator 1
 223 000a 7B68     		ldr	r3, [r7, #4]
 224 000c 1B68     		ldr	r3, [r3]
 225 000e 7B60     		str	r3, [r7, #4]
 226              		.loc 1 408 12 discriminator 1
 227 0010 7B68     		ldr	r3, [r7, #4]
 228 0012 9A68     		ldr	r2, [r3, #8]
ARM GAS  C:\Users\DEVELO~1\AppData\Local\Temp\ccW7fz6e.s 			page 5


 229 0014 3B68     		ldr	r3, [r7]
 230 0016 9B68     		ldr	r3, [r3, #8]
 231 0018 9A42     		cmp	r2, r3
 232 001a 8CBF     		ite	hi
 233 001c 0123     		movhi	r3, #1
 234 001e 0023     		movls	r3, #0
 235 0020 DBB2     		uxtb	r3, r3
 236 0022 002B     		cmp	r3, #0
 237 0024 F1D1     		bne	.L9
 238              		.loc 1 411 17
 239 0026 3B68     		ldr	r3, [r7]
 240 0028 7A68     		ldr	r2, [r7, #4]
 241 002a 1A60     		str	r2, [r3]
 242              		.loc 1 412 22
 243 002c 7B68     		ldr	r3, [r7, #4]
 244 002e 5A68     		ldr	r2, [r3, #4]
 245              		.loc 1 412 17
 246 0030 3B68     		ldr	r3, [r7]
 247 0032 5A60     		str	r2, [r3, #4]
 248              		.loc 1 413 4
 249 0034 3B68     		ldr	r3, [r7]
 250 0036 5B68     		ldr	r3, [r3, #4]
 251              		.loc 1 413 17
 252 0038 3A68     		ldr	r2, [r7]
 253 003a 1A60     		str	r2, [r3]
 254              		.loc 1 414 17
 255 003c 7B68     		ldr	r3, [r7, #4]
 256 003e 3A68     		ldr	r2, [r7]
 257 0040 5A60     		str	r2, [r3, #4]
 258              		.loc 1 416 10
 259 0042 3B68     		ldr	r3, [r7]
 260              		.loc 1 417 1
 261 0044 1846     		mov	r0, r3
 262 0046 0C37     		adds	r7, r7, #12
 263              		.cfi_def_cfa_offset 4
 264 0048 BD46     		mov	sp, r7
 265              		.cfi_def_cfa_register 13
 266              		@ sp needed
 267 004a 80BC     		pop	{r7}
 268              		.cfi_restore 7
 269              		.cfi_def_cfa_offset 0
 270 004c 7047     		bx	lr
 271              		.cfi_endproc
 272              	.LFE29:
 273              		.size	ch_pqueue_insert_ahead, .-ch_pqueue_insert_ahead
 274              		.section	.text.chSysLockFromISR,"ax",%progbits
 275              		.align	1
 276              		.syntax unified
 277              		.thumb
 278              		.thumb_func
 279              		.type	chSysLockFromISR, %function
 280              	chSysLockFromISR:
 281              	.LFB204:
 282              		.file 2 "../../../os/rt/include/chsys.h"
 283              		.loc 2 451 43
 284              		.cfi_startproc
 285              		@ args = 0, pretend = 0, frame = 8
ARM GAS  C:\Users\DEVELO~1\AppData\Local\Temp\ccW7fz6e.s 			page 6


 286              		@ frame_needed = 1, uses_anonymous_args = 0
 287              		@ link register save eliminated.
 288 0000 80B4     		push	{r7}
 289              		.cfi_def_cfa_offset 4
 290              		.cfi_offset 7, -4
 291 0002 83B0     		sub	sp, sp, #12
 292              		.cfi_def_cfa_offset 16
 293 0004 00AF     		add	r7, sp, #0
 294              		.cfi_def_cfa_register 7
 295 0006 3023     		movs	r3, #48
 296 0008 7B60     		str	r3, [r7, #4]
 297              	.LBB26:
 298              	.LBB27:
 299              	.LBB28:
 300              	.LBB29:
 301              	.LBB30:
 302              	.LBB31:
 303              		.file 3 "../../../os/common/ext/ARM/CMSIS/Core/Include/cmsis_gcc.h"
 304              		.loc 3 493 3
 305 000a 7B68     		ldr	r3, [r7, #4]
 306              		.syntax unified
 307              	@ 493 "../../../os/common/ext/ARM/CMSIS/Core/Include/cmsis_gcc.h" 1
 308 000c 83F31188 		MSR basepri, r3
 309              	@ 0 "" 2
 310              		.loc 3 494 1
 311              		.thumb
 312              		.syntax unified
 313 0010 00BF     		nop
 314              	.LBE31:
 315              	.LBE30:
 316              		.file 4 "../../../os/common/ports/ARMv7-M/chcore.h"
 317              		.loc 4 840 1
 318 0012 00BF     		nop
 319              	.LBE29:
 320              	.LBE28:
 321              		.loc 4 865 1
 322 0014 00BF     		nop
 323              	.LBE27:
 324              	.LBE26:
 325              		.loc 2 456 1
 326 0016 00BF     		nop
 327 0018 0C37     		adds	r7, r7, #12
 328              		.cfi_def_cfa_offset 4
 329 001a BD46     		mov	sp, r7
 330              		.cfi_def_cfa_register 13
 331              		@ sp needed
 332 001c 80BC     		pop	{r7}
 333              		.cfi_restore 7
 334              		.cfi_def_cfa_offset 0
 335 001e 7047     		bx	lr
 336              		.cfi_endproc
 337              	.LFE204:
 338              		.size	chSysLockFromISR, .-chSysLockFromISR
 339              		.section	.text.chSysUnlockFromISR,"ax",%progbits
 340              		.align	1
 341              		.syntax unified
 342              		.thumb
ARM GAS  C:\Users\DEVELO~1\AppData\Local\Temp\ccW7fz6e.s 			page 7


 343              		.thumb_func
 344              		.type	chSysUnlockFromISR, %function
 345              	chSysUnlockFromISR:
 346              	.LFB205:
 347              		.loc 2 473 45
 348              		.cfi_startproc
 349              		@ args = 0, pretend = 0, frame = 8
 350              		@ frame_needed = 1, uses_anonymous_args = 0
 351              		@ link register save eliminated.
 352 0000 80B4     		push	{r7}
 353              		.cfi_def_cfa_offset 4
 354              		.cfi_offset 7, -4
 355 0002 83B0     		sub	sp, sp, #12
 356              		.cfi_def_cfa_offset 16
 357 0004 00AF     		add	r7, sp, #0
 358              		.cfi_def_cfa_register 7
 359 0006 0023     		movs	r3, #0
 360 0008 7B60     		str	r3, [r7, #4]
 361              	.LBB32:
 362              	.LBB33:
 363              	.LBB34:
 364              	.LBB35:
 365              	.LBB36:
 366              	.LBB37:
 367              		.loc 3 493 3
 368 000a 7B68     		ldr	r3, [r7, #4]
 369              		.syntax unified
 370              	@ 493 "../../../os/common/ext/ARM/CMSIS/Core/Include/cmsis_gcc.h" 1
 371 000c 83F31188 		MSR basepri, r3
 372              	@ 0 "" 2
 373              		.loc 3 494 1
 374              		.thumb
 375              		.syntax unified
 376 0010 00BF     		nop
 377              	.LBE37:
 378              	.LBE36:
 379              		.loc 4 854 1
 380 0012 00BF     		nop
 381              	.LBE35:
 382              	.LBE34:
 383              		.loc 4 876 1
 384 0014 00BF     		nop
 385              	.LBE33:
 386              	.LBE32:
 387              		.loc 2 478 1
 388 0016 00BF     		nop
 389 0018 0C37     		adds	r7, r7, #12
 390              		.cfi_def_cfa_offset 4
 391 001a BD46     		mov	sp, r7
 392              		.cfi_def_cfa_register 13
 393              		@ sp needed
 394 001c 80BC     		pop	{r7}
 395              		.cfi_restore 7
 396              		.cfi_def_cfa_offset 0
 397 001e 7047     		bx	lr
 398              		.cfi_endproc
 399              	.LFE205:
ARM GAS  C:\Users\DEVELO~1\AppData\Local\Temp\ccW7fz6e.s 			page 8


 400              		.size	chSysUnlockFromISR, .-chSysUnlockFromISR
 401              		.section	.text.chVTIsArmedI,"ax",%progbits
 402              		.align	1
 403              		.syntax unified
 404              		.thumb
 405              		.thumb_func
 406              		.type	chVTIsArmedI, %function
 407              	chVTIsArmedI:
 408              	.LFB215:
 409              		.file 5 "../../../os/rt/include/chvt.h"
 410              		.loc 5 248 61
 411              		.cfi_startproc
 412              		@ args = 0, pretend = 0, frame = 8
 413              		@ frame_needed = 1, uses_anonymous_args = 0
 414              		@ link register save eliminated.
 415 0000 80B4     		push	{r7}
 416              		.cfi_def_cfa_offset 4
 417              		.cfi_offset 7, -4
 418 0002 83B0     		sub	sp, sp, #12
 419              		.cfi_def_cfa_offset 16
 420 0004 00AF     		add	r7, sp, #0
 421              		.cfi_def_cfa_register 7
 422 0006 7860     		str	r0, [r7, #4]
 423              		.loc 5 252 27
 424 0008 7B68     		ldr	r3, [r7, #4]
 425 000a 1B68     		ldr	r3, [r3]
 426              		.loc 5 252 10
 427 000c 002B     		cmp	r3, #0
 428 000e 14BF     		ite	ne
 429 0010 0123     		movne	r3, #1
 430 0012 0023     		moveq	r3, #0
 431 0014 DBB2     		uxtb	r3, r3
 432              		.loc 5 253 1
 433 0016 1846     		mov	r0, r3
 434 0018 0C37     		adds	r7, r7, #12
 435              		.cfi_def_cfa_offset 4
 436 001a BD46     		mov	sp, r7
 437              		.cfi_def_cfa_register 13
 438              		@ sp needed
 439 001c 80BC     		pop	{r7}
 440              		.cfi_restore 7
 441              		.cfi_def_cfa_offset 0
 442 001e 7047     		bx	lr
 443              		.cfi_endproc
 444              	.LFE215:
 445              		.size	chVTIsArmedI, .-chVTIsArmedI
 446              		.section	.text.chSemFastSignalI,"ax",%progbits
 447              		.align	1
 448              		.syntax unified
 449              		.thumb
 450              		.thumb_func
 451              		.type	chSemFastSignalI, %function
 452              	chSemFastSignalI:
 453              	.LFB246:
 454              		.file 6 "../../../os/rt/include/chsem.h"
 455              		.loc 6 174 54
 456              		.cfi_startproc
ARM GAS  C:\Users\DEVELO~1\AppData\Local\Temp\ccW7fz6e.s 			page 9


 457              		@ args = 0, pretend = 0, frame = 8
 458              		@ frame_needed = 1, uses_anonymous_args = 0
 459              		@ link register save eliminated.
 460 0000 80B4     		push	{r7}
 461              		.cfi_def_cfa_offset 4
 462              		.cfi_offset 7, -4
 463 0002 83B0     		sub	sp, sp, #12
 464              		.cfi_def_cfa_offset 16
 465 0004 00AF     		add	r7, sp, #0
 466              		.cfi_def_cfa_register 7
 467 0006 7860     		str	r0, [r7, #4]
 468              		.loc 6 178 5
 469 0008 7B68     		ldr	r3, [r7, #4]
 470 000a 9B68     		ldr	r3, [r3, #8]
 471              		.loc 6 178 10
 472 000c 5A1C     		adds	r2, r3, #1
 473 000e 7B68     		ldr	r3, [r7, #4]
 474 0010 9A60     		str	r2, [r3, #8]
 475              		.loc 6 179 1
 476 0012 00BF     		nop
 477 0014 0C37     		adds	r7, r7, #12
 478              		.cfi_def_cfa_offset 4
 479 0016 BD46     		mov	sp, r7
 480              		.cfi_def_cfa_register 13
 481              		@ sp needed
 482 0018 80BC     		pop	{r7}
 483              		.cfi_restore 7
 484              		.cfi_def_cfa_offset 0
 485 001a 7047     		bx	lr
 486              		.cfi_endproc
 487              	.LFE246:
 488              		.size	chSemFastSignalI, .-chSemFastSignalI
 489              		.section	.text.__sch_ready_behind,"ax",%progbits
 490              		.align	1
 491              		.syntax unified
 492              		.thumb
 493              		.thumb_func
 494              		.type	__sch_ready_behind, %function
 495              	__sch_ready_behind:
 496              	.LFB346:
 497              		.file 7 "../../../os/rt/src/chschd.c"
 498              		.loc 7 67 51
 499              		.cfi_startproc
 500              		@ args = 0, pretend = 0, frame = 8
 501              		@ frame_needed = 1, uses_anonymous_args = 0
 502 0000 80B5     		push	{r7, lr}
 503              		.cfi_def_cfa_offset 8
 504              		.cfi_offset 7, -8
 505              		.cfi_offset 14, -4
 506 0002 82B0     		sub	sp, sp, #8
 507              		.cfi_def_cfa_offset 16
 508 0004 00AF     		add	r7, sp, #0
 509              		.cfi_def_cfa_register 7
 510 0006 7860     		str	r0, [r7, #4]
 511              		.loc 7 74 3
 512 0008 7B68     		ldr	r3, [r7, #4]
 513 000a 9B6A     		ldr	r3, [r3, #40]
ARM GAS  C:\Users\DEVELO~1\AppData\Local\Temp\ccW7fz6e.s 			page 10


 514 000c 1946     		mov	r1, r3
 515 000e 7868     		ldr	r0, [r7, #4]
 516 0010 FFF7FEFF 		bl	__trace_ready
 517              		.loc 7 77 13
 518 0014 7B68     		ldr	r3, [r7, #4]
 519 0016 0022     		movs	r2, #0
 520 0018 83F82420 		strb	r2, [r3, #36]
 521              		.loc 7 80 10
 522 001c 7B68     		ldr	r3, [r7, #4]
 523 001e 9B69     		ldr	r3, [r3, #24]
 524 0020 1A46     		mov	r2, r3
 525 0022 7B68     		ldr	r3, [r7, #4]
 526 0024 1946     		mov	r1, r3
 527 0026 1046     		mov	r0, r2
 528 0028 FFF7FEFF 		bl	ch_pqueue_insert_behind
 529 002c 0346     		mov	r3, r0
 530              		.loc 7 82 1
 531 002e 1846     		mov	r0, r3
 532 0030 0837     		adds	r7, r7, #8
 533              		.cfi_def_cfa_offset 8
 534 0032 BD46     		mov	sp, r7
 535              		.cfi_def_cfa_register 13
 536              		@ sp needed
 537 0034 80BD     		pop	{r7, pc}
 538              		.cfi_endproc
 539              	.LFE346:
 540              		.size	__sch_ready_behind, .-__sch_ready_behind
 541              		.section	.text.__sch_ready_ahead,"ax",%progbits
 542              		.align	1
 543              		.syntax unified
 544              		.thumb
 545              		.thumb_func
 546              		.type	__sch_ready_ahead, %function
 547              	__sch_ready_ahead:
 548              	.LFB347:
 549              		.loc 7 100 50
 550              		.cfi_startproc
 551              		@ args = 0, pretend = 0, frame = 8
 552              		@ frame_needed = 1, uses_anonymous_args = 0
 553 0000 80B5     		push	{r7, lr}
 554              		.cfi_def_cfa_offset 8
 555              		.cfi_offset 7, -8
 556              		.cfi_offset 14, -4
 557 0002 82B0     		sub	sp, sp, #8
 558              		.cfi_def_cfa_offset 16
 559 0004 00AF     		add	r7, sp, #0
 560              		.cfi_def_cfa_register 7
 561 0006 7860     		str	r0, [r7, #4]
 562              		.loc 7 107 3
 563 0008 7B68     		ldr	r3, [r7, #4]
 564 000a 9B6A     		ldr	r3, [r3, #40]
 565 000c 1946     		mov	r1, r3
 566 000e 7868     		ldr	r0, [r7, #4]
 567 0010 FFF7FEFF 		bl	__trace_ready
 568              		.loc 7 110 13
 569 0014 7B68     		ldr	r3, [r7, #4]
 570 0016 0022     		movs	r2, #0
ARM GAS  C:\Users\DEVELO~1\AppData\Local\Temp\ccW7fz6e.s 			page 11


 571 0018 83F82420 		strb	r2, [r3, #36]
 572              		.loc 7 113 10
 573 001c 7B68     		ldr	r3, [r7, #4]
 574 001e 9B69     		ldr	r3, [r3, #24]
 575 0020 1A46     		mov	r2, r3
 576 0022 7B68     		ldr	r3, [r7, #4]
 577 0024 1946     		mov	r1, r3
 578 0026 1046     		mov	r0, r2
 579 0028 FFF7FEFF 		bl	ch_pqueue_insert_ahead
 580 002c 0346     		mov	r3, r0
 581              		.loc 7 115 1
 582 002e 1846     		mov	r0, r3
 583 0030 0837     		adds	r7, r7, #8
 584              		.cfi_def_cfa_offset 8
 585 0032 BD46     		mov	sp, r7
 586              		.cfi_def_cfa_register 13
 587              		@ sp needed
 588 0034 80BD     		pop	{r7, pc}
 589              		.cfi_endproc
 590              	.LFE347:
 591              		.size	__sch_ready_ahead, .-__sch_ready_ahead
 592              		.section	.text.__sch_reschedule_behind,"ax",%progbits
 593              		.align	1
 594              		.syntax unified
 595              		.thumb
 596              		.thumb_func
 597              		.type	__sch_reschedule_behind, %function
 598              	__sch_reschedule_behind:
 599              	.LFB348:
 600              		.loc 7 127 43
 601              		.cfi_startproc
 602              		@ args = 0, pretend = 0, frame = 16
 603              		@ frame_needed = 1, uses_anonymous_args = 0
 604 0000 80B5     		push	{r7, lr}
 605              		.cfi_def_cfa_offset 8
 606              		.cfi_offset 7, -8
 607              		.cfi_offset 14, -4
 608 0002 84B0     		sub	sp, sp, #16
 609              		.cfi_def_cfa_offset 24
 610 0004 00AF     		add	r7, sp, #0
 611              		.cfi_def_cfa_register 7
 612              		.loc 7 128 18
 613 0006 104B     		ldr	r3, .L21
 614 0008 FB60     		str	r3, [r7, #12]
 615              		.loc 7 129 13
 616 000a FB68     		ldr	r3, [r7, #12]
 617 000c DB68     		ldr	r3, [r3, #12]
 618 000e BB60     		str	r3, [r7, #8]
 619              		.loc 7 133 9
 620 0010 FB68     		ldr	r3, [r7, #12]
 621 0012 1846     		mov	r0, r3
 622 0014 FFF7FEFF 		bl	ch_pqueue_remove_highest
 623 0018 7860     		str	r0, [r7, #4]
 624              		.loc 7 134 14
 625 001a 7B68     		ldr	r3, [r7, #4]
 626 001c 0122     		movs	r2, #1
 627 001e 83F82420 		strb	r2, [r3, #36]
ARM GAS  C:\Users\DEVELO~1\AppData\Local\Temp\ccW7fz6e.s 			page 12


 628              		.loc 7 135 3
 629 0022 FB68     		ldr	r3, [r7, #12]
 630 0024 7A68     		ldr	r2, [r7, #4]
 631 0026 DA60     		str	r2, [r3, #12]
 632              		.loc 7 148 9
 633 0028 B868     		ldr	r0, [r7, #8]
 634 002a FFF7FEFF 		bl	__sch_ready_behind
 635 002e B860     		str	r0, [r7, #8]
 636              		.loc 7 151 3
 637 0030 B968     		ldr	r1, [r7, #8]
 638 0032 7868     		ldr	r0, [r7, #4]
 639 0034 FFF7FEFF 		bl	__trace_switch
 640 0038 B968     		ldr	r1, [r7, #8]
 641 003a 7868     		ldr	r0, [r7, #4]
 642 003c FFF7FEFF 		bl	__port_switch
 643              		.loc 7 152 1
 644 0040 00BF     		nop
 645 0042 1037     		adds	r7, r7, #16
 646              		.cfi_def_cfa_offset 8
 647 0044 BD46     		mov	sp, r7
 648              		.cfi_def_cfa_register 13
 649              		@ sp needed
 650 0046 80BD     		pop	{r7, pc}
 651              	.L22:
 652              		.align	2
 653              	.L21:
 654 0048 00000000 		.word	ch0
 655              		.cfi_endproc
 656              	.LFE348:
 657              		.size	__sch_reschedule_behind, .-__sch_reschedule_behind
 658              		.section	.text.__sch_reschedule_ahead,"ax",%progbits
 659              		.align	1
 660              		.syntax unified
 661              		.thumb
 662              		.thumb_func
 663              		.type	__sch_reschedule_ahead, %function
 664              	__sch_reschedule_ahead:
 665              	.LFB349:
 666              		.loc 7 163 42
 667              		.cfi_startproc
 668              		@ args = 0, pretend = 0, frame = 16
 669              		@ frame_needed = 1, uses_anonymous_args = 0
 670 0000 80B5     		push	{r7, lr}
 671              		.cfi_def_cfa_offset 8
 672              		.cfi_offset 7, -8
 673              		.cfi_offset 14, -4
 674 0002 84B0     		sub	sp, sp, #16
 675              		.cfi_def_cfa_offset 24
 676 0004 00AF     		add	r7, sp, #0
 677              		.cfi_def_cfa_register 7
 678              		.loc 7 164 18
 679 0006 104B     		ldr	r3, .L24
 680 0008 FB60     		str	r3, [r7, #12]
 681              		.loc 7 165 13
 682 000a FB68     		ldr	r3, [r7, #12]
 683 000c DB68     		ldr	r3, [r3, #12]
 684 000e BB60     		str	r3, [r7, #8]
ARM GAS  C:\Users\DEVELO~1\AppData\Local\Temp\ccW7fz6e.s 			page 13


 685              		.loc 7 169 9
 686 0010 FB68     		ldr	r3, [r7, #12]
 687 0012 1846     		mov	r0, r3
 688 0014 FFF7FEFF 		bl	ch_pqueue_remove_highest
 689 0018 7860     		str	r0, [r7, #4]
 690              		.loc 7 170 14
 691 001a 7B68     		ldr	r3, [r7, #4]
 692 001c 0122     		movs	r2, #1
 693 001e 83F82420 		strb	r2, [r3, #36]
 694              		.loc 7 171 3
 695 0022 FB68     		ldr	r3, [r7, #12]
 696 0024 7A68     		ldr	r2, [r7, #4]
 697 0026 DA60     		str	r2, [r3, #12]
 698              		.loc 7 179 9
 699 0028 B868     		ldr	r0, [r7, #8]
 700 002a FFF7FEFF 		bl	__sch_ready_ahead
 701 002e B860     		str	r0, [r7, #8]
 702              		.loc 7 182 3
 703 0030 B968     		ldr	r1, [r7, #8]
 704 0032 7868     		ldr	r0, [r7, #4]
 705 0034 FFF7FEFF 		bl	__trace_switch
 706 0038 B968     		ldr	r1, [r7, #8]
 707 003a 7868     		ldr	r0, [r7, #4]
 708 003c FFF7FEFF 		bl	__port_switch
 709              		.loc 7 183 1
 710 0040 00BF     		nop
 711 0042 1037     		adds	r7, r7, #16
 712              		.cfi_def_cfa_offset 8
 713 0044 BD46     		mov	sp, r7
 714              		.cfi_def_cfa_register 13
 715              		@ sp needed
 716 0046 80BD     		pop	{r7, pc}
 717              	.L25:
 718              		.align	2
 719              	.L24:
 720 0048 00000000 		.word	ch0
 721              		.cfi_endproc
 722              	.LFE349:
 723              		.size	__sch_reschedule_ahead, .-__sch_reschedule_ahead
 724              		.section	.text.__sch_wakeup,"ax",%progbits
 725              		.align	1
 726              		.syntax unified
 727              		.thumb
 728              		.thumb_func
 729              		.type	__sch_wakeup, %function
 730              	__sch_wakeup:
 731              	.LFB350:
 732              		.loc 7 188 57
 733              		.cfi_startproc
 734              		@ args = 0, pretend = 0, frame = 16
 735              		@ frame_needed = 1, uses_anonymous_args = 0
 736 0000 80B5     		push	{r7, lr}
 737              		.cfi_def_cfa_offset 8
 738              		.cfi_offset 7, -8
 739              		.cfi_offset 14, -4
 740 0002 84B0     		sub	sp, sp, #16
 741              		.cfi_def_cfa_offset 24
ARM GAS  C:\Users\DEVELO~1\AppData\Local\Temp\ccW7fz6e.s 			page 14


 742 0004 00AF     		add	r7, sp, #0
 743              		.cfi_def_cfa_register 7
 744 0006 7860     		str	r0, [r7, #4]
 745 0008 3960     		str	r1, [r7]
 746              		.loc 7 189 13
 747 000a 3B68     		ldr	r3, [r7]
 748 000c FB60     		str	r3, [r7, #12]
 749              		.loc 7 193 3
 750 000e FFF7FEFF 		bl	chSysLockFromISR
 751              		.loc 7 194 13
 752 0012 FB68     		ldr	r3, [r7, #12]
 753 0014 93F82430 		ldrb	r3, [r3, #36]	@ zero_extendqisi2
 754              		.loc 7 194 3
 755 0018 0C2B     		cmp	r3, #12
 756 001a 2FD8     		bhi	.L35
 757 001c 01A2     		adr	r2, .L29
 758 001e 52F823F0 		ldr	pc, [r2, r3, lsl #2]
 759 0022 00BF     		.p2align 2
 760              	.L29:
 761 0024 59000000 		.word	.L32+1
 762 0028 7D000000 		.word	.L35+1
 763 002c 7D000000 		.word	.L35+1
 764 0030 5F000000 		.word	.L31+1
 765 0034 73000000 		.word	.L28+1
 766 0038 69000000 		.word	.L30+1
 767 003c 7D000000 		.word	.L35+1
 768 0040 73000000 		.word	.L28+1
 769 0044 7D000000 		.word	.L35+1
 770 0048 7D000000 		.word	.L35+1
 771 004c 7D000000 		.word	.L35+1
 772 0050 7D000000 		.word	.L35+1
 773 0054 73000000 		.word	.L28+1
 774              		.p2align 1
 775              	.L32:
 776              		.loc 7 198 5
 777 0058 FFF7FEFF 		bl	chSysUnlockFromISR
 778              		.loc 7 199 5
 779 005c 19E0     		b	.L26
 780              	.L31:
 781              		.loc 7 201 11
 782 005e FB68     		ldr	r3, [r7, #12]
 783 0060 9B6A     		ldr	r3, [r3, #40]
 784              		.loc 7 201 18
 785 0062 0022     		movs	r2, #0
 786 0064 1A60     		str	r2, [r3]
 787              		.loc 7 202 5
 788 0066 0AE0     		b	.L34
 789              	.L30:
 790              		.loc 7 205 27
 791 0068 FB68     		ldr	r3, [r7, #12]
 792 006a 9B6A     		ldr	r3, [r3, #40]
 793              		.loc 7 205 5
 794 006c 1846     		mov	r0, r3
 795 006e FFF7FEFF 		bl	chSemFastSignalI
 796              	.L28:
 797              		.loc 7 218 12
 798 0072 FB68     		ldr	r3, [r7, #12]
ARM GAS  C:\Users\DEVELO~1\AppData\Local\Temp\ccW7fz6e.s 			page 15


 799 0074 1846     		mov	r0, r3
 800 0076 FFF7FEFF 		bl	ch_queue_dequeue
 801              		.loc 7 219 5
 802 007a 00E0     		b	.L34
 803              	.L35:
 804              		.loc 7 222 5
 805 007c 00BF     		nop
 806              	.L34:
 807              		.loc 7 226 16
 808 007e FB68     		ldr	r3, [r7, #12]
 809 0080 4FF0FF32 		mov	r2, #-1
 810 0084 9A62     		str	r2, [r3, #40]
 811              		.loc 7 229 10
 812 0086 F868     		ldr	r0, [r7, #12]
 813 0088 FFF7FEFF 		bl	__sch_ready_behind
 814              		.loc 7 230 3
 815 008c FFF7FEFF 		bl	chSysUnlockFromISR
 816              		.loc 7 232 3
 817 0090 00BF     		nop
 818              	.L26:
 819              		.loc 7 233 1
 820 0092 1037     		adds	r7, r7, #16
 821              		.cfi_def_cfa_offset 8
 822 0094 BD46     		mov	sp, r7
 823              		.cfi_def_cfa_register 13
 824              		@ sp needed
 825 0096 80BD     		pop	{r7, pc}
 826              		.cfi_endproc
 827              	.LFE350:
 828              		.size	__sch_wakeup, .-__sch_wakeup
 829              		.section	.text.chSchReadyI,"ax",%progbits
 830              		.align	1
 831              		.global	chSchReadyI
 832              		.syntax unified
 833              		.thumb
 834              		.thumb_func
 835              		.type	chSchReadyI, %function
 836              	chSchReadyI:
 837              	.LFB351:
 838              		.loc 7 280 37
 839              		.cfi_startproc
 840              		@ args = 0, pretend = 0, frame = 8
 841              		@ frame_needed = 1, uses_anonymous_args = 0
 842 0000 80B5     		push	{r7, lr}
 843              		.cfi_def_cfa_offset 8
 844              		.cfi_offset 7, -8
 845              		.cfi_offset 14, -4
 846 0002 82B0     		sub	sp, sp, #8
 847              		.cfi_def_cfa_offset 16
 848 0004 00AF     		add	r7, sp, #0
 849              		.cfi_def_cfa_register 7
 850 0006 7860     		str	r0, [r7, #4]
 851              		.loc 7 293 10
 852 0008 7868     		ldr	r0, [r7, #4]
 853 000a FFF7FEFF 		bl	__sch_ready_behind
 854 000e 0346     		mov	r3, r0
 855              		.loc 7 294 1
ARM GAS  C:\Users\DEVELO~1\AppData\Local\Temp\ccW7fz6e.s 			page 16


 856 0010 1846     		mov	r0, r3
 857 0012 0837     		adds	r7, r7, #8
 858              		.cfi_def_cfa_offset 8
 859 0014 BD46     		mov	sp, r7
 860              		.cfi_def_cfa_register 13
 861              		@ sp needed
 862 0016 80BD     		pop	{r7, pc}
 863              		.cfi_endproc
 864              	.LFE351:
 865              		.size	chSchReadyI, .-chSchReadyI
 866              		.section	.text.chSchGoSleepS,"ax",%progbits
 867              		.align	1
 868              		.global	chSchGoSleepS
 869              		.syntax unified
 870              		.thumb
 871              		.thumb_func
 872              		.type	chSchGoSleepS, %function
 873              	chSchGoSleepS:
 874              	.LFB352:
 875              		.loc 7 305 39
 876              		.cfi_startproc
 877              		@ args = 0, pretend = 0, frame = 24
 878              		@ frame_needed = 1, uses_anonymous_args = 0
 879 0000 80B5     		push	{r7, lr}
 880              		.cfi_def_cfa_offset 8
 881              		.cfi_offset 7, -8
 882              		.cfi_offset 14, -4
 883 0002 86B0     		sub	sp, sp, #24
 884              		.cfi_def_cfa_offset 32
 885 0004 00AF     		add	r7, sp, #0
 886              		.cfi_def_cfa_register 7
 887 0006 0346     		mov	r3, r0
 888 0008 FB71     		strb	r3, [r7, #7]
 889              		.loc 7 306 18
 890 000a 104B     		ldr	r3, .L40
 891 000c 3B61     		str	r3, [r7, #16]
 892              		.loc 7 307 13
 893 000e 3B69     		ldr	r3, [r7, #16]
 894 0010 DB68     		ldr	r3, [r3, #12]
 895 0012 FB60     		str	r3, [r7, #12]
 896              		.loc 7 316 14
 897 0014 FB68     		ldr	r3, [r7, #12]
 898 0016 FA79     		ldrb	r2, [r7, #7]
 899 0018 83F82420 		strb	r2, [r3, #36]
 900              		.loc 7 325 9
 901 001c 3B69     		ldr	r3, [r7, #16]
 902 001e 1846     		mov	r0, r3
 903 0020 FFF7FEFF 		bl	ch_pqueue_remove_highest
 904 0024 7861     		str	r0, [r7, #20]
 905              		.loc 7 326 14
 906 0026 7B69     		ldr	r3, [r7, #20]
 907 0028 0122     		movs	r2, #1
 908 002a 83F82420 		strb	r2, [r3, #36]
 909              		.loc 7 327 3
 910 002e 3B69     		ldr	r3, [r7, #16]
 911 0030 7A69     		ldr	r2, [r7, #20]
 912 0032 DA60     		str	r2, [r3, #12]
ARM GAS  C:\Users\DEVELO~1\AppData\Local\Temp\ccW7fz6e.s 			page 17


 913              		.loc 7 335 3
 914 0034 F968     		ldr	r1, [r7, #12]
 915 0036 7869     		ldr	r0, [r7, #20]
 916 0038 FFF7FEFF 		bl	__trace_switch
 917 003c F968     		ldr	r1, [r7, #12]
 918 003e 7869     		ldr	r0, [r7, #20]
 919 0040 FFF7FEFF 		bl	__port_switch
 920              		.loc 7 336 1
 921 0044 00BF     		nop
 922 0046 1837     		adds	r7, r7, #24
 923              		.cfi_def_cfa_offset 8
 924 0048 BD46     		mov	sp, r7
 925              		.cfi_def_cfa_register 13
 926              		@ sp needed
 927 004a 80BD     		pop	{r7, pc}
 928              	.L41:
 929              		.align	2
 930              	.L40:
 931 004c 00000000 		.word	ch0
 932              		.cfi_endproc
 933              	.LFE352:
 934              		.size	chSchGoSleepS, .-chSchGoSleepS
 935              		.section	.text.chSchGoSleepTimeoutS,"ax",%progbits
 936              		.align	1
 937              		.global	chSchGoSleepTimeoutS
 938              		.syntax unified
 939              		.thumb
 940              		.thumb_func
 941              		.type	chSchGoSleepTimeoutS, %function
 942              	chSchGoSleepTimeoutS:
 943              	.LFB353:
 944              		.loc 7 359 70
 945              		.cfi_startproc
 946              		@ args = 0, pretend = 0, frame = 40
 947              		@ frame_needed = 1, uses_anonymous_args = 0
 948 0000 80B5     		push	{r7, lr}
 949              		.cfi_def_cfa_offset 8
 950              		.cfi_offset 7, -8
 951              		.cfi_offset 14, -4
 952 0002 8AB0     		sub	sp, sp, #40
 953              		.cfi_def_cfa_offset 48
 954 0004 00AF     		add	r7, sp, #0
 955              		.cfi_def_cfa_register 7
 956 0006 0346     		mov	r3, r0
 957 0008 3960     		str	r1, [r7]
 958 000a FB71     		strb	r3, [r7, #7]
 959              		.loc 7 360 13
 960 000c 144B     		ldr	r3, .L47
 961 000e DB68     		ldr	r3, [r3, #12]
 962 0010 7B62     		str	r3, [r7, #36]
 963              		.loc 7 364 6
 964 0012 3B68     		ldr	r3, [r7]
 965 0014 B3F1FF3F 		cmp	r3, #-1
 966 0018 18D0     		beq	.L43
 967              	.LBB38:
 968              		.loc 7 367 5
 969 001a 07F10C00 		add	r0, r7, #12
ARM GAS  C:\Users\DEVELO~1\AppData\Local\Temp\ccW7fz6e.s 			page 18


 970 001e 7B6A     		ldr	r3, [r7, #36]
 971 0020 104A     		ldr	r2, .L47+4
 972 0022 3968     		ldr	r1, [r7]
 973 0024 FFF7FEFF 		bl	chVTDoSetI
 974              		.loc 7 368 5
 975 0028 FB79     		ldrb	r3, [r7, #7]	@ zero_extendqisi2
 976 002a 1846     		mov	r0, r3
 977 002c FFF7FEFF 		bl	chSchGoSleepS
 978              		.loc 7 369 9
 979 0030 07F10C03 		add	r3, r7, #12
 980 0034 1846     		mov	r0, r3
 981 0036 FFF7FEFF 		bl	chVTIsArmedI
 982 003a 0346     		mov	r3, r0
 983              		.loc 7 369 8
 984 003c 002B     		cmp	r3, #0
 985 003e 09D0     		beq	.L45
 986              		.loc 7 370 7
 987 0040 07F10C03 		add	r3, r7, #12
 988 0044 1846     		mov	r0, r3
 989 0046 FFF7FEFF 		bl	chVTDoResetI
 990 004a 03E0     		b	.L45
 991              	.L43:
 992              	.LBE38:
 993              		.loc 7 374 5
 994 004c FB79     		ldrb	r3, [r7, #7]	@ zero_extendqisi2
 995 004e 1846     		mov	r0, r3
 996 0050 FFF7FEFF 		bl	chSchGoSleepS
 997              	.L45:
 998              		.loc 7 377 15
 999 0054 7B6A     		ldr	r3, [r7, #36]
 1000 0056 9B6A     		ldr	r3, [r3, #40]
 1001              		.loc 7 378 1
 1002 0058 1846     		mov	r0, r3
 1003 005a 2837     		adds	r7, r7, #40
 1004              		.cfi_def_cfa_offset 8
 1005 005c BD46     		mov	sp, r7
 1006              		.cfi_def_cfa_register 13
 1007              		@ sp needed
 1008 005e 80BD     		pop	{r7, pc}
 1009              	.L48:
 1010              		.align	2
 1011              	.L47:
 1012 0060 00000000 		.word	ch0
 1013 0064 00000000 		.word	__sch_wakeup
 1014              		.cfi_endproc
 1015              	.LFE353:
 1016              		.size	chSchGoSleepTimeoutS, .-chSchGoSleepTimeoutS
 1017              		.section	.text.chSchWakeupS,"ax",%progbits
 1018              		.align	1
 1019              		.global	chSchWakeupS
 1020              		.syntax unified
 1021              		.thumb
 1022              		.thumb_func
 1023              		.type	chSchWakeupS, %function
 1024              	chSchWakeupS:
 1025              	.LFB354:
 1026              		.loc 7 397 45
ARM GAS  C:\Users\DEVELO~1\AppData\Local\Temp\ccW7fz6e.s 			page 19


 1027              		.cfi_startproc
 1028              		@ args = 0, pretend = 0, frame = 16
 1029              		@ frame_needed = 1, uses_anonymous_args = 0
 1030 0000 80B5     		push	{r7, lr}
 1031              		.cfi_def_cfa_offset 8
 1032              		.cfi_offset 7, -8
 1033              		.cfi_offset 14, -4
 1034 0002 84B0     		sub	sp, sp, #16
 1035              		.cfi_def_cfa_offset 24
 1036 0004 00AF     		add	r7, sp, #0
 1037              		.cfi_def_cfa_register 7
 1038 0006 7860     		str	r0, [r7, #4]
 1039 0008 3960     		str	r1, [r7]
 1040              		.loc 7 398 18
 1041 000a 174B     		ldr	r3, .L53
 1042 000c BB60     		str	r3, [r7, #8]
 1043              		.loc 7 399 13
 1044 000e BB68     		ldr	r3, [r7, #8]
 1045 0010 DB68     		ldr	r3, [r3, #12]
 1046 0012 FB60     		str	r3, [r7, #12]
 1047              		.loc 7 409 17
 1048 0014 7B68     		ldr	r3, [r7, #4]
 1049 0016 3A68     		ldr	r2, [r7]
 1050 0018 9A62     		str	r2, [r3, #40]
 1051              		.loc 7 427 7
 1052 001a 7B68     		ldr	r3, [r7, #4]
 1053 001c 9A68     		ldr	r2, [r3, #8]
 1054 001e FB68     		ldr	r3, [r7, #12]
 1055 0020 9B68     		ldr	r3, [r3, #8]
 1056 0022 9A42     		cmp	r2, r3
 1057 0024 94BF     		ite	ls
 1058 0026 0123     		movls	r3, #1
 1059 0028 0023     		movhi	r3, #0
 1060 002a DBB2     		uxtb	r3, r3
 1061              		.loc 7 427 6
 1062 002c 002B     		cmp	r3, #0
 1063 002e 03D0     		beq	.L50
 1064              		.loc 7 428 12
 1065 0030 7868     		ldr	r0, [r7, #4]
 1066 0032 FFF7FEFF 		bl	__sch_ready_behind
 1067              		.loc 7 447 1
 1068 0036 12E0     		b	.L52
 1069              	.L50:
 1070              		.loc 7 433 11
 1071 0038 F868     		ldr	r0, [r7, #12]
 1072 003a FFF7FEFF 		bl	__sch_ready_ahead
 1073 003e F860     		str	r0, [r7, #12]
 1074              		.loc 7 441 16
 1075 0040 7B68     		ldr	r3, [r7, #4]
 1076 0042 0122     		movs	r2, #1
 1077 0044 83F82420 		strb	r2, [r3, #36]
 1078              		.loc 7 442 5
 1079 0048 BB68     		ldr	r3, [r7, #8]
 1080 004a 7A68     		ldr	r2, [r7, #4]
 1081 004c DA60     		str	r2, [r3, #12]
 1082              		.loc 7 445 5
 1083 004e F968     		ldr	r1, [r7, #12]
ARM GAS  C:\Users\DEVELO~1\AppData\Local\Temp\ccW7fz6e.s 			page 20


 1084 0050 7868     		ldr	r0, [r7, #4]
 1085 0052 FFF7FEFF 		bl	__trace_switch
 1086 0056 F968     		ldr	r1, [r7, #12]
 1087 0058 7868     		ldr	r0, [r7, #4]
 1088 005a FFF7FEFF 		bl	__port_switch
 1089              	.L52:
 1090              		.loc 7 447 1
 1091 005e 00BF     		nop
 1092 0060 1037     		adds	r7, r7, #16
 1093              		.cfi_def_cfa_offset 8
 1094 0062 BD46     		mov	sp, r7
 1095              		.cfi_def_cfa_register 13
 1096              		@ sp needed
 1097 0064 80BD     		pop	{r7, pc}
 1098              	.L54:
 1099 0066 00BF     		.align	2
 1100              	.L53:
 1101 0068 00000000 		.word	ch0
 1102              		.cfi_endproc
 1103              	.LFE354:
 1104              		.size	chSchWakeupS, .-chSchWakeupS
 1105              		.section	.text.chSchRescheduleS,"ax",%progbits
 1106              		.align	1
 1107              		.global	chSchRescheduleS
 1108              		.syntax unified
 1109              		.thumb
 1110              		.thumb_func
 1111              		.type	chSchRescheduleS, %function
 1112              	chSchRescheduleS:
 1113              	.LFB355:
 1114              		.loc 7 458 29
 1115              		.cfi_startproc
 1116              		@ args = 0, pretend = 0, frame = 8
 1117              		@ frame_needed = 1, uses_anonymous_args = 0
 1118 0000 80B5     		push	{r7, lr}
 1119              		.cfi_def_cfa_offset 8
 1120              		.cfi_offset 7, -8
 1121              		.cfi_offset 14, -4
 1122 0002 82B0     		sub	sp, sp, #8
 1123              		.cfi_def_cfa_offset 16
 1124 0004 00AF     		add	r7, sp, #0
 1125              		.cfi_def_cfa_register 7
 1126              		.loc 7 459 18
 1127 0006 0B4B     		ldr	r3, .L58
 1128 0008 7B60     		str	r3, [r7, #4]
 1129              		.loc 7 460 13
 1130 000a 7B68     		ldr	r3, [r7, #4]
 1131 000c DB68     		ldr	r3, [r3, #12]
 1132 000e 3B60     		str	r3, [r7]
 1133              		.loc 7 466 7
 1134 0010 7B68     		ldr	r3, [r7, #4]
 1135 0012 1B68     		ldr	r3, [r3]
 1136 0014 9A68     		ldr	r2, [r3, #8]
 1137 0016 3B68     		ldr	r3, [r7]
 1138 0018 9B68     		ldr	r3, [r3, #8]
 1139 001a 9A42     		cmp	r2, r3
 1140 001c 8CBF     		ite	hi
ARM GAS  C:\Users\DEVELO~1\AppData\Local\Temp\ccW7fz6e.s 			page 21


 1141 001e 0123     		movhi	r3, #1
 1142 0020 0023     		movls	r3, #0
 1143 0022 DBB2     		uxtb	r3, r3
 1144              		.loc 7 466 6
 1145 0024 002B     		cmp	r3, #0
 1146 0026 01D0     		beq	.L57
 1147              		.loc 7 467 5
 1148 0028 FFF7FEFF 		bl	__sch_reschedule_ahead
 1149              	.L57:
 1150              		.loc 7 469 1
 1151 002c 00BF     		nop
 1152 002e 0837     		adds	r7, r7, #8
 1153              		.cfi_def_cfa_offset 8
 1154 0030 BD46     		mov	sp, r7
 1155              		.cfi_def_cfa_register 13
 1156              		@ sp needed
 1157 0032 80BD     		pop	{r7, pc}
 1158              	.L59:
 1159              		.align	2
 1160              	.L58:
 1161 0034 00000000 		.word	ch0
 1162              		.cfi_endproc
 1163              	.LFE355:
 1164              		.size	chSchRescheduleS, .-chSchRescheduleS
 1165              		.section	.text.chSchIsPreemptionRequired,"ax",%progbits
 1166              		.align	1
 1167              		.global	chSchIsPreemptionRequired
 1168              		.syntax unified
 1169              		.thumb
 1170              		.thumb_func
 1171              		.type	chSchIsPreemptionRequired, %function
 1172              	chSchIsPreemptionRequired:
 1173              	.LFB356:
 1174              		.loc 7 485 38
 1175              		.cfi_startproc
 1176              		@ args = 0, pretend = 0, frame = 16
 1177              		@ frame_needed = 1, uses_anonymous_args = 0
 1178              		@ link register save eliminated.
 1179 0000 80B4     		push	{r7}
 1180              		.cfi_def_cfa_offset 4
 1181              		.cfi_offset 7, -4
 1182 0002 85B0     		sub	sp, sp, #20
 1183              		.cfi_def_cfa_offset 24
 1184 0004 00AF     		add	r7, sp, #0
 1185              		.cfi_def_cfa_register 7
 1186              		.loc 7 486 18
 1187 0006 0C4B     		ldr	r3, .L62
 1188 0008 FB60     		str	r3, [r7, #12]
 1189              		.loc 7 487 13
 1190 000a FB68     		ldr	r3, [r7, #12]
 1191 000c DB68     		ldr	r3, [r3, #12]
 1192 000e BB60     		str	r3, [r7, #8]
 1193              		.loc 7 489 16
 1194 0010 FB68     		ldr	r3, [r7, #12]
 1195 0012 1B68     		ldr	r3, [r3]
 1196              		.loc 7 489 11
 1197 0014 9B68     		ldr	r3, [r3, #8]
ARM GAS  C:\Users\DEVELO~1\AppData\Local\Temp\ccW7fz6e.s 			page 22


 1198 0016 7B60     		str	r3, [r7, #4]
 1199              		.loc 7 490 11
 1200 0018 BB68     		ldr	r3, [r7, #8]
 1201 001a 9B68     		ldr	r3, [r3, #8]
 1202 001c 3B60     		str	r3, [r7]
 1203              		.loc 7 501 13
 1204 001e 7A68     		ldr	r2, [r7, #4]
 1205 0020 3B68     		ldr	r3, [r7]
 1206 0022 9A42     		cmp	r2, r3
 1207 0024 8CBF     		ite	hi
 1208 0026 0123     		movhi	r3, #1
 1209 0028 0023     		movls	r3, #0
 1210 002a DBB2     		uxtb	r3, r3
 1211              		.loc 7 503 1
 1212 002c 1846     		mov	r0, r3
 1213 002e 1437     		adds	r7, r7, #20
 1214              		.cfi_def_cfa_offset 4
 1215 0030 BD46     		mov	sp, r7
 1216              		.cfi_def_cfa_register 13
 1217              		@ sp needed
 1218 0032 80BC     		pop	{r7}
 1219              		.cfi_restore 7
 1220              		.cfi_def_cfa_offset 0
 1221 0034 7047     		bx	lr
 1222              	.L63:
 1223 0036 00BF     		.align	2
 1224              	.L62:
 1225 0038 00000000 		.word	ch0
 1226              		.cfi_endproc
 1227              	.LFE356:
 1228              		.size	chSchIsPreemptionRequired, .-chSchIsPreemptionRequired
 1229              		.section	.text.chSchDoPreemption,"ax",%progbits
 1230              		.align	1
 1231              		.global	chSchDoPreemption
 1232              		.syntax unified
 1233              		.thumb
 1234              		.thumb_func
 1235              		.type	chSchDoPreemption, %function
 1236              	chSchDoPreemption:
 1237              	.LFB357:
 1238              		.loc 7 517 30
 1239              		.cfi_startproc
 1240              		@ args = 0, pretend = 0, frame = 16
 1241              		@ frame_needed = 1, uses_anonymous_args = 0
 1242 0000 80B5     		push	{r7, lr}
 1243              		.cfi_def_cfa_offset 8
 1244              		.cfi_offset 7, -8
 1245              		.cfi_offset 14, -4
 1246 0002 84B0     		sub	sp, sp, #16
 1247              		.cfi_def_cfa_offset 24
 1248 0004 00AF     		add	r7, sp, #0
 1249              		.cfi_def_cfa_register 7
 1250              		.loc 7 518 18
 1251 0006 104B     		ldr	r3, .L65
 1252 0008 FB60     		str	r3, [r7, #12]
 1253              		.loc 7 519 13
 1254 000a FB68     		ldr	r3, [r7, #12]
ARM GAS  C:\Users\DEVELO~1\AppData\Local\Temp\ccW7fz6e.s 			page 23


 1255 000c DB68     		ldr	r3, [r3, #12]
 1256 000e BB60     		str	r3, [r7, #8]
 1257              		.loc 7 523 9
 1258 0010 FB68     		ldr	r3, [r7, #12]
 1259 0012 1846     		mov	r0, r3
 1260 0014 FFF7FEFF 		bl	ch_pqueue_remove_highest
 1261 0018 7860     		str	r0, [r7, #4]
 1262              		.loc 7 524 14
 1263 001a 7B68     		ldr	r3, [r7, #4]
 1264 001c 0122     		movs	r2, #1
 1265 001e 83F82420 		strb	r2, [r3, #36]
 1266              		.loc 7 525 3
 1267 0022 FB68     		ldr	r3, [r7, #12]
 1268 0024 7A68     		ldr	r2, [r7, #4]
 1269 0026 DA60     		str	r2, [r3, #12]
 1270              		.loc 7 552 9
 1271 0028 B868     		ldr	r0, [r7, #8]
 1272 002a FFF7FEFF 		bl	__sch_ready_ahead
 1273 002e B860     		str	r0, [r7, #8]
 1274              		.loc 7 556 3
 1275 0030 B968     		ldr	r1, [r7, #8]
 1276 0032 7868     		ldr	r0, [r7, #4]
 1277 0034 FFF7FEFF 		bl	__trace_switch
 1278 0038 B968     		ldr	r1, [r7, #8]
 1279 003a 7868     		ldr	r0, [r7, #4]
 1280 003c FFF7FEFF 		bl	__port_switch
 1281              		.loc 7 557 1
 1282 0040 00BF     		nop
 1283 0042 1037     		adds	r7, r7, #16
 1284              		.cfi_def_cfa_offset 8
 1285 0044 BD46     		mov	sp, r7
 1286              		.cfi_def_cfa_register 13
 1287              		@ sp needed
 1288 0046 80BD     		pop	{r7, pc}
 1289              	.L66:
 1290              		.align	2
 1291              	.L65:
 1292 0048 00000000 		.word	ch0
 1293              		.cfi_endproc
 1294              	.LFE357:
 1295              		.size	chSchDoPreemption, .-chSchDoPreemption
 1296              		.section	.text.chSchPreemption,"ax",%progbits
 1297              		.align	1
 1298              		.global	chSchPreemption
 1299              		.syntax unified
 1300              		.thumb
 1301              		.thumb_func
 1302              		.type	chSchPreemption, %function
 1303              	chSchPreemption:
 1304              	.LFB358:
 1305              		.loc 7 568 28
 1306              		.cfi_startproc
 1307              		@ args = 0, pretend = 0, frame = 16
 1308              		@ frame_needed = 1, uses_anonymous_args = 0
 1309 0000 80B5     		push	{r7, lr}
 1310              		.cfi_def_cfa_offset 8
 1311              		.cfi_offset 7, -8
ARM GAS  C:\Users\DEVELO~1\AppData\Local\Temp\ccW7fz6e.s 			page 24


 1312              		.cfi_offset 14, -4
 1313 0002 84B0     		sub	sp, sp, #16
 1314              		.cfi_def_cfa_offset 24
 1315 0004 00AF     		add	r7, sp, #0
 1316              		.cfi_def_cfa_register 7
 1317              		.loc 7 569 18
 1318 0006 0D4B     		ldr	r3, .L70
 1319 0008 FB60     		str	r3, [r7, #12]
 1320              		.loc 7 570 13
 1321 000a FB68     		ldr	r3, [r7, #12]
 1322 000c DB68     		ldr	r3, [r3, #12]
 1323 000e BB60     		str	r3, [r7, #8]
 1324              		.loc 7 571 16
 1325 0010 FB68     		ldr	r3, [r7, #12]
 1326 0012 1B68     		ldr	r3, [r3]
 1327              		.loc 7 571 11
 1328 0014 9B68     		ldr	r3, [r3, #8]
 1329 0016 7B60     		str	r3, [r7, #4]
 1330              		.loc 7 572 11
 1331 0018 BB68     		ldr	r3, [r7, #8]
 1332 001a 9B68     		ldr	r3, [r3, #8]
 1333 001c 3B60     		str	r3, [r7]
 1334              		.loc 7 588 7
 1335 001e 7A68     		ldr	r2, [r7, #4]
 1336 0020 3B68     		ldr	r3, [r7]
 1337 0022 9A42     		cmp	r2, r3
 1338 0024 8CBF     		ite	hi
 1339 0026 0123     		movhi	r3, #1
 1340 0028 0023     		movls	r3, #0
 1341 002a DBB2     		uxtb	r3, r3
 1342              		.loc 7 588 6
 1343 002c 002B     		cmp	r3, #0
 1344 002e 01D0     		beq	.L69
 1345              		.loc 7 589 5
 1346 0030 FFF7FEFF 		bl	__sch_reschedule_ahead
 1347              	.L69:
 1348              		.loc 7 592 1
 1349 0034 00BF     		nop
 1350 0036 1037     		adds	r7, r7, #16
 1351              		.cfi_def_cfa_offset 8
 1352 0038 BD46     		mov	sp, r7
 1353              		.cfi_def_cfa_register 13
 1354              		@ sp needed
 1355 003a 80BD     		pop	{r7, pc}
 1356              	.L71:
 1357              		.align	2
 1358              	.L70:
 1359 003c 00000000 		.word	ch0
 1360              		.cfi_endproc
 1361              	.LFE358:
 1362              		.size	chSchPreemption, .-chSchPreemption
 1363              		.section	.text.chSchDoYieldS,"ax",%progbits
 1364              		.align	1
 1365              		.global	chSchDoYieldS
 1366              		.syntax unified
 1367              		.thumb
 1368              		.thumb_func
ARM GAS  C:\Users\DEVELO~1\AppData\Local\Temp\ccW7fz6e.s 			page 25


 1369              		.type	chSchDoYieldS, %function
 1370              	chSchDoYieldS:
 1371              	.LFB359:
 1372              		.loc 7 602 26
 1373              		.cfi_startproc
 1374              		@ args = 0, pretend = 0, frame = 8
 1375              		@ frame_needed = 1, uses_anonymous_args = 0
 1376 0000 80B5     		push	{r7, lr}
 1377              		.cfi_def_cfa_offset 8
 1378              		.cfi_offset 7, -8
 1379              		.cfi_offset 14, -4
 1380 0002 82B0     		sub	sp, sp, #8
 1381              		.cfi_def_cfa_offset 16
 1382 0004 00AF     		add	r7, sp, #0
 1383              		.cfi_def_cfa_register 7
 1384              		.loc 7 603 18
 1385 0006 0B4B     		ldr	r3, .L75
 1386 0008 7B60     		str	r3, [r7, #4]
 1387              		.loc 7 604 13
 1388 000a 7B68     		ldr	r3, [r7, #4]
 1389 000c DB68     		ldr	r3, [r3, #12]
 1390 000e 3B60     		str	r3, [r7]
 1391              		.loc 7 610 7
 1392 0010 7B68     		ldr	r3, [r7, #4]
 1393 0012 1B68     		ldr	r3, [r3]
 1394 0014 9A68     		ldr	r2, [r3, #8]
 1395 0016 3B68     		ldr	r3, [r7]
 1396 0018 9B68     		ldr	r3, [r3, #8]
 1397 001a 9A42     		cmp	r2, r3
 1398 001c 2CBF     		ite	cs
 1399 001e 0123     		movcs	r3, #1
 1400 0020 0023     		movcc	r3, #0
 1401 0022 DBB2     		uxtb	r3, r3
 1402              		.loc 7 610 6
 1403 0024 002B     		cmp	r3, #0
 1404 0026 01D0     		beq	.L74
 1405              		.loc 7 611 5
 1406 0028 FFF7FEFF 		bl	__sch_reschedule_behind
 1407              	.L74:
 1408              		.loc 7 613 1
 1409 002c 00BF     		nop
 1410 002e 0837     		adds	r7, r7, #8
 1411              		.cfi_def_cfa_offset 8
 1412 0030 BD46     		mov	sp, r7
 1413              		.cfi_def_cfa_register 13
 1414              		@ sp needed
 1415 0032 80BD     		pop	{r7, pc}
 1416              	.L76:
 1417              		.align	2
 1418              	.L75:
 1419 0034 00000000 		.word	ch0
 1420              		.cfi_endproc
 1421              	.LFE359:
 1422              		.size	chSchDoYieldS, .-chSchDoYieldS
 1423              		.section	.text.chSchSelectFirst,"ax",%progbits
 1424              		.align	1
 1425              		.global	chSchSelectFirst
ARM GAS  C:\Users\DEVELO~1\AppData\Local\Temp\ccW7fz6e.s 			page 26


 1426              		.syntax unified
 1427              		.thumb
 1428              		.thumb_func
 1429              		.type	chSchSelectFirst, %function
 1430              	chSchSelectFirst:
 1431              	.LFB360:
 1432              		.loc 7 627 34
 1433              		.cfi_startproc
 1434              		@ args = 0, pretend = 0, frame = 16
 1435              		@ frame_needed = 1, uses_anonymous_args = 0
 1436 0000 80B5     		push	{r7, lr}
 1437              		.cfi_def_cfa_offset 8
 1438              		.cfi_offset 7, -8
 1439              		.cfi_offset 14, -4
 1440 0002 84B0     		sub	sp, sp, #16
 1441              		.cfi_def_cfa_offset 24
 1442 0004 00AF     		add	r7, sp, #0
 1443              		.cfi_def_cfa_register 7
 1444              		.loc 7 628 18
 1445 0006 0C4B     		ldr	r3, .L79
 1446 0008 FB60     		str	r3, [r7, #12]
 1447              		.loc 7 629 13
 1448 000a FB68     		ldr	r3, [r7, #12]
 1449 000c DB68     		ldr	r3, [r3, #12]
 1450 000e BB60     		str	r3, [r7, #8]
 1451              		.loc 7 633 9
 1452 0010 FB68     		ldr	r3, [r7, #12]
 1453 0012 1846     		mov	r0, r3
 1454 0014 FFF7FEFF 		bl	ch_pqueue_remove_highest
 1455 0018 7860     		str	r0, [r7, #4]
 1456              		.loc 7 634 14
 1457 001a 7B68     		ldr	r3, [r7, #4]
 1458 001c 0122     		movs	r2, #1
 1459 001e 83F82420 		strb	r2, [r3, #36]
 1460              		.loc 7 635 3
 1461 0022 FB68     		ldr	r3, [r7, #12]
 1462 0024 7A68     		ldr	r2, [r7, #4]
 1463 0026 DA60     		str	r2, [r3, #12]
 1464              		.loc 7 643 10
 1465 0028 B868     		ldr	r0, [r7, #8]
 1466 002a FFF7FEFF 		bl	__sch_ready_ahead
 1467              		.loc 7 645 10
 1468 002e 7B68     		ldr	r3, [r7, #4]
 1469              		.loc 7 646 1
 1470 0030 1846     		mov	r0, r3
 1471 0032 1037     		adds	r7, r7, #16
 1472              		.cfi_def_cfa_offset 8
 1473 0034 BD46     		mov	sp, r7
 1474              		.cfi_def_cfa_register 13
 1475              		@ sp needed
 1476 0036 80BD     		pop	{r7, pc}
 1477              	.L80:
 1478              		.align	2
 1479              	.L79:
 1480 0038 00000000 		.word	ch0
 1481              		.cfi_endproc
 1482              	.LFE360:
ARM GAS  C:\Users\DEVELO~1\AppData\Local\Temp\ccW7fz6e.s 			page 27


 1483              		.size	chSchSelectFirst, .-chSchSelectFirst
 1484              		.text
 1485              	.Letext0:
 1486              		.file 8 "c:\\chibistudio\\tools\\gnu tools arm embedded\\11.3 2022.08\\arm-none-eabi\\include\\mac
 1487              		.file 9 "c:\\chibistudio\\tools\\gnu tools arm embedded\\11.3 2022.08\\arm-none-eabi\\include\\sys
 1488              		.file 10 "../../../os/common/ports/ARM-common/chtypes.h"
 1489              		.file 11 "../../../os/rt/include/chearly.h"
 1490              		.file 12 "../../../os/rt/include/chobjects.h"
 1491              		.file 13 "../../../os/rt/include/chrfcu.h"
 1492              		.file 14 "../../../os/rt/include/chdebug.h"
 1493              		.file 15 "../../../os/rt/include/chtime.h"
 1494              		.file 16 "../../../os/rt/include/chtrace.h"
 1495              		.file 17 "../../../os/rt/include/chmtx.h"