ARM GAS  C:\Users\DEVELO~1\AppData\Local\Temp\ccSqXZXi.s 			page 1


   1              		.cpu cortex-m7
   2              		.arch armv7e-m
   3              		.fpu softvfp
   4              		.eabi_attribute 20, 1
   5              		.eabi_attribute 21, 1
   6              		.eabi_attribute 23, 3
   7              		.eabi_attribute 24, 1
   8              		.eabi_attribute 25, 1
   9              		.eabi_attribute 26, 1
  10              		.eabi_attribute 30, 6
  11              		.eabi_attribute 34, 1
  12              		.eabi_attribute 18, 4
  13              		.file	"chsem.c"
  14              		.text
  15              	.Ltext0:
  16              		.cfi_sections	.debug_frame
  17              		.section	.text.ch_queue_init,"ax",%progbits
  18              		.align	1
  19              		.syntax unified
  20              		.thumb
  21              		.thumb_func
  22              		.type	ch_queue_init, %function
  23              	ch_queue_init:
  24              	.LFB19:
  25              		.file 1 "../../../os/rt/include/chlists.h"
  26              		.loc 1 222 50
  27              		.cfi_startproc
  28              		@ args = 0, pretend = 0, frame = 8
  29              		@ frame_needed = 1, uses_anonymous_args = 0
  30              		@ link register save eliminated.
  31 0000 80B4     		push	{r7}
  32              		.cfi_def_cfa_offset 4
  33              		.cfi_offset 7, -4
  34 0002 83B0     		sub	sp, sp, #12
  35              		.cfi_def_cfa_offset 16
  36 0004 00AF     		add	r7, sp, #0
  37              		.cfi_def_cfa_register 7
  38 0006 7860     		str	r0, [r7, #4]
  39              		.loc 1 224 12
  40 0008 7B68     		ldr	r3, [r7, #4]
  41 000a 7A68     		ldr	r2, [r7, #4]
  42 000c 1A60     		str	r2, [r3]
  43              		.loc 1 225 12
  44 000e 7B68     		ldr	r3, [r7, #4]
  45 0010 7A68     		ldr	r2, [r7, #4]
  46 0012 5A60     		str	r2, [r3, #4]
  47              		.loc 1 226 1
  48 0014 00BF     		nop
  49 0016 0C37     		adds	r7, r7, #12
  50              		.cfi_def_cfa_offset 4
  51 0018 BD46     		mov	sp, r7
  52              		.cfi_def_cfa_register 13
  53              		@ sp needed
  54 001a 80BC     		pop	{r7}
  55              		.cfi_restore 7
  56              		.cfi_def_cfa_offset 0
  57 001c 7047     		bx	lr
ARM GAS  C:\Users\DEVELO~1\AppData\Local\Temp\ccSqXZXi.s 			page 2


  58              		.cfi_endproc
  59              	.LFE19:
  60              		.size	ch_queue_init, .-ch_queue_init
  61              		.section	.text.ch_queue_notempty,"ax",%progbits
  62              		.align	1
  63              		.syntax unified
  64              		.thumb
  65              		.thumb_func
  66              		.type	ch_queue_notempty, %function
  67              	ch_queue_notempty:
  68              	.LFB21:
  69              		.loc 1 249 60
  70              		.cfi_startproc
  71              		@ args = 0, pretend = 0, frame = 8
  72              		@ frame_needed = 1, uses_anonymous_args = 0
  73              		@ link register save eliminated.
  74 0000 80B4     		push	{r7}
  75              		.cfi_def_cfa_offset 4
  76              		.cfi_offset 7, -4
  77 0002 83B0     		sub	sp, sp, #12
  78              		.cfi_def_cfa_offset 16
  79 0004 00AF     		add	r7, sp, #0
  80              		.cfi_def_cfa_register 7
  81 0006 7860     		str	r0, [r7, #4]
  82              		.loc 1 251 19
  83 0008 7B68     		ldr	r3, [r7, #4]
  84 000a 1B68     		ldr	r3, [r3]
  85              		.loc 1 251 10
  86 000c 7A68     		ldr	r2, [r7, #4]
  87 000e 9A42     		cmp	r2, r3
  88 0010 14BF     		ite	ne
  89 0012 0123     		movne	r3, #1
  90 0014 0023     		moveq	r3, #0
  91 0016 DBB2     		uxtb	r3, r3
  92              		.loc 1 252 1
  93 0018 1846     		mov	r0, r3
  94 001a 0C37     		adds	r7, r7, #12
  95              		.cfi_def_cfa_offset 4
  96 001c BD46     		mov	sp, r7
  97              		.cfi_def_cfa_register 13
  98              		@ sp needed
  99 001e 80BC     		pop	{r7}
 100              		.cfi_restore 7
 101              		.cfi_def_cfa_offset 0
 102 0020 7047     		bx	lr
 103              		.cfi_endproc
 104              	.LFE21:
 105              		.size	ch_queue_notempty, .-ch_queue_notempty
 106              		.section	.text.ch_queue_insert,"ax",%progbits
 107              		.align	1
 108              		.syntax unified
 109              		.thumb
 110              		.thumb_func
 111              		.type	ch_queue_insert, %function
 112              	ch_queue_insert:
 113              	.LFB22:
 114              		.loc 1 262 67
ARM GAS  C:\Users\DEVELO~1\AppData\Local\Temp\ccSqXZXi.s 			page 3


 115              		.cfi_startproc
 116              		@ args = 0, pretend = 0, frame = 8
 117              		@ frame_needed = 1, uses_anonymous_args = 0
 118              		@ link register save eliminated.
 119 0000 80B4     		push	{r7}
 120              		.cfi_def_cfa_offset 4
 121              		.cfi_offset 7, -4
 122 0002 83B0     		sub	sp, sp, #12
 123              		.cfi_def_cfa_offset 16
 124 0004 00AF     		add	r7, sp, #0
 125              		.cfi_def_cfa_register 7
 126 0006 7860     		str	r0, [r7, #4]
 127 0008 3960     		str	r1, [r7]
 128              		.loc 1 264 17
 129 000a 3B68     		ldr	r3, [r7]
 130 000c 7A68     		ldr	r2, [r7, #4]
 131 000e 1A60     		str	r2, [r3]
 132              		.loc 1 265 21
 133 0010 7B68     		ldr	r3, [r7, #4]
 134 0012 5A68     		ldr	r2, [r3, #4]
 135              		.loc 1 265 17
 136 0014 3B68     		ldr	r3, [r7]
 137 0016 5A60     		str	r2, [r3, #4]
 138              		.loc 1 266 4
 139 0018 3B68     		ldr	r3, [r7]
 140 001a 5B68     		ldr	r3, [r3, #4]
 141              		.loc 1 266 17
 142 001c 3A68     		ldr	r2, [r7]
 143 001e 1A60     		str	r2, [r3]
 144              		.loc 1 267 17
 145 0020 7B68     		ldr	r3, [r7, #4]
 146 0022 3A68     		ldr	r2, [r7]
 147 0024 5A60     		str	r2, [r3, #4]
 148              		.loc 1 268 1
 149 0026 00BF     		nop
 150 0028 0C37     		adds	r7, r7, #12
 151              		.cfi_def_cfa_offset 4
 152 002a BD46     		mov	sp, r7
 153              		.cfi_def_cfa_register 13
 154              		@ sp needed
 155 002c 80BC     		pop	{r7}
 156              		.cfi_restore 7
 157              		.cfi_def_cfa_offset 0
 158 002e 7047     		bx	lr
 159              		.cfi_endproc
 160              	.LFE22:
 161              		.size	ch_queue_insert, .-ch_queue_insert
 162              		.section	.text.ch_queue_fifo_remove,"ax",%progbits
 163              		.align	1
 164              		.syntax unified
 165              		.thumb
 166              		.thumb_func
 167              		.type	ch_queue_fifo_remove, %function
 168              	ch_queue_fifo_remove:
 169              	.LFB23:
 170              		.loc 1 280 64
 171              		.cfi_startproc
ARM GAS  C:\Users\DEVELO~1\AppData\Local\Temp\ccSqXZXi.s 			page 4


 172              		@ args = 0, pretend = 0, frame = 16
 173              		@ frame_needed = 1, uses_anonymous_args = 0
 174              		@ link register save eliminated.
 175 0000 80B4     		push	{r7}
 176              		.cfi_def_cfa_offset 4
 177              		.cfi_offset 7, -4
 178 0002 85B0     		sub	sp, sp, #20
 179              		.cfi_def_cfa_offset 24
 180 0004 00AF     		add	r7, sp, #0
 181              		.cfi_def_cfa_register 7
 182 0006 7860     		str	r0, [r7, #4]
 183              		.loc 1 281 15
 184 0008 7B68     		ldr	r3, [r7, #4]
 185 000a 1B68     		ldr	r3, [r3]
 186 000c FB60     		str	r3, [r7, #12]
 187              		.loc 1 283 21
 188 000e FB68     		ldr	r3, [r7, #12]
 189 0010 1A68     		ldr	r2, [r3]
 190              		.loc 1 283 18
 191 0012 7B68     		ldr	r3, [r7, #4]
 192 0014 1A60     		str	r2, [r3]
 193              		.loc 1 284 5
 194 0016 7B68     		ldr	r3, [r7, #4]
 195 0018 1B68     		ldr	r3, [r3]
 196              		.loc 1 284 18
 197 001a 7A68     		ldr	r2, [r7, #4]
 198 001c 5A60     		str	r2, [r3, #4]
 199              		.loc 1 286 10
 200 001e FB68     		ldr	r3, [r7, #12]
 201              		.loc 1 287 1
 202 0020 1846     		mov	r0, r3
 203 0022 1437     		adds	r7, r7, #20
 204              		.cfi_def_cfa_offset 4
 205 0024 BD46     		mov	sp, r7
 206              		.cfi_def_cfa_register 13
 207              		@ sp needed
 208 0026 80BC     		pop	{r7}
 209              		.cfi_restore 7
 210              		.cfi_def_cfa_offset 0
 211 0028 7047     		bx	lr
 212              		.cfi_endproc
 213              	.LFE23:
 214              		.size	ch_queue_fifo_remove, .-ch_queue_fifo_remove
 215              		.section	.text.ch_queue_lifo_remove,"ax",%progbits
 216              		.align	1
 217              		.syntax unified
 218              		.thumb
 219              		.thumb_func
 220              		.type	ch_queue_lifo_remove, %function
 221              	ch_queue_lifo_remove:
 222              	.LFB24:
 223              		.loc 1 299 64
 224              		.cfi_startproc
 225              		@ args = 0, pretend = 0, frame = 16
 226              		@ frame_needed = 1, uses_anonymous_args = 0
 227              		@ link register save eliminated.
 228 0000 80B4     		push	{r7}
ARM GAS  C:\Users\DEVELO~1\AppData\Local\Temp\ccSqXZXi.s 			page 5


 229              		.cfi_def_cfa_offset 4
 230              		.cfi_offset 7, -4
 231 0002 85B0     		sub	sp, sp, #20
 232              		.cfi_def_cfa_offset 24
 233 0004 00AF     		add	r7, sp, #0
 234              		.cfi_def_cfa_register 7
 235 0006 7860     		str	r0, [r7, #4]
 236              		.loc 1 300 15
 237 0008 7B68     		ldr	r3, [r7, #4]
 238 000a 5B68     		ldr	r3, [r3, #4]
 239 000c FB60     		str	r3, [r7, #12]
 240              		.loc 1 302 21
 241 000e FB68     		ldr	r3, [r7, #12]
 242 0010 5A68     		ldr	r2, [r3, #4]
 243              		.loc 1 302 18
 244 0012 7B68     		ldr	r3, [r7, #4]
 245 0014 5A60     		str	r2, [r3, #4]
 246              		.loc 1 303 5
 247 0016 7B68     		ldr	r3, [r7, #4]
 248 0018 5B68     		ldr	r3, [r3, #4]
 249              		.loc 1 303 18
 250 001a 7A68     		ldr	r2, [r7, #4]
 251 001c 1A60     		str	r2, [r3]
 252              		.loc 1 305 10
 253 001e FB68     		ldr	r3, [r7, #12]
 254              		.loc 1 306 1
 255 0020 1846     		mov	r0, r3
 256 0022 1437     		adds	r7, r7, #20
 257              		.cfi_def_cfa_offset 4
 258 0024 BD46     		mov	sp, r7
 259              		.cfi_def_cfa_register 13
 260              		@ sp needed
 261 0026 80BC     		pop	{r7}
 262              		.cfi_restore 7
 263              		.cfi_def_cfa_offset 0
 264 0028 7047     		bx	lr
 265              		.cfi_endproc
 266              	.LFE24:
 267              		.size	ch_queue_lifo_remove, .-ch_queue_lifo_remove
 268              		.section	.text.chSysLock,"ax",%progbits
 269              		.align	1
 270              		.syntax unified
 271              		.thumb
 272              		.thumb_func
 273              		.type	chSysLock, %function
 274              	chSysLock:
 275              	.LFB202:
 276              		.file 2 "../../../os/rt/include/chsys.h"
 277              		.loc 2 407 36
 278              		.cfi_startproc
 279              		@ args = 0, pretend = 0, frame = 8
 280              		@ frame_needed = 1, uses_anonymous_args = 0
 281              		@ link register save eliminated.
 282 0000 80B4     		push	{r7}
 283              		.cfi_def_cfa_offset 4
 284              		.cfi_offset 7, -4
 285 0002 83B0     		sub	sp, sp, #12
ARM GAS  C:\Users\DEVELO~1\AppData\Local\Temp\ccSqXZXi.s 			page 6


 286              		.cfi_def_cfa_offset 16
 287 0004 00AF     		add	r7, sp, #0
 288              		.cfi_def_cfa_register 7
 289 0006 3023     		movs	r3, #48
 290 0008 7B60     		str	r3, [r7, #4]
 291              	.LBB14:
 292              	.LBB15:
 293              	.LBB16:
 294              	.LBB17:
 295              		.file 3 "../../../os/common/ext/ARM/CMSIS/Core/Include/cmsis_gcc.h"
 296              		.loc 3 493 3
 297 000a 7B68     		ldr	r3, [r7, #4]
 298              		.syntax unified
 299              	@ 493 "../../../os/common/ext/ARM/CMSIS/Core/Include/cmsis_gcc.h" 1
 300 000c 83F31188 		MSR basepri, r3
 301              	@ 0 "" 2
 302              		.loc 3 494 1
 303              		.thumb
 304              		.syntax unified
 305 0010 00BF     		nop
 306              	.LBE17:
 307              	.LBE16:
 308              		.file 4 "../../../os/common/ports/ARMv7-M/chcore.h"
 309              		.loc 4 840 1
 310 0012 00BF     		nop
 311              	.LBE15:
 312              	.LBE14:
 313              		.loc 2 412 1
 314 0014 00BF     		nop
 315 0016 0C37     		adds	r7, r7, #12
 316              		.cfi_def_cfa_offset 4
 317 0018 BD46     		mov	sp, r7
 318              		.cfi_def_cfa_register 13
 319              		@ sp needed
 320 001a 80BC     		pop	{r7}
 321              		.cfi_restore 7
 322              		.cfi_def_cfa_offset 0
 323 001c 7047     		bx	lr
 324              		.cfi_endproc
 325              	.LFE202:
 326              		.size	chSysLock, .-chSysLock
 327              		.section	.text.chSysUnlock,"ax",%progbits
 328              		.align	1
 329              		.syntax unified
 330              		.thumb
 331              		.thumb_func
 332              		.type	chSysUnlock, %function
 333              	chSysUnlock:
 334              	.LFB203:
 335              		.loc 2 421 38
 336              		.cfi_startproc
 337              		@ args = 0, pretend = 0, frame = 8
 338              		@ frame_needed = 1, uses_anonymous_args = 0
 339              		@ link register save eliminated.
 340 0000 80B4     		push	{r7}
 341              		.cfi_def_cfa_offset 4
 342              		.cfi_offset 7, -4
ARM GAS  C:\Users\DEVELO~1\AppData\Local\Temp\ccSqXZXi.s 			page 7


 343 0002 83B0     		sub	sp, sp, #12
 344              		.cfi_def_cfa_offset 16
 345 0004 00AF     		add	r7, sp, #0
 346              		.cfi_def_cfa_register 7
 347 0006 0023     		movs	r3, #0
 348 0008 7B60     		str	r3, [r7, #4]
 349              	.LBB18:
 350              	.LBB19:
 351              	.LBB20:
 352              	.LBB21:
 353              		.loc 3 493 3
 354 000a 7B68     		ldr	r3, [r7, #4]
 355              		.syntax unified
 356              	@ 493 "../../../os/common/ext/ARM/CMSIS/Core/Include/cmsis_gcc.h" 1
 357 000c 83F31188 		MSR basepri, r3
 358              	@ 0 "" 2
 359              		.loc 3 494 1
 360              		.thumb
 361              		.syntax unified
 362 0010 00BF     		nop
 363              	.LBE21:
 364              	.LBE20:
 365              		.loc 4 854 1
 366 0012 00BF     		nop
 367              	.LBE19:
 368              	.LBE18:
 369              		.loc 2 435 1
 370 0014 00BF     		nop
 371 0016 0C37     		adds	r7, r7, #12
 372              		.cfi_def_cfa_offset 4
 373 0018 BD46     		mov	sp, r7
 374              		.cfi_def_cfa_register 13
 375              		@ sp needed
 376 001a 80BC     		pop	{r7}
 377              		.cfi_restore 7
 378              		.cfi_def_cfa_offset 0
 379 001c 7047     		bx	lr
 380              		.cfi_endproc
 381              	.LFE203:
 382              		.size	chSysUnlock, .-chSysUnlock
 383              		.section	.text.chThdGetSelfX,"ax",%progbits
 384              		.align	1
 385              		.syntax unified
 386              		.thumb
 387              		.thumb_func
 388              		.type	chThdGetSelfX, %function
 389              	chThdGetSelfX:
 390              	.LFB229:
 391              		.file 5 "../../../os/rt/include/chthreads.h"
 392              		.loc 5 341 45
 393              		.cfi_startproc
 394              		@ args = 0, pretend = 0, frame = 0
 395              		@ frame_needed = 1, uses_anonymous_args = 0
 396              		@ link register save eliminated.
 397 0000 80B4     		push	{r7}
 398              		.cfi_def_cfa_offset 4
 399              		.cfi_offset 7, -4
ARM GAS  C:\Users\DEVELO~1\AppData\Local\Temp\ccSqXZXi.s 			page 8


 400 0002 00AF     		add	r7, sp, #0
 401              		.cfi_def_cfa_register 7
 402              		.loc 5 343 10
 403 0004 024B     		ldr	r3, .L13
 404 0006 DB68     		ldr	r3, [r3, #12]
 405              		.loc 5 344 1
 406 0008 1846     		mov	r0, r3
 407 000a BD46     		mov	sp, r7
 408              		.cfi_def_cfa_register 13
 409              		@ sp needed
 410 000c 80BC     		pop	{r7}
 411              		.cfi_restore 7
 412              		.cfi_def_cfa_offset 0
 413 000e 7047     		bx	lr
 414              	.L14:
 415              		.align	2
 416              	.L13:
 417 0010 00000000 		.word	ch0
 418              		.cfi_endproc
 419              	.LFE229:
 420              		.size	chThdGetSelfX, .-chThdGetSelfX
 421              		.section	.text.chSemObjectInit,"ax",%progbits
 422              		.align	1
 423              		.global	chSemObjectInit
 424              		.syntax unified
 425              		.thumb
 426              		.thumb_func
 427              		.type	chSemObjectInit, %function
 428              	chSemObjectInit:
 429              	.LFB346:
 430              		.file 6 "../../../os/rt/src/chsem.c"
 431              		.loc 6 97 48
 432              		.cfi_startproc
 433              		@ args = 0, pretend = 0, frame = 8
 434              		@ frame_needed = 1, uses_anonymous_args = 0
 435 0000 80B5     		push	{r7, lr}
 436              		.cfi_def_cfa_offset 8
 437              		.cfi_offset 7, -8
 438              		.cfi_offset 14, -4
 439 0002 82B0     		sub	sp, sp, #8
 440              		.cfi_def_cfa_offset 16
 441 0004 00AF     		add	r7, sp, #0
 442              		.cfi_def_cfa_register 7
 443 0006 7860     		str	r0, [r7, #4]
 444 0008 3960     		str	r1, [r7]
 445              		.loc 6 101 3
 446 000a 7B68     		ldr	r3, [r7, #4]
 447 000c 1846     		mov	r0, r3
 448 000e FFF7FEFF 		bl	ch_queue_init
 449              		.loc 6 102 11
 450 0012 7B68     		ldr	r3, [r7, #4]
 451 0014 3A68     		ldr	r2, [r7]
 452 0016 9A60     		str	r2, [r3, #8]
 453              		.loc 6 103 1
 454 0018 00BF     		nop
 455 001a 0837     		adds	r7, r7, #8
 456              		.cfi_def_cfa_offset 8
ARM GAS  C:\Users\DEVELO~1\AppData\Local\Temp\ccSqXZXi.s 			page 9


 457 001c BD46     		mov	sp, r7
 458              		.cfi_def_cfa_register 13
 459              		@ sp needed
 460 001e 80BD     		pop	{r7, pc}
 461              		.cfi_endproc
 462              	.LFE346:
 463              		.size	chSemObjectInit, .-chSemObjectInit
 464              		.section	.text.chSemResetWithMessage,"ax",%progbits
 465              		.align	1
 466              		.global	chSemResetWithMessage
 467              		.syntax unified
 468              		.thumb
 469              		.thumb_func
 470              		.type	chSemResetWithMessage, %function
 471              	chSemResetWithMessage:
 472              	.LFB347:
 473              		.loc 6 118 65
 474              		.cfi_startproc
 475              		@ args = 0, pretend = 0, frame = 16
 476              		@ frame_needed = 1, uses_anonymous_args = 0
 477 0000 80B5     		push	{r7, lr}
 478              		.cfi_def_cfa_offset 8
 479              		.cfi_offset 7, -8
 480              		.cfi_offset 14, -4
 481 0002 84B0     		sub	sp, sp, #16
 482              		.cfi_def_cfa_offset 24
 483 0004 00AF     		add	r7, sp, #0
 484              		.cfi_def_cfa_register 7
 485 0006 F860     		str	r0, [r7, #12]
 486 0008 B960     		str	r1, [r7, #8]
 487 000a 7A60     		str	r2, [r7, #4]
 488              		.loc 6 120 3
 489 000c FFF7FEFF 		bl	chSysLock
 490              		.loc 6 121 3
 491 0010 7A68     		ldr	r2, [r7, #4]
 492 0012 B968     		ldr	r1, [r7, #8]
 493 0014 F868     		ldr	r0, [r7, #12]
 494 0016 FFF7FEFF 		bl	chSemResetWithMessageI
 495              		.loc 6 122 3
 496 001a FFF7FEFF 		bl	chSchRescheduleS
 497              		.loc 6 123 3
 498 001e FFF7FEFF 		bl	chSysUnlock
 499              		.loc 6 124 1
 500 0022 00BF     		nop
 501 0024 1037     		adds	r7, r7, #16
 502              		.cfi_def_cfa_offset 8
 503 0026 BD46     		mov	sp, r7
 504              		.cfi_def_cfa_register 13
 505              		@ sp needed
 506 0028 80BD     		pop	{r7, pc}
 507              		.cfi_endproc
 508              	.LFE347:
 509              		.size	chSemResetWithMessage, .-chSemResetWithMessage
 510              		.section	.text.chSemResetWithMessageI,"ax",%progbits
 511              		.align	1
 512              		.global	chSemResetWithMessageI
 513              		.syntax unified
ARM GAS  C:\Users\DEVELO~1\AppData\Local\Temp\ccSqXZXi.s 			page 10


 514              		.thumb
 515              		.thumb_func
 516              		.type	chSemResetWithMessageI, %function
 517              	chSemResetWithMessageI:
 518              	.LFB348:
 519              		.loc 6 143 66
 520              		.cfi_startproc
 521              		@ args = 0, pretend = 0, frame = 16
 522              		@ frame_needed = 1, uses_anonymous_args = 0
 523 0000 80B5     		push	{r7, lr}
 524              		.cfi_def_cfa_offset 8
 525              		.cfi_offset 7, -8
 526              		.cfi_offset 14, -4
 527 0002 84B0     		sub	sp, sp, #16
 528              		.cfi_def_cfa_offset 24
 529 0004 00AF     		add	r7, sp, #0
 530              		.cfi_def_cfa_register 7
 531 0006 F860     		str	r0, [r7, #12]
 532 0008 B960     		str	r1, [r7, #8]
 533 000a 7A60     		str	r2, [r7, #4]
 534              		.loc 6 151 11
 535 000c FB68     		ldr	r3, [r7, #12]
 536 000e BA68     		ldr	r2, [r7, #8]
 537 0010 9A60     		str	r2, [r3, #8]
 538              		.loc 6 152 9
 539 0012 0AE0     		b	.L18
 540              	.L19:
 541              		.loc 6 153 17
 542 0014 FB68     		ldr	r3, [r7, #12]
 543 0016 1846     		mov	r0, r3
 544 0018 FFF7FEFF 		bl	ch_queue_lifo_remove
 545 001c 0346     		mov	r3, r0
 546              		.loc 6 153 5
 547 001e 1846     		mov	r0, r3
 548 0020 FFF7FEFF 		bl	chSchReadyI
 549 0024 0246     		mov	r2, r0
 550              		.loc 6 153 72
 551 0026 7B68     		ldr	r3, [r7, #4]
 552 0028 9362     		str	r3, [r2, #40]
 553              	.L18:
 554              		.loc 6 152 28
 555 002a FB68     		ldr	r3, [r7, #12]
 556              		.loc 6 152 10
 557 002c 1846     		mov	r0, r3
 558 002e FFF7FEFF 		bl	ch_queue_notempty
 559 0032 0346     		mov	r3, r0
 560 0034 002B     		cmp	r3, #0
 561 0036 EDD1     		bne	.L19
 562              		.loc 6 155 1
 563 0038 00BF     		nop
 564 003a 00BF     		nop
 565 003c 1037     		adds	r7, r7, #16
 566              		.cfi_def_cfa_offset 8
 567 003e BD46     		mov	sp, r7
 568              		.cfi_def_cfa_register 13
 569              		@ sp needed
 570 0040 80BD     		pop	{r7, pc}
ARM GAS  C:\Users\DEVELO~1\AppData\Local\Temp\ccSqXZXi.s 			page 11


 571              		.cfi_endproc
 572              	.LFE348:
 573              		.size	chSemResetWithMessageI, .-chSemResetWithMessageI
 574              		.section	.text.chSemWait,"ax",%progbits
 575              		.align	1
 576              		.global	chSemWait
 577              		.syntax unified
 578              		.thumb
 579              		.thumb_func
 580              		.type	chSemWait, %function
 581              	chSemWait:
 582              	.LFB349:
 583              		.loc 6 169 34
 584              		.cfi_startproc
 585              		@ args = 0, pretend = 0, frame = 16
 586              		@ frame_needed = 1, uses_anonymous_args = 0
 587 0000 80B5     		push	{r7, lr}
 588              		.cfi_def_cfa_offset 8
 589              		.cfi_offset 7, -8
 590              		.cfi_offset 14, -4
 591 0002 84B0     		sub	sp, sp, #16
 592              		.cfi_def_cfa_offset 24
 593 0004 00AF     		add	r7, sp, #0
 594              		.cfi_def_cfa_register 7
 595 0006 7860     		str	r0, [r7, #4]
 596              		.loc 6 172 3
 597 0008 FFF7FEFF 		bl	chSysLock
 598              		.loc 6 173 9
 599 000c 7868     		ldr	r0, [r7, #4]
 600 000e FFF7FEFF 		bl	chSemWaitS
 601 0012 F860     		str	r0, [r7, #12]
 602              		.loc 6 174 3
 603 0014 FFF7FEFF 		bl	chSysUnlock
 604              		.loc 6 176 10
 605 0018 FB68     		ldr	r3, [r7, #12]
 606              		.loc 6 177 1
 607 001a 1846     		mov	r0, r3
 608 001c 1037     		adds	r7, r7, #16
 609              		.cfi_def_cfa_offset 8
 610 001e BD46     		mov	sp, r7
 611              		.cfi_def_cfa_register 13
 612              		@ sp needed
 613 0020 80BD     		pop	{r7, pc}
 614              		.cfi_endproc
 615              	.LFE349:
 616              		.size	chSemWait, .-chSemWait
 617              		.section	.text.chSemWaitS,"ax",%progbits
 618              		.align	1
 619              		.global	chSemWaitS
 620              		.syntax unified
 621              		.thumb
 622              		.thumb_func
 623              		.type	chSemWaitS, %function
 624              	chSemWaitS:
 625              	.LFB350:
 626              		.loc 6 191 35
 627              		.cfi_startproc
ARM GAS  C:\Users\DEVELO~1\AppData\Local\Temp\ccSqXZXi.s 			page 12


 628              		@ args = 0, pretend = 0, frame = 16
 629              		@ frame_needed = 1, uses_anonymous_args = 0
 630 0000 80B5     		push	{r7, lr}
 631              		.cfi_def_cfa_offset 8
 632              		.cfi_offset 7, -8
 633              		.cfi_offset 14, -4
 634 0002 84B0     		sub	sp, sp, #16
 635              		.cfi_def_cfa_offset 24
 636 0004 00AF     		add	r7, sp, #0
 637              		.cfi_def_cfa_register 7
 638 0006 7860     		str	r0, [r7, #4]
 639              		.loc 6 199 11
 640 0008 7B68     		ldr	r3, [r7, #4]
 641 000a 9B68     		ldr	r3, [r3, #8]
 642              		.loc 6 199 7
 643 000c 5A1E     		subs	r2, r3, #1
 644              		.loc 6 199 6
 645 000e 7B68     		ldr	r3, [r7, #4]
 646 0010 9A60     		str	r2, [r3, #8]
 647              		.loc 6 199 11
 648 0012 7B68     		ldr	r3, [r7, #4]
 649 0014 9B68     		ldr	r3, [r3, #8]
 650              		.loc 6 199 6
 651 0016 002B     		cmp	r3, #0
 652 0018 11DA     		bge	.L23
 653              	.LBB22:
 654              		.loc 6 200 24
 655 001a FFF7FEFF 		bl	chThdGetSelfX
 656 001e F860     		str	r0, [r7, #12]
 657              		.loc 6 201 22
 658 0020 FB68     		ldr	r3, [r7, #12]
 659 0022 7A68     		ldr	r2, [r7, #4]
 660 0024 9A62     		str	r2, [r3, #40]
 661              		.loc 6 202 5
 662 0026 7B68     		ldr	r3, [r7, #4]
 663 0028 FA68     		ldr	r2, [r7, #12]
 664 002a 1146     		mov	r1, r2
 665 002c 1846     		mov	r0, r3
 666 002e FFF7FEFF 		bl	ch_queue_insert
 667              		.loc 6 203 5
 668 0032 0520     		movs	r0, #5
 669 0034 FFF7FEFF 		bl	chSchGoSleepS
 670              		.loc 6 205 21
 671 0038 FB68     		ldr	r3, [r7, #12]
 672 003a 9B6A     		ldr	r3, [r3, #40]
 673 003c 00E0     		b	.L24
 674              	.L23:
 675              	.LBE22:
 676              		.loc 6 208 10
 677 003e 0023     		movs	r3, #0
 678              	.L24:
 679              		.loc 6 209 1
 680 0040 1846     		mov	r0, r3
 681 0042 1037     		adds	r7, r7, #16
 682              		.cfi_def_cfa_offset 8
 683 0044 BD46     		mov	sp, r7
 684              		.cfi_def_cfa_register 13
ARM GAS  C:\Users\DEVELO~1\AppData\Local\Temp\ccSqXZXi.s 			page 13


 685              		@ sp needed
 686 0046 80BD     		pop	{r7, pc}
 687              		.cfi_endproc
 688              	.LFE350:
 689              		.size	chSemWaitS, .-chSemWaitS
 690              		.section	.text.chSemWaitTimeout,"ax",%progbits
 691              		.align	1
 692              		.global	chSemWaitTimeout
 693              		.syntax unified
 694              		.thumb
 695              		.thumb_func
 696              		.type	chSemWaitTimeout, %function
 697              	chSemWaitTimeout:
 698              	.LFB351:
 699              		.loc 6 230 64
 700              		.cfi_startproc
 701              		@ args = 0, pretend = 0, frame = 16
 702              		@ frame_needed = 1, uses_anonymous_args = 0
 703 0000 80B5     		push	{r7, lr}
 704              		.cfi_def_cfa_offset 8
 705              		.cfi_offset 7, -8
 706              		.cfi_offset 14, -4
 707 0002 84B0     		sub	sp, sp, #16
 708              		.cfi_def_cfa_offset 24
 709 0004 00AF     		add	r7, sp, #0
 710              		.cfi_def_cfa_register 7
 711 0006 7860     		str	r0, [r7, #4]
 712 0008 3960     		str	r1, [r7]
 713              		.loc 6 233 3
 714 000a FFF7FEFF 		bl	chSysLock
 715              		.loc 6 234 9
 716 000e 3968     		ldr	r1, [r7]
 717 0010 7868     		ldr	r0, [r7, #4]
 718 0012 FFF7FEFF 		bl	chSemWaitTimeoutS
 719 0016 F860     		str	r0, [r7, #12]
 720              		.loc 6 235 3
 721 0018 FFF7FEFF 		bl	chSysUnlock
 722              		.loc 6 237 10
 723 001c FB68     		ldr	r3, [r7, #12]
 724              		.loc 6 238 1
 725 001e 1846     		mov	r0, r3
 726 0020 1037     		adds	r7, r7, #16
 727              		.cfi_def_cfa_offset 8
 728 0022 BD46     		mov	sp, r7
 729              		.cfi_def_cfa_register 13
 730              		@ sp needed
 731 0024 80BD     		pop	{r7, pc}
 732              		.cfi_endproc
 733              	.LFE351:
 734              		.size	chSemWaitTimeout, .-chSemWaitTimeout
 735              		.section	.text.chSemWaitTimeoutS,"ax",%progbits
 736              		.align	1
 737              		.global	chSemWaitTimeoutS
 738              		.syntax unified
 739              		.thumb
 740              		.thumb_func
 741              		.type	chSemWaitTimeoutS, %function
ARM GAS  C:\Users\DEVELO~1\AppData\Local\Temp\ccSqXZXi.s 			page 14


 742              	chSemWaitTimeoutS:
 743              	.LFB352:
 744              		.loc 6 259 65
 745              		.cfi_startproc
 746              		@ args = 0, pretend = 0, frame = 16
 747              		@ frame_needed = 1, uses_anonymous_args = 0
 748 0000 80B5     		push	{r7, lr}
 749              		.cfi_def_cfa_offset 8
 750              		.cfi_offset 7, -8
 751              		.cfi_offset 14, -4
 752 0002 84B0     		sub	sp, sp, #16
 753              		.cfi_def_cfa_offset 24
 754 0004 00AF     		add	r7, sp, #0
 755              		.cfi_def_cfa_register 7
 756 0006 7860     		str	r0, [r7, #4]
 757 0008 3960     		str	r1, [r7]
 758              		.loc 6 267 11
 759 000a 7B68     		ldr	r3, [r7, #4]
 760 000c 9B68     		ldr	r3, [r3, #8]
 761              		.loc 6 267 7
 762 000e 5A1E     		subs	r2, r3, #1
 763              		.loc 6 267 6
 764 0010 7B68     		ldr	r3, [r7, #4]
 765 0012 9A60     		str	r2, [r3, #8]
 766              		.loc 6 267 11
 767 0014 7B68     		ldr	r3, [r7, #4]
 768 0016 9B68     		ldr	r3, [r3, #8]
 769              		.loc 6 267 6
 770 0018 002B     		cmp	r3, #0
 771 001a 21DA     		bge	.L28
 772              	.LBB23:
 773              		.loc 6 268 9
 774 001c 3B68     		ldr	r3, [r7]
 775 001e 002B     		cmp	r3, #0
 776 0020 0CBF     		ite	eq
 777 0022 0123     		moveq	r3, #1
 778 0024 0023     		movne	r3, #0
 779 0026 DBB2     		uxtb	r3, r3
 780              		.loc 6 268 8
 781 0028 002B     		cmp	r3, #0
 782 002a 07D0     		beq	.L29
 783              		.loc 6 269 9
 784 002c 7B68     		ldr	r3, [r7, #4]
 785 002e 9B68     		ldr	r3, [r3, #8]
 786              		.loc 6 269 14
 787 0030 5A1C     		adds	r2, r3, #1
 788 0032 7B68     		ldr	r3, [r7, #4]
 789 0034 9A60     		str	r2, [r3, #8]
 790              		.loc 6 271 14
 791 0036 4FF0FF33 		mov	r3, #-1
 792 003a 12E0     		b	.L30
 793              	.L29:
 794              		.loc 6 273 24
 795 003c FFF7FEFF 		bl	chThdGetSelfX
 796 0040 F860     		str	r0, [r7, #12]
 797              		.loc 6 274 22
 798 0042 FB68     		ldr	r3, [r7, #12]
ARM GAS  C:\Users\DEVELO~1\AppData\Local\Temp\ccSqXZXi.s 			page 15


 799 0044 7A68     		ldr	r2, [r7, #4]
 800 0046 9A62     		str	r2, [r3, #40]
 801              		.loc 6 275 5
 802 0048 7B68     		ldr	r3, [r7, #4]
 803 004a FA68     		ldr	r2, [r7, #12]
 804 004c 1146     		mov	r1, r2
 805 004e 1846     		mov	r0, r3
 806 0050 FFF7FEFF 		bl	ch_queue_insert
 807              		.loc 6 277 12
 808 0054 3968     		ldr	r1, [r7]
 809 0056 0520     		movs	r0, #5
 810 0058 FFF7FEFF 		bl	chSchGoSleepTimeoutS
 811 005c 0346     		mov	r3, r0
 812 005e 00E0     		b	.L30
 813              	.L28:
 814              	.LBE23:
 815              		.loc 6 280 10
 816 0060 0023     		movs	r3, #0
 817              	.L30:
 818              		.loc 6 281 1
 819 0062 1846     		mov	r0, r3
 820 0064 1037     		adds	r7, r7, #16
 821              		.cfi_def_cfa_offset 8
 822 0066 BD46     		mov	sp, r7
 823              		.cfi_def_cfa_register 13
 824              		@ sp needed
 825 0068 80BD     		pop	{r7, pc}
 826              		.cfi_endproc
 827              	.LFE352:
 828              		.size	chSemWaitTimeoutS, .-chSemWaitTimeoutS
 829              		.section	.text.chSemSignal,"ax",%progbits
 830              		.align	1
 831              		.global	chSemSignal
 832              		.syntax unified
 833              		.thumb
 834              		.thumb_func
 835              		.type	chSemSignal, %function
 836              	chSemSignal:
 837              	.LFB353:
 838              		.loc 6 290 35
 839              		.cfi_startproc
 840              		@ args = 0, pretend = 0, frame = 8
 841              		@ frame_needed = 1, uses_anonymous_args = 0
 842 0000 80B5     		push	{r7, lr}
 843              		.cfi_def_cfa_offset 8
 844              		.cfi_offset 7, -8
 845              		.cfi_offset 14, -4
 846 0002 82B0     		sub	sp, sp, #8
 847              		.cfi_def_cfa_offset 16
 848 0004 00AF     		add	r7, sp, #0
 849              		.cfi_def_cfa_register 7
 850 0006 7860     		str	r0, [r7, #4]
 851              		.loc 6 294 3
 852 0008 FFF7FEFF 		bl	chSysLock
 853              		.loc 6 298 11
 854 000c 7B68     		ldr	r3, [r7, #4]
 855 000e 9B68     		ldr	r3, [r3, #8]
ARM GAS  C:\Users\DEVELO~1\AppData\Local\Temp\ccSqXZXi.s 			page 16


 856              		.loc 6 298 7
 857 0010 5A1C     		adds	r2, r3, #1
 858              		.loc 6 298 6
 859 0012 7B68     		ldr	r3, [r7, #4]
 860 0014 9A60     		str	r2, [r3, #8]
 861              		.loc 6 298 11
 862 0016 7B68     		ldr	r3, [r7, #4]
 863 0018 9B68     		ldr	r3, [r3, #8]
 864              		.loc 6 298 6
 865 001a 002B     		cmp	r3, #0
 866 001c 08DC     		bgt	.L32
 867              		.loc 6 299 18
 868 001e 7B68     		ldr	r3, [r7, #4]
 869 0020 1846     		mov	r0, r3
 870 0022 FFF7FEFF 		bl	ch_queue_fifo_remove
 871 0026 0346     		mov	r3, r0
 872              		.loc 6 299 5
 873 0028 0021     		movs	r1, #0
 874 002a 1846     		mov	r0, r3
 875 002c FFF7FEFF 		bl	chSchWakeupS
 876              	.L32:
 877              		.loc 6 301 3
 878 0030 FFF7FEFF 		bl	chSysUnlock
 879              		.loc 6 302 1
 880 0034 00BF     		nop
 881 0036 0837     		adds	r7, r7, #8
 882              		.cfi_def_cfa_offset 8
 883 0038 BD46     		mov	sp, r7
 884              		.cfi_def_cfa_register 13
 885              		@ sp needed
 886 003a 80BD     		pop	{r7, pc}
 887              		.cfi_endproc
 888              	.LFE353:
 889              		.size	chSemSignal, .-chSemSignal
 890              		.section	.text.chSemSignalI,"ax",%progbits
 891              		.align	1
 892              		.global	chSemSignalI
 893              		.syntax unified
 894              		.thumb
 895              		.thumb_func
 896              		.type	chSemSignalI, %function
 897              	chSemSignalI:
 898              	.LFB354:
 899              		.loc 6 315 36
 900              		.cfi_startproc
 901              		@ args = 0, pretend = 0, frame = 16
 902              		@ frame_needed = 1, uses_anonymous_args = 0
 903 0000 80B5     		push	{r7, lr}
 904              		.cfi_def_cfa_offset 8
 905              		.cfi_offset 7, -8
 906              		.cfi_offset 14, -4
 907 0002 84B0     		sub	sp, sp, #16
 908              		.cfi_def_cfa_offset 24
 909 0004 00AF     		add	r7, sp, #0
 910              		.cfi_def_cfa_register 7
 911 0006 7860     		str	r0, [r7, #4]
 912              		.loc 6 323 11
ARM GAS  C:\Users\DEVELO~1\AppData\Local\Temp\ccSqXZXi.s 			page 17


 913 0008 7B68     		ldr	r3, [r7, #4]
 914 000a 9B68     		ldr	r3, [r3, #8]
 915              		.loc 6 323 7
 916 000c 5A1C     		adds	r2, r3, #1
 917              		.loc 6 323 6
 918 000e 7B68     		ldr	r3, [r7, #4]
 919 0010 9A60     		str	r2, [r3, #8]
 920              		.loc 6 323 11
 921 0012 7B68     		ldr	r3, [r7, #4]
 922 0014 9B68     		ldr	r3, [r3, #8]
 923              		.loc 6 323 6
 924 0016 002B     		cmp	r3, #0
 925 0018 0ADC     		bgt	.L35
 926              	.LBB24:
 927              		.loc 6 326 20
 928 001a 7B68     		ldr	r3, [r7, #4]
 929 001c 1846     		mov	r0, r3
 930 001e FFF7FEFF 		bl	ch_queue_fifo_remove
 931 0022 F860     		str	r0, [r7, #12]
 932              		.loc 6 327 18
 933 0024 FB68     		ldr	r3, [r7, #12]
 934 0026 0022     		movs	r2, #0
 935 0028 9A62     		str	r2, [r3, #40]
 936              		.loc 6 328 12
 937 002a F868     		ldr	r0, [r7, #12]
 938 002c FFF7FEFF 		bl	chSchReadyI
 939              	.L35:
 940              	.LBE24:
 941              		.loc 6 330 1
 942 0030 00BF     		nop
 943 0032 1037     		adds	r7, r7, #16
 944              		.cfi_def_cfa_offset 8
 945 0034 BD46     		mov	sp, r7
 946              		.cfi_def_cfa_register 13
 947              		@ sp needed
 948 0036 80BD     		pop	{r7, pc}
 949              		.cfi_endproc
 950              	.LFE354:
 951              		.size	chSemSignalI, .-chSemSignalI
 952              		.section	.text.chSemAddCounterI,"ax",%progbits
 953              		.align	1
 954              		.global	chSemAddCounterI
 955              		.syntax unified
 956              		.thumb
 957              		.thumb_func
 958              		.type	chSemAddCounterI, %function
 959              	chSemAddCounterI:
 960              	.LFB355:
 961              		.loc 6 345 49
 962              		.cfi_startproc
 963              		@ args = 0, pretend = 0, frame = 8
 964              		@ frame_needed = 1, uses_anonymous_args = 0
 965 0000 80B5     		push	{r7, lr}
 966              		.cfi_def_cfa_offset 8
 967              		.cfi_offset 7, -8
 968              		.cfi_offset 14, -4
 969 0002 82B0     		sub	sp, sp, #8
ARM GAS  C:\Users\DEVELO~1\AppData\Local\Temp\ccSqXZXi.s 			page 18


 970              		.cfi_def_cfa_offset 16
 971 0004 00AF     		add	r7, sp, #0
 972              		.cfi_def_cfa_register 7
 973 0006 7860     		str	r0, [r7, #4]
 974 0008 3960     		str	r1, [r7]
 975              		.loc 6 353 9
 976 000a 16E0     		b	.L37
 977              	.L39:
 978              		.loc 6 354 13
 979 000c 7B68     		ldr	r3, [r7, #4]
 980 000e 9B68     		ldr	r3, [r3, #8]
 981              		.loc 6 354 9
 982 0010 5A1C     		adds	r2, r3, #1
 983              		.loc 6 354 8
 984 0012 7B68     		ldr	r3, [r7, #4]
 985 0014 9A60     		str	r2, [r3, #8]
 986              		.loc 6 354 13
 987 0016 7B68     		ldr	r3, [r7, #4]
 988 0018 9B68     		ldr	r3, [r3, #8]
 989              		.loc 6 354 8
 990 001a 002B     		cmp	r3, #0
 991 001c 0ADC     		bgt	.L38
 992              		.loc 6 355 19
 993 001e 7B68     		ldr	r3, [r7, #4]
 994 0020 1846     		mov	r0, r3
 995 0022 FFF7FEFF 		bl	ch_queue_fifo_remove
 996 0026 0346     		mov	r3, r0
 997              		.loc 6 355 7
 998 0028 1846     		mov	r0, r3
 999 002a FFF7FEFF 		bl	chSchReadyI
 1000 002e 0346     		mov	r3, r0
 1001              		.loc 6 355 74
 1002 0030 0022     		movs	r2, #0
 1003 0032 9A62     		str	r2, [r3, #40]
 1004              	.L38:
 1005              		.loc 6 357 6
 1006 0034 3B68     		ldr	r3, [r7]
 1007 0036 013B     		subs	r3, r3, #1
 1008 0038 3B60     		str	r3, [r7]
 1009              	.L37:
 1010              		.loc 6 353 12
 1011 003a 3B68     		ldr	r3, [r7]
 1012 003c 002B     		cmp	r3, #0
 1013 003e E5DC     		bgt	.L39
 1014              		.loc 6 359 1
 1015 0040 00BF     		nop
 1016 0042 00BF     		nop
 1017 0044 0837     		adds	r7, r7, #8
 1018              		.cfi_def_cfa_offset 8
 1019 0046 BD46     		mov	sp, r7
 1020              		.cfi_def_cfa_register 13
 1021              		@ sp needed
 1022 0048 80BD     		pop	{r7, pc}
 1023              		.cfi_endproc
 1024              	.LFE355:
 1025              		.size	chSemAddCounterI, .-chSemAddCounterI
 1026              		.section	.text.chSemSignalWait,"ax",%progbits
ARM GAS  C:\Users\DEVELO~1\AppData\Local\Temp\ccSqXZXi.s 			page 19


 1027              		.align	1
 1028              		.global	chSemSignalWait
 1029              		.syntax unified
 1030              		.thumb
 1031              		.thumb_func
 1032              		.type	chSemSignalWait, %function
 1033              	chSemSignalWait:
 1034              	.LFB356:
 1035              		.loc 6 374 59
 1036              		.cfi_startproc
 1037              		@ args = 0, pretend = 0, frame = 16
 1038              		@ frame_needed = 1, uses_anonymous_args = 0
 1039 0000 80B5     		push	{r7, lr}
 1040              		.cfi_def_cfa_offset 8
 1041              		.cfi_offset 7, -8
 1042              		.cfi_offset 14, -4
 1043 0002 84B0     		sub	sp, sp, #16
 1044              		.cfi_def_cfa_offset 24
 1045 0004 00AF     		add	r7, sp, #0
 1046              		.cfi_def_cfa_register 7
 1047 0006 7860     		str	r0, [r7, #4]
 1048 0008 3960     		str	r1, [r7]
 1049              		.loc 6 379 3
 1050 000a FFF7FEFF 		bl	chSysLock
 1051              		.loc 6 386 12
 1052 000e 7B68     		ldr	r3, [r7, #4]
 1053 0010 9B68     		ldr	r3, [r3, #8]
 1054              		.loc 6 386 7
 1055 0012 5A1C     		adds	r2, r3, #1
 1056              		.loc 6 386 6
 1057 0014 7B68     		ldr	r3, [r7, #4]
 1058 0016 9A60     		str	r2, [r3, #8]
 1059              		.loc 6 386 12
 1060 0018 7B68     		ldr	r3, [r7, #4]
 1061 001a 9B68     		ldr	r3, [r3, #8]
 1062              		.loc 6 386 6
 1063 001c 002B     		cmp	r3, #0
 1064 001e 0ADC     		bgt	.L41
 1065              		.loc 6 387 17
 1066 0020 7B68     		ldr	r3, [r7, #4]
 1067 0022 1846     		mov	r0, r3
 1068 0024 FFF7FEFF 		bl	ch_queue_fifo_remove
 1069 0028 0346     		mov	r3, r0
 1070              		.loc 6 387 5
 1071 002a 1846     		mov	r0, r3
 1072 002c FFF7FEFF 		bl	chSchReadyI
 1073 0030 0346     		mov	r3, r0
 1074              		.loc 6 387 73
 1075 0032 0022     		movs	r2, #0
 1076 0034 9A62     		str	r2, [r3, #40]
 1077              	.L41:
 1078              		.loc 6 389 12
 1079 0036 3B68     		ldr	r3, [r7]
 1080 0038 9B68     		ldr	r3, [r3, #8]
 1081              		.loc 6 389 7
 1082 003a 5A1E     		subs	r2, r3, #1
 1083              		.loc 6 389 6
ARM GAS  C:\Users\DEVELO~1\AppData\Local\Temp\ccSqXZXi.s 			page 20


 1084 003c 3B68     		ldr	r3, [r7]
 1085 003e 9A60     		str	r2, [r3, #8]
 1086              		.loc 6 389 12
 1087 0040 3B68     		ldr	r3, [r7]
 1088 0042 9B68     		ldr	r3, [r3, #8]
 1089              		.loc 6 389 6
 1090 0044 002B     		cmp	r3, #0
 1091 0046 12DA     		bge	.L42
 1092              	.LBB25:
 1093              		.loc 6 390 24
 1094 0048 FFF7FEFF 		bl	chThdGetSelfX
 1095 004c B860     		str	r0, [r7, #8]
 1096              		.loc 6 391 5
 1097 004e 3B68     		ldr	r3, [r7]
 1098 0050 BA68     		ldr	r2, [r7, #8]
 1099 0052 1146     		mov	r1, r2
 1100 0054 1846     		mov	r0, r3
 1101 0056 FFF7FEFF 		bl	ch_queue_insert
 1102              		.loc 6 392 22
 1103 005a BB68     		ldr	r3, [r7, #8]
 1104 005c 3A68     		ldr	r2, [r7]
 1105 005e 9A62     		str	r2, [r3, #40]
 1106              		.loc 6 393 5
 1107 0060 0520     		movs	r0, #5
 1108 0062 FFF7FEFF 		bl	chSchGoSleepS
 1109              		.loc 6 394 9
 1110 0066 BB68     		ldr	r3, [r7, #8]
 1111 0068 9B6A     		ldr	r3, [r3, #40]
 1112 006a FB60     		str	r3, [r7, #12]
 1113              	.LBE25:
 1114 006c 03E0     		b	.L43
 1115              	.L42:
 1116              		.loc 6 397 5
 1117 006e FFF7FEFF 		bl	chSchRescheduleS
 1118              		.loc 6 398 9
 1119 0072 0023     		movs	r3, #0
 1120 0074 FB60     		str	r3, [r7, #12]
 1121              	.L43:
 1122              		.loc 6 400 3
 1123 0076 FFF7FEFF 		bl	chSysUnlock
 1124              		.loc 6 402 10
 1125 007a FB68     		ldr	r3, [r7, #12]
 1126              		.loc 6 403 1
 1127 007c 1846     		mov	r0, r3
 1128 007e 1037     		adds	r7, r7, #16
 1129              		.cfi_def_cfa_offset 8
 1130 0080 BD46     		mov	sp, r7
 1131              		.cfi_def_cfa_register 13
 1132              		@ sp needed
 1133 0082 80BD     		pop	{r7, pc}
 1134              		.cfi_endproc
 1135              	.LFE356:
 1136              		.size	chSemSignalWait, .-chSemSignalWait
 1137              		.text
 1138              	.Letext0:
 1139              		.file 7 "c:\\chibistudio\\tools\\gnu tools arm embedded\\11.3 2022.08\\arm-none-eabi\\include\\mac
 1140              		.file 8 "c:\\chibistudio\\tools\\gnu tools arm embedded\\11.3 2022.08\\arm-none-eabi\\include\\sys
ARM GAS  C:\Users\DEVELO~1\AppData\Local\Temp\ccSqXZXi.s 			page 21


 1141              		.file 9 "../../../os/common/ports/ARM-common/chtypes.h"
 1142              		.file 10 "../../../os/rt/include/chearly.h"
 1143              		.file 11 "../../../os/rt/include/chobjects.h"
 1144              		.file 12 "../../../os/rt/include/chrfcu.h"
 1145              		.file 13 "../../../os/rt/include/chdebug.h"
 1146              		.file 14 "../../../os/rt/include/chtime.h"
 1147              		.file 15 "../../../os/rt/include/chtrace.h"
 1148              		.file 16 "../../../os/rt/include/chsem.h"
 1149              		.file 17 "../../../os/rt/include/chmtx.h"
 1150              		.file 18 "../../../os/rt/include/chschd.h"