ARM GAS  C:\Users\DEVELO~1\AppData\Local\Temp\ccda7CNH.s 			page 1


   1              		.cpu cortex-m7
   2              		.arch armv7e-m
   3              		.fpu softvfp
   4              		.eabi_attribute 20, 1
   5              		.eabi_attribute 21, 1
   6              		.eabi_attribute 23, 3
   7              		.eabi_attribute 24, 1
   8              		.eabi_attribute 25, 1
   9              		.eabi_attribute 26, 1
  10              		.eabi_attribute 30, 6
  11              		.eabi_attribute 34, 1
  12              		.eabi_attribute 18, 4
  13              		.file	"chsys.c"
  14              		.text
  15              	.Ltext0:
  16              		.cfi_sections	.debug_frame
  17              		.section	.text.__tm_calibration_object_init,"ax",%progbits
  18              		.align	1
  19              		.syntax unified
  20              		.thumb
  21              		.thumb_func
  22              		.type	__tm_calibration_object_init, %function
  23              	__tm_calibration_object_init:
  24              	.LFB198:
  25              		.file 1 "../../../os/rt/include/chtm.h"
  26              		.loc 1 119 72
  27              		.cfi_startproc
  28              		@ args = 0, pretend = 0, frame = 40
  29              		@ frame_needed = 1, uses_anonymous_args = 0
  30 0000 80B5     		push	{r7, lr}
  31              		.cfi_def_cfa_offset 8
  32              		.cfi_offset 7, -8
  33              		.cfi_offset 14, -4
  34 0002 8AB0     		sub	sp, sp, #40
  35              		.cfi_def_cfa_offset 48
  36 0004 00AF     		add	r7, sp, #0
  37              		.cfi_def_cfa_register 7
  38 0006 7860     		str	r0, [r7, #4]
  39              		.loc 1 126 15
  40 0008 7B68     		ldr	r3, [r7, #4]
  41 000a 0022     		movs	r2, #0
  42 000c 1A60     		str	r2, [r3]
  43              		.loc 1 127 3
  44 000e 07F10803 		add	r3, r7, #8
  45 0012 1846     		mov	r0, r3
  46 0014 FFF7FEFF 		bl	chTMObjectInit
  47              		.loc 1 128 5
  48 0018 0423     		movs	r3, #4
  49 001a 7B62     		str	r3, [r7, #36]
  50              	.L2:
  51              		.loc 1 130 5 discriminator 1
  52 001c 07F10803 		add	r3, r7, #8
  53 0020 1846     		mov	r0, r3
  54 0022 FFF7FEFF 		bl	chTMStartMeasurementX
  55              		.loc 1 131 5 discriminator 1
  56 0026 07F10803 		add	r3, r7, #8
  57 002a 1846     		mov	r0, r3
ARM GAS  C:\Users\DEVELO~1\AppData\Local\Temp\ccda7CNH.s 			page 2


  58 002c FFF7FEFF 		bl	chTMStopMeasurementX
  59              		.loc 1 132 6 discriminator 1
  60 0030 7B6A     		ldr	r3, [r7, #36]
  61 0032 013B     		subs	r3, r3, #1
  62 0034 7B62     		str	r3, [r7, #36]
  63              		.loc 1 133 14 discriminator 1
  64 0036 7B6A     		ldr	r3, [r7, #36]
  65 0038 002B     		cmp	r3, #0
  66 003a EFD1     		bne	.L2
  67              		.loc 1 134 19
  68 003c BA68     		ldr	r2, [r7, #8]
  69              		.loc 1 134 15
  70 003e 7B68     		ldr	r3, [r7, #4]
  71 0040 1A60     		str	r2, [r3]
  72              		.loc 1 135 1
  73 0042 00BF     		nop
  74 0044 2837     		adds	r7, r7, #40
  75              		.cfi_def_cfa_offset 8
  76 0046 BD46     		mov	sp, r7
  77              		.cfi_def_cfa_register 13
  78              		@ sp needed
  79 0048 80BD     		pop	{r7, pc}
  80              		.cfi_endproc
  81              	.LFE198:
  82              		.size	__tm_calibration_object_init, .-__tm_calibration_object_init
  83              		.section	.text.chSysLock,"ax",%progbits
  84              		.align	1
  85              		.syntax unified
  86              		.thumb
  87              		.thumb_func
  88              		.type	chSysLock, %function
  89              	chSysLock:
  90              	.LFB202:
  91              		.file 2 "../../../os/rt/include/chsys.h"
  92              		.loc 2 407 36
  93              		.cfi_startproc
  94              		@ args = 0, pretend = 0, frame = 8
  95              		@ frame_needed = 1, uses_anonymous_args = 0
  96              		@ link register save eliminated.
  97 0000 80B4     		push	{r7}
  98              		.cfi_def_cfa_offset 4
  99              		.cfi_offset 7, -4
 100 0002 83B0     		sub	sp, sp, #12
 101              		.cfi_def_cfa_offset 16
 102 0004 00AF     		add	r7, sp, #0
 103              		.cfi_def_cfa_register 7
 104 0006 3023     		movs	r3, #48
 105 0008 7B60     		str	r3, [r7, #4]
 106              	.LBB64:
 107              	.LBB65:
 108              	.LBB66:
 109              	.LBB67:
 110              		.file 3 "../../../os/common/ext/ARM/CMSIS/Core/Include/cmsis_gcc.h"
 111              		.loc 3 493 3
 112 000a 7B68     		ldr	r3, [r7, #4]
 113              		.syntax unified
 114              	@ 493 "../../../os/common/ext/ARM/CMSIS/Core/Include/cmsis_gcc.h" 1
ARM GAS  C:\Users\DEVELO~1\AppData\Local\Temp\ccda7CNH.s 			page 3


 115 000c 83F31188 		MSR basepri, r3
 116              	@ 0 "" 2
 117              		.loc 3 494 1
 118              		.thumb
 119              		.syntax unified
 120 0010 00BF     		nop
 121              	.LBE67:
 122              	.LBE66:
 123              		.file 4 "../../../os/common/ports/ARMv7-M/chcore.h"
 124              		.loc 4 840 1
 125 0012 00BF     		nop
 126              	.LBE65:
 127              	.LBE64:
 128              		.loc 2 412 1
 129 0014 00BF     		nop
 130 0016 0C37     		adds	r7, r7, #12
 131              		.cfi_def_cfa_offset 4
 132 0018 BD46     		mov	sp, r7
 133              		.cfi_def_cfa_register 13
 134              		@ sp needed
 135 001a 80BC     		pop	{r7}
 136              		.cfi_restore 7
 137              		.cfi_def_cfa_offset 0
 138 001c 7047     		bx	lr
 139              		.cfi_endproc
 140              	.LFE202:
 141              		.size	chSysLock, .-chSysLock
 142              		.section	.text.chSysUnlock,"ax",%progbits
 143              		.align	1
 144              		.syntax unified
 145              		.thumb
 146              		.thumb_func
 147              		.type	chSysUnlock, %function
 148              	chSysUnlock:
 149              	.LFB203:
 150              		.loc 2 421 38
 151              		.cfi_startproc
 152              		@ args = 0, pretend = 0, frame = 8
 153              		@ frame_needed = 1, uses_anonymous_args = 0
 154              		@ link register save eliminated.
 155 0000 80B4     		push	{r7}
 156              		.cfi_def_cfa_offset 4
 157              		.cfi_offset 7, -4
 158 0002 83B0     		sub	sp, sp, #12
 159              		.cfi_def_cfa_offset 16
 160 0004 00AF     		add	r7, sp, #0
 161              		.cfi_def_cfa_register 7
 162 0006 0023     		movs	r3, #0
 163 0008 7B60     		str	r3, [r7, #4]
 164              	.LBB68:
 165              	.LBB69:
 166              	.LBB70:
 167              	.LBB71:
 168              		.loc 3 493 3
 169 000a 7B68     		ldr	r3, [r7, #4]
 170              		.syntax unified
 171              	@ 493 "../../../os/common/ext/ARM/CMSIS/Core/Include/cmsis_gcc.h" 1
ARM GAS  C:\Users\DEVELO~1\AppData\Local\Temp\ccda7CNH.s 			page 4


 172 000c 83F31188 		MSR basepri, r3
 173              	@ 0 "" 2
 174              		.loc 3 494 1
 175              		.thumb
 176              		.syntax unified
 177 0010 00BF     		nop
 178              	.LBE71:
 179              	.LBE70:
 180              		.loc 4 854 1
 181 0012 00BF     		nop
 182              	.LBE69:
 183              	.LBE68:
 184              		.loc 2 435 1
 185 0014 00BF     		nop
 186 0016 0C37     		adds	r7, r7, #12
 187              		.cfi_def_cfa_offset 4
 188 0018 BD46     		mov	sp, r7
 189              		.cfi_def_cfa_register 13
 190              		@ sp needed
 191 001a 80BC     		pop	{r7}
 192              		.cfi_restore 7
 193              		.cfi_def_cfa_offset 0
 194 001c 7047     		bx	lr
 195              		.cfi_endproc
 196              	.LFE203:
 197              		.size	chSysUnlock, .-chSysUnlock
 198              		.section	.text.chSysLockFromISR,"ax",%progbits
 199              		.align	1
 200              		.syntax unified
 201              		.thumb
 202              		.thumb_func
 203              		.type	chSysLockFromISR, %function
 204              	chSysLockFromISR:
 205              	.LFB204:
 206              		.loc 2 451 43
 207              		.cfi_startproc
 208              		@ args = 0, pretend = 0, frame = 8
 209              		@ frame_needed = 1, uses_anonymous_args = 0
 210              		@ link register save eliminated.
 211 0000 80B4     		push	{r7}
 212              		.cfi_def_cfa_offset 4
 213              		.cfi_offset 7, -4
 214 0002 83B0     		sub	sp, sp, #12
 215              		.cfi_def_cfa_offset 16
 216 0004 00AF     		add	r7, sp, #0
 217              		.cfi_def_cfa_register 7
 218 0006 3023     		movs	r3, #48
 219 0008 7B60     		str	r3, [r7, #4]
 220              	.LBB72:
 221              	.LBB73:
 222              	.LBB74:
 223              	.LBB75:
 224              	.LBB76:
 225              	.LBB77:
 226              		.loc 3 493 3
 227 000a 7B68     		ldr	r3, [r7, #4]
 228              		.syntax unified
ARM GAS  C:\Users\DEVELO~1\AppData\Local\Temp\ccda7CNH.s 			page 5


 229              	@ 493 "../../../os/common/ext/ARM/CMSIS/Core/Include/cmsis_gcc.h" 1
 230 000c 83F31188 		MSR basepri, r3
 231              	@ 0 "" 2
 232              		.loc 3 494 1
 233              		.thumb
 234              		.syntax unified
 235 0010 00BF     		nop
 236              	.LBE77:
 237              	.LBE76:
 238              		.loc 4 840 1
 239 0012 00BF     		nop
 240              	.LBE75:
 241              	.LBE74:
 242              		.loc 4 865 1
 243 0014 00BF     		nop
 244              	.LBE73:
 245              	.LBE72:
 246              		.loc 2 456 1
 247 0016 00BF     		nop
 248 0018 0C37     		adds	r7, r7, #12
 249              		.cfi_def_cfa_offset 4
 250 001a BD46     		mov	sp, r7
 251              		.cfi_def_cfa_register 13
 252              		@ sp needed
 253 001c 80BC     		pop	{r7}
 254              		.cfi_restore 7
 255              		.cfi_def_cfa_offset 0
 256 001e 7047     		bx	lr
 257              		.cfi_endproc
 258              	.LFE204:
 259              		.size	chSysLockFromISR, .-chSysLockFromISR
 260              		.section	.text.chSysUnlockFromISR,"ax",%progbits
 261              		.align	1
 262              		.syntax unified
 263              		.thumb
 264              		.thumb_func
 265              		.type	chSysUnlockFromISR, %function
 266              	chSysUnlockFromISR:
 267              	.LFB205:
 268              		.loc 2 473 45
 269              		.cfi_startproc
 270              		@ args = 0, pretend = 0, frame = 8
 271              		@ frame_needed = 1, uses_anonymous_args = 0
 272              		@ link register save eliminated.
 273 0000 80B4     		push	{r7}
 274              		.cfi_def_cfa_offset 4
 275              		.cfi_offset 7, -4
 276 0002 83B0     		sub	sp, sp, #12
 277              		.cfi_def_cfa_offset 16
 278 0004 00AF     		add	r7, sp, #0
 279              		.cfi_def_cfa_register 7
 280 0006 0023     		movs	r3, #0
 281 0008 7B60     		str	r3, [r7, #4]
 282              	.LBB78:
 283              	.LBB79:
 284              	.LBB80:
 285              	.LBB81:
ARM GAS  C:\Users\DEVELO~1\AppData\Local\Temp\ccda7CNH.s 			page 6


 286              	.LBB82:
 287              	.LBB83:
 288              		.loc 3 493 3
 289 000a 7B68     		ldr	r3, [r7, #4]
 290              		.syntax unified
 291              	@ 493 "../../../os/common/ext/ARM/CMSIS/Core/Include/cmsis_gcc.h" 1
 292 000c 83F31188 		MSR basepri, r3
 293              	@ 0 "" 2
 294              		.loc 3 494 1
 295              		.thumb
 296              		.syntax unified
 297 0010 00BF     		nop
 298              	.LBE83:
 299              	.LBE82:
 300              		.loc 4 854 1
 301 0012 00BF     		nop
 302              	.LBE81:
 303              	.LBE80:
 304              		.loc 4 876 1
 305 0014 00BF     		nop
 306              	.LBE79:
 307              	.LBE78:
 308              		.loc 2 478 1
 309 0016 00BF     		nop
 310 0018 0C37     		adds	r7, r7, #12
 311              		.cfi_def_cfa_offset 4
 312 001a BD46     		mov	sp, r7
 313              		.cfi_def_cfa_register 13
 314              		@ sp needed
 315 001c 80BC     		pop	{r7}
 316              		.cfi_restore 7
 317              		.cfi_def_cfa_offset 0
 318 001e 7047     		bx	lr
 319              		.cfi_endproc
 320              	.LFE205:
 321              		.size	chSysUnlockFromISR, .-chSysUnlockFromISR
 322              		.section	.text.__oslib_init,"ax",%progbits
 323              		.align	1
 324              		.syntax unified
 325              		.thumb
 326              		.thumb_func
 327              		.type	__oslib_init, %function
 328              	__oslib_init:
 329              	.LFB345:
 330              		.file 5 "../../../os/oslib/include/chlib.h"
 331              		.loc 5 249 39
 332              		.cfi_startproc
 333              		@ args = 0, pretend = 0, frame = 0
 334              		@ frame_needed = 1, uses_anonymous_args = 0
 335 0000 80B5     		push	{r7, lr}
 336              		.cfi_def_cfa_offset 8
 337              		.cfi_offset 7, -8
 338              		.cfi_offset 14, -4
 339 0002 00AF     		add	r7, sp, #0
 340              		.cfi_def_cfa_register 7
 341              		.loc 5 252 3
 342 0004 FFF7FEFF 		bl	__core_init
ARM GAS  C:\Users\DEVELO~1\AppData\Local\Temp\ccda7CNH.s 			page 7


 343              		.loc 5 255 3
 344 0008 FFF7FEFF 		bl	__heap_init
 345              		.loc 5 258 3
 346 000c FFF7FEFF 		bl	__factory_init
 347              		.loc 5 260 1
 348 0010 00BF     		nop
 349 0012 80BD     		pop	{r7, pc}
 350              		.cfi_endproc
 351              	.LFE345:
 352              		.size	__oslib_init, .-__oslib_init
 353              		.global	ch_system
 354              		.section	.bss.ch_system,"aw",%nobits
 355              		.align	2
 356              		.type	ch_system, %object
 357              		.size	ch_system, 12
 358              	ch_system:
 359 0000 00000000 		.space	12
 359      00000000 
 359      00000000 
 360              		.global	ch0
 361              		.section	.bss.ch0,"aw",%nobits
 362              		.align	3
 363              		.type	ch0, %object
 364              		.size	ch0, 2192
 365              	ch0:
 366 0000 00000000 		.space	2192
 366      00000000 
 366      00000000 
 366      00000000 
 366      00000000 
 367              		.section	.bss.ch_c0_idle_thread_wa,"aw",%nobits
 368              		.align	3
 369              		.type	ch_c0_idle_thread_wa, %object
 370              		.size	ch_c0_idle_thread_wa, 304
 371              	ch_c0_idle_thread_wa:
 372 0000 00000000 		.space	304
 372      00000000 
 372      00000000 
 372      00000000 
 372      00000000 
 373              		.global	ch_core0_cfg
 374              		.section	.rodata
 375              		.align	2
 376              	.LC0:
 377 0000 633000   		.ascii	"c0\000"
 378              		.section	.rodata.ch_core0_cfg,"a"
 379              		.align	2
 380              		.type	ch_core0_cfg, %object
 381              		.size	ch_core0_cfg, 20
 382              	ch_core0_cfg:
 383 0000 00000000 		.word	.LC0
 384 0004 00000000 		.word	0
 385 0008 00000000 		.word	0
 386 000c 00000000 		.word	ch_c0_idle_thread_wa
 387 0010 30010000 		.word	ch_c0_idle_thread_wa+304
 388              		.section	.text.chSysWaitSystemState,"ax",%progbits
 389              		.align	1
ARM GAS  C:\Users\DEVELO~1\AppData\Local\Temp\ccda7CNH.s 			page 8


 390              		.global	chSysWaitSystemState
 391              		.syntax unified
 392              		.thumb
 393              		.thumb_func
 394              		.type	chSysWaitSystemState, %function
 395              	chSysWaitSystemState:
 396              	.LFB346:
 397              		.file 6 "../../../os/rt/src/chsys.c"
 398              		.loc 6 142 49
 399              		.cfi_startproc
 400              		@ args = 0, pretend = 0, frame = 8
 401              		@ frame_needed = 1, uses_anonymous_args = 0
 402              		@ link register save eliminated.
 403 0000 80B4     		push	{r7}
 404              		.cfi_def_cfa_offset 4
 405              		.cfi_offset 7, -4
 406 0002 83B0     		sub	sp, sp, #12
 407              		.cfi_def_cfa_offset 16
 408 0004 00AF     		add	r7, sp, #0
 409              		.cfi_def_cfa_register 7
 410 0006 0346     		mov	r3, r0
 411 0008 FB71     		strb	r3, [r7, #7]
 412              		.loc 6 144 9
 413 000a 00BF     		nop
 414              	.L9:
 415              		.loc 6 144 19 discriminator 1
 416 000c 054B     		ldr	r3, .L10
 417 000e 1B78     		ldrb	r3, [r3]	@ zero_extendqisi2
 418              		.loc 6 144 26 discriminator 1
 419 0010 FA79     		ldrb	r2, [r7, #7]	@ zero_extendqisi2
 420 0012 9A42     		cmp	r2, r3
 421 0014 FAD1     		bne	.L9
 422              		.loc 6 146 1
 423 0016 00BF     		nop
 424 0018 00BF     		nop
 425 001a 0C37     		adds	r7, r7, #12
 426              		.cfi_def_cfa_offset 4
 427 001c BD46     		mov	sp, r7
 428              		.cfi_def_cfa_register 13
 429              		@ sp needed
 430 001e 80BC     		pop	{r7}
 431              		.cfi_restore 7
 432              		.cfi_def_cfa_offset 0
 433 0020 7047     		bx	lr
 434              	.L11:
 435 0022 00BF     		.align	2
 436              	.L10:
 437 0024 00000000 		.word	ch_system
 438              		.cfi_endproc
 439              	.LFE346:
 440              		.size	chSysWaitSystemState, .-chSysWaitSystemState
 441              		.section	.text.chSysInit,"ax",%progbits
 442              		.align	1
 443              		.global	chSysInit
 444              		.syntax unified
 445              		.thumb
 446              		.thumb_func
ARM GAS  C:\Users\DEVELO~1\AppData\Local\Temp\ccda7CNH.s 			page 9


 447              		.type	chSysInit, %function
 448              	chSysInit:
 449              	.LFB347:
 450              		.loc 6 159 22
 451              		.cfi_startproc
 452              		@ args = 0, pretend = 0, frame = 8
 453              		@ frame_needed = 1, uses_anonymous_args = 0
 454 0000 80B5     		push	{r7, lr}
 455              		.cfi_def_cfa_offset 8
 456              		.cfi_offset 7, -8
 457              		.cfi_offset 14, -4
 458 0002 82B0     		sub	sp, sp, #8
 459              		.cfi_def_cfa_offset 16
 460 0004 00AF     		add	r7, sp, #0
 461              		.cfi_def_cfa_register 7
 462              		.loc 6 163 19
 463 0006 124B     		ldr	r3, .L15
 464 0008 0122     		movs	r2, #1
 465 000a 1A70     		strb	r2, [r3]
 466              		.loc 6 164 10
 467 000c 0023     		movs	r3, #0
 468 000e 7B60     		str	r3, [r7, #4]
 469              		.loc 6 164 3
 470 0010 08E0     		b	.L13
 471              	.L14:
 472              		.loc 6 165 28 discriminator 3
 473 0012 0F4A     		ldr	r2, .L15
 474 0014 7B68     		ldr	r3, [r7, #4]
 475 0016 9B00     		lsls	r3, r3, #2
 476 0018 1344     		add	r3, r3, r2
 477 001a 0022     		movs	r2, #0
 478 001c 5A60     		str	r2, [r3, #4]
 479              		.loc 6 164 50 discriminator 3
 480 001e 7B68     		ldr	r3, [r7, #4]
 481 0020 0133     		adds	r3, r3, #1
 482 0022 7B60     		str	r3, [r7, #4]
 483              	.L13:
 484              		.loc 6 164 18 discriminator 1
 485 0024 7B68     		ldr	r3, [r7, #4]
 486 0026 002B     		cmp	r3, #0
 487 0028 F3D0     		beq	.L14
 488              		.loc 6 170 3
 489 002a 0A48     		ldr	r0, .L15+4
 490 002c FFF7FEFF 		bl	__tm_calibration_object_init
 491              		.loc 6 187 3
 492 0030 FFF7FEFF 		bl	__oslib_init
 493              		.loc 6 190 3
 494 0034 0849     		ldr	r1, .L15+8
 495 0036 0948     		ldr	r0, .L15+12
 496 0038 FFF7FEFF 		bl	chInstanceObjectInit
 497              		.loc 6 193 19
 498 003c 044B     		ldr	r3, .L15
 499 003e 0222     		movs	r2, #2
 500 0040 1A70     		strb	r2, [r3]
 501              		.loc 6 194 3
 502 0042 FFF7FEFF 		bl	chSysUnlock
 503              		.loc 6 195 1
ARM GAS  C:\Users\DEVELO~1\AppData\Local\Temp\ccda7CNH.s 			page 10


 504 0046 00BF     		nop
 505 0048 0837     		adds	r7, r7, #8
 506              		.cfi_def_cfa_offset 8
 507 004a BD46     		mov	sp, r7
 508              		.cfi_def_cfa_register 13
 509              		@ sp needed
 510 004c 80BD     		pop	{r7, pc}
 511              	.L16:
 512 004e 00BF     		.align	2
 513              	.L15:
 514 0050 00000000 		.word	ch_system
 515 0054 08000000 		.word	ch_system+8
 516 0058 00000000 		.word	ch_core0_cfg
 517 005c 00000000 		.word	ch0
 518              		.cfi_endproc
 519              	.LFE347:
 520              		.size	chSysInit, .-chSysInit
 521              		.section	.text.chSysHalt,"ax",%progbits
 522              		.align	1
 523              		.global	chSysHalt
 524              		.syntax unified
 525              		.thumb
 526              		.thumb_func
 527              		.type	chSysHalt, %function
 528              	chSysHalt:
 529              	.LFB348:
 530              		.loc 6 209 36
 531              		.cfi_startproc
 532              		@ args = 0, pretend = 0, frame = 8
 533              		@ frame_needed = 1, uses_anonymous_args = 0
 534 0000 80B5     		push	{r7, lr}
 535              		.cfi_def_cfa_offset 8
 536              		.cfi_offset 7, -8
 537              		.cfi_offset 14, -4
 538 0002 82B0     		sub	sp, sp, #8
 539              		.cfi_def_cfa_offset 16
 540 0004 00AF     		add	r7, sp, #0
 541              		.cfi_def_cfa_register 7
 542 0006 7860     		str	r0, [r7, #4]
 543              	.LBB84:
 544              	.LBB85:
 545              	.LBB86:
 546              	.LBB87:
 547              		.loc 3 142 3
 548              		.syntax unified
 549              	@ 142 "../../../os/common/ext/ARM/CMSIS/Core/Include/cmsis_gcc.h" 1
 550 0008 72B6     		cpsid i
 551              	@ 0 "" 2
 552              		.loc 3 143 1
 553              		.thumb
 554              		.syntax unified
 555 000a 00BF     		nop
 556              	.LBE87:
 557              	.LBE86:
 558              		.loc 4 886 1
 559 000c 00BF     		nop
 560              	.LBE85:
ARM GAS  C:\Users\DEVELO~1\AppData\Local\Temp\ccda7CNH.s 			page 11


 561              	.LBE84:
 562              		.loc 6 214 3
 563 000e 7868     		ldr	r0, [r7, #4]
 564 0010 FFF7FEFF 		bl	__trace_halt
 565              		.loc 6 217 27
 566 0014 034A     		ldr	r2, .L19
 567 0016 7B68     		ldr	r3, [r7, #4]
 568 0018 C2F88430 		str	r3, [r2, #132]
 569              		.loc 6 229 19
 570 001c 024B     		ldr	r3, .L19+4
 571 001e 0322     		movs	r2, #3
 572 0020 1A70     		strb	r2, [r3]
 573              	.L18:
 574              		.loc 6 232 9 discriminator 1
 575 0022 FEE7     		b	.L18
 576              	.L20:
 577              		.align	2
 578              	.L19:
 579 0024 00000000 		.word	ch0
 580 0028 00000000 		.word	ch_system
 581              		.cfi_endproc
 582              	.LFE348:
 583              		.size	chSysHalt, .-chSysHalt
 584              		.section	.text.chSysGetIdleThreadX,"ax",%progbits
 585              		.align	1
 586              		.global	chSysGetIdleThreadX
 587              		.syntax unified
 588              		.thumb
 589              		.thumb_func
 590              		.type	chSysGetIdleThreadX, %function
 591              	chSysGetIdleThreadX:
 592              	.LFB349:
 593              		.loc 6 248 37
 594              		.cfi_startproc
 595              		@ args = 0, pretend = 0, frame = 8
 596              		@ frame_needed = 1, uses_anonymous_args = 0
 597              		@ link register save eliminated.
 598 0000 80B4     		push	{r7}
 599              		.cfi_def_cfa_offset 4
 600              		.cfi_offset 7, -4
 601 0002 83B0     		sub	sp, sp, #12
 602              		.cfi_def_cfa_offset 16
 603 0004 00AF     		add	r7, sp, #0
 604              		.cfi_def_cfa_register 7
 605              		.loc 6 249 13
 606 0006 044B     		ldr	r3, .L23
 607 0008 5B68     		ldr	r3, [r3, #4]
 608 000a 7B60     		str	r3, [r7, #4]
 609              		.loc 6 253 10
 610 000c 7B68     		ldr	r3, [r7, #4]
 611              		.loc 6 254 1
 612 000e 1846     		mov	r0, r3
 613 0010 0C37     		adds	r7, r7, #12
 614              		.cfi_def_cfa_offset 4
 615 0012 BD46     		mov	sp, r7
 616              		.cfi_def_cfa_register 13
 617              		@ sp needed
ARM GAS  C:\Users\DEVELO~1\AppData\Local\Temp\ccda7CNH.s 			page 12


 618 0014 80BC     		pop	{r7}
 619              		.cfi_restore 7
 620              		.cfi_def_cfa_offset 0
 621 0016 7047     		bx	lr
 622              	.L24:
 623              		.align	2
 624              	.L23:
 625 0018 00000000 		.word	ch0
 626              		.cfi_endproc
 627              	.LFE349:
 628              		.size	chSysGetIdleThreadX, .-chSysGetIdleThreadX
 629              		.section	.text.chSysIntegrityCheckI,"ax",%progbits
 630              		.align	1
 631              		.global	chSysIntegrityCheckI
 632              		.syntax unified
 633              		.thumb
 634              		.thumb_func
 635              		.type	chSysIntegrityCheckI, %function
 636              	chSysIntegrityCheckI:
 637              	.LFB350:
 638              		.loc 6 280 46
 639              		.cfi_startproc
 640              		@ args = 0, pretend = 0, frame = 32
 641              		@ frame_needed = 1, uses_anonymous_args = 0
 642              		@ link register save eliminated.
 643 0000 80B4     		push	{r7}
 644              		.cfi_def_cfa_offset 4
 645              		.cfi_offset 7, -4
 646 0002 89B0     		sub	sp, sp, #36
 647              		.cfi_def_cfa_offset 40
 648 0004 00AF     		add	r7, sp, #0
 649              		.cfi_def_cfa_register 7
 650 0006 7860     		str	r0, [r7, #4]
 651              		.loc 6 281 18
 652 0008 424B     		ldr	r3, .L42
 653 000a FB60     		str	r3, [r7, #12]
 654              		.loc 6 287 17
 655 000c 7B68     		ldr	r3, [r7, #4]
 656 000e 03F00103 		and	r3, r3, #1
 657              		.loc 6 287 6
 658 0012 002B     		cmp	r3, #0
 659 0014 22D0     		beq	.L26
 660              	.LBB88:
 661              		.loc 6 291 7
 662 0016 0023     		movs	r3, #0
 663 0018 FB61     		str	r3, [r7, #28]
 664              		.loc 6 292 9
 665 001a FB68     		ldr	r3, [r7, #12]
 666 001c 1B68     		ldr	r3, [r3]
 667 001e BB61     		str	r3, [r7, #24]
 668              		.loc 6 293 11
 669 0020 05E0     		b	.L27
 670              	.L28:
 671              		.loc 6 294 8
 672 0022 FB69     		ldr	r3, [r7, #28]
 673 0024 0133     		adds	r3, r3, #1
 674 0026 FB61     		str	r3, [r7, #28]
ARM GAS  C:\Users\DEVELO~1\AppData\Local\Temp\ccda7CNH.s 			page 13


 675              		.loc 6 295 11
 676 0028 BB69     		ldr	r3, [r7, #24]
 677 002a 1B68     		ldr	r3, [r3]
 678 002c BB61     		str	r3, [r7, #24]
 679              	.L27:
 680              		.loc 6 293 19
 681 002e FB68     		ldr	r3, [r7, #12]
 682              		.loc 6 293 16
 683 0030 BA69     		ldr	r2, [r7, #24]
 684 0032 9A42     		cmp	r2, r3
 685 0034 F5D1     		bne	.L28
 686              		.loc 6 299 9
 687 0036 FB68     		ldr	r3, [r7, #12]
 688 0038 5B68     		ldr	r3, [r3, #4]
 689 003a BB61     		str	r3, [r7, #24]
 690              		.loc 6 300 11
 691 003c 05E0     		b	.L29
 692              	.L30:
 693              		.loc 6 301 8
 694 003e FB69     		ldr	r3, [r7, #28]
 695 0040 013B     		subs	r3, r3, #1
 696 0042 FB61     		str	r3, [r7, #28]
 697              		.loc 6 302 11
 698 0044 BB69     		ldr	r3, [r7, #24]
 699 0046 5B68     		ldr	r3, [r3, #4]
 700 0048 BB61     		str	r3, [r7, #24]
 701              	.L29:
 702              		.loc 6 300 19
 703 004a FB68     		ldr	r3, [r7, #12]
 704              		.loc 6 300 16
 705 004c BA69     		ldr	r2, [r7, #24]
 706 004e 9A42     		cmp	r2, r3
 707 0050 F5D1     		bne	.L30
 708              		.loc 6 306 8
 709 0052 FB69     		ldr	r3, [r7, #28]
 710 0054 002B     		cmp	r3, #0
 711 0056 01D0     		beq	.L26
 712              		.loc 6 307 14
 713 0058 0123     		movs	r3, #1
 714 005a 55E0     		b	.L31
 715              	.L26:
 716              	.LBE88:
 717              		.loc 6 312 17
 718 005c 7B68     		ldr	r3, [r7, #4]
 719 005e 03F00203 		and	r3, r3, #2
 720              		.loc 6 312 6
 721 0062 002B     		cmp	r3, #0
 722 0064 24D0     		beq	.L32
 723              	.LBB89:
 724              		.loc 6 316 7
 725 0066 0023     		movs	r3, #0
 726 0068 FB61     		str	r3, [r7, #28]
 727              		.loc 6 317 9
 728 006a FB68     		ldr	r3, [r7, #12]
 729 006c 1B69     		ldr	r3, [r3, #16]
 730 006e 7B61     		str	r3, [r7, #20]
 731              		.loc 6 318 11
ARM GAS  C:\Users\DEVELO~1\AppData\Local\Temp\ccda7CNH.s 			page 14


 732 0070 05E0     		b	.L33
 733              	.L34:
 734              		.loc 6 319 8
 735 0072 FB69     		ldr	r3, [r7, #28]
 736 0074 0133     		adds	r3, r3, #1
 737 0076 FB61     		str	r3, [r7, #28]
 738              		.loc 6 320 11
 739 0078 7B69     		ldr	r3, [r7, #20]
 740 007a 1B68     		ldr	r3, [r3]
 741 007c 7B61     		str	r3, [r7, #20]
 742              	.L33:
 743              		.loc 6 318 19
 744 007e FB68     		ldr	r3, [r7, #12]
 745 0080 1033     		adds	r3, r3, #16
 746              		.loc 6 318 16
 747 0082 7A69     		ldr	r2, [r7, #20]
 748 0084 9A42     		cmp	r2, r3
 749 0086 F4D1     		bne	.L34
 750              		.loc 6 324 9
 751 0088 FB68     		ldr	r3, [r7, #12]
 752 008a 5B69     		ldr	r3, [r3, #20]
 753 008c 7B61     		str	r3, [r7, #20]
 754              		.loc 6 325 11
 755 008e 05E0     		b	.L35
 756              	.L36:
 757              		.loc 6 326 8
 758 0090 FB69     		ldr	r3, [r7, #28]
 759 0092 013B     		subs	r3, r3, #1
 760 0094 FB61     		str	r3, [r7, #28]
 761              		.loc 6 327 11
 762 0096 7B69     		ldr	r3, [r7, #20]
 763 0098 5B68     		ldr	r3, [r3, #4]
 764 009a 7B61     		str	r3, [r7, #20]
 765              	.L35:
 766              		.loc 6 325 19
 767 009c FB68     		ldr	r3, [r7, #12]
 768 009e 1033     		adds	r3, r3, #16
 769              		.loc 6 325 16
 770 00a0 7A69     		ldr	r2, [r7, #20]
 771 00a2 9A42     		cmp	r2, r3
 772 00a4 F4D1     		bne	.L36
 773              		.loc 6 331 8
 774 00a6 FB69     		ldr	r3, [r7, #28]
 775 00a8 002B     		cmp	r3, #0
 776 00aa 01D0     		beq	.L32
 777              		.loc 6 332 14
 778 00ac 0123     		movs	r3, #1
 779 00ae 2BE0     		b	.L31
 780              	.L32:
 781              	.LBE89:
 782              		.loc 6 337 17
 783 00b0 7B68     		ldr	r3, [r7, #4]
 784 00b2 03F00403 		and	r3, r3, #4
 785              		.loc 6 337 6
 786 00b6 002B     		cmp	r3, #0
 787 00b8 25D0     		beq	.L37
 788              	.LBB90:
ARM GAS  C:\Users\DEVELO~1\AppData\Local\Temp\ccda7CNH.s 			page 15


 789              		.loc 6 342 9
 790 00ba FB68     		ldr	r3, [r7, #12]
 791 00bc 2833     		adds	r3, r3, #40
 792 00be BB60     		str	r3, [r7, #8]
 793              		.loc 6 345 7
 794 00c0 0023     		movs	r3, #0
 795 00c2 FB61     		str	r3, [r7, #28]
 796              		.loc 6 346 8
 797 00c4 BB68     		ldr	r3, [r7, #8]
 798 00c6 1B68     		ldr	r3, [r3]
 799 00c8 3B61     		str	r3, [r7, #16]
 800              		.loc 6 347 11
 801 00ca 05E0     		b	.L38
 802              	.L39:
 803              		.loc 6 348 8
 804 00cc FB69     		ldr	r3, [r7, #28]
 805 00ce 0133     		adds	r3, r3, #1
 806 00d0 FB61     		str	r3, [r7, #28]
 807              		.loc 6 349 10
 808 00d2 3B69     		ldr	r3, [r7, #16]
 809 00d4 1B68     		ldr	r3, [r3]
 810 00d6 3B61     		str	r3, [r7, #16]
 811              	.L38:
 812              		.loc 6 347 15
 813 00d8 3A69     		ldr	r2, [r7, #16]
 814 00da BB68     		ldr	r3, [r7, #8]
 815 00dc 9A42     		cmp	r2, r3
 816 00de F5D1     		bne	.L39
 817              		.loc 6 353 8
 818 00e0 BB68     		ldr	r3, [r7, #8]
 819 00e2 5B68     		ldr	r3, [r3, #4]
 820 00e4 3B61     		str	r3, [r7, #16]
 821              		.loc 6 354 11
 822 00e6 05E0     		b	.L40
 823              	.L41:
 824              		.loc 6 355 8
 825 00e8 FB69     		ldr	r3, [r7, #28]
 826 00ea 013B     		subs	r3, r3, #1
 827 00ec FB61     		str	r3, [r7, #28]
 828              		.loc 6 356 10
 829 00ee 3B69     		ldr	r3, [r7, #16]
 830 00f0 5B68     		ldr	r3, [r3, #4]
 831 00f2 3B61     		str	r3, [r7, #16]
 832              	.L40:
 833              		.loc 6 354 15
 834 00f4 3A69     		ldr	r2, [r7, #16]
 835 00f6 BB68     		ldr	r3, [r7, #8]
 836 00f8 9A42     		cmp	r2, r3
 837 00fa F5D1     		bne	.L41
 838              		.loc 6 360 8
 839 00fc FB69     		ldr	r3, [r7, #28]
 840 00fe 002B     		cmp	r3, #0
 841 0100 01D0     		beq	.L37
 842              		.loc 6 361 14
 843 0102 0123     		movs	r3, #1
 844 0104 00E0     		b	.L31
 845              	.L37:
ARM GAS  C:\Users\DEVELO~1\AppData\Local\Temp\ccda7CNH.s 			page 16


 846              	.LBE90:
 847              		.loc 6 372 10
 848 0106 0023     		movs	r3, #0
 849              	.L31:
 850              		.loc 6 373 1
 851 0108 1846     		mov	r0, r3
 852 010a 2437     		adds	r7, r7, #36
 853              		.cfi_def_cfa_offset 4
 854 010c BD46     		mov	sp, r7
 855              		.cfi_def_cfa_register 13
 856              		@ sp needed
 857 010e 80BC     		pop	{r7}
 858              		.cfi_restore 7
 859              		.cfi_def_cfa_offset 0
 860 0110 7047     		bx	lr
 861              	.L43:
 862 0112 00BF     		.align	2
 863              	.L42:
 864 0114 00000000 		.word	ch0
 865              		.cfi_endproc
 866              	.LFE350:
 867              		.size	chSysIntegrityCheckI, .-chSysIntegrityCheckI
 868              		.section	.text.chSysTimerHandlerI,"ax",%progbits
 869              		.align	1
 870              		.global	chSysTimerHandlerI
 871              		.syntax unified
 872              		.thumb
 873              		.thumb_func
 874              		.type	chSysTimerHandlerI, %function
 875              	chSysTimerHandlerI:
 876              	.LFB351:
 877              		.loc 6 386 31
 878              		.cfi_startproc
 879              		@ args = 0, pretend = 0, frame = 0
 880              		@ frame_needed = 1, uses_anonymous_args = 0
 881 0000 80B5     		push	{r7, lr}
 882              		.cfi_def_cfa_offset 8
 883              		.cfi_offset 7, -8
 884              		.cfi_offset 14, -4
 885 0002 00AF     		add	r7, sp, #0
 886              		.cfi_def_cfa_register 7
 887              		.loc 6 403 3
 888 0004 FFF7FEFF 		bl	chVTDoTickI
 889              		.loc 6 405 1
 890 0008 00BF     		nop
 891 000a 80BD     		pop	{r7, pc}
 892              		.cfi_endproc
 893              	.LFE351:
 894              		.size	chSysTimerHandlerI, .-chSysTimerHandlerI
 895              		.section	.text.chSysGetStatusAndLockX,"ax",%progbits
 896              		.align	1
 897              		.global	chSysGetStatusAndLockX
 898              		.syntax unified
 899              		.thumb
 900              		.thumb_func
 901              		.type	chSysGetStatusAndLockX, %function
 902              	chSysGetStatusAndLockX:
ARM GAS  C:\Users\DEVELO~1\AppData\Local\Temp\ccda7CNH.s 			page 17


 903              	.LFB352:
 904              		.loc 6 423 39
 905              		.cfi_startproc
 906              		@ args = 0, pretend = 0, frame = 24
 907              		@ frame_needed = 1, uses_anonymous_args = 0
 908 0000 80B5     		push	{r7, lr}
 909              		.cfi_def_cfa_offset 8
 910              		.cfi_offset 7, -8
 911              		.cfi_offset 14, -4
 912 0002 86B0     		sub	sp, sp, #24
 913              		.cfi_def_cfa_offset 32
 914 0004 00AF     		add	r7, sp, #0
 915              		.cfi_def_cfa_register 7
 916              	.LBB91:
 917              	.LBB92:
 918              	.LBB93:
 919              	.LBB94:
 920              		.loc 3 465 3
 921              		.syntax unified
 922              	@ 465 "../../../os/common/ext/ARM/CMSIS/Core/Include/cmsis_gcc.h" 1
 923 0006 EFF31183 		MRS r3, basepri
 924              	@ 0 "" 2
 925              		.thumb
 926              		.syntax unified
 927 000a FB60     		str	r3, [r7, #12]
 928              		.loc 3 466 9
 929 000c FB68     		ldr	r3, [r7, #12]
 930              	.LBE94:
 931              	.LBE93:
 932              		.loc 4 781 19
 933 000e BB60     		str	r3, [r7, #8]
 934              		.loc 4 785 10
 935 0010 BB68     		ldr	r3, [r7, #8]
 936              	.LBE92:
 937              	.LBE91:
 938              		.loc 6 425 18
 939 0012 7B61     		str	r3, [r7, #20]
 940 0014 7B69     		ldr	r3, [r7, #20]
 941 0016 3B61     		str	r3, [r7, #16]
 942              	.LBB95:
 943              	.LBB96:
 944              		.loc 4 800 14
 945 0018 3B69     		ldr	r3, [r7, #16]
 946 001a 002B     		cmp	r3, #0
 947 001c 0CBF     		ite	eq
 948 001e 0123     		moveq	r3, #1
 949 0020 0023     		movne	r3, #0
 950 0022 DBB2     		uxtb	r3, r3
 951              	.LBE96:
 952              	.LBE95:
 953              		.loc 6 426 6
 954 0024 002B     		cmp	r3, #0
 955 0026 11D0     		beq	.L49
 956              	.LBB97:
 957              	.LBB98:
 958              	.LBB99:
 959              	.LBB100:
ARM GAS  C:\Users\DEVELO~1\AppData\Local\Temp\ccda7CNH.s 			page 18


 960              		.loc 3 209 3
 961              		.syntax unified
 962              	@ 209 "../../../os/common/ext/ARM/CMSIS/Core/Include/cmsis_gcc.h" 1
 963 0028 EFF30583 		MRS r3, ipsr
 964              	@ 0 "" 2
 965              		.thumb
 966              		.syntax unified
 967 002c 7B60     		str	r3, [r7, #4]
 968              		.loc 3 210 9
 969 002e 7B68     		ldr	r3, [r7, #4]
 970              	.LBE100:
 971              	.LBE99:
 972              		.loc 4 815 31
 973 0030 C3F30803 		ubfx	r3, r3, #0, #9
 974              		.loc 4 815 10
 975 0034 002B     		cmp	r3, #0
 976 0036 14BF     		ite	ne
 977 0038 0123     		movne	r3, #1
 978 003a 0023     		moveq	r3, #0
 979 003c DBB2     		uxtb	r3, r3
 980              	.LBE98:
 981              	.LBE97:
 982              		.loc 6 427 8
 983 003e 002B     		cmp	r3, #0
 984 0040 02D0     		beq	.L52
 985              		.loc 6 428 7
 986 0042 FFF7FEFF 		bl	chSysLockFromISR
 987 0046 01E0     		b	.L49
 988              	.L52:
 989              		.loc 6 431 7
 990 0048 FFF7FEFF 		bl	chSysLock
 991              	.L49:
 992              		.loc 6 434 10
 993 004c 7B69     		ldr	r3, [r7, #20]
 994              		.loc 6 435 1
 995 004e 1846     		mov	r0, r3
 996 0050 1837     		adds	r7, r7, #24
 997              		.cfi_def_cfa_offset 8
 998 0052 BD46     		mov	sp, r7
 999              		.cfi_def_cfa_register 13
 1000              		@ sp needed
 1001 0054 80BD     		pop	{r7, pc}
 1002              		.cfi_endproc
 1003              	.LFE352:
 1004              		.size	chSysGetStatusAndLockX, .-chSysGetStatusAndLockX
 1005              		.section	.text.chSysRestoreStatusX,"ax",%progbits
 1006              		.align	1
 1007              		.global	chSysRestoreStatusX
 1008              		.syntax unified
 1009              		.thumb
 1010              		.thumb_func
 1011              		.type	chSysRestoreStatusX, %function
 1012              	chSysRestoreStatusX:
 1013              	.LFB353:
 1014              		.loc 6 448 40
 1015              		.cfi_startproc
 1016              		@ args = 0, pretend = 0, frame = 16
ARM GAS  C:\Users\DEVELO~1\AppData\Local\Temp\ccda7CNH.s 			page 19


 1017              		@ frame_needed = 1, uses_anonymous_args = 0
 1018 0000 80B5     		push	{r7, lr}
 1019              		.cfi_def_cfa_offset 8
 1020              		.cfi_offset 7, -8
 1021              		.cfi_offset 14, -4
 1022 0002 84B0     		sub	sp, sp, #16
 1023              		.cfi_def_cfa_offset 24
 1024 0004 00AF     		add	r7, sp, #0
 1025              		.cfi_def_cfa_register 7
 1026 0006 7860     		str	r0, [r7, #4]
 1027 0008 7B68     		ldr	r3, [r7, #4]
 1028 000a FB60     		str	r3, [r7, #12]
 1029              	.LBB101:
 1030              	.LBB102:
 1031              		.loc 4 800 14
 1032 000c FB68     		ldr	r3, [r7, #12]
 1033 000e 002B     		cmp	r3, #0
 1034 0010 0CBF     		ite	eq
 1035 0012 0123     		moveq	r3, #1
 1036 0014 0023     		movne	r3, #0
 1037 0016 DBB2     		uxtb	r3, r3
 1038              	.LBE102:
 1039              	.LBE101:
 1040              		.loc 6 450 6
 1041 0018 002B     		cmp	r3, #0
 1042 001a 13D0     		beq	.L60
 1043              	.LBB103:
 1044              	.LBB104:
 1045              	.LBB105:
 1046              	.LBB106:
 1047              		.loc 3 209 3
 1048              		.syntax unified
 1049              	@ 209 "../../../os/common/ext/ARM/CMSIS/Core/Include/cmsis_gcc.h" 1
 1050 001c EFF30583 		MRS r3, ipsr
 1051              	@ 0 "" 2
 1052              		.thumb
 1053              		.syntax unified
 1054 0020 BB60     		str	r3, [r7, #8]
 1055              		.loc 3 210 9
 1056 0022 BB68     		ldr	r3, [r7, #8]
 1057              	.LBE106:
 1058              	.LBE105:
 1059              		.loc 4 815 31
 1060 0024 C3F30803 		ubfx	r3, r3, #0, #9
 1061              		.loc 4 815 10
 1062 0028 002B     		cmp	r3, #0
 1063 002a 14BF     		ite	ne
 1064 002c 0123     		movne	r3, #1
 1065 002e 0023     		moveq	r3, #0
 1066 0030 DBB2     		uxtb	r3, r3
 1067              	.LBE104:
 1068              	.LBE103:
 1069              		.loc 6 451 8
 1070 0032 002B     		cmp	r3, #0
 1071 0034 02D0     		beq	.L59
 1072              		.loc 6 452 7
 1073 0036 FFF7FEFF 		bl	chSysUnlockFromISR
ARM GAS  C:\Users\DEVELO~1\AppData\Local\Temp\ccda7CNH.s 			page 20


 1074              		.loc 6 459 1
 1075 003a 03E0     		b	.L60
 1076              	.L59:
 1077              		.loc 6 455 7
 1078 003c FFF7FEFF 		bl	chSchRescheduleS
 1079              		.loc 6 456 7
 1080 0040 FFF7FEFF 		bl	chSysUnlock
 1081              	.L60:
 1082              		.loc 6 459 1
 1083 0044 00BF     		nop
 1084 0046 1037     		adds	r7, r7, #16
 1085              		.cfi_def_cfa_offset 8
 1086 0048 BD46     		mov	sp, r7
 1087              		.cfi_def_cfa_register 13
 1088              		@ sp needed
 1089 004a 80BD     		pop	{r7, pc}
 1090              		.cfi_endproc
 1091              	.LFE353:
 1092              		.size	chSysRestoreStatusX, .-chSysRestoreStatusX
 1093              		.section	.text.chSysIsCounterWithinX,"ax",%progbits
 1094              		.align	1
 1095              		.global	chSysIsCounterWithinX
 1096              		.syntax unified
 1097              		.thumb
 1098              		.thumb_func
 1099              		.type	chSysIsCounterWithinX, %function
 1100              	chSysIsCounterWithinX:
 1101              	.LFB354:
 1102              		.loc 6 481 69
 1103              		.cfi_startproc
 1104              		@ args = 0, pretend = 0, frame = 16
 1105              		@ frame_needed = 1, uses_anonymous_args = 0
 1106              		@ link register save eliminated.
 1107 0000 80B4     		push	{r7}
 1108              		.cfi_def_cfa_offset 4
 1109              		.cfi_offset 7, -4
 1110 0002 85B0     		sub	sp, sp, #20
 1111              		.cfi_def_cfa_offset 24
 1112 0004 00AF     		add	r7, sp, #0
 1113              		.cfi_def_cfa_register 7
 1114 0006 F860     		str	r0, [r7, #12]
 1115 0008 B960     		str	r1, [r7, #8]
 1116 000a 7A60     		str	r2, [r7, #4]
 1117              		.loc 6 483 31
 1118 000c FA68     		ldr	r2, [r7, #12]
 1119 000e BB68     		ldr	r3, [r7, #8]
 1120 0010 D21A     		subs	r2, r2, r3
 1121              		.loc 6 484 31
 1122 0012 7968     		ldr	r1, [r7, #4]
 1123 0014 BB68     		ldr	r3, [r7, #8]
 1124 0016 CB1A     		subs	r3, r1, r3
 1125              		.loc 6 483 10
 1126 0018 9A42     		cmp	r2, r3
 1127 001a 34BF     		ite	cc
 1128 001c 0123     		movcc	r3, #1
 1129 001e 0023     		movcs	r3, #0
 1130 0020 DBB2     		uxtb	r3, r3
ARM GAS  C:\Users\DEVELO~1\AppData\Local\Temp\ccda7CNH.s 			page 21


 1131              		.loc 6 485 1
 1132 0022 1846     		mov	r0, r3
 1133 0024 1437     		adds	r7, r7, #20
 1134              		.cfi_def_cfa_offset 4
 1135 0026 BD46     		mov	sp, r7
 1136              		.cfi_def_cfa_register 13
 1137              		@ sp needed
 1138 0028 80BC     		pop	{r7}
 1139              		.cfi_restore 7
 1140              		.cfi_def_cfa_offset 0
 1141 002a 7047     		bx	lr
 1142              		.cfi_endproc
 1143              	.LFE354:
 1144              		.size	chSysIsCounterWithinX, .-chSysIsCounterWithinX
 1145              		.section	.text.chSysPolledDelayX,"ax",%progbits
 1146              		.align	1
 1147              		.global	chSysPolledDelayX
 1148              		.syntax unified
 1149              		.thumb
 1150              		.thumb_func
 1151              		.type	chSysPolledDelayX, %function
 1152              	chSysPolledDelayX:
 1153              	.LFB355:
 1154              		.loc 6 498 40
 1155              		.cfi_startproc
 1156              		@ args = 0, pretend = 0, frame = 16
 1157              		@ frame_needed = 1, uses_anonymous_args = 0
 1158 0000 80B5     		push	{r7, lr}
 1159              		.cfi_def_cfa_offset 8
 1160              		.cfi_offset 7, -8
 1161              		.cfi_offset 14, -4
 1162 0002 84B0     		sub	sp, sp, #16
 1163              		.cfi_def_cfa_offset 24
 1164 0004 00AF     		add	r7, sp, #0
 1165              		.cfi_def_cfa_register 7
 1166 0006 7860     		str	r0, [r7, #4]
 1167              	.LBB107:
 1168              	.LBB108:
 1169              		.loc 4 937 13
 1170 0008 0B4B     		ldr	r3, .L67
 1171 000a 5B68     		ldr	r3, [r3, #4]
 1172              	.LBE108:
 1173              	.LBE107:
 1174              		.loc 6 499 19
 1175 000c FB60     		str	r3, [r7, #12]
 1176              		.loc 6 500 11
 1177 000e FA68     		ldr	r2, [r7, #12]
 1178 0010 7B68     		ldr	r3, [r7, #4]
 1179 0012 1344     		add	r3, r3, r2
 1180 0014 BB60     		str	r3, [r7, #8]
 1181              		.loc 6 502 9
 1182 0016 00BF     		nop
 1183              	.L66:
 1184              	.LBB109:
 1185              	.LBB110:
 1186              		.loc 4 937 13 discriminator 1
 1187 0018 074B     		ldr	r3, .L67
ARM GAS  C:\Users\DEVELO~1\AppData\Local\Temp\ccda7CNH.s 			page 22


 1188 001a 5B68     		ldr	r3, [r3, #4]
 1189              	.LBE110:
 1190              	.LBE109:
 1191              		.loc 6 502 10 discriminator 1
 1192 001c BA68     		ldr	r2, [r7, #8]
 1193 001e F968     		ldr	r1, [r7, #12]
 1194 0020 1846     		mov	r0, r3
 1195 0022 FFF7FEFF 		bl	chSysIsCounterWithinX
 1196 0026 0346     		mov	r3, r0
 1197 0028 002B     		cmp	r3, #0
 1198 002a F5D1     		bne	.L66
 1199              		.loc 6 504 1
 1200 002c 00BF     		nop
 1201 002e 00BF     		nop
 1202 0030 1037     		adds	r7, r7, #16
 1203              		.cfi_def_cfa_offset 8
 1204 0032 BD46     		mov	sp, r7
 1205              		.cfi_def_cfa_register 13
 1206              		@ sp needed
 1207 0034 80BD     		pop	{r7, pc}
 1208              	.L68:
 1209 0036 00BF     		.align	2
 1210              	.L67:
 1211 0038 001000E0 		.word	-536866816
 1212              		.cfi_endproc
 1213              	.LFE355:
 1214              		.size	chSysPolledDelayX, .-chSysPolledDelayX
 1215              		.text
 1216              	.Letext0:
 1217              		.file 7 "c:\\chibistudio\\tools\\gnu tools arm embedded\\11.3 2022.08\\lib\\gcc\\arm-none-eabi\\11
 1218              		.file 8 "c:\\chibistudio\\tools\\gnu tools arm embedded\\11.3 2022.08\\arm-none-eabi\\include\\mac
 1219              		.file 9 "c:\\chibistudio\\tools\\gnu tools arm embedded\\11.3 2022.08\\arm-none-eabi\\include\\sys
 1220              		.file 10 "../../../os/common/ports/ARM-common/chtypes.h"
 1221              		.file 11 "../../../os/rt/include/chearly.h"
 1222              		.file 12 "../../../os/rt/include/chobjects.h"
 1223              		.file 13 "../../../os/rt/include/chrfcu.h"
 1224              		.file 14 "../../../os/rt/include/chdebug.h"
 1225              		.file 15 "../../../os/rt/include/chtime.h"
 1226              		.file 16 "../../../os/rt/include/chlists.h"
 1227              		.file 17 "../../../os/rt/include/chtrace.h"
 1228              		.file 18 "../../../os/common/ext/ARM/CMSIS/Core/Include/core_cm7.h"
 1229              		.file 19 "../../../os/rt/include/chsem.h"
 1230              		.file 20 "../../../os/rt/include/chmtx.h"
 1231              		.file 21 "../../../os/rt/include/chschd.h"
 1232              		.file 22 "../../../os/rt/include/chvt.h"
 1233              		.file 23 "../../../os/oslib/include/chfactory.h"
 1234              		.file 24 "../../../os/oslib/include/chmemheaps.h"
 1235              		.file 25 "../../../os/oslib/include/chmemcore.h"
 1236              		.file 26 "../../../os/rt/include/chinstances.h"