ARM GAS  C:\Users\DEVELO~1\AppData\Local\Temp\cceHiR3y.s 			page 1


   1              		.cpu cortex-m7
   2              		.arch armv7e-m
   3              		.fpu softvfp
   4              		.eabi_attribute 20, 1
   5              		.eabi_attribute 21, 1
   6              		.eabi_attribute 23, 3
   7              		.eabi_attribute 24, 1
   8              		.eabi_attribute 25, 1
   9              		.eabi_attribute 26, 1
  10              		.eabi_attribute 30, 6
  11              		.eabi_attribute 34, 1
  12              		.eabi_attribute 18, 4
  13              		.file	"chthreads.c"
  14              		.text
  15              	.Ltext0:
  16              		.cfi_sections	.debug_frame
  17              		.section	.text.chTimeDiffX,"ax",%progbits
  18              		.align	1
  19              		.syntax unified
  20              		.thumb
  21              		.thumb_func
  22              		.type	chTimeDiffX, %function
  23              	chTimeDiffX:
  24              	.LFB9:
  25              		.file 1 "../../../os/rt/include/chtime.h"
  26              		.loc 1 461 73
  27              		.cfi_startproc
  28              		@ args = 0, pretend = 0, frame = 8
  29              		@ frame_needed = 1, uses_anonymous_args = 0
  30              		@ link register save eliminated.
  31 0000 80B4     		push	{r7}
  32              		.cfi_def_cfa_offset 4
  33              		.cfi_offset 7, -4
  34 0002 83B0     		sub	sp, sp, #12
  35              		.cfi_def_cfa_offset 16
  36 0004 00AF     		add	r7, sp, #0
  37              		.cfi_def_cfa_register 7
  38 0006 7860     		str	r0, [r7, #4]
  39 0008 3960     		str	r1, [r7]
  40              		.loc 1 465 10
  41 000a 3A68     		ldr	r2, [r7]
  42 000c 7B68     		ldr	r3, [r7, #4]
  43 000e D31A     		subs	r3, r2, r3
  44              		.loc 1 467 1
  45 0010 1846     		mov	r0, r3
  46 0012 0C37     		adds	r7, r7, #12
  47              		.cfi_def_cfa_offset 4
  48 0014 BD46     		mov	sp, r7
  49              		.cfi_def_cfa_register 13
  50              		@ sp needed
  51 0016 80BC     		pop	{r7}
  52              		.cfi_restore 7
  53              		.cfi_def_cfa_offset 0
  54 0018 7047     		bx	lr
  55              		.cfi_endproc
  56              	.LFE9:
  57              		.size	chTimeDiffX, .-chTimeDiffX
ARM GAS  C:\Users\DEVELO~1\AppData\Local\Temp\cceHiR3y.s 			page 2


  58              		.section	.text.chTimeIsInRangeX,"ax",%progbits
  59              		.align	1
  60              		.syntax unified
  61              		.thumb
  62              		.thumb_func
  63              		.type	chTimeIsInRangeX, %function
  64              	chTimeIsInRangeX:
  65              	.LFB10:
  66              		.loc 1 486 52
  67              		.cfi_startproc
  68              		@ args = 0, pretend = 0, frame = 16
  69              		@ frame_needed = 1, uses_anonymous_args = 0
  70              		@ link register save eliminated.
  71 0000 80B4     		push	{r7}
  72              		.cfi_def_cfa_offset 4
  73              		.cfi_offset 7, -4
  74 0002 85B0     		sub	sp, sp, #20
  75              		.cfi_def_cfa_offset 24
  76 0004 00AF     		add	r7, sp, #0
  77              		.cfi_def_cfa_register 7
  78 0006 F860     		str	r0, [r7, #12]
  79 0008 B960     		str	r1, [r7, #8]
  80 000a 7A60     		str	r2, [r7, #4]
  81              		.loc 1 488 17
  82 000c FA68     		ldr	r2, [r7, #12]
  83 000e BB68     		ldr	r3, [r7, #8]
  84 0010 D21A     		subs	r2, r2, r3
  85              		.loc 1 489 17
  86 0012 7968     		ldr	r1, [r7, #4]
  87 0014 BB68     		ldr	r3, [r7, #8]
  88 0016 CB1A     		subs	r3, r1, r3
  89              		.loc 1 488 10
  90 0018 9A42     		cmp	r2, r3
  91 001a 34BF     		ite	cc
  92 001c 0123     		movcc	r3, #1
  93 001e 0023     		movcs	r3, #0
  94 0020 DBB2     		uxtb	r3, r3
  95              		.loc 1 490 1
  96 0022 1846     		mov	r0, r3
  97 0024 1437     		adds	r7, r7, #20
  98              		.cfi_def_cfa_offset 4
  99 0026 BD46     		mov	sp, r7
 100              		.cfi_def_cfa_register 13
 101              		@ sp needed
 102 0028 80BC     		pop	{r7}
 103              		.cfi_restore 7
 104              		.cfi_def_cfa_offset 0
 105 002a 7047     		bx	lr
 106              		.cfi_endproc
 107              	.LFE10:
 108              		.size	chTimeIsInRangeX, .-chTimeIsInRangeX
 109              		.section	.text.ch_list_init,"ax",%progbits
 110              		.align	1
 111              		.syntax unified
 112              		.thumb
 113              		.thumb_func
 114              		.type	ch_list_init, %function
ARM GAS  C:\Users\DEVELO~1\AppData\Local\Temp\cceHiR3y.s 			page 3


 115              	ch_list_init:
 116              	.LFB14:
 117              		.file 2 "../../../os/rt/include/chlists.h"
 118              		.loc 2 153 48
 119              		.cfi_startproc
 120              		@ args = 0, pretend = 0, frame = 8
 121              		@ frame_needed = 1, uses_anonymous_args = 0
 122              		@ link register save eliminated.
 123 0000 80B4     		push	{r7}
 124              		.cfi_def_cfa_offset 4
 125              		.cfi_offset 7, -4
 126 0002 83B0     		sub	sp, sp, #12
 127              		.cfi_def_cfa_offset 16
 128 0004 00AF     		add	r7, sp, #0
 129              		.cfi_def_cfa_register 7
 130 0006 7860     		str	r0, [r7, #4]
 131              		.loc 2 155 12
 132 0008 7B68     		ldr	r3, [r7, #4]
 133 000a 7A68     		ldr	r2, [r7, #4]
 134 000c 1A60     		str	r2, [r3]
 135              		.loc 2 156 1
 136 000e 00BF     		nop
 137 0010 0C37     		adds	r7, r7, #12
 138              		.cfi_def_cfa_offset 4
 139 0012 BD46     		mov	sp, r7
 140              		.cfi_def_cfa_register 13
 141              		@ sp needed
 142 0014 80BC     		pop	{r7}
 143              		.cfi_restore 7
 144              		.cfi_def_cfa_offset 0
 145 0016 7047     		bx	lr
 146              		.cfi_endproc
 147              	.LFE14:
 148              		.size	ch_list_init, .-ch_list_init
 149              		.section	.text.ch_list_notempty,"ax",%progbits
 150              		.align	1
 151              		.syntax unified
 152              		.thumb
 153              		.thumb_func
 154              		.type	ch_list_notempty, %function
 155              	ch_list_notempty:
 156              	.LFB16:
 157              		.loc 2 179 52
 158              		.cfi_startproc
 159              		@ args = 0, pretend = 0, frame = 8
 160              		@ frame_needed = 1, uses_anonymous_args = 0
 161              		@ link register save eliminated.
 162 0000 80B4     		push	{r7}
 163              		.cfi_def_cfa_offset 4
 164              		.cfi_offset 7, -4
 165 0002 83B0     		sub	sp, sp, #12
 166              		.cfi_def_cfa_offset 16
 167 0004 00AF     		add	r7, sp, #0
 168              		.cfi_def_cfa_register 7
 169 0006 7860     		str	r0, [r7, #4]
 170              		.loc 2 181 19
 171 0008 7B68     		ldr	r3, [r7, #4]
ARM GAS  C:\Users\DEVELO~1\AppData\Local\Temp\cceHiR3y.s 			page 4


 172 000a 1B68     		ldr	r3, [r3]
 173              		.loc 2 181 10
 174 000c 7A68     		ldr	r2, [r7, #4]
 175 000e 9A42     		cmp	r2, r3
 176 0010 14BF     		ite	ne
 177 0012 0123     		movne	r3, #1
 178 0014 0023     		moveq	r3, #0
 179 0016 DBB2     		uxtb	r3, r3
 180              		.loc 2 182 1
 181 0018 1846     		mov	r0, r3
 182 001a 0C37     		adds	r7, r7, #12
 183              		.cfi_def_cfa_offset 4
 184 001c BD46     		mov	sp, r7
 185              		.cfi_def_cfa_register 13
 186              		@ sp needed
 187 001e 80BC     		pop	{r7}
 188              		.cfi_restore 7
 189              		.cfi_def_cfa_offset 0
 190 0020 7047     		bx	lr
 191              		.cfi_endproc
 192              	.LFE16:
 193              		.size	ch_list_notempty, .-ch_list_notempty
 194              		.section	.text.ch_list_link,"ax",%progbits
 195              		.align	1
 196              		.syntax unified
 197              		.thumb
 198              		.thumb_func
 199              		.type	ch_list_link, %function
 200              	ch_list_link:
 201              	.LFB17:
 202              		.loc 2 192 62
 203              		.cfi_startproc
 204              		@ args = 0, pretend = 0, frame = 8
 205              		@ frame_needed = 1, uses_anonymous_args = 0
 206              		@ link register save eliminated.
 207 0000 80B4     		push	{r7}
 208              		.cfi_def_cfa_offset 4
 209              		.cfi_offset 7, -4
 210 0002 83B0     		sub	sp, sp, #12
 211              		.cfi_def_cfa_offset 16
 212 0004 00AF     		add	r7, sp, #0
 213              		.cfi_def_cfa_register 7
 214 0006 7860     		str	r0, [r7, #4]
 215 0008 3960     		str	r1, [r7]
 216              		.loc 2 194 15
 217 000a 7B68     		ldr	r3, [r7, #4]
 218 000c 1A68     		ldr	r2, [r3]
 219              		.loc 2 194 11
 220 000e 3B68     		ldr	r3, [r7]
 221 0010 1A60     		str	r2, [r3]
 222              		.loc 2 195 12
 223 0012 7B68     		ldr	r3, [r7, #4]
 224 0014 3A68     		ldr	r2, [r7]
 225 0016 1A60     		str	r2, [r3]
 226              		.loc 2 196 1
 227 0018 00BF     		nop
 228 001a 0C37     		adds	r7, r7, #12
ARM GAS  C:\Users\DEVELO~1\AppData\Local\Temp\cceHiR3y.s 			page 5


 229              		.cfi_def_cfa_offset 4
 230 001c BD46     		mov	sp, r7
 231              		.cfi_def_cfa_register 13
 232              		@ sp needed
 233 001e 80BC     		pop	{r7}
 234              		.cfi_restore 7
 235              		.cfi_def_cfa_offset 0
 236 0020 7047     		bx	lr
 237              		.cfi_endproc
 238              	.LFE17:
 239              		.size	ch_list_link, .-ch_list_link
 240              		.section	.text.ch_list_unlink,"ax",%progbits
 241              		.align	1
 242              		.syntax unified
 243              		.thumb
 244              		.thumb_func
 245              		.type	ch_list_unlink, %function
 246              	ch_list_unlink:
 247              	.LFB18:
 248              		.loc 2 207 56
 249              		.cfi_startproc
 250              		@ args = 0, pretend = 0, frame = 16
 251              		@ frame_needed = 1, uses_anonymous_args = 0
 252              		@ link register save eliminated.
 253 0000 80B4     		push	{r7}
 254              		.cfi_def_cfa_offset 4
 255              		.cfi_offset 7, -4
 256 0002 85B0     		sub	sp, sp, #20
 257              		.cfi_def_cfa_offset 24
 258 0004 00AF     		add	r7, sp, #0
 259              		.cfi_def_cfa_register 7
 260 0006 7860     		str	r0, [r7, #4]
 261              		.loc 2 209 14
 262 0008 7B68     		ldr	r3, [r7, #4]
 263 000a 1B68     		ldr	r3, [r3]
 264 000c FB60     		str	r3, [r7, #12]
 265              		.loc 2 210 15
 266 000e FB68     		ldr	r3, [r7, #12]
 267 0010 1A68     		ldr	r2, [r3]
 268              		.loc 2 210 12
 269 0012 7B68     		ldr	r3, [r7, #4]
 270 0014 1A60     		str	r2, [r3]
 271              		.loc 2 212 10
 272 0016 FB68     		ldr	r3, [r7, #12]
 273              		.loc 2 213 1
 274 0018 1846     		mov	r0, r3
 275 001a 1437     		adds	r7, r7, #20
 276              		.cfi_def_cfa_offset 4
 277 001c BD46     		mov	sp, r7
 278              		.cfi_def_cfa_register 13
 279              		@ sp needed
 280 001e 80BC     		pop	{r7}
 281              		.cfi_restore 7
 282              		.cfi_def_cfa_offset 0
 283 0020 7047     		bx	lr
 284              		.cfi_endproc
 285              	.LFE18:
ARM GAS  C:\Users\DEVELO~1\AppData\Local\Temp\cceHiR3y.s 			page 6


 286              		.size	ch_list_unlink, .-ch_list_unlink
 287              		.section	.text.ch_queue_init,"ax",%progbits
 288              		.align	1
 289              		.syntax unified
 290              		.thumb
 291              		.thumb_func
 292              		.type	ch_queue_init, %function
 293              	ch_queue_init:
 294              	.LFB19:
 295              		.loc 2 222 50
 296              		.cfi_startproc
 297              		@ args = 0, pretend = 0, frame = 8
 298              		@ frame_needed = 1, uses_anonymous_args = 0
 299              		@ link register save eliminated.
 300 0000 80B4     		push	{r7}
 301              		.cfi_def_cfa_offset 4
 302              		.cfi_offset 7, -4
 303 0002 83B0     		sub	sp, sp, #12
 304              		.cfi_def_cfa_offset 16
 305 0004 00AF     		add	r7, sp, #0
 306              		.cfi_def_cfa_register 7
 307 0006 7860     		str	r0, [r7, #4]
 308              		.loc 2 224 12
 309 0008 7B68     		ldr	r3, [r7, #4]
 310 000a 7A68     		ldr	r2, [r7, #4]
 311 000c 1A60     		str	r2, [r3]
 312              		.loc 2 225 12
 313 000e 7B68     		ldr	r3, [r7, #4]
 314 0010 7A68     		ldr	r2, [r7, #4]
 315 0012 5A60     		str	r2, [r3, #4]
 316              		.loc 2 226 1
 317 0014 00BF     		nop
 318 0016 0C37     		adds	r7, r7, #12
 319              		.cfi_def_cfa_offset 4
 320 0018 BD46     		mov	sp, r7
 321              		.cfi_def_cfa_register 13
 322              		@ sp needed
 323 001a 80BC     		pop	{r7}
 324              		.cfi_restore 7
 325              		.cfi_def_cfa_offset 0
 326 001c 7047     		bx	lr
 327              		.cfi_endproc
 328              	.LFE19:
 329              		.size	ch_queue_init, .-ch_queue_init
 330              		.section	.text.ch_queue_notempty,"ax",%progbits
 331              		.align	1
 332              		.syntax unified
 333              		.thumb
 334              		.thumb_func
 335              		.type	ch_queue_notempty, %function
 336              	ch_queue_notempty:
 337              	.LFB21:
 338              		.loc 2 249 60
 339              		.cfi_startproc
 340              		@ args = 0, pretend = 0, frame = 8
 341              		@ frame_needed = 1, uses_anonymous_args = 0
 342              		@ link register save eliminated.
ARM GAS  C:\Users\DEVELO~1\AppData\Local\Temp\cceHiR3y.s 			page 7


 343 0000 80B4     		push	{r7}
 344              		.cfi_def_cfa_offset 4
 345              		.cfi_offset 7, -4
 346 0002 83B0     		sub	sp, sp, #12
 347              		.cfi_def_cfa_offset 16
 348 0004 00AF     		add	r7, sp, #0
 349              		.cfi_def_cfa_register 7
 350 0006 7860     		str	r0, [r7, #4]
 351              		.loc 2 251 19
 352 0008 7B68     		ldr	r3, [r7, #4]
 353 000a 1B68     		ldr	r3, [r3]
 354              		.loc 2 251 10
 355 000c 7A68     		ldr	r2, [r7, #4]
 356 000e 9A42     		cmp	r2, r3
 357 0010 14BF     		ite	ne
 358 0012 0123     		movne	r3, #1
 359 0014 0023     		moveq	r3, #0
 360 0016 DBB2     		uxtb	r3, r3
 361              		.loc 2 252 1
 362 0018 1846     		mov	r0, r3
 363 001a 0C37     		adds	r7, r7, #12
 364              		.cfi_def_cfa_offset 4
 365 001c BD46     		mov	sp, r7
 366              		.cfi_def_cfa_register 13
 367              		@ sp needed
 368 001e 80BC     		pop	{r7}
 369              		.cfi_restore 7
 370              		.cfi_def_cfa_offset 0
 371 0020 7047     		bx	lr
 372              		.cfi_endproc
 373              	.LFE21:
 374              		.size	ch_queue_notempty, .-ch_queue_notempty
 375              		.section	.text.ch_queue_insert,"ax",%progbits
 376              		.align	1
 377              		.syntax unified
 378              		.thumb
 379              		.thumb_func
 380              		.type	ch_queue_insert, %function
 381              	ch_queue_insert:
 382              	.LFB22:
 383              		.loc 2 262 67
 384              		.cfi_startproc
 385              		@ args = 0, pretend = 0, frame = 8
 386              		@ frame_needed = 1, uses_anonymous_args = 0
 387              		@ link register save eliminated.
 388 0000 80B4     		push	{r7}
 389              		.cfi_def_cfa_offset 4
 390              		.cfi_offset 7, -4
 391 0002 83B0     		sub	sp, sp, #12
 392              		.cfi_def_cfa_offset 16
 393 0004 00AF     		add	r7, sp, #0
 394              		.cfi_def_cfa_register 7
 395 0006 7860     		str	r0, [r7, #4]
 396 0008 3960     		str	r1, [r7]
 397              		.loc 2 264 17
 398 000a 3B68     		ldr	r3, [r7]
 399 000c 7A68     		ldr	r2, [r7, #4]
ARM GAS  C:\Users\DEVELO~1\AppData\Local\Temp\cceHiR3y.s 			page 8


 400 000e 1A60     		str	r2, [r3]
 401              		.loc 2 265 21
 402 0010 7B68     		ldr	r3, [r7, #4]
 403 0012 5A68     		ldr	r2, [r3, #4]
 404              		.loc 2 265 17
 405 0014 3B68     		ldr	r3, [r7]
 406 0016 5A60     		str	r2, [r3, #4]
 407              		.loc 2 266 4
 408 0018 3B68     		ldr	r3, [r7]
 409 001a 5B68     		ldr	r3, [r3, #4]
 410              		.loc 2 266 17
 411 001c 3A68     		ldr	r2, [r7]
 412 001e 1A60     		str	r2, [r3]
 413              		.loc 2 267 17
 414 0020 7B68     		ldr	r3, [r7, #4]
 415 0022 3A68     		ldr	r2, [r7]
 416 0024 5A60     		str	r2, [r3, #4]
 417              		.loc 2 268 1
 418 0026 00BF     		nop
 419 0028 0C37     		adds	r7, r7, #12
 420              		.cfi_def_cfa_offset 4
 421 002a BD46     		mov	sp, r7
 422              		.cfi_def_cfa_register 13
 423              		@ sp needed
 424 002c 80BC     		pop	{r7}
 425              		.cfi_restore 7
 426              		.cfi_def_cfa_offset 0
 427 002e 7047     		bx	lr
 428              		.cfi_endproc
 429              	.LFE22:
 430              		.size	ch_queue_insert, .-ch_queue_insert
 431              		.section	.text.ch_queue_fifo_remove,"ax",%progbits
 432              		.align	1
 433              		.syntax unified
 434              		.thumb
 435              		.thumb_func
 436              		.type	ch_queue_fifo_remove, %function
 437              	ch_queue_fifo_remove:
 438              	.LFB23:
 439              		.loc 2 280 64
 440              		.cfi_startproc
 441              		@ args = 0, pretend = 0, frame = 16
 442              		@ frame_needed = 1, uses_anonymous_args = 0
 443              		@ link register save eliminated.
 444 0000 80B4     		push	{r7}
 445              		.cfi_def_cfa_offset 4
 446              		.cfi_offset 7, -4
 447 0002 85B0     		sub	sp, sp, #20
 448              		.cfi_def_cfa_offset 24
 449 0004 00AF     		add	r7, sp, #0
 450              		.cfi_def_cfa_register 7
 451 0006 7860     		str	r0, [r7, #4]
 452              		.loc 2 281 15
 453 0008 7B68     		ldr	r3, [r7, #4]
 454 000a 1B68     		ldr	r3, [r3]
 455 000c FB60     		str	r3, [r7, #12]
 456              		.loc 2 283 21
ARM GAS  C:\Users\DEVELO~1\AppData\Local\Temp\cceHiR3y.s 			page 9


 457 000e FB68     		ldr	r3, [r7, #12]
 458 0010 1A68     		ldr	r2, [r3]
 459              		.loc 2 283 18
 460 0012 7B68     		ldr	r3, [r7, #4]
 461 0014 1A60     		str	r2, [r3]
 462              		.loc 2 284 5
 463 0016 7B68     		ldr	r3, [r7, #4]
 464 0018 1B68     		ldr	r3, [r3]
 465              		.loc 2 284 18
 466 001a 7A68     		ldr	r2, [r7, #4]
 467 001c 5A60     		str	r2, [r3, #4]
 468              		.loc 2 286 10
 469 001e FB68     		ldr	r3, [r7, #12]
 470              		.loc 2 287 1
 471 0020 1846     		mov	r0, r3
 472 0022 1437     		adds	r7, r7, #20
 473              		.cfi_def_cfa_offset 4
 474 0024 BD46     		mov	sp, r7
 475              		.cfi_def_cfa_register 13
 476              		@ sp needed
 477 0026 80BC     		pop	{r7}
 478              		.cfi_restore 7
 479              		.cfi_def_cfa_offset 0
 480 0028 7047     		bx	lr
 481              		.cfi_endproc
 482              	.LFE23:
 483              		.size	ch_queue_fifo_remove, .-ch_queue_fifo_remove
 484              		.section	.text.ch_queue_dequeue,"ax",%progbits
 485              		.align	1
 486              		.syntax unified
 487              		.thumb
 488              		.thumb_func
 489              		.type	ch_queue_dequeue, %function
 490              	ch_queue_dequeue:
 491              	.LFB25:
 492              		.loc 2 318 59
 493              		.cfi_startproc
 494              		@ args = 0, pretend = 0, frame = 8
 495              		@ frame_needed = 1, uses_anonymous_args = 0
 496              		@ link register save eliminated.
 497 0000 80B4     		push	{r7}
 498              		.cfi_def_cfa_offset 4
 499              		.cfi_offset 7, -4
 500 0002 83B0     		sub	sp, sp, #12
 501              		.cfi_def_cfa_offset 16
 502 0004 00AF     		add	r7, sp, #0
 503              		.cfi_def_cfa_register 7
 504 0006 7860     		str	r0, [r7, #4]
 505              		.loc 2 320 4
 506 0008 7B68     		ldr	r3, [r7, #4]
 507 000a 5B68     		ldr	r3, [r3, #4]
 508              		.loc 2 320 20
 509 000c 7A68     		ldr	r2, [r7, #4]
 510 000e 1268     		ldr	r2, [r2]
 511              		.loc 2 320 17
 512 0010 1A60     		str	r2, [r3]
 513              		.loc 2 321 4
ARM GAS  C:\Users\DEVELO~1\AppData\Local\Temp\cceHiR3y.s 			page 10


 514 0012 7B68     		ldr	r3, [r7, #4]
 515 0014 1B68     		ldr	r3, [r3]
 516              		.loc 2 321 20
 517 0016 7A68     		ldr	r2, [r7, #4]
 518 0018 5268     		ldr	r2, [r2, #4]
 519              		.loc 2 321 17
 520 001a 5A60     		str	r2, [r3, #4]
 521              		.loc 2 323 10
 522 001c 7B68     		ldr	r3, [r7, #4]
 523              		.loc 2 324 1
 524 001e 1846     		mov	r0, r3
 525 0020 0C37     		adds	r7, r7, #12
 526              		.cfi_def_cfa_offset 4
 527 0022 BD46     		mov	sp, r7
 528              		.cfi_def_cfa_register 13
 529              		@ sp needed
 530 0024 80BC     		pop	{r7}
 531              		.cfi_restore 7
 532              		.cfi_def_cfa_offset 0
 533 0026 7047     		bx	lr
 534              		.cfi_endproc
 535              	.LFE25:
 536              		.size	ch_queue_dequeue, .-ch_queue_dequeue
 537              		.section	.text.port_timer_get_time,"ax",%progbits
 538              		.align	1
 539              		.syntax unified
 540              		.thumb
 541              		.thumb_func
 542              		.type	port_timer_get_time, %function
 543              	port_timer_get_time:
 544              	.LFB196:
 545              		.file 3 "../../../os/hal/osal/rt-nil/chcore_timer.h"
 546              		.loc 3 111 51
 547              		.cfi_startproc
 548              		@ args = 0, pretend = 0, frame = 0
 549              		@ frame_needed = 1, uses_anonymous_args = 0
 550 0000 80B5     		push	{r7, lr}
 551              		.cfi_def_cfa_offset 8
 552              		.cfi_offset 7, -8
 553              		.cfi_offset 14, -4
 554 0002 00AF     		add	r7, sp, #0
 555              		.cfi_def_cfa_register 7
 556              		.loc 3 113 10
 557 0004 FFF7FEFF 		bl	stGetCounter
 558 0008 0346     		mov	r3, r0
 559              		.loc 3 114 1
 560 000a 1846     		mov	r0, r3
 561 000c 80BD     		pop	{r7, pc}
 562              		.cfi_endproc
 563              	.LFE196:
 564              		.size	port_timer_get_time, .-port_timer_get_time
 565              		.section	.text.chSysLock,"ax",%progbits
 566              		.align	1
 567              		.syntax unified
 568              		.thumb
 569              		.thumb_func
 570              		.type	chSysLock, %function
ARM GAS  C:\Users\DEVELO~1\AppData\Local\Temp\cceHiR3y.s 			page 11


 571              	chSysLock:
 572              	.LFB202:
 573              		.file 4 "../../../os/rt/include/chsys.h"
 574              		.loc 4 407 36
 575              		.cfi_startproc
 576              		@ args = 0, pretend = 0, frame = 8
 577              		@ frame_needed = 1, uses_anonymous_args = 0
 578              		@ link register save eliminated.
 579 0000 80B4     		push	{r7}
 580              		.cfi_def_cfa_offset 4
 581              		.cfi_offset 7, -4
 582 0002 83B0     		sub	sp, sp, #12
 583              		.cfi_def_cfa_offset 16
 584 0004 00AF     		add	r7, sp, #0
 585              		.cfi_def_cfa_register 7
 586 0006 3023     		movs	r3, #48
 587 0008 7B60     		str	r3, [r7, #4]
 588              	.LBB14:
 589              	.LBB15:
 590              	.LBB16:
 591              	.LBB17:
 592              		.file 5 "../../../os/common/ext/ARM/CMSIS/Core/Include/cmsis_gcc.h"
 593              		.loc 5 493 3
 594 000a 7B68     		ldr	r3, [r7, #4]
 595              		.syntax unified
 596              	@ 493 "../../../os/common/ext/ARM/CMSIS/Core/Include/cmsis_gcc.h" 1
 597 000c 83F31188 		MSR basepri, r3
 598              	@ 0 "" 2
 599              		.loc 5 494 1
 600              		.thumb
 601              		.syntax unified
 602 0010 00BF     		nop
 603              	.LBE17:
 604              	.LBE16:
 605              		.file 6 "../../../os/common/ports/ARMv7-M/chcore.h"
 606              		.loc 6 840 1
 607 0012 00BF     		nop
 608              	.LBE15:
 609              	.LBE14:
 610              		.loc 4 412 1
 611 0014 00BF     		nop
 612 0016 0C37     		adds	r7, r7, #12
 613              		.cfi_def_cfa_offset 4
 614 0018 BD46     		mov	sp, r7
 615              		.cfi_def_cfa_register 13
 616              		@ sp needed
 617 001a 80BC     		pop	{r7}
 618              		.cfi_restore 7
 619              		.cfi_def_cfa_offset 0
 620 001c 7047     		bx	lr
 621              		.cfi_endproc
 622              	.LFE202:
 623              		.size	chSysLock, .-chSysLock
 624              		.section	.text.chSysUnlock,"ax",%progbits
 625              		.align	1
 626              		.syntax unified
 627              		.thumb
ARM GAS  C:\Users\DEVELO~1\AppData\Local\Temp\cceHiR3y.s 			page 12


 628              		.thumb_func
 629              		.type	chSysUnlock, %function
 630              	chSysUnlock:
 631              	.LFB203:
 632              		.loc 4 421 38
 633              		.cfi_startproc
 634              		@ args = 0, pretend = 0, frame = 8
 635              		@ frame_needed = 1, uses_anonymous_args = 0
 636              		@ link register save eliminated.
 637 0000 80B4     		push	{r7}
 638              		.cfi_def_cfa_offset 4
 639              		.cfi_offset 7, -4
 640 0002 83B0     		sub	sp, sp, #12
 641              		.cfi_def_cfa_offset 16
 642 0004 00AF     		add	r7, sp, #0
 643              		.cfi_def_cfa_register 7
 644 0006 0023     		movs	r3, #0
 645 0008 7B60     		str	r3, [r7, #4]
 646              	.LBB18:
 647              	.LBB19:
 648              	.LBB20:
 649              	.LBB21:
 650              		.loc 5 493 3
 651 000a 7B68     		ldr	r3, [r7, #4]
 652              		.syntax unified
 653              	@ 493 "../../../os/common/ext/ARM/CMSIS/Core/Include/cmsis_gcc.h" 1
 654 000c 83F31188 		MSR basepri, r3
 655              	@ 0 "" 2
 656              		.loc 5 494 1
 657              		.thumb
 658              		.syntax unified
 659 0010 00BF     		nop
 660              	.LBE21:
 661              	.LBE20:
 662              		.loc 6 854 1
 663 0012 00BF     		nop
 664              	.LBE19:
 665              	.LBE18:
 666              		.loc 4 435 1
 667 0014 00BF     		nop
 668 0016 0C37     		adds	r7, r7, #12
 669              		.cfi_def_cfa_offset 4
 670 0018 BD46     		mov	sp, r7
 671              		.cfi_def_cfa_register 13
 672              		@ sp needed
 673 001a 80BC     		pop	{r7}
 674              		.cfi_restore 7
 675              		.cfi_def_cfa_offset 0
 676 001c 7047     		bx	lr
 677              		.cfi_endproc
 678              	.LFE203:
 679              		.size	chSysUnlock, .-chSysUnlock
 680              		.section	.text.chVTGetSystemTimeX,"ax",%progbits
 681              		.align	1
 682              		.syntax unified
 683              		.thumb
 684              		.thumb_func
ARM GAS  C:\Users\DEVELO~1\AppData\Local\Temp\cceHiR3y.s 			page 13


 685              		.type	chVTGetSystemTimeX, %function
 686              	chVTGetSystemTimeX:
 687              	.LFB209:
 688              		.file 7 "../../../os/rt/include/chvt.h"
 689              		.loc 7 122 50
 690              		.cfi_startproc
 691              		@ args = 0, pretend = 0, frame = 0
 692              		@ frame_needed = 1, uses_anonymous_args = 0
 693 0000 80B5     		push	{r7, lr}
 694              		.cfi_def_cfa_offset 8
 695              		.cfi_offset 7, -8
 696              		.cfi_offset 14, -4
 697 0002 00AF     		add	r7, sp, #0
 698              		.cfi_def_cfa_register 7
 699              		.loc 7 127 10
 700 0004 FFF7FEFF 		bl	port_timer_get_time
 701 0008 0346     		mov	r3, r0
 702              		.loc 7 129 1
 703 000a 1846     		mov	r0, r3
 704 000c 80BD     		pop	{r7, pc}
 705              		.cfi_endproc
 706              	.LFE209:
 707              		.size	chVTGetSystemTimeX, .-chVTGetSystemTimeX
 708              		.section	.text.chThdGetSelfX,"ax",%progbits
 709              		.align	1
 710              		.syntax unified
 711              		.thumb
 712              		.thumb_func
 713              		.type	chThdGetSelfX, %function
 714              	chThdGetSelfX:
 715              	.LFB229:
 716              		.file 8 "../../../os/rt/include/chthreads.h"
 717              		.loc 8 341 45
 718              		.cfi_startproc
 719              		@ args = 0, pretend = 0, frame = 0
 720              		@ frame_needed = 1, uses_anonymous_args = 0
 721              		@ link register save eliminated.
 722 0000 80B4     		push	{r7}
 723              		.cfi_def_cfa_offset 4
 724              		.cfi_offset 7, -4
 725 0002 00AF     		add	r7, sp, #0
 726              		.cfi_def_cfa_register 7
 727              		.loc 8 343 10
 728 0004 024B     		ldr	r3, .L27
 729 0006 DB68     		ldr	r3, [r3, #12]
 730              		.loc 8 344 1
 731 0008 1846     		mov	r0, r3
 732 000a BD46     		mov	sp, r7
 733              		.cfi_def_cfa_register 13
 734              		@ sp needed
 735 000c 80BC     		pop	{r7}
 736              		.cfi_restore 7
 737              		.cfi_def_cfa_offset 0
 738 000e 7047     		bx	lr
 739              	.L28:
 740              		.align	2
 741              	.L27:
ARM GAS  C:\Users\DEVELO~1\AppData\Local\Temp\cceHiR3y.s 			page 14


 742 0010 00000000 		.word	ch0
 743              		.cfi_endproc
 744              	.LFE229:
 745              		.size	chThdGetSelfX, .-chThdGetSelfX
 746              		.section	.text.chThdGetWorkingAreaX,"ax",%progbits
 747              		.align	1
 748              		.syntax unified
 749              		.thumb
 750              		.thumb_func
 751              		.type	chThdGetWorkingAreaX, %function
 752              	chThdGetWorkingAreaX:
 753              	.LFB231:
 754              		.loc 8 386 62
 755              		.cfi_startproc
 756              		@ args = 0, pretend = 0, frame = 8
 757              		@ frame_needed = 1, uses_anonymous_args = 0
 758              		@ link register save eliminated.
 759 0000 80B4     		push	{r7}
 760              		.cfi_def_cfa_offset 4
 761              		.cfi_offset 7, -4
 762 0002 83B0     		sub	sp, sp, #12
 763              		.cfi_def_cfa_offset 16
 764 0004 00AF     		add	r7, sp, #0
 765              		.cfi_def_cfa_register 7
 766 0006 7860     		str	r0, [r7, #4]
 767              		.loc 8 388 12
 768 0008 7B68     		ldr	r3, [r7, #4]
 769 000a 1B6A     		ldr	r3, [r3, #32]
 770              		.loc 8 389 1
 771 000c 1846     		mov	r0, r3
 772 000e 0C37     		adds	r7, r7, #12
 773              		.cfi_def_cfa_offset 4
 774 0010 BD46     		mov	sp, r7
 775              		.cfi_def_cfa_register 13
 776              		@ sp needed
 777 0012 80BC     		pop	{r7}
 778              		.cfi_restore 7
 779              		.cfi_def_cfa_offset 0
 780 0014 7047     		bx	lr
 781              		.cfi_endproc
 782              	.LFE231:
 783              		.size	chThdGetWorkingAreaX, .-chThdGetWorkingAreaX
 784              		.section	.text.chThdSleepS,"ax",%progbits
 785              		.align	1
 786              		.syntax unified
 787              		.thumb
 788              		.thumb_func
 789              		.type	chThdSleepS, %function
 790              	chThdSleepS:
 791              	.LFB235:
 792              		.loc 8 447 53
 793              		.cfi_startproc
 794              		@ args = 0, pretend = 0, frame = 8
 795              		@ frame_needed = 1, uses_anonymous_args = 0
 796 0000 80B5     		push	{r7, lr}
 797              		.cfi_def_cfa_offset 8
 798              		.cfi_offset 7, -8
ARM GAS  C:\Users\DEVELO~1\AppData\Local\Temp\cceHiR3y.s 			page 15


 799              		.cfi_offset 14, -4
 800 0002 82B0     		sub	sp, sp, #8
 801              		.cfi_def_cfa_offset 16
 802 0004 00AF     		add	r7, sp, #0
 803              		.cfi_def_cfa_register 7
 804 0006 7860     		str	r0, [r7, #4]
 805              		.loc 8 451 10
 806 0008 7968     		ldr	r1, [r7, #4]
 807 000a 0820     		movs	r0, #8
 808 000c FFF7FEFF 		bl	chSchGoSleepTimeoutS
 809              		.loc 8 452 1
 810 0010 00BF     		nop
 811 0012 0837     		adds	r7, r7, #8
 812              		.cfi_def_cfa_offset 8
 813 0014 BD46     		mov	sp, r7
 814              		.cfi_def_cfa_register 13
 815              		@ sp needed
 816 0016 80BD     		pop	{r7, pc}
 817              		.cfi_endproc
 818              	.LFE235:
 819              		.size	chThdSleepS, .-chThdSleepS
 820              		.section	.text.chThdDoDequeueNextI,"ax",%progbits
 821              		.align	1
 822              		.syntax unified
 823              		.thumb
 824              		.thumb_func
 825              		.type	chThdDoDequeueNextI, %function
 826              	chThdDoDequeueNextI:
 827              	.LFB238:
 828              		.loc 8 494 73
 829              		.cfi_startproc
 830              		@ args = 0, pretend = 0, frame = 16
 831              		@ frame_needed = 1, uses_anonymous_args = 0
 832 0000 80B5     		push	{r7, lr}
 833              		.cfi_def_cfa_offset 8
 834              		.cfi_offset 7, -8
 835              		.cfi_offset 14, -4
 836 0002 84B0     		sub	sp, sp, #16
 837              		.cfi_def_cfa_offset 24
 838 0004 00AF     		add	r7, sp, #0
 839              		.cfi_def_cfa_register 7
 840 0006 7860     		str	r0, [r7, #4]
 841 0008 3960     		str	r1, [r7]
 842              		.loc 8 499 8
 843 000a 7B68     		ldr	r3, [r7, #4]
 844 000c 1846     		mov	r0, r3
 845 000e FFF7FEFF 		bl	ch_queue_fifo_remove
 846 0012 F860     		str	r0, [r7, #12]
 847              		.loc 8 503 16
 848 0014 FB68     		ldr	r3, [r7, #12]
 849 0016 3A68     		ldr	r2, [r7]
 850 0018 9A62     		str	r2, [r3, #40]
 851              		.loc 8 504 10
 852 001a F868     		ldr	r0, [r7, #12]
 853 001c FFF7FEFF 		bl	chSchReadyI
 854              		.loc 8 505 1
 855 0020 00BF     		nop
ARM GAS  C:\Users\DEVELO~1\AppData\Local\Temp\cceHiR3y.s 			page 16


 856 0022 1037     		adds	r7, r7, #16
 857              		.cfi_def_cfa_offset 8
 858 0024 BD46     		mov	sp, r7
 859              		.cfi_def_cfa_register 13
 860              		@ sp needed
 861 0026 80BD     		pop	{r7, pc}
 862              		.cfi_endproc
 863              	.LFE238:
 864              		.size	chThdDoDequeueNextI, .-chThdDoDequeueNextI
 865              		.section	.text.__thd_object_init,"ax",%progbits
 866              		.align	1
 867              		.global	__thd_object_init
 868              		.syntax unified
 869              		.thumb
 870              		.thumb_func
 871              		.type	__thd_object_init, %function
 872              	__thd_object_init:
 873              	.LFB346:
 874              		.file 9 "../../../os/rt/src/chthreads.c"
 875              		.loc 9 92 43
 876              		.cfi_startproc
 877              		@ args = 0, pretend = 0, frame = 16
 878              		@ frame_needed = 1, uses_anonymous_args = 0
 879 0000 80B5     		push	{r7, lr}
 880              		.cfi_def_cfa_offset 8
 881              		.cfi_offset 7, -8
 882              		.cfi_offset 14, -4
 883 0002 84B0     		sub	sp, sp, #16
 884              		.cfi_def_cfa_offset 24
 885 0004 00AF     		add	r7, sp, #0
 886              		.cfi_def_cfa_register 7
 887 0006 F860     		str	r0, [r7, #12]
 888 0008 B960     		str	r1, [r7, #8]
 889 000a 7A60     		str	r2, [r7, #4]
 890 000c 3B60     		str	r3, [r7]
 891              		.loc 9 94 25
 892 000e BB68     		ldr	r3, [r7, #8]
 893 0010 3A68     		ldr	r2, [r7]
 894 0012 9A60     		str	r2, [r3, #8]
 895              		.loc 9 95 25
 896 0014 BB68     		ldr	r3, [r7, #8]
 897 0016 0222     		movs	r2, #2
 898 0018 83F82420 		strb	r2, [r3, #36]
 899              		.loc 9 96 25
 900 001c BB68     		ldr	r3, [r7, #8]
 901 001e 0022     		movs	r2, #0
 902 0020 83F82520 		strb	r2, [r3, #37]
 903              		.loc 9 97 25
 904 0024 BB68     		ldr	r3, [r7, #8]
 905 0026 FA68     		ldr	r2, [r7, #12]
 906 0028 9A61     		str	r2, [r3, #24]
 907              		.loc 9 102 25
 908 002a BB68     		ldr	r3, [r7, #8]
 909 002c 3A68     		ldr	r2, [r7]
 910 002e 1A64     		str	r2, [r3, #64]
 911              		.loc 9 103 25
 912 0030 BB68     		ldr	r3, [r7, #8]
ARM GAS  C:\Users\DEVELO~1\AppData\Local\Temp\cceHiR3y.s 			page 17


 913 0032 0022     		movs	r2, #0
 914 0034 DA63     		str	r2, [r3, #60]
 915              		.loc 9 106 25
 916 0036 BB68     		ldr	r3, [r7, #8]
 917 0038 0022     		movs	r2, #0
 918 003a 9A63     		str	r2, [r3, #56]
 919              		.loc 9 112 25
 920 003c BB68     		ldr	r3, [r7, #8]
 921 003e 0122     		movs	r2, #1
 922 0040 83F82620 		strb	r2, [r3, #38]
 923              		.loc 9 113 25
 924 0044 BB68     		ldr	r3, [r7, #8]
 925 0046 7A68     		ldr	r2, [r7, #4]
 926 0048 DA61     		str	r2, [r3, #28]
 927              		.loc 9 114 3
 928 004a FB68     		ldr	r3, [r7, #12]
 929 004c 03F12802 		add	r2, r3, #40
 930 0050 BB68     		ldr	r3, [r7, #8]
 931 0052 1033     		adds	r3, r3, #16
 932 0054 1946     		mov	r1, r3
 933 0056 1046     		mov	r0, r2
 934 0058 FFF7FEFF 		bl	ch_queue_insert
 935              		.loc 9 119 3
 936 005c BB68     		ldr	r3, [r7, #8]
 937 005e 2C33     		adds	r3, r3, #44
 938 0060 1846     		mov	r0, r3
 939 0062 FFF7FEFF 		bl	ch_list_init
 940              		.loc 9 122 3
 941 0066 BB68     		ldr	r3, [r7, #8]
 942 0068 3033     		adds	r3, r3, #48
 943 006a 1846     		mov	r0, r3
 944 006c FFF7FEFF 		bl	ch_queue_init
 945              		.loc 9 128 10
 946 0070 BB68     		ldr	r3, [r7, #8]
 947              		.loc 9 129 1
 948 0072 1846     		mov	r0, r3
 949 0074 1037     		adds	r7, r7, #16
 950              		.cfi_def_cfa_offset 8
 951 0076 BD46     		mov	sp, r7
 952              		.cfi_def_cfa_register 13
 953              		@ sp needed
 954 0078 80BD     		pop	{r7, pc}
 955              		.cfi_endproc
 956              	.LFE346:
 957              		.size	__thd_object_init, .-__thd_object_init
 958              		.section	.text.chThdCreateSuspendedI,"ax",%progbits
 959              		.align	1
 960              		.global	chThdCreateSuspendedI
 961              		.syntax unified
 962              		.thumb
 963              		.thumb_func
 964              		.type	chThdCreateSuspendedI, %function
 965              	chThdCreateSuspendedI:
 966              	.LFB347:
 967              		.loc 9 171 65
 968              		.cfi_startproc
 969              		@ args = 0, pretend = 0, frame = 16
ARM GAS  C:\Users\DEVELO~1\AppData\Local\Temp\cceHiR3y.s 			page 18


 970              		@ frame_needed = 1, uses_anonymous_args = 0
 971 0000 80B5     		push	{r7, lr}
 972              		.cfi_def_cfa_offset 8
 973              		.cfi_offset 7, -8
 974              		.cfi_offset 14, -4
 975 0002 84B0     		sub	sp, sp, #16
 976              		.cfi_def_cfa_offset 24
 977 0004 00AF     		add	r7, sp, #0
 978              		.cfi_def_cfa_register 7
 979 0006 7860     		str	r0, [r7, #4]
 980              		.loc 9 185 8
 981 0008 7B68     		ldr	r3, [r7, #4]
 982 000a 9B68     		ldr	r3, [r3, #8]
 983              		.loc 9 185 6
 984 000c 483B     		subs	r3, r3, #72
 985 000e FB60     		str	r3, [r7, #12]
 986              		.loc 9 190 19
 987 0010 7B68     		ldr	r3, [r7, #4]
 988 0012 5A68     		ldr	r2, [r3, #4]
 989              		.loc 9 190 14
 990 0014 FB68     		ldr	r3, [r7, #12]
 991 0016 1A62     		str	r2, [r3, #32]
 992              		.loc 9 194 3
 993 0018 FB68     		ldr	r3, [r7, #12]
 994 001a A3F12402 		sub	r2, r3, #36
 995 001e FB68     		ldr	r3, [r7, #12]
 996 0020 DA60     		str	r2, [r3, #12]
 997 0022 7B68     		ldr	r3, [r7, #4]
 998 0024 1A69     		ldr	r2, [r3, #16]
 999 0026 FB68     		ldr	r3, [r7, #12]
 1000 0028 DB68     		ldr	r3, [r3, #12]
 1001 002a 1A60     		str	r2, [r3]
 1002 002c 7B68     		ldr	r3, [r7, #4]
 1003 002e 5A69     		ldr	r2, [r3, #20]
 1004 0030 FB68     		ldr	r3, [r7, #12]
 1005 0032 DB68     		ldr	r3, [r3, #12]
 1006 0034 5A60     		str	r2, [r3, #4]
 1007 0036 FB68     		ldr	r3, [r7, #12]
 1008 0038 DB68     		ldr	r3, [r3, #12]
 1009 003a 074A     		ldr	r2, .L37
 1010 003c 1A62     		str	r2, [r3, #32]
 1011              		.loc 9 203 45
 1012 003e 7B68     		ldr	r3, [r7, #4]
 1013 0040 1A68     		ldr	r2, [r3]
 1014              		.loc 9 203 56
 1015 0042 7B68     		ldr	r3, [r7, #4]
 1016 0044 DB68     		ldr	r3, [r3, #12]
 1017              		.loc 9 203 10
 1018 0046 F968     		ldr	r1, [r7, #12]
 1019 0048 0448     		ldr	r0, .L37+4
 1020 004a FFF7FEFF 		bl	__thd_object_init
 1021 004e 0346     		mov	r3, r0
 1022              		.loc 9 204 1
 1023 0050 1846     		mov	r0, r3
 1024 0052 1037     		adds	r7, r7, #16
 1025              		.cfi_def_cfa_offset 8
 1026 0054 BD46     		mov	sp, r7
ARM GAS  C:\Users\DEVELO~1\AppData\Local\Temp\cceHiR3y.s 			page 19


 1027              		.cfi_def_cfa_register 13
 1028              		@ sp needed
 1029 0056 80BD     		pop	{r7, pc}
 1030              	.L38:
 1031              		.align	2
 1032              	.L37:
 1033 0058 00000000 		.word	__port_thread_start
 1034 005c 00000000 		.word	ch0
 1035              		.cfi_endproc
 1036              	.LFE347:
 1037              		.size	chThdCreateSuspendedI, .-chThdCreateSuspendedI
 1038              		.section	.text.chThdCreateSuspended,"ax",%progbits
 1039              		.align	1
 1040              		.global	chThdCreateSuspended
 1041              		.syntax unified
 1042              		.thumb
 1043              		.thumb_func
 1044              		.type	chThdCreateSuspended, %function
 1045              	chThdCreateSuspended:
 1046              	.LFB348:
 1047              		.loc 9 226 64
 1048              		.cfi_startproc
 1049              		@ args = 0, pretend = 0, frame = 16
 1050              		@ frame_needed = 1, uses_anonymous_args = 0
 1051 0000 80B5     		push	{r7, lr}
 1052              		.cfi_def_cfa_offset 8
 1053              		.cfi_offset 7, -8
 1054              		.cfi_offset 14, -4
 1055 0002 84B0     		sub	sp, sp, #16
 1056              		.cfi_def_cfa_offset 24
 1057 0004 00AF     		add	r7, sp, #0
 1058              		.cfi_def_cfa_register 7
 1059 0006 7860     		str	r0, [r7, #4]
 1060              		.loc 9 238 3
 1061 0008 FFF7FEFF 		bl	chSysLock
 1062              		.loc 9 239 8
 1063 000c 7868     		ldr	r0, [r7, #4]
 1064 000e FFF7FEFF 		bl	chThdCreateSuspendedI
 1065 0012 F860     		str	r0, [r7, #12]
 1066              		.loc 9 240 3
 1067 0014 FFF7FEFF 		bl	chSysUnlock
 1068              		.loc 9 242 10
 1069 0018 FB68     		ldr	r3, [r7, #12]
 1070              		.loc 9 243 1
 1071 001a 1846     		mov	r0, r3
 1072 001c 1037     		adds	r7, r7, #16
 1073              		.cfi_def_cfa_offset 8
 1074 001e BD46     		mov	sp, r7
 1075              		.cfi_def_cfa_register 13
 1076              		@ sp needed
 1077 0020 80BD     		pop	{r7, pc}
 1078              		.cfi_endproc
 1079              	.LFE348:
 1080              		.size	chThdCreateSuspended, .-chThdCreateSuspended
 1081              		.section	.text.chThdCreateI,"ax",%progbits
 1082              		.align	1
 1083              		.global	chThdCreateI
ARM GAS  C:\Users\DEVELO~1\AppData\Local\Temp\cceHiR3y.s 			page 20


 1084              		.syntax unified
 1085              		.thumb
 1086              		.thumb_func
 1087              		.type	chThdCreateI, %function
 1088              	chThdCreateI:
 1089              	.LFB349:
 1090              		.loc 9 264 56
 1091              		.cfi_startproc
 1092              		@ args = 0, pretend = 0, frame = 8
 1093              		@ frame_needed = 1, uses_anonymous_args = 0
 1094 0000 80B5     		push	{r7, lr}
 1095              		.cfi_def_cfa_offset 8
 1096              		.cfi_offset 7, -8
 1097              		.cfi_offset 14, -4
 1098 0002 82B0     		sub	sp, sp, #8
 1099              		.cfi_def_cfa_offset 16
 1100 0004 00AF     		add	r7, sp, #0
 1101              		.cfi_def_cfa_register 7
 1102 0006 7860     		str	r0, [r7, #4]
 1103              		.loc 9 266 10
 1104 0008 7868     		ldr	r0, [r7, #4]
 1105 000a FFF7FEFF 		bl	chThdCreateSuspendedI
 1106 000e 0346     		mov	r3, r0
 1107 0010 1846     		mov	r0, r3
 1108 0012 FFF7FEFF 		bl	chSchReadyI
 1109 0016 0346     		mov	r3, r0
 1110              		.loc 9 267 1
 1111 0018 1846     		mov	r0, r3
 1112 001a 0837     		adds	r7, r7, #8
 1113              		.cfi_def_cfa_offset 8
 1114 001c BD46     		mov	sp, r7
 1115              		.cfi_def_cfa_register 13
 1116              		@ sp needed
 1117 001e 80BD     		pop	{r7, pc}
 1118              		.cfi_endproc
 1119              	.LFE349:
 1120              		.size	chThdCreateI, .-chThdCreateI
 1121              		.section	.text.chThdCreate,"ax",%progbits
 1122              		.align	1
 1123              		.global	chThdCreate
 1124              		.syntax unified
 1125              		.thumb
 1126              		.thumb_func
 1127              		.type	chThdCreate, %function
 1128              	chThdCreate:
 1129              	.LFB350:
 1130              		.loc 9 285 55
 1131              		.cfi_startproc
 1132              		@ args = 0, pretend = 0, frame = 16
 1133              		@ frame_needed = 1, uses_anonymous_args = 0
 1134 0000 80B5     		push	{r7, lr}
 1135              		.cfi_def_cfa_offset 8
 1136              		.cfi_offset 7, -8
 1137              		.cfi_offset 14, -4
 1138 0002 84B0     		sub	sp, sp, #16
 1139              		.cfi_def_cfa_offset 24
 1140 0004 00AF     		add	r7, sp, #0
ARM GAS  C:\Users\DEVELO~1\AppData\Local\Temp\cceHiR3y.s 			page 21


 1141              		.cfi_def_cfa_register 7
 1142 0006 7860     		str	r0, [r7, #4]
 1143              		.loc 9 298 3
 1144 0008 FFF7FEFF 		bl	chSysLock
 1145              		.loc 9 299 8
 1146 000c 7868     		ldr	r0, [r7, #4]
 1147 000e FFF7FEFF 		bl	chThdCreateSuspendedI
 1148 0012 F860     		str	r0, [r7, #12]
 1149              		.loc 9 300 3
 1150 0014 0021     		movs	r1, #0
 1151 0016 F868     		ldr	r0, [r7, #12]
 1152 0018 FFF7FEFF 		bl	chSchWakeupS
 1153              		.loc 9 301 3
 1154 001c FFF7FEFF 		bl	chSysUnlock
 1155              		.loc 9 303 10
 1156 0020 FB68     		ldr	r3, [r7, #12]
 1157              		.loc 9 304 1
 1158 0022 1846     		mov	r0, r3
 1159 0024 1037     		adds	r7, r7, #16
 1160              		.cfi_def_cfa_offset 8
 1161 0026 BD46     		mov	sp, r7
 1162              		.cfi_def_cfa_register 13
 1163              		@ sp needed
 1164 0028 80BD     		pop	{r7, pc}
 1165              		.cfi_endproc
 1166              	.LFE350:
 1167              		.size	chThdCreate, .-chThdCreate
 1168              		.section	.rodata
 1169              		.align	2
 1170              	.LC0:
 1171 0000 6E6F6E61 		.ascii	"noname\000"
 1171      6D6500
 1172              		.section	.text.chThdCreateStatic,"ax",%progbits
 1173              		.align	1
 1174              		.global	chThdCreateStatic
 1175              		.syntax unified
 1176              		.thumb
 1177              		.thumb_func
 1178              		.type	chThdCreateStatic, %function
 1179              	chThdCreateStatic:
 1180              	.LFB351:
 1181              		.loc 9 327 66
 1182              		.cfi_startproc
 1183              		@ args = 4, pretend = 0, frame = 24
 1184              		@ frame_needed = 1, uses_anonymous_args = 0
 1185 0000 80B5     		push	{r7, lr}
 1186              		.cfi_def_cfa_offset 8
 1187              		.cfi_offset 7, -8
 1188              		.cfi_offset 14, -4
 1189 0002 86B0     		sub	sp, sp, #24
 1190              		.cfi_def_cfa_offset 32
 1191 0004 00AF     		add	r7, sp, #0
 1192              		.cfi_def_cfa_register 7
 1193 0006 F860     		str	r0, [r7, #12]
 1194 0008 B960     		str	r1, [r7, #8]
 1195 000a 7A60     		str	r2, [r7, #4]
 1196 000c 3B60     		str	r3, [r7]
ARM GAS  C:\Users\DEVELO~1\AppData\Local\Temp\cceHiR3y.s 			page 22


 1197              		.loc 9 346 3
 1198 000e FFF7FEFF 		bl	chSysLock
 1199              		.loc 9 351 8
 1200 0012 BB68     		ldr	r3, [r7, #8]
 1201 0014 483B     		subs	r3, r3, #72
 1202              		.loc 9 351 6
 1203 0016 FA68     		ldr	r2, [r7, #12]
 1204 0018 1344     		add	r3, r3, r2
 1205 001a 7B61     		str	r3, [r7, #20]
 1206              		.loc 9 356 14
 1207 001c 7B69     		ldr	r3, [r7, #20]
 1208 001e FA68     		ldr	r2, [r7, #12]
 1209 0020 1A62     		str	r2, [r3, #32]
 1210              		.loc 9 360 3
 1211 0022 7B69     		ldr	r3, [r7, #20]
 1212 0024 A3F12402 		sub	r2, r3, #36
 1213 0028 7B69     		ldr	r3, [r7, #20]
 1214 002a DA60     		str	r2, [r3, #12]
 1215 002c 7B69     		ldr	r3, [r7, #20]
 1216 002e DB68     		ldr	r3, [r3, #12]
 1217 0030 3A68     		ldr	r2, [r7]
 1218 0032 1A60     		str	r2, [r3]
 1219 0034 7B69     		ldr	r3, [r7, #20]
 1220 0036 DB68     		ldr	r3, [r3, #12]
 1221 0038 3A6A     		ldr	r2, [r7, #32]
 1222 003a 5A60     		str	r2, [r3, #4]
 1223 003c 7B69     		ldr	r3, [r7, #20]
 1224 003e DB68     		ldr	r3, [r3, #12]
 1225 0040 094A     		ldr	r2, .L47
 1226 0042 1A62     		str	r2, [r3, #32]
 1227              		.loc 9 362 8
 1228 0044 7B68     		ldr	r3, [r7, #4]
 1229 0046 094A     		ldr	r2, .L47+4
 1230 0048 7969     		ldr	r1, [r7, #20]
 1231 004a 0948     		ldr	r0, .L47+8
 1232 004c FFF7FEFF 		bl	__thd_object_init
 1233 0050 7861     		str	r0, [r7, #20]
 1234              		.loc 9 365 3
 1235 0052 0021     		movs	r1, #0
 1236 0054 7869     		ldr	r0, [r7, #20]
 1237 0056 FFF7FEFF 		bl	chSchWakeupS
 1238              		.loc 9 366 3
 1239 005a FFF7FEFF 		bl	chSysUnlock
 1240              		.loc 9 368 10
 1241 005e 7B69     		ldr	r3, [r7, #20]
 1242              		.loc 9 369 1
 1243 0060 1846     		mov	r0, r3
 1244 0062 1837     		adds	r7, r7, #24
 1245              		.cfi_def_cfa_offset 8
 1246 0064 BD46     		mov	sp, r7
 1247              		.cfi_def_cfa_register 13
 1248              		@ sp needed
 1249 0066 80BD     		pop	{r7, pc}
 1250              	.L48:
 1251              		.align	2
 1252              	.L47:
 1253 0068 00000000 		.word	__port_thread_start
ARM GAS  C:\Users\DEVELO~1\AppData\Local\Temp\cceHiR3y.s 			page 23


 1254 006c 00000000 		.word	.LC0
 1255 0070 00000000 		.word	ch0
 1256              		.cfi_endproc
 1257              	.LFE351:
 1258              		.size	chThdCreateStatic, .-chThdCreateStatic
 1259              		.section	.text.chThdStart,"ax",%progbits
 1260              		.align	1
 1261              		.global	chThdStart
 1262              		.syntax unified
 1263              		.thumb
 1264              		.thumb_func
 1265              		.type	chThdStart, %function
 1266              	chThdStart:
 1267              	.LFB352:
 1268              		.loc 9 379 36
 1269              		.cfi_startproc
 1270              		@ args = 0, pretend = 0, frame = 8
 1271              		@ frame_needed = 1, uses_anonymous_args = 0
 1272 0000 80B5     		push	{r7, lr}
 1273              		.cfi_def_cfa_offset 8
 1274              		.cfi_offset 7, -8
 1275              		.cfi_offset 14, -4
 1276 0002 82B0     		sub	sp, sp, #8
 1277              		.cfi_def_cfa_offset 16
 1278 0004 00AF     		add	r7, sp, #0
 1279              		.cfi_def_cfa_register 7
 1280 0006 7860     		str	r0, [r7, #4]
 1281              		.loc 9 381 3
 1282 0008 FFF7FEFF 		bl	chSysLock
 1283              		.loc 9 383 3
 1284 000c 0021     		movs	r1, #0
 1285 000e 7868     		ldr	r0, [r7, #4]
 1286 0010 FFF7FEFF 		bl	chSchWakeupS
 1287              		.loc 9 384 3
 1288 0014 FFF7FEFF 		bl	chSysUnlock
 1289              		.loc 9 386 10
 1290 0018 7B68     		ldr	r3, [r7, #4]
 1291              		.loc 9 387 1
 1292 001a 1846     		mov	r0, r3
 1293 001c 0837     		adds	r7, r7, #8
 1294              		.cfi_def_cfa_offset 8
 1295 001e BD46     		mov	sp, r7
 1296              		.cfi_def_cfa_register 13
 1297              		@ sp needed
 1298 0020 80BD     		pop	{r7, pc}
 1299              		.cfi_endproc
 1300              	.LFE352:
 1301              		.size	chThdStart, .-chThdStart
 1302              		.section	.text.chThdAddRef,"ax",%progbits
 1303              		.align	1
 1304              		.global	chThdAddRef
 1305              		.syntax unified
 1306              		.thumb
 1307              		.thumb_func
 1308              		.type	chThdAddRef, %function
 1309              	chThdAddRef:
 1310              	.LFB353:
ARM GAS  C:\Users\DEVELO~1\AppData\Local\Temp\cceHiR3y.s 			page 24


 1311              		.loc 9 401 37
 1312              		.cfi_startproc
 1313              		@ args = 0, pretend = 0, frame = 8
 1314              		@ frame_needed = 1, uses_anonymous_args = 0
 1315 0000 80B5     		push	{r7, lr}
 1316              		.cfi_def_cfa_offset 8
 1317              		.cfi_offset 7, -8
 1318              		.cfi_offset 14, -4
 1319 0002 82B0     		sub	sp, sp, #8
 1320              		.cfi_def_cfa_offset 16
 1321 0004 00AF     		add	r7, sp, #0
 1322              		.cfi_def_cfa_register 7
 1323 0006 7860     		str	r0, [r7, #4]
 1324              		.loc 9 403 3
 1325 0008 FFF7FEFF 		bl	chSysLock
 1326              		.loc 9 405 5
 1327 000c 7B68     		ldr	r3, [r7, #4]
 1328 000e 93F82630 		ldrb	r3, [r3, #38]	@ zero_extendqisi2
 1329              		.loc 9 405 11
 1330 0012 0133     		adds	r3, r3, #1
 1331 0014 DAB2     		uxtb	r2, r3
 1332 0016 7B68     		ldr	r3, [r7, #4]
 1333 0018 83F82620 		strb	r2, [r3, #38]
 1334              		.loc 9 406 3
 1335 001c FFF7FEFF 		bl	chSysUnlock
 1336              		.loc 9 408 10
 1337 0020 7B68     		ldr	r3, [r7, #4]
 1338              		.loc 9 409 1
 1339 0022 1846     		mov	r0, r3
 1340 0024 0837     		adds	r7, r7, #8
 1341              		.cfi_def_cfa_offset 8
 1342 0026 BD46     		mov	sp, r7
 1343              		.cfi_def_cfa_register 13
 1344              		@ sp needed
 1345 0028 80BD     		pop	{r7, pc}
 1346              		.cfi_endproc
 1347              	.LFE353:
 1348              		.size	chThdAddRef, .-chThdAddRef
 1349              		.section	.text.chThdRelease,"ax",%progbits
 1350              		.align	1
 1351              		.global	chThdRelease
 1352              		.syntax unified
 1353              		.thumb
 1354              		.thumb_func
 1355              		.type	chThdRelease, %function
 1356              	chThdRelease:
 1357              	.LFB354:
 1358              		.loc 9 429 33
 1359              		.cfi_startproc
 1360              		@ args = 0, pretend = 0, frame = 8
 1361              		@ frame_needed = 1, uses_anonymous_args = 0
 1362 0000 90B5     		push	{r4, r7, lr}
 1363              		.cfi_def_cfa_offset 12
 1364              		.cfi_offset 4, -12
 1365              		.cfi_offset 7, -8
 1366              		.cfi_offset 14, -4
 1367 0002 83B0     		sub	sp, sp, #12
ARM GAS  C:\Users\DEVELO~1\AppData\Local\Temp\cceHiR3y.s 			page 25


 1368              		.cfi_def_cfa_offset 24
 1369 0004 00AF     		add	r7, sp, #0
 1370              		.cfi_def_cfa_register 7
 1371 0006 7860     		str	r0, [r7, #4]
 1372              		.loc 9 431 3
 1373 0008 FFF7FEFF 		bl	chSysLock
 1374              		.loc 9 433 5
 1375 000c 7B68     		ldr	r3, [r7, #4]
 1376 000e 93F82630 		ldrb	r3, [r3, #38]	@ zero_extendqisi2
 1377              		.loc 9 433 11
 1378 0012 013B     		subs	r3, r3, #1
 1379 0014 DAB2     		uxtb	r2, r3
 1380 0016 7B68     		ldr	r3, [r7, #4]
 1381 0018 83F82620 		strb	r2, [r3, #38]
 1382              		.loc 9 438 10
 1383 001c 7B68     		ldr	r3, [r7, #4]
 1384 001e 93F82630 		ldrb	r3, [r3, #38]	@ zero_extendqisi2
 1385              		.loc 9 438 6
 1386 0022 002B     		cmp	r3, #0
 1387 0024 29D1     		bne	.L54
 1388              		.loc 9 438 38 discriminator 1
 1389 0026 7B68     		ldr	r3, [r7, #4]
 1390 0028 93F82430 		ldrb	r3, [r3, #36]	@ zero_extendqisi2
 1391              		.loc 9 438 32 discriminator 1
 1392 002c 0F2B     		cmp	r3, #15
 1393 002e 24D1     		bne	.L54
 1394              		.loc 9 439 5
 1395 0030 7B68     		ldr	r3, [r7, #4]
 1396 0032 1033     		adds	r3, r3, #16
 1397 0034 1846     		mov	r0, r3
 1398 0036 FFF7FEFF 		bl	ch_queue_dequeue
 1399              		.loc 9 440 5
 1400 003a FFF7FEFF 		bl	chSysUnlock
 1401              		.loc 9 443 15
 1402 003e 7B68     		ldr	r3, [r7, #4]
 1403 0040 93F82530 		ldrb	r3, [r3, #37]	@ zero_extendqisi2
 1404              		.loc 9 443 23
 1405 0044 03F00303 		and	r3, r3, #3
 1406              		.loc 9 443 5
 1407 0048 012B     		cmp	r3, #1
 1408 004a 02D0     		beq	.L55
 1409 004c 022B     		cmp	r3, #2
 1410 004e 08D0     		beq	.L56
 1411              		.loc 9 456 7
 1412 0050 12E0     		b	.L58
 1413              	.L55:
 1414              		.loc 9 446 18
 1415 0052 7868     		ldr	r0, [r7, #4]
 1416 0054 FFF7FEFF 		bl	chThdGetWorkingAreaX
 1417 0058 0346     		mov	r3, r0
 1418              		.loc 9 446 7
 1419 005a 1846     		mov	r0, r3
 1420 005c FFF7FEFF 		bl	chHeapFree
 1421              		.loc 9 447 7
 1422 0060 0AE0     		b	.L58
 1423              	.L56:
 1424              		.loc 9 451 20
ARM GAS  C:\Users\DEVELO~1\AppData\Local\Temp\cceHiR3y.s 			page 26


 1425 0062 7B68     		ldr	r3, [r7, #4]
 1426 0064 5C6C     		ldr	r4, [r3, #68]
 1427              		.loc 9 451 29
 1428 0066 7868     		ldr	r0, [r7, #4]
 1429 0068 FFF7FEFF 		bl	chThdGetWorkingAreaX
 1430 006c 0346     		mov	r3, r0
 1431              		.loc 9 451 7
 1432 006e 1946     		mov	r1, r3
 1433 0070 2046     		mov	r0, r4
 1434 0072 FFF7FEFF 		bl	chPoolFree
 1435              		.loc 9 452 7
 1436 0076 00BF     		nop
 1437              	.L58:
 1438              		.loc 9 459 5
 1439 0078 01E0     		b	.L53
 1440              	.L54:
 1441              		.loc 9 461 3
 1442 007a FFF7FEFF 		bl	chSysUnlock
 1443              	.L53:
 1444              		.loc 9 462 1
 1445 007e 0C37     		adds	r7, r7, #12
 1446              		.cfi_def_cfa_offset 12
 1447 0080 BD46     		mov	sp, r7
 1448              		.cfi_def_cfa_register 13
 1449              		@ sp needed
 1450 0082 90BD     		pop	{r4, r7, pc}
 1451              		.cfi_endproc
 1452              	.LFE354:
 1453              		.size	chThdRelease, .-chThdRelease
 1454              		.section	.text.chThdExit,"ax",%progbits
 1455              		.align	1
 1456              		.global	chThdExit
 1457              		.syntax unified
 1458              		.thumb
 1459              		.thumb_func
 1460              		.type	chThdExit, %function
 1461              	chThdExit:
 1462              	.LFB355:
 1463              		.loc 9 479 27
 1464              		.cfi_startproc
 1465              		@ args = 0, pretend = 0, frame = 8
 1466              		@ frame_needed = 1, uses_anonymous_args = 0
 1467 0000 80B5     		push	{r7, lr}
 1468              		.cfi_def_cfa_offset 8
 1469              		.cfi_offset 7, -8
 1470              		.cfi_offset 14, -4
 1471 0002 82B0     		sub	sp, sp, #8
 1472              		.cfi_def_cfa_offset 16
 1473 0004 00AF     		add	r7, sp, #0
 1474              		.cfi_def_cfa_register 7
 1475 0006 7860     		str	r0, [r7, #4]
 1476              		.loc 9 481 3
 1477 0008 FFF7FEFF 		bl	chSysLock
 1478              		.loc 9 482 3
 1479 000c 7868     		ldr	r0, [r7, #4]
 1480 000e FFF7FEFF 		bl	chThdExitS
 1481              		.loc 9 484 1
ARM GAS  C:\Users\DEVELO~1\AppData\Local\Temp\cceHiR3y.s 			page 27


 1482 0012 00BF     		nop
 1483 0014 0837     		adds	r7, r7, #8
 1484              		.cfi_def_cfa_offset 8
 1485 0016 BD46     		mov	sp, r7
 1486              		.cfi_def_cfa_register 13
 1487              		@ sp needed
 1488 0018 80BD     		pop	{r7, pc}
 1489              		.cfi_endproc
 1490              	.LFE355:
 1491              		.size	chThdExit, .-chThdExit
 1492              		.section	.text.chThdExitS,"ax",%progbits
 1493              		.align	1
 1494              		.global	chThdExitS
 1495              		.syntax unified
 1496              		.thumb
 1497              		.thumb_func
 1498              		.type	chThdExitS, %function
 1499              	chThdExitS:
 1500              	.LFB356:
 1501              		.loc 9 503 28
 1502              		.cfi_startproc
 1503              		@ args = 0, pretend = 0, frame = 16
 1504              		@ frame_needed = 1, uses_anonymous_args = 0
 1505 0000 80B5     		push	{r7, lr}
 1506              		.cfi_def_cfa_offset 8
 1507              		.cfi_offset 7, -8
 1508              		.cfi_offset 14, -4
 1509 0002 84B0     		sub	sp, sp, #16
 1510              		.cfi_def_cfa_offset 24
 1511 0004 00AF     		add	r7, sp, #0
 1512              		.cfi_def_cfa_register 7
 1513 0006 7860     		str	r0, [r7, #4]
 1514              		.loc 9 504 22
 1515 0008 FFF7FEFF 		bl	chThdGetSelfX
 1516 000c F860     		str	r0, [r7, #12]
 1517              		.loc 9 507 22
 1518 000e FB68     		ldr	r3, [r7, #12]
 1519 0010 7A68     		ldr	r2, [r7, #4]
 1520 0012 9A62     		str	r2, [r3, #40]
 1521              		.loc 9 514 9
 1522 0014 08E0     		b	.L62
 1523              	.L63:
 1524              		.loc 9 515 24
 1525 0016 FB68     		ldr	r3, [r7, #12]
 1526 0018 2C33     		adds	r3, r3, #44
 1527 001a 1846     		mov	r0, r3
 1528 001c FFF7FEFF 		bl	ch_list_unlink
 1529 0020 0346     		mov	r3, r0
 1530              		.loc 9 515 12
 1531 0022 1846     		mov	r0, r3
 1532 0024 FFF7FEFF 		bl	chSchReadyI
 1533              	.L62:
 1534              		.loc 9 514 10
 1535 0028 FB68     		ldr	r3, [r7, #12]
 1536 002a 2C33     		adds	r3, r3, #44
 1537 002c 1846     		mov	r0, r3
 1538 002e FFF7FEFF 		bl	ch_list_notempty
ARM GAS  C:\Users\DEVELO~1\AppData\Local\Temp\cceHiR3y.s 			page 28


 1539 0032 0346     		mov	r3, r0
 1540 0034 002B     		cmp	r3, #0
 1541 0036 EED1     		bne	.L63
 1542              		.loc 9 520 7
 1543 0038 FB68     		ldr	r3, [r7, #12]
 1544 003a 93F82630 		ldrb	r3, [r3, #38]	@ zero_extendqisi2
 1545 003e 002B     		cmp	r3, #0
 1546 0040 0CBF     		ite	eq
 1547 0042 0123     		moveq	r3, #1
 1548 0044 0023     		movne	r3, #0
 1549 0046 DBB2     		uxtb	r3, r3
 1550              		.loc 9 520 6
 1551 0048 002B     		cmp	r3, #0
 1552 004a 10D0     		beq	.L64
 1553              		.loc 9 524 9
 1554 004c FB68     		ldr	r3, [r7, #12]
 1555 004e 93F82530 		ldrb	r3, [r3, #37]	@ zero_extendqisi2
 1556 0052 03F00303 		and	r3, r3, #3
 1557 0056 002B     		cmp	r3, #0
 1558 0058 0CBF     		ite	eq
 1559 005a 0123     		moveq	r3, #1
 1560 005c 0023     		movne	r3, #0
 1561 005e DBB2     		uxtb	r3, r3
 1562              		.loc 9 524 8
 1563 0060 002B     		cmp	r3, #0
 1564 0062 04D0     		beq	.L64
 1565              		.loc 9 525 7
 1566 0064 FB68     		ldr	r3, [r7, #12]
 1567 0066 1033     		adds	r3, r3, #16
 1568 0068 1846     		mov	r0, r3
 1569 006a FFF7FEFF 		bl	ch_queue_dequeue
 1570              	.L64:
 1571              		.loc 9 534 3
 1572 006e 0F20     		movs	r0, #15
 1573 0070 FFF7FEFF 		bl	chSchGoSleepS
 1574              		.loc 9 538 1
 1575 0074 00BF     		nop
 1576 0076 1037     		adds	r7, r7, #16
 1577              		.cfi_def_cfa_offset 8
 1578 0078 BD46     		mov	sp, r7
 1579              		.cfi_def_cfa_register 13
 1580              		@ sp needed
 1581 007a 80BD     		pop	{r7, pc}
 1582              		.cfi_endproc
 1583              	.LFE356:
 1584              		.size	chThdExitS, .-chThdExitS
 1585              		.section	.text.chThdWait,"ax",%progbits
 1586              		.align	1
 1587              		.global	chThdWait
 1588              		.syntax unified
 1589              		.thumb
 1590              		.thumb_func
 1591              		.type	chThdWait, %function
 1592              	chThdWait:
 1593              	.LFB357:
 1594              		.loc 9 560 31
 1595              		.cfi_startproc
ARM GAS  C:\Users\DEVELO~1\AppData\Local\Temp\cceHiR3y.s 			page 29


 1596              		@ args = 0, pretend = 0, frame = 16
 1597              		@ frame_needed = 1, uses_anonymous_args = 0
 1598 0000 80B5     		push	{r7, lr}
 1599              		.cfi_def_cfa_offset 8
 1600              		.cfi_offset 7, -8
 1601              		.cfi_offset 14, -4
 1602 0002 84B0     		sub	sp, sp, #16
 1603              		.cfi_def_cfa_offset 24
 1604 0004 00AF     		add	r7, sp, #0
 1605              		.cfi_def_cfa_register 7
 1606 0006 7860     		str	r0, [r7, #4]
 1607              		.loc 9 561 22
 1608 0008 FFF7FEFF 		bl	chThdGetSelfX
 1609 000c B860     		str	r0, [r7, #8]
 1610              		.loc 9 566 3
 1611 000e FFF7FEFF 		bl	chSysLock
 1612              		.loc 9 572 7
 1613 0012 7B68     		ldr	r3, [r7, #4]
 1614 0014 93F82430 		ldrb	r3, [r3, #36]	@ zero_extendqisi2
 1615 0018 0F2B     		cmp	r3, #15
 1616 001a 14BF     		ite	ne
 1617 001c 0123     		movne	r3, #1
 1618 001e 0023     		moveq	r3, #0
 1619 0020 DBB2     		uxtb	r3, r3
 1620              		.loc 9 572 6
 1621 0022 002B     		cmp	r3, #0
 1622 0024 09D0     		beq	.L66
 1623              		.loc 9 573 5
 1624 0026 7B68     		ldr	r3, [r7, #4]
 1625 0028 2C33     		adds	r3, r3, #44
 1626 002a BA68     		ldr	r2, [r7, #8]
 1627 002c 1146     		mov	r1, r2
 1628 002e 1846     		mov	r0, r3
 1629 0030 FFF7FEFF 		bl	ch_list_link
 1630              		.loc 9 574 5
 1631 0034 0920     		movs	r0, #9
 1632 0036 FFF7FEFF 		bl	chSchGoSleepS
 1633              	.L66:
 1634              		.loc 9 576 7
 1635 003a 7B68     		ldr	r3, [r7, #4]
 1636 003c 9B6A     		ldr	r3, [r3, #40]
 1637 003e FB60     		str	r3, [r7, #12]
 1638              		.loc 9 577 3
 1639 0040 FFF7FEFF 		bl	chSysUnlock
 1640              		.loc 9 581 3
 1641 0044 7868     		ldr	r0, [r7, #4]
 1642 0046 FFF7FEFF 		bl	chThdRelease
 1643              		.loc 9 584 10
 1644 004a FB68     		ldr	r3, [r7, #12]
 1645              		.loc 9 585 1
 1646 004c 1846     		mov	r0, r3
 1647 004e 1037     		adds	r7, r7, #16
 1648              		.cfi_def_cfa_offset 8
 1649 0050 BD46     		mov	sp, r7
 1650              		.cfi_def_cfa_register 13
 1651              		@ sp needed
 1652 0052 80BD     		pop	{r7, pc}
ARM GAS  C:\Users\DEVELO~1\AppData\Local\Temp\cceHiR3y.s 			page 30


 1653              		.cfi_endproc
 1654              	.LFE357:
 1655              		.size	chThdWait, .-chThdWait
 1656              		.section	.text.chThdSetPriority,"ax",%progbits
 1657              		.align	1
 1658              		.global	chThdSetPriority
 1659              		.syntax unified
 1660              		.thumb
 1661              		.thumb_func
 1662              		.type	chThdSetPriority, %function
 1663              	chThdSetPriority:
 1664              	.LFB358:
 1665              		.loc 9 600 43
 1666              		.cfi_startproc
 1667              		@ args = 0, pretend = 0, frame = 16
 1668              		@ frame_needed = 1, uses_anonymous_args = 0
 1669 0000 80B5     		push	{r7, lr}
 1670              		.cfi_def_cfa_offset 8
 1671              		.cfi_offset 7, -8
 1672              		.cfi_offset 14, -4
 1673 0002 84B0     		sub	sp, sp, #16
 1674              		.cfi_def_cfa_offset 24
 1675 0004 00AF     		add	r7, sp, #0
 1676              		.cfi_def_cfa_register 7
 1677 0006 7860     		str	r0, [r7, #4]
 1678              		.loc 9 601 22
 1679 0008 FFF7FEFF 		bl	chThdGetSelfX
 1680 000c F860     		str	r0, [r7, #12]
 1681              		.loc 9 606 3
 1682 000e FFF7FEFF 		bl	chSysLock
 1683              		.loc 9 608 11
 1684 0012 FB68     		ldr	r3, [r7, #12]
 1685 0014 1B6C     		ldr	r3, [r3, #64]
 1686 0016 BB60     		str	r3, [r7, #8]
 1687              		.loc 9 609 26
 1688 0018 FB68     		ldr	r3, [r7, #12]
 1689 001a 9A68     		ldr	r2, [r3, #8]
 1690              		.loc 9 609 41
 1691 001c FB68     		ldr	r3, [r7, #12]
 1692 001e 1B6C     		ldr	r3, [r3, #64]
 1693              		.loc 9 609 6
 1694 0020 9A42     		cmp	r2, r3
 1695 0022 04D0     		beq	.L69
 1696              		.loc 9 610 36 discriminator 1
 1697 0024 FB68     		ldr	r3, [r7, #12]
 1698 0026 9B68     		ldr	r3, [r3, #8]
 1699              		.loc 9 609 53 discriminator 1
 1700 0028 7A68     		ldr	r2, [r7, #4]
 1701 002a 9A42     		cmp	r2, r3
 1702 002c 02D9     		bls	.L70
 1703              	.L69:
 1704              		.loc 9 611 29
 1705 002e FB68     		ldr	r3, [r7, #12]
 1706 0030 7A68     		ldr	r2, [r7, #4]
 1707 0032 9A60     		str	r2, [r3, #8]
 1708              	.L70:
 1709              		.loc 9 613 20
ARM GAS  C:\Users\DEVELO~1\AppData\Local\Temp\cceHiR3y.s 			page 31


 1710 0034 FB68     		ldr	r3, [r7, #12]
 1711 0036 7A68     		ldr	r2, [r7, #4]
 1712 0038 1A64     		str	r2, [r3, #64]
 1713              		.loc 9 618 3
 1714 003a FFF7FEFF 		bl	chSchRescheduleS
 1715              		.loc 9 619 3
 1716 003e FFF7FEFF 		bl	chSysUnlock
 1717              		.loc 9 621 10
 1718 0042 BB68     		ldr	r3, [r7, #8]
 1719              		.loc 9 622 1
 1720 0044 1846     		mov	r0, r3
 1721 0046 1037     		adds	r7, r7, #16
 1722              		.cfi_def_cfa_offset 8
 1723 0048 BD46     		mov	sp, r7
 1724              		.cfi_def_cfa_register 13
 1725              		@ sp needed
 1726 004a 80BD     		pop	{r7, pc}
 1727              		.cfi_endproc
 1728              	.LFE358:
 1729              		.size	chThdSetPriority, .-chThdSetPriority
 1730              		.section	.text.chThdTerminate,"ax",%progbits
 1731              		.align	1
 1732              		.global	chThdTerminate
 1733              		.syntax unified
 1734              		.thumb
 1735              		.thumb_func
 1736              		.type	chThdTerminate, %function
 1737              	chThdTerminate:
 1738              	.LFB359:
 1739              		.loc 9 636 35
 1740              		.cfi_startproc
 1741              		@ args = 0, pretend = 0, frame = 8
 1742              		@ frame_needed = 1, uses_anonymous_args = 0
 1743 0000 80B5     		push	{r7, lr}
 1744              		.cfi_def_cfa_offset 8
 1745              		.cfi_offset 7, -8
 1746              		.cfi_offset 14, -4
 1747 0002 82B0     		sub	sp, sp, #8
 1748              		.cfi_def_cfa_offset 16
 1749 0004 00AF     		add	r7, sp, #0
 1750              		.cfi_def_cfa_register 7
 1751 0006 7860     		str	r0, [r7, #4]
 1752              		.loc 9 638 3
 1753 0008 FFF7FEFF 		bl	chSysLock
 1754              		.loc 9 639 13
 1755 000c 7B68     		ldr	r3, [r7, #4]
 1756 000e 93F82530 		ldrb	r3, [r3, #37]	@ zero_extendqisi2
 1757 0012 43F00403 		orr	r3, r3, #4
 1758 0016 DAB2     		uxtb	r2, r3
 1759 0018 7B68     		ldr	r3, [r7, #4]
 1760 001a 83F82520 		strb	r2, [r3, #37]
 1761              		.loc 9 640 3
 1762 001e FFF7FEFF 		bl	chSysUnlock
 1763              		.loc 9 641 1
 1764 0022 00BF     		nop
 1765 0024 0837     		adds	r7, r7, #8
 1766              		.cfi_def_cfa_offset 8
ARM GAS  C:\Users\DEVELO~1\AppData\Local\Temp\cceHiR3y.s 			page 32


 1767 0026 BD46     		mov	sp, r7
 1768              		.cfi_def_cfa_register 13
 1769              		@ sp needed
 1770 0028 80BD     		pop	{r7, pc}
 1771              		.cfi_endproc
 1772              	.LFE359:
 1773              		.size	chThdTerminate, .-chThdTerminate
 1774              		.section	.text.chThdSleep,"ax",%progbits
 1775              		.align	1
 1776              		.global	chThdSleep
 1777              		.syntax unified
 1778              		.thumb
 1779              		.thumb_func
 1780              		.type	chThdSleep, %function
 1781              	chThdSleep:
 1782              	.LFB360:
 1783              		.loc 9 655 37
 1784              		.cfi_startproc
 1785              		@ args = 0, pretend = 0, frame = 8
 1786              		@ frame_needed = 1, uses_anonymous_args = 0
 1787 0000 80B5     		push	{r7, lr}
 1788              		.cfi_def_cfa_offset 8
 1789              		.cfi_offset 7, -8
 1790              		.cfi_offset 14, -4
 1791 0002 82B0     		sub	sp, sp, #8
 1792              		.cfi_def_cfa_offset 16
 1793 0004 00AF     		add	r7, sp, #0
 1794              		.cfi_def_cfa_register 7
 1795 0006 7860     		str	r0, [r7, #4]
 1796              		.loc 9 657 3
 1797 0008 FFF7FEFF 		bl	chSysLock
 1798              		.loc 9 658 3
 1799 000c 7868     		ldr	r0, [r7, #4]
 1800 000e FFF7FEFF 		bl	chThdSleepS
 1801              		.loc 9 659 3
 1802 0012 FFF7FEFF 		bl	chSysUnlock
 1803              		.loc 9 660 1
 1804 0016 00BF     		nop
 1805 0018 0837     		adds	r7, r7, #8
 1806              		.cfi_def_cfa_offset 8
 1807 001a BD46     		mov	sp, r7
 1808              		.cfi_def_cfa_register 13
 1809              		@ sp needed
 1810 001c 80BD     		pop	{r7, pc}
 1811              		.cfi_endproc
 1812              	.LFE360:
 1813              		.size	chThdSleep, .-chThdSleep
 1814              		.section	.text.chThdSleepUntil,"ax",%progbits
 1815              		.align	1
 1816              		.global	chThdSleepUntil
 1817              		.syntax unified
 1818              		.thumb
 1819              		.thumb_func
 1820              		.type	chThdSleepUntil, %function
 1821              	chThdSleepUntil:
 1822              	.LFB361:
 1823              		.loc 9 675 38
ARM GAS  C:\Users\DEVELO~1\AppData\Local\Temp\cceHiR3y.s 			page 33


 1824              		.cfi_startproc
 1825              		@ args = 0, pretend = 0, frame = 16
 1826              		@ frame_needed = 1, uses_anonymous_args = 0
 1827 0000 80B5     		push	{r7, lr}
 1828              		.cfi_def_cfa_offset 8
 1829              		.cfi_offset 7, -8
 1830              		.cfi_offset 14, -4
 1831 0002 84B0     		sub	sp, sp, #16
 1832              		.cfi_def_cfa_offset 24
 1833 0004 00AF     		add	r7, sp, #0
 1834              		.cfi_def_cfa_register 7
 1835 0006 7860     		str	r0, [r7, #4]
 1836              		.loc 9 678 3
 1837 0008 FFF7FEFF 		bl	chSysLock
 1838              		.loc 9 679 14
 1839 000c FFF7FEFF 		bl	chVTGetSystemTimeX
 1840 0010 0346     		mov	r3, r0
 1841 0012 7968     		ldr	r1, [r7, #4]
 1842 0014 1846     		mov	r0, r3
 1843 0016 FFF7FEFF 		bl	chTimeDiffX
 1844 001a F860     		str	r0, [r7, #12]
 1845              		.loc 9 680 7
 1846 001c FB68     		ldr	r3, [r7, #12]
 1847 001e 002B     		cmp	r3, #0
 1848 0020 14BF     		ite	ne
 1849 0022 0123     		movne	r3, #1
 1850 0024 0023     		moveq	r3, #0
 1851 0026 DBB2     		uxtb	r3, r3
 1852              		.loc 9 680 6
 1853 0028 002B     		cmp	r3, #0
 1854 002a 02D0     		beq	.L75
 1855              		.loc 9 681 5
 1856 002c F868     		ldr	r0, [r7, #12]
 1857 002e FFF7FEFF 		bl	chThdSleepS
 1858              	.L75:
 1859              		.loc 9 683 3
 1860 0032 FFF7FEFF 		bl	chSysUnlock
 1861              		.loc 9 684 1
 1862 0036 00BF     		nop
 1863 0038 1037     		adds	r7, r7, #16
 1864              		.cfi_def_cfa_offset 8
 1865 003a BD46     		mov	sp, r7
 1866              		.cfi_def_cfa_register 13
 1867              		@ sp needed
 1868 003c 80BD     		pop	{r7, pc}
 1869              		.cfi_endproc
 1870              	.LFE361:
 1871              		.size	chThdSleepUntil, .-chThdSleepUntil
 1872              		.section	.text.chThdSleepUntilWindowed,"ax",%progbits
 1873              		.align	1
 1874              		.global	chThdSleepUntilWindowed
 1875              		.syntax unified
 1876              		.thumb
 1877              		.thumb_func
 1878              		.type	chThdSleepUntilWindowed, %function
 1879              	chThdSleepUntilWindowed:
 1880              	.LFB362:
ARM GAS  C:\Users\DEVELO~1\AppData\Local\Temp\cceHiR3y.s 			page 34


 1881              		.loc 9 700 67
 1882              		.cfi_startproc
 1883              		@ args = 0, pretend = 0, frame = 16
 1884              		@ frame_needed = 1, uses_anonymous_args = 0
 1885 0000 80B5     		push	{r7, lr}
 1886              		.cfi_def_cfa_offset 8
 1887              		.cfi_offset 7, -8
 1888              		.cfi_offset 14, -4
 1889 0002 84B0     		sub	sp, sp, #16
 1890              		.cfi_def_cfa_offset 24
 1891 0004 00AF     		add	r7, sp, #0
 1892              		.cfi_def_cfa_register 7
 1893 0006 7860     		str	r0, [r7, #4]
 1894 0008 3960     		str	r1, [r7]
 1895              		.loc 9 703 3
 1896 000a FFF7FEFF 		bl	chSysLock
 1897              		.loc 9 704 10
 1898 000e FFF7FEFF 		bl	chVTGetSystemTimeX
 1899 0012 F860     		str	r0, [r7, #12]
 1900              		.loc 9 705 7
 1901 0014 3A68     		ldr	r2, [r7]
 1902 0016 7968     		ldr	r1, [r7, #4]
 1903 0018 F868     		ldr	r0, [r7, #12]
 1904 001a FFF7FEFF 		bl	chTimeIsInRangeX
 1905 001e 0346     		mov	r3, r0
 1906              		.loc 9 705 6
 1907 0020 002B     		cmp	r3, #0
 1908 0022 07D0     		beq	.L77
 1909              		.loc 9 706 5
 1910 0024 3968     		ldr	r1, [r7]
 1911 0026 F868     		ldr	r0, [r7, #12]
 1912 0028 FFF7FEFF 		bl	chTimeDiffX
 1913 002c 0346     		mov	r3, r0
 1914 002e 1846     		mov	r0, r3
 1915 0030 FFF7FEFF 		bl	chThdSleepS
 1916              	.L77:
 1917              		.loc 9 708 3
 1918 0034 FFF7FEFF 		bl	chSysUnlock
 1919              		.loc 9 710 10
 1920 0038 3B68     		ldr	r3, [r7]
 1921              		.loc 9 711 1
 1922 003a 1846     		mov	r0, r3
 1923 003c 1037     		adds	r7, r7, #16
 1924              		.cfi_def_cfa_offset 8
 1925 003e BD46     		mov	sp, r7
 1926              		.cfi_def_cfa_register 13
 1927              		@ sp needed
 1928 0040 80BD     		pop	{r7, pc}
 1929              		.cfi_endproc
 1930              	.LFE362:
 1931              		.size	chThdSleepUntilWindowed, .-chThdSleepUntilWindowed
 1932              		.section	.text.chThdYield,"ax",%progbits
 1933              		.align	1
 1934              		.global	chThdYield
 1935              		.syntax unified
 1936              		.thumb
 1937              		.thumb_func
ARM GAS  C:\Users\DEVELO~1\AppData\Local\Temp\cceHiR3y.s 			page 35


 1938              		.type	chThdYield, %function
 1939              	chThdYield:
 1940              	.LFB363:
 1941              		.loc 9 720 23
 1942              		.cfi_startproc
 1943              		@ args = 0, pretend = 0, frame = 0
 1944              		@ frame_needed = 1, uses_anonymous_args = 0
 1945 0000 80B5     		push	{r7, lr}
 1946              		.cfi_def_cfa_offset 8
 1947              		.cfi_offset 7, -8
 1948              		.cfi_offset 14, -4
 1949 0002 00AF     		add	r7, sp, #0
 1950              		.cfi_def_cfa_register 7
 1951              		.loc 9 722 3
 1952 0004 FFF7FEFF 		bl	chSysLock
 1953              		.loc 9 723 3
 1954 0008 FFF7FEFF 		bl	chSchDoYieldS
 1955              		.loc 9 724 3
 1956 000c FFF7FEFF 		bl	chSysUnlock
 1957              		.loc 9 725 1
 1958 0010 00BF     		nop
 1959 0012 80BD     		pop	{r7, pc}
 1960              		.cfi_endproc
 1961              	.LFE363:
 1962              		.size	chThdYield, .-chThdYield
 1963              		.section	.text.chThdSuspendS,"ax",%progbits
 1964              		.align	1
 1965              		.global	chThdSuspendS
 1966              		.syntax unified
 1967              		.thumb
 1968              		.thumb_func
 1969              		.type	chThdSuspendS, %function
 1970              	chThdSuspendS:
 1971              	.LFB364:
 1972              		.loc 9 737 46
 1973              		.cfi_startproc
 1974              		@ args = 0, pretend = 0, frame = 16
 1975              		@ frame_needed = 1, uses_anonymous_args = 0
 1976 0000 80B5     		push	{r7, lr}
 1977              		.cfi_def_cfa_offset 8
 1978              		.cfi_offset 7, -8
 1979              		.cfi_offset 14, -4
 1980 0002 84B0     		sub	sp, sp, #16
 1981              		.cfi_def_cfa_offset 24
 1982 0004 00AF     		add	r7, sp, #0
 1983              		.cfi_def_cfa_register 7
 1984 0006 7860     		str	r0, [r7, #4]
 1985              		.loc 9 738 18
 1986 0008 FFF7FEFF 		bl	chThdGetSelfX
 1987 000c F860     		str	r0, [r7, #12]
 1988              		.loc 9 742 8
 1989 000e 7B68     		ldr	r3, [r7, #4]
 1990 0010 FA68     		ldr	r2, [r7, #12]
 1991 0012 1A60     		str	r2, [r3]
 1992              		.loc 9 743 15
 1993 0014 FB68     		ldr	r3, [r7, #12]
 1994 0016 7A68     		ldr	r2, [r7, #4]
ARM GAS  C:\Users\DEVELO~1\AppData\Local\Temp\cceHiR3y.s 			page 36


 1995 0018 9A62     		str	r2, [r3, #40]
 1996              		.loc 9 744 3
 1997 001a 0320     		movs	r0, #3
 1998 001c FFF7FEFF 		bl	chSchGoSleepS
 1999              		.loc 9 746 10
 2000 0020 FFF7FEFF 		bl	chThdGetSelfX
 2001 0024 0346     		mov	r3, r0
 2002              		.loc 9 746 28
 2003 0026 9B6A     		ldr	r3, [r3, #40]
 2004              		.loc 9 747 1
 2005 0028 1846     		mov	r0, r3
 2006 002a 1037     		adds	r7, r7, #16
 2007              		.cfi_def_cfa_offset 8
 2008 002c BD46     		mov	sp, r7
 2009              		.cfi_def_cfa_register 13
 2010              		@ sp needed
 2011 002e 80BD     		pop	{r7, pc}
 2012              		.cfi_endproc
 2013              	.LFE364:
 2014              		.size	chThdSuspendS, .-chThdSuspendS
 2015              		.section	.text.chThdSuspendTimeoutS,"ax",%progbits
 2016              		.align	1
 2017              		.global	chThdSuspendTimeoutS
 2018              		.syntax unified
 2019              		.thumb
 2020              		.thumb_func
 2021              		.type	chThdSuspendTimeoutS, %function
 2022              	chThdSuspendTimeoutS:
 2023              	.LFB365:
 2024              		.loc 9 768 76
 2025              		.cfi_startproc
 2026              		@ args = 0, pretend = 0, frame = 16
 2027              		@ frame_needed = 1, uses_anonymous_args = 0
 2028 0000 80B5     		push	{r7, lr}
 2029              		.cfi_def_cfa_offset 8
 2030              		.cfi_offset 7, -8
 2031              		.cfi_offset 14, -4
 2032 0002 84B0     		sub	sp, sp, #16
 2033              		.cfi_def_cfa_offset 24
 2034 0004 00AF     		add	r7, sp, #0
 2035              		.cfi_def_cfa_register 7
 2036 0006 7860     		str	r0, [r7, #4]
 2037 0008 3960     		str	r1, [r7]
 2038              		.loc 9 769 18
 2039 000a FFF7FEFF 		bl	chThdGetSelfX
 2040 000e F860     		str	r0, [r7, #12]
 2041              		.loc 9 773 7
 2042 0010 3B68     		ldr	r3, [r7]
 2043 0012 002B     		cmp	r3, #0
 2044 0014 0CBF     		ite	eq
 2045 0016 0123     		moveq	r3, #1
 2046 0018 0023     		movne	r3, #0
 2047 001a DBB2     		uxtb	r3, r3
 2048              		.loc 9 773 6
 2049 001c 002B     		cmp	r3, #0
 2050 001e 02D0     		beq	.L83
 2051              		.loc 9 774 12
ARM GAS  C:\Users\DEVELO~1\AppData\Local\Temp\cceHiR3y.s 			page 37


 2052 0020 4FF0FF33 		mov	r3, #-1
 2053 0024 0AE0     		b	.L84
 2054              	.L83:
 2055              		.loc 9 777 8
 2056 0026 7B68     		ldr	r3, [r7, #4]
 2057 0028 FA68     		ldr	r2, [r7, #12]
 2058 002a 1A60     		str	r2, [r3]
 2059              		.loc 9 778 15
 2060 002c FB68     		ldr	r3, [r7, #12]
 2061 002e 7A68     		ldr	r2, [r7, #4]
 2062 0030 9A62     		str	r2, [r3, #40]
 2063              		.loc 9 780 10
 2064 0032 3968     		ldr	r1, [r7]
 2065 0034 0320     		movs	r0, #3
 2066 0036 FFF7FEFF 		bl	chSchGoSleepTimeoutS
 2067 003a 0346     		mov	r3, r0
 2068              	.L84:
 2069              		.loc 9 781 1
 2070 003c 1846     		mov	r0, r3
 2071 003e 1037     		adds	r7, r7, #16
 2072              		.cfi_def_cfa_offset 8
 2073 0040 BD46     		mov	sp, r7
 2074              		.cfi_def_cfa_register 13
 2075              		@ sp needed
 2076 0042 80BD     		pop	{r7, pc}
 2077              		.cfi_endproc
 2078              	.LFE365:
 2079              		.size	chThdSuspendTimeoutS, .-chThdSuspendTimeoutS
 2080              		.section	.text.chThdResumeI,"ax",%progbits
 2081              		.align	1
 2082              		.global	chThdResumeI
 2083              		.syntax unified
 2084              		.thumb
 2085              		.thumb_func
 2086              		.type	chThdResumeI, %function
 2087              	chThdResumeI:
 2088              	.LFB366:
 2089              		.loc 9 793 55
 2090              		.cfi_startproc
 2091              		@ args = 0, pretend = 0, frame = 16
 2092              		@ frame_needed = 1, uses_anonymous_args = 0
 2093 0000 80B5     		push	{r7, lr}
 2094              		.cfi_def_cfa_offset 8
 2095              		.cfi_offset 7, -8
 2096              		.cfi_offset 14, -4
 2097 0002 84B0     		sub	sp, sp, #16
 2098              		.cfi_def_cfa_offset 24
 2099 0004 00AF     		add	r7, sp, #0
 2100              		.cfi_def_cfa_register 7
 2101 0006 7860     		str	r0, [r7, #4]
 2102 0008 3960     		str	r1, [r7]
 2103              		.loc 9 795 7
 2104 000a 7B68     		ldr	r3, [r7, #4]
 2105 000c 1B68     		ldr	r3, [r3]
 2106              		.loc 9 795 6
 2107 000e 002B     		cmp	r3, #0
 2108 0010 0BD0     		beq	.L87
ARM GAS  C:\Users\DEVELO~1\AppData\Local\Temp\cceHiR3y.s 			page 38


 2109              	.LBB22:
 2110              		.loc 9 796 15
 2111 0012 7B68     		ldr	r3, [r7, #4]
 2112 0014 1B68     		ldr	r3, [r3]
 2113 0016 FB60     		str	r3, [r7, #12]
 2114              		.loc 9 800 10
 2115 0018 7B68     		ldr	r3, [r7, #4]
 2116 001a 0022     		movs	r2, #0
 2117 001c 1A60     		str	r2, [r3]
 2118              		.loc 9 801 18
 2119 001e FB68     		ldr	r3, [r7, #12]
 2120 0020 3A68     		ldr	r2, [r7]
 2121 0022 9A62     		str	r2, [r3, #40]
 2122              		.loc 9 802 12
 2123 0024 F868     		ldr	r0, [r7, #12]
 2124 0026 FFF7FEFF 		bl	chSchReadyI
 2125              	.L87:
 2126              	.LBE22:
 2127              		.loc 9 804 1
 2128 002a 00BF     		nop
 2129 002c 1037     		adds	r7, r7, #16
 2130              		.cfi_def_cfa_offset 8
 2131 002e BD46     		mov	sp, r7
 2132              		.cfi_def_cfa_register 13
 2133              		@ sp needed
 2134 0030 80BD     		pop	{r7, pc}
 2135              		.cfi_endproc
 2136              	.LFE366:
 2137              		.size	chThdResumeI, .-chThdResumeI
 2138              		.section	.text.chThdResumeS,"ax",%progbits
 2139              		.align	1
 2140              		.global	chThdResumeS
 2141              		.syntax unified
 2142              		.thumb
 2143              		.thumb_func
 2144              		.type	chThdResumeS, %function
 2145              	chThdResumeS:
 2146              	.LFB367:
 2147              		.loc 9 816 55
 2148              		.cfi_startproc
 2149              		@ args = 0, pretend = 0, frame = 16
 2150              		@ frame_needed = 1, uses_anonymous_args = 0
 2151 0000 80B5     		push	{r7, lr}
 2152              		.cfi_def_cfa_offset 8
 2153              		.cfi_offset 7, -8
 2154              		.cfi_offset 14, -4
 2155 0002 84B0     		sub	sp, sp, #16
 2156              		.cfi_def_cfa_offset 24
 2157 0004 00AF     		add	r7, sp, #0
 2158              		.cfi_def_cfa_register 7
 2159 0006 7860     		str	r0, [r7, #4]
 2160 0008 3960     		str	r1, [r7]
 2161              		.loc 9 818 7
 2162 000a 7B68     		ldr	r3, [r7, #4]
 2163 000c 1B68     		ldr	r3, [r3]
 2164              		.loc 9 818 6
 2165 000e 002B     		cmp	r3, #0
ARM GAS  C:\Users\DEVELO~1\AppData\Local\Temp\cceHiR3y.s 			page 39


 2166 0010 09D0     		beq	.L90
 2167              	.LBB23:
 2168              		.loc 9 819 15
 2169 0012 7B68     		ldr	r3, [r7, #4]
 2170 0014 1B68     		ldr	r3, [r3]
 2171 0016 FB60     		str	r3, [r7, #12]
 2172              		.loc 9 823 10
 2173 0018 7B68     		ldr	r3, [r7, #4]
 2174 001a 0022     		movs	r2, #0
 2175 001c 1A60     		str	r2, [r3]
 2176              		.loc 9 824 5
 2177 001e 3968     		ldr	r1, [r7]
 2178 0020 F868     		ldr	r0, [r7, #12]
 2179 0022 FFF7FEFF 		bl	chSchWakeupS
 2180              	.L90:
 2181              	.LBE23:
 2182              		.loc 9 826 1
 2183 0026 00BF     		nop
 2184 0028 1037     		adds	r7, r7, #16
 2185              		.cfi_def_cfa_offset 8
 2186 002a BD46     		mov	sp, r7
 2187              		.cfi_def_cfa_register 13
 2188              		@ sp needed
 2189 002c 80BD     		pop	{r7, pc}
 2190              		.cfi_endproc
 2191              	.LFE367:
 2192              		.size	chThdResumeS, .-chThdResumeS
 2193              		.section	.text.chThdResume,"ax",%progbits
 2194              		.align	1
 2195              		.global	chThdResume
 2196              		.syntax unified
 2197              		.thumb
 2198              		.thumb_func
 2199              		.type	chThdResume, %function
 2200              	chThdResume:
 2201              	.LFB368:
 2202              		.loc 9 838 54
 2203              		.cfi_startproc
 2204              		@ args = 0, pretend = 0, frame = 8
 2205              		@ frame_needed = 1, uses_anonymous_args = 0
 2206 0000 80B5     		push	{r7, lr}
 2207              		.cfi_def_cfa_offset 8
 2208              		.cfi_offset 7, -8
 2209              		.cfi_offset 14, -4
 2210 0002 82B0     		sub	sp, sp, #8
 2211              		.cfi_def_cfa_offset 16
 2212 0004 00AF     		add	r7, sp, #0
 2213              		.cfi_def_cfa_register 7
 2214 0006 7860     		str	r0, [r7, #4]
 2215 0008 3960     		str	r1, [r7]
 2216              		.loc 9 840 3
 2217 000a FFF7FEFF 		bl	chSysLock
 2218              		.loc 9 841 3
 2219 000e 3968     		ldr	r1, [r7]
 2220 0010 7868     		ldr	r0, [r7, #4]
 2221 0012 FFF7FEFF 		bl	chThdResumeS
 2222              		.loc 9 842 3
ARM GAS  C:\Users\DEVELO~1\AppData\Local\Temp\cceHiR3y.s 			page 40


 2223 0016 FFF7FEFF 		bl	chSysUnlock
 2224              		.loc 9 843 1
 2225 001a 00BF     		nop
 2226 001c 0837     		adds	r7, r7, #8
 2227              		.cfi_def_cfa_offset 8
 2228 001e BD46     		mov	sp, r7
 2229              		.cfi_def_cfa_register 13
 2230              		@ sp needed
 2231 0020 80BD     		pop	{r7, pc}
 2232              		.cfi_endproc
 2233              	.LFE368:
 2234              		.size	chThdResume, .-chThdResume
 2235              		.section	.text.chThdEnqueueTimeoutS,"ax",%progbits
 2236              		.align	1
 2237              		.global	chThdEnqueueTimeoutS
 2238              		.syntax unified
 2239              		.thumb
 2240              		.thumb_func
 2241              		.type	chThdEnqueueTimeoutS, %function
 2242              	chThdEnqueueTimeoutS:
 2243              	.LFB369:
 2244              		.loc 9 868 73
 2245              		.cfi_startproc
 2246              		@ args = 0, pretend = 0, frame = 16
 2247              		@ frame_needed = 1, uses_anonymous_args = 0
 2248 0000 80B5     		push	{r7, lr}
 2249              		.cfi_def_cfa_offset 8
 2250              		.cfi_offset 7, -8
 2251              		.cfi_offset 14, -4
 2252 0002 84B0     		sub	sp, sp, #16
 2253              		.cfi_def_cfa_offset 24
 2254 0004 00AF     		add	r7, sp, #0
 2255              		.cfi_def_cfa_register 7
 2256 0006 7860     		str	r0, [r7, #4]
 2257 0008 3960     		str	r1, [r7]
 2258              		.loc 9 869 22
 2259 000a FFF7FEFF 		bl	chThdGetSelfX
 2260 000e F860     		str	r0, [r7, #12]
 2261              		.loc 9 871 7
 2262 0010 3B68     		ldr	r3, [r7]
 2263 0012 002B     		cmp	r3, #0
 2264 0014 0CBF     		ite	eq
 2265 0016 0123     		moveq	r3, #1
 2266 0018 0023     		movne	r3, #0
 2267 001a DBB2     		uxtb	r3, r3
 2268              		.loc 9 871 6
 2269 001c 002B     		cmp	r3, #0
 2270 001e 02D0     		beq	.L93
 2271              		.loc 9 872 12
 2272 0020 4FF0FF33 		mov	r3, #-1
 2273 0024 09E0     		b	.L94
 2274              	.L93:
 2275              		.loc 9 875 3
 2276 0026 7B68     		ldr	r3, [r7, #4]
 2277 0028 F968     		ldr	r1, [r7, #12]
 2278 002a 1846     		mov	r0, r3
 2279 002c FFF7FEFF 		bl	ch_queue_insert
ARM GAS  C:\Users\DEVELO~1\AppData\Local\Temp\cceHiR3y.s 			page 41


 2280              		.loc 9 877 10
 2281 0030 3968     		ldr	r1, [r7]
 2282 0032 0420     		movs	r0, #4
 2283 0034 FFF7FEFF 		bl	chSchGoSleepTimeoutS
 2284 0038 0346     		mov	r3, r0
 2285              	.L94:
 2286              		.loc 9 878 1
 2287 003a 1846     		mov	r0, r3
 2288 003c 1037     		adds	r7, r7, #16
 2289              		.cfi_def_cfa_offset 8
 2290 003e BD46     		mov	sp, r7
 2291              		.cfi_def_cfa_register 13
 2292              		@ sp needed
 2293 0040 80BD     		pop	{r7, pc}
 2294              		.cfi_endproc
 2295              	.LFE369:
 2296              		.size	chThdEnqueueTimeoutS, .-chThdEnqueueTimeoutS
 2297              		.section	.text.chThdDequeueNextI,"ax",%progbits
 2298              		.align	1
 2299              		.global	chThdDequeueNextI
 2300              		.syntax unified
 2301              		.thumb
 2302              		.thumb_func
 2303              		.type	chThdDequeueNextI, %function
 2304              	chThdDequeueNextI:
 2305              	.LFB370:
 2306              		.loc 9 889 57
 2307              		.cfi_startproc
 2308              		@ args = 0, pretend = 0, frame = 8
 2309              		@ frame_needed = 1, uses_anonymous_args = 0
 2310 0000 80B5     		push	{r7, lr}
 2311              		.cfi_def_cfa_offset 8
 2312              		.cfi_offset 7, -8
 2313              		.cfi_offset 14, -4
 2314 0002 82B0     		sub	sp, sp, #8
 2315              		.cfi_def_cfa_offset 16
 2316 0004 00AF     		add	r7, sp, #0
 2317              		.cfi_def_cfa_register 7
 2318 0006 7860     		str	r0, [r7, #4]
 2319 0008 3960     		str	r1, [r7]
 2320              		.loc 9 891 25
 2321 000a 7B68     		ldr	r3, [r7, #4]
 2322              		.loc 9 891 7
 2323 000c 1846     		mov	r0, r3
 2324 000e FFF7FEFF 		bl	ch_queue_notempty
 2325 0012 0346     		mov	r3, r0
 2326              		.loc 9 891 6
 2327 0014 002B     		cmp	r3, #0
 2328 0016 03D0     		beq	.L97
 2329              		.loc 9 892 5
 2330 0018 3968     		ldr	r1, [r7]
 2331 001a 7868     		ldr	r0, [r7, #4]
 2332 001c FFF7FEFF 		bl	chThdDoDequeueNextI
 2333              	.L97:
 2334              		.loc 9 894 1
 2335 0020 00BF     		nop
 2336 0022 0837     		adds	r7, r7, #8
ARM GAS  C:\Users\DEVELO~1\AppData\Local\Temp\cceHiR3y.s 			page 42


 2337              		.cfi_def_cfa_offset 8
 2338 0024 BD46     		mov	sp, r7
 2339              		.cfi_def_cfa_register 13
 2340              		@ sp needed
 2341 0026 80BD     		pop	{r7, pc}
 2342              		.cfi_endproc
 2343              	.LFE370:
 2344              		.size	chThdDequeueNextI, .-chThdDequeueNextI
 2345              		.section	.text.chThdDequeueAllI,"ax",%progbits
 2346              		.align	1
 2347              		.global	chThdDequeueAllI
 2348              		.syntax unified
 2349              		.thumb
 2350              		.thumb_func
 2351              		.type	chThdDequeueAllI, %function
 2352              	chThdDequeueAllI:
 2353              	.LFB371:
 2354              		.loc 9 904 56
 2355              		.cfi_startproc
 2356              		@ args = 0, pretend = 0, frame = 8
 2357              		@ frame_needed = 1, uses_anonymous_args = 0
 2358 0000 80B5     		push	{r7, lr}
 2359              		.cfi_def_cfa_offset 8
 2360              		.cfi_offset 7, -8
 2361              		.cfi_offset 14, -4
 2362 0002 82B0     		sub	sp, sp, #8
 2363              		.cfi_def_cfa_offset 16
 2364 0004 00AF     		add	r7, sp, #0
 2365              		.cfi_def_cfa_register 7
 2366 0006 7860     		str	r0, [r7, #4]
 2367 0008 3960     		str	r1, [r7]
 2368              		.loc 9 906 9
 2369 000a 03E0     		b	.L99
 2370              	.L100:
 2371              		.loc 9 907 5
 2372 000c 3968     		ldr	r1, [r7]
 2373 000e 7868     		ldr	r0, [r7, #4]
 2374 0010 FFF7FEFF 		bl	chThdDoDequeueNextI
 2375              	.L99:
 2376              		.loc 9 906 28
 2377 0014 7B68     		ldr	r3, [r7, #4]
 2378              		.loc 9 906 10
 2379 0016 1846     		mov	r0, r3
 2380 0018 FFF7FEFF 		bl	ch_queue_notempty
 2381 001c 0346     		mov	r3, r0
 2382 001e 002B     		cmp	r3, #0
 2383 0020 F4D1     		bne	.L100
 2384              		.loc 9 909 1
 2385 0022 00BF     		nop
 2386 0024 00BF     		nop
 2387 0026 0837     		adds	r7, r7, #8
 2388              		.cfi_def_cfa_offset 8
 2389 0028 BD46     		mov	sp, r7
 2390              		.cfi_def_cfa_register 13
 2391              		@ sp needed
 2392 002a 80BD     		pop	{r7, pc}
 2393              		.cfi_endproc
ARM GAS  C:\Users\DEVELO~1\AppData\Local\Temp\cceHiR3y.s 			page 43


 2394              	.LFE371:
 2395              		.size	chThdDequeueAllI, .-chThdDequeueAllI
 2396              		.text
 2397              	.Letext0:
 2398              		.file 10 "c:\\chibistudio\\tools\\gnu tools arm embedded\\11.3 2022.08\\lib\\gcc\\arm-none-eabi\\1
 2399              		.file 11 "c:\\chibistudio\\tools\\gnu tools arm embedded\\11.3 2022.08\\arm-none-eabi\\include\\ma
 2400              		.file 12 "c:\\chibistudio\\tools\\gnu tools arm embedded\\11.3 2022.08\\arm-none-eabi\\include\\sy
 2401              		.file 13 "../../../os/common/ports/ARM-common/chtypes.h"
 2402              		.file 14 "../../../os/rt/include/chearly.h"
 2403              		.file 15 "../../../os/rt/include/chobjects.h"
 2404              		.file 16 "../../../os/rt/include/chrfcu.h"
 2405              		.file 17 "../../../os/rt/include/chdebug.h"
 2406              		.file 18 "../../../os/rt/include/chtrace.h"
 2407              		.file 19 "../../../os/rt/include/chsem.h"
 2408              		.file 20 "../../../os/rt/include/chmtx.h"
 2409              		.file 21 "../../../os/oslib/include/chmemcore.h"
 2410              		.file 22 "../../../os/oslib/include/chmempools.h"
 2411              		.file 23 "../../../os/rt/include/chschd.h"
 2412              		.file 24 "../../../os/oslib/include/chmemheaps.h"