ARM GAS  C:\Users\DEVELO~1\AppData\Local\Temp\cceHiR3y.s 			page 1


   1              		.cpu cortex-m7
   2              		.arch armv7e-m
   3              		.fpu softvfp
   4              		.eabi_attribute 20, 1
   5              		.eabi_attribute 21, 1
   6              		.eabi_attribute 23, 3
   7              		.eabi_attribute 24, 1
   8              		.eabi_attribute 25, 1
   9              		.eabi_attribute 26, 1
  10              		.eabi_attribute 30, 6
  11              		.eabi_attribute 34, 1
  12              		.eabi_attribute 18, 4
  13              		.file	"chthreads.c"
  14              		.text
  15              	.Ltext0:
  16              		.cfi_sections	.debug_frame
  17              		.section	.text.chTimeDiffX,"ax",%progbits
  18              		.align	1
  19              		.syntax unified
  20              		.thumb
  21              		.thumb_func
  22              		.type	chTimeDiffX, %function
  23              	chTimeDiffX:
  24              	.LFB9:
  25              		.file 1 "../../../os/rt/include/chtime.h"
  26              		.loc 1 461 73
  27              		.cfi_startproc
  28              		@ args = 0, pretend = 0, frame = 8
  29              		@ frame_needed = 1, uses_anonymous_args = 0
  30              		@ link register save eliminated.
  31 0000 80B4     		push	{r7}
  32              		.cfi_def_cfa_offset 4
  33              		.cfi_offset 7, -4
  34 0002 83B0     		sub	sp, sp, #12
  35              		.cfi_def_cfa_offset 16
  36 0004 00AF     		add	r7, sp, #0
  37              		.cfi_def_cfa_register 7
  38 0006 7860     		str	r0, [r7, #4]
  39 0008 3960     		str	r1, [r7]
  40              		.loc 1 465 10
  41 000a 3A68     		ldr	r2, [r7]
  42 000c 7B68     		ldr	r3, [r7, #4]
  43 000e D31A     		subs	r3, r2, r3
  44              		.loc 1 467 1
  45 0010 1846     		mov	r0, r3
  46 0012 0C37     		adds	r7, r7, #12
  47              		.cfi_def_cfa_offset 4
  48 0014 BD46     		mov	sp, r7
  49              		.cfi_def_cfa_register 13
  50              		@ sp needed
  51 0016 80BC     		pop	{r7}
  52              		.cfi_restore 7
  53              		.cfi_def_cfa_offset 0
  54 0018 7047     		bx	lr
  55              		.cfi_endproc
  56              	.LFE9:
  57              		.size	chTimeDiffX, .-chTimeDiffX
ARM GAS  C:\Users\DEVELO~1\AppData\Local\Temp\cceHiR3y.s 			page 2


  58              		.section	.text.chTimeIsInRangeX,"ax",%progbits
  59              		.align	1
  60              		.syntax unified
  61              		.thumb
  62              		.thumb_func
  63              		.type	chTimeIsInRangeX, %function
  64              	chTimeIsInRangeX:
  65              	.LFB10:
  66              		.loc 1 486 52
  67              		.cfi_startproc
  68              		@ args = 0, pretend = 0, frame = 16
  69              		@ frame_needed = 1, uses_anonymous_args = 0
  70              		@ link register save eliminated.
  71 0000 80B4     		push	{r7}
  72              		.cfi_def_cfa_offset 4
  73              		.cfi_offset 7, -4
  74 0002 85B0     		sub	sp, sp, #20
  75              		.cfi_def_cfa_offset 24
  76 0004 00AF     		add	r7, sp, #0
  77              		.cfi_def_cfa_register 7
  78 0006 F860     		str	r0, [r7, #12]
  79 0008 B960     		str	r1, [r7, #8]
  80 000a 7A60     		str	r2, [r7, #4]
  81              		.loc 1 488 17
  82 000c FA68     		ldr	r2, [r7, #12]
  83 000e BB68     		ldr	r3, [r7, #8]
  84 0010 D21A     		subs	r2, r2, r3
  85              		.loc 1 489 17
  86 0012 7968     		ldr	r1, [r7, #4]
  87 0014 BB68     		ldr	r3, [r7, #8]
  88 0016 CB1A     		subs	r3, r1, r3
  89              		.loc 1 488 10
  90 0018 9A42     		cmp	r2, r3
  91 001a 34BF     		ite	cc
  92 001c 0123     		movcc	r3, #1
  93 001e 0023     		movcs	r3, #0
  94 0020 DBB2     		uxtb	r3, r3
  95              		.loc 1 490 1
  96 0022 1846     		mov	r0, r3
  97 0024 1437     		adds	r7, r7, #20
  98              		.cfi_def_cfa_offset 4
  99 0026 BD46     		mov	sp, r7
 100              		.cfi_def_cfa_register 13
 101              		@ sp needed
 102 0028 80BC     		pop	{r7}
 103              		.cfi_restore 7
 104              		.cfi_def_cfa_offset 0
 105 002a 7047     		bx	lr
 106              		.cfi_endproc
 107              	.LFE10:
 108              		.size	chTimeIsInRangeX, .-chTimeIsInRangeX
 109              		.section	.text.ch_list_init,"ax",%progbits
 110              		.align	1
 111              		.syntax unified
 112              		.thumb
 113              		.thumb_func
 114              		.type	ch_list_init, %function
ARM GAS  C:\Users\DEVELO~1\AppData\Local\Temp\cceHiR3y.s 			page 3


 115              	ch_list_init:
 116              	.LFB14:
 117              		.file 2 "../../../os/rt/include/chlists.h"
 118              		.loc 2 153 48
 119              		.cfi_startproc
 120              		@ args = 0, pretend = 0, frame = 8
 121              		@ frame_needed = 1, uses_anonymous_args = 0
 122              		@ link register save eliminated.
 123 0000 80B4     		push	{r7}
 124              		.cfi_def_cfa_offset 4
 125              		.cfi_offset 7, -4
 126 0002 83B0     		sub	sp, sp, #12
 127              		.cfi_def_cfa_offset 16
 128 0004 00AF     		add	r7, sp, #0
 129              		.cfi_def_cfa_register 7
 130 0006 7860     		str	r0, [r7, #4]
 131              		.loc 2 155 12
 132 0008 7B68     		ldr	r3, [r7, #4]
 133 000a 7A68     		ldr	r2, [r7, #4]
 134 000c 1A60     		str	r2, [r3]
 135              		.loc 2 156 1
 136 000e 00BF     		nop
 137 0010 0C37     		adds	r7, r7, #12
 138              		.cfi_def_cfa_offset 4
 139 0012 BD46     		mov	sp, r7
 140              		.cfi_def_cfa_register 13
 141              		@ sp needed
 142 0014 80BC     		pop	{r7}
 143              		.cfi_restore 7
 144              		.cfi_def_cfa_offset 0
 145 0016 7047     		bx	lr
 146              		.cfi_endproc
 147              	.LFE14:
 148              		.size	ch_list_init, .-ch_list_init
 149              		.section	.text.ch_list_notempty,"ax",%progbits
 150              		.align	1
 151              		.syntax unified
 152              		.thumb
 153              		.thumb_func
 154              		.type	ch_list_notempty, %function
 155              	ch_list_notempty:
 156              	.LFB16:
 157              		.loc 2 179 52
 158              		.cfi_startproc
 159              		@ args = 0, pretend = 0, frame = 8
 160              		@ frame_needed = 1, uses_anonymous_args = 0
 161              		@ link register save eliminated.
 162 0000 80B4     		push	{r7}
 163              		.cfi_def_cfa_offset 4
 164              		.cfi_offset 7, -4
 165 0002 83B0     		sub	sp, sp, #12
 166              		.cfi_def_cfa_offset 16
 167 0004 00AF     		add	r7, sp, #0
 168              		.cfi_def_cfa_register 7
 169 0006 7860     		str	r0, [r7, #4]
 170              		.loc 2 181 19
 171 0008 7B68     		ldr	r3, [r7, #4]
ARM GAS  C:\Users\DEVELO~1\AppData\Local\Temp\cceHiR3y.s 			page 4


 172 000a 1B68     		ldr	r3, [r3]
 173              		.loc 2 181 10
 174 000c 7A68     		ldr	r2, [r7, #4]
 175 000e 9A42     		cmp	r2, r3
 176 0010 14BF     		ite	ne
 177 0012 0123     		movne	r3, #1
 178 0014 0023     		moveq	r3, #0
 179 0016 DBB2     		uxtb	r3, r3
 180              		.loc 2 182 1
 181 0018 1846     		mov	r0, r3
 182 001a 0C37     		adds	r7, r7, #12
 183              		.cfi_def_cfa_offset 4
 184 001c BD46     		mov	sp, r7
 185              		.cfi_def_cfa_register 13
 186              		@ sp needed
 187 001e 80BC     		pop	{r7}
 188              		.cfi_restore 7
 189              		.cfi_def_cfa_offset 0
 190 0020 7047     		bx	lr
 191              		.cfi_endproc
 192              	.LFE16:
 193              		.size	ch_list_notempty, .-ch_list_notempty
 194              		.section	.text.ch_list_link,"ax",%progbits
 195              		.align	1
 196              		.syntax unified
 197              		.thumb
 198              		.thumb_func
 199              		.type	ch_list_link, %function
 200              	ch_list_link:
 201              	.LFB17:
 202              		.loc 2 192 62
 203              		.cfi_startproc
 204              		@ args = 0, pretend = 0, frame = 8
 205              		@ frame_needed = 1, uses_anonymous_args = 0
 206              		@ link register save eliminated.
 207 0000 80B4     		push	{r7}
 208              		.cfi_def_cfa_offset 4
 209              		.cfi_offset 7, -4
 210 0002 83B0     		sub	sp, sp, #12
 211              		.cfi_def_cfa_offset 16
 212 0004 00AF     		add	r7, sp, #0
 213              		.cfi_def_cfa_register 7
 214 0006 7860     		str	r0, [r7, #4]
 215 0008 3960     		str	r1, [r7]
 216              		.loc 2 194 15
 217 000a 7B68     		ldr	r3, [r7, #4]
 218 000c 1A68     		ldr	r2, [r3]
 219              		.loc 2 194 11
 220 000e 3B68     		ldr	r3, [r7]
 221 0010 1A60     		str	r2, [r3]
 222              		.loc 2 195 12
 223 0012 7B68     		ldr	r3, [r7, #4]
 224 0014 3A68     		ldr	r2, [r7]
 225 0016 1A60     		str	r2, [r3]
 226              		.loc 2 196 1
 227 0018 00BF     		nop
 228 001a 0C37     		adds	r7, r7, #12
ARM GAS  C:\Users\DEVELO~1\AppData\Local\Temp\cceHiR3y.s 			page 5


 229              		.cfi_def_cfa_offset 4
 230 001c BD46     		mov	sp, r7
 231              		.cfi_def_cfa_register 13
 232              		@ sp needed
 233 001e 80BC     		pop	{r7}
 234              		.cfi_restore 7
 235              		.cfi_def_cfa_offset 0
 236 0020 7047     		bx	lr
 237              		.cfi_endproc
 238              	.LFE17:
 239              		.size	ch_list_link, .-ch_list_link
 240              		.section	.text.ch_list_unlink,"ax",%progbits
 241              		.align	1
 242              		.syntax unified
 243              		.thumb
 244              		.thumb_func
 245              		.type	ch_list_unlink, %function
 246              	ch_list_unlink:
 247              	.LFB18:
 248              		.loc 2 207 56
 249              		.cfi_startproc
 250              		@ args = 0, pretend = 0, frame = 16
 251              		@ frame_needed = 1, uses_anonymous_args = 0
 252              		@ link register save eliminated.
 253 0000 80B4     		push	{r7}
 254              		.cfi_def_cfa_offset 4
 255              		.cfi_offset 7, -4
 256 0002 85B0     		sub	sp, sp, #20
 257              		.cfi_def_cfa_offset 24
 258 0004 00AF     		add	r7, sp, #0
 259              		.cfi_def_cfa_register 7
 260 0006 7860     		str	r0, [r7, #4]
 261              		.loc 2 209 14
 262 0008 7B68     		ldr	r3, [r7, #4]
 263 000a 1B68     		ldr	r3, [r3]
 264 000c FB60     		str	r3, [r7, #12]
 265              		.loc 2 210 15
 266 000e FB68     		ldr	r3, [r7, #12]
 267 0010 1A68     		ldr	r2, [r3]
 268              		.loc 2 210 12
 269 0012 7B68     		ldr	r3, [r7, #4]
 270 0014 1A60     		str	r2, [r3]
 271              		.loc 2 212 10
 272 0016 FB68     		ldr	r3, [r7, #12]
 273              		.loc 2 213 1
 274 0018 1846     		mov	r0, r3
 275 001a 1437     		adds	r7, r7, #20
 276              		.cfi_def_cfa_offset 4
 277 001c BD46     		mov	sp, r7
 278              		.cfi_def_cfa_register 13
 279              		@ sp needed
 280 001e 80BC     		pop	{r7}
 281              		.cfi_restore 7
 282              		.cfi_def_cfa_offset 0
 283 0020 7047     		bx	lr
 284              		.cfi_endproc
 285              	.LFE18:
ARM GAS  C:\Users\DEVELO~1\AppData\Local\Temp\cceHiR3y.s 			page 6


 286              		.size	ch_list_unlink, .-ch_list_unlink
 287              		.section	.text.ch_queue_init,"ax",%progbits
 288              		.align	1
 289              		.syntax unified
 290              		.thumb
 291              		.thumb_func
 292              		.type	ch_queue_init, %function
 293              	ch_queue_init:
 294              	.LFB19:
 295              		.loc 2 222 50
 296              		.cfi_startproc
 297              		@ args = 0, pretend = 0, frame = 8
 298              		@ frame_needed = 1, uses_anonymous_args = 0
 299              		@ link register save eliminated.
 300 0000 80B4     		push	{r7}
 301              		.cfi_def_cfa_offset 4
 302              		.cfi_offset 7, -4
 303 0002 83B0     		sub	sp, sp, #12
 304              		.cfi_def_cfa_offset 16
 305 0004 00AF     		add	r7, sp, #0
 306              		.cfi_def_cfa_register 7
 307 0006 7860     		str	r0, [r7, #4]
 308              		.loc 2 224 12
 309 0008 7B68     		ldr	r3, [r7, #4]
 310 000a 7A68     		ldr	r2, [r7, #4]
 311 000c 1A60     		str	r2, [r3]
 312              		.loc 2 225 12
 313 000e 7B68     		ldr	r3, [r7, #4]
 314 0010 7A68     		ldr	r2, [r7, #4]
 315 0012 5A60     		str	r2, [r3, #4]
 316              		.loc 2 226 1
 317 0014 00BF     		nop
 318 0016 0C37     		adds	r7, r7, #12
 319              		.cfi_def_cfa_offset 4
 320 0018 BD46     		mov	sp, r7
 321              		.cfi_def_cfa_register 13
 322              		@ sp needed
 323 001a 80BC     		pop	{r7}
 324              		.cfi_restore 7
 325              		.cfi_def_cfa_offset 0
 326 001c 7047     		bx	lr
 327              		.cfi_endproc
 328              	.LFE19:
 329              		.size	ch_queue_init, .-ch_queue_init
 330              		.section	.text.ch_queue_notempty,"ax",%progbits
 331              		.align	1
 332              		.syntax unified
 333              		.thumb
 334              		.thumb_func
 335              		.type	ch_queue_notempty, %function
 336              	ch_queue_notempty:
 337              	.LFB21:
 338              		.loc 2 249 60
 339              		.cfi_startproc
 340              		@ args = 0, pretend = 0, frame = 8
 341              		@ frame_needed = 1, uses_anonymous_args = 0
 342              		@ link register save eliminated.
ARM GAS  C:\Users\DEVELO~1\AppData\Local\Temp\cceHiR3y.s 			page 7


 343 0000 80B4     		push	{r7}
 344              		.cfi_def_cfa_offset 4
 345              		.cfi_offset 7, -4
 346 0002 83B0     		sub	sp, sp, #12
 347              		.cfi_def_cfa_offset 16
 348 0004 00AF     		add	r7, sp, #0
 349              		.cfi_def_cfa_register 7
 350 0006 7860     		str	r0, [r7, #4]
 351              		.loc 2 251 19
 352 0008 7B68     		ldr	r3, [r7, #4]
 353 000a 1B68     		ldr	r3, [r3]
 354              		.loc 2 251 10
 355 000c 7A68     		ldr	r2, [r7, #4]
 356 000e 9A42     		cmp	r2, r3
 357 0010 14BF     		ite	ne
 358 0012 0123     		movne	r3, #1
 359 0014 0023     		moveq	r3, #0
 360 0016 DBB2     		uxtb	r3, r3
 361              		.loc 2 252 1
 362 0018 1846     		mov	r0, r3
 363 001a 0C37     		adds	r7, r7, #12
 364              		.cfi_def_cfa_offset 4
 365 001c BD46     		mov	sp, r7
 366              		.cfi_def_cfa_register 13
 367              		@ sp needed
 368 001e 80BC     		pop	{r7}
 369              		.cfi_restore 7
 370              		.cfi_def_cfa_offset 0
 371 0020 7047     		bx	lr
 372              		.cfi_endproc
 373              	.LFE21:
 374              		.size	ch_queue_notempty, .-ch_queue_notempty
 375              		.section	.text.ch_queue_insert,"ax",%progbits
 376              		.align	1
 377              		.syntax unified
 378              		.thumb
 379              		.thumb_func
 380              		.type	ch_queue_insert, %function
 381              	ch_queue_insert:
 382              	.LFB22:
 383              		.loc 2 262 67
 384              		.cfi_startproc
 385              		@ args = 0, pretend = 0, frame = 8
 386              		@ frame_needed = 1, uses_anonymous_args = 0
 387              		@ link register save eliminated.
 388 0000 80B4     		push	{r7}
 389              		.cfi_def_cfa_offset 4
 390              		.cfi_offset 7, -4
 391 0002 83B0     		sub	sp, sp, #12
 392              		.cfi_def_cfa_offset 16
 393 0004 00AF     		add	r7, sp, #0
 394              		.cfi_def_cfa_register 7
 395 0006 7860     		str	r0, [r7, #4]
 396 0008 3960     		str	r1, [r7]
 397              		.loc 2 264 17
 398 000a 3B68     		ldr	r3, [r7]
 399 000c 7A68     		ldr	r2, [r7, #4]
ARM GAS  C:\Users\DEVELO~1\AppData\Local\Temp\cceHiR3y.s 			page 8


 400 000e 1A60     		str	r2, [r3]
 401              		.loc 2 265 21
 402 0010 7B68     		ldr	r3, [r7, #4]
 403 0012 5A68     		ldr	r2, [r3, #4]
 404              		.loc 2 265 17
 405 0014 3B68     		ldr	r3, [r7]
 406 0016 5A60     		str	r2, [r3, #4]
 407              		.loc 2 266 4
 408 0018 3B68     		ldr	r3, [r7]
 409 001a 5B68     		ldr	r3, [r3, #4]
 410              		.loc 2 266 17
 411 001c 3A68     		ldr	r2, [r7]
 412 001e 1A60     		str	r2, [r3]
 413              		.loc 2 267 17
 414 0020 7B68     		ldr	r3, [r7, #4]
 415 0022 3A68     		ldr	r2, [r7]
 416 0024 5A60     		str	r2, [r3, #4]
 417              		.loc 2 268 1
 418 0026 00BF     		nop
 419 0028 0C37     		adds	r7, r7, #12
 420              		.cfi_def_cfa_offset 4
 421 002a BD46     		mov	sp, r7
 422              		.cfi_def_cfa_register 13
 423              		@ sp needed
 424 002c 80BC     		pop	{r7}
 425              		.cfi_restore 7
 426              		.cfi_def_cfa_offset 0
 427 002e 7047     		bx	lr
 428              		.cfi_endproc
 429              	.LFE22:
 430              		.size	ch_queue_insert, .-ch_queue_insert
 431              		.section	.text.ch_queue_fifo_remove,"ax",%progbits
 432              		.align	1
 433              		.syntax unified
 434              		.thumb
 435              		.thumb_func
 436              		.type	ch_queue_fifo_remove, %function
 437              	ch_queue_fifo_remove:
 438              	.LFB23:
 439              		.loc 2 280 64
 440              		.cfi_startproc
 441              		@ args = 0, pretend = 0, frame = 16
 442              		@ frame_needed = 1, uses_anonymous_args = 0
 443              		@ link register save eliminated.
 444 0000 80B4     		push	{r7}
 445              		.cfi_def_cfa_offset 4
 446              		.cfi_offset 7, -4
 447 0002 85B0     		sub	sp, sp, #20
 448              		.cfi_def_cfa_offset 24
 449 0004 00AF     		add	r7, sp, #0
 450              		.cfi_def_cfa_register 7
 451 0006 7860     		str	r0, [r7, #4]
 452              		.loc 2 281 15
 453 0008 7B68     		ldr	r3, [r7, #4]
 454 000a 1B68     		ldr	r3, [r3]
 455 000c FB60     		str	r3, [r7, #12]
 456              		.loc 2 283 21
ARM GAS  C:\Users\DEVELO~1\AppData\Local\Temp\cceHiR3y.s 			page 9


 457 000e FB68     		ldr	r3, [r7, #12]
 458 0010 1A68     		ldr	r2, [r3]
 459              		.loc 2 283 18
 460 0012 7B68     		ldr	r3, [r7, #4]
 461 0014 1A60     		str	r2, [r3]
 462              		.loc 2 284 5
 463 0016 7B68     		ldr	r3, [r7, #4]
 464 0018 1B68     		ldr	r3, [r3]
 465              		.loc 2 284 18
 466 001a 7A68     		ldr	r2, [r7, #4]
 467 001c 5A60     		str	r2, [r3, #4]
 468              		.loc 2 286 10
 469 001e FB68     		ldr	r3, [r7, #12]
 470              		.loc 2 287 1
 471 0020 1846     		mov	r0, r3
 472 0022 1437     		adds	r7, r7, #20
 473              		.cfi_def_cfa_offset 4
 474 0024 BD46     		mov	sp, r7
 475              		.cfi_def_cfa_register 13
 476              		@ sp needed
 477 0026 80BC     		pop	{r7}
 478              		.cfi_restore 7
 479              		.cfi_def_cfa_offset 0
 480 0028 7047     		bx	lr
 481              		.cfi_endproc
 482              	.LFE23:
 483              		.size	ch_queue_fifo_remove, .-ch_queue_fifo_remove
 484              		.section	.text.ch_queue_dequeue,"ax",%progbits
 485              		.align	1
 486              		.syntax unified
 487              		.thumb
 488              		.thumb_func
 489              		.type	ch_queue_dequeue, %function
 490              	ch_queue_dequeue:
 491              	.LFB25:
 492              		.loc 2 318 59
 493              		.cfi_startproc
 494              		@ args = 0, pretend = 0, frame = 8
 495              		@ frame_needed = 1, uses_anonymous_args = 0
 496              		@ link register save eliminated.
 497 0000 80B4     		push	{r7}
 498              		.cfi_def_cfa_offset 4
 499              		.cfi_offset 7, -4
 500 0002 83B0     		sub	sp, sp, #12
 501              		.cfi_def_cfa_offset 16
 502 0004 00AF     		add	r7, sp, #0
 503              		.cfi_def_cfa_register 7
 504 0006 7860     		str	r0, [r7, #4]
 505              		.loc 2 320 4
 506 0008 7B68     		ldr	r3, [r7, #4]
 507 000a 5B68     		ldr	r3, [r3, #4]
 508              		.loc 2 320 20
 509 000c 7A68     		ldr	r2, [r7, #4]
 510 000e 1268     		ldr	r2, [r2]
 511              		.loc 2 320 17
 512 0010 1A60     		str	r2, [r3]
 513              		.loc 2 321 4
ARM GAS  C:\Users\DEVELO~1\AppData\Local\Temp\cceHiR3y.s 			page 10


 514 0012 7B68     		ldr	r3, [r7, #4]
 515 0014 1B68     		ldr	r3, [r3]
 516              		.loc 2 321 20
 517 0016 7A68     		ldr	r2, [r7, #4]
 518 0018 5268     		ldr	r2, [r2, #4]
 519              		.loc 2 321 17
 520 001a 5A60     		str	r2, [r3, #4]
 521              		.loc 2 323 10
 522 001c 7B68     		ldr	r3, [r7, #4]
 523              		.loc 2 324 1
 524 001e 1846     		mov	r0, r3
 525 0020 0C37     		adds	r7, r7, #12
 526              		.cfi_def_cfa_offset 4
 527 0022 BD46     		mov	sp, r7
 528              		.cfi_def_cfa_register 13
 529              		@ sp needed
 530 0024 80BC     		pop	{r7}
 531              		.cfi_restore 7
 532              		.cfi_def_cfa_offset 0
 533 0026 7047     		bx	lr
 534              		.cfi_endproc
 535              	.LFE25:
 536              		.size	ch_queue_dequeue, .-ch_queue_dequeue
 537              		.section	.text.port_timer_get_time,"ax",%progbits
 538              		.align	1
 539              		.syntax unified
 540              		.thumb
 541              		.thumb_func
 542              		.type	port_timer_get_time, %function
 543              	port_timer_get_time:
 544              	.LFB196:
 545              		.file 3 "../../../os/hal/osal/rt-nil/chcore_timer.h"
 546              		.loc 3 111 51
 547              		.cfi_startproc
 548              		@ args = 0, pretend = 0, frame = 0
 549              		@ frame_needed = 1, uses_anonymous_args = 0
 550 0000 80B5     		push	{r7, lr}
 551              		.cfi_def_cfa_offset 8
 552              		.cfi_offset 7, -8
 553              		.cfi_offset 14, -4
 554 0002 00AF     		add	r7, sp, #0
 555              		.cfi_def_cfa_register 7
 556              		.loc 3 113 10
 557 0004 FFF7FEFF 		bl	stGetCounter
 558 0008 0346     		mov	r3, r0
 559              		.loc 3 114 1
 560 000a 1846     		mov	r0, r3
 561 000c 80BD     		pop	{r7, pc}
 562              		.cfi_endproc
 563              	.LFE196:
 564              		.size	port_timer_get_time, .-port_timer_get_time
 565              		.section	.text.chSysLock,"ax",%progbits
 566              		.align	1
 567              		.syntax unified
 568              		.thumb
 569              		.thumb_func
 570              		.type	chSysLock, %function
ARM GAS  C:\Users\DEVELO~1\AppData\Local\Temp\cceHiR3y.s 			page 11


 571              	chSysLock:
 572              	.LFB202:
 573              		.file 4 "../../../os/rt/include/chsys.h"
 574              		.loc 4 407 36
 575              		.cfi_startproc
 576              		@ args = 0, pretend = 0, frame = 8
 577              		@ frame_needed = 1, uses_anonymous_args = 0
 578              		@ link register save eliminated.
 579 0000 80B4     		push	{r7}
 580              		.cfi_def_cfa_offset 4
 581              		.cfi_offset 7, -4
 582 0002 83B0     		sub	sp, sp, #12
 583              		.cfi_def_cfa_offset 16
 584 0004 00AF     		add	r7, sp, #0
 585              		.cfi_def_cfa_register 7
 586 0006 3023     		movs	r3, #48
 587 0008 7B60     		str	r3, [r7, #4]
 588              	.LBB14:
 589              	.LBB15:
 590              	.LBB16:
 591              	.LBB17:
 592              		.file 5 "../../../os/common/ext/ARM/CMSIS/Core/Include/cmsis_gcc.h"
 593              		.loc 5 493 3
 594 000a 7B68     		ldr	r3, [r7, #4]
 595              		.syntax unified
 596              	@ 493 "../../../os/common/ext/ARM/CMSIS/Core/Include/cmsis_gcc.h" 1
 597 000c 83F31188 		MSR basepri, r3
 598              	@ 0 "" 2
 599              		.loc 5 494 1
 600              		.thumb
 601              		.syntax unified
 602 0010 00BF     		nop
 603              	.LBE17:
 604              	.LBE16:
 605              		.file 6 "../../../os/common/ports/ARMv7-M/chcore.h"
 606              		.loc 6 840 1
 607 0012 00BF     		nop
 608              	.LBE15:
 609              	.LBE14:
 610              		.loc 4 412 1
 611 0014 00BF     		nop
 612 0016 0C37     		adds	r7, r7, #12
 613              		.cfi_def_cfa_offset 4
 614 0018 BD46     		mov	sp, r7
 615              		.cfi_def_cfa_register 13
 616              		@ sp needed
 617 001a 80BC     		pop	{r7}
 618              		.cfi_restore 7
 619              		.cfi_def_cfa_offset 0
 620 001c 7047     		bx	lr
 621              		.cfi_endproc
 622              	.LFE202:
 623              		.size	chSysLock, .-chSysLock
 624              		.section	.text.chSysUnlock,"ax",%progbits
 625              		.align	1
 626              		.syntax unified
 627              		.thumb
ARM GAS  C:\Users\DEVELO~1\AppData\Local\Temp\cceHiR3y.s 			page 12


 628              		.thumb_func
 629              		.type	chSysUnlock, %function
 630              	chSysUnlock:
 631              	.LFB203:
 632              		.loc 4 421 38
 633              		.cfi_startproc
 634              		@ args = 0, pretend = 0, frame = 8
 635              		@ frame_needed = 1, uses_anonymous_args = 0
 636              		@ link register save eliminated.
 637 0000 80B4     		push	{r7}
 638              		.cfi_def_cfa_offset 4
 639              		.cfi_offset 7, -4
 640 0002 83B0     		sub	sp, sp, #12
 641              		.cfi_def_cfa_offset 16
 642 0004 00AF     		add	r7, sp, #0
 643              		.cfi_def_cfa_register 7
 644 0006 0023     		movs	r3, #0
 645 0008 7B60     		str	r3, [r7, #4]
 646              	.LBB18:
 647              	.LBB19:
 648              	.LBB20:
 649              	.LBB21:
 650              		.loc 5 493 3
 651 000a 7B68     		ldr	r3, [r7, #4]
 652              		.syntax unified
 653              	@ 493 "../../../os/common/ext/ARM/CMSIS/Core/Include/cmsis_gcc.h" 1
 654 000c 83F31188 		MSR basepri, r3
 655              	@ 0 "" 2
 656              		.loc 5 494 1
 657              		.thumb
 658              		.syntax unified
 659 0010 00BF     		nop
 660              	.LBE21:
 661              	.LBE20:
 662              		.loc 6 854 1
 663 0012 00BF     		nop
 664              	.LBE19:
 665              	.LBE18:
 666              		.loc 4 435 1
 667 0014 00BF     		nop
 668 0016 0C37     		adds	r7, r7, #12
 669              		.cfi_def_cfa_offset 4
 670 0018 BD46     		mov	sp, r7
 671              		.cfi_def_cfa_register 13
 672              		@ sp needed
 673 001a 80BC     		pop	{r7}
 674              		.cfi_restore 7
 675              		.cfi_def_cfa_offset 0
 676 001c 7047     		bx	lr
 677              		.cfi_endproc
 678              	.LFE203:
 679              		.size	chSysUnlock, .-chSysUnlock
 680              		.section	.text.chVTGetSystemTimeX,"ax",%progbits
 681              		.align	1
 682              		.syntax unified
 683              		.thumb
 684              		.thumb_func
ARM GAS  C:\Users\DEVELO~1\AppData\Local\Temp\cceHiR3y.s 			page 13


 685              		.type	chVTGetSystemTimeX, %function
 686              	chVTGetSystemTimeX:
 687              	.LFB209:
 688              		.file 7 "../../../os/rt/include/chvt.h"
 689              		.loc 7 122 50
 690              		.cfi_startproc
 691              		@ args = 0, pretend = 0, frame = 0
 692              		@ frame_needed = 1, uses_anonymous_args = 0
 693 0000 80B5     		push	{r7, lr}
 694              		.cfi_def_cfa_offset 8
 695              		.cfi_offset 7, -8
 696              		.cfi_offset 14, -4
 697 0002 00AF     		add	r7, sp, #0
 698              		.cfi_def_cfa_register 7
 699              		.loc 7 127 10
 700 0004 FFF7FEFF 		bl	port_timer_get_time
 701 0008 0346     		mov	r3, r0
 702              		.loc 7 129 1
 703 000a 1846     		mov	r0, r3
 704 000c 80BD     		pop	{r7, pc}
 705              		.cfi_endproc
 706              	.LFE209:
 707              		.size	chVTGetSystemTimeX, .-chVTGetSystemTimeX
 708              		.section	.text.chThdGetSelfX,"ax",%progbits
 709              		.align	1
 710              		.syntax unified
 711              		.thumb
 712              		.thumb_func
 713              		.type	chThdGetSelfX, %function
 714              	chThdGetSelfX:
 715              	.LFB229:
 716              		.file 8 "../../../os/rt/include/chthreads.h"
 717              		.loc 8 341 45
 718              		.cfi_startproc
 719              		@ args = 0, pretend = 0, frame = 0
 720              		@ frame_needed = 1, uses_anonymous_args = 0
 721              		@ link register save eliminated.
 722 0000 80B4     		push	{r7}
 723              		.cfi_def_cfa_offset 4
 724              		.cfi_offset 7, -4
 725 0002 00AF     		add	r7, sp, #0
 726              		.cfi_def_cfa_register 7
 727              		.loc 8 343 10
 728 0004 024B     		ldr	r3, .L27
 729 0006 DB68     		ldr	r3, [r3, #12]
 730              		.loc 8 344 1
 731 0008 1846     		mov	r0, r3
 732 000a BD46     		mov	sp, r7
 733              		.cfi_def_cfa_register 13
 734              		@ sp needed
 735 000c 80BC     		pop	{r7}
 736              		.cfi_restore 7
 737              		.cfi_def_cfa_offset 0
 738 000e 7047     		bx	lr
 739              	.L28:
 740              		.align	2
 741              	.L27:
ARM GAS  C:\Users\DEVELO~1\AppData\Local\Temp\cceHiR3y.s 			page 14


 742 0010 00000000 		.word	ch0
 743              		.cfi_endproc
 744              	.LFE229:
 745              		.size	chThdGetSelfX, .-chThdGetSelfX
 746              		.section	.text.chThdGetWorkingAreaX,"ax",%progbits
 747              		.align	1
 748              		.syntax unified
 749              		.thumb
 750              		.thumb_func
 751              		.type	chThdGetWorkingAreaX, %function
 752              	chThdGetWorkingAreaX:
 753              	.LFB231:
 754              		.loc 8 386 62
 755              		.cfi_startproc
 756              		@ args = 0, pretend = 0, frame = 8
 757              		@ frame_needed = 1, uses_anonymous_args = 0
 758              		@ link register save eliminated.
 759 0000 80B4     		push	{r7}
 760              		.cfi_def_cfa_offset 4
 761              		.cfi_offset 7, -4
 762 0002 83B0     		sub	sp, sp, #12
 763              		.cfi_def_cfa_offset 16
 764 0004 00AF     		add	r7, sp, #0
 765              		.cfi_def_cfa_register 7
 766 0006 7860     		str	r0, [r7, #4]
 767              		.loc 8 388 12
 768 0008 7B68     		ldr	r3, [r7, #4]
 769 000a 1B6A     		ldr	r3, [r3, #32]
 770              		.loc 8 389 1
 771 000c 1846     		mov	r0, r3
 772 000e 0C37     		adds	r7, r7, #12
 773              		.cfi_def_cfa_offset 4
 774 0010 BD46     		mov	sp, r7
 775              		.cfi_def_cfa_register 13
 776              		@ sp needed
 777 0012 80BC     		pop	{r7}
 778              		.cfi_restore 7
 779              		.cfi_def_cfa_offset 0
 780 0014 7047     		bx	lr
 781              		.cfi_endproc
 782              	.LFE231:
 783              		.size	chThdGetWorkingAreaX, .-chThdGetWorkingAreaX
 784              		.section	.text.chThdSleepS,"ax",%progbits
 785              		.align	1
 786              		.syntax unified
 787              		.thumb
 788              		.thumb_func
 789              		.type	chThdSleepS, %function
 790              	chThdSleepS:
 791              	.LFB235:
 792              		.loc 8 447 53
 793              		.cfi_startproc
 794              		@ args = 0, pretend = 0, frame = 8
 795              		@ frame_needed = 1, uses_anonymous_args = 0
 796 0000 80B5     		push	{r7, lr}
 797              		.cfi_def_cfa_offset 8
 798              		.cfi_offset 7, -8
ARM GAS  C:\Users\DEVELO~1\AppData\Local\Temp\cceHiR3y.s 			page 15


 799              		.cfi_offset 14, -4
 800 0002 82B0     		sub	sp, sp, #8
 801              		.cfi_def_cfa_offset 16
 802 0004 00AF     		add	r7, sp, #0
 803              		.cfi_def_cfa_register 7
 804 0006 7860     		str	r0, [r7, #4]
 805              		.loc 8 451 10
 806 0008 7968     		ldr	r1, [r7, #4]
 807 000a 0820     		movs	r0, #8
 808 000c FFF7FEFF 		bl	chSchGoSleepTimeoutS
 809              		.loc 8 452 1
 810 0010 00BF     		nop
 811 0012 0837     		adds	r7, r7, #8
 812              		.cfi_def_cfa_offset 8
 813 0014 BD46     		mov	sp, r7
 814              		.cfi_def_cfa_register 13
 815              		@ sp needed
 816 0016 80BD     		pop	{r7, pc}
 817              		.cfi_endproc
 818              	.LFE235:
 819              		.size	chThdSleepS, .-chThdSleepS
 820              		.section	.text.chThdDoDequeueNextI,"ax",%progbits
 821              		.align	1
 822              		.syntax unified
 823              		.thumb
 824              		.thumb_func
 825              		.type	chThdDoDequeueNextI, %function
 826              	chThdDoDequeueNextI:
 827              	.LFB238:
 828              		.loc 8 494 73
 829              		.cfi_startproc
 830              		@ args = 0, pretend = 0, frame = 16
 831              		@ frame_needed = 1, uses_anonymous_args = 0
 832 0000 80B5     		push	{r7, lr}
 833              		.cfi_def_cfa_offset 8
 834              		.cfi_offset 7, -8
 835              		.cfi_offset 14, -4
 836 0002 84B0     		sub	sp, sp, #16
 837              		.cfi_def_cfa_offset 24
 838 0004 00AF     		add	r7, sp, #0
 839              		.cfi_def_cfa_register 7
 840 0006 7860     		str	r0, [r7, #4]
 841 0008 3960     		str	r1, [r7]
 842              		.loc 8 499 8
 843 000a 7B68     		ldr	r3, [r7, #4]
 844 000c 1846     		mov	r0, r3
 845 000e FFF7FEFF 		bl	ch_queue_fifo_remove
 846 0012 F860     		str	r0, [r7, #12]
 847              		.loc 8 503 16
 848 0014 FB68     		ldr	r3, [r7, #12]
 849 0016 3A68     		ldr	r2, [r7]
 850 0018 9A62     		str	r2, [r3, #40]
 851              		.loc 8 504 10
 852 001a F868     		ldr	r0, [r7, #12]
 853 001c FFF7FEFF 		bl	chSchReadyI
 854              		.loc 8 505 1
 855 0020 00BF     		nop
ARM GAS  C:\Users\DEVELO~1\AppData\Local\Temp\cceHiR3y.s 			page 16


 856 0022 1037     		adds	r7, r7, #16
 857              		.cfi_def_cfa_offset 8
 858 0024 BD46     		mov	sp, r7
 859              		.cfi_def_cfa_register 13
 860              		@ sp needed
 861 0026 80BD     		pop	{r7, pc}
 862              		.cfi_endproc
 863              	.LFE238:
 864              		.size	chThdDoDequeueNextI, .-chThdDoDequeueNextI
 865              		.section	.text.__thd_object_init,"ax",%progbits
 866              		.align	1
 867              		.global	__thd_object_init
 868              		.syntax unified
 869              		.thumb
 870              		.thumb_func
 871              		.type	__thd_object_init, %function
 872              	__thd_object_init:
 873              	.LFB346:
 874              		.file 9 "../../../os/rt/src/chthreads.c"
 875              		.loc 9 92 43
 876              		.cfi_startproc
 877              		@ args = 0, pretend = 0, frame = 16
 878              		@ frame_needed = 1, uses_anonymous_args = 0
 879 0000 80B5     		push	{r7, lr}
 880              		.cfi_def_cfa_offset 8
 881              		.cfi_offset 7, -8
 882              		.cfi_offset 14, -4
 883 0002 84B0     		sub	sp, sp, #16
 884              		.cfi_def_cfa_offset 24
 885 0004 00AF     		add	r7, sp, #0
 886              		.cfi_def_cfa_register 7
 887 0006 F860     		str	r0, [r7, #12]
 888 0008 B960     		str	r1, [r7, #8]
 889 000a 7A60     		str	r2, [r7, #4]
 890 000c 3B60     		str	r3, [r7]
 891              		.loc 9 94 25
 892 000e BB68     		ldr	r3, [r7, #8]
 893 0010 3A68     		ldr	r2, [r7]
 894 0012 9A60     		str	r2, [r3, #8]
 895              		.loc 9 95 25
 896 0014 BB68     		ldr	r3, [r7, #8]
 897 0016 0222     		movs	r2, #2
 898 0018 83F82420 		strb	r2, [r3, #36]
 899              		.loc 9 96 25
 900 001c BB68     		ldr	r3, [r7, #8]
 901 001e 0022     		movs	r2, #0
 902 0020 83F82520 		strb	r2, [r3, #37]
 903              		.loc 9 97 25
 904 0024 BB68     		ldr	r3, [r7, #8]
 905 0026 FA68     		ldr	r2, [r7, #12]
 906 0028 9A61     		str	r2, [r3, #24]
 907              		.loc 9 102 25
 908 002a BB68     		ldr	r3, [r7, #8]
 909 002c 3A68     		ldr	r2, [r7]
 910 002e 1A64     		str	r2, [r3, #64]
 911              		.loc 9 103 25
 912 0030 BB68     		ldr	r3, [r7, #8]
ARM GAS  C:\Users\DEVELO~1\AppData\Local\Temp\cceHiR3y.s 			page 17


 913 0032 0022     		movs	r2, #0
 914 0034 DA63     		str	r2, [r3, #60]
 915              		.loc 9 106 25
 916 0036 BB68     		ldr	r3, [r7, #8]
 917 0038 0022     		movs	r2, #0
 918 003a 9A63     		str	r2, [r3, #56]
 919              		.loc 9 112 25
 920 003c BB68     		ldr	r3, [r7, #8]
 921 003e 0122     		movs	r2, #1
 922 0040 83F82620 		strb	r2, [r3, #38]
 923              		.loc 9 113 25
 924 0044 BB68     		ldr	r3, [r7, #8]
 925 0046 7A68     		ldr	r2, [r7, #4]
 926 0048 DA61     		str	r2, [r3, #28]
 927              		.loc 9 114 3
 928 004a FB68     		ldr	r3, [r7, #12]
 929 004c 03F12802 		add	r2, r3, #40
 930 0050 BB68     		ldr	r3, [r7, #8]
 931 0052 1033     		adds	r3, r3, #16
 932 0054 1946     		mov	r1, r3
 933 0056 1046     		mov	r0, r2
 934 0058 FFF7FEFF 		bl	ch_queue_insert
 935              		.loc 9 119 3
 936 005c BB68     		ldr	r3, [r7, #8]
 937 005e 2C33     		adds	r3, r3, #44
 938 0060 1846     		mov	r0, r3
 939 0062 FFF7FEFF 		bl	ch_list_init
 940              		.loc 9 122 3
 941 0066 BB68     		ldr	r3, [r7, #8]
 942 0068 3033     		adds	r3, r3, #48
 943 006a 1846     		mov	r0, r3
 944 006c FFF7FEFF 		bl	ch_queue_init
 945              		.loc 9 128 10
 946 0070 BB68     		ldr	r3, [r7, #8]
 947              		.loc 9 129 1
 948 0072 1846     		mov	r0, r3
 949 0074 1037     		adds	r7, r7, #16
 950              		.cfi_def_cfa_offset 8
 951 0076 BD46     		mov	sp, r7
 952              		.cfi_def_cfa_register 13
 953              		@ sp needed
 954 0078 80BD     		pop	{r7, pc}
 955              		.cfi_endproc
 956              	.LFE346:
 957              		.size	__thd_object_init, .-__thd_object_init
 958              		.section	.text.chThdCreateSuspendedI,"ax",%progbits
 959              		.align	1
 960              		.global	chThdCreateSuspendedI
 961              		.syntax unified
 962              		.thumb
 963              		.thumb_func
 964              		.type	chThdCreateSuspendedI, %function
 965              	chThdCreateSuspendedI:
 966              	.LFB347:
 967              		.loc 9 171 65
 968              		.cfi_startproc
 969              		@ args = 0, pretend = 0, frame = 16
ARM GAS  C:\Users\DEVELO~1\AppData\Local\Temp\cceHiR3y.s 			page 18


 970              		@ frame_needed = 1, uses_anonymous_args = 0
 971 0000 80B5     		push	{r7, lr}
 972              		.cfi_def_cfa_offset 8
 973              		.cfi_offset 7, -8
 974              		.cfi_offset 14, -4
 975 0002 84B0     		sub	sp, sp, #16
 976              		.cfi_def_cfa_offset 24
 977 0004 00AF     		add	r7, sp, #0
 978              		.cfi_def_cfa_register 7
 979 0006 7860     		str	r0, [r7, #4]
 980              		.loc 9 185 8
 981 0008 7B68     		ldr	r3, [r7, #4]
 982 000a 9B68     		ldr	r3, [r3, #8]
 983              		.loc 9 185 6
 984 000c 483B     		subs	r3, r3, #72
 985 000e FB60     		str	r3, [r7, #12]
 986              		.loc 9 190 19
 987 0010 7B68     		ldr	r3, [r7, #4]
 988 0012 5A68     		ldr	r2, [r3, #4]
 989              		.loc 9 190 14
 990 0014 FB68     		ldr	r3, [r7, #12]
 991 0016 1A62     		str	r2, [r3, #32]
 992              		.loc 9 194 3
 993 0018 FB68     		ldr	r3, [r7, #12]
 994 001a A3F12402 		sub	r2, r3, #36
 995 001e FB68     		ldr	r3, [r7, #12]
 996 0020 DA60     		str	r2, [r3, #12]
 997 0022 7B68     		ldr	r3, [r7, #4]
 998 0024 1A69     		ldr	r2, [r3, #16]
 999 0026 FB68     		ldr	r3, [r7, #12]
 1000 0028 DB68     		ldr	r3, [r3, #12]
 1001 002a 1A60     		str	r2, [r3]
 1002 002c 7B68     		ldr	r3, [r7, #4]
 1003 002e 5A69     		ldr	r2, [r3, #20]
 1004 0030 FB68     		ldr	r3, [r7, #12]
 1005 0032 DB68     		ldr	r3, [r3, #12]
 1006 0034 5A60     		str	r2, [r3, #4]
 1007 0036 FB68     		ldr	r3, [r7, #12]
 1008 0038 DB68     		ldr	r3, [r3, #12]
 1009 003a 074A     		ldr	r2, .L37
 1010 003c 1A62     		str	r2, [r3, #32]
 1011              		.loc 9 203 45
 1012 003e 7B68     		ldr	r3, [r7, #4]
 1013 0040 1A68     		ldr	r2, [r3]
 1014              		.loc 9 203 56
 1015 0042 7B68     		ldr	r3, [r7, #4]
 1016 0044 DB68     		ldr	r3, [r3, #12]
 1017              		.loc 9 203 10
 1018 0046 F968     		ldr	r1, [r7, #12]
 1019 0048 0448     		ldr	r0, .L37+4
 1020 004a FFF7FEFF 		bl	__thd_object_init
 1021 004e 0346     		mov	r3, r0
 1022              		.loc 9 204 1
 1023 0050 1846     		mov	r0, r3
 1024 0052 1037     		adds	r7, r7, #16
 1025              		.cfi_def_cfa_offset 8
 1026 0054 BD46     		mov	sp, r7
ARM GAS  C:\Users\DEVELO~1\AppData\Local\Temp\cceHiR3y.s 			page 19


 1027              		.cfi_def_cfa_register 13
 1028              		@ sp needed
 1029 0056 80BD     		pop	{r7, pc}
 1030              	.L38:
 1031              		.align	2
 1032              	.L37:
 1033 0058 00000000 		.word	__port_thread_start
 1034 005c 00000000 		.word	ch0
 1035              		.cfi_endproc
 1036              	.LFE347:
 1037              		.size	chThdCreateSuspendedI, .-chThdCreateSuspendedI
 1038              		.section	.text.chThdCreateSuspended,"ax",%progbits
 1039              		.align	1
 1040              		.global	chThdCreateSuspended
 1041              		.syntax unified
 1042              		.thumb
 1043              		.thumb_func
 1044              		.type	chThdCreateSuspended, %function
 1045              	chThdCreateSuspended:
 1046              	.LFB348:
 1047              		.loc 9 226 64
 1048              		.cfi_startproc
 1049              		@ args = 0, pretend = 0, frame = 16
 1050              		@ frame_needed = 1, uses_anonymous_args = 0
 1051 0000 80B5     		push	{r7, lr}
 1052              		.cfi_def_cfa_offset 8
 1053              		.cfi_offset 7, -8
 1054              		.cfi_offset 14, -4
 1055 0002 84B0     		sub	sp, sp, #16
 1056              		.cfi_def_cfa_offset 24
 1057 0004 00AF     		add	r7, sp, #0
 1058              		.cfi_def_cfa_register 7
 1059 0006 7860     		str	r0, [r7, #4]
 1060              		.loc 9 238 3
 1061 0008 FFF7FEFF 		bl	chSysLock
 1062              		.loc 9 239 8
 1063 000c 7868     		ldr	r0, [r7, #4]
 1064 000e FFF7FEFF 		bl	chThdCreateSuspendedI
 1065 0012 F860     		str	r0, [r7, #12]
 1066              		.loc 9 240 3
 1067 0014 FFF7FEFF 		bl	chSysUnlock
 1068              		.loc 9 242 10
 1069 0018 FB68     		ldr	r3, [r7, #12]
 1070              		.loc 9 243 1
 1071 001a 1846     		mov	r0, r3
 1072 001c 1037     		adds	r7, r7, #16
 1073              		.cfi_def_cfa_offset 8
 1074 001e BD46     		mov	sp, r7
 1075              		.cfi_def_cfa_register 13
 1076              		@ sp needed
 1077 0020 80BD     		pop	{r7, pc}
 1078              		.cfi_endproc
 1079              	.LFE348:
 1080              		.size	chThdCreateSuspended, .-chThdCreateSuspended
 1081              		.section	.text.chThdCreateI,"ax",%progbits
 1082              		.align	1
 1083              		.global	chThdCreateI
ARM GAS  C:\Users\DEVELO~1\AppData\Local\Temp\cceHiR3y.s 			page 20


 1084              		.syntax unified
 1085              		.thumb
 1086              		.thumb_func
 1087              		.type	chThdCreateI, %function
 1088              	chThdCreateI:
 1089              	.LFB349:
 1090              		.loc 9 264 56
 1091              		.cfi_startproc
 1092              		@ args = 0, pretend = 0, frame = 8
 1093              		@ frame_needed = 1, uses_anonymous_args = 0
 1094 0000 80B5     		push	{r7, lr}
 1095              		.cfi_def_cfa_offset 8
 1096              		.cfi_offset 7, -8
 1097              		.cfi_offset 14, -4
 1098 0002 82B0     		sub	sp, sp, #8
 1099              		.cfi_def_cfa_offset 16
 1100 0004 00AF     		add	r7, sp, #0
 1101              		.cfi_def_cfa_register 7
 1102 0006 7860     		str	r0, [r7, #4]
 1103              		.loc 9 266 10
 1104 0008 7868     		ldr	r0, [r7, #4]
 1105 000a FFF7FEFF 		bl	chThdCreateSuspendedI
 1106 000e 0346     		mov	r3, r0
 1107 0010 1846     		mov	r0, r3
 1108 0012 FFF7FEFF 		bl	chSchReadyI
 1109 0016 0346     		mov	r3, r0
 1110              		.loc 9 267 1
 1111 0018 1846     		mov	r0, r3
 1112 001a 0837     		adds	r7, r7, #8
 1113              		.cfi_def_cfa_offset 8
 1114 001c BD46     		mov	sp, r7
 1115              		.cfi_def_cfa_register 13
 1116              		@ sp needed
 1117 001e 80BD     		pop	{r7, pc}
 1118              		.cfi_endproc
 1119              	.LFE349:
 1120              		.size	chThdCreateI, .-chThdCreateI
 1121              		.section	.text.chThdCreate,"ax",%progbits
 1122              		.align	1
 1123              		.global	chThdCreate
 1124              		.syntax unified
 1125              		.thumb
 1126              		.thumb_func
 1127              		.type	chThdCreate, %function
 1128              	chThdCreate:
 1129              	.LFB350:
 1130              		.loc 9 285 55
 1131              		.cfi_startproc
 1132              		@ args = 0, pretend = 0, frame = 16
 1133              		@ frame_needed = 1, uses_anonymous_args = 0
 1134 0000 80B5     		push	{r7, lr}
 1135              		.cfi_def_cfa_offset 8
 1136              		.cfi_offset 7, -8
 1137              		.cfi_offset 14, -4
 1138 0002 84B0     		sub	sp, sp, #16
 1139              		.cfi_def_cfa_offset 24
 1140 0004 00AF     		add	r7, sp, #0
ARM GAS  C:\Users\DEVELO~1\AppData\Local\Temp\cceHiR3y.s 			page 21


 1141              		.cfi_def_cfa_register 7
 1142 0006 7860     		str	r0, [r7, #4]
 1143              		.loc 9 298 3
 1144 0008 FFF7FEFF 		bl	chSysLock
 1145              		.loc 9 299 8
 1146 000c 7868     		ldr	r0, [r7, #4]
 1147 000e FFF7FEFF 		bl	chThdCreateSuspendedI
 1148 0012 F860     		str	r0, [r7, #12]
 1149              		.loc 9 300 3
 1150 0014 0021     		movs	r1, #0
 1151 0016 F868     		ldr	r0, [r7, #12]
 1152 0018 FFF7FEFF 		bl	chSchWakeupS
 1153              		.loc 9 301 3
 1154 001c FFF7FEFF 		bl	chSysUnlock
 1155              		.loc 9 303 10
 1156 0020 FB68     		ldr	r3, [r7, #12]
 1157              		.loc 9 304 1
 1158 0022 1846     		mov	r0, r3
 1159 0024 1037     		adds	r7, r7, #16
 1160              		.cfi_def_cfa_offset 8
 1161 0026 BD46     		mov	sp, r7
 1162              		.cfi_def_cfa_register 13
 1163              		@ sp needed
 1164 0028 80BD     		pop	{r7, pc}
 1165              		.cfi_endproc
 1166              	.LFE350:
 1167              		.size	chThdCreate, .-chThdCreate
 1168              		.section	.rodata
 1169              		.align	2
 1170              	.LC0:
 1171 0000 6E6F6E61 		.ascii	"noname\000"
 1171      6D6500
 1172              		.section	.text.chThdCreateStatic,"ax",%progbits
 1173              		.align	1
 1174              		.global	chThdCreateStatic
 1175              		.syntax unified
 1176              		.thumb
 1177              		.thumb_func
 1178              		.type	chThdCreateStatic, %function
 1179              	chThdCreateStatic:
 1180              	.LFB351:
 1181              		.loc 9 327 66
 1182              		.cfi_startproc
 1183              		@ args = 4, pretend = 0, frame = 24
 1184              		@ frame_needed = 1, uses_anonymous_args = 0
 1185 0000 80B5     		push	{r7, lr}
 1186              		.cfi_def_cfa_offset 8
 1187              		.cfi_offset 7, -8
 1188              		.cfi_offset 14, -4
 1189 0002 86B0     		sub	sp, sp, #24
 1190              		.cfi_def_cfa_offset 32
 1191 0004 00AF     		add	r7, sp, #0
 1192              		.cfi_def_cfa_register 7
 1193 0006 F860     		str	r0, [r7, #12]
 1194 0008 B960     		str	r1, [r7, #8]
 1195 000a 7A60     		str	r2, [r7, #4]
 1196 000c 3B60     		str	r3, [r7]
ARM GAS  C:\Users\DEVELO~1\AppData\Local\Temp\cceHiR3y.s 			page 22


 1197              		.loc 9 346 3
 1198 000e FFF7FEFF 		bl	chSysLock
 1199              		.loc 9 351 8
 1200 0012 BB68     		ldr	r3, [r7, #8]
 1201 0014 483B     		subs	r3, r3, #72
 1202              		.loc 9 351 6
 1203 0016 FA68     		ldr	r2, [r7, #12]
 1204 0018 1344     		add	r3, r3, r2
 1205 001a 7B61     		str	r3, [r7, #20]
 1206              		.loc 9 356 14
 1207 001c 7B69     		ldr	r3, [r7, #20]
 1208 001e FA68     		ldr	r2, [r7, #12]
 1209 0020 1A62     		str	r2, [r3, #32]
 1210              		.loc 9 360 3
 1211 0022 7B69     		ldr	r3, [r7, #20]
 1212 0024 A3F12402 		sub	r2, r3, #36
 1213 0028 7B69     		ldr	r3, [r7, #20]
 1214 002a DA60     		str	r2, [r3, #12]
 1215 002c 7B69     		ldr	r3, [r7, #20]
 1216 002e DB68     		ldr	r3, [r3, #12]
 1217 0030 3A68     		ldr	r2, [r7]
 1218 0032 1A60     		str	r2, [r3]
 1219 0034 7B69     		ldr	r3, [r7, #20]
 1220 0036 DB68     		ldr	r3, [r3, #12]
 1221 0038 3A6A     		ldr	r2, [r7, #32]
 1222 003a 5A60     		str	r2, [r3, #4]
 1223 003c 7B69     		ldr	r3, [r7, #20]
 1224 003e DB68     		ldr	r3, [r3, #12]
 1225 0040 094A     		ldr	r2, .L47
 1226 0042 1A62     		str	r2, [r3, #32]
 1227              		.loc 9 362 8
 1228 0044 7B68     		ldr	r3, [r7, #4]
 1229 0046 094A     		ldr	r2, .L47+4
 1230 0048 7969     		ldr	r1, [r7, #20]
 1231 004a 0948     		ldr	r0, .L47+8
 1232 004c FFF7FEFF 		bl	__thd_object_init
 1233 0050 7861     		str	r0, [r7, #20]
 1234              		.loc 9 365 3
 1235 0052 0021     		movs	r1, #0
 1236 0054 7869     		ldr	r0, [r7, #20]
 1237 0056 FFF7FEFF 		bl	chSchWakeupS
 1238              		.loc 9 366 3
 1239 005a FFF7FEFF 		bl	chSysUnlock
 1240              		.loc 9 368 10
 1241 005e 7B69     		ldr	r3, [r7, #20]
 1242              		.loc 9 369 1
 1243 0060 1846     		mov	r0, r3
 1244 0062 1837     		adds	r7, r7, #24
 1245              		.cfi_def_cfa_offset 8
 1246 0064 BD46     		mov	sp, r7
 1247              		.cfi_def_cfa_register 13
 1248              		@ sp needed
 1249 0066 80BD     		pop	{r7, pc}
 1250              	.L48:
 1251              		.align	2
 1252              	.L47:
 1253 0068 00000000 		.word	__port_thread_start
ARM GAS  C:\Users\DEVELO~1\AppData\Local\Temp\cceHiR3y.s 			page 23


 1254 006c 00000000 		.word	.LC0
 1255 0070 00000000 		.word	ch0
 1256              		.cfi_endproc
 1257              	.LFE351:
 1258              		.size	chThdCreateStatic, .-chThdCreateStatic
 1259              		.section	.text.chThdStart,"ax",%progbits
 1260              		.align	1
 1261              		.global	chThdStart
 1262              		.syntax unified
 1263              		.thumb
 1264              		.thumb_func
 1265              		.type	chThdStart, %function
 1266              	chThdStart:
 1267              	.LFB352:
 1268              		.loc 9 379 36
 1269              		.cfi_startproc
 1270              		@ args = 0, pretend = 0, frame = 8
 1271              		@ frame_needed = 1, uses_anonymous_args = 0
 1272 0000 80B5     		push	{r7, lr}
 1273              		.cfi_def_cfa_offset 8
 1274              		.cfi_offset 7, -8
 1275              		.cfi_offset 14, -4
 1276 0002 82B0     		sub	sp, sp, #8
 1277              		.cfi_def_cfa_offset 16
 1278 0004 00AF     		add	r7, sp, #0
 1279              		.cfi_def_cfa_register 7
 1280 0006 7860     		str	r0, [r7, #4]
 1281              		.loc 9 381 3
 1282 0008 FFF7FEFF 		bl	chSysLock
 1283              		.loc 9 383 3
 1284 000c 0021     		movs	r1, #0
 1285 000e 7868     		ldr	r0, [r7, #4]
 1286 0010 FFF7FEFF 		bl	chSchWakeupS
 1287              		.loc 9 384 3
 1288 0014 FFF7FEFF 		bl	chSysUnlock
 1289              		.loc 9 386 10
 1290 0018 7B68     		ldr	r3, [r7, #4]
 1291              		.loc 9 387 1
 1292 001a 1846     		mov	r0, r3
 1293 001c 0837     		adds	r7, r7, #8
 1294              		.cfi_def_cfa_offset 8
 1295 001e BD46     		mov	sp, r7
 1296              		.cfi_def_cfa_register 13
 1297              		@ sp needed
 1298 0020 80BD     		pop	{r7, pc}
 1299              		.cfi_endproc
 1300              	.LFE352:
 1301              		.size	chThdStart, .-chThdStart
 1302              		.section	.text.chThdAddRef,"ax",%progbits
 1303              		.align	1
 1304              		.global	chThdAddRef
 1305              		.syntax unified
 1306              		.thumb
 1307              		.thumb_func
 1308              		.type	chThdAddRef, %function
 1309              	chThdAddRef:
 1310              	.LFB353:
ARM GAS  C:\Users\DEVELO~1\AppData\Local\Temp\cceHiR3y.s 			page 24


 1311              		.loc 9 401 37
 1312              		.cfi_startproc
 1313              		@ args = 0, pretend = 0, frame = 8
 1314              		@ frame_needed = 1, uses_anonymous_args = 0
 1315 0000 80B5     		push	{r7, lr}
 1316              		.cfi_def_cfa_offset 8
 1317              		.cfi_offset 7, -8
 1318              		.cfi_offset 14, -4
 1319 0002 82B0     		sub	sp, sp, #8
 1320              		.cfi_def_cfa_offset 16
 1321 0004 00AF     		add	r7, sp, #0
 1322              		.cfi_def_cfa_register 7
 1323 0006 7860     		str	r0, [r7, #4]
 1324              		.loc 9 403 3
 1325 0008 FFF7FEFF 		bl	chSysLock
 1326              		.loc 9 405 5
 1327 000c 7B68     		ldr	r3, [r7, #4]
 1328 000e 93F82630 		ldrb	r3, [r3, #38]	@ zero_extendqisi2
 1329              		.loc 9 405 11
 1330 0012 0133     		adds	r3, r3, #1
 1331 0014 DAB2     		uxtb	r2, r3
 1332 0016 7B68     		ldr	r3, [r7, #4]
 1333 0018 83F82620 		strb	r2, [r3, #38]
 1334              		.loc 9 406 3
 1335 001c FFF7FEFF 		bl	chSysUnlock
 1336              		.loc 9 408 10
 1337 0020 7B68     		ldr	r3, [r7, #4]
 1338              		.loc 9 409 1
 1339 0022 1846     		mov	r0, r3
 1340 0024 0837     		adds	r7, r7, #8
 1341              		.cfi_def_cfa_offset 8
 1342 0026 BD46     		mov	sp, r7
 1343              		.cfi_def_cfa_register 13
 1344              		@ sp needed
 1345 0028 80BD     		pop	{r7, pc}
 1346              		.cfi_endproc
 1347              	.LFE353:
 1348              		.size	chThdAddRef, .-chThdAddRef
 1349              		.section	.text.chThdRelease,"ax",%progbits
 1350              		.align	1
 1351              		.global	chThdRelease
 1352              		.syntax unified
 1353              		.thumb
 1354              		.thumb_func
 1355              		.type	chThdRelease, %function
 1356              	chThdRelease:
 1357              	.LFB354:
 1358              		.loc 9 429 33
 1359              		.cfi_startproc
 1360              		@ args = 0, pretend = 0, frame = 8
 1361              		@ frame_needed = 1, uses_anonymous_args = 0
 1362 0000 90B5     		push	{r4, r7, lr}
 1363              		.cfi_def_cfa_offset 12
 1364              		.cfi_offset 4, -12
 1365              		.cfi_offset 7, -8
 1366              		.cfi_offset 14, -4
 1367 0002 83B0     		sub	sp, sp, #12
ARM GAS  C:\Users\DEVELO~1\AppData\Local\Temp\cceHiR3y.s 			page 25


 1368              		.cfi_def_cfa_offset 24
 1369 0004 00AF     		add	r7, sp, #0
 1370              		.cfi_def_cfa_register 7
 1371 0006 7860     		str	r0, [r7, #4]
 1372              		.loc 9 431 3
 1373 0008 FFF7FEFF 		bl	chSysLock
 1374              		.loc 9 433 5
 1375 000c 7B68     		ldr	r3, [r7, #4]
 1376 000e 93F82630 		ldrb	r3, [r3, #38]	@ zero_extendqisi2
 1377              		.loc 9 433 11
 1378 0012 013B     		subs	r3, r3, #1
 1379 0014 DAB2     		uxtb	r2, r3
 1380 0016 7B68     		ldr	r3, [r7, #4]
 1381 0018 83F82620 		strb	r2, [r3, #38]
 1382              		.loc 9 438 10
 1383 001c 7B68     		ldr	r3, [r7, #4]
 1384 001e 93F82630 		ldrb	r3, [r3, #38]	@ zero_extendqisi2
 1385              		.loc 9 438 6
 1386 0022 002B     		cmp	r3, #0
 1387 0024 29D1     		bne	.L54
 1388              		.loc 9 438 38 discriminator 1
 1389 0026 7B68     		ldr	r3, [r7, #4]
 1390 0028 93F82430 		ldrb	r3, [r3, #36]	@ zero_extendqisi2
 1391              		.loc 9 438 32 discriminator 1
 1392 002c 0F2B     		cmp	r3, #15
 1393 002e 24D1     		bne	.L54
 1394              		.loc 9 439 5
 1395 0030 7B68     		ldr	r3, [r7, #4]
 1396 0032 1033     		adds	r3, r3, #16
 1397 0034 1846     		mov	r0, r3
 1398 0036 FFF7FEFF 		bl	ch_queue_dequeue
 1399              		.loc 9 440 5
 1400 003a FFF7FEFF 		bl	chSysUnlock
 1401              		.loc 9 443 15
 1402 003e 7B68     		ldr	r3, [r7, #4]
 1403 0040 93F82530 		ldrb	r3, [r3, #37]	@ zero_extendqisi2
 1404              		.loc 9 443 23
 1405 0044 03F00303 		and	r3, r3, #3
 1406              		.loc 9 443 5
 1407 0048 012B     		cmp	r3, #1
 1408 004a 02D0     		beq	.L55
 1409 004c 022B     		cmp	r3, #2
 1410 004e 08D0     		beq	.L56
 1411              		.loc 9 456 7
 1412 0050 12E0     		b	.L58
 1413              	.L55:
 1414              		.loc 9 446 18
 1415 0052 7868     		ldr	r0, [r7, #4]
 1416 0054 FFF7FEFF 		bl	chThdGetWorkingAreaX
 1417 0058 0346     		mov	r3, r0
 1418              		.loc 9 446 7
 1419 005a 1846     		mov	r0, r3
 1420 005c FFF7FEFF 		bl	chHeapFree
 1421              		.loc 9 447 7
 1422 0060 0AE0     		b	.L58
 1423              	.L56:
 1424              		.loc 9 451 20
ARM GAS  C:\Users\DEVELO~1\AppData\Local\Temp\cceHiR3y.s 			page 26


 1425 0062 7B68     		ldr	r3, [r7, #4]
 1426 0064 5C6C     		ldr	r4, [r3, #68]
 1427              		.loc 9 451 29
 1428 0066 7868     		ldr	r0, [r7, #4]
 1429 0068 FFF7FEFF 		bl	chThdGetWorkingAreaX
 1430 006c 0346     		mov	r3, r0
 1431              		.loc 9 451 7
 1432 006e 1946     		mov	r1, r3
 1433 0070 2046     		mov	r0, r4
 1434 0072 FFF7FEFF 		bl	chPoolFree
 1435              		.loc 9 452 7
 1436 0076 00BF     		nop
 1437              	.L58:
 1438              		.loc 9 459 5
 1439 0078 01E0     		b	.L53
 1440              	.L54:
 1441              		.loc 9 461 3
 1442 007a FFF7FEFF 		bl	chSysUnlock
 1443              	.L53:
 1444              		.loc 9 462 1
 1445 007e 0C37     		adds	r7, r7, #12
 1446              		.cfi_def_cfa_offset 12
 1447 0080 BD46     		mov	sp, r7
 1448              		.cfi_def_cfa_register 13
 1449              		@ sp needed
 1450 0082 90BD     		pop	{r4, r7, pc}
 1451              		.cfi_endproc
 1452              	.LFE354:
 1453              		.size	chThdRelease, .-chThdRelease
 1454              		.section	.text.chThdExit,"ax",%progbits
 1455              		.align	1
 1456              		.global	chThdExit
 1457              		.syntax unified
 1458              		.thumb
 1459              		.thumb_func
 1460              		.type	chThdExit, %function
 1461              	chThdExit:
 1462              	.LFB355:
 1463              		.loc 9 479 27
 1464              		.cfi_startproc
 1465              		@ args = 0, pretend = 0, frame = 8
 1466              		@ frame_needed = 1, uses_anonymous_args = 0
 1467 0000 80B5     		push	{r7, lr}
 1468              		.cfi_def_cfa_offset 8
 1469              		.cfi_offset 7, -8
 1470              		.cfi_offset 14, -4
 1471 0002 82B0     		sub	sp, sp, #8
 1472              		.cfi_def_cfa_offset 16
 1473 0004 00AF     		add	r7, sp, #0
 1474              		.cfi_def_cfa_register 7
 1475 0006 7860     		str	r0, [r7, #4]
 1476              		.loc 9 481 3
 1477 0008 FFF7FEFF 		bl	chSysLock
 1478              		.loc 9 482 3
 1479 000c 7868     		ldr	r0, [r7, #4]
 1480 000e FFF7FEFF 		bl	chThdExitS
 1481              		.loc 9 484 1
ARM GAS  C:\Users\DEVELO~1\AppData\Local\Temp\cceHiR3y.s 			page 27


 1482 0012 00BF     		nop
 1483 0014 0837     		adds	r7, r7, #8
 1484              		.cfi_def_cfa_offset 8
 1485 0016 BD46     		mov	sp, r7
 1486              		.cfi_def_cfa_register 13
 1487              		@ sp needed
 1488 0018 80BD     		pop	{r7, pc}
 1489              		.cfi_endproc
 1490              	.LFE355:
 1491              		.size	chThdExit, .-chThdExit
 1492              		.section	.text.chThdExitS,"ax",%progbits
 1493              		.align	1
 1494              		.global	chThdExitS
 1495              		.syntax unified
 1496              		.thumb
 1497              		.thumb_func
 1498              		.type	chThdExitS, %function
 1499              	chThdExitS:
 1500              	.LFB356:
 1501              		.loc 9 503 28
 1502              		.cfi_startproc
 1503              		@ args = 0, pretend = 0, frame = 16
 1504              		@ frame_needed = 1, uses_anonymous_args = 0
 1505 0000 80B5     		push	{r7, lr}
 1506              		.cfi_def_cfa_offset 8
 1507              		.cfi_offset 7, -8
 1508              		.cfi_offset 14, -4
 1509 0002 84B0     		sub	sp, sp, #16
 1510              		.cfi_def_cfa_offset 24
 1511 0004 00AF     		add	r7, sp, #0
 1512              		.cfi_def_cfa_register 7
 1513 0006 7860     		str	r0, [r7, #4]
 1514              		.loc 9 504 22
 1515 0008 FFF7FEFF 		bl	chThdGetSelfX
 1516 000c F860     		str	r0, [r7, #12]
 1517              		.loc 9 507 22
 1518 000e FB68     		ldr	r3, [r7, #12]
 1519 0010 7A68     		ldr	r2, [r7, #4]
 1520 0012 9A62     		str	r2, [r3, #40]
 1521              		.loc 9 514 9
 1522 0014 08E0     		b	.L62
 1523              	.L63:
 1524              		.loc 9 515 24
 1525 0016 FB68     		ldr	r3, [r7, #12]
 1526 0018 2C33     		adds	r3, r3, #44
 1527 001a 1846     		mov	r0, r3
 1528 001c FFF7FEFF 		bl	ch_list_unlink
 1529 0020 0346     		mov	r3, r0
 1530              		.loc 9 515 12
 1531 0022 1846     		mov	r0, r3
 1532 0024 FFF7FEFF 		bl	chSchReadyI
 1533              	.L62:
 1534              		.loc 9 514 10
 1535 0028 FB68     		ldr	r3, [r7, #12]
 1536 002a 2C33     		adds	r3, r3, #44
 1537 002c 1846     		mov	r0, r3
 1538 002e FFF7FEFF 		bl	ch_list_notempty
ARM GAS  C:\Users\DEVELO~1\AppData\Local\Temp\cceHiR3y.s 			page 28


 1539 0032 0346     		mov	r3, r0
 1540 0034 002B     		cmp	r3, #0
 1541 0036 EED1     		bne	.L63
 1542              		.loc 9 520 7
 1543 0038 FB68     		ldr	r3, [r7, #12]
 1544 003a 93F82630 		ldrb	r3, [r3, #38]	@ zero_extendqisi2
 1545 003e 002B     		cmp	r3, #0
 1546 0040 0CBF     		ite	eq
 1547 0042 0123     		moveq	r3, #1
 1548 0044 0023     		movne	r3, #0
 1549 0046 DBB2     		uxtb	r3, r3
 1550              		.loc 9 520 6
 1551 0048 002B     		cmp	r3, #0
 1552 004a 10D0     		beq	.L64
 1553              		.loc 9 524 9
 1554 004c FB68     		ldr	r3, [r7, #12]
 1555 004e 93F82530 		ldrb	r3, [r3, #37]	@ zero_extendqisi2
 1556 0052 03F00303 		and	r3, r3, #3
 1557 0056 002B     		cmp	r3, #0
 1558 0058 0CBF     		ite	eq
 1559 005a 0123     		moveq	r3, #1
 1560 005c 0023     		movne	r3, #0
 1561 005e DBB2     		uxtb	r3, r3
 1562              		.loc 9 524 8
 1563 0060 002B     		cmp	r3, #0
 1564 0062 04D0     		beq	.L64
 1565              		.loc 9 525 7
 1566 0064 FB68     		ldr	r3, [r7, #12]
 1567 0066 1033     		adds	r3, r3, #16
 1568 0068 1846     		mov	r0, r3
 1569 006a FFF7FEFF 		bl	ch_queue_dequeue
 1570              	.L64:
 1571              		.loc 9 534 3
 1572 006e 0F20     		movs	r0, #15
 1573 0070 FFF7FEFF 		bl	chSchGoSleepS
 1574              		.loc 9 538 1
 1575 0074 00BF     		nop
 1576 0076 1037     		adds	r7, r7, #16
 1577              		.cfi_def_cfa_offset 8
 1578 0078 BD46     		mov	sp, r7
 1579              		.cfi_def_cfa_register 13
 1580              		@ sp needed
 1581 007a 80BD     		pop	{r7, pc}
 1582              		.cfi_endproc
 1583              	.LFE356:
 1584              		.size	chThdExitS, .-chThdExitS
 1585              		.section	.text.chThdWait,"ax",%progbits
 1586              		.align	1
 1587              		.global	chThdWait
 1588              		.syntax unified
 1589              		.thumb
 1590              		.thumb_func
 1591              		.type	chThdWait, %function
 1592              	chThdWait:
 1593              	.LFB357:
 1594              		.loc 9 560 31
 1595              		.cfi_startproc
ARM GAS  C:\Users\DEVELO~1\AppData\Local\Temp\cceHiR3y.s 			page 29


 1596              		@ args = 0, pretend = 0, frame = 16
 1597              		@ frame_needed = 1, uses_anonymous_args = 0
 1598 0000 80B5     		push	{r7, lr}
 1599              		.cfi_def_cfa_offset 8
 1600              		.cfi_offset 7, -8
 1601              		.cfi_offset 14, -4
 1602 0002 84B0     		sub	sp, sp, #16
 1603              		.cfi_def_cfa_offset 24
 1604 0004 00AF     		add	r7, sp, #0
 1605              		.cfi_def_cfa_register 7
 1606 0006 7860     		str	r0, [r7, #4]
 1607              		.loc 9 561 22
 1608 0008 FFF7FEFF 		bl	chThdGetSelfX
 1609 000c B860     		str	r0, [r7, #8]
 1610              		.loc 9 566 3
 1611 000e FFF7FEFF 		bl	chSysLock
 1612              		.loc 9 572 7
 1613 0012 7B68     		ldr	r3, [r7, #4]
 1614 0014 93F82430 		ldrb	r3, [r3, #36]	@ zero_extendqisi2
 1615 0018 0F2B     		cmp	r3, #15
 1616 001a 14BF     		ite	ne
 1617 001c 0123     		movne	r3, #1
 1618 001e 0023     		moveq	r3, #0
 1619 0020 DBB2     		uxtb	r3, r3
 1620              		.loc 9 572 6
 1621 0022 002B     		cmp	r3, #0
 1622 0024 09D0     		beq	.L66
 1623              		.loc 9 573 5
 1624 0026 7B68     		ldr	r3, [r7, #4]
 1625 0028 2C33     		adds	r3, r3, #44
 1626 002a BA68     		ldr	r2, [r7, #8]
 1627 002c 1146     		mov	r1, r2
 1628 002e 1846     		mov	r0, r3
 1629 0030 FFF7FEFF 		bl	ch_list_link
 1630              		.loc 9 574 5
 1631 0034 0920     		movs	r0, #9
 1632 0036 FFF7FEFF 		bl	chSchGoSleepS
 1633              	.L66:
 1634              		.loc 9 576 7
 1635 003a 7B68     		ldr	r3, [r7, #4]
 1636 003c 9B6A     		ldr	r3, [r3, #40]
 1637 003e FB60     		str	r3, [r7, #12]
 1638              		.loc 9 577 3
 1639 0040 FFF7FEFF 		bl	chSysUnlock
 1640              		.loc 9 581 3
 1641 0044 7868     		ldr	r0, [r7, #4]
 1642 0046 FFF7FEFF 		bl	chThdRelease
 1643              		.loc 9 584 10
 1644 004a FB68     		ldr	r3, [r7, #12]
 1645              		.loc 9 585 1
 1646 004c 1846     		mov	r0, r3
 1647 004e 1037     		adds	r7, r7, #16
 1648              		.cfi_def_cfa_offset 8
 1649 0050 BD46     		mov	sp, r7
 1650              		.cfi_def_cfa_register 13
 1651              		@ sp needed
 1652 0052 80BD     		pop	{r7, pc}
ARM GAS  C:\Users\DEVELO~1\AppData\Local\Temp\cceHiR3y.s 			page 30


 1653              		.cfi_endproc
 1654              	.LFE357:
 1655              		.size	chThdWait, .-chThdWait
 1656              		.section	.text.chThdSetPriority,"ax",%progbits
 1657              		.align	1
 1658              		.global	chThdSetPriority
 1659              		.syntax unified
 1660              		.thumb
 1661              		.thumb_func
 1662              		.type	chThdSetPriority, %function
 1663              	chThdSetPriority:
 1664              	.LFB358:
 1665              		.loc 9 600 43
 1666              		.cfi_startproc
 1667              		@ args = 0, pretend = 0, frame = 16
 1668              		@ frame_needed = 1, uses_anonymous_args = 0
 1669 0000 80B5     		push	{r7, lr}
 1670              		.cfi_def_cfa_offset 8
 1671              		.cfi_offset 7, -8
 1672              		.cfi_offset 14, -4
 1673 0002 84B0     		sub	sp, sp, #16
 1674              		.cfi_def_cfa_offset 24
 1675 0004 00AF     		add	r7, sp, #0
 1676              		.cfi_def_cfa_register 7
 1677 0006 7860     		str	r0, [r7, #4]
 1678              		.loc 9 601 22
 1679 0008 FFF7FEFF 		bl	chThdGetSelfX
 1680 000c F860     		str	r0, [r7, #12]
 1681              		.loc 9 606 3
 1682 000e FFF7FEFF 		bl	chSysLock
 1683              		.loc 9 608 11
 1684 0012 FB68     		ldr	r3, [r7, #12]
 1685 0014 1B6C     		ldr	r3, [r3, #64]
 1686 0016 BB60     		str	r3, [r7, #8]
 1687              		.loc 9 609 26
 1688 0018 FB68     		ldr	r3, [r7, #12]
 1689 001a 9A68     		ldr	r2, [r3, #8]
 1690              		.loc 9 609 41
 1691 001c FB68     		ldr	r3, [r7, #12]
 1692 001e 1B6C     		ldr	r3, [r3, #64]
 1693              		.loc 9 609 6
 1694 0020 9A42     		cmp	r2, r3
 1695 0022 04D0     		beq	.L69
 1696              		.loc 9 610 36 discriminator 1
 1697 0024 FB68     		ldr	r3, [r7, #12]
 1698 0026 9B68     		ldr	r3, [r3, #8]
 1699              		.loc 9 609 53 discriminator 1
 1700 0028 7A68     		ldr	r2, [r7, #4]
 1701 002a 9A42     		cmp	r2, r3
 1702 002c 02D9     		bls	.L70
 1703              	.L69:
 1704              		.loc 9 611 29
 1705 002e FB68     		ldr	r3, [r7, #12]
 1706 0030 7A68     		ldr	r2, [r7, #4]
 1707 0032 9A60     		str	r2, [r3, #8]
 1708              	.L70:
 1709              		.loc 9 613 20
ARM GAS  C:\Users\DEVELO~1\AppData\Local\Temp\cceHiR3y.s 			page 31


 1710 0034 FB68     		ldr	r3, [r7, #12]
 1711 0036 7A68     		ldr	r2, [r7, #4]
 1712 0038 1A64     		str	r2, [r3, #64]
 1713              		.loc 9 618 3
 1714 003a FFF7FEFF 		bl	chSchRescheduleS
 1715              		.loc 9 619 3
 1716 003e FFF7FEFF 		bl	chSysUnlock
 1717              		.loc 9 621 10
 1718 0042 BB68     		ldr	r3, [r7, #8]
 1719              		.loc 9 622 1
 1720 0044 1846     		mov	r0, r3
 1721 0046 1037     		adds	r7, r7, #16
 1722              		.cfi_def_cfa_offset 8
 1723 0048 BD46     		mov	sp, r7
 1724              		.cfi_def_cfa_register 13
 1725              		@ sp needed
 1726 004a 80BD     		pop	{r7, pc}
 1727              		.cfi_endproc
 1728              	.LFE358:
 1729              		.size	chThdSetPriority, .-chThdSetPriority
 1730              		.section	.text.chThdTerminate,"ax",%progbits
 1731              		.align	1
 1732              		.global	chThdTerminate
 1733              		.syntax unified
 1734              		.thumb
 1735              		.thumb_func
 1736              		.type	chThdTerminate, %function
 1737              	chThdTerminate:
 1738              	.LFB359:
 1739              		.loc 9 636 35
 1740              		.cfi_startproc
 1741              		@ args = 0, pretend = 0, frame = 8
 1742              		@ frame_needed = 1, uses_anonymous_args = 0
 1743 0000 80B5     		push	{r7, lr}
 1744              		.cfi_def_cfa_offset 8
 1745              		.cfi_offset 7, -8
 1746              		.cfi_offset 14, -4
 1747 0002 82B0     		sub	sp, sp, #8
 1748              		.cfi_def_cfa_offset 16
 1749 0004 00AF     		add	r7, sp, #0
 1750              		.cfi_def_cfa_register 7
 1751 0006 7860     		str	r0, [r7, #4]
 1752              		.loc 9 638 3
 1753 0008 FFF7FEFF 		bl	chSysLock
 1754              		.loc 9 639 13
 1755 000c 7B68     		ldr	r3, [r7, #4]
 1756 000e 93F82530 		ldrb	r3, [r3, #37]	@ zero_extendqisi2
 1757 0012 43F00403 		orr	r3, r3, #4
 1758 0016 DAB2     		uxtb	r2, r3
 1759 0018 7B68     		ldr	r3, [r7, #4]
 1760 001a 83F82520 		strb	r2, [r3, #37]
 1761              		.loc 9 640 3
 1762 001e FFF7FEFF 		bl	chSysUnlock
 1763              		.loc 9 641 1
 1764 0022 00BF     		nop
 1765 0024 0837     		adds	r7, r7, #8
 1766              		.cfi_def_cfa_offset 8
ARM GAS  C:\Users\DEVELO~1\AppData\Local\Temp\cceHiR3y.s 			page 32


 1767 0026 BD46     		mov	sp, r7
 1768              		.cfi_def_cfa_register 13
 1769              		@ sp needed
 1770 0028 80BD     		pop	{r7, pc}
 1771              		.cfi_endproc
 1772              	.LFE359:
 1773              		.size	chThdTerminate, .-chThdTerminate
 1774              		.section	.text.chThdSleep,"ax",%progbits
 1775              		.align	1
 1776              		.global	chThdSleep
 1777              		.syntax unified
 1778              		.thumb
 1779              		.thumb_func
 1780              		.type	chThdSleep, %function
 1781              	chThdSleep:
 1782              	.LFB360:
 1783              		.loc 9 655 37
 1784              		.cfi_startproc
 1785              		@ args = 0, pretend = 0, frame = 8
 1786              		@ frame_needed = 1, uses_anonymous_args = 0
 1787 0000 80B5     		push	{r7, lr}
 1788              		.cfi_def_cfa_offset 8
 1789              		.cfi_offset 7, -8
 1790              		.cfi_offset 14, -4
 1791 0002 82B0     		sub	sp, sp, #8
 1792              		.cfi_def_cfa_offset 16
 1793 0004 00AF     		add	r7, sp, #0
 1794              		.cfi_def_cfa_register 7
 1795 0006 7860     		str	r0, [r7, #4]
 1796              		.loc 9 657 3
 1797 0008 FFF7FEFF 		bl	chSysLock
 1798              		.loc 9 658 3
 1799 000c 7868     		ldr	r0, [r7, #4]
 1800 000e FFF7FEFF 		bl	chThdSleepS
 1801              		.loc 9 659 3
 1802 0012 FFF7FEFF 		bl	chSysUnlock
 1803              		.loc 9 660 1
 1804 0016 00BF     		nop
 1805 0018 0837     		adds	r7, r7, #8
 1806              		.cfi_def_cfa_offset 8
 1807 001a BD46     		mov	sp, r7
 1808              		.cfi_def_cfa_register 13
 1809              		@ sp needed
 1810 001c 80BD     		pop	{r7, pc}
 1811              		.cfi_endproc
 1812              	.LFE360:
 1813              		.size	chThdSleep, .-chThdSleep
 1814              		.section	.text.chThdSleepUntil,"ax",%progbits
 1815              		.align	1
 1816              		.global	chThdSleepUntil
 1817              		.syntax unified
 1818              		.thumb
 1819              		.thumb_func
 1820              		.type	chThdSleepUntil, %function
 1821              	chThdSleepUntil:
 1822              	.LFB361:
 1823              		.loc 9 675 38
ARM GAS  C:\Users\DEVELO~1\AppData\Local\Temp\cceHiR3y.s 			page 33


 1824              		.cfi_startproc
 1825              		@ args = 0, pretend = 0, frame = 16
 1826              		@ frame_needed = 1, uses_anonymous_args = 0
 1827 0000 80B5     		push	{r7, lr}
 1828              		.cfi_def_cfa_offset 8
 1829              		.cfi_offset 7, -8
 1830              		.cfi_offset 14, -4
 1831 0002 84B0     		sub	sp, sp, #16
 1832              		.cfi_def_cfa_offset 24
 1833 0004 00AF     		add	r7, sp, #0
 1834              		.cfi_def_cfa_register 7
 1835 0006 7860     		str	r0, [r7, #4]
 1836              		.loc 9 678 3
 1837 0008 FFF7FEFF 		bl	chSysLock
 1838              		.loc 9 679 14
 1839 000c FFF7FEFF 		bl	chVTGetSystemTimeX
 1840 0010 0346     		mov	r3, r0
 1841 0012 7968     		ldr	r1, [r7, #4]
 1842 0014 1846     		mov	r0, r3
 1843 0016 FFF7FEFF 		bl	chTimeDiffX
 1844 001a F860     		str	r0, [r7, #12]
 1845              		.loc 9 680 7
 1846 001c FB68     		ldr	r3, [r7, #12]
 1847 001e 002B     		cmp	r3, #0
 1848 0020 14BF     		ite	ne
 1849 0022 0123     		movne	r3, #1
 1850 0024 0023     		moveq	r3, #0
 1851 0026 DBB2     		uxtb	r3, r3
 1852              		.loc 9 680 6
 1853 0028 002B     		cmp	r3, #0
 1854 002a 02D0     		beq	.L75
 1855              		.loc 9 681 5
 1856 002c F868     		ldr	r0, [r7, #12]
 1857 002e FFF7FEFF 		bl	chThdSleepS
 1858              	.L75:
 1859              		.loc 9 683 3
 1860 0032 FFF7FEFF 		bl	chSysUnlock
 1861              		.loc 9 684 1
 1862 0036 00BF     		nop
 1863 0038 1037     		adds	r7, r7, #16
 1864              		.cfi_def_cfa_offset 8
 1865 003a BD46     		mov	sp, r7
 1866              		.cfi_def_cfa_register 13
 1867              		@ sp needed
 1868 003c 80BD     		pop	{r7, pc}
 1869              		.cfi_endproc
 1870              	.LFE361:
 1871              		.size	chThdSleepUntil, .-chThdSleepUntil
 1872              		.section	.text.chThdSleepUntilWindowed,"ax",%progbits
 1873              		.align	1
 1874              		.global	chThdSleepUntilWindowed
 1875              		.syntax unified
 1876              		.thumb
 1877              		.thumb_func
 1878              		.type	chThdSleepUntilWindowed, %function
 1879              	chThdSleepUntilWindowed:
 1880              	.LFB362:
ARM GAS  C:\Users\DEVELO~1\AppData\Local\Temp\cceHiR3y.s 			page 34


 1881              		.loc 9 700 67
 1882              		.cfi_startproc
 1883              		@ args = 0, pretend = 0, frame = 16
 1884              		@ frame_needed = 1, uses_anonymous_args = 0
 1885 0000 80B5     		push	{r7, lr}
 1886              		.cfi_def_cfa_offset 8
 1887              		.cfi_offset 7, -8
 1888              		.cfi_offset 14, -4
 1889 0002 84B0     		sub	sp, sp, #16
 1890              		.cfi_def_cfa_offset 24
 1891 0004 00AF     		add	r7, sp, #0
 1892              		.cfi_def_cfa_register 7
 1893 0006 7860     		str	r0, [r7, #4]
 1894 0008 3960     		str	r1, [r7]
 1895              		.loc 9 703 3
 1896 000a FFF7FEFF 		bl	chSysLock
 1897              		.loc 9 704 10
 1898 000e FFF7FEFF 		bl	chVTGetSystemTimeX
 1899 0012 F860     		str	r0, [r7, #12]
 1900              		.loc 9 705 7
 1901 0014 3A68     		ldr	r2, [r7]
 1902 0016 7968     		ldr	r1, [r7, #4]
 1903 0018 F868     		ldr	r0, [r7, #12]
 1904 001a FFF7FEFF 		bl	chTimeIsInRangeX
 1905 001e 0346     		mov	r3, r0
 1906              		.loc 9 705 6
 1907 0020 002B     		cmp	r3, #0
 1908 0022 07D0     		beq	.L77
 1909              		.loc 9 706 5
 1910 0024 3968     		ldr	r1, [r7]
 1911 0026 F868     		ldr	r0, [r7, #12]
 1912 0028 FFF7FEFF 		bl	chTimeDiffX
 1913 002c 0346     		mov	r3, r0
 1914 002e 1846     		mov	r0, r3
 1915 0030 FFF7FEFF 		bl	chThdSleepS
 1916              	.L77:
 1917              		.loc 9 708 3
 1918 0034 FFF7FEFF 		bl	chSysUnlock
 1919              		.loc 9 710 10
 1920 0038 3B68     		ldr	r3, [r7]
 1921              		.loc 9 711 1
 1922 003a 1846     		mov	r0, r3
 1923 003c 1037     		adds	r7, r7, #16
 1924              		.cfi_def_cfa_offset 8
 1925 003e BD46     		mov	sp, r7
 1926              		.cfi_def_cfa_register 13
 1927              		@ sp needed
 1928 0040 80BD     		pop	{r7, pc}
 1929              		.cfi_endproc
 1930              	.LFE362:
 1931              		.size	chThdSleepUntilWindowed, .-chThdSleepUntilWindowed
 1932              		.section	.text.chThdYield,"ax",%progbits
 1933              		.align	1
 1934              		.global	chThdYield
 1935              		.syntax unified
 1936              		.thumb
 1937              		.thumb_func
ARM GAS  C:\Users\DEVELO~1\AppData\Local\Temp\cceHiR3y.s 			page 35


 1938              		.type	chThdYield, %function
 1939              	chThdYield:
 1940              	.LFB363:
 1941              		.loc 9 720 23
 1942              		.cfi_startproc
 1943              		@ args = 0, pretend = 0, frame = 0
 1944              		@ frame_needed = 1, uses_anonymous_args = 0
 1945 0000 80B5     		push	{r7, lr}
 1946              		.cfi_def_cfa_offset 8
 1947              		.cfi_offset 7, -8
 1948              		.cfi_offset 14, -4
 1949 0002 00AF     		add	r7, sp, #0
 1950              		.cfi_def_cfa_register 7
 1951              		.loc 9 722 3
 1952 0004 FFF7FEFF 		bl	chSysLock
 1953              		.loc 9 723 3
 1954 0008 FFF7FEFF 		bl	chSchDoYieldS
 1955              		.loc 9 724 3
 1956 000c FFF7FEFF 		bl	chSysUnlock
 1957              		.loc 9 725 1
 1958 0010 00BF     		nop
 1959 0012 80BD     		pop	{r7, pc}
 1960              		.cfi_endproc
 1961              	.LFE363:
 1962              		.size	chThdYield, .-chThdYield
 1963              		.section	.text.chThdSuspendS,"ax",%progbits
 1964              		.align	1
 1965              		.global	chThdSuspendS
 1966              		.syntax unified
 1967              		.thumb
 1968              		.thumb_func
 1969              		.type	chThdSuspendS, %function
 1970              	chThdSuspendS:
 1971              	.LFB364:
 1972              		.loc 9 737 46
 1973              		.cfi_startproc
 1974              		@ args = 0, pretend = 0, frame = 16
 1975              		@ frame_needed = 1, uses_anonymous_args = 0
 1976 0000 80B5     		push	{r7, lr}
 1977              		.cfi_def_cfa_offset 8
 1978              		.cfi_offset 7, -8
 1979              		.cfi_offset 14, -4
 1980 0002 84B0     		sub	sp, sp, #16
 1981              		.cfi_def_cfa_offset 24
 1982 0004 00AF     		add	r7, sp, #0
 1983              		.cfi_def_cfa_register 7
 1984 0006 7860     		str	r0, [r7, #4]
 1985              		.loc 9 738 18
 1986 0008 FFF7FEFF 		bl	chThdGetSelfX
 1987 000c F860     		str	r0, [r7, #12]
 1988              		.loc 9 742 8
 1989 000e 7B68     		ldr	r3, [r7, #4]
 1990 0010 FA68     		ldr	r2, [r7, #12]
 1991 0012 1A60     		str	r2, [r3]
 1992              		.loc 9 743 15
 1993 0014 FB68     		ldr	r3, [r7, #12]
 1994 0016 7A68     		ldr	r2, [r7, #4]
ARM GAS  C:\Users\DEVELO~1\AppData\Local\Temp\cceHiR3y.s 			page 36


 1995 0018 9A62     		str	r2, [r3, #40]
 1996              		.loc 9 744 3
 1997 001a 0320     		movs	r0, #3
 1998 001c FFF7FEFF 		bl	chSchGoSleepS
 1999              		.loc 9 746 10
 2000 0020 FFF7FEFF 		bl	chThdGetSelfX
 2001 0024 0346     		mov	r3, r0
 2002              		.loc 9 746 28
 2003 0026 9B6A     		ldr	r3, [r3, #40]
 2004              		.loc 9 747 1
 2005 0028 1846     		mov	r0, r3
 2006 002a 1037     		adds	r7, r7, #16
 2007              		.cfi_def_cfa_offset 8
 2008 002c BD46     		mov	sp, r7
 2009              		.cfi_def_cfa_register 13
 2010              		@ sp needed
 2011 002e 80BD     		pop	{r7, pc}
 2012              		.cfi_endproc
 2013              	.LFE364:
 2014              		.size	chThdSuspendS, .-chThdSuspendS
 2015              		.section	.text.chThdSuspendTimeoutS,"ax",%progbits
 2016              		.align	1
 2017              		.global	chThdSuspendTimeoutS
 2018              		.syntax unified
 2019              		.thumb
 2020              		.thumb_func
 2021              		.type	chThdSuspendTimeoutS, %function
 2022              	chThdSuspendTimeoutS:
 2023              	.LFB365:
 2024              		.loc 9 768 76
 2025              		.cfi_startproc
 2026              		@ args = 0, pretend = 0, frame = 16
 2027              		@ frame_needed = 1, uses_anonymous_args = 0
 2028 0000 80B5     		push	{r7, lr}
 2029              		.cfi_def_cfa_offset 8
 2030              		.cfi_offset 7, -8
 2031              		.cfi_offset 14, -4
 2032 0002 84B0     		sub	sp, sp, #16
 2033              		.cfi_def_cfa_offset 24
 2034 0004 00AF     		add	r7, sp, #0
 2035              		.cfi_def_cfa_register 7
 2036 0006 7860     		str	r0, [r7, #4]
 2037 0008 3960     		str	r1, [r7]
 2038              		.loc 9 769 18
 2039 000a FFF7FEFF 		bl	chThdGetSelfX
 2040 000e F860     		str	r0, [r7, #12]
 2041              		.loc 9 773 7
 2042 0010 3B68     		ldr	r3, [r7]
 2043 0012 002B     		cmp	r3, #0
 2044 0014 0CBF     		ite	eq
 2045 0016 0123     		moveq	r3, #1
 2046 0018 0023     		movne	r3, #0
 2047 001a DBB2     		uxtb	r3, r3
 2048              		.loc 9 773 6
 2049 001c 002B     		cmp	r3, #0
 2050 001e 02D0     		beq	.L83
 2051              		.loc 9 774 12
ARM GAS  C:\Users\DEVELO~1\AppData\Local\Temp\cceHiR3y.s 			page 37


 2052 0020 4FF0FF33 		mov	r3, #-1
 2053 0024 0AE0     		b	.L84
 2054              	.L83:
 2055              		.loc 9 777 8
 2056 0026 7B68     		ldr	r3, [r7, #4]
 2057 0028 FA68     		ldr	r2, [r7, #12]
 2058 002a 1A60     		str	r2, [r3]
 2059              		.loc 9 778 15
 2060 002c FB68     		ldr	r3, [r7, #12]
 2061 002e 7A68     		ldr	r2, [r7, #4]
 2062 0030 9A62     		str	r2, [r3, #40]
 2063              		.loc 9 780 10
 2064 0032 3968     		ldr	r1, [r7]
 2065 0034 0320     		movs	r0, #3
 2066 0036 FFF7FEFF 		bl	chSchGoSleepTimeoutS
 2067 003a 0346     		mov	r3, r0
 2068              	.L84:
 2069              		.loc 9 781 1
 2070 003c 1846     		mov	r0, r3
 2071 003e 1037     		adds	r7, r7, #16
 2072              		.cfi_def_cfa_offset 8
 2073 0040 BD46     		mov	sp, r7
 2074              		.cfi_def_cfa_register 13
 2075              		@ sp needed
 2076 0042 80BD     		pop	{r7, pc}
 2077              		.cfi_endproc
 2078              	.LFE365:
 2079              		.size	chThdSuspendTimeoutS, .-chThdSuspendTimeoutS
 2080              		.section	.text.chThdResumeI,"ax",%progbits
 2081              		.align	1
 2082              		.global	chThdResumeI
 2083              		.syntax unified
 2084              		.thumb
 2085              		.thumb_func
 2086              		.type	chThdResumeI, %function
 2087              	chThdResumeI:
 2088              	.LFB366:
 2089              		.loc 9 793 55
 2090              		.cfi_startproc
 2091              		@ args = 0, pretend = 0, frame = 16
 2092              		@ frame_needed = 1, uses_anonymous_args = 0
 2093 0000 80B5     		push	{r7, lr}
 2094              		.cfi_def_cfa_offset 8
 2095              		.cfi_offset 7, -8
 2096              		.cfi_offset 14, -4
 2097 0002 84B0     		sub	sp, sp, #16
 2098              		.cfi_def_cfa_offset 24
 2099 0004 00AF     		add	r7, sp, #0
 2100              		.cfi_def_cfa_register 7
 2101 0006 7860     		str	r0, [r7, #4]
 2102 0008 3960     		str	r1, [r7]
 2103              		.loc 9 795 7
 2104 000a 7B68     		ldr	r3, [r7, #4]
 2105 000c 1B68     		ldr	r3, [r3]
 2106              		.loc 9 795 6
 2107 000e 002B     		cmp	r3, #0
 2108 0010 0BD0     		beq	.L87
ARM GAS  C:\Users\DEVELO~1\AppData\Local\Temp\cceHiR3y.s 			page 38


 2109              	.LBB22:
 2110              		.loc 9 796 15
 2111 0012 7B68     		ldr	r3, [r7, #4]
 2112 0014 1B68     		ldr	r3, [r3]
 2113 0016 FB60     		str	r3, [r7, #12]
 2114              		.loc 9 800 10
 2115 0018 7B68     		ldr	r3, [r7, #4]
 2116 001a 0022     		movs	r2, #0
 2117 001c 1A60     		str	r2, [r3]
 2118              		.loc 9 801 18
 2119 001e FB68     		ldr	r3, [r7, #12]
 2120 0020 3A68     		ldr	r2, [r7]
 2121 0022 9A62     		str	r2, [r3, #40]
 2122              		.loc 9 802 12
 2123 0024 F868     		ldr	r0, [r7, #12]
 2124 0026 FFF7FEFF 		bl	chSchReadyI
 2125              	.L87:
 2126              	.LBE22:
 2127              		.loc 9 804 1
 2128 002a 00BF     		nop
 2129 002c 1037     		adds	r7, r7, #16
 2130              		.cfi_def_cfa_offset 8
 2131 002e BD46     		mov	sp, r7
 2132              		.cfi_def_cfa_register 13
 2133              		@ sp needed
 2134 0030 80BD     		pop	{r7, pc}
 2135              		.cfi_endproc
 2136              	.LFE366:
 2137              		.size	chThdResumeI, .-chThdResumeI
 2138              		.section	.text.chThdResumeS,"ax",%progbits
 2139              		.align	1
 2140              		.global	chThdResumeS
 2141              		.syntax unified
 2142              		.thumb
 2143              		.thumb_func
 2144              		.type	chThdResumeS, %function
 2145              	chThdResumeS:
 2146              	.LFB367:
 2147              		.loc 9 816 55
 2148              		.cfi_startproc
 2149              		@ args = 0, pretend = 0, frame = 16
 2150              		@ frame_needed = 1, uses_anonymous_args = 0
 2151 0000 80B5     		push	{r7, lr}
 2152              		.cfi_def_cfa_offset 8
 2153              		.cfi_offset 7, -8
 2154              		.cfi_offset 14, -4
 2155 0002 84B0     		sub	sp, sp, #16
 2156              		.cfi_def_cfa_offset 24
 2157 0004 00AF     		add	r7, sp, #0
 2158              		.cfi_def_cfa_register 7
 2159 0006 7860     		str	r0, [r7, #4]
 2160 0008 3960     		str	r1, [r7]
 2161              		.loc 9 818 7
 2162 000a 7B68     		ldr	r3, [r7, #4]
 2163 000c 1B68     		ldr	r3, [r3]
 2164              		.loc 9 818 6
 2165 000e 002B     		cmp	r3, #0
ARM GAS  C:\Users\DEVELO~1\AppData\Local\Temp\cceHiR3y.s 			page 39


 2166 0010 09D0     		beq	.L90
 2167              	.LBB23:
 2168              		.loc 9 819 15
 2169 0012 7B68     		ldr	r3, [r7, #4]
 2170 0014 1B68     		ldr	r3, [r3]
 2171 0016 FB60     		str	r3, [r7, #12]
 2172              		.loc 9 823 10
 2173 0018 7B68     		ldr	r3, [r7, #4]
 2174 001a 0022     		movs	r2, #0
 2175 001c 1A60     		str	r2, [r3]
 2176              		.loc 9 824 5
 2177 001e 3968     		ldr	r1, [r7]
 2178 0020 F868     		ldr	r0, [r7, #12]
 2179 0022 FFF7FEFF 		bl	chSchWakeupS
 2180              	.L90:
 2181              	.LBE23:
 2182              		.loc 9 826 1
 2183 0026 00BF     		nop
 2184 0028 1037     		adds	r7, r7, #16
 2185              		.cfi_def_cfa_offset 8
 2186 002a BD46     		mov	sp, r7
 2187              		.cfi_def_cfa_register 13
 2188              		@ sp needed
 2189 002c 80BD     		pop	{r7, pc}
 2190              		.cfi_endproc
 2191              	.LFE367:
 2192              		.size	chThdResumeS, .-chThdResumeS
 2193              		.section	.text.chThdResume,"ax",%progbits
 2194              		.align	1
 2195              		.global	chThdResume
 2196              		.syntax unified
 2197              		.thumb
 2198              		.thumb_func
 2199              		.type	chThdResume, %function
 2200              	chThdResume:
 2201              	.LFB368:
 2202              		.loc 9 838 54
 2203              		.cfi_startproc
 2204              		@ args = 0, pretend = 0, frame = 8
 2205              		@ frame_needed = 1, uses_anonymous_args = 0
 2206 0000 80B5     		push	{r7, lr}
 2207              		.cfi_def_cfa_offset 8
 2208              		.cfi_offset 7, -8
 2209              		.cfi_offset 14, -4
 2210 0002 82B0     		sub	sp, sp, #8
 2211              		.cfi_def_cfa_offset 16
 2212 0004 00AF     		add	r7, sp, #0
 2213              		.cfi_def_cfa_register 7
 2214 0006 7860     		str	r0, [r7, #4]
 2215 0008 3960     		str	r1, [r7]
 2216              		.loc 9 840 3
 2217 000a FFF7FEFF 		bl	chSysLock
 2218              		.loc 9 841 3
 2219 000e 3968     		ldr	r1, [r7]
 2220 0010 7868     		ldr	r0, [r7, #4]
 2221 0012 FFF7FEFF 		bl	chThdResumeS
 2222              		.loc 9 842 3
ARM GAS  C:\Users\DEVELO~1\AppData\Local\Temp\cceHiR3y.s 			page 40


 2223 0016 FFF7FEFF 		bl	chSysUnlock
 2224              		.loc 9 843 1
 2225 001a 00BF     		nop
 2226 001c 0837     		adds	r7, r7, #8
 2227              		.cfi_def_cfa_offset 8
 2228 001e BD46     		mov	sp, r7
 2229              		.cfi_def_cfa_register 13
 2230              		@ sp needed
 2231 0020 80BD     		pop	{r7, pc}
 2232              		.cfi_endproc
 2233              	.LFE368:
 2234              		.size	chThdResume, .-chThdResume
 2235              		.section	.text.chThdEnqueueTimeoutS,"ax",%progbits
 2236              		.align	1
 2237              		.global	chThdEnqueueTimeoutS
 2238              		.syntax unified
 2239              		.thumb
 2240              		.thumb_func
 2241              		.type	chThdEnqueueTimeoutS, %function
 2242              	chThdEnqueueTimeoutS:
 2243              	.LFB369:
 2244              		.loc 9 868 73
 2245              		.cfi_startproc
 2246              		@ args = 0, pretend = 0, frame = 16
 2247              		@ frame_needed = 1, uses_anonymous_args = 0
 2248 0000 80B5     		push	{r7, lr}
 2249              		.cfi_def_cfa_offset 8
 2250              		.cfi_offset 7, -8
 2251              		.cfi_offset 14, -4
 2252 0002 84B0     		sub	sp, sp, #16
 2253              		.cfi_def_cfa_offset 24
 2254 0004 00AF     		add	r7, sp, #0
 2255              		.cfi_def_cfa_register 7
 2256 0006 7860     		str	r0, [r7, #4]
 2257 0008 3960     		str	r1, [r7]
 2258              		.loc 9 869 22
 2259 000a FFF7FEFF 		bl	chThdGetSelfX
 2260 000e F860     		str	r0, [r7, #12]
 2261              		.loc 9 871 7
 2262 0010 3B68     		ldr	r3, [r7]
 2263 0012 002B     		cmp	r3, #0
 2264 0014 0CBF     		ite	eq
 2265 0016 0123     		moveq	r3, #1
 2266 0018 0023     		movne	r3, #0
 2267 001a DBB2     		uxtb	r3, r3
 2268              		.loc 9 871 6
 2269 001c 002B     		cmp	r3, #0
 2270 001e 02D0     		beq	.L93
 2271              		.loc 9 872 12
 2272 0020 4FF0FF33 		mov	r3, #-1
 2273 0024 09E0     		b	.L94
 2274              	.L93:
 2275              		.loc 9 875 3
 2276 0026 7B68     		ldr	r3, [r7, #4]
 2277 0028 F968     		ldr	r1, [r7, #12]
 2278 002a 1846     		mov	r0, r3
 2279 002c FFF7FEFF 		bl	ch_queue_insert
ARM GAS  C:\Users\DEVELO~1\AppData\Local\Temp\cceHiR3y.s 			page 41


 2280              		.loc 9 877 10
 2281 0030 3968     		ldr	r1, [r7]
 2282 0032 0420     		movs	r0, #4
 2283 0034 FFF7FEFF 		bl	chSchGoSleepTimeoutS
 2284 0038 0346     		mov	r3, r0
 2285              	.L94:
 2286              		.loc 9 878 1
 2287 003a 1846     		mov	r0, r3
 2288 003c 1037     		adds	r7, r7, #16
 2289              		.cfi_def_cfa_offset 8
 2290 003e BD46     		mov	sp, r7
 2291              		.cfi_def_cfa_register 13
 2292              		@ sp needed
 2293 0040 80BD     		pop	{r7, pc}
 2294              		.cfi_endproc
 2295              	.LFE369:
 2296              		.size	chThdEnqueueTimeoutS, .-chThdEnqueueTimeoutS
 2297              		.section	.text.chThdDequeueNextI,"ax",%progbits
 2298              		.align	1
 2299              		.global	chThdDequeueNextI
 2300              		.syntax unified
 2301              		.thumb
 2302              		.thumb_func
 2303              		.type	chThdDequeueNextI, %function
 2304              	chThdDequeueNextI:
 2305              	.LFB370:
 2306              		.loc 9 889 57
 2307              		.cfi_startproc
 2308              		@ args = 0, pretend = 0, frame = 8
 2309              		@ frame_needed = 1, uses_anonymous_args = 0
 2310 0000 80B5     		push	{r7, lr}
 2311              		.cfi_def_cfa_offset 8
 2312              		.cfi_offset 7, -8
 2313              		.cfi_offset 14, -4
 2314 0002 82B0     		sub	sp, sp, #8
 2315              		.cfi_def_cfa_offset 16
 2316 0004 00AF     		add	r7, sp, #0
 2317              		.cfi_def_cfa_register 7
 2318 0006 7860     		str	r0, [r7, #4]
 2319 0008 3960     		str	r1, [r7]
 2320              		.loc 9 891 25
 2321 000a 7B68     		ldr	r3, [r7, #4]
 2322              		.loc 9 891 7
 2323 000c 1846     		mov	r0, r3
 2324 000e FFF7FEFF 		bl	ch_queue_notempty
 2325 0012 0346     		mov	r3, r0
 2326              		.loc 9 891 6
 2327 0014 002B     		cmp	r3, #0
 2328 0016 03D0     		beq	.L97
 2329              		.loc 9 892 5
 2330 0018 3968     		ldr	r1, [r7]
 2331 001a 7868     		ldr	r0, [r7, #4]
 2332 001c FFF7FEFF 		bl	chThdDoDequeueNextI
 2333              	.L97:
 2334              		.loc 9 894 1
 2335 0020 00BF     		nop
 2336 0022 0837     		adds	r7, r7, #8
ARM GAS  C:\Users\DEVELO~1\AppData\Local\Temp\cceHiR3y.s 			page 42


 2337              		.cfi_def_cfa_offset 8
 2338 0024 BD46     		mov	sp, r7
 2339              		.cfi_def_cfa_register 13
 2340              		@ sp needed
 2341 0026 80BD     		pop	{r7, pc}
 2342              		.cfi_endproc
 2343              	.LFE370:
 2344              		.size	chThdDequeueNextI, .-chThdDequeueNextI
 2345              		.section	.text.chThdDequeueAllI,"ax",%progbits
 2346              		.align	1
 2347              		.global	chThdDequeueAllI
 2348              		.syntax unified
 2349              		.thumb
 2350              		.thumb_func
 2351              		.type	chThdDequeueAllI, %function
 2352              	chThdDequeueAllI:
 2353              	.LFB371:
 2354              		.loc 9 904 56
 2355              		.cfi_startproc
 2356              		@ args = 0, pretend = 0, frame = 8
 2357              		@ frame_needed = 1, uses_anonymous_args = 0
 2358 0000 80B5     		push	{r7, lr}
 2359              		.cfi_def_cfa_offset 8
 2360              		.cfi_offset 7, -8
 2361              		.cfi_offset 14, -4
 2362 0002 82B0     		sub	sp, sp, #8
 2363              		.cfi_def_cfa_offset 16
 2364 0004 00AF     		add	r7, sp, #0
 2365              		.cfi_def_cfa_register 7
 2366 0006 7860     		str	r0, [r7, #4]
 2367 0008 3960     		str	r1, [r7]
 2368              		.loc 9 906 9
 2369 000a 03E0     		b	.L99
 2370              	.L100:
 2371              		.loc 9 907 5
 2372 000c 3968     		ldr	r1, [r7]
 2373 000e 7868     		ldr	r0, [r7, #4]
 2374 0010 FFF7FEFF 		bl	chThdDoDequeueNextI
 2375              	.L99:
 2376              		.loc 9 906 28
 2377 0014 7B68     		ldr	r3, [r7, #4]
 2378              		.loc 9 906 10
 2379 0016 1846     		mov	r0, r3
 2380 0018 FFF7FEFF 		bl	ch_queue_notempty
 2381 001c 0346     		mov	r3, r0
 2382 001e 002B     		cmp	r3, #0
 2383 0020 F4D1     		bne	.L100
 2384              		.loc 9 909 1
 2385 0022 00BF     		nop
 2386 0024 00BF     		nop
 2387 0026 0837     		adds	r7, r7, #8
 2388              		.cfi_def_cfa_offset 8
 2389 0028 BD46     		mov	sp, r7
 2390              		.cfi_def_cfa_register 13
 2391              		@ sp needed
 2392 002a 80BD     		pop	{r7, pc}
 2393              		.cfi_endproc
ARM GAS  C:\Users\DEVELO~1\AppData\Local\Temp\cceHiR3y.s 			page 43


 2394              	.LFE371:
 2395              		.size	chThdDequeueAllI, .-chThdDequeueAllI
 2396              		.text
 2397              	.Letext0:
 2398              		.file 10 "c:\\chibistudio\\tools\\gnu tools arm embedded\\11.3 2022.08\\lib\\gcc\\arm-none-eabi\\1
 2399              		.file 11 "c:\\chibistudio\\tools\\gnu tools arm embedded\\11.3 2022.08\\arm-none-eabi\\include\\ma
 2400              		.file 12 "c:\\chibistudio\\tools\\gnu tools arm embedded\\11.3 2022.08\\arm-none-eabi\\include\\sy
 2401              		.file 13 "../../../os/common/ports/ARM-common/chtypes.h"
 2402              		.file 14 "../../../os/rt/include/chearly.h"
 2403              		.file 15 "../../../os/rt/include/chobjects.h"
 2404              		.file 16 "../../../os/rt/include/chrfcu.h"
 2405              		.file 17 "../../../os/rt/include/chdebug.h"
 2406              		.file 18 "../../../os/rt/include/chtrace.h"
 2407              		.file 19 "../../../os/rt/include/chsem.h"
 2408              		.file 20 "../../../os/rt/include/chmtx.h"
 2409              		.file 21 "../../../os/oslib/include/chmemcore.h"
 2410              		.file 22 "../../../os/oslib/include/chmempools.h"
 2411              		.file 23 "../../../os/rt/include/chschd.h"
 2412              		.file 24 "../../../os/oslib/include/chmemheaps.h"
 2413              		.section	.debug_info,"",%progbits
 2414              	.Ldebug_info0:
 2415 0000 BD150000 		.4byte	0x15bd
 2416 0004 0500     		.2byte	0x5
 2417 0006 01       		.byte	0x1
 2418 0007 04       		.byte	0x4
 2419 0008 00000000 		.4byte	.Ldebug_abbrev0
 2420 000c 2E       		.uleb128 0x2e
 2421 000d AB010000 		.4byte	.LASF199
 2422 0011 1D       		.byte	0x1d
 2423 0012 0F060000 		.4byte	.LASF200
 2424 0016 95090000 		.4byte	.LASF201
 2425 001a 0C000000 		.4byte	.LLRL0
 2426 001e 00000000 		.4byte	0
 2427 0022 00000000 		.4byte	.Ldebug_line0
 2428 0026 2F       		.uleb128 0x2f
 2429 0027 04       		.byte	0x4
 2430 0028 05       		.byte	0x5
 2431 0029 696E7400 		.ascii	"int\000"
 2432 002d 02       		.uleb128 0x2
 2433 002e 15000000 		.4byte	.LASF4
 2434 0032 0A       		.byte	0xa
 2435 0033 D1       		.byte	0xd1
 2436 0034 17       		.byte	0x17
 2437 0035 39000000 		.4byte	0x39
 2438 0039 0A       		.uleb128 0xa
 2439 003a 04       		.byte	0x4
 2440 003b 07       		.byte	0x7
 2441 003c 7B050000 		.4byte	.LASF0
 2442 0040 0A       		.uleb128 0xa
 2443 0041 08       		.byte	0x8
 2444 0042 05       		.byte	0x5
 2445 0043 21010000 		.4byte	.LASF1
 2446 0047 0A       		.uleb128 0xa
 2447 0048 08       		.byte	0x8
 2448 0049 04       		.byte	0x4
 2449 004a 6E070000 		.4byte	.LASF2
 2450 004e 0A       		.uleb128 0xa
ARM GAS  C:\Users\DEVELO~1\AppData\Local\Temp\cceHiR3y.s 			page 44


 2451 004f 01       		.byte	0x1
 2452 0050 06       		.byte	0x6
 2453 0051 2F010000 		.4byte	.LASF3
 2454 0055 02       		.uleb128 0x2
 2455 0056 56000000 		.4byte	.LASF5
 2456 005a 0B       		.byte	0xb
 2457 005b 2B       		.byte	0x2b
 2458 005c 18       		.byte	0x18
 2459 005d 61000000 		.4byte	0x61
 2460 0061 0A       		.uleb128 0xa
 2461 0062 01       		.byte	0x1
 2462 0063 08       		.byte	0x8
 2463 0064 4C060000 		.4byte	.LASF6
 2464 0068 0A       		.uleb128 0xa
 2465 0069 02       		.byte	0x2
 2466 006a 05       		.byte	0x5
 2467 006b 7F020000 		.4byte	.LASF7
 2468 006f 02       		.uleb128 0x2
 2469 0070 A7070000 		.4byte	.LASF8
 2470 0074 0B       		.byte	0xb
 2471 0075 39       		.byte	0x39
 2472 0076 19       		.byte	0x19
 2473 0077 7B000000 		.4byte	0x7b
 2474 007b 0A       		.uleb128 0xa
 2475 007c 02       		.byte	0x2
 2476 007d 07       		.byte	0x7
 2477 007e EB030000 		.4byte	.LASF9
 2478 0082 02       		.uleb128 0x2
 2479 0083 7F040000 		.4byte	.LASF10
 2480 0087 0B       		.byte	0xb
 2481 0088 4D       		.byte	0x4d
 2482 0089 18       		.byte	0x18
 2483 008a 8E000000 		.4byte	0x8e
 2484 008e 0A       		.uleb128 0xa
 2485 008f 04       		.byte	0x4
 2486 0090 05       		.byte	0x5
 2487 0091 3C020000 		.4byte	.LASF11
 2488 0095 02       		.uleb128 0x2
 2489 0096 FE020000 		.4byte	.LASF12
 2490 009a 0B       		.byte	0xb
 2491 009b 4F       		.byte	0x4f
 2492 009c 19       		.byte	0x19
 2493 009d A1000000 		.4byte	0xa1
 2494 00a1 0A       		.uleb128 0xa
 2495 00a2 04       		.byte	0x4
 2496 00a3 07       		.byte	0x7
 2497 00a4 56010000 		.4byte	.LASF13
 2498 00a8 02       		.uleb128 0x2
 2499 00a9 D8040000 		.4byte	.LASF14
 2500 00ad 0B       		.byte	0xb
 2501 00ae 69       		.byte	0x69
 2502 00af 19       		.byte	0x19
 2503 00b0 B4000000 		.4byte	0xb4
 2504 00b4 0A       		.uleb128 0xa
 2505 00b5 08       		.byte	0x8
 2506 00b6 07       		.byte	0x7
 2507 00b7 76010000 		.4byte	.LASF15
ARM GAS  C:\Users\DEVELO~1\AppData\Local\Temp\cceHiR3y.s 			page 45


 2508 00bb 02       		.uleb128 0x2
 2509 00bc 08090000 		.4byte	.LASF16
 2510 00c0 0C       		.byte	0xc
 2511 00c1 18       		.byte	0x18
 2512 00c2 13       		.byte	0x13
 2513 00c3 55000000 		.4byte	0x55
 2514 00c7 02       		.uleb128 0x2
 2515 00c8 89020000 		.4byte	.LASF17
 2516 00cc 0C       		.byte	0xc
 2517 00cd 24       		.byte	0x24
 2518 00ce 14       		.byte	0x14
 2519 00cf 6F000000 		.4byte	0x6f
 2520 00d3 02       		.uleb128 0x2
 2521 00d4 44060000 		.4byte	.LASF18
 2522 00d8 0C       		.byte	0xc
 2523 00d9 2C       		.byte	0x2c
 2524 00da 13       		.byte	0x13
 2525 00db 82000000 		.4byte	0x82
 2526 00df 02       		.uleb128 0x2
 2527 00e0 3F070000 		.4byte	.LASF19
 2528 00e4 0C       		.byte	0xc
 2529 00e5 30       		.byte	0x30
 2530 00e6 14       		.byte	0x14
 2531 00e7 95000000 		.4byte	0x95
 2532 00eb 02       		.uleb128 0x2
 2533 00ec 72050000 		.4byte	.LASF20
 2534 00f0 0C       		.byte	0xc
 2535 00f1 3C       		.byte	0x3c
 2536 00f2 14       		.byte	0x14
 2537 00f3 A8000000 		.4byte	0xa8
 2538 00f7 24       		.uleb128 0x24
 2539 00f8 EB000000 		.4byte	0xeb
 2540 00fc 02       		.uleb128 0x2
 2541 00fd A7030000 		.4byte	.LASF21
 2542 0101 0D       		.byte	0xd
 2543 0102 48       		.byte	0x48
 2544 0103 1D       		.byte	0x1d
 2545 0104 EB000000 		.4byte	0xeb
 2546 0108 02       		.uleb128 0x2
 2547 0109 B3040000 		.4byte	.LASF22
 2548 010d 0E       		.byte	0xe
 2549 010e 50       		.byte	0x50
 2550 010f 19       		.byte	0x19
 2551 0110 FC000000 		.4byte	0xfc
 2552 0114 02       		.uleb128 0x2
 2553 0115 46040000 		.4byte	.LASF23
 2554 0119 0E       		.byte	0xe
 2555 011a 53       		.byte	0x53
 2556 011b 19       		.byte	0x19
 2557 011c BB000000 		.4byte	0xbb
 2558 0120 02       		.uleb128 0x2
 2559 0121 45020000 		.4byte	.LASF24
 2560 0125 0E       		.byte	0xe
 2561 0126 54       		.byte	0x54
 2562 0127 19       		.byte	0x19
 2563 0128 BB000000 		.4byte	0xbb
 2564 012c 02       		.uleb128 0x2
ARM GAS  C:\Users\DEVELO~1\AppData\Local\Temp\cceHiR3y.s 			page 46


 2565 012d E9050000 		.4byte	.LASF25
 2566 0131 0E       		.byte	0xe
 2567 0132 55       		.byte	0x55
 2568 0133 19       		.byte	0x19
 2569 0134 BB000000 		.4byte	0xbb
 2570 0138 02       		.uleb128 0x2
 2571 0139 02060000 		.4byte	.LASF26
 2572 013d 0E       		.byte	0xe
 2573 013e 57       		.byte	0x57
 2574 013f 19       		.byte	0x19
 2575 0140 DF000000 		.4byte	0xdf
 2576 0144 02       		.uleb128 0x2
 2577 0145 22040000 		.4byte	.LASF27
 2578 0149 0E       		.byte	0xe
 2579 014a 58       		.byte	0x58
 2580 014b 19       		.byte	0x19
 2581 014c D3000000 		.4byte	0xd3
 2582 0150 02       		.uleb128 0x2
 2583 0151 73040000 		.4byte	.LASF28
 2584 0155 0E       		.byte	0xe
 2585 0156 5A       		.byte	0x5a
 2586 0157 19       		.byte	0x19
 2587 0158 DF000000 		.4byte	0xdf
 2588 015c 02       		.uleb128 0x2
 2589 015d 49030000 		.4byte	.LASF29
 2590 0161 0E       		.byte	0xe
 2591 0162 5C       		.byte	0x5c
 2592 0163 19       		.byte	0x19
 2593 0164 D3000000 		.4byte	0xd3
 2594 0168 02       		.uleb128 0x2
 2595 0169 DF050000 		.4byte	.LASF30
 2596 016d 0E       		.byte	0xe
 2597 016e 80       		.byte	0x80
 2598 016f 12       		.byte	0x12
 2599 0170 39000000 		.4byte	0x39
 2600 0174 02       		.uleb128 0x2
 2601 0175 CB070000 		.4byte	.LASF31
 2602 0179 0E       		.byte	0xe
 2603 017a 85       		.byte	0x85
 2604 017b 1A       		.byte	0x1a
 2605 017c 80010000 		.4byte	0x180
 2606 0180 08       		.uleb128 0x8
 2607 0181 11040000 		.4byte	.LASF46
 2608 0185 48       		.byte	0x48
 2609 0186 0F       		.byte	0xf
 2610 0187 9C       		.byte	0x9c
 2611 0188 08       		.byte	0x8
 2612 0189 5D020000 		.4byte	0x25d
 2613 018d 0D       		.uleb128 0xd
 2614 018e 68647200 		.ascii	"hdr\000"
 2615 0192 0F       		.byte	0xf
 2616 0193 AD       		.byte	0xad
 2617 0194 05       		.byte	0x5
 2618 0195 3F070000 		.4byte	0x73f
 2619 0199 00       		.byte	0
 2620 019a 0D       		.uleb128 0xd
 2621 019b 63747800 		.ascii	"ctx\000"
ARM GAS  C:\Users\DEVELO~1\AppData\Local\Temp\cceHiR3y.s 			page 47


 2622 019f 0F       		.byte	0xf
 2623 01a0 B1       		.byte	0xb1
 2624 01a1 21       		.byte	0x21
 2625 01a2 83060000 		.4byte	0x683
 2626 01a6 0C       		.byte	0xc
 2627 01a7 01       		.uleb128 0x1
 2628 01a8 95030000 		.4byte	.LASF32
 2629 01ac 0F       		.byte	0xf
 2630 01ad B6       		.byte	0xb6
 2631 01ae 21       		.byte	0x21
 2632 01af A3030000 		.4byte	0x3a3
 2633 01b3 10       		.byte	0x10
 2634 01b4 01       		.uleb128 0x1
 2635 01b5 4E020000 		.4byte	.LASF33
 2636 01b9 0F       		.byte	0xf
 2637 01ba BB       		.byte	0xbb
 2638 01bb 22       		.byte	0x22
 2639 01bc 41080000 		.4byte	0x841
 2640 01c0 18       		.byte	0x18
 2641 01c1 01       		.uleb128 0x1
 2642 01c2 CD030000 		.4byte	.LASF34
 2643 01c6 0F       		.byte	0xf
 2644 01c7 C0       		.byte	0xc0
 2645 01c8 22       		.byte	0x22
 2646 01c9 3D030000 		.4byte	0x33d
 2647 01cd 1C       		.byte	0x1c
 2648 01ce 01       		.uleb128 0x1
 2649 01cf 7A070000 		.4byte	.LASF35
 2650 01d3 0F       		.byte	0xf
 2651 01d4 C9       		.byte	0xc9
 2652 01d5 22       		.byte	0x22
 2653 01d6 46080000 		.4byte	0x846
 2654 01da 20       		.byte	0x20
 2655 01db 01       		.uleb128 0x1
 2656 01dc 36020000 		.4byte	.LASF36
 2657 01e0 0F       		.byte	0xf
 2658 01e1 CE       		.byte	0xce
 2659 01e2 21       		.byte	0x21
 2660 01e3 20010000 		.4byte	0x120
 2661 01e7 24       		.byte	0x24
 2662 01e8 01       		.uleb128 0x1
 2663 01e9 1B090000 		.4byte	.LASF37
 2664 01ed 0F       		.byte	0xf
 2665 01ee D2       		.byte	0xd2
 2666 01ef 21       		.byte	0x21
 2667 01f0 14010000 		.4byte	0x114
 2668 01f4 25       		.byte	0x25
 2669 01f5 01       		.uleb128 0x1
 2670 01f6 F1050000 		.4byte	.LASF38
 2671 01fa 0F       		.byte	0xf
 2672 01fb D7       		.byte	0xd7
 2673 01fc 21       		.byte	0x21
 2674 01fd 2C010000 		.4byte	0x12c
 2675 0201 26       		.byte	0x26
 2676 0202 0B       		.uleb128 0xb
 2677 0203 7500     		.ascii	"u\000"
 2678 0205 0F       		.byte	0xf
ARM GAS  C:\Users\DEVELO~1\AppData\Local\Temp\cceHiR3y.s 			page 48


 2679 0206 2801     		.2byte	0x128
 2680 0208 21       		.byte	0x21
 2681 0209 6C070000 		.4byte	0x76c
 2682 020d 28       		.byte	0x28
 2683 020e 05       		.uleb128 0x5
 2684 020f 0E030000 		.4byte	.LASF39
 2685 0213 2D01     		.2byte	0x12d
 2686 0215 21       		.byte	0x21
 2687 0216 77030000 		.4byte	0x377
 2688 021a 2C       		.byte	0x2c
 2689 021b 05       		.uleb128 0x5
 2690 021c 4F030000 		.4byte	.LASF40
 2691 0220 3301     		.2byte	0x133
 2692 0222 21       		.byte	0x21
 2693 0223 A3030000 		.4byte	0x3a3
 2694 0227 30       		.byte	0x30
 2695 0228 05       		.uleb128 0x5
 2696 0229 28040000 		.4byte	.LASF41
 2697 022d 3901     		.2byte	0x139
 2698 022f 21       		.byte	0x21
 2699 0230 50010000 		.4byte	0x150
 2700 0234 38       		.byte	0x38
 2701 0235 05       		.uleb128 0x5
 2702 0236 8D090000 		.4byte	.LASF42
 2703 023a 4001     		.2byte	0x140
 2704 023c 22       		.byte	0x22
 2705 023d 3C080000 		.4byte	0x83c
 2706 0241 3C       		.byte	0x3c
 2707 0242 05       		.uleb128 0x5
 2708 0243 ED040000 		.4byte	.LASF43
 2709 0247 4401     		.2byte	0x144
 2710 0249 21       		.byte	0x21
 2711 024a 38010000 		.4byte	0x138
 2712 024e 40       		.byte	0x40
 2713 024f 05       		.uleb128 0x5
 2714 0250 A8080000 		.4byte	.LASF44
 2715 0254 4B01     		.2byte	0x14b
 2716 0256 22       		.byte	0x22
 2717 0257 96040000 		.4byte	0x496
 2718 025b 44       		.byte	0x44
 2719 025c 00       		.byte	0
 2720 025d 02       		.uleb128 0x2
 2721 025e 33080000 		.4byte	.LASF45
 2722 0262 0E       		.byte	0xe
 2723 0263 8A       		.byte	0x8a
 2724 0264 1F       		.byte	0x1f
 2725 0265 69020000 		.4byte	0x269
 2726 0269 30       		.uleb128 0x30
 2727 026a 24080000 		.4byte	.LASF47
 2728 026e 9008     		.2byte	0x890
 2729 0270 0F       		.byte	0xf
 2730 0271 8A01     		.2byte	0x18a
 2731 0273 08       		.byte	0x8
 2732 0274 EF020000 		.4byte	0x2ef
 2733 0278 05       		.uleb128 0x5
 2734 0279 E3080000 		.4byte	.LASF48
 2735 027d 8E01     		.2byte	0x18e
ARM GAS  C:\Users\DEVELO~1\AppData\Local\Temp\cceHiR3y.s 			page 49


 2736 027f 21       		.byte	0x21
 2737 0280 74080000 		.4byte	0x874
 2738 0284 00       		.byte	0
 2739 0285 05       		.uleb128 0x5
 2740 0286 71000000 		.4byte	.LASF49
 2741 028a 9201     		.2byte	0x192
 2742 028c 21       		.byte	0x21
 2743 028d D9060000 		.4byte	0x6d9
 2744 0291 10       		.byte	0x10
 2745 0292 05       		.uleb128 0x5
 2746 0293 41080000 		.4byte	.LASF50
 2747 0297 9901     		.2byte	0x199
 2748 0299 21       		.byte	0x21
 2749 029a 00070000 		.4byte	0x700
 2750 029e 28       		.byte	0x28
 2751 029f 05       		.uleb128 0x5
 2752 02a0 41030000 		.4byte	.LASF51
 2753 02a4 9E01     		.2byte	0x19e
 2754 02a6 21       		.byte	0x21
 2755 02a7 68010000 		.4byte	0x168
 2756 02ab 30       		.byte	0x30
 2757 02ac 05       		.uleb128 0x5
 2758 02ad 29000000 		.4byte	.LASF52
 2759 02b1 A401     		.2byte	0x1a4
 2760 02b3 21       		.byte	0x21
 2761 02b4 16030000 		.4byte	0x316
 2762 02b8 34       		.byte	0x34
 2763 02b9 05       		.uleb128 0x5
 2764 02ba 79030000 		.4byte	.LASF53
 2765 02be A901     		.2byte	0x1a9
 2766 02c0 22       		.byte	0x22
 2767 02c1 DF080000 		.4byte	0x8df
 2768 02c5 38       		.byte	0x38
 2769 02c6 05       		.uleb128 0x5
 2770 02c7 F2000000 		.4byte	.LASF54
 2771 02cb AD01     		.2byte	0x1ad
 2772 02cd 21       		.byte	0x21
 2773 02ce 74010000 		.4byte	0x174
 2774 02d2 3C       		.byte	0x3c
 2775 02d3 0B       		.uleb128 0xb
 2776 02d4 64626700 		.ascii	"dbg\000"
 2777 02d8 0F       		.byte	0xf
 2778 02d9 B101     		.2byte	0x1b1
 2779 02db 21       		.byte	0x21
 2780 02dc 53030000 		.4byte	0x353
 2781 02e0 84       		.byte	0x84
 2782 02e1 05       		.uleb128 0x5
 2783 02e2 50090000 		.4byte	.LASF55
 2784 02e6 B601     		.2byte	0x1b6
 2785 02e8 21       		.byte	0x21
 2786 02e9 F1050000 		.4byte	0x5f1
 2787 02ed 88       		.byte	0x88
 2788 02ee 00       		.byte	0
 2789 02ef 02       		.uleb128 0x2
 2790 02f0 0B050000 		.4byte	.LASF56
 2791 02f4 10       		.byte	0x10
 2792 02f5 3F       		.byte	0x3f
ARM GAS  C:\Users\DEVELO~1\AppData\Local\Temp\cceHiR3y.s 			page 50


 2793 02f6 12       		.byte	0x12
 2794 02f7 DF000000 		.4byte	0xdf
 2795 02fb 08       		.uleb128 0x8
 2796 02fc 54020000 		.4byte	.LASF57
 2797 0300 04       		.byte	0x4
 2798 0301 10       		.byte	0x10
 2799 0302 44       		.byte	0x44
 2800 0303 10       		.byte	0x10
 2801 0304 16030000 		.4byte	0x316
 2802 0308 01       		.uleb128 0x1
 2803 0309 09030000 		.4byte	.LASF58
 2804 030d 10       		.byte	0x10
 2805 030e 48       		.byte	0x48
 2806 030f 21       		.byte	0x21
 2807 0310 EF020000 		.4byte	0x2ef
 2808 0314 00       		.byte	0
 2809 0315 00       		.byte	0
 2810 0316 02       		.uleb128 0x2
 2811 0317 6B060000 		.4byte	.LASF59
 2812 031b 10       		.byte	0x10
 2813 031c 49       		.byte	0x49
 2814 031d 03       		.byte	0x3
 2815 031e FB020000 		.4byte	0x2fb
 2816 0322 08       		.uleb128 0x8
 2817 0323 2E060000 		.4byte	.LASF60
 2818 0327 04       		.byte	0x4
 2819 0328 11       		.byte	0x11
 2820 0329 3E       		.byte	0x3e
 2821 032a 10       		.byte	0x10
 2822 032b 3D030000 		.4byte	0x33d
 2823 032f 01       		.uleb128 0x1
 2824 0330 13080000 		.4byte	.LASF61
 2825 0334 11       		.byte	0x11
 2826 0335 46       		.byte	0x46
 2827 0336 24       		.byte	0x24
 2828 0337 42030000 		.4byte	0x342
 2829 033b 00       		.byte	0
 2830 033c 00       		.byte	0
 2831 033d 04       		.uleb128 0x4
 2832 033e 4E030000 		.4byte	0x34e
 2833 0342 24       		.uleb128 0x24
 2834 0343 3D030000 		.4byte	0x33d
 2835 0347 0A       		.uleb128 0xa
 2836 0348 01       		.byte	0x1
 2837 0349 08       		.byte	0x8
 2838 034a 81070000 		.4byte	.LASF62
 2839 034e 07       		.uleb128 0x7
 2840 034f 47030000 		.4byte	0x347
 2841 0353 02       		.uleb128 0x2
 2842 0354 80030000 		.4byte	.LASF63
 2843 0358 11       		.byte	0x11
 2844 0359 51       		.byte	0x51
 2845 035a 03       		.byte	0x3
 2846 035b 22030000 		.4byte	0x322
 2847 035f 02       		.uleb128 0x2
 2848 0360 EE070000 		.4byte	.LASF64
 2849 0364 01       		.byte	0x1
ARM GAS  C:\Users\DEVELO~1\AppData\Local\Temp\cceHiR3y.s 			page 51


 2850 0365 6D       		.byte	0x6d
 2851 0366 12       		.byte	0x12
 2852 0367 DF000000 		.4byte	0xdf
 2853 036b 02       		.uleb128 0x2
 2854 036c 5C020000 		.4byte	.LASF65
 2855 0370 01       		.byte	0x1
 2856 0371 79       		.byte	0x79
 2857 0372 12       		.byte	0x12
 2858 0373 DF000000 		.4byte	0xdf
 2859 0377 02       		.uleb128 0x2
 2860 0378 5E050000 		.4byte	.LASF66
 2861 037c 02       		.byte	0x2
 2862 037d 32       		.byte	0x32
 2863 037e 18       		.byte	0x18
 2864 037f 83030000 		.4byte	0x383
 2865 0383 08       		.uleb128 0x8
 2866 0384 5D040000 		.4byte	.LASF67
 2867 0388 04       		.byte	0x4
 2868 0389 02       		.byte	0x2
 2869 038a 38       		.byte	0x38
 2870 038b 08       		.byte	0x8
 2871 038c 9E030000 		.4byte	0x39e
 2872 0390 01       		.uleb128 0x1
 2873 0391 0B010000 		.4byte	.LASF68
 2874 0395 02       		.byte	0x2
 2875 0396 39       		.byte	0x39
 2876 0397 1A       		.byte	0x1a
 2877 0398 9E030000 		.4byte	0x39e
 2878 039c 00       		.byte	0
 2879 039d 00       		.byte	0
 2880 039e 04       		.uleb128 0x4
 2881 039f 77030000 		.4byte	0x377
 2882 03a3 02       		.uleb128 0x2
 2883 03a4 9C030000 		.4byte	.LASF69
 2884 03a8 02       		.byte	0x2
 2885 03a9 3F       		.byte	0x3f
 2886 03aa 19       		.byte	0x19
 2887 03ab B4030000 		.4byte	0x3b4
 2888 03af 07       		.uleb128 0x7
 2889 03b0 A3030000 		.4byte	0x3a3
 2890 03b4 08       		.uleb128 0x8
 2891 03b5 76020000 		.4byte	.LASF70
 2892 03b9 08       		.byte	0x8
 2893 03ba 02       		.byte	0x2
 2894 03bb 45       		.byte	0x45
 2895 03bc 08       		.byte	0x8
 2896 03bd DC030000 		.4byte	0x3dc
 2897 03c1 01       		.uleb128 0x1
 2898 03c2 0B010000 		.4byte	.LASF68
 2899 03c6 02       		.byte	0x2
 2900 03c7 46       		.byte	0x46
 2901 03c8 1A       		.byte	0x1a
 2902 03c9 DC030000 		.4byte	0x3dc
 2903 03cd 00       		.byte	0
 2904 03ce 01       		.uleb128 0x1
 2905 03cf 60000000 		.4byte	.LASF71
 2906 03d3 02       		.byte	0x2
ARM GAS  C:\Users\DEVELO~1\AppData\Local\Temp\cceHiR3y.s 			page 52


 2907 03d4 47       		.byte	0x47
 2908 03d5 1A       		.byte	0x1a
 2909 03d6 DC030000 		.4byte	0x3dc
 2910 03da 04       		.byte	0x4
 2911 03db 00       		.byte	0
 2912 03dc 04       		.uleb128 0x4
 2913 03dd A3030000 		.4byte	0x3a3
 2914 03e1 02       		.uleb128 0x2
 2915 03e2 FF070000 		.4byte	.LASF72
 2916 03e6 02       		.byte	0x2
 2917 03e7 4E       		.byte	0x4e
 2918 03e8 22       		.byte	0x22
 2919 03e9 ED030000 		.4byte	0x3ed
 2920 03ed 08       		.uleb128 0x8
 2921 03ee 49080000 		.4byte	.LASF73
 2922 03f2 0C       		.byte	0xc
 2923 03f3 02       		.byte	0x2
 2924 03f4 55       		.byte	0x55
 2925 03f5 08       		.byte	0x8
 2926 03f6 22040000 		.4byte	0x422
 2927 03fa 01       		.uleb128 0x1
 2928 03fb 0B010000 		.4byte	.LASF68
 2929 03ff 02       		.byte	0x2
 2930 0400 56       		.byte	0x56
 2931 0401 1A       		.byte	0x1a
 2932 0402 22040000 		.4byte	0x422
 2933 0406 00       		.byte	0
 2934 0407 01       		.uleb128 0x1
 2935 0408 60000000 		.4byte	.LASF71
 2936 040c 02       		.byte	0x2
 2937 040d 57       		.byte	0x57
 2938 040e 1A       		.byte	0x1a
 2939 040f 22040000 		.4byte	0x422
 2940 0413 04       		.byte	0x4
 2941 0414 01       		.uleb128 0x1
 2942 0415 B5050000 		.4byte	.LASF74
 2943 0419 02       		.byte	0x2
 2944 041a 58       		.byte	0x58
 2945 041b 19       		.byte	0x19
 2946 041c 38010000 		.4byte	0x138
 2947 0420 08       		.byte	0x8
 2948 0421 00       		.byte	0
 2949 0422 04       		.uleb128 0x4
 2950 0423 E1030000 		.4byte	0x3e1
 2951 0427 02       		.uleb128 0x2
 2952 0428 7C080000 		.4byte	.LASF75
 2953 042c 02       		.byte	0x2
 2954 042d 5F       		.byte	0x5f
 2955 042e 1E       		.byte	0x1e
 2956 042f 33040000 		.4byte	0x433
 2957 0433 08       		.uleb128 0x8
 2958 0434 68010000 		.4byte	.LASF76
 2959 0438 0C       		.byte	0xc
 2960 0439 02       		.byte	0x2
 2961 043a 64       		.byte	0x64
 2962 043b 08       		.byte	0x8
 2963 043c 68040000 		.4byte	0x468
ARM GAS  C:\Users\DEVELO~1\AppData\Local\Temp\cceHiR3y.s 			page 53


 2964 0440 01       		.uleb128 0x1
 2965 0441 0B010000 		.4byte	.LASF68
 2966 0445 02       		.byte	0x2
 2967 0446 65       		.byte	0x65
 2968 0447 1A       		.byte	0x1a
 2969 0448 68040000 		.4byte	0x468
 2970 044c 00       		.byte	0
 2971 044d 01       		.uleb128 0x1
 2972 044e 60000000 		.4byte	.LASF71
 2973 0452 02       		.byte	0x2
 2974 0453 66       		.byte	0x66
 2975 0454 1A       		.byte	0x1a
 2976 0455 68040000 		.4byte	0x468
 2977 0459 04       		.byte	0x4
 2978 045a 01       		.uleb128 0x1
 2979 045b 05010000 		.4byte	.LASF77
 2980 045f 02       		.byte	0x2
 2981 0460 67       		.byte	0x67
 2982 0461 19       		.byte	0x19
 2983 0462 6B030000 		.4byte	0x36b
 2984 0466 08       		.byte	0x8
 2985 0467 00       		.byte	0
 2986 0468 04       		.uleb128 0x4
 2987 0469 27040000 		.4byte	0x427
 2988 046d 14       		.uleb128 0x14
 2989 046e 08       		.byte	0x8
 2990 046f 12       		.byte	0x12
 2991 0470 83       		.byte	0x83
 2992 0471 05       		.byte	0x5
 2993 0472 91040000 		.4byte	0x491
 2994 0476 0D       		.uleb128 0xd
 2995 0477 6E747000 		.ascii	"ntp\000"
 2996 047b 12       		.byte	0x12
 2997 047c 87       		.byte	0x87
 2998 047d 1E       		.byte	0x1e
 2999 047e 91040000 		.4byte	0x491
 3000 0482 00       		.byte	0
 3001 0483 01       		.uleb128 0x1
 3002 0484 C7060000 		.4byte	.LASF78
 3003 0488 12       		.byte	0x12
 3004 0489 8B       		.byte	0x8b
 3005 048a 1E       		.byte	0x1e
 3006 048b 96040000 		.4byte	0x496
 3007 048f 04       		.byte	0x4
 3008 0490 00       		.byte	0
 3009 0491 04       		.uleb128 0x4
 3010 0492 74010000 		.4byte	0x174
 3011 0496 31       		.uleb128 0x31
 3012 0497 04       		.byte	0x4
 3013 0498 14       		.uleb128 0x14
 3014 0499 08       		.byte	0x8
 3015 049a 12       		.byte	0x12
 3016 049b 90       		.byte	0x90
 3017 049c 05       		.byte	0x5
 3018 049d BB040000 		.4byte	0x4bb
 3019 04a1 0D       		.uleb128 0xd
 3020 04a2 747000   		.ascii	"tp\000"
ARM GAS  C:\Users\DEVELO~1\AppData\Local\Temp\cceHiR3y.s 			page 54


 3021 04a5 12       		.byte	0x12
 3022 04a6 94       		.byte	0x94
 3023 04a7 1E       		.byte	0x1e
 3024 04a8 91040000 		.4byte	0x491
 3025 04ac 00       		.byte	0
 3026 04ad 0D       		.uleb128 0xd
 3027 04ae 6D736700 		.ascii	"msg\000"
 3028 04b2 12       		.byte	0x12
 3029 04b3 98       		.byte	0x98
 3030 04b4 1D       		.byte	0x1d
 3031 04b5 44010000 		.4byte	0x144
 3032 04b9 04       		.byte	0x4
 3033 04ba 00       		.byte	0
 3034 04bb 14       		.uleb128 0x14
 3035 04bc 04       		.byte	0x4
 3036 04bd 12       		.byte	0x12
 3037 04be 9D       		.byte	0x9d
 3038 04bf 05       		.byte	0x5
 3039 04c0 D2040000 		.4byte	0x4d2
 3040 04c4 01       		.uleb128 0x1
 3041 04c5 CD030000 		.4byte	.LASF34
 3042 04c9 12       		.byte	0x12
 3043 04ca A1       		.byte	0xa1
 3044 04cb 1E       		.byte	0x1e
 3045 04cc 3D030000 		.4byte	0x33d
 3046 04d0 00       		.byte	0
 3047 04d1 00       		.byte	0
 3048 04d2 14       		.uleb128 0x14
 3049 04d3 04       		.byte	0x4
 3050 04d4 12       		.byte	0x12
 3051 04d5 A6       		.byte	0xa6
 3052 04d6 05       		.byte	0x5
 3053 04d7 E9040000 		.4byte	0x4e9
 3054 04db 01       		.uleb128 0x1
 3055 04dc 02070000 		.4byte	.LASF79
 3056 04e0 12       		.byte	0x12
 3057 04e1 AA       		.byte	0xaa
 3058 04e2 1E       		.byte	0x1e
 3059 04e3 3D030000 		.4byte	0x33d
 3060 04e7 00       		.byte	0
 3061 04e8 00       		.byte	0
 3062 04e9 14       		.uleb128 0x14
 3063 04ea 08       		.byte	0x8
 3064 04eb 12       		.byte	0x12
 3065 04ec AF       		.byte	0xaf
 3066 04ed 05       		.byte	0x5
 3067 04ee 0D050000 		.4byte	0x50d
 3068 04f2 0D       		.uleb128 0xd
 3069 04f3 75703100 		.ascii	"up1\000"
 3070 04f7 12       		.byte	0x12
 3071 04f8 B3       		.byte	0xb3
 3072 04f9 1E       		.byte	0x1e
 3073 04fa 96040000 		.4byte	0x496
 3074 04fe 00       		.byte	0
 3075 04ff 0D       		.uleb128 0xd
 3076 0500 75703200 		.ascii	"up2\000"
 3077 0504 12       		.byte	0x12
ARM GAS  C:\Users\DEVELO~1\AppData\Local\Temp\cceHiR3y.s 			page 55


 3078 0505 B7       		.byte	0xb7
 3079 0506 1E       		.byte	0x1e
 3080 0507 96040000 		.4byte	0x496
 3081 050b 04       		.byte	0x4
 3082 050c 00       		.byte	0
 3083 050d 1C       		.uleb128 0x1c
 3084 050e 08       		.byte	0x8
 3085 050f 12       		.byte	0x12
 3086 0510 7F       		.byte	0x7f
 3087 0511 4B050000 		.4byte	0x54b
 3088 0515 1D       		.uleb128 0x1d
 3089 0516 737700   		.ascii	"sw\000"
 3090 0519 8C       		.byte	0x8c
 3091 051a 6D040000 		.4byte	0x46d
 3092 051e 1D       		.uleb128 0x1d
 3093 051f 72647900 		.ascii	"rdy\000"
 3094 0523 99       		.byte	0x99
 3095 0524 98040000 		.4byte	0x498
 3096 0528 1D       		.uleb128 0x1d
 3097 0529 69737200 		.ascii	"isr\000"
 3098 052d A2       		.byte	0xa2
 3099 052e BB040000 		.4byte	0x4bb
 3100 0532 15       		.uleb128 0x15
 3101 0533 E4000000 		.4byte	.LASF80
 3102 0537 12       		.byte	0x12
 3103 0538 AB       		.byte	0xab
 3104 0539 07       		.byte	0x7
 3105 053a D2040000 		.4byte	0x4d2
 3106 053e 15       		.uleb128 0x15
 3107 053f 0A060000 		.4byte	.LASF81
 3108 0543 12       		.byte	0x12
 3109 0544 B8       		.byte	0xb8
 3110 0545 07       		.byte	0x7
 3111 0546 E9040000 		.4byte	0x4e9
 3112 054a 00       		.byte	0
 3113 054b 14       		.uleb128 0x14
 3114 054c 10       		.byte	0x10
 3115 054d 12       		.byte	0x12
 3116 054e 6C       		.byte	0x6c
 3117 054f 09       		.byte	0x9
 3118 0550 91050000 		.4byte	0x591
 3119 0554 1E       		.uleb128 0x1e
 3120 0555 99000000 		.4byte	.LASF82
 3121 0559 70       		.byte	0x70
 3122 055a DF000000 		.4byte	0xdf
 3123 055e 03       		.byte	0x3
 3124 055f 00       		.byte	0
 3125 0560 1E       		.uleb128 0x1e
 3126 0561 36020000 		.4byte	.LASF36
 3127 0565 74       		.byte	0x74
 3128 0566 DF000000 		.4byte	0xdf
 3129 056a 05       		.byte	0x5
 3130 056b 03       		.byte	0x3
 3131 056c 1E       		.uleb128 0x1e
 3132 056d D0040000 		.4byte	.LASF83
 3133 0571 7A       		.byte	0x7a
 3134 0572 DF000000 		.4byte	0xdf
ARM GAS  C:\Users\DEVELO~1\AppData\Local\Temp\cceHiR3y.s 			page 56


 3135 0576 18       		.byte	0x18
 3136 0577 08       		.byte	0x8
 3137 0578 01       		.uleb128 0x1
 3138 0579 B0050000 		.4byte	.LASF84
 3139 057d 12       		.byte	0x12
 3140 057e 7E       		.byte	0x7e
 3141 057f 19       		.byte	0x19
 3142 0580 5F030000 		.4byte	0x35f
 3143 0584 04       		.byte	0x4
 3144 0585 0D       		.uleb128 0xd
 3145 0586 7500     		.ascii	"u\000"
 3146 0588 12       		.byte	0x12
 3147 0589 B9       		.byte	0xb9
 3148 058a 05       		.byte	0x5
 3149 058b 0D050000 		.4byte	0x50d
 3150 058f 08       		.byte	0x8
 3151 0590 00       		.byte	0
 3152 0591 02       		.uleb128 0x2
 3153 0592 B2000000 		.4byte	.LASF85
 3154 0596 12       		.byte	0x12
 3155 0597 BA       		.byte	0xba
 3156 0598 03       		.byte	0x3
 3157 0599 4B050000 		.4byte	0x54b
 3158 059d 32       		.uleb128 0x32
 3159 059e 0808     		.2byte	0x808
 3160 05a0 12       		.byte	0x12
 3161 05a1 C0       		.byte	0xc0
 3162 05a2 09       		.byte	0x9
 3163 05a3 DC050000 		.4byte	0x5dc
 3164 05a7 01       		.uleb128 0x1
 3165 05a8 68050000 		.4byte	.LASF86
 3166 05ac 12       		.byte	0x12
 3167 05ad C4       		.byte	0xc4
 3168 05ae 19       		.byte	0x19
 3169 05af C7000000 		.4byte	0xc7
 3170 05b3 00       		.byte	0
 3171 05b4 01       		.uleb128 0x1
 3172 05b5 E6030000 		.4byte	.LASF87
 3173 05b9 12       		.byte	0x12
 3174 05ba C8       		.byte	0xc8
 3175 05bb 19       		.byte	0x19
 3176 05bc C7000000 		.4byte	0xc7
 3177 05c0 02       		.byte	0x2
 3178 05c1 0D       		.uleb128 0xd
 3179 05c2 70747200 		.ascii	"ptr\000"
 3180 05c6 12       		.byte	0x12
 3181 05c7 CC       		.byte	0xcc
 3182 05c8 1A       		.byte	0x1a
 3183 05c9 DC050000 		.4byte	0x5dc
 3184 05cd 04       		.byte	0x4
 3185 05ce 01       		.uleb128 0x1
 3186 05cf F8070000 		.4byte	.LASF88
 3187 05d3 12       		.byte	0x12
 3188 05d4 D0       		.byte	0xd0
 3189 05d5 19       		.byte	0x19
 3190 05d6 E1050000 		.4byte	0x5e1
 3191 05da 08       		.byte	0x8
ARM GAS  C:\Users\DEVELO~1\AppData\Local\Temp\cceHiR3y.s 			page 57


 3192 05db 00       		.byte	0
 3193 05dc 04       		.uleb128 0x4
 3194 05dd 91050000 		.4byte	0x591
 3195 05e1 0E       		.uleb128 0xe
 3196 05e2 91050000 		.4byte	0x591
 3197 05e6 F1050000 		.4byte	0x5f1
 3198 05ea 0F       		.uleb128 0xf
 3199 05eb 39000000 		.4byte	0x39
 3200 05ef 7F       		.byte	0x7f
 3201 05f0 00       		.byte	0
 3202 05f1 02       		.uleb128 0x2
 3203 05f2 A7020000 		.4byte	.LASF89
 3204 05f6 12       		.byte	0x12
 3205 05f7 D1       		.byte	0xd1
 3206 05f8 03       		.byte	0x3
 3207 05f9 9D050000 		.4byte	0x59d
 3208 05fd 18       		.uleb128 0x18
 3209 05fe 65000000 		.4byte	.LASF90
 3210 0602 24       		.byte	0x24
 3211 0603 06       		.byte	0x6
 3212 0604 E001     		.2byte	0x1e0
 3213 0606 08       		.byte	0x8
 3214 0607 83060000 		.4byte	0x683
 3215 060b 0B       		.uleb128 0xb
 3216 060c 723400   		.ascii	"r4\000"
 3217 060f 06       		.byte	0x6
 3218 0610 F901     		.2byte	0x1f9
 3219 0612 11       		.byte	0x11
 3220 0613 DF000000 		.4byte	0xdf
 3221 0617 00       		.byte	0
 3222 0618 0B       		.uleb128 0xb
 3223 0619 723500   		.ascii	"r5\000"
 3224 061c 06       		.byte	0x6
 3225 061d FA01     		.2byte	0x1fa
 3226 061f 11       		.byte	0x11
 3227 0620 DF000000 		.4byte	0xdf
 3228 0624 04       		.byte	0x4
 3229 0625 0B       		.uleb128 0xb
 3230 0626 723600   		.ascii	"r6\000"
 3231 0629 06       		.byte	0x6
 3232 062a FB01     		.2byte	0x1fb
 3233 062c 11       		.byte	0x11
 3234 062d DF000000 		.4byte	0xdf
 3235 0631 08       		.byte	0x8
 3236 0632 0B       		.uleb128 0xb
 3237 0633 723700   		.ascii	"r7\000"
 3238 0636 06       		.byte	0x6
 3239 0637 FC01     		.2byte	0x1fc
 3240 0639 11       		.byte	0x11
 3241 063a DF000000 		.4byte	0xdf
 3242 063e 0C       		.byte	0xc
 3243 063f 0B       		.uleb128 0xb
 3244 0640 723800   		.ascii	"r8\000"
 3245 0643 06       		.byte	0x6
 3246 0644 FD01     		.2byte	0x1fd
 3247 0646 11       		.byte	0x11
 3248 0647 DF000000 		.4byte	0xdf
ARM GAS  C:\Users\DEVELO~1\AppData\Local\Temp\cceHiR3y.s 			page 58


 3249 064b 10       		.byte	0x10
 3250 064c 0B       		.uleb128 0xb
 3251 064d 723900   		.ascii	"r9\000"
 3252 0650 06       		.byte	0x6
 3253 0651 FE01     		.2byte	0x1fe
 3254 0653 11       		.byte	0x11
 3255 0654 DF000000 		.4byte	0xdf
 3256 0658 14       		.byte	0x14
 3257 0659 0B       		.uleb128 0xb
 3258 065a 72313000 		.ascii	"r10\000"
 3259 065e 06       		.byte	0x6
 3260 065f FF01     		.2byte	0x1ff
 3261 0661 11       		.byte	0x11
 3262 0662 DF000000 		.4byte	0xdf
 3263 0666 18       		.byte	0x18
 3264 0667 0B       		.uleb128 0xb
 3265 0668 72313100 		.ascii	"r11\000"
 3266 066c 06       		.byte	0x6
 3267 066d 0002     		.2byte	0x200
 3268 066f 11       		.byte	0x11
 3269 0670 DF000000 		.4byte	0xdf
 3270 0674 1C       		.byte	0x1c
 3271 0675 0B       		.uleb128 0xb
 3272 0676 6C7200   		.ascii	"lr\000"
 3273 0679 06       		.byte	0x6
 3274 067a 0102     		.2byte	0x201
 3275 067c 11       		.byte	0x11
 3276 067d DF000000 		.4byte	0xdf
 3277 0681 20       		.byte	0x20
 3278 0682 00       		.byte	0
 3279 0683 18       		.uleb128 0x18
 3280 0684 34030000 		.4byte	.LASF91
 3281 0688 04       		.byte	0x4
 3282 0689 06       		.byte	0x6
 3283 068a 0A02     		.2byte	0x20a
 3284 068c 08       		.byte	0x8
 3285 068d 9F060000 		.4byte	0x69f
 3286 0691 0B       		.uleb128 0xb
 3287 0692 737000   		.ascii	"sp\000"
 3288 0695 06       		.byte	0x6
 3289 0696 0B02     		.2byte	0x20b
 3290 0698 1A       		.byte	0x1a
 3291 0699 9F060000 		.4byte	0x69f
 3292 069d 00       		.byte	0
 3293 069e 00       		.byte	0
 3294 069f 04       		.uleb128 0x4
 3295 06a0 FD050000 		.4byte	0x5fd
 3296 06a4 08       		.uleb128 0x8
 3297 06a5 33050000 		.4byte	.LASF92
 3298 06a9 18       		.byte	0x18
 3299 06aa 0F       		.byte	0xf
 3300 06ab 64       		.byte	0x64
 3301 06ac 10       		.byte	0x10
 3302 06ad D9060000 		.4byte	0x6d9
 3303 06b1 01       		.uleb128 0x1
 3304 06b2 E8070000 		.4byte	.LASF93
 3305 06b6 0F       		.byte	0xf
ARM GAS  C:\Users\DEVELO~1\AppData\Local\Temp\cceHiR3y.s 			page 59


 3306 06b7 68       		.byte	0x68
 3307 06b8 21       		.byte	0x21
 3308 06b9 27040000 		.4byte	0x427
 3309 06bd 00       		.byte	0
 3310 06be 01       		.uleb128 0x1
 3311 06bf A9060000 		.4byte	.LASF94
 3312 06c3 0F       		.byte	0xf
 3313 06c4 73       		.byte	0x73
 3314 06c5 21       		.byte	0x21
 3315 06c6 5F030000 		.4byte	0x35f
 3316 06ca 0C       		.byte	0xc
 3317 06cb 01       		.uleb128 0x1
 3318 06cc E3040000 		.4byte	.LASF95
 3319 06d0 0F       		.byte	0xf
 3320 06d1 79       		.byte	0x79
 3321 06d2 21       		.byte	0x21
 3322 06d3 F7000000 		.4byte	0xf7
 3323 06d7 10       		.byte	0x10
 3324 06d8 00       		.byte	0
 3325 06d9 02       		.uleb128 0x2
 3326 06da 9D040000 		.4byte	.LASF96
 3327 06de 0F       		.byte	0xf
 3328 06df 7B       		.byte	0x7b
 3329 06e0 03       		.byte	0x3
 3330 06e1 A4060000 		.4byte	0x6a4
 3331 06e5 08       		.uleb128 0x8
 3332 06e6 C8020000 		.4byte	.LASF97
 3333 06ea 08       		.byte	0x8
 3334 06eb 0F       		.byte	0xf
 3335 06ec 80       		.byte	0x80
 3336 06ed 10       		.byte	0x10
 3337 06ee 00070000 		.4byte	0x700
 3338 06f2 01       		.uleb128 0x1
 3339 06f3 E0030000 		.4byte	.LASF98
 3340 06f7 0F       		.byte	0xf
 3341 06f8 84       		.byte	0x84
 3342 06f9 21       		.byte	0x21
 3343 06fa A3030000 		.4byte	0x3a3
 3344 06fe 00       		.byte	0
 3345 06ff 00       		.byte	0
 3346 0700 02       		.uleb128 0x2
 3347 0701 34070000 		.4byte	.LASF99
 3348 0705 0F       		.byte	0xf
 3349 0706 85       		.byte	0x85
 3350 0707 03       		.byte	0x3
 3351 0708 E5060000 		.4byte	0x6e5
 3352 070c 02       		.uleb128 0x2
 3353 070d 20050000 		.4byte	.LASF100
 3354 0711 0F       		.byte	0xf
 3355 0712 8A       		.byte	0x8a
 3356 0713 14       		.byte	0x14
 3357 0714 91040000 		.4byte	0x491
 3358 0718 08       		.uleb128 0x8
 3359 0719 10010000 		.4byte	.LASF101
 3360 071d 08       		.byte	0x8
 3361 071e 0F       		.byte	0xf
 3362 071f 8F       		.byte	0x8f
ARM GAS  C:\Users\DEVELO~1\AppData\Local\Temp\cceHiR3y.s 			page 60


 3363 0720 10       		.byte	0x10
 3364 0721 33070000 		.4byte	0x733
 3365 0725 01       		.uleb128 0x1
 3366 0726 E0030000 		.4byte	.LASF98
 3367 072a 0F       		.byte	0xf
 3368 072b 93       		.byte	0x93
 3369 072c 21       		.byte	0x21
 3370 072d A3030000 		.4byte	0x3a3
 3371 0731 00       		.byte	0
 3372 0732 00       		.byte	0
 3373 0733 02       		.uleb128 0x2
 3374 0734 09070000 		.4byte	.LASF102
 3375 0738 0F       		.byte	0xf
 3376 0739 94       		.byte	0x94
 3377 073a 03       		.byte	0x3
 3378 073b 18070000 		.4byte	0x718
 3379 073f 1C       		.uleb128 0x1c
 3380 0740 0C       		.byte	0xc
 3381 0741 0F       		.byte	0xf
 3382 0742 A0       		.byte	0xa0
 3383 0743 6C070000 		.4byte	0x76c
 3384 0747 15       		.uleb128 0x15
 3385 0748 6F090000 		.4byte	.LASF103
 3386 074c 0F       		.byte	0xf
 3387 074d A4       		.byte	0xa4
 3388 074e 21       		.byte	0x21
 3389 074f 77030000 		.4byte	0x377
 3390 0753 15       		.uleb128 0x15
 3391 0754 E0030000 		.4byte	.LASF98
 3392 0758 0F       		.byte	0xf
 3393 0759 A8       		.byte	0xa8
 3394 075a 21       		.byte	0x21
 3395 075b A3030000 		.4byte	0x3a3
 3396 075f 15       		.uleb128 0x15
 3397 0760 1D080000 		.4byte	.LASF104
 3398 0764 0F       		.byte	0xf
 3399 0765 AC       		.byte	0xac
 3400 0766 21       		.byte	0x21
 3401 0767 E1030000 		.4byte	0x3e1
 3402 076b 00       		.byte	0
 3403 076c 1C       		.uleb128 0x1c
 3404 076d 04       		.byte	0x4
 3405 076e 0F       		.byte	0xf
 3406 076f EB       		.byte	0xeb
 3407 0770 D5070000 		.4byte	0x7d5
 3408 0774 15       		.uleb128 0x15
 3409 0775 1C000000 		.4byte	.LASF105
 3410 0779 0F       		.byte	0xf
 3411 077a F2       		.byte	0xf2
 3412 077b 21       		.byte	0x21
 3413 077c 44010000 		.4byte	0x144
 3414 0780 15       		.uleb128 0x15
 3415 0781 E9000000 		.4byte	.LASF106
 3416 0785 0F       		.byte	0xf
 3417 0786 F9       		.byte	0xf9
 3418 0787 21       		.byte	0x21
 3419 0788 44010000 		.4byte	0x144
ARM GAS  C:\Users\DEVELO~1\AppData\Local\Temp\cceHiR3y.s 			page 61


 3420 078c 17       		.uleb128 0x17
 3421 078d C7060000 		.4byte	.LASF78
 3422 0791 0001     		.2byte	0x100
 3423 0793 22       		.byte	0x22
 3424 0794 96040000 		.4byte	0x496
 3425 0798 17       		.uleb128 0x17
 3426 0799 8F030000 		.4byte	.LASF107
 3427 079d 0701     		.2byte	0x107
 3428 079f 22       		.byte	0x22
 3429 07a0 D5070000 		.4byte	0x7d5
 3430 07a4 17       		.uleb128 0x17
 3431 07a5 FD000000 		.4byte	.LASF108
 3432 07a9 0C01     		.2byte	0x10c
 3433 07ab 21       		.byte	0x21
 3434 07ac 44010000 		.4byte	0x144
 3435 07b0 17       		.uleb128 0x17
 3436 07b1 72030000 		.4byte	.LASF109
 3437 07b5 1501     		.2byte	0x115
 3438 07b7 22       		.byte	0x22
 3439 07b8 02080000 		.4byte	0x802
 3440 07bc 17       		.uleb128 0x17
 3441 07bd 48070000 		.4byte	.LASF110
 3442 07c1 1E01     		.2byte	0x11e
 3443 07c3 22       		.byte	0x22
 3444 07c4 3C080000 		.4byte	0x83c
 3445 07c8 17       		.uleb128 0x17
 3446 07c9 CE060000 		.4byte	.LASF111
 3447 07cd 2601     		.2byte	0x126
 3448 07cf 21       		.byte	0x21
 3449 07d0 50010000 		.4byte	0x150
 3450 07d4 00       		.byte	0
 3451 07d5 04       		.uleb128 0x4
 3452 07d6 0C070000 		.4byte	0x70c
 3453 07da 08       		.uleb128 0x8
 3454 07db 19070000 		.4byte	.LASF112
 3455 07df 0C       		.byte	0xc
 3456 07e0 13       		.byte	0x13
 3457 07e1 34       		.byte	0x34
 3458 07e2 10       		.byte	0x10
 3459 07e3 02080000 		.4byte	0x802
 3460 07e7 01       		.uleb128 0x1
 3461 07e8 E0030000 		.4byte	.LASF98
 3462 07ec 13       		.byte	0x13
 3463 07ed 35       		.byte	0x35
 3464 07ee 19       		.byte	0x19
 3465 07ef A3030000 		.4byte	0x3a3
 3466 07f3 00       		.byte	0
 3467 07f4 0D       		.uleb128 0xd
 3468 07f5 636E7400 		.ascii	"cnt\000"
 3469 07f9 13       		.byte	0x13
 3470 07fa 37       		.byte	0x37
 3471 07fb 19       		.byte	0x19
 3472 07fc 5C010000 		.4byte	0x15c
 3473 0800 08       		.byte	0x8
 3474 0801 00       		.byte	0
 3475 0802 04       		.uleb128 0x4
 3476 0803 DA070000 		.4byte	0x7da
ARM GAS  C:\Users\DEVELO~1\AppData\Local\Temp\cceHiR3y.s 			page 62


 3477 0807 08       		.uleb128 0x8
 3478 0808 2C090000 		.4byte	.LASF113
 3479 080c 10       		.byte	0x10
 3480 080d 14       		.byte	0x14
 3481 080e 39       		.byte	0x39
 3482 080f 08       		.byte	0x8
 3483 0810 3C080000 		.4byte	0x83c
 3484 0814 01       		.uleb128 0x1
 3485 0815 E0030000 		.4byte	.LASF98
 3486 0819 14       		.byte	0x14
 3487 081a 3A       		.byte	0x3a
 3488 081b 19       		.byte	0x19
 3489 081c A3030000 		.4byte	0x3a3
 3490 0820 00       		.byte	0
 3491 0821 01       		.uleb128 0x1
 3492 0822 4E020000 		.4byte	.LASF33
 3493 0826 14       		.byte	0x14
 3494 0827 3C       		.byte	0x3c
 3495 0828 1A       		.byte	0x1a
 3496 0829 91040000 		.4byte	0x491
 3497 082d 08       		.byte	0x8
 3498 082e 01       		.uleb128 0x1
 3499 082f 0B010000 		.4byte	.LASF68
 3500 0833 14       		.byte	0x14
 3501 0834 3E       		.byte	0x3e
 3502 0835 1A       		.byte	0x1a
 3503 0836 82090000 		.4byte	0x982
 3504 083a 0C       		.byte	0xc
 3505 083b 00       		.byte	0
 3506 083c 04       		.uleb128 0x4
 3507 083d 07080000 		.4byte	0x807
 3508 0841 04       		.uleb128 0x4
 3509 0842 5D020000 		.4byte	0x25d
 3510 0846 04       		.uleb128 0x4
 3511 0847 08010000 		.4byte	0x108
 3512 084b 18       		.uleb128 0x18
 3513 084c 65040000 		.4byte	.LASF114
 3514 0850 10       		.byte	0x10
 3515 0851 0F       		.byte	0xf
 3516 0852 5C01     		.2byte	0x15c
 3517 0854 10       		.byte	0x10
 3518 0855 74080000 		.4byte	0x874
 3519 0859 05       		.uleb128 0x5
 3520 085a 1D080000 		.4byte	.LASF104
 3521 085e 6101     		.2byte	0x161
 3522 0860 21       		.byte	0x21
 3523 0861 E1030000 		.4byte	0x3e1
 3524 0865 00       		.byte	0
 3525 0866 05       		.uleb128 0x5
 3526 0867 C5050000 		.4byte	.LASF115
 3527 086b 6501     		.2byte	0x165
 3528 086d 22       		.byte	0x22
 3529 086e 91040000 		.4byte	0x491
 3530 0872 0C       		.byte	0xc
 3531 0873 00       		.byte	0
 3532 0874 25       		.uleb128 0x25
 3533 0875 08000000 		.4byte	.LASF116
ARM GAS  C:\Users\DEVELO~1\AppData\Local\Temp\cceHiR3y.s 			page 63


 3534 0879 6601     		.2byte	0x166
 3535 087b 4B080000 		.4byte	0x84b
 3536 087f 18       		.uleb128 0x18
 3537 0880 88050000 		.4byte	.LASF117
 3538 0884 14       		.byte	0x14
 3539 0885 0F       		.byte	0xf
 3540 0886 6B01     		.2byte	0x16b
 3541 0888 10       		.byte	0x10
 3542 0889 CF080000 		.4byte	0x8cf
 3543 088d 05       		.uleb128 0x5
 3544 088e CD030000 		.4byte	.LASF34
 3545 0892 6F01     		.2byte	0x16f
 3546 0894 22       		.byte	0x22
 3547 0895 3D030000 		.4byte	0x33d
 3548 0899 00       		.byte	0
 3549 089a 05       		.uleb128 0x5
 3550 089b 16030000 		.4byte	.LASF118
 3551 089f 7501     		.2byte	0x175
 3552 08a1 22       		.byte	0x22
 3553 08a2 46080000 		.4byte	0x846
 3554 08a6 04       		.byte	0x4
 3555 08a7 05       		.uleb128 0x5
 3556 08a8 8C080000 		.4byte	.LASF119
 3557 08ac 7901     		.2byte	0x179
 3558 08ae 22       		.byte	0x22
 3559 08af 46080000 		.4byte	0x846
 3560 08b3 08       		.byte	0x8
 3561 08b4 05       		.uleb128 0x5
 3562 08b5 62030000 		.4byte	.LASF120
 3563 08b9 7F01     		.2byte	0x17f
 3564 08bb 22       		.byte	0x22
 3565 08bc 46080000 		.4byte	0x846
 3566 08c0 0C       		.byte	0xc
 3567 08c1 05       		.uleb128 0x5
 3568 08c2 7E090000 		.4byte	.LASF121
 3569 08c6 8301     		.2byte	0x183
 3570 08c8 22       		.byte	0x22
 3571 08c9 46080000 		.4byte	0x846
 3572 08cd 10       		.byte	0x10
 3573 08ce 00       		.byte	0
 3574 08cf 25       		.uleb128 0x25
 3575 08d0 AE080000 		.4byte	.LASF122
 3576 08d4 8501     		.2byte	0x185
 3577 08d6 7F080000 		.4byte	0x87f
 3578 08da 07       		.uleb128 0x7
 3579 08db CF080000 		.4byte	0x8cf
 3580 08df 04       		.uleb128 0x4
 3581 08e0 DA080000 		.4byte	0x8da
 3582 08e4 33       		.uleb128 0x33
 3583 08e5 63683000 		.ascii	"ch0\000"
 3584 08e9 04       		.byte	0x4
 3585 08ea 4101     		.2byte	0x141
 3586 08ec 16       		.byte	0x16
 3587 08ed 5D020000 		.4byte	0x25d
 3588 08f1 02       		.uleb128 0x2
 3589 08f2 00000000 		.4byte	.LASF123
 3590 08f6 08       		.byte	0x8
ARM GAS  C:\Users\DEVELO~1\AppData\Local\Temp\cceHiR3y.s 			page 64


 3591 08f7 34       		.byte	0x34
 3592 08f8 10       		.byte	0x10
 3593 08f9 FD080000 		.4byte	0x8fd
 3594 08fd 04       		.uleb128 0x4
 3595 08fe 02090000 		.4byte	0x902
 3596 0902 34       		.uleb128 0x34
 3597 0903 0D090000 		.4byte	0x90d
 3598 0907 0C       		.uleb128 0xc
 3599 0908 96040000 		.4byte	0x496
 3600 090c 00       		.byte	0
 3601 090d 14       		.uleb128 0x14
 3602 090e 18       		.byte	0x18
 3603 090f 08       		.byte	0x8
 3604 0910 39       		.byte	0x39
 3605 0911 09       		.byte	0x9
 3606 0912 65090000 		.4byte	0x965
 3607 0916 01       		.uleb128 0x1
 3608 0917 CD030000 		.4byte	.LASF34
 3609 091b 08       		.byte	0x8
 3610 091c 3D       		.byte	0x3d
 3611 091d 16       		.byte	0x16
 3612 091e 3D030000 		.4byte	0x33d
 3613 0922 00       		.byte	0
 3614 0923 01       		.uleb128 0x1
 3615 0924 9E050000 		.4byte	.LASF124
 3616 0928 08       		.byte	0x8
 3617 0929 41       		.byte	0x41
 3618 092a 16       		.byte	0x16
 3619 092b 46080000 		.4byte	0x846
 3620 092f 04       		.byte	0x4
 3621 0930 01       		.uleb128 0x1
 3622 0931 5B070000 		.4byte	.LASF125
 3623 0935 08       		.byte	0x8
 3624 0936 45       		.byte	0x45
 3625 0937 16       		.byte	0x16
 3626 0938 46080000 		.4byte	0x846
 3627 093c 08       		.byte	0x8
 3628 093d 01       		.uleb128 0x1
 3629 093e B5050000 		.4byte	.LASF74
 3630 0942 08       		.byte	0x8
 3631 0943 49       		.byte	0x49
 3632 0944 15       		.byte	0x15
 3633 0945 38010000 		.4byte	0x138
 3634 0949 0C       		.byte	0xc
 3635 094a 01       		.uleb128 0x1
 3636 094b 23000000 		.4byte	.LASF126
 3637 094f 08       		.byte	0x8
 3638 0950 4D       		.byte	0x4d
 3639 0951 15       		.byte	0x15
 3640 0952 F1080000 		.4byte	0x8f1
 3641 0956 10       		.byte	0x10
 3642 0957 0D       		.uleb128 0xd
 3643 0958 61726700 		.ascii	"arg\000"
 3644 095c 08       		.byte	0x8
 3645 095d 51       		.byte	0x51
 3646 095e 16       		.byte	0x16
 3647 095f 96040000 		.4byte	0x496
ARM GAS  C:\Users\DEVELO~1\AppData\Local\Temp\cceHiR3y.s 			page 65


 3648 0963 14       		.byte	0x14
 3649 0964 00       		.byte	0
 3650 0965 02       		.uleb128 0x2
 3651 0966 9E000000 		.4byte	.LASF127
 3652 096a 08       		.byte	0x8
 3653 096b 58       		.byte	0x58
 3654 096c 03       		.byte	0x3
 3655 096d 0D090000 		.4byte	0x90d
 3656 0971 07       		.uleb128 0x7
 3657 0972 65090000 		.4byte	0x965
 3658 0976 02       		.uleb128 0x2
 3659 0977 26030000 		.4byte	.LASF128
 3660 097b 14       		.byte	0x14
 3661 097c 34       		.byte	0x34
 3662 097d 19       		.byte	0x19
 3663 097e 07080000 		.4byte	0x807
 3664 0982 04       		.uleb128 0x4
 3665 0983 76090000 		.4byte	0x976
 3666 0987 0A       		.uleb128 0xa
 3667 0988 01       		.byte	0x1
 3668 0989 02       		.byte	0x2
 3669 098a 3E060000 		.4byte	.LASF129
 3670 098e 02       		.uleb128 0x2
 3671 098f C0000000 		.4byte	.LASF130
 3672 0993 15       		.byte	0x15
 3673 0994 47       		.byte	0x47
 3674 0995 11       		.byte	0x11
 3675 0996 9A090000 		.4byte	0x99a
 3676 099a 04       		.uleb128 0x4
 3677 099b 9F090000 		.4byte	0x99f
 3678 099f 35       		.uleb128 0x35
 3679 09a0 96040000 		.4byte	0x496
 3680 09a4 B3090000 		.4byte	0x9b3
 3681 09a8 0C       		.uleb128 0xc
 3682 09a9 2D000000 		.4byte	0x2d
 3683 09ad 0C       		.uleb128 0xc
 3684 09ae 39000000 		.4byte	0x39
 3685 09b2 00       		.byte	0
 3686 09b3 08       		.uleb128 0x8
 3687 09b4 3F000000 		.4byte	.LASF131
 3688 09b8 04       		.byte	0x4
 3689 09b9 16       		.byte	0x16
 3690 09ba 38       		.byte	0x38
 3691 09bb 08       		.byte	0x8
 3692 09bc CE090000 		.4byte	0x9ce
 3693 09c0 01       		.uleb128 0x1
 3694 09c1 0B010000 		.4byte	.LASF68
 3695 09c5 16       		.byte	0x16
 3696 09c6 39       		.byte	0x39
 3697 09c7 1A       		.byte	0x1a
 3698 09c8 CE090000 		.4byte	0x9ce
 3699 09cc 00       		.byte	0
 3700 09cd 00       		.byte	0
 3701 09ce 04       		.uleb128 0x4
 3702 09cf B3090000 		.4byte	0x9b3
 3703 09d3 14       		.uleb128 0x14
 3704 09d4 10       		.byte	0x10
ARM GAS  C:\Users\DEVELO~1\AppData\Local\Temp\cceHiR3y.s 			page 66


 3705 09d5 16       		.byte	0x16
 3706 09d6 40       		.byte	0x40
 3707 09d7 09       		.byte	0x9
 3708 09d8 110A0000 		.4byte	0xa11
 3709 09dc 01       		.uleb128 0x1
 3710 09dd 0B010000 		.4byte	.LASF68
 3711 09e1 16       		.byte	0x16
 3712 09e2 41       		.byte	0x41
 3713 09e3 1A       		.byte	0x1a
 3714 09e4 CE090000 		.4byte	0x9ce
 3715 09e8 00       		.byte	0
 3716 09e9 01       		.uleb128 0x1
 3717 09ea A4050000 		.4byte	.LASF132
 3718 09ee 16       		.byte	0x16
 3719 09ef 42       		.byte	0x42
 3720 09f0 19       		.byte	0x19
 3721 09f1 2D000000 		.4byte	0x2d
 3722 09f5 04       		.byte	0x4
 3723 09f6 01       		.uleb128 0x1
 3724 09f7 2E030000 		.4byte	.LASF133
 3725 09fb 16       		.byte	0x16
 3726 09fc 44       		.byte	0x44
 3727 09fd 19       		.byte	0x19
 3728 09fe 39000000 		.4byte	0x39
 3729 0a02 08       		.byte	0x8
 3730 0a03 01       		.uleb128 0x1
 3731 0a04 90000000 		.4byte	.LASF134
 3732 0a08 16       		.byte	0x16
 3733 0a09 45       		.byte	0x45
 3734 0a0a 19       		.byte	0x19
 3735 0a0b 8E090000 		.4byte	0x98e
 3736 0a0f 0C       		.byte	0xc
 3737 0a10 00       		.byte	0
 3738 0a11 02       		.uleb128 0x2
 3739 0a12 BF030000 		.4byte	.LASF135
 3740 0a16 16       		.byte	0x16
 3741 0a17 47       		.byte	0x47
 3742 0a18 03       		.byte	0x3
 3743 0a19 D3090000 		.4byte	0x9d3
 3744 0a1d 26       		.uleb128 0x26
 3745 0a1e 35090000 		.4byte	.LASF136
 3746 0a22 9F       		.byte	0x9f
 3747 0a23 36       		.uleb128 0x36
 3748 0a24 D5060000 		.4byte	.LASF202
 3749 0a28 03       		.byte	0x3
 3750 0a29 3A       		.byte	0x3a
 3751 0a2a 0D       		.byte	0xd
 3752 0a2b 5F030000 		.4byte	0x35f
 3753 0a2f 27       		.uleb128 0x27
 3754 0a30 94060000 		.4byte	.LASF142
 3755 0a34 99       		.byte	0x99
 3756 0a35 09       		.byte	0x9
 3757 0a36 44010000 		.4byte	0x144
 3758 0a3a 490A0000 		.4byte	0xa49
 3759 0a3e 0C       		.uleb128 0xc
 3760 0a3f 20010000 		.4byte	0x120
 3761 0a43 0C       		.uleb128 0xc
ARM GAS  C:\Users\DEVELO~1\AppData\Local\Temp\cceHiR3y.s 			page 67


 3762 0a44 6B030000 		.4byte	0x36b
 3763 0a48 00       		.byte	0
 3764 0a49 26       		.uleb128 0x26
 3765 0a4a E9080000 		.4byte	.LASF137
 3766 0a4e 9B       		.byte	0x9b
 3767 0a4f 19       		.uleb128 0x19
 3768 0a50 26070000 		.4byte	.LASF138
 3769 0a54 17       		.byte	0x17
 3770 0a55 98       		.byte	0x98
 3771 0a56 600A0000 		.4byte	0xa60
 3772 0a5a 0C       		.uleb128 0xc
 3773 0a5b 20010000 		.4byte	0x120
 3774 0a5f 00       		.byte	0
 3775 0a60 19       		.uleb128 0x19
 3776 0a61 10090000 		.4byte	.LASF139
 3777 0a65 16       		.byte	0x16
 3778 0a66 9C       		.byte	0x9c
 3779 0a67 760A0000 		.4byte	0xa76
 3780 0a6b 0C       		.uleb128 0xc
 3781 0a6c 760A0000 		.4byte	0xa76
 3782 0a70 0C       		.uleb128 0xc
 3783 0a71 96040000 		.4byte	0x496
 3784 0a75 00       		.byte	0
 3785 0a76 04       		.uleb128 0x4
 3786 0a77 110A0000 		.4byte	0xa11
 3787 0a7b 19       		.uleb128 0x19
 3788 0a7c 4B000000 		.4byte	.LASF140
 3789 0a80 18       		.byte	0x18
 3790 0a81 80       		.byte	0x80
 3791 0a82 8C0A0000 		.4byte	0xa8c
 3792 0a86 0C       		.uleb128 0xc
 3793 0a87 96040000 		.4byte	0x496
 3794 0a8b 00       		.byte	0
 3795 0a8c 19       		.uleb128 0x19
 3796 0a8d 9B080000 		.4byte	.LASF141
 3797 0a91 17       		.byte	0x17
 3798 0a92 9A       		.byte	0x9a
 3799 0a93 A20A0000 		.4byte	0xaa2
 3800 0a97 0C       		.uleb128 0xc
 3801 0a98 91040000 		.4byte	0x491
 3802 0a9c 0C       		.uleb128 0xc
 3803 0a9d 44010000 		.4byte	0x144
 3804 0aa1 00       		.byte	0
 3805 0aa2 27       		.uleb128 0x27
 3806 0aa3 BF070000 		.4byte	.LASF143
 3807 0aa7 97       		.byte	0x97
 3808 0aa8 0D       		.byte	0xd
 3809 0aa9 91040000 		.4byte	0x491
 3810 0aad B70A0000 		.4byte	0xab7
 3811 0ab1 0C       		.uleb128 0xc
 3812 0ab2 91040000 		.4byte	0x491
 3813 0ab6 00       		.byte	0
 3814 0ab7 37       		.uleb128 0x37
 3815 0ab8 180A0000 		.4byte	.LASF144
 3816 0abc 06       		.byte	0x6
 3817 0abd F602     		.2byte	0x2f6
 3818 0abf 08       		.byte	0x8
ARM GAS  C:\Users\DEVELO~1\AppData\Local\Temp\cceHiR3y.s 			page 68


 3819 0ac0 10       		.uleb128 0x10
 3820 0ac1 2E000000 		.4byte	.LASF145
 3821 0ac5 8803     		.2byte	0x388
 3822 0ac7 00000000 		.4byte	.LFB371
 3823 0acb 2C000000 		.4byte	.LFE371-.LFB371
 3824 0acf 01       		.uleb128 0x1
 3825 0ad0 9C       		.byte	0x9c
 3826 0ad1 F60A0000 		.4byte	0xaf6
 3827 0ad5 03       		.uleb128 0x3
 3828 0ad6 74717000 		.ascii	"tqp\000"
 3829 0ada 09       		.byte	0x9
 3830 0adb 8803     		.2byte	0x388
 3831 0add 28       		.byte	0x28
 3832 0ade F60A0000 		.4byte	0xaf6
 3833 0ae2 02       		.uleb128 0x2
 3834 0ae3 91       		.byte	0x91
 3835 0ae4 74       		.sleb128 -12
 3836 0ae5 03       		.uleb128 0x3
 3837 0ae6 6D736700 		.ascii	"msg\000"
 3838 0aea 09       		.byte	0x9
 3839 0aeb 8803     		.2byte	0x388
 3840 0aed 33       		.byte	0x33
 3841 0aee 44010000 		.4byte	0x144
 3842 0af2 02       		.uleb128 0x2
 3843 0af3 91       		.byte	0x91
 3844 0af4 70       		.sleb128 -16
 3845 0af5 00       		.byte	0
 3846 0af6 04       		.uleb128 0x4
 3847 0af7 33070000 		.4byte	0x733
 3848 0afb 10       		.uleb128 0x10
 3849 0afc B6020000 		.4byte	.LASF146
 3850 0b00 7903     		.2byte	0x379
 3851 0b02 00000000 		.4byte	.LFB370
 3852 0b06 28000000 		.4byte	.LFE370-.LFB370
 3853 0b0a 01       		.uleb128 0x1
 3854 0b0b 9C       		.byte	0x9c
 3855 0b0c 310B0000 		.4byte	0xb31
 3856 0b10 03       		.uleb128 0x3
 3857 0b11 74717000 		.ascii	"tqp\000"
 3858 0b15 09       		.byte	0x9
 3859 0b16 7903     		.2byte	0x379
 3860 0b18 29       		.byte	0x29
 3861 0b19 F60A0000 		.4byte	0xaf6
 3862 0b1d 02       		.uleb128 0x2
 3863 0b1e 91       		.byte	0x91
 3864 0b1f 74       		.sleb128 -12
 3865 0b20 03       		.uleb128 0x3
 3866 0b21 6D736700 		.ascii	"msg\000"
 3867 0b25 09       		.byte	0x9
 3868 0b26 7903     		.2byte	0x379
 3869 0b28 34       		.byte	0x34
 3870 0b29 44010000 		.4byte	0x144
 3871 0b2d 02       		.uleb128 0x2
 3872 0b2e 91       		.byte	0x91
 3873 0b2f 70       		.sleb128 -16
 3874 0b30 00       		.byte	0
 3875 0b31 11       		.uleb128 0x11
ARM GAS  C:\Users\DEVELO~1\AppData\Local\Temp\cceHiR3y.s 			page 69


 3876 0b32 030A0000 		.4byte	.LASF153
 3877 0b36 6403     		.2byte	0x364
 3878 0b38 07       		.byte	0x7
 3879 0b39 44010000 		.4byte	0x144
 3880 0b3d 00000000 		.4byte	.LFB369
 3881 0b41 42000000 		.4byte	.LFE369-.LFB369
 3882 0b45 01       		.uleb128 0x1
 3883 0b46 9C       		.byte	0x9c
 3884 0b47 7B0B0000 		.4byte	0xb7b
 3885 0b4b 03       		.uleb128 0x3
 3886 0b4c 74717000 		.ascii	"tqp\000"
 3887 0b50 09       		.byte	0x9
 3888 0b51 6403     		.2byte	0x364
 3889 0b53 2D       		.byte	0x2d
 3890 0b54 F60A0000 		.4byte	0xaf6
 3891 0b58 02       		.uleb128 0x2
 3892 0b59 91       		.byte	0x91
 3893 0b5a 6C       		.sleb128 -20
 3894 0b5b 09       		.uleb128 0x9
 3895 0b5c B7030000 		.4byte	.LASF147
 3896 0b60 09       		.byte	0x9
 3897 0b61 6403     		.2byte	0x364
 3898 0b63 40       		.byte	0x40
 3899 0b64 6B030000 		.4byte	0x36b
 3900 0b68 02       		.uleb128 0x2
 3901 0b69 91       		.byte	0x91
 3902 0b6a 68       		.sleb128 -24
 3903 0b6b 16       		.uleb128 0x16
 3904 0b6c 1B040000 		.4byte	.LASF150
 3905 0b70 6503     		.2byte	0x365
 3906 0b72 0D       		.byte	0xd
 3907 0b73 91040000 		.4byte	0x491
 3908 0b77 02       		.uleb128 0x2
 3909 0b78 91       		.byte	0x91
 3910 0b79 74       		.sleb128 -12
 3911 0b7a 00       		.byte	0
 3912 0b7b 10       		.uleb128 0x10
 3913 0b7c 4F070000 		.4byte	.LASF148
 3914 0b80 4603     		.2byte	0x346
 3915 0b82 00000000 		.4byte	.LFB368
 3916 0b86 22000000 		.4byte	.LFE368-.LFB368
 3917 0b8a 01       		.uleb128 0x1
 3918 0b8b 9C       		.byte	0x9c
 3919 0b8c B10B0000 		.4byte	0xbb1
 3920 0b90 03       		.uleb128 0x3
 3921 0b91 74727000 		.ascii	"trp\000"
 3922 0b95 09       		.byte	0x9
 3923 0b96 4603     		.2byte	0x346
 3924 0b98 26       		.byte	0x26
 3925 0b99 D5070000 		.4byte	0x7d5
 3926 0b9d 02       		.uleb128 0x2
 3927 0b9e 91       		.byte	0x91
 3928 0b9f 74       		.sleb128 -12
 3929 0ba0 03       		.uleb128 0x3
 3930 0ba1 6D736700 		.ascii	"msg\000"
 3931 0ba5 09       		.byte	0x9
 3932 0ba6 4603     		.2byte	0x346
ARM GAS  C:\Users\DEVELO~1\AppData\Local\Temp\cceHiR3y.s 			page 70


 3933 0ba8 31       		.byte	0x31
 3934 0ba9 44010000 		.4byte	0x144
 3935 0bad 02       		.uleb128 0x2
 3936 0bae 91       		.byte	0x91
 3937 0baf 70       		.sleb128 -16
 3938 0bb0 00       		.byte	0
 3939 0bb1 10       		.uleb128 0x10
 3940 0bb2 6F080000 		.4byte	.LASF149
 3941 0bb6 3003     		.2byte	0x330
 3942 0bb8 00000000 		.4byte	.LFB367
 3943 0bbc 2E000000 		.4byte	.LFE367-.LFB367
 3944 0bc0 01       		.uleb128 0x1
 3945 0bc1 9C       		.byte	0x9c
 3946 0bc2 090C0000 		.4byte	0xc09
 3947 0bc6 03       		.uleb128 0x3
 3948 0bc7 74727000 		.ascii	"trp\000"
 3949 0bcb 09       		.byte	0x9
 3950 0bcc 3003     		.2byte	0x330
 3951 0bce 27       		.byte	0x27
 3952 0bcf D5070000 		.4byte	0x7d5
 3953 0bd3 02       		.uleb128 0x2
 3954 0bd4 91       		.byte	0x91
 3955 0bd5 6C       		.sleb128 -20
 3956 0bd6 03       		.uleb128 0x3
 3957 0bd7 6D736700 		.ascii	"msg\000"
 3958 0bdb 09       		.byte	0x9
 3959 0bdc 3003     		.2byte	0x330
 3960 0bde 32       		.byte	0x32
 3961 0bdf 44010000 		.4byte	0x144
 3962 0be3 02       		.uleb128 0x2
 3963 0be4 91       		.byte	0x91
 3964 0be5 68       		.sleb128 -24
 3965 0be6 06       		.uleb128 0x6
 3966 0be7 E2060000 		.4byte	.LASF152
 3967 0beb 190C0000 		.4byte	0xc19
 3968 0bef 28       		.uleb128 0x28
 3969 0bf0 12000000 		.4byte	.LBB23
 3970 0bf4 14000000 		.4byte	.LBE23-.LBB23
 3971 0bf8 13       		.uleb128 0x13
 3972 0bf9 747000   		.ascii	"tp\000"
 3973 0bfc 09       		.byte	0x9
 3974 0bfd 3303     		.2byte	0x333
 3975 0bff 0F       		.byte	0xf
 3976 0c00 91040000 		.4byte	0x491
 3977 0c04 02       		.uleb128 0x2
 3978 0c05 91       		.byte	0x91
 3979 0c06 74       		.sleb128 -12
 3980 0c07 00       		.byte	0
 3981 0c08 00       		.byte	0
 3982 0c09 0E       		.uleb128 0xe
 3983 0c0a 4E030000 		.4byte	0x34e
 3984 0c0e 190C0000 		.4byte	0xc19
 3985 0c12 0F       		.uleb128 0xf
 3986 0c13 39000000 		.4byte	0x39
 3987 0c17 0C       		.byte	0xc
 3988 0c18 00       		.byte	0
 3989 0c19 07       		.uleb128 0x7
ARM GAS  C:\Users\DEVELO~1\AppData\Local\Temp\cceHiR3y.s 			page 71


 3990 0c1a 090C0000 		.4byte	0xc09
 3991 0c1e 10       		.uleb128 0x10
 3992 0c1f 43090000 		.4byte	.LASF151
 3993 0c23 1903     		.2byte	0x319
 3994 0c25 00000000 		.4byte	.LFB366
 3995 0c29 32000000 		.4byte	.LFE366-.LFB366
 3996 0c2d 01       		.uleb128 0x1
 3997 0c2e 9C       		.byte	0x9c
 3998 0c2f 760C0000 		.4byte	0xc76
 3999 0c33 03       		.uleb128 0x3
 4000 0c34 74727000 		.ascii	"trp\000"
 4001 0c38 09       		.byte	0x9
 4002 0c39 1903     		.2byte	0x319
 4003 0c3b 27       		.byte	0x27
 4004 0c3c D5070000 		.4byte	0x7d5
 4005 0c40 02       		.uleb128 0x2
 4006 0c41 91       		.byte	0x91
 4007 0c42 6C       		.sleb128 -20
 4008 0c43 03       		.uleb128 0x3
 4009 0c44 6D736700 		.ascii	"msg\000"
 4010 0c48 09       		.byte	0x9
 4011 0c49 1903     		.2byte	0x319
 4012 0c4b 32       		.byte	0x32
 4013 0c4c 44010000 		.4byte	0x144
 4014 0c50 02       		.uleb128 0x2
 4015 0c51 91       		.byte	0x91
 4016 0c52 68       		.sleb128 -24
 4017 0c53 06       		.uleb128 0x6
 4018 0c54 E2060000 		.4byte	.LASF152
 4019 0c58 190C0000 		.4byte	0xc19
 4020 0c5c 28       		.uleb128 0x28
 4021 0c5d 12000000 		.4byte	.LBB22
 4022 0c61 18000000 		.4byte	.LBE22-.LBB22
 4023 0c65 13       		.uleb128 0x13
 4024 0c66 747000   		.ascii	"tp\000"
 4025 0c69 09       		.byte	0x9
 4026 0c6a 1C03     		.2byte	0x31c
 4027 0c6c 0F       		.byte	0xf
 4028 0c6d 91040000 		.4byte	0x491
 4029 0c71 02       		.uleb128 0x2
 4030 0c72 91       		.byte	0x91
 4031 0c73 74       		.sleb128 -12
 4032 0c74 00       		.byte	0
 4033 0c75 00       		.byte	0
 4034 0c76 11       		.uleb128 0x11
 4035 0c77 F6040000 		.4byte	.LASF154
 4036 0c7b 0003     		.2byte	0x300
 4037 0c7d 07       		.byte	0x7
 4038 0c7e 44010000 		.4byte	0x144
 4039 0c82 00000000 		.4byte	.LFB365
 4040 0c86 44000000 		.4byte	.LFE365-.LFB365
 4041 0c8a 01       		.uleb128 0x1
 4042 0c8b 9C       		.byte	0x9c
 4043 0c8c C90C0000 		.4byte	0xcc9
 4044 0c90 03       		.uleb128 0x3
 4045 0c91 74727000 		.ascii	"trp\000"
 4046 0c95 09       		.byte	0x9
ARM GAS  C:\Users\DEVELO~1\AppData\Local\Temp\cceHiR3y.s 			page 72


 4047 0c96 0003     		.2byte	0x300
 4048 0c98 30       		.byte	0x30
 4049 0c99 D5070000 		.4byte	0x7d5
 4050 0c9d 02       		.uleb128 0x2
 4051 0c9e 91       		.byte	0x91
 4052 0c9f 6C       		.sleb128 -20
 4053 0ca0 09       		.uleb128 0x9
 4054 0ca1 B7030000 		.4byte	.LASF147
 4055 0ca5 09       		.byte	0x9
 4056 0ca6 0003     		.2byte	0x300
 4057 0ca8 43       		.byte	0x43
 4058 0ca9 6B030000 		.4byte	0x36b
 4059 0cad 02       		.uleb128 0x2
 4060 0cae 91       		.byte	0x91
 4061 0caf 68       		.sleb128 -24
 4062 0cb0 13       		.uleb128 0x13
 4063 0cb1 747000   		.ascii	"tp\000"
 4064 0cb4 09       		.byte	0x9
 4065 0cb5 0103     		.2byte	0x301
 4066 0cb7 0D       		.byte	0xd
 4067 0cb8 91040000 		.4byte	0x491
 4068 0cbc 02       		.uleb128 0x2
 4069 0cbd 91       		.byte	0x91
 4070 0cbe 74       		.sleb128 -12
 4071 0cbf 06       		.uleb128 0x6
 4072 0cc0 E2060000 		.4byte	.LASF152
 4073 0cc4 D90C0000 		.4byte	0xcd9
 4074 0cc8 00       		.byte	0
 4075 0cc9 0E       		.uleb128 0xe
 4076 0cca 4E030000 		.4byte	0x34e
 4077 0cce D90C0000 		.4byte	0xcd9
 4078 0cd2 0F       		.uleb128 0xf
 4079 0cd3 39000000 		.4byte	0x39
 4080 0cd7 14       		.byte	0x14
 4081 0cd8 00       		.byte	0
 4082 0cd9 07       		.uleb128 0x7
 4083 0cda C90C0000 		.4byte	0xcc9
 4084 0cde 11       		.uleb128 0x11
 4085 0cdf D2030000 		.4byte	.LASF155
 4086 0ce3 E102     		.2byte	0x2e1
 4087 0ce5 07       		.byte	0x7
 4088 0ce6 44010000 		.4byte	0x144
 4089 0cea 00000000 		.4byte	.LFB364
 4090 0cee 30000000 		.4byte	.LFE364-.LFB364
 4091 0cf2 01       		.uleb128 0x1
 4092 0cf3 9C       		.byte	0x9c
 4093 0cf4 210D0000 		.4byte	0xd21
 4094 0cf8 03       		.uleb128 0x3
 4095 0cf9 74727000 		.ascii	"trp\000"
 4096 0cfd 09       		.byte	0x9
 4097 0cfe E102     		.2byte	0x2e1
 4098 0d00 29       		.byte	0x29
 4099 0d01 D5070000 		.4byte	0x7d5
 4100 0d05 02       		.uleb128 0x2
 4101 0d06 91       		.byte	0x91
 4102 0d07 6C       		.sleb128 -20
 4103 0d08 13       		.uleb128 0x13
ARM GAS  C:\Users\DEVELO~1\AppData\Local\Temp\cceHiR3y.s 			page 73


 4104 0d09 747000   		.ascii	"tp\000"
 4105 0d0c 09       		.byte	0x9
 4106 0d0d E202     		.2byte	0x2e2
 4107 0d0f 0D       		.byte	0xd
 4108 0d10 91040000 		.4byte	0x491
 4109 0d14 02       		.uleb128 0x2
 4110 0d15 91       		.byte	0x91
 4111 0d16 74       		.sleb128 -12
 4112 0d17 06       		.uleb128 0x6
 4113 0d18 E2060000 		.4byte	.LASF152
 4114 0d1c 310D0000 		.4byte	0xd31
 4115 0d20 00       		.byte	0
 4116 0d21 0E       		.uleb128 0xe
 4117 0d22 4E030000 		.4byte	0x34e
 4118 0d26 310D0000 		.4byte	0xd31
 4119 0d2a 0F       		.uleb128 0xf
 4120 0d2b 39000000 		.4byte	0x39
 4121 0d2f 0D       		.byte	0xd
 4122 0d30 00       		.byte	0
 4123 0d31 07       		.uleb128 0x7
 4124 0d32 210D0000 		.4byte	0xd21
 4125 0d36 38       		.uleb128 0x38
 4126 0d37 21090000 		.4byte	.LASF203
 4127 0d3b 09       		.byte	0x9
 4128 0d3c D002     		.2byte	0x2d0
 4129 0d3e 06       		.byte	0x6
 4130 0d3f 00000000 		.4byte	.LFB363
 4131 0d43 14000000 		.4byte	.LFE363-.LFB363
 4132 0d47 01       		.uleb128 0x1
 4133 0d48 9C       		.byte	0x9c
 4134 0d49 11       		.uleb128 0x11
 4135 0d4a 78000000 		.4byte	.LASF156
 4136 0d4e BC02     		.2byte	0x2bc
 4137 0d50 0B       		.byte	0xb
 4138 0d51 5F030000 		.4byte	0x35f
 4139 0d55 00000000 		.4byte	.LFB362
 4140 0d59 42000000 		.4byte	.LFE362-.LFB362
 4141 0d5d 01       		.uleb128 0x1
 4142 0d5e 9C       		.byte	0x9c
 4143 0d5f 930D0000 		.4byte	0xd93
 4144 0d63 09       		.uleb128 0x9
 4145 0d64 60000000 		.4byte	.LASF71
 4146 0d68 09       		.byte	0x9
 4147 0d69 BC02     		.2byte	0x2bc
 4148 0d6b 2D       		.byte	0x2d
 4149 0d6c 5F030000 		.4byte	0x35f
 4150 0d70 02       		.uleb128 0x2
 4151 0d71 91       		.byte	0x91
 4152 0d72 6C       		.sleb128 -20
 4153 0d73 09       		.uleb128 0x9
 4154 0d74 0B010000 		.4byte	.LASF68
 4155 0d78 09       		.byte	0x9
 4156 0d79 BC02     		.2byte	0x2bc
 4157 0d7b 3D       		.byte	0x3d
 4158 0d7c 5F030000 		.4byte	0x35f
 4159 0d80 02       		.uleb128 0x2
 4160 0d81 91       		.byte	0x91
ARM GAS  C:\Users\DEVELO~1\AppData\Local\Temp\cceHiR3y.s 			page 74


 4161 0d82 68       		.sleb128 -24
 4162 0d83 16       		.uleb128 0x16
 4163 0d84 B0050000 		.4byte	.LASF84
 4164 0d88 BD02     		.2byte	0x2bd
 4165 0d8a 0D       		.byte	0xd
 4166 0d8b 5F030000 		.4byte	0x35f
 4167 0d8f 02       		.uleb128 0x2
 4168 0d90 91       		.byte	0x91
 4169 0d91 74       		.sleb128 -12
 4170 0d92 00       		.byte	0
 4171 0d93 10       		.uleb128 0x10
 4172 0d94 86070000 		.4byte	.LASF157
 4173 0d98 A302     		.2byte	0x2a3
 4174 0d9a 00000000 		.4byte	.LFB361
 4175 0d9e 3E000000 		.4byte	.LFE361-.LFB361
 4176 0da2 01       		.uleb128 0x1
 4177 0da3 9C       		.byte	0x9c
 4178 0da4 C80D0000 		.4byte	0xdc8
 4179 0da8 09       		.uleb128 0x9
 4180 0da9 B0050000 		.4byte	.LASF84
 4181 0dad 09       		.byte	0x9
 4182 0dae A302     		.2byte	0x2a3
 4183 0db0 20       		.byte	0x20
 4184 0db1 5F030000 		.4byte	0x35f
 4185 0db5 02       		.uleb128 0x2
 4186 0db6 91       		.byte	0x91
 4187 0db7 6C       		.sleb128 -20
 4188 0db8 16       		.uleb128 0x16
 4189 0db9 17050000 		.4byte	.LASF158
 4190 0dbd A402     		.2byte	0x2a4
 4191 0dbf 11       		.byte	0x11
 4192 0dc0 6B030000 		.4byte	0x36b
 4193 0dc4 02       		.uleb128 0x2
 4194 0dc5 91       		.byte	0x91
 4195 0dc6 74       		.sleb128 -12
 4196 0dc7 00       		.byte	0
 4197 0dc8 10       		.uleb128 0x10
 4198 0dc9 C3080000 		.4byte	.LASF159
 4199 0dcd 8F02     		.2byte	0x28f
 4200 0dcf 00000000 		.4byte	.LFB360
 4201 0dd3 1E000000 		.4byte	.LFE360-.LFB360
 4202 0dd7 01       		.uleb128 0x1
 4203 0dd8 9C       		.byte	0x9c
 4204 0dd9 EE0D0000 		.4byte	0xdee
 4205 0ddd 09       		.uleb128 0x9
 4206 0dde B0050000 		.4byte	.LASF84
 4207 0de2 09       		.byte	0x9
 4208 0de3 8F02     		.2byte	0x28f
 4209 0de5 1F       		.byte	0x1f
 4210 0de6 6B030000 		.4byte	0x36b
 4211 0dea 02       		.uleb128 0x2
 4212 0deb 91       		.byte	0x91
 4213 0dec 74       		.sleb128 -12
 4214 0ded 00       		.byte	0
 4215 0dee 10       		.uleb128 0x10
 4216 0def 4E040000 		.4byte	.LASF160
 4217 0df3 7C02     		.2byte	0x27c
ARM GAS  C:\Users\DEVELO~1\AppData\Local\Temp\cceHiR3y.s 			page 75


 4218 0df5 00000000 		.4byte	.LFB359
 4219 0df9 2A000000 		.4byte	.LFE359-.LFB359
 4220 0dfd 01       		.uleb128 0x1
 4221 0dfe 9C       		.byte	0x9c
 4222 0dff 130E0000 		.4byte	0xe13
 4223 0e03 03       		.uleb128 0x3
 4224 0e04 747000   		.ascii	"tp\000"
 4225 0e07 09       		.byte	0x9
 4226 0e08 7C02     		.2byte	0x27c
 4227 0e0a 1F       		.byte	0x1f
 4228 0e0b 91040000 		.4byte	0x491
 4229 0e0f 02       		.uleb128 0x2
 4230 0e10 91       		.byte	0x91
 4231 0e11 74       		.sleb128 -12
 4232 0e12 00       		.byte	0
 4233 0e13 11       		.uleb128 0x11
 4234 0e14 D4020000 		.4byte	.LASF161
 4235 0e18 5802     		.2byte	0x258
 4236 0e1a 09       		.byte	0x9
 4237 0e1b 38010000 		.4byte	0x138
 4238 0e1f 00000000 		.4byte	.LFB358
 4239 0e23 4C000000 		.4byte	.LFE358-.LFB358
 4240 0e27 01       		.uleb128 0x1
 4241 0e28 9C       		.byte	0x9c
 4242 0e29 650E0000 		.4byte	0xe65
 4243 0e2d 09       		.uleb128 0x9
 4244 0e2e 3E040000 		.4byte	.LASF162
 4245 0e32 09       		.byte	0x9
 4246 0e33 5802     		.2byte	0x258
 4247 0e35 22       		.byte	0x22
 4248 0e36 38010000 		.4byte	0x138
 4249 0e3a 02       		.uleb128 0x2
 4250 0e3b 91       		.byte	0x91
 4251 0e3c 6C       		.sleb128 -20
 4252 0e3d 16       		.uleb128 0x16
 4253 0e3e 1B040000 		.4byte	.LASF150
 4254 0e42 5902     		.2byte	0x259
 4255 0e44 0D       		.byte	0xd
 4256 0e45 91040000 		.4byte	0x491
 4257 0e49 02       		.uleb128 0x2
 4258 0e4a 91       		.byte	0x91
 4259 0e4b 74       		.sleb128 -12
 4260 0e4c 16       		.uleb128 0x16
 4261 0e4d 95040000 		.4byte	.LASF163
 4262 0e51 5A02     		.2byte	0x25a
 4263 0e53 0B       		.byte	0xb
 4264 0e54 38010000 		.4byte	0x138
 4265 0e58 02       		.uleb128 0x2
 4266 0e59 91       		.byte	0x91
 4267 0e5a 70       		.sleb128 -16
 4268 0e5b 06       		.uleb128 0x6
 4269 0e5c E2060000 		.4byte	.LASF152
 4270 0e60 750E0000 		.4byte	0xe75
 4271 0e64 00       		.byte	0
 4272 0e65 0E       		.uleb128 0xe
 4273 0e66 4E030000 		.4byte	0x34e
 4274 0e6a 750E0000 		.4byte	0xe75
ARM GAS  C:\Users\DEVELO~1\AppData\Local\Temp\cceHiR3y.s 			page 76


 4275 0e6e 0F       		.uleb128 0xf
 4276 0e6f 39000000 		.4byte	0x39
 4277 0e73 10       		.byte	0x10
 4278 0e74 00       		.byte	0
 4279 0e75 07       		.uleb128 0x7
 4280 0e76 650E0000 		.4byte	0xe65
 4281 0e7a 11       		.uleb128 0x11
 4282 0e7b 58030000 		.4byte	.LASF164
 4283 0e7f 3002     		.2byte	0x230
 4284 0e81 07       		.byte	0x7
 4285 0e82 44010000 		.4byte	0x144
 4286 0e86 00000000 		.4byte	.LFB357
 4287 0e8a 54000000 		.4byte	.LFE357-.LFB357
 4288 0e8e 01       		.uleb128 0x1
 4289 0e8f 9C       		.byte	0x9c
 4290 0e90 CC0E0000 		.4byte	0xecc
 4291 0e94 03       		.uleb128 0x3
 4292 0e95 747000   		.ascii	"tp\000"
 4293 0e98 09       		.byte	0x9
 4294 0e99 3002     		.2byte	0x230
 4295 0e9b 1B       		.byte	0x1b
 4296 0e9c 91040000 		.4byte	0x491
 4297 0ea0 02       		.uleb128 0x2
 4298 0ea1 91       		.byte	0x91
 4299 0ea2 6C       		.sleb128 -20
 4300 0ea3 16       		.uleb128 0x16
 4301 0ea4 1B040000 		.4byte	.LASF150
 4302 0ea8 3102     		.2byte	0x231
 4303 0eaa 0D       		.byte	0xd
 4304 0eab 91040000 		.4byte	0x491
 4305 0eaf 02       		.uleb128 0x2
 4306 0eb0 91       		.byte	0x91
 4307 0eb1 70       		.sleb128 -16
 4308 0eb2 13       		.uleb128 0x13
 4309 0eb3 6D736700 		.ascii	"msg\000"
 4310 0eb7 09       		.byte	0x9
 4311 0eb8 3202     		.2byte	0x232
 4312 0eba 09       		.byte	0x9
 4313 0ebb 44010000 		.4byte	0x144
 4314 0ebf 02       		.uleb128 0x2
 4315 0ec0 91       		.byte	0x91
 4316 0ec1 74       		.sleb128 -12
 4317 0ec2 06       		.uleb128 0x6
 4318 0ec3 E2060000 		.4byte	.LASF152
 4319 0ec7 DC0E0000 		.4byte	0xedc
 4320 0ecb 00       		.byte	0
 4321 0ecc 0E       		.uleb128 0xe
 4322 0ecd 4E030000 		.4byte	0x34e
 4323 0ed1 DC0E0000 		.4byte	0xedc
 4324 0ed5 0F       		.uleb128 0xf
 4325 0ed6 39000000 		.4byte	0x39
 4326 0eda 09       		.byte	0x9
 4327 0edb 00       		.byte	0
 4328 0edc 07       		.uleb128 0x7
 4329 0edd CC0E0000 		.4byte	0xecc
 4330 0ee1 10       		.uleb128 0x10
 4331 0ee2 D9000000 		.4byte	.LASF165
ARM GAS  C:\Users\DEVELO~1\AppData\Local\Temp\cceHiR3y.s 			page 77


 4332 0ee6 F701     		.2byte	0x1f7
 4333 0ee8 00000000 		.4byte	.LFB356
 4334 0eec 7C000000 		.4byte	.LFE356-.LFB356
 4335 0ef0 01       		.uleb128 0x1
 4336 0ef1 9C       		.byte	0x9c
 4337 0ef2 1F0F0000 		.4byte	0xf1f
 4338 0ef6 03       		.uleb128 0x3
 4339 0ef7 6D736700 		.ascii	"msg\000"
 4340 0efb 09       		.byte	0x9
 4341 0efc F701     		.2byte	0x1f7
 4342 0efe 17       		.byte	0x17
 4343 0eff 44010000 		.4byte	0x144
 4344 0f03 02       		.uleb128 0x2
 4345 0f04 91       		.byte	0x91
 4346 0f05 6C       		.sleb128 -20
 4347 0f06 16       		.uleb128 0x16
 4348 0f07 1B040000 		.4byte	.LASF150
 4349 0f0b F801     		.2byte	0x1f8
 4350 0f0d 0D       		.byte	0xd
 4351 0f0e 91040000 		.4byte	0x491
 4352 0f12 02       		.uleb128 0x2
 4353 0f13 91       		.byte	0x91
 4354 0f14 74       		.sleb128 -12
 4355 0f15 06       		.uleb128 0x6
 4356 0f16 E2060000 		.4byte	.LASF152
 4357 0f1a 2F0F0000 		.4byte	0xf2f
 4358 0f1e 00       		.byte	0
 4359 0f1f 0E       		.uleb128 0xe
 4360 0f20 4E030000 		.4byte	0x34e
 4361 0f24 2F0F0000 		.4byte	0xf2f
 4362 0f28 0F       		.uleb128 0xf
 4363 0f29 39000000 		.4byte	0x39
 4364 0f2d 0A       		.byte	0xa
 4365 0f2e 00       		.byte	0
 4366 0f2f 07       		.uleb128 0x7
 4367 0f30 1F0F0000 		.4byte	0xf1f
 4368 0f34 10       		.uleb128 0x10
 4369 0f35 4C010000 		.4byte	.LASF166
 4370 0f39 DF01     		.2byte	0x1df
 4371 0f3b 00000000 		.4byte	.LFB355
 4372 0f3f 1A000000 		.4byte	.LFE355-.LFB355
 4373 0f43 01       		.uleb128 0x1
 4374 0f44 9C       		.byte	0x9c
 4375 0f45 5A0F0000 		.4byte	0xf5a
 4376 0f49 03       		.uleb128 0x3
 4377 0f4a 6D736700 		.ascii	"msg\000"
 4378 0f4e 09       		.byte	0x9
 4379 0f4f DF01     		.2byte	0x1df
 4380 0f51 16       		.byte	0x16
 4381 0f52 44010000 		.4byte	0x144
 4382 0f56 02       		.uleb128 0x2
 4383 0f57 91       		.byte	0x91
 4384 0f58 74       		.sleb128 -12
 4385 0f59 00       		.byte	0
 4386 0f5a 10       		.uleb128 0x10
 4387 0f5b F5060000 		.4byte	.LASF167
 4388 0f5f AD01     		.2byte	0x1ad
ARM GAS  C:\Users\DEVELO~1\AppData\Local\Temp\cceHiR3y.s 			page 78


 4389 0f61 00000000 		.4byte	.LFB354
 4390 0f65 84000000 		.4byte	.LFE354-.LFB354
 4391 0f69 01       		.uleb128 0x1
 4392 0f6a 9C       		.byte	0x9c
 4393 0f6b 880F0000 		.4byte	0xf88
 4394 0f6f 03       		.uleb128 0x3
 4395 0f70 747000   		.ascii	"tp\000"
 4396 0f73 09       		.byte	0x9
 4397 0f74 AD01     		.2byte	0x1ad
 4398 0f76 1D       		.byte	0x1d
 4399 0f77 91040000 		.4byte	0x491
 4400 0f7b 02       		.uleb128 0x2
 4401 0f7c 91       		.byte	0x91
 4402 0f7d 6C       		.sleb128 -20
 4403 0f7e 06       		.uleb128 0x6
 4404 0f7f E2060000 		.4byte	.LASF152
 4405 0f83 190C0000 		.4byte	0xc19
 4406 0f87 00       		.byte	0
 4407 0f88 11       		.uleb128 0x11
 4408 0f89 89040000 		.4byte	.LASF168
 4409 0f8d 9101     		.2byte	0x191
 4410 0f8f 0B       		.byte	0xb
 4411 0f90 91040000 		.4byte	0x491
 4412 0f94 00000000 		.4byte	.LFB353
 4413 0f98 2A000000 		.4byte	.LFE353-.LFB353
 4414 0f9c 01       		.uleb128 0x1
 4415 0f9d 9C       		.byte	0x9c
 4416 0f9e BB0F0000 		.4byte	0xfbb
 4417 0fa2 03       		.uleb128 0x3
 4418 0fa3 747000   		.ascii	"tp\000"
 4419 0fa6 09       		.byte	0x9
 4420 0fa7 9101     		.2byte	0x191
 4421 0fa9 21       		.byte	0x21
 4422 0faa 91040000 		.4byte	0x491
 4423 0fae 02       		.uleb128 0x2
 4424 0faf 91       		.byte	0x91
 4425 0fb0 74       		.sleb128 -12
 4426 0fb1 06       		.uleb128 0x6
 4427 0fb2 E2060000 		.4byte	.LASF152
 4428 0fb6 CB0F0000 		.4byte	0xfcb
 4429 0fba 00       		.byte	0
 4430 0fbb 0E       		.uleb128 0xe
 4431 0fbc 4E030000 		.4byte	0x34e
 4432 0fc0 CB0F0000 		.4byte	0xfcb
 4433 0fc4 0F       		.uleb128 0xf
 4434 0fc5 39000000 		.4byte	0x39
 4435 0fc9 0B       		.byte	0xb
 4436 0fca 00       		.byte	0
 4437 0fcb 07       		.uleb128 0x7
 4438 0fcc BB0F0000 		.4byte	0xfbb
 4439 0fd0 11       		.uleb128 0x11
 4440 0fd1 BA050000 		.4byte	.LASF169
 4441 0fd5 7B01     		.2byte	0x17b
 4442 0fd7 0B       		.byte	0xb
 4443 0fd8 91040000 		.4byte	0x491
 4444 0fdc 00000000 		.4byte	.LFB352
 4445 0fe0 22000000 		.4byte	.LFE352-.LFB352
ARM GAS  C:\Users\DEVELO~1\AppData\Local\Temp\cceHiR3y.s 			page 79


 4446 0fe4 01       		.uleb128 0x1
 4447 0fe5 9C       		.byte	0x9c
 4448 0fe6 03100000 		.4byte	0x1003
 4449 0fea 03       		.uleb128 0x3
 4450 0feb 747000   		.ascii	"tp\000"
 4451 0fee 09       		.byte	0x9
 4452 0fef 7B01     		.2byte	0x17b
 4453 0ff1 20       		.byte	0x20
 4454 0ff2 91040000 		.4byte	0x491
 4455 0ff6 02       		.uleb128 0x2
 4456 0ff7 91       		.byte	0x91
 4457 0ff8 74       		.sleb128 -12
 4458 0ff9 06       		.uleb128 0x6
 4459 0ffa E2060000 		.4byte	.LASF152
 4460 0ffe 2F0F0000 		.4byte	0xf2f
 4461 1002 00       		.byte	0
 4462 1003 11       		.uleb128 0x11
 4463 1004 BE040000 		.4byte	.LASF170
 4464 1008 4601     		.2byte	0x146
 4465 100a 0B       		.byte	0xb
 4466 100b 91040000 		.4byte	0x491
 4467 100f 00000000 		.4byte	.LFB351
 4468 1013 74000000 		.4byte	.LFE351-.LFB351
 4469 1017 01       		.uleb128 0x1
 4470 1018 9C       		.byte	0x9c
 4471 1019 85100000 		.4byte	0x1085
 4472 101d 03       		.uleb128 0x3
 4473 101e 77737000 		.ascii	"wsp\000"
 4474 1022 09       		.byte	0x9
 4475 1023 4601     		.2byte	0x146
 4476 1025 23       		.byte	0x23
 4477 1026 96040000 		.4byte	0x496
 4478 102a 02       		.uleb128 0x2
 4479 102b 91       		.byte	0x91
 4480 102c 6C       		.sleb128 -20
 4481 102d 09       		.uleb128 0x9
 4482 102e E6030000 		.4byte	.LASF87
 4483 1032 09       		.byte	0x9
 4484 1033 4601     		.2byte	0x146
 4485 1035 2F       		.byte	0x2f
 4486 1036 2D000000 		.4byte	0x2d
 4487 103a 02       		.uleb128 0x2
 4488 103b 91       		.byte	0x91
 4489 103c 68       		.sleb128 -24
 4490 103d 09       		.uleb128 0x9
 4491 103e B5050000 		.4byte	.LASF74
 4492 1042 09       		.byte	0x9
 4493 1043 4701     		.2byte	0x147
 4494 1045 25       		.byte	0x25
 4495 1046 38010000 		.4byte	0x138
 4496 104a 02       		.uleb128 0x2
 4497 104b 91       		.byte	0x91
 4498 104c 64       		.sleb128 -28
 4499 104d 03       		.uleb128 0x3
 4500 104e 706600   		.ascii	"pf\000"
 4501 1051 09       		.byte	0x9
 4502 1052 4701     		.2byte	0x147
ARM GAS  C:\Users\DEVELO~1\AppData\Local\Temp\cceHiR3y.s 			page 80


 4503 1054 33       		.byte	0x33
 4504 1055 F1080000 		.4byte	0x8f1
 4505 1059 02       		.uleb128 0x2
 4506 105a 91       		.byte	0x91
 4507 105b 60       		.sleb128 -32
 4508 105c 03       		.uleb128 0x3
 4509 105d 61726700 		.ascii	"arg\000"
 4510 1061 09       		.byte	0x9
 4511 1062 4701     		.2byte	0x147
 4512 1064 3D       		.byte	0x3d
 4513 1065 96040000 		.4byte	0x496
 4514 1069 02       		.uleb128 0x2
 4515 106a 91       		.byte	0x91
 4516 106b 00       		.sleb128 0
 4517 106c 13       		.uleb128 0x13
 4518 106d 747000   		.ascii	"tp\000"
 4519 1070 09       		.byte	0x9
 4520 1071 4801     		.2byte	0x148
 4521 1073 0D       		.byte	0xd
 4522 1074 91040000 		.4byte	0x491
 4523 1078 02       		.uleb128 0x2
 4524 1079 91       		.byte	0x91
 4525 107a 74       		.sleb128 -12
 4526 107b 06       		.uleb128 0x6
 4527 107c E2060000 		.4byte	.LASF152
 4528 1080 95100000 		.4byte	0x1095
 4529 1084 00       		.byte	0
 4530 1085 0E       		.uleb128 0xe
 4531 1086 4E030000 		.4byte	0x34e
 4532 108a 95100000 		.4byte	0x1095
 4533 108e 0F       		.uleb128 0xf
 4534 108f 39000000 		.4byte	0x39
 4535 1093 11       		.byte	0x11
 4536 1094 00       		.byte	0
 4537 1095 07       		.uleb128 0x7
 4538 1096 85100000 		.4byte	0x1085
 4539 109a 11       		.uleb128 0x11
 4540 109b F2020000 		.4byte	.LASF171
 4541 109f 1D01     		.2byte	0x11d
 4542 10a1 0B       		.byte	0xb
 4543 10a2 91040000 		.4byte	0x491
 4544 10a6 00000000 		.4byte	.LFB350
 4545 10aa 2A000000 		.4byte	.LFE350-.LFB350
 4546 10ae 01       		.uleb128 0x1
 4547 10af 9C       		.byte	0x9c
 4548 10b0 DD100000 		.4byte	0x10dd
 4549 10b4 03       		.uleb128 0x3
 4550 10b5 74647000 		.ascii	"tdp\000"
 4551 10b9 09       		.byte	0x9
 4552 10ba 1D01     		.2byte	0x11d
 4553 10bc 32       		.byte	0x32
 4554 10bd DD100000 		.4byte	0x10dd
 4555 10c1 02       		.uleb128 0x2
 4556 10c2 91       		.byte	0x91
 4557 10c3 6C       		.sleb128 -20
 4558 10c4 13       		.uleb128 0x13
 4559 10c5 747000   		.ascii	"tp\000"
ARM GAS  C:\Users\DEVELO~1\AppData\Local\Temp\cceHiR3y.s 			page 81


 4560 10c8 09       		.byte	0x9
 4561 10c9 1E01     		.2byte	0x11e
 4562 10cb 0D       		.byte	0xd
 4563 10cc 91040000 		.4byte	0x491
 4564 10d0 02       		.uleb128 0x2
 4565 10d1 91       		.byte	0x91
 4566 10d2 74       		.sleb128 -12
 4567 10d3 06       		.uleb128 0x6
 4568 10d4 E2060000 		.4byte	.LASF152
 4569 10d8 CB0F0000 		.4byte	0xfcb
 4570 10dc 00       		.byte	0
 4571 10dd 04       		.uleb128 0x4
 4572 10de 71090000 		.4byte	0x971
 4573 10e2 11       		.uleb128 0x11
 4574 10e3 E5020000 		.4byte	.LASF172
 4575 10e7 0801     		.2byte	0x108
 4576 10e9 0B       		.byte	0xb
 4577 10ea 91040000 		.4byte	0x491
 4578 10ee 00000000 		.4byte	.LFB349
 4579 10f2 20000000 		.4byte	.LFE349-.LFB349
 4580 10f6 01       		.uleb128 0x1
 4581 10f7 9C       		.byte	0x9c
 4582 10f8 0D110000 		.4byte	0x110d
 4583 10fc 03       		.uleb128 0x3
 4584 10fd 74647000 		.ascii	"tdp\000"
 4585 1101 09       		.byte	0x9
 4586 1102 0801     		.2byte	0x108
 4587 1104 33       		.byte	0x33
 4588 1105 DD100000 		.4byte	0x10dd
 4589 1109 02       		.uleb128 0x2
 4590 110a 91       		.byte	0x91
 4591 110b 74       		.sleb128 -12
 4592 110c 00       		.byte	0
 4593 110d 1F       		.uleb128 0x1f
 4594 110e CE080000 		.4byte	.LASF173
 4595 1112 E2       		.byte	0xe2
 4596 1113 91040000 		.4byte	0x491
 4597 1117 00000000 		.4byte	.LFB348
 4598 111b 22000000 		.4byte	.LFE348-.LFB348
 4599 111f 01       		.uleb128 0x1
 4600 1120 9C       		.byte	0x9c
 4601 1121 4C110000 		.4byte	0x114c
 4602 1125 12       		.uleb128 0x12
 4603 1126 74647000 		.ascii	"tdp\000"
 4604 112a 09       		.byte	0x9
 4605 112b E2       		.byte	0xe2
 4606 112c 3B       		.byte	0x3b
 4607 112d DD100000 		.4byte	0x10dd
 4608 1131 02       		.uleb128 0x2
 4609 1132 91       		.byte	0x91
 4610 1133 6C       		.sleb128 -20
 4611 1134 20       		.uleb128 0x20
 4612 1135 747000   		.ascii	"tp\000"
 4613 1138 09       		.byte	0x9
 4614 1139 E3       		.byte	0xe3
 4615 113a 0D       		.byte	0xd
 4616 113b 91040000 		.4byte	0x491
ARM GAS  C:\Users\DEVELO~1\AppData\Local\Temp\cceHiR3y.s 			page 82


 4617 113f 02       		.uleb128 0x2
 4618 1140 91       		.byte	0x91
 4619 1141 74       		.sleb128 -12
 4620 1142 06       		.uleb128 0x6
 4621 1143 E2060000 		.4byte	.LASF152
 4622 1147 D90C0000 		.4byte	0xcd9
 4623 114b 00       		.byte	0
 4624 114c 1F       		.uleb128 0x1f
 4625 114d 8D010000 		.4byte	.LASF174
 4626 1151 AB       		.byte	0xab
 4627 1152 91040000 		.4byte	0x491
 4628 1156 00000000 		.4byte	.LFB347
 4629 115a 60000000 		.4byte	.LFE347-.LFB347
 4630 115e 01       		.uleb128 0x1
 4631 115f 9C       		.byte	0x9c
 4632 1160 8B110000 		.4byte	0x118b
 4633 1164 12       		.uleb128 0x12
 4634 1165 74647000 		.ascii	"tdp\000"
 4635 1169 09       		.byte	0x9
 4636 116a AB       		.byte	0xab
 4637 116b 3C       		.byte	0x3c
 4638 116c DD100000 		.4byte	0x10dd
 4639 1170 02       		.uleb128 0x2
 4640 1171 91       		.byte	0x91
 4641 1172 6C       		.sleb128 -20
 4642 1173 20       		.uleb128 0x20
 4643 1174 747000   		.ascii	"tp\000"
 4644 1177 09       		.byte	0x9
 4645 1178 AC       		.byte	0xac
 4646 1179 0D       		.byte	0xd
 4647 117a 91040000 		.4byte	0x491
 4648 117e 02       		.uleb128 0x2
 4649 117f 91       		.byte	0x91
 4650 1180 74       		.sleb128 -12
 4651 1181 06       		.uleb128 0x6
 4652 1182 E2060000 		.4byte	.LASF152
 4653 1186 9B110000 		.4byte	0x119b
 4654 118a 00       		.byte	0
 4655 118b 0E       		.uleb128 0xe
 4656 118c 4E030000 		.4byte	0x34e
 4657 1190 9B110000 		.4byte	0x119b
 4658 1194 0F       		.uleb128 0xf
 4659 1195 39000000 		.4byte	0x39
 4660 1199 15       		.byte	0x15
 4661 119a 00       		.byte	0
 4662 119b 07       		.uleb128 0x7
 4663 119c 8B110000 		.4byte	0x118b
 4664 11a0 1F       		.uleb128 0x1f
 4665 11a1 82060000 		.4byte	.LASF175
 4666 11a5 59       		.byte	0x59
 4667 11a6 91040000 		.4byte	0x491
 4668 11aa 00000000 		.4byte	.LFB346
 4669 11ae 7A000000 		.4byte	.LFE346-.LFB346
 4670 11b2 01       		.uleb128 0x1
 4671 11b3 9C       		.byte	0x9c
 4672 11b4 F2110000 		.4byte	0x11f2
 4673 11b8 12       		.uleb128 0x12
ARM GAS  C:\Users\DEVELO~1\AppData\Local\Temp\cceHiR3y.s 			page 83


 4674 11b9 6F697000 		.ascii	"oip\000"
 4675 11bd 09       		.byte	0x9
 4676 11be 59       		.byte	0x59
 4677 11bf 2C       		.byte	0x2c
 4678 11c0 41080000 		.4byte	0x841
 4679 11c4 02       		.uleb128 0x2
 4680 11c5 91       		.byte	0x91
 4681 11c6 74       		.sleb128 -12
 4682 11c7 12       		.uleb128 0x12
 4683 11c8 747000   		.ascii	"tp\000"
 4684 11cb 09       		.byte	0x9
 4685 11cc 5A       		.byte	0x5a
 4686 11cd 27       		.byte	0x27
 4687 11ce 91040000 		.4byte	0x491
 4688 11d2 02       		.uleb128 0x2
 4689 11d3 91       		.byte	0x91
 4690 11d4 70       		.sleb128 -16
 4691 11d5 29       		.uleb128 0x29
 4692 11d6 CD030000 		.4byte	.LASF34
 4693 11da 5B       		.byte	0x5b
 4694 11db 29       		.byte	0x29
 4695 11dc 3D030000 		.4byte	0x33d
 4696 11e0 02       		.uleb128 0x2
 4697 11e1 91       		.byte	0x91
 4698 11e2 6C       		.sleb128 -20
 4699 11e3 29       		.uleb128 0x29
 4700 11e4 B5050000 		.4byte	.LASF74
 4701 11e8 5C       		.byte	0x5c
 4702 11e9 25       		.byte	0x25
 4703 11ea 38010000 		.4byte	0x138
 4704 11ee 02       		.uleb128 0x2
 4705 11ef 91       		.byte	0x91
 4706 11f0 68       		.sleb128 -24
 4707 11f1 00       		.byte	0
 4708 11f2 2A       		.uleb128 0x2a
 4709 11f3 D4070000 		.4byte	.LASF176
 4710 11f7 EE01     		.2byte	0x1ee
 4711 11f9 00000000 		.4byte	.LFB238
 4712 11fd 28000000 		.4byte	.LFE238-.LFB238
 4713 1201 01       		.uleb128 0x1
 4714 1202 9C       		.byte	0x9c
 4715 1203 40120000 		.4byte	0x1240
 4716 1207 03       		.uleb128 0x3
 4717 1208 74717000 		.ascii	"tqp\000"
 4718 120c 08       		.byte	0x8
 4719 120d EE01     		.2byte	0x1ee
 4720 120f 39       		.byte	0x39
 4721 1210 F60A0000 		.4byte	0xaf6
 4722 1214 02       		.uleb128 0x2
 4723 1215 91       		.byte	0x91
 4724 1216 6C       		.sleb128 -20
 4725 1217 03       		.uleb128 0x3
 4726 1218 6D736700 		.ascii	"msg\000"
 4727 121c 08       		.byte	0x8
 4728 121d EE01     		.2byte	0x1ee
 4729 121f 44       		.byte	0x44
 4730 1220 44010000 		.4byte	0x144
ARM GAS  C:\Users\DEVELO~1\AppData\Local\Temp\cceHiR3y.s 			page 84


 4731 1224 02       		.uleb128 0x2
 4732 1225 91       		.byte	0x91
 4733 1226 68       		.sleb128 -24
 4734 1227 13       		.uleb128 0x13
 4735 1228 747000   		.ascii	"tp\000"
 4736 122b 08       		.byte	0x8
 4737 122c EF01     		.2byte	0x1ef
 4738 122e 0D       		.byte	0xd
 4739 122f 91040000 		.4byte	0x491
 4740 1233 02       		.uleb128 0x2
 4741 1234 91       		.byte	0x91
 4742 1235 74       		.sleb128 -12
 4743 1236 06       		.uleb128 0x6
 4744 1237 E2060000 		.4byte	.LASF152
 4745 123b 50120000 		.4byte	0x1250
 4746 123f 00       		.byte	0
 4747 1240 0E       		.uleb128 0xe
 4748 1241 4E030000 		.4byte	0x34e
 4749 1245 50120000 		.4byte	0x1250
 4750 1249 0F       		.uleb128 0xf
 4751 124a 39000000 		.4byte	0x39
 4752 124e 13       		.byte	0x13
 4753 124f 00       		.byte	0
 4754 1250 07       		.uleb128 0x7
 4755 1251 40120000 		.4byte	0x1240
 4756 1255 2A       		.uleb128 0x2a
 4757 1256 CD000000 		.4byte	.LASF177
 4758 125a BF01     		.2byte	0x1bf
 4759 125c 00000000 		.4byte	.LFB235
 4760 1260 18000000 		.4byte	.LFE235-.LFB235
 4761 1264 01       		.uleb128 0x1
 4762 1265 9C       		.byte	0x9c
 4763 1266 84120000 		.4byte	0x1284
 4764 126a 09       		.uleb128 0x9
 4765 126b 4A050000 		.4byte	.LASF178
 4766 126f 08       		.byte	0x8
 4767 1270 BF01     		.2byte	0x1bf
 4768 1272 2E       		.byte	0x2e
 4769 1273 6B030000 		.4byte	0x36b
 4770 1277 02       		.uleb128 0x2
 4771 1278 91       		.byte	0x91
 4772 1279 74       		.sleb128 -12
 4773 127a 06       		.uleb128 0x6
 4774 127b E2060000 		.4byte	.LASF152
 4775 127f CB0F0000 		.4byte	0xfcb
 4776 1283 00       		.byte	0
 4777 1284 1A       		.uleb128 0x1a
 4778 1285 B2060000 		.4byte	.LASF186
 4779 1289 08       		.byte	0x8
 4780 128a 8201     		.2byte	0x182
 4781 128c 1B       		.byte	0x1b
 4782 128d 46080000 		.4byte	0x846
 4783 1291 00000000 		.4byte	.LFB231
 4784 1295 16000000 		.4byte	.LFE231-.LFB231
 4785 1299 01       		.uleb128 0x1
 4786 129a 9C       		.byte	0x9c
 4787 129b AF120000 		.4byte	0x12af
ARM GAS  C:\Users\DEVELO~1\AppData\Local\Temp\cceHiR3y.s 			page 85


 4788 129f 03       		.uleb128 0x3
 4789 12a0 747000   		.ascii	"tp\000"
 4790 12a3 08       		.byte	0x8
 4791 12a4 8201     		.2byte	0x182
 4792 12a6 3A       		.byte	0x3a
 4793 12a7 91040000 		.4byte	0x491
 4794 12ab 02       		.uleb128 0x2
 4795 12ac 91       		.byte	0x91
 4796 12ad 74       		.sleb128 -12
 4797 12ae 00       		.byte	0
 4798 12af 39       		.uleb128 0x39
 4799 12b0 FA080000 		.4byte	.LASF179
 4800 12b4 08       		.byte	0x8
 4801 12b5 5501     		.2byte	0x155
 4802 12b7 19       		.byte	0x19
 4803 12b8 91040000 		.4byte	0x491
 4804 12bc 00000000 		.4byte	.LFB229
 4805 12c0 14000000 		.4byte	.LFE229-.LFB229
 4806 12c4 01       		.uleb128 0x1
 4807 12c5 9C       		.byte	0x9c
 4808 12c6 2B       		.uleb128 0x2b
 4809 12c7 FE030000 		.4byte	.LASF180
 4810 12cb 07       		.byte	0x7
 4811 12cc 7A       		.byte	0x7a
 4812 12cd 5F030000 		.4byte	0x35f
 4813 12d1 00000000 		.4byte	.LFB209
 4814 12d5 0E000000 		.4byte	.LFE209-.LFB209
 4815 12d9 01       		.uleb128 0x1
 4816 12da 9C       		.byte	0x9c
 4817 12db 21       		.uleb128 0x21
 4818 12dc 5D090000 		.4byte	.LASF181
 4819 12e0 04       		.byte	0x4
 4820 12e1 A501     		.2byte	0x1a5
 4821 12e3 00000000 		.4byte	.LFB203
 4822 12e7 1E000000 		.4byte	.LFE203-.LFB203
 4823 12eb 01       		.uleb128 0x1
 4824 12ec 9C       		.byte	0x9c
 4825 12ed 25130000 		.4byte	0x1325
 4826 12f1 06       		.uleb128 0x6
 4827 12f2 E2060000 		.4byte	.LASF152
 4828 12f6 CB0F0000 		.4byte	0xfcb
 4829 12fa 1B       		.uleb128 0x1b
 4830 12fb 7B130000 		.4byte	0x137b
 4831 12ff 0A000000 		.4byte	.LBB18
 4832 1303 0A000000 		.4byte	.LBE18-.LBB18
 4833 1307 04       		.byte	0x4
 4834 1308 B201     		.2byte	0x1b2
 4835 130a 1B       		.uleb128 0x1b
 4836 130b 89130000 		.4byte	0x1389
 4837 130f 0A000000 		.4byte	.LBB20
 4838 1313 08000000 		.4byte	.LBE20-.LBB20
 4839 1317 06       		.byte	0x6
 4840 1318 5203     		.2byte	0x352
 4841 131a 2C       		.uleb128 0x2c
 4842 131b 97130000 		.4byte	0x1397
 4843 131f 02       		.uleb128 0x2
 4844 1320 91       		.byte	0x91
ARM GAS  C:\Users\DEVELO~1\AppData\Local\Temp\cceHiR3y.s 			page 86


 4845 1321 74       		.sleb128 -12
 4846 1322 00       		.byte	0
 4847 1323 00       		.byte	0
 4848 1324 00       		.byte	0
 4849 1325 21       		.uleb128 0x21
 4850 1326 EB060000 		.4byte	.LASF182
 4851 132a 04       		.byte	0x4
 4852 132b 9701     		.2byte	0x197
 4853 132d 00000000 		.4byte	.LFB202
 4854 1331 1E000000 		.4byte	.LFE202-.LFB202
 4855 1335 01       		.uleb128 0x1
 4856 1336 9C       		.byte	0x9c
 4857 1337 66130000 		.4byte	0x1366
 4858 133b 1B       		.uleb128 0x1b
 4859 133c 82130000 		.4byte	0x1382
 4860 1340 0A000000 		.4byte	.LBB14
 4861 1344 0A000000 		.4byte	.LBE14-.LBB14
 4862 1348 04       		.byte	0x4
 4863 1349 9901     		.2byte	0x199
 4864 134b 1B       		.uleb128 0x1b
 4865 134c 89130000 		.4byte	0x1389
 4866 1350 0A000000 		.4byte	.LBB16
 4867 1354 08000000 		.4byte	.LBE16-.LBB16
 4868 1358 06       		.byte	0x6
 4869 1359 3F03     		.2byte	0x33f
 4870 135b 2C       		.uleb128 0x2c
 4871 135c 97130000 		.4byte	0x1397
 4872 1360 02       		.uleb128 0x2
 4873 1361 91       		.byte	0x91
 4874 1362 74       		.sleb128 -12
 4875 1363 00       		.byte	0
 4876 1364 00       		.byte	0
 4877 1365 00       		.byte	0
 4878 1366 2B       		.uleb128 0x2b
 4879 1367 5B080000 		.4byte	.LASF183
 4880 136b 03       		.byte	0x3
 4881 136c 6F       		.byte	0x6f
 4882 136d 5F030000 		.4byte	0x35f
 4883 1371 00000000 		.4byte	.LFB196
 4884 1375 0E000000 		.4byte	.LFE196-.LFB196
 4885 1379 01       		.uleb128 0x1
 4886 137a 9C       		.byte	0x9c
 4887 137b 2D       		.uleb128 0x2d
 4888 137c 6A020000 		.4byte	.LASF184
 4889 1380 4F03     		.2byte	0x34f
 4890 1382 2D       		.uleb128 0x2d
 4891 1383 74090000 		.4byte	.LASF185
 4892 1387 3703     		.2byte	0x337
 4893 1389 3A       		.uleb128 0x3a
 4894 138a 50050000 		.4byte	.LASF204
 4895 138e 05       		.byte	0x5
 4896 138f EB01     		.2byte	0x1eb
 4897 1391 1B       		.byte	0x1b
 4898 1392 03       		.byte	0x3
 4899 1393 A5130000 		.4byte	0x13a5
 4900 1397 3B       		.uleb128 0x3b
 4901 1398 A3010000 		.4byte	.LASF205
ARM GAS  C:\Users\DEVELO~1\AppData\Local\Temp\cceHiR3y.s 			page 87


 4902 139c 05       		.byte	0x5
 4903 139d EB01     		.2byte	0x1eb
 4904 139f 32       		.byte	0x32
 4905 13a0 DF000000 		.4byte	0xdf
 4906 13a4 00       		.byte	0
 4907 13a5 1A       		.uleb128 0x1a
 4908 13a6 96070000 		.4byte	.LASF187
 4909 13aa 02       		.byte	0x2
 4910 13ab 3E01     		.2byte	0x13e
 4911 13ad 1B       		.byte	0x1b
 4912 13ae DC030000 		.4byte	0x3dc
 4913 13b2 00000000 		.4byte	.LFB25
 4914 13b6 28000000 		.4byte	.LFE25-.LFB25
 4915 13ba 01       		.uleb128 0x1
 4916 13bb 9C       		.byte	0x9c
 4917 13bc CF130000 		.4byte	0x13cf
 4918 13c0 03       		.uleb128 0x3
 4919 13c1 7000     		.ascii	"p\000"
 4920 13c3 02       		.byte	0x2
 4921 13c4 3E01     		.2byte	0x13e
 4922 13c6 38       		.byte	0x38
 4923 13c7 DC030000 		.4byte	0x3dc
 4924 13cb 02       		.uleb128 0x2
 4925 13cc 91       		.byte	0x91
 4926 13cd 74       		.sleb128 -12
 4927 13ce 00       		.byte	0
 4928 13cf 1A       		.uleb128 0x1a
 4929 13d0 92020000 		.4byte	.LASF188
 4930 13d4 02       		.byte	0x2
 4931 13d5 1801     		.2byte	0x118
 4932 13d7 1B       		.byte	0x1b
 4933 13d8 DC030000 		.4byte	0x3dc
 4934 13dc 00000000 		.4byte	.LFB23
 4935 13e0 2A000000 		.4byte	.LFE23-.LFB23
 4936 13e4 01       		.uleb128 0x1
 4937 13e5 9C       		.byte	0x9c
 4938 13e6 08140000 		.4byte	0x1408
 4939 13ea 03       		.uleb128 0x3
 4940 13eb 717000   		.ascii	"qp\000"
 4941 13ee 02       		.byte	0x2
 4942 13ef 1801     		.2byte	0x118
 4943 13f1 3C       		.byte	0x3c
 4944 13f2 DC030000 		.4byte	0x3dc
 4945 13f6 02       		.uleb128 0x2
 4946 13f7 91       		.byte	0x91
 4947 13f8 6C       		.sleb128 -20
 4948 13f9 13       		.uleb128 0x13
 4949 13fa 7000     		.ascii	"p\000"
 4950 13fc 02       		.byte	0x2
 4951 13fd 1901     		.2byte	0x119
 4952 13ff 0F       		.byte	0xf
 4953 1400 DC030000 		.4byte	0x3dc
 4954 1404 02       		.uleb128 0x2
 4955 1405 91       		.byte	0x91
 4956 1406 74       		.sleb128 -12
 4957 1407 00       		.byte	0
 4958 1408 21       		.uleb128 0x21
ARM GAS  C:\Users\DEVELO~1\AppData\Local\Temp\cceHiR3y.s 			page 88


 4959 1409 72060000 		.4byte	.LASF189
 4960 140d 02       		.byte	0x2
 4961 140e 0601     		.2byte	0x106
 4962 1410 00000000 		.4byte	.LFB22
 4963 1414 30000000 		.4byte	.LFE22-.LFB22
 4964 1418 01       		.uleb128 0x1
 4965 1419 9C       		.byte	0x9c
 4966 141a 3C140000 		.4byte	0x143c
 4967 141e 03       		.uleb128 0x3
 4968 141f 717000   		.ascii	"qp\000"
 4969 1422 02       		.byte	0x2
 4970 1423 0601     		.2byte	0x106
 4971 1425 30       		.byte	0x30
 4972 1426 DC030000 		.4byte	0x3dc
 4973 142a 02       		.uleb128 0x2
 4974 142b 91       		.byte	0x91
 4975 142c 74       		.sleb128 -12
 4976 142d 03       		.uleb128 0x3
 4977 142e 7000     		.ascii	"p\000"
 4978 1430 02       		.byte	0x2
 4979 1431 0601     		.2byte	0x106
 4980 1433 40       		.byte	0x40
 4981 1434 DC030000 		.4byte	0x3dc
 4982 1438 02       		.uleb128 0x2
 4983 1439 91       		.byte	0x91
 4984 143a 70       		.sleb128 -16
 4985 143b 00       		.byte	0
 4986 143c 22       		.uleb128 0x22
 4987 143d CD050000 		.4byte	.LASF190
 4988 1441 F9       		.byte	0xf9
 4989 1442 14       		.byte	0x14
 4990 1443 87090000 		.4byte	0x987
 4991 1447 00000000 		.4byte	.LFB21
 4992 144b 22000000 		.4byte	.LFE21-.LFB21
 4993 144f 01       		.uleb128 0x1
 4994 1450 9C       		.byte	0x9c
 4995 1451 64140000 		.4byte	0x1464
 4996 1455 12       		.uleb128 0x12
 4997 1456 717000   		.ascii	"qp\000"
 4998 1459 02       		.byte	0x2
 4999 145a F9       		.byte	0xf9
 5000 145b 38       		.byte	0x38
 5001 145c 64140000 		.4byte	0x1464
 5002 1460 02       		.uleb128 0x2
 5003 1461 91       		.byte	0x91
 5004 1462 74       		.sleb128 -12
 5005 1463 00       		.byte	0
 5006 1464 04       		.uleb128 0x4
 5007 1465 AF030000 		.4byte	0x3af
 5008 1469 23       		.uleb128 0x23
 5009 146a 60070000 		.4byte	.LASF191
 5010 146e DE       		.byte	0xde
 5011 146f 00000000 		.4byte	.LFB19
 5012 1473 1E000000 		.4byte	.LFE19-.LFB19
 5013 1477 01       		.uleb128 0x1
 5014 1478 9C       		.byte	0x9c
 5015 1479 8C140000 		.4byte	0x148c
ARM GAS  C:\Users\DEVELO~1\AppData\Local\Temp\cceHiR3y.s 			page 89


 5016 147d 12       		.uleb128 0x12
 5017 147e 717000   		.ascii	"qp\000"
 5018 1481 02       		.byte	0x2
 5019 1482 DE       		.byte	0xde
 5020 1483 2E       		.byte	0x2e
 5021 1484 DC030000 		.4byte	0x3dc
 5022 1488 02       		.uleb128 0x2
 5023 1489 91       		.byte	0x91
 5024 148a 74       		.sleb128 -12
 5025 148b 00       		.byte	0
 5026 148c 22       		.uleb128 0x22
 5027 148d F4090000 		.4byte	.LASF192
 5028 1491 CF       		.byte	0xcf
 5029 1492 1A       		.byte	0x1a
 5030 1493 9E030000 		.4byte	0x39e
 5031 1497 00000000 		.4byte	.LFB18
 5032 149b 22000000 		.4byte	.LFE18-.LFB18
 5033 149f 01       		.uleb128 0x1
 5034 14a0 9C       		.byte	0x9c
 5035 14a1 C1140000 		.4byte	0x14c1
 5036 14a5 12       		.uleb128 0x12
 5037 14a6 6C7000   		.ascii	"lp\000"
 5038 14a9 02       		.byte	0x2
 5039 14aa CF       		.byte	0xcf
 5040 14ab 34       		.byte	0x34
 5041 14ac 9E030000 		.4byte	0x39e
 5042 14b0 02       		.uleb128 0x2
 5043 14b1 91       		.byte	0x91
 5044 14b2 6C       		.sleb128 -20
 5045 14b3 20       		.uleb128 0x20
 5046 14b4 7000     		.ascii	"p\000"
 5047 14b6 02       		.byte	0x2
 5048 14b7 D1       		.byte	0xd1
 5049 14b8 0E       		.byte	0xe
 5050 14b9 9E030000 		.4byte	0x39e
 5051 14bd 02       		.uleb128 0x2
 5052 14be 91       		.byte	0x91
 5053 14bf 74       		.sleb128 -12
 5054 14c0 00       		.byte	0
 5055 14c1 23       		.uleb128 0x23
 5056 14c2 31040000 		.4byte	.LASF193
 5057 14c6 C0       		.byte	0xc0
 5058 14c7 00000000 		.4byte	.LFB17
 5059 14cb 22000000 		.4byte	.LFE17-.LFB17
 5060 14cf 01       		.uleb128 0x1
 5061 14d0 9C       		.byte	0x9c
 5062 14d1 F1140000 		.4byte	0x14f1
 5063 14d5 12       		.uleb128 0x12
 5064 14d6 6C7000   		.ascii	"lp\000"
 5065 14d9 02       		.byte	0x2
 5066 14da C0       		.byte	0xc0
 5067 14db 2C       		.byte	0x2c
 5068 14dc 9E030000 		.4byte	0x39e
 5069 14e0 02       		.uleb128 0x2
 5070 14e1 91       		.byte	0x91
 5071 14e2 74       		.sleb128 -12
 5072 14e3 12       		.uleb128 0x12
ARM GAS  C:\Users\DEVELO~1\AppData\Local\Temp\cceHiR3y.s 			page 90


 5073 14e4 7000     		.ascii	"p\000"
 5074 14e6 02       		.byte	0x2
 5075 14e7 C0       		.byte	0xc0
 5076 14e8 3B       		.byte	0x3b
 5077 14e9 9E030000 		.4byte	0x39e
 5078 14ed 02       		.uleb128 0x2
 5079 14ee 91       		.byte	0x91
 5080 14ef 70       		.sleb128 -16
 5081 14f0 00       		.byte	0
 5082 14f1 22       		.uleb128 0x22
 5083 14f2 5A060000 		.4byte	.LASF194
 5084 14f6 B3       		.byte	0xb3
 5085 14f7 14       		.byte	0x14
 5086 14f8 87090000 		.4byte	0x987
 5087 14fc 00000000 		.4byte	.LFB16
 5088 1500 22000000 		.4byte	.LFE16-.LFB16
 5089 1504 01       		.uleb128 0x1
 5090 1505 9C       		.byte	0x9c
 5091 1506 19150000 		.4byte	0x1519
 5092 150a 12       		.uleb128 0x12
 5093 150b 6C7000   		.ascii	"lp\000"
 5094 150e 02       		.byte	0x2
 5095 150f B3       		.byte	0xb3
 5096 1510 30       		.byte	0x30
 5097 1511 9E030000 		.4byte	0x39e
 5098 1515 02       		.uleb128 0x2
 5099 1516 91       		.byte	0x91
 5100 1517 74       		.sleb128 -12
 5101 1518 00       		.byte	0
 5102 1519 23       		.uleb128 0x23
 5103 151a B2070000 		.4byte	.LASF195
 5104 151e 99       		.byte	0x99
 5105 151f 00000000 		.4byte	.LFB14
 5106 1523 18000000 		.4byte	.LFE14-.LFB14
 5107 1527 01       		.uleb128 0x1
 5108 1528 9C       		.byte	0x9c
 5109 1529 3C150000 		.4byte	0x153c
 5110 152d 12       		.uleb128 0x12
 5111 152e 6C7000   		.ascii	"lp\000"
 5112 1531 02       		.byte	0x2
 5113 1532 99       		.byte	0x99
 5114 1533 2C       		.byte	0x2c
 5115 1534 9E030000 		.4byte	0x39e
 5116 1538 02       		.uleb128 0x2
 5117 1539 91       		.byte	0x91
 5118 153a 74       		.sleb128 -12
 5119 153b 00       		.byte	0
 5120 153c 1A       		.uleb128 0x1a
 5121 153d 3B010000 		.4byte	.LASF196
 5122 1541 01       		.byte	0x1
 5123 1542 E401     		.2byte	0x1e4
 5124 1544 14       		.byte	0x14
 5125 1545 87090000 		.4byte	0x987
 5126 1549 00000000 		.4byte	.LFB10
 5127 154d 2C000000 		.4byte	.LFE10-.LFB10
 5128 1551 01       		.uleb128 0x1
 5129 1552 9C       		.byte	0x9c
ARM GAS  C:\Users\DEVELO~1\AppData\Local\Temp\cceHiR3y.s 			page 91


 5130 1553 88150000 		.4byte	0x1588
 5131 1557 09       		.uleb128 0x9
 5132 1558 B0050000 		.4byte	.LASF84
 5133 155c 01       		.byte	0x1
 5134 155d E401     		.2byte	0x1e4
 5135 155f 2F       		.byte	0x2f
 5136 1560 5F030000 		.4byte	0x35f
 5137 1564 02       		.uleb128 0x2
 5138 1565 91       		.byte	0x91
 5139 1566 74       		.sleb128 -12
 5140 1567 09       		.uleb128 0x9
 5141 1568 69090000 		.4byte	.LASF197
 5142 156c 01       		.byte	0x1
 5143 156d E501     		.2byte	0x1e5
 5144 156f 2F       		.byte	0x2f
 5145 1570 5F030000 		.4byte	0x35f
 5146 1574 02       		.uleb128 0x2
 5147 1575 91       		.byte	0x91
 5148 1576 70       		.sleb128 -16
 5149 1577 03       		.uleb128 0x3
 5150 1578 656E6400 		.ascii	"end\000"
 5151 157c 01       		.byte	0x1
 5152 157d E601     		.2byte	0x1e6
 5153 157f 2F       		.byte	0x2f
 5154 1580 5F030000 		.4byte	0x35f
 5155 1584 02       		.uleb128 0x2
 5156 1585 91       		.byte	0x91
 5157 1586 6C       		.sleb128 -20
 5158 1587 00       		.byte	0
 5159 1588 3C       		.uleb128 0x3c
 5160 1589 F6050000 		.4byte	.LASF198
 5161 158d 01       		.byte	0x1
 5162 158e CD01     		.2byte	0x1cd
 5163 1590 1D       		.byte	0x1d
 5164 1591 6B030000 		.4byte	0x36b
 5165 1595 00000000 		.4byte	.LFB9
 5166 1599 1A000000 		.4byte	.LFE9-.LFB9
 5167 159d 01       		.uleb128 0x1
 5168 159e 9C       		.byte	0x9c
 5169 159f 09       		.uleb128 0x9
 5170 15a0 69090000 		.4byte	.LASF197
 5171 15a4 01       		.byte	0x1
 5172 15a5 CD01     		.2byte	0x1cd
 5173 15a7 33       		.byte	0x33
 5174 15a8 5F030000 		.4byte	0x35f
 5175 15ac 02       		.uleb128 0x2
 5176 15ad 91       		.byte	0x91
 5177 15ae 74       		.sleb128 -12
 5178 15af 03       		.uleb128 0x3
 5179 15b0 656E6400 		.ascii	"end\000"
 5180 15b4 01       		.byte	0x1
 5181 15b5 CD01     		.2byte	0x1cd
 5182 15b7 44       		.byte	0x44
 5183 15b8 5F030000 		.4byte	0x35f
 5184 15bc 02       		.uleb128 0x2
 5185 15bd 91       		.byte	0x91
 5186 15be 70       		.sleb128 -16
ARM GAS  C:\Users\DEVELO~1\AppData\Local\Temp\cceHiR3y.s 			page 92


 5187 15bf 00       		.byte	0
 5188 15c0 00       		.byte	0
 5189              		.section	.debug_abbrev,"",%progbits
 5190              	.Ldebug_abbrev0:
 5191 0000 01       		.uleb128 0x1
 5192 0001 0D       		.uleb128 0xd
 5193 0002 00       		.byte	0
 5194 0003 03       		.uleb128 0x3
 5195 0004 0E       		.uleb128 0xe
 5196 0005 3A       		.uleb128 0x3a
 5197 0006 0B       		.uleb128 0xb
 5198 0007 3B       		.uleb128 0x3b
 5199 0008 0B       		.uleb128 0xb
 5200 0009 39       		.uleb128 0x39
 5201 000a 0B       		.uleb128 0xb
 5202 000b 49       		.uleb128 0x49
 5203 000c 13       		.uleb128 0x13
 5204 000d 38       		.uleb128 0x38
 5205 000e 0B       		.uleb128 0xb
 5206 000f 00       		.byte	0
 5207 0010 00       		.byte	0
 5208 0011 02       		.uleb128 0x2
 5209 0012 16       		.uleb128 0x16
 5210 0013 00       		.byte	0
 5211 0014 03       		.uleb128 0x3
 5212 0015 0E       		.uleb128 0xe
 5213 0016 3A       		.uleb128 0x3a
 5214 0017 0B       		.uleb128 0xb
 5215 0018 3B       		.uleb128 0x3b
 5216 0019 0B       		.uleb128 0xb
 5217 001a 39       		.uleb128 0x39
 5218 001b 0B       		.uleb128 0xb
 5219 001c 49       		.uleb128 0x49
 5220 001d 13       		.uleb128 0x13
 5221 001e 00       		.byte	0
 5222 001f 00       		.byte	0
 5223 0020 03       		.uleb128 0x3
 5224 0021 05       		.uleb128 0x5
 5225 0022 00       		.byte	0
 5226 0023 03       		.uleb128 0x3
 5227 0024 08       		.uleb128 0x8
 5228 0025 3A       		.uleb128 0x3a
 5229 0026 0B       		.uleb128 0xb
 5230 0027 3B       		.uleb128 0x3b
 5231 0028 05       		.uleb128 0x5
 5232 0029 39       		.uleb128 0x39
 5233 002a 0B       		.uleb128 0xb
 5234 002b 49       		.uleb128 0x49
 5235 002c 13       		.uleb128 0x13
 5236 002d 02       		.uleb128 0x2
 5237 002e 18       		.uleb128 0x18
 5238 002f 00       		.byte	0
 5239 0030 00       		.byte	0
 5240 0031 04       		.uleb128 0x4
 5241 0032 0F       		.uleb128 0xf
 5242 0033 00       		.byte	0
 5243 0034 0B       		.uleb128 0xb
ARM GAS  C:\Users\DEVELO~1\AppData\Local\Temp\cceHiR3y.s 			page 93


 5244 0035 21       		.uleb128 0x21
 5245 0036 04       		.sleb128 4
 5246 0037 49       		.uleb128 0x49
 5247 0038 13       		.uleb128 0x13
 5248 0039 00       		.byte	0
 5249 003a 00       		.byte	0
 5250 003b 05       		.uleb128 0x5
 5251 003c 0D       		.uleb128 0xd
 5252 003d 00       		.byte	0
 5253 003e 03       		.uleb128 0x3
 5254 003f 0E       		.uleb128 0xe
 5255 0040 3A       		.uleb128 0x3a
 5256 0041 21       		.uleb128 0x21
 5257 0042 0F       		.sleb128 15
 5258 0043 3B       		.uleb128 0x3b
 5259 0044 05       		.uleb128 0x5
 5260 0045 39       		.uleb128 0x39
 5261 0046 0B       		.uleb128 0xb
 5262 0047 49       		.uleb128 0x49
 5263 0048 13       		.uleb128 0x13
 5264 0049 38       		.uleb128 0x38
 5265 004a 0B       		.uleb128 0xb
 5266 004b 00       		.byte	0
 5267 004c 00       		.byte	0
 5268 004d 06       		.uleb128 0x6
 5269 004e 34       		.uleb128 0x34
 5270 004f 00       		.byte	0
 5271 0050 03       		.uleb128 0x3
 5272 0051 0E       		.uleb128 0xe
 5273 0052 49       		.uleb128 0x49
 5274 0053 13       		.uleb128 0x13
 5275 0054 34       		.uleb128 0x34
 5276 0055 19       		.uleb128 0x19
 5277 0056 00       		.byte	0
 5278 0057 00       		.byte	0
 5279 0058 07       		.uleb128 0x7
 5280 0059 26       		.uleb128 0x26
 5281 005a 00       		.byte	0
 5282 005b 49       		.uleb128 0x49
 5283 005c 13       		.uleb128 0x13
 5284 005d 00       		.byte	0
 5285 005e 00       		.byte	0
 5286 005f 08       		.uleb128 0x8
 5287 0060 13       		.uleb128 0x13
 5288 0061 01       		.byte	0x1
 5289 0062 03       		.uleb128 0x3
 5290 0063 0E       		.uleb128 0xe
 5291 0064 0B       		.uleb128 0xb
 5292 0065 0B       		.uleb128 0xb
 5293 0066 3A       		.uleb128 0x3a
 5294 0067 0B       		.uleb128 0xb
 5295 0068 3B       		.uleb128 0x3b
 5296 0069 0B       		.uleb128 0xb
 5297 006a 39       		.uleb128 0x39
 5298 006b 0B       		.uleb128 0xb
 5299 006c 01       		.uleb128 0x1
 5300 006d 13       		.uleb128 0x13
ARM GAS  C:\Users\DEVELO~1\AppData\Local\Temp\cceHiR3y.s 			page 94


 5301 006e 00       		.byte	0
 5302 006f 00       		.byte	0
 5303 0070 09       		.uleb128 0x9
 5304 0071 05       		.uleb128 0x5
 5305 0072 00       		.byte	0
 5306 0073 03       		.uleb128 0x3
 5307 0074 0E       		.uleb128 0xe
 5308 0075 3A       		.uleb128 0x3a
 5309 0076 0B       		.uleb128 0xb
 5310 0077 3B       		.uleb128 0x3b
 5311 0078 05       		.uleb128 0x5
 5312 0079 39       		.uleb128 0x39
 5313 007a 0B       		.uleb128 0xb
 5314 007b 49       		.uleb128 0x49
 5315 007c 13       		.uleb128 0x13
 5316 007d 02       		.uleb128 0x2
 5317 007e 18       		.uleb128 0x18
 5318 007f 00       		.byte	0
 5319 0080 00       		.byte	0
 5320 0081 0A       		.uleb128 0xa
 5321 0082 24       		.uleb128 0x24
 5322 0083 00       		.byte	0
 5323 0084 0B       		.uleb128 0xb
 5324 0085 0B       		.uleb128 0xb
 5325 0086 3E       		.uleb128 0x3e
 5326 0087 0B       		.uleb128 0xb
 5327 0088 03       		.uleb128 0x3
 5328 0089 0E       		.uleb128 0xe
 5329 008a 00       		.byte	0
 5330 008b 00       		.byte	0
 5331 008c 0B       		.uleb128 0xb
 5332 008d 0D       		.uleb128 0xd
 5333 008e 00       		.byte	0
 5334 008f 03       		.uleb128 0x3
 5335 0090 08       		.uleb128 0x8
 5336 0091 3A       		.uleb128 0x3a
 5337 0092 0B       		.uleb128 0xb
 5338 0093 3B       		.uleb128 0x3b
 5339 0094 05       		.uleb128 0x5
 5340 0095 39       		.uleb128 0x39
 5341 0096 0B       		.uleb128 0xb
 5342 0097 49       		.uleb128 0x49
 5343 0098 13       		.uleb128 0x13
 5344 0099 38       		.uleb128 0x38
 5345 009a 0B       		.uleb128 0xb
 5346 009b 00       		.byte	0
 5347 009c 00       		.byte	0
 5348 009d 0C       		.uleb128 0xc
 5349 009e 05       		.uleb128 0x5
 5350 009f 00       		.byte	0
 5351 00a0 49       		.uleb128 0x49
 5352 00a1 13       		.uleb128 0x13
 5353 00a2 00       		.byte	0
 5354 00a3 00       		.byte	0
 5355 00a4 0D       		.uleb128 0xd
 5356 00a5 0D       		.uleb128 0xd
 5357 00a6 00       		.byte	0
ARM GAS  C:\Users\DEVELO~1\AppData\Local\Temp\cceHiR3y.s 			page 95


 5358 00a7 03       		.uleb128 0x3
 5359 00a8 08       		.uleb128 0x8
 5360 00a9 3A       		.uleb128 0x3a
 5361 00aa 0B       		.uleb128 0xb
 5362 00ab 3B       		.uleb128 0x3b
 5363 00ac 0B       		.uleb128 0xb
 5364 00ad 39       		.uleb128 0x39
 5365 00ae 0B       		.uleb128 0xb
 5366 00af 49       		.uleb128 0x49
 5367 00b0 13       		.uleb128 0x13
 5368 00b1 38       		.uleb128 0x38
 5369 00b2 0B       		.uleb128 0xb
 5370 00b3 00       		.byte	0
 5371 00b4 00       		.byte	0
 5372 00b5 0E       		.uleb128 0xe
 5373 00b6 01       		.uleb128 0x1
 5374 00b7 01       		.byte	0x1
 5375 00b8 49       		.uleb128 0x49
 5376 00b9 13       		.uleb128 0x13
 5377 00ba 01       		.uleb128 0x1
 5378 00bb 13       		.uleb128 0x13
 5379 00bc 00       		.byte	0
 5380 00bd 00       		.byte	0
 5381 00be 0F       		.uleb128 0xf
 5382 00bf 21       		.uleb128 0x21
 5383 00c0 00       		.byte	0
 5384 00c1 49       		.uleb128 0x49
 5385 00c2 13       		.uleb128 0x13
 5386 00c3 2F       		.uleb128 0x2f
 5387 00c4 0B       		.uleb128 0xb
 5388 00c5 00       		.byte	0
 5389 00c6 00       		.byte	0
 5390 00c7 10       		.uleb128 0x10
 5391 00c8 2E       		.uleb128 0x2e
 5392 00c9 01       		.byte	0x1
 5393 00ca 3F       		.uleb128 0x3f
 5394 00cb 19       		.uleb128 0x19
 5395 00cc 03       		.uleb128 0x3
 5396 00cd 0E       		.uleb128 0xe
 5397 00ce 3A       		.uleb128 0x3a
 5398 00cf 21       		.uleb128 0x21
 5399 00d0 09       		.sleb128 9
 5400 00d1 3B       		.uleb128 0x3b
 5401 00d2 05       		.uleb128 0x5
 5402 00d3 39       		.uleb128 0x39
 5403 00d4 21       		.uleb128 0x21
 5404 00d5 06       		.sleb128 6
 5405 00d6 27       		.uleb128 0x27
 5406 00d7 19       		.uleb128 0x19
 5407 00d8 11       		.uleb128 0x11
 5408 00d9 01       		.uleb128 0x1
 5409 00da 12       		.uleb128 0x12
 5410 00db 06       		.uleb128 0x6
 5411 00dc 40       		.uleb128 0x40
 5412 00dd 18       		.uleb128 0x18
 5413 00de 7C       		.uleb128 0x7c
 5414 00df 19       		.uleb128 0x19
ARM GAS  C:\Users\DEVELO~1\AppData\Local\Temp\cceHiR3y.s 			page 96


 5415 00e0 01       		.uleb128 0x1
 5416 00e1 13       		.uleb128 0x13
 5417 00e2 00       		.byte	0
 5418 00e3 00       		.byte	0
 5419 00e4 11       		.uleb128 0x11
 5420 00e5 2E       		.uleb128 0x2e
 5421 00e6 01       		.byte	0x1
 5422 00e7 3F       		.uleb128 0x3f
 5423 00e8 19       		.uleb128 0x19
 5424 00e9 03       		.uleb128 0x3
 5425 00ea 0E       		.uleb128 0xe
 5426 00eb 3A       		.uleb128 0x3a
 5427 00ec 21       		.uleb128 0x21
 5428 00ed 09       		.sleb128 9
 5429 00ee 3B       		.uleb128 0x3b
 5430 00ef 05       		.uleb128 0x5
 5431 00f0 39       		.uleb128 0x39
 5432 00f1 0B       		.uleb128 0xb
 5433 00f2 27       		.uleb128 0x27
 5434 00f3 19       		.uleb128 0x19
 5435 00f4 49       		.uleb128 0x49
 5436 00f5 13       		.uleb128 0x13
 5437 00f6 11       		.uleb128 0x11
 5438 00f7 01       		.uleb128 0x1
 5439 00f8 12       		.uleb128 0x12
 5440 00f9 06       		.uleb128 0x6
 5441 00fa 40       		.uleb128 0x40
 5442 00fb 18       		.uleb128 0x18
 5443 00fc 7C       		.uleb128 0x7c
 5444 00fd 19       		.uleb128 0x19
 5445 00fe 01       		.uleb128 0x1
 5446 00ff 13       		.uleb128 0x13
 5447 0100 00       		.byte	0
 5448 0101 00       		.byte	0
 5449 0102 12       		.uleb128 0x12
 5450 0103 05       		.uleb128 0x5
 5451 0104 00       		.byte	0
 5452 0105 03       		.uleb128 0x3
 5453 0106 08       		.uleb128 0x8
 5454 0107 3A       		.uleb128 0x3a
 5455 0108 0B       		.uleb128 0xb
 5456 0109 3B       		.uleb128 0x3b
 5457 010a 0B       		.uleb128 0xb
 5458 010b 39       		.uleb128 0x39
 5459 010c 0B       		.uleb128 0xb
 5460 010d 49       		.uleb128 0x49
 5461 010e 13       		.uleb128 0x13
 5462 010f 02       		.uleb128 0x2
 5463 0110 18       		.uleb128 0x18
 5464 0111 00       		.byte	0
 5465 0112 00       		.byte	0
 5466 0113 13       		.uleb128 0x13
 5467 0114 34       		.uleb128 0x34
 5468 0115 00       		.byte	0
 5469 0116 03       		.uleb128 0x3
 5470 0117 08       		.uleb128 0x8
 5471 0118 3A       		.uleb128 0x3a
ARM GAS  C:\Users\DEVELO~1\AppData\Local\Temp\cceHiR3y.s 			page 97


 5472 0119 0B       		.uleb128 0xb
 5473 011a 3B       		.uleb128 0x3b
 5474 011b 05       		.uleb128 0x5
 5475 011c 39       		.uleb128 0x39
 5476 011d 0B       		.uleb128 0xb
 5477 011e 49       		.uleb128 0x49
 5478 011f 13       		.uleb128 0x13
 5479 0120 02       		.uleb128 0x2
 5480 0121 18       		.uleb128 0x18
 5481 0122 00       		.byte	0
 5482 0123 00       		.byte	0
 5483 0124 14       		.uleb128 0x14
 5484 0125 13       		.uleb128 0x13
 5485 0126 01       		.byte	0x1
 5486 0127 0B       		.uleb128 0xb
 5487 0128 0B       		.uleb128 0xb
 5488 0129 3A       		.uleb128 0x3a
 5489 012a 0B       		.uleb128 0xb
 5490 012b 3B       		.uleb128 0x3b
 5491 012c 0B       		.uleb128 0xb
 5492 012d 39       		.uleb128 0x39
 5493 012e 0B       		.uleb128 0xb
 5494 012f 01       		.uleb128 0x1
 5495 0130 13       		.uleb128 0x13
 5496 0131 00       		.byte	0
 5497 0132 00       		.byte	0
 5498 0133 15       		.uleb128 0x15
 5499 0134 0D       		.uleb128 0xd
 5500 0135 00       		.byte	0
 5501 0136 03       		.uleb128 0x3
 5502 0137 0E       		.uleb128 0xe
 5503 0138 3A       		.uleb128 0x3a
 5504 0139 0B       		.uleb128 0xb
 5505 013a 3B       		.uleb128 0x3b
 5506 013b 0B       		.uleb128 0xb
 5507 013c 39       		.uleb128 0x39
 5508 013d 0B       		.uleb128 0xb
 5509 013e 49       		.uleb128 0x49
 5510 013f 13       		.uleb128 0x13
 5511 0140 00       		.byte	0
 5512 0141 00       		.byte	0
 5513 0142 16       		.uleb128 0x16
 5514 0143 34       		.uleb128 0x34
 5515 0144 00       		.byte	0
 5516 0145 03       		.uleb128 0x3
 5517 0146 0E       		.uleb128 0xe
 5518 0147 3A       		.uleb128 0x3a
 5519 0148 21       		.uleb128 0x21
 5520 0149 09       		.sleb128 9
 5521 014a 3B       		.uleb128 0x3b
 5522 014b 05       		.uleb128 0x5
 5523 014c 39       		.uleb128 0x39
 5524 014d 0B       		.uleb128 0xb
 5525 014e 49       		.uleb128 0x49
 5526 014f 13       		.uleb128 0x13
 5527 0150 02       		.uleb128 0x2
 5528 0151 18       		.uleb128 0x18
ARM GAS  C:\Users\DEVELO~1\AppData\Local\Temp\cceHiR3y.s 			page 98


 5529 0152 00       		.byte	0
 5530 0153 00       		.byte	0
 5531 0154 17       		.uleb128 0x17
 5532 0155 0D       		.uleb128 0xd
 5533 0156 00       		.byte	0
 5534 0157 03       		.uleb128 0x3
 5535 0158 0E       		.uleb128 0xe
 5536 0159 3A       		.uleb128 0x3a
 5537 015a 21       		.uleb128 0x21
 5538 015b 0F       		.sleb128 15
 5539 015c 3B       		.uleb128 0x3b
 5540 015d 05       		.uleb128 0x5
 5541 015e 39       		.uleb128 0x39
 5542 015f 0B       		.uleb128 0xb
 5543 0160 49       		.uleb128 0x49
 5544 0161 13       		.uleb128 0x13
 5545 0162 00       		.byte	0
 5546 0163 00       		.byte	0
 5547 0164 18       		.uleb128 0x18
 5548 0165 13       		.uleb128 0x13
 5549 0166 01       		.byte	0x1
 5550 0167 03       		.uleb128 0x3
 5551 0168 0E       		.uleb128 0xe
 5552 0169 0B       		.uleb128 0xb
 5553 016a 0B       		.uleb128 0xb
 5554 016b 3A       		.uleb128 0x3a
 5555 016c 0B       		.uleb128 0xb
 5556 016d 3B       		.uleb128 0x3b
 5557 016e 05       		.uleb128 0x5
 5558 016f 39       		.uleb128 0x39
 5559 0170 0B       		.uleb128 0xb
 5560 0171 01       		.uleb128 0x1
 5561 0172 13       		.uleb128 0x13
 5562 0173 00       		.byte	0
 5563 0174 00       		.byte	0
 5564 0175 19       		.uleb128 0x19
 5565 0176 2E       		.uleb128 0x2e
 5566 0177 01       		.byte	0x1
 5567 0178 3F       		.uleb128 0x3f
 5568 0179 19       		.uleb128 0x19
 5569 017a 03       		.uleb128 0x3
 5570 017b 0E       		.uleb128 0xe
 5571 017c 3A       		.uleb128 0x3a
 5572 017d 0B       		.uleb128 0xb
 5573 017e 3B       		.uleb128 0x3b
 5574 017f 0B       		.uleb128 0xb
 5575 0180 39       		.uleb128 0x39
 5576 0181 21       		.uleb128 0x21
 5577 0182 08       		.sleb128 8
 5578 0183 27       		.uleb128 0x27
 5579 0184 19       		.uleb128 0x19
 5580 0185 3C       		.uleb128 0x3c
 5581 0186 19       		.uleb128 0x19
 5582 0187 01       		.uleb128 0x1
 5583 0188 13       		.uleb128 0x13
 5584 0189 00       		.byte	0
 5585 018a 00       		.byte	0
ARM GAS  C:\Users\DEVELO~1\AppData\Local\Temp\cceHiR3y.s 			page 99


 5586 018b 1A       		.uleb128 0x1a
 5587 018c 2E       		.uleb128 0x2e
 5588 018d 01       		.byte	0x1
 5589 018e 03       		.uleb128 0x3
 5590 018f 0E       		.uleb128 0xe
 5591 0190 3A       		.uleb128 0x3a
 5592 0191 0B       		.uleb128 0xb
 5593 0192 3B       		.uleb128 0x3b
 5594 0193 05       		.uleb128 0x5
 5595 0194 39       		.uleb128 0x39
 5596 0195 0B       		.uleb128 0xb
 5597 0196 27       		.uleb128 0x27
 5598 0197 19       		.uleb128 0x19
 5599 0198 49       		.uleb128 0x49
 5600 0199 13       		.uleb128 0x13
 5601 019a 11       		.uleb128 0x11
 5602 019b 01       		.uleb128 0x1
 5603 019c 12       		.uleb128 0x12
 5604 019d 06       		.uleb128 0x6
 5605 019e 40       		.uleb128 0x40
 5606 019f 18       		.uleb128 0x18
 5607 01a0 7A       		.uleb128 0x7a
 5608 01a1 19       		.uleb128 0x19
 5609 01a2 01       		.uleb128 0x1
 5610 01a3 13       		.uleb128 0x13
 5611 01a4 00       		.byte	0
 5612 01a5 00       		.byte	0
 5613 01a6 1B       		.uleb128 0x1b
 5614 01a7 1D       		.uleb128 0x1d
 5615 01a8 01       		.byte	0x1
 5616 01a9 31       		.uleb128 0x31
 5617 01aa 13       		.uleb128 0x13
 5618 01ab 11       		.uleb128 0x11
 5619 01ac 01       		.uleb128 0x1
 5620 01ad 12       		.uleb128 0x12
 5621 01ae 06       		.uleb128 0x6
 5622 01af 58       		.uleb128 0x58
 5623 01b0 0B       		.uleb128 0xb
 5624 01b1 59       		.uleb128 0x59
 5625 01b2 05       		.uleb128 0x5
 5626 01b3 57       		.uleb128 0x57
 5627 01b4 21       		.uleb128 0x21
 5628 01b5 03       		.sleb128 3
 5629 01b6 00       		.byte	0
 5630 01b7 00       		.byte	0
 5631 01b8 1C       		.uleb128 0x1c
 5632 01b9 17       		.uleb128 0x17
 5633 01ba 01       		.byte	0x1
 5634 01bb 0B       		.uleb128 0xb
 5635 01bc 0B       		.uleb128 0xb
 5636 01bd 3A       		.uleb128 0x3a
 5637 01be 0B       		.uleb128 0xb
 5638 01bf 3B       		.uleb128 0x3b
 5639 01c0 0B       		.uleb128 0xb
 5640 01c1 39       		.uleb128 0x39
 5641 01c2 21       		.uleb128 0x21
 5642 01c3 03       		.sleb128 3
ARM GAS  C:\Users\DEVELO~1\AppData\Local\Temp\cceHiR3y.s 			page 100


 5643 01c4 01       		.uleb128 0x1
 5644 01c5 13       		.uleb128 0x13
 5645 01c6 00       		.byte	0
 5646 01c7 00       		.byte	0
 5647 01c8 1D       		.uleb128 0x1d
 5648 01c9 0D       		.uleb128 0xd
 5649 01ca 00       		.byte	0
 5650 01cb 03       		.uleb128 0x3
 5651 01cc 08       		.uleb128 0x8
 5652 01cd 3A       		.uleb128 0x3a
 5653 01ce 21       		.uleb128 0x21
 5654 01cf 12       		.sleb128 18
 5655 01d0 3B       		.uleb128 0x3b
 5656 01d1 0B       		.uleb128 0xb
 5657 01d2 39       		.uleb128 0x39
 5658 01d3 21       		.uleb128 0x21
 5659 01d4 07       		.sleb128 7
 5660 01d5 49       		.uleb128 0x49
 5661 01d6 13       		.uleb128 0x13
 5662 01d7 00       		.byte	0
 5663 01d8 00       		.byte	0
 5664 01d9 1E       		.uleb128 0x1e
 5665 01da 0D       		.uleb128 0xd
 5666 01db 00       		.byte	0
 5667 01dc 03       		.uleb128 0x3
 5668 01dd 0E       		.uleb128 0xe
 5669 01de 3A       		.uleb128 0x3a
 5670 01df 21       		.uleb128 0x21
 5671 01e0 12       		.sleb128 18
 5672 01e1 3B       		.uleb128 0x3b
 5673 01e2 0B       		.uleb128 0xb
 5674 01e3 39       		.uleb128 0x39
 5675 01e4 21       		.uleb128 0x21
 5676 01e5 19       		.sleb128 25
 5677 01e6 49       		.uleb128 0x49
 5678 01e7 13       		.uleb128 0x13
 5679 01e8 0D       		.uleb128 0xd
 5680 01e9 0B       		.uleb128 0xb
 5681 01ea 6B       		.uleb128 0x6b
 5682 01eb 0B       		.uleb128 0xb
 5683 01ec 00       		.byte	0
 5684 01ed 00       		.byte	0
 5685 01ee 1F       		.uleb128 0x1f
 5686 01ef 2E       		.uleb128 0x2e
 5687 01f0 01       		.byte	0x1
 5688 01f1 3F       		.uleb128 0x3f
 5689 01f2 19       		.uleb128 0x19
 5690 01f3 03       		.uleb128 0x3
 5691 01f4 0E       		.uleb128 0xe
 5692 01f5 3A       		.uleb128 0x3a
 5693 01f6 21       		.uleb128 0x21
 5694 01f7 09       		.sleb128 9
 5695 01f8 3B       		.uleb128 0x3b
 5696 01f9 0B       		.uleb128 0xb
 5697 01fa 39       		.uleb128 0x39
 5698 01fb 21       		.uleb128 0x21
 5699 01fc 0B       		.sleb128 11
ARM GAS  C:\Users\DEVELO~1\AppData\Local\Temp\cceHiR3y.s 			page 101


 5700 01fd 27       		.uleb128 0x27
 5701 01fe 19       		.uleb128 0x19
 5702 01ff 49       		.uleb128 0x49
 5703 0200 13       		.uleb128 0x13
 5704 0201 11       		.uleb128 0x11
 5705 0202 01       		.uleb128 0x1
 5706 0203 12       		.uleb128 0x12
 5707 0204 06       		.uleb128 0x6
 5708 0205 40       		.uleb128 0x40
 5709 0206 18       		.uleb128 0x18
 5710 0207 7C       		.uleb128 0x7c
 5711 0208 19       		.uleb128 0x19
 5712 0209 01       		.uleb128 0x1
 5713 020a 13       		.uleb128 0x13
 5714 020b 00       		.byte	0
 5715 020c 00       		.byte	0
 5716 020d 20       		.uleb128 0x20
 5717 020e 34       		.uleb128 0x34
 5718 020f 00       		.byte	0
 5719 0210 03       		.uleb128 0x3
 5720 0211 08       		.uleb128 0x8
 5721 0212 3A       		.uleb128 0x3a
 5722 0213 0B       		.uleb128 0xb
 5723 0214 3B       		.uleb128 0x3b
 5724 0215 0B       		.uleb128 0xb
 5725 0216 39       		.uleb128 0x39
 5726 0217 0B       		.uleb128 0xb
 5727 0218 49       		.uleb128 0x49
 5728 0219 13       		.uleb128 0x13
 5729 021a 02       		.uleb128 0x2
 5730 021b 18       		.uleb128 0x18
 5731 021c 00       		.byte	0
 5732 021d 00       		.byte	0
 5733 021e 21       		.uleb128 0x21
 5734 021f 2E       		.uleb128 0x2e
 5735 0220 01       		.byte	0x1
 5736 0221 03       		.uleb128 0x3
 5737 0222 0E       		.uleb128 0xe
 5738 0223 3A       		.uleb128 0x3a
 5739 0224 0B       		.uleb128 0xb
 5740 0225 3B       		.uleb128 0x3b
 5741 0226 05       		.uleb128 0x5
 5742 0227 39       		.uleb128 0x39
 5743 0228 21       		.uleb128 0x21
 5744 0229 14       		.sleb128 20
 5745 022a 27       		.uleb128 0x27
 5746 022b 19       		.uleb128 0x19
 5747 022c 11       		.uleb128 0x11
 5748 022d 01       		.uleb128 0x1
 5749 022e 12       		.uleb128 0x12
 5750 022f 06       		.uleb128 0x6
 5751 0230 40       		.uleb128 0x40
 5752 0231 18       		.uleb128 0x18
 5753 0232 7A       		.uleb128 0x7a
 5754 0233 19       		.uleb128 0x19
 5755 0234 01       		.uleb128 0x1
 5756 0235 13       		.uleb128 0x13
ARM GAS  C:\Users\DEVELO~1\AppData\Local\Temp\cceHiR3y.s 			page 102


 5757 0236 00       		.byte	0
 5758 0237 00       		.byte	0
 5759 0238 22       		.uleb128 0x22
 5760 0239 2E       		.uleb128 0x2e
 5761 023a 01       		.byte	0x1
 5762 023b 03       		.uleb128 0x3
 5763 023c 0E       		.uleb128 0xe
 5764 023d 3A       		.uleb128 0x3a
 5765 023e 21       		.uleb128 0x21
 5766 023f 02       		.sleb128 2
 5767 0240 3B       		.uleb128 0x3b
 5768 0241 0B       		.uleb128 0xb
 5769 0242 39       		.uleb128 0x39
 5770 0243 0B       		.uleb128 0xb
 5771 0244 27       		.uleb128 0x27
 5772 0245 19       		.uleb128 0x19
 5773 0246 49       		.uleb128 0x49
 5774 0247 13       		.uleb128 0x13
 5775 0248 11       		.uleb128 0x11
 5776 0249 01       		.uleb128 0x1
 5777 024a 12       		.uleb128 0x12
 5778 024b 06       		.uleb128 0x6
 5779 024c 40       		.uleb128 0x40
 5780 024d 18       		.uleb128 0x18
 5781 024e 7A       		.uleb128 0x7a
 5782 024f 19       		.uleb128 0x19
 5783 0250 01       		.uleb128 0x1
 5784 0251 13       		.uleb128 0x13
 5785 0252 00       		.byte	0
 5786 0253 00       		.byte	0
 5787 0254 23       		.uleb128 0x23
 5788 0255 2E       		.uleb128 0x2e
 5789 0256 01       		.byte	0x1
 5790 0257 03       		.uleb128 0x3
 5791 0258 0E       		.uleb128 0xe
 5792 0259 3A       		.uleb128 0x3a
 5793 025a 21       		.uleb128 0x21
 5794 025b 02       		.sleb128 2
 5795 025c 3B       		.uleb128 0x3b
 5796 025d 0B       		.uleb128 0xb
 5797 025e 39       		.uleb128 0x39
 5798 025f 21       		.uleb128 0x21
 5799 0260 14       		.sleb128 20
 5800 0261 27       		.uleb128 0x27
 5801 0262 19       		.uleb128 0x19
 5802 0263 11       		.uleb128 0x11
 5803 0264 01       		.uleb128 0x1
 5804 0265 12       		.uleb128 0x12
 5805 0266 06       		.uleb128 0x6
 5806 0267 40       		.uleb128 0x40
 5807 0268 18       		.uleb128 0x18
 5808 0269 7A       		.uleb128 0x7a
 5809 026a 19       		.uleb128 0x19
 5810 026b 01       		.uleb128 0x1
 5811 026c 13       		.uleb128 0x13
 5812 026d 00       		.byte	0
 5813 026e 00       		.byte	0
ARM GAS  C:\Users\DEVELO~1\AppData\Local\Temp\cceHiR3y.s 			page 103


 5814 026f 24       		.uleb128 0x24
 5815 0270 35       		.uleb128 0x35
 5816 0271 00       		.byte	0
 5817 0272 49       		.uleb128 0x49
 5818 0273 13       		.uleb128 0x13
 5819 0274 00       		.byte	0
 5820 0275 00       		.byte	0
 5821 0276 25       		.uleb128 0x25
 5822 0277 16       		.uleb128 0x16
 5823 0278 00       		.byte	0
 5824 0279 03       		.uleb128 0x3
 5825 027a 0E       		.uleb128 0xe
 5826 027b 3A       		.uleb128 0x3a
 5827 027c 21       		.uleb128 0x21
 5828 027d 0F       		.sleb128 15
 5829 027e 3B       		.uleb128 0x3b
 5830 027f 05       		.uleb128 0x5
 5831 0280 39       		.uleb128 0x39
 5832 0281 21       		.uleb128 0x21
 5833 0282 03       		.sleb128 3
 5834 0283 49       		.uleb128 0x49
 5835 0284 13       		.uleb128 0x13
 5836 0285 00       		.byte	0
 5837 0286 00       		.byte	0
 5838 0287 26       		.uleb128 0x26
 5839 0288 2E       		.uleb128 0x2e
 5840 0289 00       		.byte	0
 5841 028a 3F       		.uleb128 0x3f
 5842 028b 19       		.uleb128 0x19
 5843 028c 03       		.uleb128 0x3
 5844 028d 0E       		.uleb128 0xe
 5845 028e 3A       		.uleb128 0x3a
 5846 028f 21       		.uleb128 0x21
 5847 0290 17       		.sleb128 23
 5848 0291 3B       		.uleb128 0x3b
 5849 0292 0B       		.uleb128 0xb
 5850 0293 39       		.uleb128 0x39
 5851 0294 21       		.uleb128 0x21
 5852 0295 08       		.sleb128 8
 5853 0296 27       		.uleb128 0x27
 5854 0297 19       		.uleb128 0x19
 5855 0298 3C       		.uleb128 0x3c
 5856 0299 19       		.uleb128 0x19
 5857 029a 00       		.byte	0
 5858 029b 00       		.byte	0
 5859 029c 27       		.uleb128 0x27
 5860 029d 2E       		.uleb128 0x2e
 5861 029e 01       		.byte	0x1
 5862 029f 3F       		.uleb128 0x3f
 5863 02a0 19       		.uleb128 0x19
 5864 02a1 03       		.uleb128 0x3
 5865 02a2 0E       		.uleb128 0xe
 5866 02a3 3A       		.uleb128 0x3a
 5867 02a4 21       		.uleb128 0x21
 5868 02a5 17       		.sleb128 23
 5869 02a6 3B       		.uleb128 0x3b
 5870 02a7 0B       		.uleb128 0xb
ARM GAS  C:\Users\DEVELO~1\AppData\Local\Temp\cceHiR3y.s 			page 104


 5871 02a8 39       		.uleb128 0x39
 5872 02a9 0B       		.uleb128 0xb
 5873 02aa 27       		.uleb128 0x27
 5874 02ab 19       		.uleb128 0x19
 5875 02ac 49       		.uleb128 0x49
 5876 02ad 13       		.uleb128 0x13
 5877 02ae 3C       		.uleb128 0x3c
 5878 02af 19       		.uleb128 0x19
 5879 02b0 01       		.uleb128 0x1
 5880 02b1 13       		.uleb128 0x13
 5881 02b2 00       		.byte	0
 5882 02b3 00       		.byte	0
 5883 02b4 28       		.uleb128 0x28
 5884 02b5 0B       		.uleb128 0xb
 5885 02b6 01       		.byte	0x1
 5886 02b7 11       		.uleb128 0x11
 5887 02b8 01       		.uleb128 0x1
 5888 02b9 12       		.uleb128 0x12
 5889 02ba 06       		.uleb128 0x6
 5890 02bb 00       		.byte	0
 5891 02bc 00       		.byte	0
 5892 02bd 29       		.uleb128 0x29
 5893 02be 05       		.uleb128 0x5
 5894 02bf 00       		.byte	0
 5895 02c0 03       		.uleb128 0x3
 5896 02c1 0E       		.uleb128 0xe
 5897 02c2 3A       		.uleb128 0x3a
 5898 02c3 21       		.uleb128 0x21
 5899 02c4 09       		.sleb128 9
 5900 02c5 3B       		.uleb128 0x3b
 5901 02c6 0B       		.uleb128 0xb
 5902 02c7 39       		.uleb128 0x39
 5903 02c8 0B       		.uleb128 0xb
 5904 02c9 49       		.uleb128 0x49
 5905 02ca 13       		.uleb128 0x13
 5906 02cb 02       		.uleb128 0x2
 5907 02cc 18       		.uleb128 0x18
 5908 02cd 00       		.byte	0
 5909 02ce 00       		.byte	0
 5910 02cf 2A       		.uleb128 0x2a
 5911 02d0 2E       		.uleb128 0x2e
 5912 02d1 01       		.byte	0x1
 5913 02d2 03       		.uleb128 0x3
 5914 02d3 0E       		.uleb128 0xe
 5915 02d4 3A       		.uleb128 0x3a
 5916 02d5 21       		.uleb128 0x21
 5917 02d6 08       		.sleb128 8
 5918 02d7 3B       		.uleb128 0x3b
 5919 02d8 05       		.uleb128 0x5
 5920 02d9 39       		.uleb128 0x39
 5921 02da 21       		.uleb128 0x21
 5922 02db 14       		.sleb128 20
 5923 02dc 27       		.uleb128 0x27
 5924 02dd 19       		.uleb128 0x19
 5925 02de 11       		.uleb128 0x11
 5926 02df 01       		.uleb128 0x1
 5927 02e0 12       		.uleb128 0x12
ARM GAS  C:\Users\DEVELO~1\AppData\Local\Temp\cceHiR3y.s 			page 105


 5928 02e1 06       		.uleb128 0x6
 5929 02e2 40       		.uleb128 0x40
 5930 02e3 18       		.uleb128 0x18
 5931 02e4 7C       		.uleb128 0x7c
 5932 02e5 19       		.uleb128 0x19
 5933 02e6 01       		.uleb128 0x1
 5934 02e7 13       		.uleb128 0x13
 5935 02e8 00       		.byte	0
 5936 02e9 00       		.byte	0
 5937 02ea 2B       		.uleb128 0x2b
 5938 02eb 2E       		.uleb128 0x2e
 5939 02ec 00       		.byte	0
 5940 02ed 03       		.uleb128 0x3
 5941 02ee 0E       		.uleb128 0xe
 5942 02ef 3A       		.uleb128 0x3a
 5943 02f0 0B       		.uleb128 0xb
 5944 02f1 3B       		.uleb128 0x3b
 5945 02f2 0B       		.uleb128 0xb
 5946 02f3 39       		.uleb128 0x39
 5947 02f4 21       		.uleb128 0x21
 5948 02f5 19       		.sleb128 25
 5949 02f6 27       		.uleb128 0x27
 5950 02f7 19       		.uleb128 0x19
 5951 02f8 49       		.uleb128 0x49
 5952 02f9 13       		.uleb128 0x13
 5953 02fa 11       		.uleb128 0x11
 5954 02fb 01       		.uleb128 0x1
 5955 02fc 12       		.uleb128 0x12
 5956 02fd 06       		.uleb128 0x6
 5957 02fe 40       		.uleb128 0x40
 5958 02ff 18       		.uleb128 0x18
 5959 0300 7C       		.uleb128 0x7c
 5960 0301 19       		.uleb128 0x19
 5961 0302 00       		.byte	0
 5962 0303 00       		.byte	0
 5963 0304 2C       		.uleb128 0x2c
 5964 0305 05       		.uleb128 0x5
 5965 0306 00       		.byte	0
 5966 0307 31       		.uleb128 0x31
 5967 0308 13       		.uleb128 0x13
 5968 0309 02       		.uleb128 0x2
 5969 030a 18       		.uleb128 0x18
 5970 030b 00       		.byte	0
 5971 030c 00       		.byte	0
 5972 030d 2D       		.uleb128 0x2d
 5973 030e 2E       		.uleb128 0x2e
 5974 030f 00       		.byte	0
 5975 0310 03       		.uleb128 0x3
 5976 0311 0E       		.uleb128 0xe
 5977 0312 3A       		.uleb128 0x3a
 5978 0313 21       		.uleb128 0x21
 5979 0314 06       		.sleb128 6
 5980 0315 3B       		.uleb128 0x3b
 5981 0316 05       		.uleb128 0x5
 5982 0317 39       		.uleb128 0x39
 5983 0318 21       		.uleb128 0x21
 5984 0319 1B       		.sleb128 27
ARM GAS  C:\Users\DEVELO~1\AppData\Local\Temp\cceHiR3y.s 			page 106


 5985 031a 27       		.uleb128 0x27
 5986 031b 19       		.uleb128 0x19
 5987 031c 20       		.uleb128 0x20
 5988 031d 21       		.uleb128 0x21
 5989 031e 03       		.sleb128 3
 5990 031f 00       		.byte	0
 5991 0320 00       		.byte	0
 5992 0321 2E       		.uleb128 0x2e
 5993 0322 11       		.uleb128 0x11
 5994 0323 01       		.byte	0x1
 5995 0324 25       		.uleb128 0x25
 5996 0325 0E       		.uleb128 0xe
 5997 0326 13       		.uleb128 0x13
 5998 0327 0B       		.uleb128 0xb
 5999 0328 03       		.uleb128 0x3
 6000 0329 0E       		.uleb128 0xe
 6001 032a 1B       		.uleb128 0x1b
 6002 032b 0E       		.uleb128 0xe
 6003 032c 55       		.uleb128 0x55
 6004 032d 17       		.uleb128 0x17
 6005 032e 11       		.uleb128 0x11
 6006 032f 01       		.uleb128 0x1
 6007 0330 10       		.uleb128 0x10
 6008 0331 17       		.uleb128 0x17
 6009 0332 00       		.byte	0
 6010 0333 00       		.byte	0
 6011 0334 2F       		.uleb128 0x2f
 6012 0335 24       		.uleb128 0x24
 6013 0336 00       		.byte	0
 6014 0337 0B       		.uleb128 0xb
 6015 0338 0B       		.uleb128 0xb
 6016 0339 3E       		.uleb128 0x3e
 6017 033a 0B       		.uleb128 0xb
 6018 033b 03       		.uleb128 0x3
 6019 033c 08       		.uleb128 0x8
 6020 033d 00       		.byte	0
 6021 033e 00       		.byte	0
 6022 033f 30       		.uleb128 0x30
 6023 0340 13       		.uleb128 0x13
 6024 0341 01       		.byte	0x1
 6025 0342 03       		.uleb128 0x3
 6026 0343 0E       		.uleb128 0xe
 6027 0344 0B       		.uleb128 0xb
 6028 0345 05       		.uleb128 0x5
 6029 0346 3A       		.uleb128 0x3a
 6030 0347 0B       		.uleb128 0xb
 6031 0348 3B       		.uleb128 0x3b
 6032 0349 05       		.uleb128 0x5
 6033 034a 39       		.uleb128 0x39
 6034 034b 0B       		.uleb128 0xb
 6035 034c 01       		.uleb128 0x1
 6036 034d 13       		.uleb128 0x13
 6037 034e 00       		.byte	0
 6038 034f 00       		.byte	0
 6039 0350 31       		.uleb128 0x31
 6040 0351 0F       		.uleb128 0xf
 6041 0352 00       		.byte	0
ARM GAS  C:\Users\DEVELO~1\AppData\Local\Temp\cceHiR3y.s 			page 107


 6042 0353 0B       		.uleb128 0xb
 6043 0354 0B       		.uleb128 0xb
 6044 0355 00       		.byte	0
 6045 0356 00       		.byte	0
 6046 0357 32       		.uleb128 0x32
 6047 0358 13       		.uleb128 0x13
 6048 0359 01       		.byte	0x1
 6049 035a 0B       		.uleb128 0xb
 6050 035b 05       		.uleb128 0x5
 6051 035c 3A       		.uleb128 0x3a
 6052 035d 0B       		.uleb128 0xb
 6053 035e 3B       		.uleb128 0x3b
 6054 035f 0B       		.uleb128 0xb
 6055 0360 39       		.uleb128 0x39
 6056 0361 0B       		.uleb128 0xb
 6057 0362 01       		.uleb128 0x1
 6058 0363 13       		.uleb128 0x13
 6059 0364 00       		.byte	0
 6060 0365 00       		.byte	0
 6061 0366 33       		.uleb128 0x33
 6062 0367 34       		.uleb128 0x34
 6063 0368 00       		.byte	0
 6064 0369 03       		.uleb128 0x3
 6065 036a 08       		.uleb128 0x8
 6066 036b 3A       		.uleb128 0x3a
 6067 036c 0B       		.uleb128 0xb
 6068 036d 3B       		.uleb128 0x3b
 6069 036e 05       		.uleb128 0x5
 6070 036f 39       		.uleb128 0x39
 6071 0370 0B       		.uleb128 0xb
 6072 0371 49       		.uleb128 0x49
 6073 0372 13       		.uleb128 0x13
 6074 0373 3F       		.uleb128 0x3f
 6075 0374 19       		.uleb128 0x19
 6076 0375 3C       		.uleb128 0x3c
 6077 0376 19       		.uleb128 0x19
 6078 0377 00       		.byte	0
 6079 0378 00       		.byte	0
 6080 0379 34       		.uleb128 0x34
 6081 037a 15       		.uleb128 0x15
 6082 037b 01       		.byte	0x1
 6083 037c 27       		.uleb128 0x27
 6084 037d 19       		.uleb128 0x19
 6085 037e 01       		.uleb128 0x1
 6086 037f 13       		.uleb128 0x13
 6087 0380 00       		.byte	0
 6088 0381 00       		.byte	0
 6089 0382 35       		.uleb128 0x35
 6090 0383 15       		.uleb128 0x15
 6091 0384 01       		.byte	0x1
 6092 0385 27       		.uleb128 0x27
 6093 0386 19       		.uleb128 0x19
 6094 0387 49       		.uleb128 0x49
 6095 0388 13       		.uleb128 0x13
 6096 0389 01       		.uleb128 0x1
 6097 038a 13       		.uleb128 0x13
 6098 038b 00       		.byte	0
ARM GAS  C:\Users\DEVELO~1\AppData\Local\Temp\cceHiR3y.s 			page 108


 6099 038c 00       		.byte	0
 6100 038d 36       		.uleb128 0x36
 6101 038e 2E       		.uleb128 0x2e
 6102 038f 00       		.byte	0
 6103 0390 3F       		.uleb128 0x3f
 6104 0391 19       		.uleb128 0x19
 6105 0392 03       		.uleb128 0x3
 6106 0393 0E       		.uleb128 0xe
 6107 0394 3A       		.uleb128 0x3a
 6108 0395 0B       		.uleb128 0xb
 6109 0396 3B       		.uleb128 0x3b
 6110 0397 0B       		.uleb128 0xb
 6111 0398 39       		.uleb128 0x39
 6112 0399 0B       		.uleb128 0xb
 6113 039a 27       		.uleb128 0x27
 6114 039b 19       		.uleb128 0x19
 6115 039c 49       		.uleb128 0x49
 6116 039d 13       		.uleb128 0x13
 6117 039e 3C       		.uleb128 0x3c
 6118 039f 19       		.uleb128 0x19
 6119 03a0 00       		.byte	0
 6120 03a1 00       		.byte	0
 6121 03a2 37       		.uleb128 0x37
 6122 03a3 2E       		.uleb128 0x2e
 6123 03a4 00       		.byte	0
 6124 03a5 3F       		.uleb128 0x3f
 6125 03a6 19       		.uleb128 0x19
 6126 03a7 03       		.uleb128 0x3
 6127 03a8 0E       		.uleb128 0xe
 6128 03a9 3A       		.uleb128 0x3a
 6129 03aa 0B       		.uleb128 0xb
 6130 03ab 3B       		.uleb128 0x3b
 6131 03ac 05       		.uleb128 0x5
 6132 03ad 39       		.uleb128 0x39
 6133 03ae 0B       		.uleb128 0xb
 6134 03af 27       		.uleb128 0x27
 6135 03b0 19       		.uleb128 0x19
 6136 03b1 3C       		.uleb128 0x3c
 6137 03b2 19       		.uleb128 0x19
 6138 03b3 00       		.byte	0
 6139 03b4 00       		.byte	0
 6140 03b5 38       		.uleb128 0x38
 6141 03b6 2E       		.uleb128 0x2e
 6142 03b7 00       		.byte	0
 6143 03b8 3F       		.uleb128 0x3f
 6144 03b9 19       		.uleb128 0x19
 6145 03ba 03       		.uleb128 0x3
 6146 03bb 0E       		.uleb128 0xe
 6147 03bc 3A       		.uleb128 0x3a
 6148 03bd 0B       		.uleb128 0xb
 6149 03be 3B       		.uleb128 0x3b
 6150 03bf 05       		.uleb128 0x5
 6151 03c0 39       		.uleb128 0x39
 6152 03c1 0B       		.uleb128 0xb
 6153 03c2 27       		.uleb128 0x27
 6154 03c3 19       		.uleb128 0x19
 6155 03c4 11       		.uleb128 0x11
ARM GAS  C:\Users\DEVELO~1\AppData\Local\Temp\cceHiR3y.s 			page 109


 6156 03c5 01       		.uleb128 0x1
 6157 03c6 12       		.uleb128 0x12
 6158 03c7 06       		.uleb128 0x6
 6159 03c8 40       		.uleb128 0x40
 6160 03c9 18       		.uleb128 0x18
 6161 03ca 7C       		.uleb128 0x7c
 6162 03cb 19       		.uleb128 0x19
 6163 03cc 00       		.byte	0
 6164 03cd 00       		.byte	0
 6165 03ce 39       		.uleb128 0x39
 6166 03cf 2E       		.uleb128 0x2e
 6167 03d0 00       		.byte	0
 6168 03d1 03       		.uleb128 0x3
 6169 03d2 0E       		.uleb128 0xe
 6170 03d3 3A       		.uleb128 0x3a
 6171 03d4 0B       		.uleb128 0xb
 6172 03d5 3B       		.uleb128 0x3b
 6173 03d6 05       		.uleb128 0x5
 6174 03d7 39       		.uleb128 0x39
 6175 03d8 0B       		.uleb128 0xb
 6176 03d9 27       		.uleb128 0x27
 6177 03da 19       		.uleb128 0x19
 6178 03db 49       		.uleb128 0x49
 6179 03dc 13       		.uleb128 0x13
 6180 03dd 11       		.uleb128 0x11
 6181 03de 01       		.uleb128 0x1
 6182 03df 12       		.uleb128 0x12
 6183 03e0 06       		.uleb128 0x6
 6184 03e1 40       		.uleb128 0x40
 6185 03e2 18       		.uleb128 0x18
 6186 03e3 7A       		.uleb128 0x7a
 6187 03e4 19       		.uleb128 0x19
 6188 03e5 00       		.byte	0
 6189 03e6 00       		.byte	0
 6190 03e7 3A       		.uleb128 0x3a
 6191 03e8 2E       		.uleb128 0x2e
 6192 03e9 01       		.byte	0x1
 6193 03ea 03       		.uleb128 0x3
 6194 03eb 0E       		.uleb128 0xe
 6195 03ec 3A       		.uleb128 0x3a
 6196 03ed 0B       		.uleb128 0xb
 6197 03ee 3B       		.uleb128 0x3b
 6198 03ef 05       		.uleb128 0x5
 6199 03f0 39       		.uleb128 0x39
 6200 03f1 0B       		.uleb128 0xb
 6201 03f2 27       		.uleb128 0x27
 6202 03f3 19       		.uleb128 0x19
 6203 03f4 20       		.uleb128 0x20
 6204 03f5 0B       		.uleb128 0xb
 6205 03f6 01       		.uleb128 0x1
 6206 03f7 13       		.uleb128 0x13
 6207 03f8 00       		.byte	0
 6208 03f9 00       		.byte	0
 6209 03fa 3B       		.uleb128 0x3b
 6210 03fb 05       		.uleb128 0x5
 6211 03fc 00       		.byte	0
 6212 03fd 03       		.uleb128 0x3
ARM GAS  C:\Users\DEVELO~1\AppData\Local\Temp\cceHiR3y.s 			page 110


 6213 03fe 0E       		.uleb128 0xe
 6214 03ff 3A       		.uleb128 0x3a
 6215 0400 0B       		.uleb128 0xb
 6216 0401 3B       		.uleb128 0x3b
 6217 0402 05       		.uleb128 0x5
 6218 0403 39       		.uleb128 0x39
 6219 0404 0B       		.uleb128 0xb
 6220 0405 49       		.uleb128 0x49
 6221 0406 13       		.uleb128 0x13
 6222 0407 00       		.byte	0
 6223 0408 00       		.byte	0
 6224 0409 3C       		.uleb128 0x3c
 6225 040a 2E       		.uleb128 0x2e
 6226 040b 01       		.byte	0x1
 6227 040c 03       		.uleb128 0x3
 6228 040d 0E       		.uleb128 0xe
 6229 040e 3A       		.uleb128 0x3a
 6230 040f 0B       		.uleb128 0xb
 6231 0410 3B       		.uleb128 0x3b
 6232 0411 05       		.uleb128 0x5
 6233 0412 39       		.uleb128 0x39
 6234 0413 0B       		.uleb128 0xb
 6235 0414 27       		.uleb128 0x27
 6236 0415 19       		.uleb128 0x19
 6237 0416 49       		.uleb128 0x49
 6238 0417 13       		.uleb128 0x13
 6239 0418 11       		.uleb128 0x11
 6240 0419 01       		.uleb128 0x1
 6241 041a 12       		.uleb128 0x12
 6242 041b 06       		.uleb128 0x6
 6243 041c 40       		.uleb128 0x40
 6244 041d 18       		.uleb128 0x18
 6245 041e 7A       		.uleb128 0x7a
 6246 041f 19       		.uleb128 0x19
 6247 0420 00       		.byte	0
 6248 0421 00       		.byte	0
 6249 0422 00       		.byte	0
 6250              		.section	.debug_aranges,"",%progbits
 6251 0000 7C010000 		.4byte	0x17c
 6252 0004 0200     		.2byte	0x2
 6253 0006 00000000 		.4byte	.Ldebug_info0
 6254 000a 04       		.byte	0x4
 6255 000b 00       		.byte	0
 6256 000c 0000     		.2byte	0
 6257 000e 0000     		.2byte	0
 6258 0010 00000000 		.4byte	.LFB9
 6259 0014 1A000000 		.4byte	.LFE9-.LFB9
 6260 0018 00000000 		.4byte	.LFB10
 6261 001c 2C000000 		.4byte	.LFE10-.LFB10
 6262 0020 00000000 		.4byte	.LFB14
 6263 0024 18000000 		.4byte	.LFE14-.LFB14
 6264 0028 00000000 		.4byte	.LFB16
 6265 002c 22000000 		.4byte	.LFE16-.LFB16
 6266 0030 00000000 		.4byte	.LFB17
 6267 0034 22000000 		.4byte	.LFE17-.LFB17
 6268 0038 00000000 		.4byte	.LFB18
 6269 003c 22000000 		.4byte	.LFE18-.LFB18
ARM GAS  C:\Users\DEVELO~1\AppData\Local\Temp\cceHiR3y.s 			page 111


 6270 0040 00000000 		.4byte	.LFB19
 6271 0044 1E000000 		.4byte	.LFE19-.LFB19
 6272 0048 00000000 		.4byte	.LFB21
 6273 004c 22000000 		.4byte	.LFE21-.LFB21
 6274 0050 00000000 		.4byte	.LFB22
 6275 0054 30000000 		.4byte	.LFE22-.LFB22
 6276 0058 00000000 		.4byte	.LFB23
 6277 005c 2A000000 		.4byte	.LFE23-.LFB23
 6278 0060 00000000 		.4byte	.LFB25
 6279 0064 28000000 		.4byte	.LFE25-.LFB25
 6280 0068 00000000 		.4byte	.LFB196
 6281 006c 0E000000 		.4byte	.LFE196-.LFB196
 6282 0070 00000000 		.4byte	.LFB202
 6283 0074 1E000000 		.4byte	.LFE202-.LFB202
 6284 0078 00000000 		.4byte	.LFB203
 6285 007c 1E000000 		.4byte	.LFE203-.LFB203
 6286 0080 00000000 		.4byte	.LFB209
 6287 0084 0E000000 		.4byte	.LFE209-.LFB209
 6288 0088 00000000 		.4byte	.LFB229
 6289 008c 14000000 		.4byte	.LFE229-.LFB229
 6290 0090 00000000 		.4byte	.LFB231
 6291 0094 16000000 		.4byte	.LFE231-.LFB231
 6292 0098 00000000 		.4byte	.LFB235
 6293 009c 18000000 		.4byte	.LFE235-.LFB235
 6294 00a0 00000000 		.4byte	.LFB238
 6295 00a4 28000000 		.4byte	.LFE238-.LFB238
 6296 00a8 00000000 		.4byte	.LFB346
 6297 00ac 7A000000 		.4byte	.LFE346-.LFB346
 6298 00b0 00000000 		.4byte	.LFB347
 6299 00b4 60000000 		.4byte	.LFE347-.LFB347
 6300 00b8 00000000 		.4byte	.LFB348
 6301 00bc 22000000 		.4byte	.LFE348-.LFB348
 6302 00c0 00000000 		.4byte	.LFB349
 6303 00c4 20000000 		.4byte	.LFE349-.LFB349
 6304 00c8 00000000 		.4byte	.LFB350
 6305 00cc 2A000000 		.4byte	.LFE350-.LFB350
 6306 00d0 00000000 		.4byte	.LFB351
 6307 00d4 74000000 		.4byte	.LFE351-.LFB351
 6308 00d8 00000000 		.4byte	.LFB352
 6309 00dc 22000000 		.4byte	.LFE352-.LFB352
 6310 00e0 00000000 		.4byte	.LFB353
 6311 00e4 2A000000 		.4byte	.LFE353-.LFB353
 6312 00e8 00000000 		.4byte	.LFB354
 6313 00ec 84000000 		.4byte	.LFE354-.LFB354
 6314 00f0 00000000 		.4byte	.LFB355
 6315 00f4 1A000000 		.4byte	.LFE355-.LFB355
 6316 00f8 00000000 		.4byte	.LFB356
 6317 00fc 7C000000 		.4byte	.LFE356-.LFB356
 6318 0100 00000000 		.4byte	.LFB357
 6319 0104 54000000 		.4byte	.LFE357-.LFB357
 6320 0108 00000000 		.4byte	.LFB358
 6321 010c 4C000000 		.4byte	.LFE358-.LFB358
 6322 0110 00000000 		.4byte	.LFB359
 6323 0114 2A000000 		.4byte	.LFE359-.LFB359
 6324 0118 00000000 		.4byte	.LFB360
 6325 011c 1E000000 		.4byte	.LFE360-.LFB360
 6326 0120 00000000 		.4byte	.LFB361
ARM GAS  C:\Users\DEVELO~1\AppData\Local\Temp\cceHiR3y.s 			page 112


 6327 0124 3E000000 		.4byte	.LFE361-.LFB361
 6328 0128 00000000 		.4byte	.LFB362
 6329 012c 42000000 		.4byte	.LFE362-.LFB362
 6330 0130 00000000 		.4byte	.LFB363
 6331 0134 14000000 		.4byte	.LFE363-.LFB363
 6332 0138 00000000 		.4byte	.LFB364
 6333 013c 30000000 		.4byte	.LFE364-.LFB364
 6334 0140 00000000 		.4byte	.LFB365
 6335 0144 44000000 		.4byte	.LFE365-.LFB365
 6336 0148 00000000 		.4byte	.LFB366
 6337 014c 32000000 		.4byte	.LFE366-.LFB366
 6338 0150 00000000 		.4byte	.LFB367
 6339 0154 2E000000 		.4byte	.LFE367-.LFB367
 6340 0158 00000000 		.4byte	.LFB368
 6341 015c 22000000 		.4byte	.LFE368-.LFB368
 6342 0160 00000000 		.4byte	.LFB369
 6343 0164 42000000 		.4byte	.LFE369-.LFB369
 6344 0168 00000000 		.4byte	.LFB370
 6345 016c 28000000 		.4byte	.LFE370-.LFB370
 6346 0170 00000000 		.4byte	.LFB371
 6347 0174 2C000000 		.4byte	.LFE371-.LFB371
 6348 0178 00000000 		.4byte	0
 6349 017c 00000000 		.4byte	0
 6350              		.section	.debug_rnglists,"",%progbits
 6351              	.Ldebug_ranges0:
 6352 0000 18010000 		.4byte	.Ldebug_ranges3-.Ldebug_ranges2
 6353              	.Ldebug_ranges2:
 6354 0004 0500     		.2byte	0x5
 6355 0006 04       		.byte	0x4
 6356 0007 00       		.byte	0
 6357 0008 00000000 		.4byte	0
 6358              	.LLRL0:
 6359 000c 07       		.byte	0x7
 6360 000d 00000000 		.4byte	.LFB9
 6361 0011 1A       		.uleb128 .LFE9-.LFB9
 6362 0012 07       		.byte	0x7
 6363 0013 00000000 		.4byte	.LFB10
 6364 0017 2C       		.uleb128 .LFE10-.LFB10
 6365 0018 07       		.byte	0x7
 6366 0019 00000000 		.4byte	.LFB14
 6367 001d 18       		.uleb128 .LFE14-.LFB14
 6368 001e 07       		.byte	0x7
 6369 001f 00000000 		.4byte	.LFB16
 6370 0023 22       		.uleb128 .LFE16-.LFB16
 6371 0024 07       		.byte	0x7
 6372 0025 00000000 		.4byte	.LFB17
 6373 0029 22       		.uleb128 .LFE17-.LFB17
 6374 002a 07       		.byte	0x7
 6375 002b 00000000 		.4byte	.LFB18
 6376 002f 22       		.uleb128 .LFE18-.LFB18
 6377 0030 07       		.byte	0x7
 6378 0031 00000000 		.4byte	.LFB19
 6379 0035 1E       		.uleb128 .LFE19-.LFB19
 6380 0036 07       		.byte	0x7
 6381 0037 00000000 		.4byte	.LFB21
 6382 003b 22       		.uleb128 .LFE21-.LFB21
 6383 003c 07       		.byte	0x7
ARM GAS  C:\Users\DEVELO~1\AppData\Local\Temp\cceHiR3y.s 			page 113


 6384 003d 00000000 		.4byte	.LFB22
 6385 0041 30       		.uleb128 .LFE22-.LFB22
 6386 0042 07       		.byte	0x7
 6387 0043 00000000 		.4byte	.LFB23
 6388 0047 2A       		.uleb128 .LFE23-.LFB23
 6389 0048 07       		.byte	0x7
 6390 0049 00000000 		.4byte	.LFB25
 6391 004d 28       		.uleb128 .LFE25-.LFB25
 6392 004e 07       		.byte	0x7
 6393 004f 00000000 		.4byte	.LFB196
 6394 0053 0E       		.uleb128 .LFE196-.LFB196
 6395 0054 07       		.byte	0x7
 6396 0055 00000000 		.4byte	.LFB202
 6397 0059 1E       		.uleb128 .LFE202-.LFB202
 6398 005a 07       		.byte	0x7
 6399 005b 00000000 		.4byte	.LFB203
 6400 005f 1E       		.uleb128 .LFE203-.LFB203
 6401 0060 07       		.byte	0x7
 6402 0061 00000000 		.4byte	.LFB209
 6403 0065 0E       		.uleb128 .LFE209-.LFB209
 6404 0066 07       		.byte	0x7
 6405 0067 00000000 		.4byte	.LFB229
 6406 006b 14       		.uleb128 .LFE229-.LFB229
 6407 006c 07       		.byte	0x7
 6408 006d 00000000 		.4byte	.LFB231
 6409 0071 16       		.uleb128 .LFE231-.LFB231
 6410 0072 07       		.byte	0x7
 6411 0073 00000000 		.4byte	.LFB235
 6412 0077 18       		.uleb128 .LFE235-.LFB235
 6413 0078 07       		.byte	0x7
 6414 0079 00000000 		.4byte	.LFB238
 6415 007d 28       		.uleb128 .LFE238-.LFB238
 6416 007e 07       		.byte	0x7
 6417 007f 00000000 		.4byte	.LFB346
 6418 0083 7A       		.uleb128 .LFE346-.LFB346
 6419 0084 07       		.byte	0x7
 6420 0085 00000000 		.4byte	.LFB347
 6421 0089 60       		.uleb128 .LFE347-.LFB347
 6422 008a 07       		.byte	0x7
 6423 008b 00000000 		.4byte	.LFB348
 6424 008f 22       		.uleb128 .LFE348-.LFB348
 6425 0090 07       		.byte	0x7
 6426 0091 00000000 		.4byte	.LFB349
 6427 0095 20       		.uleb128 .LFE349-.LFB349
 6428 0096 07       		.byte	0x7
 6429 0097 00000000 		.4byte	.LFB350
 6430 009b 2A       		.uleb128 .LFE350-.LFB350
 6431 009c 07       		.byte	0x7
 6432 009d 00000000 		.4byte	.LFB351
 6433 00a1 74       		.uleb128 .LFE351-.LFB351
 6434 00a2 07       		.byte	0x7
 6435 00a3 00000000 		.4byte	.LFB352
 6436 00a7 22       		.uleb128 .LFE352-.LFB352
 6437 00a8 07       		.byte	0x7
 6438 00a9 00000000 		.4byte	.LFB353
 6439 00ad 2A       		.uleb128 .LFE353-.LFB353
 6440 00ae 07       		.byte	0x7
ARM GAS  C:\Users\DEVELO~1\AppData\Local\Temp\cceHiR3y.s 			page 114


 6441 00af 00000000 		.4byte	.LFB354
 6442 00b3 8401     		.uleb128 .LFE354-.LFB354
 6443 00b5 07       		.byte	0x7
 6444 00b6 00000000 		.4byte	.LFB355
 6445 00ba 1A       		.uleb128 .LFE355-.LFB355
 6446 00bb 07       		.byte	0x7
 6447 00bc 00000000 		.4byte	.LFB356
 6448 00c0 7C       		.uleb128 .LFE356-.LFB356
 6449 00c1 07       		.byte	0x7
 6450 00c2 00000000 		.4byte	.LFB357
 6451 00c6 54       		.uleb128 .LFE357-.LFB357
 6452 00c7 07       		.byte	0x7
 6453 00c8 00000000 		.4byte	.LFB358
 6454 00cc 4C       		.uleb128 .LFE358-.LFB358
 6455 00cd 07       		.byte	0x7
 6456 00ce 00000000 		.4byte	.LFB359
 6457 00d2 2A       		.uleb128 .LFE359-.LFB359
 6458 00d3 07       		.byte	0x7
 6459 00d4 00000000 		.4byte	.LFB360
 6460 00d8 1E       		.uleb128 .LFE360-.LFB360
 6461 00d9 07       		.byte	0x7
 6462 00da 00000000 		.4byte	.LFB361
 6463 00de 3E       		.uleb128 .LFE361-.LFB361
 6464 00df 07       		.byte	0x7
 6465 00e0 00000000 		.4byte	.LFB362
 6466 00e4 42       		.uleb128 .LFE362-.LFB362
 6467 00e5 07       		.byte	0x7
 6468 00e6 00000000 		.4byte	.LFB363
 6469 00ea 14       		.uleb128 .LFE363-.LFB363
 6470 00eb 07       		.byte	0x7
 6471 00ec 00000000 		.4byte	.LFB364
 6472 00f0 30       		.uleb128 .LFE364-.LFB364
 6473 00f1 07       		.byte	0x7
 6474 00f2 00000000 		.4byte	.LFB365
 6475 00f6 44       		.uleb128 .LFE365-.LFB365
 6476 00f7 07       		.byte	0x7
 6477 00f8 00000000 		.4byte	.LFB366
 6478 00fc 32       		.uleb128 .LFE366-.LFB366
 6479 00fd 07       		.byte	0x7
 6480 00fe 00000000 		.4byte	.LFB367
 6481 0102 2E       		.uleb128 .LFE367-.LFB367
 6482 0103 07       		.byte	0x7
 6483 0104 00000000 		.4byte	.LFB368
 6484 0108 22       		.uleb128 .LFE368-.LFB368
 6485 0109 07       		.byte	0x7
 6486 010a 00000000 		.4byte	.LFB369
 6487 010e 42       		.uleb128 .LFE369-.LFB369
 6488 010f 07       		.byte	0x7
 6489 0110 00000000 		.4byte	.LFB370
 6490 0114 28       		.uleb128 .LFE370-.LFB370
 6491 0115 07       		.byte	0x7
 6492 0116 00000000 		.4byte	.LFB371
 6493 011a 2C       		.uleb128 .LFE371-.LFB371
 6494 011b 00       		.byte	0
 6495              	.Ldebug_ranges3:
 6496              		.section	.debug_line,"",%progbits
 6497              	.Ldebug_line0:
ARM GAS  C:\Users\DEVELO~1\AppData\Local\Temp\cceHiR3y.s 			page 115


 6498 0000 D5090000 		.section	.debug_str,"MS",%progbits,1
 6498      03003403 
 6498      00000201 
 6498      FB0E0D00 
 6498      01010101 
 6499              	.LASF123:
 6500 0000 7466756E 		.ascii	"tfunc_t\000"
 6500      635F7400 
 6501              	.LASF116:
 6502 0008 72656164 		.ascii	"ready_list_t\000"
 6502      795F6C69 
 6502      73745F74 
 6502      00
 6503              	.LASF4:
 6504 0015 73697A65 		.ascii	"size_t\000"
 6504      5F7400
 6505              	.LASF105:
 6506 001c 7264796D 		.ascii	"rdymsg\000"
 6506      736700
 6507              	.LASF126:
 6508 0023 66756E63 		.ascii	"funcp\000"
 6508      7000
 6509              	.LASF52:
 6510 0029 72666375 		.ascii	"rfcu\000"
 6510      00
 6511              	.LASF145:
 6512 002e 63685468 		.ascii	"chThdDequeueAllI\000"
 6512      64446571 
 6512      75657565 
 6512      416C6C49 
 6512      00
 6513              	.LASF131:
 6514 003f 706F6F6C 		.ascii	"pool_header\000"
 6514      5F686561 
 6514      64657200 
 6515              	.LASF140:
 6516 004b 63684865 		.ascii	"chHeapFree\000"
 6516      61704672 
 6516      656500
 6517              	.LASF5:
 6518 0056 5F5F7569 		.ascii	"__uint8_t\000"
 6518      6E74385F 
 6518      7400
 6519              	.LASF71:
 6520 0060 70726576 		.ascii	"prev\000"
 6520      00
 6521              	.LASF90:
 6522 0065 706F7274 		.ascii	"port_intctx\000"
 6522      5F696E74 
 6522      63747800 
 6523              	.LASF49:
 6524 0071 76746C69 		.ascii	"vtlist\000"
 6524      737400
 6525              	.LASF156:
 6526 0078 63685468 		.ascii	"chThdSleepUntilWindowed\000"
 6526      64536C65 
 6526      6570556E 
ARM GAS  C:\Users\DEVELO~1\AppData\Local\Temp\cceHiR3y.s 			page 116


 6526      74696C57 
 6526      696E646F 
 6527              	.LASF134:
 6528 0090 70726F76 		.ascii	"provider\000"
 6528      69646572 
 6528      00
 6529              	.LASF82:
 6530 0099 74797065 		.ascii	"type\000"
 6530      00
 6531              	.LASF127:
 6532 009e 74687265 		.ascii	"thread_descriptor_t\000"
 6532      61645F64 
 6532      65736372 
 6532      6970746F 
 6532      725F7400 
 6533              	.LASF85:
 6534 00b2 74726163 		.ascii	"trace_event_t\000"
 6534      655F6576 
 6534      656E745F 
 6534      7400
 6535              	.LASF130:
 6536 00c0 6D656D67 		.ascii	"memgetfunc_t\000"
 6536      65746675 
 6536      6E635F74 
 6536      00
 6537              	.LASF177:
 6538 00cd 63685468 		.ascii	"chThdSleepS\000"
 6538      64536C65 
 6538      65705300 
 6539              	.LASF165:
 6540 00d9 63685468 		.ascii	"chThdExitS\000"
 6540      64457869 
 6540      745300
 6541              	.LASF80:
 6542 00e4 68616C74 		.ascii	"halt\000"
 6542      00
 6543              	.LASF106:
 6544 00e9 65786974 		.ascii	"exitcode\000"
 6544      636F6465 
 6544      00
 6545              	.LASF54:
 6546 00f2 6D61696E 		.ascii	"mainthread\000"
 6546      74687265 
 6546      616400
 6547              	.LASF108:
 6548 00fd 73656E74 		.ascii	"sentmsg\000"
 6548      6D736700 
 6549              	.LASF77:
 6550 0105 64656C74 		.ascii	"delta\000"
 6550      6100
 6551              	.LASF68:
 6552 010b 6E657874 		.ascii	"next\000"
 6552      00
 6553              	.LASF101:
 6554 0110 63685F74 		.ascii	"ch_threads_queue\000"
 6554      68726561 
 6554      64735F71 
ARM GAS  C:\Users\DEVELO~1\AppData\Local\Temp\cceHiR3y.s 			page 117


 6554      75657565 
 6554      00
 6555              	.LASF1:
 6556 0121 6C6F6E67 		.ascii	"long long int\000"
 6556      206C6F6E 
 6556      6720696E 
 6556      7400
 6557              	.LASF3:
 6558 012f 7369676E 		.ascii	"signed char\000"
 6558      65642063 
 6558      68617200 
 6559              	.LASF196:
 6560 013b 63685469 		.ascii	"chTimeIsInRangeX\000"
 6560      6D654973 
 6560      496E5261 
 6560      6E676558 
 6560      00
 6561              	.LASF166:
 6562 014c 63685468 		.ascii	"chThdExit\000"
 6562      64457869 
 6562      7400
 6563              	.LASF13:
 6564 0156 6C6F6E67 		.ascii	"long unsigned int\000"
 6564      20756E73 
 6564      69676E65 
 6564      6420696E 
 6564      7400
 6565              	.LASF76:
 6566 0168 63685F64 		.ascii	"ch_delta_list\000"
 6566      656C7461 
 6566      5F6C6973 
 6566      7400
 6567              	.LASF15:
 6568 0176 6C6F6E67 		.ascii	"long long unsigned int\000"
 6568      206C6F6E 
 6568      6720756E 
 6568      7369676E 
 6568      65642069 
 6569              	.LASF174:
 6570 018d 63685468 		.ascii	"chThdCreateSuspendedI\000"
 6570      64437265 
 6570      61746553 
 6570      75737065 
 6570      6E646564 
 6571              	.LASF205:
 6572 01a3 62617365 		.ascii	"basePri\000"
 6572      50726900 
 6573              	.LASF199:
 6574 01ab 474E5520 		.ascii	"GNU C17 11.3.1 20220712 -mcpu=cortex-m7 -mthumb -mf"
 6574      43313720 
 6574      31312E33 
 6574      2E312032 
 6574      30323230 
 6575 01de 6C6F6174 		.ascii	"loat-abi=soft -march=armv7e-m -ggdb -O0 -ffunction-"
 6575      2D616269 
 6575      3D736F66 
 6575      74202D6D 
ARM GAS  C:\Users\DEVELO~1\AppData\Local\Temp\cceHiR3y.s 			page 118


 6575      61726368 
 6576 0211 73656374 		.ascii	"sections -fdata-sections -fno-common\000"
 6576      696F6E73 
 6576      202D6664 
 6576      6174612D 
 6576      73656374 
 6577              	.LASF36:
 6578 0236 73746174 		.ascii	"state\000"
 6578      6500
 6579              	.LASF11:
 6580 023c 6C6F6E67 		.ascii	"long int\000"
 6580      20696E74 
 6580      00
 6581              	.LASF24:
 6582 0245 74737461 		.ascii	"tstate_t\000"
 6582      74655F74 
 6582      00
 6583              	.LASF33:
 6584 024e 6F776E65 		.ascii	"owner\000"
 6584      7200
 6585              	.LASF57:
 6586 0254 63685F72 		.ascii	"ch_rfcu\000"
 6586      66637500 
 6587              	.LASF65:
 6588 025c 73797369 		.ascii	"sysinterval_t\000"
 6588      6E746572 
 6588      76616C5F 
 6588      7400
 6589              	.LASF184:
 6590 026a 706F7274 		.ascii	"port_unlock\000"
 6590      5F756E6C 
 6590      6F636B00 
 6591              	.LASF70:
 6592 0276 63685F71 		.ascii	"ch_queue\000"
 6592      75657565 
 6592      00
 6593              	.LASF7:
 6594 027f 73686F72 		.ascii	"short int\000"
 6594      7420696E 
 6594      7400
 6595              	.LASF17:
 6596 0289 75696E74 		.ascii	"uint16_t\000"
 6596      31365F74 
 6596      00
 6597              	.LASF188:
 6598 0292 63685F71 		.ascii	"ch_queue_fifo_remove\000"
 6598      75657565 
 6598      5F666966 
 6598      6F5F7265 
 6598      6D6F7665 
 6599              	.LASF89:
 6600 02a7 74726163 		.ascii	"trace_buffer_t\000"
 6600      655F6275 
 6600      66666572 
 6600      5F7400
 6601              	.LASF146:
 6602 02b6 63685468 		.ascii	"chThdDequeueNextI\000"
ARM GAS  C:\Users\DEVELO~1\AppData\Local\Temp\cceHiR3y.s 			page 119


 6602      64446571 
 6602      75657565 
 6602      4E657874 
 6602      4900
 6603              	.LASF97:
 6604 02c8 63685F72 		.ascii	"ch_registry\000"
 6604      65676973 
 6604      74727900 
 6605              	.LASF161:
 6606 02d4 63685468 		.ascii	"chThdSetPriority\000"
 6606      64536574 
 6606      5072696F 
 6606      72697479 
 6606      00
 6607              	.LASF172:
 6608 02e5 63685468 		.ascii	"chThdCreateI\000"
 6608      64437265 
 6608      61746549 
 6608      00
 6609              	.LASF171:
 6610 02f2 63685468 		.ascii	"chThdCreate\000"
 6610      64437265 
 6610      61746500 
 6611              	.LASF12:
 6612 02fe 5F5F7569 		.ascii	"__uint32_t\000"
 6612      6E743332 
 6612      5F7400
 6613              	.LASF58:
 6614 0309 6D61736B 		.ascii	"mask\000"
 6614      00
 6615              	.LASF39:
 6616 030e 77616974 		.ascii	"waiting\000"
 6616      696E6700 
 6617              	.LASF118:
 6618 0316 6D61696E 		.ascii	"mainthread_base\000"
 6618      74687265 
 6618      61645F62 
 6618      61736500 
 6619              	.LASF128:
 6620 0326 6D757465 		.ascii	"mutex_t\000"
 6620      785F7400 
 6621              	.LASF133:
 6622 032e 616C6967 		.ascii	"align\000"
 6622      6E00
 6623              	.LASF91:
 6624 0334 706F7274 		.ascii	"port_context\000"
 6624      5F636F6E 
 6624      74657874 
 6624      00
 6625              	.LASF51:
 6626 0341 636F7265 		.ascii	"core_id\000"
 6626      5F696400 
 6627              	.LASF29:
 6628 0349 636E745F 		.ascii	"cnt_t\000"
 6628      7400
 6629              	.LASF40:
 6630 034f 6D736771 		.ascii	"msgqueue\000"
ARM GAS  C:\Users\DEVELO~1\AppData\Local\Temp\cceHiR3y.s 			page 120


 6630      75657565 
 6630      00
 6631              	.LASF164:
 6632 0358 63685468 		.ascii	"chThdWait\000"
 6632      64576169 
 6632      7400
 6633              	.LASF120:
 6634 0362 69646C65 		.ascii	"idlethread_base\000"
 6634      74687265 
 6634      61645F62 
 6634      61736500 
 6635              	.LASF109:
 6636 0372 77747365 		.ascii	"wtsemp\000"
 6636      6D7000
 6637              	.LASF53:
 6638 0379 636F6E66 		.ascii	"config\000"
 6638      696700
 6639              	.LASF63:
 6640 0380 73797374 		.ascii	"system_debug_t\000"
 6640      656D5F64 
 6640      65627567 
 6640      5F7400
 6641              	.LASF107:
 6642 038f 77747472 		.ascii	"wttrp\000"
 6642      7000
 6643              	.LASF32:
 6644 0395 72717565 		.ascii	"rqueue\000"
 6644      756500
 6645              	.LASF69:
 6646 039c 63685F71 		.ascii	"ch_queue_t\000"
 6646      75657565 
 6646      5F7400
 6647              	.LASF21:
 6648 03a7 706F7274 		.ascii	"port_stkalign_t\000"
 6648      5F73746B 
 6648      616C6967 
 6648      6E5F7400 
 6649              	.LASF147:
 6650 03b7 74696D65 		.ascii	"timeout\000"
 6650      6F757400 
 6651              	.LASF135:
 6652 03bf 6D656D6F 		.ascii	"memory_pool_t\000"
 6652      72795F70 
 6652      6F6F6C5F 
 6652      7400
 6653              	.LASF34:
 6654 03cd 6E616D65 		.ascii	"name\000"
 6654      00
 6655              	.LASF155:
 6656 03d2 63685468 		.ascii	"chThdSuspendS\000"
 6656      64537573 
 6656      70656E64 
 6656      5300
 6657              	.LASF98:
 6658 03e0 71756575 		.ascii	"queue\000"
 6658      6500
 6659              	.LASF87:
ARM GAS  C:\Users\DEVELO~1\AppData\Local\Temp\cceHiR3y.s 			page 121


 6660 03e6 73697A65 		.ascii	"size\000"
 6660      00
 6661              	.LASF9:
 6662 03eb 73686F72 		.ascii	"short unsigned int\000"
 6662      7420756E 
 6662      7369676E 
 6662      65642069 
 6662      6E7400
 6663              	.LASF180:
 6664 03fe 63685654 		.ascii	"chVTGetSystemTimeX\000"
 6664      47657453 
 6664      79737465 
 6664      6D54696D 
 6664      655800
 6665              	.LASF46:
 6666 0411 63685F74 		.ascii	"ch_thread\000"
 6666      68726561 
 6666      6400
 6667              	.LASF150:
 6668 041b 63757272 		.ascii	"currtp\000"
 6668      747000
 6669              	.LASF27:
 6670 0422 6D73675F 		.ascii	"msg_t\000"
 6670      7400
 6671              	.LASF41:
 6672 0428 6570656E 		.ascii	"epending\000"
 6672      64696E67 
 6672      00
 6673              	.LASF193:
 6674 0431 63685F6C 		.ascii	"ch_list_link\000"
 6674      6973745F 
 6674      6C696E6B 
 6674      00
 6675              	.LASF162:
 6676 043e 6E657770 		.ascii	"newprio\000"
 6676      72696F00 
 6677              	.LASF23:
 6678 0446 746D6F64 		.ascii	"tmode_t\000"
 6678      655F7400 
 6679              	.LASF160:
 6680 044e 63685468 		.ascii	"chThdTerminate\000"
 6680      64546572 
 6680      6D696E61 
 6680      746500
 6681              	.LASF67:
 6682 045d 63685F6C 		.ascii	"ch_list\000"
 6682      69737400 
 6683              	.LASF114:
 6684 0465 63685F72 		.ascii	"ch_ready_list\000"
 6684      65616479 
 6684      5F6C6973 
 6684      7400
 6685              	.LASF28:
 6686 0473 6576656E 		.ascii	"eventmask_t\000"
 6686      746D6173 
 6686      6B5F7400 
 6687              	.LASF10:
ARM GAS  C:\Users\DEVELO~1\AppData\Local\Temp\cceHiR3y.s 			page 122


 6688 047f 5F5F696E 		.ascii	"__int32_t\000"
 6688      7433325F 
 6688      7400
 6689              	.LASF168:
 6690 0489 63685468 		.ascii	"chThdAddRef\000"
 6690      64416464 
 6690      52656600 
 6691              	.LASF163:
 6692 0495 6F6C6470 		.ascii	"oldprio\000"
 6692      72696F00 
 6693              	.LASF96:
 6694 049d 76697274 		.ascii	"virtual_timers_list_t\000"
 6694      75616C5F 
 6694      74696D65 
 6694      72735F6C 
 6694      6973745F 
 6695              	.LASF22:
 6696 04b3 73746B61 		.ascii	"stkalign_t\000"
 6696      6C69676E 
 6696      5F7400
 6697              	.LASF170:
 6698 04be 63685468 		.ascii	"chThdCreateStatic\000"
 6698      64437265 
 6698      61746553 
 6698      74617469 
 6698      6300
 6699              	.LASF83:
 6700 04d0 72747374 		.ascii	"rtstamp\000"
 6700      616D7000 
 6701              	.LASF14:
 6702 04d8 5F5F7569 		.ascii	"__uint64_t\000"
 6702      6E743634 
 6702      5F7400
 6703              	.LASF95:
 6704 04e3 6C617374 		.ascii	"laststamp\000"
 6704      7374616D 
 6704      7000
 6705              	.LASF43:
 6706 04ed 7265616C 		.ascii	"realprio\000"
 6706      7072696F 
 6706      00
 6707              	.LASF154:
 6708 04f6 63685468 		.ascii	"chThdSuspendTimeoutS\000"
 6708      64537573 
 6708      70656E64 
 6708      54696D65 
 6708      6F757453 
 6709              	.LASF56:
 6710 050b 72666375 		.ascii	"rfcu_mask_t\000"
 6710      5F6D6173 
 6710      6B5F7400 
 6711              	.LASF158:
 6712 0517 696E7465 		.ascii	"interval\000"
 6712      7276616C 
 6712      00
 6713              	.LASF100:
 6714 0520 74687265 		.ascii	"thread_reference_t\000"
ARM GAS  C:\Users\DEVELO~1\AppData\Local\Temp\cceHiR3y.s 			page 123


 6714      61645F72 
 6714      65666572 
 6714      656E6365 
 6714      5F7400
 6715              	.LASF92:
 6716 0533 63685F76 		.ascii	"ch_virtual_timers_list\000"
 6716      69727475 
 6716      616C5F74 
 6716      696D6572 
 6716      735F6C69 
 6717              	.LASF178:
 6718 054a 7469636B 		.ascii	"ticks\000"
 6718      7300
 6719              	.LASF204:
 6720 0550 5F5F7365 		.ascii	"__set_BASEPRI\000"
 6720      745F4241 
 6720      53455052 
 6720      4900
 6721              	.LASF66:
 6722 055e 63685F6C 		.ascii	"ch_list_t\000"
 6722      6973745F 
 6722      7400
 6723              	.LASF86:
 6724 0568 73757370 		.ascii	"suspended\000"
 6724      656E6465 
 6724      6400
 6725              	.LASF20:
 6726 0572 75696E74 		.ascii	"uint64_t\000"
 6726      36345F74 
 6726      00
 6727              	.LASF0:
 6728 057b 756E7369 		.ascii	"unsigned int\000"
 6728      676E6564 
 6728      20696E74 
 6728      00
 6729              	.LASF117:
 6730 0588 63685F6F 		.ascii	"ch_os_instance_config\000"
 6730      735F696E 
 6730      7374616E 
 6730      63655F63 
 6730      6F6E6669 
 6731              	.LASF124:
 6732 059e 77626173 		.ascii	"wbase\000"
 6732      6500
 6733              	.LASF132:
 6734 05a4 6F626A65 		.ascii	"object_size\000"
 6734      63745F73 
 6734      697A6500 
 6735              	.LASF84:
 6736 05b0 74696D65 		.ascii	"time\000"
 6736      00
 6737              	.LASF74:
 6738 05b5 7072696F 		.ascii	"prio\000"
 6738      00
 6739              	.LASF169:
 6740 05ba 63685468 		.ascii	"chThdStart\000"
 6740      64537461 
ARM GAS  C:\Users\DEVELO~1\AppData\Local\Temp\cceHiR3y.s 			page 124


 6740      727400
 6741              	.LASF115:
 6742 05c5 63757272 		.ascii	"current\000"
 6742      656E7400 
 6743              	.LASF190:
 6744 05cd 63685F71 		.ascii	"ch_queue_notempty\000"
 6744      75657565 
 6744      5F6E6F74 
 6744      656D7074 
 6744      7900
 6745              	.LASF30:
 6746 05df 636F7265 		.ascii	"core_id_t\000"
 6746      5F69645F 
 6746      7400
 6747              	.LASF25:
 6748 05e9 74726566 		.ascii	"trefs_t\000"
 6748      735F7400 
 6749              	.LASF38:
 6750 05f1 72656673 		.ascii	"refs\000"
 6750      00
 6751              	.LASF198:
 6752 05f6 63685469 		.ascii	"chTimeDiffX\000"
 6752      6D654469 
 6752      66665800 
 6753              	.LASF26:
 6754 0602 74707269 		.ascii	"tprio_t\000"
 6754      6F5F7400 
 6755              	.LASF81:
 6756 060a 75736572 		.ascii	"user\000"
 6756      00
 6757              	.LASF200:
 6758 060f 2E2E2F2E 		.ascii	"../../../os/rt/src/chthreads.c\000"
 6758      2E2F2E2E 
 6758      2F6F732F 
 6758      72742F73 
 6758      72632F63 
 6759              	.LASF60:
 6760 062e 63685F73 		.ascii	"ch_system_debug\000"
 6760      79737465 
 6760      6D5F6465 
 6760      62756700 
 6761              	.LASF129:
 6762 063e 5F426F6F 		.ascii	"_Bool\000"
 6762      6C00
 6763              	.LASF18:
 6764 0644 696E7433 		.ascii	"int32_t\000"
 6764      325F7400 
 6765              	.LASF6:
 6766 064c 756E7369 		.ascii	"unsigned char\000"
 6766      676E6564 
 6766      20636861 
 6766      7200
 6767              	.LASF194:
 6768 065a 63685F6C 		.ascii	"ch_list_notempty\000"
 6768      6973745F 
 6768      6E6F7465 
 6768      6D707479 
ARM GAS  C:\Users\DEVELO~1\AppData\Local\Temp\cceHiR3y.s 			page 125


 6768      00
 6769              	.LASF59:
 6770 066b 72666375 		.ascii	"rfcu_t\000"
 6770      5F7400
 6771              	.LASF189:
 6772 0672 63685F71 		.ascii	"ch_queue_insert\000"
 6772      75657565 
 6772      5F696E73 
 6772      65727400 
 6773              	.LASF175:
 6774 0682 5F5F7468 		.ascii	"__thd_object_init\000"
 6774      645F6F62 
 6774      6A656374 
 6774      5F696E69 
 6774      7400
 6775              	.LASF142:
 6776 0694 63685363 		.ascii	"chSchGoSleepTimeoutS\000"
 6776      68476F53 
 6776      6C656570 
 6776      54696D65 
 6776      6F757453 
 6777              	.LASF94:
 6778 06a9 6C617374 		.ascii	"lasttime\000"
 6778      74696D65 
 6778      00
 6779              	.LASF186:
 6780 06b2 63685468 		.ascii	"chThdGetWorkingAreaX\000"
 6780      64476574 
 6780      576F726B 
 6780      696E6741 
 6780      72656158 
 6781              	.LASF78:
 6782 06c7 77746F62 		.ascii	"wtobjp\000"
 6782      6A7000
 6783              	.LASF111:
 6784 06ce 65776D61 		.ascii	"ewmask\000"
 6784      736B00
 6785              	.LASF202:
 6786 06d5 73744765 		.ascii	"stGetCounter\000"
 6786      74436F75 
 6786      6E746572 
 6786      00
 6787              	.LASF152:
 6788 06e2 5F5F6675 		.ascii	"__func__\000"
 6788      6E635F5F 
 6788      00
 6789              	.LASF182:
 6790 06eb 63685379 		.ascii	"chSysLock\000"
 6790      734C6F63 
 6790      6B00
 6791              	.LASF167:
 6792 06f5 63685468 		.ascii	"chThdRelease\000"
 6792      6452656C 
 6792      65617365 
 6792      00
 6793              	.LASF79:
 6794 0702 72656173 		.ascii	"reason\000"
ARM GAS  C:\Users\DEVELO~1\AppData\Local\Temp\cceHiR3y.s 			page 126


 6794      6F6E00
 6795              	.LASF102:
 6796 0709 74687265 		.ascii	"threads_queue_t\000"
 6796      6164735F 
 6796      71756575 
 6796      655F7400 
 6797              	.LASF112:
 6798 0719 63685F73 		.ascii	"ch_semaphore\000"
 6798      656D6170 
 6798      686F7265 
 6798      00
 6799              	.LASF138:
 6800 0726 63685363 		.ascii	"chSchGoSleepS\000"
 6800      68476F53 
 6800      6C656570 
 6800      5300
 6801              	.LASF99:
 6802 0734 72656769 		.ascii	"registry_t\000"
 6802      73747279 
 6802      5F7400
 6803              	.LASF19:
 6804 073f 75696E74 		.ascii	"uint32_t\000"
 6804      33325F74 
 6804      00
 6805              	.LASF110:
 6806 0748 77746D74 		.ascii	"wtmtxp\000"
 6806      787000
 6807              	.LASF148:
 6808 074f 63685468 		.ascii	"chThdResume\000"
 6808      64526573 
 6808      756D6500 
 6809              	.LASF125:
 6810 075b 77656E64 		.ascii	"wend\000"
 6810      00
 6811              	.LASF191:
 6812 0760 63685F71 		.ascii	"ch_queue_init\000"
 6812      75657565 
 6812      5F696E69 
 6812      7400
 6813              	.LASF2:
 6814 076e 6C6F6E67 		.ascii	"long double\000"
 6814      20646F75 
 6814      626C6500 
 6815              	.LASF35:
 6816 077a 77616261 		.ascii	"wabase\000"
 6816      736500
 6817              	.LASF62:
 6818 0781 63686172 		.ascii	"char\000"
 6818      00
 6819              	.LASF157:
 6820 0786 63685468 		.ascii	"chThdSleepUntil\000"
 6820      64536C65 
 6820      6570556E 
 6820      74696C00 
 6821              	.LASF187:
 6822 0796 63685F71 		.ascii	"ch_queue_dequeue\000"
 6822      75657565 
ARM GAS  C:\Users\DEVELO~1\AppData\Local\Temp\cceHiR3y.s 			page 127


 6822      5F646571 
 6822      75657565 
 6822      00
 6823              	.LASF8:
 6824 07a7 5F5F7569 		.ascii	"__uint16_t\000"
 6824      6E743136 
 6824      5F7400
 6825              	.LASF195:
 6826 07b2 63685F6C 		.ascii	"ch_list_init\000"
 6826      6973745F 
 6826      696E6974 
 6826      00
 6827              	.LASF143:
 6828 07bf 63685363 		.ascii	"chSchReadyI\000"
 6828      68526561 
 6828      64794900 
 6829              	.LASF31:
 6830 07cb 74687265 		.ascii	"thread_t\000"
 6830      61645F74 
 6830      00
 6831              	.LASF176:
 6832 07d4 63685468 		.ascii	"chThdDoDequeueNextI\000"
 6832      64446F44 
 6832      65717565 
 6832      75654E65 
 6832      78744900 
 6833              	.LASF93:
 6834 07e8 646C6973 		.ascii	"dlist\000"
 6834      7400
 6835              	.LASF64:
 6836 07ee 73797374 		.ascii	"systime_t\000"
 6836      696D655F 
 6836      7400
 6837              	.LASF88:
 6838 07f8 62756666 		.ascii	"buffer\000"
 6838      657200
 6839              	.LASF72:
 6840 07ff 63685F70 		.ascii	"ch_priority_queue_t\000"
 6840      72696F72 
 6840      6974795F 
 6840      71756575 
 6840      655F7400 
 6841              	.LASF61:
 6842 0813 70616E69 		.ascii	"panic_msg\000"
 6842      635F6D73 
 6842      6700
 6843              	.LASF104:
 6844 081d 70717565 		.ascii	"pqueue\000"
 6844      756500
 6845              	.LASF47:
 6846 0824 63685F6F 		.ascii	"ch_os_instance\000"
 6846      735F696E 
 6846      7374616E 
 6846      636500
 6847              	.LASF45:
 6848 0833 6F735F69 		.ascii	"os_instance_t\000"
 6848      6E737461 
ARM GAS  C:\Users\DEVELO~1\AppData\Local\Temp\cceHiR3y.s 			page 128


 6848      6E63655F 
 6848      7400
 6849              	.LASF50:
 6850 0841 7265676C 		.ascii	"reglist\000"
 6850      69737400 
 6851              	.LASF73:
 6852 0849 63685F70 		.ascii	"ch_priority_queue\000"
 6852      72696F72 
 6852      6974795F 
 6852      71756575 
 6852      6500
 6853              	.LASF183:
 6854 085b 706F7274 		.ascii	"port_timer_get_time\000"
 6854      5F74696D 
 6854      65725F67 
 6854      65745F74 
 6854      696D6500 
 6855              	.LASF149:
 6856 086f 63685468 		.ascii	"chThdResumeS\000"
 6856      64526573 
 6856      756D6553 
 6856      00
 6857              	.LASF75:
 6858 087c 63685F64 		.ascii	"ch_delta_list_t\000"
 6858      656C7461 
 6858      5F6C6973 
 6858      745F7400 
 6859              	.LASF119:
 6860 088c 6D61696E 		.ascii	"mainthread_end\000"
 6860      74687265 
 6860      61645F65 
 6860      6E6400
 6861              	.LASF141:
 6862 089b 63685363 		.ascii	"chSchWakeupS\000"
 6862      6857616B 
 6862      65757053 
 6862      00
 6863              	.LASF44:
 6864 08a8 6D706F6F 		.ascii	"mpool\000"
 6864      6C00
 6865              	.LASF122:
 6866 08ae 6F735F69 		.ascii	"os_instance_config_t\000"
 6866      6E737461 
 6866      6E63655F 
 6866      636F6E66 
 6866      69675F74 
 6867              	.LASF159:
 6868 08c3 63685468 		.ascii	"chThdSleep\000"
 6868      64536C65 
 6868      657000
 6869              	.LASF173:
 6870 08ce 63685468 		.ascii	"chThdCreateSuspended\000"
 6870      64437265 
 6870      61746553 
 6870      75737065 
 6870      6E646564 
 6871              	.LASF48:
ARM GAS  C:\Users\DEVELO~1\AppData\Local\Temp\cceHiR3y.s 			page 129


 6872 08e3 726C6973 		.ascii	"rlist\000"
 6872      7400
 6873              	.LASF137:
 6874 08e9 63685363 		.ascii	"chSchRescheduleS\000"
 6874      68526573 
 6874      63686564 
 6874      756C6553 
 6874      00
 6875              	.LASF179:
 6876 08fa 63685468 		.ascii	"chThdGetSelfX\000"
 6876      64476574 
 6876      53656C66 
 6876      5800
 6877              	.LASF16:
 6878 0908 75696E74 		.ascii	"uint8_t\000"
 6878      385F7400 
 6879              	.LASF139:
 6880 0910 6368506F 		.ascii	"chPoolFree\000"
 6880      6F6C4672 
 6880      656500
 6881              	.LASF37:
 6882 091b 666C6167 		.ascii	"flags\000"
 6882      7300
 6883              	.LASF203:
 6884 0921 63685468 		.ascii	"chThdYield\000"
 6884      64596965 
 6884      6C6400
 6885              	.LASF113:
 6886 092c 63685F6D 		.ascii	"ch_mutex\000"
 6886      75746578 
 6886      00
 6887              	.LASF136:
 6888 0935 63685363 		.ascii	"chSchDoYieldS\000"
 6888      68446F59 
 6888      69656C64 
 6888      5300
 6889              	.LASF151:
 6890 0943 63685468 		.ascii	"chThdResumeI\000"
 6890      64526573 
 6890      756D6549 
 6890      00
 6891              	.LASF55:
 6892 0950 74726163 		.ascii	"trace_buffer\000"
 6892      655F6275 
 6892      66666572 
 6892      00
 6893              	.LASF181:
 6894 095d 63685379 		.ascii	"chSysUnlock\000"
 6894      73556E6C 
 6894      6F636B00 
 6895              	.LASF197:
 6896 0969 73746172 		.ascii	"start\000"
 6896      7400
 6897              	.LASF103:
 6898 096f 6C697374 		.ascii	"list\000"
 6898      00
 6899              	.LASF185:
ARM GAS  C:\Users\DEVELO~1\AppData\Local\Temp\cceHiR3y.s 			page 130


 6900 0974 706F7274 		.ascii	"port_lock\000"
 6900      5F6C6F63 
 6900      6B00
 6901              	.LASF121:
 6902 097e 69646C65 		.ascii	"idlethread_end\000"
 6902      74687265 
 6902      61645F65 
 6902      6E6400
 6903              	.LASF42:
 6904 098d 6D74786C 		.ascii	"mtxlist\000"
 6904      69737400 
 6905              	.LASF201:
 6906 0995 433A5C50 		.ascii	"C:\\PROJET\\ChibiOS project\\ChibiOS_21.11.4\\demos"
 6906      524F4A45 
 6906      545C4368 
 6906      6962694F 
 6906      53207072 
 6907 09c4 5C53544D 		.ascii	"\\STM32\\RT-STM32H743ZI_REV_XY-NUCLEO144_Quartz8M\000"
 6907      33325C52 
 6907      542D5354 
 6907      4D333248 
 6907      3734335A 
 6908              	.LASF192:
 6909 09f4 63685F6C 		.ascii	"ch_list_unlink\000"
 6909      6973745F 
 6909      756E6C69 
 6909      6E6B00
 6910              	.LASF153:
 6911 0a03 63685468 		.ascii	"chThdEnqueueTimeoutS\000"
 6911      64456E71 
 6911      75657565 
 6911      54696D65 
 6911      6F757453 
 6912              	.LASF144:
 6913 0a18 5F5F706F 		.ascii	"__port_thread_start\000"
 6913      72745F74 
 6913      68726561 
 6913      645F7374 
 6913      61727400 
 6914              		.ident	"GCC: (Arm GNU Toolchain 11.3.Rel1) 11.3.1 20220712"
ARM GAS  C:\Users\DEVELO~1\AppData\Local\Temp\cceHiR3y.s 			page 131


DEFINED SYMBOLS
                            *ABS*:00000000 chthreads.c
C:\Users\DEVELO~1\AppData\Local\Temp\cceHiR3y.s:18     .text.chTimeDiffX:00000000 $t
C:\Users\DEVELO~1\AppData\Local\Temp\cceHiR3y.s:23     .text.chTimeDiffX:00000000 chTimeDiffX
C:\Users\DEVELO~1\AppData\Local\Temp\cceHiR3y.s:59     .text.chTimeIsInRangeX:00000000 $t
C:\Users\DEVELO~1\AppData\Local\Temp\cceHiR3y.s:64     .text.chTimeIsInRangeX:00000000 chTimeIsInRangeX
C:\Users\DEVELO~1\AppData\Local\Temp\cceHiR3y.s:110    .text.ch_list_init:00000000 $t
C:\Users\DEVELO~1\AppData\Local\Temp\cceHiR3y.s:115    .text.ch_list_init:00000000 ch_list_init
C:\Users\DEVELO~1\AppData\Local\Temp\cceHiR3y.s:150    .text.ch_list_notempty:00000000 $t
C:\Users\DEVELO~1\AppData\Local\Temp\cceHiR3y.s:155    .text.ch_list_notempty:00000000 ch_list_notempty
C:\Users\DEVELO~1\AppData\Local\Temp\cceHiR3y.s:195    .text.ch_list_link:00000000 $t
C:\Users\DEVELO~1\AppData\Local\Temp\cceHiR3y.s:200    .text.ch_list_link:00000000 ch_list_link
C:\Users\DEVELO~1\AppData\Local\Temp\cceHiR3y.s:241    .text.ch_list_unlink:00000000 $t
C:\Users\DEVELO~1\AppData\Local\Temp\cceHiR3y.s:246    .text.ch_list_unlink:00000000 ch_list_unlink
C:\Users\DEVELO~1\AppData\Local\Temp\cceHiR3y.s:288    .text.ch_queue_init:00000000 $t
C:\Users\DEVELO~1\AppData\Local\Temp\cceHiR3y.s:293    .text.ch_queue_init:00000000 ch_queue_init
C:\Users\DEVELO~1\AppData\Local\Temp\cceHiR3y.s:331    .text.ch_queue_notempty:00000000 $t
C:\Users\DEVELO~1\AppData\Local\Temp\cceHiR3y.s:336    .text.ch_queue_notempty:00000000 ch_queue_notempty
C:\Users\DEVELO~1\AppData\Local\Temp\cceHiR3y.s:376    .text.ch_queue_insert:00000000 $t
C:\Users\DEVELO~1\AppData\Local\Temp\cceHiR3y.s:381    .text.ch_queue_insert:00000000 ch_queue_insert
C:\Users\DEVELO~1\AppData\Local\Temp\cceHiR3y.s:432    .text.ch_queue_fifo_remove:00000000 $t
C:\Users\DEVELO~1\AppData\Local\Temp\cceHiR3y.s:437    .text.ch_queue_fifo_remove:00000000 ch_queue_fifo_remove
C:\Users\DEVELO~1\AppData\Local\Temp\cceHiR3y.s:485    .text.ch_queue_dequeue:00000000 $t
C:\Users\DEVELO~1\AppData\Local\Temp\cceHiR3y.s:490    .text.ch_queue_dequeue:00000000 ch_queue_dequeue
C:\Users\DEVELO~1\AppData\Local\Temp\cceHiR3y.s:538    .text.port_timer_get_time:00000000 $t
C:\Users\DEVELO~1\AppData\Local\Temp\cceHiR3y.s:543    .text.port_timer_get_time:00000000 port_timer_get_time
C:\Users\DEVELO~1\AppData\Local\Temp\cceHiR3y.s:566    .text.chSysLock:00000000 $t
C:\Users\DEVELO~1\AppData\Local\Temp\cceHiR3y.s:571    .text.chSysLock:00000000 chSysLock
C:\Users\DEVELO~1\AppData\Local\Temp\cceHiR3y.s:625    .text.chSysUnlock:00000000 $t
C:\Users\DEVELO~1\AppData\Local\Temp\cceHiR3y.s:630    .text.chSysUnlock:00000000 chSysUnlock
C:\Users\DEVELO~1\AppData\Local\Temp\cceHiR3y.s:681    .text.chVTGetSystemTimeX:00000000 $t
C:\Users\DEVELO~1\AppData\Local\Temp\cceHiR3y.s:686    .text.chVTGetSystemTimeX:00000000 chVTGetSystemTimeX
C:\Users\DEVELO~1\AppData\Local\Temp\cceHiR3y.s:709    .text.chThdGetSelfX:00000000 $t
C:\Users\DEVELO~1\AppData\Local\Temp\cceHiR3y.s:714    .text.chThdGetSelfX:00000000 chThdGetSelfX
C:\Users\DEVELO~1\AppData\Local\Temp\cceHiR3y.s:742    .text.chThdGetSelfX:00000010 $d
C:\Users\DEVELO~1\AppData\Local\Temp\cceHiR3y.s:747    .text.chThdGetWorkingAreaX:00000000 $t
C:\Users\DEVELO~1\AppData\Local\Temp\cceHiR3y.s:752    .text.chThdGetWorkingAreaX:00000000 chThdGetWorkingAreaX
C:\Users\DEVELO~1\AppData\Local\Temp\cceHiR3y.s:785    .text.chThdSleepS:00000000 $t
C:\Users\DEVELO~1\AppData\Local\Temp\cceHiR3y.s:790    .text.chThdSleepS:00000000 chThdSleepS
C:\Users\DEVELO~1\AppData\Local\Temp\cceHiR3y.s:821    .text.chThdDoDequeueNextI:00000000 $t
C:\Users\DEVELO~1\AppData\Local\Temp\cceHiR3y.s:826    .text.chThdDoDequeueNextI:00000000 chThdDoDequeueNextI
C:\Users\DEVELO~1\AppData\Local\Temp\cceHiR3y.s:866    .text.__thd_object_init:00000000 $t
C:\Users\DEVELO~1\AppData\Local\Temp\cceHiR3y.s:872    .text.__thd_object_init:00000000 __thd_object_init
C:\Users\DEVELO~1\AppData\Local\Temp\cceHiR3y.s:959    .text.chThdCreateSuspendedI:00000000 $t
C:\Users\DEVELO~1\AppData\Local\Temp\cceHiR3y.s:965    .text.chThdCreateSuspendedI:00000000 chThdCreateSuspendedI
C:\Users\DEVELO~1\AppData\Local\Temp\cceHiR3y.s:1033   .text.chThdCreateSuspendedI:00000058 $d
C:\Users\DEVELO~1\AppData\Local\Temp\cceHiR3y.s:1039   .text.chThdCreateSuspended:00000000 $t
C:\Users\DEVELO~1\AppData\Local\Temp\cceHiR3y.s:1045   .text.chThdCreateSuspended:00000000 chThdCreateSuspended
C:\Users\DEVELO~1\AppData\Local\Temp\cceHiR3y.s:1082   .text.chThdCreateI:00000000 $t
C:\Users\DEVELO~1\AppData\Local\Temp\cceHiR3y.s:1088   .text.chThdCreateI:00000000 chThdCreateI
C:\Users\DEVELO~1\AppData\Local\Temp\cceHiR3y.s:1122   .text.chThdCreate:00000000 $t
C:\Users\DEVELO~1\AppData\Local\Temp\cceHiR3y.s:1128   .text.chThdCreate:00000000 chThdCreate
C:\Users\DEVELO~1\AppData\Local\Temp\cceHiR3y.s:1169   .rodata:00000000 $d
C:\Users\DEVELO~1\AppData\Local\Temp\cceHiR3y.s:1173   .text.chThdCreateStatic:00000000 $t
C:\Users\DEVELO~1\AppData\Local\Temp\cceHiR3y.s:1179   .text.chThdCreateStatic:00000000 chThdCreateStatic
C:\Users\DEVELO~1\AppData\Local\Temp\cceHiR3y.s:1253   .text.chThdCreateStatic:00000068 $d
C:\Users\DEVELO~1\AppData\Local\Temp\cceHiR3y.s:1260   .text.chThdStart:00000000 $t
ARM GAS  C:\Users\DEVELO~1\AppData\Local\Temp\cceHiR3y.s 			page 132


C:\Users\DEVELO~1\AppData\Local\Temp\cceHiR3y.s:1266   .text.chThdStart:00000000 chThdStart
C:\Users\DEVELO~1\AppData\Local\Temp\cceHiR3y.s:1303   .text.chThdAddRef:00000000 $t
C:\Users\DEVELO~1\AppData\Local\Temp\cceHiR3y.s:1309   .text.chThdAddRef:00000000 chThdAddRef
C:\Users\DEVELO~1\AppData\Local\Temp\cceHiR3y.s:1350   .text.chThdRelease:00000000 $t
C:\Users\DEVELO~1\AppData\Local\Temp\cceHiR3y.s:1356   .text.chThdRelease:00000000 chThdRelease
C:\Users\DEVELO~1\AppData\Local\Temp\cceHiR3y.s:1455   .text.chThdExit:00000000 $t
C:\Users\DEVELO~1\AppData\Local\Temp\cceHiR3y.s:1461   .text.chThdExit:00000000 chThdExit
C:\Users\DEVELO~1\AppData\Local\Temp\cceHiR3y.s:1499   .text.chThdExitS:00000000 chThdExitS
C:\Users\DEVELO~1\AppData\Local\Temp\cceHiR3y.s:1493   .text.chThdExitS:00000000 $t
C:\Users\DEVELO~1\AppData\Local\Temp\cceHiR3y.s:1586   .text.chThdWait:00000000 $t
C:\Users\DEVELO~1\AppData\Local\Temp\cceHiR3y.s:1592   .text.chThdWait:00000000 chThdWait
C:\Users\DEVELO~1\AppData\Local\Temp\cceHiR3y.s:1657   .text.chThdSetPriority:00000000 $t
C:\Users\DEVELO~1\AppData\Local\Temp\cceHiR3y.s:1663   .text.chThdSetPriority:00000000 chThdSetPriority
C:\Users\DEVELO~1\AppData\Local\Temp\cceHiR3y.s:1731   .text.chThdTerminate:00000000 $t
C:\Users\DEVELO~1\AppData\Local\Temp\cceHiR3y.s:1737   .text.chThdTerminate:00000000 chThdTerminate
C:\Users\DEVELO~1\AppData\Local\Temp\cceHiR3y.s:1775   .text.chThdSleep:00000000 $t
C:\Users\DEVELO~1\AppData\Local\Temp\cceHiR3y.s:1781   .text.chThdSleep:00000000 chThdSleep
C:\Users\DEVELO~1\AppData\Local\Temp\cceHiR3y.s:1815   .text.chThdSleepUntil:00000000 $t
C:\Users\DEVELO~1\AppData\Local\Temp\cceHiR3y.s:1821   .text.chThdSleepUntil:00000000 chThdSleepUntil
C:\Users\DEVELO~1\AppData\Local\Temp\cceHiR3y.s:1873   .text.chThdSleepUntilWindowed:00000000 $t
C:\Users\DEVELO~1\AppData\Local\Temp\cceHiR3y.s:1879   .text.chThdSleepUntilWindowed:00000000 chThdSleepUntilWindowed
C:\Users\DEVELO~1\AppData\Local\Temp\cceHiR3y.s:1933   .text.chThdYield:00000000 $t
C:\Users\DEVELO~1\AppData\Local\Temp\cceHiR3y.s:1939   .text.chThdYield:00000000 chThdYield
C:\Users\DEVELO~1\AppData\Local\Temp\cceHiR3y.s:1964   .text.chThdSuspendS:00000000 $t
C:\Users\DEVELO~1\AppData\Local\Temp\cceHiR3y.s:1970   .text.chThdSuspendS:00000000 chThdSuspendS
C:\Users\DEVELO~1\AppData\Local\Temp\cceHiR3y.s:2016   .text.chThdSuspendTimeoutS:00000000 $t
C:\Users\DEVELO~1\AppData\Local\Temp\cceHiR3y.s:2022   .text.chThdSuspendTimeoutS:00000000 chThdSuspendTimeoutS
C:\Users\DEVELO~1\AppData\Local\Temp\cceHiR3y.s:2081   .text.chThdResumeI:00000000 $t
C:\Users\DEVELO~1\AppData\Local\Temp\cceHiR3y.s:2087   .text.chThdResumeI:00000000 chThdResumeI
C:\Users\DEVELO~1\AppData\Local\Temp\cceHiR3y.s:2139   .text.chThdResumeS:00000000 $t
C:\Users\DEVELO~1\AppData\Local\Temp\cceHiR3y.s:2145   .text.chThdResumeS:00000000 chThdResumeS
C:\Users\DEVELO~1\AppData\Local\Temp\cceHiR3y.s:2194   .text.chThdResume:00000000 $t
C:\Users\DEVELO~1\AppData\Local\Temp\cceHiR3y.s:2200   .text.chThdResume:00000000 chThdResume
C:\Users\DEVELO~1\AppData\Local\Temp\cceHiR3y.s:2236   .text.chThdEnqueueTimeoutS:00000000 $t
C:\Users\DEVELO~1\AppData\Local\Temp\cceHiR3y.s:2242   .text.chThdEnqueueTimeoutS:00000000 chThdEnqueueTimeoutS
C:\Users\DEVELO~1\AppData\Local\Temp\cceHiR3y.s:2298   .text.chThdDequeueNextI:00000000 $t
C:\Users\DEVELO~1\AppData\Local\Temp\cceHiR3y.s:2304   .text.chThdDequeueNextI:00000000 chThdDequeueNextI
C:\Users\DEVELO~1\AppData\Local\Temp\cceHiR3y.s:2346   .text.chThdDequeueAllI:00000000 $t
C:\Users\DEVELO~1\AppData\Local\Temp\cceHiR3y.s:2352   .text.chThdDequeueAllI:00000000 chThdDequeueAllI

UNDEFINED SYMBOLS
stGetCounter
ch0
chSchGoSleepTimeoutS
chSchReadyI
__port_thread_start
chSchWakeupS
chHeapFree
chPoolFree
chSchGoSleepS
chSchRescheduleS
chSchDoYieldS
