ARM GAS  C:\Users\DEVELO~1\AppData\Local\Temp\ccyi4yqg.s 			page 1


   1              		.cpu cortex-m7
   2              		.arch armv7e-m
   3              		.fpu softvfp
   4              		.eabi_attribute 20, 1
   5              		.eabi_attribute 21, 1
   6              		.eabi_attribute 23, 3
   7              		.eabi_attribute 24, 1
   8              		.eabi_attribute 25, 1
   9              		.eabi_attribute 26, 1
  10              		.eabi_attribute 30, 6
  11              		.eabi_attribute 34, 1
  12              		.eabi_attribute 18, 4
  13              		.file	"chtm.c"
  14              		.text
  15              	.Ltext0:
  16              		.cfi_sections	.debug_frame
  17              		.section	.text.tm_stop,"ax",%progbits
  18              		.align	1
  19              		.syntax unified
  20              		.thumb
  21              		.thumb_func
  22              		.type	tm_stop, %function
  23              	tm_stop:
  24              	.LFB346:
  25              		.file 1 "../../../os/rt/src/chtm.c"
  26              		.loc 1 55 44
  27              		.cfi_startproc
  28              		@ args = 0, pretend = 0, frame = 16
  29              		@ frame_needed = 1, uses_anonymous_args = 0
  30              		@ link register save eliminated.
  31 0000 2DE9B003 		push	{r4, r5, r7, r8, r9}
  32              		.cfi_def_cfa_offset 20
  33              		.cfi_offset 4, -20
  34              		.cfi_offset 5, -16
  35              		.cfi_offset 7, -12
  36              		.cfi_offset 8, -8
  37              		.cfi_offset 9, -4
  38 0004 85B0     		sub	sp, sp, #20
  39              		.cfi_def_cfa_offset 40
  40 0006 00AF     		add	r7, sp, #0
  41              		.cfi_def_cfa_register 7
  42 0008 F860     		str	r0, [r7, #12]
  43 000a B960     		str	r1, [r7, #8]
  44 000c 7A60     		str	r2, [r7, #4]
  45              		.loc 1 57 6
  46 000e FB68     		ldr	r3, [r7, #12]
  47 0010 DB68     		ldr	r3, [r3, #12]
  48              		.loc 1 57 9
  49 0012 5A1C     		adds	r2, r3, #1
  50 0014 FB68     		ldr	r3, [r7, #12]
  51 0016 DA60     		str	r2, [r3, #12]
  52              		.loc 1 58 25
  53 0018 FB68     		ldr	r3, [r7, #12]
  54 001a 9B68     		ldr	r3, [r3, #8]
  55              		.loc 1 58 20
  56 001c BA68     		ldr	r2, [r7, #8]
  57 001e D21A     		subs	r2, r2, r3
ARM GAS  C:\Users\DEVELO~1\AppData\Local\Temp\ccyi4yqg.s 			page 2


  58              		.loc 1 58 33
  59 0020 7B68     		ldr	r3, [r7, #4]
  60 0022 D21A     		subs	r2, r2, r3
  61              		.loc 1 58 13
  62 0024 FB68     		ldr	r3, [r7, #12]
  63 0026 9A60     		str	r2, [r3, #8]
  64              		.loc 1 59 19
  65 0028 FB68     		ldr	r3, [r7, #12]
  66 002a D3E90423 		ldrd	r2, [r3, #16]
  67              		.loc 1 59 35
  68 002e F968     		ldr	r1, [r7, #12]
  69 0030 8968     		ldr	r1, [r1, #8]
  70              		.loc 1 59 22
  71 0032 0020     		movs	r0, #0
  72 0034 0C46     		mov	r4, r1
  73 0036 0546     		mov	r5, r0
  74              		.loc 1 59 19
  75 0038 12EB0408 		adds	r8, r2, r4
  76 003c 43EB0509 		adc	r9, r3, r5
  77 0040 FB68     		ldr	r3, [r7, #12]
  78 0042 C3E90489 		strd	r8, [r3, #16]
  79              		.loc 1 60 10
  80 0046 FB68     		ldr	r3, [r7, #12]
  81 0048 9A68     		ldr	r2, [r3, #8]
  82              		.loc 1 60 22
  83 004a FB68     		ldr	r3, [r7, #12]
  84 004c 5B68     		ldr	r3, [r3, #4]
  85              		.loc 1 60 6
  86 004e 9A42     		cmp	r2, r3
  87 0050 03D9     		bls	.L2
  88              		.loc 1 61 21
  89 0052 FB68     		ldr	r3, [r7, #12]
  90 0054 9A68     		ldr	r2, [r3, #8]
  91              		.loc 1 61 16
  92 0056 FB68     		ldr	r3, [r7, #12]
  93 0058 5A60     		str	r2, [r3, #4]
  94              	.L2:
  95              		.loc 1 63 10
  96 005a FB68     		ldr	r3, [r7, #12]
  97 005c 9A68     		ldr	r2, [r3, #8]
  98              		.loc 1 63 22
  99 005e FB68     		ldr	r3, [r7, #12]
 100 0060 1B68     		ldr	r3, [r3]
 101              		.loc 1 63 6
 102 0062 9A42     		cmp	r2, r3
 103 0064 03D2     		bcs	.L4
 104              		.loc 1 64 20
 105 0066 FB68     		ldr	r3, [r7, #12]
 106 0068 9A68     		ldr	r2, [r3, #8]
 107              		.loc 1 64 15
 108 006a FB68     		ldr	r3, [r7, #12]
 109 006c 1A60     		str	r2, [r3]
 110              	.L4:
 111              		.loc 1 66 1
 112 006e 00BF     		nop
 113 0070 1437     		adds	r7, r7, #20
 114              		.cfi_def_cfa_offset 20
ARM GAS  C:\Users\DEVELO~1\AppData\Local\Temp\ccyi4yqg.s 			page 3


 115 0072 BD46     		mov	sp, r7
 116              		.cfi_def_cfa_register 13
 117              		@ sp needed
 118 0074 BDE8B003 		pop	{r4, r5, r7, r8, r9}
 119              		.cfi_restore 9
 120              		.cfi_restore 8
 121              		.cfi_restore 7
 122              		.cfi_restore 5
 123              		.cfi_restore 4
 124              		.cfi_def_cfa_offset 0
 125 0078 7047     		bx	lr
 126              		.cfi_endproc
 127              	.LFE346:
 128              		.size	tm_stop, .-tm_stop
 129              		.section	.text.chTMObjectInit,"ax",%progbits
 130              		.align	1
 131              		.global	chTMObjectInit
 132              		.syntax unified
 133              		.thumb
 134              		.thumb_func
 135              		.type	chTMObjectInit, %function
 136              	chTMObjectInit:
 137              	.LFB347:
 138              		.loc 1 79 46
 139              		.cfi_startproc
 140              		@ args = 0, pretend = 0, frame = 8
 141              		@ frame_needed = 1, uses_anonymous_args = 0
 142              		@ link register save eliminated.
 143 0000 80B4     		push	{r7}
 144              		.cfi_def_cfa_offset 4
 145              		.cfi_offset 7, -4
 146 0002 83B0     		sub	sp, sp, #12
 147              		.cfi_def_cfa_offset 16
 148 0004 00AF     		add	r7, sp, #0
 149              		.cfi_def_cfa_register 7
 150 0006 7860     		str	r0, [r7, #4]
 151              		.loc 1 81 19
 152 0008 7B68     		ldr	r3, [r7, #4]
 153 000a 4FF0FF32 		mov	r2, #-1
 154 000e 1A60     		str	r2, [r3]
 155              		.loc 1 82 19
 156 0010 7B68     		ldr	r3, [r7, #4]
 157 0012 0022     		movs	r2, #0
 158 0014 5A60     		str	r2, [r3, #4]
 159              		.loc 1 83 19
 160 0016 7B68     		ldr	r3, [r7, #4]
 161 0018 0022     		movs	r2, #0
 162 001a 9A60     		str	r2, [r3, #8]
 163              		.loc 1 84 19
 164 001c 7B68     		ldr	r3, [r7, #4]
 165 001e 0022     		movs	r2, #0
 166 0020 DA60     		str	r2, [r3, #12]
 167              		.loc 1 85 19
 168 0022 7968     		ldr	r1, [r7, #4]
 169 0024 4FF00002 		mov	r2, #0
 170 0028 4FF00003 		mov	r3, #0
 171 002c C1E90423 		strd	r2, [r1, #16]
ARM GAS  C:\Users\DEVELO~1\AppData\Local\Temp\ccyi4yqg.s 			page 4


 172              		.loc 1 86 1
 173 0030 00BF     		nop
 174 0032 0C37     		adds	r7, r7, #12
 175              		.cfi_def_cfa_offset 4
 176 0034 BD46     		mov	sp, r7
 177              		.cfi_def_cfa_register 13
 178              		@ sp needed
 179 0036 80BC     		pop	{r7}
 180              		.cfi_restore 7
 181              		.cfi_def_cfa_offset 0
 182 0038 7047     		bx	lr
 183              		.cfi_endproc
 184              	.LFE347:
 185              		.size	chTMObjectInit, .-chTMObjectInit
 186              		.section	.text.chTMStartMeasurementX,"ax",%progbits
 187              		.align	1
 188              		.global	chTMStartMeasurementX
 189              		.syntax unified
 190              		.thumb
 191              		.thumb_func
 192              		.type	chTMStartMeasurementX, %function
 193              	chTMStartMeasurementX:
 194              	.LFB348:
 195              		.loc 1 96 62
 196              		.cfi_startproc
 197              		@ args = 0, pretend = 0, frame = 8
 198              		@ frame_needed = 1, uses_anonymous_args = 0
 199              		@ link register save eliminated.
 200 0000 80B4     		push	{r7}
 201              		.cfi_def_cfa_offset 4
 202              		.cfi_offset 7, -4
 203 0002 83B0     		sub	sp, sp, #12
 204              		.cfi_def_cfa_offset 16
 205 0004 00AF     		add	r7, sp, #0
 206              		.cfi_def_cfa_register 7
 207 0006 7860     		str	r0, [r7, #4]
 208              	.LBB8:
 209              	.LBB9:
 210              		.file 2 "../../../os/common/ports/ARMv7-M/chcore.h"
 211              		.loc 2 937 13
 212 0008 044B     		ldr	r3, .L8
 213 000a 5A68     		ldr	r2, [r3, #4]
 214              	.LBE9:
 215              	.LBE8:
 216              		.loc 1 98 13
 217 000c 7B68     		ldr	r3, [r7, #4]
 218 000e 9A60     		str	r2, [r3, #8]
 219              		.loc 1 99 1
 220 0010 00BF     		nop
 221 0012 0C37     		adds	r7, r7, #12
 222              		.cfi_def_cfa_offset 4
 223 0014 BD46     		mov	sp, r7
 224              		.cfi_def_cfa_register 13
 225              		@ sp needed
 226 0016 80BC     		pop	{r7}
 227              		.cfi_restore 7
 228              		.cfi_def_cfa_offset 0
ARM GAS  C:\Users\DEVELO~1\AppData\Local\Temp\ccyi4yqg.s 			page 5


 229 0018 7047     		bx	lr
 230              	.L9:
 231 001a 00BF     		.align	2
 232              	.L8:
 233 001c 001000E0 		.word	-536866816
 234              		.cfi_endproc
 235              	.LFE348:
 236              		.size	chTMStartMeasurementX, .-chTMStartMeasurementX
 237              		.section	.text.chTMStopMeasurementX,"ax",%progbits
 238              		.align	1
 239              		.global	chTMStopMeasurementX
 240              		.syntax unified
 241              		.thumb
 242              		.thumb_func
 243              		.type	chTMStopMeasurementX, %function
 244              	chTMStopMeasurementX:
 245              	.LFB349:
 246              		.loc 1 109 61
 247              		.cfi_startproc
 248              		@ args = 0, pretend = 0, frame = 8
 249              		@ frame_needed = 1, uses_anonymous_args = 0
 250 0000 80B5     		push	{r7, lr}
 251              		.cfi_def_cfa_offset 8
 252              		.cfi_offset 7, -8
 253              		.cfi_offset 14, -4
 254 0002 82B0     		sub	sp, sp, #8
 255              		.cfi_def_cfa_offset 16
 256 0004 00AF     		add	r7, sp, #0
 257              		.cfi_def_cfa_register 7
 258 0006 7860     		str	r0, [r7, #4]
 259              	.LBB10:
 260              	.LBB11:
 261              		.loc 2 937 13
 262 0008 054B     		ldr	r3, .L12
 263 000a 5B68     		ldr	r3, [r3, #4]
 264              	.LBE11:
 265              	.LBE10:
 266              		.loc 1 111 3
 267 000c 054A     		ldr	r2, .L12+4
 268 000e 9268     		ldr	r2, [r2, #8]
 269 0010 1946     		mov	r1, r3
 270 0012 7868     		ldr	r0, [r7, #4]
 271 0014 FFF7FEFF 		bl	tm_stop
 272              		.loc 1 112 1
 273 0018 00BF     		nop
 274 001a 0837     		adds	r7, r7, #8
 275              		.cfi_def_cfa_offset 8
 276 001c BD46     		mov	sp, r7
 277              		.cfi_def_cfa_register 13
 278              		@ sp needed
 279 001e 80BD     		pop	{r7, pc}
 280              	.L13:
 281              		.align	2
 282              	.L12:
 283 0020 001000E0 		.word	-536866816
 284 0024 00000000 		.word	ch_system
 285              		.cfi_endproc
ARM GAS  C:\Users\DEVELO~1\AppData\Local\Temp\ccyi4yqg.s 			page 6


 286              	.LFE349:
 287              		.size	chTMStopMeasurementX, .-chTMStopMeasurementX
 288              		.section	.text.chTMChainMeasurementToX,"ax",%progbits
 289              		.align	1
 290              		.global	chTMChainMeasurementToX
 291              		.syntax unified
 292              		.thumb
 293              		.thumb_func
 294              		.type	chTMChainMeasurementToX, %function
 295              	chTMChainMeasurementToX:
 296              	.LFB350:
 297              		.loc 1 127 65
 298              		.cfi_startproc
 299              		@ args = 0, pretend = 0, frame = 8
 300              		@ frame_needed = 1, uses_anonymous_args = 0
 301 0000 80B5     		push	{r7, lr}
 302              		.cfi_def_cfa_offset 8
 303              		.cfi_offset 7, -8
 304              		.cfi_offset 14, -4
 305 0002 82B0     		sub	sp, sp, #8
 306              		.cfi_def_cfa_offset 16
 307 0004 00AF     		add	r7, sp, #0
 308              		.cfi_def_cfa_register 7
 309 0006 7860     		str	r0, [r7, #4]
 310 0008 3960     		str	r1, [r7]
 311              	.LBB12:
 312              	.LBB13:
 313              		.loc 2 937 13
 314 000a 074B     		ldr	r3, .L16
 315 000c 5A68     		ldr	r2, [r3, #4]
 316              	.LBE13:
 317              	.LBE12:
 318              		.loc 1 130 14
 319 000e 3B68     		ldr	r3, [r7]
 320 0010 9A60     		str	r2, [r3, #8]
 321              		.loc 1 133 3
 322 0012 3B68     		ldr	r3, [r7]
 323 0014 9B68     		ldr	r3, [r3, #8]
 324 0016 0022     		movs	r2, #0
 325 0018 1946     		mov	r1, r3
 326 001a 7868     		ldr	r0, [r7, #4]
 327 001c FFF7FEFF 		bl	tm_stop
 328              		.loc 1 134 1
 329 0020 00BF     		nop
 330 0022 0837     		adds	r7, r7, #8
 331              		.cfi_def_cfa_offset 8
 332 0024 BD46     		mov	sp, r7
 333              		.cfi_def_cfa_register 13
 334              		@ sp needed
 335 0026 80BD     		pop	{r7, pc}
 336              	.L17:
 337              		.align	2
 338              	.L16:
 339 0028 001000E0 		.word	-536866816
 340              		.cfi_endproc
 341              	.LFE350:
 342              		.size	chTMChainMeasurementToX, .-chTMChainMeasurementToX
ARM GAS  C:\Users\DEVELO~1\AppData\Local\Temp\ccyi4yqg.s 			page 7


 343              		.text
 344              	.Letext0:
 345              		.file 3 "c:\\chibistudio\\tools\\gnu tools arm embedded\\11.3 2022.08\\arm-none-eabi\\include\\mac
 346              		.file 4 "c:\\chibistudio\\tools\\gnu tools arm embedded\\11.3 2022.08\\arm-none-eabi\\include\\sys
 347              		.file 5 "../../../os/common/ports/ARM-common/chtypes.h"
 348              		.file 6 "../../../os/rt/include/chearly.h"
 349              		.file 7 "../../../os/rt/include/chobjects.h"
 350              		.file 8 "../../../os/rt/include/chrfcu.h"
 351              		.file 9 "../../../os/rt/include/chdebug.h"
 352              		.file 10 "../../../os/rt/include/chtime.h"
 353              		.file 11 "../../../os/rt/include/chlists.h"
 354              		.file 12 "../../../os/rt/include/chtrace.h"
 355              		.file 13 "../../../os/common/ext/ARM/CMSIS/Core/Include/core_cm7.h"
 356              		.file 14 "../../../os/rt/include/chtm.h"
 357              		.file 15 "../../../os/rt/include/chsem.h"
 358              		.file 16 "../../../os/rt/include/chmtx.h"
 359              		.file 17 "../../../os/rt/include/chsys.h"