ARM GAS  C:\Users\DEVELO~1\AppData\Local\Temp\ccyi4yqg.s 			page 1


   1              		.cpu cortex-m7
   2              		.arch armv7e-m
   3              		.fpu softvfp
   4              		.eabi_attribute 20, 1
   5              		.eabi_attribute 21, 1
   6              		.eabi_attribute 23, 3
   7              		.eabi_attribute 24, 1
   8              		.eabi_attribute 25, 1
   9              		.eabi_attribute 26, 1
  10              		.eabi_attribute 30, 6
  11              		.eabi_attribute 34, 1
  12              		.eabi_attribute 18, 4
  13              		.file	"chtm.c"
  14              		.text
  15              	.Ltext0:
  16              		.cfi_sections	.debug_frame
  17              		.section	.text.tm_stop,"ax",%progbits
  18              		.align	1
  19              		.syntax unified
  20              		.thumb
  21              		.thumb_func
  22              		.type	tm_stop, %function
  23              	tm_stop:
  24              	.LFB346:
  25              		.file 1 "../../../os/rt/src/chtm.c"
  26              		.loc 1 55 44
  27              		.cfi_startproc
  28              		@ args = 0, pretend = 0, frame = 16
  29              		@ frame_needed = 1, uses_anonymous_args = 0
  30              		@ link register save eliminated.
  31 0000 2DE9B003 		push	{r4, r5, r7, r8, r9}
  32              		.cfi_def_cfa_offset 20
  33              		.cfi_offset 4, -20
  34              		.cfi_offset 5, -16
  35              		.cfi_offset 7, -12
  36              		.cfi_offset 8, -8
  37              		.cfi_offset 9, -4
  38 0004 85B0     		sub	sp, sp, #20
  39              		.cfi_def_cfa_offset 40
  40 0006 00AF     		add	r7, sp, #0
  41              		.cfi_def_cfa_register 7
  42 0008 F860     		str	r0, [r7, #12]
  43 000a B960     		str	r1, [r7, #8]
  44 000c 7A60     		str	r2, [r7, #4]
  45              		.loc 1 57 6
  46 000e FB68     		ldr	r3, [r7, #12]
  47 0010 DB68     		ldr	r3, [r3, #12]
  48              		.loc 1 57 9
  49 0012 5A1C     		adds	r2, r3, #1
  50 0014 FB68     		ldr	r3, [r7, #12]
  51 0016 DA60     		str	r2, [r3, #12]
  52              		.loc 1 58 25
  53 0018 FB68     		ldr	r3, [r7, #12]
  54 001a 9B68     		ldr	r3, [r3, #8]
  55              		.loc 1 58 20
  56 001c BA68     		ldr	r2, [r7, #8]
  57 001e D21A     		subs	r2, r2, r3
ARM GAS  C:\Users\DEVELO~1\AppData\Local\Temp\ccyi4yqg.s 			page 2


  58              		.loc 1 58 33
  59 0020 7B68     		ldr	r3, [r7, #4]
  60 0022 D21A     		subs	r2, r2, r3
  61              		.loc 1 58 13
  62 0024 FB68     		ldr	r3, [r7, #12]
  63 0026 9A60     		str	r2, [r3, #8]
  64              		.loc 1 59 19
  65 0028 FB68     		ldr	r3, [r7, #12]
  66 002a D3E90423 		ldrd	r2, [r3, #16]
  67              		.loc 1 59 35
  68 002e F968     		ldr	r1, [r7, #12]
  69 0030 8968     		ldr	r1, [r1, #8]
  70              		.loc 1 59 22
  71 0032 0020     		movs	r0, #0
  72 0034 0C46     		mov	r4, r1
  73 0036 0546     		mov	r5, r0
  74              		.loc 1 59 19
  75 0038 12EB0408 		adds	r8, r2, r4
  76 003c 43EB0509 		adc	r9, r3, r5
  77 0040 FB68     		ldr	r3, [r7, #12]
  78 0042 C3E90489 		strd	r8, [r3, #16]
  79              		.loc 1 60 10
  80 0046 FB68     		ldr	r3, [r7, #12]
  81 0048 9A68     		ldr	r2, [r3, #8]
  82              		.loc 1 60 22
  83 004a FB68     		ldr	r3, [r7, #12]
  84 004c 5B68     		ldr	r3, [r3, #4]
  85              		.loc 1 60 6
  86 004e 9A42     		cmp	r2, r3
  87 0050 03D9     		bls	.L2
  88              		.loc 1 61 21
  89 0052 FB68     		ldr	r3, [r7, #12]
  90 0054 9A68     		ldr	r2, [r3, #8]
  91              		.loc 1 61 16
  92 0056 FB68     		ldr	r3, [r7, #12]
  93 0058 5A60     		str	r2, [r3, #4]
  94              	.L2:
  95              		.loc 1 63 10
  96 005a FB68     		ldr	r3, [r7, #12]
  97 005c 9A68     		ldr	r2, [r3, #8]
  98              		.loc 1 63 22
  99 005e FB68     		ldr	r3, [r7, #12]
 100 0060 1B68     		ldr	r3, [r3]
 101              		.loc 1 63 6
 102 0062 9A42     		cmp	r2, r3
 103 0064 03D2     		bcs	.L4
 104              		.loc 1 64 20
 105 0066 FB68     		ldr	r3, [r7, #12]
 106 0068 9A68     		ldr	r2, [r3, #8]
 107              		.loc 1 64 15
 108 006a FB68     		ldr	r3, [r7, #12]
 109 006c 1A60     		str	r2, [r3]
 110              	.L4:
 111              		.loc 1 66 1
 112 006e 00BF     		nop
 113 0070 1437     		adds	r7, r7, #20
 114              		.cfi_def_cfa_offset 20
ARM GAS  C:\Users\DEVELO~1\AppData\Local\Temp\ccyi4yqg.s 			page 3


 115 0072 BD46     		mov	sp, r7
 116              		.cfi_def_cfa_register 13
 117              		@ sp needed
 118 0074 BDE8B003 		pop	{r4, r5, r7, r8, r9}
 119              		.cfi_restore 9
 120              		.cfi_restore 8
 121              		.cfi_restore 7
 122              		.cfi_restore 5
 123              		.cfi_restore 4
 124              		.cfi_def_cfa_offset 0
 125 0078 7047     		bx	lr
 126              		.cfi_endproc
 127              	.LFE346:
 128              		.size	tm_stop, .-tm_stop
 129              		.section	.text.chTMObjectInit,"ax",%progbits
 130              		.align	1
 131              		.global	chTMObjectInit
 132              		.syntax unified
 133              		.thumb
 134              		.thumb_func
 135              		.type	chTMObjectInit, %function
 136              	chTMObjectInit:
 137              	.LFB347:
 138              		.loc 1 79 46
 139              		.cfi_startproc
 140              		@ args = 0, pretend = 0, frame = 8
 141              		@ frame_needed = 1, uses_anonymous_args = 0
 142              		@ link register save eliminated.
 143 0000 80B4     		push	{r7}
 144              		.cfi_def_cfa_offset 4
 145              		.cfi_offset 7, -4
 146 0002 83B0     		sub	sp, sp, #12
 147              		.cfi_def_cfa_offset 16
 148 0004 00AF     		add	r7, sp, #0
 149              		.cfi_def_cfa_register 7
 150 0006 7860     		str	r0, [r7, #4]
 151              		.loc 1 81 19
 152 0008 7B68     		ldr	r3, [r7, #4]
 153 000a 4FF0FF32 		mov	r2, #-1
 154 000e 1A60     		str	r2, [r3]
 155              		.loc 1 82 19
 156 0010 7B68     		ldr	r3, [r7, #4]
 157 0012 0022     		movs	r2, #0
 158 0014 5A60     		str	r2, [r3, #4]
 159              		.loc 1 83 19
 160 0016 7B68     		ldr	r3, [r7, #4]
 161 0018 0022     		movs	r2, #0
 162 001a 9A60     		str	r2, [r3, #8]
 163              		.loc 1 84 19
 164 001c 7B68     		ldr	r3, [r7, #4]
 165 001e 0022     		movs	r2, #0
 166 0020 DA60     		str	r2, [r3, #12]
 167              		.loc 1 85 19
 168 0022 7968     		ldr	r1, [r7, #4]
 169 0024 4FF00002 		mov	r2, #0
 170 0028 4FF00003 		mov	r3, #0
 171 002c C1E90423 		strd	r2, [r1, #16]
ARM GAS  C:\Users\DEVELO~1\AppData\Local\Temp\ccyi4yqg.s 			page 4


 172              		.loc 1 86 1
 173 0030 00BF     		nop
 174 0032 0C37     		adds	r7, r7, #12
 175              		.cfi_def_cfa_offset 4
 176 0034 BD46     		mov	sp, r7
 177              		.cfi_def_cfa_register 13
 178              		@ sp needed
 179 0036 80BC     		pop	{r7}
 180              		.cfi_restore 7
 181              		.cfi_def_cfa_offset 0
 182 0038 7047     		bx	lr
 183              		.cfi_endproc
 184              	.LFE347:
 185              		.size	chTMObjectInit, .-chTMObjectInit
 186              		.section	.text.chTMStartMeasurementX,"ax",%progbits
 187              		.align	1
 188              		.global	chTMStartMeasurementX
 189              		.syntax unified
 190              		.thumb
 191              		.thumb_func
 192              		.type	chTMStartMeasurementX, %function
 193              	chTMStartMeasurementX:
 194              	.LFB348:
 195              		.loc 1 96 62
 196              		.cfi_startproc
 197              		@ args = 0, pretend = 0, frame = 8
 198              		@ frame_needed = 1, uses_anonymous_args = 0
 199              		@ link register save eliminated.
 200 0000 80B4     		push	{r7}
 201              		.cfi_def_cfa_offset 4
 202              		.cfi_offset 7, -4
 203 0002 83B0     		sub	sp, sp, #12
 204              		.cfi_def_cfa_offset 16
 205 0004 00AF     		add	r7, sp, #0
 206              		.cfi_def_cfa_register 7
 207 0006 7860     		str	r0, [r7, #4]
 208              	.LBB8:
 209              	.LBB9:
 210              		.file 2 "../../../os/common/ports/ARMv7-M/chcore.h"
 211              		.loc 2 937 13
 212 0008 044B     		ldr	r3, .L8
 213 000a 5A68     		ldr	r2, [r3, #4]
 214              	.LBE9:
 215              	.LBE8:
 216              		.loc 1 98 13
 217 000c 7B68     		ldr	r3, [r7, #4]
 218 000e 9A60     		str	r2, [r3, #8]
 219              		.loc 1 99 1
 220 0010 00BF     		nop
 221 0012 0C37     		adds	r7, r7, #12
 222              		.cfi_def_cfa_offset 4
 223 0014 BD46     		mov	sp, r7
 224              		.cfi_def_cfa_register 13
 225              		@ sp needed
 226 0016 80BC     		pop	{r7}
 227              		.cfi_restore 7
 228              		.cfi_def_cfa_offset 0
ARM GAS  C:\Users\DEVELO~1\AppData\Local\Temp\ccyi4yqg.s 			page 5


 229 0018 7047     		bx	lr
 230              	.L9:
 231 001a 00BF     		.align	2
 232              	.L8:
 233 001c 001000E0 		.word	-536866816
 234              		.cfi_endproc
 235              	.LFE348:
 236              		.size	chTMStartMeasurementX, .-chTMStartMeasurementX
 237              		.section	.text.chTMStopMeasurementX,"ax",%progbits
 238              		.align	1
 239              		.global	chTMStopMeasurementX
 240              		.syntax unified
 241              		.thumb
 242              		.thumb_func
 243              		.type	chTMStopMeasurementX, %function
 244              	chTMStopMeasurementX:
 245              	.LFB349:
 246              		.loc 1 109 61
 247              		.cfi_startproc
 248              		@ args = 0, pretend = 0, frame = 8
 249              		@ frame_needed = 1, uses_anonymous_args = 0
 250 0000 80B5     		push	{r7, lr}
 251              		.cfi_def_cfa_offset 8
 252              		.cfi_offset 7, -8
 253              		.cfi_offset 14, -4
 254 0002 82B0     		sub	sp, sp, #8
 255              		.cfi_def_cfa_offset 16
 256 0004 00AF     		add	r7, sp, #0
 257              		.cfi_def_cfa_register 7
 258 0006 7860     		str	r0, [r7, #4]
 259              	.LBB10:
 260              	.LBB11:
 261              		.loc 2 937 13
 262 0008 054B     		ldr	r3, .L12
 263 000a 5B68     		ldr	r3, [r3, #4]
 264              	.LBE11:
 265              	.LBE10:
 266              		.loc 1 111 3
 267 000c 054A     		ldr	r2, .L12+4
 268 000e 9268     		ldr	r2, [r2, #8]
 269 0010 1946     		mov	r1, r3
 270 0012 7868     		ldr	r0, [r7, #4]
 271 0014 FFF7FEFF 		bl	tm_stop
 272              		.loc 1 112 1
 273 0018 00BF     		nop
 274 001a 0837     		adds	r7, r7, #8
 275              		.cfi_def_cfa_offset 8
 276 001c BD46     		mov	sp, r7
 277              		.cfi_def_cfa_register 13
 278              		@ sp needed
 279 001e 80BD     		pop	{r7, pc}
 280              	.L13:
 281              		.align	2
 282              	.L12:
 283 0020 001000E0 		.word	-536866816
 284 0024 00000000 		.word	ch_system
 285              		.cfi_endproc
ARM GAS  C:\Users\DEVELO~1\AppData\Local\Temp\ccyi4yqg.s 			page 6


 286              	.LFE349:
 287              		.size	chTMStopMeasurementX, .-chTMStopMeasurementX
 288              		.section	.text.chTMChainMeasurementToX,"ax",%progbits
 289              		.align	1
 290              		.global	chTMChainMeasurementToX
 291              		.syntax unified
 292              		.thumb
 293              		.thumb_func
 294              		.type	chTMChainMeasurementToX, %function
 295              	chTMChainMeasurementToX:
 296              	.LFB350:
 297              		.loc 1 127 65
 298              		.cfi_startproc
 299              		@ args = 0, pretend = 0, frame = 8
 300              		@ frame_needed = 1, uses_anonymous_args = 0
 301 0000 80B5     		push	{r7, lr}
 302              		.cfi_def_cfa_offset 8
 303              		.cfi_offset 7, -8
 304              		.cfi_offset 14, -4
 305 0002 82B0     		sub	sp, sp, #8
 306              		.cfi_def_cfa_offset 16
 307 0004 00AF     		add	r7, sp, #0
 308              		.cfi_def_cfa_register 7
 309 0006 7860     		str	r0, [r7, #4]
 310 0008 3960     		str	r1, [r7]
 311              	.LBB12:
 312              	.LBB13:
 313              		.loc 2 937 13
 314 000a 074B     		ldr	r3, .L16
 315 000c 5A68     		ldr	r2, [r3, #4]
 316              	.LBE13:
 317              	.LBE12:
 318              		.loc 1 130 14
 319 000e 3B68     		ldr	r3, [r7]
 320 0010 9A60     		str	r2, [r3, #8]
 321              		.loc 1 133 3
 322 0012 3B68     		ldr	r3, [r7]
 323 0014 9B68     		ldr	r3, [r3, #8]
 324 0016 0022     		movs	r2, #0
 325 0018 1946     		mov	r1, r3
 326 001a 7868     		ldr	r0, [r7, #4]
 327 001c FFF7FEFF 		bl	tm_stop
 328              		.loc 1 134 1
 329 0020 00BF     		nop
 330 0022 0837     		adds	r7, r7, #8
 331              		.cfi_def_cfa_offset 8
 332 0024 BD46     		mov	sp, r7
 333              		.cfi_def_cfa_register 13
 334              		@ sp needed
 335 0026 80BD     		pop	{r7, pc}
 336              	.L17:
 337              		.align	2
 338              	.L16:
 339 0028 001000E0 		.word	-536866816
 340              		.cfi_endproc
 341              	.LFE350:
 342              		.size	chTMChainMeasurementToX, .-chTMChainMeasurementToX
ARM GAS  C:\Users\DEVELO~1\AppData\Local\Temp\ccyi4yqg.s 			page 7


 343              		.text
 344              	.Letext0:
 345              		.file 3 "c:\\chibistudio\\tools\\gnu tools arm embedded\\11.3 2022.08\\arm-none-eabi\\include\\mac
 346              		.file 4 "c:\\chibistudio\\tools\\gnu tools arm embedded\\11.3 2022.08\\arm-none-eabi\\include\\sys
 347              		.file 5 "../../../os/common/ports/ARM-common/chtypes.h"
 348              		.file 6 "../../../os/rt/include/chearly.h"
 349              		.file 7 "../../../os/rt/include/chobjects.h"
 350              		.file 8 "../../../os/rt/include/chrfcu.h"
 351              		.file 9 "../../../os/rt/include/chdebug.h"
 352              		.file 10 "../../../os/rt/include/chtime.h"
 353              		.file 11 "../../../os/rt/include/chlists.h"
 354              		.file 12 "../../../os/rt/include/chtrace.h"
 355              		.file 13 "../../../os/common/ext/ARM/CMSIS/Core/Include/core_cm7.h"
 356              		.file 14 "../../../os/rt/include/chtm.h"
 357              		.file 15 "../../../os/rt/include/chsem.h"
 358              		.file 16 "../../../os/rt/include/chmtx.h"
 359              		.file 17 "../../../os/rt/include/chsys.h"
 360              		.section	.debug_info,"",%progbits
 361              	.Ldebug_info0:
 362 0000 EB0C0000 		.4byte	0xceb
 363 0004 0500     		.2byte	0x5
 364 0006 01       		.byte	0x1
 365 0007 04       		.byte	0x4
 366 0008 00000000 		.4byte	.Ldebug_abbrev0
 367 000c 1C       		.uleb128 0x1c
 368 000d 26010000 		.4byte	.LASF173
 369 0011 1D       		.byte	0x1d
 370 0012 FC020000 		.4byte	.LASF174
 371 0016 16030000 		.4byte	.LASF175
 372 001a 0C000000 		.4byte	.LLRL0
 373 001e 00000000 		.4byte	0
 374 0022 00000000 		.4byte	.Ldebug_line0
 375 0026 1D       		.uleb128 0x1d
 376 0027 04       		.byte	0x4
 377 0028 05       		.byte	0x5
 378 0029 696E7400 		.ascii	"int\000"
 379 002d 06       		.uleb128 0x6
 380 002e 04       		.byte	0x4
 381 002f 07       		.byte	0x7
 382 0030 DF040000 		.4byte	.LASF0
 383 0034 06       		.uleb128 0x6
 384 0035 08       		.byte	0x8
 385 0036 05       		.byte	0x5
 386 0037 F7000000 		.4byte	.LASF1
 387 003b 06       		.uleb128 0x6
 388 003c 08       		.byte	0x8
 389 003d 04       		.byte	0x4
 390 003e 5E060000 		.4byte	.LASF2
 391 0042 06       		.uleb128 0x6
 392 0043 01       		.byte	0x1
 393 0044 06       		.byte	0x6
 394 0045 05010000 		.4byte	.LASF3
 395 0049 02       		.uleb128 0x2
 396 004a 3C000000 		.4byte	.LASF6
 397 004e 03       		.byte	0x3
 398 004f 2B       		.byte	0x2b
 399 0050 18       		.byte	0x18
ARM GAS  C:\Users\DEVELO~1\AppData\Local\Temp\ccyi4yqg.s 			page 8


 400 0051 55000000 		.4byte	0x55
 401 0055 06       		.uleb128 0x6
 402 0056 01       		.byte	0x1
 403 0057 08       		.byte	0x8
 404 0058 9F050000 		.4byte	.LASF4
 405 005c 06       		.uleb128 0x6
 406 005d 02       		.byte	0x2
 407 005e 05       		.byte	0x5
 408 005f D5050000 		.4byte	.LASF5
 409 0063 02       		.uleb128 0x2
 410 0064 8B060000 		.4byte	.LASF7
 411 0068 03       		.byte	0x3
 412 0069 39       		.byte	0x39
 413 006a 19       		.byte	0x19
 414 006b 6F000000 		.4byte	0x6f
 415 006f 06       		.uleb128 0x6
 416 0070 02       		.byte	0x2
 417 0071 07       		.byte	0x7
 418 0072 85030000 		.4byte	.LASF8
 419 0076 02       		.uleb128 0x2
 420 0077 FA030000 		.4byte	.LASF9
 421 007b 03       		.byte	0x3
 422 007c 4D       		.byte	0x4d
 423 007d 18       		.byte	0x18
 424 007e 82000000 		.4byte	0x82
 425 0082 06       		.uleb128 0x6
 426 0083 04       		.byte	0x4
 427 0084 05       		.byte	0x5
 428 0085 CC010000 		.4byte	.LASF10
 429 0089 02       		.uleb128 0x2
 430 008a 33020000 		.4byte	.LASF11
 431 008e 03       		.byte	0x3
 432 008f 4F       		.byte	0x4f
 433 0090 19       		.byte	0x19
 434 0091 95000000 		.4byte	0x95
 435 0095 06       		.uleb128 0x6
 436 0096 04       		.byte	0x4
 437 0097 07       		.byte	0x7
 438 0098 D8020000 		.4byte	.LASF12
 439 009c 02       		.uleb128 0x2
 440 009d 33050000 		.4byte	.LASF13
 441 00a1 03       		.byte	0x3
 442 00a2 69       		.byte	0x69
 443 00a3 19       		.byte	0x19
 444 00a4 A8000000 		.4byte	0xa8
 445 00a8 06       		.uleb128 0x6
 446 00a9 08       		.byte	0x8
 447 00aa 07       		.byte	0x7
 448 00ab F8010000 		.4byte	.LASF14
 449 00af 02       		.uleb128 0x2
 450 00b0 79070000 		.4byte	.LASF15
 451 00b4 04       		.byte	0x4
 452 00b5 18       		.byte	0x18
 453 00b6 13       		.byte	0x13
 454 00b7 49000000 		.4byte	0x49
 455 00bb 02       		.uleb128 0x2
 456 00bc EF010000 		.4byte	.LASF16
ARM GAS  C:\Users\DEVELO~1\AppData\Local\Temp\ccyi4yqg.s 			page 9


 457 00c0 04       		.byte	0x4
 458 00c1 24       		.byte	0x24
 459 00c2 14       		.byte	0x14
 460 00c3 63000000 		.4byte	0x63
 461 00c7 02       		.uleb128 0x2
 462 00c8 97050000 		.4byte	.LASF17
 463 00cc 04       		.byte	0x4
 464 00cd 2C       		.byte	0x2c
 465 00ce 13       		.byte	0x13
 466 00cf 76000000 		.4byte	0x76
 467 00d3 02       		.uleb128 0x2
 468 00d4 38060000 		.4byte	.LASF18
 469 00d8 04       		.byte	0x4
 470 00d9 30       		.byte	0x30
 471 00da 14       		.byte	0x14
 472 00db 89000000 		.4byte	0x89
 473 00df 11       		.uleb128 0x11
 474 00e0 D3000000 		.4byte	0xd3
 475 00e4 12       		.uleb128 0x12
 476 00e5 DF000000 		.4byte	0xdf
 477 00e9 02       		.uleb128 0x2
 478 00ea D6040000 		.4byte	.LASF19
 479 00ee 04       		.byte	0x4
 480 00ef 3C       		.byte	0x3c
 481 00f0 14       		.byte	0x14
 482 00f1 9C000000 		.4byte	0x9c
 483 00f5 11       		.uleb128 0x11
 484 00f6 E9000000 		.4byte	0xe9
 485 00fa 02       		.uleb128 0x2
 486 00fb C9040000 		.4byte	.LASF20
 487 00ff 05       		.byte	0x5
 488 0100 36       		.byte	0x36
 489 0101 1D       		.byte	0x1d
 490 0102 D3000000 		.4byte	0xd3
 491 0106 02       		.uleb128 0x2
 492 0107 87070000 		.4byte	.LASF21
 493 010b 05       		.byte	0x5
 494 010c 3B       		.byte	0x3b
 495 010d 1D       		.byte	0x1d
 496 010e E9000000 		.4byte	0xe9
 497 0112 02       		.uleb128 0x2
 498 0113 48060000 		.4byte	.LASF22
 499 0117 05       		.byte	0x5
 500 0118 48       		.byte	0x48
 501 0119 1D       		.byte	0x1d
 502 011a E9000000 		.4byte	0xe9
 503 011e 02       		.uleb128 0x2
 504 011f 72040000 		.4byte	.LASF23
 505 0123 06       		.byte	0x6
 506 0124 4D       		.byte	0x4d
 507 0125 19       		.byte	0x19
 508 0126 FA000000 		.4byte	0xfa
 509 012a 02       		.uleb128 0x2
 510 012b E4000000 		.4byte	.LASF24
 511 012f 06       		.byte	0x6
 512 0130 4E       		.byte	0x4e
 513 0131 19       		.byte	0x19
ARM GAS  C:\Users\DEVELO~1\AppData\Local\Temp\ccyi4yqg.s 			page 10


 514 0132 06010000 		.4byte	0x106
 515 0136 02       		.uleb128 0x2
 516 0137 39040000 		.4byte	.LASF25
 517 013b 06       		.byte	0x6
 518 013c 50       		.byte	0x50
 519 013d 19       		.byte	0x19
 520 013e 12010000 		.4byte	0x112
 521 0142 02       		.uleb128 0x2
 522 0143 D0030000 		.4byte	.LASF26
 523 0147 06       		.byte	0x6
 524 0148 53       		.byte	0x53
 525 0149 19       		.byte	0x19
 526 014a AF000000 		.4byte	0xaf
 527 014e 02       		.uleb128 0x2
 528 014f D5010000 		.4byte	.LASF27
 529 0153 06       		.byte	0x6
 530 0154 54       		.byte	0x54
 531 0155 19       		.byte	0x19
 532 0156 AF000000 		.4byte	0xaf
 533 015a 02       		.uleb128 0x2
 534 015b 53050000 		.4byte	.LASF28
 535 015f 06       		.byte	0x6
 536 0160 55       		.byte	0x55
 537 0161 19       		.byte	0x19
 538 0162 AF000000 		.4byte	0xaf
 539 0166 02       		.uleb128 0x2
 540 0167 83050000 		.4byte	.LASF29
 541 016b 06       		.byte	0x6
 542 016c 57       		.byte	0x57
 543 016d 19       		.byte	0x19
 544 016e D3000000 		.4byte	0xd3
 545 0172 02       		.uleb128 0x2
 546 0173 A9030000 		.4byte	.LASF30
 547 0177 06       		.byte	0x6
 548 0178 58       		.byte	0x58
 549 0179 19       		.byte	0x19
 550 017a C7000000 		.4byte	0xc7
 551 017e 02       		.uleb128 0x2
 552 017f EE030000 		.4byte	.LASF31
 553 0183 06       		.byte	0x6
 554 0184 5A       		.byte	0x5a
 555 0185 19       		.byte	0x19
 556 0186 D3000000 		.4byte	0xd3
 557 018a 02       		.uleb128 0x2
 558 018b 81020000 		.4byte	.LASF32
 559 018f 06       		.byte	0x6
 560 0190 5C       		.byte	0x5c
 561 0191 19       		.byte	0x19
 562 0192 C7000000 		.4byte	0xc7
 563 0196 02       		.uleb128 0x2
 564 0197 B4030000 		.4byte	.LASF33
 565 019b 06       		.byte	0x6
 566 019c 5D       		.byte	0x5d
 567 019d 19       		.byte	0x19
 568 019e D3000000 		.4byte	0xd3
 569 01a2 02       		.uleb128 0x2
 570 01a3 49050000 		.4byte	.LASF34
ARM GAS  C:\Users\DEVELO~1\AppData\Local\Temp\ccyi4yqg.s 			page 11


 571 01a7 06       		.byte	0x6
 572 01a8 80       		.byte	0x80
 573 01a9 12       		.byte	0x12
 574 01aa 2D000000 		.4byte	0x2d
 575 01ae 02       		.uleb128 0x2
 576 01af 9E060000 		.4byte	.LASF35
 577 01b3 06       		.byte	0x6
 578 01b4 85       		.byte	0x85
 579 01b5 1A       		.byte	0x1a
 580 01b6 BA010000 		.4byte	0x1ba
 581 01ba 07       		.uleb128 0x7
 582 01bb 98030000 		.4byte	.LASF50
 583 01bf 48       		.byte	0x48
 584 01c0 07       		.byte	0x7
 585 01c1 9C       		.byte	0x9c
 586 01c2 08       		.byte	0x8
 587 01c3 9D020000 		.4byte	0x29d
 588 01c7 08       		.uleb128 0x8
 589 01c8 68647200 		.ascii	"hdr\000"
 590 01cc 07       		.byte	0x7
 591 01cd AD       		.byte	0xad
 592 01ce 05       		.byte	0x5
 593 01cf A9090000 		.4byte	0x9a9
 594 01d3 00       		.byte	0
 595 01d4 08       		.uleb128 0x8
 596 01d5 63747800 		.ascii	"ctx\000"
 597 01d9 07       		.byte	0x7
 598 01da B1       		.byte	0xb1
 599 01db 21       		.byte	0x21
 600 01dc 69080000 		.4byte	0x869
 601 01e0 0C       		.byte	0xc
 602 01e1 03       		.uleb128 0x3
 603 01e2 EA020000 		.4byte	.LASF36
 604 01e6 07       		.byte	0x7
 605 01e7 B6       		.byte	0xb6
 606 01e8 21       		.byte	0x21
 607 01e9 EB030000 		.4byte	0x3eb
 608 01ed 10       		.byte	0x10
 609 01ee 03       		.uleb128 0x3
 610 01ef 58060000 		.4byte	.LASF37
 611 01f3 07       		.byte	0x7
 612 01f4 BB       		.byte	0xbb
 613 01f5 22       		.byte	0x22
 614 01f6 AB0A0000 		.4byte	0xaab
 615 01fa 18       		.byte	0x18
 616 01fb 03       		.uleb128 0x3
 617 01fc 75030000 		.4byte	.LASF38
 618 0200 07       		.byte	0x7
 619 0201 C0       		.byte	0xc0
 620 0202 22       		.byte	0x22
 621 0203 85030000 		.4byte	0x385
 622 0207 1C       		.byte	0x1c
 623 0208 03       		.uleb128 0x3
 624 0209 6A060000 		.4byte	.LASF39
 625 020d 07       		.byte	0x7
 626 020e C9       		.byte	0xc9
 627 020f 22       		.byte	0x22
ARM GAS  C:\Users\DEVELO~1\AppData\Local\Temp\ccyi4yqg.s 			page 12


 628 0210 B00A0000 		.4byte	0xab0
 629 0214 20       		.byte	0x20
 630 0215 03       		.uleb128 0x3
 631 0216 B1010000 		.4byte	.LASF40
 632 021a 07       		.byte	0x7
 633 021b CE       		.byte	0xce
 634 021c 21       		.byte	0x21
 635 021d 4E010000 		.4byte	0x14e
 636 0221 24       		.byte	0x24
 637 0222 03       		.uleb128 0x3
 638 0223 81070000 		.4byte	.LASF41
 639 0227 07       		.byte	0x7
 640 0228 D2       		.byte	0xd2
 641 0229 21       		.byte	0x21
 642 022a 42010000 		.4byte	0x142
 643 022e 25       		.byte	0x25
 644 022f 03       		.uleb128 0x3
 645 0230 79050000 		.4byte	.LASF42
 646 0234 07       		.byte	0x7
 647 0235 D7       		.byte	0xd7
 648 0236 21       		.byte	0x21
 649 0237 5A010000 		.4byte	0x15a
 650 023b 26       		.byte	0x26
 651 023c 05       		.uleb128 0x5
 652 023d 7500     		.ascii	"u\000"
 653 023f 07       		.byte	0x7
 654 0240 2801     		.2byte	0x128
 655 0242 21       		.byte	0x21
 656 0243 D6090000 		.4byte	0x9d6
 657 0247 28       		.byte	0x28
 658 0248 01       		.uleb128 0x1
 659 0249 53020000 		.4byte	.LASF43
 660 024d 07       		.byte	0x7
 661 024e 2D01     		.2byte	0x12d
 662 0250 21       		.byte	0x21
 663 0251 BF030000 		.4byte	0x3bf
 664 0255 2C       		.byte	0x2c
 665 0256 01       		.uleb128 0x1
 666 0257 87020000 		.4byte	.LASF44
 667 025b 07       		.byte	0x7
 668 025c 3301     		.2byte	0x133
 669 025e 21       		.byte	0x21
 670 025f EB030000 		.4byte	0x3eb
 671 0263 30       		.byte	0x30
 672 0264 01       		.uleb128 0x1
 673 0265 BB030000 		.4byte	.LASF45
 674 0269 07       		.byte	0x7
 675 026a 3901     		.2byte	0x139
 676 026c 21       		.byte	0x21
 677 026d 7E010000 		.4byte	0x17e
 678 0271 38       		.byte	0x38
 679 0272 01       		.uleb128 0x1
 680 0273 FB070000 		.4byte	.LASF46
 681 0277 07       		.byte	0x7
 682 0278 4001     		.2byte	0x140
 683 027a 22       		.byte	0x22
 684 027b A60A0000 		.4byte	0xaa6
ARM GAS  C:\Users\DEVELO~1\AppData\Local\Temp\ccyi4yqg.s 			page 13


 685 027f 3C       		.byte	0x3c
 686 0280 01       		.uleb128 0x1
 687 0281 5D040000 		.4byte	.LASF47
 688 0285 07       		.byte	0x7
 689 0286 4401     		.2byte	0x144
 690 0288 21       		.byte	0x21
 691 0289 66010000 		.4byte	0x166
 692 028d 40       		.byte	0x40
 693 028e 01       		.uleb128 0x1
 694 028f 59070000 		.4byte	.LASF48
 695 0293 07       		.byte	0x7
 696 0294 4B01     		.2byte	0x14b
 697 0296 22       		.byte	0x22
 698 0297 D9040000 		.4byte	0x4d9
 699 029b 44       		.byte	0x44
 700 029c 00       		.byte	0
 701 029d 02       		.uleb128 0x2
 702 029e FE060000 		.4byte	.LASF49
 703 02a2 06       		.byte	0x6
 704 02a3 8A       		.byte	0x8a
 705 02a4 1F       		.byte	0x1f
 706 02a5 A9020000 		.4byte	0x2a9
 707 02a9 1E       		.uleb128 0x1e
 708 02aa E8060000 		.4byte	.LASF51
 709 02ae 9008     		.2byte	0x890
 710 02b0 07       		.byte	0x7
 711 02b1 8A01     		.2byte	0x18a
 712 02b3 08       		.byte	0x8
 713 02b4 37030000 		.4byte	0x337
 714 02b8 01       		.uleb128 0x1
 715 02b9 73070000 		.4byte	.LASF52
 716 02bd 07       		.byte	0x7
 717 02be 8E01     		.2byte	0x18e
 718 02c0 21       		.byte	0x21
 719 02c1 E00A0000 		.4byte	0xae0
 720 02c5 00       		.byte	0
 721 02c6 01       		.uleb128 0x1
 722 02c7 52000000 		.4byte	.LASF53
 723 02cb 07       		.byte	0x7
 724 02cc 9201     		.2byte	0x192
 725 02ce 21       		.byte	0x21
 726 02cf 6A090000 		.4byte	0x96a
 727 02d3 10       		.byte	0x10
 728 02d4 01       		.uleb128 0x1
 729 02d5 0C070000 		.4byte	.LASF54
 730 02d9 07       		.byte	0x7
 731 02da 9901     		.2byte	0x199
 732 02dc 21       		.byte	0x21
 733 02dd 91090000 		.4byte	0x991
 734 02e1 28       		.byte	0x28
 735 02e2 01       		.uleb128 0x1
 736 02e3 00060000 		.4byte	.LASF55
 737 02e7 07       		.byte	0x7
 738 02e8 9E01     		.2byte	0x19e
 739 02ea 21       		.byte	0x21
 740 02eb A2010000 		.4byte	0x1a2
 741 02ef 30       		.byte	0x30
ARM GAS  C:\Users\DEVELO~1\AppData\Local\Temp\ccyi4yqg.s 			page 14


 742 02f0 01       		.uleb128 0x1
 743 02f1 27000000 		.4byte	.LASF56
 744 02f5 07       		.byte	0x7
 745 02f6 A401     		.2byte	0x1a4
 746 02f8 21       		.byte	0x21
 747 02f9 5E030000 		.4byte	0x35e
 748 02fd 34       		.byte	0x34
 749 02fe 01       		.uleb128 0x1
 750 02ff 84060000 		.4byte	.LASF57
 751 0303 07       		.byte	0x7
 752 0304 A901     		.2byte	0x1a9
 753 0306 22       		.byte	0x22
 754 0307 520B0000 		.4byte	0xb52
 755 030b 38       		.byte	0x38
 756 030c 01       		.uleb128 0x1
 757 030d B7000000 		.4byte	.LASF58
 758 0311 07       		.byte	0x7
 759 0312 AD01     		.2byte	0x1ad
 760 0314 21       		.byte	0x21
 761 0315 AE010000 		.4byte	0x1ae
 762 0319 3C       		.byte	0x3c
 763 031a 05       		.uleb128 0x5
 764 031b 64626700 		.ascii	"dbg\000"
 765 031f 07       		.byte	0x7
 766 0320 B101     		.2byte	0x1b1
 767 0322 21       		.byte	0x21
 768 0323 9B030000 		.4byte	0x39b
 769 0327 84       		.byte	0x84
 770 0328 01       		.uleb128 0x1
 771 0329 BD070000 		.4byte	.LASF59
 772 032d 07       		.byte	0x7
 773 032e B601     		.2byte	0x1b6
 774 0330 21       		.byte	0x21
 775 0331 34060000 		.4byte	0x634
 776 0335 88       		.byte	0x88
 777 0336 00       		.byte	0
 778 0337 02       		.uleb128 0x2
 779 0338 66040000 		.4byte	.LASF60
 780 033c 08       		.byte	0x8
 781 033d 3F       		.byte	0x3f
 782 033e 12       		.byte	0x12
 783 033f D3000000 		.4byte	0xd3
 784 0343 07       		.uleb128 0x7
 785 0344 DE010000 		.4byte	.LASF61
 786 0348 04       		.byte	0x4
 787 0349 08       		.byte	0x8
 788 034a 44       		.byte	0x44
 789 034b 10       		.byte	0x10
 790 034c 5E030000 		.4byte	0x35e
 791 0350 03       		.uleb128 0x3
 792 0351 3E020000 		.4byte	.LASF62
 793 0355 08       		.byte	0x8
 794 0356 48       		.byte	0x48
 795 0357 21       		.byte	0x21
 796 0358 37030000 		.4byte	0x337
 797 035c 00       		.byte	0
 798 035d 00       		.byte	0
ARM GAS  C:\Users\DEVELO~1\AppData\Local\Temp\ccyi4yqg.s 			page 15


 799 035e 02       		.uleb128 0x2
 800 035f 04040000 		.4byte	.LASF63
 801 0363 08       		.byte	0x8
 802 0364 49       		.byte	0x49
 803 0365 03       		.byte	0x3
 804 0366 43030000 		.4byte	0x343
 805 036a 07       		.uleb128 0x7
 806 036b 43020000 		.4byte	.LASF64
 807 036f 04       		.byte	0x4
 808 0370 09       		.byte	0x9
 809 0371 3E       		.byte	0x3e
 810 0372 10       		.byte	0x10
 811 0373 85030000 		.4byte	0x385
 812 0377 03       		.uleb128 0x3
 813 0378 D7060000 		.4byte	.LASF65
 814 037c 09       		.byte	0x9
 815 037d 46       		.byte	0x46
 816 037e 24       		.byte	0x24
 817 037f 8A030000 		.4byte	0x38a
 818 0383 00       		.byte	0
 819 0384 00       		.byte	0
 820 0385 04       		.uleb128 0x4
 821 0386 96030000 		.4byte	0x396
 822 038a 11       		.uleb128 0x11
 823 038b 85030000 		.4byte	0x385
 824 038f 06       		.uleb128 0x6
 825 0390 01       		.byte	0x1
 826 0391 08       		.byte	0x8
 827 0392 71060000 		.4byte	.LASF66
 828 0396 12       		.uleb128 0x12
 829 0397 8F030000 		.4byte	0x38f
 830 039b 02       		.uleb128 0x2
 831 039c C9020000 		.4byte	.LASF67
 832 03a0 09       		.byte	0x9
 833 03a1 51       		.byte	0x51
 834 03a2 03       		.byte	0x3
 835 03a3 6A030000 		.4byte	0x36a
 836 03a7 02       		.uleb128 0x2
 837 03a8 B2060000 		.4byte	.LASF68
 838 03ac 0A       		.byte	0xa
 839 03ad 6D       		.byte	0x6d
 840 03ae 12       		.byte	0x12
 841 03af D3000000 		.4byte	0xd3
 842 03b3 02       		.uleb128 0x2
 843 03b4 73020000 		.4byte	.LASF69
 844 03b8 0A       		.byte	0xa
 845 03b9 79       		.byte	0x79
 846 03ba 12       		.byte	0x12
 847 03bb D3000000 		.4byte	0xd3
 848 03bf 02       		.uleb128 0x2
 849 03c0 A4040000 		.4byte	.LASF70
 850 03c4 0B       		.byte	0xb
 851 03c5 32       		.byte	0x32
 852 03c6 18       		.byte	0x18
 853 03c7 CB030000 		.4byte	0x3cb
 854 03cb 07       		.uleb128 0x7
 855 03cc D8030000 		.4byte	.LASF71
ARM GAS  C:\Users\DEVELO~1\AppData\Local\Temp\ccyi4yqg.s 			page 16


 856 03d0 04       		.byte	0x4
 857 03d1 0B       		.byte	0xb
 858 03d2 38       		.byte	0x38
 859 03d3 08       		.byte	0x8
 860 03d4 E6030000 		.4byte	0x3e6
 861 03d8 03       		.uleb128 0x3
 862 03d9 DF000000 		.4byte	.LASF72
 863 03dd 0B       		.byte	0xb
 864 03de 39       		.byte	0x39
 865 03df 1A       		.byte	0x1a
 866 03e0 E6030000 		.4byte	0x3e6
 867 03e4 00       		.byte	0
 868 03e5 00       		.byte	0
 869 03e6 04       		.uleb128 0x4
 870 03e7 BF030000 		.4byte	0x3bf
 871 03eb 02       		.uleb128 0x2
 872 03ec F1020000 		.4byte	.LASF73
 873 03f0 0B       		.byte	0xb
 874 03f1 3F       		.byte	0x3f
 875 03f2 19       		.byte	0x19
 876 03f3 F7030000 		.4byte	0x3f7
 877 03f7 07       		.uleb128 0x7
 878 03f8 E6010000 		.4byte	.LASF74
 879 03fc 08       		.byte	0x8
 880 03fd 0B       		.byte	0xb
 881 03fe 45       		.byte	0x45
 882 03ff 08       		.byte	0x8
 883 0400 1F040000 		.4byte	0x41f
 884 0404 03       		.uleb128 0x3
 885 0405 DF000000 		.4byte	.LASF72
 886 0409 0B       		.byte	0xb
 887 040a 46       		.byte	0x46
 888 040b 1A       		.byte	0x1a
 889 040c 1F040000 		.4byte	0x41f
 890 0410 00       		.byte	0
 891 0411 03       		.uleb128 0x3
 892 0412 00000000 		.4byte	.LASF75
 893 0416 0B       		.byte	0xb
 894 0417 47       		.byte	0x47
 895 0418 1A       		.byte	0x1a
 896 0419 1F040000 		.4byte	0x41f
 897 041d 04       		.byte	0x4
 898 041e 00       		.byte	0
 899 041f 04       		.uleb128 0x4
 900 0420 EB030000 		.4byte	0x3eb
 901 0424 02       		.uleb128 0x2
 902 0425 C3060000 		.4byte	.LASF76
 903 0429 0B       		.byte	0xb
 904 042a 4E       		.byte	0x4e
 905 042b 22       		.byte	0x22
 906 042c 30040000 		.4byte	0x430
 907 0430 07       		.uleb128 0x7
 908 0431 1D070000 		.4byte	.LASF77
 909 0435 0C       		.byte	0xc
 910 0436 0B       		.byte	0xb
 911 0437 55       		.byte	0x55
 912 0438 08       		.byte	0x8
ARM GAS  C:\Users\DEVELO~1\AppData\Local\Temp\ccyi4yqg.s 			page 17


 913 0439 65040000 		.4byte	0x465
 914 043d 03       		.uleb128 0x3
 915 043e DF000000 		.4byte	.LASF72
 916 0442 0B       		.byte	0xb
 917 0443 56       		.byte	0x56
 918 0444 1A       		.byte	0x1a
 919 0445 65040000 		.4byte	0x465
 920 0449 00       		.byte	0
 921 044a 03       		.uleb128 0x3
 922 044b 00000000 		.4byte	.LASF75
 923 044f 0B       		.byte	0xb
 924 0450 57       		.byte	0x57
 925 0451 1A       		.byte	0x1a
 926 0452 65040000 		.4byte	0x465
 927 0456 04       		.byte	0x4
 928 0457 03       		.uleb128 0x3
 929 0458 26050000 		.4byte	.LASF78
 930 045c 0B       		.byte	0xb
 931 045d 58       		.byte	0x58
 932 045e 19       		.byte	0x19
 933 045f 66010000 		.4byte	0x166
 934 0463 08       		.byte	0x8
 935 0464 00       		.byte	0
 936 0465 04       		.uleb128 0x4
 937 0466 24040000 		.4byte	0x424
 938 046a 02       		.uleb128 0x2
 939 046b 34070000 		.4byte	.LASF79
 940 046f 0B       		.byte	0xb
 941 0470 5F       		.byte	0x5f
 942 0471 1E       		.byte	0x1e
 943 0472 76040000 		.4byte	0x476
 944 0476 07       		.uleb128 0x7
 945 0477 11010000 		.4byte	.LASF80
 946 047b 0C       		.byte	0xc
 947 047c 0B       		.byte	0xb
 948 047d 64       		.byte	0x64
 949 047e 08       		.byte	0x8
 950 047f AB040000 		.4byte	0x4ab
 951 0483 03       		.uleb128 0x3
 952 0484 DF000000 		.4byte	.LASF72
 953 0488 0B       		.byte	0xb
 954 0489 65       		.byte	0x65
 955 048a 1A       		.byte	0x1a
 956 048b AB040000 		.4byte	0x4ab
 957 048f 00       		.byte	0
 958 0490 03       		.uleb128 0x3
 959 0491 00000000 		.4byte	.LASF75
 960 0495 0B       		.byte	0xb
 961 0496 66       		.byte	0x66
 962 0497 1A       		.byte	0x1a
 963 0498 AB040000 		.4byte	0x4ab
 964 049c 04       		.byte	0x4
 965 049d 03       		.uleb128 0x3
 966 049e CA000000 		.4byte	.LASF81
 967 04a2 0B       		.byte	0xb
 968 04a3 67       		.byte	0x67
 969 04a4 19       		.byte	0x19
ARM GAS  C:\Users\DEVELO~1\AppData\Local\Temp\ccyi4yqg.s 			page 18


 970 04a5 B3030000 		.4byte	0x3b3
 971 04a9 08       		.byte	0x8
 972 04aa 00       		.byte	0
 973 04ab 04       		.uleb128 0x4
 974 04ac 6A040000 		.4byte	0x46a
 975 04b0 09       		.uleb128 0x9
 976 04b1 08       		.byte	0x8
 977 04b2 0C       		.byte	0xc
 978 04b3 83       		.byte	0x83
 979 04b4 05       		.byte	0x5
 980 04b5 D4040000 		.4byte	0x4d4
 981 04b9 08       		.uleb128 0x8
 982 04ba 6E747000 		.ascii	"ntp\000"
 983 04be 0C       		.byte	0xc
 984 04bf 87       		.byte	0x87
 985 04c0 1E       		.byte	0x1e
 986 04c1 D4040000 		.4byte	0x4d4
 987 04c5 00       		.byte	0
 988 04c6 03       		.uleb128 0x3
 989 04c7 E8050000 		.4byte	.LASF82
 990 04cb 0C       		.byte	0xc
 991 04cc 8B       		.byte	0x8b
 992 04cd 1E       		.byte	0x1e
 993 04ce D9040000 		.4byte	0x4d9
 994 04d2 04       		.byte	0x4
 995 04d3 00       		.byte	0
 996 04d4 04       		.uleb128 0x4
 997 04d5 AE010000 		.4byte	0x1ae
 998 04d9 1F       		.uleb128 0x1f
 999 04da 04       		.byte	0x4
 1000 04db 09       		.uleb128 0x9
 1001 04dc 08       		.byte	0x8
 1002 04dd 0C       		.byte	0xc
 1003 04de 90       		.byte	0x90
 1004 04df 05       		.byte	0x5
 1005 04e0 FE040000 		.4byte	0x4fe
 1006 04e4 08       		.uleb128 0x8
 1007 04e5 747000   		.ascii	"tp\000"
 1008 04e8 0C       		.byte	0xc
 1009 04e9 94       		.byte	0x94
 1010 04ea 1E       		.byte	0x1e
 1011 04eb D4040000 		.4byte	0x4d4
 1012 04ef 00       		.byte	0
 1013 04f0 08       		.uleb128 0x8
 1014 04f1 6D736700 		.ascii	"msg\000"
 1015 04f5 0C       		.byte	0xc
 1016 04f6 98       		.byte	0x98
 1017 04f7 1D       		.byte	0x1d
 1018 04f8 72010000 		.4byte	0x172
 1019 04fc 04       		.byte	0x4
 1020 04fd 00       		.byte	0
 1021 04fe 09       		.uleb128 0x9
 1022 04ff 04       		.byte	0x4
 1023 0500 0C       		.byte	0xc
 1024 0501 9D       		.byte	0x9d
 1025 0502 05       		.byte	0x5
 1026 0503 15050000 		.4byte	0x515
ARM GAS  C:\Users\DEVELO~1\AppData\Local\Temp\ccyi4yqg.s 			page 19


 1027 0507 03       		.uleb128 0x3
 1028 0508 75030000 		.4byte	.LASF38
 1029 050c 0C       		.byte	0xc
 1030 050d A1       		.byte	0xa1
 1031 050e 1E       		.byte	0x1e
 1032 050f 85030000 		.4byte	0x385
 1033 0513 00       		.byte	0
 1034 0514 00       		.byte	0
 1035 0515 09       		.uleb128 0x9
 1036 0516 04       		.byte	0x4
 1037 0517 0C       		.byte	0xc
 1038 0518 A6       		.byte	0xa6
 1039 0519 05       		.byte	0x5
 1040 051a 2C050000 		.4byte	0x52c
 1041 051e 03       		.uleb128 0x3
 1042 051f 08060000 		.4byte	.LASF83
 1043 0523 0C       		.byte	0xc
 1044 0524 AA       		.byte	0xaa
 1045 0525 1E       		.byte	0x1e
 1046 0526 85030000 		.4byte	0x385
 1047 052a 00       		.byte	0
 1048 052b 00       		.byte	0
 1049 052c 09       		.uleb128 0x9
 1050 052d 08       		.byte	0x8
 1051 052e 0C       		.byte	0xc
 1052 052f AF       		.byte	0xaf
 1053 0530 05       		.byte	0x5
 1054 0531 50050000 		.4byte	0x550
 1055 0535 08       		.uleb128 0x8
 1056 0536 75703100 		.ascii	"up1\000"
 1057 053a 0C       		.byte	0xc
 1058 053b B3       		.byte	0xb3
 1059 053c 1E       		.byte	0x1e
 1060 053d D9040000 		.4byte	0x4d9
 1061 0541 00       		.byte	0
 1062 0542 08       		.uleb128 0x8
 1063 0543 75703200 		.ascii	"up2\000"
 1064 0547 0C       		.byte	0xc
 1065 0548 B7       		.byte	0xb7
 1066 0549 1E       		.byte	0x1e
 1067 054a D9040000 		.4byte	0x4d9
 1068 054e 04       		.byte	0x4
 1069 054f 00       		.byte	0
 1070 0550 13       		.uleb128 0x13
 1071 0551 08       		.byte	0x8
 1072 0552 0C       		.byte	0xc
 1073 0553 7F       		.byte	0x7f
 1074 0554 8E050000 		.4byte	0x58e
 1075 0558 14       		.uleb128 0x14
 1076 0559 737700   		.ascii	"sw\000"
 1077 055c 8C       		.byte	0x8c
 1078 055d B0040000 		.4byte	0x4b0
 1079 0561 14       		.uleb128 0x14
 1080 0562 72647900 		.ascii	"rdy\000"
 1081 0566 99       		.byte	0x99
 1082 0567 DB040000 		.4byte	0x4db
 1083 056b 14       		.uleb128 0x14
ARM GAS  C:\Users\DEVELO~1\AppData\Local\Temp\ccyi4yqg.s 			page 20


 1084 056c 69737200 		.ascii	"isr\000"
 1085 0570 A2       		.byte	0xa2
 1086 0571 FE040000 		.4byte	0x4fe
 1087 0575 0A       		.uleb128 0xa
 1088 0576 9A000000 		.4byte	.LASF84
 1089 057a 0C       		.byte	0xc
 1090 057b AB       		.byte	0xab
 1091 057c 07       		.byte	0x7
 1092 057d 15050000 		.4byte	0x515
 1093 0581 0A       		.uleb128 0xa
 1094 0582 7E050000 		.4byte	.LASF85
 1095 0586 0C       		.byte	0xc
 1096 0587 B8       		.byte	0xb8
 1097 0588 07       		.byte	0x7
 1098 0589 2C050000 		.4byte	0x52c
 1099 058d 00       		.byte	0
 1100 058e 09       		.uleb128 0x9
 1101 058f 10       		.byte	0x10
 1102 0590 0C       		.byte	0xc
 1103 0591 6C       		.byte	0x6c
 1104 0592 09       		.byte	0x9
 1105 0593 D4050000 		.4byte	0x5d4
 1106 0597 15       		.uleb128 0x15
 1107 0598 59000000 		.4byte	.LASF86
 1108 059c 70       		.byte	0x70
 1109 059d D3000000 		.4byte	0xd3
 1110 05a1 03       		.byte	0x3
 1111 05a2 00       		.byte	0
 1112 05a3 15       		.uleb128 0x15
 1113 05a4 B1010000 		.4byte	.LASF40
 1114 05a8 74       		.byte	0x74
 1115 05a9 D3000000 		.4byte	0xd3
 1116 05ad 05       		.byte	0x5
 1117 05ae 03       		.byte	0x3
 1118 05af 15       		.uleb128 0x15
 1119 05b0 44040000 		.4byte	.LASF87
 1120 05b4 7A       		.byte	0x7a
 1121 05b5 D3000000 		.4byte	0xd3
 1122 05b9 18       		.byte	0x18
 1123 05ba 08       		.byte	0x8
 1124 05bb 03       		.uleb128 0x3
 1125 05bc 21050000 		.4byte	.LASF88
 1126 05c0 0C       		.byte	0xc
 1127 05c1 7E       		.byte	0x7e
 1128 05c2 19       		.byte	0x19
 1129 05c3 A7030000 		.4byte	0x3a7
 1130 05c7 04       		.byte	0x4
 1131 05c8 08       		.uleb128 0x8
 1132 05c9 7500     		.ascii	"u\000"
 1133 05cb 0C       		.byte	0xc
 1134 05cc B9       		.byte	0xb9
 1135 05cd 05       		.byte	0x5
 1136 05ce 50050000 		.4byte	0x550
 1137 05d2 08       		.byte	0x8
 1138 05d3 00       		.byte	0
 1139 05d4 02       		.uleb128 0x2
 1140 05d5 5E000000 		.4byte	.LASF89
ARM GAS  C:\Users\DEVELO~1\AppData\Local\Temp\ccyi4yqg.s 			page 21


 1141 05d9 0C       		.byte	0xc
 1142 05da BA       		.byte	0xba
 1143 05db 03       		.byte	0x3
 1144 05dc 8E050000 		.4byte	0x58e
 1145 05e0 20       		.uleb128 0x20
 1146 05e1 0808     		.2byte	0x808
 1147 05e3 0C       		.byte	0xc
 1148 05e4 C0       		.byte	0xc0
 1149 05e5 09       		.byte	0x9
 1150 05e6 1F060000 		.4byte	0x61f
 1151 05ea 03       		.uleb128 0x3
 1152 05eb AE040000 		.4byte	.LASF90
 1153 05ef 0C       		.byte	0xc
 1154 05f0 C4       		.byte	0xc4
 1155 05f1 19       		.byte	0x19
 1156 05f2 BB000000 		.4byte	0xbb
 1157 05f6 00       		.byte	0
 1158 05f7 03       		.uleb128 0x3
 1159 05f8 80030000 		.4byte	.LASF91
 1160 05fc 0C       		.byte	0xc
 1161 05fd C8       		.byte	0xc8
 1162 05fe 19       		.byte	0x19
 1163 05ff BB000000 		.4byte	0xbb
 1164 0603 02       		.byte	0x2
 1165 0604 08       		.uleb128 0x8
 1166 0605 70747200 		.ascii	"ptr\000"
 1167 0609 0C       		.byte	0xc
 1168 060a CC       		.byte	0xcc
 1169 060b 1A       		.byte	0x1a
 1170 060c 1F060000 		.4byte	0x61f
 1171 0610 04       		.byte	0x4
 1172 0611 03       		.uleb128 0x3
 1173 0612 BC060000 		.4byte	.LASF92
 1174 0616 0C       		.byte	0xc
 1175 0617 D0       		.byte	0xd0
 1176 0618 19       		.byte	0x19
 1177 0619 24060000 		.4byte	0x624
 1178 061d 08       		.byte	0x8
 1179 061e 00       		.byte	0
 1180 061f 04       		.uleb128 0x4
 1181 0620 D4050000 		.4byte	0x5d4
 1182 0624 0E       		.uleb128 0xe
 1183 0625 D4050000 		.4byte	0x5d4
 1184 0629 34060000 		.4byte	0x634
 1185 062d 16       		.uleb128 0x16
 1186 062e 2D000000 		.4byte	0x2d
 1187 0632 7F       		.byte	0x7f
 1188 0633 00       		.byte	0
 1189 0634 02       		.uleb128 0x2
 1190 0635 0F020000 		.4byte	.LASF93
 1191 0639 0C       		.byte	0xc
 1192 063a D1       		.byte	0xd1
 1193 063b 03       		.byte	0x3
 1194 063c E0050000 		.4byte	0x5e0
 1195 0640 0E       		.uleb128 0xe
 1196 0641 D3000000 		.4byte	0xd3
 1197 0645 50060000 		.4byte	0x650
ARM GAS  C:\Users\DEVELO~1\AppData\Local\Temp\ccyi4yqg.s 			page 22


 1198 0649 16       		.uleb128 0x16
 1199 064a 2D000000 		.4byte	0x2d
 1200 064e 00       		.byte	0
 1201 064f 00       		.byte	0
 1202 0650 21       		.uleb128 0x21
 1203 0651 B80F     		.2byte	0xfb8
 1204 0653 0D       		.byte	0xd
 1205 0654 5C04     		.2byte	0x45c
 1206 0656 09       		.byte	0x9
 1207 0657 C6070000 		.4byte	0x7c6
 1208 065b 01       		.uleb128 0x1
 1209 065c 2F070000 		.4byte	.LASF94
 1210 0660 0D       		.byte	0xd
 1211 0661 5E04     		.2byte	0x45e
 1212 0663 12       		.byte	0x12
 1213 0664 DF000000 		.4byte	0xdf
 1214 0668 00       		.byte	0
 1215 0669 01       		.uleb128 0x1
 1216 066a 56040000 		.4byte	.LASF95
 1217 066e 0D       		.byte	0xd
 1218 066f 5F04     		.2byte	0x45f
 1219 0671 12       		.byte	0x12
 1220 0672 DF000000 		.4byte	0xdf
 1221 0676 04       		.byte	0x4
 1222 0677 01       		.uleb128 0x1
 1223 0678 1F010000 		.4byte	.LASF96
 1224 067c 0D       		.byte	0xd
 1225 067d 6004     		.2byte	0x460
 1226 067f 12       		.byte	0x12
 1227 0680 DF000000 		.4byte	0xdf
 1228 0684 08       		.byte	0x8
 1229 0685 01       		.uleb128 0x1
 1230 0686 A2030000 		.4byte	.LASF97
 1231 068a 0D       		.byte	0xd
 1232 068b 6104     		.2byte	0x461
 1233 068d 12       		.byte	0x12
 1234 068e DF000000 		.4byte	0xdf
 1235 0692 0C       		.byte	0xc
 1236 0693 01       		.uleb128 0x1
 1237 0694 1E020000 		.4byte	.LASF98
 1238 0698 0D       		.byte	0xd
 1239 0699 6204     		.2byte	0x462
 1240 069b 12       		.byte	0x12
 1241 069c DF000000 		.4byte	0xdf
 1242 06a0 10       		.byte	0x10
 1243 06a1 01       		.uleb128 0x1
 1244 06a2 31060000 		.4byte	.LASF99
 1245 06a6 0D       		.byte	0xd
 1246 06a7 6304     		.2byte	0x463
 1247 06a9 12       		.byte	0x12
 1248 06aa DF000000 		.4byte	0xdf
 1249 06ae 14       		.byte	0x14
 1250 06af 01       		.uleb128 0x1
 1251 06b0 05000000 		.4byte	.LASF100
 1252 06b4 0D       		.byte	0xd
 1253 06b5 6404     		.2byte	0x464
 1254 06b7 12       		.byte	0x12
ARM GAS  C:\Users\DEVELO~1\AppData\Local\Temp\ccyi4yqg.s 			page 23


 1255 06b8 DF000000 		.4byte	0xdf
 1256 06bc 18       		.byte	0x18
 1257 06bd 01       		.uleb128 0x1
 1258 06be 95070000 		.4byte	.LASF101
 1259 06c2 0D       		.byte	0xd
 1260 06c3 6504     		.2byte	0x465
 1261 06c5 12       		.byte	0x12
 1262 06c6 E4000000 		.4byte	0xe4
 1263 06ca 1C       		.byte	0x1c
 1264 06cb 01       		.uleb128 0x1
 1265 06cc 53070000 		.4byte	.LASF102
 1266 06d0 0D       		.byte	0xd
 1267 06d1 6604     		.2byte	0x466
 1268 06d3 12       		.byte	0x12
 1269 06d4 DF000000 		.4byte	0xdf
 1270 06d8 20       		.byte	0x20
 1271 06d9 01       		.uleb128 0x1
 1272 06da 8B050000 		.4byte	.LASF103
 1273 06de 0D       		.byte	0xd
 1274 06df 6704     		.2byte	0x467
 1275 06e1 12       		.byte	0x12
 1276 06e2 DF000000 		.4byte	0xdf
 1277 06e6 24       		.byte	0x24
 1278 06e7 01       		.uleb128 0x1
 1279 06e8 AD050000 		.4byte	.LASF104
 1280 06ec 0D       		.byte	0xd
 1281 06ed 6804     		.2byte	0x468
 1282 06ef 12       		.byte	0x12
 1283 06f0 DF000000 		.4byte	0xdf
 1284 06f4 28       		.byte	0x28
 1285 06f5 01       		.uleb128 0x1
 1286 06f6 5B050000 		.4byte	.LASF105
 1287 06fa 0D       		.byte	0xd
 1288 06fb 6904     		.2byte	0x469
 1289 06fd 12       		.byte	0x12
 1290 06fe 40060000 		.4byte	0x640
 1291 0702 2C       		.byte	0x2c
 1292 0703 01       		.uleb128 0x1
 1293 0704 0F050000 		.4byte	.LASF106
 1294 0708 0D       		.byte	0xd
 1295 0709 6A04     		.2byte	0x46a
 1296 070b 12       		.byte	0x12
 1297 070c DF000000 		.4byte	0xdf
 1298 0710 30       		.byte	0x30
 1299 0711 01       		.uleb128 0x1
 1300 0712 A6020000 		.4byte	.LASF107
 1301 0716 0D       		.byte	0xd
 1302 0717 6B04     		.2byte	0x46b
 1303 0719 12       		.byte	0x12
 1304 071a DF000000 		.4byte	0xdf
 1305 071e 34       		.byte	0x34
 1306 071f 01       		.uleb128 0x1
 1307 0720 B7050000 		.4byte	.LASF108
 1308 0724 0D       		.byte	0xd
 1309 0725 6C04     		.2byte	0x46c
 1310 0727 12       		.byte	0x12
 1311 0728 DF000000 		.4byte	0xdf
ARM GAS  C:\Users\DEVELO~1\AppData\Local\Temp\ccyi4yqg.s 			page 24


 1312 072c 38       		.byte	0x38
 1313 072d 01       		.uleb128 0x1
 1314 072e 65050000 		.4byte	.LASF109
 1315 0732 0D       		.byte	0xd
 1316 0733 6D04     		.2byte	0x46d
 1317 0735 12       		.byte	0x12
 1318 0736 40060000 		.4byte	0x640
 1319 073a 3C       		.byte	0x3c
 1320 073b 01       		.uleb128 0x1
 1321 073c 15050000 		.4byte	.LASF110
 1322 0740 0D       		.byte	0xd
 1323 0741 6E04     		.2byte	0x46e
 1324 0743 12       		.byte	0x12
 1325 0744 DF000000 		.4byte	0xdf
 1326 0748 40       		.byte	0x40
 1327 0749 01       		.uleb128 0x1
 1328 074a AC020000 		.4byte	.LASF111
 1329 074e 0D       		.byte	0xd
 1330 074f 6F04     		.2byte	0x46f
 1331 0751 12       		.byte	0x12
 1332 0752 DF000000 		.4byte	0xdf
 1333 0756 44       		.byte	0x44
 1334 0757 01       		.uleb128 0x1
 1335 0758 C1050000 		.4byte	.LASF112
 1336 075c 0D       		.byte	0xd
 1337 075d 7004     		.2byte	0x470
 1338 075f 12       		.byte	0x12
 1339 0760 DF000000 		.4byte	0xdf
 1340 0764 48       		.byte	0x48
 1341 0765 01       		.uleb128 0x1
 1342 0766 6F050000 		.4byte	.LASF113
 1343 076a 0D       		.byte	0xd
 1344 076b 7104     		.2byte	0x471
 1345 076d 12       		.byte	0x12
 1346 076e 40060000 		.4byte	0x640
 1347 0772 4C       		.byte	0x4c
 1348 0773 01       		.uleb128 0x1
 1349 0774 1B050000 		.4byte	.LASF114
 1350 0778 0D       		.byte	0xd
 1351 0779 7204     		.2byte	0x472
 1352 077b 12       		.byte	0x12
 1353 077c DF000000 		.4byte	0xdf
 1354 0780 50       		.byte	0x50
 1355 0781 01       		.uleb128 0x1
 1356 0782 BC020000 		.4byte	.LASF115
 1357 0786 0D       		.byte	0xd
 1358 0787 7304     		.2byte	0x473
 1359 0789 12       		.byte	0x12
 1360 078a DF000000 		.4byte	0xdf
 1361 078e 54       		.byte	0x54
 1362 078f 01       		.uleb128 0x1
 1363 0790 CB050000 		.4byte	.LASF116
 1364 0794 0D       		.byte	0xd
 1365 0795 7404     		.2byte	0x474
 1366 0797 12       		.byte	0x12
 1367 0798 DF000000 		.4byte	0xdf
 1368 079c 58       		.byte	0x58
ARM GAS  C:\Users\DEVELO~1\AppData\Local\Temp\ccyi4yqg.s 			page 25


 1369 079d 01       		.uleb128 0x1
 1370 079e 1C060000 		.4byte	.LASF117
 1371 07a2 0D       		.byte	0xd
 1372 07a3 7504     		.2byte	0x475
 1373 07a5 12       		.byte	0x12
 1374 07a6 C6070000 		.4byte	0x7c6
 1375 07aa 5C       		.byte	0x5c
 1376 07ab 19       		.uleb128 0x19
 1377 07ac 4C415200 		.ascii	"LAR\000"
 1378 07b0 7604     		.2byte	0x476
 1379 07b2 DF000000 		.4byte	0xdf
 1380 07b6 B00F     		.2byte	0xfb0
 1381 07b8 19       		.uleb128 0x19
 1382 07b9 4C535200 		.ascii	"LSR\000"
 1383 07bd 7704     		.2byte	0x477
 1384 07bf E4000000 		.4byte	0xe4
 1385 07c3 B40F     		.2byte	0xfb4
 1386 07c5 00       		.byte	0
 1387 07c6 0E       		.uleb128 0xe
 1388 07c7 D3000000 		.4byte	0xd3
 1389 07cb D7070000 		.4byte	0x7d7
 1390 07cf 22       		.uleb128 0x22
 1391 07d0 2D000000 		.4byte	0x2d
 1392 07d4 D403     		.2byte	0x3d4
 1393 07d6 00       		.byte	0
 1394 07d7 0F       		.uleb128 0xf
 1395 07d8 14070000 		.4byte	.LASF118
 1396 07dc 0D       		.byte	0xd
 1397 07dd 7804     		.2byte	0x478
 1398 07df 50060000 		.4byte	0x650
 1399 07e3 0C       		.uleb128 0xc
 1400 07e4 46000000 		.4byte	.LASF119
 1401 07e8 24       		.byte	0x24
 1402 07e9 02       		.byte	0x2
 1403 07ea E001     		.2byte	0x1e0
 1404 07ec 08       		.byte	0x8
 1405 07ed 69080000 		.4byte	0x869
 1406 07f1 05       		.uleb128 0x5
 1407 07f2 723400   		.ascii	"r4\000"
 1408 07f5 02       		.byte	0x2
 1409 07f6 F901     		.2byte	0x1f9
 1410 07f8 11       		.byte	0x11
 1411 07f9 D3000000 		.4byte	0xd3
 1412 07fd 00       		.byte	0
 1413 07fe 05       		.uleb128 0x5
 1414 07ff 723500   		.ascii	"r5\000"
 1415 0802 02       		.byte	0x2
 1416 0803 FA01     		.2byte	0x1fa
 1417 0805 11       		.byte	0x11
 1418 0806 D3000000 		.4byte	0xd3
 1419 080a 04       		.byte	0x4
 1420 080b 05       		.uleb128 0x5
 1421 080c 723600   		.ascii	"r6\000"
 1422 080f 02       		.byte	0x2
 1423 0810 FB01     		.2byte	0x1fb
 1424 0812 11       		.byte	0x11
 1425 0813 D3000000 		.4byte	0xd3
ARM GAS  C:\Users\DEVELO~1\AppData\Local\Temp\ccyi4yqg.s 			page 26


 1426 0817 08       		.byte	0x8
 1427 0818 05       		.uleb128 0x5
 1428 0819 723700   		.ascii	"r7\000"
 1429 081c 02       		.byte	0x2
 1430 081d FC01     		.2byte	0x1fc
 1431 081f 11       		.byte	0x11
 1432 0820 D3000000 		.4byte	0xd3
 1433 0824 0C       		.byte	0xc
 1434 0825 05       		.uleb128 0x5
 1435 0826 723800   		.ascii	"r8\000"
 1436 0829 02       		.byte	0x2
 1437 082a FD01     		.2byte	0x1fd
 1438 082c 11       		.byte	0x11
 1439 082d D3000000 		.4byte	0xd3
 1440 0831 10       		.byte	0x10
 1441 0832 05       		.uleb128 0x5
 1442 0833 723900   		.ascii	"r9\000"
 1443 0836 02       		.byte	0x2
 1444 0837 FE01     		.2byte	0x1fe
 1445 0839 11       		.byte	0x11
 1446 083a D3000000 		.4byte	0xd3
 1447 083e 14       		.byte	0x14
 1448 083f 05       		.uleb128 0x5
 1449 0840 72313000 		.ascii	"r10\000"
 1450 0844 02       		.byte	0x2
 1451 0845 FF01     		.2byte	0x1ff
 1452 0847 11       		.byte	0x11
 1453 0848 D3000000 		.4byte	0xd3
 1454 084c 18       		.byte	0x18
 1455 084d 05       		.uleb128 0x5
 1456 084e 72313100 		.ascii	"r11\000"
 1457 0852 02       		.byte	0x2
 1458 0853 0002     		.2byte	0x200
 1459 0855 11       		.byte	0x11
 1460 0856 D3000000 		.4byte	0xd3
 1461 085a 1C       		.byte	0x1c
 1462 085b 05       		.uleb128 0x5
 1463 085c 6C7200   		.ascii	"lr\000"
 1464 085f 02       		.byte	0x2
 1465 0860 0102     		.2byte	0x201
 1466 0862 11       		.byte	0x11
 1467 0863 D3000000 		.4byte	0xd3
 1468 0867 20       		.byte	0x20
 1469 0868 00       		.byte	0
 1470 0869 0C       		.uleb128 0xc
 1471 086a 02050000 		.4byte	.LASF120
 1472 086e 04       		.byte	0x4
 1473 086f 02       		.byte	0x2
 1474 0870 0A02     		.2byte	0x20a
 1475 0872 08       		.byte	0x8
 1476 0873 85080000 		.4byte	0x885
 1477 0877 05       		.uleb128 0x5
 1478 0878 737000   		.ascii	"sp\000"
 1479 087b 02       		.byte	0x2
 1480 087c 0B02     		.2byte	0x20b
 1481 087e 1A       		.byte	0x1a
 1482 087f 85080000 		.4byte	0x885
ARM GAS  C:\Users\DEVELO~1\AppData\Local\Temp\ccyi4yqg.s 			page 27


 1483 0883 00       		.byte	0
 1484 0884 00       		.byte	0
 1485 0885 04       		.uleb128 0x4
 1486 0886 E3070000 		.4byte	0x7e3
 1487 088a 09       		.uleb128 0x9
 1488 088b 04       		.byte	0x4
 1489 088c 0E       		.byte	0xe
 1490 088d 3F       		.byte	0x3f
 1491 088e 09       		.byte	0x9
 1492 088f A1080000 		.4byte	0x8a1
 1493 0893 03       		.uleb128 0x3
 1494 0894 F7060000 		.4byte	.LASF121
 1495 0898 0E       		.byte	0xe
 1496 0899 43       		.byte	0x43
 1497 089a 19       		.byte	0x19
 1498 089b 1E010000 		.4byte	0x11e
 1499 089f 00       		.byte	0
 1500 08a0 00       		.byte	0
 1501 08a1 02       		.uleb128 0x2
 1502 08a2 B8040000 		.4byte	.LASF122
 1503 08a6 0E       		.byte	0xe
 1504 08a7 44       		.byte	0x44
 1505 08a8 03       		.byte	0x3
 1506 08a9 8A080000 		.4byte	0x88a
 1507 08ad 09       		.uleb128 0x9
 1508 08ae 18       		.byte	0x18
 1509 08af 0E       		.byte	0xe
 1510 08b0 4F       		.byte	0x4f
 1511 08b1 09       		.byte	0x9
 1512 08b2 F6080000 		.4byte	0x8f6
 1513 08b6 03       		.uleb128 0x3
 1514 08b7 A7060000 		.4byte	.LASF123
 1515 08bb 0E       		.byte	0xe
 1516 08bc 50       		.byte	0x50
 1517 08bd 19       		.byte	0x19
 1518 08be 1E010000 		.4byte	0x11e
 1519 08c2 00       		.byte	0
 1520 08c3 03       		.uleb128 0x3
 1521 08c4 81000000 		.4byte	.LASF124
 1522 08c8 0E       		.byte	0xe
 1523 08c9 51       		.byte	0x51
 1524 08ca 19       		.byte	0x19
 1525 08cb 1E010000 		.4byte	0x11e
 1526 08cf 04       		.byte	0x4
 1527 08d0 03       		.uleb128 0x3
 1528 08d1 AF030000 		.4byte	.LASF125
 1529 08d5 0E       		.byte	0xe
 1530 08d6 52       		.byte	0x52
 1531 08d7 19       		.byte	0x19
 1532 08d8 1E010000 		.4byte	0x11e
 1533 08dc 08       		.byte	0x8
 1534 08dd 08       		.uleb128 0x8
 1535 08de 6E00     		.ascii	"n\000"
 1536 08e0 0E       		.byte	0xe
 1537 08e1 53       		.byte	0x53
 1538 08e2 19       		.byte	0x19
 1539 08e3 96010000 		.4byte	0x196
ARM GAS  C:\Users\DEVELO~1\AppData\Local\Temp\ccyi4yqg.s 			page 28


 1540 08e7 0C       		.byte	0xc
 1541 08e8 03       		.uleb128 0x3
 1542 08e9 3E050000 		.4byte	.LASF126
 1543 08ed 0E       		.byte	0xe
 1544 08ee 54       		.byte	0x54
 1545 08ef 19       		.byte	0x19
 1546 08f0 2A010000 		.4byte	0x12a
 1547 08f4 10       		.byte	0x10
 1548 08f5 00       		.byte	0
 1549 08f6 02       		.uleb128 0x2
 1550 08f7 87000000 		.4byte	.LASF127
 1551 08fb 0E       		.byte	0xe
 1552 08fc 55       		.byte	0x55
 1553 08fd 03       		.byte	0x3
 1554 08fe AD080000 		.4byte	0x8ad
 1555 0902 23       		.uleb128 0x23
 1556 0903 07       		.byte	0x7
 1557 0904 01       		.byte	0x1
 1558 0905 55000000 		.4byte	0x55
 1559 0909 07       		.byte	0x7
 1560 090a 32       		.byte	0x32
 1561 090b 0E       		.byte	0xe
 1562 090c 29090000 		.4byte	0x929
 1563 0910 10       		.uleb128 0x10
 1564 0911 76060000 		.4byte	.LASF128
 1565 0915 00       		.byte	0
 1566 0916 10       		.uleb128 0x10
 1567 0917 5F070000 		.4byte	.LASF129
 1568 091b 01       		.byte	0x1
 1569 091c 10       		.uleb128 0x10
 1570 091d 9F000000 		.4byte	.LASF130
 1571 0921 02       		.byte	0x2
 1572 0922 10       		.uleb128 0x10
 1573 0923 CA070000 		.4byte	.LASF131
 1574 0927 03       		.byte	0x3
 1575 0928 00       		.byte	0
 1576 0929 02       		.uleb128 0x2
 1577 092a DD070000 		.4byte	.LASF132
 1578 092e 07       		.byte	0x7
 1579 092f 37       		.byte	0x37
 1580 0930 03       		.byte	0x3
 1581 0931 02090000 		.4byte	0x902
 1582 0935 07       		.uleb128 0x7
 1583 0936 8D040000 		.4byte	.LASF133
 1584 093a 18       		.byte	0x18
 1585 093b 07       		.byte	0x7
 1586 093c 64       		.byte	0x64
 1587 093d 10       		.byte	0x10
 1588 093e 6A090000 		.4byte	0x96a
 1589 0942 03       		.uleb128 0x3
 1590 0943 AC060000 		.4byte	.LASF134
 1591 0947 07       		.byte	0x7
 1592 0948 68       		.byte	0x68
 1593 0949 21       		.byte	0x21
 1594 094a 6A040000 		.4byte	0x46a
 1595 094e 00       		.byte	0
 1596 094f 03       		.uleb128 0x3
ARM GAS  C:\Users\DEVELO~1\AppData\Local\Temp\ccyi4yqg.s 			page 29


 1597 0950 DF050000 		.4byte	.LASF135
 1598 0954 07       		.byte	0x7
 1599 0955 73       		.byte	0x73
 1600 0956 21       		.byte	0x21
 1601 0957 A7030000 		.4byte	0x3a7
 1602 095b 0C       		.byte	0xc
 1603 095c 03       		.uleb128 0x3
 1604 095d 4C040000 		.4byte	.LASF136
 1605 0961 07       		.byte	0x7
 1606 0962 79       		.byte	0x79
 1607 0963 21       		.byte	0x21
 1608 0964 F5000000 		.4byte	0xf5
 1609 0968 10       		.byte	0x10
 1610 0969 00       		.byte	0
 1611 096a 02       		.uleb128 0x2
 1612 096b 0B040000 		.4byte	.LASF137
 1613 096f 07       		.byte	0x7
 1614 0970 7B       		.byte	0x7b
 1615 0971 03       		.byte	0x3
 1616 0972 35090000 		.4byte	0x935
 1617 0976 07       		.uleb128 0x7
 1618 0977 27020000 		.4byte	.LASF138
 1619 097b 08       		.byte	0x8
 1620 097c 07       		.byte	0x7
 1621 097d 80       		.byte	0x80
 1622 097e 10       		.byte	0x10
 1623 097f 91090000 		.4byte	0x991
 1624 0983 03       		.uleb128 0x3
 1625 0984 7A030000 		.4byte	.LASF139
 1626 0988 07       		.byte	0x7
 1627 0989 84       		.byte	0x84
 1628 098a 21       		.byte	0x21
 1629 098b EB030000 		.4byte	0x3eb
 1630 098f 00       		.byte	0
 1631 0990 00       		.byte	0
 1632 0991 02       		.uleb128 0x2
 1633 0992 26060000 		.4byte	.LASF140
 1634 0996 07       		.byte	0x7
 1635 0997 85       		.byte	0x85
 1636 0998 03       		.byte	0x3
 1637 0999 76090000 		.4byte	0x976
 1638 099d 02       		.uleb128 0x2
 1639 099e 7A040000 		.4byte	.LASF141
 1640 09a2 07       		.byte	0x7
 1641 09a3 8A       		.byte	0x8a
 1642 09a4 14       		.byte	0x14
 1643 09a5 D4040000 		.4byte	0x4d4
 1644 09a9 13       		.uleb128 0x13
 1645 09aa 0C       		.byte	0xc
 1646 09ab 07       		.byte	0x7
 1647 09ac A0       		.byte	0xa0
 1648 09ad D6090000 		.4byte	0x9d6
 1649 09b1 0A       		.uleb128 0xa
 1650 09b2 D8070000 		.4byte	.LASF142
 1651 09b6 07       		.byte	0x7
 1652 09b7 A4       		.byte	0xa4
 1653 09b8 21       		.byte	0x21
ARM GAS  C:\Users\DEVELO~1\AppData\Local\Temp\ccyi4yqg.s 			page 30


 1654 09b9 BF030000 		.4byte	0x3bf
 1655 09bd 0A       		.uleb128 0xa
 1656 09be 7A030000 		.4byte	.LASF139
 1657 09c2 07       		.byte	0x7
 1658 09c3 A8       		.byte	0xa8
 1659 09c4 21       		.byte	0x21
 1660 09c5 EB030000 		.4byte	0x3eb
 1661 09c9 0A       		.uleb128 0xa
 1662 09ca E1060000 		.4byte	.LASF143
 1663 09ce 07       		.byte	0x7
 1664 09cf AC       		.byte	0xac
 1665 09d0 21       		.byte	0x21
 1666 09d1 24040000 		.4byte	0x424
 1667 09d5 00       		.byte	0
 1668 09d6 13       		.uleb128 0x13
 1669 09d7 04       		.byte	0x4
 1670 09d8 07       		.byte	0x7
 1671 09d9 EB       		.byte	0xeb
 1672 09da 3F0A0000 		.4byte	0xa3f
 1673 09de 0A       		.uleb128 0xa
 1674 09df 20000000 		.4byte	.LASF144
 1675 09e3 07       		.byte	0x7
 1676 09e4 F2       		.byte	0xf2
 1677 09e5 21       		.byte	0x21
 1678 09e6 72010000 		.4byte	0x172
 1679 09ea 0A       		.uleb128 0xa
 1680 09eb AE000000 		.4byte	.LASF145
 1681 09ef 07       		.byte	0x7
 1682 09f0 F9       		.byte	0xf9
 1683 09f1 21       		.byte	0x21
 1684 09f2 72010000 		.4byte	0x172
 1685 09f6 0B       		.uleb128 0xb
 1686 09f7 E8050000 		.4byte	.LASF82
 1687 09fb 0001     		.2byte	0x100
 1688 09fd 22       		.byte	0x22
 1689 09fe D9040000 		.4byte	0x4d9
 1690 0a02 0B       		.uleb128 0xb
 1691 0a03 1A000000 		.4byte	.LASF146
 1692 0a07 0701     		.2byte	0x107
 1693 0a09 22       		.byte	0x22
 1694 0a0a 3F0A0000 		.4byte	0xa3f
 1695 0a0e 0B       		.uleb128 0xb
 1696 0a0f C2000000 		.4byte	.LASF147
 1697 0a13 0C01     		.2byte	0x10c
 1698 0a15 21       		.byte	0x21
 1699 0a16 72010000 		.4byte	0x172
 1700 0a1a 0B       		.uleb128 0xb
 1701 0a1b C2020000 		.4byte	.LASF148
 1702 0a1f 1501     		.2byte	0x115
 1703 0a21 22       		.byte	0x22
 1704 0a22 6C0A0000 		.4byte	0xa6c
 1705 0a26 0B       		.uleb128 0xb
 1706 0a27 41060000 		.4byte	.LASF149
 1707 0a2b 1E01     		.2byte	0x11e
 1708 0a2d 22       		.byte	0x22
 1709 0a2e A60A0000 		.4byte	0xaa6
 1710 0a32 0B       		.uleb128 0xb
ARM GAS  C:\Users\DEVELO~1\AppData\Local\Temp\ccyi4yqg.s 			page 31


 1711 0a33 EF050000 		.4byte	.LASF150
 1712 0a37 2601     		.2byte	0x126
 1713 0a39 21       		.byte	0x21
 1714 0a3a 7E010000 		.4byte	0x17e
 1715 0a3e 00       		.byte	0
 1716 0a3f 04       		.uleb128 0x4
 1717 0a40 9D090000 		.4byte	0x99d
 1718 0a44 07       		.uleb128 0x7
 1719 0a45 0F060000 		.4byte	.LASF151
 1720 0a49 0C       		.byte	0xc
 1721 0a4a 0F       		.byte	0xf
 1722 0a4b 34       		.byte	0x34
 1723 0a4c 10       		.byte	0x10
 1724 0a4d 6C0A0000 		.4byte	0xa6c
 1725 0a51 03       		.uleb128 0x3
 1726 0a52 7A030000 		.4byte	.LASF139
 1727 0a56 0F       		.byte	0xf
 1728 0a57 35       		.byte	0x35
 1729 0a58 19       		.byte	0x19
 1730 0a59 EB030000 		.4byte	0x3eb
 1731 0a5d 00       		.byte	0
 1732 0a5e 08       		.uleb128 0x8
 1733 0a5f 636E7400 		.ascii	"cnt\000"
 1734 0a63 0F       		.byte	0xf
 1735 0a64 37       		.byte	0x37
 1736 0a65 19       		.byte	0x19
 1737 0a66 8A010000 		.4byte	0x18a
 1738 0a6a 08       		.byte	0x8
 1739 0a6b 00       		.byte	0
 1740 0a6c 04       		.uleb128 0x4
 1741 0a6d 440A0000 		.4byte	0xa44
 1742 0a71 07       		.uleb128 0x7
 1743 0a72 9A070000 		.4byte	.LASF152
 1744 0a76 10       		.byte	0x10
 1745 0a77 10       		.byte	0x10
 1746 0a78 39       		.byte	0x39
 1747 0a79 08       		.byte	0x8
 1748 0a7a A60A0000 		.4byte	0xaa6
 1749 0a7e 03       		.uleb128 0x3
 1750 0a7f 7A030000 		.4byte	.LASF139
 1751 0a83 10       		.byte	0x10
 1752 0a84 3A       		.byte	0x3a
 1753 0a85 19       		.byte	0x19
 1754 0a86 EB030000 		.4byte	0x3eb
 1755 0a8a 00       		.byte	0
 1756 0a8b 03       		.uleb128 0x3
 1757 0a8c 58060000 		.4byte	.LASF37
 1758 0a90 10       		.byte	0x10
 1759 0a91 3C       		.byte	0x3c
 1760 0a92 1A       		.byte	0x1a
 1761 0a93 D4040000 		.4byte	0x4d4
 1762 0a97 08       		.byte	0x8
 1763 0a98 03       		.uleb128 0x3
 1764 0a99 DF000000 		.4byte	.LASF72
 1765 0a9d 10       		.byte	0x10
 1766 0a9e 3E       		.byte	0x3e
 1767 0a9f 1A       		.byte	0x1a
ARM GAS  C:\Users\DEVELO~1\AppData\Local\Temp\ccyi4yqg.s 			page 32


 1768 0aa0 C50B0000 		.4byte	0xbc5
 1769 0aa4 0C       		.byte	0xc
 1770 0aa5 00       		.byte	0
 1771 0aa6 04       		.uleb128 0x4
 1772 0aa7 710A0000 		.4byte	0xa71
 1773 0aab 04       		.uleb128 0x4
 1774 0aac 9D020000 		.4byte	0x29d
 1775 0ab0 04       		.uleb128 0x4
 1776 0ab1 36010000 		.4byte	0x136
 1777 0ab5 0C       		.uleb128 0xc
 1778 0ab6 E0030000 		.4byte	.LASF153
 1779 0aba 10       		.byte	0x10
 1780 0abb 07       		.byte	0x7
 1781 0abc 5C01     		.2byte	0x15c
 1782 0abe 10       		.byte	0x10
 1783 0abf E00A0000 		.4byte	0xae0
 1784 0ac3 01       		.uleb128 0x1
 1785 0ac4 E1060000 		.4byte	.LASF143
 1786 0ac8 07       		.byte	0x7
 1787 0ac9 6101     		.2byte	0x161
 1788 0acb 21       		.byte	0x21
 1789 0acc 24040000 		.4byte	0x424
 1790 0ad0 00       		.byte	0
 1791 0ad1 01       		.uleb128 0x1
 1792 0ad2 2B050000 		.4byte	.LASF154
 1793 0ad6 07       		.byte	0x7
 1794 0ad7 6501     		.2byte	0x165
 1795 0ad9 22       		.byte	0x22
 1796 0ada D4040000 		.4byte	0x4d4
 1797 0ade 0C       		.byte	0xc
 1798 0adf 00       		.byte	0
 1799 0ae0 0F       		.uleb128 0xf
 1800 0ae1 0D000000 		.4byte	.LASF155
 1801 0ae5 07       		.byte	0x7
 1802 0ae6 6601     		.2byte	0x166
 1803 0ae8 B50A0000 		.4byte	0xab5
 1804 0aec 0C       		.uleb128 0xc
 1805 0aed EC040000 		.4byte	.LASF156
 1806 0af1 14       		.byte	0x14
 1807 0af2 07       		.byte	0x7
 1808 0af3 6B01     		.2byte	0x16b
 1809 0af5 10       		.byte	0x10
 1810 0af6 410B0000 		.4byte	0xb41
 1811 0afa 01       		.uleb128 0x1
 1812 0afb 75030000 		.4byte	.LASF38
 1813 0aff 07       		.byte	0x7
 1814 0b00 6F01     		.2byte	0x16f
 1815 0b02 22       		.byte	0x22
 1816 0b03 85030000 		.4byte	0x385
 1817 0b07 00       		.byte	0
 1818 0b08 01       		.uleb128 0x1
 1819 0b09 5B020000 		.4byte	.LASF157
 1820 0b0d 07       		.byte	0x7
 1821 0b0e 7501     		.2byte	0x175
 1822 0b10 22       		.byte	0x22
 1823 0b11 B00A0000 		.4byte	0xab0
 1824 0b15 04       		.byte	0x4
ARM GAS  C:\Users\DEVELO~1\AppData\Local\Temp\ccyi4yqg.s 			page 33


 1825 0b16 01       		.uleb128 0x1
 1826 0b17 44070000 		.4byte	.LASF158
 1827 0b1b 07       		.byte	0x7
 1828 0b1c 7901     		.2byte	0x179
 1829 0b1e 22       		.byte	0x22
 1830 0b1f B00A0000 		.4byte	0xab0
 1831 0b23 08       		.byte	0x8
 1832 0b24 01       		.uleb128 0x1
 1833 0b25 2C000000 		.4byte	.LASF159
 1834 0b29 07       		.byte	0x7
 1835 0b2a 7F01     		.2byte	0x17f
 1836 0b2c 22       		.byte	0x22
 1837 0b2d B00A0000 		.4byte	0xab0
 1838 0b31 0C       		.byte	0xc
 1839 0b32 01       		.uleb128 0x1
 1840 0b33 EC070000 		.4byte	.LASF160
 1841 0b37 07       		.byte	0x7
 1842 0b38 8301     		.2byte	0x183
 1843 0b3a 22       		.byte	0x22
 1844 0b3b B00A0000 		.4byte	0xab0
 1845 0b3f 10       		.byte	0x10
 1846 0b40 00       		.byte	0
 1847 0b41 0F       		.uleb128 0xf
 1848 0b42 6C000000 		.4byte	.LASF161
 1849 0b46 07       		.byte	0x7
 1850 0b47 8501     		.2byte	0x185
 1851 0b49 EC0A0000 		.4byte	0xaec
 1852 0b4d 12       		.uleb128 0x12
 1853 0b4e 410B0000 		.4byte	0xb41
 1854 0b52 04       		.uleb128 0x4
 1855 0b53 4D0B0000 		.4byte	0xb4d
 1856 0b57 0C       		.uleb128 0xc
 1857 0b58 F6050000 		.4byte	.LASF162
 1858 0b5c 0C       		.byte	0xc
 1859 0b5d 07       		.byte	0x7
 1860 0b5e C901     		.2byte	0x1c9
 1861 0b60 10       		.byte	0x10
 1862 0b61 900B0000 		.4byte	0xb90
 1863 0b65 01       		.uleb128 0x1
 1864 0b66 B1010000 		.4byte	.LASF40
 1865 0b6a 07       		.byte	0x7
 1866 0b6b CD01     		.2byte	0x1cd
 1867 0b6d 21       		.byte	0x21
 1868 0b6e 29090000 		.4byte	0x929
 1869 0b72 00       		.byte	0
 1870 0b73 01       		.uleb128 0x1
 1871 0b74 B2020000 		.4byte	.LASF163
 1872 0b78 07       		.byte	0x7
 1873 0b79 D101     		.2byte	0x1d1
 1874 0b7b 22       		.byte	0x22
 1875 0b7c 900B0000 		.4byte	0xb90
 1876 0b80 04       		.byte	0x4
 1877 0b81 05       		.uleb128 0x5
 1878 0b82 746D6300 		.ascii	"tmc\000"
 1879 0b86 07       		.byte	0x7
 1880 0b87 D601     		.2byte	0x1d6
 1881 0b89 21       		.byte	0x21
ARM GAS  C:\Users\DEVELO~1\AppData\Local\Temp\ccyi4yqg.s 			page 34


 1882 0b8a A1080000 		.4byte	0x8a1
 1883 0b8e 08       		.byte	0x8
 1884 0b8f 00       		.byte	0
 1885 0b90 0E       		.uleb128 0xe
 1886 0b91 AB0A0000 		.4byte	0xaab
 1887 0b95 A00B0000 		.4byte	0xba0
 1888 0b99 16       		.uleb128 0x16
 1889 0b9a 2D000000 		.4byte	0x2d
 1890 0b9e 00       		.byte	0
 1891 0b9f 00       		.byte	0
 1892 0ba0 0F       		.uleb128 0xf
 1893 0ba1 C4030000 		.4byte	.LASF164
 1894 0ba5 07       		.byte	0x7
 1895 0ba6 ED01     		.2byte	0x1ed
 1896 0ba8 570B0000 		.4byte	0xb57
 1897 0bac 24       		.uleb128 0x24
 1898 0bad F6050000 		.4byte	.LASF162
 1899 0bb1 11       		.byte	0x11
 1900 0bb2 3E01     		.2byte	0x13e
 1901 0bb4 14       		.byte	0x14
 1902 0bb5 A00B0000 		.4byte	0xba0
 1903 0bb9 02       		.uleb128 0x2
 1904 0bba 6B020000 		.4byte	.LASF165
 1905 0bbe 10       		.byte	0x10
 1906 0bbf 34       		.byte	0x34
 1907 0bc0 19       		.byte	0x19
 1908 0bc1 710A0000 		.4byte	0xa71
 1909 0bc5 04       		.uleb128 0x4
 1910 0bc6 B90B0000 		.4byte	0xbb9
 1911 0bca 06       		.uleb128 0x6
 1912 0bcb 01       		.byte	0x1
 1913 0bcc 02       		.byte	0x2
 1914 0bcd 91050000 		.4byte	.LASF166
 1915 0bd1 1A       		.uleb128 0x1a
 1916 0bd2 21040000 		.4byte	.LASF169
 1917 0bd6 7E       		.byte	0x7e
 1918 0bd7 00000000 		.4byte	.LFB350
 1919 0bdb 2C000000 		.4byte	.LFE350-.LFB350
 1920 0bdf 01       		.uleb128 0x1
 1921 0be0 9C       		.byte	0x9c
 1922 0be1 110C0000 		.4byte	0xc11
 1923 0be5 17       		.uleb128 0x17
 1924 0be6 ED000000 		.4byte	.LASF167
 1925 0bea 7E       		.byte	0x7e
 1926 0beb 3B       		.byte	0x3b
 1927 0bec 110C0000 		.4byte	0xc11
 1928 0bf0 02       		.uleb128 0x2
 1929 0bf1 91       		.byte	0x91
 1930 0bf2 74       		.sleb128 -12
 1931 0bf3 17       		.uleb128 0x17
 1932 0bf4 F2000000 		.4byte	.LASF168
 1933 0bf8 7F       		.byte	0x7f
 1934 0bf9 3B       		.byte	0x3b
 1935 0bfa 110C0000 		.4byte	0xc11
 1936 0bfe 02       		.uleb128 0x2
 1937 0bff 91       		.byte	0x91
 1938 0c00 70       		.sleb128 -16
ARM GAS  C:\Users\DEVELO~1\AppData\Local\Temp\ccyi4yqg.s 			page 35


 1939 0c01 18       		.uleb128 0x18
 1940 0c02 E00C0000 		.4byte	0xce0
 1941 0c06 0A000000 		.4byte	.LBB12
 1942 0c0a 04000000 		.4byte	.LBE12-.LBB12
 1943 0c0e 82       		.byte	0x82
 1944 0c0f 10       		.byte	0x10
 1945 0c10 00       		.byte	0
 1946 0c11 04       		.uleb128 0x4
 1947 0c12 F6080000 		.4byte	0x8f6
 1948 0c16 1A       		.uleb128 0x1a
 1949 0c17 B7010000 		.4byte	.LASF170
 1950 0c1b 6D       		.byte	0x6d
 1951 0c1c 00000000 		.4byte	.LFB349
 1952 0c20 28000000 		.4byte	.LFE349-.LFB349
 1953 0c24 01       		.uleb128 0x1
 1954 0c25 9C       		.byte	0x9c
 1955 0c26 480C0000 		.4byte	0xc48
 1956 0c2a 0D       		.uleb128 0xd
 1957 0c2b 746D7000 		.ascii	"tmp\000"
 1958 0c2f 6D       		.byte	0x6d
 1959 0c30 38       		.byte	0x38
 1960 0c31 110C0000 		.4byte	0xc11
 1961 0c35 02       		.uleb128 0x2
 1962 0c36 91       		.byte	0x91
 1963 0c37 74       		.sleb128 -12
 1964 0c38 18       		.uleb128 0x18
 1965 0c39 E00C0000 		.4byte	0xce0
 1966 0c3d 08000000 		.4byte	.LBB10
 1967 0c41 04000000 		.4byte	.LBE10-.LBB10
 1968 0c45 6F       		.byte	0x6f
 1969 0c46 10       		.byte	0x10
 1970 0c47 00       		.byte	0
 1971 0c48 1B       		.uleb128 0x1b
 1972 0c49 90020000 		.4byte	.LASF171
 1973 0c4d 60       		.byte	0x60
 1974 0c4e 0F       		.byte	0xf
 1975 0c4f 00000000 		.4byte	.LFB348
 1976 0c53 20000000 		.4byte	.LFE348-.LFB348
 1977 0c57 01       		.uleb128 0x1
 1978 0c58 9C       		.byte	0x9c
 1979 0c59 7B0C0000 		.4byte	0xc7b
 1980 0c5d 0D       		.uleb128 0xd
 1981 0c5e 746D7000 		.ascii	"tmp\000"
 1982 0c62 60       		.byte	0x60
 1983 0c63 39       		.byte	0x39
 1984 0c64 110C0000 		.4byte	0xc11
 1985 0c68 02       		.uleb128 0x2
 1986 0c69 91       		.byte	0x91
 1987 0c6a 74       		.sleb128 -12
 1988 0c6b 18       		.uleb128 0x18
 1989 0c6c E00C0000 		.4byte	0xce0
 1990 0c70 08000000 		.4byte	.LBB8
 1991 0c74 04000000 		.4byte	.LBE8-.LBB8
 1992 0c78 62       		.byte	0x62
 1993 0c79 0F       		.byte	0xf
 1994 0c7a 00       		.byte	0
 1995 0c7b 1B       		.uleb128 0x1b
ARM GAS  C:\Users\DEVELO~1\AppData\Local\Temp\ccyi4yqg.s 			page 36


 1996 0c7c D0000000 		.4byte	.LASF172
 1997 0c80 4F       		.byte	0x4f
 1998 0c81 06       		.byte	0x6
 1999 0c82 00000000 		.4byte	.LFB347
 2000 0c86 3A000000 		.4byte	.LFE347-.LFB347
 2001 0c8a 01       		.uleb128 0x1
 2002 0c8b 9C       		.byte	0x9c
 2003 0c8c 9F0C0000 		.4byte	0xc9f
 2004 0c90 0D       		.uleb128 0xd
 2005 0c91 746D7000 		.ascii	"tmp\000"
 2006 0c95 4F       		.byte	0x4f
 2007 0c96 29       		.byte	0x29
 2008 0c97 110C0000 		.4byte	0xc11
 2009 0c9b 02       		.uleb128 0x2
 2010 0c9c 91       		.byte	0x91
 2011 0c9d 74       		.sleb128 -12
 2012 0c9e 00       		.byte	0
 2013 0c9f 25       		.uleb128 0x25
 2014 0ca0 96060000 		.4byte	.LASF176
 2015 0ca4 01       		.byte	0x1
 2016 0ca5 35       		.byte	0x35
 2017 0ca6 14       		.byte	0x14
 2018 0ca7 00000000 		.4byte	.LFB346
 2019 0cab 7A000000 		.4byte	.LFE346-.LFB346
 2020 0caf 01       		.uleb128 0x1
 2021 0cb0 9C       		.byte	0x9c
 2022 0cb1 E00C0000 		.4byte	0xce0
 2023 0cb5 0D       		.uleb128 0xd
 2024 0cb6 746D7000 		.ascii	"tmp\000"
 2025 0cba 35       		.byte	0x35
 2026 0cbb 30       		.byte	0x30
 2027 0cbc 110C0000 		.4byte	0xc11
 2028 0cc0 02       		.uleb128 0x2
 2029 0cc1 91       		.byte	0x91
 2030 0cc2 64       		.sleb128 -28
 2031 0cc3 0D       		.uleb128 0xd
 2032 0cc4 6E6F7700 		.ascii	"now\000"
 2033 0cc8 36       		.byte	0x36
 2034 0cc9 24       		.byte	0x24
 2035 0cca 1E010000 		.4byte	0x11e
 2036 0cce 02       		.uleb128 0x2
 2037 0ccf 91       		.byte	0x91
 2038 0cd0 60       		.sleb128 -32
 2039 0cd1 17       		.uleb128 0x17
 2040 0cd2 F7060000 		.4byte	.LASF121
 2041 0cd6 37       		.byte	0x37
 2042 0cd7 24       		.byte	0x24
 2043 0cd8 1E010000 		.4byte	0x11e
 2044 0cdc 02       		.uleb128 0x2
 2045 0cdd 91       		.byte	0x91
 2046 0cde 5C       		.sleb128 -36
 2047 0cdf 00       		.byte	0
 2048 0ce0 26       		.uleb128 0x26
 2049 0ce1 A3070000 		.4byte	.LASF177
 2050 0ce5 02       		.byte	0x2
 2051 0ce6 A703     		.2byte	0x3a7
 2052 0ce8 1E       		.byte	0x1e
ARM GAS  C:\Users\DEVELO~1\AppData\Local\Temp\ccyi4yqg.s 			page 37


 2053 0ce9 1E010000 		.4byte	0x11e
 2054 0ced 03       		.byte	0x3
 2055 0cee 00       		.byte	0
 2056              		.section	.debug_abbrev,"",%progbits
 2057              	.Ldebug_abbrev0:
 2058 0000 01       		.uleb128 0x1
 2059 0001 0D       		.uleb128 0xd
 2060 0002 00       		.byte	0
 2061 0003 03       		.uleb128 0x3
 2062 0004 0E       		.uleb128 0xe
 2063 0005 3A       		.uleb128 0x3a
 2064 0006 0B       		.uleb128 0xb
 2065 0007 3B       		.uleb128 0x3b
 2066 0008 05       		.uleb128 0x5
 2067 0009 39       		.uleb128 0x39
 2068 000a 0B       		.uleb128 0xb
 2069 000b 49       		.uleb128 0x49
 2070 000c 13       		.uleb128 0x13
 2071 000d 38       		.uleb128 0x38
 2072 000e 0B       		.uleb128 0xb
 2073 000f 00       		.byte	0
 2074 0010 00       		.byte	0
 2075 0011 02       		.uleb128 0x2
 2076 0012 16       		.uleb128 0x16
 2077 0013 00       		.byte	0
 2078 0014 03       		.uleb128 0x3
 2079 0015 0E       		.uleb128 0xe
 2080 0016 3A       		.uleb128 0x3a
 2081 0017 0B       		.uleb128 0xb
 2082 0018 3B       		.uleb128 0x3b
 2083 0019 0B       		.uleb128 0xb
 2084 001a 39       		.uleb128 0x39
 2085 001b 0B       		.uleb128 0xb
 2086 001c 49       		.uleb128 0x49
 2087 001d 13       		.uleb128 0x13
 2088 001e 00       		.byte	0
 2089 001f 00       		.byte	0
 2090 0020 03       		.uleb128 0x3
 2091 0021 0D       		.uleb128 0xd
 2092 0022 00       		.byte	0
 2093 0023 03       		.uleb128 0x3
 2094 0024 0E       		.uleb128 0xe
 2095 0025 3A       		.uleb128 0x3a
 2096 0026 0B       		.uleb128 0xb
 2097 0027 3B       		.uleb128 0x3b
 2098 0028 0B       		.uleb128 0xb
 2099 0029 39       		.uleb128 0x39
 2100 002a 0B       		.uleb128 0xb
 2101 002b 49       		.uleb128 0x49
 2102 002c 13       		.uleb128 0x13
 2103 002d 38       		.uleb128 0x38
 2104 002e 0B       		.uleb128 0xb
 2105 002f 00       		.byte	0
 2106 0030 00       		.byte	0
 2107 0031 04       		.uleb128 0x4
 2108 0032 0F       		.uleb128 0xf
 2109 0033 00       		.byte	0
ARM GAS  C:\Users\DEVELO~1\AppData\Local\Temp\ccyi4yqg.s 			page 38


 2110 0034 0B       		.uleb128 0xb
 2111 0035 21       		.uleb128 0x21
 2112 0036 04       		.sleb128 4
 2113 0037 49       		.uleb128 0x49
 2114 0038 13       		.uleb128 0x13
 2115 0039 00       		.byte	0
 2116 003a 00       		.byte	0
 2117 003b 05       		.uleb128 0x5
 2118 003c 0D       		.uleb128 0xd
 2119 003d 00       		.byte	0
 2120 003e 03       		.uleb128 0x3
 2121 003f 08       		.uleb128 0x8
 2122 0040 3A       		.uleb128 0x3a
 2123 0041 0B       		.uleb128 0xb
 2124 0042 3B       		.uleb128 0x3b
 2125 0043 05       		.uleb128 0x5
 2126 0044 39       		.uleb128 0x39
 2127 0045 0B       		.uleb128 0xb
 2128 0046 49       		.uleb128 0x49
 2129 0047 13       		.uleb128 0x13
 2130 0048 38       		.uleb128 0x38
 2131 0049 0B       		.uleb128 0xb
 2132 004a 00       		.byte	0
 2133 004b 00       		.byte	0
 2134 004c 06       		.uleb128 0x6
 2135 004d 24       		.uleb128 0x24
 2136 004e 00       		.byte	0
 2137 004f 0B       		.uleb128 0xb
 2138 0050 0B       		.uleb128 0xb
 2139 0051 3E       		.uleb128 0x3e
 2140 0052 0B       		.uleb128 0xb
 2141 0053 03       		.uleb128 0x3
 2142 0054 0E       		.uleb128 0xe
 2143 0055 00       		.byte	0
 2144 0056 00       		.byte	0
 2145 0057 07       		.uleb128 0x7
 2146 0058 13       		.uleb128 0x13
 2147 0059 01       		.byte	0x1
 2148 005a 03       		.uleb128 0x3
 2149 005b 0E       		.uleb128 0xe
 2150 005c 0B       		.uleb128 0xb
 2151 005d 0B       		.uleb128 0xb
 2152 005e 3A       		.uleb128 0x3a
 2153 005f 0B       		.uleb128 0xb
 2154 0060 3B       		.uleb128 0x3b
 2155 0061 0B       		.uleb128 0xb
 2156 0062 39       		.uleb128 0x39
 2157 0063 0B       		.uleb128 0xb
 2158 0064 01       		.uleb128 0x1
 2159 0065 13       		.uleb128 0x13
 2160 0066 00       		.byte	0
 2161 0067 00       		.byte	0
 2162 0068 08       		.uleb128 0x8
 2163 0069 0D       		.uleb128 0xd
 2164 006a 00       		.byte	0
 2165 006b 03       		.uleb128 0x3
 2166 006c 08       		.uleb128 0x8
ARM GAS  C:\Users\DEVELO~1\AppData\Local\Temp\ccyi4yqg.s 			page 39


 2167 006d 3A       		.uleb128 0x3a
 2168 006e 0B       		.uleb128 0xb
 2169 006f 3B       		.uleb128 0x3b
 2170 0070 0B       		.uleb128 0xb
 2171 0071 39       		.uleb128 0x39
 2172 0072 0B       		.uleb128 0xb
 2173 0073 49       		.uleb128 0x49
 2174 0074 13       		.uleb128 0x13
 2175 0075 38       		.uleb128 0x38
 2176 0076 0B       		.uleb128 0xb
 2177 0077 00       		.byte	0
 2178 0078 00       		.byte	0
 2179 0079 09       		.uleb128 0x9
 2180 007a 13       		.uleb128 0x13
 2181 007b 01       		.byte	0x1
 2182 007c 0B       		.uleb128 0xb
 2183 007d 0B       		.uleb128 0xb
 2184 007e 3A       		.uleb128 0x3a
 2185 007f 0B       		.uleb128 0xb
 2186 0080 3B       		.uleb128 0x3b
 2187 0081 0B       		.uleb128 0xb
 2188 0082 39       		.uleb128 0x39
 2189 0083 0B       		.uleb128 0xb
 2190 0084 01       		.uleb128 0x1
 2191 0085 13       		.uleb128 0x13
 2192 0086 00       		.byte	0
 2193 0087 00       		.byte	0
 2194 0088 0A       		.uleb128 0xa
 2195 0089 0D       		.uleb128 0xd
 2196 008a 00       		.byte	0
 2197 008b 03       		.uleb128 0x3
 2198 008c 0E       		.uleb128 0xe
 2199 008d 3A       		.uleb128 0x3a
 2200 008e 0B       		.uleb128 0xb
 2201 008f 3B       		.uleb128 0x3b
 2202 0090 0B       		.uleb128 0xb
 2203 0091 39       		.uleb128 0x39
 2204 0092 0B       		.uleb128 0xb
 2205 0093 49       		.uleb128 0x49
 2206 0094 13       		.uleb128 0x13
 2207 0095 00       		.byte	0
 2208 0096 00       		.byte	0
 2209 0097 0B       		.uleb128 0xb
 2210 0098 0D       		.uleb128 0xd
 2211 0099 00       		.byte	0
 2212 009a 03       		.uleb128 0x3
 2213 009b 0E       		.uleb128 0xe
 2214 009c 3A       		.uleb128 0x3a
 2215 009d 21       		.uleb128 0x21
 2216 009e 07       		.sleb128 7
 2217 009f 3B       		.uleb128 0x3b
 2218 00a0 05       		.uleb128 0x5
 2219 00a1 39       		.uleb128 0x39
 2220 00a2 0B       		.uleb128 0xb
 2221 00a3 49       		.uleb128 0x49
 2222 00a4 13       		.uleb128 0x13
 2223 00a5 00       		.byte	0
ARM GAS  C:\Users\DEVELO~1\AppData\Local\Temp\ccyi4yqg.s 			page 40


 2224 00a6 00       		.byte	0
 2225 00a7 0C       		.uleb128 0xc
 2226 00a8 13       		.uleb128 0x13
 2227 00a9 01       		.byte	0x1
 2228 00aa 03       		.uleb128 0x3
 2229 00ab 0E       		.uleb128 0xe
 2230 00ac 0B       		.uleb128 0xb
 2231 00ad 0B       		.uleb128 0xb
 2232 00ae 3A       		.uleb128 0x3a
 2233 00af 0B       		.uleb128 0xb
 2234 00b0 3B       		.uleb128 0x3b
 2235 00b1 05       		.uleb128 0x5
 2236 00b2 39       		.uleb128 0x39
 2237 00b3 0B       		.uleb128 0xb
 2238 00b4 01       		.uleb128 0x1
 2239 00b5 13       		.uleb128 0x13
 2240 00b6 00       		.byte	0
 2241 00b7 00       		.byte	0
 2242 00b8 0D       		.uleb128 0xd
 2243 00b9 05       		.uleb128 0x5
 2244 00ba 00       		.byte	0
 2245 00bb 03       		.uleb128 0x3
 2246 00bc 08       		.uleb128 0x8
 2247 00bd 3A       		.uleb128 0x3a
 2248 00be 21       		.uleb128 0x21
 2249 00bf 01       		.sleb128 1
 2250 00c0 3B       		.uleb128 0x3b
 2251 00c1 0B       		.uleb128 0xb
 2252 00c2 39       		.uleb128 0x39
 2253 00c3 0B       		.uleb128 0xb
 2254 00c4 49       		.uleb128 0x49
 2255 00c5 13       		.uleb128 0x13
 2256 00c6 02       		.uleb128 0x2
 2257 00c7 18       		.uleb128 0x18
 2258 00c8 00       		.byte	0
 2259 00c9 00       		.byte	0
 2260 00ca 0E       		.uleb128 0xe
 2261 00cb 01       		.uleb128 0x1
 2262 00cc 01       		.byte	0x1
 2263 00cd 49       		.uleb128 0x49
 2264 00ce 13       		.uleb128 0x13
 2265 00cf 01       		.uleb128 0x1
 2266 00d0 13       		.uleb128 0x13
 2267 00d1 00       		.byte	0
 2268 00d2 00       		.byte	0
 2269 00d3 0F       		.uleb128 0xf
 2270 00d4 16       		.uleb128 0x16
 2271 00d5 00       		.byte	0
 2272 00d6 03       		.uleb128 0x3
 2273 00d7 0E       		.uleb128 0xe
 2274 00d8 3A       		.uleb128 0x3a
 2275 00d9 0B       		.uleb128 0xb
 2276 00da 3B       		.uleb128 0x3b
 2277 00db 05       		.uleb128 0x5
 2278 00dc 39       		.uleb128 0x39
 2279 00dd 21       		.uleb128 0x21
 2280 00de 03       		.sleb128 3
ARM GAS  C:\Users\DEVELO~1\AppData\Local\Temp\ccyi4yqg.s 			page 41


 2281 00df 49       		.uleb128 0x49
 2282 00e0 13       		.uleb128 0x13
 2283 00e1 00       		.byte	0
 2284 00e2 00       		.byte	0
 2285 00e3 10       		.uleb128 0x10
 2286 00e4 28       		.uleb128 0x28
 2287 00e5 00       		.byte	0
 2288 00e6 03       		.uleb128 0x3
 2289 00e7 0E       		.uleb128 0xe
 2290 00e8 1C       		.uleb128 0x1c
 2291 00e9 0B       		.uleb128 0xb
 2292 00ea 00       		.byte	0
 2293 00eb 00       		.byte	0
 2294 00ec 11       		.uleb128 0x11
 2295 00ed 35       		.uleb128 0x35
 2296 00ee 00       		.byte	0
 2297 00ef 49       		.uleb128 0x49
 2298 00f0 13       		.uleb128 0x13
 2299 00f1 00       		.byte	0
 2300 00f2 00       		.byte	0
 2301 00f3 12       		.uleb128 0x12
 2302 00f4 26       		.uleb128 0x26
 2303 00f5 00       		.byte	0
 2304 00f6 49       		.uleb128 0x49
 2305 00f7 13       		.uleb128 0x13
 2306 00f8 00       		.byte	0
 2307 00f9 00       		.byte	0
 2308 00fa 13       		.uleb128 0x13
 2309 00fb 17       		.uleb128 0x17
 2310 00fc 01       		.byte	0x1
 2311 00fd 0B       		.uleb128 0xb
 2312 00fe 0B       		.uleb128 0xb
 2313 00ff 3A       		.uleb128 0x3a
 2314 0100 0B       		.uleb128 0xb
 2315 0101 3B       		.uleb128 0x3b
 2316 0102 0B       		.uleb128 0xb
 2317 0103 39       		.uleb128 0x39
 2318 0104 21       		.uleb128 0x21
 2319 0105 03       		.sleb128 3
 2320 0106 01       		.uleb128 0x1
 2321 0107 13       		.uleb128 0x13
 2322 0108 00       		.byte	0
 2323 0109 00       		.byte	0
 2324 010a 14       		.uleb128 0x14
 2325 010b 0D       		.uleb128 0xd
 2326 010c 00       		.byte	0
 2327 010d 03       		.uleb128 0x3
 2328 010e 08       		.uleb128 0x8
 2329 010f 3A       		.uleb128 0x3a
 2330 0110 21       		.uleb128 0x21
 2331 0111 0C       		.sleb128 12
 2332 0112 3B       		.uleb128 0x3b
 2333 0113 0B       		.uleb128 0xb
 2334 0114 39       		.uleb128 0x39
 2335 0115 21       		.uleb128 0x21
 2336 0116 07       		.sleb128 7
 2337 0117 49       		.uleb128 0x49
ARM GAS  C:\Users\DEVELO~1\AppData\Local\Temp\ccyi4yqg.s 			page 42


 2338 0118 13       		.uleb128 0x13
 2339 0119 00       		.byte	0
 2340 011a 00       		.byte	0
 2341 011b 15       		.uleb128 0x15
 2342 011c 0D       		.uleb128 0xd
 2343 011d 00       		.byte	0
 2344 011e 03       		.uleb128 0x3
 2345 011f 0E       		.uleb128 0xe
 2346 0120 3A       		.uleb128 0x3a
 2347 0121 21       		.uleb128 0x21
 2348 0122 0C       		.sleb128 12
 2349 0123 3B       		.uleb128 0x3b
 2350 0124 0B       		.uleb128 0xb
 2351 0125 39       		.uleb128 0x39
 2352 0126 21       		.uleb128 0x21
 2353 0127 19       		.sleb128 25
 2354 0128 49       		.uleb128 0x49
 2355 0129 13       		.uleb128 0x13
 2356 012a 0D       		.uleb128 0xd
 2357 012b 0B       		.uleb128 0xb
 2358 012c 6B       		.uleb128 0x6b
 2359 012d 0B       		.uleb128 0xb
 2360 012e 00       		.byte	0
 2361 012f 00       		.byte	0
 2362 0130 16       		.uleb128 0x16
 2363 0131 21       		.uleb128 0x21
 2364 0132 00       		.byte	0
 2365 0133 49       		.uleb128 0x49
 2366 0134 13       		.uleb128 0x13
 2367 0135 2F       		.uleb128 0x2f
 2368 0136 0B       		.uleb128 0xb
 2369 0137 00       		.byte	0
 2370 0138 00       		.byte	0
 2371 0139 17       		.uleb128 0x17
 2372 013a 05       		.uleb128 0x5
 2373 013b 00       		.byte	0
 2374 013c 03       		.uleb128 0x3
 2375 013d 0E       		.uleb128 0xe
 2376 013e 3A       		.uleb128 0x3a
 2377 013f 21       		.uleb128 0x21
 2378 0140 01       		.sleb128 1
 2379 0141 3B       		.uleb128 0x3b
 2380 0142 0B       		.uleb128 0xb
 2381 0143 39       		.uleb128 0x39
 2382 0144 0B       		.uleb128 0xb
 2383 0145 49       		.uleb128 0x49
 2384 0146 13       		.uleb128 0x13
 2385 0147 02       		.uleb128 0x2
 2386 0148 18       		.uleb128 0x18
 2387 0149 00       		.byte	0
 2388 014a 00       		.byte	0
 2389 014b 18       		.uleb128 0x18
 2390 014c 1D       		.uleb128 0x1d
 2391 014d 00       		.byte	0
 2392 014e 31       		.uleb128 0x31
 2393 014f 13       		.uleb128 0x13
 2394 0150 11       		.uleb128 0x11
ARM GAS  C:\Users\DEVELO~1\AppData\Local\Temp\ccyi4yqg.s 			page 43


 2395 0151 01       		.uleb128 0x1
 2396 0152 12       		.uleb128 0x12
 2397 0153 06       		.uleb128 0x6
 2398 0154 58       		.uleb128 0x58
 2399 0155 21       		.uleb128 0x21
 2400 0156 01       		.sleb128 1
 2401 0157 59       		.uleb128 0x59
 2402 0158 0B       		.uleb128 0xb
 2403 0159 57       		.uleb128 0x57
 2404 015a 0B       		.uleb128 0xb
 2405 015b 00       		.byte	0
 2406 015c 00       		.byte	0
 2407 015d 19       		.uleb128 0x19
 2408 015e 0D       		.uleb128 0xd
 2409 015f 00       		.byte	0
 2410 0160 03       		.uleb128 0x3
 2411 0161 08       		.uleb128 0x8
 2412 0162 3A       		.uleb128 0x3a
 2413 0163 21       		.uleb128 0x21
 2414 0164 0D       		.sleb128 13
 2415 0165 3B       		.uleb128 0x3b
 2416 0166 05       		.uleb128 0x5
 2417 0167 39       		.uleb128 0x39
 2418 0168 21       		.uleb128 0x21
 2419 0169 12       		.sleb128 18
 2420 016a 49       		.uleb128 0x49
 2421 016b 13       		.uleb128 0x13
 2422 016c 38       		.uleb128 0x38
 2423 016d 05       		.uleb128 0x5
 2424 016e 00       		.byte	0
 2425 016f 00       		.byte	0
 2426 0170 1A       		.uleb128 0x1a
 2427 0171 2E       		.uleb128 0x2e
 2428 0172 01       		.byte	0x1
 2429 0173 3F       		.uleb128 0x3f
 2430 0174 19       		.uleb128 0x19
 2431 0175 03       		.uleb128 0x3
 2432 0176 0E       		.uleb128 0xe
 2433 0177 3A       		.uleb128 0x3a
 2434 0178 21       		.uleb128 0x21
 2435 0179 01       		.sleb128 1
 2436 017a 3B       		.uleb128 0x3b
 2437 017b 0B       		.uleb128 0xb
 2438 017c 39       		.uleb128 0x39
 2439 017d 21       		.uleb128 0x21
 2440 017e 0F       		.sleb128 15
 2441 017f 27       		.uleb128 0x27
 2442 0180 19       		.uleb128 0x19
 2443 0181 11       		.uleb128 0x11
 2444 0182 01       		.uleb128 0x1
 2445 0183 12       		.uleb128 0x12
 2446 0184 06       		.uleb128 0x6
 2447 0185 40       		.uleb128 0x40
 2448 0186 18       		.uleb128 0x18
 2449 0187 7C       		.uleb128 0x7c
 2450 0188 19       		.uleb128 0x19
 2451 0189 01       		.uleb128 0x1
ARM GAS  C:\Users\DEVELO~1\AppData\Local\Temp\ccyi4yqg.s 			page 44


 2452 018a 13       		.uleb128 0x13
 2453 018b 00       		.byte	0
 2454 018c 00       		.byte	0
 2455 018d 1B       		.uleb128 0x1b
 2456 018e 2E       		.uleb128 0x2e
 2457 018f 01       		.byte	0x1
 2458 0190 3F       		.uleb128 0x3f
 2459 0191 19       		.uleb128 0x19
 2460 0192 03       		.uleb128 0x3
 2461 0193 0E       		.uleb128 0xe
 2462 0194 3A       		.uleb128 0x3a
 2463 0195 21       		.uleb128 0x21
 2464 0196 01       		.sleb128 1
 2465 0197 3B       		.uleb128 0x3b
 2466 0198 0B       		.uleb128 0xb
 2467 0199 39       		.uleb128 0x39
 2468 019a 0B       		.uleb128 0xb
 2469 019b 27       		.uleb128 0x27
 2470 019c 19       		.uleb128 0x19
 2471 019d 11       		.uleb128 0x11
 2472 019e 01       		.uleb128 0x1
 2473 019f 12       		.uleb128 0x12
 2474 01a0 06       		.uleb128 0x6
 2475 01a1 40       		.uleb128 0x40
 2476 01a2 18       		.uleb128 0x18
 2477 01a3 7A       		.uleb128 0x7a
 2478 01a4 19       		.uleb128 0x19
 2479 01a5 01       		.uleb128 0x1
 2480 01a6 13       		.uleb128 0x13
 2481 01a7 00       		.byte	0
 2482 01a8 00       		.byte	0
 2483 01a9 1C       		.uleb128 0x1c
 2484 01aa 11       		.uleb128 0x11
 2485 01ab 01       		.byte	0x1
 2486 01ac 25       		.uleb128 0x25
 2487 01ad 0E       		.uleb128 0xe
 2488 01ae 13       		.uleb128 0x13
 2489 01af 0B       		.uleb128 0xb
 2490 01b0 03       		.uleb128 0x3
 2491 01b1 0E       		.uleb128 0xe
 2492 01b2 1B       		.uleb128 0x1b
 2493 01b3 0E       		.uleb128 0xe
 2494 01b4 55       		.uleb128 0x55
 2495 01b5 17       		.uleb128 0x17
 2496 01b6 11       		.uleb128 0x11
 2497 01b7 01       		.uleb128 0x1
 2498 01b8 10       		.uleb128 0x10
 2499 01b9 17       		.uleb128 0x17
 2500 01ba 00       		.byte	0
 2501 01bb 00       		.byte	0
 2502 01bc 1D       		.uleb128 0x1d
 2503 01bd 24       		.uleb128 0x24
 2504 01be 00       		.byte	0
 2505 01bf 0B       		.uleb128 0xb
 2506 01c0 0B       		.uleb128 0xb
 2507 01c1 3E       		.uleb128 0x3e
 2508 01c2 0B       		.uleb128 0xb
ARM GAS  C:\Users\DEVELO~1\AppData\Local\Temp\ccyi4yqg.s 			page 45


 2509 01c3 03       		.uleb128 0x3
 2510 01c4 08       		.uleb128 0x8
 2511 01c5 00       		.byte	0
 2512 01c6 00       		.byte	0
 2513 01c7 1E       		.uleb128 0x1e
 2514 01c8 13       		.uleb128 0x13
 2515 01c9 01       		.byte	0x1
 2516 01ca 03       		.uleb128 0x3
 2517 01cb 0E       		.uleb128 0xe
 2518 01cc 0B       		.uleb128 0xb
 2519 01cd 05       		.uleb128 0x5
 2520 01ce 3A       		.uleb128 0x3a
 2521 01cf 0B       		.uleb128 0xb
 2522 01d0 3B       		.uleb128 0x3b
 2523 01d1 05       		.uleb128 0x5
 2524 01d2 39       		.uleb128 0x39
 2525 01d3 0B       		.uleb128 0xb
 2526 01d4 01       		.uleb128 0x1
 2527 01d5 13       		.uleb128 0x13
 2528 01d6 00       		.byte	0
 2529 01d7 00       		.byte	0
 2530 01d8 1F       		.uleb128 0x1f
 2531 01d9 0F       		.uleb128 0xf
 2532 01da 00       		.byte	0
 2533 01db 0B       		.uleb128 0xb
 2534 01dc 0B       		.uleb128 0xb
 2535 01dd 00       		.byte	0
 2536 01de 00       		.byte	0
 2537 01df 20       		.uleb128 0x20
 2538 01e0 13       		.uleb128 0x13
 2539 01e1 01       		.byte	0x1
 2540 01e2 0B       		.uleb128 0xb
 2541 01e3 05       		.uleb128 0x5
 2542 01e4 3A       		.uleb128 0x3a
 2543 01e5 0B       		.uleb128 0xb
 2544 01e6 3B       		.uleb128 0x3b
 2545 01e7 0B       		.uleb128 0xb
 2546 01e8 39       		.uleb128 0x39
 2547 01e9 0B       		.uleb128 0xb
 2548 01ea 01       		.uleb128 0x1
 2549 01eb 13       		.uleb128 0x13
 2550 01ec 00       		.byte	0
 2551 01ed 00       		.byte	0
 2552 01ee 21       		.uleb128 0x21
 2553 01ef 13       		.uleb128 0x13
 2554 01f0 01       		.byte	0x1
 2555 01f1 0B       		.uleb128 0xb
 2556 01f2 05       		.uleb128 0x5
 2557 01f3 3A       		.uleb128 0x3a
 2558 01f4 0B       		.uleb128 0xb
 2559 01f5 3B       		.uleb128 0x3b
 2560 01f6 05       		.uleb128 0x5
 2561 01f7 39       		.uleb128 0x39
 2562 01f8 0B       		.uleb128 0xb
 2563 01f9 01       		.uleb128 0x1
 2564 01fa 13       		.uleb128 0x13
 2565 01fb 00       		.byte	0
ARM GAS  C:\Users\DEVELO~1\AppData\Local\Temp\ccyi4yqg.s 			page 46


 2566 01fc 00       		.byte	0
 2567 01fd 22       		.uleb128 0x22
 2568 01fe 21       		.uleb128 0x21
 2569 01ff 00       		.byte	0
 2570 0200 49       		.uleb128 0x49
 2571 0201 13       		.uleb128 0x13
 2572 0202 2F       		.uleb128 0x2f
 2573 0203 05       		.uleb128 0x5
 2574 0204 00       		.byte	0
 2575 0205 00       		.byte	0
 2576 0206 23       		.uleb128 0x23
 2577 0207 04       		.uleb128 0x4
 2578 0208 01       		.byte	0x1
 2579 0209 3E       		.uleb128 0x3e
 2580 020a 0B       		.uleb128 0xb
 2581 020b 0B       		.uleb128 0xb
 2582 020c 0B       		.uleb128 0xb
 2583 020d 49       		.uleb128 0x49
 2584 020e 13       		.uleb128 0x13
 2585 020f 3A       		.uleb128 0x3a
 2586 0210 0B       		.uleb128 0xb
 2587 0211 3B       		.uleb128 0x3b
 2588 0212 0B       		.uleb128 0xb
 2589 0213 39       		.uleb128 0x39
 2590 0214 0B       		.uleb128 0xb
 2591 0215 01       		.uleb128 0x1
 2592 0216 13       		.uleb128 0x13
 2593 0217 00       		.byte	0
 2594 0218 00       		.byte	0
 2595 0219 24       		.uleb128 0x24
 2596 021a 34       		.uleb128 0x34
 2597 021b 00       		.byte	0
 2598 021c 03       		.uleb128 0x3
 2599 021d 0E       		.uleb128 0xe
 2600 021e 3A       		.uleb128 0x3a
 2601 021f 0B       		.uleb128 0xb
 2602 0220 3B       		.uleb128 0x3b
 2603 0221 05       		.uleb128 0x5
 2604 0222 39       		.uleb128 0x39
 2605 0223 0B       		.uleb128 0xb
 2606 0224 49       		.uleb128 0x49
 2607 0225 13       		.uleb128 0x13
 2608 0226 3F       		.uleb128 0x3f
 2609 0227 19       		.uleb128 0x19
 2610 0228 3C       		.uleb128 0x3c
 2611 0229 19       		.uleb128 0x19
 2612 022a 00       		.byte	0
 2613 022b 00       		.byte	0
 2614 022c 25       		.uleb128 0x25
 2615 022d 2E       		.uleb128 0x2e
 2616 022e 01       		.byte	0x1
 2617 022f 03       		.uleb128 0x3
 2618 0230 0E       		.uleb128 0xe
 2619 0231 3A       		.uleb128 0x3a
 2620 0232 0B       		.uleb128 0xb
 2621 0233 3B       		.uleb128 0x3b
 2622 0234 0B       		.uleb128 0xb
ARM GAS  C:\Users\DEVELO~1\AppData\Local\Temp\ccyi4yqg.s 			page 47


 2623 0235 39       		.uleb128 0x39
 2624 0236 0B       		.uleb128 0xb
 2625 0237 27       		.uleb128 0x27
 2626 0238 19       		.uleb128 0x19
 2627 0239 11       		.uleb128 0x11
 2628 023a 01       		.uleb128 0x1
 2629 023b 12       		.uleb128 0x12
 2630 023c 06       		.uleb128 0x6
 2631 023d 40       		.uleb128 0x40
 2632 023e 18       		.uleb128 0x18
 2633 023f 7A       		.uleb128 0x7a
 2634 0240 19       		.uleb128 0x19
 2635 0241 01       		.uleb128 0x1
 2636 0242 13       		.uleb128 0x13
 2637 0243 00       		.byte	0
 2638 0244 00       		.byte	0
 2639 0245 26       		.uleb128 0x26
 2640 0246 2E       		.uleb128 0x2e
 2641 0247 00       		.byte	0
 2642 0248 03       		.uleb128 0x3
 2643 0249 0E       		.uleb128 0xe
 2644 024a 3A       		.uleb128 0x3a
 2645 024b 0B       		.uleb128 0xb
 2646 024c 3B       		.uleb128 0x3b
 2647 024d 05       		.uleb128 0x5
 2648 024e 39       		.uleb128 0x39
 2649 024f 0B       		.uleb128 0xb
 2650 0250 27       		.uleb128 0x27
 2651 0251 19       		.uleb128 0x19
 2652 0252 49       		.uleb128 0x49
 2653 0253 13       		.uleb128 0x13
 2654 0254 20       		.uleb128 0x20
 2655 0255 0B       		.uleb128 0xb
 2656 0256 00       		.byte	0
 2657 0257 00       		.byte	0
 2658 0258 00       		.byte	0
 2659              		.section	.debug_aranges,"",%progbits
 2660 0000 3C000000 		.4byte	0x3c
 2661 0004 0200     		.2byte	0x2
 2662 0006 00000000 		.4byte	.Ldebug_info0
 2663 000a 04       		.byte	0x4
 2664 000b 00       		.byte	0
 2665 000c 0000     		.2byte	0
 2666 000e 0000     		.2byte	0
 2667 0010 00000000 		.4byte	.LFB346
 2668 0014 7A000000 		.4byte	.LFE346-.LFB346
 2669 0018 00000000 		.4byte	.LFB347
 2670 001c 3A000000 		.4byte	.LFE347-.LFB347
 2671 0020 00000000 		.4byte	.LFB348
 2672 0024 20000000 		.4byte	.LFE348-.LFB348
 2673 0028 00000000 		.4byte	.LFB349
 2674 002c 28000000 		.4byte	.LFE349-.LFB349
 2675 0030 00000000 		.4byte	.LFB350
 2676 0034 2C000000 		.4byte	.LFE350-.LFB350
 2677 0038 00000000 		.4byte	0
 2678 003c 00000000 		.4byte	0
 2679              		.section	.debug_rnglists,"",%progbits
ARM GAS  C:\Users\DEVELO~1\AppData\Local\Temp\ccyi4yqg.s 			page 48


 2680              	.Ldebug_ranges0:
 2681 0000 27000000 		.4byte	.Ldebug_ranges3-.Ldebug_ranges2
 2682              	.Ldebug_ranges2:
 2683 0004 0500     		.2byte	0x5
 2684 0006 04       		.byte	0x4
 2685 0007 00       		.byte	0
 2686 0008 00000000 		.4byte	0
 2687              	.LLRL0:
 2688 000c 07       		.byte	0x7
 2689 000d 00000000 		.4byte	.LFB346
 2690 0011 7A       		.uleb128 .LFE346-.LFB346
 2691 0012 07       		.byte	0x7
 2692 0013 00000000 		.4byte	.LFB347
 2693 0017 3A       		.uleb128 .LFE347-.LFB347
 2694 0018 07       		.byte	0x7
 2695 0019 00000000 		.4byte	.LFB348
 2696 001d 20       		.uleb128 .LFE348-.LFB348
 2697 001e 07       		.byte	0x7
 2698 001f 00000000 		.4byte	.LFB349
 2699 0023 28       		.uleb128 .LFE349-.LFB349
 2700 0024 07       		.byte	0x7
 2701 0025 00000000 		.4byte	.LFB350
 2702 0029 2C       		.uleb128 .LFE350-.LFB350
 2703 002a 00       		.byte	0
 2704              	.Ldebug_ranges3:
 2705              		.section	.debug_line,"",%progbits
 2706              	.Ldebug_line0:
 2707 0000 14030000 		.section	.debug_str,"MS",%progbits,1
 2707      03003202 
 2707      00000201 
 2707      FB0E0D00 
 2707      01010101 
 2708              	.LASF75:
 2709 0000 70726576 		.ascii	"prev\000"
 2709      00
 2710              	.LASF100:
 2711 0005 464F4C44 		.ascii	"FOLDCNT\000"
 2711      434E5400 
 2712              	.LASF155:
 2713 000d 72656164 		.ascii	"ready_list_t\000"
 2713      795F6C69 
 2713      73745F74 
 2713      00
 2714              	.LASF146:
 2715 001a 77747472 		.ascii	"wttrp\000"
 2715      7000
 2716              	.LASF144:
 2717 0020 7264796D 		.ascii	"rdymsg\000"
 2717      736700
 2718              	.LASF56:
 2719 0027 72666375 		.ascii	"rfcu\000"
 2719      00
 2720              	.LASF159:
 2721 002c 69646C65 		.ascii	"idlethread_base\000"
 2721      74687265 
 2721      61645F62 
 2721      61736500 
ARM GAS  C:\Users\DEVELO~1\AppData\Local\Temp\ccyi4yqg.s 			page 49


 2722              	.LASF6:
 2723 003c 5F5F7569 		.ascii	"__uint8_t\000"
 2723      6E74385F 
 2723      7400
 2724              	.LASF119:
 2725 0046 706F7274 		.ascii	"port_intctx\000"
 2725      5F696E74 
 2725      63747800 
 2726              	.LASF53:
 2727 0052 76746C69 		.ascii	"vtlist\000"
 2727      737400
 2728              	.LASF86:
 2729 0059 74797065 		.ascii	"type\000"
 2729      00
 2730              	.LASF89:
 2731 005e 74726163 		.ascii	"trace_event_t\000"
 2731      655F6576 
 2731      656E745F 
 2731      7400
 2732              	.LASF161:
 2733 006c 6F735F69 		.ascii	"os_instance_config_t\000"
 2733      6E737461 
 2733      6E63655F 
 2733      636F6E66 
 2733      69675F74 
 2734              	.LASF124:
 2735 0081 776F7273 		.ascii	"worst\000"
 2735      7400
 2736              	.LASF127:
 2737 0087 74696D65 		.ascii	"time_measurement_t\000"
 2737      5F6D6561 
 2737      73757265 
 2737      6D656E74 
 2737      5F7400
 2738              	.LASF84:
 2739 009a 68616C74 		.ascii	"halt\000"
 2739      00
 2740              	.LASF130:
 2741 009f 63685F73 		.ascii	"ch_sys_running\000"
 2741      79735F72 
 2741      756E6E69 
 2741      6E6700
 2742              	.LASF145:
 2743 00ae 65786974 		.ascii	"exitcode\000"
 2743      636F6465 
 2743      00
 2744              	.LASF58:
 2745 00b7 6D61696E 		.ascii	"mainthread\000"
 2745      74687265 
 2745      616400
 2746              	.LASF147:
 2747 00c2 73656E74 		.ascii	"sentmsg\000"
 2747      6D736700 
 2748              	.LASF81:
 2749 00ca 64656C74 		.ascii	"delta\000"
 2749      6100
 2750              	.LASF172:
ARM GAS  C:\Users\DEVELO~1\AppData\Local\Temp\ccyi4yqg.s 			page 50


 2751 00d0 6368544D 		.ascii	"chTMObjectInit\000"
 2751      4F626A65 
 2751      6374496E 
 2751      697400
 2752              	.LASF72:
 2753 00df 6E657874 		.ascii	"next\000"
 2753      00
 2754              	.LASF24:
 2755 00e4 72747469 		.ascii	"rttime_t\000"
 2755      6D655F74 
 2755      00
 2756              	.LASF167:
 2757 00ed 746D7031 		.ascii	"tmp1\000"
 2757      00
 2758              	.LASF168:
 2759 00f2 746D7032 		.ascii	"tmp2\000"
 2759      00
 2760              	.LASF1:
 2761 00f7 6C6F6E67 		.ascii	"long long int\000"
 2761      206C6F6E 
 2761      6720696E 
 2761      7400
 2762              	.LASF3:
 2763 0105 7369676E 		.ascii	"signed char\000"
 2763      65642063 
 2763      68617200 
 2764              	.LASF80:
 2765 0111 63685F64 		.ascii	"ch_delta_list\000"
 2765      656C7461 
 2765      5F6C6973 
 2765      7400
 2766              	.LASF96:
 2767 011f 43504943 		.ascii	"CPICNT\000"
 2767      4E5400
 2768              	.LASF173:
 2769 0126 474E5520 		.ascii	"GNU C17 11.3.1 20220712 -mcpu=cortex-m7 -mthumb -mf"
 2769      43313720 
 2769      31312E33 
 2769      2E312032 
 2769      30323230 
 2770 0159 6C6F6174 		.ascii	"loat-abi=soft -march=armv7e-m -ggdb -O0 -ffunction-"
 2770      2D616269 
 2770      3D736F66 
 2770      74202D6D 
 2770      61726368 
 2771 018c 73656374 		.ascii	"sections -fdata-sections -fno-common\000"
 2771      696F6E73 
 2771      202D6664 
 2771      6174612D 
 2771      73656374 
 2772              	.LASF40:
 2773 01b1 73746174 		.ascii	"state\000"
 2773      6500
 2774              	.LASF170:
 2775 01b7 6368544D 		.ascii	"chTMStopMeasurementX\000"
 2775      53746F70 
 2775      4D656173 
ARM GAS  C:\Users\DEVELO~1\AppData\Local\Temp\ccyi4yqg.s 			page 51


 2775      7572656D 
 2775      656E7458 
 2776              	.LASF10:
 2777 01cc 6C6F6E67 		.ascii	"long int\000"
 2777      20696E74 
 2777      00
 2778              	.LASF27:
 2779 01d5 74737461 		.ascii	"tstate_t\000"
 2779      74655F74 
 2779      00
 2780              	.LASF61:
 2781 01de 63685F72 		.ascii	"ch_rfcu\000"
 2781      66637500 
 2782              	.LASF74:
 2783 01e6 63685F71 		.ascii	"ch_queue\000"
 2783      75657565 
 2783      00
 2784              	.LASF16:
 2785 01ef 75696E74 		.ascii	"uint16_t\000"
 2785      31365F74 
 2785      00
 2786              	.LASF14:
 2787 01f8 6C6F6E67 		.ascii	"long long unsigned int\000"
 2787      206C6F6E 
 2787      6720756E 
 2787      7369676E 
 2787      65642069 
 2788              	.LASF93:
 2789 020f 74726163 		.ascii	"trace_buffer_t\000"
 2789      655F6275 
 2789      66666572 
 2789      5F7400
 2790              	.LASF98:
 2791 021e 534C4545 		.ascii	"SLEEPCNT\000"
 2791      50434E54 
 2791      00
 2792              	.LASF138:
 2793 0227 63685F72 		.ascii	"ch_registry\000"
 2793      65676973 
 2793      74727900 
 2794              	.LASF11:
 2795 0233 5F5F7569 		.ascii	"__uint32_t\000"
 2795      6E743332 
 2795      5F7400
 2796              	.LASF62:
 2797 023e 6D61736B 		.ascii	"mask\000"
 2797      00
 2798              	.LASF64:
 2799 0243 63685F73 		.ascii	"ch_system_debug\000"
 2799      79737465 
 2799      6D5F6465 
 2799      62756700 
 2800              	.LASF43:
 2801 0253 77616974 		.ascii	"waiting\000"
 2801      696E6700 
 2802              	.LASF157:
 2803 025b 6D61696E 		.ascii	"mainthread_base\000"
ARM GAS  C:\Users\DEVELO~1\AppData\Local\Temp\ccyi4yqg.s 			page 52


 2803      74687265 
 2803      61645F62 
 2803      61736500 
 2804              	.LASF165:
 2805 026b 6D757465 		.ascii	"mutex_t\000"
 2805      785F7400 
 2806              	.LASF69:
 2807 0273 73797369 		.ascii	"sysinterval_t\000"
 2807      6E746572 
 2807      76616C5F 
 2807      7400
 2808              	.LASF32:
 2809 0281 636E745F 		.ascii	"cnt_t\000"
 2809      7400
 2810              	.LASF44:
 2811 0287 6D736771 		.ascii	"msgqueue\000"
 2811      75657565 
 2811      00
 2812              	.LASF171:
 2813 0290 6368544D 		.ascii	"chTMStartMeasurementX\000"
 2813      53746172 
 2813      744D6561 
 2813      73757265 
 2813      6D656E74 
 2814              	.LASF107:
 2815 02a6 4D41534B 		.ascii	"MASK1\000"
 2815      3100
 2816              	.LASF111:
 2817 02ac 4D41534B 		.ascii	"MASK2\000"
 2817      3200
 2818              	.LASF163:
 2819 02b2 696E7374 		.ascii	"instances\000"
 2819      616E6365 
 2819      7300
 2820              	.LASF115:
 2821 02bc 4D41534B 		.ascii	"MASK3\000"
 2821      3300
 2822              	.LASF148:
 2823 02c2 77747365 		.ascii	"wtsemp\000"
 2823      6D7000
 2824              	.LASF67:
 2825 02c9 73797374 		.ascii	"system_debug_t\000"
 2825      656D5F64 
 2825      65627567 
 2825      5F7400
 2826              	.LASF12:
 2827 02d8 6C6F6E67 		.ascii	"long unsigned int\000"
 2827      20756E73 
 2827      69676E65 
 2827      6420696E 
 2827      7400
 2828              	.LASF36:
 2829 02ea 72717565 		.ascii	"rqueue\000"
 2829      756500
 2830              	.LASF73:
 2831 02f1 63685F71 		.ascii	"ch_queue_t\000"
 2831      75657565 
ARM GAS  C:\Users\DEVELO~1\AppData\Local\Temp\ccyi4yqg.s 			page 53


 2831      5F7400
 2832              	.LASF174:
 2833 02fc 2E2E2F2E 		.ascii	"../../../os/rt/src/chtm.c\000"
 2833      2E2F2E2E 
 2833      2F6F732F 
 2833      72742F73 
 2833      72632F63 
 2834              	.LASF175:
 2835 0316 433A5C50 		.ascii	"C:\\PROJET\\ChibiOS project\\ChibiOS_21.11.4\\demos"
 2835      524F4A45 
 2835      545C4368 
 2835      6962694F 
 2835      53207072 
 2836 0345 5C53544D 		.ascii	"\\STM32\\RT-STM32H743ZI_REV_XY-NUCLEO144_Quartz8M\000"
 2836      33325C52 
 2836      542D5354 
 2836      4D333248 
 2836      3734335A 
 2837              	.LASF38:
 2838 0375 6E616D65 		.ascii	"name\000"
 2838      00
 2839              	.LASF139:
 2840 037a 71756575 		.ascii	"queue\000"
 2840      6500
 2841              	.LASF91:
 2842 0380 73697A65 		.ascii	"size\000"
 2842      00
 2843              	.LASF8:
 2844 0385 73686F72 		.ascii	"short unsigned int\000"
 2844      7420756E 
 2844      7369676E 
 2844      65642069 
 2844      6E7400
 2845              	.LASF50:
 2846 0398 63685F74 		.ascii	"ch_thread\000"
 2846      68726561 
 2846      6400
 2847              	.LASF97:
 2848 03a2 45584343 		.ascii	"EXCCNT\000"
 2848      4E5400
 2849              	.LASF30:
 2850 03a9 6D73675F 		.ascii	"msg_t\000"
 2850      7400
 2851              	.LASF125:
 2852 03af 6C617374 		.ascii	"last\000"
 2852      00
 2853              	.LASF33:
 2854 03b4 75636E74 		.ascii	"ucnt_t\000"
 2854      5F7400
 2855              	.LASF45:
 2856 03bb 6570656E 		.ascii	"epending\000"
 2856      64696E67 
 2856      00
 2857              	.LASF164:
 2858 03c4 63685F73 		.ascii	"ch_system_t\000"
 2858      79737465 
 2858      6D5F7400 
ARM GAS  C:\Users\DEVELO~1\AppData\Local\Temp\ccyi4yqg.s 			page 54


 2859              	.LASF26:
 2860 03d0 746D6F64 		.ascii	"tmode_t\000"
 2860      655F7400 
 2861              	.LASF71:
 2862 03d8 63685F6C 		.ascii	"ch_list\000"
 2862      69737400 
 2863              	.LASF153:
 2864 03e0 63685F72 		.ascii	"ch_ready_list\000"
 2864      65616479 
 2864      5F6C6973 
 2864      7400
 2865              	.LASF31:
 2866 03ee 6576656E 		.ascii	"eventmask_t\000"
 2866      746D6173 
 2866      6B5F7400 
 2867              	.LASF9:
 2868 03fa 5F5F696E 		.ascii	"__int32_t\000"
 2868      7433325F 
 2868      7400
 2869              	.LASF63:
 2870 0404 72666375 		.ascii	"rfcu_t\000"
 2870      5F7400
 2871              	.LASF137:
 2872 040b 76697274 		.ascii	"virtual_timers_list_t\000"
 2872      75616C5F 
 2872      74696D65 
 2872      72735F6C 
 2872      6973745F 
 2873              	.LASF169:
 2874 0421 6368544D 		.ascii	"chTMChainMeasurementToX\000"
 2874      43686169 
 2874      6E4D6561 
 2874      73757265 
 2874      6D656E74 
 2875              	.LASF25:
 2876 0439 73746B61 		.ascii	"stkalign_t\000"
 2876      6C69676E 
 2876      5F7400
 2877              	.LASF87:
 2878 0444 72747374 		.ascii	"rtstamp\000"
 2878      616D7000 
 2879              	.LASF136:
 2880 044c 6C617374 		.ascii	"laststamp\000"
 2880      7374616D 
 2880      7000
 2881              	.LASF95:
 2882 0456 43594343 		.ascii	"CYCCNT\000"
 2882      4E5400
 2883              	.LASF47:
 2884 045d 7265616C 		.ascii	"realprio\000"
 2884      7072696F 
 2884      00
 2885              	.LASF60:
 2886 0466 72666375 		.ascii	"rfcu_mask_t\000"
 2886      5F6D6173 
 2886      6B5F7400 
 2887              	.LASF23:
ARM GAS  C:\Users\DEVELO~1\AppData\Local\Temp\ccyi4yqg.s 			page 55


 2888 0472 7274636E 		.ascii	"rtcnt_t\000"
 2888      745F7400 
 2889              	.LASF141:
 2890 047a 74687265 		.ascii	"thread_reference_t\000"
 2890      61645F72 
 2890      65666572 
 2890      656E6365 
 2890      5F7400
 2891              	.LASF133:
 2892 048d 63685F76 		.ascii	"ch_virtual_timers_list\000"
 2892      69727475 
 2892      616C5F74 
 2892      696D6572 
 2892      735F6C69 
 2893              	.LASF70:
 2894 04a4 63685F6C 		.ascii	"ch_list_t\000"
 2894      6973745F 
 2894      7400
 2895              	.LASF90:
 2896 04ae 73757370 		.ascii	"suspended\000"
 2896      656E6465 
 2896      6400
 2897              	.LASF122:
 2898 04b8 746D5F63 		.ascii	"tm_calibration_t\000"
 2898      616C6962 
 2898      72617469 
 2898      6F6E5F74 
 2898      00
 2899              	.LASF20:
 2900 04c9 706F7274 		.ascii	"port_rtcnt_t\000"
 2900      5F727463 
 2900      6E745F74 
 2900      00
 2901              	.LASF19:
 2902 04d6 75696E74 		.ascii	"uint64_t\000"
 2902      36345F74 
 2902      00
 2903              	.LASF0:
 2904 04df 756E7369 		.ascii	"unsigned int\000"
 2904      676E6564 
 2904      20696E74 
 2904      00
 2905              	.LASF156:
 2906 04ec 63685F6F 		.ascii	"ch_os_instance_config\000"
 2906      735F696E 
 2906      7374616E 
 2906      63655F63 
 2906      6F6E6669 
 2907              	.LASF120:
 2908 0502 706F7274 		.ascii	"port_context\000"
 2908      5F636F6E 
 2908      74657874 
 2908      00
 2909              	.LASF106:
 2910 050f 434F4D50 		.ascii	"COMP1\000"
 2910      3100
 2911              	.LASF110:
ARM GAS  C:\Users\DEVELO~1\AppData\Local\Temp\ccyi4yqg.s 			page 56


 2912 0515 434F4D50 		.ascii	"COMP2\000"
 2912      3200
 2913              	.LASF114:
 2914 051b 434F4D50 		.ascii	"COMP3\000"
 2914      3300
 2915              	.LASF88:
 2916 0521 74696D65 		.ascii	"time\000"
 2916      00
 2917              	.LASF78:
 2918 0526 7072696F 		.ascii	"prio\000"
 2918      00
 2919              	.LASF154:
 2920 052b 63757272 		.ascii	"current\000"
 2920      656E7400 
 2921              	.LASF13:
 2922 0533 5F5F7569 		.ascii	"__uint64_t\000"
 2922      6E743634 
 2922      5F7400
 2923              	.LASF126:
 2924 053e 63756D75 		.ascii	"cumulative\000"
 2924      6C617469 
 2924      766500
 2925              	.LASF34:
 2926 0549 636F7265 		.ascii	"core_id_t\000"
 2926      5F69645F 
 2926      7400
 2927              	.LASF28:
 2928 0553 74726566 		.ascii	"trefs_t\000"
 2928      735F7400 
 2929              	.LASF105:
 2930 055b 52455345 		.ascii	"RESERVED0\000"
 2930      52564544 
 2930      3000
 2931              	.LASF109:
 2932 0565 52455345 		.ascii	"RESERVED1\000"
 2932      52564544 
 2932      3100
 2933              	.LASF113:
 2934 056f 52455345 		.ascii	"RESERVED2\000"
 2934      52564544 
 2934      3200
 2935              	.LASF42:
 2936 0579 72656673 		.ascii	"refs\000"
 2936      00
 2937              	.LASF85:
 2938 057e 75736572 		.ascii	"user\000"
 2938      00
 2939              	.LASF29:
 2940 0583 74707269 		.ascii	"tprio_t\000"
 2940      6F5F7400 
 2941              	.LASF103:
 2942 058b 4D41534B 		.ascii	"MASK0\000"
 2942      3000
 2943              	.LASF166:
 2944 0591 5F426F6F 		.ascii	"_Bool\000"
 2944      6C00
 2945              	.LASF17:
ARM GAS  C:\Users\DEVELO~1\AppData\Local\Temp\ccyi4yqg.s 			page 57


 2946 0597 696E7433 		.ascii	"int32_t\000"
 2946      325F7400 
 2947              	.LASF4:
 2948 059f 756E7369 		.ascii	"unsigned char\000"
 2948      676E6564 
 2948      20636861 
 2948      7200
 2949              	.LASF104:
 2950 05ad 46554E43 		.ascii	"FUNCTION0\000"
 2950      54494F4E 
 2950      3000
 2951              	.LASF108:
 2952 05b7 46554E43 		.ascii	"FUNCTION1\000"
 2952      54494F4E 
 2952      3100
 2953              	.LASF112:
 2954 05c1 46554E43 		.ascii	"FUNCTION2\000"
 2954      54494F4E 
 2954      3200
 2955              	.LASF116:
 2956 05cb 46554E43 		.ascii	"FUNCTION3\000"
 2956      54494F4E 
 2956      3300
 2957              	.LASF5:
 2958 05d5 73686F72 		.ascii	"short int\000"
 2958      7420696E 
 2958      7400
 2959              	.LASF135:
 2960 05df 6C617374 		.ascii	"lasttime\000"
 2960      74696D65 
 2960      00
 2961              	.LASF82:
 2962 05e8 77746F62 		.ascii	"wtobjp\000"
 2962      6A7000
 2963              	.LASF150:
 2964 05ef 65776D61 		.ascii	"ewmask\000"
 2964      736B00
 2965              	.LASF162:
 2966 05f6 63685F73 		.ascii	"ch_system\000"
 2966      79737465 
 2966      6D00
 2967              	.LASF55:
 2968 0600 636F7265 		.ascii	"core_id\000"
 2968      5F696400 
 2969              	.LASF83:
 2970 0608 72656173 		.ascii	"reason\000"
 2970      6F6E00
 2971              	.LASF151:
 2972 060f 63685F73 		.ascii	"ch_semaphore\000"
 2972      656D6170 
 2972      686F7265 
 2972      00
 2973              	.LASF117:
 2974 061c 52455345 		.ascii	"RESERVED3\000"
 2974      52564544 
 2974      3300
 2975              	.LASF140:
ARM GAS  C:\Users\DEVELO~1\AppData\Local\Temp\ccyi4yqg.s 			page 58


 2976 0626 72656769 		.ascii	"registry_t\000"
 2976      73747279 
 2976      5F7400
 2977              	.LASF99:
 2978 0631 4C535543 		.ascii	"LSUCNT\000"
 2978      4E5400
 2979              	.LASF18:
 2980 0638 75696E74 		.ascii	"uint32_t\000"
 2980      33325F74 
 2980      00
 2981              	.LASF149:
 2982 0641 77746D74 		.ascii	"wtmtxp\000"
 2982      787000
 2983              	.LASF22:
 2984 0648 706F7274 		.ascii	"port_stkalign_t\000"
 2984      5F73746B 
 2984      616C6967 
 2984      6E5F7400 
 2985              	.LASF37:
 2986 0658 6F776E65 		.ascii	"owner\000"
 2986      7200
 2987              	.LASF2:
 2988 065e 6C6F6E67 		.ascii	"long double\000"
 2988      20646F75 
 2988      626C6500 
 2989              	.LASF39:
 2990 066a 77616261 		.ascii	"wabase\000"
 2990      736500
 2991              	.LASF66:
 2992 0671 63686172 		.ascii	"char\000"
 2992      00
 2993              	.LASF128:
 2994 0676 63685F73 		.ascii	"ch_sys_uninit\000"
 2994      79735F75 
 2994      6E696E69 
 2994      7400
 2995              	.LASF57:
 2996 0684 636F6E66 		.ascii	"config\000"
 2996      696700
 2997              	.LASF7:
 2998 068b 5F5F7569 		.ascii	"__uint16_t\000"
 2998      6E743136 
 2998      5F7400
 2999              	.LASF176:
 3000 0696 746D5F73 		.ascii	"tm_stop\000"
 3000      746F7000 
 3001              	.LASF35:
 3002 069e 74687265 		.ascii	"thread_t\000"
 3002      61645F74 
 3002      00
 3003              	.LASF123:
 3004 06a7 62657374 		.ascii	"best\000"
 3004      00
 3005              	.LASF134:
 3006 06ac 646C6973 		.ascii	"dlist\000"
 3006      7400
 3007              	.LASF68:
ARM GAS  C:\Users\DEVELO~1\AppData\Local\Temp\ccyi4yqg.s 			page 59


 3008 06b2 73797374 		.ascii	"systime_t\000"
 3008      696D655F 
 3008      7400
 3009              	.LASF92:
 3010 06bc 62756666 		.ascii	"buffer\000"
 3010      657200
 3011              	.LASF76:
 3012 06c3 63685F70 		.ascii	"ch_priority_queue_t\000"
 3012      72696F72 
 3012      6974795F 
 3012      71756575 
 3012      655F7400 
 3013              	.LASF65:
 3014 06d7 70616E69 		.ascii	"panic_msg\000"
 3014      635F6D73 
 3014      6700
 3015              	.LASF143:
 3016 06e1 70717565 		.ascii	"pqueue\000"
 3016      756500
 3017              	.LASF51:
 3018 06e8 63685F6F 		.ascii	"ch_os_instance\000"
 3018      735F696E 
 3018      7374616E 
 3018      636500
 3019              	.LASF121:
 3020 06f7 6F666673 		.ascii	"offset\000"
 3020      657400
 3021              	.LASF49:
 3022 06fe 6F735F69 		.ascii	"os_instance_t\000"
 3022      6E737461 
 3022      6E63655F 
 3022      7400
 3023              	.LASF54:
 3024 070c 7265676C 		.ascii	"reglist\000"
 3024      69737400 
 3025              	.LASF118:
 3026 0714 4457545F 		.ascii	"DWT_Type\000"
 3026      54797065 
 3026      00
 3027              	.LASF77:
 3028 071d 63685F70 		.ascii	"ch_priority_queue\000"
 3028      72696F72 
 3028      6974795F 
 3028      71756575 
 3028      6500
 3029              	.LASF94:
 3030 072f 4354524C 		.ascii	"CTRL\000"
 3030      00
 3031              	.LASF79:
 3032 0734 63685F64 		.ascii	"ch_delta_list_t\000"
 3032      656C7461 
 3032      5F6C6973 
 3032      745F7400 
 3033              	.LASF158:
 3034 0744 6D61696E 		.ascii	"mainthread_end\000"
 3034      74687265 
 3034      61645F65 
ARM GAS  C:\Users\DEVELO~1\AppData\Local\Temp\ccyi4yqg.s 			page 60


 3034      6E6400
 3035              	.LASF102:
 3036 0753 434F4D50 		.ascii	"COMP0\000"
 3036      3000
 3037              	.LASF48:
 3038 0759 6D706F6F 		.ascii	"mpool\000"
 3038      6C00
 3039              	.LASF129:
 3040 075f 63685F73 		.ascii	"ch_sys_initializing\000"
 3040      79735F69 
 3040      6E697469 
 3040      616C697A 
 3040      696E6700 
 3041              	.LASF52:
 3042 0773 726C6973 		.ascii	"rlist\000"
 3042      7400
 3043              	.LASF15:
 3044 0779 75696E74 		.ascii	"uint8_t\000"
 3044      385F7400 
 3045              	.LASF41:
 3046 0781 666C6167 		.ascii	"flags\000"
 3046      7300
 3047              	.LASF21:
 3048 0787 706F7274 		.ascii	"port_rttime_t\000"
 3048      5F727474 
 3048      696D655F 
 3048      7400
 3049              	.LASF101:
 3050 0795 50435352 		.ascii	"PCSR\000"
 3050      00
 3051              	.LASF152:
 3052 079a 63685F6D 		.ascii	"ch_mutex\000"
 3052      75746578 
 3052      00
 3053              	.LASF177:
 3054 07a3 706F7274 		.ascii	"port_rt_get_counter_value\000"
 3054      5F72745F 
 3054      6765745F 
 3054      636F756E 
 3054      7465725F 
 3055              	.LASF59:
 3056 07bd 74726163 		.ascii	"trace_buffer\000"
 3056      655F6275 
 3056      66666572 
 3056      00
 3057              	.LASF131:
 3058 07ca 63685F73 		.ascii	"ch_sys_halted\000"
 3058      79735F68 
 3058      616C7465 
 3058      6400
 3059              	.LASF142:
 3060 07d8 6C697374 		.ascii	"list\000"
 3060      00
 3061              	.LASF132:
 3062 07dd 73797374 		.ascii	"system_state_t\000"
 3062      656D5F73 
 3062      74617465 
ARM GAS  C:\Users\DEVELO~1\AppData\Local\Temp\ccyi4yqg.s 			page 61


 3062      5F7400
 3063              	.LASF160:
 3064 07ec 69646C65 		.ascii	"idlethread_end\000"
 3064      74687265 
 3064      61645F65 
 3064      6E6400
 3065              	.LASF46:
 3066 07fb 6D74786C 		.ascii	"mtxlist\000"
 3066      69737400 
 3067              		.ident	"GCC: (Arm GNU Toolchain 11.3.Rel1) 11.3.1 20220712"
ARM GAS  C:\Users\DEVELO~1\AppData\Local\Temp\ccyi4yqg.s 			page 62


DEFINED SYMBOLS
                            *ABS*:00000000 chtm.c
C:\Users\DEVELO~1\AppData\Local\Temp\ccyi4yqg.s:18     .text.tm_stop:00000000 $t
C:\Users\DEVELO~1\AppData\Local\Temp\ccyi4yqg.s:23     .text.tm_stop:00000000 tm_stop
C:\Users\DEVELO~1\AppData\Local\Temp\ccyi4yqg.s:130    .text.chTMObjectInit:00000000 $t
C:\Users\DEVELO~1\AppData\Local\Temp\ccyi4yqg.s:136    .text.chTMObjectInit:00000000 chTMObjectInit
C:\Users\DEVELO~1\AppData\Local\Temp\ccyi4yqg.s:187    .text.chTMStartMeasurementX:00000000 $t
C:\Users\DEVELO~1\AppData\Local\Temp\ccyi4yqg.s:193    .text.chTMStartMeasurementX:00000000 chTMStartMeasurementX
C:\Users\DEVELO~1\AppData\Local\Temp\ccyi4yqg.s:233    .text.chTMStartMeasurementX:0000001c $d
C:\Users\DEVELO~1\AppData\Local\Temp\ccyi4yqg.s:238    .text.chTMStopMeasurementX:00000000 $t
C:\Users\DEVELO~1\AppData\Local\Temp\ccyi4yqg.s:244    .text.chTMStopMeasurementX:00000000 chTMStopMeasurementX
C:\Users\DEVELO~1\AppData\Local\Temp\ccyi4yqg.s:283    .text.chTMStopMeasurementX:00000020 $d
C:\Users\DEVELO~1\AppData\Local\Temp\ccyi4yqg.s:289    .text.chTMChainMeasurementToX:00000000 $t
C:\Users\DEVELO~1\AppData\Local\Temp\ccyi4yqg.s:295    .text.chTMChainMeasurementToX:00000000 chTMChainMeasurementToX
C:\Users\DEVELO~1\AppData\Local\Temp\ccyi4yqg.s:339    .text.chTMChainMeasurementToX:00000028 $d

UNDEFINED SYMBOLS
ch_system
