ARM GAS  C:\Users\DEVELO~1\AppData\Local\Temp\ccu0yoyk.s 			page 1


   1              		.cpu cortex-m7
   2              		.arch armv7e-m
   3              		.fpu softvfp
   4              		.eabi_attribute 20, 1
   5              		.eabi_attribute 21, 1
   6              		.eabi_attribute 23, 3
   7              		.eabi_attribute 24, 1
   8              		.eabi_attribute 25, 1
   9              		.eabi_attribute 26, 1
  10              		.eabi_attribute 30, 6
  11              		.eabi_attribute 34, 1
  12              		.eabi_attribute 18, 4
  13              		.file	"chtrace.c"
  14              		.text
  15              	.Ltext0:
  16              		.cfi_sections	.debug_frame
  17              		.section	.text.port_timer_get_time,"ax",%progbits
  18              		.align	1
  19              		.syntax unified
  20              		.thumb
  21              		.thumb_func
  22              		.type	port_timer_get_time, %function
  23              	port_timer_get_time:
  24              	.LFB196:
  25              		.file 1 "../../../os/hal/osal/rt-nil/chcore_timer.h"
  26              		.loc 1 111 51
  27              		.cfi_startproc
  28              		@ args = 0, pretend = 0, frame = 0
  29              		@ frame_needed = 1, uses_anonymous_args = 0
  30 0000 80B5     		push	{r7, lr}
  31              		.cfi_def_cfa_offset 8
  32              		.cfi_offset 7, -8
  33              		.cfi_offset 14, -4
  34 0002 00AF     		add	r7, sp, #0
  35              		.cfi_def_cfa_register 7
  36              		.loc 1 113 10
  37 0004 FFF7FEFF 		bl	stGetCounter
  38 0008 0346     		mov	r3, r0
  39              		.loc 1 114 1
  40 000a 1846     		mov	r0, r3
  41 000c 80BD     		pop	{r7, pc}
  42              		.cfi_endproc
  43              	.LFE196:
  44              		.size	port_timer_get_time, .-port_timer_get_time
  45              		.section	.text.chSysLock,"ax",%progbits
  46              		.align	1
  47              		.syntax unified
  48              		.thumb
  49              		.thumb_func
  50              		.type	chSysLock, %function
  51              	chSysLock:
  52              	.LFB202:
  53              		.file 2 "../../../os/rt/include/chsys.h"
  54              		.loc 2 407 36
  55              		.cfi_startproc
  56              		@ args = 0, pretend = 0, frame = 8
  57              		@ frame_needed = 1, uses_anonymous_args = 0
ARM GAS  C:\Users\DEVELO~1\AppData\Local\Temp\ccu0yoyk.s 			page 2


  58              		@ link register save eliminated.
  59 0000 80B4     		push	{r7}
  60              		.cfi_def_cfa_offset 4
  61              		.cfi_offset 7, -4
  62 0002 83B0     		sub	sp, sp, #12
  63              		.cfi_def_cfa_offset 16
  64 0004 00AF     		add	r7, sp, #0
  65              		.cfi_def_cfa_register 7
  66 0006 3023     		movs	r3, #48
  67 0008 7B60     		str	r3, [r7, #4]
  68              	.LBB48:
  69              	.LBB49:
  70              	.LBB50:
  71              	.LBB51:
  72              		.file 3 "../../../os/common/ext/ARM/CMSIS/Core/Include/cmsis_gcc.h"
  73              		.loc 3 493 3
  74 000a 7B68     		ldr	r3, [r7, #4]
  75              		.syntax unified
  76              	@ 493 "../../../os/common/ext/ARM/CMSIS/Core/Include/cmsis_gcc.h" 1
  77 000c 83F31188 		MSR basepri, r3
  78              	@ 0 "" 2
  79              		.loc 3 494 1
  80              		.thumb
  81              		.syntax unified
  82 0010 00BF     		nop
  83              	.LBE51:
  84              	.LBE50:
  85              		.file 4 "../../../os/common/ports/ARMv7-M/chcore.h"
  86              		.loc 4 840 1
  87 0012 00BF     		nop
  88              	.LBE49:
  89              	.LBE48:
  90              		.loc 2 412 1
  91 0014 00BF     		nop
  92 0016 0C37     		adds	r7, r7, #12
  93              		.cfi_def_cfa_offset 4
  94 0018 BD46     		mov	sp, r7
  95              		.cfi_def_cfa_register 13
  96              		@ sp needed
  97 001a 80BC     		pop	{r7}
  98              		.cfi_restore 7
  99              		.cfi_def_cfa_offset 0
 100 001c 7047     		bx	lr
 101              		.cfi_endproc
 102              	.LFE202:
 103              		.size	chSysLock, .-chSysLock
 104              		.section	.text.chSysUnlock,"ax",%progbits
 105              		.align	1
 106              		.syntax unified
 107              		.thumb
 108              		.thumb_func
 109              		.type	chSysUnlock, %function
 110              	chSysUnlock:
 111              	.LFB203:
 112              		.loc 2 421 38
 113              		.cfi_startproc
 114              		@ args = 0, pretend = 0, frame = 8
ARM GAS  C:\Users\DEVELO~1\AppData\Local\Temp\ccu0yoyk.s 			page 3


 115              		@ frame_needed = 1, uses_anonymous_args = 0
 116              		@ link register save eliminated.
 117 0000 80B4     		push	{r7}
 118              		.cfi_def_cfa_offset 4
 119              		.cfi_offset 7, -4
 120 0002 83B0     		sub	sp, sp, #12
 121              		.cfi_def_cfa_offset 16
 122 0004 00AF     		add	r7, sp, #0
 123              		.cfi_def_cfa_register 7
 124 0006 0023     		movs	r3, #0
 125 0008 7B60     		str	r3, [r7, #4]
 126              	.LBB52:
 127              	.LBB53:
 128              	.LBB54:
 129              	.LBB55:
 130              		.loc 3 493 3
 131 000a 7B68     		ldr	r3, [r7, #4]
 132              		.syntax unified
 133              	@ 493 "../../../os/common/ext/ARM/CMSIS/Core/Include/cmsis_gcc.h" 1
 134 000c 83F31188 		MSR basepri, r3
 135              	@ 0 "" 2
 136              		.loc 3 494 1
 137              		.thumb
 138              		.syntax unified
 139 0010 00BF     		nop
 140              	.LBE55:
 141              	.LBE54:
 142              		.loc 4 854 1
 143 0012 00BF     		nop
 144              	.LBE53:
 145              	.LBE52:
 146              		.loc 2 435 1
 147 0014 00BF     		nop
 148 0016 0C37     		adds	r7, r7, #12
 149              		.cfi_def_cfa_offset 4
 150 0018 BD46     		mov	sp, r7
 151              		.cfi_def_cfa_register 13
 152              		@ sp needed
 153 001a 80BC     		pop	{r7}
 154              		.cfi_restore 7
 155              		.cfi_def_cfa_offset 0
 156 001c 7047     		bx	lr
 157              		.cfi_endproc
 158              	.LFE203:
 159              		.size	chSysUnlock, .-chSysUnlock
 160              		.section	.text.chVTGetSystemTimeX,"ax",%progbits
 161              		.align	1
 162              		.syntax unified
 163              		.thumb
 164              		.thumb_func
 165              		.type	chVTGetSystemTimeX, %function
 166              	chVTGetSystemTimeX:
 167              	.LFB209:
 168              		.file 5 "../../../os/rt/include/chvt.h"
 169              		.loc 5 122 50
 170              		.cfi_startproc
 171              		@ args = 0, pretend = 0, frame = 0
ARM GAS  C:\Users\DEVELO~1\AppData\Local\Temp\ccu0yoyk.s 			page 4


 172              		@ frame_needed = 1, uses_anonymous_args = 0
 173 0000 80B5     		push	{r7, lr}
 174              		.cfi_def_cfa_offset 8
 175              		.cfi_offset 7, -8
 176              		.cfi_offset 14, -4
 177 0002 00AF     		add	r7, sp, #0
 178              		.cfi_def_cfa_register 7
 179              		.loc 5 127 10
 180 0004 FFF7FEFF 		bl	port_timer_get_time
 181 0008 0346     		mov	r3, r0
 182              		.loc 5 129 1
 183 000a 1846     		mov	r0, r3
 184 000c 80BD     		pop	{r7, pc}
 185              		.cfi_endproc
 186              	.LFE209:
 187              		.size	chVTGetSystemTimeX, .-chVTGetSystemTimeX
 188              		.section	.text.trace_next,"ax",%progbits
 189              		.align	1
 190              		.syntax unified
 191              		.thumb
 192              		.thumb_func
 193              		.type	trace_next, %function
 194              	trace_next:
 195              	.LFB346:
 196              		.file 6 "../../../os/rt/src/chtrace.c"
 197              		.loc 6 57 53
 198              		.cfi_startproc
 199              		@ args = 0, pretend = 0, frame = 8
 200              		@ frame_needed = 1, uses_anonymous_args = 0
 201 0000 90B5     		push	{r4, r7, lr}
 202              		.cfi_def_cfa_offset 12
 203              		.cfi_offset 4, -12
 204              		.cfi_offset 7, -8
 205              		.cfi_offset 14, -4
 206 0002 83B0     		sub	sp, sp, #12
 207              		.cfi_def_cfa_offset 24
 208 0004 00AF     		add	r7, sp, #0
 209              		.cfi_def_cfa_register 7
 210 0006 7860     		str	r0, [r7, #4]
 211              		.loc 6 59 20
 212 0008 7B68     		ldr	r3, [r7, #4]
 213 000a D3F88C40 		ldr	r4, [r3, #140]
 214              		.loc 6 59 36
 215 000e FFF7FEFF 		bl	chVTGetSystemTimeX
 216 0012 0346     		mov	r3, r0
 217              		.loc 6 59 34
 218 0014 6360     		str	r3, [r4, #4]
 219              	.LBB56:
 220              	.LBB57:
 221              		.loc 4 937 13
 222 0016 124B     		ldr	r3, .L11
 223 0018 5B68     		ldr	r3, [r3, #4]
 224              	.LBE57:
 225              	.LBE56:
 226              		.loc 6 61 20
 227 001a 7A68     		ldr	r2, [r7, #4]
 228 001c D2F88C20 		ldr	r2, [r2, #140]
ARM GAS  C:\Users\DEVELO~1\AppData\Local\Temp\ccu0yoyk.s 			page 5


 229              		.loc 6 61 36
 230 0020 23F07F41 		bic	r1, r3, #-16777216
 231              		.loc 6 61 34
 232 0024 1368     		ldr	r3, [r2]
 233 0026 61F31F23 		bfi	r3, r1, #8, #24
 234 002a 1360     		str	r3, [r2]
 235              		.loc 6 69 26
 236 002c 7B68     		ldr	r3, [r7, #4]
 237 002e D3F88C30 		ldr	r3, [r3, #140]
 238              		.loc 6 69 7
 239 0032 03F11002 		add	r2, r3, #16
 240              		.loc 6 69 6
 241 0036 7B68     		ldr	r3, [r7, #4]
 242 0038 C3F88C20 		str	r2, [r3, #140]
 243              		.loc 6 69 26
 244 003c 7B68     		ldr	r3, [r7, #4]
 245 003e D3F88C20 		ldr	r2, [r3, #140]
 246              		.loc 6 69 34
 247 0042 7B68     		ldr	r3, [r7, #4]
 248 0044 03F50963 		add	r3, r3, #2192
 249              		.loc 6 69 6
 250 0048 9A42     		cmp	r2, r3
 251 004a 05D3     		bcc	.L10
 252              		.loc 6 70 29
 253 004c 7B68     		ldr	r3, [r7, #4]
 254 004e 03F19002 		add	r2, r3, #144
 255              		.loc 6 70 27
 256 0052 7B68     		ldr	r3, [r7, #4]
 257 0054 C3F88C20 		str	r2, [r3, #140]
 258              	.L10:
 259              		.loc 6 72 1
 260 0058 00BF     		nop
 261 005a 0C37     		adds	r7, r7, #12
 262              		.cfi_def_cfa_offset 12
 263 005c BD46     		mov	sp, r7
 264              		.cfi_def_cfa_register 13
 265              		@ sp needed
 266 005e 90BD     		pop	{r4, r7, pc}
 267              	.L12:
 268              		.align	2
 269              	.L11:
 270 0060 001000E0 		.word	-536866816
 271              		.cfi_endproc
 272              	.LFE346:
 273              		.size	trace_next, .-trace_next
 274              		.section	.text.__trace_object_init,"ax",%progbits
 275              		.align	1
 276              		.global	__trace_object_init
 277              		.syntax unified
 278              		.thumb
 279              		.thumb_func
 280              		.type	__trace_object_init, %function
 281              	__trace_object_init:
 282              	.LFB347:
 283              		.loc 6 88 47
 284              		.cfi_startproc
 285              		@ args = 0, pretend = 0, frame = 16
ARM GAS  C:\Users\DEVELO~1\AppData\Local\Temp\ccu0yoyk.s 			page 6


 286              		@ frame_needed = 1, uses_anonymous_args = 0
 287              		@ link register save eliminated.
 288 0000 80B4     		push	{r7}
 289              		.cfi_def_cfa_offset 4
 290              		.cfi_offset 7, -4
 291 0002 85B0     		sub	sp, sp, #20
 292              		.cfi_def_cfa_offset 24
 293 0004 00AF     		add	r7, sp, #0
 294              		.cfi_def_cfa_register 7
 295 0006 7860     		str	r0, [r7, #4]
 296              		.loc 6 91 18
 297 0008 7B68     		ldr	r3, [r7, #4]
 298 000a 4FF6FF72 		movw	r2, #65535
 299 000e 1A80     		strh	r2, [r3]	@ movhi
 300              		.loc 6 92 18
 301 0010 7B68     		ldr	r3, [r7, #4]
 302 0012 8022     		movs	r2, #128
 303 0014 5A80     		strh	r2, [r3, #2]	@ movhi
 304              		.loc 6 93 20
 305 0016 7B68     		ldr	r3, [r7, #4]
 306 0018 03F10802 		add	r2, r3, #8
 307              		.loc 6 93 18
 308 001c 7B68     		ldr	r3, [r7, #4]
 309 001e 5A60     		str	r2, [r3, #4]
 310              		.loc 6 94 10
 311 0020 0023     		movs	r3, #0
 312 0022 FB60     		str	r3, [r7, #12]
 313              		.loc 6 94 3
 314 0024 0CE0     		b	.L14
 315              	.L15:
 316              		.loc 6 95 25 discriminator 3
 317 0026 7A68     		ldr	r2, [r7, #4]
 318 0028 FB68     		ldr	r3, [r7, #12]
 319 002a 1B01     		lsls	r3, r3, #4
 320 002c 1344     		add	r3, r3, r2
 321 002e 03F10802 		add	r2, r3, #8
 322 0032 1378     		ldrb	r3, [r2]
 323 0034 6FF30203 		bfc	r3, #0, #3
 324 0038 1370     		strb	r3, [r2]
 325              		.loc 6 94 57 discriminator 3
 326 003a FB68     		ldr	r3, [r7, #12]
 327 003c 0133     		adds	r3, r3, #1
 328 003e FB60     		str	r3, [r7, #12]
 329              	.L14:
 330              		.loc 6 94 18 discriminator 1
 331 0040 FB68     		ldr	r3, [r7, #12]
 332 0042 7F2B     		cmp	r3, #127
 333 0044 EFD9     		bls	.L15
 334              		.loc 6 97 1
 335 0046 00BF     		nop
 336 0048 00BF     		nop
 337 004a 1437     		adds	r7, r7, #20
 338              		.cfi_def_cfa_offset 4
 339 004c BD46     		mov	sp, r7
 340              		.cfi_def_cfa_register 13
 341              		@ sp needed
 342 004e 80BC     		pop	{r7}
ARM GAS  C:\Users\DEVELO~1\AppData\Local\Temp\ccu0yoyk.s 			page 7


 343              		.cfi_restore 7
 344              		.cfi_def_cfa_offset 0
 345 0050 7047     		bx	lr
 346              		.cfi_endproc
 347              	.LFE347:
 348              		.size	__trace_object_init, .-__trace_object_init
 349              		.section	.text.__trace_ready,"ax",%progbits
 350              		.align	1
 351              		.global	__trace_ready
 352              		.syntax unified
 353              		.thumb
 354              		.thumb_func
 355              		.type	__trace_ready, %function
 356              	__trace_ready:
 357              	.LFB348:
 358              		.loc 6 107 45
 359              		.cfi_startproc
 360              		@ args = 0, pretend = 0, frame = 16
 361              		@ frame_needed = 1, uses_anonymous_args = 0
 362 0000 80B5     		push	{r7, lr}
 363              		.cfi_def_cfa_offset 8
 364              		.cfi_offset 7, -8
 365              		.cfi_offset 14, -4
 366 0002 84B0     		sub	sp, sp, #16
 367              		.cfi_def_cfa_offset 24
 368 0004 00AF     		add	r7, sp, #0
 369              		.cfi_def_cfa_register 7
 370 0006 7860     		str	r0, [r7, #4]
 371 0008 3960     		str	r1, [r7]
 372              		.loc 6 108 18
 373 000a 184B     		ldr	r3, .L19
 374 000c FB60     		str	r3, [r7, #12]
 375              		.loc 6 110 25
 376 000e FB68     		ldr	r3, [r7, #12]
 377 0010 B3F88830 		ldrh	r3, [r3, #136]
 378              		.loc 6 110 36
 379 0014 03F00103 		and	r3, r3, #1
 380              		.loc 6 110 6
 381 0018 002B     		cmp	r3, #0
 382 001a 22D1     		bne	.L18
 383              		.loc 6 111 22
 384 001c FB68     		ldr	r3, [r7, #12]
 385 001e D3F88C20 		ldr	r2, [r3, #140]
 386              		.loc 6 111 40
 387 0022 1378     		ldrb	r3, [r2]
 388 0024 0121     		movs	r1, #1
 389 0026 61F30203 		bfi	r3, r1, #0, #3
 390 002a 1370     		strb	r3, [r2]
 391              		.loc 6 112 53
 392 002c 7B68     		ldr	r3, [r7, #4]
 393 002e 93F82410 		ldrb	r1, [r3, #36]	@ zero_extendqisi2
 394              		.loc 6 112 22
 395 0032 FB68     		ldr	r3, [r7, #12]
 396 0034 D3F88C20 		ldr	r2, [r3, #140]
 397              		.loc 6 112 42
 398 0038 0B46     		mov	r3, r1
 399 003a 03F01F03 		and	r3, r3, #31
ARM GAS  C:\Users\DEVELO~1\AppData\Local\Temp\ccu0yoyk.s 			page 8


 400 003e D9B2     		uxtb	r1, r3
 401              		.loc 6 112 40
 402 0040 1378     		ldrb	r3, [r2]
 403 0042 61F3C703 		bfi	r3, r1, #3, #5
 404 0046 1370     		strb	r3, [r2]
 405              		.loc 6 113 22
 406 0048 FB68     		ldr	r3, [r7, #12]
 407 004a D3F88C30 		ldr	r3, [r3, #140]
 408              		.loc 6 113 40
 409 004e 7A68     		ldr	r2, [r7, #4]
 410 0050 9A60     		str	r2, [r3, #8]
 411              		.loc 6 114 22
 412 0052 FB68     		ldr	r3, [r7, #12]
 413 0054 D3F88C30 		ldr	r3, [r3, #140]
 414              		.loc 6 114 40
 415 0058 3A68     		ldr	r2, [r7]
 416 005a DA60     		str	r2, [r3, #12]
 417              		.loc 6 115 5
 418 005c F868     		ldr	r0, [r7, #12]
 419 005e FFF7FEFF 		bl	trace_next
 420              	.L18:
 421              		.loc 6 117 1
 422 0062 00BF     		nop
 423 0064 1037     		adds	r7, r7, #16
 424              		.cfi_def_cfa_offset 8
 425 0066 BD46     		mov	sp, r7
 426              		.cfi_def_cfa_register 13
 427              		@ sp needed
 428 0068 80BD     		pop	{r7, pc}
 429              	.L20:
 430 006a 00BF     		.align	2
 431              	.L19:
 432 006c 00000000 		.word	ch0
 433              		.cfi_endproc
 434              	.LFE348:
 435              		.size	__trace_ready, .-__trace_ready
 436              		.section	.text.__trace_switch,"ax",%progbits
 437              		.align	1
 438              		.global	__trace_switch
 439              		.syntax unified
 440              		.thumb
 441              		.thumb_func
 442              		.type	__trace_switch, %function
 443              	__trace_switch:
 444              	.LFB349:
 445              		.loc 6 127 51
 446              		.cfi_startproc
 447              		@ args = 0, pretend = 0, frame = 16
 448              		@ frame_needed = 1, uses_anonymous_args = 0
 449 0000 80B5     		push	{r7, lr}
 450              		.cfi_def_cfa_offset 8
 451              		.cfi_offset 7, -8
 452              		.cfi_offset 14, -4
 453 0002 84B0     		sub	sp, sp, #16
 454              		.cfi_def_cfa_offset 24
 455 0004 00AF     		add	r7, sp, #0
 456              		.cfi_def_cfa_register 7
ARM GAS  C:\Users\DEVELO~1\AppData\Local\Temp\ccu0yoyk.s 			page 9


 457 0006 7860     		str	r0, [r7, #4]
 458 0008 3960     		str	r1, [r7]
 459              		.loc 6 128 18
 460 000a 184B     		ldr	r3, .L24
 461 000c FB60     		str	r3, [r7, #12]
 462              		.loc 6 130 25
 463 000e FB68     		ldr	r3, [r7, #12]
 464 0010 B3F88830 		ldrh	r3, [r3, #136]
 465              		.loc 6 130 36
 466 0014 03F00203 		and	r3, r3, #2
 467              		.loc 6 130 6
 468 0018 002B     		cmp	r3, #0
 469 001a 23D1     		bne	.L23
 470              		.loc 6 131 22
 471 001c FB68     		ldr	r3, [r7, #12]
 472 001e D3F88C20 		ldr	r2, [r3, #140]
 473              		.loc 6 131 40
 474 0022 1378     		ldrb	r3, [r2]
 475 0024 0221     		movs	r1, #2
 476 0026 61F30203 		bfi	r3, r1, #0, #3
 477 002a 1370     		strb	r3, [r2]
 478              		.loc 6 132 54
 479 002c 3B68     		ldr	r3, [r7]
 480 002e 93F82410 		ldrb	r1, [r3, #36]	@ zero_extendqisi2
 481              		.loc 6 132 22
 482 0032 FB68     		ldr	r3, [r7, #12]
 483 0034 D3F88C20 		ldr	r2, [r3, #140]
 484              		.loc 6 132 42
 485 0038 0B46     		mov	r3, r1
 486 003a 03F01F03 		and	r3, r3, #31
 487 003e D9B2     		uxtb	r1, r3
 488              		.loc 6 132 40
 489 0040 1378     		ldrb	r3, [r2]
 490 0042 61F3C703 		bfi	r3, r1, #3, #5
 491 0046 1370     		strb	r3, [r2]
 492              		.loc 6 133 22
 493 0048 FB68     		ldr	r3, [r7, #12]
 494 004a D3F88C30 		ldr	r3, [r3, #140]
 495              		.loc 6 133 40
 496 004e 7A68     		ldr	r2, [r7, #4]
 497 0050 9A60     		str	r2, [r3, #8]
 498              		.loc 6 134 22
 499 0052 FB68     		ldr	r3, [r7, #12]
 500 0054 D3F88C30 		ldr	r3, [r3, #140]
 501              		.loc 6 134 48
 502 0058 3A68     		ldr	r2, [r7]
 503 005a 926A     		ldr	r2, [r2, #40]
 504              		.loc 6 134 40
 505 005c DA60     		str	r2, [r3, #12]
 506              		.loc 6 135 5
 507 005e F868     		ldr	r0, [r7, #12]
 508 0060 FFF7FEFF 		bl	trace_next
 509              	.L23:
 510              		.loc 6 137 1
 511 0064 00BF     		nop
 512 0066 1037     		adds	r7, r7, #16
 513              		.cfi_def_cfa_offset 8
ARM GAS  C:\Users\DEVELO~1\AppData\Local\Temp\ccu0yoyk.s 			page 10


 514 0068 BD46     		mov	sp, r7
 515              		.cfi_def_cfa_register 13
 516              		@ sp needed
 517 006a 80BD     		pop	{r7, pc}
 518              	.L25:
 519              		.align	2
 520              	.L24:
 521 006c 00000000 		.word	ch0
 522              		.cfi_endproc
 523              	.LFE349:
 524              		.size	__trace_switch, .-__trace_switch
 525              		.section	.text.__trace_isr_enter,"ax",%progbits
 526              		.align	1
 527              		.global	__trace_isr_enter
 528              		.syntax unified
 529              		.thumb
 530              		.thumb_func
 531              		.type	__trace_isr_enter, %function
 532              	__trace_isr_enter:
 533              	.LFB350:
 534              		.loc 6 146 41
 535              		.cfi_startproc
 536              		@ args = 0, pretend = 0, frame = 24
 537              		@ frame_needed = 1, uses_anonymous_args = 0
 538 0000 80B5     		push	{r7, lr}
 539              		.cfi_def_cfa_offset 8
 540              		.cfi_offset 7, -8
 541              		.cfi_offset 14, -4
 542 0002 86B0     		sub	sp, sp, #24
 543              		.cfi_def_cfa_offset 32
 544 0004 00AF     		add	r7, sp, #0
 545              		.cfi_def_cfa_register 7
 546 0006 7860     		str	r0, [r7, #4]
 547              		.loc 6 147 18
 548 0008 194B     		ldr	r3, .L29
 549 000a 7B61     		str	r3, [r7, #20]
 550              		.loc 6 149 25
 551 000c 7B69     		ldr	r3, [r7, #20]
 552 000e B3F88830 		ldrh	r3, [r3, #136]
 553              		.loc 6 149 36
 554 0012 03F00403 		and	r3, r3, #4
 555              		.loc 6 149 6
 556 0016 002B     		cmp	r3, #0
 557 0018 26D1     		bne	.L28
 558 001a 3023     		movs	r3, #48
 559 001c FB60     		str	r3, [r7, #12]
 560              	.LBB58:
 561              	.LBB59:
 562              	.LBB60:
 563              	.LBB61:
 564              	.LBB62:
 565              	.LBB63:
 566              		.loc 3 493 3
 567 001e FB68     		ldr	r3, [r7, #12]
 568              		.syntax unified
 569              	@ 493 "../../../os/common/ext/ARM/CMSIS/Core/Include/cmsis_gcc.h" 1
 570 0020 83F31188 		MSR basepri, r3
ARM GAS  C:\Users\DEVELO~1\AppData\Local\Temp\ccu0yoyk.s 			page 11


 571              	@ 0 "" 2
 572              		.loc 3 494 1
 573              		.thumb
 574              		.syntax unified
 575 0024 00BF     		nop
 576              	.LBE63:
 577              	.LBE62:
 578              		.loc 4 840 1
 579 0026 00BF     		nop
 580              	.LBE61:
 581              	.LBE60:
 582              		.loc 4 865 1
 583 0028 00BF     		nop
 584              	.LBE59:
 585              	.LBE58:
 586              		.loc 6 151 22
 587 002a 7B69     		ldr	r3, [r7, #20]
 588 002c D3F88C20 		ldr	r2, [r3, #140]
 589              		.loc 6 151 40
 590 0030 1378     		ldrb	r3, [r2]
 591 0032 0321     		movs	r1, #3
 592 0034 61F30203 		bfi	r3, r1, #0, #3
 593 0038 1370     		strb	r3, [r2]
 594              		.loc 6 152 22
 595 003a 7B69     		ldr	r3, [r7, #20]
 596 003c D3F88C20 		ldr	r2, [r3, #140]
 597              		.loc 6 152 40
 598 0040 1378     		ldrb	r3, [r2]
 599 0042 6FF3C703 		bfc	r3, #3, #5
 600 0046 1370     		strb	r3, [r2]
 601              		.loc 6 153 22
 602 0048 7B69     		ldr	r3, [r7, #20]
 603 004a D3F88C30 		ldr	r3, [r3, #140]
 604              		.loc 6 153 40
 605 004e 7A68     		ldr	r2, [r7, #4]
 606 0050 9A60     		str	r2, [r3, #8]
 607              		.loc 6 154 5
 608 0052 7869     		ldr	r0, [r7, #20]
 609 0054 FFF7FEFF 		bl	trace_next
 610 0058 0023     		movs	r3, #0
 611 005a 3B61     		str	r3, [r7, #16]
 612              	.LBB64:
 613              	.LBB65:
 614              	.LBB66:
 615              	.LBB67:
 616              	.LBB68:
 617              	.LBB69:
 618              		.loc 3 493 3
 619 005c 3B69     		ldr	r3, [r7, #16]
 620              		.syntax unified
 621              	@ 493 "../../../os/common/ext/ARM/CMSIS/Core/Include/cmsis_gcc.h" 1
 622 005e 83F31188 		MSR basepri, r3
 623              	@ 0 "" 2
 624              		.loc 3 494 1
 625              		.thumb
 626              		.syntax unified
 627 0062 00BF     		nop
ARM GAS  C:\Users\DEVELO~1\AppData\Local\Temp\ccu0yoyk.s 			page 12


 628              	.LBE69:
 629              	.LBE68:
 630              		.loc 4 854 1
 631 0064 00BF     		nop
 632              	.LBE67:
 633              	.LBE66:
 634              		.loc 4 876 1
 635 0066 00BF     		nop
 636              	.L28:
 637              	.LBE65:
 638              	.LBE64:
 639              		.loc 6 157 1
 640 0068 00BF     		nop
 641 006a 1837     		adds	r7, r7, #24
 642              		.cfi_def_cfa_offset 8
 643 006c BD46     		mov	sp, r7
 644              		.cfi_def_cfa_register 13
 645              		@ sp needed
 646 006e 80BD     		pop	{r7, pc}
 647              	.L30:
 648              		.align	2
 649              	.L29:
 650 0070 00000000 		.word	ch0
 651              		.cfi_endproc
 652              	.LFE350:
 653              		.size	__trace_isr_enter, .-__trace_isr_enter
 654              		.section	.text.__trace_isr_leave,"ax",%progbits
 655              		.align	1
 656              		.global	__trace_isr_leave
 657              		.syntax unified
 658              		.thumb
 659              		.thumb_func
 660              		.type	__trace_isr_leave, %function
 661              	__trace_isr_leave:
 662              	.LFB351:
 663              		.loc 6 166 41
 664              		.cfi_startproc
 665              		@ args = 0, pretend = 0, frame = 24
 666              		@ frame_needed = 1, uses_anonymous_args = 0
 667 0000 80B5     		push	{r7, lr}
 668              		.cfi_def_cfa_offset 8
 669              		.cfi_offset 7, -8
 670              		.cfi_offset 14, -4
 671 0002 86B0     		sub	sp, sp, #24
 672              		.cfi_def_cfa_offset 32
 673 0004 00AF     		add	r7, sp, #0
 674              		.cfi_def_cfa_register 7
 675 0006 7860     		str	r0, [r7, #4]
 676              		.loc 6 167 18
 677 0008 194B     		ldr	r3, .L34
 678 000a 7B61     		str	r3, [r7, #20]
 679              		.loc 6 169 25
 680 000c 7B69     		ldr	r3, [r7, #20]
 681 000e B3F88830 		ldrh	r3, [r3, #136]
 682              		.loc 6 169 36
 683 0012 03F00403 		and	r3, r3, #4
 684              		.loc 6 169 6
ARM GAS  C:\Users\DEVELO~1\AppData\Local\Temp\ccu0yoyk.s 			page 13


 685 0016 002B     		cmp	r3, #0
 686 0018 26D1     		bne	.L33
 687 001a 3023     		movs	r3, #48
 688 001c FB60     		str	r3, [r7, #12]
 689              	.LBB70:
 690              	.LBB71:
 691              	.LBB72:
 692              	.LBB73:
 693              	.LBB74:
 694              	.LBB75:
 695              		.loc 3 493 3
 696 001e FB68     		ldr	r3, [r7, #12]
 697              		.syntax unified
 698              	@ 493 "../../../os/common/ext/ARM/CMSIS/Core/Include/cmsis_gcc.h" 1
 699 0020 83F31188 		MSR basepri, r3
 700              	@ 0 "" 2
 701              		.loc 3 494 1
 702              		.thumb
 703              		.syntax unified
 704 0024 00BF     		nop
 705              	.LBE75:
 706              	.LBE74:
 707              		.loc 4 840 1
 708 0026 00BF     		nop
 709              	.LBE73:
 710              	.LBE72:
 711              		.loc 4 865 1
 712 0028 00BF     		nop
 713              	.LBE71:
 714              	.LBE70:
 715              		.loc 6 171 22
 716 002a 7B69     		ldr	r3, [r7, #20]
 717 002c D3F88C20 		ldr	r2, [r3, #140]
 718              		.loc 6 171 40
 719 0030 1378     		ldrb	r3, [r2]
 720 0032 0421     		movs	r1, #4
 721 0034 61F30203 		bfi	r3, r1, #0, #3
 722 0038 1370     		strb	r3, [r2]
 723              		.loc 6 172 22
 724 003a 7B69     		ldr	r3, [r7, #20]
 725 003c D3F88C20 		ldr	r2, [r3, #140]
 726              		.loc 6 172 40
 727 0040 1378     		ldrb	r3, [r2]
 728 0042 6FF3C703 		bfc	r3, #3, #5
 729 0046 1370     		strb	r3, [r2]
 730              		.loc 6 173 22
 731 0048 7B69     		ldr	r3, [r7, #20]
 732 004a D3F88C30 		ldr	r3, [r3, #140]
 733              		.loc 6 173 40
 734 004e 7A68     		ldr	r2, [r7, #4]
 735 0050 9A60     		str	r2, [r3, #8]
 736              		.loc 6 174 5
 737 0052 7869     		ldr	r0, [r7, #20]
 738 0054 FFF7FEFF 		bl	trace_next
 739 0058 0023     		movs	r3, #0
 740 005a 3B61     		str	r3, [r7, #16]
 741              	.LBB76:
ARM GAS  C:\Users\DEVELO~1\AppData\Local\Temp\ccu0yoyk.s 			page 14


 742              	.LBB77:
 743              	.LBB78:
 744              	.LBB79:
 745              	.LBB80:
 746              	.LBB81:
 747              		.loc 3 493 3
 748 005c 3B69     		ldr	r3, [r7, #16]
 749              		.syntax unified
 750              	@ 493 "../../../os/common/ext/ARM/CMSIS/Core/Include/cmsis_gcc.h" 1
 751 005e 83F31188 		MSR basepri, r3
 752              	@ 0 "" 2
 753              		.loc 3 494 1
 754              		.thumb
 755              		.syntax unified
 756 0062 00BF     		nop
 757              	.LBE81:
 758              	.LBE80:
 759              		.loc 4 854 1
 760 0064 00BF     		nop
 761              	.LBE79:
 762              	.LBE78:
 763              		.loc 4 876 1
 764 0066 00BF     		nop
 765              	.L33:
 766              	.LBE77:
 767              	.LBE76:
 768              		.loc 6 177 1
 769 0068 00BF     		nop
 770 006a 1837     		adds	r7, r7, #24
 771              		.cfi_def_cfa_offset 8
 772 006c BD46     		mov	sp, r7
 773              		.cfi_def_cfa_register 13
 774              		@ sp needed
 775 006e 80BD     		pop	{r7, pc}
 776              	.L35:
 777              		.align	2
 778              	.L34:
 779 0070 00000000 		.word	ch0
 780              		.cfi_endproc
 781              	.LFE351:
 782              		.size	__trace_isr_leave, .-__trace_isr_leave
 783              		.section	.text.__trace_halt,"ax",%progbits
 784              		.align	1
 785              		.global	__trace_halt
 786              		.syntax unified
 787              		.thumb
 788              		.thumb_func
 789              		.type	__trace_halt, %function
 790              	__trace_halt:
 791              	.LFB352:
 792              		.loc 6 186 39
 793              		.cfi_startproc
 794              		@ args = 0, pretend = 0, frame = 16
 795              		@ frame_needed = 1, uses_anonymous_args = 0
 796 0000 80B5     		push	{r7, lr}
 797              		.cfi_def_cfa_offset 8
 798              		.cfi_offset 7, -8
ARM GAS  C:\Users\DEVELO~1\AppData\Local\Temp\ccu0yoyk.s 			page 15


 799              		.cfi_offset 14, -4
 800 0002 84B0     		sub	sp, sp, #16
 801              		.cfi_def_cfa_offset 24
 802 0004 00AF     		add	r7, sp, #0
 803              		.cfi_def_cfa_register 7
 804 0006 7860     		str	r0, [r7, #4]
 805              		.loc 6 187 18
 806 0008 114B     		ldr	r3, .L39
 807 000a FB60     		str	r3, [r7, #12]
 808              		.loc 6 189 25
 809 000c FB68     		ldr	r3, [r7, #12]
 810 000e B3F88830 		ldrh	r3, [r3, #136]
 811              		.loc 6 189 36
 812 0012 03F00803 		and	r3, r3, #8
 813              		.loc 6 189 6
 814 0016 002B     		cmp	r3, #0
 815 0018 16D1     		bne	.L38
 816              		.loc 6 190 22
 817 001a FB68     		ldr	r3, [r7, #12]
 818 001c D3F88C20 		ldr	r2, [r3, #140]
 819              		.loc 6 190 42
 820 0020 1378     		ldrb	r3, [r2]
 821 0022 0521     		movs	r1, #5
 822 0024 61F30203 		bfi	r3, r1, #0, #3
 823 0028 1370     		strb	r3, [r2]
 824              		.loc 6 191 22
 825 002a FB68     		ldr	r3, [r7, #12]
 826 002c D3F88C20 		ldr	r2, [r3, #140]
 827              		.loc 6 191 42
 828 0030 1378     		ldrb	r3, [r2]
 829 0032 6FF3C703 		bfc	r3, #3, #5
 830 0036 1370     		strb	r3, [r2]
 831              		.loc 6 192 22
 832 0038 FB68     		ldr	r3, [r7, #12]
 833 003a D3F88C30 		ldr	r3, [r3, #140]
 834              		.loc 6 192 42
 835 003e 7A68     		ldr	r2, [r7, #4]
 836 0040 9A60     		str	r2, [r3, #8]
 837              		.loc 6 193 5
 838 0042 F868     		ldr	r0, [r7, #12]
 839 0044 FFF7FEFF 		bl	trace_next
 840              	.L38:
 841              		.loc 6 195 1
 842 0048 00BF     		nop
 843 004a 1037     		adds	r7, r7, #16
 844              		.cfi_def_cfa_offset 8
 845 004c BD46     		mov	sp, r7
 846              		.cfi_def_cfa_register 13
 847              		@ sp needed
 848 004e 80BD     		pop	{r7, pc}
 849              	.L40:
 850              		.align	2
 851              	.L39:
 852 0050 00000000 		.word	ch0
 853              		.cfi_endproc
 854              	.LFE352:
 855              		.size	__trace_halt, .-__trace_halt
ARM GAS  C:\Users\DEVELO~1\AppData\Local\Temp\ccu0yoyk.s 			page 16


 856              		.section	.text.chTraceWriteI,"ax",%progbits
 857              		.align	1
 858              		.global	chTraceWriteI
 859              		.syntax unified
 860              		.thumb
 861              		.thumb_func
 862              		.type	chTraceWriteI, %function
 863              	chTraceWriteI:
 864              	.LFB353:
 865              		.loc 6 205 42
 866              		.cfi_startproc
 867              		@ args = 0, pretend = 0, frame = 16
 868              		@ frame_needed = 1, uses_anonymous_args = 0
 869 0000 80B5     		push	{r7, lr}
 870              		.cfi_def_cfa_offset 8
 871              		.cfi_offset 7, -8
 872              		.cfi_offset 14, -4
 873 0002 84B0     		sub	sp, sp, #16
 874              		.cfi_def_cfa_offset 24
 875 0004 00AF     		add	r7, sp, #0
 876              		.cfi_def_cfa_register 7
 877 0006 7860     		str	r0, [r7, #4]
 878 0008 3960     		str	r1, [r7]
 879              		.loc 6 206 18
 880 000a 144B     		ldr	r3, .L44
 881 000c FB60     		str	r3, [r7, #12]
 882              		.loc 6 210 25
 883 000e FB68     		ldr	r3, [r7, #12]
 884 0010 B3F88830 		ldrh	r3, [r3, #136]
 885              		.loc 6 210 36
 886 0014 03F01003 		and	r3, r3, #16
 887              		.loc 6 210 6
 888 0018 002B     		cmp	r3, #0
 889 001a 1BD1     		bne	.L43
 890              		.loc 6 211 22
 891 001c FB68     		ldr	r3, [r7, #12]
 892 001e D3F88C20 		ldr	r2, [r3, #140]
 893              		.loc 6 211 39
 894 0022 1378     		ldrb	r3, [r2]
 895 0024 0621     		movs	r1, #6
 896 0026 61F30203 		bfi	r3, r1, #0, #3
 897 002a 1370     		strb	r3, [r2]
 898              		.loc 6 212 22
 899 002c FB68     		ldr	r3, [r7, #12]
 900 002e D3F88C20 		ldr	r2, [r3, #140]
 901              		.loc 6 212 39
 902 0032 1378     		ldrb	r3, [r2]
 903 0034 6FF3C703 		bfc	r3, #3, #5
 904 0038 1370     		strb	r3, [r2]
 905              		.loc 6 213 22
 906 003a FB68     		ldr	r3, [r7, #12]
 907 003c D3F88C30 		ldr	r3, [r3, #140]
 908              		.loc 6 213 39
 909 0040 7A68     		ldr	r2, [r7, #4]
 910 0042 9A60     		str	r2, [r3, #8]
 911              		.loc 6 214 22
 912 0044 FB68     		ldr	r3, [r7, #12]
ARM GAS  C:\Users\DEVELO~1\AppData\Local\Temp\ccu0yoyk.s 			page 17


 913 0046 D3F88C30 		ldr	r3, [r3, #140]
 914              		.loc 6 214 39
 915 004a 3A68     		ldr	r2, [r7]
 916 004c DA60     		str	r2, [r3, #12]
 917              		.loc 6 215 5
 918 004e F868     		ldr	r0, [r7, #12]
 919 0050 FFF7FEFF 		bl	trace_next
 920              	.L43:
 921              		.loc 6 217 1
 922 0054 00BF     		nop
 923 0056 1037     		adds	r7, r7, #16
 924              		.cfi_def_cfa_offset 8
 925 0058 BD46     		mov	sp, r7
 926              		.cfi_def_cfa_register 13
 927              		@ sp needed
 928 005a 80BD     		pop	{r7, pc}
 929              	.L45:
 930              		.align	2
 931              	.L44:
 932 005c 00000000 		.word	ch0
 933              		.cfi_endproc
 934              	.LFE353:
 935              		.size	chTraceWriteI, .-chTraceWriteI
 936              		.section	.text.chTraceWrite,"ax",%progbits
 937              		.align	1
 938              		.global	chTraceWrite
 939              		.syntax unified
 940              		.thumb
 941              		.thumb_func
 942              		.type	chTraceWrite, %function
 943              	chTraceWrite:
 944              	.LFB354:
 945              		.loc 6 227 41
 946              		.cfi_startproc
 947              		@ args = 0, pretend = 0, frame = 8
 948              		@ frame_needed = 1, uses_anonymous_args = 0
 949 0000 80B5     		push	{r7, lr}
 950              		.cfi_def_cfa_offset 8
 951              		.cfi_offset 7, -8
 952              		.cfi_offset 14, -4
 953 0002 82B0     		sub	sp, sp, #8
 954              		.cfi_def_cfa_offset 16
 955 0004 00AF     		add	r7, sp, #0
 956              		.cfi_def_cfa_register 7
 957 0006 7860     		str	r0, [r7, #4]
 958 0008 3960     		str	r1, [r7]
 959              		.loc 6 229 3
 960 000a FFF7FEFF 		bl	chSysLock
 961              		.loc 6 230 3
 962 000e 3968     		ldr	r1, [r7]
 963 0010 7868     		ldr	r0, [r7, #4]
 964 0012 FFF7FEFF 		bl	chTraceWriteI
 965              		.loc 6 231 3
 966 0016 FFF7FEFF 		bl	chSysUnlock
 967              		.loc 6 232 1
 968 001a 00BF     		nop
 969 001c 0837     		adds	r7, r7, #8
ARM GAS  C:\Users\DEVELO~1\AppData\Local\Temp\ccu0yoyk.s 			page 18


 970              		.cfi_def_cfa_offset 8
 971 001e BD46     		mov	sp, r7
 972              		.cfi_def_cfa_register 13
 973              		@ sp needed
 974 0020 80BD     		pop	{r7, pc}
 975              		.cfi_endproc
 976              	.LFE354:
 977              		.size	chTraceWrite, .-chTraceWrite
 978              		.section	.text.chTraceSuspendI,"ax",%progbits
 979              		.align	1
 980              		.global	chTraceSuspendI
 981              		.syntax unified
 982              		.thumb
 983              		.thumb_func
 984              		.type	chTraceSuspendI, %function
 985              	chTraceSuspendI:
 986              	.LFB355:
 987              		.loc 6 241 37
 988              		.cfi_startproc
 989              		@ args = 0, pretend = 0, frame = 8
 990              		@ frame_needed = 1, uses_anonymous_args = 0
 991              		@ link register save eliminated.
 992 0000 80B4     		push	{r7}
 993              		.cfi_def_cfa_offset 4
 994              		.cfi_offset 7, -4
 995 0002 83B0     		sub	sp, sp, #12
 996              		.cfi_def_cfa_offset 16
 997 0004 00AF     		add	r7, sp, #0
 998              		.cfi_def_cfa_register 7
 999 0006 0346     		mov	r3, r0
 1000 0008 FB80     		strh	r3, [r7, #6]	@ movhi
 1001              		.loc 6 245 36
 1002 000a 074B     		ldr	r3, .L48
 1003 000c B3F88820 		ldrh	r2, [r3, #136]
 1004 0010 FB88     		ldrh	r3, [r7, #6]	@ movhi
 1005 0012 1343     		orrs	r3, r3, r2
 1006 0014 9AB2     		uxth	r2, r3
 1007 0016 044B     		ldr	r3, .L48
 1008 0018 A3F88820 		strh	r2, [r3, #136]	@ movhi
 1009              		.loc 6 246 1
 1010 001c 00BF     		nop
 1011 001e 0C37     		adds	r7, r7, #12
 1012              		.cfi_def_cfa_offset 4
 1013 0020 BD46     		mov	sp, r7
 1014              		.cfi_def_cfa_register 13
 1015              		@ sp needed
 1016 0022 80BC     		pop	{r7}
 1017              		.cfi_restore 7
 1018              		.cfi_def_cfa_offset 0
 1019 0024 7047     		bx	lr
 1020              	.L49:
 1021 0026 00BF     		.align	2
 1022              	.L48:
 1023 0028 00000000 		.word	ch0
 1024              		.cfi_endproc
 1025              	.LFE355:
 1026              		.size	chTraceSuspendI, .-chTraceSuspendI
ARM GAS  C:\Users\DEVELO~1\AppData\Local\Temp\ccu0yoyk.s 			page 19


 1027              		.section	.text.chTraceSuspend,"ax",%progbits
 1028              		.align	1
 1029              		.global	chTraceSuspend
 1030              		.syntax unified
 1031              		.thumb
 1032              		.thumb_func
 1033              		.type	chTraceSuspend, %function
 1034              	chTraceSuspend:
 1035              	.LFB356:
 1036              		.loc 6 255 36
 1037              		.cfi_startproc
 1038              		@ args = 0, pretend = 0, frame = 8
 1039              		@ frame_needed = 1, uses_anonymous_args = 0
 1040 0000 80B5     		push	{r7, lr}
 1041              		.cfi_def_cfa_offset 8
 1042              		.cfi_offset 7, -8
 1043              		.cfi_offset 14, -4
 1044 0002 82B0     		sub	sp, sp, #8
 1045              		.cfi_def_cfa_offset 16
 1046 0004 00AF     		add	r7, sp, #0
 1047              		.cfi_def_cfa_register 7
 1048 0006 0346     		mov	r3, r0
 1049 0008 FB80     		strh	r3, [r7, #6]	@ movhi
 1050              		.loc 6 257 3
 1051 000a FFF7FEFF 		bl	chSysLock
 1052              		.loc 6 258 3
 1053 000e FB88     		ldrh	r3, [r7, #6]
 1054 0010 1846     		mov	r0, r3
 1055 0012 FFF7FEFF 		bl	chTraceSuspendI
 1056              		.loc 6 259 3
 1057 0016 FFF7FEFF 		bl	chSysUnlock
 1058              		.loc 6 260 1
 1059 001a 00BF     		nop
 1060 001c 0837     		adds	r7, r7, #8
 1061              		.cfi_def_cfa_offset 8
 1062 001e BD46     		mov	sp, r7
 1063              		.cfi_def_cfa_register 13
 1064              		@ sp needed
 1065 0020 80BD     		pop	{r7, pc}
 1066              		.cfi_endproc
 1067              	.LFE356:
 1068              		.size	chTraceSuspend, .-chTraceSuspend
 1069              		.section	.text.chTraceResumeI,"ax",%progbits
 1070              		.align	1
 1071              		.global	chTraceResumeI
 1072              		.syntax unified
 1073              		.thumb
 1074              		.thumb_func
 1075              		.type	chTraceResumeI, %function
 1076              	chTraceResumeI:
 1077              	.LFB357:
 1078              		.loc 6 269 36
 1079              		.cfi_startproc
 1080              		@ args = 0, pretend = 0, frame = 8
 1081              		@ frame_needed = 1, uses_anonymous_args = 0
 1082              		@ link register save eliminated.
 1083 0000 80B4     		push	{r7}
ARM GAS  C:\Users\DEVELO~1\AppData\Local\Temp\ccu0yoyk.s 			page 20


 1084              		.cfi_def_cfa_offset 4
 1085              		.cfi_offset 7, -4
 1086 0002 83B0     		sub	sp, sp, #12
 1087              		.cfi_def_cfa_offset 16
 1088 0004 00AF     		add	r7, sp, #0
 1089              		.cfi_def_cfa_register 7
 1090 0006 0346     		mov	r3, r0
 1091 0008 FB80     		strh	r3, [r7, #6]	@ movhi
 1092              		.loc 6 273 36
 1093 000a 094B     		ldr	r3, .L52
 1094 000c B3F88830 		ldrh	r3, [r3, #136]
 1095 0010 1AB2     		sxth	r2, r3
 1096 0012 B7F90630 		ldrsh	r3, [r7, #6]
 1097 0016 DB43     		mvns	r3, r3
 1098 0018 1BB2     		sxth	r3, r3
 1099 001a 1340     		ands	r3, r3, r2
 1100 001c 1BB2     		sxth	r3, r3
 1101 001e 9AB2     		uxth	r2, r3
 1102 0020 034B     		ldr	r3, .L52
 1103 0022 A3F88820 		strh	r2, [r3, #136]	@ movhi
 1104              		.loc 6 274 1
 1105 0026 00BF     		nop
 1106 0028 0C37     		adds	r7, r7, #12
 1107              		.cfi_def_cfa_offset 4
 1108 002a BD46     		mov	sp, r7
 1109              		.cfi_def_cfa_register 13
 1110              		@ sp needed
 1111 002c 80BC     		pop	{r7}
 1112              		.cfi_restore 7
 1113              		.cfi_def_cfa_offset 0
 1114 002e 7047     		bx	lr
 1115              	.L53:
 1116              		.align	2
 1117              	.L52:
 1118 0030 00000000 		.word	ch0
 1119              		.cfi_endproc
 1120              	.LFE357:
 1121              		.size	chTraceResumeI, .-chTraceResumeI
 1122              		.section	.text.chTraceResume,"ax",%progbits
 1123              		.align	1
 1124              		.global	chTraceResume
 1125              		.syntax unified
 1126              		.thumb
 1127              		.thumb_func
 1128              		.type	chTraceResume, %function
 1129              	chTraceResume:
 1130              	.LFB358:
 1131              		.loc 6 283 35
 1132              		.cfi_startproc
 1133              		@ args = 0, pretend = 0, frame = 8
 1134              		@ frame_needed = 1, uses_anonymous_args = 0
 1135 0000 80B5     		push	{r7, lr}
 1136              		.cfi_def_cfa_offset 8
 1137              		.cfi_offset 7, -8
 1138              		.cfi_offset 14, -4
 1139 0002 82B0     		sub	sp, sp, #8
 1140              		.cfi_def_cfa_offset 16
ARM GAS  C:\Users\DEVELO~1\AppData\Local\Temp\ccu0yoyk.s 			page 21


 1141 0004 00AF     		add	r7, sp, #0
 1142              		.cfi_def_cfa_register 7
 1143 0006 0346     		mov	r3, r0
 1144 0008 FB80     		strh	r3, [r7, #6]	@ movhi
 1145              		.loc 6 285 3
 1146 000a FFF7FEFF 		bl	chSysLock
 1147              		.loc 6 286 3
 1148 000e FB88     		ldrh	r3, [r7, #6]
 1149 0010 1846     		mov	r0, r3
 1150 0012 FFF7FEFF 		bl	chTraceResumeI
 1151              		.loc 6 287 3
 1152 0016 FFF7FEFF 		bl	chSysUnlock
 1153              		.loc 6 288 1
 1154 001a 00BF     		nop
 1155 001c 0837     		adds	r7, r7, #8
 1156              		.cfi_def_cfa_offset 8
 1157 001e BD46     		mov	sp, r7
 1158              		.cfi_def_cfa_register 13
 1159              		@ sp needed
 1160 0020 80BD     		pop	{r7, pc}
 1161              		.cfi_endproc
 1162              	.LFE358:
 1163              		.size	chTraceResume, .-chTraceResume
 1164              		.text
 1165              	.Letext0:
 1166              		.file 7 "c:\\chibistudio\\tools\\gnu tools arm embedded\\11.3 2022.08\\arm-none-eabi\\include\\mac
 1167              		.file 8 "c:\\chibistudio\\tools\\gnu tools arm embedded\\11.3 2022.08\\arm-none-eabi\\include\\sys
 1168              		.file 9 "../../../os/common/ports/ARM-common/chtypes.h"
 1169              		.file 10 "../../../os/rt/include/chearly.h"
 1170              		.file 11 "../../../os/rt/include/chobjects.h"
 1171              		.file 12 "../../../os/rt/include/chrfcu.h"
 1172              		.file 13 "../../../os/rt/include/chdebug.h"
 1173              		.file 14 "../../../os/rt/include/chtime.h"
 1174              		.file 15 "../../../os/rt/include/chlists.h"
 1175              		.file 16 "../../../os/rt/include/chtrace.h"
 1176              		.file 17 "../../../os/common/ext/ARM/CMSIS/Core/Include/core_cm7.h"
 1177              		.file 18 "../../../os/rt/include/chsem.h"
 1178              		.file 19 "../../../os/rt/include/chmtx.h"