ARM GAS  C:\Users\DEVELO~1\AppData\Local\Temp\ccw2kwuK.s 			page 1


   1              		.cpu cortex-m7
   2              		.arch armv7e-m
   3              		.fpu softvfp
   4              		.eabi_attribute 20, 1
   5              		.eabi_attribute 21, 1
   6              		.eabi_attribute 23, 3
   7              		.eabi_attribute 24, 1
   8              		.eabi_attribute 25, 1
   9              		.eabi_attribute 26, 1
  10              		.eabi_attribute 30, 6
  11              		.eabi_attribute 34, 1
  12              		.eabi_attribute 18, 4
  13              		.file	"crt1.c"
  14              		.text
  15              	.Ltext0:
  16              		.cfi_sections	.debug_frame
  17              		.section	.text.SCB_EnableICache,"ax",%progbits
  18              		.align	1
  19              		.syntax unified
  20              		.thumb
  21              		.thumb_func
  22              		.type	SCB_EnableICache, %function
  23              	SCB_EnableICache:
  24              	.LFB126:
  25              		.file 1 "../../../os/common/ext/ARM/CMSIS/Core/Include/core_cm7.h"
  26              		.loc 1 2230 1
  27              		.cfi_startproc
  28              		@ args = 0, pretend = 0, frame = 0
  29              		@ frame_needed = 1, uses_anonymous_args = 0
  30              		@ link register save eliminated.
  31 0000 80B4     		push	{r7}
  32              		.cfi_def_cfa_offset 4
  33              		.cfi_offset 7, -4
  34 0002 00AF     		add	r7, sp, #0
  35              		.cfi_def_cfa_register 7
  36              	.LBB36:
  37              	.LBB37:
  38              		.file 2 "../../../os/common/ext/ARM/CMSIS/Core/Include/cmsis_gcc.h"
  39              		.loc 2 879 3
  40              		.syntax unified
  41              	@ 879 "../../../os/common/ext/ARM/CMSIS/Core/Include/cmsis_gcc.h" 1
  42 0004 BFF34F8F 		dsb 0xF
  43              	@ 0 "" 2
  44              		.loc 2 880 1
  45              		.thumb
  46              		.syntax unified
  47 0008 00BF     		nop
  48              	.LBE37:
  49              	.LBE36:
  50              	.LBB38:
  51              	.LBB39:
  52              		.loc 2 868 3
  53              		.syntax unified
  54              	@ 868 "../../../os/common/ext/ARM/CMSIS/Core/Include/cmsis_gcc.h" 1
  55 000a BFF36F8F 		isb 0xF
  56              	@ 0 "" 2
  57              		.loc 2 869 1
ARM GAS  C:\Users\DEVELO~1\AppData\Local\Temp\ccw2kwuK.s 			page 2


  58              		.thumb
  59              		.syntax unified
  60 000e 00BF     		nop
  61              	.LBE39:
  62              	.LBE38:
  63              		.loc 1 2234 8
  64 0010 0C4B     		ldr	r3, .L2
  65              		.loc 1 2234 18
  66 0012 0022     		movs	r2, #0
  67 0014 C3F85022 		str	r2, [r3, #592]
  68              	.LBB40:
  69              	.LBB41:
  70              		.loc 2 879 3
  71              		.syntax unified
  72              	@ 879 "../../../os/common/ext/ARM/CMSIS/Core/Include/cmsis_gcc.h" 1
  73 0018 BFF34F8F 		dsb 0xF
  74              	@ 0 "" 2
  75              		.loc 2 880 1
  76              		.thumb
  77              		.syntax unified
  78 001c 00BF     		nop
  79              	.LBE41:
  80              	.LBE40:
  81              	.LBB42:
  82              	.LBB43:
  83              		.loc 2 868 3
  84              		.syntax unified
  85              	@ 868 "../../../os/common/ext/ARM/CMSIS/Core/Include/cmsis_gcc.h" 1
  86 001e BFF36F8F 		isb 0xF
  87              	@ 0 "" 2
  88              		.loc 2 869 1
  89              		.thumb
  90              		.syntax unified
  91 0022 00BF     		nop
  92              	.LBE43:
  93              	.LBE42:
  94              		.loc 1 2237 14
  95 0024 074B     		ldr	r3, .L2
  96 0026 5B69     		ldr	r3, [r3, #20]
  97 0028 064A     		ldr	r2, .L2
  98 002a 43F40033 		orr	r3, r3, #131072
  99 002e 5361     		str	r3, [r2, #20]
 100              	.LBB44:
 101              	.LBB45:
 102              		.loc 2 879 3
 103              		.syntax unified
 104              	@ 879 "../../../os/common/ext/ARM/CMSIS/Core/Include/cmsis_gcc.h" 1
 105 0030 BFF34F8F 		dsb 0xF
 106              	@ 0 "" 2
 107              		.loc 2 880 1
 108              		.thumb
 109              		.syntax unified
 110 0034 00BF     		nop
 111              	.LBE45:
 112              	.LBE44:
 113              	.LBB46:
 114              	.LBB47:
ARM GAS  C:\Users\DEVELO~1\AppData\Local\Temp\ccw2kwuK.s 			page 3


 115              		.loc 2 868 3
 116              		.syntax unified
 117              	@ 868 "../../../os/common/ext/ARM/CMSIS/Core/Include/cmsis_gcc.h" 1
 118 0036 BFF36F8F 		isb 0xF
 119              	@ 0 "" 2
 120              		.loc 2 869 1
 121              		.thumb
 122              		.syntax unified
 123 003a 00BF     		nop
 124              	.LBE47:
 125              	.LBE46:
 126              		.loc 1 2241 1
 127 003c 00BF     		nop
 128 003e BD46     		mov	sp, r7
 129              		.cfi_def_cfa_register 13
 130              		@ sp needed
 131 0040 80BC     		pop	{r7}
 132              		.cfi_restore 7
 133              		.cfi_def_cfa_offset 0
 134 0042 7047     		bx	lr
 135              	.L3:
 136              		.align	2
 137              	.L2:
 138 0044 00ED00E0 		.word	-536810240
 139              		.cfi_endproc
 140              	.LFE126:
 141              		.size	SCB_EnableICache, .-SCB_EnableICache
 142              		.section	.text.SCB_InvalidateICache,"ax",%progbits
 143              		.align	1
 144              		.syntax unified
 145              		.thumb
 146              		.thumb_func
 147              		.type	SCB_InvalidateICache, %function
 148              	SCB_InvalidateICache:
 149              	.LFB128:
 150              		.loc 1 2266 1
 151              		.cfi_startproc
 152              		@ args = 0, pretend = 0, frame = 0
 153              		@ frame_needed = 1, uses_anonymous_args = 0
 154              		@ link register save eliminated.
 155 0000 80B4     		push	{r7}
 156              		.cfi_def_cfa_offset 4
 157              		.cfi_offset 7, -4
 158 0002 00AF     		add	r7, sp, #0
 159              		.cfi_def_cfa_register 7
 160              	.LBB48:
 161              	.LBB49:
 162              		.loc 2 879 3
 163              		.syntax unified
 164              	@ 879 "../../../os/common/ext/ARM/CMSIS/Core/Include/cmsis_gcc.h" 1
 165 0004 BFF34F8F 		dsb 0xF
 166              	@ 0 "" 2
 167              		.loc 2 880 1
 168              		.thumb
 169              		.syntax unified
 170 0008 00BF     		nop
 171              	.LBE49:
ARM GAS  C:\Users\DEVELO~1\AppData\Local\Temp\ccw2kwuK.s 			page 4


 172              	.LBE48:
 173              	.LBB50:
 174              	.LBB51:
 175              		.loc 2 868 3
 176              		.syntax unified
 177              	@ 868 "../../../os/common/ext/ARM/CMSIS/Core/Include/cmsis_gcc.h" 1
 178 000a BFF36F8F 		isb 0xF
 179              	@ 0 "" 2
 180              		.loc 2 869 1
 181              		.thumb
 182              		.syntax unified
 183 000e 00BF     		nop
 184              	.LBE51:
 185              	.LBE50:
 186              		.loc 1 2270 8
 187 0010 064B     		ldr	r3, .L5
 188              		.loc 1 2270 18
 189 0012 0022     		movs	r2, #0
 190 0014 C3F85022 		str	r2, [r3, #592]
 191              	.LBB52:
 192              	.LBB53:
 193              		.loc 2 879 3
 194              		.syntax unified
 195              	@ 879 "../../../os/common/ext/ARM/CMSIS/Core/Include/cmsis_gcc.h" 1
 196 0018 BFF34F8F 		dsb 0xF
 197              	@ 0 "" 2
 198              		.loc 2 880 1
 199              		.thumb
 200              		.syntax unified
 201 001c 00BF     		nop
 202              	.LBE53:
 203              	.LBE52:
 204              	.LBB54:
 205              	.LBB55:
 206              		.loc 2 868 3
 207              		.syntax unified
 208              	@ 868 "../../../os/common/ext/ARM/CMSIS/Core/Include/cmsis_gcc.h" 1
 209 001e BFF36F8F 		isb 0xF
 210              	@ 0 "" 2
 211              		.loc 2 869 1
 212              		.thumb
 213              		.syntax unified
 214 0022 00BF     		nop
 215              	.LBE55:
 216              	.LBE54:
 217              		.loc 1 2274 1
 218 0024 00BF     		nop
 219 0026 BD46     		mov	sp, r7
 220              		.cfi_def_cfa_register 13
 221              		@ sp needed
 222 0028 80BC     		pop	{r7}
 223              		.cfi_restore 7
 224              		.cfi_def_cfa_offset 0
 225 002a 7047     		bx	lr
 226              	.L6:
 227              		.align	2
 228              	.L5:
ARM GAS  C:\Users\DEVELO~1\AppData\Local\Temp\ccw2kwuK.s 			page 5


 229 002c 00ED00E0 		.word	-536810240
 230              		.cfi_endproc
 231              	.LFE128:
 232              		.size	SCB_InvalidateICache, .-SCB_InvalidateICache
 233              		.section	.text.SCB_EnableDCache,"ax",%progbits
 234              		.align	1
 235              		.syntax unified
 236              		.thumb
 237              		.thumb_func
 238              		.type	SCB_EnableDCache, %function
 239              	SCB_EnableDCache:
 240              	.LFB129:
 241              		.loc 1 2282 1
 242              		.cfi_startproc
 243              		@ args = 0, pretend = 0, frame = 16
 244              		@ frame_needed = 1, uses_anonymous_args = 0
 245              		@ link register save eliminated.
 246 0000 80B4     		push	{r7}
 247              		.cfi_def_cfa_offset 4
 248              		.cfi_offset 7, -4
 249 0002 85B0     		sub	sp, sp, #20
 250              		.cfi_def_cfa_offset 24
 251 0004 00AF     		add	r7, sp, #0
 252              		.cfi_def_cfa_register 7
 253              		.loc 1 2288 8
 254 0006 1F4B     		ldr	r3, .L10
 255              		.loc 1 2288 17
 256 0008 0022     		movs	r2, #0
 257 000a C3F88420 		str	r2, [r3, #132]
 258              	.LBB56:
 259              	.LBB57:
 260              		.loc 2 879 3
 261              		.syntax unified
 262              	@ 879 "../../../os/common/ext/ARM/CMSIS/Core/Include/cmsis_gcc.h" 1
 263 000e BFF34F8F 		dsb 0xF
 264              	@ 0 "" 2
 265              		.loc 2 880 1
 266              		.thumb
 267              		.syntax unified
 268 0012 00BF     		nop
 269              	.LBE57:
 270              	.LBE56:
 271              		.loc 1 2291 17
 272 0014 1B4B     		ldr	r3, .L10
 273              		.loc 1 2291 12
 274 0016 D3F88030 		ldr	r3, [r3, #128]
 275 001a 7B60     		str	r3, [r7, #4]
 276              		.loc 1 2294 12
 277 001c 7B68     		ldr	r3, [r7, #4]
 278 001e 5B0B     		lsrs	r3, r3, #13
 279              		.loc 1 2294 10
 280 0020 C3F30E03 		ubfx	r3, r3, #0, #15
 281 0024 FB60     		str	r3, [r7, #12]
 282              	.L9:
 283              		.loc 1 2296 14
 284 0026 7B68     		ldr	r3, [r7, #4]
 285 0028 DB08     		lsrs	r3, r3, #3
ARM GAS  C:\Users\DEVELO~1\AppData\Local\Temp\ccw2kwuK.s 			page 6


 286              		.loc 1 2296 12
 287 002a C3F30903 		ubfx	r3, r3, #0, #10
 288 002e BB60     		str	r3, [r7, #8]
 289              	.L8:
 290              		.loc 1 2298 30 discriminator 1
 291 0030 FB68     		ldr	r3, [r7, #12]
 292 0032 5A01     		lsls	r2, r3, #5
 293              		.loc 1 2298 52 discriminator 1
 294 0034 43F6E073 		movw	r3, #16352
 295 0038 1340     		ands	r3, r3, r2
 296              		.loc 1 2299 30 discriminator 1
 297 003a BA68     		ldr	r2, [r7, #8]
 298 003c 9207     		lsls	r2, r2, #30
 299              		.loc 1 2298 12 discriminator 1
 300 003e 1149     		ldr	r1, .L10
 301              		.loc 1 2298 73 discriminator 1
 302 0040 1343     		orrs	r3, r3, r2
 303              		.loc 1 2298 20 discriminator 1
 304 0042 C1F86032 		str	r3, [r1, #608]
 305              		.loc 1 2303 20 discriminator 1
 306 0046 BB68     		ldr	r3, [r7, #8]
 307 0048 5A1E     		subs	r2, r3, #1
 308 004a BA60     		str	r2, [r7, #8]
 309              		.loc 1 2303 23 discriminator 1
 310 004c 002B     		cmp	r3, #0
 311 004e EFD1     		bne	.L8
 312              		.loc 1 2304 17
 313 0050 FB68     		ldr	r3, [r7, #12]
 314 0052 5A1E     		subs	r2, r3, #1
 315 0054 FA60     		str	r2, [r7, #12]
 316              		.loc 1 2304 20
 317 0056 002B     		cmp	r3, #0
 318 0058 E5D1     		bne	.L9
 319              	.LBB58:
 320              	.LBB59:
 321              		.loc 2 879 3
 322              		.syntax unified
 323              	@ 879 "../../../os/common/ext/ARM/CMSIS/Core/Include/cmsis_gcc.h" 1
 324 005a BFF34F8F 		dsb 0xF
 325              	@ 0 "" 2
 326              		.loc 2 880 1
 327              		.thumb
 328              		.syntax unified
 329 005e 00BF     		nop
 330              	.LBE59:
 331              	.LBE58:
 332              		.loc 1 2307 14
 333 0060 084B     		ldr	r3, .L10
 334 0062 5B69     		ldr	r3, [r3, #20]
 335 0064 074A     		ldr	r2, .L10
 336 0066 43F48033 		orr	r3, r3, #65536
 337 006a 5361     		str	r3, [r2, #20]
 338              	.LBB60:
 339              	.LBB61:
 340              		.loc 2 879 3
 341              		.syntax unified
 342              	@ 879 "../../../os/common/ext/ARM/CMSIS/Core/Include/cmsis_gcc.h" 1
ARM GAS  C:\Users\DEVELO~1\AppData\Local\Temp\ccw2kwuK.s 			page 7


 343 006c BFF34F8F 		dsb 0xF
 344              	@ 0 "" 2
 345              		.loc 2 880 1
 346              		.thumb
 347              		.syntax unified
 348 0070 00BF     		nop
 349              	.LBE61:
 350              	.LBE60:
 351              	.LBB62:
 352              	.LBB63:
 353              		.loc 2 868 3
 354              		.syntax unified
 355              	@ 868 "../../../os/common/ext/ARM/CMSIS/Core/Include/cmsis_gcc.h" 1
 356 0072 BFF36F8F 		isb 0xF
 357              	@ 0 "" 2
 358              		.loc 2 869 1
 359              		.thumb
 360              		.syntax unified
 361 0076 00BF     		nop
 362              	.LBE63:
 363              	.LBE62:
 364              		.loc 1 2312 1
 365 0078 00BF     		nop
 366 007a 1437     		adds	r7, r7, #20
 367              		.cfi_def_cfa_offset 4
 368 007c BD46     		mov	sp, r7
 369              		.cfi_def_cfa_register 13
 370              		@ sp needed
 371 007e 80BC     		pop	{r7}
 372              		.cfi_restore 7
 373              		.cfi_def_cfa_offset 0
 374 0080 7047     		bx	lr
 375              	.L11:
 376 0082 00BF     		.align	2
 377              	.L10:
 378 0084 00ED00E0 		.word	-536810240
 379              		.cfi_endproc
 380              	.LFE129:
 381              		.size	SCB_EnableDCache, .-SCB_EnableDCache
 382              		.section	.text.SCB_CleanDCache,"ax",%progbits
 383              		.align	1
 384              		.syntax unified
 385              		.thumb
 386              		.thumb_func
 387              		.type	SCB_CleanDCache, %function
 388              	SCB_CleanDCache:
 389              	.LFB132:
 390              		.loc 1 2393 1
 391              		.cfi_startproc
 392              		@ args = 0, pretend = 0, frame = 16
 393              		@ frame_needed = 1, uses_anonymous_args = 0
 394              		@ link register save eliminated.
 395 0000 80B4     		push	{r7}
 396              		.cfi_def_cfa_offset 4
 397              		.cfi_offset 7, -4
 398 0002 85B0     		sub	sp, sp, #20
 399              		.cfi_def_cfa_offset 24
ARM GAS  C:\Users\DEVELO~1\AppData\Local\Temp\ccw2kwuK.s 			page 8


 400 0004 00AF     		add	r7, sp, #0
 401              		.cfi_def_cfa_register 7
 402              		.loc 1 2399 9
 403 0006 1A4B     		ldr	r3, .L15
 404              		.loc 1 2399 18
 405 0008 0022     		movs	r2, #0
 406 000a C3F88420 		str	r2, [r3, #132]
 407              	.LBB64:
 408              	.LBB65:
 409              		.loc 2 879 3
 410              		.syntax unified
 411              	@ 879 "../../../os/common/ext/ARM/CMSIS/Core/Include/cmsis_gcc.h" 1
 412 000e BFF34F8F 		dsb 0xF
 413              	@ 0 "" 2
 414              		.loc 2 880 1
 415              		.thumb
 416              		.syntax unified
 417 0012 00BF     		nop
 418              	.LBE65:
 419              	.LBE64:
 420              		.loc 1 2402 17
 421 0014 164B     		ldr	r3, .L15
 422              		.loc 1 2402 12
 423 0016 D3F88030 		ldr	r3, [r3, #128]
 424 001a 7B60     		str	r3, [r7, #4]
 425              		.loc 1 2405 12
 426 001c 7B68     		ldr	r3, [r7, #4]
 427 001e 5B0B     		lsrs	r3, r3, #13
 428              		.loc 1 2405 10
 429 0020 C3F30E03 		ubfx	r3, r3, #0, #15
 430 0024 FB60     		str	r3, [r7, #12]
 431              	.L14:
 432              		.loc 1 2407 14
 433 0026 7B68     		ldr	r3, [r7, #4]
 434 0028 DB08     		lsrs	r3, r3, #3
 435              		.loc 1 2407 12
 436 002a C3F30903 		ubfx	r3, r3, #0, #10
 437 002e BB60     		str	r3, [r7, #8]
 438              	.L13:
 439              		.loc 1 2409 30 discriminator 1
 440 0030 FB68     		ldr	r3, [r7, #12]
 441 0032 5A01     		lsls	r2, r3, #5
 442              		.loc 1 2409 52 discriminator 1
 443 0034 43F6E073 		movw	r3, #16352
 444 0038 1340     		ands	r3, r3, r2
 445              		.loc 1 2410 30 discriminator 1
 446 003a BA68     		ldr	r2, [r7, #8]
 447 003c 9207     		lsls	r2, r2, #30
 448              		.loc 1 2409 12 discriminator 1
 449 003e 0C49     		ldr	r1, .L15
 450              		.loc 1 2409 73 discriminator 1
 451 0040 1343     		orrs	r3, r3, r2
 452              		.loc 1 2409 20 discriminator 1
 453 0042 C1F86C32 		str	r3, [r1, #620]
 454              		.loc 1 2414 20 discriminator 1
 455 0046 BB68     		ldr	r3, [r7, #8]
 456 0048 5A1E     		subs	r2, r3, #1
ARM GAS  C:\Users\DEVELO~1\AppData\Local\Temp\ccw2kwuK.s 			page 9


 457 004a BA60     		str	r2, [r7, #8]
 458              		.loc 1 2414 23 discriminator 1
 459 004c 002B     		cmp	r3, #0
 460 004e EFD1     		bne	.L13
 461              		.loc 1 2415 17
 462 0050 FB68     		ldr	r3, [r7, #12]
 463 0052 5A1E     		subs	r2, r3, #1
 464 0054 FA60     		str	r2, [r7, #12]
 465              		.loc 1 2415 20
 466 0056 002B     		cmp	r3, #0
 467 0058 E5D1     		bne	.L14
 468              	.LBB66:
 469              	.LBB67:
 470              		.loc 2 879 3
 471              		.syntax unified
 472              	@ 879 "../../../os/common/ext/ARM/CMSIS/Core/Include/cmsis_gcc.h" 1
 473 005a BFF34F8F 		dsb 0xF
 474              	@ 0 "" 2
 475              		.loc 2 880 1
 476              		.thumb
 477              		.syntax unified
 478 005e 00BF     		nop
 479              	.LBE67:
 480              	.LBE66:
 481              	.LBB68:
 482              	.LBB69:
 483              		.loc 2 868 3
 484              		.syntax unified
 485              	@ 868 "../../../os/common/ext/ARM/CMSIS/Core/Include/cmsis_gcc.h" 1
 486 0060 BFF36F8F 		isb 0xF
 487              	@ 0 "" 2
 488              		.loc 2 869 1
 489              		.thumb
 490              		.syntax unified
 491 0064 00BF     		nop
 492              	.LBE69:
 493              	.LBE68:
 494              		.loc 1 2420 1
 495 0066 00BF     		nop
 496 0068 1437     		adds	r7, r7, #20
 497              		.cfi_def_cfa_offset 4
 498 006a BD46     		mov	sp, r7
 499              		.cfi_def_cfa_register 13
 500              		@ sp needed
 501 006c 80BC     		pop	{r7}
 502              		.cfi_restore 7
 503              		.cfi_def_cfa_offset 0
 504 006e 7047     		bx	lr
 505              	.L16:
 506              		.align	2
 507              	.L15:
 508 0070 00ED00E0 		.word	-536810240
 509              		.cfi_endproc
 510              	.LFE132:
 511              		.size	SCB_CleanDCache, .-SCB_CleanDCache
 512              		.section	.rodata.ram_areas,"a"
 513              		.align	2
ARM GAS  C:\Users\DEVELO~1\AppData\Local\Temp\ccw2kwuK.s 			page 10


 514              		.type	ram_areas, %object
 515              		.size	ram_areas, 128
 516              	ram_areas:
 517 0000 00000000 		.word	__ram0_init_text__
 518 0004 00000000 		.word	__ram0_init__
 519 0008 00000000 		.word	__ram0_clear__
 520 000c 00000000 		.word	__ram0_noinit__
 521 0010 00000000 		.word	__ram1_init_text__
 522 0014 00000000 		.word	__ram1_init__
 523 0018 00000000 		.word	__ram1_clear__
 524 001c 00000000 		.word	__ram1_noinit__
 525 0020 00000000 		.word	__ram2_init_text__
 526 0024 00000000 		.word	__ram2_init__
 527 0028 00000000 		.word	__ram2_clear__
 528 002c 00000000 		.word	__ram2_noinit__
 529 0030 00000000 		.word	__ram3_init_text__
 530 0034 00000000 		.word	__ram3_init__
 531 0038 00000000 		.word	__ram3_clear__
 532 003c 00000000 		.word	__ram3_noinit__
 533 0040 00000000 		.word	__ram4_init_text__
 534 0044 00000000 		.word	__ram4_init__
 535 0048 00000000 		.word	__ram4_clear__
 536 004c 00000000 		.word	__ram4_noinit__
 537 0050 00000000 		.word	__ram5_init_text__
 538 0054 00000000 		.word	__ram5_init__
 539 0058 00000000 		.word	__ram5_clear__
 540 005c 00000000 		.word	__ram5_noinit__
 541 0060 00000000 		.word	__ram6_init_text__
 542 0064 00000000 		.word	__ram6_init__
 543 0068 00000000 		.word	__ram6_clear__
 544 006c 00000000 		.word	__ram6_noinit__
 545 0070 00000000 		.word	__ram7_init_text__
 546 0074 00000000 		.word	__ram7_init__
 547 0078 00000000 		.word	__ram7_clear__
 548 007c 00000000 		.word	__ram7_noinit__
 549              		.section	.text.__cpu_init,"ax",%progbits
 550              		.align	1
 551              		.weak	__cpu_init
 552              		.syntax unified
 553              		.thumb
 554              		.thumb_func
 555              		.type	__cpu_init, %function
 556              	__cpu_init:
 557              	.LFB141:
 558              		.file 3 "../../../os/common/startup/ARMCMx/compilers/GCC/crt1.c"
 559              		.loc 3 141 23
 560              		.cfi_startproc
 561              		@ args = 0, pretend = 0, frame = 0
 562              		@ frame_needed = 1, uses_anonymous_args = 0
 563 0000 80B5     		push	{r7, lr}
 564              		.cfi_def_cfa_offset 8
 565              		.cfi_offset 7, -8
 566              		.cfi_offset 14, -4
 567 0002 00AF     		add	r7, sp, #0
 568              		.cfi_def_cfa_register 7
 569              		.loc 3 144 3
 570 0004 FFF7FEFF 		bl	SCB_EnableICache
ARM GAS  C:\Users\DEVELO~1\AppData\Local\Temp\ccw2kwuK.s 			page 11


 571              		.loc 3 145 3
 572 0008 FFF7FEFF 		bl	SCB_EnableDCache
 573              		.loc 3 147 1
 574 000c 00BF     		nop
 575 000e 80BD     		pop	{r7, pc}
 576              		.cfi_endproc
 577              	.LFE141:
 578              		.size	__cpu_init, .-__cpu_init
 579              		.section	.text.__early_init,"ax",%progbits
 580              		.align	1
 581              		.weak	__early_init
 582              		.syntax unified
 583              		.thumb
 584              		.thumb_func
 585              		.type	__early_init, %function
 586              	__early_init:
 587              	.LFB142:
 588              		.loc 3 160 25
 589              		.cfi_startproc
 590              		@ args = 0, pretend = 0, frame = 0
 591              		@ frame_needed = 1, uses_anonymous_args = 0
 592              		@ link register save eliminated.
 593 0000 80B4     		push	{r7}
 594              		.cfi_def_cfa_offset 4
 595              		.cfi_offset 7, -4
 596 0002 00AF     		add	r7, sp, #0
 597              		.cfi_def_cfa_register 7
 598              		.loc 3 160 26
 599 0004 00BF     		nop
 600 0006 BD46     		mov	sp, r7
 601              		.cfi_def_cfa_register 13
 602              		@ sp needed
 603 0008 80BC     		pop	{r7}
 604              		.cfi_restore 7
 605              		.cfi_def_cfa_offset 0
 606 000a 7047     		bx	lr
 607              		.cfi_endproc
 608              	.LFE142:
 609              		.size	__early_init, .-__early_init
 610              		.section	.text.__late_init,"ax",%progbits
 611              		.align	1
 612              		.weak	__late_init
 613              		.syntax unified
 614              		.thumb
 615              		.thumb_func
 616              		.type	__late_init, %function
 617              	__late_init:
 618              	.LFB143:
 619              		.loc 3 174 24
 620              		.cfi_startproc
 621              		@ args = 0, pretend = 0, frame = 0
 622              		@ frame_needed = 1, uses_anonymous_args = 0
 623              		@ link register save eliminated.
 624 0000 80B4     		push	{r7}
 625              		.cfi_def_cfa_offset 4
 626              		.cfi_offset 7, -4
 627 0002 00AF     		add	r7, sp, #0
ARM GAS  C:\Users\DEVELO~1\AppData\Local\Temp\ccw2kwuK.s 			page 12


 628              		.cfi_def_cfa_register 7
 629              		.loc 3 174 25
 630 0004 00BF     		nop
 631 0006 BD46     		mov	sp, r7
 632              		.cfi_def_cfa_register 13
 633              		@ sp needed
 634 0008 80BC     		pop	{r7}
 635              		.cfi_restore 7
 636              		.cfi_def_cfa_offset 0
 637 000a 7047     		bx	lr
 638              		.cfi_endproc
 639              	.LFE143:
 640              		.size	__late_init, .-__late_init
 641              		.section	.text.__default_exit,"ax",%progbits
 642              		.align	1
 643              		.weak	__default_exit
 644              		.syntax unified
 645              		.thumb
 646              		.thumb_func
 647              		.type	__default_exit, %function
 648              	__default_exit:
 649              	.LFB144:
 650              		.loc 3 187 27
 651              		.cfi_startproc
 652              		@ args = 0, pretend = 0, frame = 0
 653              		@ frame_needed = 1, uses_anonymous_args = 0
 654              		@ link register save eliminated.
 655 0000 80B4     		push	{r7}
 656              		.cfi_def_cfa_offset 4
 657              		.cfi_offset 7, -4
 658 0002 00AF     		add	r7, sp, #0
 659              		.cfi_def_cfa_register 7
 660              	.L21:
 661              		.loc 3 190 9 discriminator 1
 662 0004 FEE7     		b	.L21
 663              		.cfi_endproc
 664              	.LFE144:
 665              		.size	__default_exit, .-__default_exit
 666              		.section	.text.__init_ram_areas,"ax",%progbits
 667              		.align	1
 668              		.global	__init_ram_areas
 669              		.syntax unified
 670              		.thumb
 671              		.thumb_func
 672              		.type	__init_ram_areas, %function
 673              	__init_ram_areas:
 674              	.LFB145:
 675              		.loc 3 236 29
 676              		.cfi_startproc
 677              		@ args = 0, pretend = 0, frame = 16
 678              		@ frame_needed = 1, uses_anonymous_args = 0
 679 0000 80B5     		push	{r7, lr}
 680              		.cfi_def_cfa_offset 8
 681              		.cfi_offset 7, -8
 682              		.cfi_offset 14, -4
 683 0002 84B0     		sub	sp, sp, #16
 684              		.cfi_def_cfa_offset 24
ARM GAS  C:\Users\DEVELO~1\AppData\Local\Temp\ccw2kwuK.s 			page 13


 685 0004 00AF     		add	r7, sp, #0
 686              		.cfi_def_cfa_register 7
 687              		.loc 3 238 26
 688 0006 194B     		ldr	r3, .L28
 689 0008 FB60     		str	r3, [r7, #12]
 690              	.L27:
 691              	.LBB70:
 692              		.loc 3 241 15
 693 000a FB68     		ldr	r3, [r7, #12]
 694 000c 1B68     		ldr	r3, [r3]
 695 000e BB60     		str	r3, [r7, #8]
 696              		.loc 3 242 15
 697 0010 FB68     		ldr	r3, [r7, #12]
 698 0012 5B68     		ldr	r3, [r3, #4]
 699 0014 7B60     		str	r3, [r7, #4]
 700              		.loc 3 245 11
 701 0016 09E0     		b	.L23
 702              	.L24:
 703              		.loc 3 246 12
 704 0018 BB68     		ldr	r3, [r7, #8]
 705 001a 1A68     		ldr	r2, [r3]
 706              		.loc 3 246 10
 707 001c 7B68     		ldr	r3, [r7, #4]
 708 001e 1A60     		str	r2, [r3]
 709              		.loc 3 247 8
 710 0020 7B68     		ldr	r3, [r7, #4]
 711 0022 0433     		adds	r3, r3, #4
 712 0024 7B60     		str	r3, [r7, #4]
 713              		.loc 3 248 9
 714 0026 BB68     		ldr	r3, [r7, #8]
 715 0028 0433     		adds	r3, r3, #4
 716 002a BB60     		str	r3, [r7, #8]
 717              	.L23:
 718              		.loc 3 245 19
 719 002c FB68     		ldr	r3, [r7, #12]
 720 002e 9B68     		ldr	r3, [r3, #8]
 721              		.loc 3 245 14
 722 0030 7A68     		ldr	r2, [r7, #4]
 723 0032 9A42     		cmp	r2, r3
 724 0034 F0D3     		bcc	.L24
 725              		.loc 3 252 11
 726 0036 05E0     		b	.L25
 727              	.L26:
 728              		.loc 3 253 10
 729 0038 7B68     		ldr	r3, [r7, #4]
 730 003a 0022     		movs	r2, #0
 731 003c 1A60     		str	r2, [r3]
 732              		.loc 3 254 8
 733 003e 7B68     		ldr	r3, [r7, #4]
 734 0040 0433     		adds	r3, r3, #4
 735 0042 7B60     		str	r3, [r7, #4]
 736              	.L25:
 737              		.loc 3 252 19
 738 0044 FB68     		ldr	r3, [r7, #12]
 739 0046 DB68     		ldr	r3, [r3, #12]
 740              		.loc 3 252 14
 741 0048 7A68     		ldr	r2, [r7, #4]
ARM GAS  C:\Users\DEVELO~1\AppData\Local\Temp\ccw2kwuK.s 			page 14


 742 004a 9A42     		cmp	r2, r3
 743 004c F4D3     		bcc	.L26
 744              		.loc 3 256 8
 745 004e FB68     		ldr	r3, [r7, #12]
 746 0050 1033     		adds	r3, r3, #16
 747 0052 FB60     		str	r3, [r7, #12]
 748              	.LBE70:
 749              		.loc 3 258 14
 750 0054 FB68     		ldr	r3, [r7, #12]
 751 0056 064A     		ldr	r2, .L28+4
 752 0058 9342     		cmp	r3, r2
 753 005a D6D3     		bcc	.L27
 754              		.loc 3 262 3
 755 005c FFF7FEFF 		bl	SCB_CleanDCache
 756              		.loc 3 263 3
 757 0060 FFF7FEFF 		bl	SCB_InvalidateICache
 758              		.loc 3 266 1
 759 0064 00BF     		nop
 760 0066 1037     		adds	r7, r7, #16
 761              		.cfi_def_cfa_offset 8
 762 0068 BD46     		mov	sp, r7
 763              		.cfi_def_cfa_register 13
 764              		@ sp needed
 765 006a 80BD     		pop	{r7, pc}
 766              	.L29:
 767              		.align	2
 768              	.L28:
 769 006c 00000000 		.word	ram_areas
 770 0070 80000000 		.word	ram_areas+128
 771              		.cfi_endproc
 772              	.LFE145:
 773              		.size	__init_ram_areas, .-__init_ram_areas
 774              		.text
 775              	.Letext0:
 776              		.file 4 "c:\\chibistudio\\tools\\gnu tools arm embedded\\11.3 2022.08\\arm-none-eabi\\include\\mac
 777              		.file 5 "c:\\chibistudio\\tools\\gnu tools arm embedded\\11.3 2022.08\\arm-none-eabi\\include\\sys