ARM GAS  C:\Users\DEVELO~1\AppData\Local\Temp\ccw2kwuK.s 			page 1


   1              		.cpu cortex-m7
   2              		.arch armv7e-m
   3              		.fpu softvfp
   4              		.eabi_attribute 20, 1
   5              		.eabi_attribute 21, 1
   6              		.eabi_attribute 23, 3
   7              		.eabi_attribute 24, 1
   8              		.eabi_attribute 25, 1
   9              		.eabi_attribute 26, 1
  10              		.eabi_attribute 30, 6
  11              		.eabi_attribute 34, 1
  12              		.eabi_attribute 18, 4
  13              		.file	"crt1.c"
  14              		.text
  15              	.Ltext0:
  16              		.cfi_sections	.debug_frame
  17              		.section	.text.SCB_EnableICache,"ax",%progbits
  18              		.align	1
  19              		.syntax unified
  20              		.thumb
  21              		.thumb_func
  22              		.type	SCB_EnableICache, %function
  23              	SCB_EnableICache:
  24              	.LFB126:
  25              		.file 1 "../../../os/common/ext/ARM/CMSIS/Core/Include/core_cm7.h"
  26              		.loc 1 2230 1
  27              		.cfi_startproc
  28              		@ args = 0, pretend = 0, frame = 0
  29              		@ frame_needed = 1, uses_anonymous_args = 0
  30              		@ link register save eliminated.
  31 0000 80B4     		push	{r7}
  32              		.cfi_def_cfa_offset 4
  33              		.cfi_offset 7, -4
  34 0002 00AF     		add	r7, sp, #0
  35              		.cfi_def_cfa_register 7
  36              	.LBB36:
  37              	.LBB37:
  38              		.file 2 "../../../os/common/ext/ARM/CMSIS/Core/Include/cmsis_gcc.h"
  39              		.loc 2 879 3
  40              		.syntax unified
  41              	@ 879 "../../../os/common/ext/ARM/CMSIS/Core/Include/cmsis_gcc.h" 1
  42 0004 BFF34F8F 		dsb 0xF
  43              	@ 0 "" 2
  44              		.loc 2 880 1
  45              		.thumb
  46              		.syntax unified
  47 0008 00BF     		nop
  48              	.LBE37:
  49              	.LBE36:
  50              	.LBB38:
  51              	.LBB39:
  52              		.loc 2 868 3
  53              		.syntax unified
  54              	@ 868 "../../../os/common/ext/ARM/CMSIS/Core/Include/cmsis_gcc.h" 1
  55 000a BFF36F8F 		isb 0xF
  56              	@ 0 "" 2
  57              		.loc 2 869 1
ARM GAS  C:\Users\DEVELO~1\AppData\Local\Temp\ccw2kwuK.s 			page 2


  58              		.thumb
  59              		.syntax unified
  60 000e 00BF     		nop
  61              	.LBE39:
  62              	.LBE38:
  63              		.loc 1 2234 8
  64 0010 0C4B     		ldr	r3, .L2
  65              		.loc 1 2234 18
  66 0012 0022     		movs	r2, #0
  67 0014 C3F85022 		str	r2, [r3, #592]
  68              	.LBB40:
  69              	.LBB41:
  70              		.loc 2 879 3
  71              		.syntax unified
  72              	@ 879 "../../../os/common/ext/ARM/CMSIS/Core/Include/cmsis_gcc.h" 1
  73 0018 BFF34F8F 		dsb 0xF
  74              	@ 0 "" 2
  75              		.loc 2 880 1
  76              		.thumb
  77              		.syntax unified
  78 001c 00BF     		nop
  79              	.LBE41:
  80              	.LBE40:
  81              	.LBB42:
  82              	.LBB43:
  83              		.loc 2 868 3
  84              		.syntax unified
  85              	@ 868 "../../../os/common/ext/ARM/CMSIS/Core/Include/cmsis_gcc.h" 1
  86 001e BFF36F8F 		isb 0xF
  87              	@ 0 "" 2
  88              		.loc 2 869 1
  89              		.thumb
  90              		.syntax unified
  91 0022 00BF     		nop
  92              	.LBE43:
  93              	.LBE42:
  94              		.loc 1 2237 14
  95 0024 074B     		ldr	r3, .L2
  96 0026 5B69     		ldr	r3, [r3, #20]
  97 0028 064A     		ldr	r2, .L2
  98 002a 43F40033 		orr	r3, r3, #131072
  99 002e 5361     		str	r3, [r2, #20]
 100              	.LBB44:
 101              	.LBB45:
 102              		.loc 2 879 3
 103              		.syntax unified
 104              	@ 879 "../../../os/common/ext/ARM/CMSIS/Core/Include/cmsis_gcc.h" 1
 105 0030 BFF34F8F 		dsb 0xF
 106              	@ 0 "" 2
 107              		.loc 2 880 1
 108              		.thumb
 109              		.syntax unified
 110 0034 00BF     		nop
 111              	.LBE45:
 112              	.LBE44:
 113              	.LBB46:
 114              	.LBB47:
ARM GAS  C:\Users\DEVELO~1\AppData\Local\Temp\ccw2kwuK.s 			page 3


 115              		.loc 2 868 3
 116              		.syntax unified
 117              	@ 868 "../../../os/common/ext/ARM/CMSIS/Core/Include/cmsis_gcc.h" 1
 118 0036 BFF36F8F 		isb 0xF
 119              	@ 0 "" 2
 120              		.loc 2 869 1
 121              		.thumb
 122              		.syntax unified
 123 003a 00BF     		nop
 124              	.LBE47:
 125              	.LBE46:
 126              		.loc 1 2241 1
 127 003c 00BF     		nop
 128 003e BD46     		mov	sp, r7
 129              		.cfi_def_cfa_register 13
 130              		@ sp needed
 131 0040 80BC     		pop	{r7}
 132              		.cfi_restore 7
 133              		.cfi_def_cfa_offset 0
 134 0042 7047     		bx	lr
 135              	.L3:
 136              		.align	2
 137              	.L2:
 138 0044 00ED00E0 		.word	-536810240
 139              		.cfi_endproc
 140              	.LFE126:
 141              		.size	SCB_EnableICache, .-SCB_EnableICache
 142              		.section	.text.SCB_InvalidateICache,"ax",%progbits
 143              		.align	1
 144              		.syntax unified
 145              		.thumb
 146              		.thumb_func
 147              		.type	SCB_InvalidateICache, %function
 148              	SCB_InvalidateICache:
 149              	.LFB128:
 150              		.loc 1 2266 1
 151              		.cfi_startproc
 152              		@ args = 0, pretend = 0, frame = 0
 153              		@ frame_needed = 1, uses_anonymous_args = 0
 154              		@ link register save eliminated.
 155 0000 80B4     		push	{r7}
 156              		.cfi_def_cfa_offset 4
 157              		.cfi_offset 7, -4
 158 0002 00AF     		add	r7, sp, #0
 159              		.cfi_def_cfa_register 7
 160              	.LBB48:
 161              	.LBB49:
 162              		.loc 2 879 3
 163              		.syntax unified
 164              	@ 879 "../../../os/common/ext/ARM/CMSIS/Core/Include/cmsis_gcc.h" 1
 165 0004 BFF34F8F 		dsb 0xF
 166              	@ 0 "" 2
 167              		.loc 2 880 1
 168              		.thumb
 169              		.syntax unified
 170 0008 00BF     		nop
 171              	.LBE49:
ARM GAS  C:\Users\DEVELO~1\AppData\Local\Temp\ccw2kwuK.s 			page 4


 172              	.LBE48:
 173              	.LBB50:
 174              	.LBB51:
 175              		.loc 2 868 3
 176              		.syntax unified
 177              	@ 868 "../../../os/common/ext/ARM/CMSIS/Core/Include/cmsis_gcc.h" 1
 178 000a BFF36F8F 		isb 0xF
 179              	@ 0 "" 2
 180              		.loc 2 869 1
 181              		.thumb
 182              		.syntax unified
 183 000e 00BF     		nop
 184              	.LBE51:
 185              	.LBE50:
 186              		.loc 1 2270 8
 187 0010 064B     		ldr	r3, .L5
 188              		.loc 1 2270 18
 189 0012 0022     		movs	r2, #0
 190 0014 C3F85022 		str	r2, [r3, #592]
 191              	.LBB52:
 192              	.LBB53:
 193              		.loc 2 879 3
 194              		.syntax unified
 195              	@ 879 "../../../os/common/ext/ARM/CMSIS/Core/Include/cmsis_gcc.h" 1
 196 0018 BFF34F8F 		dsb 0xF
 197              	@ 0 "" 2
 198              		.loc 2 880 1
 199              		.thumb
 200              		.syntax unified
 201 001c 00BF     		nop
 202              	.LBE53:
 203              	.LBE52:
 204              	.LBB54:
 205              	.LBB55:
 206              		.loc 2 868 3
 207              		.syntax unified
 208              	@ 868 "../../../os/common/ext/ARM/CMSIS/Core/Include/cmsis_gcc.h" 1
 209 001e BFF36F8F 		isb 0xF
 210              	@ 0 "" 2
 211              		.loc 2 869 1
 212              		.thumb
 213              		.syntax unified
 214 0022 00BF     		nop
 215              	.LBE55:
 216              	.LBE54:
 217              		.loc 1 2274 1
 218 0024 00BF     		nop
 219 0026 BD46     		mov	sp, r7
 220              		.cfi_def_cfa_register 13
 221              		@ sp needed
 222 0028 80BC     		pop	{r7}
 223              		.cfi_restore 7
 224              		.cfi_def_cfa_offset 0
 225 002a 7047     		bx	lr
 226              	.L6:
 227              		.align	2
 228              	.L5:
ARM GAS  C:\Users\DEVELO~1\AppData\Local\Temp\ccw2kwuK.s 			page 5


 229 002c 00ED00E0 		.word	-536810240
 230              		.cfi_endproc
 231              	.LFE128:
 232              		.size	SCB_InvalidateICache, .-SCB_InvalidateICache
 233              		.section	.text.SCB_EnableDCache,"ax",%progbits
 234              		.align	1
 235              		.syntax unified
 236              		.thumb
 237              		.thumb_func
 238              		.type	SCB_EnableDCache, %function
 239              	SCB_EnableDCache:
 240              	.LFB129:
 241              		.loc 1 2282 1
 242              		.cfi_startproc
 243              		@ args = 0, pretend = 0, frame = 16
 244              		@ frame_needed = 1, uses_anonymous_args = 0
 245              		@ link register save eliminated.
 246 0000 80B4     		push	{r7}
 247              		.cfi_def_cfa_offset 4
 248              		.cfi_offset 7, -4
 249 0002 85B0     		sub	sp, sp, #20
 250              		.cfi_def_cfa_offset 24
 251 0004 00AF     		add	r7, sp, #0
 252              		.cfi_def_cfa_register 7
 253              		.loc 1 2288 8
 254 0006 1F4B     		ldr	r3, .L10
 255              		.loc 1 2288 17
 256 0008 0022     		movs	r2, #0
 257 000a C3F88420 		str	r2, [r3, #132]
 258              	.LBB56:
 259              	.LBB57:
 260              		.loc 2 879 3
 261              		.syntax unified
 262              	@ 879 "../../../os/common/ext/ARM/CMSIS/Core/Include/cmsis_gcc.h" 1
 263 000e BFF34F8F 		dsb 0xF
 264              	@ 0 "" 2
 265              		.loc 2 880 1
 266              		.thumb
 267              		.syntax unified
 268 0012 00BF     		nop
 269              	.LBE57:
 270              	.LBE56:
 271              		.loc 1 2291 17
 272 0014 1B4B     		ldr	r3, .L10
 273              		.loc 1 2291 12
 274 0016 D3F88030 		ldr	r3, [r3, #128]
 275 001a 7B60     		str	r3, [r7, #4]
 276              		.loc 1 2294 12
 277 001c 7B68     		ldr	r3, [r7, #4]
 278 001e 5B0B     		lsrs	r3, r3, #13
 279              		.loc 1 2294 10
 280 0020 C3F30E03 		ubfx	r3, r3, #0, #15
 281 0024 FB60     		str	r3, [r7, #12]
 282              	.L9:
 283              		.loc 1 2296 14
 284 0026 7B68     		ldr	r3, [r7, #4]
 285 0028 DB08     		lsrs	r3, r3, #3
ARM GAS  C:\Users\DEVELO~1\AppData\Local\Temp\ccw2kwuK.s 			page 6


 286              		.loc 1 2296 12
 287 002a C3F30903 		ubfx	r3, r3, #0, #10
 288 002e BB60     		str	r3, [r7, #8]
 289              	.L8:
 290              		.loc 1 2298 30 discriminator 1
 291 0030 FB68     		ldr	r3, [r7, #12]
 292 0032 5A01     		lsls	r2, r3, #5
 293              		.loc 1 2298 52 discriminator 1
 294 0034 43F6E073 		movw	r3, #16352
 295 0038 1340     		ands	r3, r3, r2
 296              		.loc 1 2299 30 discriminator 1
 297 003a BA68     		ldr	r2, [r7, #8]
 298 003c 9207     		lsls	r2, r2, #30
 299              		.loc 1 2298 12 discriminator 1
 300 003e 1149     		ldr	r1, .L10
 301              		.loc 1 2298 73 discriminator 1
 302 0040 1343     		orrs	r3, r3, r2
 303              		.loc 1 2298 20 discriminator 1
 304 0042 C1F86032 		str	r3, [r1, #608]
 305              		.loc 1 2303 20 discriminator 1
 306 0046 BB68     		ldr	r3, [r7, #8]
 307 0048 5A1E     		subs	r2, r3, #1
 308 004a BA60     		str	r2, [r7, #8]
 309              		.loc 1 2303 23 discriminator 1
 310 004c 002B     		cmp	r3, #0
 311 004e EFD1     		bne	.L8
 312              		.loc 1 2304 17
 313 0050 FB68     		ldr	r3, [r7, #12]
 314 0052 5A1E     		subs	r2, r3, #1
 315 0054 FA60     		str	r2, [r7, #12]
 316              		.loc 1 2304 20
 317 0056 002B     		cmp	r3, #0
 318 0058 E5D1     		bne	.L9
 319              	.LBB58:
 320              	.LBB59:
 321              		.loc 2 879 3
 322              		.syntax unified
 323              	@ 879 "../../../os/common/ext/ARM/CMSIS/Core/Include/cmsis_gcc.h" 1
 324 005a BFF34F8F 		dsb 0xF
 325              	@ 0 "" 2
 326              		.loc 2 880 1
 327              		.thumb
 328              		.syntax unified
 329 005e 00BF     		nop
 330              	.LBE59:
 331              	.LBE58:
 332              		.loc 1 2307 14
 333 0060 084B     		ldr	r3, .L10
 334 0062 5B69     		ldr	r3, [r3, #20]
 335 0064 074A     		ldr	r2, .L10
 336 0066 43F48033 		orr	r3, r3, #65536
 337 006a 5361     		str	r3, [r2, #20]
 338              	.LBB60:
 339              	.LBB61:
 340              		.loc 2 879 3
 341              		.syntax unified
 342              	@ 879 "../../../os/common/ext/ARM/CMSIS/Core/Include/cmsis_gcc.h" 1
ARM GAS  C:\Users\DEVELO~1\AppData\Local\Temp\ccw2kwuK.s 			page 7


 343 006c BFF34F8F 		dsb 0xF
 344              	@ 0 "" 2
 345              		.loc 2 880 1
 346              		.thumb
 347              		.syntax unified
 348 0070 00BF     		nop
 349              	.LBE61:
 350              	.LBE60:
 351              	.LBB62:
 352              	.LBB63:
 353              		.loc 2 868 3
 354              		.syntax unified
 355              	@ 868 "../../../os/common/ext/ARM/CMSIS/Core/Include/cmsis_gcc.h" 1
 356 0072 BFF36F8F 		isb 0xF
 357              	@ 0 "" 2
 358              		.loc 2 869 1
 359              		.thumb
 360              		.syntax unified
 361 0076 00BF     		nop
 362              	.LBE63:
 363              	.LBE62:
 364              		.loc 1 2312 1
 365 0078 00BF     		nop
 366 007a 1437     		adds	r7, r7, #20
 367              		.cfi_def_cfa_offset 4
 368 007c BD46     		mov	sp, r7
 369              		.cfi_def_cfa_register 13
 370              		@ sp needed
 371 007e 80BC     		pop	{r7}
 372              		.cfi_restore 7
 373              		.cfi_def_cfa_offset 0
 374 0080 7047     		bx	lr
 375              	.L11:
 376 0082 00BF     		.align	2
 377              	.L10:
 378 0084 00ED00E0 		.word	-536810240
 379              		.cfi_endproc
 380              	.LFE129:
 381              		.size	SCB_EnableDCache, .-SCB_EnableDCache
 382              		.section	.text.SCB_CleanDCache,"ax",%progbits
 383              		.align	1
 384              		.syntax unified
 385              		.thumb
 386              		.thumb_func
 387              		.type	SCB_CleanDCache, %function
 388              	SCB_CleanDCache:
 389              	.LFB132:
 390              		.loc 1 2393 1
 391              		.cfi_startproc
 392              		@ args = 0, pretend = 0, frame = 16
 393              		@ frame_needed = 1, uses_anonymous_args = 0
 394              		@ link register save eliminated.
 395 0000 80B4     		push	{r7}
 396              		.cfi_def_cfa_offset 4
 397              		.cfi_offset 7, -4
 398 0002 85B0     		sub	sp, sp, #20
 399              		.cfi_def_cfa_offset 24
ARM GAS  C:\Users\DEVELO~1\AppData\Local\Temp\ccw2kwuK.s 			page 8


 400 0004 00AF     		add	r7, sp, #0
 401              		.cfi_def_cfa_register 7
 402              		.loc 1 2399 9
 403 0006 1A4B     		ldr	r3, .L15
 404              		.loc 1 2399 18
 405 0008 0022     		movs	r2, #0
 406 000a C3F88420 		str	r2, [r3, #132]
 407              	.LBB64:
 408              	.LBB65:
 409              		.loc 2 879 3
 410              		.syntax unified
 411              	@ 879 "../../../os/common/ext/ARM/CMSIS/Core/Include/cmsis_gcc.h" 1
 412 000e BFF34F8F 		dsb 0xF
 413              	@ 0 "" 2
 414              		.loc 2 880 1
 415              		.thumb
 416              		.syntax unified
 417 0012 00BF     		nop
 418              	.LBE65:
 419              	.LBE64:
 420              		.loc 1 2402 17
 421 0014 164B     		ldr	r3, .L15
 422              		.loc 1 2402 12
 423 0016 D3F88030 		ldr	r3, [r3, #128]
 424 001a 7B60     		str	r3, [r7, #4]
 425              		.loc 1 2405 12
 426 001c 7B68     		ldr	r3, [r7, #4]
 427 001e 5B0B     		lsrs	r3, r3, #13
 428              		.loc 1 2405 10
 429 0020 C3F30E03 		ubfx	r3, r3, #0, #15
 430 0024 FB60     		str	r3, [r7, #12]
 431              	.L14:
 432              		.loc 1 2407 14
 433 0026 7B68     		ldr	r3, [r7, #4]
 434 0028 DB08     		lsrs	r3, r3, #3
 435              		.loc 1 2407 12
 436 002a C3F30903 		ubfx	r3, r3, #0, #10
 437 002e BB60     		str	r3, [r7, #8]
 438              	.L13:
 439              		.loc 1 2409 30 discriminator 1
 440 0030 FB68     		ldr	r3, [r7, #12]
 441 0032 5A01     		lsls	r2, r3, #5
 442              		.loc 1 2409 52 discriminator 1
 443 0034 43F6E073 		movw	r3, #16352
 444 0038 1340     		ands	r3, r3, r2
 445              		.loc 1 2410 30 discriminator 1
 446 003a BA68     		ldr	r2, [r7, #8]
 447 003c 9207     		lsls	r2, r2, #30
 448              		.loc 1 2409 12 discriminator 1
 449 003e 0C49     		ldr	r1, .L15
 450              		.loc 1 2409 73 discriminator 1
 451 0040 1343     		orrs	r3, r3, r2
 452              		.loc 1 2409 20 discriminator 1
 453 0042 C1F86C32 		str	r3, [r1, #620]
 454              		.loc 1 2414 20 discriminator 1
 455 0046 BB68     		ldr	r3, [r7, #8]
 456 0048 5A1E     		subs	r2, r3, #1
ARM GAS  C:\Users\DEVELO~1\AppData\Local\Temp\ccw2kwuK.s 			page 9


 457 004a BA60     		str	r2, [r7, #8]
 458              		.loc 1 2414 23 discriminator 1
 459 004c 002B     		cmp	r3, #0
 460 004e EFD1     		bne	.L13
 461              		.loc 1 2415 17
 462 0050 FB68     		ldr	r3, [r7, #12]
 463 0052 5A1E     		subs	r2, r3, #1
 464 0054 FA60     		str	r2, [r7, #12]
 465              		.loc 1 2415 20
 466 0056 002B     		cmp	r3, #0
 467 0058 E5D1     		bne	.L14
 468              	.LBB66:
 469              	.LBB67:
 470              		.loc 2 879 3
 471              		.syntax unified
 472              	@ 879 "../../../os/common/ext/ARM/CMSIS/Core/Include/cmsis_gcc.h" 1
 473 005a BFF34F8F 		dsb 0xF
 474              	@ 0 "" 2
 475              		.loc 2 880 1
 476              		.thumb
 477              		.syntax unified
 478 005e 00BF     		nop
 479              	.LBE67:
 480              	.LBE66:
 481              	.LBB68:
 482              	.LBB69:
 483              		.loc 2 868 3
 484              		.syntax unified
 485              	@ 868 "../../../os/common/ext/ARM/CMSIS/Core/Include/cmsis_gcc.h" 1
 486 0060 BFF36F8F 		isb 0xF
 487              	@ 0 "" 2
 488              		.loc 2 869 1
 489              		.thumb
 490              		.syntax unified
 491 0064 00BF     		nop
 492              	.LBE69:
 493              	.LBE68:
 494              		.loc 1 2420 1
 495 0066 00BF     		nop
 496 0068 1437     		adds	r7, r7, #20
 497              		.cfi_def_cfa_offset 4
 498 006a BD46     		mov	sp, r7
 499              		.cfi_def_cfa_register 13
 500              		@ sp needed
 501 006c 80BC     		pop	{r7}
 502              		.cfi_restore 7
 503              		.cfi_def_cfa_offset 0
 504 006e 7047     		bx	lr
 505              	.L16:
 506              		.align	2
 507              	.L15:
 508 0070 00ED00E0 		.word	-536810240
 509              		.cfi_endproc
 510              	.LFE132:
 511              		.size	SCB_CleanDCache, .-SCB_CleanDCache
 512              		.section	.rodata.ram_areas,"a"
 513              		.align	2
ARM GAS  C:\Users\DEVELO~1\AppData\Local\Temp\ccw2kwuK.s 			page 10


 514              		.type	ram_areas, %object
 515              		.size	ram_areas, 128
 516              	ram_areas:
 517 0000 00000000 		.word	__ram0_init_text__
 518 0004 00000000 		.word	__ram0_init__
 519 0008 00000000 		.word	__ram0_clear__
 520 000c 00000000 		.word	__ram0_noinit__
 521 0010 00000000 		.word	__ram1_init_text__
 522 0014 00000000 		.word	__ram1_init__
 523 0018 00000000 		.word	__ram1_clear__
 524 001c 00000000 		.word	__ram1_noinit__
 525 0020 00000000 		.word	__ram2_init_text__
 526 0024 00000000 		.word	__ram2_init__
 527 0028 00000000 		.word	__ram2_clear__
 528 002c 00000000 		.word	__ram2_noinit__
 529 0030 00000000 		.word	__ram3_init_text__
 530 0034 00000000 		.word	__ram3_init__
 531 0038 00000000 		.word	__ram3_clear__
 532 003c 00000000 		.word	__ram3_noinit__
 533 0040 00000000 		.word	__ram4_init_text__
 534 0044 00000000 		.word	__ram4_init__
 535 0048 00000000 		.word	__ram4_clear__
 536 004c 00000000 		.word	__ram4_noinit__
 537 0050 00000000 		.word	__ram5_init_text__
 538 0054 00000000 		.word	__ram5_init__
 539 0058 00000000 		.word	__ram5_clear__
 540 005c 00000000 		.word	__ram5_noinit__
 541 0060 00000000 		.word	__ram6_init_text__
 542 0064 00000000 		.word	__ram6_init__
 543 0068 00000000 		.word	__ram6_clear__
 544 006c 00000000 		.word	__ram6_noinit__
 545 0070 00000000 		.word	__ram7_init_text__
 546 0074 00000000 		.word	__ram7_init__
 547 0078 00000000 		.word	__ram7_clear__
 548 007c 00000000 		.word	__ram7_noinit__
 549              		.section	.text.__cpu_init,"ax",%progbits
 550              		.align	1
 551              		.weak	__cpu_init
 552              		.syntax unified
 553              		.thumb
 554              		.thumb_func
 555              		.type	__cpu_init, %function
 556              	__cpu_init:
 557              	.LFB141:
 558              		.file 3 "../../../os/common/startup/ARMCMx/compilers/GCC/crt1.c"
 559              		.loc 3 141 23
 560              		.cfi_startproc
 561              		@ args = 0, pretend = 0, frame = 0
 562              		@ frame_needed = 1, uses_anonymous_args = 0
 563 0000 80B5     		push	{r7, lr}
 564              		.cfi_def_cfa_offset 8
 565              		.cfi_offset 7, -8
 566              		.cfi_offset 14, -4
 567 0002 00AF     		add	r7, sp, #0
 568              		.cfi_def_cfa_register 7
 569              		.loc 3 144 3
 570 0004 FFF7FEFF 		bl	SCB_EnableICache
ARM GAS  C:\Users\DEVELO~1\AppData\Local\Temp\ccw2kwuK.s 			page 11


 571              		.loc 3 145 3
 572 0008 FFF7FEFF 		bl	SCB_EnableDCache
 573              		.loc 3 147 1
 574 000c 00BF     		nop
 575 000e 80BD     		pop	{r7, pc}
 576              		.cfi_endproc
 577              	.LFE141:
 578              		.size	__cpu_init, .-__cpu_init
 579              		.section	.text.__early_init,"ax",%progbits
 580              		.align	1
 581              		.weak	__early_init
 582              		.syntax unified
 583              		.thumb
 584              		.thumb_func
 585              		.type	__early_init, %function
 586              	__early_init:
 587              	.LFB142:
 588              		.loc 3 160 25
 589              		.cfi_startproc
 590              		@ args = 0, pretend = 0, frame = 0
 591              		@ frame_needed = 1, uses_anonymous_args = 0
 592              		@ link register save eliminated.
 593 0000 80B4     		push	{r7}
 594              		.cfi_def_cfa_offset 4
 595              		.cfi_offset 7, -4
 596 0002 00AF     		add	r7, sp, #0
 597              		.cfi_def_cfa_register 7
 598              		.loc 3 160 26
 599 0004 00BF     		nop
 600 0006 BD46     		mov	sp, r7
 601              		.cfi_def_cfa_register 13
 602              		@ sp needed
 603 0008 80BC     		pop	{r7}
 604              		.cfi_restore 7
 605              		.cfi_def_cfa_offset 0
 606 000a 7047     		bx	lr
 607              		.cfi_endproc
 608              	.LFE142:
 609              		.size	__early_init, .-__early_init
 610              		.section	.text.__late_init,"ax",%progbits
 611              		.align	1
 612              		.weak	__late_init
 613              		.syntax unified
 614              		.thumb
 615              		.thumb_func
 616              		.type	__late_init, %function
 617              	__late_init:
 618              	.LFB143:
 619              		.loc 3 174 24
 620              		.cfi_startproc
 621              		@ args = 0, pretend = 0, frame = 0
 622              		@ frame_needed = 1, uses_anonymous_args = 0
 623              		@ link register save eliminated.
 624 0000 80B4     		push	{r7}
 625              		.cfi_def_cfa_offset 4
 626              		.cfi_offset 7, -4
 627 0002 00AF     		add	r7, sp, #0
ARM GAS  C:\Users\DEVELO~1\AppData\Local\Temp\ccw2kwuK.s 			page 12


 628              		.cfi_def_cfa_register 7
 629              		.loc 3 174 25
 630 0004 00BF     		nop
 631 0006 BD46     		mov	sp, r7
 632              		.cfi_def_cfa_register 13
 633              		@ sp needed
 634 0008 80BC     		pop	{r7}
 635              		.cfi_restore 7
 636              		.cfi_def_cfa_offset 0
 637 000a 7047     		bx	lr
 638              		.cfi_endproc
 639              	.LFE143:
 640              		.size	__late_init, .-__late_init
 641              		.section	.text.__default_exit,"ax",%progbits
 642              		.align	1
 643              		.weak	__default_exit
 644              		.syntax unified
 645              		.thumb
 646              		.thumb_func
 647              		.type	__default_exit, %function
 648              	__default_exit:
 649              	.LFB144:
 650              		.loc 3 187 27
 651              		.cfi_startproc
 652              		@ args = 0, pretend = 0, frame = 0
 653              		@ frame_needed = 1, uses_anonymous_args = 0
 654              		@ link register save eliminated.
 655 0000 80B4     		push	{r7}
 656              		.cfi_def_cfa_offset 4
 657              		.cfi_offset 7, -4
 658 0002 00AF     		add	r7, sp, #0
 659              		.cfi_def_cfa_register 7
 660              	.L21:
 661              		.loc 3 190 9 discriminator 1
 662 0004 FEE7     		b	.L21
 663              		.cfi_endproc
 664              	.LFE144:
 665              		.size	__default_exit, .-__default_exit
 666              		.section	.text.__init_ram_areas,"ax",%progbits
 667              		.align	1
 668              		.global	__init_ram_areas
 669              		.syntax unified
 670              		.thumb
 671              		.thumb_func
 672              		.type	__init_ram_areas, %function
 673              	__init_ram_areas:
 674              	.LFB145:
 675              		.loc 3 236 29
 676              		.cfi_startproc
 677              		@ args = 0, pretend = 0, frame = 16
 678              		@ frame_needed = 1, uses_anonymous_args = 0
 679 0000 80B5     		push	{r7, lr}
 680              		.cfi_def_cfa_offset 8
 681              		.cfi_offset 7, -8
 682              		.cfi_offset 14, -4
 683 0002 84B0     		sub	sp, sp, #16
 684              		.cfi_def_cfa_offset 24
ARM GAS  C:\Users\DEVELO~1\AppData\Local\Temp\ccw2kwuK.s 			page 13


 685 0004 00AF     		add	r7, sp, #0
 686              		.cfi_def_cfa_register 7
 687              		.loc 3 238 26
 688 0006 194B     		ldr	r3, .L28
 689 0008 FB60     		str	r3, [r7, #12]
 690              	.L27:
 691              	.LBB70:
 692              		.loc 3 241 15
 693 000a FB68     		ldr	r3, [r7, #12]
 694 000c 1B68     		ldr	r3, [r3]
 695 000e BB60     		str	r3, [r7, #8]
 696              		.loc 3 242 15
 697 0010 FB68     		ldr	r3, [r7, #12]
 698 0012 5B68     		ldr	r3, [r3, #4]
 699 0014 7B60     		str	r3, [r7, #4]
 700              		.loc 3 245 11
 701 0016 09E0     		b	.L23
 702              	.L24:
 703              		.loc 3 246 12
 704 0018 BB68     		ldr	r3, [r7, #8]
 705 001a 1A68     		ldr	r2, [r3]
 706              		.loc 3 246 10
 707 001c 7B68     		ldr	r3, [r7, #4]
 708 001e 1A60     		str	r2, [r3]
 709              		.loc 3 247 8
 710 0020 7B68     		ldr	r3, [r7, #4]
 711 0022 0433     		adds	r3, r3, #4
 712 0024 7B60     		str	r3, [r7, #4]
 713              		.loc 3 248 9
 714 0026 BB68     		ldr	r3, [r7, #8]
 715 0028 0433     		adds	r3, r3, #4
 716 002a BB60     		str	r3, [r7, #8]
 717              	.L23:
 718              		.loc 3 245 19
 719 002c FB68     		ldr	r3, [r7, #12]
 720 002e 9B68     		ldr	r3, [r3, #8]
 721              		.loc 3 245 14
 722 0030 7A68     		ldr	r2, [r7, #4]
 723 0032 9A42     		cmp	r2, r3
 724 0034 F0D3     		bcc	.L24
 725              		.loc 3 252 11
 726 0036 05E0     		b	.L25
 727              	.L26:
 728              		.loc 3 253 10
 729 0038 7B68     		ldr	r3, [r7, #4]
 730 003a 0022     		movs	r2, #0
 731 003c 1A60     		str	r2, [r3]
 732              		.loc 3 254 8
 733 003e 7B68     		ldr	r3, [r7, #4]
 734 0040 0433     		adds	r3, r3, #4
 735 0042 7B60     		str	r3, [r7, #4]
 736              	.L25:
 737              		.loc 3 252 19
 738 0044 FB68     		ldr	r3, [r7, #12]
 739 0046 DB68     		ldr	r3, [r3, #12]
 740              		.loc 3 252 14
 741 0048 7A68     		ldr	r2, [r7, #4]
ARM GAS  C:\Users\DEVELO~1\AppData\Local\Temp\ccw2kwuK.s 			page 14


 742 004a 9A42     		cmp	r2, r3
 743 004c F4D3     		bcc	.L26
 744              		.loc 3 256 8
 745 004e FB68     		ldr	r3, [r7, #12]
 746 0050 1033     		adds	r3, r3, #16
 747 0052 FB60     		str	r3, [r7, #12]
 748              	.LBE70:
 749              		.loc 3 258 14
 750 0054 FB68     		ldr	r3, [r7, #12]
 751 0056 064A     		ldr	r2, .L28+4
 752 0058 9342     		cmp	r3, r2
 753 005a D6D3     		bcc	.L27
 754              		.loc 3 262 3
 755 005c FFF7FEFF 		bl	SCB_CleanDCache
 756              		.loc 3 263 3
 757 0060 FFF7FEFF 		bl	SCB_InvalidateICache
 758              		.loc 3 266 1
 759 0064 00BF     		nop
 760 0066 1037     		adds	r7, r7, #16
 761              		.cfi_def_cfa_offset 8
 762 0068 BD46     		mov	sp, r7
 763              		.cfi_def_cfa_register 13
 764              		@ sp needed
 765 006a 80BD     		pop	{r7, pc}
 766              	.L29:
 767              		.align	2
 768              	.L28:
 769 006c 00000000 		.word	ram_areas
 770 0070 80000000 		.word	ram_areas+128
 771              		.cfi_endproc
 772              	.LFE145:
 773              		.size	__init_ram_areas, .-__init_ram_areas
 774              		.text
 775              	.Letext0:
 776              		.file 4 "c:\\chibistudio\\tools\\gnu tools arm embedded\\11.3 2022.08\\arm-none-eabi\\include\\mac
 777              		.file 5 "c:\\chibistudio\\tools\\gnu tools arm embedded\\11.3 2022.08\\arm-none-eabi\\include\\sys
 778              		.section	.debug_info,"",%progbits
 779              	.Ldebug_info0:
 780 0000 02080000 		.4byte	0x802
 781 0004 0500     		.2byte	0x5
 782 0006 01       		.byte	0x1
 783 0007 04       		.byte	0x4
 784 0008 00000000 		.4byte	.Ldebug_abbrev0
 785 000c 13       		.uleb128 0x13
 786 000d 64000000 		.4byte	.LASF111
 787 0011 1D       		.byte	0x1d
 788 0012 DD010000 		.4byte	.LASF112
 789 0016 1D010000 		.4byte	.LASF113
 790 001a 0C000000 		.4byte	.LLRL0
 791 001e 00000000 		.4byte	0
 792 0022 00000000 		.4byte	.Ldebug_line0
 793 0026 05       		.uleb128 0x5
 794 0027 01       		.byte	0x1
 795 0028 06       		.byte	0x6
 796 0029 9A030000 		.4byte	.LASF0
 797 002d 0B       		.uleb128 0xb
 798 002e FD020000 		.4byte	.LASF5
ARM GAS  C:\Users\DEVELO~1\AppData\Local\Temp\ccw2kwuK.s 			page 15


 799 0032 04       		.byte	0x4
 800 0033 2B       		.byte	0x2b
 801 0034 18       		.byte	0x18
 802 0035 39000000 		.4byte	0x39
 803 0039 05       		.uleb128 0x5
 804 003a 01       		.byte	0x1
 805 003b 08       		.byte	0x8
 806 003c 75030000 		.4byte	.LASF1
 807 0040 05       		.uleb128 0x5
 808 0041 02       		.byte	0x2
 809 0042 05       		.byte	0x5
 810 0043 EF000000 		.4byte	.LASF2
 811 0047 05       		.uleb128 0x5
 812 0048 02       		.byte	0x2
 813 0049 07       		.byte	0x7
 814 004a 54040000 		.4byte	.LASF3
 815 004e 05       		.uleb128 0x5
 816 004f 04       		.byte	0x4
 817 0050 05       		.byte	0x5
 818 0051 D1020000 		.4byte	.LASF4
 819 0055 0B       		.uleb128 0xb
 820 0056 8A010000 		.4byte	.LASF6
 821 005a 04       		.byte	0x4
 822 005b 4F       		.byte	0x4f
 823 005c 19       		.byte	0x19
 824 005d 61000000 		.4byte	0x61
 825 0061 05       		.uleb128 0x5
 826 0062 04       		.byte	0x4
 827 0063 07       		.byte	0x7
 828 0064 E9030000 		.4byte	.LASF7
 829 0068 05       		.uleb128 0x5
 830 0069 08       		.byte	0x8
 831 006a 05       		.byte	0x5
 832 006b 84020000 		.4byte	.LASF8
 833 006f 05       		.uleb128 0x5
 834 0070 08       		.byte	0x8
 835 0071 07       		.byte	0x7
 836 0072 AB030000 		.4byte	.LASF9
 837 0076 14       		.uleb128 0x14
 838 0077 04       		.byte	0x4
 839 0078 05       		.byte	0x5
 840 0079 696E7400 		.ascii	"int\000"
 841 007d 05       		.uleb128 0x5
 842 007e 04       		.byte	0x4
 843 007f 07       		.byte	0x7
 844 0080 DC030000 		.4byte	.LASF10
 845 0084 0B       		.uleb128 0xb
 846 0085 14020000 		.4byte	.LASF11
 847 0089 05       		.byte	0x5
 848 008a 18       		.byte	0x18
 849 008b 13       		.byte	0x13
 850 008c 2D000000 		.4byte	0x2d
 851 0090 08       		.uleb128 0x8
 852 0091 84000000 		.4byte	0x84
 853 0095 0B       		.uleb128 0xb
 854 0096 CE010000 		.4byte	.LASF12
 855 009a 05       		.byte	0x5
ARM GAS  C:\Users\DEVELO~1\AppData\Local\Temp\ccw2kwuK.s 			page 16


 856 009b 30       		.byte	0x30
 857 009c 14       		.byte	0x14
 858 009d 55000000 		.4byte	0x55
 859 00a1 08       		.uleb128 0x8
 860 00a2 95000000 		.4byte	0x95
 861 00a6 09       		.uleb128 0x9
 862 00a7 A1000000 		.4byte	0xa1
 863 00ab 15       		.uleb128 0x15
 864 00ac AC02     		.2byte	0x2ac
 865 00ae 01       		.byte	0x1
 866 00af C701     		.2byte	0x1c7
 867 00b1 09       		.byte	0x9
 868 00b2 27030000 		.4byte	0x327
 869 00b6 03       		.uleb128 0x3
 870 00b7 C2010000 		.4byte	.LASF13
 871 00bb C901     		.2byte	0x1c9
 872 00bd A6000000 		.4byte	0xa6
 873 00c1 00       		.byte	0
 874 00c2 03       		.uleb128 0x3
 875 00c3 73020000 		.4byte	.LASF14
 876 00c7 CA01     		.2byte	0x1ca
 877 00c9 A1000000 		.4byte	0xa1
 878 00cd 04       		.byte	0x4
 879 00ce 03       		.uleb128 0x3
 880 00cf 48040000 		.4byte	.LASF15
 881 00d3 CB01     		.2byte	0x1cb
 882 00d5 A1000000 		.4byte	0xa1
 883 00d9 08       		.byte	0x8
 884 00da 03       		.uleb128 0x3
 885 00db 6F030000 		.4byte	.LASF16
 886 00df CC01     		.2byte	0x1cc
 887 00e1 A1000000 		.4byte	0xa1
 888 00e5 0C       		.byte	0xc
 889 00e6 0E       		.uleb128 0xe
 890 00e7 53435200 		.ascii	"SCR\000"
 891 00eb CD01     		.2byte	0x1cd
 892 00ed A1000000 		.4byte	0xa1
 893 00f1 10       		.byte	0x10
 894 00f2 0E       		.uleb128 0xe
 895 00f3 43435200 		.ascii	"CCR\000"
 896 00f7 CE01     		.2byte	0x1ce
 897 00f9 A1000000 		.4byte	0xa1
 898 00fd 14       		.byte	0x14
 899 00fe 03       		.uleb128 0x3
 900 00ff A6030000 		.4byte	.LASF17
 901 0103 CF01     		.2byte	0x1cf
 902 0105 37030000 		.4byte	0x337
 903 0109 18       		.byte	0x18
 904 010a 03       		.uleb128 0x3
 905 010b C2030000 		.4byte	.LASF18
 906 010f D001     		.2byte	0x1d0
 907 0111 A1000000 		.4byte	0xa1
 908 0115 24       		.byte	0x24
 909 0116 03       		.uleb128 0x3
 910 0117 1A030000 		.4byte	.LASF19
 911 011b D101     		.2byte	0x1d1
 912 011d A1000000 		.4byte	0xa1
ARM GAS  C:\Users\DEVELO~1\AppData\Local\Temp\ccw2kwuK.s 			page 17


 913 0121 28       		.byte	0x28
 914 0122 03       		.uleb128 0x3
 915 0123 96040000 		.4byte	.LASF20
 916 0127 D201     		.2byte	0x1d2
 917 0129 A1000000 		.4byte	0xa1
 918 012d 2C       		.byte	0x2c
 919 012e 03       		.uleb128 0x3
 920 012f 67040000 		.4byte	.LASF21
 921 0133 D301     		.2byte	0x1d3
 922 0135 A1000000 		.4byte	0xa1
 923 0139 30       		.byte	0x30
 924 013a 03       		.uleb128 0x3
 925 013b 06040000 		.4byte	.LASF22
 926 013f D401     		.2byte	0x1d4
 927 0141 A1000000 		.4byte	0xa1
 928 0145 34       		.byte	0x34
 929 0146 03       		.uleb128 0x3
 930 0147 AE020000 		.4byte	.LASF23
 931 014b D501     		.2byte	0x1d5
 932 014d A1000000 		.4byte	0xa1
 933 0151 38       		.byte	0x38
 934 0152 03       		.uleb128 0x3
 935 0153 7D050000 		.4byte	.LASF24
 936 0157 D601     		.2byte	0x1d6
 937 0159 A1000000 		.4byte	0xa1
 938 015d 3C       		.byte	0x3c
 939 015e 03       		.uleb128 0x3
 940 015f 8F040000 		.4byte	.LASF25
 941 0163 D701     		.2byte	0x1d7
 942 0165 51030000 		.4byte	0x351
 943 0169 40       		.byte	0x40
 944 016a 03       		.uleb128 0x3
 945 016b 9E010000 		.4byte	.LASF26
 946 016f D801     		.2byte	0x1d8
 947 0171 A6000000 		.4byte	0xa6
 948 0175 48       		.byte	0x48
 949 0176 03       		.uleb128 0x3
 950 0177 49020000 		.4byte	.LASF27
 951 017b D901     		.2byte	0x1d9
 952 017d A6000000 		.4byte	0xa6
 953 0181 4C       		.byte	0x4c
 954 0182 03       		.uleb128 0x3
 955 0183 76050000 		.4byte	.LASF28
 956 0187 DA01     		.2byte	0x1da
 957 0189 6B030000 		.4byte	0x36b
 958 018d 50       		.byte	0x50
 959 018e 03       		.uleb128 0x3
 960 018f 58030000 		.4byte	.LASF29
 961 0193 DB01     		.2byte	0x1db
 962 0195 85030000 		.4byte	0x385
 963 0199 60       		.byte	0x60
 964 019a 03       		.uleb128 0x3
 965 019b B5040000 		.4byte	.LASF30
 966 019f DC01     		.2byte	0x1dc
 967 01a1 8A030000 		.4byte	0x38a
 968 01a5 74       		.byte	0x74
 969 01a6 03       		.uleb128 0x3
ARM GAS  C:\Users\DEVELO~1\AppData\Local\Temp\ccw2kwuK.s 			page 18


 970 01a7 3E020000 		.4byte	.LASF31
 971 01ab DD01     		.2byte	0x1dd
 972 01ad A6000000 		.4byte	0xa6
 973 01b1 78       		.byte	0x78
 974 01b2 0E       		.uleb128 0xe
 975 01b3 43545200 		.ascii	"CTR\000"
 976 01b7 DE01     		.2byte	0x1de
 977 01b9 A6000000 		.4byte	0xa6
 978 01bd 7C       		.byte	0x7c
 979 01be 03       		.uleb128 0x3
 980 01bf F6020000 		.4byte	.LASF32
 981 01c3 DF01     		.2byte	0x1df
 982 01c5 A6000000 		.4byte	0xa6
 983 01c9 80       		.byte	0x80
 984 01ca 03       		.uleb128 0x3
 985 01cb 2A040000 		.4byte	.LASF33
 986 01cf E001     		.2byte	0x1e0
 987 01d1 A1000000 		.4byte	0xa1
 988 01d5 84       		.byte	0x84
 989 01d6 03       		.uleb128 0x3
 990 01d7 B5050000 		.4byte	.LASF34
 991 01db E101     		.2byte	0x1e1
 992 01dd A1000000 		.4byte	0xa1
 993 01e1 88       		.byte	0x88
 994 01e2 03       		.uleb128 0x3
 995 01e3 CE040000 		.4byte	.LASF35
 996 01e7 E201     		.2byte	0x1e2
 997 01e9 9A030000 		.4byte	0x39a
 998 01ed 8C       		.byte	0x8c
 999 01ee 02       		.uleb128 0x2
 1000 01ef 44020000 		.4byte	.LASF36
 1001 01f3 E301     		.2byte	0x1e3
 1002 01f5 A1000000 		.4byte	0xa1
 1003 01f9 0002     		.2byte	0x200
 1004 01fb 02       		.uleb128 0x2
 1005 01fc D8040000 		.4byte	.LASF37
 1006 0200 E401     		.2byte	0x1e4
 1007 0202 AA030000 		.4byte	0x3aa
 1008 0206 0402     		.2byte	0x204
 1009 0208 02       		.uleb128 0x2
 1010 0209 C8010000 		.4byte	.LASF38
 1011 020d E501     		.2byte	0x1e5
 1012 020f A6000000 		.4byte	0xa6
 1013 0213 4002     		.2byte	0x240
 1014 0215 02       		.uleb128 0x2
 1015 0216 D7010000 		.4byte	.LASF39
 1016 021a E601     		.2byte	0x1e6
 1017 021c A6000000 		.4byte	0xa6
 1018 0220 4402     		.2byte	0x244
 1019 0222 02       		.uleb128 0x2
 1020 0223 78020000 		.4byte	.LASF40
 1021 0227 E701     		.2byte	0x1e7
 1022 0229 A6000000 		.4byte	0xa6
 1023 022d 4802     		.2byte	0x248
 1024 022f 02       		.uleb128 0x2
 1025 0230 E2040000 		.4byte	.LASF41
 1026 0234 E801     		.2byte	0x1e8
ARM GAS  C:\Users\DEVELO~1\AppData\Local\Temp\ccw2kwuK.s 			page 19


 1027 0236 8A030000 		.4byte	0x38a
 1028 023a 4C02     		.2byte	0x24c
 1029 023c 02       		.uleb128 0x2
 1030 023d 2E030000 		.4byte	.LASF42
 1031 0241 E901     		.2byte	0x1e9
 1032 0243 A1000000 		.4byte	0xa1
 1033 0247 5002     		.2byte	0x250
 1034 0249 02       		.uleb128 0x2
 1035 024a 2A020000 		.4byte	.LASF43
 1036 024e EA01     		.2byte	0x1ea
 1037 0250 8A030000 		.4byte	0x38a
 1038 0254 5402     		.2byte	0x254
 1039 0256 02       		.uleb128 0x2
 1040 0257 30000000 		.4byte	.LASF44
 1041 025b EB01     		.2byte	0x1eb
 1042 025d A1000000 		.4byte	0xa1
 1043 0261 5802     		.2byte	0x258
 1044 0263 02       		.uleb128 0x2
 1045 0264 36030000 		.4byte	.LASF45
 1046 0268 EC01     		.2byte	0x1ec
 1047 026a A1000000 		.4byte	0xa1
 1048 026e 5C02     		.2byte	0x25c
 1049 0270 02       		.uleb128 0x2
 1050 0271 6D020000 		.4byte	.LASF46
 1051 0275 ED01     		.2byte	0x1ed
 1052 0277 A1000000 		.4byte	0xa1
 1053 027b 6002     		.2byte	0x260
 1054 027d 02       		.uleb128 0x2
 1055 027e 40040000 		.4byte	.LASF47
 1056 0282 EE01     		.2byte	0x1ee
 1057 0284 A1000000 		.4byte	0xa1
 1058 0288 6402     		.2byte	0x264
 1059 028a 02       		.uleb128 0x2
 1060 028b 92030000 		.4byte	.LASF48
 1061 028f EF01     		.2byte	0x1ef
 1062 0291 A1000000 		.4byte	0xa1
 1063 0295 6802     		.2byte	0x268
 1064 0297 02       		.uleb128 0x2
 1065 0298 09000000 		.4byte	.LASF49
 1066 029c F001     		.2byte	0x1f0
 1067 029e A1000000 		.4byte	0xa1
 1068 02a2 6C02     		.2byte	0x26c
 1069 02a4 02       		.uleb128 0x2
 1070 02a5 95010000 		.4byte	.LASF50
 1071 02a9 F101     		.2byte	0x1f1
 1072 02ab A1000000 		.4byte	0xa1
 1073 02af 7002     		.2byte	0x270
 1074 02b1 02       		.uleb128 0x2
 1075 02b2 13050000 		.4byte	.LASF51
 1076 02b6 F201     		.2byte	0x1f2
 1077 02b8 A1000000 		.4byte	0xa1
 1078 02bc 7402     		.2byte	0x274
 1079 02be 02       		.uleb128 0x2
 1080 02bf FF040000 		.4byte	.LASF52
 1081 02c3 F301     		.2byte	0x1f3
 1082 02c5 BA030000 		.4byte	0x3ba
 1083 02c9 7802     		.2byte	0x278
ARM GAS  C:\Users\DEVELO~1\AppData\Local\Temp\ccw2kwuK.s 			page 20


 1084 02cb 02       		.uleb128 0x2
 1085 02cc 3E030000 		.4byte	.LASF53
 1086 02d0 F401     		.2byte	0x1f4
 1087 02d2 A1000000 		.4byte	0xa1
 1088 02d6 9002     		.2byte	0x290
 1089 02d8 02       		.uleb128 0x2
 1090 02d9 DA050000 		.4byte	.LASF54
 1091 02dd F501     		.2byte	0x1f5
 1092 02df A1000000 		.4byte	0xa1
 1093 02e3 9402     		.2byte	0x294
 1094 02e5 02       		.uleb128 0x2
 1095 02e6 B5010000 		.4byte	.LASF55
 1096 02ea F601     		.2byte	0x1f6
 1097 02ec A1000000 		.4byte	0xa1
 1098 02f0 9802     		.2byte	0x298
 1099 02f2 02       		.uleb128 0x2
 1100 02f3 B0040000 		.4byte	.LASF56
 1101 02f7 F701     		.2byte	0x1f7
 1102 02f9 A1000000 		.4byte	0xa1
 1103 02fd 9C02     		.2byte	0x29c
 1104 02ff 02       		.uleb128 0x2
 1105 0300 39050000 		.4byte	.LASF57
 1106 0304 F801     		.2byte	0x1f8
 1107 0306 A1000000 		.4byte	0xa1
 1108 030a A002     		.2byte	0x2a0
 1109 030c 02       		.uleb128 0x2
 1110 030d 09050000 		.4byte	.LASF58
 1111 0311 F901     		.2byte	0x1f9
 1112 0313 8A030000 		.4byte	0x38a
 1113 0317 A402     		.2byte	0x2a4
 1114 0319 02       		.uleb128 0x2
 1115 031a 7E020000 		.4byte	.LASF59
 1116 031e FA01     		.2byte	0x1fa
 1117 0320 A1000000 		.4byte	0xa1
 1118 0324 A802     		.2byte	0x2a8
 1119 0326 00       		.byte	0
 1120 0327 06       		.uleb128 0x6
 1121 0328 90000000 		.4byte	0x90
 1122 032c 37030000 		.4byte	0x337
 1123 0330 07       		.uleb128 0x7
 1124 0331 7D000000 		.4byte	0x7d
 1125 0335 0B       		.byte	0xb
 1126 0336 00       		.byte	0
 1127 0337 08       		.uleb128 0x8
 1128 0338 27030000 		.4byte	0x327
 1129 033c 06       		.uleb128 0x6
 1130 033d A6000000 		.4byte	0xa6
 1131 0341 4C030000 		.4byte	0x34c
 1132 0345 07       		.uleb128 0x7
 1133 0346 7D000000 		.4byte	0x7d
 1134 034a 01       		.byte	0x1
 1135 034b 00       		.byte	0
 1136 034c 09       		.uleb128 0x9
 1137 034d 3C030000 		.4byte	0x33c
 1138 0351 08       		.uleb128 0x8
 1139 0352 4C030000 		.4byte	0x34c
 1140 0356 06       		.uleb128 0x6
ARM GAS  C:\Users\DEVELO~1\AppData\Local\Temp\ccw2kwuK.s 			page 21


 1141 0357 A6000000 		.4byte	0xa6
 1142 035b 66030000 		.4byte	0x366
 1143 035f 07       		.uleb128 0x7
 1144 0360 7D000000 		.4byte	0x7d
 1145 0364 03       		.byte	0x3
 1146 0365 00       		.byte	0
 1147 0366 09       		.uleb128 0x9
 1148 0367 56030000 		.4byte	0x356
 1149 036b 08       		.uleb128 0x8
 1150 036c 66030000 		.4byte	0x366
 1151 0370 06       		.uleb128 0x6
 1152 0371 A6000000 		.4byte	0xa6
 1153 0375 80030000 		.4byte	0x380
 1154 0379 07       		.uleb128 0x7
 1155 037a 7D000000 		.4byte	0x7d
 1156 037e 04       		.byte	0x4
 1157 037f 00       		.byte	0
 1158 0380 09       		.uleb128 0x9
 1159 0381 70030000 		.4byte	0x370
 1160 0385 08       		.uleb128 0x8
 1161 0386 80030000 		.4byte	0x380
 1162 038a 06       		.uleb128 0x6
 1163 038b 95000000 		.4byte	0x95
 1164 038f 9A030000 		.4byte	0x39a
 1165 0393 07       		.uleb128 0x7
 1166 0394 7D000000 		.4byte	0x7d
 1167 0398 00       		.byte	0
 1168 0399 00       		.byte	0
 1169 039a 06       		.uleb128 0x6
 1170 039b 95000000 		.4byte	0x95
 1171 039f AA030000 		.4byte	0x3aa
 1172 03a3 07       		.uleb128 0x7
 1173 03a4 7D000000 		.4byte	0x7d
 1174 03a8 5C       		.byte	0x5c
 1175 03a9 00       		.byte	0
 1176 03aa 06       		.uleb128 0x6
 1177 03ab 95000000 		.4byte	0x95
 1178 03af BA030000 		.4byte	0x3ba
 1179 03b3 07       		.uleb128 0x7
 1180 03b4 7D000000 		.4byte	0x7d
 1181 03b8 0E       		.byte	0xe
 1182 03b9 00       		.byte	0
 1183 03ba 06       		.uleb128 0x6
 1184 03bb 95000000 		.4byte	0x95
 1185 03bf CA030000 		.4byte	0x3ca
 1186 03c3 07       		.uleb128 0x7
 1187 03c4 7D000000 		.4byte	0x7d
 1188 03c8 05       		.byte	0x5
 1189 03c9 00       		.byte	0
 1190 03ca 16       		.uleb128 0x16
 1191 03cb 00000000 		.4byte	.LASF60
 1192 03cf 01       		.byte	0x1
 1193 03d0 FB01     		.2byte	0x1fb
 1194 03d2 03       		.byte	0x3
 1195 03d3 AB000000 		.4byte	0xab
 1196 03d7 17       		.uleb128 0x17
 1197 03d8 10       		.byte	0x10
ARM GAS  C:\Users\DEVELO~1\AppData\Local\Temp\ccw2kwuK.s 			page 22


 1198 03d9 03       		.byte	0x3
 1199 03da 39       		.byte	0x39
 1200 03db 09       		.byte	0x9
 1201 03dc 0D040000 		.4byte	0x40d
 1202 03e0 0C       		.uleb128 0xc
 1203 03e1 FE050000 		.4byte	.LASF61
 1204 03e5 3A       		.byte	0x3a
 1205 03e6 0D040000 		.4byte	0x40d
 1206 03ea 00       		.byte	0
 1207 03eb 0C       		.uleb128 0xc
 1208 03ec F4050000 		.4byte	.LASF62
 1209 03f0 3B       		.byte	0x3b
 1210 03f1 0D040000 		.4byte	0x40d
 1211 03f5 04       		.byte	0x4
 1212 03f6 0C       		.uleb128 0xc
 1213 03f7 59000000 		.4byte	.LASF63
 1214 03fb 3C       		.byte	0x3c
 1215 03fc 0D040000 		.4byte	0x40d
 1216 0400 08       		.byte	0x8
 1217 0401 0C       		.uleb128 0xc
 1218 0402 A1020000 		.4byte	.LASF64
 1219 0406 3D       		.byte	0x3d
 1220 0407 0D040000 		.4byte	0x40d
 1221 040b 0C       		.byte	0xc
 1222 040c 00       		.byte	0
 1223 040d 10       		.uleb128 0x10
 1224 040e 95000000 		.4byte	0x95
 1225 0412 0B       		.uleb128 0xb
 1226 0413 B3020000 		.4byte	.LASF65
 1227 0417 03       		.byte	0x3
 1228 0418 3E       		.byte	0x3e
 1229 0419 03       		.byte	0x3
 1230 041a D7030000 		.4byte	0x3d7
 1231 041e 09       		.uleb128 0x9
 1232 041f 12040000 		.4byte	0x412
 1233 0423 01       		.uleb128 0x1
 1234 0424 6C040000 		.4byte	.LASF66
 1235 0428 45       		.byte	0x45
 1236 0429 11       		.byte	0x11
 1237 042a 95000000 		.4byte	0x95
 1238 042e 01       		.uleb128 0x1
 1239 042f 22000000 		.4byte	.LASF67
 1240 0433 45       		.byte	0x45
 1241 0434 25       		.byte	0x25
 1242 0435 95000000 		.4byte	0x95
 1243 0439 01       		.uleb128 0x1
 1244 043a BF040000 		.4byte	.LASF68
 1245 043e 45       		.byte	0x45
 1246 043f 34       		.byte	0x34
 1247 0440 95000000 		.4byte	0x95
 1248 0444 01       		.uleb128 0x1
 1249 0445 A0040000 		.4byte	.LASF69
 1250 0449 45       		.byte	0x45
 1251 044a 44       		.byte	0x44
 1252 044b 95000000 		.4byte	0x95
 1253 044f 01       		.uleb128 0x1
 1254 0450 45030000 		.4byte	.LASF70
ARM GAS  C:\Users\DEVELO~1\AppData\Local\Temp\ccw2kwuK.s 			page 23


 1255 0454 48       		.byte	0x48
 1256 0455 11       		.byte	0x11
 1257 0456 95000000 		.4byte	0x95
 1258 045a 01       		.uleb128 0x1
 1259 045b C3020000 		.4byte	.LASF71
 1260 045f 48       		.byte	0x48
 1261 0460 25       		.byte	0x25
 1262 0461 95000000 		.4byte	0x95
 1263 0465 01       		.uleb128 0x1
 1264 0466 2A050000 		.4byte	.LASF72
 1265 046a 48       		.byte	0x48
 1266 046b 34       		.byte	0x34
 1267 046c 95000000 		.4byte	0x95
 1268 0470 01       		.uleb128 0x1
 1269 0471 66050000 		.4byte	.LASF73
 1270 0475 48       		.byte	0x48
 1271 0476 44       		.byte	0x44
 1272 0477 95000000 		.4byte	0x95
 1273 047b 01       		.uleb128 0x1
 1274 047c F9000000 		.4byte	.LASF74
 1275 0480 4B       		.byte	0x4b
 1276 0481 11       		.byte	0x11
 1277 0482 95000000 		.4byte	0x95
 1278 0486 01       		.uleb128 0x1
 1279 0487 7C010000 		.4byte	.LASF75
 1280 048b 4B       		.byte	0x4b
 1281 048c 25       		.byte	0x25
 1282 048d 95000000 		.4byte	0x95
 1283 0491 01       		.uleb128 0x1
 1284 0492 1F030000 		.4byte	.LASF76
 1285 0496 4B       		.byte	0x4b
 1286 0497 34       		.byte	0x34
 1287 0498 95000000 		.4byte	0x95
 1288 049c 01       		.uleb128 0x1
 1289 049d 5D020000 		.4byte	.LASF77
 1290 04a1 4B       		.byte	0x4b
 1291 04a2 44       		.byte	0x44
 1292 04a3 95000000 		.4byte	0x95
 1293 04a7 01       		.uleb128 0x1
 1294 04a8 E1050000 		.4byte	.LASF78
 1295 04ac 4E       		.byte	0x4e
 1296 04ad 11       		.byte	0x11
 1297 04ae 95000000 		.4byte	0x95
 1298 04b2 01       		.uleb128 0x1
 1299 04b3 38000000 		.4byte	.LASF79
 1300 04b7 4E       		.byte	0x4e
 1301 04b8 25       		.byte	0x25
 1302 04b9 95000000 		.4byte	0x95
 1303 04bd 01       		.uleb128 0x1
 1304 04be 60030000 		.4byte	.LASF80
 1305 04c2 4E       		.byte	0x4e
 1306 04c3 34       		.byte	0x34
 1307 04c4 95000000 		.4byte	0x95
 1308 04c8 01       		.uleb128 0x1
 1309 04c9 A5010000 		.4byte	.LASF81
 1310 04cd 4E       		.byte	0x4e
 1311 04ce 44       		.byte	0x44
ARM GAS  C:\Users\DEVELO~1\AppData\Local\Temp\ccw2kwuK.s 			page 24


 1312 04cf 95000000 		.4byte	0x95
 1313 04d3 01       		.uleb128 0x1
 1314 04d4 EC040000 		.4byte	.LASF82
 1315 04d8 51       		.byte	0x51
 1316 04d9 11       		.byte	0x11
 1317 04da 95000000 		.4byte	0x95
 1318 04de 01       		.uleb128 0x1
 1319 04df 82050000 		.4byte	.LASF83
 1320 04e3 51       		.byte	0x51
 1321 04e4 25       		.byte	0x25
 1322 04e5 95000000 		.4byte	0x95
 1323 04e9 01       		.uleb128 0x1
 1324 04ea 83030000 		.4byte	.LASF84
 1325 04ee 51       		.byte	0x51
 1326 04ef 34       		.byte	0x34
 1327 04f0 95000000 		.4byte	0x95
 1328 04f4 01       		.uleb128 0x1
 1329 04f5 0C040000 		.4byte	.LASF85
 1330 04f9 51       		.byte	0x51
 1331 04fa 44       		.byte	0x44
 1332 04fb 95000000 		.4byte	0x95
 1333 04ff 01       		.uleb128 0x1
 1334 0500 0F000000 		.4byte	.LASF86
 1335 0504 54       		.byte	0x54
 1336 0505 11       		.byte	0x11
 1337 0506 95000000 		.4byte	0x95
 1338 050a 01       		.uleb128 0x1
 1339 050b 1C020000 		.4byte	.LASF87
 1340 050f 54       		.byte	0x54
 1341 0510 25       		.byte	0x25
 1342 0511 95000000 		.4byte	0x95
 1343 0515 01       		.uleb128 0x1
 1344 0516 C8030000 		.4byte	.LASF88
 1345 051a 54       		.byte	0x54
 1346 051b 34       		.byte	0x34
 1347 051c 95000000 		.4byte	0x95
 1348 0520 01       		.uleb128 0x1
 1349 0521 7F040000 		.4byte	.LASF89
 1350 0525 54       		.byte	0x54
 1351 0526 44       		.byte	0x44
 1352 0527 95000000 		.4byte	0x95
 1353 052b 01       		.uleb128 0x1
 1354 052c 07030000 		.4byte	.LASF90
 1355 0530 57       		.byte	0x57
 1356 0531 11       		.byte	0x11
 1357 0532 95000000 		.4byte	0x95
 1358 0536 01       		.uleb128 0x1
 1359 0537 1C040000 		.4byte	.LASF91
 1360 053b 57       		.byte	0x57
 1361 053c 25       		.byte	0x25
 1362 053d 95000000 		.4byte	0x95
 1363 0541 01       		.uleb128 0x1
 1364 0542 BB050000 		.4byte	.LASF92
 1365 0546 57       		.byte	0x57
 1366 0547 34       		.byte	0x34
 1367 0548 95000000 		.4byte	0x95
 1368 054c 01       		.uleb128 0x1
ARM GAS  C:\Users\DEVELO~1\AppData\Local\Temp\ccw2kwuK.s 			page 25


 1369 054d E6020000 		.4byte	.LASF93
 1370 0551 57       		.byte	0x57
 1371 0552 44       		.byte	0x44
 1372 0553 95000000 		.4byte	0x95
 1373 0557 01       		.uleb128 0x1
 1374 0558 46000000 		.4byte	.LASF94
 1375 055c 5A       		.byte	0x5a
 1376 055d 11       		.byte	0x11
 1377 055e 95000000 		.4byte	0x95
 1378 0562 01       		.uleb128 0x1
 1379 0563 A1050000 		.4byte	.LASF95
 1380 0567 5A       		.byte	0x5a
 1381 0568 25       		.byte	0x25
 1382 0569 95000000 		.4byte	0x95
 1383 056d 01       		.uleb128 0x1
 1384 056e 31040000 		.4byte	.LASF96
 1385 0572 5A       		.byte	0x5a
 1386 0573 34       		.byte	0x34
 1387 0574 95000000 		.4byte	0x95
 1388 0578 01       		.uleb128 0x1
 1389 0579 1A050000 		.4byte	.LASF97
 1390 057d 5A       		.byte	0x5a
 1391 057e 44       		.byte	0x44
 1392 057f 95000000 		.4byte	0x95
 1393 0583 06       		.uleb128 0x6
 1394 0584 1E040000 		.4byte	0x41e
 1395 0588 93050000 		.4byte	0x593
 1396 058c 07       		.uleb128 0x7
 1397 058d 7D000000 		.4byte	0x7d
 1398 0591 07       		.byte	0x7
 1399 0592 00       		.byte	0
 1400 0593 09       		.uleb128 0x9
 1401 0594 83050000 		.4byte	0x583
 1402 0598 18       		.uleb128 0x18
 1403 0599 34020000 		.4byte	.LASF98
 1404 059d 03       		.byte	0x3
 1405 059e 61       		.byte	0x61
 1406 059f 1E       		.byte	0x1e
 1407 05a0 93050000 		.4byte	0x593
 1408 05a4 05       		.uleb128 0x5
 1409 05a5 03       		.byte	0x3
 1410 05a6 00000000 		.4byte	ram_areas
 1411 05aa 19       		.uleb128 0x19
 1412 05ab 0C010000 		.4byte	.LASF114
 1413 05af 03       		.byte	0x3
 1414 05b0 EC       		.byte	0xec
 1415 05b1 06       		.byte	0x6
 1416 05b2 00000000 		.4byte	.LFB145
 1417 05b6 74000000 		.4byte	.LFE145-.LFB145
 1418 05ba 01       		.uleb128 0x1
 1419 05bb 9C       		.byte	0x9c
 1420 05bc F2050000 		.4byte	0x5f2
 1421 05c0 0F       		.uleb128 0xf
 1422 05c1 72617000 		.ascii	"rap\000"
 1423 05c5 EE       		.byte	0xee
 1424 05c6 1A       		.byte	0x1a
 1425 05c7 F2050000 		.4byte	0x5f2
ARM GAS  C:\Users\DEVELO~1\AppData\Local\Temp\ccw2kwuK.s 			page 26


 1426 05cb 02       		.uleb128 0x2
 1427 05cc 91       		.byte	0x91
 1428 05cd 74       		.sleb128 -12
 1429 05ce 1A       		.uleb128 0x1a
 1430 05cf 0A000000 		.4byte	.LBB70
 1431 05d3 4A000000 		.4byte	.LBE70-.LBB70
 1432 05d7 0F       		.uleb128 0xf
 1433 05d8 747000   		.ascii	"tp\000"
 1434 05db F1       		.byte	0xf1
 1435 05dc 0F       		.byte	0xf
 1436 05dd 0D040000 		.4byte	0x40d
 1437 05e1 02       		.uleb128 0x2
 1438 05e2 91       		.byte	0x91
 1439 05e3 70       		.sleb128 -16
 1440 05e4 0F       		.uleb128 0xf
 1441 05e5 7000     		.ascii	"p\000"
 1442 05e7 F2       		.byte	0xf2
 1443 05e8 0F       		.byte	0xf
 1444 05e9 0D040000 		.4byte	0x40d
 1445 05ed 02       		.uleb128 0x2
 1446 05ee 91       		.byte	0x91
 1447 05ef 6C       		.sleb128 -20
 1448 05f0 00       		.byte	0
 1449 05f1 00       		.byte	0
 1450 05f2 10       		.uleb128 0x10
 1451 05f3 1E040000 		.4byte	0x41e
 1452 05f7 1B       		.uleb128 0x1b
 1453 05f8 92020000 		.4byte	.LASF115
 1454 05fc 03       		.byte	0x3
 1455 05fd BB       		.byte	0xbb
 1456 05fe 06       		.byte	0x6
 1457 05ff 00000000 		.4byte	.LFB144
 1458 0603 06000000 		.4byte	.LFE144-.LFB144
 1459 0607 01       		.uleb128 0x1
 1460 0608 9C       		.byte	0x9c
 1461 0609 11       		.uleb128 0x11
 1462 060a DA020000 		.4byte	.LASF99
 1463 060e AE       		.byte	0xae
 1464 060f 00000000 		.4byte	.LFB143
 1465 0613 0C000000 		.4byte	.LFE143-.LFB143
 1466 0617 01       		.uleb128 0x1
 1467 0618 9C       		.byte	0x9c
 1468 0619 11       		.uleb128 0x11
 1469 061a 50020000 		.4byte	.LASF100
 1470 061e A0       		.byte	0xa0
 1471 061f 00000000 		.4byte	.LFB142
 1472 0623 0C000000 		.4byte	.LFE142-.LFB142
 1473 0627 01       		.uleb128 0x1
 1474 0628 9C       		.byte	0x9c
 1475 0629 1C       		.uleb128 0x1c
 1476 062a FB030000 		.4byte	.LASF101
 1477 062e 03       		.byte	0x3
 1478 062f 8D       		.byte	0x8d
 1479 0630 06       		.byte	0x6
 1480 0631 00000000 		.4byte	.LFB141
 1481 0635 10000000 		.4byte	.LFE141-.LFB141
 1482 0639 01       		.uleb128 0x1
ARM GAS  C:\Users\DEVELO~1\AppData\Local\Temp\ccw2kwuK.s 			page 27


 1483 063a 9C       		.byte	0x9c
 1484 063b 0D       		.uleb128 0xd
 1485 063c CA050000 		.4byte	.LASF105
 1486 0640 5809     		.2byte	0x958
 1487 0642 00000000 		.4byte	.LFB132
 1488 0646 74000000 		.4byte	.LFE132-.LFB132
 1489 064a 01       		.uleb128 0x1
 1490 064b 9C       		.byte	0x9c
 1491 064c AB060000 		.4byte	0x6ab
 1492 0650 0A       		.uleb128 0xa
 1493 0651 4D040000 		.4byte	.LASF102
 1494 0655 5B09     		.2byte	0x95b
 1495 0657 95000000 		.4byte	0x95
 1496 065b 02       		.uleb128 0x2
 1497 065c 91       		.byte	0x91
 1498 065d 6C       		.sleb128 -20
 1499 065e 0A       		.uleb128 0xa
 1500 065f 9B040000 		.4byte	.LASF103
 1501 0663 5C09     		.2byte	0x95c
 1502 0665 95000000 		.4byte	0x95
 1503 0669 02       		.uleb128 0x2
 1504 066a 91       		.byte	0x91
 1505 066b 74       		.sleb128 -12
 1506 066c 0A       		.uleb128 0xa
 1507 066d D7030000 		.4byte	.LASF104
 1508 0671 5D09     		.2byte	0x95d
 1509 0673 95000000 		.4byte	0x95
 1510 0677 02       		.uleb128 0x2
 1511 0678 91       		.byte	0x91
 1512 0679 70       		.sleb128 -16
 1513 067a 04       		.uleb128 0x4
 1514 067b F7070000 		.4byte	0x7f7
 1515 067f 0E000000 		.4byte	.LBB64
 1516 0683 06000000 		.4byte	.LBE64-.LBB64
 1517 0687 6009     		.2byte	0x960
 1518 0689 04       		.byte	0x4
 1519 068a 04       		.uleb128 0x4
 1520 068b F7070000 		.4byte	0x7f7
 1521 068f 5A000000 		.4byte	.LBB66
 1522 0693 06000000 		.4byte	.LBE66-.LBB66
 1523 0697 7109     		.2byte	0x971
 1524 0699 05       		.byte	0x5
 1525 069a 04       		.uleb128 0x4
 1526 069b FE070000 		.4byte	0x7fe
 1527 069f 60000000 		.4byte	.LBB68
 1528 06a3 06000000 		.4byte	.LBE68-.LBB68
 1529 06a7 7209     		.2byte	0x972
 1530 06a9 05       		.byte	0x5
 1531 06aa 00       		.byte	0
 1532 06ab 0D       		.uleb128 0xd
 1533 06ac 90050000 		.4byte	.LASF106
 1534 06b0 E908     		.2byte	0x8e9
 1535 06b2 00000000 		.4byte	.LFB129
 1536 06b6 88000000 		.4byte	.LFE129-.LFB129
 1537 06ba 01       		.uleb128 0x1
 1538 06bb 9C       		.byte	0x9c
 1539 06bc 2B070000 		.4byte	0x72b
ARM GAS  C:\Users\DEVELO~1\AppData\Local\Temp\ccw2kwuK.s 			page 28


 1540 06c0 0A       		.uleb128 0xa
 1541 06c1 4D040000 		.4byte	.LASF102
 1542 06c5 EC08     		.2byte	0x8ec
 1543 06c7 95000000 		.4byte	0x95
 1544 06cb 02       		.uleb128 0x2
 1545 06cc 91       		.byte	0x91
 1546 06cd 6C       		.sleb128 -20
 1547 06ce 0A       		.uleb128 0xa
 1548 06cf 9B040000 		.4byte	.LASF103
 1549 06d3 ED08     		.2byte	0x8ed
 1550 06d5 95000000 		.4byte	0x95
 1551 06d9 02       		.uleb128 0x2
 1552 06da 91       		.byte	0x91
 1553 06db 74       		.sleb128 -12
 1554 06dc 0A       		.uleb128 0xa
 1555 06dd D7030000 		.4byte	.LASF104
 1556 06e1 EE08     		.2byte	0x8ee
 1557 06e3 95000000 		.4byte	0x95
 1558 06e7 02       		.uleb128 0x2
 1559 06e8 91       		.byte	0x91
 1560 06e9 70       		.sleb128 -16
 1561 06ea 04       		.uleb128 0x4
 1562 06eb F7070000 		.4byte	0x7f7
 1563 06ef 0E000000 		.4byte	.LBB56
 1564 06f3 06000000 		.4byte	.LBE56-.LBB56
 1565 06f7 F108     		.2byte	0x8f1
 1566 06f9 05       		.byte	0x5
 1567 06fa 04       		.uleb128 0x4
 1568 06fb F7070000 		.4byte	0x7f7
 1569 06ff 5A000000 		.4byte	.LBB58
 1570 0703 06000000 		.4byte	.LBE58-.LBB58
 1571 0707 0109     		.2byte	0x901
 1572 0709 05       		.byte	0x5
 1573 070a 04       		.uleb128 0x4
 1574 070b F7070000 		.4byte	0x7f7
 1575 070f 6C000000 		.4byte	.LBB60
 1576 0713 06000000 		.4byte	.LBE60-.LBB60
 1577 0717 0509     		.2byte	0x905
 1578 0719 05       		.byte	0x5
 1579 071a 04       		.uleb128 0x4
 1580 071b FE070000 		.4byte	0x7fe
 1581 071f 72000000 		.4byte	.LBB62
 1582 0723 06000000 		.4byte	.LBE62-.LBB62
 1583 0727 0609     		.2byte	0x906
 1584 0729 05       		.byte	0x5
 1585 072a 00       		.byte	0
 1586 072b 0D       		.uleb128 0xd
 1587 072c 51050000 		.4byte	.LASF107
 1588 0730 D908     		.2byte	0x8d9
 1589 0732 00000000 		.4byte	.LFB128
 1590 0736 30000000 		.4byte	.LFE128-.LFB128
 1591 073a 01       		.uleb128 0x1
 1592 073b 9C       		.byte	0x9c
 1593 073c 81070000 		.4byte	0x781
 1594 0740 04       		.uleb128 0x4
 1595 0741 F7070000 		.4byte	0x7f7
 1596 0745 04000000 		.4byte	.LBB48
ARM GAS  C:\Users\DEVELO~1\AppData\Local\Temp\ccw2kwuK.s 			page 29


 1597 0749 06000000 		.4byte	.LBE48-.LBB48
 1598 074d DC08     		.2byte	0x8dc
 1599 074f 05       		.byte	0x5
 1600 0750 04       		.uleb128 0x4
 1601 0751 FE070000 		.4byte	0x7fe
 1602 0755 0A000000 		.4byte	.LBB50
 1603 0759 06000000 		.4byte	.LBE50-.LBB50
 1604 075d DD08     		.2byte	0x8dd
 1605 075f 05       		.byte	0x5
 1606 0760 04       		.uleb128 0x4
 1607 0761 F7070000 		.4byte	0x7f7
 1608 0765 18000000 		.4byte	.LBB52
 1609 0769 06000000 		.4byte	.LBE52-.LBB52
 1610 076d DF08     		.2byte	0x8df
 1611 076f 05       		.byte	0x5
 1612 0770 04       		.uleb128 0x4
 1613 0771 FE070000 		.4byte	0x7fe
 1614 0775 1E000000 		.4byte	.LBB54
 1615 0779 06000000 		.4byte	.LBE54-.LBB54
 1616 077d E008     		.2byte	0x8e0
 1617 077f 05       		.byte	0x5
 1618 0780 00       		.byte	0
 1619 0781 0D       		.uleb128 0xd
 1620 0782 40050000 		.4byte	.LASF108
 1621 0786 B508     		.2byte	0x8b5
 1622 0788 00000000 		.4byte	.LFB126
 1623 078c 48000000 		.4byte	.LFE126-.LFB126
 1624 0790 01       		.uleb128 0x1
 1625 0791 9C       		.byte	0x9c
 1626 0792 F7070000 		.4byte	0x7f7
 1627 0796 04       		.uleb128 0x4
 1628 0797 F7070000 		.4byte	0x7f7
 1629 079b 04000000 		.4byte	.LBB36
 1630 079f 06000000 		.4byte	.LBE36-.LBB36
 1631 07a3 B808     		.2byte	0x8b8
 1632 07a5 05       		.byte	0x5
 1633 07a6 04       		.uleb128 0x4
 1634 07a7 FE070000 		.4byte	0x7fe
 1635 07ab 0A000000 		.4byte	.LBB38
 1636 07af 06000000 		.4byte	.LBE38-.LBB38
 1637 07b3 B908     		.2byte	0x8b9
 1638 07b5 05       		.byte	0x5
 1639 07b6 04       		.uleb128 0x4
 1640 07b7 F7070000 		.4byte	0x7f7
 1641 07bb 18000000 		.4byte	.LBB40
 1642 07bf 06000000 		.4byte	.LBE40-.LBB40
 1643 07c3 BB08     		.2byte	0x8bb
 1644 07c5 05       		.byte	0x5
 1645 07c6 04       		.uleb128 0x4
 1646 07c7 FE070000 		.4byte	0x7fe
 1647 07cb 1E000000 		.4byte	.LBB42
 1648 07cf 06000000 		.4byte	.LBE42-.LBB42
 1649 07d3 BC08     		.2byte	0x8bc
 1650 07d5 05       		.byte	0x5
 1651 07d6 04       		.uleb128 0x4
 1652 07d7 F7070000 		.4byte	0x7f7
 1653 07db 30000000 		.4byte	.LBB44
ARM GAS  C:\Users\DEVELO~1\AppData\Local\Temp\ccw2kwuK.s 			page 30


 1654 07df 06000000 		.4byte	.LBE44-.LBB44
 1655 07e3 BE08     		.2byte	0x8be
 1656 07e5 05       		.byte	0x5
 1657 07e6 04       		.uleb128 0x4
 1658 07e7 FE070000 		.4byte	0x7fe
 1659 07eb 36000000 		.4byte	.LBB46
 1660 07ef 06000000 		.4byte	.LBE46-.LBB46
 1661 07f3 BF08     		.2byte	0x8bf
 1662 07f5 05       		.byte	0x5
 1663 07f6 00       		.byte	0
 1664 07f7 12       		.uleb128 0x12
 1665 07f8 BC010000 		.4byte	.LASF109
 1666 07fc 6D03     		.2byte	0x36d
 1667 07fe 12       		.uleb128 0x12
 1668 07ff AF050000 		.4byte	.LASF110
 1669 0803 6203     		.2byte	0x362
 1670 0805 00       		.byte	0
 1671              		.section	.debug_abbrev,"",%progbits
 1672              	.Ldebug_abbrev0:
 1673 0000 01       		.uleb128 0x1
 1674 0001 34       		.uleb128 0x34
 1675 0002 00       		.byte	0
 1676 0003 03       		.uleb128 0x3
 1677 0004 0E       		.uleb128 0xe
 1678 0005 3A       		.uleb128 0x3a
 1679 0006 21       		.uleb128 0x21
 1680 0007 03       		.sleb128 3
 1681 0008 3B       		.uleb128 0x3b
 1682 0009 0B       		.uleb128 0xb
 1683 000a 39       		.uleb128 0x39
 1684 000b 0B       		.uleb128 0xb
 1685 000c 49       		.uleb128 0x49
 1686 000d 13       		.uleb128 0x13
 1687 000e 3F       		.uleb128 0x3f
 1688 000f 19       		.uleb128 0x19
 1689 0010 3C       		.uleb128 0x3c
 1690 0011 19       		.uleb128 0x19
 1691 0012 00       		.byte	0
 1692 0013 00       		.byte	0
 1693 0014 02       		.uleb128 0x2
 1694 0015 0D       		.uleb128 0xd
 1695 0016 00       		.byte	0
 1696 0017 03       		.uleb128 0x3
 1697 0018 0E       		.uleb128 0xe
 1698 0019 3A       		.uleb128 0x3a
 1699 001a 21       		.uleb128 0x21
 1700 001b 01       		.sleb128 1
 1701 001c 3B       		.uleb128 0x3b
 1702 001d 05       		.uleb128 0x5
 1703 001e 39       		.uleb128 0x39
 1704 001f 21       		.uleb128 0x21
 1705 0020 12       		.sleb128 18
 1706 0021 49       		.uleb128 0x49
 1707 0022 13       		.uleb128 0x13
 1708 0023 38       		.uleb128 0x38
 1709 0024 05       		.uleb128 0x5
 1710 0025 00       		.byte	0
ARM GAS  C:\Users\DEVELO~1\AppData\Local\Temp\ccw2kwuK.s 			page 31


 1711 0026 00       		.byte	0
 1712 0027 03       		.uleb128 0x3
 1713 0028 0D       		.uleb128 0xd
 1714 0029 00       		.byte	0
 1715 002a 03       		.uleb128 0x3
 1716 002b 0E       		.uleb128 0xe
 1717 002c 3A       		.uleb128 0x3a
 1718 002d 21       		.uleb128 0x21
 1719 002e 01       		.sleb128 1
 1720 002f 3B       		.uleb128 0x3b
 1721 0030 05       		.uleb128 0x5
 1722 0031 39       		.uleb128 0x39
 1723 0032 21       		.uleb128 0x21
 1724 0033 12       		.sleb128 18
 1725 0034 49       		.uleb128 0x49
 1726 0035 13       		.uleb128 0x13
 1727 0036 38       		.uleb128 0x38
 1728 0037 0B       		.uleb128 0xb
 1729 0038 00       		.byte	0
 1730 0039 00       		.byte	0
 1731 003a 04       		.uleb128 0x4
 1732 003b 1D       		.uleb128 0x1d
 1733 003c 00       		.byte	0
 1734 003d 31       		.uleb128 0x31
 1735 003e 13       		.uleb128 0x13
 1736 003f 11       		.uleb128 0x11
 1737 0040 01       		.uleb128 0x1
 1738 0041 12       		.uleb128 0x12
 1739 0042 06       		.uleb128 0x6
 1740 0043 58       		.uleb128 0x58
 1741 0044 21       		.uleb128 0x21
 1742 0045 01       		.sleb128 1
 1743 0046 59       		.uleb128 0x59
 1744 0047 05       		.uleb128 0x5
 1745 0048 57       		.uleb128 0x57
 1746 0049 0B       		.uleb128 0xb
 1747 004a 00       		.byte	0
 1748 004b 00       		.byte	0
 1749 004c 05       		.uleb128 0x5
 1750 004d 24       		.uleb128 0x24
 1751 004e 00       		.byte	0
 1752 004f 0B       		.uleb128 0xb
 1753 0050 0B       		.uleb128 0xb
 1754 0051 3E       		.uleb128 0x3e
 1755 0052 0B       		.uleb128 0xb
 1756 0053 03       		.uleb128 0x3
 1757 0054 0E       		.uleb128 0xe
 1758 0055 00       		.byte	0
 1759 0056 00       		.byte	0
 1760 0057 06       		.uleb128 0x6
 1761 0058 01       		.uleb128 0x1
 1762 0059 01       		.byte	0x1
 1763 005a 49       		.uleb128 0x49
 1764 005b 13       		.uleb128 0x13
 1765 005c 01       		.uleb128 0x1
 1766 005d 13       		.uleb128 0x13
 1767 005e 00       		.byte	0
ARM GAS  C:\Users\DEVELO~1\AppData\Local\Temp\ccw2kwuK.s 			page 32


 1768 005f 00       		.byte	0
 1769 0060 07       		.uleb128 0x7
 1770 0061 21       		.uleb128 0x21
 1771 0062 00       		.byte	0
 1772 0063 49       		.uleb128 0x49
 1773 0064 13       		.uleb128 0x13
 1774 0065 2F       		.uleb128 0x2f
 1775 0066 0B       		.uleb128 0xb
 1776 0067 00       		.byte	0
 1777 0068 00       		.byte	0
 1778 0069 08       		.uleb128 0x8
 1779 006a 35       		.uleb128 0x35
 1780 006b 00       		.byte	0
 1781 006c 49       		.uleb128 0x49
 1782 006d 13       		.uleb128 0x13
 1783 006e 00       		.byte	0
 1784 006f 00       		.byte	0
 1785 0070 09       		.uleb128 0x9
 1786 0071 26       		.uleb128 0x26
 1787 0072 00       		.byte	0
 1788 0073 49       		.uleb128 0x49
 1789 0074 13       		.uleb128 0x13
 1790 0075 00       		.byte	0
 1791 0076 00       		.byte	0
 1792 0077 0A       		.uleb128 0xa
 1793 0078 34       		.uleb128 0x34
 1794 0079 00       		.byte	0
 1795 007a 03       		.uleb128 0x3
 1796 007b 0E       		.uleb128 0xe
 1797 007c 3A       		.uleb128 0x3a
 1798 007d 21       		.uleb128 0x21
 1799 007e 01       		.sleb128 1
 1800 007f 3B       		.uleb128 0x3b
 1801 0080 05       		.uleb128 0x5
 1802 0081 39       		.uleb128 0x39
 1803 0082 21       		.uleb128 0x21
 1804 0083 0E       		.sleb128 14
 1805 0084 49       		.uleb128 0x49
 1806 0085 13       		.uleb128 0x13
 1807 0086 02       		.uleb128 0x2
 1808 0087 18       		.uleb128 0x18
 1809 0088 00       		.byte	0
 1810 0089 00       		.byte	0
 1811 008a 0B       		.uleb128 0xb
 1812 008b 16       		.uleb128 0x16
 1813 008c 00       		.byte	0
 1814 008d 03       		.uleb128 0x3
 1815 008e 0E       		.uleb128 0xe
 1816 008f 3A       		.uleb128 0x3a
 1817 0090 0B       		.uleb128 0xb
 1818 0091 3B       		.uleb128 0x3b
 1819 0092 0B       		.uleb128 0xb
 1820 0093 39       		.uleb128 0x39
 1821 0094 0B       		.uleb128 0xb
 1822 0095 49       		.uleb128 0x49
 1823 0096 13       		.uleb128 0x13
 1824 0097 00       		.byte	0
ARM GAS  C:\Users\DEVELO~1\AppData\Local\Temp\ccw2kwuK.s 			page 33


 1825 0098 00       		.byte	0
 1826 0099 0C       		.uleb128 0xc
 1827 009a 0D       		.uleb128 0xd
 1828 009b 00       		.byte	0
 1829 009c 03       		.uleb128 0x3
 1830 009d 0E       		.uleb128 0xe
 1831 009e 3A       		.uleb128 0x3a
 1832 009f 21       		.uleb128 0x21
 1833 00a0 03       		.sleb128 3
 1834 00a1 3B       		.uleb128 0x3b
 1835 00a2 0B       		.uleb128 0xb
 1836 00a3 39       		.uleb128 0x39
 1837 00a4 21       		.uleb128 0x21
 1838 00a5 1A       		.sleb128 26
 1839 00a6 49       		.uleb128 0x49
 1840 00a7 13       		.uleb128 0x13
 1841 00a8 38       		.uleb128 0x38
 1842 00a9 0B       		.uleb128 0xb
 1843 00aa 00       		.byte	0
 1844 00ab 00       		.byte	0
 1845 00ac 0D       		.uleb128 0xd
 1846 00ad 2E       		.uleb128 0x2e
 1847 00ae 01       		.byte	0x1
 1848 00af 03       		.uleb128 0x3
 1849 00b0 0E       		.uleb128 0xe
 1850 00b1 3A       		.uleb128 0x3a
 1851 00b2 21       		.uleb128 0x21
 1852 00b3 01       		.sleb128 1
 1853 00b4 3B       		.uleb128 0x3b
 1854 00b5 05       		.uleb128 0x5
 1855 00b6 39       		.uleb128 0x39
 1856 00b7 21       		.uleb128 0x21
 1857 00b8 16       		.sleb128 22
 1858 00b9 27       		.uleb128 0x27
 1859 00ba 19       		.uleb128 0x19
 1860 00bb 11       		.uleb128 0x11
 1861 00bc 01       		.uleb128 0x1
 1862 00bd 12       		.uleb128 0x12
 1863 00be 06       		.uleb128 0x6
 1864 00bf 40       		.uleb128 0x40
 1865 00c0 18       		.uleb128 0x18
 1866 00c1 7A       		.uleb128 0x7a
 1867 00c2 19       		.uleb128 0x19
 1868 00c3 01       		.uleb128 0x1
 1869 00c4 13       		.uleb128 0x13
 1870 00c5 00       		.byte	0
 1871 00c6 00       		.byte	0
 1872 00c7 0E       		.uleb128 0xe
 1873 00c8 0D       		.uleb128 0xd
 1874 00c9 00       		.byte	0
 1875 00ca 03       		.uleb128 0x3
 1876 00cb 08       		.uleb128 0x8
 1877 00cc 3A       		.uleb128 0x3a
 1878 00cd 21       		.uleb128 0x21
 1879 00ce 01       		.sleb128 1
 1880 00cf 3B       		.uleb128 0x3b
 1881 00d0 05       		.uleb128 0x5
ARM GAS  C:\Users\DEVELO~1\AppData\Local\Temp\ccw2kwuK.s 			page 34


 1882 00d1 39       		.uleb128 0x39
 1883 00d2 21       		.uleb128 0x21
 1884 00d3 12       		.sleb128 18
 1885 00d4 49       		.uleb128 0x49
 1886 00d5 13       		.uleb128 0x13
 1887 00d6 38       		.uleb128 0x38
 1888 00d7 0B       		.uleb128 0xb
 1889 00d8 00       		.byte	0
 1890 00d9 00       		.byte	0
 1891 00da 0F       		.uleb128 0xf
 1892 00db 34       		.uleb128 0x34
 1893 00dc 00       		.byte	0
 1894 00dd 03       		.uleb128 0x3
 1895 00de 08       		.uleb128 0x8
 1896 00df 3A       		.uleb128 0x3a
 1897 00e0 21       		.uleb128 0x21
 1898 00e1 03       		.sleb128 3
 1899 00e2 3B       		.uleb128 0x3b
 1900 00e3 0B       		.uleb128 0xb
 1901 00e4 39       		.uleb128 0x39
 1902 00e5 0B       		.uleb128 0xb
 1903 00e6 49       		.uleb128 0x49
 1904 00e7 13       		.uleb128 0x13
 1905 00e8 02       		.uleb128 0x2
 1906 00e9 18       		.uleb128 0x18
 1907 00ea 00       		.byte	0
 1908 00eb 00       		.byte	0
 1909 00ec 10       		.uleb128 0x10
 1910 00ed 0F       		.uleb128 0xf
 1911 00ee 00       		.byte	0
 1912 00ef 0B       		.uleb128 0xb
 1913 00f0 21       		.uleb128 0x21
 1914 00f1 04       		.sleb128 4
 1915 00f2 49       		.uleb128 0x49
 1916 00f3 13       		.uleb128 0x13
 1917 00f4 00       		.byte	0
 1918 00f5 00       		.byte	0
 1919 00f6 11       		.uleb128 0x11
 1920 00f7 2E       		.uleb128 0x2e
 1921 00f8 00       		.byte	0
 1922 00f9 3F       		.uleb128 0x3f
 1923 00fa 19       		.uleb128 0x19
 1924 00fb 03       		.uleb128 0x3
 1925 00fc 0E       		.uleb128 0xe
 1926 00fd 3A       		.uleb128 0x3a
 1927 00fe 21       		.uleb128 0x21
 1928 00ff 03       		.sleb128 3
 1929 0100 3B       		.uleb128 0x3b
 1930 0101 0B       		.uleb128 0xb
 1931 0102 39       		.uleb128 0x39
 1932 0103 21       		.uleb128 0x21
 1933 0104 06       		.sleb128 6
 1934 0105 27       		.uleb128 0x27
 1935 0106 19       		.uleb128 0x19
 1936 0107 11       		.uleb128 0x11
 1937 0108 01       		.uleb128 0x1
 1938 0109 12       		.uleb128 0x12
ARM GAS  C:\Users\DEVELO~1\AppData\Local\Temp\ccw2kwuK.s 			page 35


 1939 010a 06       		.uleb128 0x6
 1940 010b 40       		.uleb128 0x40
 1941 010c 18       		.uleb128 0x18
 1942 010d 7A       		.uleb128 0x7a
 1943 010e 19       		.uleb128 0x19
 1944 010f 00       		.byte	0
 1945 0110 00       		.byte	0
 1946 0111 12       		.uleb128 0x12
 1947 0112 2E       		.uleb128 0x2e
 1948 0113 00       		.byte	0
 1949 0114 03       		.uleb128 0x3
 1950 0115 0E       		.uleb128 0xe
 1951 0116 3A       		.uleb128 0x3a
 1952 0117 21       		.uleb128 0x21
 1953 0118 02       		.sleb128 2
 1954 0119 3B       		.uleb128 0x3b
 1955 011a 05       		.uleb128 0x5
 1956 011b 39       		.uleb128 0x39
 1957 011c 21       		.uleb128 0x21
 1958 011d 1B       		.sleb128 27
 1959 011e 27       		.uleb128 0x27
 1960 011f 19       		.uleb128 0x19
 1961 0120 20       		.uleb128 0x20
 1962 0121 21       		.uleb128 0x21
 1963 0122 03       		.sleb128 3
 1964 0123 00       		.byte	0
 1965 0124 00       		.byte	0
 1966 0125 13       		.uleb128 0x13
 1967 0126 11       		.uleb128 0x11
 1968 0127 01       		.byte	0x1
 1969 0128 25       		.uleb128 0x25
 1970 0129 0E       		.uleb128 0xe
 1971 012a 13       		.uleb128 0x13
 1972 012b 0B       		.uleb128 0xb
 1973 012c 03       		.uleb128 0x3
 1974 012d 0E       		.uleb128 0xe
 1975 012e 1B       		.uleb128 0x1b
 1976 012f 0E       		.uleb128 0xe
 1977 0130 55       		.uleb128 0x55
 1978 0131 17       		.uleb128 0x17
 1979 0132 11       		.uleb128 0x11
 1980 0133 01       		.uleb128 0x1
 1981 0134 10       		.uleb128 0x10
 1982 0135 17       		.uleb128 0x17
 1983 0136 00       		.byte	0
 1984 0137 00       		.byte	0
 1985 0138 14       		.uleb128 0x14
 1986 0139 24       		.uleb128 0x24
 1987 013a 00       		.byte	0
 1988 013b 0B       		.uleb128 0xb
 1989 013c 0B       		.uleb128 0xb
 1990 013d 3E       		.uleb128 0x3e
 1991 013e 0B       		.uleb128 0xb
 1992 013f 03       		.uleb128 0x3
 1993 0140 08       		.uleb128 0x8
 1994 0141 00       		.byte	0
 1995 0142 00       		.byte	0
ARM GAS  C:\Users\DEVELO~1\AppData\Local\Temp\ccw2kwuK.s 			page 36


 1996 0143 15       		.uleb128 0x15
 1997 0144 13       		.uleb128 0x13
 1998 0145 01       		.byte	0x1
 1999 0146 0B       		.uleb128 0xb
 2000 0147 05       		.uleb128 0x5
 2001 0148 3A       		.uleb128 0x3a
 2002 0149 0B       		.uleb128 0xb
 2003 014a 3B       		.uleb128 0x3b
 2004 014b 05       		.uleb128 0x5
 2005 014c 39       		.uleb128 0x39
 2006 014d 0B       		.uleb128 0xb
 2007 014e 01       		.uleb128 0x1
 2008 014f 13       		.uleb128 0x13
 2009 0150 00       		.byte	0
 2010 0151 00       		.byte	0
 2011 0152 16       		.uleb128 0x16
 2012 0153 16       		.uleb128 0x16
 2013 0154 00       		.byte	0
 2014 0155 03       		.uleb128 0x3
 2015 0156 0E       		.uleb128 0xe
 2016 0157 3A       		.uleb128 0x3a
 2017 0158 0B       		.uleb128 0xb
 2018 0159 3B       		.uleb128 0x3b
 2019 015a 05       		.uleb128 0x5
 2020 015b 39       		.uleb128 0x39
 2021 015c 0B       		.uleb128 0xb
 2022 015d 49       		.uleb128 0x49
 2023 015e 13       		.uleb128 0x13
 2024 015f 00       		.byte	0
 2025 0160 00       		.byte	0
 2026 0161 17       		.uleb128 0x17
 2027 0162 13       		.uleb128 0x13
 2028 0163 01       		.byte	0x1
 2029 0164 0B       		.uleb128 0xb
 2030 0165 0B       		.uleb128 0xb
 2031 0166 3A       		.uleb128 0x3a
 2032 0167 0B       		.uleb128 0xb
 2033 0168 3B       		.uleb128 0x3b
 2034 0169 0B       		.uleb128 0xb
 2035 016a 39       		.uleb128 0x39
 2036 016b 0B       		.uleb128 0xb
 2037 016c 01       		.uleb128 0x1
 2038 016d 13       		.uleb128 0x13
 2039 016e 00       		.byte	0
 2040 016f 00       		.byte	0
 2041 0170 18       		.uleb128 0x18
 2042 0171 34       		.uleb128 0x34
 2043 0172 00       		.byte	0
 2044 0173 03       		.uleb128 0x3
 2045 0174 0E       		.uleb128 0xe
 2046 0175 3A       		.uleb128 0x3a
 2047 0176 0B       		.uleb128 0xb
 2048 0177 3B       		.uleb128 0x3b
 2049 0178 0B       		.uleb128 0xb
 2050 0179 39       		.uleb128 0x39
 2051 017a 0B       		.uleb128 0xb
 2052 017b 49       		.uleb128 0x49
ARM GAS  C:\Users\DEVELO~1\AppData\Local\Temp\ccw2kwuK.s 			page 37


 2053 017c 13       		.uleb128 0x13
 2054 017d 02       		.uleb128 0x2
 2055 017e 18       		.uleb128 0x18
 2056 017f 00       		.byte	0
 2057 0180 00       		.byte	0
 2058 0181 19       		.uleb128 0x19
 2059 0182 2E       		.uleb128 0x2e
 2060 0183 01       		.byte	0x1
 2061 0184 3F       		.uleb128 0x3f
 2062 0185 19       		.uleb128 0x19
 2063 0186 03       		.uleb128 0x3
 2064 0187 0E       		.uleb128 0xe
 2065 0188 3A       		.uleb128 0x3a
 2066 0189 0B       		.uleb128 0xb
 2067 018a 3B       		.uleb128 0x3b
 2068 018b 0B       		.uleb128 0xb
 2069 018c 39       		.uleb128 0x39
 2070 018d 0B       		.uleb128 0xb
 2071 018e 27       		.uleb128 0x27
 2072 018f 19       		.uleb128 0x19
 2073 0190 11       		.uleb128 0x11
 2074 0191 01       		.uleb128 0x1
 2075 0192 12       		.uleb128 0x12
 2076 0193 06       		.uleb128 0x6
 2077 0194 40       		.uleb128 0x40
 2078 0195 18       		.uleb128 0x18
 2079 0196 7C       		.uleb128 0x7c
 2080 0197 19       		.uleb128 0x19
 2081 0198 01       		.uleb128 0x1
 2082 0199 13       		.uleb128 0x13
 2083 019a 00       		.byte	0
 2084 019b 00       		.byte	0
 2085 019c 1A       		.uleb128 0x1a
 2086 019d 0B       		.uleb128 0xb
 2087 019e 01       		.byte	0x1
 2088 019f 11       		.uleb128 0x11
 2089 01a0 01       		.uleb128 0x1
 2090 01a1 12       		.uleb128 0x12
 2091 01a2 06       		.uleb128 0x6
 2092 01a3 00       		.byte	0
 2093 01a4 00       		.byte	0
 2094 01a5 1B       		.uleb128 0x1b
 2095 01a6 2E       		.uleb128 0x2e
 2096 01a7 00       		.byte	0
 2097 01a8 3F       		.uleb128 0x3f
 2098 01a9 19       		.uleb128 0x19
 2099 01aa 03       		.uleb128 0x3
 2100 01ab 0E       		.uleb128 0xe
 2101 01ac 3A       		.uleb128 0x3a
 2102 01ad 0B       		.uleb128 0xb
 2103 01ae 3B       		.uleb128 0x3b
 2104 01af 0B       		.uleb128 0xb
 2105 01b0 39       		.uleb128 0x39
 2106 01b1 0B       		.uleb128 0xb
 2107 01b2 27       		.uleb128 0x27
 2108 01b3 19       		.uleb128 0x19
 2109 01b4 8701     		.uleb128 0x87
ARM GAS  C:\Users\DEVELO~1\AppData\Local\Temp\ccw2kwuK.s 			page 38


 2110 01b6 19       		.uleb128 0x19
 2111 01b7 11       		.uleb128 0x11
 2112 01b8 01       		.uleb128 0x1
 2113 01b9 12       		.uleb128 0x12
 2114 01ba 06       		.uleb128 0x6
 2115 01bb 40       		.uleb128 0x40
 2116 01bc 18       		.uleb128 0x18
 2117 01bd 7A       		.uleb128 0x7a
 2118 01be 19       		.uleb128 0x19
 2119 01bf 00       		.byte	0
 2120 01c0 00       		.byte	0
 2121 01c1 1C       		.uleb128 0x1c
 2122 01c2 2E       		.uleb128 0x2e
 2123 01c3 00       		.byte	0
 2124 01c4 3F       		.uleb128 0x3f
 2125 01c5 19       		.uleb128 0x19
 2126 01c6 03       		.uleb128 0x3
 2127 01c7 0E       		.uleb128 0xe
 2128 01c8 3A       		.uleb128 0x3a
 2129 01c9 0B       		.uleb128 0xb
 2130 01ca 3B       		.uleb128 0x3b
 2131 01cb 0B       		.uleb128 0xb
 2132 01cc 39       		.uleb128 0x39
 2133 01cd 0B       		.uleb128 0xb
 2134 01ce 27       		.uleb128 0x27
 2135 01cf 19       		.uleb128 0x19
 2136 01d0 11       		.uleb128 0x11
 2137 01d1 01       		.uleb128 0x1
 2138 01d2 12       		.uleb128 0x12
 2139 01d3 06       		.uleb128 0x6
 2140 01d4 40       		.uleb128 0x40
 2141 01d5 18       		.uleb128 0x18
 2142 01d6 7C       		.uleb128 0x7c
 2143 01d7 19       		.uleb128 0x19
 2144 01d8 00       		.byte	0
 2145 01d9 00       		.byte	0
 2146 01da 00       		.byte	0
 2147              		.section	.debug_aranges,"",%progbits
 2148 0000 5C000000 		.4byte	0x5c
 2149 0004 0200     		.2byte	0x2
 2150 0006 00000000 		.4byte	.Ldebug_info0
 2151 000a 04       		.byte	0x4
 2152 000b 00       		.byte	0
 2153 000c 0000     		.2byte	0
 2154 000e 0000     		.2byte	0
 2155 0010 00000000 		.4byte	.LFB126
 2156 0014 48000000 		.4byte	.LFE126-.LFB126
 2157 0018 00000000 		.4byte	.LFB128
 2158 001c 30000000 		.4byte	.LFE128-.LFB128
 2159 0020 00000000 		.4byte	.LFB129
 2160 0024 88000000 		.4byte	.LFE129-.LFB129
 2161 0028 00000000 		.4byte	.LFB132
 2162 002c 74000000 		.4byte	.LFE132-.LFB132
 2163 0030 00000000 		.4byte	.LFB141
 2164 0034 10000000 		.4byte	.LFE141-.LFB141
 2165 0038 00000000 		.4byte	.LFB142
 2166 003c 0C000000 		.4byte	.LFE142-.LFB142
ARM GAS  C:\Users\DEVELO~1\AppData\Local\Temp\ccw2kwuK.s 			page 39


 2167 0040 00000000 		.4byte	.LFB143
 2168 0044 0C000000 		.4byte	.LFE143-.LFB143
 2169 0048 00000000 		.4byte	.LFB144
 2170 004c 06000000 		.4byte	.LFE144-.LFB144
 2171 0050 00000000 		.4byte	.LFB145
 2172 0054 74000000 		.4byte	.LFE145-.LFB145
 2173 0058 00000000 		.4byte	0
 2174 005c 00000000 		.4byte	0
 2175              		.section	.debug_rnglists,"",%progbits
 2176              	.Ldebug_ranges0:
 2177 0000 40000000 		.4byte	.Ldebug_ranges3-.Ldebug_ranges2
 2178              	.Ldebug_ranges2:
 2179 0004 0500     		.2byte	0x5
 2180 0006 04       		.byte	0x4
 2181 0007 00       		.byte	0
 2182 0008 00000000 		.4byte	0
 2183              	.LLRL0:
 2184 000c 07       		.byte	0x7
 2185 000d 00000000 		.4byte	.LFB126
 2186 0011 48       		.uleb128 .LFE126-.LFB126
 2187 0012 07       		.byte	0x7
 2188 0013 00000000 		.4byte	.LFB128
 2189 0017 30       		.uleb128 .LFE128-.LFB128
 2190 0018 07       		.byte	0x7
 2191 0019 00000000 		.4byte	.LFB129
 2192 001d 8801     		.uleb128 .LFE129-.LFB129
 2193 001f 07       		.byte	0x7
 2194 0020 00000000 		.4byte	.LFB132
 2195 0024 74       		.uleb128 .LFE132-.LFB132
 2196 0025 07       		.byte	0x7
 2197 0026 00000000 		.4byte	.LFB141
 2198 002a 10       		.uleb128 .LFE141-.LFB141
 2199 002b 07       		.byte	0x7
 2200 002c 00000000 		.4byte	.LFB142
 2201 0030 0C       		.uleb128 .LFE142-.LFB142
 2202 0031 07       		.byte	0x7
 2203 0032 00000000 		.4byte	.LFB143
 2204 0036 0C       		.uleb128 .LFE143-.LFB143
 2205 0037 07       		.byte	0x7
 2206 0038 00000000 		.4byte	.LFB144
 2207 003c 06       		.uleb128 .LFE144-.LFB144
 2208 003d 07       		.byte	0x7
 2209 003e 00000000 		.4byte	.LFB145
 2210 0042 74       		.uleb128 .LFE145-.LFB145
 2211 0043 00       		.byte	0
 2212              	.Ldebug_ranges3:
 2213              		.section	.debug_line,"",%progbits
 2214              	.Ldebug_line0:
 2215 0000 F3030000 		.section	.debug_str,"MS",%progbits,1
 2215      03006301 
 2215      00000201 
 2215      FB0E0D00 
 2215      01010101 
 2216              	.LASF60:
 2217 0000 5343425F 		.ascii	"SCB_Type\000"
 2217      54797065 
 2217      00
ARM GAS  C:\Users\DEVELO~1\AppData\Local\Temp\ccw2kwuK.s 			page 40


 2218              	.LASF49:
 2219 0009 44434353 		.ascii	"DCCSW\000"
 2219      5700
 2220              	.LASF86:
 2221 000f 5F5F7261 		.ascii	"__ram5_init_text__\000"
 2221      6D355F69 
 2221      6E69745F 
 2221      74657874 
 2221      5F5F00
 2222              	.LASF67:
 2223 0022 5F5F7261 		.ascii	"__ram0_init__\000"
 2223      6D305F69 
 2223      6E69745F 
 2223      5F00
 2224              	.LASF44:
 2225 0030 4943494D 		.ascii	"ICIMVAU\000"
 2225      56415500 
 2226              	.LASF79:
 2227 0038 5F5F7261 		.ascii	"__ram3_init__\000"
 2227      6D335F69 
 2227      6E69745F 
 2227      5F00
 2228              	.LASF94:
 2229 0046 5F5F7261 		.ascii	"__ram7_init_text__\000"
 2229      6D375F69 
 2229      6E69745F 
 2229      74657874 
 2229      5F5F00
 2230              	.LASF63:
 2231 0059 636C6561 		.ascii	"clear_area\000"
 2231      725F6172 
 2231      656100
 2232              	.LASF111:
 2233 0064 474E5520 		.ascii	"GNU C17 11.3.1 20220712 -mcpu=cortex-m7 -mthumb -mf"
 2233      43313720 
 2233      31312E33 
 2233      2E312032 
 2233      30323230 
 2234 0097 6C6F6174 		.ascii	"loat-abi=soft -march=armv7e-m -ggdb -O0 -ffunction-"
 2234      2D616269 
 2234      3D736F66 
 2234      74202D6D 
 2234      61726368 
 2235 00ca 73656374 		.ascii	"sections -fdata-sections -fno-common\000"
 2235      696F6E73 
 2235      202D6664 
 2235      6174612D 
 2235      73656374 
 2236              	.LASF2:
 2237 00ef 73686F72 		.ascii	"short int\000"
 2237      7420696E 
 2237      7400
 2238              	.LASF74:
 2239 00f9 5F5F7261 		.ascii	"__ram2_init_text__\000"
 2239      6D325F69 
 2239      6E69745F 
 2239      74657874 
ARM GAS  C:\Users\DEVELO~1\AppData\Local\Temp\ccw2kwuK.s 			page 41


 2239      5F5F00
 2240              	.LASF114:
 2241 010c 5F5F696E 		.ascii	"__init_ram_areas\000"
 2241      69745F72 
 2241      616D5F61 
 2241      72656173 
 2241      00
 2242              	.LASF113:
 2243 011d 433A5C50 		.ascii	"C:\\PROJET\\ChibiOS project\\ChibiOS_21.11.4\\demos"
 2243      524F4A45 
 2243      545C4368 
 2243      6962694F 
 2243      53207072 
 2244 014c 5C53544D 		.ascii	"\\STM32\\RT-STM32H743ZI_REV_XY-NUCLEO144_Quartz8M\000"
 2244      33325C52 
 2244      542D5354 
 2244      4D333248 
 2244      3734335A 
 2245              	.LASF75:
 2246 017c 5F5F7261 		.ascii	"__ram2_init__\000"
 2246      6D325F69 
 2246      6E69745F 
 2246      5F00
 2247              	.LASF6:
 2248 018a 5F5F7569 		.ascii	"__uint32_t\000"
 2248      6E743332 
 2248      5F7400
 2249              	.LASF50:
 2250 0195 44434349 		.ascii	"DCCIMVAC\000"
 2250      4D564143 
 2250      00
 2251              	.LASF26:
 2252 019e 49445F44 		.ascii	"ID_DFR\000"
 2252      465200
 2253              	.LASF81:
 2254 01a5 5F5F7261 		.ascii	"__ram3_noinit__\000"
 2254      6D335F6E 
 2254      6F696E69 
 2254      745F5F00 
 2255              	.LASF55:
 2256 01b5 41484250 		.ascii	"AHBPCR\000"
 2256      435200
 2257              	.LASF109:
 2258 01bc 5F5F4453 		.ascii	"__DSB\000"
 2258      4200
 2259              	.LASF13:
 2260 01c2 43505549 		.ascii	"CPUID\000"
 2260      4400
 2261              	.LASF38:
 2262 01c8 4D564652 		.ascii	"MVFR0\000"
 2262      3000
 2263              	.LASF12:
 2264 01ce 75696E74 		.ascii	"uint32_t\000"
 2264      33325F74 
 2264      00
 2265              	.LASF39:
 2266 01d7 4D564652 		.ascii	"MVFR1\000"
ARM GAS  C:\Users\DEVELO~1\AppData\Local\Temp\ccw2kwuK.s 			page 42


 2266      3100
 2267              	.LASF112:
 2268 01dd 2E2E2F2E 		.ascii	"../../../os/common/startup/ARMCMx/compilers/GCC/crt"
 2268      2E2F2E2E 
 2268      2F6F732F 
 2268      636F6D6D 
 2268      6F6E2F73 
 2269 0210 312E6300 		.ascii	"1.c\000"
 2270              	.LASF11:
 2271 0214 75696E74 		.ascii	"uint8_t\000"
 2271      385F7400 
 2272              	.LASF87:
 2273 021c 5F5F7261 		.ascii	"__ram5_init__\000"
 2273      6D355F69 
 2273      6E69745F 
 2273      5F00
 2274              	.LASF43:
 2275 022a 52455345 		.ascii	"RESERVED6\000"
 2275      52564544 
 2275      3600
 2276              	.LASF98:
 2277 0234 72616D5F 		.ascii	"ram_areas\000"
 2277      61726561 
 2277      7300
 2278              	.LASF31:
 2279 023e 434C4944 		.ascii	"CLIDR\000"
 2279      5200
 2280              	.LASF36:
 2281 0244 53544952 		.ascii	"STIR\000"
 2281      00
 2282              	.LASF27:
 2283 0249 49445F41 		.ascii	"ID_AFR\000"
 2283      465200
 2284              	.LASF100:
 2285 0250 5F5F6561 		.ascii	"__early_init\000"
 2285      726C795F 
 2285      696E6974 
 2285      00
 2286              	.LASF77:
 2287 025d 5F5F7261 		.ascii	"__ram2_noinit__\000"
 2287      6D325F6E 
 2287      6F696E69 
 2287      745F5F00 
 2288              	.LASF46:
 2289 026d 44434953 		.ascii	"DCISW\000"
 2289      5700
 2290              	.LASF14:
 2291 0273 49435352 		.ascii	"ICSR\000"
 2291      00
 2292              	.LASF40:
 2293 0278 4D564652 		.ascii	"MVFR2\000"
 2293      3200
 2294              	.LASF59:
 2295 027e 41424653 		.ascii	"ABFSR\000"
 2295      5200
 2296              	.LASF8:
 2297 0284 6C6F6E67 		.ascii	"long long int\000"
ARM GAS  C:\Users\DEVELO~1\AppData\Local\Temp\ccw2kwuK.s 			page 43


 2297      206C6F6E 
 2297      6720696E 
 2297      7400
 2298              	.LASF115:
 2299 0292 5F5F6465 		.ascii	"__default_exit\000"
 2299      6661756C 
 2299      745F6578 
 2299      697400
 2300              	.LASF64:
 2301 02a1 6E6F5F69 		.ascii	"no_init_area\000"
 2301      6E69745F 
 2301      61726561 
 2301      00
 2302              	.LASF23:
 2303 02ae 42464152 		.ascii	"BFAR\000"
 2303      00
 2304              	.LASF65:
 2305 02b3 72616D5F 		.ascii	"ram_init_area_t\000"
 2305      696E6974 
 2305      5F617265 
 2305      615F7400 
 2306              	.LASF71:
 2307 02c3 5F5F7261 		.ascii	"__ram1_init__\000"
 2307      6D315F69 
 2307      6E69745F 
 2307      5F00
 2308              	.LASF4:
 2309 02d1 6C6F6E67 		.ascii	"long int\000"
 2309      20696E74 
 2309      00
 2310              	.LASF99:
 2311 02da 5F5F6C61 		.ascii	"__late_init\000"
 2311      74655F69 
 2311      6E697400 
 2312              	.LASF93:
 2313 02e6 5F5F7261 		.ascii	"__ram6_noinit__\000"
 2313      6D365F6E 
 2313      6F696E69 
 2313      745F5F00 
 2314              	.LASF32:
 2315 02f6 43435349 		.ascii	"CCSIDR\000"
 2315      445200
 2316              	.LASF5:
 2317 02fd 5F5F7569 		.ascii	"__uint8_t\000"
 2317      6E74385F 
 2317      7400
 2318              	.LASF90:
 2319 0307 5F5F7261 		.ascii	"__ram6_init_text__\000"
 2319      6D365F69 
 2319      6E69745F 
 2319      74657874 
 2319      5F5F00
 2320              	.LASF19:
 2321 031a 43465352 		.ascii	"CFSR\000"
 2321      00
 2322              	.LASF76:
 2323 031f 5F5F7261 		.ascii	"__ram2_clear__\000"
ARM GAS  C:\Users\DEVELO~1\AppData\Local\Temp\ccw2kwuK.s 			page 44


 2323      6D325F63 
 2323      6C656172 
 2323      5F5F00
 2324              	.LASF42:
 2325 032e 49434941 		.ascii	"ICIALLU\000"
 2325      4C4C5500 
 2326              	.LASF45:
 2327 0336 4443494D 		.ascii	"DCIMVAC\000"
 2327      56414300 
 2328              	.LASF53:
 2329 033e 4954434D 		.ascii	"ITCMCR\000"
 2329      435200
 2330              	.LASF70:
 2331 0345 5F5F7261 		.ascii	"__ram1_init_text__\000"
 2331      6D315F69 
 2331      6E69745F 
 2331      74657874 
 2331      5F5F00
 2332              	.LASF29:
 2333 0358 49445F49 		.ascii	"ID_ISAR\000"
 2333      53415200 
 2334              	.LASF80:
 2335 0360 5F5F7261 		.ascii	"__ram3_clear__\000"
 2335      6D335F63 
 2335      6C656172 
 2335      5F5F00
 2336              	.LASF16:
 2337 036f 41495243 		.ascii	"AIRCR\000"
 2337      5200
 2338              	.LASF1:
 2339 0375 756E7369 		.ascii	"unsigned char\000"
 2339      676E6564 
 2339      20636861 
 2339      7200
 2340              	.LASF84:
 2341 0383 5F5F7261 		.ascii	"__ram4_clear__\000"
 2341      6D345F63 
 2341      6C656172 
 2341      5F5F00
 2342              	.LASF48:
 2343 0392 4443434D 		.ascii	"DCCMVAC\000"
 2343      56414300 
 2344              	.LASF0:
 2345 039a 7369676E 		.ascii	"signed char\000"
 2345      65642063 
 2345      68617200 
 2346              	.LASF17:
 2347 03a6 53485052 		.ascii	"SHPR\000"
 2347      00
 2348              	.LASF9:
 2349 03ab 6C6F6E67 		.ascii	"long long unsigned int\000"
 2349      206C6F6E 
 2349      6720756E 
 2349      7369676E 
 2349      65642069 
 2350              	.LASF18:
 2351 03c2 53484353 		.ascii	"SHCSR\000"
ARM GAS  C:\Users\DEVELO~1\AppData\Local\Temp\ccw2kwuK.s 			page 45


 2351      5200
 2352              	.LASF88:
 2353 03c8 5F5F7261 		.ascii	"__ram5_clear__\000"
 2353      6D355F63 
 2353      6C656172 
 2353      5F5F00
 2354              	.LASF104:
 2355 03d7 77617973 		.ascii	"ways\000"
 2355      00
 2356              	.LASF10:
 2357 03dc 756E7369 		.ascii	"unsigned int\000"
 2357      676E6564 
 2357      20696E74 
 2357      00
 2358              	.LASF7:
 2359 03e9 6C6F6E67 		.ascii	"long unsigned int\000"
 2359      20756E73 
 2359      69676E65 
 2359      6420696E 
 2359      7400
 2360              	.LASF101:
 2361 03fb 5F5F6370 		.ascii	"__cpu_init\000"
 2361      755F696E 
 2361      697400
 2362              	.LASF22:
 2363 0406 4D4D4641 		.ascii	"MMFAR\000"
 2363      5200
 2364              	.LASF85:
 2365 040c 5F5F7261 		.ascii	"__ram4_noinit__\000"
 2365      6D345F6E 
 2365      6F696E69 
 2365      745F5F00 
 2366              	.LASF91:
 2367 041c 5F5F7261 		.ascii	"__ram6_init__\000"
 2367      6D365F69 
 2367      6E69745F 
 2367      5F00
 2368              	.LASF33:
 2369 042a 43535345 		.ascii	"CSSELR\000"
 2369      4C5200
 2370              	.LASF96:
 2371 0431 5F5F7261 		.ascii	"__ram7_clear__\000"
 2371      6D375F63 
 2371      6C656172 
 2371      5F5F00
 2372              	.LASF47:
 2373 0440 4443434D 		.ascii	"DCCMVAU\000"
 2373      56415500 
 2374              	.LASF15:
 2375 0448 56544F52 		.ascii	"VTOR\000"
 2375      00
 2376              	.LASF102:
 2377 044d 63637369 		.ascii	"ccsidr\000"
 2377      647200
 2378              	.LASF3:
 2379 0454 73686F72 		.ascii	"short unsigned int\000"
 2379      7420756E 
ARM GAS  C:\Users\DEVELO~1\AppData\Local\Temp\ccw2kwuK.s 			page 46


 2379      7369676E 
 2379      65642069 
 2379      6E7400
 2380              	.LASF21:
 2381 0467 44465352 		.ascii	"DFSR\000"
 2381      00
 2382              	.LASF66:
 2383 046c 5F5F7261 		.ascii	"__ram0_init_text__\000"
 2383      6D305F69 
 2383      6E69745F 
 2383      74657874 
 2383      5F5F00
 2384              	.LASF89:
 2385 047f 5F5F7261 		.ascii	"__ram5_noinit__\000"
 2385      6D355F6E 
 2385      6F696E69 
 2385      745F5F00 
 2386              	.LASF25:
 2387 048f 49445F50 		.ascii	"ID_PFR\000"
 2387      465200
 2388              	.LASF20:
 2389 0496 48465352 		.ascii	"HFSR\000"
 2389      00
 2390              	.LASF103:
 2391 049b 73657473 		.ascii	"sets\000"
 2391      00
 2392              	.LASF69:
 2393 04a0 5F5F7261 		.ascii	"__ram0_noinit__\000"
 2393      6D305F6E 
 2393      6F696E69 
 2393      745F5F00 
 2394              	.LASF56:
 2395 04b0 43414352 		.ascii	"CACR\000"
 2395      00
 2396              	.LASF30:
 2397 04b5 52455345 		.ascii	"RESERVED0\000"
 2397      52564544 
 2397      3000
 2398              	.LASF68:
 2399 04bf 5F5F7261 		.ascii	"__ram0_clear__\000"
 2399      6D305F63 
 2399      6C656172 
 2399      5F5F00
 2400              	.LASF35:
 2401 04ce 52455345 		.ascii	"RESERVED3\000"
 2401      52564544 
 2401      3300
 2402              	.LASF37:
 2403 04d8 52455345 		.ascii	"RESERVED4\000"
 2403      52564544 
 2403      3400
 2404              	.LASF41:
 2405 04e2 52455345 		.ascii	"RESERVED5\000"
 2405      52564544 
 2405      3500
 2406              	.LASF82:
 2407 04ec 5F5F7261 		.ascii	"__ram4_init_text__\000"
ARM GAS  C:\Users\DEVELO~1\AppData\Local\Temp\ccw2kwuK.s 			page 47


 2407      6D345F69 
 2407      6E69745F 
 2407      74657874 
 2407      5F5F00
 2408              	.LASF52:
 2409 04ff 52455345 		.ascii	"RESERVED7\000"
 2409      52564544 
 2409      3700
 2410              	.LASF58:
 2411 0509 52455345 		.ascii	"RESERVED8\000"
 2411      52564544 
 2411      3800
 2412              	.LASF51:
 2413 0513 44434349 		.ascii	"DCCISW\000"
 2413      535700
 2414              	.LASF97:
 2415 051a 5F5F7261 		.ascii	"__ram7_noinit__\000"
 2415      6D375F6E 
 2415      6F696E69 
 2415      745F5F00 
 2416              	.LASF72:
 2417 052a 5F5F7261 		.ascii	"__ram1_clear__\000"
 2417      6D315F63 
 2417      6C656172 
 2417      5F5F00
 2418              	.LASF57:
 2419 0539 41484253 		.ascii	"AHBSCR\000"
 2419      435200
 2420              	.LASF108:
 2421 0540 5343425F 		.ascii	"SCB_EnableICache\000"
 2421      456E6162 
 2421      6C654943 
 2421      61636865 
 2421      00
 2422              	.LASF107:
 2423 0551 5343425F 		.ascii	"SCB_InvalidateICache\000"
 2423      496E7661 
 2423      6C696461 
 2423      74654943 
 2423      61636865 
 2424              	.LASF73:
 2425 0566 5F5F7261 		.ascii	"__ram1_noinit__\000"
 2425      6D315F6E 
 2425      6F696E69 
 2425      745F5F00 
 2426              	.LASF28:
 2427 0576 49445F4D 		.ascii	"ID_MFR\000"
 2427      465200
 2428              	.LASF24:
 2429 057d 41465352 		.ascii	"AFSR\000"
 2429      00
 2430              	.LASF83:
 2431 0582 5F5F7261 		.ascii	"__ram4_init__\000"
 2431      6D345F69 
 2431      6E69745F 
 2431      5F00
 2432              	.LASF106:
ARM GAS  C:\Users\DEVELO~1\AppData\Local\Temp\ccw2kwuK.s 			page 48


 2433 0590 5343425F 		.ascii	"SCB_EnableDCache\000"
 2433      456E6162 
 2433      6C654443 
 2433      61636865 
 2433      00
 2434              	.LASF95:
 2435 05a1 5F5F7261 		.ascii	"__ram7_init__\000"
 2435      6D375F69 
 2435      6E69745F 
 2435      5F00
 2436              	.LASF110:
 2437 05af 5F5F4953 		.ascii	"__ISB\000"
 2437      4200
 2438              	.LASF34:
 2439 05b5 43504143 		.ascii	"CPACR\000"
 2439      5200
 2440              	.LASF92:
 2441 05bb 5F5F7261 		.ascii	"__ram6_clear__\000"
 2441      6D365F63 
 2441      6C656172 
 2441      5F5F00
 2442              	.LASF105:
 2443 05ca 5343425F 		.ascii	"SCB_CleanDCache\000"
 2443      436C6561 
 2443      6E444361 
 2443      63686500 
 2444              	.LASF54:
 2445 05da 4454434D 		.ascii	"DTCMCR\000"
 2445      435200
 2446              	.LASF78:
 2447 05e1 5F5F7261 		.ascii	"__ram3_init_text__\000"
 2447      6D335F69 
 2447      6E69745F 
 2447      74657874 
 2447      5F5F00
 2448              	.LASF62:
 2449 05f4 696E6974 		.ascii	"init_area\000"
 2449      5F617265 
 2449      6100
 2450              	.LASF61:
 2451 05fe 696E6974 		.ascii	"init_text_area\000"
 2451      5F746578 
 2451      745F6172 
 2451      656100
 2452              		.ident	"GCC: (Arm GNU Toolchain 11.3.Rel1) 11.3.1 20220712"
ARM GAS  C:\Users\DEVELO~1\AppData\Local\Temp\ccw2kwuK.s 			page 49


DEFINED SYMBOLS
                            *ABS*:00000000 crt1.c
C:\Users\DEVELO~1\AppData\Local\Temp\ccw2kwuK.s:18     .text.SCB_EnableICache:00000000 $t
C:\Users\DEVELO~1\AppData\Local\Temp\ccw2kwuK.s:23     .text.SCB_EnableICache:00000000 SCB_EnableICache
C:\Users\DEVELO~1\AppData\Local\Temp\ccw2kwuK.s:138    .text.SCB_EnableICache:00000044 $d
C:\Users\DEVELO~1\AppData\Local\Temp\ccw2kwuK.s:143    .text.SCB_InvalidateICache:00000000 $t
C:\Users\DEVELO~1\AppData\Local\Temp\ccw2kwuK.s:148    .text.SCB_InvalidateICache:00000000 SCB_InvalidateICache
C:\Users\DEVELO~1\AppData\Local\Temp\ccw2kwuK.s:229    .text.SCB_InvalidateICache:0000002c $d
C:\Users\DEVELO~1\AppData\Local\Temp\ccw2kwuK.s:234    .text.SCB_EnableDCache:00000000 $t
C:\Users\DEVELO~1\AppData\Local\Temp\ccw2kwuK.s:239    .text.SCB_EnableDCache:00000000 SCB_EnableDCache
C:\Users\DEVELO~1\AppData\Local\Temp\ccw2kwuK.s:378    .text.SCB_EnableDCache:00000084 $d
C:\Users\DEVELO~1\AppData\Local\Temp\ccw2kwuK.s:383    .text.SCB_CleanDCache:00000000 $t
C:\Users\DEVELO~1\AppData\Local\Temp\ccw2kwuK.s:388    .text.SCB_CleanDCache:00000000 SCB_CleanDCache
C:\Users\DEVELO~1\AppData\Local\Temp\ccw2kwuK.s:508    .text.SCB_CleanDCache:00000070 $d
C:\Users\DEVELO~1\AppData\Local\Temp\ccw2kwuK.s:513    .rodata.ram_areas:00000000 $d
C:\Users\DEVELO~1\AppData\Local\Temp\ccw2kwuK.s:516    .rodata.ram_areas:00000000 ram_areas
C:\Users\DEVELO~1\AppData\Local\Temp\ccw2kwuK.s:550    .text.__cpu_init:00000000 $t
C:\Users\DEVELO~1\AppData\Local\Temp\ccw2kwuK.s:556    .text.__cpu_init:00000000 __cpu_init
C:\Users\DEVELO~1\AppData\Local\Temp\ccw2kwuK.s:580    .text.__early_init:00000000 $t
C:\Users\DEVELO~1\AppData\Local\Temp\ccw2kwuK.s:586    .text.__early_init:00000000 __early_init
C:\Users\DEVELO~1\AppData\Local\Temp\ccw2kwuK.s:611    .text.__late_init:00000000 $t
C:\Users\DEVELO~1\AppData\Local\Temp\ccw2kwuK.s:617    .text.__late_init:00000000 __late_init
C:\Users\DEVELO~1\AppData\Local\Temp\ccw2kwuK.s:642    .text.__default_exit:00000000 $t
C:\Users\DEVELO~1\AppData\Local\Temp\ccw2kwuK.s:648    .text.__default_exit:00000000 __default_exit
C:\Users\DEVELO~1\AppData\Local\Temp\ccw2kwuK.s:667    .text.__init_ram_areas:00000000 $t
C:\Users\DEVELO~1\AppData\Local\Temp\ccw2kwuK.s:673    .text.__init_ram_areas:00000000 __init_ram_areas
C:\Users\DEVELO~1\AppData\Local\Temp\ccw2kwuK.s:769    .text.__init_ram_areas:0000006c $d

UNDEFINED SYMBOLS
__ram0_init_text__
__ram0_init__
__ram0_clear__
__ram0_noinit__
__ram1_init_text__
__ram1_init__
__ram1_clear__
__ram1_noinit__
__ram2_init_text__
__ram2_init__
__ram2_clear__
__ram2_noinit__
__ram3_init_text__
__ram3_init__
__ram3_clear__
__ram3_noinit__
__ram4_init_text__
__ram4_init__
__ram4_clear__
__ram4_noinit__
__ram5_init_text__
__ram5_init__
__ram5_clear__
__ram5_noinit__
__ram6_init_text__
__ram6_init__
__ram6_clear__
__ram6_noinit__
ARM GAS  C:\Users\DEVELO~1\AppData\Local\Temp\ccw2kwuK.s 			page 50


__ram7_init_text__
__ram7_init__
__ram7_clear__
__ram7_noinit__
