ARM GAS  C:\Users\DEVELO~1\AppData\Local\Temp\ccXkAlmL.s 			page 1


   1              		.cpu cortex-m7
   2              		.arch armv7e-m
   3              		.fpu softvfp
   4              		.eabi_attribute 20, 1
   5              		.eabi_attribute 21, 1
   6              		.eabi_attribute 23, 3
   7              		.eabi_attribute 24, 1
   8              		.eabi_attribute 25, 1
   9              		.eabi_attribute 26, 1
  10              		.eabi_attribute 30, 6
  11              		.eabi_attribute 34, 1
  12              		.eabi_attribute 18, 4
  13              		.file	"drivers.c"
  14              		.text
  15              	.Ltext0:
  16              		.cfi_sections	.debug_frame
  17              		.global	spi5_mutex
  18              		.section	.bss.spi5_mutex,"aw",%nobits
  19              		.align	2
  20              		.type	spi5_mutex, %object
  21              		.size	spi5_mutex, 16
  22              	spi5_mutex:
  23 0000 00000000 		.space	16
  23      00000000 
  23      00000000 
  23      00000000 
  24              		.section	.text.drivers_init_all,"ax",%progbits
  25              		.align	1
  26              		.global	drivers_init_all
  27              		.syntax unified
  28              		.thumb
  29              		.thumb_func
  30              		.type	drivers_init_all, %function
  31              	drivers_init_all:
  32              	.LFB432:
  33              		.file 1 "drivers/drivers.c"
  34              		.loc 1 11 29
  35              		.cfi_startproc
  36              		@ args = 0, pretend = 0, frame = 0
  37              		@ frame_needed = 1, uses_anonymous_args = 0
  38 0000 80B5     		push	{r7, lr}
  39              		.cfi_def_cfa_offset 8
  40              		.cfi_offset 7, -8
  41              		.cfi_offset 14, -4
  42 0002 00AF     		add	r7, sp, #0
  43              		.cfi_def_cfa_register 7
  44              		.loc 1 12 5
  45 0004 0448     		ldr	r0, .L2
  46 0006 FFF7FEFF 		bl	chMtxObjectInit
  47              		.loc 1 20 5
  48 000a FFF7FEFF 		bl	drv_display_init
  49              		.loc 1 21 5
  50 000e FFF7FEFF 		bl	drv_display_start
  51              		.loc 1 23 1
  52 0012 00BF     		nop
  53 0014 80BD     		pop	{r7, pc}
  54              	.L3:
ARM GAS  C:\Users\DEVELO~1\AppData\Local\Temp\ccXkAlmL.s 			page 2


  55 0016 00BF     		.align	2
  56              	.L2:
  57 0018 00000000 		.word	spi5_mutex
  58              		.cfi_endproc
  59              	.LFE432:
  60              		.size	drivers_init_all, .-drivers_init_all
  61              		.section	.text.drivers_update_all,"ax",%progbits
  62              		.align	1
  63              		.global	drivers_update_all
  64              		.syntax unified
  65              		.thumb
  66              		.thumb_func
  67              		.type	drivers_update_all, %function
  68              	drivers_update_all:
  69              	.LFB433:
  70              		.loc 1 26 31
  71              		.cfi_startproc
  72              		@ args = 0, pretend = 0, frame = 0
  73              		@ frame_needed = 1, uses_anonymous_args = 0
  74 0000 80B5     		push	{r7, lr}
  75              		.cfi_def_cfa_offset 8
  76              		.cfi_offset 7, -8
  77              		.cfi_offset 14, -4
  78 0002 00AF     		add	r7, sp, #0
  79              		.cfi_def_cfa_register 7
  80              		.loc 1 29 5
  81 0004 FFF7FEFF 		bl	drv_display_update
  82              		.loc 1 30 1
  83 0008 00BF     		nop
  84 000a 80BD     		pop	{r7, pc}
  85              		.cfi_endproc
  86              	.LFE433:
  87              		.size	drivers_update_all, .-drivers_update_all
  88              		.text
  89              	.Letext0:
  90              		.file 2 "c:\\chibistudio\\tools\\gnu tools arm embedded\\11.3 2022.08\\arm-none-eabi\\include\\mac
  91              		.file 3 "c:\\chibistudio\\tools\\gnu tools arm embedded\\11.3 2022.08\\arm-none-eabi\\include\\sys
  92              		.file 4 "../../../os/common/ports/ARM-common/chtypes.h"
  93              		.file 5 "../../../os/rt/include/chearly.h"
  94              		.file 6 "../../../os/rt/include/chobjects.h"
  95              		.file 7 "../../../os/rt/include/chrfcu.h"
  96              		.file 8 "../../../os/rt/include/chdebug.h"
  97              		.file 9 "../../../os/rt/include/chtime.h"
  98              		.file 10 "../../../os/rt/include/chlists.h"
  99              		.file 11 "../../../os/rt/include/chtrace.h"
 100              		.file 12 "../../../os/common/ports/ARMv7-M/chcore.h"
 101              		.file 13 "../../../os/rt/include/chsem.h"
 102              		.file 14 "../../../os/rt/include/chmtx.h"
 103              		.file 15 "drivers/drv_display.h"
 104              		.file 16 "drivers/drivers.h"