ARM GAS  C:\Users\DEVELO~1\AppData\Local\Temp\cc597XWa.s 			page 1


   1              		.cpu cortex-m7
   2              		.arch armv7e-m
   3              		.fpu softvfp
   4              		.eabi_attribute 20, 1
   5              		.eabi_attribute 21, 1
   6              		.eabi_attribute 23, 3
   7              		.eabi_attribute 24, 1
   8              		.eabi_attribute 25, 1
   9              		.eabi_attribute 26, 1
  10              		.eabi_attribute 30, 6
  11              		.eabi_attribute 34, 1
  12              		.eabi_attribute 18, 4
  13              		.file	"drivers.c"
  14              		.text
  15              	.Ltext0:
  16              		.cfi_sections	.debug_frame
  17              		.global	spi5_mutex
  18              		.section	.bss.spi5_mutex,"aw",%nobits
  19              		.align	2
  20              		.type	spi5_mutex, %object
  21              		.size	spi5_mutex, 16
  22              	spi5_mutex:
  23 0000 00000000 		.space	16
  23      00000000 
  23      00000000 
  23      00000000 
  24              		.section	.text.drivers_init_all,"ax",%progbits
  25              		.align	1
  26              		.global	drivers_init_all
  27              		.syntax unified
  28              		.thumb
  29              		.thumb_func
  30              		.type	drivers_init_all, %function
  31              	drivers_init_all:
  32              	.LFB432:
  33              		.file 1 "drivers/drivers.c"
  34              		.loc 1 11 29
  35              		.cfi_startproc
  36              		@ args = 0, pretend = 0, frame = 0
  37              		@ frame_needed = 1, uses_anonymous_args = 0
  38 0000 80B5     		push	{r7, lr}
  39              		.cfi_def_cfa_offset 8
  40              		.cfi_offset 7, -8
  41              		.cfi_offset 14, -4
  42 0002 00AF     		add	r7, sp, #0
  43              		.cfi_def_cfa_register 7
  44              		.loc 1 12 5
  45 0004 0448     		ldr	r0, .L2
  46 0006 FFF7FEFF 		bl	chMtxObjectInit
  47              		.loc 1 20 5
  48 000a FFF7FEFF 		bl	drv_display_init
  49              		.loc 1 21 5
  50 000e FFF7FEFF 		bl	drv_encoders_start
  51              		.loc 1 23 1
  52 0012 00BF     		nop
  53 0014 80BD     		pop	{r7, pc}
  54              	.L3:
ARM GAS  C:\Users\DEVELO~1\AppData\Local\Temp\cc597XWa.s 			page 2


  55 0016 00BF     		.align	2
  56              	.L2:
  57 0018 00000000 		.word	spi5_mutex
  58              		.cfi_endproc
  59              	.LFE432:
  60              		.size	drivers_init_all, .-drivers_init_all
  61              		.section	.text.drivers_update_all,"ax",%progbits
  62              		.align	1
  63              		.global	drivers_update_all
  64              		.syntax unified
  65              		.thumb
  66              		.thumb_func
  67              		.type	drivers_update_all, %function
  68              	drivers_update_all:
  69              	.LFB433:
  70              		.loc 1 26 31
  71              		.cfi_startproc
  72              		@ args = 0, pretend = 0, frame = 0
  73              		@ frame_needed = 1, uses_anonymous_args = 0
  74              		@ link register save eliminated.
  75 0000 80B4     		push	{r7}
  76              		.cfi_def_cfa_offset 4
  77              		.cfi_offset 7, -4
  78 0002 00AF     		add	r7, sp, #0
  79              		.cfi_def_cfa_register 7
  80              		.loc 1 29 1
  81 0004 00BF     		nop
  82 0006 BD46     		mov	sp, r7
  83              		.cfi_def_cfa_register 13
  84              		@ sp needed
  85 0008 80BC     		pop	{r7}
  86              		.cfi_restore 7
  87              		.cfi_def_cfa_offset 0
  88 000a 7047     		bx	lr
  89              		.cfi_endproc
  90              	.LFE433:
  91              		.size	drivers_update_all, .-drivers_update_all
  92              		.text
  93              	.Letext0:
  94              		.file 2 "c:\\chibistudio\\tools\\gnu tools arm embedded\\11.3 2022.08\\arm-none-eabi\\include\\mac
  95              		.file 3 "c:\\chibistudio\\tools\\gnu tools arm embedded\\11.3 2022.08\\arm-none-eabi\\include\\sys
  96              		.file 4 "../../../os/common/ports/ARM-common/chtypes.h"
  97              		.file 5 "../../../os/rt/include/chearly.h"
  98              		.file 6 "../../../os/rt/include/chobjects.h"
  99              		.file 7 "../../../os/rt/include/chrfcu.h"
 100              		.file 8 "../../../os/rt/include/chdebug.h"
 101              		.file 9 "../../../os/rt/include/chtime.h"
 102              		.file 10 "../../../os/rt/include/chlists.h"
 103              		.file 11 "../../../os/rt/include/chtrace.h"
 104              		.file 12 "../../../os/common/ports/ARMv7-M/chcore.h"
 105              		.file 13 "../../../os/rt/include/chsem.h"
 106              		.file 14 "../../../os/rt/include/chmtx.h"
 107              		.file 15 "drivers/drv_encoders.h"
 108              		.file 16 "drivers/drv_display.h"
 109              		.file 17 "drivers/drivers.h"
 110              		.section	.debug_info,"",%progbits
 111              	.Ldebug_info0:
ARM GAS  C:\Users\DEVELO~1\AppData\Local\Temp\cc597XWa.s 			page 3


 112 0000 1B090000 		.4byte	0x91b
 113 0004 0500     		.2byte	0x5
 114 0006 01       		.byte	0x1
 115 0007 04       		.byte	0x4
 116 0008 00000000 		.4byte	.Ldebug_abbrev0
 117 000c 14       		.uleb128 0x14
 118 000d D0000000 		.4byte	.LASF126
 119 0011 1D       		.byte	0x1d
 120 0012 E4040000 		.4byte	.LASF127
 121 0016 5C020000 		.4byte	.LASF128
 122 001a 0C000000 		.4byte	.LLRL0
 123 001e 00000000 		.4byte	0
 124 0022 00000000 		.4byte	.Ldebug_line0
 125 0026 15       		.uleb128 0x15
 126 0027 04       		.byte	0x4
 127 0028 05       		.byte	0x5
 128 0029 696E7400 		.ascii	"int\000"
 129 002d 05       		.uleb128 0x5
 130 002e 04       		.byte	0x4
 131 002f 07       		.byte	0x7
 132 0030 05020000 		.4byte	.LASF0
 133 0034 05       		.uleb128 0x5
 134 0035 08       		.byte	0x8
 135 0036 05       		.byte	0x5
 136 0037 91000000 		.4byte	.LASF1
 137 003b 05       		.uleb128 0x5
 138 003c 08       		.byte	0x8
 139 003d 04       		.byte	0x4
 140 003e 0C050000 		.4byte	.LASF2
 141 0042 05       		.uleb128 0x5
 142 0043 01       		.byte	0x1
 143 0044 06       		.byte	0x6
 144 0045 9F000000 		.4byte	.LASF3
 145 0049 01       		.uleb128 0x1
 146 004a 30000000 		.4byte	.LASF6
 147 004e 02       		.byte	0x2
 148 004f 2B       		.byte	0x2b
 149 0050 18       		.byte	0x18
 150 0051 55000000 		.4byte	0x55
 151 0055 05       		.uleb128 0x5
 152 0056 01       		.byte	0x1
 153 0057 08       		.byte	0x8
 154 0058 64040000 		.4byte	.LASF4
 155 005c 05       		.uleb128 0x5
 156 005d 02       		.byte	0x2
 157 005e 05       		.byte	0x5
 158 005f 79040000 		.4byte	.LASF5
 159 0063 01       		.uleb128 0x1
 160 0064 2B050000 		.4byte	.LASF7
 161 0068 02       		.byte	0x2
 162 0069 39       		.byte	0x39
 163 006a 19       		.byte	0x19
 164 006b 6F000000 		.4byte	0x6f
 165 006f 05       		.uleb128 0x5
 166 0070 02       		.byte	0x2
 167 0071 07       		.byte	0x7
 168 0072 D1020000 		.4byte	.LASF8
ARM GAS  C:\Users\DEVELO~1\AppData\Local\Temp\cc597XWa.s 			page 4


 169 0076 01       		.uleb128 0x1
 170 0077 27030000 		.4byte	.LASF9
 171 007b 02       		.byte	0x2
 172 007c 4D       		.byte	0x4d
 173 007d 18       		.byte	0x18
 174 007e 82000000 		.4byte	0x82
 175 0082 05       		.uleb128 0x5
 176 0083 04       		.byte	0x4
 177 0084 05       		.byte	0x5
 178 0085 61010000 		.4byte	.LASF10
 179 0089 01       		.uleb128 0x1
 180 008a B8010000 		.4byte	.LASF11
 181 008e 02       		.byte	0x2
 182 008f 4F       		.byte	0x4f
 183 0090 19       		.byte	0x19
 184 0091 95000000 		.4byte	0x95
 185 0095 05       		.uleb128 0x5
 186 0096 04       		.byte	0x4
 187 0097 07       		.byte	0x7
 188 0098 38020000 		.4byte	.LASF12
 189 009c 01       		.uleb128 0x1
 190 009d 17040000 		.4byte	.LASF13
 191 00a1 02       		.byte	0x2
 192 00a2 69       		.byte	0x69
 193 00a3 19       		.byte	0x19
 194 00a4 A8000000 		.4byte	0xa8
 195 00a8 05       		.uleb128 0x5
 196 00a9 08       		.byte	0x8
 197 00aa 07       		.byte	0x7
 198 00ab B9000000 		.4byte	.LASF14
 199 00af 01       		.uleb128 0x1
 200 00b0 E8050000 		.4byte	.LASF15
 201 00b4 03       		.byte	0x3
 202 00b5 18       		.byte	0x18
 203 00b6 13       		.byte	0x13
 204 00b7 49000000 		.4byte	0x49
 205 00bb 01       		.uleb128 0x1
 206 00bc 94010000 		.4byte	.LASF16
 207 00c0 03       		.byte	0x3
 208 00c1 24       		.byte	0x24
 209 00c2 14       		.byte	0x14
 210 00c3 63000000 		.4byte	0x63
 211 00c7 01       		.uleb128 0x1
 212 00c8 5C040000 		.4byte	.LASF17
 213 00cc 03       		.byte	0x3
 214 00cd 2C       		.byte	0x2c
 215 00ce 13       		.byte	0x13
 216 00cf 76000000 		.4byte	0x76
 217 00d3 01       		.uleb128 0x1
 218 00d4 D4040000 		.4byte	.LASF18
 219 00d8 03       		.byte	0x3
 220 00d9 30       		.byte	0x30
 221 00da 14       		.byte	0x14
 222 00db 89000000 		.4byte	0x89
 223 00df 01       		.uleb128 0x1
 224 00e0 CA030000 		.4byte	.LASF19
 225 00e4 03       		.byte	0x3
ARM GAS  C:\Users\DEVELO~1\AppData\Local\Temp\cc597XWa.s 			page 5


 226 00e5 3C       		.byte	0x3c
 227 00e6 14       		.byte	0x14
 228 00e7 9C000000 		.4byte	0x9c
 229 00eb 10       		.uleb128 0x10
 230 00ec DF000000 		.4byte	0xdf
 231 00f0 01       		.uleb128 0x1
 232 00f1 F6040000 		.4byte	.LASF20
 233 00f5 04       		.byte	0x4
 234 00f6 48       		.byte	0x48
 235 00f7 1D       		.byte	0x1d
 236 00f8 DF000000 		.4byte	0xdf
 237 00fc 01       		.uleb128 0x1
 238 00fd 47030000 		.4byte	.LASF21
 239 0101 05       		.byte	0x5
 240 0102 50       		.byte	0x50
 241 0103 19       		.byte	0x19
 242 0104 F0000000 		.4byte	0xf0
 243 0108 01       		.uleb128 0x1
 244 0109 FD020000 		.4byte	.LASF22
 245 010d 05       		.byte	0x5
 246 010e 53       		.byte	0x53
 247 010f 19       		.byte	0x19
 248 0110 AF000000 		.4byte	0xaf
 249 0114 01       		.uleb128 0x1
 250 0115 6A010000 		.4byte	.LASF23
 251 0119 05       		.byte	0x5
 252 011a 54       		.byte	0x54
 253 011b 19       		.byte	0x19
 254 011c AF000000 		.4byte	0xaf
 255 0120 01       		.uleb128 0x1
 256 0121 2C040000 		.4byte	.LASF24
 257 0125 05       		.byte	0x5
 258 0126 55       		.byte	0x55
 259 0127 19       		.byte	0x19
 260 0128 AF000000 		.4byte	0xaf
 261 012c 01       		.uleb128 0x1
 262 012d 3E040000 		.4byte	.LASF25
 263 0131 05       		.byte	0x5
 264 0132 57       		.byte	0x57
 265 0133 19       		.byte	0x19
 266 0134 D3000000 		.4byte	0xd3
 267 0138 01       		.uleb128 0x1
 268 0139 EE020000 		.4byte	.LASF26
 269 013d 05       		.byte	0x5
 270 013e 58       		.byte	0x58
 271 013f 19       		.byte	0x19
 272 0140 C7000000 		.4byte	0xc7
 273 0144 01       		.uleb128 0x1
 274 0145 1B030000 		.4byte	.LASF27
 275 0149 05       		.byte	0x5
 276 014a 5A       		.byte	0x5a
 277 014b 19       		.byte	0x19
 278 014c D3000000 		.4byte	0xd3
 279 0150 01       		.uleb128 0x1
 280 0151 F6010000 		.4byte	.LASF28
 281 0155 05       		.byte	0x5
 282 0156 5C       		.byte	0x5c
ARM GAS  C:\Users\DEVELO~1\AppData\Local\Temp\cc597XWa.s 			page 6


 283 0157 19       		.byte	0x19
 284 0158 C7000000 		.4byte	0xc7
 285 015c 01       		.uleb128 0x1
 286 015d 22040000 		.4byte	.LASF29
 287 0161 05       		.byte	0x5
 288 0162 80       		.byte	0x80
 289 0163 12       		.byte	0x12
 290 0164 2D000000 		.4byte	0x2d
 291 0168 01       		.uleb128 0x1
 292 0169 36050000 		.4byte	.LASF30
 293 016d 05       		.byte	0x5
 294 016e 85       		.byte	0x85
 295 016f 1A       		.byte	0x1a
 296 0170 74010000 		.4byte	0x174
 297 0174 07       		.uleb128 0x7
 298 0175 E4020000 		.4byte	.LASF45
 299 0179 48       		.byte	0x48
 300 017a 06       		.byte	0x6
 301 017b 9C       		.byte	0x9c
 302 017c 08       		.byte	0x8
 303 017d 51020000 		.4byte	0x251
 304 0181 08       		.uleb128 0x8
 305 0182 68647200 		.ascii	"hdr\000"
 306 0186 06       		.byte	0x6
 307 0187 AD       		.byte	0xad
 308 0188 05       		.byte	0x5
 309 0189 01070000 		.4byte	0x701
 310 018d 00       		.byte	0
 311 018e 08       		.uleb128 0x8
 312 018f 63747800 		.ascii	"ctx\000"
 313 0193 06       		.byte	0x6
 314 0194 B1       		.byte	0xb1
 315 0195 21       		.byte	0x21
 316 0196 6C060000 		.4byte	0x66c
 317 019a 0C       		.byte	0xc
 318 019b 02       		.uleb128 0x2
 319 019c 4A020000 		.4byte	.LASF31
 320 01a0 06       		.byte	0x6
 321 01a1 B6       		.byte	0xb6
 322 01a2 21       		.byte	0x21
 323 01a3 97030000 		.4byte	0x397
 324 01a7 10       		.byte	0x10
 325 01a8 02       		.uleb128 0x2
 326 01a9 06050000 		.4byte	.LASF32
 327 01ad 06       		.byte	0x6
 328 01ae BB       		.byte	0xbb
 329 01af 22       		.byte	0x22
 330 01b0 03080000 		.4byte	0x803
 331 01b4 18       		.byte	0x18
 332 01b5 02       		.uleb128 0x2
 333 01b6 BB020000 		.4byte	.LASF33
 334 01ba 06       		.byte	0x6
 335 01bb C0       		.byte	0xc0
 336 01bc 22       		.byte	0x22
 337 01bd 31030000 		.4byte	0x331
 338 01c1 1C       		.byte	0x1c
 339 01c2 02       		.uleb128 0x2
ARM GAS  C:\Users\DEVELO~1\AppData\Local\Temp\cc597XWa.s 			page 7


 340 01c3 18050000 		.4byte	.LASF34
 341 01c7 06       		.byte	0x6
 342 01c8 C9       		.byte	0xc9
 343 01c9 22       		.byte	0x22
 344 01ca 08080000 		.4byte	0x808
 345 01ce 20       		.byte	0x20
 346 01cf 02       		.uleb128 0x2
 347 01d0 5B010000 		.4byte	.LASF35
 348 01d4 06       		.byte	0x6
 349 01d5 CE       		.byte	0xce
 350 01d6 21       		.byte	0x21
 351 01d7 14010000 		.4byte	0x114
 352 01db 24       		.byte	0x24
 353 01dc 02       		.uleb128 0x2
 354 01dd F0050000 		.4byte	.LASF36
 355 01e1 06       		.byte	0x6
 356 01e2 D2       		.byte	0xd2
 357 01e3 21       		.byte	0x21
 358 01e4 08010000 		.4byte	0x108
 359 01e8 25       		.byte	0x25
 360 01e9 02       		.uleb128 0x2
 361 01ea 34040000 		.4byte	.LASF37
 362 01ee 06       		.byte	0x6
 363 01ef D7       		.byte	0xd7
 364 01f0 21       		.byte	0x21
 365 01f1 20010000 		.4byte	0x120
 366 01f5 26       		.byte	0x26
 367 01f6 06       		.uleb128 0x6
 368 01f7 7500     		.ascii	"u\000"
 369 01f9 06       		.byte	0x6
 370 01fa 2801     		.2byte	0x128
 371 01fc 21       		.byte	0x21
 372 01fd 2E070000 		.4byte	0x72e
 373 0201 28       		.byte	0x28
 374 0202 03       		.uleb128 0x3
 375 0203 C8010000 		.4byte	.LASF38
 376 0207 2D01     		.2byte	0x12d
 377 0209 21       		.byte	0x21
 378 020a 6B030000 		.4byte	0x36b
 379 020e 2C       		.byte	0x2c
 380 020f 03       		.uleb128 0x3
 381 0210 FC010000 		.4byte	.LASF39
 382 0214 3301     		.2byte	0x133
 383 0216 21       		.byte	0x21
 384 0217 97030000 		.4byte	0x397
 385 021b 30       		.byte	0x30
 386 021c 03       		.uleb128 0x3
 387 021d F4020000 		.4byte	.LASF40
 388 0221 3901     		.2byte	0x139
 389 0223 21       		.byte	0x21
 390 0224 44010000 		.4byte	0x144
 391 0228 38       		.byte	0x38
 392 0229 03       		.uleb128 0x3
 393 022a 20060000 		.4byte	.LASF41
 394 022e 4001     		.2byte	0x140
 395 0230 22       		.byte	0x22
 396 0231 FE070000 		.4byte	0x7fe
ARM GAS  C:\Users\DEVELO~1\AppData\Local\Temp\cc597XWa.s 			page 8


 397 0235 3C       		.byte	0x3c
 398 0236 03       		.uleb128 0x3
 399 0237 77030000 		.4byte	.LASF42
 400 023b 4401     		.2byte	0x144
 401 023d 21       		.byte	0x21
 402 023e 2C010000 		.4byte	0x12c
 403 0242 40       		.byte	0x40
 404 0243 03       		.uleb128 0x3
 405 0244 C6020000 		.4byte	.LASF43
 406 0248 4B01     		.2byte	0x14b
 407 024a 22       		.byte	0x22
 408 024b 84040000 		.4byte	0x484
 409 024f 44       		.byte	0x44
 410 0250 00       		.byte	0
 411 0251 01       		.uleb128 0x1
 412 0252 86050000 		.4byte	.LASF44
 413 0256 05       		.byte	0x5
 414 0257 8A       		.byte	0x8a
 415 0258 1F       		.byte	0x1f
 416 0259 5D020000 		.4byte	0x25d
 417 025d 16       		.uleb128 0x16
 418 025e F6030000 		.4byte	.LASF46
 419 0262 9008     		.2byte	0x890
 420 0264 06       		.byte	0x6
 421 0265 8A01     		.2byte	0x18a
 422 0267 08       		.byte	0x8
 423 0268 E3020000 		.4byte	0x2e3
 424 026c 03       		.uleb128 0x3
 425 026d E2050000 		.4byte	.LASF47
 426 0271 8E01     		.2byte	0x18e
 427 0273 21       		.byte	0x21
 428 0274 36080000 		.4byte	0x836
 429 0278 00       		.byte	0
 430 0279 03       		.uleb128 0x3
 431 027a 4B000000 		.4byte	.LASF48
 432 027e 9201     		.2byte	0x192
 433 0280 21       		.byte	0x21
 434 0281 C2060000 		.4byte	0x6c2
 435 0285 10       		.byte	0x10
 436 0286 03       		.uleb128 0x3
 437 0287 94050000 		.4byte	.LASF49
 438 028b 9901     		.2byte	0x199
 439 028d 21       		.byte	0x21
 440 028e E9060000 		.4byte	0x6e9
 441 0292 28       		.byte	0x28
 442 0293 03       		.uleb128 0x3
 443 0294 9A040000 		.4byte	.LASF50
 444 0298 9E01     		.2byte	0x19e
 445 029a 21       		.byte	0x21
 446 029b 5C010000 		.4byte	0x15c
 447 029f 30       		.byte	0x30
 448 02a0 03       		.uleb128 0x3
 449 02a1 1A000000 		.4byte	.LASF51
 450 02a5 A401     		.2byte	0x1a4
 451 02a7 21       		.byte	0x21
 452 02a8 0A030000 		.4byte	0x30a
 453 02ac 34       		.byte	0x34
ARM GAS  C:\Users\DEVELO~1\AppData\Local\Temp\cc597XWa.s 			page 9


 454 02ad 03       		.uleb128 0x3
 455 02ae 24050000 		.4byte	.LASF52
 456 02b2 A901     		.2byte	0x1a9
 457 02b4 22       		.byte	0x22
 458 02b5 A1080000 		.4byte	0x8a1
 459 02b9 38       		.byte	0x38
 460 02ba 03       		.uleb128 0x3
 461 02bb 73000000 		.4byte	.LASF53
 462 02bf AD01     		.2byte	0x1ad
 463 02c1 21       		.byte	0x21
 464 02c2 68010000 		.4byte	0x168
 465 02c6 3C       		.byte	0x3c
 466 02c7 06       		.uleb128 0x6
 467 02c8 64626700 		.ascii	"dbg\000"
 468 02cc 06       		.byte	0x6
 469 02cd B101     		.2byte	0x1b1
 470 02cf 21       		.byte	0x21
 471 02d0 47030000 		.4byte	0x347
 472 02d4 84       		.byte	0x84
 473 02d5 03       		.uleb128 0x3
 474 02d6 FF050000 		.4byte	.LASF54
 475 02da B601     		.2byte	0x1b6
 476 02dc 21       		.byte	0x21
 477 02dd DA050000 		.4byte	0x5da
 478 02e1 88       		.byte	0x88
 479 02e2 00       		.byte	0
 480 02e3 01       		.uleb128 0x1
 481 02e4 80030000 		.4byte	.LASF55
 482 02e8 07       		.byte	0x7
 483 02e9 3F       		.byte	0x3f
 484 02ea 12       		.byte	0x12
 485 02eb D3000000 		.4byte	0xd3
 486 02ef 07       		.uleb128 0x7
 487 02f0 73010000 		.4byte	.LASF56
 488 02f4 04       		.byte	0x4
 489 02f5 07       		.byte	0x7
 490 02f6 44       		.byte	0x44
 491 02f7 10       		.byte	0x10
 492 02f8 0A030000 		.4byte	0x30a
 493 02fc 02       		.uleb128 0x2
 494 02fd C3010000 		.4byte	.LASF57
 495 0301 07       		.byte	0x7
 496 0302 48       		.byte	0x48
 497 0303 21       		.byte	0x21
 498 0304 E3020000 		.4byte	0x2e3
 499 0308 00       		.byte	0
 500 0309 00       		.byte	0
 501 030a 01       		.uleb128 0x1
 502 030b 72040000 		.4byte	.LASF58
 503 030f 07       		.byte	0x7
 504 0310 49       		.byte	0x49
 505 0311 03       		.byte	0x3
 506 0312 EF020000 		.4byte	0x2ef
 507 0316 07       		.uleb128 0x7
 508 0317 46040000 		.4byte	.LASF59
 509 031b 04       		.byte	0x4
 510 031c 08       		.byte	0x8
ARM GAS  C:\Users\DEVELO~1\AppData\Local\Temp\cc597XWa.s 			page 10


 511 031d 3E       		.byte	0x3e
 512 031e 10       		.byte	0x10
 513 031f 31030000 		.4byte	0x331
 514 0323 02       		.uleb128 0x2
 515 0324 6A050000 		.4byte	.LASF60
 516 0328 08       		.byte	0x8
 517 0329 46       		.byte	0x46
 518 032a 24       		.byte	0x24
 519 032b 36030000 		.4byte	0x336
 520 032f 00       		.byte	0
 521 0330 00       		.byte	0
 522 0331 04       		.uleb128 0x4
 523 0332 42030000 		.4byte	0x342
 524 0336 10       		.uleb128 0x10
 525 0337 31030000 		.4byte	0x331
 526 033b 05       		.uleb128 0x5
 527 033c 01       		.byte	0x1
 528 033d 08       		.byte	0x8
 529 033e 1F050000 		.4byte	.LASF61
 530 0342 11       		.uleb128 0x11
 531 0343 3B030000 		.4byte	0x33b
 532 0347 01       		.uleb128 0x1
 533 0348 29020000 		.4byte	.LASF62
 534 034c 08       		.byte	0x8
 535 034d 51       		.byte	0x51
 536 034e 03       		.byte	0x3
 537 034f 16030000 		.4byte	0x316
 538 0353 01       		.uleb128 0x1
 539 0354 45050000 		.4byte	.LASF63
 540 0358 09       		.byte	0x9
 541 0359 6D       		.byte	0x6d
 542 035a 12       		.byte	0x12
 543 035b D3000000 		.4byte	0xd3
 544 035f 01       		.uleb128 0x1
 545 0360 E8010000 		.4byte	.LASF64
 546 0364 09       		.byte	0x9
 547 0365 79       		.byte	0x79
 548 0366 12       		.byte	0x12
 549 0367 D3000000 		.4byte	0xd3
 550 036b 01       		.uleb128 0x1
 551 036c B6030000 		.4byte	.LASF65
 552 0370 0A       		.byte	0xa
 553 0371 32       		.byte	0x32
 554 0372 18       		.byte	0x18
 555 0373 77030000 		.4byte	0x377
 556 0377 07       		.uleb128 0x7
 557 0378 05030000 		.4byte	.LASF66
 558 037c 04       		.byte	0x4
 559 037d 0A       		.byte	0xa
 560 037e 38       		.byte	0x38
 561 037f 08       		.byte	0x8
 562 0380 92030000 		.4byte	0x392
 563 0384 02       		.uleb128 0x2
 564 0385 8C000000 		.4byte	.LASF67
 565 0389 0A       		.byte	0xa
 566 038a 39       		.byte	0x39
 567 038b 1A       		.byte	0x1a
ARM GAS  C:\Users\DEVELO~1\AppData\Local\Temp\cc597XWa.s 			page 11


 568 038c 92030000 		.4byte	0x392
 569 0390 00       		.byte	0
 570 0391 00       		.byte	0
 571 0392 04       		.uleb128 0x4
 572 0393 6B030000 		.4byte	0x36b
 573 0397 01       		.uleb128 0x1
 574 0398 51020000 		.4byte	.LASF68
 575 039c 0A       		.byte	0xa
 576 039d 3F       		.byte	0x3f
 577 039e 19       		.byte	0x19
 578 039f A3030000 		.4byte	0x3a3
 579 03a3 07       		.uleb128 0x7
 580 03a4 8B010000 		.4byte	.LASF69
 581 03a8 08       		.byte	0x8
 582 03a9 0A       		.byte	0xa
 583 03aa 45       		.byte	0x45
 584 03ab 08       		.byte	0x8
 585 03ac CB030000 		.4byte	0x3cb
 586 03b0 02       		.uleb128 0x2
 587 03b1 8C000000 		.4byte	.LASF67
 588 03b5 0A       		.byte	0xa
 589 03b6 46       		.byte	0x46
 590 03b7 1A       		.byte	0x1a
 591 03b8 CB030000 		.4byte	0x3cb
 592 03bc 00       		.byte	0
 593 03bd 02       		.uleb128 0x2
 594 03be 3A000000 		.4byte	.LASF70
 595 03c2 0A       		.byte	0xa
 596 03c3 47       		.byte	0x47
 597 03c4 1A       		.byte	0x1a
 598 03c5 CB030000 		.4byte	0x3cb
 599 03c9 04       		.byte	0x4
 600 03ca 00       		.byte	0
 601 03cb 04       		.uleb128 0x4
 602 03cc 97030000 		.4byte	0x397
 603 03d0 01       		.uleb128 0x1
 604 03d1 56050000 		.4byte	.LASF71
 605 03d5 0A       		.byte	0xa
 606 03d6 4E       		.byte	0x4e
 607 03d7 22       		.byte	0x22
 608 03d8 DC030000 		.4byte	0x3dc
 609 03dc 07       		.uleb128 0x7
 610 03dd 9C050000 		.4byte	.LASF72
 611 03e1 0C       		.byte	0xc
 612 03e2 0A       		.byte	0xa
 613 03e3 55       		.byte	0x55
 614 03e4 08       		.byte	0x8
 615 03e5 11040000 		.4byte	0x411
 616 03e9 02       		.uleb128 0x2
 617 03ea 8C000000 		.4byte	.LASF67
 618 03ee 0A       		.byte	0xa
 619 03ef 56       		.byte	0x56
 620 03f0 1A       		.byte	0x1a
 621 03f1 11040000 		.4byte	0x411
 622 03f5 00       		.byte	0
 623 03f6 02       		.uleb128 0x2
 624 03f7 3A000000 		.4byte	.LASF70
ARM GAS  C:\Users\DEVELO~1\AppData\Local\Temp\cc597XWa.s 			page 12


 625 03fb 0A       		.byte	0xa
 626 03fc 57       		.byte	0x57
 627 03fd 1A       		.byte	0x1a
 628 03fe 11040000 		.4byte	0x411
 629 0402 04       		.byte	0x4
 630 0403 02       		.uleb128 0x2
 631 0404 0A040000 		.4byte	.LASF73
 632 0408 0A       		.byte	0xa
 633 0409 58       		.byte	0x58
 634 040a 19       		.byte	0x19
 635 040b 2C010000 		.4byte	0x12c
 636 040f 08       		.byte	0x8
 637 0410 00       		.byte	0
 638 0411 04       		.uleb128 0x4
 639 0412 D0030000 		.4byte	0x3d0
 640 0416 01       		.uleb128 0x1
 641 0417 AE050000 		.4byte	.LASF74
 642 041b 0A       		.byte	0xa
 643 041c 5F       		.byte	0x5f
 644 041d 1E       		.byte	0x1e
 645 041e 22040000 		.4byte	0x422
 646 0422 07       		.uleb128 0x7
 647 0423 AB000000 		.4byte	.LASF75
 648 0427 0C       		.byte	0xc
 649 0428 0A       		.byte	0xa
 650 0429 64       		.byte	0x64
 651 042a 08       		.byte	0x8
 652 042b 57040000 		.4byte	0x457
 653 042f 02       		.uleb128 0x2
 654 0430 8C000000 		.4byte	.LASF67
 655 0434 0A       		.byte	0xa
 656 0435 65       		.byte	0x65
 657 0436 1A       		.byte	0x1a
 658 0437 57040000 		.4byte	0x457
 659 043b 00       		.byte	0
 660 043c 02       		.uleb128 0x2
 661 043d 3A000000 		.4byte	.LASF70
 662 0441 0A       		.byte	0xa
 663 0442 66       		.byte	0x66
 664 0443 1A       		.byte	0x1a
 665 0444 57040000 		.4byte	0x457
 666 0448 04       		.byte	0x4
 667 0449 02       		.uleb128 0x2
 668 044a 86000000 		.4byte	.LASF76
 669 044e 0A       		.byte	0xa
 670 044f 67       		.byte	0x67
 671 0450 19       		.byte	0x19
 672 0451 5F030000 		.4byte	0x35f
 673 0455 08       		.byte	0x8
 674 0456 00       		.byte	0
 675 0457 04       		.uleb128 0x4
 676 0458 16040000 		.4byte	0x416
 677 045c 0A       		.uleb128 0xa
 678 045d 08       		.byte	0x8
 679 045e 83       		.byte	0x83
 680 045f 05       		.byte	0x5
 681 0460 7F040000 		.4byte	0x47f
ARM GAS  C:\Users\DEVELO~1\AppData\Local\Temp\cc597XWa.s 			page 13


 682 0464 08       		.uleb128 0x8
 683 0465 6E747000 		.ascii	"ntp\000"
 684 0469 0B       		.byte	0xb
 685 046a 87       		.byte	0x87
 686 046b 1E       		.byte	0x1e
 687 046c 7F040000 		.4byte	0x47f
 688 0470 00       		.byte	0
 689 0471 02       		.uleb128 0x2
 690 0472 8C040000 		.4byte	.LASF77
 691 0476 0B       		.byte	0xb
 692 0477 8B       		.byte	0x8b
 693 0478 1E       		.byte	0x1e
 694 0479 84040000 		.4byte	0x484
 695 047d 04       		.byte	0x4
 696 047e 00       		.byte	0
 697 047f 04       		.uleb128 0x4
 698 0480 68010000 		.4byte	0x168
 699 0484 17       		.uleb128 0x17
 700 0485 04       		.byte	0x4
 701 0486 0A       		.uleb128 0xa
 702 0487 08       		.byte	0x8
 703 0488 90       		.byte	0x90
 704 0489 05       		.byte	0x5
 705 048a A8040000 		.4byte	0x4a8
 706 048e 08       		.uleb128 0x8
 707 048f 747000   		.ascii	"tp\000"
 708 0492 0B       		.byte	0xb
 709 0493 94       		.byte	0x94
 710 0494 1E       		.byte	0x1e
 711 0495 7F040000 		.4byte	0x47f
 712 0499 00       		.byte	0
 713 049a 08       		.uleb128 0x8
 714 049b 6D736700 		.ascii	"msg\000"
 715 049f 0B       		.byte	0xb
 716 04a0 98       		.byte	0x98
 717 04a1 1D       		.byte	0x1d
 718 04a2 38010000 		.4byte	0x138
 719 04a6 04       		.byte	0x4
 720 04a7 00       		.byte	0
 721 04a8 0A       		.uleb128 0xa
 722 04a9 04       		.byte	0x4
 723 04aa 9D       		.byte	0x9d
 724 04ab 05       		.byte	0x5
 725 04ac BE040000 		.4byte	0x4be
 726 04b0 02       		.uleb128 0x2
 727 04b1 BB020000 		.4byte	.LASF33
 728 04b5 0B       		.byte	0xb
 729 04b6 A1       		.byte	0xa1
 730 04b7 1E       		.byte	0x1e
 731 04b8 31030000 		.4byte	0x331
 732 04bc 00       		.byte	0
 733 04bd 00       		.byte	0
 734 04be 0A       		.uleb128 0xa
 735 04bf 04       		.byte	0x4
 736 04c0 A6       		.byte	0xa6
 737 04c1 05       		.byte	0x5
 738 04c2 D4040000 		.4byte	0x4d4
ARM GAS  C:\Users\DEVELO~1\AppData\Local\Temp\cc597XWa.s 			page 14


 739 04c6 02       		.uleb128 0x2
 740 04c7 A2040000 		.4byte	.LASF78
 741 04cb 0B       		.byte	0xb
 742 04cc AA       		.byte	0xaa
 743 04cd 1E       		.byte	0x1e
 744 04ce 31030000 		.4byte	0x331
 745 04d2 00       		.byte	0
 746 04d3 00       		.byte	0
 747 04d4 0A       		.uleb128 0xa
 748 04d5 08       		.byte	0x8
 749 04d6 AF       		.byte	0xaf
 750 04d7 05       		.byte	0x5
 751 04d8 F7040000 		.4byte	0x4f7
 752 04dc 08       		.uleb128 0x8
 753 04dd 75703100 		.ascii	"up1\000"
 754 04e1 0B       		.byte	0xb
 755 04e2 B3       		.byte	0xb3
 756 04e3 1E       		.byte	0x1e
 757 04e4 84040000 		.4byte	0x484
 758 04e8 00       		.byte	0
 759 04e9 08       		.uleb128 0x8
 760 04ea 75703200 		.ascii	"up2\000"
 761 04ee 0B       		.byte	0xb
 762 04ef B7       		.byte	0xb7
 763 04f0 1E       		.byte	0x1e
 764 04f1 84040000 		.4byte	0x484
 765 04f5 04       		.byte	0x4
 766 04f6 00       		.byte	0
 767 04f7 0D       		.uleb128 0xd
 768 04f8 08       		.byte	0x8
 769 04f9 0B       		.byte	0xb
 770 04fa 7F       		.byte	0x7f
 771 04fb 35050000 		.4byte	0x535
 772 04ff 0E       		.uleb128 0xe
 773 0500 737700   		.ascii	"sw\000"
 774 0503 8C       		.byte	0x8c
 775 0504 5C040000 		.4byte	0x45c
 776 0508 0E       		.uleb128 0xe
 777 0509 72647900 		.ascii	"rdy\000"
 778 050d 99       		.byte	0x99
 779 050e 86040000 		.4byte	0x486
 780 0512 0E       		.uleb128 0xe
 781 0513 69737200 		.ascii	"isr\000"
 782 0517 A2       		.byte	0xa2
 783 0518 A8040000 		.4byte	0x4a8
 784 051c 09       		.uleb128 0x9
 785 051d 65000000 		.4byte	.LASF79
 786 0521 0B       		.byte	0xb
 787 0522 AB       		.byte	0xab
 788 0523 07       		.byte	0x7
 789 0524 BE040000 		.4byte	0x4be
 790 0528 09       		.uleb128 0x9
 791 0529 39040000 		.4byte	.LASF80
 792 052d 0B       		.byte	0xb
 793 052e B8       		.byte	0xb8
 794 052f 07       		.byte	0x7
 795 0530 D4040000 		.4byte	0x4d4
ARM GAS  C:\Users\DEVELO~1\AppData\Local\Temp\cc597XWa.s 			page 15


 796 0534 00       		.byte	0
 797 0535 0A       		.uleb128 0xa
 798 0536 10       		.byte	0x10
 799 0537 6C       		.byte	0x6c
 800 0538 09       		.byte	0x9
 801 0539 7A050000 		.4byte	0x57a
 802 053d 0F       		.uleb128 0xf
 803 053e 52000000 		.4byte	.LASF81
 804 0542 70       		.byte	0x70
 805 0543 D3000000 		.4byte	0xd3
 806 0547 03       		.byte	0x3
 807 0548 00       		.byte	0
 808 0549 0F       		.uleb128 0xf
 809 054a 5B010000 		.4byte	.LASF35
 810 054e 74       		.byte	0x74
 811 054f D3000000 		.4byte	0xd3
 812 0553 05       		.byte	0x5
 813 0554 03       		.byte	0x3
 814 0555 0F       		.uleb128 0xf
 815 0556 65030000 		.4byte	.LASF82
 816 055a 7A       		.byte	0x7a
 817 055b D3000000 		.4byte	0xd3
 818 055f 18       		.byte	0x18
 819 0560 08       		.byte	0x8
 820 0561 02       		.uleb128 0x2
 821 0562 05040000 		.4byte	.LASF83
 822 0566 0B       		.byte	0xb
 823 0567 7E       		.byte	0x7e
 824 0568 19       		.byte	0x19
 825 0569 53030000 		.4byte	0x353
 826 056d 04       		.byte	0x4
 827 056e 08       		.uleb128 0x8
 828 056f 7500     		.ascii	"u\000"
 829 0571 0B       		.byte	0xb
 830 0572 B9       		.byte	0xb9
 831 0573 05       		.byte	0x5
 832 0574 F7040000 		.4byte	0x4f7
 833 0578 08       		.byte	0x8
 834 0579 00       		.byte	0
 835 057a 01       		.uleb128 0x1
 836 057b 57000000 		.4byte	.LASF84
 837 057f 0B       		.byte	0xb
 838 0580 BA       		.byte	0xba
 839 0581 03       		.byte	0x3
 840 0582 35050000 		.4byte	0x535
 841 0586 18       		.uleb128 0x18
 842 0587 0808     		.2byte	0x808
 843 0589 0B       		.byte	0xb
 844 058a C0       		.byte	0xc0
 845 058b 09       		.byte	0x9
 846 058c C5050000 		.4byte	0x5c5
 847 0590 02       		.uleb128 0x2
 848 0591 C0030000 		.4byte	.LASF85
 849 0595 0B       		.byte	0xb
 850 0596 C4       		.byte	0xc4
 851 0597 19       		.byte	0x19
 852 0598 BB000000 		.4byte	0xbb
ARM GAS  C:\Users\DEVELO~1\AppData\Local\Temp\cc597XWa.s 			page 16


 853 059c 00       		.byte	0
 854 059d 02       		.uleb128 0x2
 855 059e CC020000 		.4byte	.LASF86
 856 05a2 0B       		.byte	0xb
 857 05a3 C8       		.byte	0xc8
 858 05a4 19       		.byte	0x19
 859 05a5 BB000000 		.4byte	0xbb
 860 05a9 02       		.byte	0x2
 861 05aa 08       		.uleb128 0x8
 862 05ab 70747200 		.ascii	"ptr\000"
 863 05af 0B       		.byte	0xb
 864 05b0 CC       		.byte	0xcc
 865 05b1 1A       		.byte	0x1a
 866 05b2 C5050000 		.4byte	0x5c5
 867 05b6 04       		.byte	0x4
 868 05b7 02       		.uleb128 0x2
 869 05b8 4F050000 		.4byte	.LASF87
 870 05bc 0B       		.byte	0xb
 871 05bd D0       		.byte	0xd0
 872 05be 19       		.byte	0x19
 873 05bf CA050000 		.4byte	0x5ca
 874 05c3 08       		.byte	0x8
 875 05c4 00       		.byte	0
 876 05c5 04       		.uleb128 0x4
 877 05c6 7A050000 		.4byte	0x57a
 878 05ca 19       		.uleb128 0x19
 879 05cb 7A050000 		.4byte	0x57a
 880 05cf DA050000 		.4byte	0x5da
 881 05d3 1A       		.uleb128 0x1a
 882 05d4 2D000000 		.4byte	0x2d
 883 05d8 7F       		.byte	0x7f
 884 05d9 00       		.byte	0
 885 05da 01       		.uleb128 0x1
 886 05db 9D010000 		.4byte	.LASF88
 887 05df 0B       		.byte	0xb
 888 05e0 D1       		.byte	0xd1
 889 05e1 03       		.byte	0x3
 890 05e2 86050000 		.4byte	0x586
 891 05e6 0C       		.uleb128 0xc
 892 05e7 3F000000 		.4byte	.LASF89
 893 05eb 24       		.byte	0x24
 894 05ec 0C       		.byte	0xc
 895 05ed E001     		.2byte	0x1e0
 896 05ef 08       		.byte	0x8
 897 05f0 6C060000 		.4byte	0x66c
 898 05f4 06       		.uleb128 0x6
 899 05f5 723400   		.ascii	"r4\000"
 900 05f8 0C       		.byte	0xc
 901 05f9 F901     		.2byte	0x1f9
 902 05fb 11       		.byte	0x11
 903 05fc D3000000 		.4byte	0xd3
 904 0600 00       		.byte	0
 905 0601 06       		.uleb128 0x6
 906 0602 723500   		.ascii	"r5\000"
 907 0605 0C       		.byte	0xc
 908 0606 FA01     		.2byte	0x1fa
 909 0608 11       		.byte	0x11
ARM GAS  C:\Users\DEVELO~1\AppData\Local\Temp\cc597XWa.s 			page 17


 910 0609 D3000000 		.4byte	0xd3
 911 060d 04       		.byte	0x4
 912 060e 06       		.uleb128 0x6
 913 060f 723600   		.ascii	"r6\000"
 914 0612 0C       		.byte	0xc
 915 0613 FB01     		.2byte	0x1fb
 916 0615 11       		.byte	0x11
 917 0616 D3000000 		.4byte	0xd3
 918 061a 08       		.byte	0x8
 919 061b 06       		.uleb128 0x6
 920 061c 723700   		.ascii	"r7\000"
 921 061f 0C       		.byte	0xc
 922 0620 FC01     		.2byte	0x1fc
 923 0622 11       		.byte	0x11
 924 0623 D3000000 		.4byte	0xd3
 925 0627 0C       		.byte	0xc
 926 0628 06       		.uleb128 0x6
 927 0629 723800   		.ascii	"r8\000"
 928 062c 0C       		.byte	0xc
 929 062d FD01     		.2byte	0x1fd
 930 062f 11       		.byte	0x11
 931 0630 D3000000 		.4byte	0xd3
 932 0634 10       		.byte	0x10
 933 0635 06       		.uleb128 0x6
 934 0636 723900   		.ascii	"r9\000"
 935 0639 0C       		.byte	0xc
 936 063a FE01     		.2byte	0x1fe
 937 063c 11       		.byte	0x11
 938 063d D3000000 		.4byte	0xd3
 939 0641 14       		.byte	0x14
 940 0642 06       		.uleb128 0x6
 941 0643 72313000 		.ascii	"r10\000"
 942 0647 0C       		.byte	0xc
 943 0648 FF01     		.2byte	0x1ff
 944 064a 11       		.byte	0x11
 945 064b D3000000 		.4byte	0xd3
 946 064f 18       		.byte	0x18
 947 0650 06       		.uleb128 0x6
 948 0651 72313100 		.ascii	"r11\000"
 949 0655 0C       		.byte	0xc
 950 0656 0002     		.2byte	0x200
 951 0658 11       		.byte	0x11
 952 0659 D3000000 		.4byte	0xd3
 953 065d 1C       		.byte	0x1c
 954 065e 06       		.uleb128 0x6
 955 065f 6C7200   		.ascii	"lr\000"
 956 0662 0C       		.byte	0xc
 957 0663 0102     		.2byte	0x201
 958 0665 11       		.byte	0x11
 959 0666 D3000000 		.4byte	0xd3
 960 066a 20       		.byte	0x20
 961 066b 00       		.byte	0
 962 066c 0C       		.uleb128 0xc
 963 066d E9030000 		.4byte	.LASF90
 964 0671 04       		.byte	0x4
 965 0672 0C       		.byte	0xc
 966 0673 0A02     		.2byte	0x20a
ARM GAS  C:\Users\DEVELO~1\AppData\Local\Temp\cc597XWa.s 			page 18


 967 0675 08       		.byte	0x8
 968 0676 88060000 		.4byte	0x688
 969 067a 06       		.uleb128 0x6
 970 067b 737000   		.ascii	"sp\000"
 971 067e 0C       		.byte	0xc
 972 067f 0B02     		.2byte	0x20b
 973 0681 1A       		.byte	0x1a
 974 0682 88060000 		.4byte	0x688
 975 0686 00       		.byte	0
 976 0687 00       		.byte	0
 977 0688 04       		.uleb128 0x4
 978 0689 E6050000 		.4byte	0x5e6
 979 068d 07       		.uleb128 0x7
 980 068e 9F030000 		.4byte	.LASF91
 981 0692 18       		.byte	0x18
 982 0693 06       		.byte	0x6
 983 0694 64       		.byte	0x64
 984 0695 10       		.byte	0x10
 985 0696 C2060000 		.4byte	0x6c2
 986 069a 02       		.uleb128 0x2
 987 069b 3F050000 		.4byte	.LASF92
 988 069f 06       		.byte	0x6
 989 06a0 68       		.byte	0x68
 990 06a1 21       		.byte	0x21
 991 06a2 16040000 		.4byte	0x416
 992 06a6 00       		.byte	0
 993 06a7 02       		.uleb128 0x2
 994 06a8 83040000 		.4byte	.LASF93
 995 06ac 06       		.byte	0x6
 996 06ad 73       		.byte	0x73
 997 06ae 21       		.byte	0x21
 998 06af 53030000 		.4byte	0x353
 999 06b3 0C       		.byte	0xc
 1000 06b4 02       		.uleb128 0x2
 1001 06b5 6D030000 		.4byte	.LASF94
 1002 06b9 06       		.byte	0x6
 1003 06ba 79       		.byte	0x79
 1004 06bb 21       		.byte	0x21
 1005 06bc EB000000 		.4byte	0xeb
 1006 06c0 10       		.byte	0x10
 1007 06c1 00       		.byte	0
 1008 06c2 01       		.uleb128 0x1
 1009 06c3 31030000 		.4byte	.LASF95
 1010 06c7 06       		.byte	0x6
 1011 06c8 7B       		.byte	0x7b
 1012 06c9 03       		.byte	0x3
 1013 06ca 8D060000 		.4byte	0x68d
 1014 06ce 07       		.uleb128 0x7
 1015 06cf AC010000 		.4byte	.LASF96
 1016 06d3 08       		.byte	0x8
 1017 06d4 06       		.byte	0x6
 1018 06d5 80       		.byte	0x80
 1019 06d6 10       		.byte	0x10
 1020 06d7 E9060000 		.4byte	0x6e9
 1021 06db 02       		.uleb128 0x2
 1022 06dc C0020000 		.4byte	.LASF97
 1023 06e0 06       		.byte	0x6
ARM GAS  C:\Users\DEVELO~1\AppData\Local\Temp\cc597XWa.s 			page 19


 1024 06e1 84       		.byte	0x84
 1025 06e2 21       		.byte	0x21
 1026 06e3 97030000 		.4byte	0x397
 1027 06e7 00       		.byte	0
 1028 06e8 00       		.byte	0
 1029 06e9 01       		.uleb128 0x1
 1030 06ea C9040000 		.4byte	.LASF98
 1031 06ee 06       		.byte	0x6
 1032 06ef 85       		.byte	0x85
 1033 06f0 03       		.byte	0x3
 1034 06f1 CE060000 		.4byte	0x6ce
 1035 06f5 01       		.uleb128 0x1
 1036 06f6 8C030000 		.4byte	.LASF99
 1037 06fa 06       		.byte	0x6
 1038 06fb 8A       		.byte	0x8a
 1039 06fc 14       		.byte	0x14
 1040 06fd 7F040000 		.4byte	0x47f
 1041 0701 0D       		.uleb128 0xd
 1042 0702 0C       		.byte	0xc
 1043 0703 06       		.byte	0x6
 1044 0704 A0       		.byte	0xa0
 1045 0705 2E070000 		.4byte	0x72e
 1046 0709 09       		.uleb128 0x9
 1047 070a 0C060000 		.4byte	.LASF100
 1048 070e 06       		.byte	0x6
 1049 070f A4       		.byte	0xa4
 1050 0710 21       		.byte	0x21
 1051 0711 6B030000 		.4byte	0x36b
 1052 0715 09       		.uleb128 0x9
 1053 0716 C0020000 		.4byte	.LASF97
 1054 071a 06       		.byte	0x6
 1055 071b A8       		.byte	0xa8
 1056 071c 21       		.byte	0x21
 1057 071d 97030000 		.4byte	0x397
 1058 0721 09       		.uleb128 0x9
 1059 0722 74050000 		.4byte	.LASF101
 1060 0726 06       		.byte	0x6
 1061 0727 AC       		.byte	0xac
 1062 0728 21       		.byte	0x21
 1063 0729 D0030000 		.4byte	0x3d0
 1064 072d 00       		.byte	0
 1065 072e 0D       		.uleb128 0xd
 1066 072f 04       		.byte	0x4
 1067 0730 06       		.byte	0x6
 1068 0731 EB       		.byte	0xeb
 1069 0732 97070000 		.4byte	0x797
 1070 0736 09       		.uleb128 0x9
 1071 0737 13000000 		.4byte	.LASF102
 1072 073b 06       		.byte	0x6
 1073 073c F2       		.byte	0xf2
 1074 073d 21       		.byte	0x21
 1075 073e 38010000 		.4byte	0x138
 1076 0742 09       		.uleb128 0x9
 1077 0743 6A000000 		.4byte	.LASF103
 1078 0747 06       		.byte	0x6
 1079 0748 F9       		.byte	0xf9
 1080 0749 21       		.byte	0x21
ARM GAS  C:\Users\DEVELO~1\AppData\Local\Temp\cc597XWa.s 			page 20


 1081 074a 38010000 		.4byte	0x138
 1082 074e 0B       		.uleb128 0xb
 1083 074f 8C040000 		.4byte	.LASF77
 1084 0753 0001     		.2byte	0x100
 1085 0755 22       		.byte	0x22
 1086 0756 84040000 		.4byte	0x484
 1087 075a 0B       		.uleb128 0xb
 1088 075b 0D000000 		.4byte	.LASF104
 1089 075f 0701     		.2byte	0x107
 1090 0761 22       		.byte	0x22
 1091 0762 97070000 		.4byte	0x797
 1092 0766 0B       		.uleb128 0xb
 1093 0767 7E000000 		.4byte	.LASF105
 1094 076b 0C01     		.2byte	0x10c
 1095 076d 21       		.byte	0x21
 1096 076e 38010000 		.4byte	0x138
 1097 0772 0B       		.uleb128 0xb
 1098 0773 22020000 		.4byte	.LASF106
 1099 0777 1501     		.2byte	0x115
 1100 0779 22       		.byte	0x22
 1101 077a C4070000 		.4byte	0x7c4
 1102 077e 0B       		.uleb128 0xb
 1103 077f DD040000 		.4byte	.LASF107
 1104 0783 1E01     		.2byte	0x11e
 1105 0785 22       		.byte	0x22
 1106 0786 FE070000 		.4byte	0x7fe
 1107 078a 0B       		.uleb128 0xb
 1108 078b 93040000 		.4byte	.LASF108
 1109 078f 2601     		.2byte	0x126
 1110 0791 21       		.byte	0x21
 1111 0792 44010000 		.4byte	0x144
 1112 0796 00       		.byte	0
 1113 0797 04       		.uleb128 0x4
 1114 0798 F5060000 		.4byte	0x6f5
 1115 079c 07       		.uleb128 0x7
 1116 079d A9040000 		.4byte	.LASF109
 1117 07a1 0C       		.byte	0xc
 1118 07a2 0D       		.byte	0xd
 1119 07a3 34       		.byte	0x34
 1120 07a4 10       		.byte	0x10
 1121 07a5 C4070000 		.4byte	0x7c4
 1122 07a9 02       		.uleb128 0x2
 1123 07aa C0020000 		.4byte	.LASF97
 1124 07ae 0D       		.byte	0xd
 1125 07af 35       		.byte	0x35
 1126 07b0 19       		.byte	0x19
 1127 07b1 97030000 		.4byte	0x397
 1128 07b5 00       		.byte	0
 1129 07b6 08       		.uleb128 0x8
 1130 07b7 636E7400 		.ascii	"cnt\000"
 1131 07bb 0D       		.byte	0xd
 1132 07bc 37       		.byte	0x37
 1133 07bd 19       		.byte	0x19
 1134 07be 50010000 		.4byte	0x150
 1135 07c2 08       		.byte	0x8
 1136 07c3 00       		.byte	0
 1137 07c4 04       		.uleb128 0x4
ARM GAS  C:\Users\DEVELO~1\AppData\Local\Temp\cc597XWa.s 			page 21


 1138 07c5 9C070000 		.4byte	0x79c
 1139 07c9 07       		.uleb128 0x7
 1140 07ca F6050000 		.4byte	.LASF110
 1141 07ce 10       		.byte	0x10
 1142 07cf 0E       		.byte	0xe
 1143 07d0 39       		.byte	0x39
 1144 07d1 08       		.byte	0x8
 1145 07d2 FE070000 		.4byte	0x7fe
 1146 07d6 02       		.uleb128 0x2
 1147 07d7 C0020000 		.4byte	.LASF97
 1148 07db 0E       		.byte	0xe
 1149 07dc 3A       		.byte	0x3a
 1150 07dd 19       		.byte	0x19
 1151 07de 97030000 		.4byte	0x397
 1152 07e2 00       		.byte	0
 1153 07e3 02       		.uleb128 0x2
 1154 07e4 06050000 		.4byte	.LASF32
 1155 07e8 0E       		.byte	0xe
 1156 07e9 3C       		.byte	0x3c
 1157 07ea 1A       		.byte	0x1a
 1158 07eb 7F040000 		.4byte	0x47f
 1159 07ef 08       		.byte	0x8
 1160 07f0 02       		.uleb128 0x2
 1161 07f1 8C000000 		.4byte	.LASF67
 1162 07f5 0E       		.byte	0xe
 1163 07f6 3E       		.byte	0x3e
 1164 07f7 1A       		.byte	0x1a
 1165 07f8 B2080000 		.4byte	0x8b2
 1166 07fc 0C       		.byte	0xc
 1167 07fd 00       		.byte	0
 1168 07fe 04       		.uleb128 0x4
 1169 07ff C9070000 		.4byte	0x7c9
 1170 0803 04       		.uleb128 0x4
 1171 0804 51020000 		.4byte	0x251
 1172 0808 04       		.uleb128 0x4
 1173 0809 FC000000 		.4byte	0xfc
 1174 080d 0C       		.uleb128 0xc
 1175 080e 0D030000 		.4byte	.LASF111
 1176 0812 10       		.byte	0x10
 1177 0813 06       		.byte	0x6
 1178 0814 5C01     		.2byte	0x15c
 1179 0816 10       		.byte	0x10
 1180 0817 36080000 		.4byte	0x836
 1181 081b 03       		.uleb128 0x3
 1182 081c 74050000 		.4byte	.LASF101
 1183 0820 6101     		.2byte	0x161
 1184 0822 21       		.byte	0x21
 1185 0823 D0030000 		.4byte	0x3d0
 1186 0827 00       		.byte	0
 1187 0828 03       		.uleb128 0x3
 1188 0829 0F040000 		.4byte	.LASF112
 1189 082d 6501     		.2byte	0x165
 1190 082f 22       		.byte	0x22
 1191 0830 7F040000 		.4byte	0x47f
 1192 0834 0C       		.byte	0xc
 1193 0835 00       		.byte	0
 1194 0836 12       		.uleb128 0x12
ARM GAS  C:\Users\DEVELO~1\AppData\Local\Temp\cc597XWa.s 			page 22


 1195 0837 00000000 		.4byte	.LASF113
 1196 083b 6601     		.2byte	0x166
 1197 083d 0D080000 		.4byte	0x80d
 1198 0841 0C       		.uleb128 0xc
 1199 0842 D3030000 		.4byte	.LASF114
 1200 0846 14       		.byte	0x14
 1201 0847 06       		.byte	0x6
 1202 0848 6B01     		.2byte	0x16b
 1203 084a 10       		.byte	0x10
 1204 084b 91080000 		.4byte	0x891
 1205 084f 03       		.uleb128 0x3
 1206 0850 BB020000 		.4byte	.LASF33
 1207 0854 6F01     		.2byte	0x16f
 1208 0856 22       		.byte	0x22
 1209 0857 31030000 		.4byte	0x331
 1210 085b 00       		.byte	0
 1211 085c 03       		.uleb128 0x3
 1212 085d D0010000 		.4byte	.LASF115
 1213 0861 7501     		.2byte	0x175
 1214 0863 22       		.byte	0x22
 1215 0864 08080000 		.4byte	0x808
 1216 0868 04       		.byte	0x4
 1217 0869 03       		.uleb128 0x3
 1218 086a BE050000 		.4byte	.LASF116
 1219 086e 7901     		.2byte	0x179
 1220 0870 22       		.byte	0x22
 1221 0871 08080000 		.4byte	0x808
 1222 0875 08       		.byte	0x8
 1223 0876 03       		.uleb128 0x3
 1224 0877 12020000 		.4byte	.LASF117
 1225 087b 7F01     		.2byte	0x17f
 1226 087d 22       		.byte	0x22
 1227 087e 08080000 		.4byte	0x808
 1228 0882 0C       		.byte	0xc
 1229 0883 03       		.uleb128 0x3
 1230 0884 11060000 		.4byte	.LASF118
 1231 0888 8301     		.2byte	0x183
 1232 088a 22       		.byte	0x22
 1233 088b 08080000 		.4byte	0x808
 1234 088f 10       		.byte	0x10
 1235 0890 00       		.byte	0
 1236 0891 12       		.uleb128 0x12
 1237 0892 CD050000 		.4byte	.LASF119
 1238 0896 8501     		.2byte	0x185
 1239 0898 41080000 		.4byte	0x841
 1240 089c 11       		.uleb128 0x11
 1241 089d 91080000 		.4byte	0x891
 1242 08a1 04       		.uleb128 0x4
 1243 08a2 9C080000 		.4byte	0x89c
 1244 08a6 01       		.uleb128 0x1
 1245 08a7 E0010000 		.4byte	.LASF120
 1246 08ab 0E       		.byte	0xe
 1247 08ac 34       		.byte	0x34
 1248 08ad 19       		.byte	0x19
 1249 08ae C9070000 		.4byte	0x7c9
 1250 08b2 04       		.uleb128 0x4
 1251 08b3 A6080000 		.4byte	0x8a6
ARM GAS  C:\Users\DEVELO~1\AppData\Local\Temp\cc597XWa.s 			page 23


 1252 08b7 05       		.uleb128 0x5
 1253 08b8 01       		.byte	0x1
 1254 08b9 02       		.byte	0x2
 1255 08ba 56040000 		.4byte	.LASF121
 1256 08be 1B       		.uleb128 0x1b
 1257 08bf 7B050000 		.4byte	.LASF129
 1258 08c3 11       		.byte	0x11
 1259 08c4 15       		.byte	0x15
 1260 08c5 10       		.byte	0x10
 1261 08c6 A6080000 		.4byte	0x8a6
 1262 08ca 1C       		.uleb128 0x1c
 1263 08cb BE080000 		.4byte	0x8be
 1264 08cf 01       		.byte	0x1
 1265 08d0 09       		.byte	0x9
 1266 08d1 09       		.byte	0x9
 1267 08d2 05       		.uleb128 0x5
 1268 08d3 03       		.byte	0x3
 1269 08d4 00000000 		.4byte	spi5_mutex
 1270 08d8 13       		.uleb128 0x13
 1271 08d9 52030000 		.4byte	.LASF122
 1272 08dd 0F       		.byte	0xf
 1273 08de 14       		.byte	0x14
 1274 08df 09       		.byte	0x9
 1275 08e0 13       		.uleb128 0x13
 1276 08e1 1F000000 		.4byte	.LASF123
 1277 08e5 10       		.byte	0x10
 1278 08e6 12       		.byte	0x12
 1279 08e7 06       		.byte	0x6
 1280 08e8 1D       		.uleb128 0x1d
 1281 08e9 7B010000 		.4byte	.LASF130
 1282 08ed 0E       		.byte	0xe
 1283 08ee 66       		.byte	0x66
 1284 08ef 08       		.byte	0x8
 1285 08f0 FA080000 		.4byte	0x8fa
 1286 08f4 1E       		.uleb128 0x1e
 1287 08f5 B2080000 		.4byte	0x8b2
 1288 08f9 00       		.byte	0
 1289 08fa 1F       		.uleb128 0x1f
 1290 08fb B6040000 		.4byte	.LASF124
 1291 08ff 01       		.byte	0x1
 1292 0900 1A       		.byte	0x1a
 1293 0901 06       		.byte	0x6
 1294 0902 00000000 		.4byte	.LFB433
 1295 0906 0C000000 		.4byte	.LFE433-.LFB433
 1296 090a 01       		.uleb128 0x1
 1297 090b 9C       		.byte	0x9c
 1298 090c 20       		.uleb128 0x20
 1299 090d 28060000 		.4byte	.LASF125
 1300 0911 01       		.byte	0x1
 1301 0912 0B       		.byte	0xb
 1302 0913 06       		.byte	0x6
 1303 0914 00000000 		.4byte	.LFB432
 1304 0918 1C000000 		.4byte	.LFE432-.LFB432
 1305 091c 01       		.uleb128 0x1
 1306 091d 9C       		.byte	0x9c
 1307 091e 00       		.byte	0
 1308              		.section	.debug_abbrev,"",%progbits
ARM GAS  C:\Users\DEVELO~1\AppData\Local\Temp\cc597XWa.s 			page 24


 1309              	.Ldebug_abbrev0:
 1310 0000 01       		.uleb128 0x1
 1311 0001 16       		.uleb128 0x16
 1312 0002 00       		.byte	0
 1313 0003 03       		.uleb128 0x3
 1314 0004 0E       		.uleb128 0xe
 1315 0005 3A       		.uleb128 0x3a
 1316 0006 0B       		.uleb128 0xb
 1317 0007 3B       		.uleb128 0x3b
 1318 0008 0B       		.uleb128 0xb
 1319 0009 39       		.uleb128 0x39
 1320 000a 0B       		.uleb128 0xb
 1321 000b 49       		.uleb128 0x49
 1322 000c 13       		.uleb128 0x13
 1323 000d 00       		.byte	0
 1324 000e 00       		.byte	0
 1325 000f 02       		.uleb128 0x2
 1326 0010 0D       		.uleb128 0xd
 1327 0011 00       		.byte	0
 1328 0012 03       		.uleb128 0x3
 1329 0013 0E       		.uleb128 0xe
 1330 0014 3A       		.uleb128 0x3a
 1331 0015 0B       		.uleb128 0xb
 1332 0016 3B       		.uleb128 0x3b
 1333 0017 0B       		.uleb128 0xb
 1334 0018 39       		.uleb128 0x39
 1335 0019 0B       		.uleb128 0xb
 1336 001a 49       		.uleb128 0x49
 1337 001b 13       		.uleb128 0x13
 1338 001c 38       		.uleb128 0x38
 1339 001d 0B       		.uleb128 0xb
 1340 001e 00       		.byte	0
 1341 001f 00       		.byte	0
 1342 0020 03       		.uleb128 0x3
 1343 0021 0D       		.uleb128 0xd
 1344 0022 00       		.byte	0
 1345 0023 03       		.uleb128 0x3
 1346 0024 0E       		.uleb128 0xe
 1347 0025 3A       		.uleb128 0x3a
 1348 0026 21       		.uleb128 0x21
 1349 0027 06       		.sleb128 6
 1350 0028 3B       		.uleb128 0x3b
 1351 0029 05       		.uleb128 0x5
 1352 002a 39       		.uleb128 0x39
 1353 002b 0B       		.uleb128 0xb
 1354 002c 49       		.uleb128 0x49
 1355 002d 13       		.uleb128 0x13
 1356 002e 38       		.uleb128 0x38
 1357 002f 0B       		.uleb128 0xb
 1358 0030 00       		.byte	0
 1359 0031 00       		.byte	0
 1360 0032 04       		.uleb128 0x4
 1361 0033 0F       		.uleb128 0xf
 1362 0034 00       		.byte	0
 1363 0035 0B       		.uleb128 0xb
 1364 0036 21       		.uleb128 0x21
 1365 0037 04       		.sleb128 4
ARM GAS  C:\Users\DEVELO~1\AppData\Local\Temp\cc597XWa.s 			page 25


 1366 0038 49       		.uleb128 0x49
 1367 0039 13       		.uleb128 0x13
 1368 003a 00       		.byte	0
 1369 003b 00       		.byte	0
 1370 003c 05       		.uleb128 0x5
 1371 003d 24       		.uleb128 0x24
 1372 003e 00       		.byte	0
 1373 003f 0B       		.uleb128 0xb
 1374 0040 0B       		.uleb128 0xb
 1375 0041 3E       		.uleb128 0x3e
 1376 0042 0B       		.uleb128 0xb
 1377 0043 03       		.uleb128 0x3
 1378 0044 0E       		.uleb128 0xe
 1379 0045 00       		.byte	0
 1380 0046 00       		.byte	0
 1381 0047 06       		.uleb128 0x6
 1382 0048 0D       		.uleb128 0xd
 1383 0049 00       		.byte	0
 1384 004a 03       		.uleb128 0x3
 1385 004b 08       		.uleb128 0x8
 1386 004c 3A       		.uleb128 0x3a
 1387 004d 0B       		.uleb128 0xb
 1388 004e 3B       		.uleb128 0x3b
 1389 004f 05       		.uleb128 0x5
 1390 0050 39       		.uleb128 0x39
 1391 0051 0B       		.uleb128 0xb
 1392 0052 49       		.uleb128 0x49
 1393 0053 13       		.uleb128 0x13
 1394 0054 38       		.uleb128 0x38
 1395 0055 0B       		.uleb128 0xb
 1396 0056 00       		.byte	0
 1397 0057 00       		.byte	0
 1398 0058 07       		.uleb128 0x7
 1399 0059 13       		.uleb128 0x13
 1400 005a 01       		.byte	0x1
 1401 005b 03       		.uleb128 0x3
 1402 005c 0E       		.uleb128 0xe
 1403 005d 0B       		.uleb128 0xb
 1404 005e 0B       		.uleb128 0xb
 1405 005f 3A       		.uleb128 0x3a
 1406 0060 0B       		.uleb128 0xb
 1407 0061 3B       		.uleb128 0x3b
 1408 0062 0B       		.uleb128 0xb
 1409 0063 39       		.uleb128 0x39
 1410 0064 0B       		.uleb128 0xb
 1411 0065 01       		.uleb128 0x1
 1412 0066 13       		.uleb128 0x13
 1413 0067 00       		.byte	0
 1414 0068 00       		.byte	0
 1415 0069 08       		.uleb128 0x8
 1416 006a 0D       		.uleb128 0xd
 1417 006b 00       		.byte	0
 1418 006c 03       		.uleb128 0x3
 1419 006d 08       		.uleb128 0x8
 1420 006e 3A       		.uleb128 0x3a
 1421 006f 0B       		.uleb128 0xb
 1422 0070 3B       		.uleb128 0x3b
ARM GAS  C:\Users\DEVELO~1\AppData\Local\Temp\cc597XWa.s 			page 26


 1423 0071 0B       		.uleb128 0xb
 1424 0072 39       		.uleb128 0x39
 1425 0073 0B       		.uleb128 0xb
 1426 0074 49       		.uleb128 0x49
 1427 0075 13       		.uleb128 0x13
 1428 0076 38       		.uleb128 0x38
 1429 0077 0B       		.uleb128 0xb
 1430 0078 00       		.byte	0
 1431 0079 00       		.byte	0
 1432 007a 09       		.uleb128 0x9
 1433 007b 0D       		.uleb128 0xd
 1434 007c 00       		.byte	0
 1435 007d 03       		.uleb128 0x3
 1436 007e 0E       		.uleb128 0xe
 1437 007f 3A       		.uleb128 0x3a
 1438 0080 0B       		.uleb128 0xb
 1439 0081 3B       		.uleb128 0x3b
 1440 0082 0B       		.uleb128 0xb
 1441 0083 39       		.uleb128 0x39
 1442 0084 0B       		.uleb128 0xb
 1443 0085 49       		.uleb128 0x49
 1444 0086 13       		.uleb128 0x13
 1445 0087 00       		.byte	0
 1446 0088 00       		.byte	0
 1447 0089 0A       		.uleb128 0xa
 1448 008a 13       		.uleb128 0x13
 1449 008b 01       		.byte	0x1
 1450 008c 0B       		.uleb128 0xb
 1451 008d 0B       		.uleb128 0xb
 1452 008e 3A       		.uleb128 0x3a
 1453 008f 21       		.uleb128 0x21
 1454 0090 0B       		.sleb128 11
 1455 0091 3B       		.uleb128 0x3b
 1456 0092 0B       		.uleb128 0xb
 1457 0093 39       		.uleb128 0x39
 1458 0094 0B       		.uleb128 0xb
 1459 0095 01       		.uleb128 0x1
 1460 0096 13       		.uleb128 0x13
 1461 0097 00       		.byte	0
 1462 0098 00       		.byte	0
 1463 0099 0B       		.uleb128 0xb
 1464 009a 0D       		.uleb128 0xd
 1465 009b 00       		.byte	0
 1466 009c 03       		.uleb128 0x3
 1467 009d 0E       		.uleb128 0xe
 1468 009e 3A       		.uleb128 0x3a
 1469 009f 21       		.uleb128 0x21
 1470 00a0 06       		.sleb128 6
 1471 00a1 3B       		.uleb128 0x3b
 1472 00a2 05       		.uleb128 0x5
 1473 00a3 39       		.uleb128 0x39
 1474 00a4 0B       		.uleb128 0xb
 1475 00a5 49       		.uleb128 0x49
 1476 00a6 13       		.uleb128 0x13
 1477 00a7 00       		.byte	0
 1478 00a8 00       		.byte	0
 1479 00a9 0C       		.uleb128 0xc
ARM GAS  C:\Users\DEVELO~1\AppData\Local\Temp\cc597XWa.s 			page 27


 1480 00aa 13       		.uleb128 0x13
 1481 00ab 01       		.byte	0x1
 1482 00ac 03       		.uleb128 0x3
 1483 00ad 0E       		.uleb128 0xe
 1484 00ae 0B       		.uleb128 0xb
 1485 00af 0B       		.uleb128 0xb
 1486 00b0 3A       		.uleb128 0x3a
 1487 00b1 0B       		.uleb128 0xb
 1488 00b2 3B       		.uleb128 0x3b
 1489 00b3 05       		.uleb128 0x5
 1490 00b4 39       		.uleb128 0x39
 1491 00b5 0B       		.uleb128 0xb
 1492 00b6 01       		.uleb128 0x1
 1493 00b7 13       		.uleb128 0x13
 1494 00b8 00       		.byte	0
 1495 00b9 00       		.byte	0
 1496 00ba 0D       		.uleb128 0xd
 1497 00bb 17       		.uleb128 0x17
 1498 00bc 01       		.byte	0x1
 1499 00bd 0B       		.uleb128 0xb
 1500 00be 0B       		.uleb128 0xb
 1501 00bf 3A       		.uleb128 0x3a
 1502 00c0 0B       		.uleb128 0xb
 1503 00c1 3B       		.uleb128 0x3b
 1504 00c2 0B       		.uleb128 0xb
 1505 00c3 39       		.uleb128 0x39
 1506 00c4 21       		.uleb128 0x21
 1507 00c5 03       		.sleb128 3
 1508 00c6 01       		.uleb128 0x1
 1509 00c7 13       		.uleb128 0x13
 1510 00c8 00       		.byte	0
 1511 00c9 00       		.byte	0
 1512 00ca 0E       		.uleb128 0xe
 1513 00cb 0D       		.uleb128 0xd
 1514 00cc 00       		.byte	0
 1515 00cd 03       		.uleb128 0x3
 1516 00ce 08       		.uleb128 0x8
 1517 00cf 3A       		.uleb128 0x3a
 1518 00d0 21       		.uleb128 0x21
 1519 00d1 0B       		.sleb128 11
 1520 00d2 3B       		.uleb128 0x3b
 1521 00d3 0B       		.uleb128 0xb
 1522 00d4 39       		.uleb128 0x39
 1523 00d5 21       		.uleb128 0x21
 1524 00d6 07       		.sleb128 7
 1525 00d7 49       		.uleb128 0x49
 1526 00d8 13       		.uleb128 0x13
 1527 00d9 00       		.byte	0
 1528 00da 00       		.byte	0
 1529 00db 0F       		.uleb128 0xf
 1530 00dc 0D       		.uleb128 0xd
 1531 00dd 00       		.byte	0
 1532 00de 03       		.uleb128 0x3
 1533 00df 0E       		.uleb128 0xe
 1534 00e0 3A       		.uleb128 0x3a
 1535 00e1 21       		.uleb128 0x21
 1536 00e2 0B       		.sleb128 11
ARM GAS  C:\Users\DEVELO~1\AppData\Local\Temp\cc597XWa.s 			page 28


 1537 00e3 3B       		.uleb128 0x3b
 1538 00e4 0B       		.uleb128 0xb
 1539 00e5 39       		.uleb128 0x39
 1540 00e6 21       		.uleb128 0x21
 1541 00e7 19       		.sleb128 25
 1542 00e8 49       		.uleb128 0x49
 1543 00e9 13       		.uleb128 0x13
 1544 00ea 0D       		.uleb128 0xd
 1545 00eb 0B       		.uleb128 0xb
 1546 00ec 6B       		.uleb128 0x6b
 1547 00ed 0B       		.uleb128 0xb
 1548 00ee 00       		.byte	0
 1549 00ef 00       		.byte	0
 1550 00f0 10       		.uleb128 0x10
 1551 00f1 35       		.uleb128 0x35
 1552 00f2 00       		.byte	0
 1553 00f3 49       		.uleb128 0x49
 1554 00f4 13       		.uleb128 0x13
 1555 00f5 00       		.byte	0
 1556 00f6 00       		.byte	0
 1557 00f7 11       		.uleb128 0x11
 1558 00f8 26       		.uleb128 0x26
 1559 00f9 00       		.byte	0
 1560 00fa 49       		.uleb128 0x49
 1561 00fb 13       		.uleb128 0x13
 1562 00fc 00       		.byte	0
 1563 00fd 00       		.byte	0
 1564 00fe 12       		.uleb128 0x12
 1565 00ff 16       		.uleb128 0x16
 1566 0100 00       		.byte	0
 1567 0101 03       		.uleb128 0x3
 1568 0102 0E       		.uleb128 0xe
 1569 0103 3A       		.uleb128 0x3a
 1570 0104 21       		.uleb128 0x21
 1571 0105 06       		.sleb128 6
 1572 0106 3B       		.uleb128 0x3b
 1573 0107 05       		.uleb128 0x5
 1574 0108 39       		.uleb128 0x39
 1575 0109 21       		.uleb128 0x21
 1576 010a 03       		.sleb128 3
 1577 010b 49       		.uleb128 0x49
 1578 010c 13       		.uleb128 0x13
 1579 010d 00       		.byte	0
 1580 010e 00       		.byte	0
 1581 010f 13       		.uleb128 0x13
 1582 0110 2E       		.uleb128 0x2e
 1583 0111 00       		.byte	0
 1584 0112 3F       		.uleb128 0x3f
 1585 0113 19       		.uleb128 0x19
 1586 0114 03       		.uleb128 0x3
 1587 0115 0E       		.uleb128 0xe
 1588 0116 3A       		.uleb128 0x3a
 1589 0117 0B       		.uleb128 0xb
 1590 0118 3B       		.uleb128 0x3b
 1591 0119 0B       		.uleb128 0xb
 1592 011a 39       		.uleb128 0x39
 1593 011b 0B       		.uleb128 0xb
ARM GAS  C:\Users\DEVELO~1\AppData\Local\Temp\cc597XWa.s 			page 29


 1594 011c 27       		.uleb128 0x27
 1595 011d 19       		.uleb128 0x19
 1596 011e 3C       		.uleb128 0x3c
 1597 011f 19       		.uleb128 0x19
 1598 0120 00       		.byte	0
 1599 0121 00       		.byte	0
 1600 0122 14       		.uleb128 0x14
 1601 0123 11       		.uleb128 0x11
 1602 0124 01       		.byte	0x1
 1603 0125 25       		.uleb128 0x25
 1604 0126 0E       		.uleb128 0xe
 1605 0127 13       		.uleb128 0x13
 1606 0128 0B       		.uleb128 0xb
 1607 0129 03       		.uleb128 0x3
 1608 012a 0E       		.uleb128 0xe
 1609 012b 1B       		.uleb128 0x1b
 1610 012c 0E       		.uleb128 0xe
 1611 012d 55       		.uleb128 0x55
 1612 012e 17       		.uleb128 0x17
 1613 012f 11       		.uleb128 0x11
 1614 0130 01       		.uleb128 0x1
 1615 0131 10       		.uleb128 0x10
 1616 0132 17       		.uleb128 0x17
 1617 0133 00       		.byte	0
 1618 0134 00       		.byte	0
 1619 0135 15       		.uleb128 0x15
 1620 0136 24       		.uleb128 0x24
 1621 0137 00       		.byte	0
 1622 0138 0B       		.uleb128 0xb
 1623 0139 0B       		.uleb128 0xb
 1624 013a 3E       		.uleb128 0x3e
 1625 013b 0B       		.uleb128 0xb
 1626 013c 03       		.uleb128 0x3
 1627 013d 08       		.uleb128 0x8
 1628 013e 00       		.byte	0
 1629 013f 00       		.byte	0
 1630 0140 16       		.uleb128 0x16
 1631 0141 13       		.uleb128 0x13
 1632 0142 01       		.byte	0x1
 1633 0143 03       		.uleb128 0x3
 1634 0144 0E       		.uleb128 0xe
 1635 0145 0B       		.uleb128 0xb
 1636 0146 05       		.uleb128 0x5
 1637 0147 3A       		.uleb128 0x3a
 1638 0148 0B       		.uleb128 0xb
 1639 0149 3B       		.uleb128 0x3b
 1640 014a 05       		.uleb128 0x5
 1641 014b 39       		.uleb128 0x39
 1642 014c 0B       		.uleb128 0xb
 1643 014d 01       		.uleb128 0x1
 1644 014e 13       		.uleb128 0x13
 1645 014f 00       		.byte	0
 1646 0150 00       		.byte	0
 1647 0151 17       		.uleb128 0x17
 1648 0152 0F       		.uleb128 0xf
 1649 0153 00       		.byte	0
 1650 0154 0B       		.uleb128 0xb
ARM GAS  C:\Users\DEVELO~1\AppData\Local\Temp\cc597XWa.s 			page 30


 1651 0155 0B       		.uleb128 0xb
 1652 0156 00       		.byte	0
 1653 0157 00       		.byte	0
 1654 0158 18       		.uleb128 0x18
 1655 0159 13       		.uleb128 0x13
 1656 015a 01       		.byte	0x1
 1657 015b 0B       		.uleb128 0xb
 1658 015c 05       		.uleb128 0x5
 1659 015d 3A       		.uleb128 0x3a
 1660 015e 0B       		.uleb128 0xb
 1661 015f 3B       		.uleb128 0x3b
 1662 0160 0B       		.uleb128 0xb
 1663 0161 39       		.uleb128 0x39
 1664 0162 0B       		.uleb128 0xb
 1665 0163 01       		.uleb128 0x1
 1666 0164 13       		.uleb128 0x13
 1667 0165 00       		.byte	0
 1668 0166 00       		.byte	0
 1669 0167 19       		.uleb128 0x19
 1670 0168 01       		.uleb128 0x1
 1671 0169 01       		.byte	0x1
 1672 016a 49       		.uleb128 0x49
 1673 016b 13       		.uleb128 0x13
 1674 016c 01       		.uleb128 0x1
 1675 016d 13       		.uleb128 0x13
 1676 016e 00       		.byte	0
 1677 016f 00       		.byte	0
 1678 0170 1A       		.uleb128 0x1a
 1679 0171 21       		.uleb128 0x21
 1680 0172 00       		.byte	0
 1681 0173 49       		.uleb128 0x49
 1682 0174 13       		.uleb128 0x13
 1683 0175 2F       		.uleb128 0x2f
 1684 0176 0B       		.uleb128 0xb
 1685 0177 00       		.byte	0
 1686 0178 00       		.byte	0
 1687 0179 1B       		.uleb128 0x1b
 1688 017a 34       		.uleb128 0x34
 1689 017b 00       		.byte	0
 1690 017c 03       		.uleb128 0x3
 1691 017d 0E       		.uleb128 0xe
 1692 017e 3A       		.uleb128 0x3a
 1693 017f 0B       		.uleb128 0xb
 1694 0180 3B       		.uleb128 0x3b
 1695 0181 0B       		.uleb128 0xb
 1696 0182 39       		.uleb128 0x39
 1697 0183 0B       		.uleb128 0xb
 1698 0184 49       		.uleb128 0x49
 1699 0185 13       		.uleb128 0x13
 1700 0186 3F       		.uleb128 0x3f
 1701 0187 19       		.uleb128 0x19
 1702 0188 3C       		.uleb128 0x3c
 1703 0189 19       		.uleb128 0x19
 1704 018a 00       		.byte	0
 1705 018b 00       		.byte	0
 1706 018c 1C       		.uleb128 0x1c
 1707 018d 34       		.uleb128 0x34
ARM GAS  C:\Users\DEVELO~1\AppData\Local\Temp\cc597XWa.s 			page 31


 1708 018e 00       		.byte	0
 1709 018f 47       		.uleb128 0x47
 1710 0190 13       		.uleb128 0x13
 1711 0191 3A       		.uleb128 0x3a
 1712 0192 0B       		.uleb128 0xb
 1713 0193 3B       		.uleb128 0x3b
 1714 0194 0B       		.uleb128 0xb
 1715 0195 39       		.uleb128 0x39
 1716 0196 0B       		.uleb128 0xb
 1717 0197 02       		.uleb128 0x2
 1718 0198 18       		.uleb128 0x18
 1719 0199 00       		.byte	0
 1720 019a 00       		.byte	0
 1721 019b 1D       		.uleb128 0x1d
 1722 019c 2E       		.uleb128 0x2e
 1723 019d 01       		.byte	0x1
 1724 019e 3F       		.uleb128 0x3f
 1725 019f 19       		.uleb128 0x19
 1726 01a0 03       		.uleb128 0x3
 1727 01a1 0E       		.uleb128 0xe
 1728 01a2 3A       		.uleb128 0x3a
 1729 01a3 0B       		.uleb128 0xb
 1730 01a4 3B       		.uleb128 0x3b
 1731 01a5 0B       		.uleb128 0xb
 1732 01a6 39       		.uleb128 0x39
 1733 01a7 0B       		.uleb128 0xb
 1734 01a8 27       		.uleb128 0x27
 1735 01a9 19       		.uleb128 0x19
 1736 01aa 3C       		.uleb128 0x3c
 1737 01ab 19       		.uleb128 0x19
 1738 01ac 01       		.uleb128 0x1
 1739 01ad 13       		.uleb128 0x13
 1740 01ae 00       		.byte	0
 1741 01af 00       		.byte	0
 1742 01b0 1E       		.uleb128 0x1e
 1743 01b1 05       		.uleb128 0x5
 1744 01b2 00       		.byte	0
 1745 01b3 49       		.uleb128 0x49
 1746 01b4 13       		.uleb128 0x13
 1747 01b5 00       		.byte	0
 1748 01b6 00       		.byte	0
 1749 01b7 1F       		.uleb128 0x1f
 1750 01b8 2E       		.uleb128 0x2e
 1751 01b9 00       		.byte	0
 1752 01ba 3F       		.uleb128 0x3f
 1753 01bb 19       		.uleb128 0x19
 1754 01bc 03       		.uleb128 0x3
 1755 01bd 0E       		.uleb128 0xe
 1756 01be 3A       		.uleb128 0x3a
 1757 01bf 0B       		.uleb128 0xb
 1758 01c0 3B       		.uleb128 0x3b
 1759 01c1 0B       		.uleb128 0xb
 1760 01c2 39       		.uleb128 0x39
 1761 01c3 0B       		.uleb128 0xb
 1762 01c4 27       		.uleb128 0x27
 1763 01c5 19       		.uleb128 0x19
 1764 01c6 11       		.uleb128 0x11
ARM GAS  C:\Users\DEVELO~1\AppData\Local\Temp\cc597XWa.s 			page 32


 1765 01c7 01       		.uleb128 0x1
 1766 01c8 12       		.uleb128 0x12
 1767 01c9 06       		.uleb128 0x6
 1768 01ca 40       		.uleb128 0x40
 1769 01cb 18       		.uleb128 0x18
 1770 01cc 7A       		.uleb128 0x7a
 1771 01cd 19       		.uleb128 0x19
 1772 01ce 00       		.byte	0
 1773 01cf 00       		.byte	0
 1774 01d0 20       		.uleb128 0x20
 1775 01d1 2E       		.uleb128 0x2e
 1776 01d2 00       		.byte	0
 1777 01d3 3F       		.uleb128 0x3f
 1778 01d4 19       		.uleb128 0x19
 1779 01d5 03       		.uleb128 0x3
 1780 01d6 0E       		.uleb128 0xe
 1781 01d7 3A       		.uleb128 0x3a
 1782 01d8 0B       		.uleb128 0xb
 1783 01d9 3B       		.uleb128 0x3b
 1784 01da 0B       		.uleb128 0xb
 1785 01db 39       		.uleb128 0x39
 1786 01dc 0B       		.uleb128 0xb
 1787 01dd 27       		.uleb128 0x27
 1788 01de 19       		.uleb128 0x19
 1789 01df 11       		.uleb128 0x11
 1790 01e0 01       		.uleb128 0x1
 1791 01e1 12       		.uleb128 0x12
 1792 01e2 06       		.uleb128 0x6
 1793 01e3 40       		.uleb128 0x40
 1794 01e4 18       		.uleb128 0x18
 1795 01e5 7C       		.uleb128 0x7c
 1796 01e6 19       		.uleb128 0x19
 1797 01e7 00       		.byte	0
 1798 01e8 00       		.byte	0
 1799 01e9 00       		.byte	0
 1800              		.section	.debug_aranges,"",%progbits
 1801 0000 24000000 		.4byte	0x24
 1802 0004 0200     		.2byte	0x2
 1803 0006 00000000 		.4byte	.Ldebug_info0
 1804 000a 04       		.byte	0x4
 1805 000b 00       		.byte	0
 1806 000c 0000     		.2byte	0
 1807 000e 0000     		.2byte	0
 1808 0010 00000000 		.4byte	.LFB432
 1809 0014 1C000000 		.4byte	.LFE432-.LFB432
 1810 0018 00000000 		.4byte	.LFB433
 1811 001c 0C000000 		.4byte	.LFE433-.LFB433
 1812 0020 00000000 		.4byte	0
 1813 0024 00000000 		.4byte	0
 1814              		.section	.debug_rnglists,"",%progbits
 1815              	.Ldebug_ranges0:
 1816 0000 15000000 		.4byte	.Ldebug_ranges3-.Ldebug_ranges2
 1817              	.Ldebug_ranges2:
 1818 0004 0500     		.2byte	0x5
 1819 0006 04       		.byte	0x4
 1820 0007 00       		.byte	0
 1821 0008 00000000 		.4byte	0
ARM GAS  C:\Users\DEVELO~1\AppData\Local\Temp\cc597XWa.s 			page 33


 1822              	.LLRL0:
 1823 000c 07       		.byte	0x7
 1824 000d 00000000 		.4byte	.LFB432
 1825 0011 1C       		.uleb128 .LFE432-.LFB432
 1826 0012 07       		.byte	0x7
 1827 0013 00000000 		.4byte	.LFB433
 1828 0017 0C       		.uleb128 .LFE433-.LFB433
 1829 0018 00       		.byte	0
 1830              	.Ldebug_ranges3:
 1831              		.section	.debug_line,"",%progbits
 1832              	.Ldebug_line0:
 1833 0000 3C020000 		.section	.debug_str,"MS",%progbits,1
 1833      03000902 
 1833      00000201 
 1833      FB0E0D00 
 1833      01010101 
 1834              	.LASF113:
 1835 0000 72656164 		.ascii	"ready_list_t\000"
 1835      795F6C69 
 1835      73745F74 
 1835      00
 1836              	.LASF104:
 1837 000d 77747472 		.ascii	"wttrp\000"
 1837      7000
 1838              	.LASF102:
 1839 0013 7264796D 		.ascii	"rdymsg\000"
 1839      736700
 1840              	.LASF51:
 1841 001a 72666375 		.ascii	"rfcu\000"
 1841      00
 1842              	.LASF123:
 1843 001f 6472765F 		.ascii	"drv_display_init\000"
 1843      64697370 
 1843      6C61795F 
 1843      696E6974 
 1843      00
 1844              	.LASF6:
 1845 0030 5F5F7569 		.ascii	"__uint8_t\000"
 1845      6E74385F 
 1845      7400
 1846              	.LASF70:
 1847 003a 70726576 		.ascii	"prev\000"
 1847      00
 1848              	.LASF89:
 1849 003f 706F7274 		.ascii	"port_intctx\000"
 1849      5F696E74 
 1849      63747800 
 1850              	.LASF48:
 1851 004b 76746C69 		.ascii	"vtlist\000"
 1851      737400
 1852              	.LASF81:
 1853 0052 74797065 		.ascii	"type\000"
 1853      00
 1854              	.LASF84:
 1855 0057 74726163 		.ascii	"trace_event_t\000"
 1855      655F6576 
 1855      656E745F 
ARM GAS  C:\Users\DEVELO~1\AppData\Local\Temp\cc597XWa.s 			page 34


 1855      7400
 1856              	.LASF79:
 1857 0065 68616C74 		.ascii	"halt\000"
 1857      00
 1858              	.LASF103:
 1859 006a 65786974 		.ascii	"exitcode\000"
 1859      636F6465 
 1859      00
 1860              	.LASF53:
 1861 0073 6D61696E 		.ascii	"mainthread\000"
 1861      74687265 
 1861      616400
 1862              	.LASF105:
 1863 007e 73656E74 		.ascii	"sentmsg\000"
 1863      6D736700 
 1864              	.LASF76:
 1865 0086 64656C74 		.ascii	"delta\000"
 1865      6100
 1866              	.LASF67:
 1867 008c 6E657874 		.ascii	"next\000"
 1867      00
 1868              	.LASF1:
 1869 0091 6C6F6E67 		.ascii	"long long int\000"
 1869      206C6F6E 
 1869      6720696E 
 1869      7400
 1870              	.LASF3:
 1871 009f 7369676E 		.ascii	"signed char\000"
 1871      65642063 
 1871      68617200 
 1872              	.LASF75:
 1873 00ab 63685F64 		.ascii	"ch_delta_list\000"
 1873      656C7461 
 1873      5F6C6973 
 1873      7400
 1874              	.LASF14:
 1875 00b9 6C6F6E67 		.ascii	"long long unsigned int\000"
 1875      206C6F6E 
 1875      6720756E 
 1875      7369676E 
 1875      65642069 
 1876              	.LASF126:
 1877 00d0 474E5520 		.ascii	"GNU C17 11.3.1 20220712 -mcpu=cortex-m7 -mthumb -mf"
 1877      43313720 
 1877      31312E33 
 1877      2E312032 
 1877      30323230 
 1878 0103 6C6F6174 		.ascii	"loat-abi=soft -march=armv7e-m -ggdb -O0 -ffunction-"
 1878      2D616269 
 1878      3D736F66 
 1878      74202D6D 
 1878      61726368 
 1879 0136 73656374 		.ascii	"sections -fdata-sections -fno-common\000"
 1879      696F6E73 
 1879      202D6664 
 1879      6174612D 
 1879      73656374 
ARM GAS  C:\Users\DEVELO~1\AppData\Local\Temp\cc597XWa.s 			page 35


 1880              	.LASF35:
 1881 015b 73746174 		.ascii	"state\000"
 1881      6500
 1882              	.LASF10:
 1883 0161 6C6F6E67 		.ascii	"long int\000"
 1883      20696E74 
 1883      00
 1884              	.LASF23:
 1885 016a 74737461 		.ascii	"tstate_t\000"
 1885      74655F74 
 1885      00
 1886              	.LASF56:
 1887 0173 63685F72 		.ascii	"ch_rfcu\000"
 1887      66637500 
 1888              	.LASF130:
 1889 017b 63684D74 		.ascii	"chMtxObjectInit\000"
 1889      784F626A 
 1889      65637449 
 1889      6E697400 
 1890              	.LASF69:
 1891 018b 63685F71 		.ascii	"ch_queue\000"
 1891      75657565 
 1891      00
 1892              	.LASF16:
 1893 0194 75696E74 		.ascii	"uint16_t\000"
 1893      31365F74 
 1893      00
 1894              	.LASF88:
 1895 019d 74726163 		.ascii	"trace_buffer_t\000"
 1895      655F6275 
 1895      66666572 
 1895      5F7400
 1896              	.LASF96:
 1897 01ac 63685F72 		.ascii	"ch_registry\000"
 1897      65676973 
 1897      74727900 
 1898              	.LASF11:
 1899 01b8 5F5F7569 		.ascii	"__uint32_t\000"
 1899      6E743332 
 1899      5F7400
 1900              	.LASF57:
 1901 01c3 6D61736B 		.ascii	"mask\000"
 1901      00
 1902              	.LASF38:
 1903 01c8 77616974 		.ascii	"waiting\000"
 1903      696E6700 
 1904              	.LASF115:
 1905 01d0 6D61696E 		.ascii	"mainthread_base\000"
 1905      74687265 
 1905      61645F62 
 1905      61736500 
 1906              	.LASF120:
 1907 01e0 6D757465 		.ascii	"mutex_t\000"
 1907      785F7400 
 1908              	.LASF64:
 1909 01e8 73797369 		.ascii	"sysinterval_t\000"
 1909      6E746572 
ARM GAS  C:\Users\DEVELO~1\AppData\Local\Temp\cc597XWa.s 			page 36


 1909      76616C5F 
 1909      7400
 1910              	.LASF28:
 1911 01f6 636E745F 		.ascii	"cnt_t\000"
 1911      7400
 1912              	.LASF39:
 1913 01fc 6D736771 		.ascii	"msgqueue\000"
 1913      75657565 
 1913      00
 1914              	.LASF0:
 1915 0205 756E7369 		.ascii	"unsigned int\000"
 1915      676E6564 
 1915      20696E74 
 1915      00
 1916              	.LASF117:
 1917 0212 69646C65 		.ascii	"idlethread_base\000"
 1917      74687265 
 1917      61645F62 
 1917      61736500 
 1918              	.LASF106:
 1919 0222 77747365 		.ascii	"wtsemp\000"
 1919      6D7000
 1920              	.LASF62:
 1921 0229 73797374 		.ascii	"system_debug_t\000"
 1921      656D5F64 
 1921      65627567 
 1921      5F7400
 1922              	.LASF12:
 1923 0238 6C6F6E67 		.ascii	"long unsigned int\000"
 1923      20756E73 
 1923      69676E65 
 1923      6420696E 
 1923      7400
 1924              	.LASF31:
 1925 024a 72717565 		.ascii	"rqueue\000"
 1925      756500
 1926              	.LASF68:
 1927 0251 63685F71 		.ascii	"ch_queue_t\000"
 1927      75657565 
 1927      5F7400
 1928              	.LASF128:
 1929 025c 433A5C50 		.ascii	"C:\\PROJET\\ChibiOS project\\ChibiOS_21.11.4\\demos"
 1929      524F4A45 
 1929      545C4368 
 1929      6962694F 
 1929      53207072 
 1930 028b 5C53544D 		.ascii	"\\STM32\\RT-STM32H743ZI_REV_XY-NUCLEO144_Quartz8M\000"
 1930      33325C52 
 1930      542D5354 
 1930      4D333248 
 1930      3734335A 
 1931              	.LASF33:
 1932 02bb 6E616D65 		.ascii	"name\000"
 1932      00
 1933              	.LASF97:
 1934 02c0 71756575 		.ascii	"queue\000"
 1934      6500
ARM GAS  C:\Users\DEVELO~1\AppData\Local\Temp\cc597XWa.s 			page 37


 1935              	.LASF43:
 1936 02c6 6D706F6F 		.ascii	"mpool\000"
 1936      6C00
 1937              	.LASF86:
 1938 02cc 73697A65 		.ascii	"size\000"
 1938      00
 1939              	.LASF8:
 1940 02d1 73686F72 		.ascii	"short unsigned int\000"
 1940      7420756E 
 1940      7369676E 
 1940      65642069 
 1940      6E7400
 1941              	.LASF45:
 1942 02e4 63685F74 		.ascii	"ch_thread\000"
 1942      68726561 
 1942      6400
 1943              	.LASF26:
 1944 02ee 6D73675F 		.ascii	"msg_t\000"
 1944      7400
 1945              	.LASF40:
 1946 02f4 6570656E 		.ascii	"epending\000"
 1946      64696E67 
 1946      00
 1947              	.LASF22:
 1948 02fd 746D6F64 		.ascii	"tmode_t\000"
 1948      655F7400 
 1949              	.LASF66:
 1950 0305 63685F6C 		.ascii	"ch_list\000"
 1950      69737400 
 1951              	.LASF111:
 1952 030d 63685F72 		.ascii	"ch_ready_list\000"
 1952      65616479 
 1952      5F6C6973 
 1952      7400
 1953              	.LASF27:
 1954 031b 6576656E 		.ascii	"eventmask_t\000"
 1954      746D6173 
 1954      6B5F7400 
 1955              	.LASF9:
 1956 0327 5F5F696E 		.ascii	"__int32_t\000"
 1956      7433325F 
 1956      7400
 1957              	.LASF95:
 1958 0331 76697274 		.ascii	"virtual_timers_list_t\000"
 1958      75616C5F 
 1958      74696D65 
 1958      72735F6C 
 1958      6973745F 
 1959              	.LASF21:
 1960 0347 73746B61 		.ascii	"stkalign_t\000"
 1960      6C69676E 
 1960      5F7400
 1961              	.LASF122:
 1962 0352 6472765F 		.ascii	"drv_encoders_start\000"
 1962      656E636F 
 1962      64657273 
 1962      5F737461 
ARM GAS  C:\Users\DEVELO~1\AppData\Local\Temp\cc597XWa.s 			page 38


 1962      727400
 1963              	.LASF82:
 1964 0365 72747374 		.ascii	"rtstamp\000"
 1964      616D7000 
 1965              	.LASF94:
 1966 036d 6C617374 		.ascii	"laststamp\000"
 1966      7374616D 
 1966      7000
 1967              	.LASF42:
 1968 0377 7265616C 		.ascii	"realprio\000"
 1968      7072696F 
 1968      00
 1969              	.LASF55:
 1970 0380 72666375 		.ascii	"rfcu_mask_t\000"
 1970      5F6D6173 
 1970      6B5F7400 
 1971              	.LASF99:
 1972 038c 74687265 		.ascii	"thread_reference_t\000"
 1972      61645F72 
 1972      65666572 
 1972      656E6365 
 1972      5F7400
 1973              	.LASF91:
 1974 039f 63685F76 		.ascii	"ch_virtual_timers_list\000"
 1974      69727475 
 1974      616C5F74 
 1974      696D6572 
 1974      735F6C69 
 1975              	.LASF65:
 1976 03b6 63685F6C 		.ascii	"ch_list_t\000"
 1976      6973745F 
 1976      7400
 1977              	.LASF85:
 1978 03c0 73757370 		.ascii	"suspended\000"
 1978      656E6465 
 1978      6400
 1979              	.LASF19:
 1980 03ca 75696E74 		.ascii	"uint64_t\000"
 1980      36345F74 
 1980      00
 1981              	.LASF114:
 1982 03d3 63685F6F 		.ascii	"ch_os_instance_config\000"
 1982      735F696E 
 1982      7374616E 
 1982      63655F63 
 1982      6F6E6669 
 1983              	.LASF90:
 1984 03e9 706F7274 		.ascii	"port_context\000"
 1984      5F636F6E 
 1984      74657874 
 1984      00
 1985              	.LASF46:
 1986 03f6 63685F6F 		.ascii	"ch_os_instance\000"
 1986      735F696E 
 1986      7374616E 
 1986      636500
 1987              	.LASF83:
ARM GAS  C:\Users\DEVELO~1\AppData\Local\Temp\cc597XWa.s 			page 39


 1988 0405 74696D65 		.ascii	"time\000"
 1988      00
 1989              	.LASF73:
 1990 040a 7072696F 		.ascii	"prio\000"
 1990      00
 1991              	.LASF112:
 1992 040f 63757272 		.ascii	"current\000"
 1992      656E7400 
 1993              	.LASF13:
 1994 0417 5F5F7569 		.ascii	"__uint64_t\000"
 1994      6E743634 
 1994      5F7400
 1995              	.LASF29:
 1996 0422 636F7265 		.ascii	"core_id_t\000"
 1996      5F69645F 
 1996      7400
 1997              	.LASF24:
 1998 042c 74726566 		.ascii	"trefs_t\000"
 1998      735F7400 
 1999              	.LASF37:
 2000 0434 72656673 		.ascii	"refs\000"
 2000      00
 2001              	.LASF80:
 2002 0439 75736572 		.ascii	"user\000"
 2002      00
 2003              	.LASF25:
 2004 043e 74707269 		.ascii	"tprio_t\000"
 2004      6F5F7400 
 2005              	.LASF59:
 2006 0446 63685F73 		.ascii	"ch_system_debug\000"
 2006      79737465 
 2006      6D5F6465 
 2006      62756700 
 2007              	.LASF121:
 2008 0456 5F426F6F 		.ascii	"_Bool\000"
 2008      6C00
 2009              	.LASF17:
 2010 045c 696E7433 		.ascii	"int32_t\000"
 2010      325F7400 
 2011              	.LASF4:
 2012 0464 756E7369 		.ascii	"unsigned char\000"
 2012      676E6564 
 2012      20636861 
 2012      7200
 2013              	.LASF58:
 2014 0472 72666375 		.ascii	"rfcu_t\000"
 2014      5F7400
 2015              	.LASF5:
 2016 0479 73686F72 		.ascii	"short int\000"
 2016      7420696E 
 2016      7400
 2017              	.LASF93:
 2018 0483 6C617374 		.ascii	"lasttime\000"
 2018      74696D65 
 2018      00
 2019              	.LASF77:
 2020 048c 77746F62 		.ascii	"wtobjp\000"
ARM GAS  C:\Users\DEVELO~1\AppData\Local\Temp\cc597XWa.s 			page 40


 2020      6A7000
 2021              	.LASF108:
 2022 0493 65776D61 		.ascii	"ewmask\000"
 2022      736B00
 2023              	.LASF50:
 2024 049a 636F7265 		.ascii	"core_id\000"
 2024      5F696400 
 2025              	.LASF78:
 2026 04a2 72656173 		.ascii	"reason\000"
 2026      6F6E00
 2027              	.LASF109:
 2028 04a9 63685F73 		.ascii	"ch_semaphore\000"
 2028      656D6170 
 2028      686F7265 
 2028      00
 2029              	.LASF124:
 2030 04b6 64726976 		.ascii	"drivers_update_all\000"
 2030      6572735F 
 2030      75706461 
 2030      74655F61 
 2030      6C6C00
 2031              	.LASF98:
 2032 04c9 72656769 		.ascii	"registry_t\000"
 2032      73747279 
 2032      5F7400
 2033              	.LASF18:
 2034 04d4 75696E74 		.ascii	"uint32_t\000"
 2034      33325F74 
 2034      00
 2035              	.LASF107:
 2036 04dd 77746D74 		.ascii	"wtmtxp\000"
 2036      787000
 2037              	.LASF127:
 2038 04e4 64726976 		.ascii	"drivers/drivers.c\000"
 2038      6572732F 
 2038      64726976 
 2038      6572732E 
 2038      6300
 2039              	.LASF20:
 2040 04f6 706F7274 		.ascii	"port_stkalign_t\000"
 2040      5F73746B 
 2040      616C6967 
 2040      6E5F7400 
 2041              	.LASF32:
 2042 0506 6F776E65 		.ascii	"owner\000"
 2042      7200
 2043              	.LASF2:
 2044 050c 6C6F6E67 		.ascii	"long double\000"
 2044      20646F75 
 2044      626C6500 
 2045              	.LASF34:
 2046 0518 77616261 		.ascii	"wabase\000"
 2046      736500
 2047              	.LASF61:
 2048 051f 63686172 		.ascii	"char\000"
 2048      00
 2049              	.LASF52:
ARM GAS  C:\Users\DEVELO~1\AppData\Local\Temp\cc597XWa.s 			page 41


 2050 0524 636F6E66 		.ascii	"config\000"
 2050      696700
 2051              	.LASF7:
 2052 052b 5F5F7569 		.ascii	"__uint16_t\000"
 2052      6E743136 
 2052      5F7400
 2053              	.LASF30:
 2054 0536 74687265 		.ascii	"thread_t\000"
 2054      61645F74 
 2054      00
 2055              	.LASF92:
 2056 053f 646C6973 		.ascii	"dlist\000"
 2056      7400
 2057              	.LASF63:
 2058 0545 73797374 		.ascii	"systime_t\000"
 2058      696D655F 
 2058      7400
 2059              	.LASF87:
 2060 054f 62756666 		.ascii	"buffer\000"
 2060      657200
 2061              	.LASF71:
 2062 0556 63685F70 		.ascii	"ch_priority_queue_t\000"
 2062      72696F72 
 2062      6974795F 
 2062      71756575 
 2062      655F7400 
 2063              	.LASF60:
 2064 056a 70616E69 		.ascii	"panic_msg\000"
 2064      635F6D73 
 2064      6700
 2065              	.LASF101:
 2066 0574 70717565 		.ascii	"pqueue\000"
 2066      756500
 2067              	.LASF129:
 2068 057b 73706935 		.ascii	"spi5_mutex\000"
 2068      5F6D7574 
 2068      657800
 2069              	.LASF44:
 2070 0586 6F735F69 		.ascii	"os_instance_t\000"
 2070      6E737461 
 2070      6E63655F 
 2070      7400
 2071              	.LASF49:
 2072 0594 7265676C 		.ascii	"reglist\000"
 2072      69737400 
 2073              	.LASF72:
 2074 059c 63685F70 		.ascii	"ch_priority_queue\000"
 2074      72696F72 
 2074      6974795F 
 2074      71756575 
 2074      6500
 2075              	.LASF74:
 2076 05ae 63685F64 		.ascii	"ch_delta_list_t\000"
 2076      656C7461 
 2076      5F6C6973 
 2076      745F7400 
 2077              	.LASF116:
ARM GAS  C:\Users\DEVELO~1\AppData\Local\Temp\cc597XWa.s 			page 42


 2078 05be 6D61696E 		.ascii	"mainthread_end\000"
 2078      74687265 
 2078      61645F65 
 2078      6E6400
 2079              	.LASF119:
 2080 05cd 6F735F69 		.ascii	"os_instance_config_t\000"
 2080      6E737461 
 2080      6E63655F 
 2080      636F6E66 
 2080      69675F74 
 2081              	.LASF47:
 2082 05e2 726C6973 		.ascii	"rlist\000"
 2082      7400
 2083              	.LASF15:
 2084 05e8 75696E74 		.ascii	"uint8_t\000"
 2084      385F7400 
 2085              	.LASF36:
 2086 05f0 666C6167 		.ascii	"flags\000"
 2086      7300
 2087              	.LASF110:
 2088 05f6 63685F6D 		.ascii	"ch_mutex\000"
 2088      75746578 
 2088      00
 2089              	.LASF54:
 2090 05ff 74726163 		.ascii	"trace_buffer\000"
 2090      655F6275 
 2090      66666572 
 2090      00
 2091              	.LASF100:
 2092 060c 6C697374 		.ascii	"list\000"
 2092      00
 2093              	.LASF118:
 2094 0611 69646C65 		.ascii	"idlethread_end\000"
 2094      74687265 
 2094      61645F65 
 2094      6E6400
 2095              	.LASF41:
 2096 0620 6D74786C 		.ascii	"mtxlist\000"
 2096      69737400 
 2097              	.LASF125:
 2098 0628 64726976 		.ascii	"drivers_init_all\000"
 2098      6572735F 
 2098      696E6974 
 2098      5F616C6C 
 2098      00
 2099              		.ident	"GCC: (Arm GNU Toolchain 11.3.Rel1) 11.3.1 20220712"
ARM GAS  C:\Users\DEVELO~1\AppData\Local\Temp\cc597XWa.s 			page 43


DEFINED SYMBOLS
                            *ABS*:00000000 drivers.c
C:\Users\DEVELO~1\AppData\Local\Temp\cc597XWa.s:22     .bss.spi5_mutex:00000000 spi5_mutex
C:\Users\DEVELO~1\AppData\Local\Temp\cc597XWa.s:19     .bss.spi5_mutex:00000000 $d
C:\Users\DEVELO~1\AppData\Local\Temp\cc597XWa.s:25     .text.drivers_init_all:00000000 $t
C:\Users\DEVELO~1\AppData\Local\Temp\cc597XWa.s:31     .text.drivers_init_all:00000000 drivers_init_all
C:\Users\DEVELO~1\AppData\Local\Temp\cc597XWa.s:57     .text.drivers_init_all:00000018 $d
C:\Users\DEVELO~1\AppData\Local\Temp\cc597XWa.s:62     .text.drivers_update_all:00000000 $t
C:\Users\DEVELO~1\AppData\Local\Temp\cc597XWa.s:68     .text.drivers_update_all:00000000 drivers_update_all

UNDEFINED SYMBOLS
chMtxObjectInit
drv_display_init
drv_encoders_start
