ARM GAS  C:\Users\DEVELO~1\AppData\Local\Temp\cc8YYP3e.s 			page 1


   1              		.cpu cortex-m7
   2              		.arch armv7e-m
   3              		.fpu softvfp
   4              		.eabi_attribute 20, 1
   5              		.eabi_attribute 21, 1
   6              		.eabi_attribute 23, 3
   7              		.eabi_attribute 24, 1
   8              		.eabi_attribute 25, 1
   9              		.eabi_attribute 26, 1
  10              		.eabi_attribute 30, 6
  11              		.eabi_attribute 34, 1
  12              		.eabi_attribute 18, 4
  13              		.file	"drv_hall.c"
  14              		.text
  15              	.Ltext0:
  16              		.cfi_sections	.debug_frame
  17              		.section	.text.chTimeDiffX,"ax",%progbits
  18              		.align	1
  19              		.syntax unified
  20              		.thumb
  21              		.thumb_func
  22              		.type	chTimeDiffX, %function
  23              	chTimeDiffX:
  24              	.LFB9:
  25              		.file 1 "../../../os/rt/include/chtime.h"
  26              		.loc 1 461 73
  27              		.cfi_startproc
  28              		@ args = 0, pretend = 0, frame = 8
  29              		@ frame_needed = 1, uses_anonymous_args = 0
  30              		@ link register save eliminated.
  31 0000 80B4     		push	{r7}
  32              		.cfi_def_cfa_offset 4
  33              		.cfi_offset 7, -4
  34 0002 83B0     		sub	sp, sp, #12
  35              		.cfi_def_cfa_offset 16
  36 0004 00AF     		add	r7, sp, #0
  37              		.cfi_def_cfa_register 7
  38 0006 7860     		str	r0, [r7, #4]
  39 0008 3960     		str	r1, [r7]
  40              		.loc 1 465 10
  41 000a 3A68     		ldr	r2, [r7]
  42 000c 7B68     		ldr	r3, [r7, #4]
  43 000e D31A     		subs	r3, r2, r3
  44              		.loc 1 467 1
  45 0010 1846     		mov	r0, r3
  46 0012 0C37     		adds	r7, r7, #12
  47              		.cfi_def_cfa_offset 4
  48 0014 BD46     		mov	sp, r7
  49              		.cfi_def_cfa_register 13
  50              		@ sp needed
  51 0016 80BC     		pop	{r7}
  52              		.cfi_restore 7
  53              		.cfi_def_cfa_offset 0
  54 0018 7047     		bx	lr
  55              		.cfi_endproc
  56              	.LFE9:
  57              		.size	chTimeDiffX, .-chTimeDiffX
ARM GAS  C:\Users\DEVELO~1\AppData\Local\Temp\cc8YYP3e.s 			page 2


  58              		.section	.text.port_timer_get_time,"ax",%progbits
  59              		.align	1
  60              		.syntax unified
  61              		.thumb
  62              		.thumb_func
  63              		.type	port_timer_get_time, %function
  64              	port_timer_get_time:
  65              	.LFB196:
  66              		.file 2 "../../../os/hal/osal/rt-nil/chcore_timer.h"
  67              		.loc 2 111 51
  68              		.cfi_startproc
  69              		@ args = 0, pretend = 0, frame = 0
  70              		@ frame_needed = 1, uses_anonymous_args = 0
  71 0000 80B5     		push	{r7, lr}
  72              		.cfi_def_cfa_offset 8
  73              		.cfi_offset 7, -8
  74              		.cfi_offset 14, -4
  75 0002 00AF     		add	r7, sp, #0
  76              		.cfi_def_cfa_register 7
  77              		.loc 2 113 10
  78 0004 FFF7FEFF 		bl	stGetCounter
  79 0008 0346     		mov	r3, r0
  80              		.loc 2 114 1
  81 000a 1846     		mov	r0, r3
  82 000c 80BD     		pop	{r7, pc}
  83              		.cfi_endproc
  84              	.LFE196:
  85              		.size	port_timer_get_time, .-port_timer_get_time
  86              		.section	.text.chVTGetSystemTimeX,"ax",%progbits
  87              		.align	1
  88              		.syntax unified
  89              		.thumb
  90              		.thumb_func
  91              		.type	chVTGetSystemTimeX, %function
  92              	chVTGetSystemTimeX:
  93              	.LFB209:
  94              		.file 3 "../../../os/rt/include/chvt.h"
  95              		.loc 3 122 50
  96              		.cfi_startproc
  97              		@ args = 0, pretend = 0, frame = 0
  98              		@ frame_needed = 1, uses_anonymous_args = 0
  99 0000 80B5     		push	{r7, lr}
 100              		.cfi_def_cfa_offset 8
 101              		.cfi_offset 7, -8
 102              		.cfi_offset 14, -4
 103 0002 00AF     		add	r7, sp, #0
 104              		.cfi_def_cfa_register 7
 105              		.loc 3 127 10
 106 0004 FFF7FEFF 		bl	port_timer_get_time
 107 0008 0346     		mov	r3, r0
 108              		.loc 3 129 1
 109 000a 1846     		mov	r0, r3
 110 000c 80BD     		pop	{r7, pc}
 111              		.cfi_endproc
 112              	.LFE209:
 113              		.size	chVTGetSystemTimeX, .-chVTGetSystemTimeX
 114              		.section	.text.chVTTimeElapsedSinceX,"ax",%progbits
ARM GAS  C:\Users\DEVELO~1\AppData\Local\Temp\cc8YYP3e.s 			page 3


 115              		.align	1
 116              		.syntax unified
 117              		.thumb
 118              		.thumb_func
 119              		.type	chVTTimeElapsedSinceX, %function
 120              	chVTTimeElapsedSinceX:
 121              	.LFB211:
 122              		.loc 3 159 68
 123              		.cfi_startproc
 124              		@ args = 0, pretend = 0, frame = 8
 125              		@ frame_needed = 1, uses_anonymous_args = 0
 126 0000 80B5     		push	{r7, lr}
 127              		.cfi_def_cfa_offset 8
 128              		.cfi_offset 7, -8
 129              		.cfi_offset 14, -4
 130 0002 82B0     		sub	sp, sp, #8
 131              		.cfi_def_cfa_offset 16
 132 0004 00AF     		add	r7, sp, #0
 133              		.cfi_def_cfa_register 7
 134 0006 7860     		str	r0, [r7, #4]
 135              		.loc 3 161 10
 136 0008 FFF7FEFF 		bl	chVTGetSystemTimeX
 137 000c 0346     		mov	r3, r0
 138 000e 1946     		mov	r1, r3
 139 0010 7868     		ldr	r0, [r7, #4]
 140 0012 FFF7FEFF 		bl	chTimeDiffX
 141 0016 0346     		mov	r3, r0
 142              		.loc 3 162 1
 143 0018 1846     		mov	r0, r3
 144 001a 0837     		adds	r7, r7, #8
 145              		.cfi_def_cfa_offset 8
 146 001c BD46     		mov	sp, r7
 147              		.cfi_def_cfa_register 13
 148              		@ sp needed
 149 001e 80BD     		pop	{r7, pc}
 150              		.cfi_endproc
 151              	.LFE211:
 152              		.size	chVTTimeElapsedSinceX, .-chVTTimeElapsedSinceX
 153              		.section	.rodata.adcgrpcfg1,"a"
 154              		.align	2
 155              		.type	adcgrpcfg1, %object
 156              		.size	adcgrpcfg1, 88
 157              	adcgrpcfg1:
 158 0000 00       		.byte	0
 159 0001 000000   		.space	3
 160 0004 01000000 		.word	1
 161 0008 00000000 		.word	0
 162 000c 00000000 		.word	0
 163 0010 00000000 		.word	0
 164 0014 00000000 		.word	0
 165 0018 00000000 		.space	40
 165      00000000 
 165      00000000 
 165      00000000 
 165      00000000 
 166 0040 00500000 		.word	20480
 167 0044 00000000 		.word	0
ARM GAS  C:\Users\DEVELO~1\AppData\Local\Temp\cc8YYP3e.s 			page 4


 168 0048 00010000 		.word	256
 169 004c 00000000 		.word	0
 170 0050 00000000 		.word	0
 171 0054 00000000 		.word	0
 172              		.section	.rodata.adcgrpcfg2,"a"
 173              		.align	2
 174              		.type	adcgrpcfg2, %object
 175              		.size	adcgrpcfg2, 88
 176              	adcgrpcfg2:
 177 0000 00       		.byte	0
 178 0001 000000   		.space	3
 179 0004 01000000 		.word	1
 180 0008 00000000 		.word	0
 181 000c 00000000 		.word	0
 182 0010 00000000 		.word	0
 183 0014 00000000 		.word	0
 184 0018 00000000 		.space	40
 184      00000000 
 184      00000000 
 184      00000000 
 184      00000000 
 185 0040 0000A000 		.word	10485760
 186 0044 00000000 		.word	0
 187 0048 C0010000 		.word	448
 188 004c 00000000 		.word	0
 189 0050 00000000 		.word	0
 190 0054 00000000 		.word	0
 191              		.section	.bss.adc_sample1,"aw",%nobits
 192              		.align	1
 193              		.type	adc_sample1, %object
 194              		.size	adc_sample1, 2
 195              	adc_sample1:
 196 0000 0000     		.space	2
 197              		.section	.bss.adc_sample2,"aw",%nobits
 198              		.align	1
 199              		.type	adc_sample2, %object
 200              		.size	adc_sample2, 2
 201              	adc_sample2:
 202 0000 0000     		.space	2
 203              		.section	.bss.hall_state,"aw",%nobits
 204              		.align	2
 205              		.type	hall_state, %object
 206              		.size	hall_state, 384
 207              	hall_state:
 208 0000 00000000 		.space	384
 208      00000000 
 208      00000000 
 208      00000000 
 208      00000000 
 209              		.section	.bss.asc_state,"aw",%nobits
 210              		.align	2
 211              		.type	asc_state, %object
 212              		.size	asc_state, 640
 213              	asc_state:
 214 0000 00000000 		.space	640
 214      00000000 
 214      00000000 
ARM GAS  C:\Users\DEVELO~1\AppData\Local\Temp\cc8YYP3e.s 			page 5


 214      00000000 
 214      00000000 
 215              		.section	.bss.cal_state,"aw",%nobits
 216              		.align	2
 217              		.type	cal_state, %object
 218              		.size	cal_state, 148
 219              	cal_state:
 220 0000 00000000 		.space	148
 220      00000000 
 220      00000000 
 220      00000000 
 220      00000000 
 221              		.section	.bss.velocity_start_time,"aw",%nobits
 222              		.align	2
 223              		.type	velocity_start_time, %object
 224              		.size	velocity_start_time, 64
 225              	velocity_start_time:
 226 0000 00000000 		.space	64
 226      00000000 
 226      00000000 
 226      00000000 
 226      00000000 
 227              		.section	.bss.velocity_armed,"aw",%nobits
 228              		.align	2
 229              		.type	velocity_armed, %object
 230              		.size	velocity_armed, 16
 231              	velocity_armed:
 232 0000 00000000 		.space	16
 232      00000000 
 232      00000000 
 232      00000000 
 233              		.section	.bss.hall_initialized,"aw",%nobits
 234              		.type	hall_initialized, %object
 235              		.size	hall_initialized, 1
 236              	hall_initialized:
 237 0000 00       		.space	1
 238              		.section	.text.mux_select,"ax",%progbits
 239              		.align	1
 240              		.syntax unified
 241              		.thumb
 242              		.thumb_func
 243              		.type	mux_select, %function
 244              	mux_select:
 245              	.LFB432:
 246              		.file 4 "drivers/HallEffect/drv_hall.c"
 247              		.loc 4 85 46
 248              		.cfi_startproc
 249              		@ args = 0, pretend = 0, frame = 24
 250              		@ frame_needed = 1, uses_anonymous_args = 0
 251              		@ link register save eliminated.
 252 0000 80B4     		push	{r7}
 253              		.cfi_def_cfa_offset 4
 254              		.cfi_offset 7, -4
 255 0002 87B0     		sub	sp, sp, #28
 256              		.cfi_def_cfa_offset 32
 257 0004 00AF     		add	r7, sp, #0
 258              		.cfi_def_cfa_register 7
ARM GAS  C:\Users\DEVELO~1\AppData\Local\Temp\cc8YYP3e.s 			page 6


 259 0006 0346     		mov	r3, r0
 260 0008 FB71     		strb	r3, [r7, #7]
 261              	.LBB2:
 262              		.loc 4 86 5
 263 000a FB79     		ldrb	r3, [r7, #7]	@ zero_extendqisi2
 264 000c 03F00103 		and	r3, r3, #1
 265 0010 002B     		cmp	r3, #0
 266 0012 02D1     		bne	.L10
 267              		.loc 4 86 5 is_stmt 0 discriminator 1
 268 0014 4FF40012 		mov	r2, #2097152
 269 0018 00E0     		b	.L11
 270              	.L10:
 271              		.loc 4 86 5 discriminator 2
 272 001a 0022     		movs	r2, #0
 273              	.L11:
 274              		.loc 4 86 5 discriminator 4
 275 001c FB79     		ldrb	r3, [r7, #7]	@ zero_extendqisi2
 276 001e 5B01     		lsls	r3, r3, #5
 277 0020 03F02003 		and	r3, r3, #32
 278 0024 1343     		orrs	r3, r3, r2
 279 0026 7B61     		str	r3, [r7, #20]
 280 0028 194A     		ldr	r2, .L16
 281 002a 7B69     		ldr	r3, [r7, #20]
 282 002c 9361     		str	r3, [r2, #24]
 283              	.LBE2:
 284              	.LBB3:
 285              		.loc 4 87 5 is_stmt 1 discriminator 4
 286 002e FB79     		ldrb	r3, [r7, #7]	@ zero_extendqisi2
 287 0030 5B08     		lsrs	r3, r3, #1
 288 0032 DBB2     		uxtb	r3, r3
 289 0034 03F00103 		and	r3, r3, #1
 290 0038 002B     		cmp	r3, #0
 291 003a 02D1     		bne	.L12
 292              		.loc 4 87 5 is_stmt 0 discriminator 1
 293 003c 4FF48012 		mov	r2, #1048576
 294 0040 00E0     		b	.L13
 295              	.L12:
 296              		.loc 4 87 5 discriminator 2
 297 0042 0022     		movs	r2, #0
 298              	.L13:
 299              		.loc 4 87 5 discriminator 4
 300 0044 FB79     		ldrb	r3, [r7, #7]	@ zero_extendqisi2
 301 0046 5B08     		lsrs	r3, r3, #1
 302 0048 DBB2     		uxtb	r3, r3
 303 004a 1B01     		lsls	r3, r3, #4
 304 004c 03F01003 		and	r3, r3, #16
 305 0050 1343     		orrs	r3, r3, r2
 306 0052 3B61     		str	r3, [r7, #16]
 307 0054 0E4A     		ldr	r2, .L16
 308 0056 3B69     		ldr	r3, [r7, #16]
 309 0058 9361     		str	r3, [r2, #24]
 310              	.LBE3:
 311              	.LBB4:
 312              		.loc 4 88 5 is_stmt 1 discriminator 4
 313 005a FB79     		ldrb	r3, [r7, #7]	@ zero_extendqisi2
 314 005c 9B08     		lsrs	r3, r3, #2
 315 005e DBB2     		uxtb	r3, r3
ARM GAS  C:\Users\DEVELO~1\AppData\Local\Temp\cc8YYP3e.s 			page 7


 316 0060 03F00103 		and	r3, r3, #1
 317 0064 002B     		cmp	r3, #0
 318 0066 02D1     		bne	.L14
 319              		.loc 4 88 5 is_stmt 0 discriminator 1
 320 0068 4FF48002 		mov	r2, #4194304
 321 006c 00E0     		b	.L15
 322              	.L14:
 323              		.loc 4 88 5 discriminator 2
 324 006e 0022     		movs	r2, #0
 325              	.L15:
 326              		.loc 4 88 5 discriminator 4
 327 0070 FB79     		ldrb	r3, [r7, #7]	@ zero_extendqisi2
 328 0072 9B08     		lsrs	r3, r3, #2
 329 0074 DBB2     		uxtb	r3, r3
 330 0076 9B01     		lsls	r3, r3, #6
 331 0078 03F04003 		and	r3, r3, #64
 332 007c 1343     		orrs	r3, r3, r2
 333 007e FB60     		str	r3, [r7, #12]
 334 0080 034A     		ldr	r2, .L16
 335 0082 FB68     		ldr	r3, [r7, #12]
 336 0084 9361     		str	r3, [r2, #24]
 337              	.LBE4:
 338              		.loc 4 89 1 is_stmt 1 discriminator 4
 339 0086 00BF     		nop
 340 0088 1C37     		adds	r7, r7, #28
 341              		.cfi_def_cfa_offset 4
 342 008a BD46     		mov	sp, r7
 343              		.cfi_def_cfa_register 13
 344              		@ sp needed
 345 008c 80BC     		pop	{r7}
 346              		.cfi_restore 7
 347              		.cfi_def_cfa_offset 0
 348 008e 7047     		bx	lr
 349              	.L17:
 350              		.align	2
 351              	.L16:
 352 0090 00000258 		.word	1476526080
 353              		.cfi_endproc
 354              	.LFE432:
 355              		.size	mux_select, .-mux_select
 356              		.section	.text.clamp_uint8,"ax",%progbits
 357              		.align	1
 358              		.syntax unified
 359              		.thumb
 360              		.thumb_func
 361              		.type	clamp_uint8, %function
 362              	clamp_uint8:
 363              	.LFB433:
 364              		.loc 4 91 46
 365              		.cfi_startproc
 366              		@ args = 0, pretend = 0, frame = 8
 367              		@ frame_needed = 1, uses_anonymous_args = 0
 368              		@ link register save eliminated.
 369 0000 80B4     		push	{r7}
 370              		.cfi_def_cfa_offset 4
 371              		.cfi_offset 7, -4
 372 0002 83B0     		sub	sp, sp, #12
ARM GAS  C:\Users\DEVELO~1\AppData\Local\Temp\cc8YYP3e.s 			page 8


 373              		.cfi_def_cfa_offset 16
 374 0004 00AF     		add	r7, sp, #0
 375              		.cfi_def_cfa_register 7
 376 0006 7860     		str	r0, [r7, #4]
 377              		.loc 4 92 8
 378 0008 7B68     		ldr	r3, [r7, #4]
 379 000a 002B     		cmp	r3, #0
 380 000c 01DA     		bge	.L19
 381              		.loc 4 93 16
 382 000e 0023     		movs	r3, #0
 383 0010 06E0     		b	.L20
 384              	.L19:
 385              		.loc 4 95 8
 386 0012 7B68     		ldr	r3, [r7, #4]
 387 0014 7F2B     		cmp	r3, #127
 388 0016 01DD     		ble	.L21
 389              		.loc 4 96 16
 390 0018 7F23     		movs	r3, #127
 391 001a 01E0     		b	.L20
 392              	.L21:
 393              		.loc 4 98 12
 394 001c 7B68     		ldr	r3, [r7, #4]
 395 001e DBB2     		uxtb	r3, r3
 396              	.L20:
 397              		.loc 4 99 1
 398 0020 1846     		mov	r0, r3
 399 0022 0C37     		adds	r7, r7, #12
 400              		.cfi_def_cfa_offset 4
 401 0024 BD46     		mov	sp, r7
 402              		.cfi_def_cfa_register 13
 403              		@ sp needed
 404 0026 80BC     		pop	{r7}
 405              		.cfi_restore 7
 406              		.cfi_def_cfa_offset 0
 407 0028 7047     		bx	lr
 408              		.cfi_endproc
 409              	.LFE433:
 410              		.size	clamp_uint8, .-clamp_uint8
 411              		.section	.text.hall_state_init,"ax",%progbits
 412              		.align	1
 413              		.syntax unified
 414              		.thumb
 415              		.thumb_func
 416              		.type	hall_state_init, %function
 417              	hall_state_init:
 418              	.LFB434:
 419              		.loc 4 101 35
 420              		.cfi_startproc
 421              		@ args = 0, pretend = 0, frame = 8
 422              		@ frame_needed = 1, uses_anonymous_args = 0
 423 0000 80B5     		push	{r7, lr}
 424              		.cfi_def_cfa_offset 8
 425              		.cfi_offset 7, -8
 426              		.cfi_offset 14, -4
 427 0002 84B0     		sub	sp, sp, #16
 428              		.cfi_def_cfa_offset 24
 429 0004 02AF     		add	r7, sp, #8
ARM GAS  C:\Users\DEVELO~1\AppData\Local\Temp\cc8YYP3e.s 			page 9


 430              		.cfi_def_cfa 7, 16
 431              		.loc 4 102 5
 432 0006 4FF4C072 		mov	r2, #384
 433 000a 0021     		movs	r1, #0
 434 000c 3248     		ldr	r0, .L25
 435 000e FFF7FEFF 		bl	memset
 436              		.loc 4 103 5
 437 0012 4FF42072 		mov	r2, #640
 438 0016 0021     		movs	r1, #0
 439 0018 3048     		ldr	r0, .L25+4
 440 001a FFF7FEFF 		bl	memset
 441              		.loc 4 104 5
 442 001e 4022     		movs	r2, #64
 443 0020 0021     		movs	r1, #0
 444 0022 2F48     		ldr	r0, .L25+8
 445 0024 FFF7FEFF 		bl	memset
 446              		.loc 4 105 5
 447 0028 1022     		movs	r2, #16
 448 002a 0021     		movs	r1, #0
 449 002c 2D48     		ldr	r0, .L25+12
 450 002e FFF7FEFF 		bl	memset
 451              	.LBB5:
 452              		.loc 4 107 18
 453 0032 0023     		movs	r3, #0
 454 0034 FB71     		strb	r3, [r7, #7]
 455              		.loc 4 107 5
 456 0036 36E0     		b	.L23
 457              	.L24:
 458              		.loc 4 108 22 discriminator 3
 459 0038 FA79     		ldrb	r2, [r7, #7]	@ zero_extendqisi2
 460              		.loc 4 108 27 discriminator 3
 461 003a 2749     		ldr	r1, .L25
 462 003c 1346     		mov	r3, r2
 463 003e 5B00     		lsls	r3, r3, #1
 464 0040 1344     		add	r3, r3, r2
 465 0042 DB00     		lsls	r3, r3, #3
 466 0044 0B44     		add	r3, r3, r1
 467 0046 0433     		adds	r3, r3, #4
 468 0048 4FF6FF72 		movw	r2, #65535
 469 004c 1A80     		strh	r2, [r3]	@ movhi
 470              		.loc 4 109 22 discriminator 3
 471 004e FA79     		ldrb	r2, [r7, #7]	@ zero_extendqisi2
 472              		.loc 4 109 27 discriminator 3
 473 0050 2149     		ldr	r1, .L25
 474 0052 1346     		mov	r3, r2
 475 0054 5B00     		lsls	r3, r3, #1
 476 0056 1344     		add	r3, r3, r2
 477 0058 DB00     		lsls	r3, r3, #3
 478 005a 0B44     		add	r3, r3, r1
 479 005c 0633     		adds	r3, r3, #6
 480 005e 0022     		movs	r2, #0
 481 0060 1A80     		strh	r2, [r3]	@ movhi
 482              		.loc 4 110 22 discriminator 3
 483 0062 FA79     		ldrb	r2, [r7, #7]	@ zero_extendqisi2
 484              		.loc 4 110 33 discriminator 3
 485 0064 1C49     		ldr	r1, .L25
 486 0066 1346     		mov	r3, r2
ARM GAS  C:\Users\DEVELO~1\AppData\Local\Temp\cc8YYP3e.s 			page 10


 487 0068 5B00     		lsls	r3, r3, #1
 488 006a 1344     		add	r3, r3, r2
 489 006c DB00     		lsls	r3, r3, #3
 490 006e 0B44     		add	r3, r3, r1
 491 0070 0833     		adds	r3, r3, #8
 492 0072 0022     		movs	r2, #0
 493 0074 1A80     		strh	r2, [r3]	@ movhi
 494              		.loc 4 111 22 discriminator 3
 495 0076 FA79     		ldrb	r2, [r7, #7]	@ zero_extendqisi2
 496              		.loc 4 111 34 discriminator 3
 497 0078 1749     		ldr	r1, .L25
 498 007a 1346     		mov	r3, r2
 499 007c 5B00     		lsls	r3, r3, #1
 500 007e 1344     		add	r3, r3, r2
 501 0080 DB00     		lsls	r3, r3, #3
 502 0082 0B44     		add	r3, r3, r1
 503 0084 0A33     		adds	r3, r3, #10
 504 0086 0022     		movs	r2, #0
 505 0088 1A80     		strh	r2, [r3]	@ movhi
 506              		.loc 4 112 22 discriminator 3
 507 008a FA79     		ldrb	r2, [r7, #7]	@ zero_extendqisi2
 508              		.loc 4 112 32 discriminator 3
 509 008c 1249     		ldr	r1, .L25
 510 008e 1346     		mov	r3, r2
 511 0090 5B00     		lsls	r3, r3, #1
 512 0092 1344     		add	r3, r3, r2
 513 0094 DB00     		lsls	r3, r3, #3
 514 0096 0B44     		add	r3, r3, r1
 515 0098 1033     		adds	r3, r3, #16
 516 009a 4FF6FF72 		movw	r2, #65535
 517 009e 1A80     		strh	r2, [r3]	@ movhi
 518              		.loc 4 107 53 discriminator 3
 519 00a0 FB79     		ldrb	r3, [r7, #7]
 520 00a2 0133     		adds	r3, r3, #1
 521 00a4 FB71     		strb	r3, [r7, #7]
 522              	.L23:
 523              		.loc 4 107 27 discriminator 1
 524 00a6 FB79     		ldrb	r3, [r7, #7]	@ zero_extendqisi2
 525 00a8 0F2B     		cmp	r3, #15
 526 00aa C5D9     		bls	.L24
 527              	.LBE5:
 528              		.loc 4 115 5
 529 00ac 0823     		movs	r3, #8
 530 00ae 0093     		str	r3, [sp]
 531 00b0 1023     		movs	r3, #16
 532 00b2 0022     		movs	r2, #0
 533 00b4 1021     		movs	r1, #16
 534 00b6 0948     		ldr	r0, .L25+4
 535 00b8 FFF7FEFF 		bl	brick_asc_array_set_factors
 536              		.loc 4 116 5
 537 00bc 1022     		movs	r2, #16
 538 00be 0C21     		movs	r1, #12
 539 00c0 0948     		ldr	r0, .L25+16
 540 00c2 FFF7FEFF 		bl	brick_cal_pot_init
 541              		.loc 4 117 5
 542 00c6 1022     		movs	r2, #16
 543 00c8 0021     		movs	r1, #0
ARM GAS  C:\Users\DEVELO~1\AppData\Local\Temp\cc8YYP3e.s 			page 11


 544 00ca 0748     		ldr	r0, .L25+16
 545 00cc FFF7FEFF 		bl	brick_cal_pot_enable_range
 546              		.loc 4 118 1
 547 00d0 00BF     		nop
 548 00d2 0837     		adds	r7, r7, #8
 549              		.cfi_def_cfa_offset 8
 550 00d4 BD46     		mov	sp, r7
 551              		.cfi_def_cfa_register 13
 552              		@ sp needed
 553 00d6 80BD     		pop	{r7, pc}
 554              	.L26:
 555              		.align	2
 556              	.L25:
 557 00d8 00000000 		.word	hall_state
 558 00dc 00000000 		.word	asc_state
 559 00e0 00000000 		.word	velocity_start_time
 560 00e4 00000000 		.word	velocity_armed
 561 00e8 00000000 		.word	cal_state
 562              		.cfi_endproc
 563              	.LFE434:
 564              		.size	hall_state_init, .-hall_state_init
 565              		.section	.text.normalize_with_deadzone,"ax",%progbits
 566              		.align	1
 567              		.syntax unified
 568              		.thumb
 569              		.thumb_func
 570              		.type	normalize_with_deadzone, %function
 571              	normalize_with_deadzone:
 572              	.LFB435:
 573              		.loc 4 120 127
 574              		.cfi_startproc
 575              		@ args = 4, pretend = 0, frame = 40
 576              		@ frame_needed = 1, uses_anonymous_args = 0
 577 0000 90B5     		push	{r4, r7, lr}
 578              		.cfi_def_cfa_offset 12
 579              		.cfi_offset 4, -12
 580              		.cfi_offset 7, -8
 581              		.cfi_offset 14, -4
 582 0002 8BB0     		sub	sp, sp, #44
 583              		.cfi_def_cfa_offset 56
 584 0004 00AF     		add	r7, sp, #0
 585              		.cfi_def_cfa_register 7
 586 0006 0446     		mov	r4, r0
 587 0008 0846     		mov	r0, r1
 588 000a 1146     		mov	r1, r2
 589 000c 1A46     		mov	r2, r3
 590 000e 2346     		mov	r3, r4	@ movhi
 591 0010 FB80     		strh	r3, [r7, #6]	@ movhi
 592 0012 0346     		mov	r3, r0	@ movhi
 593 0014 BB80     		strh	r3, [r7, #4]	@ movhi
 594 0016 0B46     		mov	r3, r1	@ movhi
 595 0018 7B80     		strh	r3, [r7, #2]	@ movhi
 596 001a 1346     		mov	r3, r2	@ movhi
 597 001c 3B80     		strh	r3, [r7]	@ movhi
 598              		.loc 4 121 8
 599 001e 3A88     		ldrh	r2, [r7]
 600 0020 BB88     		ldrh	r3, [r7, #4]
ARM GAS  C:\Users\DEVELO~1\AppData\Local\Temp\cc8YYP3e.s 			page 12


 601 0022 9A42     		cmp	r2, r3
 602 0024 01D2     		bcs	.L28
 603              		.loc 4 122 20
 604 0026 BB88     		ldrh	r3, [r7, #4]	@ movhi
 605 0028 3B80     		strh	r3, [r7]	@ movhi
 606              	.L28:
 607              		.loc 4 124 8
 608 002a 3A8F     		ldrh	r2, [r7, #56]
 609 002c 7B88     		ldrh	r3, [r7, #2]
 610 002e 9A42     		cmp	r2, r3
 611 0030 01D9     		bls	.L29
 612              		.loc 4 125 21
 613 0032 7B88     		ldrh	r3, [r7, #2]	@ movhi
 614 0034 3B87     		strh	r3, [r7, #56]	@ movhi
 615              	.L29:
 616              		.loc 4 127 8
 617 0036 3A88     		ldrh	r2, [r7]
 618 0038 3B8F     		ldrh	r3, [r7, #56]
 619 003a 9A42     		cmp	r2, r3
 620 003c 01D9     		bls	.L30
 621              		.loc 4 128 20
 622 003e 3B8F     		ldrh	r3, [r7, #56]	@ movhi
 623 0040 3B80     		strh	r3, [r7]	@ movhi
 624              	.L30:
 625              		.loc 4 131 21
 626 0042 7A88     		ldrh	r2, [r7, #2]
 627 0044 BB88     		ldrh	r3, [r7, #4]
 628              		.loc 4 131 13
 629 0046 D31A     		subs	r3, r2, r3
 630 0048 7B62     		str	r3, [r7, #36]
 631              		.loc 4 132 8
 632 004a 7B6A     		ldr	r3, [r7, #36]
 633 004c 002B     		cmp	r3, #0
 634 004e 01DC     		bgt	.L31
 635              		.loc 4 133 15
 636 0050 0123     		movs	r3, #1
 637 0052 7B62     		str	r3, [r7, #36]
 638              	.L31:
 639              		.loc 4 136 21
 640 0054 7A88     		ldrh	r2, [r7, #2]
 641              		.loc 4 136 36
 642 0056 FB88     		ldrh	r3, [r7, #6]
 643              		.loc 4 136 34
 644 0058 D21A     		subs	r2, r2, r3
 645              		.loc 4 136 52
 646 005a 1346     		mov	r3, r2
 647 005c DB01     		lsls	r3, r3, #7
 648 005e 9A1A     		subs	r2, r3, r2
 649              		.loc 4 136 13
 650 0060 7B6A     		ldr	r3, [r7, #36]
 651 0062 92FBF3F3 		sdiv	r3, r2, r3
 652 0066 3B62     		str	r3, [r7, #32]
 653              		.loc 4 137 8
 654 0068 FA88     		ldrh	r2, [r7, #6]
 655 006a 3B88     		ldrh	r3, [r7]
 656 006c 9A42     		cmp	r2, r3
 657 006e 03D9     		bls	.L32
ARM GAS  C:\Users\DEVELO~1\AppData\Local\Temp\cc8YYP3e.s 			page 13


 658              		.loc 4 137 29 discriminator 1
 659 0070 3A88     		ldrh	r2, [r7]
 660 0072 3B8F     		ldrh	r3, [r7, #56]
 661 0074 9A42     		cmp	r2, r3
 662 0076 04D1     		bne	.L33
 663              	.L32:
 664              		.loc 4 138 16
 665 0078 386A     		ldr	r0, [r7, #32]
 666 007a FFF7FEFF 		bl	clamp_uint8
 667 007e 0346     		mov	r3, r0
 668 0080 39E0     		b	.L34
 669              	.L33:
 670              		.loc 4 140 8
 671 0082 FA88     		ldrh	r2, [r7, #6]
 672 0084 3B8F     		ldrh	r3, [r7, #56]
 673 0086 9A42     		cmp	r2, r3
 674 0088 04D3     		bcc	.L35
 675              		.loc 4 141 16
 676 008a 386A     		ldr	r0, [r7, #32]
 677 008c FFF7FEFF 		bl	clamp_uint8
 678 0090 0346     		mov	r3, r0
 679 0092 30E0     		b	.L34
 680              	.L35:
 681              		.loc 4 144 22
 682 0094 7A88     		ldrh	r2, [r7, #2]
 683              		.loc 4 144 37
 684 0096 3B88     		ldrh	r3, [r7]
 685              		.loc 4 144 35
 686 0098 D21A     		subs	r2, r2, r3
 687              		.loc 4 144 58
 688 009a 1346     		mov	r3, r2
 689 009c DB01     		lsls	r3, r3, #7
 690 009e 9A1A     		subs	r2, r3, r2
 691              		.loc 4 144 13
 692 00a0 7B6A     		ldr	r3, [r7, #36]
 693 00a2 92FBF3F3 		sdiv	r3, r2, r3
 694 00a6 FB61     		str	r3, [r7, #28]
 695              		.loc 4 145 23
 696 00a8 7A88     		ldrh	r2, [r7, #2]
 697              		.loc 4 145 38
 698 00aa 3B8F     		ldrh	r3, [r7, #56]
 699              		.loc 4 145 36
 700 00ac D21A     		subs	r2, r2, r3
 701              		.loc 4 145 60
 702 00ae 1346     		mov	r3, r2
 703 00b0 DB01     		lsls	r3, r3, #7
 704 00b2 9A1A     		subs	r2, r3, r2
 705              		.loc 4 145 13
 706 00b4 7B6A     		ldr	r3, [r7, #36]
 707 00b6 92FBF3F3 		sdiv	r3, r2, r3
 708 00ba BB61     		str	r3, [r7, #24]
 709              		.loc 4 146 20
 710 00bc 3A8F     		ldrh	r2, [r7, #56]
 711 00be 3B88     		ldrh	r3, [r7]
 712              		.loc 4 146 13
 713 00c0 D31A     		subs	r3, r2, r3
 714 00c2 7B61     		str	r3, [r7, #20]
ARM GAS  C:\Users\DEVELO~1\AppData\Local\Temp\cc8YYP3e.s 			page 14


 715              		.loc 4 147 24
 716 00c4 FA88     		ldrh	r2, [r7, #6]
 717 00c6 3B88     		ldrh	r3, [r7]
 718              		.loc 4 147 13
 719 00c8 D31A     		subs	r3, r2, r3
 720 00ca 3B61     		str	r3, [r7, #16]
 721              		.loc 4 148 38
 722 00cc BA69     		ldr	r2, [r7, #24]
 723 00ce FB69     		ldr	r3, [r7, #28]
 724 00d0 D31A     		subs	r3, r2, r3
 725              		.loc 4 148 47
 726 00d2 3A69     		ldr	r2, [r7, #16]
 727 00d4 03FB02F2 		mul	r2, r3, r2
 728              		.loc 4 148 75
 729 00d8 7B69     		ldr	r3, [r7, #20]
 730 00da 002B     		cmp	r3, #0
 731 00dc 01D0     		beq	.L36
 732              		.loc 4 148 75 is_stmt 0 discriminator 1
 733 00de 7B69     		ldr	r3, [r7, #20]
 734 00e0 00E0     		b	.L37
 735              	.L36:
 736              		.loc 4 148 75 discriminator 2
 737 00e2 0123     		movs	r3, #1
 738              	.L37:
 739              		.loc 4 148 58 is_stmt 1 discriminator 4
 740 00e4 92FBF3F3 		sdiv	r3, r2, r3
 741              		.loc 4 148 13 discriminator 4
 742 00e8 FA69     		ldr	r2, [r7, #28]
 743 00ea 1344     		add	r3, r3, r2
 744 00ec FB60     		str	r3, [r7, #12]
 745              		.loc 4 149 12 discriminator 4
 746 00ee F868     		ldr	r0, [r7, #12]
 747 00f0 FFF7FEFF 		bl	clamp_uint8
 748 00f4 0346     		mov	r3, r0
 749              	.L34:
 750              		.loc 4 150 1
 751 00f6 1846     		mov	r0, r3
 752 00f8 2C37     		adds	r7, r7, #44
 753              		.cfi_def_cfa_offset 12
 754 00fa BD46     		mov	sp, r7
 755              		.cfi_def_cfa_register 13
 756              		@ sp needed
 757 00fc 90BD     		pop	{r4, r7, pc}
 758              		.cfi_endproc
 759              	.LFE435:
 760              		.size	normalize_with_deadzone, .-normalize_with_deadzone
 761              		.section	.text.compute_detent_width,"ax",%progbits
 762              		.align	1
 763              		.syntax unified
 764              		.thumb
 765              		.thumb_func
 766              		.type	compute_detent_width, %function
 767              	compute_detent_width:
 768              	.LFB436:
 769              		.loc 4 152 54
 770              		.cfi_startproc
 771              		@ args = 0, pretend = 0, frame = 16
ARM GAS  C:\Users\DEVELO~1\AppData\Local\Temp\cc8YYP3e.s 			page 15


 772              		@ frame_needed = 1, uses_anonymous_args = 0
 773              		@ link register save eliminated.
 774 0000 80B4     		push	{r7}
 775              		.cfi_def_cfa_offset 4
 776              		.cfi_offset 7, -4
 777 0002 85B0     		sub	sp, sp, #20
 778              		.cfi_def_cfa_offset 24
 779 0004 00AF     		add	r7, sp, #0
 780              		.cfi_def_cfa_register 7
 781 0006 0346     		mov	r3, r0
 782 0008 FB80     		strh	r3, [r7, #6]	@ movhi
 783              		.loc 4 153 14
 784 000a FB88     		ldrh	r3, [r7, #6]
 785 000c 074A     		ldr	r2, .L41
 786 000e A2FB0323 		umull	r2, r3, r2, r3
 787 0012 1B09     		lsrs	r3, r3, #4
 788 0014 FB81     		strh	r3, [r7, #14]	@ movhi
 789              		.loc 4 154 8
 790 0016 FB89     		ldrh	r3, [r7, #14]
 791 0018 002B     		cmp	r3, #0
 792 001a 01D1     		bne	.L39
 793              		.loc 4 155 15
 794 001c 0123     		movs	r3, #1
 795 001e FB81     		strh	r3, [r7, #14]	@ movhi
 796              	.L39:
 797              		.loc 4 157 12
 798 0020 FB89     		ldrh	r3, [r7, #14]
 799              		.loc 4 158 1
 800 0022 1846     		mov	r0, r3
 801 0024 1437     		adds	r7, r7, #20
 802              		.cfi_def_cfa_offset 4
 803 0026 BD46     		mov	sp, r7
 804              		.cfi_def_cfa_register 13
 805              		@ sp needed
 806 0028 80BC     		pop	{r7}
 807              		.cfi_restore 7
 808              		.cfi_def_cfa_offset 0
 809 002a 7047     		bx	lr
 810              	.L42:
 811              		.align	2
 812              	.L41:
 813 002c CDCCCCCC 		.word	-858993459
 814              		.cfi_endproc
 815              	.LFE436:
 816              		.size	compute_detent_width, .-compute_detent_width
 817              		.global	__aeabi_uldivmod
 818              		.section	.text.compute_velocity,"ax",%progbits
 819              		.align	1
 820              		.syntax unified
 821              		.thumb
 822              		.thumb_func
 823              		.type	compute_velocity, %function
 824              	compute_velocity:
 825              	.LFB437:
 826              		.loc 4 160 120
 827              		.cfi_startproc
 828              		@ args = 4, pretend = 0, frame = 48
ARM GAS  C:\Users\DEVELO~1\AppData\Local\Temp\cc8YYP3e.s 			page 16


 829              		@ frame_needed = 1, uses_anonymous_args = 0
 830 0000 2DE9F04F 		push	{r4, r5, r6, r7, r8, r9, r10, fp, lr}
 831              		.cfi_def_cfa_offset 36
 832              		.cfi_offset 4, -36
 833              		.cfi_offset 5, -32
 834              		.cfi_offset 6, -28
 835              		.cfi_offset 7, -24
 836              		.cfi_offset 8, -20
 837              		.cfi_offset 9, -16
 838              		.cfi_offset 10, -12
 839              		.cfi_offset 11, -8
 840              		.cfi_offset 14, -4
 841 0004 8DB0     		sub	sp, sp, #52
 842              		.cfi_def_cfa_offset 88
 843 0006 00AF     		add	r7, sp, #0
 844              		.cfi_def_cfa_register 7
 845 0008 1646     		mov	r6, r2
 846 000a 1A46     		mov	r2, r3
 847 000c 0346     		mov	r3, r0
 848 000e FB77     		strb	r3, [r7, #31]
 849 0010 0B46     		mov	r3, r1	@ movhi
 850 0012 BB83     		strh	r3, [r7, #28]	@ movhi
 851 0014 3346     		mov	r3, r6	@ movhi
 852 0016 7B83     		strh	r3, [r7, #26]	@ movhi
 853 0018 1346     		mov	r3, r2	@ movhi
 854 001a 3B83     		strh	r3, [r7, #24]	@ movhi
 855              		.loc 4 161 8
 856 001c FB7F     		ldrb	r3, [r7, #31]	@ zero_extendqisi2
 857 001e 0F2B     		cmp	r3, #15
 858 0020 01D9     		bls	.L44
 859              		.loc 4 162 16
 860 0022 0023     		movs	r3, #0
 861 0024 C9E0     		b	.L45
 862              	.L44:
 863              		.loc 4 165 24
 864 0026 FB7F     		ldrb	r3, [r7, #31]	@ zero_extendqisi2
 865 0028 664A     		ldr	r2, .L52
 866 002a D35C     		ldrb	r3, [r2, r3]	@ zero_extendqisi2
 867              		.loc 4 165 9
 868 002c 83F00103 		eor	r3, r3, #1
 869 0030 DBB2     		uxtb	r3, r3
 870              		.loc 4 165 8
 871 0032 002B     		cmp	r3, #0
 872 0034 22D0     		beq	.L46
 873              		.loc 4 166 30
 874 0036 FA7F     		ldrb	r2, [r7, #31]	@ zero_extendqisi2
 875 0038 6349     		ldr	r1, .L52+4
 876 003a 1346     		mov	r3, r2
 877 003c 5B00     		lsls	r3, r3, #1
 878 003e 1344     		add	r3, r3, r2
 879 0040 DB00     		lsls	r3, r3, #3
 880 0042 0B44     		add	r3, r3, r1
 881 0044 1033     		adds	r3, r3, #16
 882 0046 1B88     		ldrh	r3, [r3]
 883              		.loc 4 166 12
 884 0048 7A8B     		ldrh	r2, [r7, #26]
 885 004a 9A42     		cmp	r2, r3
ARM GAS  C:\Users\DEVELO~1\AppData\Local\Temp\cc8YYP3e.s 			page 17


 886 004c 0CD2     		bcs	.L47
 887              		.loc 4 166 51 discriminator 1
 888 004e BA8B     		ldrh	r2, [r7, #28]
 889 0050 7B8B     		ldrh	r3, [r7, #26]
 890 0052 9A42     		cmp	r2, r3
 891 0054 08D8     		bhi	.L47
 892              		.loc 4 167 32
 893 0056 FB7F     		ldrb	r3, [r7, #31]	@ zero_extendqisi2
 894              		.loc 4 167 40
 895 0058 5C49     		ldr	r1, .L52+8
 896 005a BA6D     		ldr	r2, [r7, #88]
 897 005c 41F82320 		str	r2, [r1, r3, lsl #2]
 898              		.loc 4 168 27
 899 0060 FB7F     		ldrb	r3, [r7, #31]	@ zero_extendqisi2
 900              		.loc 4 168 35
 901 0062 584A     		ldr	r2, .L52
 902 0064 0121     		movs	r1, #1
 903 0066 D154     		strb	r1, [r2, r3]
 904              	.L47:
 905              		.loc 4 170 33
 906 0068 FA7F     		ldrb	r2, [r7, #31]	@ zero_extendqisi2
 907 006a 5749     		ldr	r1, .L52+4
 908 006c 1346     		mov	r3, r2
 909 006e 5B00     		lsls	r3, r3, #1
 910 0070 1344     		add	r3, r3, r2
 911 0072 DB00     		lsls	r3, r3, #3
 912 0074 0B44     		add	r3, r3, r1
 913 0076 1333     		adds	r3, r3, #19
 914 0078 1B78     		ldrb	r3, [r3]	@ zero_extendqisi2
 915 007a 9EE0     		b	.L45
 916              	.L46:
 917              		.loc 4 173 8
 918 007c BA8B     		ldrh	r2, [r7, #28]
 919 007e 7B8B     		ldrh	r3, [r7, #26]
 920 0080 9A42     		cmp	r2, r3
 921 0082 0DD9     		bls	.L48
 922              		.loc 4 174 23
 923 0084 FB7F     		ldrb	r3, [r7, #31]	@ zero_extendqisi2
 924              		.loc 4 174 31
 925 0086 4F4A     		ldr	r2, .L52
 926 0088 0021     		movs	r1, #0
 927 008a D154     		strb	r1, [r2, r3]
 928              		.loc 4 175 33
 929 008c FA7F     		ldrb	r2, [r7, #31]	@ zero_extendqisi2
 930 008e 4E49     		ldr	r1, .L52+4
 931 0090 1346     		mov	r3, r2
 932 0092 5B00     		lsls	r3, r3, #1
 933 0094 1344     		add	r3, r3, r2
 934 0096 DB00     		lsls	r3, r3, #3
 935 0098 0B44     		add	r3, r3, r1
 936 009a 1333     		adds	r3, r3, #19
 937 009c 1B78     		ldrb	r3, [r3]	@ zero_extendqisi2
 938 009e 8CE0     		b	.L45
 939              	.L48:
 940              		.loc 4 178 8
 941 00a0 BA8B     		ldrh	r2, [r7, #28]
 942 00a2 3B8B     		ldrh	r3, [r7, #24]
ARM GAS  C:\Users\DEVELO~1\AppData\Local\Temp\cc8YYP3e.s 			page 18


 943 00a4 9A42     		cmp	r2, r3
 944 00a6 7FD8     		bhi	.L49
 945              	.LBB6:
 946              		.loc 4 179 26
 947 00a8 FB7F     		ldrb	r3, [r7, #31]	@ zero_extendqisi2
 948 00aa 484A     		ldr	r2, .L52+8
 949 00ac 52F82330 		ldr	r3, [r2, r3, lsl #2]
 950 00b0 1846     		mov	r0, r3
 951 00b2 FFF7FEFF 		bl	chVTTimeElapsedSinceX
 952 00b6 0346     		mov	r3, r0
 953 00b8 0022     		movs	r2, #0
 954 00ba 9A46     		mov	r10, r3
 955 00bc 9346     		mov	fp, r2
 956 00be 5246     		mov	r2, r10
 957 00c0 5B46     		mov	r3, fp
 958 00c2 4FF00000 		mov	r0, #0
 959 00c6 4FF00001 		mov	r1, #0
 960 00ca 5901     		lsls	r1, r3, #5
 961 00cc 41EAD261 		orr	r1, r1, r2, lsr #27
 962 00d0 5001     		lsls	r0, r2, #5
 963 00d2 0246     		mov	r2, r0
 964 00d4 0B46     		mov	r3, r1
 965 00d6 B2EB0A04 		subs	r4, r2, r10
 966 00da 63EB0B05 		sbc	r5, r3, fp
 967 00de 4FF00002 		mov	r2, #0
 968 00e2 4FF00003 		mov	r3, #0
 969 00e6 6B02     		lsls	r3, r5, #9
 970 00e8 43EAD453 		orr	r3, r3, r4, lsr #23
 971 00ec 6202     		lsls	r2, r4, #9
 972 00ee 1446     		mov	r4, r2
 973 00f0 1D46     		mov	r5, r3
 974 00f2 14EB0A08 		adds	r8, r4, r10
 975 00f6 45EB0B09 		adc	r9, r5, fp
 976 00fa 4FF00002 		mov	r2, #0
 977 00fe 4FF00003 		mov	r3, #0
 978 0102 4FEA8913 		lsl	r3, r9, #6
 979 0106 43EA9863 		orr	r3, r3, r8, lsr #26
 980 010a 4FEA8812 		lsl	r2, r8, #6
 981 010e B2EB0801 		subs	r1, r2, r8
 982 0112 3960     		str	r1, [r7]
 983 0114 63EB0903 		sbc	r3, r3, r9
 984 0118 7B60     		str	r3, [r7, #4]
 985 011a D7E90034 		ldrd	r3, [r7]
 986 011e 1A46     		mov	r2, r3
 987 0120 12EB0A02 		adds	r2, r2, r10
 988 0124 3A61     		str	r2, [r7, #16]
 989 0126 2346     		mov	r3, r4
 990 0128 43EB0B03 		adc	r3, r3, fp
 991 012c 7B61     		str	r3, [r7, #20]
 992 012e 42F20F73 		movw	r3, #9999
 993 0132 D7E90401 		ldrd	r0, [r7, #16]
 994 0136 0246     		mov	r2, r0
 995 0138 D318     		adds	r3, r2, r3
 996 013a BB60     		str	r3, [r7, #8]
 997 013c 0B46     		mov	r3, r1
 998 013e 43F10003 		adc	r3, r3, #0
 999 0142 FB60     		str	r3, [r7, #12]
ARM GAS  C:\Users\DEVELO~1\AppData\Local\Temp\cc8YYP3e.s 			page 19


 1000 0144 42F21072 		movw	r2, #10000
 1001 0148 4FF00003 		mov	r3, #0
 1002 014c D7E90201 		ldrd	r0, [r7, #8]
 1003 0150 FFF7FEFF 		bl	__aeabi_uldivmod
 1004 0154 0246     		mov	r2, r0
 1005 0156 0B46     		mov	r3, r1
 1006              		.loc 4 179 18
 1007 0158 1346     		mov	r3, r2
 1008 015a FB62     		str	r3, [r7, #44]
 1009              		.loc 4 180 12
 1010 015c FB6A     		ldr	r3, [r7, #44]
 1011 015e B3F5FA7F 		cmp	r3, #500
 1012 0162 02D2     		bcs	.L50
 1013              		.loc 4 181 19
 1014 0164 4FF4FA73 		mov	r3, #500
 1015 0168 FB62     		str	r3, [r7, #44]
 1016              	.L50:
 1017              		.loc 4 183 12
 1018 016a FB6A     		ldr	r3, [r7, #44]
 1019 016c 47F23052 		movw	r2, #30000
 1020 0170 9342     		cmp	r3, r2
 1021 0172 02D9     		bls	.L51
 1022              		.loc 4 184 19
 1023 0174 47F23053 		movw	r3, #30000
 1024 0178 FB62     		str	r3, [r7, #44]
 1025              	.L51:
 1026              		.loc 4 186 18
 1027 017a 47F23C33 		movw	r3, #29500
 1028 017e BB62     		str	r3, [r7, #40]
 1029              		.loc 4 187 58
 1030 0180 FB6A     		ldr	r3, [r7, #44]
 1031 0182 1A46     		mov	r2, r3
 1032 0184 DB01     		lsls	r3, r3, #7
 1033 0186 D21A     		subs	r2, r2, r3
 1034 0188 114B     		ldr	r3, .L52+12
 1035 018a 1344     		add	r3, r3, r2
 1036              		.loc 4 187 18
 1037 018c BA6A     		ldr	r2, [r7, #40]
 1038 018e B3FBF2F3 		udiv	r3, r3, r2
 1039 0192 7B62     		str	r3, [r7, #36]
 1040              		.loc 4 188 23
 1041 0194 FB7F     		ldrb	r3, [r7, #31]	@ zero_extendqisi2
 1042              		.loc 4 188 31
 1043 0196 0B4A     		ldr	r2, .L52
 1044 0198 0021     		movs	r1, #0
 1045 019a D154     		strb	r1, [r2, r3]
 1046              		.loc 4 189 16
 1047 019c 7B6A     		ldr	r3, [r7, #36]
 1048 019e 1846     		mov	r0, r3
 1049 01a0 FFF7FEFF 		bl	clamp_uint8
 1050 01a4 0346     		mov	r3, r0
 1051 01a6 08E0     		b	.L45
 1052              	.L49:
 1053              	.LBE6:
 1054              		.loc 4 192 29
 1055 01a8 FA7F     		ldrb	r2, [r7, #31]	@ zero_extendqisi2
 1056 01aa 0749     		ldr	r1, .L52+4
ARM GAS  C:\Users\DEVELO~1\AppData\Local\Temp\cc8YYP3e.s 			page 20


 1057 01ac 1346     		mov	r3, r2
 1058 01ae 5B00     		lsls	r3, r3, #1
 1059 01b0 1344     		add	r3, r3, r2
 1060 01b2 DB00     		lsls	r3, r3, #3
 1061 01b4 0B44     		add	r3, r3, r1
 1062 01b6 1333     		adds	r3, r3, #19
 1063 01b8 1B78     		ldrb	r3, [r3]	@ zero_extendqisi2
 1064              	.L45:
 1065              		.loc 4 193 1
 1066 01ba 1846     		mov	r0, r3
 1067 01bc 3437     		adds	r7, r7, #52
 1068              		.cfi_def_cfa_offset 36
 1069 01be BD46     		mov	sp, r7
 1070              		.cfi_def_cfa_register 13
 1071              		@ sp needed
 1072 01c0 BDE8F08F 		pop	{r4, r5, r6, r7, r8, r9, r10, fp, pc}
 1073              	.L53:
 1074              		.align	2
 1075              	.L52:
 1076 01c4 00000000 		.word	velocity_armed
 1077 01c8 00000000 		.word	hall_state
 1078 01cc 00000000 		.word	velocity_start_time
 1079 01d0 D0223A00 		.word	3810000
 1080              		.cfi_endproc
 1081              	.LFE437:
 1082              		.size	compute_velocity, .-compute_velocity
 1083              		.section	.text.update_state,"ax",%progbits
 1084              		.align	1
 1085              		.syntax unified
 1086              		.thumb
 1087              		.thumb_func
 1088              		.type	update_state, %function
 1089              	update_state:
 1090              	.LFB438:
 1091              		.loc 4 195 88
 1092              		.cfi_startproc
 1093              		@ args = 0, pretend = 0, frame = 72
 1094              		@ frame_needed = 1, uses_anonymous_args = 0
 1095 0000 2DE9F04F 		push	{r4, r5, r6, r7, r8, r9, r10, fp, lr}
 1096              		.cfi_def_cfa_offset 36
 1097              		.cfi_offset 4, -36
 1098              		.cfi_offset 5, -32
 1099              		.cfi_offset 6, -28
 1100              		.cfi_offset 7, -24
 1101              		.cfi_offset 8, -20
 1102              		.cfi_offset 9, -16
 1103              		.cfi_offset 10, -12
 1104              		.cfi_offset 11, -8
 1105              		.cfi_offset 14, -4
 1106 0004 95B0     		sub	sp, sp, #84
 1107              		.cfi_def_cfa_offset 120
 1108 0006 02AF     		add	r7, sp, #8
 1109              		.cfi_def_cfa 7, 112
 1110 0008 0346     		mov	r3, r0
 1111 000a FB77     		strb	r3, [r7, #31]
 1112 000c 0B46     		mov	r3, r1	@ movhi
 1113 000e BB83     		strh	r3, [r7, #28]	@ movhi
ARM GAS  C:\Users\DEVELO~1\AppData\Local\Temp\cc8YYP3e.s 			page 21


 1114 0010 1346     		mov	r3, r2	@ movhi
 1115 0012 7B83     		strh	r3, [r7, #26]	@ movhi
 1116              		.loc 4 196 8
 1117 0014 FB7F     		ldrb	r3, [r7, #31]	@ zero_extendqisi2
 1118 0016 0F2B     		cmp	r3, #15
 1119 0018 00F27881 		bhi	.L72
 1120              		.loc 4 200 35
 1121 001c FA7F     		ldrb	r2, [r7, #31]	@ zero_extendqisi2
 1122              		.loc 4 200 19
 1123 001e 1346     		mov	r3, r2
 1124 0020 5B00     		lsls	r3, r3, #1
 1125 0022 1344     		add	r3, r3, r2
 1126 0024 DB00     		lsls	r3, r3, #3
 1127 0026 BA4A     		ldr	r2, .L74
 1128 0028 1344     		add	r3, r3, r2
 1129 002a 7B63     		str	r3, [r7, #52]
 1130              		.loc 4 201 14
 1131 002c 0023     		movs	r3, #0
 1132 002e 3B84     		strh	r3, [r7, #32]	@ movhi
 1133              		.loc 4 203 9
 1134 0030 07F12003 		add	r3, r7, #32
 1135 0034 7A8B     		ldrh	r2, [r7, #26]
 1136 0036 F97F     		ldrb	r1, [r7, #31]	@ zero_extendqisi2
 1137 0038 B648     		ldr	r0, .L74+4
 1138 003a FFF7FEFF 		bl	brick_cal_pot_next
 1139 003e 0346     		mov	r3, r0
 1140              		.loc 4 203 8
 1141 0040 002B     		cmp	r3, #0
 1142 0042 40F06B81 		bne	.L73
 1143              		.loc 4 207 14
 1144 0046 7B6B     		ldr	r3, [r7, #52]
 1145 0048 9B88     		ldrh	r3, [r3, #4]	@ movhi
 1146 004a A7F84630 		strh	r3, [r7, #70]	@ movhi
 1147              		.loc 4 208 14
 1148 004e 7B6B     		ldr	r3, [r7, #52]
 1149 0050 DB88     		ldrh	r3, [r3, #6]	@ movhi
 1150 0052 A7F84430 		strh	r3, [r7, #68]	@ movhi
 1151              		.loc 4 210 22
 1152 0056 FB7F     		ldrb	r3, [r7, #31]	@ zero_extendqisi2
 1153 0058 AE4A     		ldr	r2, .L74+4
 1154 005a 5B00     		lsls	r3, r3, #1
 1155 005c 1344     		add	r3, r3, r2
 1156 005e 9B88     		ldrh	r3, [r3, #4]
 1157              		.loc 4 210 8
 1158 0060 B7F84620 		ldrh	r2, [r7, #70]
 1159 0064 9A42     		cmp	r2, r3
 1160 0066 06D9     		bls	.L58
 1161              		.loc 4 211 32
 1162 0068 FB7F     		ldrb	r3, [r7, #31]	@ zero_extendqisi2
 1163              		.loc 4 211 17
 1164 006a AA4A     		ldr	r2, .L74+4
 1165 006c 5B00     		lsls	r3, r3, #1
 1166 006e 1344     		add	r3, r3, r2
 1167 0070 9B88     		ldrh	r3, [r3, #4]	@ movhi
 1168 0072 A7F84630 		strh	r3, [r7, #70]	@ movhi
 1169              	.L58:
 1170              		.loc 4 213 22
ARM GAS  C:\Users\DEVELO~1\AppData\Local\Temp\cc8YYP3e.s 			page 22


 1171 0076 FB7F     		ldrb	r3, [r7, #31]	@ zero_extendqisi2
 1172 0078 A64A     		ldr	r2, .L74+4
 1173 007a 1033     		adds	r3, r3, #16
 1174 007c 5B00     		lsls	r3, r3, #1
 1175 007e 1344     		add	r3, r3, r2
 1176 0080 9B88     		ldrh	r3, [r3, #4]
 1177              		.loc 4 213 8
 1178 0082 B7F84420 		ldrh	r2, [r7, #68]
 1179 0086 9A42     		cmp	r2, r3
 1180 0088 07D2     		bcs	.L59
 1181              		.loc 4 214 32
 1182 008a FB7F     		ldrb	r3, [r7, #31]	@ zero_extendqisi2
 1183              		.loc 4 214 17
 1184 008c A14A     		ldr	r2, .L74+4
 1185 008e 1033     		adds	r3, r3, #16
 1186 0090 5B00     		lsls	r3, r3, #1
 1187 0092 1344     		add	r3, r3, r2
 1188 0094 9B88     		ldrh	r3, [r3, #4]	@ movhi
 1189 0096 A7F84430 		strh	r3, [r7, #68]	@ movhi
 1190              	.L59:
 1191              		.loc 4 216 8
 1192 009a B7F84420 		ldrh	r2, [r7, #68]
 1193 009e B7F84630 		ldrh	r3, [r7, #70]
 1194 00a2 9A42     		cmp	r2, r3
 1195 00a4 03D2     		bcs	.L60
 1196              		.loc 4 217 17
 1197 00a6 B7F84630 		ldrh	r3, [r7, #70]	@ movhi
 1198 00aa A7F84430 		strh	r3, [r7, #68]	@ movhi
 1199              	.L60:
 1200              		.loc 4 220 14
 1201 00ae B7F84420 		ldrh	r2, [r7, #68]	@ movhi
 1202 00b2 B7F84630 		ldrh	r3, [r7, #70]	@ movhi
 1203 00b6 D31A     		subs	r3, r2, r3
 1204 00b8 A7F84230 		strh	r3, [r7, #66]	@ movhi
 1205              		.loc 4 221 8
 1206 00bc B7F84230 		ldrh	r3, [r7, #66]
 1207 00c0 002B     		cmp	r3, #0
 1208 00c2 02D1     		bne	.L61
 1209              		.loc 4 222 15
 1210 00c4 0123     		movs	r3, #1
 1211 00c6 A7F84230 		strh	r3, [r7, #66]	@ movhi
 1212              	.L61:
 1213              		.loc 4 225 46
 1214 00ca B7F84230 		ldrh	r3, [r7, #66]
 1215              		.loc 4 225 62
 1216 00ce 9B00     		lsls	r3, r3, #2
 1217              		.loc 4 225 79
 1218 00d0 914A     		ldr	r2, .L74+8
 1219 00d2 A2FB0323 		umull	r2, r3, r2, r3
 1220 00d6 DB08     		lsrs	r3, r3, #3
 1221              		.loc 4 225 25
 1222 00d8 9AB2     		uxth	r2, r3
 1223              		.loc 4 225 14
 1224 00da B7F84630 		ldrh	r3, [r7, #70]	@ movhi
 1225 00de 1344     		add	r3, r3, r2
 1226 00e0 7B86     		strh	r3, [r7, #50]	@ movhi
 1227              		.loc 4 226 48
ARM GAS  C:\Users\DEVELO~1\AppData\Local\Temp\cc8YYP3e.s 			page 23


 1228 00e2 B7F84220 		ldrh	r2, [r7, #66]
 1229              		.loc 4 226 64
 1230 00e6 1346     		mov	r3, r2
 1231 00e8 5B00     		lsls	r3, r3, #1
 1232 00ea 1344     		add	r3, r3, r2
 1233 00ec 5B00     		lsls	r3, r3, #1
 1234 00ee 1A46     		mov	r2, r3
 1235              		.loc 4 226 83
 1236 00f0 894B     		ldr	r3, .L74+8
 1237 00f2 A3FB0223 		umull	r2, r3, r3, r2
 1238 00f6 DB08     		lsrs	r3, r3, #3
 1239              		.loc 4 226 27
 1240 00f8 9AB2     		uxth	r2, r3
 1241              		.loc 4 226 14
 1242 00fa B7F84630 		ldrh	r3, [r7, #70]	@ movhi
 1243 00fe 1344     		add	r3, r3, r2
 1244 0100 A7F84030 		strh	r3, [r7, #64]	@ movhi
 1245              		.loc 4 227 8
 1246 0104 B7F84020 		ldrh	r2, [r7, #64]
 1247 0108 7B8E     		ldrh	r3, [r7, #50]
 1248 010a 9A42     		cmp	r2, r3
 1249 010c 03D8     		bhi	.L62
 1250              		.loc 4 228 20
 1251 010e 7B8E     		ldrh	r3, [r7, #50]	@ movhi
 1252 0110 0133     		adds	r3, r3, #1
 1253 0112 A7F84030 		strh	r3, [r7, #64]	@ movhi
 1254              	.L62:
 1255              		.loc 4 230 8
 1256 0116 B7F84020 		ldrh	r2, [r7, #64]
 1257 011a B7F84430 		ldrh	r3, [r7, #68]
 1258 011e 9A42     		cmp	r2, r3
 1259 0120 03D9     		bls	.L63
 1260              		.loc 4 231 20
 1261 0122 B7F84430 		ldrh	r3, [r7, #68]	@ movhi
 1262 0126 A7F84030 		strh	r3, [r7, #64]	@ movhi
 1263              	.L63:
 1264              		.loc 4 233 8
 1265 012a B7F84020 		ldrh	r2, [r7, #64]
 1266 012e 7B8E     		ldrh	r3, [r7, #50]
 1267 0130 9A42     		cmp	r2, r3
 1268 0132 02D2     		bcs	.L64
 1269              		.loc 4 234 20
 1270 0134 7B8E     		ldrh	r3, [r7, #50]	@ movhi
 1271 0136 A7F84030 		strh	r3, [r7, #64]	@ movhi
 1272              	.L64:
 1273              		.loc 4 237 29
 1274 013a B7F84230 		ldrh	r3, [r7, #66]
 1275 013e 1846     		mov	r0, r3
 1276 0140 FFF7FEFF 		bl	compute_detent_width
 1277 0144 0346     		mov	r3, r0
 1278 0146 3B86     		strh	r3, [r7, #48]	@ movhi
 1279              		.loc 4 238 23
 1280 0148 B7F84230 		ldrh	r3, [r7, #66]
 1281 014c 5B08     		lsrs	r3, r3, #1
 1282 014e 9AB2     		uxth	r2, r3
 1283              		.loc 4 238 14
 1284 0150 B7F84630 		ldrh	r3, [r7, #70]	@ movhi
ARM GAS  C:\Users\DEVELO~1\AppData\Local\Temp\cc8YYP3e.s 			page 24


 1285 0154 1344     		add	r3, r3, r2
 1286 0156 FB85     		strh	r3, [r7, #46]	@ movhi
 1287              		.loc 4 239 35
 1288 0158 3B8E     		ldrh	r3, [r7, #48]
 1289 015a 5B08     		lsrs	r3, r3, #1
 1290 015c 9BB2     		uxth	r3, r3
 1291              		.loc 4 239 14
 1292 015e FA8D     		ldrh	r2, [r7, #46]
 1293 0160 9A42     		cmp	r2, r3
 1294 0162 06D9     		bls	.L65
 1295              		.loc 4 239 58 discriminator 1
 1296 0164 3B8E     		ldrh	r3, [r7, #48]
 1297 0166 5B08     		lsrs	r3, r3, #1
 1298 0168 9BB2     		uxth	r3, r3
 1299              		.loc 4 239 14 discriminator 1
 1300 016a FA8D     		ldrh	r2, [r7, #46]	@ movhi
 1301 016c D31A     		subs	r3, r2, r3
 1302 016e 9BB2     		uxth	r3, r3
 1303 0170 01E0     		b	.L66
 1304              	.L65:
 1305              		.loc 4 239 14 is_stmt 0 discriminator 2
 1306 0172 B7F84630 		ldrh	r3, [r7, #70]
 1307              	.L66:
 1308              		.loc 4 239 14 discriminator 4
 1309 0176 BB85     		strh	r3, [r7, #44]	@ movhi
 1310              		.loc 4 240 35 is_stmt 1 discriminator 4
 1311 0178 3B8E     		ldrh	r3, [r7, #48]
 1312 017a 5B08     		lsrs	r3, r3, #1
 1313 017c 9AB2     		uxth	r2, r3
 1314              		.loc 4 240 14 discriminator 4
 1315 017e FB8D     		ldrh	r3, [r7, #46]	@ movhi
 1316 0180 1344     		add	r3, r3, r2
 1317 0182 FB87     		strh	r3, [r7, #62]	@ movhi
 1318              		.loc 4 241 8 discriminator 4
 1319 0184 FA8F     		ldrh	r2, [r7, #62]
 1320 0186 B7F84430 		ldrh	r3, [r7, #68]
 1321 018a 9A42     		cmp	r2, r3
 1322 018c 02D9     		bls	.L67
 1323              		.loc 4 242 21
 1324 018e B7F84430 		ldrh	r3, [r7, #68]	@ movhi
 1325 0192 FB87     		strh	r3, [r7, #62]	@ movhi
 1326              	.L67:
 1327              		.loc 4 245 25
 1328 0194 3E8C     		ldrh	r6, [r7, #32]
 1329 0196 B88D     		ldrh	r0, [r7, #44]
 1330 0198 B7F84420 		ldrh	r2, [r7, #68]
 1331 019c B7F84610 		ldrh	r1, [r7, #70]
 1332 01a0 FB8F     		ldrh	r3, [r7, #62]
 1333 01a2 0093     		str	r3, [sp]
 1334 01a4 0346     		mov	r3, r0
 1335 01a6 3046     		mov	r0, r6
 1336 01a8 FFF7FEFF 		bl	normalize_with_deadzone
 1337 01ac 0346     		mov	r3, r0
 1338 01ae 87F82B30 		strb	r3, [r7, #43]
 1339              		.loc 4 247 21
 1340 01b2 FFF7FEFF 		bl	chVTGetSystemTimeX
 1341 01b6 7862     		str	r0, [r7, #36]
ARM GAS  C:\Users\DEVELO~1\AppData\Local\Temp\cc8YYP3e.s 			page 25


 1342              		.loc 4 248 28
 1343 01b8 3E8C     		ldrh	r6, [r7, #32]
 1344 01ba 798E     		ldrh	r1, [r7, #50]
 1345 01bc B7F84020 		ldrh	r2, [r7, #64]
 1346 01c0 F87F     		ldrb	r0, [r7, #31]	@ zero_extendqisi2
 1347 01c2 7B6A     		ldr	r3, [r7, #36]
 1348 01c4 0093     		str	r3, [sp]
 1349 01c6 0B46     		mov	r3, r1
 1350 01c8 3146     		mov	r1, r6
 1351 01ca FFF7FEFF 		bl	compute_velocity
 1352 01ce 0346     		mov	r3, r0
 1353 01d0 87F82330 		strb	r3, [r7, #35]
 1354              		.loc 4 250 10
 1355 01d4 7B6B     		ldr	r3, [r7, #52]
 1356 01d6 1B7D     		ldrb	r3, [r3, #20]
 1357 01d8 87F82230 		strb	r3, [r7, #34]
 1358              		.loc 4 251 10
 1359 01dc 97F82230 		ldrb	r3, [r7, #34]
 1360 01e0 87F83D30 		strb	r3, [r7, #61]
 1361              		.loc 4 252 20
 1362 01e4 3B8C     		ldrh	r3, [r7, #32]
 1363              		.loc 4 252 8
 1364 01e6 7A8E     		ldrh	r2, [r7, #50]
 1365 01e8 9A42     		cmp	r2, r3
 1366 01ea 03D3     		bcc	.L68
 1367              		.loc 4 253 21
 1368 01ec 0123     		movs	r3, #1
 1369 01ee 87F83D30 		strb	r3, [r7, #61]
 1370 01f2 07E0     		b	.L69
 1371              	.L68:
 1372              		.loc 4 254 27
 1373 01f4 3B8C     		ldrh	r3, [r7, #32]
 1374              		.loc 4 254 15
 1375 01f6 B7F84020 		ldrh	r2, [r7, #64]
 1376 01fa 9A42     		cmp	r2, r3
 1377 01fc 02D8     		bhi	.L69
 1378              		.loc 4 255 21
 1379 01fe 0023     		movs	r3, #0
 1380 0200 87F83D30 		strb	r3, [r7, #61]
 1381              	.L69:
 1382              		.loc 4 258 14
 1383 0204 7B6B     		ldr	r3, [r7, #52]
 1384 0206 DB68     		ldr	r3, [r3, #12]
 1385 0208 BB63     		str	r3, [r7, #56]
 1386              		.loc 4 259 8
 1387 020a 97F83D20 		ldrb	r2, [r7, #61]	@ zero_extendqisi2
 1388 020e 97F82230 		ldrb	r3, [r7, #34]	@ zero_extendqisi2
 1389 0212 9A42     		cmp	r2, r3
 1390 0214 52D0     		beq	.L70
 1391              		.loc 4 260 25
 1392 0216 7B6A     		ldr	r3, [r7, #36]
 1393 0218 0022     		movs	r2, #0
 1394 021a 9A46     		mov	r10, r3
 1395 021c 9346     		mov	fp, r2
 1396 021e 5246     		mov	r2, r10
 1397 0220 5B46     		mov	r3, fp
 1398 0222 4FF00000 		mov	r0, #0
ARM GAS  C:\Users\DEVELO~1\AppData\Local\Temp\cc8YYP3e.s 			page 26


 1399 0226 4FF00001 		mov	r1, #0
 1400 022a 5901     		lsls	r1, r3, #5
 1401 022c 41EAD261 		orr	r1, r1, r2, lsr #27
 1402 0230 5001     		lsls	r0, r2, #5
 1403 0232 0246     		mov	r2, r0
 1404 0234 0B46     		mov	r3, r1
 1405 0236 B2EB0A04 		subs	r4, r2, r10
 1406 023a 63EB0B05 		sbc	r5, r3, fp
 1407 023e 4FF00002 		mov	r2, #0
 1408 0242 4FF00003 		mov	r3, #0
 1409 0246 6B02     		lsls	r3, r5, #9
 1410 0248 43EAD453 		orr	r3, r3, r4, lsr #23
 1411 024c 6202     		lsls	r2, r4, #9
 1412 024e 1446     		mov	r4, r2
 1413 0250 1D46     		mov	r5, r3
 1414 0252 14EB0A08 		adds	r8, r4, r10
 1415 0256 45EB0B09 		adc	r9, r5, fp
 1416 025a 4FF00002 		mov	r2, #0
 1417 025e 4FF00003 		mov	r3, #0
 1418 0262 4FEA8913 		lsl	r3, r9, #6
 1419 0266 43EA9863 		orr	r3, r3, r8, lsr #26
 1420 026a 4FEA8812 		lsl	r2, r8, #6
 1421 026e B2EB0801 		subs	r1, r2, r8
 1422 0272 3960     		str	r1, [r7]
 1423 0274 63EB0903 		sbc	r3, r3, r9
 1424 0278 7B60     		str	r3, [r7, #4]
 1425 027a D7E90034 		ldrd	r3, [r7]
 1426 027e 1A46     		mov	r2, r3
 1427 0280 12EB0A02 		adds	r2, r2, r10
 1428 0284 3A61     		str	r2, [r7, #16]
 1429 0286 2346     		mov	r3, r4
 1430 0288 43EB0B03 		adc	r3, r3, fp
 1431 028c 7B61     		str	r3, [r7, #20]
 1432 028e 42F20F73 		movw	r3, #9999
 1433 0292 D7E90401 		ldrd	r0, [r7, #16]
 1434 0296 0246     		mov	r2, r0
 1435 0298 D318     		adds	r3, r2, r3
 1436 029a BB60     		str	r3, [r7, #8]
 1437 029c 0B46     		mov	r3, r1
 1438 029e 43F10003 		adc	r3, r3, #0
 1439 02a2 FB60     		str	r3, [r7, #12]
 1440 02a4 42F21072 		movw	r2, #10000
 1441 02a8 4FF00003 		mov	r3, #0
 1442 02ac D7E90201 		ldrd	r0, [r7, #8]
 1443 02b0 FFF7FEFF 		bl	__aeabi_uldivmod
 1444 02b4 0246     		mov	r2, r0
 1445 02b6 0B46     		mov	r3, r1
 1446              		.loc 4 260 23
 1447 02b8 1346     		mov	r3, r2
 1448 02ba BB63     		str	r3, [r7, #56]
 1449              	.L70:
 1450              		.loc 4 263 13
 1451 02bc 7B6B     		ldr	r3, [r7, #52]
 1452 02be BA8B     		ldrh	r2, [r7, #28]	@ movhi
 1453 02c0 1A80     		strh	r2, [r3]	@ movhi
 1454              		.loc 4 264 18
 1455 02c2 3A8C     		ldrh	r2, [r7, #32]
ARM GAS  C:\Users\DEVELO~1\AppData\Local\Temp\cc8YYP3e.s 			page 27


 1456 02c4 7B6B     		ldr	r3, [r7, #52]
 1457 02c6 5A80     		strh	r2, [r3, #2]	@ movhi
 1458              		.loc 4 265 13
 1459 02c8 7B6B     		ldr	r3, [r7, #52]
 1460 02ca B7F84620 		ldrh	r2, [r7, #70]	@ movhi
 1461 02ce 9A80     		strh	r2, [r3, #4]	@ movhi
 1462              		.loc 4 266 13
 1463 02d0 7B6B     		ldr	r3, [r7, #52]
 1464 02d2 B7F84420 		ldrh	r2, [r7, #68]	@ movhi
 1465 02d6 DA80     		strh	r2, [r3, #6]	@ movhi
 1466              		.loc 4 267 19
 1467 02d8 7B6B     		ldr	r3, [r7, #52]
 1468 02da 7A8E     		ldrh	r2, [r7, #50]	@ movhi
 1469 02dc 1A81     		strh	r2, [r3, #8]	@ movhi
 1470              		.loc 4 268 20
 1471 02de 7B6B     		ldr	r3, [r7, #52]
 1472 02e0 B7F84020 		ldrh	r2, [r7, #64]	@ movhi
 1473 02e4 5A81     		strh	r2, [r3, #10]	@ movhi
 1474              		.loc 4 269 15
 1475 02e6 7B6B     		ldr	r3, [r7, #52]
 1476 02e8 97F82B20 		ldrb	r2, [r7, #43]
 1477 02ec 9A74     		strb	r2, [r3, #18]
 1478              		.loc 4 270 18
 1479 02ee 7B6B     		ldr	r3, [r7, #52]
 1480 02f0 97F82320 		ldrb	r2, [r7, #35]
 1481 02f4 DA74     		strb	r2, [r3, #19]
 1482              		.loc 4 271 17
 1483 02f6 7B6B     		ldr	r3, [r7, #52]
 1484 02f8 97F83D20 		ldrb	r2, [r7, #61]
 1485 02fc 1A75     		strb	r2, [r3, #20]
 1486              		.loc 4 272 19
 1487 02fe 7B6B     		ldr	r3, [r7, #52]
 1488 0300 BA6B     		ldr	r2, [r7, #56]
 1489 0302 DA60     		str	r2, [r3, #12]
 1490              		.loc 4 273 18
 1491 0304 3A8C     		ldrh	r2, [r7, #32]
 1492 0306 7B6B     		ldr	r3, [r7, #52]
 1493 0308 1A82     		strh	r2, [r3, #16]	@ movhi
 1494 030a 08E0     		b	.L54
 1495              	.L72:
 1496              		.loc 4 197 9
 1497 030c 00BF     		nop
 1498 030e 06E0     		b	.L54
 1499              	.L75:
 1500              		.align	2
 1501              	.L74:
 1502 0310 00000000 		.word	hall_state
 1503 0314 00000000 		.word	cal_state
 1504 0318 CDCCCCCC 		.word	-858993459
 1505              	.L73:
 1506              		.loc 4 204 9
 1507 031c 00BF     		nop
 1508              	.L54:
 1509              		.loc 4 274 1
 1510 031e 4C37     		adds	r7, r7, #76
 1511              		.cfi_def_cfa_offset 36
 1512 0320 BD46     		mov	sp, r7
ARM GAS  C:\Users\DEVELO~1\AppData\Local\Temp\cc8YYP3e.s 			page 28


 1513              		.cfi_def_cfa_register 13
 1514              		@ sp needed
 1515 0322 BDE8F08F 		pop	{r4, r5, r6, r7, r8, r9, r10, fp, pc}
 1516              		.cfi_endproc
 1517              	.LFE438:
 1518              		.size	update_state, .-update_state
 1519              		.section	.text.drv_hall_init,"ax",%progbits
 1520              		.align	1
 1521              		.global	drv_hall_init
 1522              		.syntax unified
 1523              		.thumb
 1524              		.thumb_func
 1525              		.type	drv_hall_init, %function
 1526              	drv_hall_init:
 1527              	.LFB439:
 1528              		.loc 4 276 26
 1529              		.cfi_startproc
 1530              		@ args = 0, pretend = 0, frame = 0
 1531              		@ frame_needed = 1, uses_anonymous_args = 0
 1532 0000 80B5     		push	{r7, lr}
 1533              		.cfi_def_cfa_offset 8
 1534              		.cfi_offset 7, -8
 1535              		.cfi_offset 14, -4
 1536 0002 00AF     		add	r7, sp, #0
 1537              		.cfi_def_cfa_register 7
 1538              		.loc 4 277 9
 1539 0004 1A4B     		ldr	r3, .L80
 1540 0006 1B78     		ldrb	r3, [r3]	@ zero_extendqisi2
 1541              		.loc 4 277 8
 1542 0008 002B     		cmp	r3, #0
 1543 000a 2FD1     		bne	.L79
 1544              		.loc 4 281 5
 1545 000c 0322     		movs	r2, #3
 1546 000e 1021     		movs	r1, #16
 1547 0010 1848     		ldr	r0, .L80+4
 1548 0012 FFF7FEFF 		bl	_pal_lld_setgroupmode
 1549              		.loc 4 282 5
 1550 0016 0322     		movs	r2, #3
 1551 0018 8021     		movs	r1, #128
 1552 001a 1748     		ldr	r0, .L80+8
 1553 001c FFF7FEFF 		bl	_pal_lld_setgroupmode
 1554              		.loc 4 284 5
 1555 0020 0122     		movs	r2, #1
 1556 0022 2021     		movs	r1, #32
 1557 0024 1448     		ldr	r0, .L80+8
 1558 0026 FFF7FEFF 		bl	_pal_lld_setgroupmode
 1559              		.loc 4 285 5
 1560 002a 0122     		movs	r2, #1
 1561 002c 1021     		movs	r1, #16
 1562 002e 1248     		ldr	r0, .L80+8
 1563 0030 FFF7FEFF 		bl	_pal_lld_setgroupmode
 1564              		.loc 4 286 5
 1565 0034 0122     		movs	r2, #1
 1566 0036 4021     		movs	r1, #64
 1567 0038 0F48     		ldr	r0, .L80+8
 1568 003a FFF7FEFF 		bl	_pal_lld_setgroupmode
 1569              		.loc 4 288 5
ARM GAS  C:\Users\DEVELO~1\AppData\Local\Temp\cc8YYP3e.s 			page 29


 1570 003e 0E4B     		ldr	r3, .L80+8
 1571 0040 2022     		movs	r2, #32
 1572 0042 5A83     		strh	r2, [r3, #26]	@ movhi
 1573              		.loc 4 289 5
 1574 0044 0C4B     		ldr	r3, .L80+8
 1575 0046 1022     		movs	r2, #16
 1576 0048 5A83     		strh	r2, [r3, #26]	@ movhi
 1577              		.loc 4 290 5
 1578 004a 0B4B     		ldr	r3, .L80+8
 1579 004c 4022     		movs	r2, #64
 1580 004e 5A83     		strh	r2, [r3, #26]	@ movhi
 1581              		.loc 4 292 5
 1582 0050 0021     		movs	r1, #0
 1583 0052 0A48     		ldr	r0, .L80+12
 1584 0054 FFF7FEFF 		bl	adcStart
 1585              		.loc 4 293 5
 1586 0058 0021     		movs	r1, #0
 1587 005a 0948     		ldr	r0, .L80+16
 1588 005c FFF7FEFF 		bl	adcStart
 1589              		.loc 4 295 5
 1590 0060 FFF7FEFF 		bl	hall_state_init
 1591              		.loc 4 296 22
 1592 0064 024B     		ldr	r3, .L80
 1593 0066 0122     		movs	r2, #1
 1594 0068 1A70     		strb	r2, [r3]
 1595 006a 00E0     		b	.L76
 1596              	.L79:
 1597              		.loc 4 278 9
 1598 006c 00BF     		nop
 1599              	.L76:
 1600              		.loc 4 297 1
 1601 006e 80BD     		pop	{r7, pc}
 1602              	.L81:
 1603              		.align	2
 1604              	.L80:
 1605 0070 00000000 		.word	hall_initialized
 1606 0074 00080258 		.word	1476528128
 1607 0078 00000258 		.word	1476526080
 1608 007c 00000000 		.word	ADCD1
 1609 0080 00000000 		.word	ADCD3
 1610              		.cfi_endproc
 1611              	.LFE439:
 1612              		.size	drv_hall_init, .-drv_hall_init
 1613              		.section	.text.drv_hall_task,"ax",%progbits
 1614              		.align	1
 1615              		.global	drv_hall_task
 1616              		.syntax unified
 1617              		.thumb
 1618              		.thumb_func
 1619              		.type	drv_hall_task, %function
 1620              	drv_hall_task:
 1621              	.LFB440:
 1622              		.loc 4 299 26
 1623              		.cfi_startproc
 1624              		@ args = 0, pretend = 0, frame = 8
 1625              		@ frame_needed = 1, uses_anonymous_args = 0
 1626 0000 80B5     		push	{r7, lr}
ARM GAS  C:\Users\DEVELO~1\AppData\Local\Temp\cc8YYP3e.s 			page 30


 1627              		.cfi_def_cfa_offset 8
 1628              		.cfi_offset 7, -8
 1629              		.cfi_offset 14, -4
 1630 0002 82B0     		sub	sp, sp, #8
 1631              		.cfi_def_cfa_offset 16
 1632 0004 00AF     		add	r7, sp, #0
 1633              		.cfi_def_cfa_register 7
 1634              	.LBB7:
 1635              		.loc 4 300 18
 1636 0006 0023     		movs	r3, #0
 1637 0008 FB71     		strb	r3, [r7, #7]
 1638              		.loc 4 300 5
 1639 000a 45E0     		b	.L83
 1640              	.L84:
 1641              	.LBB8:
 1642              		.loc 4 301 9 discriminator 3
 1643 000c FB79     		ldrb	r3, [r7, #7]	@ zero_extendqisi2
 1644 000e 1846     		mov	r0, r3
 1645 0010 FFF7FEFF 		bl	mux_select
 1646              		.loc 4 302 9 discriminator 3
 1647 0014 0120     		movs	r0, #1
 1648 0016 FFF7FEFF 		bl	chThdSleep
 1649              		.loc 4 304 9 discriminator 3
 1650 001a 0123     		movs	r3, #1
 1651 001c 224A     		ldr	r2, .L85
 1652 001e 2349     		ldr	r1, .L85+4
 1653 0020 2348     		ldr	r0, .L85+8
 1654 0022 FFF7FEFF 		bl	adcConvert
 1655              		.loc 4 305 9 discriminator 3
 1656 0026 0123     		movs	r3, #1
 1657 0028 224A     		ldr	r2, .L85+12
 1658 002a 2349     		ldr	r1, .L85+16
 1659 002c 2348     		ldr	r0, .L85+20
 1660 002e FFF7FEFF 		bl	adcConvert
 1661              		.loc 4 307 18 discriminator 3
 1662 0032 0023     		movs	r3, #0
 1663 0034 BB80     		strh	r3, [r7, #4]	@ movhi
 1664              		.loc 4 308 18 discriminator 3
 1665 0036 0023     		movs	r3, #0
 1666 0038 7B80     		strh	r3, [r7, #2]	@ movhi
 1667              		.loc 4 310 43 discriminator 3
 1668 003a FA79     		ldrb	r2, [r7, #7]	@ zero_extendqisi2
 1669              		.loc 4 310 15 discriminator 3
 1670 003c 1346     		mov	r3, r2
 1671 003e 9B00     		lsls	r3, r3, #2
 1672 0040 1344     		add	r3, r3, r2
 1673 0042 DB00     		lsls	r3, r3, #3
 1674 0044 1E4A     		ldr	r2, .L85+24
 1675 0046 1344     		add	r3, r3, r2
 1676              		.loc 4 310 9 discriminator 3
 1677 0048 174A     		ldr	r2, .L85
 1678 004a 1188     		ldrh	r1, [r2]
 1679              		.loc 4 310 15 discriminator 3
 1680 004c 3A1D     		adds	r2, r7, #4
 1681 004e 1846     		mov	r0, r3
 1682 0050 FFF7FEFF 		bl	brick_asc_process
 1683              		.loc 4 311 9 discriminator 3
ARM GAS  C:\Users\DEVELO~1\AppData\Local\Temp\cc8YYP3e.s 			page 31


 1684 0054 144B     		ldr	r3, .L85
 1685 0056 1988     		ldrh	r1, [r3]
 1686 0058 BA88     		ldrh	r2, [r7, #4]
 1687 005a FB79     		ldrb	r3, [r7, #7]	@ zero_extendqisi2
 1688 005c 1846     		mov	r0, r3
 1689 005e FFF7FEFF 		bl	update_state
 1690              		.loc 4 313 48 discriminator 3
 1691 0062 FB79     		ldrb	r3, [r7, #7]	@ zero_extendqisi2
 1692 0064 03F10802 		add	r2, r3, #8
 1693              		.loc 4 313 15 discriminator 3
 1694 0068 1346     		mov	r3, r2
 1695 006a 9B00     		lsls	r3, r3, #2
 1696 006c 1344     		add	r3, r3, r2
 1697 006e DB00     		lsls	r3, r3, #3
 1698 0070 134A     		ldr	r2, .L85+24
 1699 0072 1344     		add	r3, r3, r2
 1700              		.loc 4 313 9 discriminator 3
 1701 0074 0F4A     		ldr	r2, .L85+12
 1702 0076 1188     		ldrh	r1, [r2]
 1703              		.loc 4 313 15 discriminator 3
 1704 0078 BA1C     		adds	r2, r7, #2
 1705 007a 1846     		mov	r0, r3
 1706 007c FFF7FEFF 		bl	brick_asc_process
 1707              		.loc 4 314 9 discriminator 3
 1708 0080 FB79     		ldrb	r3, [r7, #7]
 1709 0082 0833     		adds	r3, r3, #8
 1710 0084 DBB2     		uxtb	r3, r3
 1711 0086 0B4A     		ldr	r2, .L85+12
 1712 0088 1188     		ldrh	r1, [r2]
 1713 008a 7A88     		ldrh	r2, [r7, #2]
 1714 008c 1846     		mov	r0, r3
 1715 008e FFF7FEFF 		bl	update_state
 1716              	.LBE8:
 1717              		.loc 4 300 58 discriminator 3
 1718 0092 FB79     		ldrb	r3, [r7, #7]
 1719 0094 0133     		adds	r3, r3, #1
 1720 0096 FB71     		strb	r3, [r7, #7]
 1721              	.L83:
 1722              		.loc 4 300 31 discriminator 1
 1723 0098 FB79     		ldrb	r3, [r7, #7]	@ zero_extendqisi2
 1724 009a 072B     		cmp	r3, #7
 1725 009c B6D9     		bls	.L84
 1726              	.LBE7:
 1727              		.loc 4 316 1
 1728 009e 00BF     		nop
 1729 00a0 00BF     		nop
 1730 00a2 0837     		adds	r7, r7, #8
 1731              		.cfi_def_cfa_offset 8
 1732 00a4 BD46     		mov	sp, r7
 1733              		.cfi_def_cfa_register 13
 1734              		@ sp needed
 1735 00a6 80BD     		pop	{r7, pc}
 1736              	.L86:
 1737              		.align	2
 1738              	.L85:
 1739 00a8 00000000 		.word	adc_sample1
 1740 00ac 00000000 		.word	adcgrpcfg1
ARM GAS  C:\Users\DEVELO~1\AppData\Local\Temp\cc8YYP3e.s 			page 32


 1741 00b0 00000000 		.word	ADCD1
 1742 00b4 00000000 		.word	adc_sample2
 1743 00b8 00000000 		.word	adcgrpcfg2
 1744 00bc 00000000 		.word	ADCD3
 1745 00c0 00000000 		.word	asc_state
 1746              		.cfi_endproc
 1747              	.LFE440:
 1748              		.size	drv_hall_task, .-drv_hall_task
 1749              		.section	.text.drv_hall_get_raw,"ax",%progbits
 1750              		.align	1
 1751              		.global	drv_hall_get_raw
 1752              		.syntax unified
 1753              		.thumb
 1754              		.thumb_func
 1755              		.type	drv_hall_get_raw, %function
 1756              	drv_hall_get_raw:
 1757              	.LFB441:
 1758              		.loc 4 318 38
 1759              		.cfi_startproc
 1760              		@ args = 0, pretend = 0, frame = 8
 1761              		@ frame_needed = 1, uses_anonymous_args = 0
 1762              		@ link register save eliminated.
 1763 0000 80B4     		push	{r7}
 1764              		.cfi_def_cfa_offset 4
 1765              		.cfi_offset 7, -4
 1766 0002 83B0     		sub	sp, sp, #12
 1767              		.cfi_def_cfa_offset 16
 1768 0004 00AF     		add	r7, sp, #0
 1769              		.cfi_def_cfa_register 7
 1770 0006 0346     		mov	r3, r0
 1771 0008 FB71     		strb	r3, [r7, #7]
 1772              		.loc 4 319 8
 1773 000a FB79     		ldrb	r3, [r7, #7]	@ zero_extendqisi2
 1774 000c 0F2B     		cmp	r3, #15
 1775 000e 01D9     		bls	.L88
 1776              		.loc 4 320 16
 1777 0010 0023     		movs	r3, #0
 1778 0012 07E0     		b	.L89
 1779              	.L88:
 1780              		.loc 4 322 25
 1781 0014 FA79     		ldrb	r2, [r7, #7]	@ zero_extendqisi2
 1782 0016 0649     		ldr	r1, .L90
 1783 0018 1346     		mov	r3, r2
 1784 001a 5B00     		lsls	r3, r3, #1
 1785 001c 1344     		add	r3, r3, r2
 1786 001e DB00     		lsls	r3, r3, #3
 1787 0020 0B44     		add	r3, r3, r1
 1788 0022 1B88     		ldrh	r3, [r3]
 1789              	.L89:
 1790              		.loc 4 323 1
 1791 0024 1846     		mov	r0, r3
 1792 0026 0C37     		adds	r7, r7, #12
 1793              		.cfi_def_cfa_offset 4
 1794 0028 BD46     		mov	sp, r7
 1795              		.cfi_def_cfa_register 13
 1796              		@ sp needed
 1797 002a 80BC     		pop	{r7}
ARM GAS  C:\Users\DEVELO~1\AppData\Local\Temp\cc8YYP3e.s 			page 33


 1798              		.cfi_restore 7
 1799              		.cfi_def_cfa_offset 0
 1800 002c 7047     		bx	lr
 1801              	.L91:
 1802 002e 00BF     		.align	2
 1803              	.L90:
 1804 0030 00000000 		.word	hall_state
 1805              		.cfi_endproc
 1806              	.LFE441:
 1807              		.size	drv_hall_get_raw, .-drv_hall_get_raw
 1808              		.section	.text.drv_hall_get_value,"ax",%progbits
 1809              		.align	1
 1810              		.global	drv_hall_get_value
 1811              		.syntax unified
 1812              		.thumb
 1813              		.thumb_func
 1814              		.type	drv_hall_get_value, %function
 1815              	drv_hall_get_value:
 1816              	.LFB442:
 1817              		.loc 4 325 39
 1818              		.cfi_startproc
 1819              		@ args = 0, pretend = 0, frame = 8
 1820              		@ frame_needed = 1, uses_anonymous_args = 0
 1821              		@ link register save eliminated.
 1822 0000 80B4     		push	{r7}
 1823              		.cfi_def_cfa_offset 4
 1824              		.cfi_offset 7, -4
 1825 0002 83B0     		sub	sp, sp, #12
 1826              		.cfi_def_cfa_offset 16
 1827 0004 00AF     		add	r7, sp, #0
 1828              		.cfi_def_cfa_register 7
 1829 0006 0346     		mov	r3, r0
 1830 0008 FB71     		strb	r3, [r7, #7]
 1831              		.loc 4 326 8
 1832 000a FB79     		ldrb	r3, [r7, #7]	@ zero_extendqisi2
 1833 000c 0F2B     		cmp	r3, #15
 1834 000e 01D9     		bls	.L93
 1835              		.loc 4 327 16
 1836 0010 0023     		movs	r3, #0
 1837 0012 08E0     		b	.L94
 1838              	.L93:
 1839              		.loc 4 329 25
 1840 0014 FA79     		ldrb	r2, [r7, #7]	@ zero_extendqisi2
 1841 0016 0649     		ldr	r1, .L95
 1842 0018 1346     		mov	r3, r2
 1843 001a 5B00     		lsls	r3, r3, #1
 1844 001c 1344     		add	r3, r3, r2
 1845 001e DB00     		lsls	r3, r3, #3
 1846 0020 0B44     		add	r3, r3, r1
 1847 0022 1233     		adds	r3, r3, #18
 1848 0024 1B78     		ldrb	r3, [r3]	@ zero_extendqisi2
 1849              	.L94:
 1850              		.loc 4 330 1
 1851 0026 1846     		mov	r0, r3
 1852 0028 0C37     		adds	r7, r7, #12
 1853              		.cfi_def_cfa_offset 4
 1854 002a BD46     		mov	sp, r7
ARM GAS  C:\Users\DEVELO~1\AppData\Local\Temp\cc8YYP3e.s 			page 34


 1855              		.cfi_def_cfa_register 13
 1856              		@ sp needed
 1857 002c 80BC     		pop	{r7}
 1858              		.cfi_restore 7
 1859              		.cfi_def_cfa_offset 0
 1860 002e 7047     		bx	lr
 1861              	.L96:
 1862              		.align	2
 1863              	.L95:
 1864 0030 00000000 		.word	hall_state
 1865              		.cfi_endproc
 1866              	.LFE442:
 1867              		.size	drv_hall_get_value, .-drv_hall_get_value
 1868              		.section	.text.drv_hall_get_velocity,"ax",%progbits
 1869              		.align	1
 1870              		.global	drv_hall_get_velocity
 1871              		.syntax unified
 1872              		.thumb
 1873              		.thumb_func
 1874              		.type	drv_hall_get_velocity, %function
 1875              	drv_hall_get_velocity:
 1876              	.LFB443:
 1877              		.loc 4 332 42
 1878              		.cfi_startproc
 1879              		@ args = 0, pretend = 0, frame = 8
 1880              		@ frame_needed = 1, uses_anonymous_args = 0
 1881              		@ link register save eliminated.
 1882 0000 80B4     		push	{r7}
 1883              		.cfi_def_cfa_offset 4
 1884              		.cfi_offset 7, -4
 1885 0002 83B0     		sub	sp, sp, #12
 1886              		.cfi_def_cfa_offset 16
 1887 0004 00AF     		add	r7, sp, #0
 1888              		.cfi_def_cfa_register 7
 1889 0006 0346     		mov	r3, r0
 1890 0008 FB71     		strb	r3, [r7, #7]
 1891              		.loc 4 333 8
 1892 000a FB79     		ldrb	r3, [r7, #7]	@ zero_extendqisi2
 1893 000c 0F2B     		cmp	r3, #15
 1894 000e 01D9     		bls	.L98
 1895              		.loc 4 334 16
 1896 0010 0023     		movs	r3, #0
 1897 0012 08E0     		b	.L99
 1898              	.L98:
 1899              		.loc 4 336 25
 1900 0014 FA79     		ldrb	r2, [r7, #7]	@ zero_extendqisi2
 1901 0016 0649     		ldr	r1, .L100
 1902 0018 1346     		mov	r3, r2
 1903 001a 5B00     		lsls	r3, r3, #1
 1904 001c 1344     		add	r3, r3, r2
 1905 001e DB00     		lsls	r3, r3, #3
 1906 0020 0B44     		add	r3, r3, r1
 1907 0022 1333     		adds	r3, r3, #19
 1908 0024 1B78     		ldrb	r3, [r3]	@ zero_extendqisi2
 1909              	.L99:
 1910              		.loc 4 337 1
 1911 0026 1846     		mov	r0, r3
ARM GAS  C:\Users\DEVELO~1\AppData\Local\Temp\cc8YYP3e.s 			page 35


 1912 0028 0C37     		adds	r7, r7, #12
 1913              		.cfi_def_cfa_offset 4
 1914 002a BD46     		mov	sp, r7
 1915              		.cfi_def_cfa_register 13
 1916              		@ sp needed
 1917 002c 80BC     		pop	{r7}
 1918              		.cfi_restore 7
 1919              		.cfi_def_cfa_offset 0
 1920 002e 7047     		bx	lr
 1921              	.L101:
 1922              		.align	2
 1923              	.L100:
 1924 0030 00000000 		.word	hall_state
 1925              		.cfi_endproc
 1926              	.LFE443:
 1927              		.size	drv_hall_get_velocity, .-drv_hall_get_velocity
 1928              		.section	.text.drv_hall_is_pressed,"ax",%progbits
 1929              		.align	1
 1930              		.global	drv_hall_is_pressed
 1931              		.syntax unified
 1932              		.thumb
 1933              		.thumb_func
 1934              		.type	drv_hall_is_pressed, %function
 1935              	drv_hall_is_pressed:
 1936              	.LFB444:
 1937              		.loc 4 339 37
 1938              		.cfi_startproc
 1939              		@ args = 0, pretend = 0, frame = 8
 1940              		@ frame_needed = 1, uses_anonymous_args = 0
 1941              		@ link register save eliminated.
 1942 0000 80B4     		push	{r7}
 1943              		.cfi_def_cfa_offset 4
 1944              		.cfi_offset 7, -4
 1945 0002 83B0     		sub	sp, sp, #12
 1946              		.cfi_def_cfa_offset 16
 1947 0004 00AF     		add	r7, sp, #0
 1948              		.cfi_def_cfa_register 7
 1949 0006 0346     		mov	r3, r0
 1950 0008 FB71     		strb	r3, [r7, #7]
 1951              		.loc 4 340 8
 1952 000a FB79     		ldrb	r3, [r7, #7]	@ zero_extendqisi2
 1953 000c 0F2B     		cmp	r3, #15
 1954 000e 01D9     		bls	.L103
 1955              		.loc 4 341 16
 1956 0010 0023     		movs	r3, #0
 1957 0012 08E0     		b	.L104
 1958              	.L103:
 1959              		.loc 4 343 25
 1960 0014 FA79     		ldrb	r2, [r7, #7]	@ zero_extendqisi2
 1961 0016 0649     		ldr	r1, .L105
 1962 0018 1346     		mov	r3, r2
 1963 001a 5B00     		lsls	r3, r3, #1
 1964 001c 1344     		add	r3, r3, r2
 1965 001e DB00     		lsls	r3, r3, #3
 1966 0020 0B44     		add	r3, r3, r1
 1967 0022 1433     		adds	r3, r3, #20
 1968 0024 1B78     		ldrb	r3, [r3]	@ zero_extendqisi2
ARM GAS  C:\Users\DEVELO~1\AppData\Local\Temp\cc8YYP3e.s 			page 36


 1969              	.L104:
 1970              		.loc 4 344 1
 1971 0026 1846     		mov	r0, r3
 1972 0028 0C37     		adds	r7, r7, #12
 1973              		.cfi_def_cfa_offset 4
 1974 002a BD46     		mov	sp, r7
 1975              		.cfi_def_cfa_register 13
 1976              		@ sp needed
 1977 002c 80BC     		pop	{r7}
 1978              		.cfi_restore 7
 1979              		.cfi_def_cfa_offset 0
 1980 002e 7047     		bx	lr
 1981              	.L106:
 1982              		.align	2
 1983              	.L105:
 1984 0030 00000000 		.word	hall_state
 1985              		.cfi_endproc
 1986              	.LFE444:
 1987              		.size	drv_hall_is_pressed, .-drv_hall_is_pressed
 1988              		.section	.text.drv_hall_is_initialized,"ax",%progbits
 1989              		.align	1
 1990              		.global	drv_hall_is_initialized
 1991              		.syntax unified
 1992              		.thumb
 1993              		.thumb_func
 1994              		.type	drv_hall_is_initialized, %function
 1995              	drv_hall_is_initialized:
 1996              	.LFB445:
 1997              		.loc 4 346 36
 1998              		.cfi_startproc
 1999              		@ args = 0, pretend = 0, frame = 0
 2000              		@ frame_needed = 1, uses_anonymous_args = 0
 2001              		@ link register save eliminated.
 2002 0000 80B4     		push	{r7}
 2003              		.cfi_def_cfa_offset 4
 2004              		.cfi_offset 7, -4
 2005 0002 00AF     		add	r7, sp, #0
 2006              		.cfi_def_cfa_register 7
 2007              		.loc 4 347 12
 2008 0004 024B     		ldr	r3, .L109
 2009 0006 1B78     		ldrb	r3, [r3]	@ zero_extendqisi2
 2010              		.loc 4 348 1
 2011 0008 1846     		mov	r0, r3
 2012 000a BD46     		mov	sp, r7
 2013              		.cfi_def_cfa_register 13
 2014              		@ sp needed
 2015 000c 80BC     		pop	{r7}
 2016              		.cfi_restore 7
 2017              		.cfi_def_cfa_offset 0
 2018 000e 7047     		bx	lr
 2019              	.L110:
 2020              		.align	2
 2021              	.L109:
 2022 0010 00000000 		.word	hall_initialized
 2023              		.cfi_endproc
 2024              	.LFE445:
 2025              		.size	drv_hall_is_initialized, .-drv_hall_is_initialized
ARM GAS  C:\Users\DEVELO~1\AppData\Local\Temp\cc8YYP3e.s 			page 37


 2026              		.text
 2027              	.Letext0:
 2028              		.file 5 "c:\\chibistudio\\tools\\gnu tools arm embedded\\11.3 2022.08\\arm-none-eabi\\include\\mac
 2029              		.file 6 "c:\\chibistudio\\tools\\gnu tools arm embedded\\11.3 2022.08\\arm-none-eabi\\include\\sys
 2030              		.file 7 "drivers/HallEffect/drv_hall.h"
 2031              		.file 8 "c:\\chibistudio\\tools\\gnu tools arm embedded\\11.3 2022.08\\lib\\gcc\\arm-none-eabi\\11
 2032              		.file 9 "drivers/HallEffect/brick_asc.h"
 2033              		.file 10 "drivers/HallEffect/brick_cal.h"
 2034              		.file 11 "../../../os/common/ports/ARM-common/chtypes.h"
 2035              		.file 12 "../../../os/rt/include/chearly.h"
 2036              		.file 13 "../../../os/rt/include/chobjects.h"
 2037              		.file 14 "../../../os/rt/include/chrfcu.h"
 2038              		.file 15 "../../../os/rt/include/chdebug.h"
 2039              		.file 16 "../../../os/rt/include/chlists.h"
 2040              		.file 17 "../../../os/rt/include/chtrace.h"
 2041              		.file 18 "../../../os/common/ext/ST/STM32H7xx/stm32h743xx.h"
 2042              		.file 19 "../../../os/common/ports/ARMv7-M/chcore.h"
 2043              		.file 20 "../../../os/rt/include/chsem.h"
 2044              		.file 21 "../../../os/rt/include/chmtx.h"
 2045              		.file 22 "../../../os/hal/ports/STM32/LLD/DMAv2/stm32_dma.h"
 2046              		.file 23 "../../../os/hal/ports/STM32/LLD/GPIOv2/stm32_gpio.h"
 2047              		.file 24 "../../../os/hal/ports/STM32/LLD/GPIOv2/hal_pal_lld.h"
 2048              		.file 25 "../../../os/hal/include/hal_adc.h"
 2049              		.file 26 "../../../os/hal/ports/STM32/LLD/ADCv4/hal_adc_lld.h"
 2050              		.file 27 "../../../os/rt/include/chthreads.h"
 2051              		.file 28 "c:\\chibistudio\\tools\\gnu tools arm embedded\\11.3 2022.08\\arm-none-eabi\\include\\st
 2052              		.file 29 "../../../os/hal/include/hal_st.h"