ARM GAS  C:\Users\DEVELO~1\AppData\Local\Temp\ccFr3SeA.s 			page 1


   1              		.cpu cortex-m7
   2              		.arch armv7e-m
   3              		.fpu softvfp
   4              		.eabi_attribute 20, 1
   5              		.eabi_attribute 21, 1
   6              		.eabi_attribute 23, 3
   7              		.eabi_attribute 24, 1
   8              		.eabi_attribute 25, 1
   9              		.eabi_attribute 26, 1
  10              		.eabi_attribute 30, 6
  11              		.eabi_attribute 34, 1
  12              		.eabi_attribute 18, 4
  13              		.file	"drv_hall.c"
  14              		.text
  15              	.Ltext0:
  16              		.cfi_sections	.debug_frame
  17              		.section	.text.chSysLock,"ax",%progbits
  18              		.align	1
  19              		.syntax unified
  20              		.thumb
  21              		.thumb_func
  22              		.type	chSysLock, %function
  23              	chSysLock:
  24              	.LFB202:
  25              		.file 1 "../../../os/rt/include/chsys.h"
  26              		.loc 1 407 36
  27              		.cfi_startproc
  28              		@ args = 0, pretend = 0, frame = 8
  29              		@ frame_needed = 1, uses_anonymous_args = 0
  30              		@ link register save eliminated.
  31 0000 80B4     		push	{r7}
  32              		.cfi_def_cfa_offset 4
  33              		.cfi_offset 7, -4
  34 0002 83B0     		sub	sp, sp, #12
  35              		.cfi_def_cfa_offset 16
  36 0004 00AF     		add	r7, sp, #0
  37              		.cfi_def_cfa_register 7
  38 0006 3023     		movs	r3, #48
  39 0008 7B60     		str	r3, [r7, #4]
  40              	.LBB14:
  41              	.LBB15:
  42              	.LBB16:
  43              	.LBB17:
  44              		.file 2 "../../../os/common/ext/ARM/CMSIS/Core/Include/cmsis_gcc.h"
  45              		.loc 2 493 3
  46 000a 7B68     		ldr	r3, [r7, #4]
  47              		.syntax unified
  48              	@ 493 "../../../os/common/ext/ARM/CMSIS/Core/Include/cmsis_gcc.h" 1
  49 000c 83F31188 		MSR basepri, r3
  50              	@ 0 "" 2
  51              		.loc 2 494 1
  52              		.thumb
  53              		.syntax unified
  54 0010 00BF     		nop
  55              	.LBE17:
  56              	.LBE16:
  57              		.file 3 "../../../os/common/ports/ARMv7-M/chcore.h"
ARM GAS  C:\Users\DEVELO~1\AppData\Local\Temp\ccFr3SeA.s 			page 2


  58              		.loc 3 840 1
  59 0012 00BF     		nop
  60              	.LBE15:
  61              	.LBE14:
  62              		.loc 1 412 1
  63 0014 00BF     		nop
  64 0016 0C37     		adds	r7, r7, #12
  65              		.cfi_def_cfa_offset 4
  66 0018 BD46     		mov	sp, r7
  67              		.cfi_def_cfa_register 13
  68              		@ sp needed
  69 001a 80BC     		pop	{r7}
  70              		.cfi_restore 7
  71              		.cfi_def_cfa_offset 0
  72 001c 7047     		bx	lr
  73              		.cfi_endproc
  74              	.LFE202:
  75              		.size	chSysLock, .-chSysLock
  76              		.section	.text.chSysUnlock,"ax",%progbits
  77              		.align	1
  78              		.syntax unified
  79              		.thumb
  80              		.thumb_func
  81              		.type	chSysUnlock, %function
  82              	chSysUnlock:
  83              	.LFB203:
  84              		.loc 1 421 38
  85              		.cfi_startproc
  86              		@ args = 0, pretend = 0, frame = 8
  87              		@ frame_needed = 1, uses_anonymous_args = 0
  88              		@ link register save eliminated.
  89 0000 80B4     		push	{r7}
  90              		.cfi_def_cfa_offset 4
  91              		.cfi_offset 7, -4
  92 0002 83B0     		sub	sp, sp, #12
  93              		.cfi_def_cfa_offset 16
  94 0004 00AF     		add	r7, sp, #0
  95              		.cfi_def_cfa_register 7
  96 0006 0023     		movs	r3, #0
  97 0008 7B60     		str	r3, [r7, #4]
  98              	.LBB18:
  99              	.LBB19:
 100              	.LBB20:
 101              	.LBB21:
 102              		.loc 2 493 3
 103 000a 7B68     		ldr	r3, [r7, #4]
 104              		.syntax unified
 105              	@ 493 "../../../os/common/ext/ARM/CMSIS/Core/Include/cmsis_gcc.h" 1
 106 000c 83F31188 		MSR basepri, r3
 107              	@ 0 "" 2
 108              		.loc 2 494 1
 109              		.thumb
 110              		.syntax unified
 111 0010 00BF     		nop
 112              	.LBE21:
 113              	.LBE20:
 114              		.loc 3 854 1
ARM GAS  C:\Users\DEVELO~1\AppData\Local\Temp\ccFr3SeA.s 			page 3


 115 0012 00BF     		nop
 116              	.LBE19:
 117              	.LBE18:
 118              		.loc 1 435 1
 119 0014 00BF     		nop
 120 0016 0C37     		adds	r7, r7, #12
 121              		.cfi_def_cfa_offset 4
 122 0018 BD46     		mov	sp, r7
 123              		.cfi_def_cfa_register 13
 124              		@ sp needed
 125 001a 80BC     		pop	{r7}
 126              		.cfi_restore 7
 127              		.cfi_def_cfa_offset 0
 128 001c 7047     		bx	lr
 129              		.cfi_endproc
 130              	.LFE203:
 131              		.size	chSysUnlock, .-chSysUnlock
 132              		.section	.data.g_vel_mode,"aw"
 133              		.type	g_vel_mode, %object
 134              		.size	g_vel_mode, 1
 135              	g_vel_mode:
 136 0000 01       		.byte	1
 137              		.section	.data.g_vel_curve,"aw"
 138              		.type	g_vel_curve, %object
 139              		.size	g_vel_curve, 1
 140              	g_vel_curve:
 141 0000 01       		.byte	1
 142              		.section	.ramd2,"aw"
 143              		.align	2
 144              		.type	adc_buffer, %object
 145              		.size	adc_buffer, 4
 146              	adc_buffer:
 147 0000 00000000 		.space	4
 148              		.section	.bss.hall_values,"aw",%nobits
 149              		.align	2
 150              		.type	hall_values, %object
 151              		.size	hall_values, 32
 152              	hall_values:
 153 0000 00000000 		.space	32
 153      00000000 
 153      00000000 
 153      00000000 
 153      00000000 
 154              		.section	.bss.hall_note_on,"aw",%nobits
 155              		.align	2
 156              		.type	hall_note_on, %object
 157              		.size	hall_note_on, 16
 158              	hall_note_on:
 159 0000 00000000 		.space	16
 159      00000000 
 159      00000000 
 159      00000000 
 160              		.section	.bss.hall_note_off,"aw",%nobits
 161              		.align	2
 162              		.type	hall_note_off, %object
 163              		.size	hall_note_off, 16
 164              	hall_note_off:
ARM GAS  C:\Users\DEVELO~1\AppData\Local\Temp\ccFr3SeA.s 			page 4


 165 0000 00000000 		.space	16
 165      00000000 
 165      00000000 
 165      00000000 
 166              		.section	.bss.hall_velocity,"aw",%nobits
 167              		.align	2
 168              		.type	hall_velocity, %object
 169              		.size	hall_velocity, 16
 170              	hall_velocity:
 171 0000 00000000 		.space	16
 171      00000000 
 171      00000000 
 171      00000000 
 172              		.section	.bss.hall_pressure,"aw",%nobits
 173              		.align	2
 174              		.type	hall_pressure, %object
 175              		.size	hall_pressure, 16
 176              	hall_pressure:
 177 0000 00000000 		.space	16
 177      00000000 
 177      00000000 
 177      00000000 
 178              		.section	.bss.hall_midi_value,"aw",%nobits
 179              		.align	2
 180              		.type	hall_midi_value, %object
 181              		.size	hall_midi_value, 16
 182              	hall_midi_value:
 183 0000 00000000 		.space	16
 183      00000000 
 183      00000000 
 183      00000000 
 184              		.section	.bss.hall_initialized,"aw",%nobits
 185              		.type	hall_initialized, %object
 186              		.size	hall_initialized, 1
 187              	hall_initialized:
 188 0000 00       		.space	1
 189              		.section	.bss.hall_mux_index,"aw",%nobits
 190              		.type	hall_mux_index, %object
 191              		.size	hall_mux_index, 1
 192              	hall_mux_index:
 193 0000 00       		.space	1
 194              		.section	.data.hall_discard_next,"aw"
 195              		.type	hall_discard_next, %object
 196              		.size	hall_discard_next, 1
 197              	hall_discard_next:
 198 0000 01       		.byte	1
 199              		.section	.bss.hall_btn,"aw",%nobits
 200              		.align	2
 201              		.type	hall_btn, %object
 202              		.size	hall_btn, 384
 203              	hall_btn:
 204 0000 00000000 		.space	384
 204      00000000 
 204      00000000 
 204      00000000 
 204      00000000 
 205              		.section	.rodata.hall_gptcfg,"a"
ARM GAS  C:\Users\DEVELO~1\AppData\Local\Temp\ccFr3SeA.s 			page 5


 206              		.align	2
 207              		.type	hall_gptcfg, %object
 208              		.size	hall_gptcfg, 16
 209              	hall_gptcfg:
 210 0000 00C2EB0B 		.word	200000000
 211 0004 00000000 		.word	0
 212 0008 20000000 		.word	32
 213 000c 00000000 		.word	0
 214              		.section	.rodata.hall_gpt_interval,"a"
 215              		.align	2
 216              		.type	hall_gpt_interval, %object
 217              		.size	hall_gpt_interval, 4
 218              	hall_gpt_interval:
 219 0000 409C0000 		.word	40000
 220              		.section	.text.adc_cb,"ax",%progbits
 221              		.align	1
 222              		.syntax unified
 223              		.thumb
 224              		.thumb_func
 225              		.type	adc_cb, %function
 226              	adc_cb:
 227              	.LFB432:
 228              		.file 4 "drivers/HallEffect/drv_hall.c"
 229              		.loc 4 178 37
 230              		.cfi_startproc
 231              		@ args = 0, pretend = 0, frame = 16
 232              		@ frame_needed = 1, uses_anonymous_args = 0
 233 0000 80B5     		push	{r7, lr}
 234              		.cfi_def_cfa_offset 8
 235              		.cfi_offset 7, -8
 236              		.cfi_offset 14, -4
 237 0002 84B0     		sub	sp, sp, #16
 238              		.cfi_def_cfa_offset 24
 239 0004 00AF     		add	r7, sp, #0
 240              		.cfi_def_cfa_register 7
 241 0006 7860     		str	r0, [r7, #4]
 242              		.loc 4 181 12
 243 0008 1E4B     		ldr	r3, .L6
 244 000a 1B88     		ldrh	r3, [r3]	@ movhi
 245 000c FB81     		strh	r3, [r7, #14]	@ movhi
 246              		.loc 4 182 12
 247 000e 1D4B     		ldr	r3, .L6
 248 0010 5B88     		ldrh	r3, [r3, #2]	@ movhi
 249 0012 BB81     		strh	r3, [r7, #12]	@ movhi
 250              		.loc 4 185 7
 251 0014 1C4B     		ldr	r3, .L6+4
 252 0016 1B78     		ldrb	r3, [r3]	@ zero_extendqisi2
 253              		.loc 4 185 6
 254 0018 002B     		cmp	r3, #0
 255 001a 03D0     		beq	.L4
 256              		.loc 4 186 23
 257 001c 1A4B     		ldr	r3, .L6+4
 258 001e 0022     		movs	r2, #0
 259 0020 1A70     		strb	r2, [r3]
 260              		.loc 4 187 5
 261 0022 2CE0     		b	.L3
 262              	.L4:
ARM GAS  C:\Users\DEVELO~1\AppData\Local\Temp\ccFr3SeA.s 			page 6


 263              		.loc 4 190 11
 264 0024 194B     		ldr	r3, .L6+8
 265 0026 1B78     		ldrb	r3, [r3]
 266 0028 FB72     		strb	r3, [r7, #11]
 267              		.loc 4 192 19
 268 002a FB7A     		ldrb	r3, [r7, #11]	@ zero_extendqisi2
 269              		.loc 4 192 25
 270 002c 1849     		ldr	r1, .L6+12
 271 002e FA89     		ldrh	r2, [r7, #14]	@ movhi
 272 0030 21F81320 		strh	r2, [r1, r3, lsl #1]	@ movhi
 273              		.loc 4 193 19
 274 0034 FB7A     		ldrb	r3, [r7, #11]	@ zero_extendqisi2
 275 0036 0833     		adds	r3, r3, #8
 276              		.loc 4 193 25
 277 0038 1549     		ldr	r1, .L6+12
 278 003a BA89     		ldrh	r2, [r7, #12]	@ movhi
 279 003c 21F81320 		strh	r2, [r1, r3, lsl #1]	@ movhi
 280              		.loc 4 195 3
 281 0040 FA89     		ldrh	r2, [r7, #14]
 282 0042 FB7A     		ldrb	r3, [r7, #11]	@ zero_extendqisi2
 283 0044 1146     		mov	r1, r2
 284 0046 1846     		mov	r0, r3
 285 0048 FFF7FEFF 		bl	hall_process_channel
 286              		.loc 4 196 3
 287 004c FB7A     		ldrb	r3, [r7, #11]
 288 004e 0833     		adds	r3, r3, #8
 289 0050 DBB2     		uxtb	r3, r3
 290 0052 BA89     		ldrh	r2, [r7, #12]
 291 0054 1146     		mov	r1, r2
 292 0056 1846     		mov	r0, r3
 293 0058 FFF7FEFF 		bl	hall_process_channel
 294              		.loc 4 199 46
 295 005c 0B4B     		ldr	r3, .L6+8
 296 005e 1B78     		ldrb	r3, [r3]	@ zero_extendqisi2
 297 0060 0133     		adds	r3, r3, #1
 298 0062 DBB2     		uxtb	r3, r3
 299              		.loc 4 199 20
 300 0064 03F00703 		and	r3, r3, #7
 301 0068 DAB2     		uxtb	r2, r3
 302              		.loc 4 199 18
 303 006a 084B     		ldr	r3, .L6+8
 304 006c 1A70     		strb	r2, [r3]
 305              		.loc 4 200 3
 306 006e 074B     		ldr	r3, .L6+8
 307 0070 1B78     		ldrb	r3, [r3]	@ zero_extendqisi2
 308 0072 1846     		mov	r0, r3
 309 0074 FFF7FEFF 		bl	mux_select
 310              		.loc 4 202 21
 311 0078 034B     		ldr	r3, .L6+4
 312 007a 0122     		movs	r2, #1
 313 007c 1A70     		strb	r2, [r3]
 314              	.L3:
 315              		.loc 4 203 1
 316 007e 1037     		adds	r7, r7, #16
 317              		.cfi_def_cfa_offset 8
 318 0080 BD46     		mov	sp, r7
 319              		.cfi_def_cfa_register 13
ARM GAS  C:\Users\DEVELO~1\AppData\Local\Temp\ccFr3SeA.s 			page 7


 320              		@ sp needed
 321 0082 80BD     		pop	{r7, pc}
 322              	.L7:
 323              		.align	2
 324              	.L6:
 325 0084 00000000 		.word	adc_buffer
 326 0088 00000000 		.word	hall_discard_next
 327 008c 00000000 		.word	hall_mux_index
 328 0090 00000000 		.word	hall_values
 329              		.cfi_endproc
 330              	.LFE432:
 331              		.size	adc_cb, .-adc_cb
 332              		.section	.rodata.adcgrpcfg,"a"
 333              		.align	2
 334              		.type	adcgrpcfg, %object
 335              		.size	adcgrpcfg, 88
 336              	adcgrpcfg:
 337 0000 01       		.byte	1
 338 0001 000000   		.space	3
 339 0004 02000000 		.word	2
 340 0008 00000000 		.word	adc_cb
 341 000c 00000000 		.word	0
 342 0010 80050000 		.word	1408
 343 0014 00000000 		.word	0
 344 0018 00000000 		.space	4
 345 001c 90000000 		.word	144
 346 0020 00000000 		.word	0
 347 0024 00000000 		.word	0
 348 0028 00000000 		.word	0
 349 002c 00000000 		.word	0
 350 0030 00000000 		.word	0
 351 0034 00000000 		.word	0
 352 0038 00000000 		.word	0
 353 003c 00000000 		.word	0
 354 0040 0050A000 		.word	10506240
 355 0044 00000000 		.word	0
 356 0048 00710000 		.word	28928
 357 004c 00000000 		.word	0
 358 0050 00000000 		.word	0
 359 0054 00000000 		.word	0
 360              		.section	.text.mux_select,"ax",%progbits
 361              		.align	1
 362              		.syntax unified
 363              		.thumb
 364              		.thumb_func
 365              		.type	mux_select, %function
 366              	mux_select:
 367              	.LFB433:
 368              		.loc 4 241 36
 369              		.cfi_startproc
 370              		@ args = 0, pretend = 0, frame = 24
 371              		@ frame_needed = 1, uses_anonymous_args = 0
 372              		@ link register save eliminated.
 373 0000 80B4     		push	{r7}
 374              		.cfi_def_cfa_offset 4
 375              		.cfi_offset 7, -4
 376 0002 87B0     		sub	sp, sp, #28
ARM GAS  C:\Users\DEVELO~1\AppData\Local\Temp\ccFr3SeA.s 			page 8


 377              		.cfi_def_cfa_offset 32
 378 0004 00AF     		add	r7, sp, #0
 379              		.cfi_def_cfa_register 7
 380 0006 0346     		mov	r3, r0
 381 0008 FB71     		strb	r3, [r7, #7]
 382              	.LBB22:
 383              		.loc 4 242 3
 384 000a FB79     		ldrb	r3, [r7, #7]	@ zero_extendqisi2
 385 000c 03F00103 		and	r3, r3, #1
 386 0010 002B     		cmp	r3, #0
 387 0012 02D1     		bne	.L9
 388              		.loc 4 242 3 is_stmt 0 discriminator 1
 389 0014 4FF40012 		mov	r2, #2097152
 390 0018 00E0     		b	.L10
 391              	.L9:
 392              		.loc 4 242 3 discriminator 2
 393 001a 0022     		movs	r2, #0
 394              	.L10:
 395              		.loc 4 242 3 discriminator 4
 396 001c FB79     		ldrb	r3, [r7, #7]	@ zero_extendqisi2
 397 001e 5B01     		lsls	r3, r3, #5
 398 0020 03F02003 		and	r3, r3, #32
 399 0024 1343     		orrs	r3, r3, r2
 400 0026 7B61     		str	r3, [r7, #20]
 401 0028 194A     		ldr	r2, .L15
 402 002a 7B69     		ldr	r3, [r7, #20]
 403 002c 9361     		str	r3, [r2, #24]
 404              	.LBE22:
 405              	.LBB23:
 406              		.loc 4 243 3 is_stmt 1 discriminator 4
 407 002e FB79     		ldrb	r3, [r7, #7]	@ zero_extendqisi2
 408 0030 5B08     		lsrs	r3, r3, #1
 409 0032 DBB2     		uxtb	r3, r3
 410 0034 03F00103 		and	r3, r3, #1
 411 0038 002B     		cmp	r3, #0
 412 003a 02D1     		bne	.L11
 413              		.loc 4 243 3 is_stmt 0 discriminator 1
 414 003c 4FF48012 		mov	r2, #1048576
 415 0040 00E0     		b	.L12
 416              	.L11:
 417              		.loc 4 243 3 discriminator 2
 418 0042 0022     		movs	r2, #0
 419              	.L12:
 420              		.loc 4 243 3 discriminator 4
 421 0044 FB79     		ldrb	r3, [r7, #7]	@ zero_extendqisi2
 422 0046 5B08     		lsrs	r3, r3, #1
 423 0048 DBB2     		uxtb	r3, r3
 424 004a 1B01     		lsls	r3, r3, #4
 425 004c 03F01003 		and	r3, r3, #16
 426 0050 1343     		orrs	r3, r3, r2
 427 0052 3B61     		str	r3, [r7, #16]
 428 0054 0E4A     		ldr	r2, .L15
 429 0056 3B69     		ldr	r3, [r7, #16]
 430 0058 9361     		str	r3, [r2, #24]
 431              	.LBE23:
 432              	.LBB24:
 433              		.loc 4 244 3 is_stmt 1 discriminator 4
ARM GAS  C:\Users\DEVELO~1\AppData\Local\Temp\ccFr3SeA.s 			page 9


 434 005a FB79     		ldrb	r3, [r7, #7]	@ zero_extendqisi2
 435 005c 9B08     		lsrs	r3, r3, #2
 436 005e DBB2     		uxtb	r3, r3
 437 0060 03F00103 		and	r3, r3, #1
 438 0064 002B     		cmp	r3, #0
 439 0066 02D1     		bne	.L13
 440              		.loc 4 244 3 is_stmt 0 discriminator 1
 441 0068 4FF48002 		mov	r2, #4194304
 442 006c 00E0     		b	.L14
 443              	.L13:
 444              		.loc 4 244 3 discriminator 2
 445 006e 0022     		movs	r2, #0
 446              	.L14:
 447              		.loc 4 244 3 discriminator 4
 448 0070 FB79     		ldrb	r3, [r7, #7]	@ zero_extendqisi2
 449 0072 9B08     		lsrs	r3, r3, #2
 450 0074 DBB2     		uxtb	r3, r3
 451 0076 9B01     		lsls	r3, r3, #6
 452 0078 03F04003 		and	r3, r3, #64
 453 007c 1343     		orrs	r3, r3, r2
 454 007e FB60     		str	r3, [r7, #12]
 455 0080 034A     		ldr	r2, .L15
 456 0082 FB68     		ldr	r3, [r7, #12]
 457 0084 9361     		str	r3, [r2, #24]
 458              	.LBE24:
 459              		.loc 4 245 1 is_stmt 1 discriminator 4
 460 0086 00BF     		nop
 461 0088 1C37     		adds	r7, r7, #28
 462              		.cfi_def_cfa_offset 4
 463 008a BD46     		mov	sp, r7
 464              		.cfi_def_cfa_register 13
 465              		@ sp needed
 466 008c 80BC     		pop	{r7}
 467              		.cfi_restore 7
 468              		.cfi_def_cfa_offset 0
 469 008e 7047     		bx	lr
 470              	.L16:
 471              		.align	2
 472              	.L15:
 473 0090 00000258 		.word	1476526080
 474              		.cfi_endproc
 475              	.LFE433:
 476              		.size	mux_select, .-mux_select
 477              		.section	.text.hall_range_valid,"ax",%progbits
 478              		.align	1
 479              		.syntax unified
 480              		.thumb
 481              		.thumb_func
 482              		.type	hall_range_valid, %function
 483              	hall_range_valid:
 484              	.LFB434:
 485              		.loc 4 249 54
 486              		.cfi_startproc
 487              		@ args = 0, pretend = 0, frame = 16
 488              		@ frame_needed = 1, uses_anonymous_args = 0
 489              		@ link register save eliminated.
 490 0000 80B4     		push	{r7}
ARM GAS  C:\Users\DEVELO~1\AppData\Local\Temp\ccFr3SeA.s 			page 10


 491              		.cfi_def_cfa_offset 4
 492              		.cfi_offset 7, -4
 493 0002 85B0     		sub	sp, sp, #20
 494              		.cfi_def_cfa_offset 24
 495 0004 00AF     		add	r7, sp, #0
 496              		.cfi_def_cfa_register 7
 497 0006 7860     		str	r0, [r7, #4]
 498              		.loc 4 250 8
 499 0008 7B68     		ldr	r3, [r7, #4]
 500 000a 5A88     		ldrh	r2, [r3, #2]
 501              		.loc 4 250 18
 502 000c 7B68     		ldr	r3, [r7, #4]
 503 000e 1B88     		ldrh	r3, [r3]
 504              		.loc 4 250 6
 505 0010 9A42     		cmp	r2, r3
 506 0012 01D8     		bhi	.L18
 507              		.loc 4 251 12
 508 0014 0023     		movs	r3, #0
 509 0016 0DE0     		b	.L19
 510              	.L18:
 511              		.loc 4 253 32
 512 0018 7B68     		ldr	r3, [r7, #4]
 513 001a 5A88     		ldrh	r2, [r3, #2]
 514              		.loc 4 253 41
 515 001c 7B68     		ldr	r3, [r7, #4]
 516 001e 1B88     		ldrh	r3, [r3]
 517              		.loc 4 253 12
 518 0020 D31A     		subs	r3, r2, r3
 519 0022 FB81     		strh	r3, [r7, #14]	@ movhi
 520              		.loc 4 254 16
 521 0024 FB89     		ldrh	r3, [r7, #14]
 522 0026 40F2F312 		movw	r2, #499
 523 002a 9342     		cmp	r3, r2
 524 002c 8CBF     		ite	hi
 525 002e 0123     		movhi	r3, #1
 526 0030 0023     		movls	r3, #0
 527 0032 DBB2     		uxtb	r3, r3
 528              	.L19:
 529              		.loc 4 255 1
 530 0034 1846     		mov	r0, r3
 531 0036 1437     		adds	r7, r7, #20
 532              		.cfi_def_cfa_offset 4
 533 0038 BD46     		mov	sp, r7
 534              		.cfi_def_cfa_register 13
 535              		@ sp needed
 536 003a 80BC     		pop	{r7}
 537              		.cfi_restore 7
 538              		.cfi_def_cfa_offset 0
 539 003c 7047     		bx	lr
 540              		.cfi_endproc
 541              	.LFE434:
 542              		.size	hall_range_valid, .-hall_range_valid
 543              		.section	.text.hall_update_triggers,"ax",%progbits
 544              		.align	1
 545              		.syntax unified
 546              		.thumb
 547              		.thumb_func
ARM GAS  C:\Users\DEVELO~1\AppData\Local\Temp\ccFr3SeA.s 			page 11


 548              		.type	hall_update_triggers, %function
 549              	hall_update_triggers:
 550              	.LFB435:
 551              		.loc 4 257 52
 552              		.cfi_startproc
 553              		@ args = 0, pretend = 0, frame = 24
 554              		@ frame_needed = 1, uses_anonymous_args = 0
 555 0000 80B5     		push	{r7, lr}
 556              		.cfi_def_cfa_offset 8
 557              		.cfi_offset 7, -8
 558              		.cfi_offset 14, -4
 559 0002 86B0     		sub	sp, sp, #24
 560              		.cfi_def_cfa_offset 32
 561 0004 00AF     		add	r7, sp, #0
 562              		.cfi_def_cfa_register 7
 563 0006 7860     		str	r0, [r7, #4]
 564              		.loc 4 258 8
 565 0008 7868     		ldr	r0, [r7, #4]
 566 000a FFF7FEFF 		bl	hall_range_valid
 567 000e 0346     		mov	r3, r0
 568              		.loc 4 258 7
 569 0010 83F00103 		eor	r3, r3, #1
 570 0014 DBB2     		uxtb	r3, r3
 571              		.loc 4 258 6
 572 0016 002B     		cmp	r3, #0
 573 0018 08D0     		beq	.L21
 574              		.loc 4 259 19
 575 001a 7B68     		ldr	r3, [r7, #4]
 576 001c 1A88     		ldrh	r2, [r3]
 577              		.loc 4 259 16
 578 001e 7B68     		ldr	r3, [r7, #4]
 579 0020 9A80     		strh	r2, [r3, #4]	@ movhi
 580              		.loc 4 260 19
 581 0022 7B68     		ldr	r3, [r7, #4]
 582 0024 5A88     		ldrh	r2, [r3, #2]
 583              		.loc 4 260 16
 584 0026 7B68     		ldr	r3, [r7, #4]
 585 0028 DA80     		strh	r2, [r3, #6]	@ movhi
 586              		.loc 4 261 5
 587 002a 53E0     		b	.L20
 588              	.L21:
 589              		.loc 4 264 32
 590 002c 7B68     		ldr	r3, [r7, #4]
 591 002e 5B88     		ldrh	r3, [r3, #2]
 592 0030 1A46     		mov	r2, r3
 593              		.loc 4 264 41
 594 0032 7B68     		ldr	r3, [r7, #4]
 595 0034 1B88     		ldrh	r3, [r3]
 596              		.loc 4 264 38
 597 0036 D31A     		subs	r3, r2, r3
 598              		.loc 4 264 12
 599 0038 FB60     		str	r3, [r7, #12]
 600              		.loc 4 266 12
 601 003a 1423     		movs	r3, #20
 602 003c BB60     		str	r3, [r7, #8]
 603              		.loc 4 267 12
 604 003e C823     		movs	r3, #200
ARM GAS  C:\Users\DEVELO~1\AppData\Local\Temp\ccFr3SeA.s 			page 12


 605 0040 7B61     		str	r3, [r7, #20]
 606              		.loc 4 268 12
 607 0042 C823     		movs	r3, #200
 608 0044 3B61     		str	r3, [r7, #16]
 609              		.loc 4 270 6
 610 0046 7A69     		ldr	r2, [r7, #20]
 611 0048 BB68     		ldr	r3, [r7, #8]
 612 004a 9A42     		cmp	r2, r3
 613 004c 04D9     		bls	.L23
 614              		.loc 4 271 12
 615 004e 7A69     		ldr	r2, [r7, #20]
 616 0050 BB68     		ldr	r3, [r7, #8]
 617 0052 D31A     		subs	r3, r2, r3
 618 0054 7B61     		str	r3, [r7, #20]
 619 0056 01E0     		b	.L24
 620              	.L23:
 621              		.loc 4 273 12
 622 0058 0023     		movs	r3, #0
 623 005a 7B61     		str	r3, [r7, #20]
 624              	.L24:
 625              		.loc 4 276 10
 626 005c 3A69     		ldr	r2, [r7, #16]
 627 005e BB68     		ldr	r3, [r7, #8]
 628 0060 1344     		add	r3, r3, r2
 629 0062 3B61     		str	r3, [r7, #16]
 630              		.loc 4 277 6
 631 0064 3B69     		ldr	r3, [r7, #16]
 632 0066 B3F57A7F 		cmp	r3, #1000
 633 006a 02D9     		bls	.L25
 634              		.loc 4 278 12
 635 006c 4FF47A73 		mov	r3, #1000
 636 0070 3B61     		str	r3, [r7, #16]
 637              	.L25:
 638              		.loc 4 281 28
 639 0072 7B68     		ldr	r3, [r7, #4]
 640 0074 1A88     		ldrh	r2, [r3]
 641              		.loc 4 281 43
 642 0076 FB68     		ldr	r3, [r7, #12]
 643 0078 7969     		ldr	r1, [r7, #20]
 644 007a 01FB03F3 		mul	r3, r1, r3
 645              		.loc 4 281 53
 646 007e 1749     		ldr	r1, .L26
 647 0080 A1FB0313 		umull	r1, r3, r1, r3
 648 0084 9B09     		lsrs	r3, r3, #6
 649              		.loc 4 281 16
 650 0086 9BB2     		uxth	r3, r3
 651 0088 1344     		add	r3, r3, r2
 652 008a 9AB2     		uxth	r2, r3
 653              		.loc 4 281 14
 654 008c 7B68     		ldr	r3, [r7, #4]
 655 008e 9A80     		strh	r2, [r3, #4]	@ movhi
 656              		.loc 4 282 28
 657 0090 7B68     		ldr	r3, [r7, #4]
 658 0092 1A88     		ldrh	r2, [r3]
 659              		.loc 4 282 43
 660 0094 FB68     		ldr	r3, [r7, #12]
 661 0096 3969     		ldr	r1, [r7, #16]
ARM GAS  C:\Users\DEVELO~1\AppData\Local\Temp\ccFr3SeA.s 			page 13


 662 0098 01FB03F3 		mul	r3, r1, r3
 663              		.loc 4 282 53
 664 009c 0F49     		ldr	r1, .L26
 665 009e A1FB0313 		umull	r1, r3, r1, r3
 666 00a2 9B09     		lsrs	r3, r3, #6
 667              		.loc 4 282 16
 668 00a4 9BB2     		uxth	r3, r3
 669 00a6 1344     		add	r3, r3, r2
 670 00a8 9AB2     		uxth	r2, r3
 671              		.loc 4 282 14
 672 00aa 7B68     		ldr	r3, [r7, #4]
 673 00ac DA80     		strh	r2, [r3, #6]	@ movhi
 674              		.loc 4 285 33
 675 00ae 7B68     		ldr	r3, [r7, #4]
 676 00b0 1A88     		ldrh	r2, [r3]
 677              		.loc 4 285 48
 678 00b2 FB68     		ldr	r3, [r7, #12]
 679 00b4 9621     		movs	r1, #150
 680 00b6 01FB03F3 		mul	r3, r1, r3
 681              		.loc 4 285 85
 682 00ba 0849     		ldr	r1, .L26
 683 00bc A1FB0313 		umull	r1, r3, r1, r3
 684 00c0 9B09     		lsrs	r3, r3, #6
 685              		.loc 4 285 21
 686 00c2 9BB2     		uxth	r3, r3
 687 00c4 1344     		add	r3, r3, r2
 688 00c6 9AB2     		uxth	r2, r3
 689              		.loc 4 285 19
 690 00c8 7B68     		ldr	r3, [r7, #4]
 691 00ca 1A82     		strh	r2, [r3, #16]	@ movhi
 692              		.loc 4 288 22
 693 00cc 7B68     		ldr	r3, [r7, #4]
 694 00ce DA88     		ldrh	r2, [r3, #6]
 695              		.loc 4 288 19
 696 00d0 7B68     		ldr	r3, [r7, #4]
 697 00d2 5A82     		strh	r2, [r3, #18]	@ movhi
 698              	.L20:
 699              		.loc 4 292 1
 700 00d4 1837     		adds	r7, r7, #24
 701              		.cfi_def_cfa_offset 8
 702 00d6 BD46     		mov	sp, r7
 703              		.cfi_def_cfa_register 13
 704              		@ sp needed
 705 00d8 80BD     		pop	{r7, pc}
 706              	.L27:
 707 00da 00BF     		.align	2
 708              	.L26:
 709 00dc D34D6210 		.word	274877907
 710              		.cfi_endproc
 711              	.LFE435:
 712              		.size	hall_update_triggers, .-hall_update_triggers
 713              		.section	.text.isqrt_u32,"ax",%progbits
 714              		.align	1
 715              		.syntax unified
 716              		.thumb
 717              		.thumb_func
 718              		.type	isqrt_u32, %function
ARM GAS  C:\Users\DEVELO~1\AppData\Local\Temp\ccFr3SeA.s 			page 14


 719              	isqrt_u32:
 720              	.LFB436:
 721              		.loc 4 296 39
 722              		.cfi_startproc
 723              		@ args = 0, pretend = 0, frame = 24
 724              		@ frame_needed = 1, uses_anonymous_args = 0
 725              		@ link register save eliminated.
 726 0000 80B4     		push	{r7}
 727              		.cfi_def_cfa_offset 4
 728              		.cfi_offset 7, -4
 729 0002 87B0     		sub	sp, sp, #28
 730              		.cfi_def_cfa_offset 32
 731 0004 00AF     		add	r7, sp, #0
 732              		.cfi_def_cfa_register 7
 733 0006 7860     		str	r0, [r7, #4]
 734              		.loc 4 298 12
 735 0008 7B68     		ldr	r3, [r7, #4]
 736 000a 7B61     		str	r3, [r7, #20]
 737              		.loc 4 299 12
 738 000c 0023     		movs	r3, #0
 739 000e 3B61     		str	r3, [r7, #16]
 740              		.loc 4 300 12
 741 0010 4FF08043 		mov	r3, #1073741824
 742 0014 FB60     		str	r3, [r7, #12]
 743              		.loc 4 301 9
 744 0016 02E0     		b	.L29
 745              	.L30:
 746              		.loc 4 301 24 discriminator 2
 747 0018 FB68     		ldr	r3, [r7, #12]
 748 001a 9B08     		lsrs	r3, r3, #2
 749 001c FB60     		str	r3, [r7, #12]
 750              	.L29:
 751              		.loc 4 301 14 discriminator 1
 752 001e FA68     		ldr	r2, [r7, #12]
 753 0020 7B69     		ldr	r3, [r7, #20]
 754 0022 9A42     		cmp	r2, r3
 755 0024 F8D8     		bhi	.L30
 756              		.loc 4 302 9
 757 0026 16E0     		b	.L31
 758              	.L33:
 759              		.loc 4 303 19
 760 0028 3A69     		ldr	r2, [r7, #16]
 761 002a FB68     		ldr	r3, [r7, #12]
 762 002c 1344     		add	r3, r3, r2
 763              		.loc 4 303 8
 764 002e 7A69     		ldr	r2, [r7, #20]
 765 0030 9A42     		cmp	r2, r3
 766 0032 0AD3     		bcc	.L32
 767              		.loc 4 304 17
 768 0034 3A69     		ldr	r2, [r7, #16]
 769 0036 FB68     		ldr	r3, [r7, #12]
 770 0038 1344     		add	r3, r3, r2
 771              		.loc 4 304 10
 772 003a 7A69     		ldr	r2, [r7, #20]
 773 003c D31A     		subs	r3, r2, r3
 774 003e 7B61     		str	r3, [r7, #20]
 775              		.loc 4 305 21
ARM GAS  C:\Users\DEVELO~1\AppData\Local\Temp\ccFr3SeA.s 			page 15


 776 0040 FB68     		ldr	r3, [r7, #12]
 777 0042 5B00     		lsls	r3, r3, #1
 778              		.loc 4 305 11
 779 0044 3A69     		ldr	r2, [r7, #16]
 780 0046 1344     		add	r3, r3, r2
 781 0048 3B61     		str	r3, [r7, #16]
 782              	.L32:
 783              		.loc 4 307 9
 784 004a 3B69     		ldr	r3, [r7, #16]
 785 004c 5B08     		lsrs	r3, r3, #1
 786 004e 3B61     		str	r3, [r7, #16]
 787              		.loc 4 308 9
 788 0050 FB68     		ldr	r3, [r7, #12]
 789 0052 9B08     		lsrs	r3, r3, #2
 790 0054 FB60     		str	r3, [r7, #12]
 791              	.L31:
 792              		.loc 4 302 14
 793 0056 FB68     		ldr	r3, [r7, #12]
 794 0058 002B     		cmp	r3, #0
 795 005a E5D1     		bne	.L33
 796              		.loc 4 310 10
 797 005c 3B69     		ldr	r3, [r7, #16]
 798 005e 9BB2     		uxth	r3, r3
 799              		.loc 4 311 1
 800 0060 1846     		mov	r0, r3
 801 0062 1C37     		adds	r7, r7, #28
 802              		.cfi_def_cfa_offset 4
 803 0064 BD46     		mov	sp, r7
 804              		.cfi_def_cfa_register 13
 805              		@ sp needed
 806 0066 80BC     		pop	{r7}
 807              		.cfi_restore 7
 808              		.cfi_def_cfa_offset 0
 809 0068 7047     		bx	lr
 810              		.cfi_endproc
 811              	.LFE436:
 812              		.size	isqrt_u32, .-isqrt_u32
 813              		.section	.text.hall_apply_curve,"ax",%progbits
 814              		.align	1
 815              		.syntax unified
 816              		.thumb
 817              		.thumb_func
 818              		.type	hall_apply_curve, %function
 819              	hall_apply_curve:
 820              	.LFB437:
 821              		.loc 4 313 68
 822              		.cfi_startproc
 823              		@ args = 0, pretend = 0, frame = 48
 824              		@ frame_needed = 1, uses_anonymous_args = 0
 825 0000 80B5     		push	{r7, lr}
 826              		.cfi_def_cfa_offset 8
 827              		.cfi_offset 7, -8
 828              		.cfi_offset 14, -4
 829 0002 8CB0     		sub	sp, sp, #48
 830              		.cfi_def_cfa_offset 56
 831 0004 00AF     		add	r7, sp, #0
 832              		.cfi_def_cfa_register 7
ARM GAS  C:\Users\DEVELO~1\AppData\Local\Temp\ccFr3SeA.s 			page 16


 833 0006 0346     		mov	r3, r0
 834 0008 0A46     		mov	r2, r1
 835 000a FB71     		strb	r3, [r7, #7]
 836 000c 1346     		mov	r3, r2
 837 000e BB71     		strb	r3, [r7, #6]
 838              		.loc 4 314 6
 839 0010 FB79     		ldrb	r3, [r7, #7]	@ zero_extendqisi2
 840 0012 002B     		cmp	r3, #0
 841 0014 01D1     		bne	.L36
 842              		.loc 4 314 17 discriminator 1
 843 0016 0123     		movs	r3, #1
 844 0018 FB71     		strb	r3, [r7, #7]
 845              	.L36:
 846              		.loc 4 315 9
 847 001a 97F90730 		ldrsb	r3, [r7, #7]
 848              		.loc 4 315 6
 849 001e 002B     		cmp	r3, #0
 850 0020 01DA     		bge	.L37
 851              		.loc 4 315 19 discriminator 1
 852 0022 7F23     		movs	r3, #127
 853 0024 FB71     		strb	r3, [r7, #7]
 854              	.L37:
 855              		.loc 4 317 3
 856 0026 BB79     		ldrb	r3, [r7, #6]	@ zero_extendqisi2
 857 0028 042B     		cmp	r3, #4
 858 002a 7FD8     		bhi	.L38
 859 002c 01A2     		adr	r2, .L40
 860 002e 52F823F0 		ldr	pc, [r2, r3, lsl #2]
 861 0032 00BF     		.p2align 2
 862              	.L40:
 863 0034 49000000 		.word	.L44+1
 864 0038 4D000000 		.word	.L43+1
 865 003c 83000000 		.word	.L42+1
 866 0040 B1000000 		.word	.L41+1
 867 0044 F1000000 		.word	.L39+1
 868              		.p2align 1
 869              	.L44:
 870              		.loc 4 319 14
 871 0048 FB79     		ldrb	r3, [r7, #7]	@ zero_extendqisi2
 872 004a 70E0     		b	.L45
 873              	.L43:
 874              	.LBB25:
 875              		.loc 4 323 21
 876 004c FB79     		ldrb	r3, [r7, #7]	@ zero_extendqisi2
 877              		.loc 4 323 35
 878 004e FA79     		ldrb	r2, [r7, #7]	@ zero_extendqisi2
 879              		.loc 4 323 16
 880 0050 02FB03F3 		mul	r3, r2, r3
 881 0054 FB60     		str	r3, [r7, #12]
 882              		.loc 4 324 16
 883 0056 FA68     		ldr	r2, [r7, #12]
 884 0058 374B     		ldr	r3, .L54
 885 005a A3FB0213 		umull	r1, r3, r3, r2
 886 005e D21A     		subs	r2, r2, r3
 887 0060 5208     		lsrs	r2, r2, #1
 888 0062 1344     		add	r3, r3, r2
 889 0064 9B09     		lsrs	r3, r3, #6
ARM GAS  C:\Users\DEVELO~1\AppData\Local\Temp\ccFr3SeA.s 			page 17


 890 0066 FB62     		str	r3, [r7, #44]
 891              		.loc 4 325 10
 892 0068 FB6A     		ldr	r3, [r7, #44]
 893 006a 002B     		cmp	r3, #0
 894 006c 01D1     		bne	.L46
 895              		.loc 4 325 25 discriminator 1
 896 006e 0123     		movs	r3, #1
 897 0070 FB62     		str	r3, [r7, #44]
 898              	.L46:
 899              		.loc 4 326 10
 900 0072 FB6A     		ldr	r3, [r7, #44]
 901 0074 7F2B     		cmp	r3, #127
 902 0076 01D9     		bls	.L47
 903              		.loc 4 326 27 discriminator 1
 904 0078 7F23     		movs	r3, #127
 905 007a FB62     		str	r3, [r7, #44]
 906              	.L47:
 907              		.loc 4 327 14
 908 007c FB6A     		ldr	r3, [r7, #44]
 909 007e DBB2     		uxtb	r3, r3
 910 0080 55E0     		b	.L45
 911              	.L42:
 912              	.LBE25:
 913              	.LBB26:
 914              		.loc 4 332 20
 915 0082 FA79     		ldrb	r2, [r7, #7]	@ zero_extendqisi2
 916              		.loc 4 332 16
 917 0084 1346     		mov	r3, r2
 918 0086 DB01     		lsls	r3, r3, #7
 919 0088 9B1A     		subs	r3, r3, r2
 920 008a 3B61     		str	r3, [r7, #16]
 921              		.loc 4 333 22
 922 008c 3869     		ldr	r0, [r7, #16]
 923 008e FFF7FEFF 		bl	isqrt_u32
 924 0092 0346     		mov	r3, r0
 925 0094 7B85     		strh	r3, [r7, #42]	@ movhi
 926              		.loc 4 334 10
 927 0096 7B8D     		ldrh	r3, [r7, #42]
 928 0098 002B     		cmp	r3, #0
 929 009a 01D1     		bne	.L48
 930              		.loc 4 334 25 discriminator 1
 931 009c 0123     		movs	r3, #1
 932 009e 7B85     		strh	r3, [r7, #42]	@ movhi
 933              	.L48:
 934              		.loc 4 335 10
 935 00a0 7B8D     		ldrh	r3, [r7, #42]
 936 00a2 7F2B     		cmp	r3, #127
 937 00a4 01D9     		bls	.L49
 938              		.loc 4 335 27 discriminator 1
 939 00a6 7F23     		movs	r3, #127
 940 00a8 7B85     		strh	r3, [r7, #42]	@ movhi
 941              	.L49:
 942              		.loc 4 336 14
 943 00aa 7B8D     		ldrh	r3, [r7, #42]	@ movhi
 944 00ac DBB2     		uxtb	r3, r3
 945 00ae 3EE0     		b	.L45
 946              	.L41:
ARM GAS  C:\Users\DEVELO~1\AppData\Local\Temp\ccFr3SeA.s 			page 18


 947              	.LBE26:
 948              	.LBB27:
 949              		.loc 4 341 20
 950 00b0 FB79     		ldrb	r3, [r7, #7]	@ zero_extendqisi2
 951              		.loc 4 341 16
 952 00b2 C3F17F03 		rsb	r3, r3, #127
 953 00b6 BB61     		str	r3, [r7, #24]
 954              		.loc 4 342 16
 955 00b8 BB69     		ldr	r3, [r7, #24]
 956 00ba 03FB03F3 		mul	r3, r3, r3
 957 00be 7B61     		str	r3, [r7, #20]
 958              		.loc 4 343 33
 959 00c0 7A69     		ldr	r2, [r7, #20]
 960 00c2 1D4B     		ldr	r3, .L54
 961 00c4 A3FB0213 		umull	r1, r3, r3, r2
 962 00c8 D21A     		subs	r2, r2, r3
 963 00ca 5208     		lsrs	r2, r2, #1
 964 00cc 1344     		add	r3, r3, r2
 965 00ce 9B09     		lsrs	r3, r3, #6
 966              		.loc 4 343 16
 967 00d0 C3F17F03 		rsb	r3, r3, #127
 968 00d4 7B62     		str	r3, [r7, #36]
 969              		.loc 4 344 10
 970 00d6 7B6A     		ldr	r3, [r7, #36]
 971 00d8 002B     		cmp	r3, #0
 972 00da 01D1     		bne	.L50
 973              		.loc 4 344 25 discriminator 1
 974 00dc 0123     		movs	r3, #1
 975 00de 7B62     		str	r3, [r7, #36]
 976              	.L50:
 977              		.loc 4 345 10
 978 00e0 7B6A     		ldr	r3, [r7, #36]
 979 00e2 7F2B     		cmp	r3, #127
 980 00e4 01D9     		bls	.L51
 981              		.loc 4 345 27 discriminator 1
 982 00e6 7F23     		movs	r3, #127
 983 00e8 7B62     		str	r3, [r7, #36]
 984              	.L51:
 985              		.loc 4 346 14
 986 00ea 7B6A     		ldr	r3, [r7, #36]
 987 00ec DBB2     		uxtb	r3, r3
 988 00ee 1EE0     		b	.L45
 989              	.L39:
 990              	.LBE27:
 991              	.LBB28:
 992              		.loc 4 351 21
 993 00f0 FB79     		ldrb	r3, [r7, #7]	@ zero_extendqisi2
 994              		.loc 4 351 35
 995 00f2 FA79     		ldrb	r2, [r7, #7]	@ zero_extendqisi2
 996              		.loc 4 351 33
 997 00f4 02FB03F3 		mul	r3, r2, r3
 998              		.loc 4 351 49
 999 00f8 FA79     		ldrb	r2, [r7, #7]	@ zero_extendqisi2
 1000              		.loc 4 351 16
 1001 00fa 02FB03F3 		mul	r3, r2, r3
 1002 00fe FB61     		str	r3, [r7, #28]
 1003              		.loc 4 352 16
ARM GAS  C:\Users\DEVELO~1\AppData\Local\Temp\ccFr3SeA.s 			page 19


 1004 0100 FA69     		ldr	r2, [r7, #28]
 1005 0102 0E4B     		ldr	r3, .L54+4
 1006 0104 A3FB0213 		umull	r1, r3, r3, r2
 1007 0108 D21A     		subs	r2, r2, r3
 1008 010a 5208     		lsrs	r2, r2, #1
 1009 010c 1344     		add	r3, r3, r2
 1010 010e 5B0B     		lsrs	r3, r3, #13
 1011 0110 3B62     		str	r3, [r7, #32]
 1012              		.loc 4 353 10
 1013 0112 3B6A     		ldr	r3, [r7, #32]
 1014 0114 002B     		cmp	r3, #0
 1015 0116 01D1     		bne	.L52
 1016              		.loc 4 353 25 discriminator 1
 1017 0118 0123     		movs	r3, #1
 1018 011a 3B62     		str	r3, [r7, #32]
 1019              	.L52:
 1020              		.loc 4 354 10
 1021 011c 3B6A     		ldr	r3, [r7, #32]
 1022 011e 7F2B     		cmp	r3, #127
 1023 0120 01D9     		bls	.L53
 1024              		.loc 4 354 27 discriminator 1
 1025 0122 7F23     		movs	r3, #127
 1026 0124 3B62     		str	r3, [r7, #32]
 1027              	.L53:
 1028              		.loc 4 355 14
 1029 0126 3B6A     		ldr	r3, [r7, #32]
 1030 0128 DBB2     		uxtb	r3, r3
 1031 012a 00E0     		b	.L45
 1032              	.L38:
 1033              	.LBE28:
 1034              		.loc 4 359 14
 1035 012c FB79     		ldrb	r3, [r7, #7]	@ zero_extendqisi2
 1036              	.L45:
 1037              		.loc 4 361 1
 1038 012e 1846     		mov	r0, r3
 1039 0130 3037     		adds	r7, r7, #48
 1040              		.cfi_def_cfa_offset 8
 1041 0132 BD46     		mov	sp, r7
 1042              		.cfi_def_cfa_register 13
 1043              		@ sp needed
 1044 0134 80BD     		pop	{r7, pc}
 1045              	.L55:
 1046 0136 00BF     		.align	2
 1047              	.L54:
 1048 0138 11080402 		.word	33818641
 1049 013c 51200C04 		.word	67903569
 1050              		.cfi_endproc
 1051              	.LFE437:
 1052              		.size	hall_apply_curve, .-hall_apply_curve
 1053              		.section	.text.hall_velocity_from_dv,"ax",%progbits
 1054              		.align	1
 1055              		.syntax unified
 1056              		.thumb
 1057              		.thumb_func
 1058              		.type	hall_velocity_from_dv, %function
 1059              	hall_velocity_from_dv:
 1060              	.LFB438:
ARM GAS  C:\Users\DEVELO~1\AppData\Local\Temp\ccFr3SeA.s 			page 20


 1061              		.loc 4 365 72
 1062              		.cfi_startproc
 1063              		@ args = 0, pretend = 0, frame = 24
 1064              		@ frame_needed = 1, uses_anonymous_args = 0
 1065              		@ link register save eliminated.
 1066 0000 80B4     		push	{r7}
 1067              		.cfi_def_cfa_offset 4
 1068              		.cfi_offset 7, -4
 1069 0002 87B0     		sub	sp, sp, #28
 1070              		.cfi_def_cfa_offset 32
 1071 0004 00AF     		add	r7, sp, #0
 1072              		.cfi_def_cfa_register 7
 1073 0006 0346     		mov	r3, r0
 1074 0008 0A46     		mov	r2, r1
 1075 000a FB80     		strh	r3, [r7, #6]	@ movhi
 1076 000c 1346     		mov	r3, r2	@ movhi
 1077 000e BB80     		strh	r3, [r7, #4]	@ movhi
 1078              		.loc 4 366 6
 1079 0010 FB88     		ldrh	r3, [r7, #6]
 1080 0012 002B     		cmp	r3, #0
 1081 0014 01D1     		bne	.L57
 1082              		.loc 4 366 27 discriminator 1
 1083 0016 0123     		movs	r3, #1
 1084 0018 3EE0     		b	.L58
 1085              	.L57:
 1086              		.loc 4 368 12
 1087 001a FB88     		ldrh	r3, [r7, #6]
 1088 001c 1B0B     		lsrs	r3, r3, #12
 1089 001e FB82     		strh	r3, [r7, #22]	@ movhi
 1090              		.loc 4 369 12
 1091 0020 FB88     		ldrh	r3, [r7, #6]
 1092 0022 9B08     		lsrs	r3, r3, #2
 1093 0024 BB82     		strh	r3, [r7, #20]	@ movhi
 1094              		.loc 4 371 6
 1095 0026 FB8A     		ldrh	r3, [r7, #22]
 1096 0028 002B     		cmp	r3, #0
 1097 002a 01D1     		bne	.L59
 1098              		.loc 4 371 29 discriminator 1
 1099 002c 0123     		movs	r3, #1
 1100 002e FB82     		strh	r3, [r7, #22]	@ movhi
 1101              	.L59:
 1102              		.loc 4 372 18
 1103 0030 FB8A     		ldrh	r3, [r7, #22]	@ movhi
 1104 0032 0133     		adds	r3, r3, #1
 1105 0034 9BB2     		uxth	r3, r3
 1106              		.loc 4 372 6
 1107 0036 BA8A     		ldrh	r2, [r7, #20]
 1108 0038 9A42     		cmp	r2, r3
 1109 003a 02D8     		bhi	.L60
 1110              		.loc 4 372 52 discriminator 1
 1111 003c FB8A     		ldrh	r3, [r7, #22]	@ movhi
 1112 003e 0233     		adds	r3, r3, #2
 1113 0040 BB82     		strh	r3, [r7, #20]	@ movhi
 1114              	.L60:
 1115              		.loc 4 374 6
 1116 0042 BA88     		ldrh	r2, [r7, #4]
 1117 0044 FB8A     		ldrh	r3, [r7, #22]
ARM GAS  C:\Users\DEVELO~1\AppData\Local\Temp\ccFr3SeA.s 			page 21


 1118 0046 9A42     		cmp	r2, r3
 1119 0048 01D8     		bhi	.L61
 1120              		.loc 4 374 34 discriminator 1
 1121 004a 0123     		movs	r3, #1
 1122 004c 24E0     		b	.L58
 1123              	.L61:
 1124              		.loc 4 375 6
 1125 004e BA88     		ldrh	r2, [r7, #4]
 1126 0050 BB8A     		ldrh	r3, [r7, #20]
 1127 0052 9A42     		cmp	r2, r3
 1128 0054 01D3     		bcc	.L62
 1129              		.loc 4 375 34 discriminator 1
 1130 0056 7F23     		movs	r3, #127
 1131 0058 1EE0     		b	.L58
 1132              	.L62:
 1133              		.loc 4 377 37
 1134 005a BA88     		ldrh	r2, [r7, #4]
 1135 005c FB8A     		ldrh	r3, [r7, #22]
 1136 005e D31A     		subs	r3, r2, r3
 1137              		.loc 4 377 18
 1138 0060 1A46     		mov	r2, r3
 1139              		.loc 4 377 12
 1140 0062 1346     		mov	r3, r2
 1141 0064 9B01     		lsls	r3, r3, #6
 1142 0066 9B1A     		subs	r3, r3, r2
 1143 0068 5B00     		lsls	r3, r3, #1
 1144 006a FB60     		str	r3, [r7, #12]
 1145              		.loc 4 378 37
 1146 006c BA8A     		ldrh	r2, [r7, #20]
 1147 006e FB8A     		ldrh	r3, [r7, #22]
 1148 0070 D31A     		subs	r3, r2, r3
 1149              		.loc 4 378 12
 1150 0072 BB60     		str	r3, [r7, #8]
 1151              		.loc 4 379 26
 1152 0074 FA68     		ldr	r2, [r7, #12]
 1153 0076 BB68     		ldr	r3, [r7, #8]
 1154 0078 B2FBF3F3 		udiv	r3, r2, r3
 1155              		.loc 4 379 12
 1156 007c 0133     		adds	r3, r3, #1
 1157 007e 3B61     		str	r3, [r7, #16]
 1158              		.loc 4 381 6
 1159 0080 3B69     		ldr	r3, [r7, #16]
 1160 0082 002B     		cmp	r3, #0
 1161 0084 01D1     		bne	.L63
 1162              		.loc 4 381 17 discriminator 1
 1163 0086 0123     		movs	r3, #1
 1164 0088 3B61     		str	r3, [r7, #16]
 1165              	.L63:
 1166              		.loc 4 382 6
 1167 008a 3B69     		ldr	r3, [r7, #16]
 1168 008c 7F2B     		cmp	r3, #127
 1169 008e 01D9     		bls	.L64
 1170              		.loc 4 382 19 discriminator 1
 1171 0090 7F23     		movs	r3, #127
 1172 0092 3B61     		str	r3, [r7, #16]
 1173              	.L64:
 1174              		.loc 4 383 10
ARM GAS  C:\Users\DEVELO~1\AppData\Local\Temp\ccFr3SeA.s 			page 22


 1175 0094 3B69     		ldr	r3, [r7, #16]
 1176 0096 DBB2     		uxtb	r3, r3
 1177              	.L58:
 1178              		.loc 4 384 1
 1179 0098 1846     		mov	r0, r3
 1180 009a 1C37     		adds	r7, r7, #28
 1181              		.cfi_def_cfa_offset 4
 1182 009c BD46     		mov	sp, r7
 1183              		.cfi_def_cfa_register 13
 1184              		@ sp needed
 1185 009e 80BC     		pop	{r7}
 1186              		.cfi_restore 7
 1187              		.cfi_def_cfa_offset 0
 1188 00a0 7047     		bx	lr
 1189              		.cfi_endproc
 1190              	.LFE438:
 1191              		.size	hall_velocity_from_dv, .-hall_velocity_from_dv
 1192              		.section	.text.hall_velocity_from_time,"ax",%progbits
 1193              		.align	1
 1194              		.syntax unified
 1195              		.thumb
 1196              		.thumb_func
 1197              		.type	hall_velocity_from_time, %function
 1198              	hall_velocity_from_time:
 1199              	.LFB439:
 1200              		.loc 4 386 59
 1201              		.cfi_startproc
 1202              		@ args = 0, pretend = 0, frame = 24
 1203              		@ frame_needed = 1, uses_anonymous_args = 0
 1204              		@ link register save eliminated.
 1205 0000 80B4     		push	{r7}
 1206              		.cfi_def_cfa_offset 4
 1207              		.cfi_offset 7, -4
 1208 0002 87B0     		sub	sp, sp, #28
 1209              		.cfi_def_cfa_offset 32
 1210 0004 00AF     		add	r7, sp, #0
 1211              		.cfi_def_cfa_register 7
 1212 0006 0346     		mov	r3, r0
 1213 0008 FB80     		strh	r3, [r7, #6]	@ movhi
 1214              		.loc 4 388 6
 1215 000a FB88     		ldrh	r3, [r7, #6]
 1216 000c 022B     		cmp	r3, #2
 1217 000e 01D8     		bhi	.L66
 1218              		.loc 4 388 49 discriminator 1
 1219 0010 7F23     		movs	r3, #127
 1220 0012 20E0     		b	.L67
 1221              	.L66:
 1222              		.loc 4 389 6
 1223 0014 FB88     		ldrh	r3, [r7, #6]
 1224 0016 0D2B     		cmp	r3, #13
 1225 0018 01D9     		bls	.L68
 1226              		.loc 4 389 49 discriminator 1
 1227 001a 0123     		movs	r3, #1
 1228 001c 1BE0     		b	.L67
 1229              	.L68:
 1230              		.loc 4 391 63
 1231 001e FA88     		ldrh	r2, [r7, #6]
ARM GAS  C:\Users\DEVELO~1\AppData\Local\Temp\ccFr3SeA.s 			page 23


 1232 0020 1346     		mov	r3, r2
 1233 0022 9201     		lsls	r2, r2, #6
 1234 0024 9B1A     		subs	r3, r3, r2
 1235 0026 5B00     		lsls	r3, r3, #1
 1236              		.loc 4 391 12
 1237 0028 03F2E463 		addw	r3, r3, #1764
 1238 002c 3B61     		str	r3, [r7, #16]
 1239              		.loc 4 392 12
 1240 002e 0C23     		movs	r3, #12
 1241 0030 FB60     		str	r3, [r7, #12]
 1242              		.loc 4 393 26
 1243 0032 3A69     		ldr	r2, [r7, #16]
 1244 0034 FB68     		ldr	r3, [r7, #12]
 1245 0036 B2FBF3F3 		udiv	r3, r2, r3
 1246              		.loc 4 393 12
 1247 003a 0133     		adds	r3, r3, #1
 1248 003c 7B61     		str	r3, [r7, #20]
 1249              		.loc 4 395 6
 1250 003e 7B69     		ldr	r3, [r7, #20]
 1251 0040 002B     		cmp	r3, #0
 1252 0042 01D1     		bne	.L69
 1253              		.loc 4 395 17 discriminator 1
 1254 0044 0123     		movs	r3, #1
 1255 0046 7B61     		str	r3, [r7, #20]
 1256              	.L69:
 1257              		.loc 4 396 6
 1258 0048 7B69     		ldr	r3, [r7, #20]
 1259 004a 7F2B     		cmp	r3, #127
 1260 004c 01D9     		bls	.L70
 1261              		.loc 4 396 19 discriminator 1
 1262 004e 7F23     		movs	r3, #127
 1263 0050 7B61     		str	r3, [r7, #20]
 1264              	.L70:
 1265              		.loc 4 397 10
 1266 0052 7B69     		ldr	r3, [r7, #20]
 1267 0054 DBB2     		uxtb	r3, r3
 1268              	.L67:
 1269              		.loc 4 398 1
 1270 0056 1846     		mov	r0, r3
 1271 0058 1C37     		adds	r7, r7, #28
 1272              		.cfi_def_cfa_offset 4
 1273 005a BD46     		mov	sp, r7
 1274              		.cfi_def_cfa_register 13
 1275              		@ sp needed
 1276 005c 80BC     		pop	{r7}
 1277              		.cfi_restore 7
 1278              		.cfi_def_cfa_offset 0
 1279 005e 7047     		bx	lr
 1280              		.cfi_endproc
 1281              	.LFE439:
 1282              		.size	hall_velocity_from_time, .-hall_velocity_from_time
 1283              		.section	.text.hall_velocity_from_energy,"ax",%progbits
 1284              		.align	1
 1285              		.syntax unified
 1286              		.thumb
 1287              		.thumb_func
 1288              		.type	hall_velocity_from_energy, %function
ARM GAS  C:\Users\DEVELO~1\AppData\Local\Temp\ccFr3SeA.s 			page 24


 1289              	hall_velocity_from_energy:
 1290              	.LFB440:
 1291              		.loc 4 400 75
 1292              		.cfi_startproc
 1293              		@ args = 0, pretend = 0, frame = 24
 1294              		@ frame_needed = 1, uses_anonymous_args = 0
 1295              		@ link register save eliminated.
 1296 0000 80B4     		push	{r7}
 1297              		.cfi_def_cfa_offset 4
 1298              		.cfi_offset 7, -4
 1299 0002 87B0     		sub	sp, sp, #28
 1300              		.cfi_def_cfa_offset 32
 1301 0004 00AF     		add	r7, sp, #0
 1302              		.cfi_def_cfa_register 7
 1303 0006 0346     		mov	r3, r0
 1304 0008 0A46     		mov	r2, r1
 1305 000a FB80     		strh	r3, [r7, #6]	@ movhi
 1306 000c 1346     		mov	r3, r2	@ movhi
 1307 000e BB80     		strh	r3, [r7, #4]	@ movhi
 1308              		.loc 4 401 6
 1309 0010 FB88     		ldrh	r3, [r7, #6]
 1310 0012 002B     		cmp	r3, #0
 1311 0014 01D1     		bne	.L72
 1312              		.loc 4 401 27 discriminator 1
 1313 0016 0123     		movs	r3, #1
 1314 0018 3EE0     		b	.L73
 1315              	.L72:
 1316              		.loc 4 403 12
 1317 001a FB88     		ldrh	r3, [r7, #6]
 1318 001c 9B09     		lsrs	r3, r3, #6
 1319 001e FB82     		strh	r3, [r7, #22]	@ movhi
 1320              		.loc 4 404 12
 1321 0020 FB88     		ldrh	r3, [r7, #6]
 1322 0022 9B08     		lsrs	r3, r3, #2
 1323 0024 BB82     		strh	r3, [r7, #20]	@ movhi
 1324              		.loc 4 406 6
 1325 0026 FB8A     		ldrh	r3, [r7, #22]
 1326 0028 002B     		cmp	r3, #0
 1327 002a 01D1     		bne	.L74
 1328              		.loc 4 406 27 discriminator 1
 1329 002c 0123     		movs	r3, #1
 1330 002e FB82     		strh	r3, [r7, #22]	@ movhi
 1331              	.L74:
 1332              		.loc 4 407 17
 1333 0030 FB8A     		ldrh	r3, [r7, #22]	@ movhi
 1334 0032 0133     		adds	r3, r3, #1
 1335 0034 9BB2     		uxth	r3, r3
 1336              		.loc 4 407 6
 1337 0036 BA8A     		ldrh	r2, [r7, #20]
 1338 0038 9A42     		cmp	r2, r3
 1339 003a 02D8     		bhi	.L75
 1340              		.loc 4 407 49 discriminator 1
 1341 003c FB8A     		ldrh	r3, [r7, #22]	@ movhi
 1342 003e 0233     		adds	r3, r3, #2
 1343 0040 BB82     		strh	r3, [r7, #20]	@ movhi
 1344              	.L75:
 1345              		.loc 4 409 6
ARM GAS  C:\Users\DEVELO~1\AppData\Local\Temp\ccFr3SeA.s 			page 25


 1346 0042 BA88     		ldrh	r2, [r7, #4]
 1347 0044 FB8A     		ldrh	r3, [r7, #22]
 1348 0046 9A42     		cmp	r2, r3
 1349 0048 01D8     		bhi	.L76
 1350              		.loc 4 409 32 discriminator 1
 1351 004a 0123     		movs	r3, #1
 1352 004c 24E0     		b	.L73
 1353              	.L76:
 1354              		.loc 4 410 6
 1355 004e BA88     		ldrh	r2, [r7, #4]
 1356 0050 BB8A     		ldrh	r3, [r7, #20]
 1357 0052 9A42     		cmp	r2, r3
 1358 0054 01D3     		bcc	.L77
 1359              		.loc 4 410 32 discriminator 1
 1360 0056 7F23     		movs	r3, #127
 1361 0058 1EE0     		b	.L73
 1362              	.L77:
 1363              		.loc 4 412 36
 1364 005a BA88     		ldrh	r2, [r7, #4]
 1365 005c FB8A     		ldrh	r3, [r7, #22]
 1366 005e D31A     		subs	r3, r2, r3
 1367              		.loc 4 412 18
 1368 0060 1A46     		mov	r2, r3
 1369              		.loc 4 412 12
 1370 0062 1346     		mov	r3, r2
 1371 0064 9B01     		lsls	r3, r3, #6
 1372 0066 9B1A     		subs	r3, r3, r2
 1373 0068 5B00     		lsls	r3, r3, #1
 1374 006a FB60     		str	r3, [r7, #12]
 1375              		.loc 4 413 36
 1376 006c BA8A     		ldrh	r2, [r7, #20]
 1377 006e FB8A     		ldrh	r3, [r7, #22]
 1378 0070 D31A     		subs	r3, r2, r3
 1379              		.loc 4 413 12
 1380 0072 BB60     		str	r3, [r7, #8]
 1381              		.loc 4 414 26
 1382 0074 FA68     		ldr	r2, [r7, #12]
 1383 0076 BB68     		ldr	r3, [r7, #8]
 1384 0078 B2FBF3F3 		udiv	r3, r2, r3
 1385              		.loc 4 414 12
 1386 007c 0133     		adds	r3, r3, #1
 1387 007e 3B61     		str	r3, [r7, #16]
 1388              		.loc 4 416 6
 1389 0080 3B69     		ldr	r3, [r7, #16]
 1390 0082 002B     		cmp	r3, #0
 1391 0084 01D1     		bne	.L78
 1392              		.loc 4 416 17 discriminator 1
 1393 0086 0123     		movs	r3, #1
 1394 0088 3B61     		str	r3, [r7, #16]
 1395              	.L78:
 1396              		.loc 4 417 6
 1397 008a 3B69     		ldr	r3, [r7, #16]
 1398 008c 7F2B     		cmp	r3, #127
 1399 008e 01D9     		bls	.L79
 1400              		.loc 4 417 19 discriminator 1
 1401 0090 7F23     		movs	r3, #127
 1402 0092 3B61     		str	r3, [r7, #16]
ARM GAS  C:\Users\DEVELO~1\AppData\Local\Temp\ccFr3SeA.s 			page 26


 1403              	.L79:
 1404              		.loc 4 418 10
 1405 0094 3B69     		ldr	r3, [r7, #16]
 1406 0096 DBB2     		uxtb	r3, r3
 1407              	.L73:
 1408              		.loc 4 419 1
 1409 0098 1846     		mov	r0, r3
 1410 009a 1C37     		adds	r7, r7, #28
 1411              		.cfi_def_cfa_offset 4
 1412 009c BD46     		mov	sp, r7
 1413              		.cfi_def_cfa_register 13
 1414              		@ sp needed
 1415 009e 80BC     		pop	{r7}
 1416              		.cfi_restore 7
 1417              		.cfi_def_cfa_offset 0
 1418 00a0 7047     		bx	lr
 1419              		.cfi_endproc
 1420              	.LFE440:
 1421              		.size	hall_velocity_from_energy, .-hall_velocity_from_energy
 1422              		.section	.text.hall_velocity_compute,"ax",%progbits
 1423              		.align	1
 1424              		.syntax unified
 1425              		.thumb
 1426              		.thumb_func
 1427              		.type	hall_velocity_compute, %function
 1428              	hall_velocity_compute:
 1429              	.LFB441:
 1430              		.loc 4 421 72
 1431              		.cfi_startproc
 1432              		@ args = 0, pretend = 0, frame = 16
 1433              		@ frame_needed = 1, uses_anonymous_args = 0
 1434 0000 80B5     		push	{r7, lr}
 1435              		.cfi_def_cfa_offset 8
 1436              		.cfi_offset 7, -8
 1437              		.cfi_offset 14, -4
 1438 0002 84B0     		sub	sp, sp, #16
 1439              		.cfi_def_cfa_offset 24
 1440 0004 00AF     		add	r7, sp, #0
 1441              		.cfi_def_cfa_register 7
 1442 0006 7860     		str	r0, [r7, #4]
 1443 0008 0B46     		mov	r3, r1
 1444 000a 7B80     		strh	r3, [r7, #2]	@ movhi
 1445              		.loc 4 422 11
 1446 000c 0123     		movs	r3, #1
 1447 000e FB73     		strb	r3, [r7, #15]
 1448              		.loc 4 424 19
 1449 0010 194B     		ldr	r3, .L87
 1450 0012 1B78     		ldrb	r3, [r3]
 1451 0014 BB73     		strb	r3, [r7, #14]
 1452              		.loc 4 425 3
 1453 0016 BB7B     		ldrb	r3, [r7, #14]	@ zero_extendqisi2
 1454 0018 012B     		cmp	r3, #1
 1455 001a 02D0     		beq	.L81
 1456 001c 022B     		cmp	r3, #2
 1457 001e 08D0     		beq	.L82
 1458 0020 11E0     		b	.L86
 1459              	.L81:
ARM GAS  C:\Users\DEVELO~1\AppData\Local\Temp\ccFr3SeA.s 			page 27


 1460              		.loc 4 427 17
 1461 0022 7B68     		ldr	r3, [r7, #4]
 1462 0024 9B8A     		ldrh	r3, [r3, #20]
 1463 0026 1846     		mov	r0, r3
 1464 0028 FFF7FEFF 		bl	hall_velocity_from_time
 1465 002c 0346     		mov	r3, r0
 1466 002e FB73     		strb	r3, [r7, #15]
 1467              		.loc 4 428 7
 1468 0030 13E0     		b	.L84
 1469              	.L82:
 1470              		.loc 4 431 17
 1471 0032 7B68     		ldr	r3, [r7, #4]
 1472 0034 DA89     		ldrh	r2, [r3, #14]
 1473 0036 7B88     		ldrh	r3, [r7, #2]
 1474 0038 1146     		mov	r1, r2
 1475 003a 1846     		mov	r0, r3
 1476 003c FFF7FEFF 		bl	hall_velocity_from_energy
 1477 0040 0346     		mov	r3, r0
 1478 0042 FB73     		strb	r3, [r7, #15]
 1479              		.loc 4 432 7
 1480 0044 09E0     		b	.L84
 1481              	.L86:
 1482              		.loc 4 436 17
 1483 0046 7B68     		ldr	r3, [r7, #4]
 1484 0048 9A89     		ldrh	r2, [r3, #12]
 1485 004a 7B88     		ldrh	r3, [r7, #2]
 1486 004c 1146     		mov	r1, r2
 1487 004e 1846     		mov	r0, r3
 1488 0050 FFF7FEFF 		bl	hall_velocity_from_dv
 1489 0054 0346     		mov	r3, r0
 1490 0056 FB73     		strb	r3, [r7, #15]
 1491              		.loc 4 437 7
 1492 0058 00BF     		nop
 1493              	.L84:
 1494              		.loc 4 440 20
 1495 005a 084B     		ldr	r3, .L87+4
 1496 005c 1B78     		ldrb	r3, [r3]
 1497 005e 7B73     		strb	r3, [r7, #13]
 1498              		.loc 4 441 10
 1499 0060 7A7B     		ldrb	r2, [r7, #13]	@ zero_extendqisi2
 1500 0062 FB7B     		ldrb	r3, [r7, #15]	@ zero_extendqisi2
 1501 0064 1146     		mov	r1, r2
 1502 0066 1846     		mov	r0, r3
 1503 0068 FFF7FEFF 		bl	hall_apply_curve
 1504 006c 0346     		mov	r3, r0
 1505              		.loc 4 442 1
 1506 006e 1846     		mov	r0, r3
 1507 0070 1037     		adds	r7, r7, #16
 1508              		.cfi_def_cfa_offset 8
 1509 0072 BD46     		mov	sp, r7
 1510              		.cfi_def_cfa_register 13
 1511              		@ sp needed
 1512 0074 80BD     		pop	{r7, pc}
 1513              	.L88:
 1514 0076 00BF     		.align	2
 1515              	.L87:
 1516 0078 00000000 		.word	g_vel_mode
ARM GAS  C:\Users\DEVELO~1\AppData\Local\Temp\ccFr3SeA.s 			page 28


 1517 007c 00000000 		.word	g_vel_curve
 1518              		.cfi_endproc
 1519              	.LFE441:
 1520              		.size	hall_velocity_compute, .-hall_velocity_compute
 1521              		.section	.text.hall_process_channel,"ax",%progbits
 1522              		.align	1
 1523              		.syntax unified
 1524              		.thumb
 1525              		.thumb_func
 1526              		.type	hall_process_channel, %function
 1527              	hall_process_channel:
 1528              	.LFB442:
 1529              		.loc 4 446 63
 1530              		.cfi_startproc
 1531              		@ args = 0, pretend = 0, frame = 24
 1532              		@ frame_needed = 1, uses_anonymous_args = 0
 1533 0000 80B5     		push	{r7, lr}
 1534              		.cfi_def_cfa_offset 8
 1535              		.cfi_offset 7, -8
 1536              		.cfi_offset 14, -4
 1537 0002 86B0     		sub	sp, sp, #24
 1538              		.cfi_def_cfa_offset 32
 1539 0004 00AF     		add	r7, sp, #0
 1540              		.cfi_def_cfa_register 7
 1541 0006 0346     		mov	r3, r0
 1542 0008 0A46     		mov	r2, r1
 1543 000a FB71     		strb	r3, [r7, #7]
 1544 000c 1346     		mov	r3, r2	@ movhi
 1545 000e BB80     		strh	r3, [r7, #4]	@ movhi
 1546              		.loc 4 448 31
 1547 0010 FA79     		ldrb	r2, [r7, #7]	@ zero_extendqisi2
 1548              		.loc 4 448 18
 1549 0012 1346     		mov	r3, r2
 1550 0014 5B00     		lsls	r3, r3, #1
 1551 0016 1344     		add	r3, r3, r2
 1552 0018 DB00     		lsls	r3, r3, #3
 1553 001a 754A     		ldr	r2, .L104
 1554 001c 1344     		add	r3, r3, r2
 1555 001e FB60     		str	r3, [r7, #12]
 1556              		.loc 4 451 14
 1557 0020 FB68     		ldr	r3, [r7, #12]
 1558 0022 1B88     		ldrh	r3, [r3]
 1559              		.loc 4 451 6
 1560 0024 BA88     		ldrh	r2, [r7, #4]
 1561 0026 9A42     		cmp	r2, r3
 1562 0028 02D2     		bcs	.L90
 1563              		.loc 4 451 28 discriminator 1
 1564 002a FB68     		ldr	r3, [r7, #12]
 1565 002c BA88     		ldrh	r2, [r7, #4]	@ movhi
 1566 002e 1A80     		strh	r2, [r3]	@ movhi
 1567              	.L90:
 1568              		.loc 4 452 14
 1569 0030 FB68     		ldr	r3, [r7, #12]
 1570 0032 5B88     		ldrh	r3, [r3, #2]
 1571              		.loc 4 452 6
 1572 0034 BA88     		ldrh	r2, [r7, #4]
 1573 0036 9A42     		cmp	r2, r3
ARM GAS  C:\Users\DEVELO~1\AppData\Local\Temp\ccFr3SeA.s 			page 29


 1574 0038 02D9     		bls	.L91
 1575              		.loc 4 452 28 discriminator 1
 1576 003a FB68     		ldr	r3, [r7, #12]
 1577 003c BA88     		ldrh	r2, [r7, #4]	@ movhi
 1578 003e 5A80     		strh	r2, [r3, #2]	@ movhi
 1579              	.L91:
 1580              		.loc 4 455 3
 1581 0040 F868     		ldr	r0, [r7, #12]
 1582 0042 FFF7FEFF 		bl	hall_update_triggers
 1583              		.loc 4 458 18
 1584 0046 FB68     		ldr	r3, [r7, #12]
 1585 0048 5A7A     		ldrb	r2, [r3, #9]	@ zero_extendqisi2
 1586              		.loc 4 458 15
 1587 004a FB68     		ldr	r3, [r7, #12]
 1588 004c 1A72     		strb	r2, [r3, #8]
 1589              		.loc 4 461 8
 1590 004e F868     		ldr	r0, [r7, #12]
 1591 0050 FFF7FEFF 		bl	hall_range_valid
 1592 0054 0346     		mov	r3, r0
 1593              		.loc 4 461 7
 1594 0056 83F00103 		eor	r3, r3, #1
 1595 005a DBB2     		uxtb	r3, r3
 1596              		.loc 4 461 6
 1597 005c 002B     		cmp	r3, #0
 1598 005e 15D0     		beq	.L92
 1599              		.loc 4 462 17
 1600 0060 FB68     		ldr	r3, [r7, #12]
 1601 0062 0022     		movs	r2, #0
 1602 0064 5A72     		strb	r2, [r3, #9]
 1603              		.loc 4 463 17
 1604 0066 FB68     		ldr	r3, [r7, #12]
 1605 0068 BA88     		ldrh	r2, [r7, #4]	@ movhi
 1606 006a 5A81     		strh	r2, [r3, #10]	@ movhi
 1607              		.loc 4 464 16
 1608 006c FB68     		ldr	r3, [r7, #12]
 1609 006e 0022     		movs	r2, #0
 1610 0070 9A81     		strh	r2, [r3, #12]	@ movhi
 1611              		.loc 4 465 15
 1612 0072 FB68     		ldr	r3, [r7, #12]
 1613 0074 0022     		movs	r2, #0
 1614 0076 DA81     		strh	r2, [r3, #14]	@ movhi
 1615              		.loc 4 466 19
 1616 0078 FB68     		ldr	r3, [r7, #12]
 1617 007a 0022     		movs	r2, #0
 1618 007c 9A82     		strh	r2, [r3, #20]	@ movhi
 1619              		.loc 4 467 20
 1620 007e FB68     		ldr	r3, [r7, #12]
 1621 0080 0022     		movs	r2, #0
 1622 0082 9A75     		strb	r2, [r3, #22]
 1623              		.loc 4 468 20
 1624 0084 FB68     		ldr	r3, [r7, #12]
 1625 0086 0022     		movs	r2, #0
 1626 0088 DA75     		strb	r2, [r3, #23]
 1627              		.loc 4 469 5
 1628 008a ADE0     		b	.L89
 1629              	.L92:
 1630              		.loc 4 475 12
ARM GAS  C:\Users\DEVELO~1\AppData\Local\Temp\ccFr3SeA.s 			page 30


 1631 008c 0023     		movs	r3, #0
 1632 008e FB82     		strh	r3, [r7, #22]	@ movhi
 1633              		.loc 4 476 14
 1634 0090 FB68     		ldr	r3, [r7, #12]
 1635 0092 5B89     		ldrh	r3, [r3, #10]
 1636              		.loc 4 476 6
 1637 0094 BA88     		ldrh	r2, [r7, #4]
 1638 0096 9A42     		cmp	r2, r3
 1639 0098 04D9     		bls	.L94
 1640              		.loc 4 476 49 discriminator 1
 1641 009a FB68     		ldr	r3, [r7, #12]
 1642 009c 5B89     		ldrh	r3, [r3, #10]
 1643              		.loc 4 476 29 discriminator 1
 1644 009e BA88     		ldrh	r2, [r7, #4]	@ movhi
 1645 00a0 D31A     		subs	r3, r2, r3
 1646 00a2 FB82     		strh	r3, [r7, #22]	@ movhi
 1647              	.L94:
 1648              		.loc 4 477 15
 1649 00a4 FB68     		ldr	r3, [r7, #12]
 1650 00a6 BA88     		ldrh	r2, [r7, #4]	@ movhi
 1651 00a8 5A81     		strh	r2, [r3, #10]	@ movhi
 1652              		.loc 4 480 9
 1653 00aa FB68     		ldr	r3, [r7, #12]
 1654 00ac 5B7A     		ldrb	r3, [r3, #9]	@ zero_extendqisi2
 1655              		.loc 4 480 6
 1656 00ae 002B     		cmp	r3, #0
 1657 00b0 10D1     		bne	.L95
 1658              		.loc 4 480 39 discriminator 1
 1659 00b2 FB68     		ldr	r3, [r7, #12]
 1660 00b4 9B88     		ldrh	r3, [r3, #4]
 1661              		.loc 4 480 27 discriminator 1
 1662 00b6 BA88     		ldrh	r2, [r7, #4]
 1663 00b8 9A42     		cmp	r2, r3
 1664 00ba 0BD8     		bhi	.L95
 1665              		.loc 4 481 16
 1666 00bc FB68     		ldr	r3, [r7, #12]
 1667 00be 0022     		movs	r2, #0
 1668 00c0 9A81     		strh	r2, [r3, #12]	@ movhi
 1669              		.loc 4 482 15
 1670 00c2 FB68     		ldr	r3, [r7, #12]
 1671 00c4 0022     		movs	r2, #0
 1672 00c6 DA81     		strh	r2, [r3, #14]	@ movhi
 1673              		.loc 4 483 19
 1674 00c8 FB68     		ldr	r3, [r7, #12]
 1675 00ca 0022     		movs	r2, #0
 1676 00cc 9A82     		strh	r2, [r3, #20]	@ movhi
 1677              		.loc 4 484 20
 1678 00ce FB68     		ldr	r3, [r7, #12]
 1679 00d0 0022     		movs	r2, #0
 1680 00d2 9A75     		strb	r2, [r3, #22]
 1681              	.L95:
 1682              		.loc 4 488 8
 1683 00d4 FB68     		ldr	r3, [r7, #12]
 1684 00d6 5B7A     		ldrb	r3, [r3, #9]	@ zero_extendqisi2
 1685              		.loc 4 488 6
 1686 00d8 002B     		cmp	r3, #0
 1687 00da 3FD1     		bne	.L96
ARM GAS  C:\Users\DEVELO~1\AppData\Local\Temp\ccFr3SeA.s 			page 31


 1688              	.LBB29:
 1689              		.loc 4 489 15
 1690 00dc FB68     		ldr	r3, [r7, #12]
 1691 00de 9B89     		ldrh	r3, [r3, #12]
 1692              		.loc 4 489 8
 1693 00e0 FA8A     		ldrh	r2, [r7, #22]
 1694 00e2 9A42     		cmp	r2, r3
 1695 00e4 02D9     		bls	.L97
 1696              		.loc 4 489 37 discriminator 1
 1697 00e6 FB68     		ldr	r3, [r7, #12]
 1698 00e8 FA8A     		ldrh	r2, [r7, #22]	@ movhi
 1699 00ea 9A81     		strh	r2, [r3, #12]	@ movhi
 1700              	.L97:
 1701              		.loc 4 492 29
 1702 00ec FB68     		ldr	r3, [r7, #12]
 1703 00ee DB89     		ldrh	r3, [r3, #14]
 1704              		.loc 4 492 18
 1705 00f0 1A46     		mov	r2, r3
 1706              		.loc 4 492 40
 1707 00f2 FB8A     		ldrh	r3, [r7, #22]
 1708              		.loc 4 492 14
 1709 00f4 1344     		add	r3, r3, r2
 1710 00f6 3B61     		str	r3, [r7, #16]
 1711              		.loc 4 493 8
 1712 00f8 3B69     		ldr	r3, [r7, #16]
 1713 00fa B3F5803F 		cmp	r3, #65536
 1714 00fe 02D3     		bcc	.L98
 1715              		.loc 4 493 23 discriminator 1
 1716 0100 4FF6FF73 		movw	r3, #65535
 1717 0104 3B61     		str	r3, [r7, #16]
 1718              	.L98:
 1719              		.loc 4 494 17
 1720 0106 3B69     		ldr	r3, [r7, #16]
 1721 0108 9AB2     		uxth	r2, r3
 1722              		.loc 4 494 15
 1723 010a FB68     		ldr	r3, [r7, #12]
 1724 010c DA81     		strh	r2, [r3, #14]	@ movhi
 1725              		.loc 4 497 11
 1726 010e FB68     		ldr	r3, [r7, #12]
 1727 0110 9B7D     		ldrb	r3, [r3, #22]	@ zero_extendqisi2
 1728              		.loc 4 497 8
 1729 0112 002B     		cmp	r3, #0
 1730 0114 0AD1     		bne	.L99
 1731              		.loc 4 497 36 discriminator 1
 1732 0116 FB68     		ldr	r3, [r7, #12]
 1733 0118 1B8A     		ldrh	r3, [r3, #16]
 1734              		.loc 4 497 25 discriminator 1
 1735 011a BA88     		ldrh	r2, [r7, #4]
 1736 011c 9A42     		cmp	r2, r3
 1737 011e 05D3     		bcc	.L99
 1738              		.loc 4 498 22
 1739 0120 FB68     		ldr	r3, [r7, #12]
 1740 0122 0122     		movs	r2, #1
 1741 0124 9A75     		strb	r2, [r3, #22]
 1742              		.loc 4 499 21
 1743 0126 FB68     		ldr	r3, [r7, #12]
 1744 0128 0022     		movs	r2, #0
ARM GAS  C:\Users\DEVELO~1\AppData\Local\Temp\ccFr3SeA.s 			page 32


 1745 012a 9A82     		strh	r2, [r3, #20]	@ movhi
 1746              	.L99:
 1747              		.loc 4 501 10
 1748 012c FB68     		ldr	r3, [r7, #12]
 1749 012e 9B7D     		ldrb	r3, [r3, #22]	@ zero_extendqisi2
 1750              		.loc 4 501 8
 1751 0130 002B     		cmp	r3, #0
 1752 0132 13D0     		beq	.L96
 1753              		.loc 4 502 12
 1754 0134 FB68     		ldr	r3, [r7, #12]
 1755 0136 9B8A     		ldrh	r3, [r3, #20]
 1756              		.loc 4 502 10
 1757 0138 4FF6FF72 		movw	r2, #65535
 1758 013c 9342     		cmp	r3, r2
 1759 013e 05D0     		beq	.L100
 1760              		.loc 4 502 36 discriminator 1
 1761 0140 FB68     		ldr	r3, [r7, #12]
 1762 0142 9B8A     		ldrh	r3, [r3, #20]
 1763              		.loc 4 502 48 discriminator 1
 1764 0144 0133     		adds	r3, r3, #1
 1765 0146 9AB2     		uxth	r2, r3
 1766 0148 FB68     		ldr	r3, [r7, #12]
 1767 014a 9A82     		strh	r2, [r3, #20]	@ movhi
 1768              	.L100:
 1769              		.loc 4 504 19
 1770 014c FB68     		ldr	r3, [r7, #12]
 1771 014e 5B8A     		ldrh	r3, [r3, #18]
 1772              		.loc 4 504 10
 1773 0150 BA88     		ldrh	r2, [r7, #4]
 1774 0152 9A42     		cmp	r2, r3
 1775 0154 02D3     		bcc	.L96
 1776              		.loc 4 506 24
 1777 0156 FB68     		ldr	r3, [r7, #12]
 1778 0158 0022     		movs	r2, #0
 1779 015a 9A75     		strb	r2, [r3, #22]
 1780              	.L96:
 1781              	.LBE29:
 1782              		.loc 4 513 9
 1783 015c FB68     		ldr	r3, [r7, #12]
 1784 015e 5B7A     		ldrb	r3, [r3, #9]	@ zero_extendqisi2
 1785              		.loc 4 513 6
 1786 0160 002B     		cmp	r3, #0
 1787 0162 1CD1     		bne	.L101
 1788              		.loc 4 513 39 discriminator 1
 1789 0164 FB68     		ldr	r3, [r7, #12]
 1790 0166 DB88     		ldrh	r3, [r3, #6]
 1791              		.loc 4 513 27 discriminator 1
 1792 0168 BA88     		ldrh	r2, [r7, #4]
 1793 016a 9A42     		cmp	r2, r3
 1794 016c 17D3     		bcc	.L101
 1795              	.LBB30:
 1796              		.loc 4 514 17
 1797 016e FB68     		ldr	r3, [r7, #12]
 1798 0170 0122     		movs	r2, #1
 1799 0172 5A72     		strb	r2, [r3, #9]
 1800              		.loc 4 517 34
 1801 0174 FB68     		ldr	r3, [r7, #12]
ARM GAS  C:\Users\DEVELO~1\AppData\Local\Temp\ccFr3SeA.s 			page 33


 1802 0176 5A88     		ldrh	r2, [r3, #2]
 1803              		.loc 4 517 43
 1804 0178 FB68     		ldr	r3, [r7, #12]
 1805 017a 1B88     		ldrh	r3, [r3]
 1806              		.loc 4 517 14
 1807 017c D31A     		subs	r3, r2, r3
 1808 017e 7B81     		strh	r3, [r7, #10]	@ movhi
 1809              		.loc 4 518 22
 1810 0180 7B89     		ldrh	r3, [r7, #10]
 1811 0182 1946     		mov	r1, r3
 1812 0184 F868     		ldr	r0, [r7, #12]
 1813 0186 FFF7FEFF 		bl	hall_velocity_compute
 1814 018a 0346     		mov	r3, r0
 1815 018c 1A46     		mov	r2, r3
 1816              		.loc 4 518 20
 1817 018e FB68     		ldr	r3, [r7, #12]
 1818 0190 DA75     		strb	r2, [r3, #23]
 1819              		.loc 4 519 18
 1820 0192 FB79     		ldrb	r3, [r7, #7]	@ zero_extendqisi2
 1821              		.loc 4 519 29
 1822 0194 FA68     		ldr	r2, [r7, #12]
 1823 0196 D17D     		ldrb	r1, [r2, #23]	@ zero_extendqisi2
 1824              		.loc 4 519 26
 1825 0198 164A     		ldr	r2, .L104+4
 1826 019a D154     		strb	r1, [r2, r3]
 1827              	.LBE30:
 1828              		.loc 4 513 51
 1829 019c 0BE0     		b	.L102
 1830              	.L101:
 1831              		.loc 4 521 16
 1832 019e FB68     		ldr	r3, [r7, #12]
 1833 01a0 5B7A     		ldrb	r3, [r3, #9]	@ zero_extendqisi2
 1834              		.loc 4 521 13
 1835 01a2 002B     		cmp	r3, #0
 1836 01a4 07D0     		beq	.L102
 1837              		.loc 4 521 46 discriminator 1
 1838 01a6 FB68     		ldr	r3, [r7, #12]
 1839 01a8 9B88     		ldrh	r3, [r3, #4]
 1840              		.loc 4 521 34 discriminator 1
 1841 01aa BA88     		ldrh	r2, [r7, #4]
 1842 01ac 9A42     		cmp	r2, r3
 1843 01ae 02D8     		bhi	.L102
 1844              		.loc 4 522 17
 1845 01b0 FB68     		ldr	r3, [r7, #12]
 1846 01b2 0022     		movs	r2, #0
 1847 01b4 5A72     		strb	r2, [r3, #9]
 1848              	.L102:
 1849              		.loc 4 526 9
 1850 01b6 FB68     		ldr	r3, [r7, #12]
 1851 01b8 1B7A     		ldrb	r3, [r3, #8]	@ zero_extendqisi2
 1852              		.loc 4 526 6
 1853 01ba 002B     		cmp	r3, #0
 1854 01bc 08D1     		bne	.L103
 1855              		.loc 4 526 32 discriminator 1
 1856 01be FB68     		ldr	r3, [r7, #12]
 1857 01c0 5B7A     		ldrb	r3, [r3, #9]	@ zero_extendqisi2
 1858              		.loc 4 526 27 discriminator 1
ARM GAS  C:\Users\DEVELO~1\AppData\Local\Temp\ccFr3SeA.s 			page 34


 1859 01c2 012B     		cmp	r3, #1
 1860 01c4 04D1     		bne	.L103
 1861              		.loc 4 527 17
 1862 01c6 FB79     		ldrb	r3, [r7, #7]	@ zero_extendqisi2
 1863              		.loc 4 527 25
 1864 01c8 0B4A     		ldr	r2, .L104+8
 1865 01ca 0121     		movs	r1, #1
 1866 01cc D154     		strb	r1, [r2, r3]
 1867 01ce 0BE0     		b	.L89
 1868              	.L103:
 1869              		.loc 4 528 16
 1870 01d0 FB68     		ldr	r3, [r7, #12]
 1871 01d2 1B7A     		ldrb	r3, [r3, #8]	@ zero_extendqisi2
 1872              		.loc 4 528 13
 1873 01d4 012B     		cmp	r3, #1
 1874 01d6 07D1     		bne	.L89
 1875              		.loc 4 528 39 discriminator 1
 1876 01d8 FB68     		ldr	r3, [r7, #12]
 1877 01da 5B7A     		ldrb	r3, [r3, #9]	@ zero_extendqisi2
 1878              		.loc 4 528 34 discriminator 1
 1879 01dc 002B     		cmp	r3, #0
 1880 01de 03D1     		bne	.L89
 1881              		.loc 4 529 18
 1882 01e0 FB79     		ldrb	r3, [r7, #7]	@ zero_extendqisi2
 1883              		.loc 4 529 26
 1884 01e2 064A     		ldr	r2, .L104+12
 1885 01e4 0121     		movs	r1, #1
 1886 01e6 D154     		strb	r1, [r2, r3]
 1887              	.L89:
 1888              		.loc 4 531 1
 1889 01e8 1837     		adds	r7, r7, #24
 1890              		.cfi_def_cfa_offset 8
 1891 01ea BD46     		mov	sp, r7
 1892              		.cfi_def_cfa_register 13
 1893              		@ sp needed
 1894 01ec 80BD     		pop	{r7, pc}
 1895              	.L105:
 1896 01ee 00BF     		.align	2
 1897              	.L104:
 1898 01f0 00000000 		.word	hall_btn
 1899 01f4 00000000 		.word	hall_velocity
 1900 01f8 00000000 		.word	hall_note_on
 1901 01fc 00000000 		.word	hall_note_off
 1902              		.cfi_endproc
 1903              	.LFE442:
 1904              		.size	hall_process_channel, .-hall_process_channel
 1905              		.section	.text.hall_init,"ax",%progbits
 1906              		.align	1
 1907              		.global	hall_init
 1908              		.syntax unified
 1909              		.thumb
 1910              		.thumb_func
 1911              		.type	hall_init, %function
 1912              	hall_init:
 1913              	.LFB443:
 1914              		.loc 4 535 22
 1915              		.cfi_startproc
ARM GAS  C:\Users\DEVELO~1\AppData\Local\Temp\ccFr3SeA.s 			page 35


 1916              		@ args = 0, pretend = 0, frame = 8
 1917              		@ frame_needed = 1, uses_anonymous_args = 0
 1918 0000 80B5     		push	{r7, lr}
 1919              		.cfi_def_cfa_offset 8
 1920              		.cfi_offset 7, -8
 1921              		.cfi_offset 14, -4
 1922 0002 82B0     		sub	sp, sp, #8
 1923              		.cfi_def_cfa_offset 16
 1924 0004 00AF     		add	r7, sp, #0
 1925              		.cfi_def_cfa_register 7
 1926              		.loc 4 536 7
 1927 0006 794B     		ldr	r3, .L112
 1928 0008 1B78     		ldrb	r3, [r3]	@ zero_extendqisi2
 1929              		.loc 4 536 6
 1930 000a 002B     		cmp	r3, #0
 1931 000c 40F0EA80 		bne	.L111
 1932              		.loc 4 539 3
 1933 0010 0122     		movs	r2, #1
 1934 0012 1021     		movs	r1, #16
 1935 0014 7648     		ldr	r0, .L112+4
 1936 0016 FFF7FEFF 		bl	_pal_lld_setgroupmode
 1937              		.loc 4 540 3
 1938 001a 0122     		movs	r2, #1
 1939 001c 2021     		movs	r1, #32
 1940 001e 7448     		ldr	r0, .L112+4
 1941 0020 FFF7FEFF 		bl	_pal_lld_setgroupmode
 1942              		.loc 4 541 3
 1943 0024 0122     		movs	r2, #1
 1944 0026 4021     		movs	r1, #64
 1945 0028 7148     		ldr	r0, .L112+4
 1946 002a FFF7FEFF 		bl	_pal_lld_setgroupmode
 1947              		.loc 4 544 3
 1948 002e 0322     		movs	r2, #3
 1949 0030 1021     		movs	r1, #16
 1950 0032 7048     		ldr	r0, .L112+8
 1951 0034 FFF7FEFF 		bl	_pal_lld_setgroupmode
 1952              		.loc 4 545 3
 1953 0038 0322     		movs	r2, #3
 1954 003a 8021     		movs	r1, #128
 1955 003c 6C48     		ldr	r0, .L112+4
 1956 003e FFF7FEFF 		bl	_pal_lld_setgroupmode
 1957              	.LBB31:
 1958              		.loc 4 547 16
 1959 0042 0023     		movs	r3, #0
 1960 0044 FB71     		strb	r3, [r7, #7]
 1961              		.loc 4 547 3
 1962 0046 A8E0     		b	.L109
 1963              	.L110:
 1964              		.loc 4 548 16 discriminator 3
 1965 0048 FB79     		ldrb	r3, [r7, #7]	@ zero_extendqisi2
 1966              		.loc 4 548 20 discriminator 3
 1967 004a 6B4A     		ldr	r2, .L112+12
 1968 004c 0021     		movs	r1, #0
 1969 004e 22F81310 		strh	r1, [r2, r3, lsl #1]	@ movhi
 1970              		.loc 4 549 17 discriminator 3
 1971 0052 FB79     		ldrb	r3, [r7, #7]	@ zero_extendqisi2
 1972              		.loc 4 549 21 discriminator 3
ARM GAS  C:\Users\DEVELO~1\AppData\Local\Temp\ccFr3SeA.s 			page 36


 1973 0054 694A     		ldr	r2, .L112+16
 1974 0056 0021     		movs	r1, #0
 1975 0058 D154     		strb	r1, [r2, r3]
 1976              		.loc 4 550 18 discriminator 3
 1977 005a FB79     		ldrb	r3, [r7, #7]	@ zero_extendqisi2
 1978              		.loc 4 550 22 discriminator 3
 1979 005c 684A     		ldr	r2, .L112+20
 1980 005e 0021     		movs	r1, #0
 1981 0060 D154     		strb	r1, [r2, r3]
 1982              		.loc 4 552 18 discriminator 3
 1983 0062 FB79     		ldrb	r3, [r7, #7]	@ zero_extendqisi2
 1984              		.loc 4 552 22 discriminator 3
 1985 0064 674A     		ldr	r2, .L112+24
 1986 0066 0021     		movs	r1, #0
 1987 0068 D154     		strb	r1, [r2, r3]
 1988              		.loc 4 553 18 discriminator 3
 1989 006a FB79     		ldrb	r3, [r7, #7]	@ zero_extendqisi2
 1990              		.loc 4 553 22 discriminator 3
 1991 006c 664A     		ldr	r2, .L112+28
 1992 006e 0021     		movs	r1, #0
 1993 0070 D154     		strb	r1, [r2, r3]
 1994              		.loc 4 554 20 discriminator 3
 1995 0072 FB79     		ldrb	r3, [r7, #7]	@ zero_extendqisi2
 1996              		.loc 4 554 24 discriminator 3
 1997 0074 654A     		ldr	r2, .L112+32
 1998 0076 0021     		movs	r1, #0
 1999 0078 D154     		strb	r1, [r2, r3]
 2000              		.loc 4 556 16 discriminator 3
 2001 007a FA79     		ldrb	r2, [r7, #7]	@ zero_extendqisi2
 2002              		.loc 4 556 21 discriminator 3
 2003 007c 6449     		ldr	r1, .L112+36
 2004 007e 1346     		mov	r3, r2
 2005 0080 5B00     		lsls	r3, r3, #1
 2006 0082 1344     		add	r3, r3, r2
 2007 0084 DB00     		lsls	r3, r3, #3
 2008 0086 0B44     		add	r3, r3, r1
 2009 0088 4FF6FF72 		movw	r2, #65535
 2010 008c 1A80     		strh	r2, [r3]	@ movhi
 2011              		.loc 4 557 16 discriminator 3
 2012 008e FA79     		ldrb	r2, [r7, #7]	@ zero_extendqisi2
 2013              		.loc 4 557 21 discriminator 3
 2014 0090 5F49     		ldr	r1, .L112+36
 2015 0092 1346     		mov	r3, r2
 2016 0094 5B00     		lsls	r3, r3, #1
 2017 0096 1344     		add	r3, r3, r2
 2018 0098 DB00     		lsls	r3, r3, #3
 2019 009a 0B44     		add	r3, r3, r1
 2020 009c 0233     		adds	r3, r3, #2
 2021 009e 0022     		movs	r2, #0
 2022 00a0 1A80     		strh	r2, [r3]	@ movhi
 2023              		.loc 4 558 16 discriminator 3
 2024 00a2 FA79     		ldrb	r2, [r7, #7]	@ zero_extendqisi2
 2025              		.loc 4 558 25 discriminator 3
 2026 00a4 5A49     		ldr	r1, .L112+36
 2027 00a6 1346     		mov	r3, r2
 2028 00a8 5B00     		lsls	r3, r3, #1
 2029 00aa 1344     		add	r3, r3, r2
ARM GAS  C:\Users\DEVELO~1\AppData\Local\Temp\ccFr3SeA.s 			page 37


 2030 00ac DB00     		lsls	r3, r3, #3
 2031 00ae 0B44     		add	r3, r3, r1
 2032 00b0 0433     		adds	r3, r3, #4
 2033 00b2 4FF6FF72 		movw	r2, #65535
 2034 00b6 1A80     		strh	r2, [r3]	@ movhi
 2035              		.loc 4 559 16 discriminator 3
 2036 00b8 FA79     		ldrb	r2, [r7, #7]	@ zero_extendqisi2
 2037              		.loc 4 559 25 discriminator 3
 2038 00ba 5549     		ldr	r1, .L112+36
 2039 00bc 1346     		mov	r3, r2
 2040 00be 5B00     		lsls	r3, r3, #1
 2041 00c0 1344     		add	r3, r3, r2
 2042 00c2 DB00     		lsls	r3, r3, #3
 2043 00c4 0B44     		add	r3, r3, r1
 2044 00c6 0633     		adds	r3, r3, #6
 2045 00c8 0022     		movs	r2, #0
 2046 00ca 1A80     		strh	r2, [r3]	@ movhi
 2047              		.loc 4 561 16 discriminator 3
 2048 00cc FA79     		ldrb	r2, [r7, #7]	@ zero_extendqisi2
 2049              		.loc 4 561 26 discriminator 3
 2050 00ce 5049     		ldr	r1, .L112+36
 2051 00d0 1346     		mov	r3, r2
 2052 00d2 5B00     		lsls	r3, r3, #1
 2053 00d4 1344     		add	r3, r3, r2
 2054 00d6 DB00     		lsls	r3, r3, #3
 2055 00d8 0B44     		add	r3, r3, r1
 2056 00da 0833     		adds	r3, r3, #8
 2057 00dc 0022     		movs	r2, #0
 2058 00de 1A70     		strb	r2, [r3]
 2059              		.loc 4 562 16 discriminator 3
 2060 00e0 FA79     		ldrb	r2, [r7, #7]	@ zero_extendqisi2
 2061              		.loc 4 562 26 discriminator 3
 2062 00e2 4B49     		ldr	r1, .L112+36
 2063 00e4 1346     		mov	r3, r2
 2064 00e6 5B00     		lsls	r3, r3, #1
 2065 00e8 1344     		add	r3, r3, r2
 2066 00ea DB00     		lsls	r3, r3, #3
 2067 00ec 0B44     		add	r3, r3, r1
 2068 00ee 0933     		adds	r3, r3, #9
 2069 00f0 0022     		movs	r2, #0
 2070 00f2 1A70     		strb	r2, [r3]
 2071              		.loc 4 564 16 discriminator 3
 2072 00f4 FA79     		ldrb	r2, [r7, #7]	@ zero_extendqisi2
 2073              		.loc 4 564 26 discriminator 3
 2074 00f6 4649     		ldr	r1, .L112+36
 2075 00f8 1346     		mov	r3, r2
 2076 00fa 5B00     		lsls	r3, r3, #1
 2077 00fc 1344     		add	r3, r3, r2
 2078 00fe DB00     		lsls	r3, r3, #3
 2079 0100 0B44     		add	r3, r3, r1
 2080 0102 0A33     		adds	r3, r3, #10
 2081 0104 0022     		movs	r2, #0
 2082 0106 1A80     		strh	r2, [r3]	@ movhi
 2083              		.loc 4 565 16 discriminator 3
 2084 0108 FA79     		ldrb	r2, [r7, #7]	@ zero_extendqisi2
 2085              		.loc 4 565 25 discriminator 3
 2086 010a 4149     		ldr	r1, .L112+36
ARM GAS  C:\Users\DEVELO~1\AppData\Local\Temp\ccFr3SeA.s 			page 38


 2087 010c 1346     		mov	r3, r2
 2088 010e 5B00     		lsls	r3, r3, #1
 2089 0110 1344     		add	r3, r3, r2
 2090 0112 DB00     		lsls	r3, r3, #3
 2091 0114 0B44     		add	r3, r3, r1
 2092 0116 0C33     		adds	r3, r3, #12
 2093 0118 0022     		movs	r2, #0
 2094 011a 1A80     		strh	r2, [r3]	@ movhi
 2095              		.loc 4 566 16 discriminator 3
 2096 011c FA79     		ldrb	r2, [r7, #7]	@ zero_extendqisi2
 2097              		.loc 4 566 24 discriminator 3
 2098 011e 3C49     		ldr	r1, .L112+36
 2099 0120 1346     		mov	r3, r2
 2100 0122 5B00     		lsls	r3, r3, #1
 2101 0124 1344     		add	r3, r3, r2
 2102 0126 DB00     		lsls	r3, r3, #3
 2103 0128 0B44     		add	r3, r3, r1
 2104 012a 0E33     		adds	r3, r3, #14
 2105 012c 0022     		movs	r2, #0
 2106 012e 1A80     		strh	r2, [r3]	@ movhi
 2107              		.loc 4 568 16 discriminator 3
 2108 0130 FA79     		ldrb	r2, [r7, #7]	@ zero_extendqisi2
 2109              		.loc 4 568 30 discriminator 3
 2110 0132 3749     		ldr	r1, .L112+36
 2111 0134 1346     		mov	r3, r2
 2112 0136 5B00     		lsls	r3, r3, #1
 2113 0138 1344     		add	r3, r3, r2
 2114 013a DB00     		lsls	r3, r3, #3
 2115 013c 0B44     		add	r3, r3, r1
 2116 013e 1033     		adds	r3, r3, #16
 2117 0140 0022     		movs	r2, #0
 2118 0142 1A80     		strh	r2, [r3]	@ movhi
 2119              		.loc 4 569 16 discriminator 3
 2120 0144 FA79     		ldrb	r2, [r7, #7]	@ zero_extendqisi2
 2121              		.loc 4 569 28 discriminator 3
 2122 0146 3249     		ldr	r1, .L112+36
 2123 0148 1346     		mov	r3, r2
 2124 014a 5B00     		lsls	r3, r3, #1
 2125 014c 1344     		add	r3, r3, r2
 2126 014e DB00     		lsls	r3, r3, #3
 2127 0150 0B44     		add	r3, r3, r1
 2128 0152 1233     		adds	r3, r3, #18
 2129 0154 0022     		movs	r2, #0
 2130 0156 1A80     		strh	r2, [r3]	@ movhi
 2131              		.loc 4 570 16 discriminator 3
 2132 0158 FA79     		ldrb	r2, [r7, #7]	@ zero_extendqisi2
 2133              		.loc 4 570 28 discriminator 3
 2134 015a 2D49     		ldr	r1, .L112+36
 2135 015c 1346     		mov	r3, r2
 2136 015e 5B00     		lsls	r3, r3, #1
 2137 0160 1344     		add	r3, r3, r2
 2138 0162 DB00     		lsls	r3, r3, #3
 2139 0164 0B44     		add	r3, r3, r1
 2140 0166 1433     		adds	r3, r3, #20
 2141 0168 0022     		movs	r2, #0
 2142 016a 1A80     		strh	r2, [r3]	@ movhi
 2143              		.loc 4 571 16 discriminator 3
ARM GAS  C:\Users\DEVELO~1\AppData\Local\Temp\ccFr3SeA.s 			page 39


 2144 016c FA79     		ldrb	r2, [r7, #7]	@ zero_extendqisi2
 2145              		.loc 4 571 29 discriminator 3
 2146 016e 2849     		ldr	r1, .L112+36
 2147 0170 1346     		mov	r3, r2
 2148 0172 5B00     		lsls	r3, r3, #1
 2149 0174 1344     		add	r3, r3, r2
 2150 0176 DB00     		lsls	r3, r3, #3
 2151 0178 0B44     		add	r3, r3, r1
 2152 017a 1633     		adds	r3, r3, #22
 2153 017c 0022     		movs	r2, #0
 2154 017e 1A70     		strb	r2, [r3]
 2155              		.loc 4 573 16 discriminator 3
 2156 0180 FA79     		ldrb	r2, [r7, #7]	@ zero_extendqisi2
 2157              		.loc 4 573 29 discriminator 3
 2158 0182 2349     		ldr	r1, .L112+36
 2159 0184 1346     		mov	r3, r2
 2160 0186 5B00     		lsls	r3, r3, #1
 2161 0188 1344     		add	r3, r3, r2
 2162 018a DB00     		lsls	r3, r3, #3
 2163 018c 0B44     		add	r3, r3, r1
 2164 018e 1733     		adds	r3, r3, #23
 2165 0190 0022     		movs	r2, #0
 2166 0192 1A70     		strb	r2, [r3]
 2167              		.loc 4 547 48 discriminator 3
 2168 0194 FB79     		ldrb	r3, [r7, #7]	@ zero_extendqisi2
 2169 0196 0133     		adds	r3, r3, #1
 2170 0198 FB71     		strb	r3, [r7, #7]
 2171              	.L109:
 2172              		.loc 4 547 26 discriminator 1
 2173 019a FB79     		ldrb	r3, [r7, #7]	@ zero_extendqisi2
 2174 019c 0F2B     		cmp	r3, #15
 2175 019e 7FF653AF 		bls	.L110
 2176              	.LBE31:
 2177              		.loc 4 576 18
 2178 01a2 1C4B     		ldr	r3, .L112+40
 2179 01a4 0022     		movs	r2, #0
 2180 01a6 1A70     		strb	r2, [r3]
 2181              		.loc 4 577 3
 2182 01a8 0020     		movs	r0, #0
 2183 01aa FFF7FEFF 		bl	mux_select
 2184              		.loc 4 578 21
 2185 01ae 1A4B     		ldr	r3, .L112+44
 2186 01b0 0122     		movs	r2, #1
 2187 01b2 1A70     		strb	r2, [r3]
 2188              		.loc 4 580 3
 2189 01b4 1949     		ldr	r1, .L112+48
 2190 01b6 1A48     		ldr	r0, .L112+52
 2191 01b8 FFF7FEFF 		bl	gptStart
 2192              		.loc 4 582 3
 2193 01bc 0021     		movs	r1, #0
 2194 01be 1948     		ldr	r0, .L112+56
 2195 01c0 FFF7FEFF 		bl	adcStart
 2196              		.loc 4 583 3
 2197 01c4 0123     		movs	r3, #1
 2198 01c6 184A     		ldr	r2, .L112+60
 2199 01c8 1849     		ldr	r1, .L112+64
 2200 01ca 1648     		ldr	r0, .L112+56
ARM GAS  C:\Users\DEVELO~1\AppData\Local\Temp\ccFr3SeA.s 			page 40


 2201 01cc FFF7FEFF 		bl	adcStartConversion
 2202              		.loc 4 585 3
 2203 01d0 49F64043 		movw	r3, #40000
 2204 01d4 1946     		mov	r1, r3
 2205 01d6 1248     		ldr	r0, .L112+52
 2206 01d8 FFF7FEFF 		bl	gptStartContinuous
 2207              		.loc 4 587 20
 2208 01dc 034B     		ldr	r3, .L112
 2209 01de 0122     		movs	r2, #1
 2210 01e0 1A70     		strb	r2, [r3]
 2211 01e2 00E0     		b	.L106
 2212              	.L111:
 2213              		.loc 4 536 25
 2214 01e4 00BF     		nop
 2215              	.L106:
 2216              		.loc 4 588 1
 2217 01e6 0837     		adds	r7, r7, #8
 2218              		.cfi_def_cfa_offset 8
 2219 01e8 BD46     		mov	sp, r7
 2220              		.cfi_def_cfa_register 13
 2221              		@ sp needed
 2222 01ea 80BD     		pop	{r7, pc}
 2223              	.L113:
 2224              		.align	2
 2225              	.L112:
 2226 01ec 00000000 		.word	hall_initialized
 2227 01f0 00000258 		.word	1476526080
 2228 01f4 00080258 		.word	1476528128
 2229 01f8 00000000 		.word	hall_values
 2230 01fc 00000000 		.word	hall_note_on
 2231 0200 00000000 		.word	hall_note_off
 2232 0204 00000000 		.word	hall_velocity
 2233 0208 00000000 		.word	hall_pressure
 2234 020c 00000000 		.word	hall_midi_value
 2235 0210 00000000 		.word	hall_btn
 2236 0214 00000000 		.word	hall_mux_index
 2237 0218 00000000 		.word	hall_discard_next
 2238 021c 00000000 		.word	hall_gptcfg
 2239 0220 00000000 		.word	GPTD4
 2240 0224 00000000 		.word	ADCD1
 2241 0228 00000000 		.word	adc_buffer
 2242 022c 00000000 		.word	adcgrpcfg
 2243              		.cfi_endproc
 2244              	.LFE443:
 2245              		.size	hall_init, .-hall_init
 2246              		.section	.text.hall_update,"ax",%progbits
 2247              		.align	1
 2248              		.global	hall_update
 2249              		.syntax unified
 2250              		.thumb
 2251              		.thumb_func
 2252              		.type	hall_update, %function
 2253              	hall_update:
 2254              	.LFB444:
 2255              		.loc 4 590 24
 2256              		.cfi_startproc
 2257              		@ args = 0, pretend = 0, frame = 0
ARM GAS  C:\Users\DEVELO~1\AppData\Local\Temp\ccFr3SeA.s 			page 41


 2258              		@ frame_needed = 1, uses_anonymous_args = 0
 2259              		@ link register save eliminated.
 2260 0000 80B4     		push	{r7}
 2261              		.cfi_def_cfa_offset 4
 2262              		.cfi_offset 7, -4
 2263 0002 00AF     		add	r7, sp, #0
 2264              		.cfi_def_cfa_register 7
 2265              		.loc 4 592 1
 2266 0004 00BF     		nop
 2267 0006 BD46     		mov	sp, r7
 2268              		.cfi_def_cfa_register 13
 2269              		@ sp needed
 2270 0008 80BC     		pop	{r7}
 2271              		.cfi_restore 7
 2272              		.cfi_def_cfa_offset 0
 2273 000a 7047     		bx	lr
 2274              		.cfi_endproc
 2275              	.LFE444:
 2276              		.size	hall_update, .-hall_update
 2277              		.section	.text.hall_get,"ax",%progbits
 2278              		.align	1
 2279              		.global	hall_get
 2280              		.syntax unified
 2281              		.thumb
 2282              		.thumb_func
 2283              		.type	hall_get, %function
 2284              	hall_get:
 2285              	.LFB445:
 2286              		.loc 4 594 34
 2287              		.cfi_startproc
 2288              		@ args = 0, pretend = 0, frame = 8
 2289              		@ frame_needed = 1, uses_anonymous_args = 0
 2290              		@ link register save eliminated.
 2291 0000 80B4     		push	{r7}
 2292              		.cfi_def_cfa_offset 4
 2293              		.cfi_offset 7, -4
 2294 0002 83B0     		sub	sp, sp, #12
 2295              		.cfi_def_cfa_offset 16
 2296 0004 00AF     		add	r7, sp, #0
 2297              		.cfi_def_cfa_register 7
 2298 0006 0346     		mov	r3, r0
 2299 0008 FB71     		strb	r3, [r7, #7]
 2300              		.loc 4 595 6
 2301 000a FB79     		ldrb	r3, [r7, #7]	@ zero_extendqisi2
 2302 000c 0F2B     		cmp	r3, #15
 2303 000e 01D9     		bls	.L116
 2304              		.loc 4 595 42 discriminator 1
 2305 0010 0023     		movs	r3, #0
 2306 0012 04E0     		b	.L117
 2307              	.L116:
 2308              		.loc 4 596 21
 2309 0014 FB79     		ldrb	r3, [r7, #7]	@ zero_extendqisi2
 2310 0016 044A     		ldr	r2, .L118
 2311 0018 32F81330 		ldrh	r3, [r2, r3, lsl #1]	@ movhi
 2312 001c 9BB2     		uxth	r3, r3
 2313              	.L117:
 2314              		.loc 4 597 1
ARM GAS  C:\Users\DEVELO~1\AppData\Local\Temp\ccFr3SeA.s 			page 42


 2315 001e 1846     		mov	r0, r3
 2316 0020 0C37     		adds	r7, r7, #12
 2317              		.cfi_def_cfa_offset 4
 2318 0022 BD46     		mov	sp, r7
 2319              		.cfi_def_cfa_register 13
 2320              		@ sp needed
 2321 0024 80BC     		pop	{r7}
 2322              		.cfi_restore 7
 2323              		.cfi_def_cfa_offset 0
 2324 0026 7047     		bx	lr
 2325              	.L119:
 2326              		.align	2
 2327              	.L118:
 2328 0028 00000000 		.word	hall_values
 2329              		.cfi_endproc
 2330              	.LFE445:
 2331              		.size	hall_get, .-hall_get
 2332              		.section	.text.hall_get_note_on,"ax",%progbits
 2333              		.align	1
 2334              		.global	hall_get_note_on
 2335              		.syntax unified
 2336              		.thumb
 2337              		.thumb_func
 2338              		.type	hall_get_note_on, %function
 2339              	hall_get_note_on:
 2340              	.LFB446:
 2341              		.loc 4 599 38
 2342              		.cfi_startproc
 2343              		@ args = 0, pretend = 0, frame = 16
 2344              		@ frame_needed = 1, uses_anonymous_args = 0
 2345 0000 80B5     		push	{r7, lr}
 2346              		.cfi_def_cfa_offset 8
 2347              		.cfi_offset 7, -8
 2348              		.cfi_offset 14, -4
 2349 0002 84B0     		sub	sp, sp, #16
 2350              		.cfi_def_cfa_offset 24
 2351 0004 00AF     		add	r7, sp, #0
 2352              		.cfi_def_cfa_register 7
 2353 0006 0346     		mov	r3, r0
 2354 0008 FB71     		strb	r3, [r7, #7]
 2355              		.loc 4 600 6
 2356 000a FB79     		ldrb	r3, [r7, #7]	@ zero_extendqisi2
 2357 000c 0F2B     		cmp	r3, #15
 2358 000e 01D9     		bls	.L121
 2359              		.loc 4 600 42 discriminator 1
 2360 0010 0023     		movs	r3, #0
 2361 0012 0CE0     		b	.L122
 2362              	.L121:
 2363              		.loc 4 602 3
 2364 0014 FFF7FEFF 		bl	chSysLock
 2365              		.loc 4 603 19
 2366 0018 FB79     		ldrb	r3, [r7, #7]	@ zero_extendqisi2
 2367              		.loc 4 603 5
 2368 001a 074A     		ldr	r2, .L123
 2369 001c D35C     		ldrb	r3, [r2, r3]
 2370 001e FB73     		strb	r3, [r7, #15]
 2371              		.loc 4 604 15
ARM GAS  C:\Users\DEVELO~1\AppData\Local\Temp\ccFr3SeA.s 			page 43


 2372 0020 FB79     		ldrb	r3, [r7, #7]	@ zero_extendqisi2
 2373              		.loc 4 604 23
 2374 0022 054A     		ldr	r2, .L123
 2375 0024 0021     		movs	r1, #0
 2376 0026 D154     		strb	r1, [r2, r3]
 2377              		.loc 4 605 3
 2378 0028 FFF7FEFF 		bl	chSysUnlock
 2379              		.loc 4 606 10
 2380 002c FB7B     		ldrb	r3, [r7, #15]	@ zero_extendqisi2
 2381              	.L122:
 2382              		.loc 4 607 1
 2383 002e 1846     		mov	r0, r3
 2384 0030 1037     		adds	r7, r7, #16
 2385              		.cfi_def_cfa_offset 8
 2386 0032 BD46     		mov	sp, r7
 2387              		.cfi_def_cfa_register 13
 2388              		@ sp needed
 2389 0034 80BD     		pop	{r7, pc}
 2390              	.L124:
 2391 0036 00BF     		.align	2
 2392              	.L123:
 2393 0038 00000000 		.word	hall_note_on
 2394              		.cfi_endproc
 2395              	.LFE446:
 2396              		.size	hall_get_note_on, .-hall_get_note_on
 2397              		.section	.text.hall_get_note_off,"ax",%progbits
 2398              		.align	1
 2399              		.global	hall_get_note_off
 2400              		.syntax unified
 2401              		.thumb
 2402              		.thumb_func
 2403              		.type	hall_get_note_off, %function
 2404              	hall_get_note_off:
 2405              	.LFB447:
 2406              		.loc 4 609 39
 2407              		.cfi_startproc
 2408              		@ args = 0, pretend = 0, frame = 16
 2409              		@ frame_needed = 1, uses_anonymous_args = 0
 2410 0000 80B5     		push	{r7, lr}
 2411              		.cfi_def_cfa_offset 8
 2412              		.cfi_offset 7, -8
 2413              		.cfi_offset 14, -4
 2414 0002 84B0     		sub	sp, sp, #16
 2415              		.cfi_def_cfa_offset 24
 2416 0004 00AF     		add	r7, sp, #0
 2417              		.cfi_def_cfa_register 7
 2418 0006 0346     		mov	r3, r0
 2419 0008 FB71     		strb	r3, [r7, #7]
 2420              		.loc 4 610 6
 2421 000a FB79     		ldrb	r3, [r7, #7]	@ zero_extendqisi2
 2422 000c 0F2B     		cmp	r3, #15
 2423 000e 01D9     		bls	.L126
 2424              		.loc 4 610 42 discriminator 1
 2425 0010 0023     		movs	r3, #0
 2426 0012 0CE0     		b	.L127
 2427              	.L126:
 2428              		.loc 4 612 3
ARM GAS  C:\Users\DEVELO~1\AppData\Local\Temp\ccFr3SeA.s 			page 44


 2429 0014 FFF7FEFF 		bl	chSysLock
 2430              		.loc 4 613 20
 2431 0018 FB79     		ldrb	r3, [r7, #7]	@ zero_extendqisi2
 2432              		.loc 4 613 5
 2433 001a 074A     		ldr	r2, .L128
 2434 001c D35C     		ldrb	r3, [r2, r3]
 2435 001e FB73     		strb	r3, [r7, #15]
 2436              		.loc 4 614 16
 2437 0020 FB79     		ldrb	r3, [r7, #7]	@ zero_extendqisi2
 2438              		.loc 4 614 24
 2439 0022 054A     		ldr	r2, .L128
 2440 0024 0021     		movs	r1, #0
 2441 0026 D154     		strb	r1, [r2, r3]
 2442              		.loc 4 615 3
 2443 0028 FFF7FEFF 		bl	chSysUnlock
 2444              		.loc 4 616 10
 2445 002c FB7B     		ldrb	r3, [r7, #15]	@ zero_extendqisi2
 2446              	.L127:
 2447              		.loc 4 617 1
 2448 002e 1846     		mov	r0, r3
 2449 0030 1037     		adds	r7, r7, #16
 2450              		.cfi_def_cfa_offset 8
 2451 0032 BD46     		mov	sp, r7
 2452              		.cfi_def_cfa_register 13
 2453              		@ sp needed
 2454 0034 80BD     		pop	{r7, pc}
 2455              	.L129:
 2456 0036 00BF     		.align	2
 2457              	.L128:
 2458 0038 00000000 		.word	hall_note_off
 2459              		.cfi_endproc
 2460              	.LFE447:
 2461              		.size	hall_get_note_off, .-hall_get_note_off
 2462              		.section	.text.hall_get_velocity,"ax",%progbits
 2463              		.align	1
 2464              		.global	hall_get_velocity
 2465              		.syntax unified
 2466              		.thumb
 2467              		.thumb_func
 2468              		.type	hall_get_velocity, %function
 2469              	hall_get_velocity:
 2470              	.LFB448:
 2471              		.loc 4 619 42
 2472              		.cfi_startproc
 2473              		@ args = 0, pretend = 0, frame = 8
 2474              		@ frame_needed = 1, uses_anonymous_args = 0
 2475              		@ link register save eliminated.
 2476 0000 80B4     		push	{r7}
 2477              		.cfi_def_cfa_offset 4
 2478              		.cfi_offset 7, -4
 2479 0002 83B0     		sub	sp, sp, #12
 2480              		.cfi_def_cfa_offset 16
 2481 0004 00AF     		add	r7, sp, #0
 2482              		.cfi_def_cfa_register 7
 2483 0006 0346     		mov	r3, r0
 2484 0008 FB71     		strb	r3, [r7, #7]
 2485              		.loc 4 620 6
ARM GAS  C:\Users\DEVELO~1\AppData\Local\Temp\ccFr3SeA.s 			page 45


 2486 000a FB79     		ldrb	r3, [r7, #7]	@ zero_extendqisi2
 2487 000c 0F2B     		cmp	r3, #15
 2488 000e 01D9     		bls	.L131
 2489              		.loc 4 620 42 discriminator 1
 2490 0010 0023     		movs	r3, #0
 2491 0012 03E0     		b	.L132
 2492              	.L131:
 2493              		.loc 4 621 23
 2494 0014 FB79     		ldrb	r3, [r7, #7]	@ zero_extendqisi2
 2495 0016 044A     		ldr	r2, .L133
 2496 0018 D35C     		ldrb	r3, [r2, r3]
 2497 001a DBB2     		uxtb	r3, r3
 2498              	.L132:
 2499              		.loc 4 622 1
 2500 001c 1846     		mov	r0, r3
 2501 001e 0C37     		adds	r7, r7, #12
 2502              		.cfi_def_cfa_offset 4
 2503 0020 BD46     		mov	sp, r7
 2504              		.cfi_def_cfa_register 13
 2505              		@ sp needed
 2506 0022 80BC     		pop	{r7}
 2507              		.cfi_restore 7
 2508              		.cfi_def_cfa_offset 0
 2509 0024 7047     		bx	lr
 2510              	.L134:
 2511 0026 00BF     		.align	2
 2512              	.L133:
 2513 0028 00000000 		.word	hall_velocity
 2514              		.cfi_endproc
 2515              	.LFE448:
 2516              		.size	hall_get_velocity, .-hall_get_velocity
 2517              		.section	.text.hall_get_pressure,"ax",%progbits
 2518              		.align	1
 2519              		.global	hall_get_pressure
 2520              		.syntax unified
 2521              		.thumb
 2522              		.thumb_func
 2523              		.type	hall_get_pressure, %function
 2524              	hall_get_pressure:
 2525              	.LFB449:
 2526              		.loc 4 624 42
 2527              		.cfi_startproc
 2528              		@ args = 0, pretend = 0, frame = 8
 2529              		@ frame_needed = 1, uses_anonymous_args = 0
 2530              		@ link register save eliminated.
 2531 0000 80B4     		push	{r7}
 2532              		.cfi_def_cfa_offset 4
 2533              		.cfi_offset 7, -4
 2534 0002 83B0     		sub	sp, sp, #12
 2535              		.cfi_def_cfa_offset 16
 2536 0004 00AF     		add	r7, sp, #0
 2537              		.cfi_def_cfa_register 7
 2538 0006 0346     		mov	r3, r0
 2539 0008 FB71     		strb	r3, [r7, #7]
 2540              		.loc 4 625 6
 2541 000a FB79     		ldrb	r3, [r7, #7]	@ zero_extendqisi2
 2542 000c 0F2B     		cmp	r3, #15
ARM GAS  C:\Users\DEVELO~1\AppData\Local\Temp\ccFr3SeA.s 			page 46


 2543 000e 01D9     		bls	.L136
 2544              		.loc 4 625 42 discriminator 1
 2545 0010 0023     		movs	r3, #0
 2546 0012 03E0     		b	.L137
 2547              	.L136:
 2548              		.loc 4 626 23
 2549 0014 FB79     		ldrb	r3, [r7, #7]	@ zero_extendqisi2
 2550 0016 044A     		ldr	r2, .L138
 2551 0018 D35C     		ldrb	r3, [r2, r3]
 2552 001a DBB2     		uxtb	r3, r3
 2553              	.L137:
 2554              		.loc 4 627 1
 2555 001c 1846     		mov	r0, r3
 2556 001e 0C37     		adds	r7, r7, #12
 2557              		.cfi_def_cfa_offset 4
 2558 0020 BD46     		mov	sp, r7
 2559              		.cfi_def_cfa_register 13
 2560              		@ sp needed
 2561 0022 80BC     		pop	{r7}
 2562              		.cfi_restore 7
 2563              		.cfi_def_cfa_offset 0
 2564 0024 7047     		bx	lr
 2565              	.L139:
 2566 0026 00BF     		.align	2
 2567              	.L138:
 2568 0028 00000000 		.word	hall_pressure
 2569              		.cfi_endproc
 2570              	.LFE449:
 2571              		.size	hall_get_pressure, .-hall_get_pressure
 2572              		.section	.text.hall_get_midi_value,"ax",%progbits
 2573              		.align	1
 2574              		.global	hall_get_midi_value
 2575              		.syntax unified
 2576              		.thumb
 2577              		.thumb_func
 2578              		.type	hall_get_midi_value, %function
 2579              	hall_get_midi_value:
 2580              	.LFB450:
 2581              		.loc 4 629 44
 2582              		.cfi_startproc
 2583              		@ args = 0, pretend = 0, frame = 8
 2584              		@ frame_needed = 1, uses_anonymous_args = 0
 2585              		@ link register save eliminated.
 2586 0000 80B4     		push	{r7}
 2587              		.cfi_def_cfa_offset 4
 2588              		.cfi_offset 7, -4
 2589 0002 83B0     		sub	sp, sp, #12
 2590              		.cfi_def_cfa_offset 16
 2591 0004 00AF     		add	r7, sp, #0
 2592              		.cfi_def_cfa_register 7
 2593 0006 0346     		mov	r3, r0
 2594 0008 FB71     		strb	r3, [r7, #7]
 2595              		.loc 4 630 6
 2596 000a FB79     		ldrb	r3, [r7, #7]	@ zero_extendqisi2
 2597 000c 0F2B     		cmp	r3, #15
 2598 000e 01D9     		bls	.L141
 2599              		.loc 4 630 42 discriminator 1
ARM GAS  C:\Users\DEVELO~1\AppData\Local\Temp\ccFr3SeA.s 			page 47


 2600 0010 0023     		movs	r3, #0
 2601 0012 03E0     		b	.L142
 2602              	.L141:
 2603              		.loc 4 631 25
 2604 0014 FB79     		ldrb	r3, [r7, #7]	@ zero_extendqisi2
 2605 0016 044A     		ldr	r2, .L143
 2606 0018 D35C     		ldrb	r3, [r2, r3]
 2607 001a DBB2     		uxtb	r3, r3
 2608              	.L142:
 2609              		.loc 4 632 1
 2610 001c 1846     		mov	r0, r3
 2611 001e 0C37     		adds	r7, r7, #12
 2612              		.cfi_def_cfa_offset 4
 2613 0020 BD46     		mov	sp, r7
 2614              		.cfi_def_cfa_register 13
 2615              		@ sp needed
 2616 0022 80BC     		pop	{r7}
 2617              		.cfi_restore 7
 2618              		.cfi_def_cfa_offset 0
 2619 0024 7047     		bx	lr
 2620              	.L144:
 2621 0026 00BF     		.align	2
 2622              	.L143:
 2623 0028 00000000 		.word	hall_midi_value
 2624              		.cfi_endproc
 2625              	.LFE450:
 2626              		.size	hall_get_midi_value, .-hall_get_midi_value
 2627              		.section	.text.hall_set_velocity_mode,"ax",%progbits
 2628              		.align	1
 2629              		.global	hall_set_velocity_mode
 2630              		.syntax unified
 2631              		.thumb
 2632              		.thumb_func
 2633              		.type	hall_set_velocity_mode, %function
 2634              	hall_set_velocity_mode:
 2635              	.LFB451:
 2636              		.loc 4 635 43
 2637              		.cfi_startproc
 2638              		@ args = 0, pretend = 0, frame = 8
 2639              		@ frame_needed = 1, uses_anonymous_args = 0
 2640              		@ link register save eliminated.
 2641 0000 80B4     		push	{r7}
 2642              		.cfi_def_cfa_offset 4
 2643              		.cfi_offset 7, -4
 2644 0002 83B0     		sub	sp, sp, #12
 2645              		.cfi_def_cfa_offset 16
 2646 0004 00AF     		add	r7, sp, #0
 2647              		.cfi_def_cfa_register 7
 2648 0006 0346     		mov	r3, r0
 2649 0008 FB71     		strb	r3, [r7, #7]
 2650              		.loc 4 636 6
 2651 000a FB79     		ldrb	r3, [r7, #7]	@ zero_extendqisi2
 2652 000c 022B     		cmp	r3, #2
 2653 000e 02D8     		bhi	.L147
 2654              		.loc 4 637 16
 2655 0010 034A     		ldr	r2, .L148
 2656 0012 FB79     		ldrb	r3, [r7, #7]
ARM GAS  C:\Users\DEVELO~1\AppData\Local\Temp\ccFr3SeA.s 			page 48


 2657 0014 1370     		strb	r3, [r2]
 2658              	.L147:
 2659              		.loc 4 639 1
 2660 0016 00BF     		nop
 2661 0018 0C37     		adds	r7, r7, #12
 2662              		.cfi_def_cfa_offset 4
 2663 001a BD46     		mov	sp, r7
 2664              		.cfi_def_cfa_register 13
 2665              		@ sp needed
 2666 001c 80BC     		pop	{r7}
 2667              		.cfi_restore 7
 2668              		.cfi_def_cfa_offset 0
 2669 001e 7047     		bx	lr
 2670              	.L149:
 2671              		.align	2
 2672              	.L148:
 2673 0020 00000000 		.word	g_vel_mode
 2674              		.cfi_endproc
 2675              	.LFE451:
 2676              		.size	hall_set_velocity_mode, .-hall_set_velocity_mode
 2677              		.section	.text.hall_set_velocity_curve,"ax",%progbits
 2678              		.align	1
 2679              		.global	hall_set_velocity_curve
 2680              		.syntax unified
 2681              		.thumb
 2682              		.thumb_func
 2683              		.type	hall_set_velocity_curve, %function
 2684              	hall_set_velocity_curve:
 2685              	.LFB452:
 2686              		.loc 4 642 45
 2687              		.cfi_startproc
 2688              		@ args = 0, pretend = 0, frame = 8
 2689              		@ frame_needed = 1, uses_anonymous_args = 0
 2690              		@ link register save eliminated.
 2691 0000 80B4     		push	{r7}
 2692              		.cfi_def_cfa_offset 4
 2693              		.cfi_offset 7, -4
 2694 0002 83B0     		sub	sp, sp, #12
 2695              		.cfi_def_cfa_offset 16
 2696 0004 00AF     		add	r7, sp, #0
 2697              		.cfi_def_cfa_register 7
 2698 0006 0346     		mov	r3, r0
 2699 0008 FB71     		strb	r3, [r7, #7]
 2700              		.loc 4 643 6
 2701 000a FB79     		ldrb	r3, [r7, #7]	@ zero_extendqisi2
 2702 000c 042B     		cmp	r3, #4
 2703 000e 02D8     		bhi	.L152
 2704              		.loc 4 644 17
 2705 0010 034A     		ldr	r2, .L153
 2706 0012 FB79     		ldrb	r3, [r7, #7]
 2707 0014 1370     		strb	r3, [r2]
 2708              	.L152:
 2709              		.loc 4 646 1
 2710 0016 00BF     		nop
 2711 0018 0C37     		adds	r7, r7, #12
 2712              		.cfi_def_cfa_offset 4
 2713 001a BD46     		mov	sp, r7
ARM GAS  C:\Users\DEVELO~1\AppData\Local\Temp\ccFr3SeA.s 			page 49


 2714              		.cfi_def_cfa_register 13
 2715              		@ sp needed
 2716 001c 80BC     		pop	{r7}
 2717              		.cfi_restore 7
 2718              		.cfi_def_cfa_offset 0
 2719 001e 7047     		bx	lr
 2720              	.L154:
 2721              		.align	2
 2722              	.L153:
 2723 0020 00000000 		.word	g_vel_curve
 2724              		.cfi_endproc
 2725              	.LFE452:
 2726              		.size	hall_set_velocity_curve, .-hall_set_velocity_curve
 2727              		.section	.text.hall_get_velocity_mode,"ax",%progbits
 2728              		.align	1
 2729              		.global	hall_get_velocity_mode
 2730              		.syntax unified
 2731              		.thumb
 2732              		.thumb_func
 2733              		.type	hall_get_velocity_mode, %function
 2734              	hall_get_velocity_mode:
 2735              	.LFB453:
 2736              		.loc 4 649 38
 2737              		.cfi_startproc
 2738              		@ args = 0, pretend = 0, frame = 0
 2739              		@ frame_needed = 1, uses_anonymous_args = 0
 2740              		@ link register save eliminated.
 2741 0000 80B4     		push	{r7}
 2742              		.cfi_def_cfa_offset 4
 2743              		.cfi_offset 7, -4
 2744 0002 00AF     		add	r7, sp, #0
 2745              		.cfi_def_cfa_register 7
 2746              		.loc 4 650 10
 2747 0004 034B     		ldr	r3, .L157
 2748 0006 1B78     		ldrb	r3, [r3]
 2749 0008 DBB2     		uxtb	r3, r3
 2750              		.loc 4 651 1
 2751 000a 1846     		mov	r0, r3
 2752 000c BD46     		mov	sp, r7
 2753              		.cfi_def_cfa_register 13
 2754              		@ sp needed
 2755 000e 80BC     		pop	{r7}
 2756              		.cfi_restore 7
 2757              		.cfi_def_cfa_offset 0
 2758 0010 7047     		bx	lr
 2759              	.L158:
 2760 0012 00BF     		.align	2
 2761              	.L157:
 2762 0014 00000000 		.word	g_vel_mode
 2763              		.cfi_endproc
 2764              	.LFE453:
 2765              		.size	hall_get_velocity_mode, .-hall_get_velocity_mode
 2766              		.section	.text.hall_get_velocity_curve,"ax",%progbits
 2767              		.align	1
 2768              		.global	hall_get_velocity_curve
 2769              		.syntax unified
 2770              		.thumb
ARM GAS  C:\Users\DEVELO~1\AppData\Local\Temp\ccFr3SeA.s 			page 50


 2771              		.thumb_func
 2772              		.type	hall_get_velocity_curve, %function
 2773              	hall_get_velocity_curve:
 2774              	.LFB454:
 2775              		.loc 4 653 39
 2776              		.cfi_startproc
 2777              		@ args = 0, pretend = 0, frame = 0
 2778              		@ frame_needed = 1, uses_anonymous_args = 0
 2779              		@ link register save eliminated.
 2780 0000 80B4     		push	{r7}
 2781              		.cfi_def_cfa_offset 4
 2782              		.cfi_offset 7, -4
 2783 0002 00AF     		add	r7, sp, #0
 2784              		.cfi_def_cfa_register 7
 2785              		.loc 4 654 10
 2786 0004 034B     		ldr	r3, .L161
 2787 0006 1B78     		ldrb	r3, [r3]
 2788 0008 DBB2     		uxtb	r3, r3
 2789              		.loc 4 655 1
 2790 000a 1846     		mov	r0, r3
 2791 000c BD46     		mov	sp, r7
 2792              		.cfi_def_cfa_register 13
 2793              		@ sp needed
 2794 000e 80BC     		pop	{r7}
 2795              		.cfi_restore 7
 2796              		.cfi_def_cfa_offset 0
 2797 0010 7047     		bx	lr
 2798              	.L162:
 2799 0012 00BF     		.align	2
 2800              	.L161:
 2801 0014 00000000 		.word	g_vel_curve
 2802              		.cfi_endproc
 2803              	.LFE454:
 2804              		.size	hall_get_velocity_curve, .-hall_get_velocity_curve
 2805              		.section	.text.hall_dbg_get_min,"ax",%progbits
 2806              		.align	1
 2807              		.global	hall_dbg_get_min
 2808              		.syntax unified
 2809              		.thumb
 2810              		.thumb_func
 2811              		.type	hall_dbg_get_min, %function
 2812              	hall_dbg_get_min:
 2813              	.LFB455:
 2814              		.loc 4 659 38
 2815              		.cfi_startproc
 2816              		@ args = 0, pretend = 0, frame = 8
 2817              		@ frame_needed = 1, uses_anonymous_args = 0
 2818              		@ link register save eliminated.
 2819 0000 80B4     		push	{r7}
 2820              		.cfi_def_cfa_offset 4
 2821              		.cfi_offset 7, -4
 2822 0002 83B0     		sub	sp, sp, #12
 2823              		.cfi_def_cfa_offset 16
 2824 0004 00AF     		add	r7, sp, #0
 2825              		.cfi_def_cfa_register 7
 2826 0006 0346     		mov	r3, r0
 2827 0008 FB71     		strb	r3, [r7, #7]
ARM GAS  C:\Users\DEVELO~1\AppData\Local\Temp\ccFr3SeA.s 			page 51


 2828              		.loc 4 660 6
 2829 000a FB79     		ldrb	r3, [r7, #7]	@ zero_extendqisi2
 2830 000c 0F2B     		cmp	r3, #15
 2831 000e 01D9     		bls	.L164
 2832              		.loc 4 660 38 discriminator 1
 2833 0010 0023     		movs	r3, #0
 2834 0012 07E0     		b	.L165
 2835              	.L164:
 2836              		.loc 4 661 21
 2837 0014 FA79     		ldrb	r2, [r7, #7]	@ zero_extendqisi2
 2838 0016 0649     		ldr	r1, .L166
 2839 0018 1346     		mov	r3, r2
 2840 001a 5B00     		lsls	r3, r3, #1
 2841 001c 1344     		add	r3, r3, r2
 2842 001e DB00     		lsls	r3, r3, #3
 2843 0020 0B44     		add	r3, r3, r1
 2844 0022 1B88     		ldrh	r3, [r3]
 2845              	.L165:
 2846              		.loc 4 662 1
 2847 0024 1846     		mov	r0, r3
 2848 0026 0C37     		adds	r7, r7, #12
 2849              		.cfi_def_cfa_offset 4
 2850 0028 BD46     		mov	sp, r7
 2851              		.cfi_def_cfa_register 13
 2852              		@ sp needed
 2853 002a 80BC     		pop	{r7}
 2854              		.cfi_restore 7
 2855              		.cfi_def_cfa_offset 0
 2856 002c 7047     		bx	lr
 2857              	.L167:
 2858 002e 00BF     		.align	2
 2859              	.L166:
 2860 0030 00000000 		.word	hall_btn
 2861              		.cfi_endproc
 2862              	.LFE455:
 2863              		.size	hall_dbg_get_min, .-hall_dbg_get_min
 2864              		.section	.text.hall_dbg_get_max,"ax",%progbits
 2865              		.align	1
 2866              		.global	hall_dbg_get_max
 2867              		.syntax unified
 2868              		.thumb
 2869              		.thumb_func
 2870              		.type	hall_dbg_get_max, %function
 2871              	hall_dbg_get_max:
 2872              	.LFB456:
 2873              		.loc 4 664 38
 2874              		.cfi_startproc
 2875              		@ args = 0, pretend = 0, frame = 8
 2876              		@ frame_needed = 1, uses_anonymous_args = 0
 2877              		@ link register save eliminated.
 2878 0000 80B4     		push	{r7}
 2879              		.cfi_def_cfa_offset 4
 2880              		.cfi_offset 7, -4
 2881 0002 83B0     		sub	sp, sp, #12
 2882              		.cfi_def_cfa_offset 16
 2883 0004 00AF     		add	r7, sp, #0
 2884              		.cfi_def_cfa_register 7
ARM GAS  C:\Users\DEVELO~1\AppData\Local\Temp\ccFr3SeA.s 			page 52


 2885 0006 0346     		mov	r3, r0
 2886 0008 FB71     		strb	r3, [r7, #7]
 2887              		.loc 4 665 6
 2888 000a FB79     		ldrb	r3, [r7, #7]	@ zero_extendqisi2
 2889 000c 0F2B     		cmp	r3, #15
 2890 000e 01D9     		bls	.L169
 2891              		.loc 4 665 38 discriminator 1
 2892 0010 0023     		movs	r3, #0
 2893 0012 08E0     		b	.L170
 2894              	.L169:
 2895              		.loc 4 666 21
 2896 0014 FA79     		ldrb	r2, [r7, #7]	@ zero_extendqisi2
 2897 0016 0649     		ldr	r1, .L171
 2898 0018 1346     		mov	r3, r2
 2899 001a 5B00     		lsls	r3, r3, #1
 2900 001c 1344     		add	r3, r3, r2
 2901 001e DB00     		lsls	r3, r3, #3
 2902 0020 0B44     		add	r3, r3, r1
 2903 0022 0233     		adds	r3, r3, #2
 2904 0024 1B88     		ldrh	r3, [r3]
 2905              	.L170:
 2906              		.loc 4 667 1
 2907 0026 1846     		mov	r0, r3
 2908 0028 0C37     		adds	r7, r7, #12
 2909              		.cfi_def_cfa_offset 4
 2910 002a BD46     		mov	sp, r7
 2911              		.cfi_def_cfa_register 13
 2912              		@ sp needed
 2913 002c 80BC     		pop	{r7}
 2914              		.cfi_restore 7
 2915              		.cfi_def_cfa_offset 0
 2916 002e 7047     		bx	lr
 2917              	.L172:
 2918              		.align	2
 2919              	.L171:
 2920 0030 00000000 		.word	hall_btn
 2921              		.cfi_endproc
 2922              	.LFE456:
 2923              		.size	hall_dbg_get_max, .-hall_dbg_get_max
 2924              		.section	.text.hall_dbg_get_trig_lo,"ax",%progbits
 2925              		.align	1
 2926              		.global	hall_dbg_get_trig_lo
 2927              		.syntax unified
 2928              		.thumb
 2929              		.thumb_func
 2930              		.type	hall_dbg_get_trig_lo, %function
 2931              	hall_dbg_get_trig_lo:
 2932              	.LFB457:
 2933              		.loc 4 669 42
 2934              		.cfi_startproc
 2935              		@ args = 0, pretend = 0, frame = 8
 2936              		@ frame_needed = 1, uses_anonymous_args = 0
 2937              		@ link register save eliminated.
 2938 0000 80B4     		push	{r7}
 2939              		.cfi_def_cfa_offset 4
 2940              		.cfi_offset 7, -4
 2941 0002 83B0     		sub	sp, sp, #12
ARM GAS  C:\Users\DEVELO~1\AppData\Local\Temp\ccFr3SeA.s 			page 53


 2942              		.cfi_def_cfa_offset 16
 2943 0004 00AF     		add	r7, sp, #0
 2944              		.cfi_def_cfa_register 7
 2945 0006 0346     		mov	r3, r0
 2946 0008 FB71     		strb	r3, [r7, #7]
 2947              		.loc 4 670 6
 2948 000a FB79     		ldrb	r3, [r7, #7]	@ zero_extendqisi2
 2949 000c 0F2B     		cmp	r3, #15
 2950 000e 01D9     		bls	.L174
 2951              		.loc 4 670 38 discriminator 1
 2952 0010 0023     		movs	r3, #0
 2953 0012 08E0     		b	.L175
 2954              	.L174:
 2955              		.loc 4 671 21
 2956 0014 FA79     		ldrb	r2, [r7, #7]	@ zero_extendqisi2
 2957 0016 0649     		ldr	r1, .L176
 2958 0018 1346     		mov	r3, r2
 2959 001a 5B00     		lsls	r3, r3, #1
 2960 001c 1344     		add	r3, r3, r2
 2961 001e DB00     		lsls	r3, r3, #3
 2962 0020 0B44     		add	r3, r3, r1
 2963 0022 0433     		adds	r3, r3, #4
 2964 0024 1B88     		ldrh	r3, [r3]
 2965              	.L175:
 2966              		.loc 4 672 1
 2967 0026 1846     		mov	r0, r3
 2968 0028 0C37     		adds	r7, r7, #12
 2969              		.cfi_def_cfa_offset 4
 2970 002a BD46     		mov	sp, r7
 2971              		.cfi_def_cfa_register 13
 2972              		@ sp needed
 2973 002c 80BC     		pop	{r7}
 2974              		.cfi_restore 7
 2975              		.cfi_def_cfa_offset 0
 2976 002e 7047     		bx	lr
 2977              	.L177:
 2978              		.align	2
 2979              	.L176:
 2980 0030 00000000 		.word	hall_btn
 2981              		.cfi_endproc
 2982              	.LFE457:
 2983              		.size	hall_dbg_get_trig_lo, .-hall_dbg_get_trig_lo
 2984              		.section	.text.hall_dbg_get_trig_hi,"ax",%progbits
 2985              		.align	1
 2986              		.global	hall_dbg_get_trig_hi
 2987              		.syntax unified
 2988              		.thumb
 2989              		.thumb_func
 2990              		.type	hall_dbg_get_trig_hi, %function
 2991              	hall_dbg_get_trig_hi:
 2992              	.LFB458:
 2993              		.loc 4 674 42
 2994              		.cfi_startproc
 2995              		@ args = 0, pretend = 0, frame = 8
 2996              		@ frame_needed = 1, uses_anonymous_args = 0
 2997              		@ link register save eliminated.
 2998 0000 80B4     		push	{r7}
ARM GAS  C:\Users\DEVELO~1\AppData\Local\Temp\ccFr3SeA.s 			page 54


 2999              		.cfi_def_cfa_offset 4
 3000              		.cfi_offset 7, -4
 3001 0002 83B0     		sub	sp, sp, #12
 3002              		.cfi_def_cfa_offset 16
 3003 0004 00AF     		add	r7, sp, #0
 3004              		.cfi_def_cfa_register 7
 3005 0006 0346     		mov	r3, r0
 3006 0008 FB71     		strb	r3, [r7, #7]
 3007              		.loc 4 675 6
 3008 000a FB79     		ldrb	r3, [r7, #7]	@ zero_extendqisi2
 3009 000c 0F2B     		cmp	r3, #15
 3010 000e 01D9     		bls	.L179
 3011              		.loc 4 675 38 discriminator 1
 3012 0010 0023     		movs	r3, #0
 3013 0012 08E0     		b	.L180
 3014              	.L179:
 3015              		.loc 4 676 21
 3016 0014 FA79     		ldrb	r2, [r7, #7]	@ zero_extendqisi2
 3017 0016 0649     		ldr	r1, .L181
 3018 0018 1346     		mov	r3, r2
 3019 001a 5B00     		lsls	r3, r3, #1
 3020 001c 1344     		add	r3, r3, r2
 3021 001e DB00     		lsls	r3, r3, #3
 3022 0020 0B44     		add	r3, r3, r1
 3023 0022 0633     		adds	r3, r3, #6
 3024 0024 1B88     		ldrh	r3, [r3]
 3025              	.L180:
 3026              		.loc 4 677 1
 3027 0026 1846     		mov	r0, r3
 3028 0028 0C37     		adds	r7, r7, #12
 3029              		.cfi_def_cfa_offset 4
 3030 002a BD46     		mov	sp, r7
 3031              		.cfi_def_cfa_register 13
 3032              		@ sp needed
 3033 002c 80BC     		pop	{r7}
 3034              		.cfi_restore 7
 3035              		.cfi_def_cfa_offset 0
 3036 002e 7047     		bx	lr
 3037              	.L182:
 3038              		.align	2
 3039              	.L181:
 3040 0030 00000000 		.word	hall_btn
 3041              		.cfi_endproc
 3042              	.LFE458:
 3043              		.size	hall_dbg_get_trig_hi, .-hall_dbg_get_trig_hi
 3044              		.section	.text.hall_dbg_get_state,"ax",%progbits
 3045              		.align	1
 3046              		.global	hall_dbg_get_state
 3047              		.syntax unified
 3048              		.thumb
 3049              		.thumb_func
 3050              		.type	hall_dbg_get_state, %function
 3051              	hall_dbg_get_state:
 3052              	.LFB459:
 3053              		.loc 4 679 39
 3054              		.cfi_startproc
 3055              		@ args = 0, pretend = 0, frame = 8
ARM GAS  C:\Users\DEVELO~1\AppData\Local\Temp\ccFr3SeA.s 			page 55


 3056              		@ frame_needed = 1, uses_anonymous_args = 0
 3057              		@ link register save eliminated.
 3058 0000 80B4     		push	{r7}
 3059              		.cfi_def_cfa_offset 4
 3060              		.cfi_offset 7, -4
 3061 0002 83B0     		sub	sp, sp, #12
 3062              		.cfi_def_cfa_offset 16
 3063 0004 00AF     		add	r7, sp, #0
 3064              		.cfi_def_cfa_register 7
 3065 0006 0346     		mov	r3, r0
 3066 0008 FB71     		strb	r3, [r7, #7]
 3067              		.loc 4 680 6
 3068 000a FB79     		ldrb	r3, [r7, #7]	@ zero_extendqisi2
 3069 000c 0F2B     		cmp	r3, #15
 3070 000e 01D9     		bls	.L184
 3071              		.loc 4 680 38 discriminator 1
 3072 0010 0023     		movs	r3, #0
 3073 0012 08E0     		b	.L185
 3074              	.L184:
 3075              		.loc 4 681 21
 3076 0014 FA79     		ldrb	r2, [r7, #7]	@ zero_extendqisi2
 3077 0016 0649     		ldr	r1, .L186
 3078 0018 1346     		mov	r3, r2
 3079 001a 5B00     		lsls	r3, r3, #1
 3080 001c 1344     		add	r3, r3, r2
 3081 001e DB00     		lsls	r3, r3, #3
 3082 0020 0B44     		add	r3, r3, r1
 3083 0022 0933     		adds	r3, r3, #9
 3084 0024 1B78     		ldrb	r3, [r3]	@ zero_extendqisi2
 3085              	.L185:
 3086              		.loc 4 682 1
 3087 0026 1846     		mov	r0, r3
 3088 0028 0C37     		adds	r7, r7, #12
 3089              		.cfi_def_cfa_offset 4
 3090 002a BD46     		mov	sp, r7
 3091              		.cfi_def_cfa_register 13
 3092              		@ sp needed
 3093 002c 80BC     		pop	{r7}
 3094              		.cfi_restore 7
 3095              		.cfi_def_cfa_offset 0
 3096 002e 7047     		bx	lr
 3097              	.L187:
 3098              		.align	2
 3099              	.L186:
 3100 0030 00000000 		.word	hall_btn
 3101              		.cfi_endproc
 3102              	.LFE459:
 3103              		.size	hall_dbg_get_state, .-hall_dbg_get_state
 3104              		.section	.text.hall_dbg_get_velocity,"ax",%progbits
 3105              		.align	1
 3106              		.global	hall_dbg_get_velocity
 3107              		.syntax unified
 3108              		.thumb
 3109              		.thumb_func
 3110              		.type	hall_dbg_get_velocity, %function
 3111              	hall_dbg_get_velocity:
 3112              	.LFB460:
ARM GAS  C:\Users\DEVELO~1\AppData\Local\Temp\ccFr3SeA.s 			page 56


 3113              		.loc 4 684 42
 3114              		.cfi_startproc
 3115              		@ args = 0, pretend = 0, frame = 8
 3116              		@ frame_needed = 1, uses_anonymous_args = 0
 3117              		@ link register save eliminated.
 3118 0000 80B4     		push	{r7}
 3119              		.cfi_def_cfa_offset 4
 3120              		.cfi_offset 7, -4
 3121 0002 83B0     		sub	sp, sp, #12
 3122              		.cfi_def_cfa_offset 16
 3123 0004 00AF     		add	r7, sp, #0
 3124              		.cfi_def_cfa_register 7
 3125 0006 0346     		mov	r3, r0
 3126 0008 FB71     		strb	r3, [r7, #7]
 3127              		.loc 4 685 6
 3128 000a FB79     		ldrb	r3, [r7, #7]	@ zero_extendqisi2
 3129 000c 0F2B     		cmp	r3, #15
 3130 000e 01D9     		bls	.L189
 3131              		.loc 4 685 38 discriminator 1
 3132 0010 0023     		movs	r3, #0
 3133 0012 08E0     		b	.L190
 3134              	.L189:
 3135              		.loc 4 686 21
 3136 0014 FA79     		ldrb	r2, [r7, #7]	@ zero_extendqisi2
 3137 0016 0649     		ldr	r1, .L191
 3138 0018 1346     		mov	r3, r2
 3139 001a 5B00     		lsls	r3, r3, #1
 3140 001c 1344     		add	r3, r3, r2
 3141 001e DB00     		lsls	r3, r3, #3
 3142 0020 0B44     		add	r3, r3, r1
 3143 0022 1733     		adds	r3, r3, #23
 3144 0024 1B78     		ldrb	r3, [r3]	@ zero_extendqisi2
 3145              	.L190:
 3146              		.loc 4 687 1
 3147 0026 1846     		mov	r0, r3
 3148 0028 0C37     		adds	r7, r7, #12
 3149              		.cfi_def_cfa_offset 4
 3150 002a BD46     		mov	sp, r7
 3151              		.cfi_def_cfa_register 13
 3152              		@ sp needed
 3153 002c 80BC     		pop	{r7}
 3154              		.cfi_restore 7
 3155              		.cfi_def_cfa_offset 0
 3156 002e 7047     		bx	lr
 3157              	.L192:
 3158              		.align	2
 3159              	.L191:
 3160 0030 00000000 		.word	hall_btn
 3161              		.cfi_endproc
 3162              	.LFE460:
 3163              		.size	hall_dbg_get_velocity, .-hall_dbg_get_velocity
 3164              		.text
 3165              	.Letext0:
 3166              		.file 5 "c:\\chibistudio\\tools\\gnu tools arm embedded\\11.3 2022.08\\arm-none-eabi\\include\\mac
 3167              		.file 6 "c:\\chibistudio\\tools\\gnu tools arm embedded\\11.3 2022.08\\arm-none-eabi\\include\\sys
 3168              		.file 7 "drivers/HallEffect/drv_hall.h"
 3169              		.file 8 "c:\\chibistudio\\tools\\gnu tools arm embedded\\11.3 2022.08\\lib\\gcc\\arm-none-eabi\\11
ARM GAS  C:\Users\DEVELO~1\AppData\Local\Temp\ccFr3SeA.s 			page 57


 3170              		.file 9 "../../../os/common/ports/ARM-common/chtypes.h"
 3171              		.file 10 "../../../os/rt/include/chearly.h"
 3172              		.file 11 "../../../os/rt/include/chobjects.h"
 3173              		.file 12 "../../../os/rt/include/chrfcu.h"
 3174              		.file 13 "../../../os/rt/include/chdebug.h"
 3175              		.file 14 "../../../os/rt/include/chtime.h"
 3176              		.file 15 "../../../os/rt/include/chlists.h"
 3177              		.file 16 "../../../os/rt/include/chtrace.h"
 3178              		.file 17 "../../../os/common/ext/ST/STM32H7xx/stm32h743xx.h"
 3179              		.file 18 "../../../os/rt/include/chsem.h"
 3180              		.file 19 "../../../os/rt/include/chmtx.h"
 3181              		.file 20 "../../../os/hal/ports/STM32/LLD/DMAv2/stm32_dma.h"
 3182              		.file 21 "../../../os/hal/ports/STM32/LLD/TIMv1/stm32_tim.h"
 3183              		.file 22 "../../../os/hal/ports/STM32/LLD/GPIOv2/stm32_gpio.h"
 3184              		.file 23 "../../../os/hal/ports/STM32/LLD/GPIOv2/hal_pal_lld.h"
 3185              		.file 24 "../../../os/hal/include/hal_adc.h"
 3186              		.file 25 "../../../os/hal/ports/STM32/LLD/ADCv4/hal_adc_lld.h"
 3187              		.file 26 "../../../os/hal/include/hal_gpt.h"
 3188              		.file 27 "../../../os/hal/ports/STM32/LLD/TIMv1/hal_gpt_lld.h"
 3189              		.section	.debug_info,"",%progbits
 3190              	.Ldebug_info0:
 3191 0000 EB1E0000 		.4byte	0x1eeb
 3192 0004 0500     		.2byte	0x5
 3193 0006 01       		.byte	0x1
 3194 0007 04       		.byte	0x4
 3195 0008 00000000 		.4byte	.Ldebug_abbrev0
 3196 000c 30       		.uleb128 0x30
 3197 000d E6020000 		.4byte	.LASF354
 3198 0011 1D       		.byte	0x1d
 3199 0012 480A0000 		.4byte	.LASF355
 3200 0016 96040000 		.4byte	.LASF356
 3201 001a 0C000000 		.4byte	.LLRL0
 3202 001e 00000000 		.4byte	0
 3203 0022 00000000 		.4byte	.Ldebug_line0
 3204 0026 0F       		.uleb128 0xf
 3205 0027 01       		.byte	0x1
 3206 0028 06       		.byte	0x6
 3207 0029 9B0E0000 		.4byte	.LASF0
 3208 002d 03       		.uleb128 0x3
 3209 002e 6E0C0000 		.4byte	.LASF3
 3210 0032 05       		.byte	0x5
 3211 0033 2B       		.byte	0x2b
 3212 0034 18       		.byte	0x18
 3213 0035 39000000 		.4byte	0x39
 3214 0039 0F       		.uleb128 0xf
 3215 003a 01       		.byte	0x1
 3216 003b 08       		.byte	0x8
 3217 003c 7E0D0000 		.4byte	.LASF1
 3218 0040 0F       		.uleb128 0xf
 3219 0041 02       		.byte	0x2
 3220 0042 05       		.byte	0x5
 3221 0043 000F0000 		.4byte	.LASF2
 3222 0047 03       		.uleb128 0x3
 3223 0048 F1030000 		.4byte	.LASF4
 3224 004c 05       		.byte	0x5
 3225 004d 39       		.byte	0x39
 3226 004e 19       		.byte	0x19
ARM GAS  C:\Users\DEVELO~1\AppData\Local\Temp\ccFr3SeA.s 			page 58


 3227 004f 53000000 		.4byte	0x53
 3228 0053 0F       		.uleb128 0xf
 3229 0054 02       		.byte	0x2
 3230 0055 07       		.byte	0x7
 3231 0056 AD0E0000 		.4byte	.LASF5
 3232 005a 03       		.uleb128 0x3
 3233 005b 00010000 		.4byte	.LASF6
 3234 005f 05       		.byte	0x5
 3235 0060 4D       		.byte	0x4d
 3236 0061 18       		.byte	0x18
 3237 0062 66000000 		.4byte	0x66
 3238 0066 0F       		.uleb128 0xf
 3239 0067 04       		.byte	0x4
 3240 0068 05       		.byte	0x5
 3241 0069 00000000 		.4byte	.LASF7
 3242 006d 03       		.uleb128 0x3
 3243 006e A50D0000 		.4byte	.LASF8
 3244 0072 05       		.byte	0x5
 3245 0073 4F       		.byte	0x4f
 3246 0074 19       		.byte	0x19
 3247 0075 79000000 		.4byte	0x79
 3248 0079 0F       		.uleb128 0xf
 3249 007a 04       		.byte	0x4
 3250 007b 07       		.byte	0x7
 3251 007c CF0C0000 		.4byte	.LASF9
 3252 0080 0F       		.uleb128 0xf
 3253 0081 08       		.byte	0x8
 3254 0082 05       		.byte	0x5
 3255 0083 D3070000 		.4byte	.LASF10
 3256 0087 03       		.uleb128 0x3
 3257 0088 0F070000 		.4byte	.LASF11
 3258 008c 05       		.byte	0x5
 3259 008d 69       		.byte	0x69
 3260 008e 19       		.byte	0x19
 3261 008f 93000000 		.4byte	0x93
 3262 0093 0F       		.uleb128 0xf
 3263 0094 08       		.byte	0x8
 3264 0095 07       		.byte	0x7
 3265 0096 87030000 		.4byte	.LASF12
 3266 009a 31       		.uleb128 0x31
 3267 009b 04       		.byte	0x4
 3268 009c 05       		.byte	0x5
 3269 009d 696E7400 		.ascii	"int\000"
 3270 00a1 0F       		.uleb128 0xf
 3271 00a2 04       		.byte	0x4
 3272 00a3 07       		.byte	0x7
 3273 00a4 C2000000 		.4byte	.LASF13
 3274 00a8 03       		.uleb128 0x3
 3275 00a9 47070000 		.4byte	.LASF14
 3276 00ad 06       		.byte	0x6
 3277 00ae 18       		.byte	0x18
 3278 00af 13       		.byte	0x13
 3279 00b0 2D000000 		.4byte	0x2d
 3280 00b4 0D       		.uleb128 0xd
 3281 00b5 A8000000 		.4byte	0xa8
 3282 00b9 03       		.uleb128 0x3
 3283 00ba 3F0A0000 		.4byte	.LASF15
ARM GAS  C:\Users\DEVELO~1\AppData\Local\Temp\ccFr3SeA.s 			page 59


 3284 00be 06       		.byte	0x6
 3285 00bf 24       		.byte	0x24
 3286 00c0 14       		.byte	0x14
 3287 00c1 47000000 		.4byte	0x47
 3288 00c5 0D       		.uleb128 0xd
 3289 00c6 B9000000 		.4byte	0xb9
 3290 00ca 03       		.uleb128 0x3
 3291 00cb 1F0D0000 		.4byte	.LASF16
 3292 00cf 06       		.byte	0x6
 3293 00d0 2C       		.byte	0x2c
 3294 00d1 13       		.byte	0x13
 3295 00d2 5A000000 		.4byte	0x5a
 3296 00d6 03       		.uleb128 0x3
 3297 00d7 CE0D0000 		.4byte	.LASF17
 3298 00db 06       		.byte	0x6
 3299 00dc 30       		.byte	0x30
 3300 00dd 14       		.byte	0x14
 3301 00de 6D000000 		.4byte	0x6d
 3302 00e2 0D       		.uleb128 0xd
 3303 00e3 D6000000 		.4byte	0xd6
 3304 00e7 03       		.uleb128 0x3
 3305 00e8 1D0C0000 		.4byte	.LASF18
 3306 00ec 06       		.byte	0x6
 3307 00ed 3C       		.byte	0x3c
 3308 00ee 14       		.byte	0x14
 3309 00ef 87000000 		.4byte	0x87
 3310 00f3 0D       		.uleb128 0xd
 3311 00f4 E7000000 		.4byte	0xe7
 3312 00f8 1E       		.uleb128 0x1e
 3313 00f9 39000000 		.4byte	0x39
 3314 00fd 07       		.byte	0x7
 3315 00fe 17       		.byte	0x17
 3316 00ff 1C010000 		.4byte	0x11c
 3317 0103 07       		.uleb128 0x7
 3318 0104 850E0000 		.4byte	.LASF19
 3319 0108 00       		.byte	0
 3320 0109 07       		.uleb128 0x7
 3321 010a ED0E0000 		.4byte	.LASF20
 3322 010e 01       		.byte	0x1
 3323 010f 07       		.uleb128 0x7
 3324 0110 3F020000 		.4byte	.LASF21
 3325 0114 02       		.byte	0x2
 3326 0115 07       		.uleb128 0x7
 3327 0116 22010000 		.4byte	.LASF22
 3328 011a 03       		.byte	0x3
 3329 011b 00       		.byte	0
 3330 011c 03       		.uleb128 0x3
 3331 011d A0070000 		.4byte	.LASF23
 3332 0121 07       		.byte	0x7
 3333 0122 1D       		.byte	0x1d
 3334 0123 03       		.byte	0x3
 3335 0124 F8000000 		.4byte	0xf8
 3336 0128 0D       		.uleb128 0xd
 3337 0129 1C010000 		.4byte	0x11c
 3338 012d 1E       		.uleb128 0x1e
 3339 012e 39000000 		.4byte	0x39
 3340 0132 07       		.byte	0x7
ARM GAS  C:\Users\DEVELO~1\AppData\Local\Temp\ccFr3SeA.s 			page 60


 3341 0133 1F       		.byte	0x1f
 3342 0134 5D010000 		.4byte	0x15d
 3343 0138 07       		.uleb128 0x7
 3344 0139 B00A0000 		.4byte	.LASF24
 3345 013d 00       		.byte	0
 3346 013e 07       		.uleb128 0x7
 3347 013f 8C0D0000 		.4byte	.LASF25
 3348 0143 01       		.byte	0x1
 3349 0144 07       		.uleb128 0x7
 3350 0145 CF0B0000 		.4byte	.LASF26
 3351 0149 02       		.byte	0x2
 3352 014a 07       		.uleb128 0x7
 3353 014b C80F0000 		.4byte	.LASF27
 3354 014f 03       		.byte	0x3
 3355 0150 07       		.uleb128 0x7
 3356 0151 5E0D0000 		.4byte	.LASF28
 3357 0155 04       		.byte	0x4
 3358 0156 07       		.uleb128 0x7
 3359 0157 15000000 		.4byte	.LASF29
 3360 015b 05       		.byte	0x5
 3361 015c 00       		.byte	0
 3362 015d 03       		.uleb128 0x3
 3363 015e D5080000 		.4byte	.LASF30
 3364 0162 07       		.byte	0x7
 3365 0163 27       		.byte	0x27
 3366 0164 03       		.byte	0x3
 3367 0165 2D010000 		.4byte	0x12d
 3368 0169 0D       		.uleb128 0xd
 3369 016a 5D010000 		.4byte	0x15d
 3370 016e 03       		.uleb128 0x3
 3371 016f 25050000 		.4byte	.LASF31
 3372 0173 08       		.byte	0x8
 3373 0174 D1       		.byte	0xd1
 3374 0175 17       		.byte	0x17
 3375 0176 A1000000 		.4byte	0xa1
 3376 017a 0F       		.uleb128 0xf
 3377 017b 08       		.byte	0x8
 3378 017c 04       		.byte	0x4
 3379 017d 330A0000 		.4byte	.LASF32
 3380 0181 03       		.uleb128 0x3
 3381 0182 B00B0000 		.4byte	.LASF33
 3382 0186 09       		.byte	0x9
 3383 0187 48       		.byte	0x48
 3384 0188 1D       		.byte	0x1d
 3385 0189 E7000000 		.4byte	0xe7
 3386 018d 03       		.uleb128 0x3
 3387 018e C70E0000 		.4byte	.LASF34
 3388 0192 0A       		.byte	0xa
 3389 0193 50       		.byte	0x50
 3390 0194 19       		.byte	0x19
 3391 0195 81010000 		.4byte	0x181
 3392 0199 03       		.uleb128 0x3
 3393 019a C0090000 		.4byte	.LASF35
 3394 019e 0A       		.byte	0xa
 3395 019f 53       		.byte	0x53
 3396 01a0 19       		.byte	0x19
 3397 01a1 A8000000 		.4byte	0xa8
ARM GAS  C:\Users\DEVELO~1\AppData\Local\Temp\ccFr3SeA.s 			page 61


 3398 01a5 03       		.uleb128 0x3
 3399 01a6 C8060000 		.4byte	.LASF36
 3400 01aa 0A       		.byte	0xa
 3401 01ab 54       		.byte	0x54
 3402 01ac 19       		.byte	0x19
 3403 01ad A8000000 		.4byte	0xa8
 3404 01b1 03       		.uleb128 0x3
 3405 01b2 BD0C0000 		.4byte	.LASF37
 3406 01b6 0A       		.byte	0xa
 3407 01b7 55       		.byte	0x55
 3408 01b8 19       		.byte	0x19
 3409 01b9 A8000000 		.4byte	0xa8
 3410 01bd 03       		.uleb128 0x3
 3411 01be A5020000 		.4byte	.LASF38
 3412 01c2 0A       		.byte	0xa
 3413 01c3 57       		.byte	0x57
 3414 01c4 19       		.byte	0x19
 3415 01c5 D6000000 		.4byte	0xd6
 3416 01c9 03       		.uleb128 0x3
 3417 01ca 11080000 		.4byte	.LASF39
 3418 01ce 0A       		.byte	0xa
 3419 01cf 58       		.byte	0x58
 3420 01d0 19       		.byte	0x19
 3421 01d1 CA000000 		.4byte	0xca
 3422 01d5 03       		.uleb128 0x3
 3423 01d6 FF070000 		.4byte	.LASF40
 3424 01da 0A       		.byte	0xa
 3425 01db 5A       		.byte	0x5a
 3426 01dc 19       		.byte	0x19
 3427 01dd D6000000 		.4byte	0xd6
 3428 01e1 03       		.uleb128 0x3
 3429 01e2 FC030000 		.4byte	.LASF41
 3430 01e6 0A       		.byte	0xa
 3431 01e7 5C       		.byte	0x5c
 3432 01e8 19       		.byte	0x19
 3433 01e9 CA000000 		.4byte	0xca
 3434 01ed 03       		.uleb128 0x3
 3435 01ee A70F0000 		.4byte	.LASF42
 3436 01f2 0A       		.byte	0xa
 3437 01f3 80       		.byte	0x80
 3438 01f4 12       		.byte	0x12
 3439 01f5 A1000000 		.4byte	0xa1
 3440 01f9 03       		.uleb128 0x3
 3441 01fa 02050000 		.4byte	.LASF43
 3442 01fe 0A       		.byte	0xa
 3443 01ff 85       		.byte	0x85
 3444 0200 1A       		.byte	0x1a
 3445 0201 05020000 		.4byte	0x205
 3446 0205 0E       		.uleb128 0xe
 3447 0206 66070000 		.4byte	.LASF58
 3448 020a 48       		.byte	0x48
 3449 020b 0B       		.byte	0xb
 3450 020c 9C       		.byte	0x9c
 3451 020d 08       		.byte	0x8
 3452 020e E8020000 		.4byte	0x2e8
 3453 0212 08       		.uleb128 0x8
 3454 0213 68647200 		.ascii	"hdr\000"
ARM GAS  C:\Users\DEVELO~1\AppData\Local\Temp\ccFr3SeA.s 			page 62


 3455 0217 0B       		.byte	0xb
 3456 0218 AD       		.byte	0xad
 3457 0219 05       		.byte	0x5
 3458 021a 390B0000 		.4byte	0xb39
 3459 021e 00       		.byte	0
 3460 021f 08       		.uleb128 0x8
 3461 0220 63747800 		.ascii	"ctx\000"
 3462 0224 0B       		.byte	0xb
 3463 0225 B1       		.byte	0xb1
 3464 0226 21       		.byte	0x21
 3465 0227 A40A0000 		.4byte	0xaa4
 3466 022b 0C       		.byte	0xc
 3467 022c 01       		.uleb128 0x1
 3468 022d DA060000 		.4byte	.LASF44
 3469 0231 0B       		.byte	0xb
 3470 0232 B6       		.byte	0xb6
 3471 0233 21       		.byte	0x21
 3472 0234 36040000 		.4byte	0x436
 3473 0238 10       		.byte	0x10
 3474 0239 01       		.uleb128 0x1
 3475 023a 0A0F0000 		.4byte	.LASF45
 3476 023e 0B       		.byte	0xb
 3477 023f BB       		.byte	0xbb
 3478 0240 22       		.byte	0x22
 3479 0241 3D0C0000 		.4byte	0xc3d
 3480 0245 18       		.byte	0x18
 3481 0246 01       		.uleb128 0x1
 3482 0247 830C0000 		.4byte	.LASF46
 3483 024b 0B       		.byte	0xb
 3484 024c C0       		.byte	0xc0
 3485 024d 22       		.byte	0x22
 3486 024e D0030000 		.4byte	0x3d0
 3487 0252 1C       		.byte	0x1c
 3488 0253 01       		.uleb128 0x1
 3489 0254 A1060000 		.4byte	.LASF47
 3490 0258 0B       		.byte	0xb
 3491 0259 C9       		.byte	0xc9
 3492 025a 22       		.byte	0x22
 3493 025b 420C0000 		.4byte	0xc42
 3494 025f 20       		.byte	0x20
 3495 0260 01       		.uleb128 0x1
 3496 0261 230E0000 		.4byte	.LASF48
 3497 0265 0B       		.byte	0xb
 3498 0266 CE       		.byte	0xce
 3499 0267 21       		.byte	0x21
 3500 0268 A5010000 		.4byte	0x1a5
 3501 026c 24       		.byte	0x24
 3502 026d 01       		.uleb128 0x1
 3503 026e 83000000 		.4byte	.LASF49
 3504 0272 0B       		.byte	0xb
 3505 0273 D2       		.byte	0xd2
 3506 0274 21       		.byte	0x21
 3507 0275 99010000 		.4byte	0x199
 3508 0279 25       		.byte	0x25
 3509 027a 01       		.uleb128 0x1
 3510 027b 0A010000 		.4byte	.LASF50
 3511 027f 0B       		.byte	0xb
ARM GAS  C:\Users\DEVELO~1\AppData\Local\Temp\ccFr3SeA.s 			page 63


 3512 0280 D7       		.byte	0xd7
 3513 0281 21       		.byte	0x21
 3514 0282 B1010000 		.4byte	0x1b1
 3515 0286 26       		.byte	0x26
 3516 0287 04       		.uleb128 0x4
 3517 0288 7500     		.ascii	"u\000"
 3518 028a 0B       		.byte	0xb
 3519 028b 2801     		.2byte	0x128
 3520 028d 21       		.byte	0x21
 3521 028e 670B0000 		.4byte	0xb67
 3522 0292 28       		.byte	0x28
 3523 0293 02       		.uleb128 0x2
 3524 0294 B00D0000 		.4byte	.LASF51
 3525 0298 0B       		.byte	0xb
 3526 0299 2D01     		.2byte	0x12d
 3527 029b 21       		.byte	0x21
 3528 029c 0A040000 		.4byte	0x40a
 3529 02a0 2C       		.byte	0x2c
 3530 02a1 02       		.uleb128 0x2
 3531 02a2 AD020000 		.4byte	.LASF52
 3532 02a6 0B       		.byte	0xb
 3533 02a7 3301     		.2byte	0x133
 3534 02a9 21       		.byte	0x21
 3535 02aa 36040000 		.4byte	0x436
 3536 02ae 30       		.byte	0x30
 3537 02af 02       		.uleb128 0x2
 3538 02b0 B9000000 		.4byte	.LASF53
 3539 02b4 0B       		.byte	0xb
 3540 02b5 3901     		.2byte	0x139
 3541 02b7 21       		.byte	0x21
 3542 02b8 D5010000 		.4byte	0x1d5
 3543 02bc 38       		.byte	0x38
 3544 02bd 02       		.uleb128 0x2
 3545 02be 77040000 		.4byte	.LASF54
 3546 02c2 0B       		.byte	0xb
 3547 02c3 4001     		.2byte	0x140
 3548 02c5 22       		.byte	0x22
 3549 02c6 380C0000 		.4byte	0xc38
 3550 02ca 3C       		.byte	0x3c
 3551 02cb 02       		.uleb128 0x2
 3552 02cc 93000000 		.4byte	.LASF55
 3553 02d0 0B       		.byte	0xb
 3554 02d1 4401     		.2byte	0x144
 3555 02d3 21       		.byte	0x21
 3556 02d4 BD010000 		.4byte	0x1bd
 3557 02d8 40       		.byte	0x40
 3558 02d9 02       		.uleb128 0x2
 3559 02da B10F0000 		.4byte	.LASF56
 3560 02de 0B       		.byte	0xb
 3561 02df 4B01     		.2byte	0x14b
 3562 02e1 22       		.byte	0x22
 3563 02e2 24050000 		.4byte	0x524
 3564 02e6 44       		.byte	0x44
 3565 02e7 00       		.byte	0
 3566 02e8 03       		.uleb128 0x3
 3567 02e9 3F0E0000 		.4byte	.LASF57
 3568 02ed 0A       		.byte	0xa
ARM GAS  C:\Users\DEVELO~1\AppData\Local\Temp\ccFr3SeA.s 			page 64


 3569 02ee 8A       		.byte	0x8a
 3570 02ef 1F       		.byte	0x1f
 3571 02f0 F4020000 		.4byte	0x2f4
 3572 02f4 32       		.uleb128 0x32
 3573 02f5 C5050000 		.4byte	.LASF59
 3574 02f9 9008     		.2byte	0x890
 3575 02fb 0B       		.byte	0xb
 3576 02fc 8A01     		.2byte	0x18a
 3577 02fe 08       		.byte	0x8
 3578 02ff 82030000 		.4byte	0x382
 3579 0303 02       		.uleb128 0x2
 3580 0304 420C0000 		.4byte	.LASF60
 3581 0308 0B       		.byte	0xb
 3582 0309 8E01     		.2byte	0x18e
 3583 030b 21       		.byte	0x21
 3584 030c 720C0000 		.4byte	0xc72
 3585 0310 00       		.byte	0
 3586 0311 02       		.uleb128 0x2
 3587 0312 50010000 		.4byte	.LASF61
 3588 0316 0B       		.byte	0xb
 3589 0317 9201     		.2byte	0x192
 3590 0319 21       		.byte	0x21
 3591 031a FA0A0000 		.4byte	0xafa
 3592 031e 10       		.byte	0x10
 3593 031f 02       		.uleb128 0x2
 3594 0320 4D0E0000 		.4byte	.LASF62
 3595 0324 0B       		.byte	0xb
 3596 0325 9901     		.2byte	0x199
 3597 0327 21       		.byte	0x21
 3598 0328 210B0000 		.4byte	0xb21
 3599 032c 28       		.byte	0x28
 3600 032d 02       		.uleb128 0x2
 3601 032e E0000000 		.4byte	.LASF63
 3602 0332 0B       		.byte	0xb
 3603 0333 9E01     		.2byte	0x19e
 3604 0335 21       		.byte	0x21
 3605 0336 ED010000 		.4byte	0x1ed
 3606 033a 30       		.byte	0x30
 3607 033b 02       		.uleb128 0x2
 3608 033c F5040000 		.4byte	.LASF64
 3609 0340 0B       		.byte	0xb
 3610 0341 A401     		.2byte	0x1a4
 3611 0343 21       		.byte	0x21
 3612 0344 A9030000 		.4byte	0x3a9
 3613 0348 34       		.byte	0x34
 3614 0349 02       		.uleb128 0x2
 3615 034a A4050000 		.4byte	.LASF65
 3616 034e 0B       		.byte	0xb
 3617 034f A901     		.2byte	0x1a9
 3618 0351 22       		.byte	0x22
 3619 0352 E60C0000 		.4byte	0xce6
 3620 0356 38       		.byte	0x38
 3621 0357 02       		.uleb128 0x2
 3622 0358 F4090000 		.4byte	.LASF66
 3623 035c 0B       		.byte	0xb
 3624 035d AD01     		.2byte	0x1ad
 3625 035f 21       		.byte	0x21
ARM GAS  C:\Users\DEVELO~1\AppData\Local\Temp\ccFr3SeA.s 			page 65


 3626 0360 F9010000 		.4byte	0x1f9
 3627 0364 3C       		.byte	0x3c
 3628 0365 04       		.uleb128 0x4
 3629 0366 64626700 		.ascii	"dbg\000"
 3630 036a 0B       		.byte	0xb
 3631 036b B101     		.2byte	0x1b1
 3632 036d 21       		.byte	0x21
 3633 036e E6030000 		.4byte	0x3e6
 3634 0372 84       		.byte	0x84
 3635 0373 02       		.uleb128 0x2
 3636 0374 C1030000 		.4byte	.LASF67
 3637 0378 0B       		.byte	0xb
 3638 0379 B601     		.2byte	0x1b6
 3639 037b 21       		.byte	0x21
 3640 037c 86060000 		.4byte	0x686
 3641 0380 88       		.byte	0x88
 3642 0381 00       		.byte	0
 3643 0382 03       		.uleb128 0x3
 3644 0383 7A060000 		.4byte	.LASF68
 3645 0387 0C       		.byte	0xc
 3646 0388 3F       		.byte	0x3f
 3647 0389 12       		.byte	0x12
 3648 038a D6000000 		.4byte	0xd6
 3649 038e 0E       		.uleb128 0xe
 3650 038f 7B000000 		.4byte	.LASF69
 3651 0393 04       		.byte	0x4
 3652 0394 0C       		.byte	0xc
 3653 0395 44       		.byte	0x44
 3654 0396 10       		.byte	0x10
 3655 0397 A9030000 		.4byte	0x3a9
 3656 039b 01       		.uleb128 0x1
 3657 039c E6080000 		.4byte	.LASF70
 3658 03a0 0C       		.byte	0xc
 3659 03a1 48       		.byte	0x48
 3660 03a2 21       		.byte	0x21
 3661 03a3 82030000 		.4byte	0x382
 3662 03a7 00       		.byte	0
 3663 03a8 00       		.byte	0
 3664 03a9 03       		.uleb128 0x3
 3665 03aa 270D0000 		.4byte	.LASF71
 3666 03ae 0C       		.byte	0xc
 3667 03af 49       		.byte	0x49
 3668 03b0 03       		.byte	0x3
 3669 03b1 8E030000 		.4byte	0x38e
 3670 03b5 0E       		.uleb128 0xe
 3671 03b6 F8010000 		.4byte	.LASF72
 3672 03ba 04       		.byte	0x4
 3673 03bb 0D       		.byte	0xd
 3674 03bc 3E       		.byte	0x3e
 3675 03bd 10       		.byte	0x10
 3676 03be D0030000 		.4byte	0x3d0
 3677 03c2 01       		.uleb128 0x1
 3678 03c3 55090000 		.4byte	.LASF73
 3679 03c7 0D       		.byte	0xd
 3680 03c8 46       		.byte	0x46
 3681 03c9 24       		.byte	0x24
 3682 03ca D5030000 		.4byte	0x3d5
ARM GAS  C:\Users\DEVELO~1\AppData\Local\Temp\ccFr3SeA.s 			page 66


 3683 03ce 00       		.byte	0
 3684 03cf 00       		.byte	0
 3685 03d0 05       		.uleb128 0x5
 3686 03d1 E1030000 		.4byte	0x3e1
 3687 03d5 0D       		.uleb128 0xd
 3688 03d6 D0030000 		.4byte	0x3d0
 3689 03da 0F       		.uleb128 0xf
 3690 03db 01       		.byte	0x1
 3691 03dc 08       		.byte	0x8
 3692 03dd 57060000 		.4byte	.LASF74
 3693 03e1 16       		.uleb128 0x16
 3694 03e2 DA030000 		.4byte	0x3da
 3695 03e6 03       		.uleb128 0x3
 3696 03e7 B0070000 		.4byte	.LASF75
 3697 03eb 0D       		.byte	0xd
 3698 03ec 51       		.byte	0x51
 3699 03ed 03       		.byte	0x3
 3700 03ee B5030000 		.4byte	0x3b5
 3701 03f2 03       		.uleb128 0x3
 3702 03f3 89000000 		.4byte	.LASF76
 3703 03f7 0E       		.byte	0xe
 3704 03f8 6D       		.byte	0x6d
 3705 03f9 12       		.byte	0x12
 3706 03fa D6000000 		.4byte	0xd6
 3707 03fe 03       		.uleb128 0x3
 3708 03ff 33090000 		.4byte	.LASF77
 3709 0403 0E       		.byte	0xe
 3710 0404 79       		.byte	0x79
 3711 0405 12       		.byte	0x12
 3712 0406 D6000000 		.4byte	0xd6
 3713 040a 03       		.uleb128 0x3
 3714 040b 660A0000 		.4byte	.LASF78
 3715 040f 0F       		.byte	0xf
 3716 0410 32       		.byte	0x32
 3717 0411 18       		.byte	0x18
 3718 0412 16040000 		.4byte	0x416
 3719 0416 0E       		.uleb128 0xe
 3720 0417 D0010000 		.4byte	.LASF79
 3721 041b 04       		.byte	0x4
 3722 041c 0F       		.byte	0xf
 3723 041d 38       		.byte	0x38
 3724 041e 08       		.byte	0x8
 3725 041f 31040000 		.4byte	0x431
 3726 0423 01       		.uleb128 0x1
 3727 0424 CF000000 		.4byte	.LASF80
 3728 0428 0F       		.byte	0xf
 3729 0429 39       		.byte	0x39
 3730 042a 1A       		.byte	0x1a
 3731 042b 31040000 		.4byte	0x431
 3732 042f 00       		.byte	0
 3733 0430 00       		.byte	0
 3734 0431 05       		.uleb128 0x5
 3735 0432 0A040000 		.4byte	0x40a
 3736 0436 03       		.uleb128 0x3
 3737 0437 41090000 		.4byte	.LASF81
 3738 043b 0F       		.byte	0xf
 3739 043c 3F       		.byte	0x3f
ARM GAS  C:\Users\DEVELO~1\AppData\Local\Temp\ccFr3SeA.s 			page 67


 3740 043d 19       		.byte	0x19
 3741 043e 42040000 		.4byte	0x442
 3742 0442 0E       		.uleb128 0xe
 3743 0443 87080000 		.4byte	.LASF82
 3744 0447 08       		.byte	0x8
 3745 0448 0F       		.byte	0xf
 3746 0449 45       		.byte	0x45
 3747 044a 08       		.byte	0x8
 3748 044b 6A040000 		.4byte	0x46a
 3749 044f 01       		.uleb128 0x1
 3750 0450 CF000000 		.4byte	.LASF80
 3751 0454 0F       		.byte	0xf
 3752 0455 46       		.byte	0x46
 3753 0456 1A       		.byte	0x1a
 3754 0457 6A040000 		.4byte	0x46a
 3755 045b 00       		.byte	0
 3756 045c 01       		.uleb128 0x1
 3757 045d B5010000 		.4byte	.LASF83
 3758 0461 0F       		.byte	0xf
 3759 0462 47       		.byte	0x47
 3760 0463 1A       		.byte	0x1a
 3761 0464 6A040000 		.4byte	0x46a
 3762 0468 04       		.byte	0x4
 3763 0469 00       		.byte	0
 3764 046a 05       		.uleb128 0x5
 3765 046b 36040000 		.4byte	0x436
 3766 046f 03       		.uleb128 0x3
 3767 0470 3D050000 		.4byte	.LASF84
 3768 0474 0F       		.byte	0xf
 3769 0475 4E       		.byte	0x4e
 3770 0476 22       		.byte	0x22
 3771 0477 7B040000 		.4byte	0x47b
 3772 047b 0E       		.uleb128 0xe
 3773 047c 3C0D0000 		.4byte	.LASF85
 3774 0480 0C       		.byte	0xc
 3775 0481 0F       		.byte	0xf
 3776 0482 55       		.byte	0x55
 3777 0483 08       		.byte	0x8
 3778 0484 B0040000 		.4byte	0x4b0
 3779 0488 01       		.uleb128 0x1
 3780 0489 CF000000 		.4byte	.LASF80
 3781 048d 0F       		.byte	0xf
 3782 048e 56       		.byte	0x56
 3783 048f 1A       		.byte	0x1a
 3784 0490 B0040000 		.4byte	0x4b0
 3785 0494 00       		.byte	0
 3786 0495 01       		.uleb128 0x1
 3787 0496 B5010000 		.4byte	.LASF83
 3788 049a 0F       		.byte	0xf
 3789 049b 57       		.byte	0x57
 3790 049c 1A       		.byte	0x1a
 3791 049d B0040000 		.4byte	0x4b0
 3792 04a1 04       		.byte	0x4
 3793 04a2 01       		.uleb128 0x1
 3794 04a3 47060000 		.4byte	.LASF86
 3795 04a7 0F       		.byte	0xf
 3796 04a8 58       		.byte	0x58
ARM GAS  C:\Users\DEVELO~1\AppData\Local\Temp\ccFr3SeA.s 			page 68


 3797 04a9 19       		.byte	0x19
 3798 04aa BD010000 		.4byte	0x1bd
 3799 04ae 08       		.byte	0x8
 3800 04af 00       		.byte	0
 3801 04b0 05       		.uleb128 0x5
 3802 04b1 6F040000 		.4byte	0x46f
 3803 04b5 03       		.uleb128 0x3
 3804 04b6 6A060000 		.4byte	.LASF87
 3805 04ba 0F       		.byte	0xf
 3806 04bb 5F       		.byte	0x5f
 3807 04bc 1E       		.byte	0x1e
 3808 04bd C1040000 		.4byte	0x4c1
 3809 04c1 0E       		.uleb128 0xe
 3810 04c2 2B020000 		.4byte	.LASF88
 3811 04c6 0C       		.byte	0xc
 3812 04c7 0F       		.byte	0xf
 3813 04c8 64       		.byte	0x64
 3814 04c9 08       		.byte	0x8
 3815 04ca F6040000 		.4byte	0x4f6
 3816 04ce 01       		.uleb128 0x1
 3817 04cf CF000000 		.4byte	.LASF80
 3818 04d3 0F       		.byte	0xf
 3819 04d4 65       		.byte	0x65
 3820 04d5 1A       		.byte	0x1a
 3821 04d6 F6040000 		.4byte	0x4f6
 3822 04da 00       		.byte	0
 3823 04db 01       		.uleb128 0x1
 3824 04dc B5010000 		.4byte	.LASF83
 3825 04e0 0F       		.byte	0xf
 3826 04e1 66       		.byte	0x66
 3827 04e2 1A       		.byte	0x1a
 3828 04e3 F6040000 		.4byte	0x4f6
 3829 04e7 04       		.byte	0x4
 3830 04e8 01       		.uleb128 0x1
 3831 04e9 A70E0000 		.4byte	.LASF89
 3832 04ed 0F       		.byte	0xf
 3833 04ee 67       		.byte	0x67
 3834 04ef 19       		.byte	0x19
 3835 04f0 FE030000 		.4byte	0x3fe
 3836 04f4 08       		.byte	0x8
 3837 04f5 00       		.byte	0
 3838 04f6 05       		.uleb128 0x5
 3839 04f7 B5040000 		.4byte	0x4b5
 3840 04fb 14       		.uleb128 0x14
 3841 04fc 08       		.byte	0x8
 3842 04fd 10       		.byte	0x10
 3843 04fe 83       		.byte	0x83
 3844 04ff 05       		.byte	0x5
 3845 0500 1F050000 		.4byte	0x51f
 3846 0504 08       		.uleb128 0x8
 3847 0505 6E747000 		.ascii	"ntp\000"
 3848 0509 10       		.byte	0x10
 3849 050a 87       		.byte	0x87
 3850 050b 1E       		.byte	0x1e
 3851 050c 1F050000 		.4byte	0x51f
 3852 0510 00       		.byte	0
 3853 0511 01       		.uleb128 0x1
ARM GAS  C:\Users\DEVELO~1\AppData\Local\Temp\ccFr3SeA.s 			page 69


 3854 0512 3F010000 		.4byte	.LASF90
 3855 0516 10       		.byte	0x10
 3856 0517 8B       		.byte	0x8b
 3857 0518 1E       		.byte	0x1e
 3858 0519 24050000 		.4byte	0x524
 3859 051d 04       		.byte	0x4
 3860 051e 00       		.byte	0
 3861 051f 05       		.uleb128 0x5
 3862 0520 F9010000 		.4byte	0x1f9
 3863 0524 33       		.uleb128 0x33
 3864 0525 04       		.byte	0x4
 3865 0526 14       		.uleb128 0x14
 3866 0527 08       		.byte	0x8
 3867 0528 10       		.byte	0x10
 3868 0529 90       		.byte	0x90
 3869 052a 05       		.byte	0x5
 3870 052b 49050000 		.4byte	0x549
 3871 052f 08       		.uleb128 0x8
 3872 0530 747000   		.ascii	"tp\000"
 3873 0533 10       		.byte	0x10
 3874 0534 94       		.byte	0x94
 3875 0535 1E       		.byte	0x1e
 3876 0536 1F050000 		.4byte	0x51f
 3877 053a 00       		.byte	0
 3878 053b 08       		.uleb128 0x8
 3879 053c 6D736700 		.ascii	"msg\000"
 3880 0540 10       		.byte	0x10
 3881 0541 98       		.byte	0x98
 3882 0542 1D       		.byte	0x1d
 3883 0543 C9010000 		.4byte	0x1c9
 3884 0547 04       		.byte	0x4
 3885 0548 00       		.byte	0
 3886 0549 14       		.uleb128 0x14
 3887 054a 04       		.byte	0x4
 3888 054b 10       		.byte	0x10
 3889 054c 9D       		.byte	0x9d
 3890 054d 05       		.byte	0x5
 3891 054e 60050000 		.4byte	0x560
 3892 0552 01       		.uleb128 0x1
 3893 0553 830C0000 		.4byte	.LASF46
 3894 0557 10       		.byte	0x10
 3895 0558 A1       		.byte	0xa1
 3896 0559 1E       		.byte	0x1e
 3897 055a D0030000 		.4byte	0x3d0
 3898 055e 00       		.byte	0
 3899 055f 00       		.byte	0
 3900 0560 14       		.uleb128 0x14
 3901 0561 04       		.byte	0x4
 3902 0562 10       		.byte	0x10
 3903 0563 A6       		.byte	0xa6
 3904 0564 05       		.byte	0x5
 3905 0565 77050000 		.4byte	0x577
 3906 0569 01       		.uleb128 0x1
 3907 056a 570F0000 		.4byte	.LASF91
 3908 056e 10       		.byte	0x10
 3909 056f AA       		.byte	0xaa
 3910 0570 1E       		.byte	0x1e
ARM GAS  C:\Users\DEVELO~1\AppData\Local\Temp\ccFr3SeA.s 			page 70


 3911 0571 D0030000 		.4byte	0x3d0
 3912 0575 00       		.byte	0
 3913 0576 00       		.byte	0
 3914 0577 14       		.uleb128 0x14
 3915 0578 08       		.byte	0x8
 3916 0579 10       		.byte	0x10
 3917 057a AF       		.byte	0xaf
 3918 057b 05       		.byte	0x5
 3919 057c 9B050000 		.4byte	0x59b
 3920 0580 08       		.uleb128 0x8
 3921 0581 75703100 		.ascii	"up1\000"
 3922 0585 10       		.byte	0x10
 3923 0586 B3       		.byte	0xb3
 3924 0587 1E       		.byte	0x1e
 3925 0588 24050000 		.4byte	0x524
 3926 058c 00       		.byte	0
 3927 058d 08       		.uleb128 0x8
 3928 058e 75703200 		.ascii	"up2\000"
 3929 0592 10       		.byte	0x10
 3930 0593 B7       		.byte	0xb7
 3931 0594 1E       		.byte	0x1e
 3932 0595 24050000 		.4byte	0x524
 3933 0599 04       		.byte	0x4
 3934 059a 00       		.byte	0
 3935 059b 1F       		.uleb128 0x1f
 3936 059c 08       		.byte	0x8
 3937 059d 10       		.byte	0x10
 3938 059e 7F       		.byte	0x7f
 3939 059f 03       		.byte	0x3
 3940 05a0 E0050000 		.4byte	0x5e0
 3941 05a4 1C       		.uleb128 0x1c
 3942 05a5 737700   		.ascii	"sw\000"
 3943 05a8 10       		.byte	0x10
 3944 05a9 8C       		.byte	0x8c
 3945 05aa 07       		.byte	0x7
 3946 05ab FB040000 		.4byte	0x4fb
 3947 05af 1C       		.uleb128 0x1c
 3948 05b0 72647900 		.ascii	"rdy\000"
 3949 05b4 10       		.byte	0x10
 3950 05b5 99       		.byte	0x99
 3951 05b6 07       		.byte	0x7
 3952 05b7 26050000 		.4byte	0x526
 3953 05bb 1C       		.uleb128 0x1c
 3954 05bc 69737200 		.ascii	"isr\000"
 3955 05c0 10       		.byte	0x10
 3956 05c1 A2       		.byte	0xa2
 3957 05c2 07       		.byte	0x7
 3958 05c3 49050000 		.4byte	0x549
 3959 05c7 17       		.uleb128 0x17
 3960 05c8 48080000 		.4byte	.LASF92
 3961 05cc 10       		.byte	0x10
 3962 05cd AB       		.byte	0xab
 3963 05ce 07       		.byte	0x7
 3964 05cf 60050000 		.4byte	0x560
 3965 05d3 17       		.uleb128 0x17
 3966 05d4 14050000 		.4byte	.LASF93
 3967 05d8 10       		.byte	0x10
ARM GAS  C:\Users\DEVELO~1\AppData\Local\Temp\ccFr3SeA.s 			page 71


 3968 05d9 B8       		.byte	0xb8
 3969 05da 07       		.byte	0x7
 3970 05db 77050000 		.4byte	0x577
 3971 05df 00       		.byte	0
 3972 05e0 14       		.uleb128 0x14
 3973 05e1 10       		.byte	0x10
 3974 05e2 10       		.byte	0x10
 3975 05e3 6C       		.byte	0x6c
 3976 05e4 09       		.byte	0x9
 3977 05e5 26060000 		.4byte	0x626
 3978 05e9 23       		.uleb128 0x23
 3979 05ea 790D0000 		.4byte	.LASF94
 3980 05ee 70       		.byte	0x70
 3981 05ef D6000000 		.4byte	0xd6
 3982 05f3 03       		.byte	0x3
 3983 05f4 00       		.byte	0
 3984 05f5 23       		.uleb128 0x23
 3985 05f6 230E0000 		.4byte	.LASF48
 3986 05fa 74       		.byte	0x74
 3987 05fb D6000000 		.4byte	0xd6
 3988 05ff 05       		.byte	0x5
 3989 0600 03       		.byte	0x3
 3990 0601 23       		.uleb128 0x23
 3991 0602 050D0000 		.4byte	.LASF95
 3992 0606 7A       		.byte	0x7a
 3993 0607 D6000000 		.4byte	0xd6
 3994 060b 18       		.byte	0x18
 3995 060c 08       		.byte	0x8
 3996 060d 01       		.uleb128 0x1
 3997 060e 31040000 		.4byte	.LASF96
 3998 0612 10       		.byte	0x10
 3999 0613 7E       		.byte	0x7e
 4000 0614 19       		.byte	0x19
 4001 0615 F2030000 		.4byte	0x3f2
 4002 0619 04       		.byte	0x4
 4003 061a 08       		.uleb128 0x8
 4004 061b 7500     		.ascii	"u\000"
 4005 061d 10       		.byte	0x10
 4006 061e B9       		.byte	0xb9
 4007 061f 05       		.byte	0x5
 4008 0620 9B050000 		.4byte	0x59b
 4009 0624 08       		.byte	0x8
 4010 0625 00       		.byte	0
 4011 0626 03       		.uleb128 0x3
 4012 0627 79020000 		.4byte	.LASF97
 4013 062b 10       		.byte	0x10
 4014 062c BA       		.byte	0xba
 4015 062d 03       		.byte	0x3
 4016 062e E0050000 		.4byte	0x5e0
 4017 0632 34       		.uleb128 0x34
 4018 0633 0808     		.2byte	0x808
 4019 0635 10       		.byte	0x10
 4020 0636 C0       		.byte	0xc0
 4021 0637 09       		.byte	0x9
 4022 0638 71060000 		.4byte	0x671
 4023 063c 01       		.uleb128 0x1
 4024 063d A3000000 		.4byte	.LASF98
ARM GAS  C:\Users\DEVELO~1\AppData\Local\Temp\ccFr3SeA.s 			page 72


 4025 0641 10       		.byte	0x10
 4026 0642 C4       		.byte	0xc4
 4027 0643 19       		.byte	0x19
 4028 0644 B9000000 		.4byte	0xb9
 4029 0648 00       		.byte	0
 4030 0649 01       		.uleb128 0x1
 4031 064a CA080000 		.4byte	.LASF99
 4032 064e 10       		.byte	0x10
 4033 064f C8       		.byte	0xc8
 4034 0650 19       		.byte	0x19
 4035 0651 B9000000 		.4byte	0xb9
 4036 0655 02       		.byte	0x2
 4037 0656 08       		.uleb128 0x8
 4038 0657 70747200 		.ascii	"ptr\000"
 4039 065b 10       		.byte	0x10
 4040 065c CC       		.byte	0xcc
 4041 065d 1A       		.byte	0x1a
 4042 065e 71060000 		.4byte	0x671
 4043 0662 04       		.byte	0x4
 4044 0663 01       		.uleb128 0x1
 4045 0664 9C000000 		.4byte	.LASF100
 4046 0668 10       		.byte	0x10
 4047 0669 D0       		.byte	0xd0
 4048 066a 19       		.byte	0x19
 4049 066b 76060000 		.4byte	0x676
 4050 066f 08       		.byte	0x8
 4051 0670 00       		.byte	0
 4052 0671 05       		.uleb128 0x5
 4053 0672 26060000 		.4byte	0x626
 4054 0676 11       		.uleb128 0x11
 4055 0677 26060000 		.4byte	0x626
 4056 067b 86060000 		.4byte	0x686
 4057 067f 12       		.uleb128 0x12
 4058 0680 A1000000 		.4byte	0xa1
 4059 0684 7F       		.byte	0x7f
 4060 0685 00       		.byte	0
 4061 0686 03       		.uleb128 0x3
 4062 0687 9F090000 		.4byte	.LASF101
 4063 068b 10       		.byte	0x10
 4064 068c D1       		.byte	0xd1
 4065 068d 03       		.byte	0x3
 4066 068e 32060000 		.4byte	0x632
 4067 0692 11       		.uleb128 0x11
 4068 0693 D6000000 		.4byte	0xd6
 4069 0697 A2060000 		.4byte	0x6a2
 4070 069b 12       		.uleb128 0x12
 4071 069c A1000000 		.4byte	0xa1
 4072 06a0 01       		.byte	0x1
 4073 06a1 00       		.byte	0
 4074 06a2 14       		.uleb128 0x14
 4075 06a3 CC       		.byte	0xcc
 4076 06a4 11       		.byte	0x11
 4077 06a5 F3       		.byte	0xf3
 4078 06a6 09       		.byte	0x9
 4079 06a7 EB080000 		.4byte	0x8eb
 4080 06ab 08       		.uleb128 0x8
 4081 06ac 49535200 		.ascii	"ISR\000"
ARM GAS  C:\Users\DEVELO~1\AppData\Local\Temp\ccFr3SeA.s 			page 73


 4082 06b0 11       		.byte	0x11
 4083 06b1 F5       		.byte	0xf5
 4084 06b2 11       		.byte	0x11
 4085 06b3 E2000000 		.4byte	0xe2
 4086 06b7 00       		.byte	0
 4087 06b8 08       		.uleb128 0x8
 4088 06b9 49455200 		.ascii	"IER\000"
 4089 06bd 11       		.byte	0x11
 4090 06be F6       		.byte	0xf6
 4091 06bf 11       		.byte	0x11
 4092 06c0 E2000000 		.4byte	0xe2
 4093 06c4 04       		.byte	0x4
 4094 06c5 08       		.uleb128 0x8
 4095 06c6 435200   		.ascii	"CR\000"
 4096 06c9 11       		.byte	0x11
 4097 06ca F7       		.byte	0xf7
 4098 06cb 11       		.byte	0x11
 4099 06cc E2000000 		.4byte	0xe2
 4100 06d0 08       		.byte	0x8
 4101 06d1 01       		.uleb128 0x1
 4102 06d2 3D0C0000 		.4byte	.LASF102
 4103 06d6 11       		.byte	0x11
 4104 06d7 F8       		.byte	0xf8
 4105 06d8 11       		.byte	0x11
 4106 06d9 E2000000 		.4byte	0xe2
 4107 06dd 0C       		.byte	0xc
 4108 06de 01       		.uleb128 0x1
 4109 06df FA080000 		.4byte	.LASF103
 4110 06e3 11       		.byte	0x11
 4111 06e4 F9       		.byte	0xf9
 4112 06e5 11       		.byte	0x11
 4113 06e6 E2000000 		.4byte	0xe2
 4114 06ea 10       		.byte	0x10
 4115 06eb 01       		.uleb128 0x1
 4116 06ec FC050000 		.4byte	.LASF104
 4117 06f0 11       		.byte	0x11
 4118 06f1 FA       		.byte	0xfa
 4119 06f2 11       		.byte	0x11
 4120 06f3 E2000000 		.4byte	0xe2
 4121 06f7 14       		.byte	0x14
 4122 06f8 01       		.uleb128 0x1
 4123 06f9 E6090000 		.4byte	.LASF105
 4124 06fd 11       		.byte	0x11
 4125 06fe FB       		.byte	0xfb
 4126 06ff 11       		.byte	0x11
 4127 0700 E2000000 		.4byte	0xe2
 4128 0704 18       		.byte	0x18
 4129 0705 01       		.uleb128 0x1
 4130 0706 BB030000 		.4byte	.LASF106
 4131 070a 11       		.byte	0x11
 4132 070b FC       		.byte	0xfc
 4133 070c 11       		.byte	0x11
 4134 070d E2000000 		.4byte	0xe2
 4135 0711 1C       		.byte	0x1c
 4136 0712 01       		.uleb128 0x1
 4137 0713 D8010000 		.4byte	.LASF107
 4138 0717 11       		.byte	0x11
ARM GAS  C:\Users\DEVELO~1\AppData\Local\Temp\ccFr3SeA.s 			page 74


 4139 0718 FD       		.byte	0xfd
 4140 0719 11       		.byte	0x11
 4141 071a E2000000 		.4byte	0xe2
 4142 071e 20       		.byte	0x20
 4143 071f 01       		.uleb128 0x1
 4144 0720 D70D0000 		.4byte	.LASF108
 4145 0724 11       		.byte	0x11
 4146 0725 FE       		.byte	0xfe
 4147 0726 11       		.byte	0x11
 4148 0727 E2000000 		.4byte	0xe2
 4149 072b 24       		.byte	0x24
 4150 072c 01       		.uleb128 0x1
 4151 072d EC0A0000 		.4byte	.LASF109
 4152 0731 11       		.byte	0x11
 4153 0732 FF       		.byte	0xff
 4154 0733 11       		.byte	0x11
 4155 0734 D6000000 		.4byte	0xd6
 4156 0738 28       		.byte	0x28
 4157 0739 02       		.uleb128 0x2
 4158 073a F60A0000 		.4byte	.LASF110
 4159 073e 11       		.byte	0x11
 4160 073f 0001     		.2byte	0x100
 4161 0741 11       		.byte	0x11
 4162 0742 D6000000 		.4byte	0xd6
 4163 0746 2C       		.byte	0x2c
 4164 0747 02       		.uleb128 0x2
 4165 0748 AE0C0000 		.4byte	.LASF111
 4166 074c 11       		.byte	0x11
 4167 074d 0101     		.2byte	0x101
 4168 074f 11       		.byte	0x11
 4169 0750 E2000000 		.4byte	0xe2
 4170 0754 30       		.byte	0x30
 4171 0755 02       		.uleb128 0x2
 4172 0756 B30C0000 		.4byte	.LASF112
 4173 075a 11       		.byte	0x11
 4174 075b 0201     		.2byte	0x102
 4175 075d 11       		.byte	0x11
 4176 075e E2000000 		.4byte	0xe2
 4177 0762 34       		.byte	0x34
 4178 0763 02       		.uleb128 0x2
 4179 0764 B80C0000 		.4byte	.LASF113
 4180 0768 11       		.byte	0x11
 4181 0769 0301     		.2byte	0x103
 4182 076b 11       		.byte	0x11
 4183 076c E2000000 		.4byte	0xe2
 4184 0770 38       		.byte	0x38
 4185 0771 02       		.uleb128 0x2
 4186 0772 09000000 		.4byte	.LASF114
 4187 0776 11       		.byte	0x11
 4188 0777 0401     		.2byte	0x104
 4189 0779 11       		.byte	0x11
 4190 077a E2000000 		.4byte	0xe2
 4191 077e 3C       		.byte	0x3c
 4192 077f 04       		.uleb128 0x4
 4193 0780 445200   		.ascii	"DR\000"
 4194 0783 11       		.byte	0x11
 4195 0784 0501     		.2byte	0x105
ARM GAS  C:\Users\DEVELO~1\AppData\Local\Temp\ccFr3SeA.s 			page 75


 4196 0786 11       		.byte	0x11
 4197 0787 E2000000 		.4byte	0xe2
 4198 078b 40       		.byte	0x40
 4199 078c 02       		.uleb128 0x2
 4200 078d 000B0000 		.4byte	.LASF115
 4201 0791 11       		.byte	0x11
 4202 0792 0601     		.2byte	0x106
 4203 0794 11       		.byte	0x11
 4204 0795 D6000000 		.4byte	0xd6
 4205 0799 44       		.byte	0x44
 4206 079a 02       		.uleb128 0x2
 4207 079b 0A0B0000 		.4byte	.LASF116
 4208 079f 11       		.byte	0x11
 4209 07a0 0701     		.2byte	0x107
 4210 07a2 11       		.byte	0x11
 4211 07a3 D6000000 		.4byte	0xd6
 4212 07a7 48       		.byte	0x48
 4213 07a8 02       		.uleb128 0x2
 4214 07a9 320E0000 		.4byte	.LASF117
 4215 07ad 11       		.byte	0x11
 4216 07ae 0801     		.2byte	0x108
 4217 07b0 11       		.byte	0x11
 4218 07b1 E2000000 		.4byte	0xe2
 4219 07b5 4C       		.byte	0x4c
 4220 07b6 02       		.uleb128 0x2
 4221 07b7 4D0F0000 		.4byte	.LASF118
 4222 07bb 11       		.byte	0x11
 4223 07bc 0901     		.2byte	0x109
 4224 07be 11       		.byte	0x11
 4225 07bf EB080000 		.4byte	0x8eb
 4226 07c3 50       		.byte	0x50
 4227 07c4 02       		.uleb128 0x2
 4228 07c5 80050000 		.4byte	.LASF119
 4229 07c9 11       		.byte	0x11
 4230 07ca 0A01     		.2byte	0x10a
 4231 07cc 11       		.byte	0x11
 4232 07cd E2000000 		.4byte	0xe2
 4233 07d1 60       		.byte	0x60
 4234 07d2 02       		.uleb128 0x2
 4235 07d3 51000000 		.4byte	.LASF120
 4236 07d7 11       		.byte	0x11
 4237 07d8 0B01     		.2byte	0x10b
 4238 07da 11       		.byte	0x11
 4239 07db E2000000 		.4byte	0xe2
 4240 07df 64       		.byte	0x64
 4241 07e0 02       		.uleb128 0x2
 4242 07e1 8B050000 		.4byte	.LASF121
 4243 07e5 11       		.byte	0x11
 4244 07e6 0C01     		.2byte	0x10c
 4245 07e8 11       		.byte	0x11
 4246 07e9 E2000000 		.4byte	0xe2
 4247 07ed 68       		.byte	0x68
 4248 07ee 02       		.uleb128 0x2
 4249 07ef 90050000 		.4byte	.LASF122
 4250 07f3 11       		.byte	0x11
 4251 07f4 0D01     		.2byte	0x10d
 4252 07f6 11       		.byte	0x11
ARM GAS  C:\Users\DEVELO~1\AppData\Local\Temp\ccFr3SeA.s 			page 76


 4253 07f7 E2000000 		.4byte	0xe2
 4254 07fb 6C       		.byte	0x6c
 4255 07fc 02       		.uleb128 0x2
 4256 07fd 9E030000 		.4byte	.LASF123
 4257 0801 11       		.byte	0x11
 4258 0802 0E01     		.2byte	0x10e
 4259 0804 11       		.byte	0x11
 4260 0805 EB080000 		.4byte	0x8eb
 4261 0809 70       		.byte	0x70
 4262 080a 02       		.uleb128 0x2
 4263 080b C60A0000 		.4byte	.LASF124
 4264 080f 11       		.byte	0x11
 4265 0810 0F01     		.2byte	0x10f
 4266 0812 11       		.byte	0x11
 4267 0813 E2000000 		.4byte	0xe2
 4268 0817 80       		.byte	0x80
 4269 0818 02       		.uleb128 0x2
 4270 0819 8F0C0000 		.4byte	.LASF125
 4271 081d 11       		.byte	0x11
 4272 081e 1001     		.2byte	0x110
 4273 0820 11       		.byte	0x11
 4274 0821 E2000000 		.4byte	0xe2
 4275 0825 84       		.byte	0x84
 4276 0826 02       		.uleb128 0x2
 4277 0827 CB0A0000 		.4byte	.LASF126
 4278 082b 11       		.byte	0x11
 4279 082c 1101     		.2byte	0x111
 4280 082e 11       		.byte	0x11
 4281 082f E2000000 		.4byte	0xe2
 4282 0833 88       		.byte	0x88
 4283 0834 02       		.uleb128 0x2
 4284 0835 D00A0000 		.4byte	.LASF127
 4285 0839 11       		.byte	0x11
 4286 083a 1201     		.2byte	0x112
 4287 083c 11       		.byte	0x11
 4288 083d E2000000 		.4byte	0xe2
 4289 0841 8C       		.byte	0x8c
 4290 0842 02       		.uleb128 0x2
 4291 0843 1B0B0000 		.4byte	.LASF128
 4292 0847 11       		.byte	0x11
 4293 0848 1301     		.2byte	0x113
 4294 084a 11       		.byte	0x11
 4295 084b EB080000 		.4byte	0x8eb
 4296 084f 90       		.byte	0x90
 4297 0850 02       		.uleb128 0x2
 4298 0851 E1070000 		.4byte	.LASF129
 4299 0855 11       		.byte	0x11
 4300 0856 1401     		.2byte	0x114
 4301 0858 11       		.byte	0x11
 4302 0859 E2000000 		.4byte	0xe2
 4303 085d A0       		.byte	0xa0
 4304 085e 02       		.uleb128 0x2
 4305 085f F8070000 		.4byte	.LASF130
 4306 0863 11       		.byte	0x11
 4307 0864 1501     		.2byte	0x115
 4308 0866 11       		.byte	0x11
 4309 0867 E2000000 		.4byte	0xe2
ARM GAS  C:\Users\DEVELO~1\AppData\Local\Temp\ccFr3SeA.s 			page 77


 4310 086b A4       		.byte	0xa4
 4311 086c 02       		.uleb128 0x2
 4312 086d 5E0F0000 		.4byte	.LASF131
 4313 0871 11       		.byte	0x11
 4314 0872 1601     		.2byte	0x116
 4315 0874 11       		.byte	0x11
 4316 0875 D6000000 		.4byte	0xd6
 4317 0879 A8       		.byte	0xa8
 4318 087a 02       		.uleb128 0x2
 4319 087b 680F0000 		.4byte	.LASF132
 4320 087f 11       		.byte	0x11
 4321 0880 1701     		.2byte	0x117
 4322 0882 11       		.byte	0x11
 4323 0883 D6000000 		.4byte	0xd6
 4324 0887 AC       		.byte	0xac
 4325 0888 02       		.uleb128 0x2
 4326 0889 DD010000 		.4byte	.LASF133
 4327 088d 11       		.byte	0x11
 4328 088e 1801     		.2byte	0x118
 4329 0890 11       		.byte	0x11
 4330 0891 E2000000 		.4byte	0xe2
 4331 0895 B0       		.byte	0xb0
 4332 0896 02       		.uleb128 0x2
 4333 0897 DC0D0000 		.4byte	.LASF134
 4334 089b 11       		.byte	0x11
 4335 089c 1901     		.2byte	0x119
 4336 089e 11       		.byte	0x11
 4337 089f E2000000 		.4byte	0xe2
 4338 08a3 B4       		.byte	0xb4
 4339 08a4 02       		.uleb128 0x2
 4340 08a5 E2010000 		.4byte	.LASF135
 4341 08a9 11       		.byte	0x11
 4342 08aa 1A01     		.2byte	0x11a
 4343 08ac 11       		.byte	0x11
 4344 08ad E2000000 		.4byte	0xe2
 4345 08b1 B8       		.byte	0xb8
 4346 08b2 02       		.uleb128 0x2
 4347 08b3 E10D0000 		.4byte	.LASF136
 4348 08b7 11       		.byte	0x11
 4349 08b8 1B01     		.2byte	0x11b
 4350 08ba 11       		.byte	0x11
 4351 08bb E2000000 		.4byte	0xe2
 4352 08bf BC       		.byte	0xbc
 4353 08c0 02       		.uleb128 0x2
 4354 08c1 E7010000 		.4byte	.LASF137
 4355 08c5 11       		.byte	0x11
 4356 08c6 1C01     		.2byte	0x11c
 4357 08c8 11       		.byte	0x11
 4358 08c9 E2000000 		.4byte	0xe2
 4359 08cd C0       		.byte	0xc0
 4360 08ce 02       		.uleb128 0x2
 4361 08cf 4F070000 		.4byte	.LASF138
 4362 08d3 11       		.byte	0x11
 4363 08d4 1D01     		.2byte	0x11d
 4364 08d6 11       		.byte	0x11
 4365 08d7 E2000000 		.4byte	0xe2
 4366 08db C4       		.byte	0xc4
ARM GAS  C:\Users\DEVELO~1\AppData\Local\Temp\ccFr3SeA.s 			page 78


 4367 08dc 02       		.uleb128 0x2
 4368 08dd 9B050000 		.4byte	.LASF139
 4369 08e1 11       		.byte	0x11
 4370 08e2 1E01     		.2byte	0x11e
 4371 08e4 11       		.byte	0x11
 4372 08e5 E2000000 		.4byte	0xe2
 4373 08e9 C8       		.byte	0xc8
 4374 08ea 00       		.byte	0
 4375 08eb 11       		.uleb128 0x11
 4376 08ec D6000000 		.4byte	0xd6
 4377 08f0 FB080000 		.4byte	0x8fb
 4378 08f4 12       		.uleb128 0x12
 4379 08f5 A1000000 		.4byte	0xa1
 4380 08f9 03       		.byte	0x3
 4381 08fa 00       		.byte	0
 4382 08fb 0C       		.uleb128 0xc
 4383 08fc C7070000 		.4byte	.LASF140
 4384 0900 11       		.byte	0x11
 4385 0901 1F01     		.2byte	0x11f
 4386 0903 03       		.byte	0x3
 4387 0904 A2060000 		.4byte	0x6a2
 4388 0908 18       		.uleb128 0x18
 4389 0909 14       		.byte	0x14
 4390 090a 11       		.byte	0x11
 4391 090b 2201     		.2byte	0x122
 4392 090d 58090000 		.4byte	0x958
 4393 0911 04       		.uleb128 0x4
 4394 0912 43535200 		.ascii	"CSR\000"
 4395 0916 11       		.byte	0x11
 4396 0917 2401     		.2byte	0x124
 4397 0919 0F       		.byte	0xf
 4398 091a E2000000 		.4byte	0xe2
 4399 091e 00       		.byte	0
 4400 091f 02       		.uleb128 0x2
 4401 0920 0B050000 		.4byte	.LASF141
 4402 0924 11       		.byte	0x11
 4403 0925 2501     		.2byte	0x125
 4404 0927 0A       		.byte	0xa
 4405 0928 D6000000 		.4byte	0xd6
 4406 092c 04       		.byte	0x4
 4407 092d 04       		.uleb128 0x4
 4408 092e 43435200 		.ascii	"CCR\000"
 4409 0932 11       		.byte	0x11
 4410 0933 2601     		.2byte	0x126
 4411 0935 0F       		.byte	0xf
 4412 0936 E2000000 		.4byte	0xe2
 4413 093a 08       		.byte	0x8
 4414 093b 04       		.uleb128 0x4
 4415 093c 43445200 		.ascii	"CDR\000"
 4416 0940 11       		.byte	0x11
 4417 0941 2701     		.2byte	0x127
 4418 0943 0F       		.byte	0xf
 4419 0944 E2000000 		.4byte	0xe2
 4420 0948 0C       		.byte	0xc
 4421 0949 02       		.uleb128 0x2
 4422 094a 2E0A0000 		.4byte	.LASF142
 4423 094e 11       		.byte	0x11
ARM GAS  C:\Users\DEVELO~1\AppData\Local\Temp\ccFr3SeA.s 			page 79


 4424 094f 2801     		.2byte	0x128
 4425 0951 0F       		.byte	0xf
 4426 0952 E2000000 		.4byte	0xe2
 4427 0956 10       		.byte	0x10
 4428 0957 00       		.byte	0
 4429 0958 0C       		.uleb128 0xc
 4430 0959 00090000 		.4byte	.LASF143
 4431 095d 11       		.byte	0x11
 4432 095e 2A01     		.2byte	0x12a
 4433 0960 03       		.byte	0x3
 4434 0961 08090000 		.4byte	0x908
 4435 0965 11       		.uleb128 0x11
 4436 0966 E2000000 		.4byte	0xe2
 4437 096a 75090000 		.4byte	0x975
 4438 096e 12       		.uleb128 0x12
 4439 096f A1000000 		.4byte	0xa1
 4440 0973 03       		.byte	0x3
 4441 0974 00       		.byte	0
 4442 0975 0D       		.uleb128 0xd
 4443 0976 65090000 		.4byte	0x965
 4444 097a 11       		.uleb128 0x11
 4445 097b E2000000 		.4byte	0xe2
 4446 097f 8A090000 		.4byte	0x98a
 4447 0983 12       		.uleb128 0x12
 4448 0984 A1000000 		.4byte	0xa1
 4449 0988 01       		.byte	0x1
 4450 0989 00       		.byte	0
 4451 098a 0D       		.uleb128 0xd
 4452 098b 7A090000 		.4byte	0x97a
 4453 098f 18       		.uleb128 0x18
 4454 0990 18       		.byte	0x18
 4455 0991 11       		.byte	0x11
 4456 0992 3002     		.2byte	0x230
 4457 0994 EC090000 		.4byte	0x9ec
 4458 0998 04       		.uleb128 0x4
 4459 0999 435200   		.ascii	"CR\000"
 4460 099c 11       		.byte	0x11
 4461 099d 3202     		.2byte	0x232
 4462 099f 11       		.byte	0x11
 4463 09a0 E2000000 		.4byte	0xe2
 4464 09a4 00       		.byte	0
 4465 09a5 02       		.uleb128 0x2
 4466 09a6 9A010000 		.4byte	.LASF144
 4467 09aa 11       		.byte	0x11
 4468 09ab 3302     		.2byte	0x233
 4469 09ad 11       		.byte	0x11
 4470 09ae E2000000 		.4byte	0xe2
 4471 09b2 04       		.byte	0x4
 4472 09b3 04       		.uleb128 0x4
 4473 09b4 50415200 		.ascii	"PAR\000"
 4474 09b8 11       		.byte	0x11
 4475 09b9 3402     		.2byte	0x234
 4476 09bb 11       		.byte	0x11
 4477 09bc E2000000 		.4byte	0xe2
 4478 09c0 08       		.byte	0x8
 4479 09c1 02       		.uleb128 0x2
 4480 09c2 C0050000 		.4byte	.LASF145
ARM GAS  C:\Users\DEVELO~1\AppData\Local\Temp\ccFr3SeA.s 			page 80


 4481 09c6 11       		.byte	0x11
 4482 09c7 3502     		.2byte	0x235
 4483 09c9 11       		.byte	0x11
 4484 09ca E2000000 		.4byte	0xe2
 4485 09ce 0C       		.byte	0xc
 4486 09cf 02       		.uleb128 0x2
 4487 09d0 9F0C0000 		.4byte	.LASF146
 4488 09d4 11       		.byte	0x11
 4489 09d5 3602     		.2byte	0x236
 4490 09d7 11       		.byte	0x11
 4491 09d8 E2000000 		.4byte	0xe2
 4492 09dc 10       		.byte	0x10
 4493 09dd 04       		.uleb128 0x4
 4494 09de 46435200 		.ascii	"FCR\000"
 4495 09e2 11       		.byte	0x11
 4496 09e3 3702     		.2byte	0x237
 4497 09e5 11       		.byte	0x11
 4498 09e6 E2000000 		.4byte	0xe2
 4499 09ea 14       		.byte	0x14
 4500 09eb 00       		.byte	0
 4501 09ec 0C       		.uleb128 0xc
 4502 09ed 4A0B0000 		.4byte	.LASF147
 4503 09f1 11       		.byte	0x11
 4504 09f2 3802     		.2byte	0x238
 4505 09f4 03       		.byte	0x3
 4506 09f5 8F090000 		.4byte	0x98f
 4507 09f9 18       		.uleb128 0x18
 4508 09fa 04       		.byte	0x4
 4509 09fb 11       		.byte	0x11
 4510 09fc 5102     		.2byte	0x251
 4511 09fe 110A0000 		.4byte	0xa11
 4512 0a02 04       		.uleb128 0x4
 4513 0a03 43435200 		.ascii	"CCR\000"
 4514 0a07 11       		.byte	0x11
 4515 0a08 5302     		.2byte	0x253
 4516 0a0a 12       		.byte	0x12
 4517 0a0b E2000000 		.4byte	0xe2
 4518 0a0f 00       		.byte	0
 4519 0a10 00       		.byte	0
 4520 0a11 0C       		.uleb128 0xc
 4521 0a12 D50A0000 		.4byte	.LASF148
 4522 0a16 11       		.byte	0x11
 4523 0a17 5402     		.2byte	0x254
 4524 0a19 02       		.byte	0x2
 4525 0a1a F9090000 		.4byte	0x9f9
 4526 0a1e 1D       		.uleb128 0x1d
 4527 0a1f 5D0B0000 		.4byte	.LASF149
 4528 0a23 24       		.byte	0x24
 4529 0a24 03       		.byte	0x3
 4530 0a25 E001     		.2byte	0x1e0
 4531 0a27 08       		.byte	0x8
 4532 0a28 A40A0000 		.4byte	0xaa4
 4533 0a2c 04       		.uleb128 0x4
 4534 0a2d 723400   		.ascii	"r4\000"
 4535 0a30 03       		.byte	0x3
 4536 0a31 F901     		.2byte	0x1f9
 4537 0a33 11       		.byte	0x11
ARM GAS  C:\Users\DEVELO~1\AppData\Local\Temp\ccFr3SeA.s 			page 81


 4538 0a34 D6000000 		.4byte	0xd6
 4539 0a38 00       		.byte	0
 4540 0a39 04       		.uleb128 0x4
 4541 0a3a 723500   		.ascii	"r5\000"
 4542 0a3d 03       		.byte	0x3
 4543 0a3e FA01     		.2byte	0x1fa
 4544 0a40 11       		.byte	0x11
 4545 0a41 D6000000 		.4byte	0xd6
 4546 0a45 04       		.byte	0x4
 4547 0a46 04       		.uleb128 0x4
 4548 0a47 723600   		.ascii	"r6\000"
 4549 0a4a 03       		.byte	0x3
 4550 0a4b FB01     		.2byte	0x1fb
 4551 0a4d 11       		.byte	0x11
 4552 0a4e D6000000 		.4byte	0xd6
 4553 0a52 08       		.byte	0x8
 4554 0a53 04       		.uleb128 0x4
 4555 0a54 723700   		.ascii	"r7\000"
 4556 0a57 03       		.byte	0x3
 4557 0a58 FC01     		.2byte	0x1fc
 4558 0a5a 11       		.byte	0x11
 4559 0a5b D6000000 		.4byte	0xd6
 4560 0a5f 0C       		.byte	0xc
 4561 0a60 04       		.uleb128 0x4
 4562 0a61 723800   		.ascii	"r8\000"
 4563 0a64 03       		.byte	0x3
 4564 0a65 FD01     		.2byte	0x1fd
 4565 0a67 11       		.byte	0x11
 4566 0a68 D6000000 		.4byte	0xd6
 4567 0a6c 10       		.byte	0x10
 4568 0a6d 04       		.uleb128 0x4
 4569 0a6e 723900   		.ascii	"r9\000"
 4570 0a71 03       		.byte	0x3
 4571 0a72 FE01     		.2byte	0x1fe
 4572 0a74 11       		.byte	0x11
 4573 0a75 D6000000 		.4byte	0xd6
 4574 0a79 14       		.byte	0x14
 4575 0a7a 04       		.uleb128 0x4
 4576 0a7b 72313000 		.ascii	"r10\000"
 4577 0a7f 03       		.byte	0x3
 4578 0a80 FF01     		.2byte	0x1ff
 4579 0a82 11       		.byte	0x11
 4580 0a83 D6000000 		.4byte	0xd6
 4581 0a87 18       		.byte	0x18
 4582 0a88 04       		.uleb128 0x4
 4583 0a89 72313100 		.ascii	"r11\000"
 4584 0a8d 03       		.byte	0x3
 4585 0a8e 0002     		.2byte	0x200
 4586 0a90 11       		.byte	0x11
 4587 0a91 D6000000 		.4byte	0xd6
 4588 0a95 1C       		.byte	0x1c
 4589 0a96 04       		.uleb128 0x4
 4590 0a97 6C7200   		.ascii	"lr\000"
 4591 0a9a 03       		.byte	0x3
 4592 0a9b 0102     		.2byte	0x201
 4593 0a9d 11       		.byte	0x11
 4594 0a9e D6000000 		.4byte	0xd6
ARM GAS  C:\Users\DEVELO~1\AppData\Local\Temp\ccFr3SeA.s 			page 82


 4595 0aa2 20       		.byte	0x20
 4596 0aa3 00       		.byte	0
 4597 0aa4 1D       		.uleb128 0x1d
 4598 0aa5 1E020000 		.4byte	.LASF150
 4599 0aa9 04       		.byte	0x4
 4600 0aaa 03       		.byte	0x3
 4601 0aab 0A02     		.2byte	0x20a
 4602 0aad 08       		.byte	0x8
 4603 0aae C00A0000 		.4byte	0xac0
 4604 0ab2 04       		.uleb128 0x4
 4605 0ab3 737000   		.ascii	"sp\000"
 4606 0ab6 03       		.byte	0x3
 4607 0ab7 0B02     		.2byte	0x20b
 4608 0ab9 1A       		.byte	0x1a
 4609 0aba C00A0000 		.4byte	0xac0
 4610 0abe 00       		.byte	0
 4611 0abf 00       		.byte	0
 4612 0ac0 05       		.uleb128 0x5
 4613 0ac1 1E0A0000 		.4byte	0xa1e
 4614 0ac5 0E       		.uleb128 0xe
 4615 0ac6 7F040000 		.4byte	.LASF151
 4616 0aca 18       		.byte	0x18
 4617 0acb 0B       		.byte	0xb
 4618 0acc 64       		.byte	0x64
 4619 0acd 10       		.byte	0x10
 4620 0ace FA0A0000 		.4byte	0xafa
 4621 0ad2 01       		.uleb128 0x1
 4622 0ad3 0E0C0000 		.4byte	.LASF152
 4623 0ad7 0B       		.byte	0xb
 4624 0ad8 68       		.byte	0x68
 4625 0ad9 21       		.byte	0x21
 4626 0ada B5040000 		.4byte	0x4b5
 4627 0ade 00       		.byte	0
 4628 0adf 01       		.uleb128 0x1
 4629 0ae0 140C0000 		.4byte	.LASF153
 4630 0ae4 0B       		.byte	0xb
 4631 0ae5 73       		.byte	0x73
 4632 0ae6 21       		.byte	0x21
 4633 0ae7 F2030000 		.4byte	0x3f2
 4634 0aeb 0C       		.byte	0xc
 4635 0aec 01       		.uleb128 0x1
 4636 0aed 9F010000 		.4byte	.LASF154
 4637 0af1 0B       		.byte	0xb
 4638 0af2 79       		.byte	0x79
 4639 0af3 21       		.byte	0x21
 4640 0af4 F3000000 		.4byte	0xf3
 4641 0af8 10       		.byte	0x10
 4642 0af9 00       		.byte	0
 4643 0afa 03       		.uleb128 0x3
 4644 0afb B80D0000 		.4byte	.LASF155
 4645 0aff 0B       		.byte	0xb
 4646 0b00 7B       		.byte	0x7b
 4647 0b01 03       		.byte	0x3
 4648 0b02 C50A0000 		.4byte	0xac5
 4649 0b06 0E       		.uleb128 0xe
 4650 0b07 56000000 		.4byte	.LASF156
 4651 0b0b 08       		.byte	0x8
ARM GAS  C:\Users\DEVELO~1\AppData\Local\Temp\ccFr3SeA.s 			page 83


 4652 0b0c 0B       		.byte	0xb
 4653 0b0d 80       		.byte	0x80
 4654 0b0e 10       		.byte	0x10
 4655 0b0f 210B0000 		.4byte	0xb21
 4656 0b13 01       		.uleb128 0x1
 4657 0b14 0D0D0000 		.4byte	.LASF157
 4658 0b18 0B       		.byte	0xb
 4659 0b19 84       		.byte	0x84
 4660 0b1a 21       		.byte	0x21
 4661 0b1b 36040000 		.4byte	0x436
 4662 0b1f 00       		.byte	0
 4663 0b20 00       		.byte	0
 4664 0b21 03       		.uleb128 0x3
 4665 0b22 5E080000 		.4byte	.LASF158
 4666 0b26 0B       		.byte	0xb
 4667 0b27 85       		.byte	0x85
 4668 0b28 03       		.byte	0x3
 4669 0b29 060B0000 		.4byte	0xb06
 4670 0b2d 03       		.uleb128 0x3
 4671 0b2e 39000000 		.4byte	.LASF159
 4672 0b32 0B       		.byte	0xb
 4673 0b33 8A       		.byte	0x8a
 4674 0b34 14       		.byte	0x14
 4675 0b35 1F050000 		.4byte	0x51f
 4676 0b39 1F       		.uleb128 0x1f
 4677 0b3a 0C       		.byte	0xc
 4678 0b3b 0B       		.byte	0xb
 4679 0b3c A0       		.byte	0xa0
 4680 0b3d 03       		.byte	0x3
 4681 0b3e 670B0000 		.4byte	0xb67
 4682 0b42 17       		.uleb128 0x17
 4683 0b43 19020000 		.4byte	.LASF160
 4684 0b47 0B       		.byte	0xb
 4685 0b48 A4       		.byte	0xa4
 4686 0b49 21       		.byte	0x21
 4687 0b4a 0A040000 		.4byte	0x40a
 4688 0b4e 17       		.uleb128 0x17
 4689 0b4f 0D0D0000 		.4byte	.LASF157
 4690 0b53 0B       		.byte	0xb
 4691 0b54 A8       		.byte	0xa8
 4692 0b55 21       		.byte	0x21
 4693 0b56 36040000 		.4byte	0x436
 4694 0b5a 17       		.uleb128 0x17
 4695 0b5b EA030000 		.4byte	.LASF161
 4696 0b5f 0B       		.byte	0xb
 4697 0b60 AC       		.byte	0xac
 4698 0b61 21       		.byte	0x21
 4699 0b62 6F040000 		.4byte	0x46f
 4700 0b66 00       		.byte	0
 4701 0b67 1F       		.uleb128 0x1f
 4702 0b68 04       		.byte	0x4
 4703 0b69 0B       		.byte	0xb
 4704 0b6a EB       		.byte	0xeb
 4705 0b6b 03       		.byte	0x3
 4706 0b6c D10B0000 		.4byte	0xbd1
 4707 0b70 17       		.uleb128 0x17
 4708 0b71 2C050000 		.4byte	.LASF162
ARM GAS  C:\Users\DEVELO~1\AppData\Local\Temp\ccFr3SeA.s 			page 84


 4709 0b75 0B       		.byte	0xb
 4710 0b76 F2       		.byte	0xf2
 4711 0b77 21       		.byte	0x21
 4712 0b78 C9010000 		.4byte	0x1c9
 4713 0b7c 17       		.uleb128 0x17
 4714 0b7d 940F0000 		.4byte	.LASF163
 4715 0b81 0B       		.byte	0xb
 4716 0b82 F9       		.byte	0xf9
 4717 0b83 21       		.byte	0x21
 4718 0b84 C9010000 		.4byte	0x1c9
 4719 0b88 19       		.uleb128 0x19
 4720 0b89 3F010000 		.4byte	.LASF90
 4721 0b8d 0001     		.2byte	0x100
 4722 0b8f 22       		.byte	0x22
 4723 0b90 24050000 		.4byte	0x524
 4724 0b94 19       		.uleb128 0x19
 4725 0b95 8E0F0000 		.4byte	.LASF164
 4726 0b99 0701     		.2byte	0x107
 4727 0b9b 22       		.byte	0x22
 4728 0b9c D10B0000 		.4byte	0xbd1
 4729 0ba0 19       		.uleb128 0x19
 4730 0ba1 67020000 		.4byte	.LASF165
 4731 0ba5 0C01     		.2byte	0x10c
 4732 0ba7 21       		.byte	0x21
 4733 0ba8 C9010000 		.4byte	0x1c9
 4734 0bac 19       		.uleb128 0x19
 4735 0bad 350D0000 		.4byte	.LASF166
 4736 0bb1 1501     		.2byte	0x115
 4737 0bb3 22       		.byte	0x22
 4738 0bb4 FE0B0000 		.4byte	0xbfe
 4739 0bb8 19       		.uleb128 0x19
 4740 0bb9 0E000000 		.4byte	.LASF167
 4741 0bbd 1E01     		.2byte	0x11e
 4742 0bbf 22       		.byte	0x22
 4743 0bc0 380C0000 		.4byte	0xc38
 4744 0bc4 19       		.uleb128 0x19
 4745 0bc5 A9010000 		.4byte	.LASF168
 4746 0bc9 2601     		.2byte	0x126
 4747 0bcb 21       		.byte	0x21
 4748 0bcc D5010000 		.4byte	0x1d5
 4749 0bd0 00       		.byte	0
 4750 0bd1 05       		.uleb128 0x5
 4751 0bd2 2D0B0000 		.4byte	0xb2d
 4752 0bd6 0E       		.uleb128 0xe
 4753 0bd7 98020000 		.4byte	.LASF169
 4754 0bdb 0C       		.byte	0xc
 4755 0bdc 12       		.byte	0x12
 4756 0bdd 34       		.byte	0x34
 4757 0bde 10       		.byte	0x10
 4758 0bdf FE0B0000 		.4byte	0xbfe
 4759 0be3 01       		.uleb128 0x1
 4760 0be4 0D0D0000 		.4byte	.LASF157
 4761 0be8 12       		.byte	0x12
 4762 0be9 35       		.byte	0x35
 4763 0bea 19       		.byte	0x19
 4764 0beb 36040000 		.4byte	0x436
 4765 0bef 00       		.byte	0
ARM GAS  C:\Users\DEVELO~1\AppData\Local\Temp\ccFr3SeA.s 			page 85


 4766 0bf0 08       		.uleb128 0x8
 4767 0bf1 636E7400 		.ascii	"cnt\000"
 4768 0bf5 12       		.byte	0x12
 4769 0bf6 37       		.byte	0x37
 4770 0bf7 19       		.byte	0x19
 4771 0bf8 E1010000 		.4byte	0x1e1
 4772 0bfc 08       		.byte	0x8
 4773 0bfd 00       		.byte	0
 4774 0bfe 05       		.uleb128 0x5
 4775 0bff D60B0000 		.4byte	0xbd6
 4776 0c03 0E       		.uleb128 0xe
 4777 0c04 AB050000 		.4byte	.LASF170
 4778 0c08 10       		.byte	0x10
 4779 0c09 13       		.byte	0x13
 4780 0c0a 39       		.byte	0x39
 4781 0c0b 08       		.byte	0x8
 4782 0c0c 380C0000 		.4byte	0xc38
 4783 0c10 01       		.uleb128 0x1
 4784 0c11 0D0D0000 		.4byte	.LASF157
 4785 0c15 13       		.byte	0x13
 4786 0c16 3A       		.byte	0x3a
 4787 0c17 19       		.byte	0x19
 4788 0c18 36040000 		.4byte	0x436
 4789 0c1c 00       		.byte	0
 4790 0c1d 01       		.uleb128 0x1
 4791 0c1e 0A0F0000 		.4byte	.LASF45
 4792 0c22 13       		.byte	0x13
 4793 0c23 3C       		.byte	0x3c
 4794 0c24 1A       		.byte	0x1a
 4795 0c25 1F050000 		.4byte	0x51f
 4796 0c29 08       		.byte	0x8
 4797 0c2a 01       		.uleb128 0x1
 4798 0c2b CF000000 		.4byte	.LASF80
 4799 0c2f 13       		.byte	0x13
 4800 0c30 3E       		.byte	0x3e
 4801 0c31 1A       		.byte	0x1a
 4802 0c32 F70C0000 		.4byte	0xcf7
 4803 0c36 0C       		.byte	0xc
 4804 0c37 00       		.byte	0
 4805 0c38 05       		.uleb128 0x5
 4806 0c39 030C0000 		.4byte	0xc03
 4807 0c3d 05       		.uleb128 0x5
 4808 0c3e E8020000 		.4byte	0x2e8
 4809 0c42 05       		.uleb128 0x5
 4810 0c43 8D010000 		.4byte	0x18d
 4811 0c47 1D       		.uleb128 0x1d
 4812 0c48 8C010000 		.4byte	.LASF171
 4813 0c4c 10       		.byte	0x10
 4814 0c4d 0B       		.byte	0xb
 4815 0c4e 5C01     		.2byte	0x15c
 4816 0c50 10       		.byte	0x10
 4817 0c51 720C0000 		.4byte	0xc72
 4818 0c55 02       		.uleb128 0x2
 4819 0c56 EA030000 		.4byte	.LASF161
 4820 0c5a 0B       		.byte	0xb
 4821 0c5b 6101     		.2byte	0x161
 4822 0c5d 21       		.byte	0x21
ARM GAS  C:\Users\DEVELO~1\AppData\Local\Temp\ccFr3SeA.s 			page 86


 4823 0c5e 6F040000 		.4byte	0x46f
 4824 0c62 00       		.byte	0
 4825 0c63 02       		.uleb128 0x2
 4826 0c64 170F0000 		.4byte	.LASF172
 4827 0c68 0B       		.byte	0xb
 4828 0c69 6501     		.2byte	0x165
 4829 0c6b 22       		.byte	0x22
 4830 0c6c 1F050000 		.4byte	0x51f
 4831 0c70 0C       		.byte	0xc
 4832 0c71 00       		.byte	0
 4833 0c72 0C       		.uleb128 0xc
 4834 0c73 EB0C0000 		.4byte	.LASF173
 4835 0c77 0B       		.byte	0xb
 4836 0c78 6601     		.2byte	0x166
 4837 0c7a 03       		.byte	0x3
 4838 0c7b 470C0000 		.4byte	0xc47
 4839 0c7f 1D       		.uleb128 0x1d
 4840 0c80 F80B0000 		.4byte	.LASF174
 4841 0c84 14       		.byte	0x14
 4842 0c85 0B       		.byte	0xb
 4843 0c86 6B01     		.2byte	0x16b
 4844 0c88 10       		.byte	0x10
 4845 0c89 D40C0000 		.4byte	0xcd4
 4846 0c8d 02       		.uleb128 0x2
 4847 0c8e 830C0000 		.4byte	.LASF46
 4848 0c92 0B       		.byte	0xb
 4849 0c93 6F01     		.2byte	0x16f
 4850 0c95 22       		.byte	0x22
 4851 0c96 D0030000 		.4byte	0x3d0
 4852 0c9a 00       		.byte	0
 4853 0c9b 02       		.uleb128 0x2
 4854 0c9c E1060000 		.4byte	.LASF175
 4855 0ca0 0B       		.byte	0xb
 4856 0ca1 7501     		.2byte	0x175
 4857 0ca3 22       		.byte	0x22
 4858 0ca4 420C0000 		.4byte	0xc42
 4859 0ca8 04       		.byte	0x4
 4860 0ca9 02       		.uleb128 0x2
 4861 0caa 57040000 		.4byte	.LASF176
 4862 0cae 0B       		.byte	0xb
 4863 0caf 7901     		.2byte	0x179
 4864 0cb1 22       		.byte	0x22
 4865 0cb2 420C0000 		.4byte	0xc42
 4866 0cb6 08       		.byte	0x8
 4867 0cb7 02       		.uleb128 0x2
 4868 0cb8 750E0000 		.4byte	.LASF177
 4869 0cbc 0B       		.byte	0xb
 4870 0cbd 7F01     		.2byte	0x17f
 4871 0cbf 22       		.byte	0x22
 4872 0cc0 420C0000 		.4byte	0xc42
 4873 0cc4 0C       		.byte	0xc
 4874 0cc5 02       		.uleb128 0x2
 4875 0cc6 21060000 		.4byte	.LASF178
 4876 0cca 0B       		.byte	0xb
 4877 0ccb 8301     		.2byte	0x183
 4878 0ccd 22       		.byte	0x22
 4879 0cce 420C0000 		.4byte	0xc42
ARM GAS  C:\Users\DEVELO~1\AppData\Local\Temp\ccFr3SeA.s 			page 87


 4880 0cd2 10       		.byte	0x10
 4881 0cd3 00       		.byte	0
 4882 0cd4 0C       		.uleb128 0xc
 4883 0cd5 D5030000 		.4byte	.LASF179
 4884 0cd9 0B       		.byte	0xb
 4885 0cda 8501     		.2byte	0x185
 4886 0cdc 03       		.byte	0x3
 4887 0cdd 7F0C0000 		.4byte	0xc7f
 4888 0ce1 16       		.uleb128 0x16
 4889 0ce2 D40C0000 		.4byte	0xcd4
 4890 0ce6 05       		.uleb128 0x5
 4891 0ce7 E10C0000 		.4byte	0xce1
 4892 0ceb 03       		.uleb128 0x3
 4893 0cec 710D0000 		.4byte	.LASF180
 4894 0cf0 13       		.byte	0x13
 4895 0cf1 34       		.byte	0x34
 4896 0cf2 19       		.byte	0x19
 4897 0cf3 030C0000 		.4byte	0xc03
 4898 0cf7 05       		.uleb128 0x5
 4899 0cf8 EB0C0000 		.4byte	0xceb
 4900 0cfc 0F       		.uleb128 0xf
 4901 0cfd 01       		.byte	0x1
 4902 0cfe 02       		.byte	0x2
 4903 0cff 85050000 		.4byte	.LASF181
 4904 0d03 0D       		.uleb128 0xd
 4905 0d04 FC0C0000 		.4byte	0xcfc
 4906 0d08 18       		.uleb128 0x18
 4907 0d09 10       		.byte	0x10
 4908 0d0a 14       		.byte	0x14
 4909 0d0b A701     		.2byte	0x1a7
 4910 0d0d 660D0000 		.4byte	0xd66
 4911 0d11 02       		.uleb128 0x2
 4912 0d12 9A060000 		.4byte	.LASF182
 4913 0d16 14       		.byte	0x14
 4914 0d17 A801     		.2byte	0x1a8
 4915 0d19 1A       		.byte	0x1a
 4916 0d1a 660D0000 		.4byte	0xd66
 4917 0d1e 00       		.byte	0
 4918 0d1f 02       		.uleb128 0x2
 4919 0d20 74020000 		.4byte	.LASF183
 4920 0d24 14       		.byte	0x14
 4921 0d25 A901     		.2byte	0x1a9
 4922 0d27 1A       		.byte	0x1a
 4923 0d28 6B0D0000 		.4byte	0xd6b
 4924 0d2c 04       		.byte	0x4
 4925 0d2d 04       		.uleb128 0x4
 4926 0d2e 6D757800 		.ascii	"mux\000"
 4927 0d32 14       		.byte	0x14
 4928 0d33 AB01     		.2byte	0x1ab
 4929 0d35 1B       		.byte	0x1b
 4930 0d36 700D0000 		.4byte	0xd70
 4931 0d3a 08       		.byte	0x8
 4932 0d3b 02       		.uleb128 0x2
 4933 0d3c 92020000 		.4byte	.LASF184
 4934 0d40 14       		.byte	0x14
 4935 0d41 AF01     		.2byte	0x1af
 4936 0d43 19       		.byte	0x19
ARM GAS  C:\Users\DEVELO~1\AppData\Local\Temp\ccFr3SeA.s 			page 88


 4937 0d44 A8000000 		.4byte	0xa8
 4938 0d48 0C       		.byte	0xc
 4939 0d49 02       		.uleb128 0x2
 4940 0d4a 9D0F0000 		.4byte	.LASF185
 4941 0d4e 14       		.byte	0x14
 4942 0d4f B101     		.2byte	0x1b1
 4943 0d51 19       		.byte	0x19
 4944 0d52 A8000000 		.4byte	0xa8
 4945 0d56 0D       		.byte	0xd
 4946 0d57 02       		.uleb128 0x2
 4947 0d58 CE030000 		.4byte	.LASF186
 4948 0d5c 14       		.byte	0x14
 4949 0d5d B201     		.2byte	0x1b2
 4950 0d5f 19       		.byte	0x19
 4951 0d60 A8000000 		.4byte	0xa8
 4952 0d64 0E       		.byte	0xe
 4953 0d65 00       		.byte	0
 4954 0d66 05       		.uleb128 0x5
 4955 0d67 EC090000 		.4byte	0x9ec
 4956 0d6b 05       		.uleb128 0x5
 4957 0d6c E2000000 		.4byte	0xe2
 4958 0d70 05       		.uleb128 0x5
 4959 0d71 110A0000 		.4byte	0xa11
 4960 0d75 0C       		.uleb128 0xc
 4961 0d76 FC060000 		.4byte	.LASF187
 4962 0d7a 14       		.byte	0x14
 4963 0d7b B301     		.2byte	0x1b3
 4964 0d7d 03       		.byte	0x3
 4965 0d7e 080D0000 		.4byte	0xd08
 4966 0d82 16       		.uleb128 0x16
 4967 0d83 750D0000 		.4byte	0xd75
 4968 0d87 18       		.uleb128 0x18
 4969 0d88 60       		.byte	0x60
 4970 0d89 15       		.byte	0x15
 4971 0d8a F601     		.2byte	0x1f6
 4972 0d8c A70E0000 		.4byte	0xea7
 4973 0d90 04       		.uleb128 0x4
 4974 0d91 43523100 		.ascii	"CR1\000"
 4975 0d95 15       		.byte	0x15
 4976 0d96 F701     		.2byte	0x1f7
 4977 0d98 19       		.byte	0x19
 4978 0d99 E2000000 		.4byte	0xe2
 4979 0d9d 00       		.byte	0
 4980 0d9e 04       		.uleb128 0x4
 4981 0d9f 43523200 		.ascii	"CR2\000"
 4982 0da3 15       		.byte	0x15
 4983 0da4 F801     		.2byte	0x1f8
 4984 0da6 19       		.byte	0x19
 4985 0da7 E2000000 		.4byte	0xe2
 4986 0dab 04       		.byte	0x4
 4987 0dac 02       		.uleb128 0x2
 4988 0dad 61070000 		.4byte	.LASF188
 4989 0db1 15       		.byte	0x15
 4990 0db2 F901     		.2byte	0x1f9
 4991 0db4 19       		.byte	0x19
 4992 0db5 E2000000 		.4byte	0xe2
 4993 0db9 08       		.byte	0x8
ARM GAS  C:\Users\DEVELO~1\AppData\Local\Temp\ccFr3SeA.s 			page 89


 4994 0dba 02       		.uleb128 0x2
 4995 0dbb B4050000 		.4byte	.LASF189
 4996 0dbf 15       		.byte	0x15
 4997 0dc0 FA01     		.2byte	0x1fa
 4998 0dc2 19       		.byte	0x19
 4999 0dc3 E2000000 		.4byte	0xe2
 5000 0dc7 0C       		.byte	0xc
 5001 0dc8 04       		.uleb128 0x4
 5002 0dc9 535200   		.ascii	"SR\000"
 5003 0dcc 15       		.byte	0x15
 5004 0dcd FB01     		.2byte	0x1fb
 5005 0dcf 19       		.byte	0x19
 5006 0dd0 E2000000 		.4byte	0xe2
 5007 0dd4 10       		.byte	0x10
 5008 0dd5 04       		.uleb128 0x4
 5009 0dd6 45475200 		.ascii	"EGR\000"
 5010 0dda 15       		.byte	0x15
 5011 0ddb FC01     		.2byte	0x1fc
 5012 0ddd 19       		.byte	0x19
 5013 0dde E2000000 		.4byte	0xe2
 5014 0de2 14       		.byte	0x14
 5015 0de3 02       		.uleb128 0x2
 5016 0de4 C7020000 		.4byte	.LASF190
 5017 0de8 15       		.byte	0x15
 5018 0de9 FD01     		.2byte	0x1fd
 5019 0deb 19       		.byte	0x19
 5020 0dec E2000000 		.4byte	0xe2
 5021 0df0 18       		.byte	0x18
 5022 0df1 02       		.uleb128 0x2
 5023 0df2 2A000000 		.4byte	.LASF191
 5024 0df6 15       		.byte	0x15
 5025 0df7 FE01     		.2byte	0x1fe
 5026 0df9 19       		.byte	0x19
 5027 0dfa E2000000 		.4byte	0xe2
 5028 0dfe 1C       		.byte	0x1c
 5029 0dff 02       		.uleb128 0x2
 5030 0e00 52060000 		.4byte	.LASF192
 5031 0e04 15       		.byte	0x15
 5032 0e05 FF01     		.2byte	0x1ff
 5033 0e07 19       		.byte	0x19
 5034 0e08 E2000000 		.4byte	0xe2
 5035 0e0c 20       		.byte	0x20
 5036 0e0d 04       		.uleb128 0x4
 5037 0e0e 434E5400 		.ascii	"CNT\000"
 5038 0e12 15       		.byte	0x15
 5039 0e13 0002     		.2byte	0x200
 5040 0e15 19       		.byte	0x19
 5041 0e16 E2000000 		.4byte	0xe2
 5042 0e1a 24       		.byte	0x24
 5043 0e1b 04       		.uleb128 0x4
 5044 0e1c 50534300 		.ascii	"PSC\000"
 5045 0e20 15       		.byte	0x15
 5046 0e21 0102     		.2byte	0x201
 5047 0e23 19       		.byte	0x19
 5048 0e24 E2000000 		.4byte	0xe2
 5049 0e28 28       		.byte	0x28
 5050 0e29 04       		.uleb128 0x4
ARM GAS  C:\Users\DEVELO~1\AppData\Local\Temp\ccFr3SeA.s 			page 90


 5051 0e2a 41525200 		.ascii	"ARR\000"
 5052 0e2e 15       		.byte	0x15
 5053 0e2f 0202     		.2byte	0x202
 5054 0e31 19       		.byte	0x19
 5055 0e32 E2000000 		.4byte	0xe2
 5056 0e36 2C       		.byte	0x2c
 5057 0e37 04       		.uleb128 0x4
 5058 0e38 52435200 		.ascii	"RCR\000"
 5059 0e3c 15       		.byte	0x15
 5060 0e3d 0302     		.2byte	0x203
 5061 0e3f 19       		.byte	0x19
 5062 0e40 E2000000 		.4byte	0xe2
 5063 0e44 30       		.byte	0x30
 5064 0e45 04       		.uleb128 0x4
 5065 0e46 43435200 		.ascii	"CCR\000"
 5066 0e4a 15       		.byte	0x15
 5067 0e4b 0402     		.2byte	0x204
 5068 0e4d 19       		.byte	0x19
 5069 0e4e 75090000 		.4byte	0x975
 5070 0e52 34       		.byte	0x34
 5071 0e53 02       		.uleb128 0x2
 5072 0e54 6F020000 		.4byte	.LASF193
 5073 0e58 15       		.byte	0x15
 5074 0e59 0502     		.2byte	0x205
 5075 0e5b 19       		.byte	0x19
 5076 0e5c E2000000 		.4byte	0xe2
 5077 0e60 44       		.byte	0x44
 5078 0e61 04       		.uleb128 0x4
 5079 0e62 44435200 		.ascii	"DCR\000"
 5080 0e66 15       		.byte	0x15
 5081 0e67 1302     		.2byte	0x213
 5082 0e69 19       		.byte	0x19
 5083 0e6a E2000000 		.4byte	0xe2
 5084 0e6e 48       		.byte	0x48
 5085 0e6f 02       		.uleb128 0x2
 5086 0e70 CB010000 		.4byte	.LASF194
 5087 0e74 15       		.byte	0x15
 5088 0e75 1402     		.2byte	0x214
 5089 0e77 19       		.byte	0x19
 5090 0e78 E2000000 		.4byte	0xe2
 5091 0e7c 4C       		.byte	0x4c
 5092 0e7d 04       		.uleb128 0x4
 5093 0e7e 4F5200   		.ascii	"OR\000"
 5094 0e81 15       		.byte	0x15
 5095 0e82 1502     		.2byte	0x215
 5096 0e84 19       		.byte	0x19
 5097 0e85 E2000000 		.4byte	0xe2
 5098 0e89 50       		.byte	0x50
 5099 0e8a 02       		.uleb128 0x2
 5100 0e8b 4E0D0000 		.4byte	.LASF195
 5101 0e8f 15       		.byte	0x15
 5102 0e90 1602     		.2byte	0x216
 5103 0e92 19       		.byte	0x19
 5104 0e93 E2000000 		.4byte	0xe2
 5105 0e97 54       		.byte	0x54
 5106 0e98 02       		.uleb128 0x2
 5107 0e99 A50A0000 		.4byte	.LASF196
ARM GAS  C:\Users\DEVELO~1\AppData\Local\Temp\ccFr3SeA.s 			page 91


 5108 0e9d 15       		.byte	0x15
 5109 0e9e 1702     		.2byte	0x217
 5110 0ea0 19       		.byte	0x19
 5111 0ea1 8A090000 		.4byte	0x98a
 5112 0ea5 58       		.byte	0x58
 5113 0ea6 00       		.byte	0
 5114 0ea7 0C       		.uleb128 0xc
 5115 0ea8 51050000 		.4byte	.LASF197
 5116 0eac 15       		.byte	0x15
 5117 0ead 1902     		.2byte	0x219
 5118 0eaf 03       		.byte	0x3
 5119 0eb0 870D0000 		.4byte	0xd87
 5120 0eb4 14       		.uleb128 0x14
 5121 0eb5 04       		.byte	0x4
 5122 0eb6 16       		.byte	0x16
 5123 0eb7 5B       		.byte	0x5b
 5124 0eb8 05       		.byte	0x5
 5125 0eb9 D80E0000 		.4byte	0xed8
 5126 0ebd 08       		.uleb128 0x8
 5127 0ebe 73657400 		.ascii	"set\000"
 5128 0ec2 16       		.byte	0x16
 5129 0ec3 5C       		.byte	0x5c
 5130 0ec4 19       		.byte	0x19
 5131 0ec5 B9000000 		.4byte	0xb9
 5132 0ec9 00       		.byte	0
 5133 0eca 01       		.uleb128 0x1
 5134 0ecb AA0A0000 		.4byte	.LASF198
 5135 0ecf 16       		.byte	0x16
 5136 0ed0 5D       		.byte	0x5d
 5137 0ed1 19       		.byte	0x19
 5138 0ed2 B9000000 		.4byte	0xb9
 5139 0ed6 02       		.byte	0x2
 5140 0ed7 00       		.byte	0
 5141 0ed8 1F       		.uleb128 0x1f
 5142 0ed9 04       		.byte	0x4
 5143 0eda 16       		.byte	0x16
 5144 0edb 59       		.byte	0x59
 5145 0edc 0C       		.byte	0xc
 5146 0edd F60E0000 		.4byte	0xef6
 5147 0ee1 1C       		.uleb128 0x1c
 5148 0ee2 5700     		.ascii	"W\000"
 5149 0ee4 16       		.byte	0x16
 5150 0ee5 5A       		.byte	0x5a
 5151 0ee6 19       		.byte	0x19
 5152 0ee7 D6000000 		.4byte	0xd6
 5153 0eeb 1C       		.uleb128 0x1c
 5154 0eec 4800     		.ascii	"H\000"
 5155 0eee 16       		.byte	0x16
 5156 0eef 5E       		.byte	0x5e
 5157 0ef0 07       		.byte	0x7
 5158 0ef1 B40E0000 		.4byte	0xeb4
 5159 0ef5 00       		.byte	0
 5160 0ef6 0D       		.uleb128 0xd
 5161 0ef7 D80E0000 		.4byte	0xed8
 5162 0efb 14       		.uleb128 0x14
 5163 0efc 28       		.byte	0x28
 5164 0efd 16       		.byte	0x16
ARM GAS  C:\Users\DEVELO~1\AppData\Local\Temp\ccFr3SeA.s 			page 92


 5165 0efe 51       		.byte	0x51
 5166 0eff 09       		.byte	0x9
 5167 0f00 870F0000 		.4byte	0xf87
 5168 0f04 01       		.uleb128 0x1
 5169 0f05 1F040000 		.4byte	.LASF199
 5170 0f09 16       		.byte	0x16
 5171 0f0a 53       		.byte	0x53
 5172 0f0b 19       		.byte	0x19
 5173 0f0c E2000000 		.4byte	0xe2
 5174 0f10 00       		.byte	0
 5175 0f11 01       		.uleb128 0x1
 5176 0f12 E30B0000 		.4byte	.LASF200
 5177 0f16 16       		.byte	0x16
 5178 0f17 54       		.byte	0x54
 5179 0f18 19       		.byte	0x19
 5180 0f19 E2000000 		.4byte	0xe2
 5181 0f1d 04       		.byte	0x4
 5182 0f1e 01       		.uleb128 0x1
 5183 0f1f 0B0A0000 		.4byte	.LASF201
 5184 0f23 16       		.byte	0x16
 5185 0f24 55       		.byte	0x55
 5186 0f25 19       		.byte	0x19
 5187 0f26 E2000000 		.4byte	0xe2
 5188 0f2a 08       		.byte	0x8
 5189 0f2b 01       		.uleb128 0x1
 5190 0f2c 95050000 		.4byte	.LASF202
 5191 0f30 16       		.byte	0x16
 5192 0f31 56       		.byte	0x56
 5193 0f32 19       		.byte	0x19
 5194 0f33 E2000000 		.4byte	0xe2
 5195 0f37 0C       		.byte	0xc
 5196 0f38 08       		.uleb128 0x8
 5197 0f39 49445200 		.ascii	"IDR\000"
 5198 0f3d 16       		.byte	0x16
 5199 0f3e 57       		.byte	0x57
 5200 0f3f 19       		.byte	0x19
 5201 0f40 E2000000 		.4byte	0xe2
 5202 0f44 10       		.byte	0x10
 5203 0f45 08       		.uleb128 0x8
 5204 0f46 4F445200 		.ascii	"ODR\000"
 5205 0f4a 16       		.byte	0x16
 5206 0f4b 58       		.byte	0x58
 5207 0f4c 19       		.byte	0x19
 5208 0f4d E2000000 		.4byte	0xe2
 5209 0f51 14       		.byte	0x14
 5210 0f52 01       		.uleb128 0x1
 5211 0f53 4C000000 		.4byte	.LASF203
 5212 0f57 16       		.byte	0x16
 5213 0f58 5F       		.byte	0x5f
 5214 0f59 05       		.byte	0x5
 5215 0f5a F60E0000 		.4byte	0xef6
 5216 0f5e 18       		.byte	0x18
 5217 0f5f 01       		.uleb128 0x1
 5218 0f60 51040000 		.4byte	.LASF204
 5219 0f64 16       		.byte	0x16
 5220 0f65 60       		.byte	0x60
 5221 0f66 19       		.byte	0x19
ARM GAS  C:\Users\DEVELO~1\AppData\Local\Temp\ccFr3SeA.s 			page 93


 5222 0f67 E2000000 		.4byte	0xe2
 5223 0f6b 1C       		.byte	0x1c
 5224 0f6c 01       		.uleb128 0x1
 5225 0f6d A00D0000 		.4byte	.LASF205
 5226 0f71 16       		.byte	0x16
 5227 0f72 61       		.byte	0x61
 5228 0f73 19       		.byte	0x19
 5229 0f74 E2000000 		.4byte	0xe2
 5230 0f78 20       		.byte	0x20
 5231 0f79 01       		.uleb128 0x1
 5232 0f7a 36040000 		.4byte	.LASF206
 5233 0f7e 16       		.byte	0x16
 5234 0f7f 62       		.byte	0x62
 5235 0f80 19       		.byte	0x19
 5236 0f81 E2000000 		.4byte	0xe2
 5237 0f85 24       		.byte	0x24
 5238 0f86 00       		.byte	0
 5239 0f87 03       		.uleb128 0x3
 5240 0f88 3B040000 		.4byte	.LASF207
 5241 0f8c 16       		.byte	0x16
 5242 0f8d 63       		.byte	0x63
 5243 0f8e 03       		.byte	0x3
 5244 0f8f FB0E0000 		.4byte	0xefb
 5245 0f93 03       		.uleb128 0x3
 5246 0f94 69080000 		.4byte	.LASF208
 5247 0f98 17       		.byte	0x17
 5248 0f99 C2       		.byte	0xc2
 5249 0f9a 12       		.byte	0x12
 5250 0f9b D6000000 		.4byte	0xd6
 5251 0f9f 03       		.uleb128 0x3
 5252 0fa0 600E0000 		.4byte	.LASF209
 5253 0fa4 17       		.byte	0x17
 5254 0fa5 C7       		.byte	0xc7
 5255 0fa6 12       		.byte	0x12
 5256 0fa7 D6000000 		.4byte	0xd6
 5257 0fab 03       		.uleb128 0x3
 5258 0fac D4050000 		.4byte	.LASF210
 5259 0fb0 17       		.byte	0x17
 5260 0fb1 D9       		.byte	0xd9
 5261 0fb2 18       		.byte	0x18
 5262 0fb3 B70F0000 		.4byte	0xfb7
 5263 0fb7 05       		.uleb128 0x5
 5264 0fb8 870F0000 		.4byte	0xf87
 5265 0fbc 1E       		.uleb128 0x1e
 5266 0fbd 39000000 		.4byte	0x39
 5267 0fc1 18       		.byte	0x18
 5268 0fc2 46       		.byte	0x46
 5269 0fc3 EC0F0000 		.4byte	0xfec
 5270 0fc7 07       		.uleb128 0x7
 5271 0fc8 780C0000 		.4byte	.LASF211
 5272 0fcc 00       		.byte	0
 5273 0fcd 07       		.uleb128 0x7
 5274 0fce 280F0000 		.4byte	.LASF212
 5275 0fd2 01       		.byte	0x1
 5276 0fd3 07       		.uleb128 0x7
 5277 0fd4 E10C0000 		.4byte	.LASF213
 5278 0fd8 02       		.byte	0x2
ARM GAS  C:\Users\DEVELO~1\AppData\Local\Temp\ccFr3SeA.s 			page 94


 5279 0fd9 07       		.uleb128 0x7
 5280 0fda 9A0A0000 		.4byte	.LASF214
 5281 0fde 03       		.byte	0x3
 5282 0fdf 07       		.uleb128 0x7
 5283 0fe0 EF050000 		.4byte	.LASF215
 5284 0fe4 04       		.byte	0x4
 5285 0fe5 07       		.uleb128 0x7
 5286 0fe6 02060000 		.4byte	.LASF216
 5287 0fea 05       		.byte	0x5
 5288 0feb 00       		.byte	0
 5289 0fec 03       		.uleb128 0x3
 5290 0fed F1060000 		.4byte	.LASF217
 5291 0ff1 18       		.byte	0x18
 5292 0ff2 4D       		.byte	0x4d
 5293 0ff3 03       		.byte	0x3
 5294 0ff4 BC0F0000 		.4byte	0xfbc
 5295 0ff8 03       		.uleb128 0x3
 5296 0ff9 33050000 		.4byte	.LASF218
 5297 0ffd 18       		.byte	0x18
 5298 0ffe 52       		.byte	0x52
 5299 0fff 1F       		.byte	0x1f
 5300 1000 04100000 		.4byte	0x1004
 5301 1004 0E       		.uleb128 0xe
 5302 1005 C00B0000 		.4byte	.LASF219
 5303 1009 38       		.byte	0x38
 5304 100a 18       		.byte	0x18
 5305 100b A0       		.byte	0xa0
 5306 100c 08       		.byte	0x8
 5307 100d A1100000 		.4byte	0x10a1
 5308 1011 01       		.uleb128 0x1
 5309 1012 230E0000 		.4byte	.LASF48
 5310 1016 18       		.byte	0x18
 5311 1017 A4       		.byte	0xa4
 5312 1018 1D       		.byte	0x1d
 5313 1019 EC0F0000 		.4byte	0xfec
 5314 101d 00       		.byte	0
 5315 101e 01       		.uleb128 0x1
 5316 101f A4050000 		.4byte	.LASF65
 5317 1023 18       		.byte	0x18
 5318 1024 A8       		.byte	0xa8
 5319 1025 1E       		.byte	0x1e
 5320 1026 82120000 		.4byte	0x1282
 5321 102a 04       		.byte	0x4
 5322 102b 01       		.uleb128 0x1
 5323 102c BF070000 		.4byte	.LASF220
 5324 1030 18       		.byte	0x18
 5325 1031 AC       		.byte	0xac
 5326 1032 1E       		.byte	0x1e
 5327 1033 87120000 		.4byte	0x1287
 5328 1037 08       		.byte	0x8
 5329 1038 01       		.uleb128 0x1
 5330 1039 0B080000 		.4byte	.LASF221
 5331 103d 18       		.byte	0x18
 5332 103e B0       		.byte	0xb0
 5333 103f 1D       		.byte	0x1d
 5334 1040 6E010000 		.4byte	0x16e
 5335 1044 0C       		.byte	0xc
ARM GAS  C:\Users\DEVELO~1\AppData\Local\Temp\ccFr3SeA.s 			page 95


 5336 1045 01       		.uleb128 0x1
 5337 1046 310F0000 		.4byte	.LASF222
 5338 104a 18       		.byte	0x18
 5339 104b B4       		.byte	0xb4
 5340 104c 1E       		.byte	0x1e
 5341 104d 8C120000 		.4byte	0x128c
 5342 1051 10       		.byte	0x10
 5343 1052 01       		.uleb128 0x1
 5344 1053 2E0D0000 		.4byte	.LASF223
 5345 1057 18       		.byte	0x18
 5346 1058 B9       		.byte	0xb9
 5347 1059 1D       		.byte	0x1d
 5348 105a 2D0B0000 		.4byte	0xb2d
 5349 105e 14       		.byte	0x14
 5350 105f 01       		.uleb128 0x1
 5351 1060 8C020000 		.4byte	.LASF224
 5352 1064 18       		.byte	0x18
 5353 1065 BF       		.byte	0xbf
 5354 1066 1D       		.byte	0x1d
 5355 1067 EB0C0000 		.4byte	0xceb
 5356 106b 18       		.byte	0x18
 5357 106c 01       		.uleb128 0x1
 5358 106d 000D0000 		.4byte	.LASF225
 5359 1071 18       		.byte	0x18
 5360 1072 C5       		.byte	0xc5
 5361 1073 03       		.byte	0x3
 5362 1074 91120000 		.4byte	0x1291
 5363 1078 28       		.byte	0x28
 5364 1079 01       		.uleb128 0x1
 5365 107a CA0C0000 		.4byte	.LASF226
 5366 107e 18       		.byte	0x18
 5367 107f C5       		.byte	0xc5
 5368 1080 03       		.byte	0x3
 5369 1081 96120000 		.4byte	0x1296
 5370 1085 2C       		.byte	0x2c
 5371 1086 01       		.uleb128 0x1
 5372 1087 C50C0000 		.4byte	.LASF227
 5373 108b 18       		.byte	0x18
 5374 108c C5       		.byte	0xc5
 5375 108d 03       		.byte	0x3
 5376 108e 27120000 		.4byte	0x1227
 5377 1092 30       		.byte	0x30
 5378 1093 01       		.uleb128 0x1
 5379 1094 73000000 		.4byte	.LASF228
 5380 1098 18       		.byte	0x18
 5381 1099 C5       		.byte	0xc5
 5382 109a 03       		.byte	0x3
 5383 109b D6000000 		.4byte	0xd6
 5384 109f 34       		.byte	0x34
 5385 10a0 00       		.byte	0
 5386 10a1 03       		.uleb128 0x3
 5387 10a2 22080000 		.4byte	.LASF229
 5388 10a6 18       		.byte	0x18
 5389 10a7 57       		.byte	0x57
 5390 10a8 1F       		.byte	0x1f
 5391 10a9 B2100000 		.4byte	0x10b2
 5392 10ad 16       		.uleb128 0x16
ARM GAS  C:\Users\DEVELO~1\AppData\Local\Temp\ccFr3SeA.s 			page 96


 5393 10ae A1100000 		.4byte	0x10a1
 5394 10b2 0E       		.uleb128 0xe
 5395 10b3 890B0000 		.4byte	.LASF230
 5396 10b7 08       		.byte	0x8
 5397 10b8 18       		.byte	0x18
 5398 10b9 98       		.byte	0x98
 5399 10ba 08       		.byte	0x8
 5400 10bb DA100000 		.4byte	0x10da
 5401 10bf 01       		.uleb128 0x1
 5402 10c0 140B0000 		.4byte	.LASF231
 5403 10c4 18       		.byte	0x18
 5404 10c5 9A       		.byte	0x9a
 5405 10c6 03       		.byte	0x3
 5406 10c7 D6000000 		.4byte	0xd6
 5407 10cb 00       		.byte	0
 5408 10cc 01       		.uleb128 0x1
 5409 10cd 310C0000 		.4byte	.LASF232
 5410 10d1 18       		.byte	0x18
 5411 10d2 9A       		.byte	0x9a
 5412 10d3 03       		.byte	0x3
 5413 10d4 D6000000 		.4byte	0xd6
 5414 10d8 04       		.byte	0x4
 5415 10d9 00       		.byte	0
 5416 10da 03       		.uleb128 0x3
 5417 10db 690B0000 		.4byte	.LASF233
 5418 10df 18       		.byte	0x18
 5419 10e0 61       		.byte	0x61
 5420 10e1 2C       		.byte	0x2c
 5421 10e2 EB100000 		.4byte	0x10eb
 5422 10e6 16       		.uleb128 0x16
 5423 10e7 DA100000 		.4byte	0x10da
 5424 10eb 0E       		.uleb128 0xe
 5425 10ec 720F0000 		.4byte	.LASF234
 5426 10f0 58       		.byte	0x58
 5427 10f1 18       		.byte	0x18
 5428 10f2 80       		.byte	0x80
 5429 10f3 08       		.byte	0x8
 5430 10f4 E3110000 		.4byte	0x11e3
 5431 10f8 01       		.uleb128 0x1
 5432 10f9 30000000 		.4byte	.LASF235
 5433 10fd 18       		.byte	0x18
 5434 10fe 84       		.byte	0x84
 5435 10ff 1D       		.byte	0x1d
 5436 1100 FC0C0000 		.4byte	0xcfc
 5437 1104 00       		.byte	0
 5438 1105 01       		.uleb128 0x1
 5439 1106 7C0B0000 		.4byte	.LASF236
 5440 110a 18       		.byte	0x18
 5441 110b 88       		.byte	0x88
 5442 110c 1D       		.byte	0x1d
 5443 110d F0110000 		.4byte	0x11f0
 5444 1111 04       		.byte	0x4
 5445 1112 01       		.uleb128 0x1
 5446 1113 DF020000 		.4byte	.LASF237
 5447 1117 18       		.byte	0x18
 5448 1118 8C       		.byte	0x8c
 5449 1119 1D       		.byte	0x1d
ARM GAS  C:\Users\DEVELO~1\AppData\Local\Temp\ccFr3SeA.s 			page 97


 5450 111a 40120000 		.4byte	0x1240
 5451 111e 08       		.byte	0x8
 5452 111f 01       		.uleb128 0x1
 5453 1120 36010000 		.4byte	.LASF238
 5454 1124 18       		.byte	0x18
 5455 1125 90       		.byte	0x90
 5456 1126 1D       		.byte	0x1d
 5457 1127 61120000 		.4byte	0x1261
 5458 112b 0C       		.byte	0xc
 5459 112c 01       		.uleb128 0x1
 5460 112d 87020000 		.4byte	.LASF239
 5461 1131 18       		.byte	0x18
 5462 1132 92       		.byte	0x92
 5463 1133 03       		.byte	0x3
 5464 1134 D6000000 		.4byte	0xd6
 5465 1138 10       		.byte	0x10
 5466 1139 01       		.uleb128 0x1
 5467 113a 440B0000 		.4byte	.LASF240
 5468 113e 18       		.byte	0x18
 5469 113f 92       		.byte	0x92
 5470 1140 03       		.byte	0x3
 5471 1141 D6000000 		.4byte	0xd6
 5472 1145 14       		.byte	0x14
 5473 1146 08       		.uleb128 0x8
 5474 1147 63637200 		.ascii	"ccr\000"
 5475 114b 18       		.byte	0x18
 5476 114c 92       		.byte	0x92
 5477 114d 03       		.byte	0x3
 5478 114e D6000000 		.4byte	0xd6
 5479 1152 18       		.byte	0x18
 5480 1153 01       		.uleb128 0x1
 5481 1154 DF050000 		.4byte	.LASF241
 5482 1158 18       		.byte	0x18
 5483 1159 92       		.byte	0x92
 5484 115a 03       		.byte	0x3
 5485 115b D6000000 		.4byte	0xd6
 5486 115f 1C       		.byte	0x1c
 5487 1160 01       		.uleb128 0x1
 5488 1161 86060000 		.4byte	.LASF242
 5489 1165 18       		.byte	0x18
 5490 1166 92       		.byte	0x92
 5491 1167 03       		.byte	0x3
 5492 1168 D6000000 		.4byte	0xd6
 5493 116c 20       		.byte	0x20
 5494 116d 01       		.uleb128 0x1
 5495 116e 95060000 		.4byte	.LASF243
 5496 1172 18       		.byte	0x18
 5497 1173 92       		.byte	0x92
 5498 1174 03       		.byte	0x3
 5499 1175 D6000000 		.4byte	0xd6
 5500 1179 24       		.byte	0x24
 5501 117a 01       		.uleb128 0x1
 5502 117b 8B060000 		.4byte	.LASF244
 5503 117f 18       		.byte	0x18
 5504 1180 92       		.byte	0x92
 5505 1181 03       		.byte	0x3
 5506 1182 D6000000 		.4byte	0xd6
ARM GAS  C:\Users\DEVELO~1\AppData\Local\Temp\ccFr3SeA.s 			page 98


 5507 1186 28       		.byte	0x28
 5508 1187 01       		.uleb128 0x1
 5509 1188 0F010000 		.4byte	.LASF245
 5510 118c 18       		.byte	0x18
 5511 118d 92       		.byte	0x92
 5512 118e 03       		.byte	0x3
 5513 118f D6000000 		.4byte	0xd6
 5514 1193 2C       		.byte	0x2c
 5515 1194 01       		.uleb128 0x1
 5516 1195 90060000 		.4byte	.LASF246
 5517 1199 18       		.byte	0x18
 5518 119a 92       		.byte	0x92
 5519 119b 03       		.byte	0x3
 5520 119c D6000000 		.4byte	0xd6
 5521 11a0 30       		.byte	0x30
 5522 11a1 01       		.uleb128 0x1
 5523 11a2 14010000 		.4byte	.LASF247
 5524 11a6 18       		.byte	0x18
 5525 11a7 92       		.byte	0x92
 5526 11a8 03       		.byte	0x3
 5527 11a9 D6000000 		.4byte	0xd6
 5528 11ad 34       		.byte	0x34
 5529 11ae 01       		.uleb128 0x1
 5530 11af C00E0000 		.4byte	.LASF248
 5531 11b3 18       		.byte	0x18
 5532 11b4 92       		.byte	0x92
 5533 11b5 03       		.byte	0x3
 5534 11b6 D6000000 		.4byte	0xd6
 5535 11ba 38       		.byte	0x38
 5536 11bb 01       		.uleb128 0x1
 5537 11bc 100F0000 		.4byte	.LASF249
 5538 11c0 18       		.byte	0x18
 5539 11c1 92       		.byte	0x92
 5540 11c2 03       		.byte	0x3
 5541 11c3 D6000000 		.4byte	0xd6
 5542 11c7 3C       		.byte	0x3c
 5543 11c8 01       		.uleb128 0x1
 5544 11c9 F3070000 		.4byte	.LASF250
 5545 11cd 18       		.byte	0x18
 5546 11ce 92       		.byte	0x92
 5547 11cf 03       		.byte	0x3
 5548 11d0 92060000 		.4byte	0x692
 5549 11d4 40       		.byte	0x40
 5550 11d5 08       		.uleb128 0x8
 5551 11d6 73717200 		.ascii	"sqr\000"
 5552 11da 18       		.byte	0x18
 5553 11db 92       		.byte	0x92
 5554 11dc 03       		.byte	0x3
 5555 11dd EB080000 		.4byte	0x8eb
 5556 11e1 48       		.byte	0x48
 5557 11e2 00       		.byte	0
 5558 11e3 0C       		.uleb128 0xc
 5559 11e4 FF090000 		.4byte	.LASF251
 5560 11e8 19       		.byte	0x19
 5561 11e9 2402     		.2byte	0x224
 5562 11eb 12       		.byte	0x12
 5563 11ec B9000000 		.4byte	0xb9
ARM GAS  C:\Users\DEVELO~1\AppData\Local\Temp\ccFr3SeA.s 			page 99


 5564 11f0 0C       		.uleb128 0xc
 5565 11f1 310B0000 		.4byte	.LASF252
 5566 11f5 19       		.byte	0x19
 5567 11f6 2E02     		.2byte	0x22e
 5568 11f8 12       		.byte	0x12
 5569 11f9 D6000000 		.4byte	0xd6
 5570 11fd 0C       		.uleb128 0xc
 5571 11fe 17080000 		.4byte	.LASF253
 5572 1202 19       		.byte	0x19
 5573 1203 3302     		.2byte	0x233
 5574 1205 12       		.byte	0x12
 5575 1206 D6000000 		.4byte	0xd6
 5576 120a 35       		.uleb128 0x35
 5577 120b 04       		.byte	0x4
 5578 120c 19       		.byte	0x19
 5579 120d 3802     		.2byte	0x238
 5580 120f 09       		.byte	0x9
 5581 1210 22120000 		.4byte	0x1222
 5582 1214 36       		.uleb128 0x36
 5583 1215 646D6100 		.ascii	"dma\000"
 5584 1219 19       		.byte	0x19
 5585 121a 3D02     		.2byte	0x23d
 5586 121c 20       		.byte	0x20
 5587 121d 22120000 		.4byte	0x1222
 5588 1221 00       		.byte	0
 5589 1222 05       		.uleb128 0x5
 5590 1223 820D0000 		.4byte	0xd82
 5591 1227 0C       		.uleb128 0xc
 5592 1228 E8000000 		.4byte	.LASF254
 5593 122c 19       		.byte	0x19
 5594 122d 4502     		.2byte	0x245
 5595 122f 03       		.byte	0x3
 5596 1230 0A120000 		.4byte	0x120a
 5597 1234 25       		.uleb128 0x25
 5598 1235 1C0A0000 		.4byte	.LASF272
 5599 1239 19       		.byte	0x19
 5600 123a 0703     		.2byte	0x307
 5601 123c F80F0000 		.4byte	0xff8
 5602 1240 03       		.uleb128 0x3
 5603 1241 3A080000 		.4byte	.LASF255
 5604 1245 18       		.byte	0x18
 5605 1246 6D       		.byte	0x6d
 5606 1247 10       		.byte	0x10
 5607 1248 4C120000 		.4byte	0x124c
 5608 124c 05       		.uleb128 0x5
 5609 124d 51120000 		.4byte	0x1251
 5610 1251 24       		.uleb128 0x24
 5611 1252 5C120000 		.4byte	0x125c
 5612 1256 09       		.uleb128 0x9
 5613 1257 5C120000 		.4byte	0x125c
 5614 125b 00       		.byte	0
 5615 125c 05       		.uleb128 0x5
 5616 125d F80F0000 		.4byte	0xff8
 5617 1261 03       		.uleb128 0x3
 5618 1262 54020000 		.4byte	.LASF256
 5619 1266 18       		.byte	0x18
 5620 1267 76       		.byte	0x76
ARM GAS  C:\Users\DEVELO~1\AppData\Local\Temp\ccFr3SeA.s 			page 100


 5621 1268 10       		.byte	0x10
 5622 1269 6D120000 		.4byte	0x126d
 5623 126d 05       		.uleb128 0x5
 5624 126e 72120000 		.4byte	0x1272
 5625 1272 24       		.uleb128 0x24
 5626 1273 82120000 		.4byte	0x1282
 5627 1277 09       		.uleb128 0x9
 5628 1278 5C120000 		.4byte	0x125c
 5629 127c 09       		.uleb128 0x9
 5630 127d FD110000 		.4byte	0x11fd
 5631 1281 00       		.byte	0
 5632 1282 05       		.uleb128 0x5
 5633 1283 AD100000 		.4byte	0x10ad
 5634 1287 05       		.uleb128 0x5
 5635 1288 E3110000 		.4byte	0x11e3
 5636 128c 05       		.uleb128 0x5
 5637 128d E6100000 		.4byte	0x10e6
 5638 1291 05       		.uleb128 0x5
 5639 1292 FB080000 		.4byte	0x8fb
 5640 1296 05       		.uleb128 0x5
 5641 1297 58090000 		.4byte	0x958
 5642 129b 1E       		.uleb128 0x1e
 5643 129c 39000000 		.4byte	0x39
 5644 12a0 1A       		.byte	0x1a
 5645 12a1 31       		.byte	0x31
 5646 12a2 C5120000 		.4byte	0x12c5
 5647 12a6 07       		.uleb128 0x7
 5648 12a7 260C0000 		.4byte	.LASF257
 5649 12ab 00       		.byte	0
 5650 12ac 07       		.uleb128 0x7
 5651 12ad 19010000 		.4byte	.LASF258
 5652 12b1 01       		.byte	0x1
 5653 12b2 07       		.uleb128 0x7
 5654 12b3 EE010000 		.4byte	.LASF259
 5655 12b7 02       		.byte	0x2
 5656 12b8 07       		.uleb128 0x7
 5657 12b9 EB080000 		.4byte	.LASF260
 5658 12bd 03       		.byte	0x3
 5659 12be 07       		.uleb128 0x7
 5660 12bf D4000000 		.4byte	.LASF261
 5661 12c3 04       		.byte	0x4
 5662 12c4 00       		.byte	0
 5663 12c5 03       		.uleb128 0x3
 5664 12c6 940C0000 		.4byte	.LASF262
 5665 12ca 1A       		.byte	0x1a
 5666 12cb 37       		.byte	0x37
 5667 12cc 03       		.byte	0x3
 5668 12cd 9B120000 		.4byte	0x129b
 5669 12d1 03       		.uleb128 0x3
 5670 12d2 540D0000 		.4byte	.LASF263
 5671 12d6 1A       		.byte	0x1a
 5672 12d7 3C       		.byte	0x3c
 5673 12d8 1A       		.byte	0x1a
 5674 12d9 DD120000 		.4byte	0x12dd
 5675 12dd 1D       		.uleb128 0x1d
 5676 12de 540D0000 		.4byte	.LASF263
 5677 12e2 10       		.byte	0x10
ARM GAS  C:\Users\DEVELO~1\AppData\Local\Temp\ccFr3SeA.s 			page 101


 5678 12e3 1B       		.byte	0x1b
 5679 12e4 3003     		.2byte	0x330
 5680 12e6 08       		.byte	0x8
 5681 12e7 24130000 		.4byte	0x1324
 5682 12eb 02       		.uleb128 0x2
 5683 12ec 230E0000 		.4byte	.LASF48
 5684 12f0 1B       		.byte	0x1b
 5685 12f1 3403     		.2byte	0x334
 5686 12f3 1D       		.byte	0x1d
 5687 12f4 C5120000 		.4byte	0x12c5
 5688 12f8 00       		.byte	0
 5689 12f9 02       		.uleb128 0x2
 5690 12fa A4050000 		.4byte	.LASF65
 5691 12fe 1B       		.byte	0x1b
 5692 12ff 3803     		.2byte	0x338
 5693 1301 1E       		.byte	0x1e
 5694 1302 B8130000 		.4byte	0x13b8
 5695 1306 04       		.byte	0x4
 5696 1307 02       		.uleb128 0x2
 5697 1308 D20E0000 		.4byte	.LASF264
 5698 130c 1B       		.byte	0x1b
 5699 130d 4003     		.2byte	0x340
 5700 130f 1D       		.byte	0x1d
 5701 1310 D6000000 		.4byte	0xd6
 5702 1314 08       		.byte	0x8
 5703 1315 04       		.uleb128 0x4
 5704 1316 74696D00 		.ascii	"tim\000"
 5705 131a 1B       		.byte	0x1b
 5706 131b 4403     		.2byte	0x344
 5707 131d 1E       		.byte	0x1e
 5708 131e BD130000 		.4byte	0x13bd
 5709 1322 0C       		.byte	0xc
 5710 1323 00       		.byte	0
 5711 1324 03       		.uleb128 0x3
 5712 1325 13090000 		.4byte	.LASF265
 5713 1329 1A       		.byte	0x1a
 5714 132a 43       		.byte	0x43
 5715 132b 10       		.byte	0x10
 5716 132c 30130000 		.4byte	0x1330
 5717 1330 05       		.uleb128 0x5
 5718 1331 35130000 		.4byte	0x1335
 5719 1335 24       		.uleb128 0x24
 5720 1336 40130000 		.4byte	0x1340
 5721 133a 09       		.uleb128 0x9
 5722 133b 40130000 		.4byte	0x1340
 5723 133f 00       		.byte	0
 5724 1340 05       		.uleb128 0x5
 5725 1341 D1120000 		.4byte	0x12d1
 5726 1345 0C       		.uleb128 0xc
 5727 1346 3D060000 		.4byte	.LASF266
 5728 134a 1B       		.byte	0x1b
 5729 134b 0603     		.2byte	0x306
 5730 134d 12       		.byte	0x12
 5731 134e D6000000 		.4byte	0xd6
 5732 1352 0C       		.uleb128 0xc
 5733 1353 100E0000 		.4byte	.LASF267
 5734 1357 1B       		.byte	0x1b
ARM GAS  C:\Users\DEVELO~1\AppData\Local\Temp\ccFr3SeA.s 			page 102


 5735 1358 0B03     		.2byte	0x30b
 5736 135a 12       		.byte	0x12
 5737 135b D6000000 		.4byte	0xd6
 5738 135f 16       		.uleb128 0x16
 5739 1360 52130000 		.4byte	0x1352
 5740 1364 18       		.uleb128 0x18
 5741 1365 10       		.byte	0x10
 5742 1366 1B       		.byte	0x1b
 5743 1367 1103     		.2byte	0x311
 5744 1369 A6130000 		.4byte	0x13a6
 5745 136d 02       		.uleb128 0x2
 5746 136e 190E0000 		.4byte	.LASF268
 5747 1372 1B       		.byte	0x1b
 5748 1373 1703     		.2byte	0x317
 5749 1375 1D       		.byte	0x1d
 5750 1376 45130000 		.4byte	0x1345
 5751 137a 00       		.byte	0
 5752 137b 02       		.uleb128 0x2
 5753 137c 290E0000 		.4byte	.LASF269
 5754 1380 1B       		.byte	0x1b
 5755 1381 1E03     		.2byte	0x31e
 5756 1383 1D       		.byte	0x1d
 5757 1384 24130000 		.4byte	0x1324
 5758 1388 04       		.byte	0x4
 5759 1389 04       		.uleb128 0x4
 5760 138a 63723200 		.ascii	"cr2\000"
 5761 138e 1B       		.byte	0x1b
 5762 138f 2403     		.2byte	0x324
 5763 1391 1D       		.byte	0x1d
 5764 1392 D6000000 		.4byte	0xd6
 5765 1396 08       		.byte	0x8
 5766 1397 02       		.uleb128 0x2
 5767 1398 950A0000 		.4byte	.LASF270
 5768 139c 1B       		.byte	0x1b
 5769 139d 2A03     		.2byte	0x32a
 5770 139f 1D       		.byte	0x1d
 5771 13a0 D6000000 		.4byte	0xd6
 5772 13a4 0C       		.byte	0xc
 5773 13a5 00       		.byte	0
 5774 13a6 0C       		.uleb128 0xc
 5775 13a7 76010000 		.4byte	.LASF271
 5776 13ab 1B       		.byte	0x1b
 5777 13ac 2B03     		.2byte	0x32b
 5778 13ae 03       		.byte	0x3
 5779 13af 64130000 		.4byte	0x1364
 5780 13b3 16       		.uleb128 0x16
 5781 13b4 A6130000 		.4byte	0x13a6
 5782 13b8 05       		.uleb128 0x5
 5783 13b9 B3130000 		.4byte	0x13b3
 5784 13bd 05       		.uleb128 0x5
 5785 13be A70E0000 		.4byte	0xea7
 5786 13c2 25       		.uleb128 0x25
 5787 13c3 39020000 		.4byte	.LASF273
 5788 13c7 1B       		.byte	0x1b
 5789 13c8 8303     		.2byte	0x383
 5790 13ca D1120000 		.4byte	0x12d1
 5791 13ce 0A       		.uleb128 0xa
ARM GAS  C:\Users\DEVELO~1\AppData\Local\Temp\ccFr3SeA.s 			page 103


 5792 13cf 550E0000 		.4byte	.LASF274
 5793 13d3 39       		.byte	0x39
 5794 13d4 22       		.byte	0x22
 5795 13d5 28010000 		.4byte	0x128
 5796 13d9 05       		.uleb128 0x5
 5797 13da 03       		.byte	0x3
 5798 13db 00000000 		.4byte	g_vel_mode
 5799 13df 0A       		.uleb128 0xa
 5800 13e0 690E0000 		.4byte	.LASF275
 5801 13e4 3A       		.byte	0x3a
 5802 13e5 22       		.byte	0x22
 5803 13e6 69010000 		.4byte	0x169
 5804 13ea 05       		.uleb128 0x5
 5805 13eb 03       		.byte	0x3
 5806 13ec 00000000 		.4byte	g_vel_curve
 5807 13f0 11       		.uleb128 0x11
 5808 13f1 E3110000 		.4byte	0x11e3
 5809 13f5 00140000 		.4byte	0x1400
 5810 13f9 12       		.uleb128 0x12
 5811 13fa A1000000 		.4byte	0xa1
 5812 13fe 01       		.byte	0x1
 5813 13ff 00       		.byte	0
 5814 1400 0A       		.uleb128 0xa
 5815 1401 E8070000 		.4byte	.LASF276
 5816 1405 6A       		.byte	0x6a
 5817 1406 14       		.byte	0x14
 5818 1407 F0130000 		.4byte	0x13f0
 5819 140b 05       		.uleb128 0x5
 5820 140c 03       		.byte	0x3
 5821 140d 00000000 		.4byte	adc_buffer
 5822 1411 11       		.uleb128 0x11
 5823 1412 C5000000 		.4byte	0xc5
 5824 1416 21140000 		.4byte	0x1421
 5825 141a 12       		.uleb128 0x12
 5826 141b A1000000 		.4byte	0xa1
 5827 141f 0F       		.byte	0xf
 5828 1420 00       		.byte	0
 5829 1421 0D       		.uleb128 0xd
 5830 1422 11140000 		.4byte	0x1411
 5831 1426 0A       		.uleb128 0xa
 5832 1427 AD000000 		.4byte	.LASF277
 5833 142b 6E       		.byte	0x6e
 5834 142c 1A       		.byte	0x1a
 5835 142d 21140000 		.4byte	0x1421
 5836 1431 05       		.uleb128 0x5
 5837 1432 03       		.byte	0x3
 5838 1433 00000000 		.4byte	hall_values
 5839 1437 11       		.uleb128 0x11
 5840 1438 030D0000 		.4byte	0xd03
 5841 143c 47140000 		.4byte	0x1447
 5842 1440 12       		.uleb128 0x12
 5843 1441 A1000000 		.4byte	0xa1
 5844 1445 0F       		.byte	0xf
 5845 1446 00       		.byte	0
 5846 1447 0D       		.uleb128 0xd
 5847 1448 37140000 		.4byte	0x1437
 5848 144c 0A       		.uleb128 0xa
ARM GAS  C:\Users\DEVELO~1\AppData\Local\Temp\ccFr3SeA.s 			page 104


 5849 144d 30060000 		.4byte	.LASF278
 5850 1451 6F       		.byte	0x6f
 5851 1452 16       		.byte	0x16
 5852 1453 47140000 		.4byte	0x1447
 5853 1457 05       		.uleb128 0x5
 5854 1458 03       		.byte	0x3
 5855 1459 00000000 		.4byte	hall_note_on
 5856 145d 0A       		.uleb128 0xa
 5857 145e 5C060000 		.4byte	.LASF279
 5858 1462 70       		.byte	0x70
 5859 1463 16       		.byte	0x16
 5860 1464 47140000 		.4byte	0x1447
 5861 1468 05       		.uleb128 0x5
 5862 1469 03       		.byte	0x3
 5863 146a 00000000 		.4byte	hall_note_off
 5864 146e 11       		.uleb128 0x11
 5865 146f B4000000 		.4byte	0xb4
 5866 1473 7E140000 		.4byte	0x147e
 5867 1477 12       		.uleb128 0x12
 5868 1478 A1000000 		.4byte	0xa1
 5869 147c 0F       		.byte	0xf
 5870 147d 00       		.byte	0
 5871 147e 0D       		.uleb128 0xd
 5872 147f 6E140000 		.4byte	0x146e
 5873 1483 0A       		.uleb128 0xa
 5874 1484 480C0000 		.4byte	.LASF280
 5875 1488 72       		.byte	0x72
 5876 1489 19       		.byte	0x19
 5877 148a 7E140000 		.4byte	0x147e
 5878 148e 05       		.uleb128 0x5
 5879 148f 03       		.byte	0x3
 5880 1490 00000000 		.4byte	hall_velocity
 5881 1494 0A       		.uleb128 0xa
 5882 1495 2C080000 		.4byte	.LASF281
 5883 1499 73       		.byte	0x73
 5884 149a 19       		.byte	0x19
 5885 149b 7E140000 		.4byte	0x147e
 5886 149f 05       		.uleb128 0x5
 5887 14a0 03       		.byte	0x3
 5888 14a1 00000000 		.4byte	hall_pressure
 5889 14a5 0A       		.uleb128 0xa
 5890 14a6 5E0C0000 		.4byte	.LASF282
 5891 14aa 74       		.byte	0x74
 5892 14ab 19       		.byte	0x19
 5893 14ac 7E140000 		.4byte	0x147e
 5894 14b0 05       		.uleb128 0x5
 5895 14b1 03       		.byte	0x3
 5896 14b2 00000000 		.4byte	hall_midi_value
 5897 14b6 0A       		.uleb128 0xa
 5898 14b7 6F050000 		.4byte	.LASF283
 5899 14bb 76       		.byte	0x76
 5900 14bc 0D       		.byte	0xd
 5901 14bd FC0C0000 		.4byte	0xcfc
 5902 14c1 05       		.uleb128 0x5
 5903 14c2 03       		.byte	0x3
 5904 14c3 00000000 		.4byte	hall_initialized
 5905 14c7 0A       		.uleb128 0xa
ARM GAS  C:\Users\DEVELO~1\AppData\Local\Temp\ccFr3SeA.s 			page 105


 5906 14c8 7E090000 		.4byte	.LASF284
 5907 14cc 77       		.byte	0x77
 5908 14cd 10       		.byte	0x10
 5909 14ce A8000000 		.4byte	0xa8
 5910 14d2 05       		.uleb128 0x5
 5911 14d3 03       		.byte	0x3
 5912 14d4 00000000 		.4byte	hall_mux_index
 5913 14d8 0A       		.uleb128 0xa
 5914 14d9 E60D0000 		.4byte	.LASF285
 5915 14dd 7A       		.byte	0x7a
 5916 14de 10       		.byte	0x10
 5917 14df A8000000 		.4byte	0xa8
 5918 14e3 05       		.uleb128 0x5
 5919 14e4 03       		.byte	0x3
 5920 14e5 00000000 		.4byte	hall_discard_next
 5921 14e9 14       		.uleb128 0x14
 5922 14ea 18       		.byte	0x18
 5923 14eb 04       		.byte	0x4
 5924 14ec 7E       		.byte	0x7e
 5925 14ed 09       		.byte	0x9
 5926 14ee A9150000 		.4byte	0x15a9
 5927 14f2 08       		.uleb128 0x8
 5928 14f3 6D696E00 		.ascii	"min\000"
 5929 14f7 04       		.byte	0x4
 5930 14f8 7F       		.byte	0x7f
 5931 14f9 0C       		.byte	0xc
 5932 14fa B9000000 		.4byte	0xb9
 5933 14fe 00       		.byte	0
 5934 14ff 08       		.uleb128 0x8
 5935 1500 6D617800 		.ascii	"max\000"
 5936 1504 04       		.byte	0x4
 5937 1505 80       		.byte	0x80
 5938 1506 0C       		.byte	0xc
 5939 1507 B9000000 		.4byte	0xb9
 5940 150b 02       		.byte	0x2
 5941 150c 01       		.uleb128 0x1
 5942 150d 370E0000 		.4byte	.LASF286
 5943 1511 04       		.byte	0x4
 5944 1512 81       		.byte	0x81
 5945 1513 0C       		.byte	0xc
 5946 1514 B9000000 		.4byte	0xb9
 5947 1518 04       		.byte	0x4
 5948 1519 01       		.uleb128 0x1
 5949 151a EC090000 		.4byte	.LASF287
 5950 151e 04       		.byte	0x4
 5951 151f 82       		.byte	0x82
 5952 1520 0C       		.byte	0xc
 5953 1521 B9000000 		.4byte	0xb9
 5954 1525 06       		.byte	0x6
 5955 1526 01       		.uleb128 0x1
 5956 1527 6E040000 		.4byte	.LASF288
 5957 152b 04       		.byte	0x4
 5958 152c 84       		.byte	0x84
 5959 152d 0C       		.byte	0xc
 5960 152e A8000000 		.4byte	0xa8
 5961 1532 08       		.byte	0x8
 5962 1533 01       		.uleb128 0x1
ARM GAS  C:\Users\DEVELO~1\AppData\Local\Temp\ccFr3SeA.s 			page 106


 5963 1534 4C090000 		.4byte	.LASF289
 5964 1538 04       		.byte	0x4
 5965 1539 85       		.byte	0x85
 5966 153a 0C       		.byte	0xc
 5967 153b A8000000 		.4byte	0xa8
 5968 153f 09       		.byte	0x9
 5969 1540 01       		.uleb128 0x1
 5970 1541 08020000 		.4byte	.LASF290
 5971 1545 04       		.byte	0x4
 5972 1546 88       		.byte	0x88
 5973 1547 0C       		.byte	0xc
 5974 1548 B9000000 		.4byte	0xb9
 5975 154c 0A       		.byte	0xa
 5976 154d 01       		.uleb128 0x1
 5977 154e 560C0000 		.4byte	.LASF291
 5978 1552 04       		.byte	0x4
 5979 1553 89       		.byte	0x89
 5980 1554 0C       		.byte	0xc
 5981 1555 B9000000 		.4byte	0xb9
 5982 1559 0C       		.byte	0xc
 5983 155a 01       		.uleb128 0x1
 5984 155b 21090000 		.4byte	.LASF292
 5985 155f 04       		.byte	0x4
 5986 1560 8A       		.byte	0x8a
 5987 1561 0C       		.byte	0xc
 5988 1562 B9000000 		.4byte	0xb9
 5989 1566 0E       		.byte	0xe
 5990 1567 01       		.uleb128 0x1
 5991 1568 880A0000 		.4byte	.LASF293
 5992 156c 04       		.byte	0x4
 5993 156d 8C       		.byte	0x8c
 5994 156e 0C       		.byte	0xc
 5995 156f B9000000 		.4byte	0xb9
 5996 1573 10       		.byte	0x10
 5997 1574 01       		.uleb128 0x1
 5998 1575 BC020000 		.4byte	.LASF294
 5999 1579 04       		.byte	0x4
 6000 157a 8D       		.byte	0x8d
 6001 157b 0C       		.byte	0xc
 6002 157c B9000000 		.4byte	0xb9
 6003 1580 12       		.byte	0x12
 6004 1581 01       		.uleb128 0x1
 6005 1582 28090000 		.4byte	.LASF295
 6006 1586 04       		.byte	0x4
 6007 1587 8E       		.byte	0x8e
 6008 1588 0C       		.byte	0xc
 6009 1589 B9000000 		.4byte	0xb9
 6010 158d 14       		.byte	0x14
 6011 158e 01       		.uleb128 0x1
 6012 158f 250B0000 		.4byte	.LASF296
 6013 1593 04       		.byte	0x4
 6014 1594 8F       		.byte	0x8f
 6015 1595 0C       		.byte	0xc
 6016 1596 A8000000 		.4byte	0xa8
 6017 159a 16       		.byte	0x16
 6018 159b 01       		.uleb128 0x1
 6019 159c 84070000 		.4byte	.LASF297
ARM GAS  C:\Users\DEVELO~1\AppData\Local\Temp\ccFr3SeA.s 			page 107


 6020 15a0 04       		.byte	0x4
 6021 15a1 90       		.byte	0x90
 6022 15a2 0C       		.byte	0xc
 6023 15a3 A8000000 		.4byte	0xa8
 6024 15a7 17       		.byte	0x17
 6025 15a8 00       		.byte	0
 6026 15a9 03       		.uleb128 0x3
 6027 15aa BC080000 		.4byte	.LASF298
 6028 15ae 04       		.byte	0x4
 6029 15af 91       		.byte	0x91
 6030 15b0 03       		.byte	0x3
 6031 15b1 E9140000 		.4byte	0x14e9
 6032 15b5 16       		.uleb128 0x16
 6033 15b6 A9150000 		.4byte	0x15a9
 6034 15ba 11       		.uleb128 0x11
 6035 15bb A9150000 		.4byte	0x15a9
 6036 15bf CA150000 		.4byte	0x15ca
 6037 15c3 12       		.uleb128 0x12
 6038 15c4 A1000000 		.4byte	0xa1
 6039 15c8 0F       		.byte	0xf
 6040 15c9 00       		.byte	0
 6041 15ca 0A       		.uleb128 0xa
 6042 15cb BF060000 		.4byte	.LASF299
 6043 15cf 93       		.byte	0x93
 6044 15d0 16       		.byte	0x16
 6045 15d1 BA150000 		.4byte	0x15ba
 6046 15d5 05       		.uleb128 0x5
 6047 15d6 03       		.byte	0x3
 6048 15d7 00000000 		.4byte	hall_btn
 6049 15db 0A       		.uleb128 0xa
 6050 15dc 19050000 		.4byte	.LASF300
 6051 15e0 A7       		.byte	0xa7
 6052 15e1 18       		.byte	0x18
 6053 15e2 B3130000 		.4byte	0x13b3
 6054 15e6 05       		.uleb128 0x5
 6055 15e7 03       		.byte	0x3
 6056 15e8 00000000 		.4byte	hall_gptcfg
 6057 15ec 0A       		.uleb128 0xa
 6058 15ed 8D090000 		.4byte	.LASF301
 6059 15f1 AE       		.byte	0xae
 6060 15f2 17       		.byte	0x17
 6061 15f3 5F130000 		.4byte	0x135f
 6062 15f7 05       		.uleb128 0x5
 6063 15f8 03       		.byte	0x3
 6064 15f9 00000000 		.4byte	hall_gpt_interval
 6065 15fd 0A       		.uleb128 0xa
 6066 15fe 57070000 		.4byte	.LASF302
 6067 1602 CF       		.byte	0xcf
 6068 1603 21       		.byte	0x21
 6069 1604 E6100000 		.4byte	0x10e6
 6070 1608 05       		.uleb128 0x5
 6071 1609 03       		.byte	0x3
 6072 160a 00000000 		.4byte	adcgrpcfg
 6073 160e 37       		.uleb128 0x37
 6074 160f A8030000 		.4byte	.LASF303
 6075 1613 1A       		.byte	0x1a
 6076 1614 8E       		.byte	0x8e
ARM GAS  C:\Users\DEVELO~1\AppData\Local\Temp\ccFr3SeA.s 			page 108


 6077 1615 08       		.byte	0x8
 6078 1616 25160000 		.4byte	0x1625
 6079 161a 09       		.uleb128 0x9
 6080 161b 40130000 		.4byte	0x1340
 6081 161f 09       		.uleb128 0x9
 6082 1620 52130000 		.4byte	0x1352
 6083 1624 00       		.byte	0
 6084 1625 26       		.uleb128 0x26
 6085 1626 C8090000 		.4byte	.LASF304
 6086 162a 18       		.byte	0x18
 6087 162b 8401     		.2byte	0x184
 6088 162d 46160000 		.4byte	0x1646
 6089 1631 09       		.uleb128 0x9
 6090 1632 5C120000 		.4byte	0x125c
 6091 1636 09       		.uleb128 0x9
 6092 1637 8C120000 		.4byte	0x128c
 6093 163b 09       		.uleb128 0x9
 6094 163c 87120000 		.4byte	0x1287
 6095 1640 09       		.uleb128 0x9
 6096 1641 6E010000 		.4byte	0x16e
 6097 1645 00       		.byte	0
 6098 1646 38       		.uleb128 0x38
 6099 1647 97070000 		.4byte	.LASF305
 6100 164b 18       		.byte	0x18
 6101 164c 8201     		.2byte	0x182
 6102 164e 09       		.byte	0x9
 6103 164f C9010000 		.4byte	0x1c9
 6104 1653 62160000 		.4byte	0x1662
 6105 1657 09       		.uleb128 0x9
 6106 1658 5C120000 		.4byte	0x125c
 6107 165c 09       		.uleb128 0x9
 6108 165d 82120000 		.4byte	0x1282
 6109 1661 00       		.byte	0
 6110 1662 39       		.uleb128 0x39
 6111 1663 130A0000 		.4byte	.LASF306
 6112 1667 1A       		.byte	0x1a
 6113 1668 8C       		.byte	0x8c
 6114 1669 09       		.byte	0x9
 6115 166a C9010000 		.4byte	0x1c9
 6116 166e 7D160000 		.4byte	0x167d
 6117 1672 09       		.uleb128 0x9
 6118 1673 40130000 		.4byte	0x1340
 6119 1677 09       		.uleb128 0x9
 6120 1678 B8130000 		.4byte	0x13b8
 6121 167c 00       		.byte	0
 6122 167d 26       		.uleb128 0x26
 6123 167e 09040000 		.4byte	.LASF307
 6124 1682 17       		.byte	0x17
 6125 1683 F301     		.2byte	0x1f3
 6126 1685 99160000 		.4byte	0x1699
 6127 1689 09       		.uleb128 0x9
 6128 168a AB0F0000 		.4byte	0xfab
 6129 168e 09       		.uleb128 0x9
 6130 168f 930F0000 		.4byte	0xf93
 6131 1693 09       		.uleb128 0x9
 6132 1694 9F0F0000 		.4byte	0xf9f
 6133 1698 00       		.byte	0
ARM GAS  C:\Users\DEVELO~1\AppData\Local\Temp\ccFr3SeA.s 			page 109


 6134 1699 15       		.uleb128 0x15
 6135 169a 90080000 		.4byte	.LASF308
 6136 169e AC02     		.2byte	0x2ac
 6137 16a0 09       		.byte	0x9
 6138 16a1 A8000000 		.4byte	0xa8
 6139 16a5 00000000 		.4byte	.LFB460
 6140 16a9 34000000 		.4byte	.LFE460-.LFB460
 6141 16ad 01       		.uleb128 0x1
 6142 16ae 9C       		.byte	0x9c
 6143 16af C1160000 		.4byte	0x16c1
 6144 16b3 13       		.uleb128 0x13
 6145 16b4 6900     		.ascii	"i\000"
 6146 16b6 AC02     		.2byte	0x2ac
 6147 16b8 27       		.byte	0x27
 6148 16b9 A8000000 		.4byte	0xa8
 6149 16bd 02       		.uleb128 0x2
 6150 16be 91       		.byte	0x91
 6151 16bf 77       		.sleb128 -9
 6152 16c0 00       		.byte	0
 6153 16c1 15       		.uleb128 0x15
 6154 16c2 34070000 		.4byte	.LASF309
 6155 16c6 A702     		.2byte	0x2a7
 6156 16c8 09       		.byte	0x9
 6157 16c9 A8000000 		.4byte	0xa8
 6158 16cd 00000000 		.4byte	.LFB459
 6159 16d1 34000000 		.4byte	.LFE459-.LFB459
 6160 16d5 01       		.uleb128 0x1
 6161 16d6 9C       		.byte	0x9c
 6162 16d7 E9160000 		.4byte	0x16e9
 6163 16db 13       		.uleb128 0x13
 6164 16dc 6900     		.ascii	"i\000"
 6165 16de A702     		.2byte	0x2a7
 6166 16e0 24       		.byte	0x24
 6167 16e1 A8000000 		.4byte	0xa8
 6168 16e5 02       		.uleb128 0x2
 6169 16e6 91       		.byte	0x91
 6170 16e7 77       		.sleb128 -9
 6171 16e8 00       		.byte	0
 6172 16e9 15       		.uleb128 0x15
 6173 16ea 61010000 		.4byte	.LASF310
 6174 16ee A202     		.2byte	0x2a2
 6175 16f0 0A       		.byte	0xa
 6176 16f1 B9000000 		.4byte	0xb9
 6177 16f5 00000000 		.4byte	.LFB458
 6178 16f9 34000000 		.4byte	.LFE458-.LFB458
 6179 16fd 01       		.uleb128 0x1
 6180 16fe 9C       		.byte	0x9c
 6181 16ff 11170000 		.4byte	0x1711
 6182 1703 13       		.uleb128 0x13
 6183 1704 6900     		.ascii	"i\000"
 6184 1706 A202     		.2byte	0x2a2
 6185 1708 27       		.byte	0x27
 6186 1709 A8000000 		.4byte	0xa8
 6187 170d 02       		.uleb128 0x2
 6188 170e 91       		.byte	0x91
 6189 170f 77       		.sleb128 -9
 6190 1710 00       		.byte	0
ARM GAS  C:\Users\DEVELO~1\AppData\Local\Temp\ccFr3SeA.s 			page 110


 6191 1711 15       		.uleb128 0x15
 6192 1712 0C060000 		.4byte	.LASF311
 6193 1716 9D02     		.2byte	0x29d
 6194 1718 0A       		.byte	0xa
 6195 1719 B9000000 		.4byte	0xb9
 6196 171d 00000000 		.4byte	.LFB457
 6197 1721 34000000 		.4byte	.LFE457-.LFB457
 6198 1725 01       		.uleb128 0x1
 6199 1726 9C       		.byte	0x9c
 6200 1727 39170000 		.4byte	0x1739
 6201 172b 13       		.uleb128 0x13
 6202 172c 6900     		.ascii	"i\000"
 6203 172e 9D02     		.2byte	0x29d
 6204 1730 27       		.byte	0x27
 6205 1731 A8000000 		.4byte	0xa8
 6206 1735 02       		.uleb128 0x2
 6207 1736 91       		.byte	0x91
 6208 1737 77       		.sleb128 -9
 6209 1738 00       		.byte	0
 6210 1739 15       		.uleb128 0x15
 6211 173a 76080000 		.4byte	.LASF312
 6212 173e 9802     		.2byte	0x298
 6213 1740 0A       		.byte	0xa
 6214 1741 B9000000 		.4byte	0xb9
 6215 1745 00000000 		.4byte	.LFB456
 6216 1749 34000000 		.4byte	.LFE456-.LFB456
 6217 174d 01       		.uleb128 0x1
 6218 174e 9C       		.byte	0x9c
 6219 174f 61170000 		.4byte	0x1761
 6220 1753 13       		.uleb128 0x13
 6221 1754 6900     		.ascii	"i\000"
 6222 1756 9802     		.2byte	0x298
 6223 1758 23       		.byte	0x23
 6224 1759 A8000000 		.4byte	0xa8
 6225 175d 02       		.uleb128 0x2
 6226 175e 91       		.byte	0x91
 6227 175f 77       		.sleb128 -9
 6228 1760 00       		.byte	0
 6229 1761 15       		.uleb128 0x15
 6230 1762 62000000 		.4byte	.LASF313
 6231 1766 9302     		.2byte	0x293
 6232 1768 0A       		.byte	0xa
 6233 1769 B9000000 		.4byte	0xb9
 6234 176d 00000000 		.4byte	.LFB455
 6235 1771 34000000 		.4byte	.LFE455-.LFB455
 6236 1775 01       		.uleb128 0x1
 6237 1776 9C       		.byte	0x9c
 6238 1777 89170000 		.4byte	0x1789
 6239 177b 13       		.uleb128 0x13
 6240 177c 6900     		.ascii	"i\000"
 6241 177e 9302     		.2byte	0x293
 6242 1780 23       		.byte	0x23
 6243 1781 A8000000 		.4byte	0xa8
 6244 1785 02       		.uleb128 0x2
 6245 1786 91       		.byte	0x91
 6246 1787 77       		.sleb128 -9
 6247 1788 00       		.byte	0
ARM GAS  C:\Users\DEVELO~1\AppData\Local\Temp\ccFr3SeA.s 			page 111


 6248 1789 27       		.uleb128 0x27
 6249 178a F80D0000 		.4byte	.LASF314
 6250 178e 8D02     		.2byte	0x28d
 6251 1790 A8000000 		.4byte	0xa8
 6252 1794 00000000 		.4byte	.LFB454
 6253 1798 18000000 		.4byte	.LFE454-.LFB454
 6254 179c 01       		.uleb128 0x1
 6255 179d 9C       		.byte	0x9c
 6256 179e 27       		.uleb128 0x27
 6257 179f 360F0000 		.4byte	.LASF315
 6258 17a3 8902     		.2byte	0x289
 6259 17a5 A8000000 		.4byte	0xa8
 6260 17a9 00000000 		.4byte	.LFB453
 6261 17ad 18000000 		.4byte	.LFE453-.LFB453
 6262 17b1 01       		.uleb128 0x1
 6263 17b2 9C       		.byte	0x9c
 6264 17b3 28       		.uleb128 0x28
 6265 17b4 980B0000 		.4byte	.LASF317
 6266 17b8 8202     		.2byte	0x282
 6267 17ba 00000000 		.4byte	.LFB452
 6268 17be 24000000 		.4byte	.LFE452-.LFB452
 6269 17c2 01       		.uleb128 0x1
 6270 17c3 9C       		.byte	0x9c
 6271 17c4 D8170000 		.4byte	0x17d8
 6272 17c8 0B       		.uleb128 0xb
 6273 17c9 4C060000 		.4byte	.LASF316
 6274 17cd 8202     		.2byte	0x282
 6275 17cf 26       		.byte	0x26
 6276 17d0 A8000000 		.4byte	0xa8
 6277 17d4 02       		.uleb128 0x2
 6278 17d5 91       		.byte	0x91
 6279 17d6 77       		.sleb128 -9
 6280 17d7 00       		.byte	0
 6281 17d8 28       		.uleb128 0x28
 6282 17d9 A8060000 		.4byte	.LASF318
 6283 17dd 7B02     		.2byte	0x27b
 6284 17df 00000000 		.4byte	.LFB451
 6285 17e3 24000000 		.4byte	.LFE451-.LFB451
 6286 17e7 01       		.uleb128 0x1
 6287 17e8 9C       		.byte	0x9c
 6288 17e9 FD170000 		.4byte	0x17fd
 6289 17ed 0B       		.uleb128 0xb
 6290 17ee B0010000 		.4byte	.LASF319
 6291 17f2 7B02     		.2byte	0x27b
 6292 17f4 25       		.byte	0x25
 6293 17f5 A8000000 		.4byte	0xa8
 6294 17f9 02       		.uleb128 0x2
 6295 17fa 91       		.byte	0x91
 6296 17fb 77       		.sleb128 -9
 6297 17fc 00       		.byte	0
 6298 17fd 15       		.uleb128 0x15
 6299 17fe 70070000 		.4byte	.LASF320
 6300 1802 7502     		.2byte	0x275
 6301 1804 09       		.byte	0x9
 6302 1805 A8000000 		.4byte	0xa8
 6303 1809 00000000 		.4byte	.LFB450
 6304 180d 2C000000 		.4byte	.LFE450-.LFB450
ARM GAS  C:\Users\DEVELO~1\AppData\Local\Temp\ccFr3SeA.s 			page 112


 6305 1811 01       		.uleb128 0x1
 6306 1812 9C       		.byte	0x9c
 6307 1813 27180000 		.4byte	0x1827
 6308 1817 0B       		.uleb128 0xb
 6309 1818 B6020000 		.4byte	.LASF321
 6310 181c 7502     		.2byte	0x275
 6311 181e 25       		.byte	0x25
 6312 181f A8000000 		.4byte	0xa8
 6313 1823 02       		.uleb128 0x2
 6314 1824 91       		.byte	0x91
 6315 1825 77       		.sleb128 -9
 6316 1826 00       		.byte	0
 6317 1827 15       		.uleb128 0x15
 6318 1828 AE090000 		.4byte	.LASF322
 6319 182c 7002     		.2byte	0x270
 6320 182e 09       		.byte	0x9
 6321 182f A8000000 		.4byte	0xa8
 6322 1833 00000000 		.4byte	.LFB449
 6323 1837 2C000000 		.4byte	.LFE449-.LFB449
 6324 183b 01       		.uleb128 0x1
 6325 183c 9C       		.byte	0x9c
 6326 183d 51180000 		.4byte	0x1851
 6327 1841 0B       		.uleb128 0xb
 6328 1842 B6020000 		.4byte	.LASF321
 6329 1846 7002     		.2byte	0x270
 6330 1848 23       		.byte	0x23
 6331 1849 A8000000 		.4byte	0xa8
 6332 184d 02       		.uleb128 0x2
 6333 184e 91       		.byte	0x91
 6334 184f 77       		.sleb128 -9
 6335 1850 00       		.byte	0
 6336 1851 15       		.uleb128 0x15
 6337 1852 CD020000 		.4byte	.LASF323
 6338 1856 6B02     		.2byte	0x26b
 6339 1858 09       		.byte	0x9
 6340 1859 A8000000 		.4byte	0xa8
 6341 185d 00000000 		.4byte	.LFB448
 6342 1861 2C000000 		.4byte	.LFE448-.LFB448
 6343 1865 01       		.uleb128 0x1
 6344 1866 9C       		.byte	0x9c
 6345 1867 7B180000 		.4byte	0x187b
 6346 186b 0B       		.uleb128 0xb
 6347 186c B6020000 		.4byte	.LASF321
 6348 1870 6B02     		.2byte	0x26b
 6349 1872 23       		.byte	0x23
 6350 1873 A8000000 		.4byte	0xa8
 6351 1877 02       		.uleb128 0x2
 6352 1878 91       		.byte	0x91
 6353 1879 77       		.sleb128 -9
 6354 187a 00       		.byte	0
 6355 187b 29       		.uleb128 0x29
 6356 187c 5D050000 		.4byte	.LASF324
 6357 1880 6102     		.2byte	0x261
 6358 1882 FC0C0000 		.4byte	0xcfc
 6359 1886 00000000 		.4byte	.LFB447
 6360 188a 3C000000 		.4byte	.LFE447-.LFB447
 6361 188e 01       		.uleb128 0x1
ARM GAS  C:\Users\DEVELO~1\AppData\Local\Temp\ccFr3SeA.s 			page 113


 6362 188f 9C       		.byte	0x9c
 6363 1890 B1180000 		.4byte	0x18b1
 6364 1894 0B       		.uleb128 0xb
 6365 1895 B6020000 		.4byte	.LASF321
 6366 1899 6102     		.2byte	0x261
 6367 189b 20       		.byte	0x20
 6368 189c A8000000 		.4byte	0xa8
 6369 18a0 02       		.uleb128 0x2
 6370 18a1 91       		.byte	0x91
 6371 18a2 6F       		.sleb128 -17
 6372 18a3 06       		.uleb128 0x6
 6373 18a4 7600     		.ascii	"v\000"
 6374 18a6 6302     		.2byte	0x263
 6375 18a8 08       		.byte	0x8
 6376 18a9 FC0C0000 		.4byte	0xcfc
 6377 18ad 02       		.uleb128 0x2
 6378 18ae 91       		.byte	0x91
 6379 18af 77       		.sleb128 -9
 6380 18b0 00       		.byte	0
 6381 18b1 29       		.uleb128 0x29
 6382 18b2 BA010000 		.4byte	.LASF325
 6383 18b6 5702     		.2byte	0x257
 6384 18b8 FC0C0000 		.4byte	0xcfc
 6385 18bc 00000000 		.4byte	.LFB446
 6386 18c0 3C000000 		.4byte	.LFE446-.LFB446
 6387 18c4 01       		.uleb128 0x1
 6388 18c5 9C       		.byte	0x9c
 6389 18c6 E7180000 		.4byte	0x18e7
 6390 18ca 0B       		.uleb128 0xb
 6391 18cb B6020000 		.4byte	.LASF321
 6392 18cf 5702     		.2byte	0x257
 6393 18d1 1F       		.byte	0x1f
 6394 18d2 A8000000 		.4byte	0xa8
 6395 18d6 02       		.uleb128 0x2
 6396 18d7 91       		.byte	0x91
 6397 18d8 6F       		.sleb128 -17
 6398 18d9 06       		.uleb128 0x6
 6399 18da 7600     		.ascii	"v\000"
 6400 18dc 5902     		.2byte	0x259
 6401 18de 08       		.byte	0x8
 6402 18df FC0C0000 		.4byte	0xcfc
 6403 18e3 02       		.uleb128 0x2
 6404 18e4 91       		.byte	0x91
 6405 18e5 77       		.sleb128 -9
 6406 18e6 00       		.byte	0
 6407 18e7 15       		.uleb128 0x15
 6408 18e8 D1060000 		.4byte	.LASF326
 6409 18ec 5202     		.2byte	0x252
 6410 18ee 0A       		.byte	0xa
 6411 18ef B9000000 		.4byte	0xb9
 6412 18f3 00000000 		.4byte	.LFB445
 6413 18f7 2C000000 		.4byte	.LFE445-.LFB445
 6414 18fb 01       		.uleb128 0x1
 6415 18fc 9C       		.byte	0x9c
 6416 18fd 11190000 		.4byte	0x1911
 6417 1901 0B       		.uleb128 0xb
 6418 1902 B6020000 		.4byte	.LASF321
ARM GAS  C:\Users\DEVELO~1\AppData\Local\Temp\ccFr3SeA.s 			page 114


 6419 1906 5202     		.2byte	0x252
 6420 1908 1B       		.byte	0x1b
 6421 1909 A8000000 		.4byte	0xa8
 6422 190d 02       		.uleb128 0x2
 6423 190e 91       		.byte	0x91
 6424 190f 77       		.sleb128 -9
 6425 1910 00       		.byte	0
 6426 1911 3A       		.uleb128 0x3a
 6427 1912 220A0000 		.4byte	.LASF357
 6428 1916 04       		.byte	0x4
 6429 1917 4E02     		.2byte	0x24e
 6430 1919 06       		.byte	0x6
 6431 191a 00000000 		.4byte	.LFB444
 6432 191e 0C000000 		.4byte	.LFE444-.LFB444
 6433 1922 01       		.uleb128 0x1
 6434 1923 9C       		.byte	0x9c
 6435 1924 3B       		.uleb128 0x3b
 6436 1925 A40C0000 		.4byte	.LASF327
 6437 1929 04       		.byte	0x4
 6438 192a 1702     		.2byte	0x217
 6439 192c 06       		.byte	0x6
 6440 192d 00000000 		.4byte	.LFB443
 6441 1931 30020000 		.4byte	.LFE443-.LFB443
 6442 1935 01       		.uleb128 0x1
 6443 1936 9C       		.byte	0x9c
 6444 1937 53190000 		.4byte	0x1953
 6445 193b 20       		.uleb128 0x20
 6446 193c 42000000 		.4byte	.LBB31
 6447 1940 60010000 		.4byte	.LBE31-.LBB31
 6448 1944 06       		.uleb128 0x6
 6449 1945 6900     		.ascii	"i\000"
 6450 1947 2302     		.2byte	0x223
 6451 1949 10       		.byte	0x10
 6452 194a A8000000 		.4byte	0xa8
 6453 194e 02       		.uleb128 0x2
 6454 194f 91       		.byte	0x91
 6455 1950 77       		.sleb128 -9
 6456 1951 00       		.byte	0
 6457 1952 00       		.byte	0
 6458 1953 2A       		.uleb128 0x2a
 6459 1954 D80E0000 		.4byte	.LASF341
 6460 1958 BE01     		.2byte	0x1be
 6461 195a 00000000 		.4byte	.LFB442
 6462 195e 00020000 		.4byte	.LFE442-.LFB442
 6463 1962 01       		.uleb128 0x1
 6464 1963 9C       		.byte	0x9c
 6465 1964 D6190000 		.4byte	0x19d6
 6466 1968 0B       		.uleb128 0xb
 6467 1969 B6020000 		.4byte	.LASF321
 6468 196d BE01     		.2byte	0x1be
 6469 196f 2A       		.byte	0x2a
 6470 1970 A8000000 		.4byte	0xa8
 6471 1974 02       		.uleb128 0x2
 6472 1975 91       		.byte	0x91
 6473 1976 67       		.sleb128 -25
 6474 1977 13       		.uleb128 0x13
 6475 1978 72617700 		.ascii	"raw\000"
ARM GAS  C:\Users\DEVELO~1\AppData\Local\Temp\ccFr3SeA.s 			page 115


 6476 197c BE01     		.2byte	0x1be
 6477 197e 3A       		.byte	0x3a
 6478 197f B9000000 		.4byte	0xb9
 6479 1983 02       		.uleb128 0x2
 6480 1984 91       		.byte	0x91
 6481 1985 64       		.sleb128 -28
 6482 1986 06       		.uleb128 0x6
 6483 1987 6200     		.ascii	"b\000"
 6484 1989 C001     		.2byte	0x1c0
 6485 198b 12       		.byte	0x12
 6486 198c D6190000 		.4byte	0x19d6
 6487 1990 02       		.uleb128 0x2
 6488 1991 91       		.byte	0x91
 6489 1992 6C       		.sleb128 -20
 6490 1993 06       		.uleb128 0x6
 6491 1994 647600   		.ascii	"dv\000"
 6492 1997 DB01     		.2byte	0x1db
 6493 1999 0C       		.byte	0xc
 6494 199a B9000000 		.4byte	0xb9
 6495 199e 02       		.uleb128 0x2
 6496 199f 91       		.byte	0x91
 6497 19a0 76       		.sleb128 -10
 6498 19a1 1A       		.uleb128 0x1a
 6499 19a2 DC000000 		.4byte	.LBB29
 6500 19a6 80000000 		.4byte	.LBE29-.LBB29
 6501 19aa BC190000 		.4byte	0x19bc
 6502 19ae 06       		.uleb128 0x6
 6503 19af 7300     		.ascii	"s\000"
 6504 19b1 EC01     		.2byte	0x1ec
 6505 19b3 0E       		.byte	0xe
 6506 19b4 D6000000 		.4byte	0xd6
 6507 19b8 02       		.uleb128 0x2
 6508 19b9 91       		.byte	0x91
 6509 19ba 70       		.sleb128 -16
 6510 19bb 00       		.byte	0
 6511 19bc 20       		.uleb128 0x20
 6512 19bd 6E010000 		.4byte	.LBB30
 6513 19c1 2E000000 		.4byte	.LBE30-.LBB30
 6514 19c5 10       		.uleb128 0x10
 6515 19c6 CF080000 		.4byte	.LASF328
 6516 19ca 0502     		.2byte	0x205
 6517 19cc 0E       		.byte	0xe
 6518 19cd B9000000 		.4byte	0xb9
 6519 19d1 02       		.uleb128 0x2
 6520 19d2 91       		.byte	0x91
 6521 19d3 6A       		.sleb128 -22
 6522 19d4 00       		.byte	0
 6523 19d5 00       		.byte	0
 6524 19d6 05       		.uleb128 0x5
 6525 19d7 A9150000 		.4byte	0x15a9
 6526 19db 2B       		.uleb128 0x2b
 6527 19dc 71030000 		.4byte	.LASF330
 6528 19e0 A501     		.2byte	0x1a5
 6529 19e2 A8000000 		.4byte	0xa8
 6530 19e6 00000000 		.4byte	.LFB441
 6531 19ea 80000000 		.4byte	.LFE441-.LFB441
 6532 19ee 01       		.uleb128 0x1
ARM GAS  C:\Users\DEVELO~1\AppData\Local\Temp\ccFr3SeA.s 			page 116


 6533 19ef 9C       		.byte	0x9c
 6534 19f0 3E1A0000 		.4byte	0x1a3e
 6535 19f4 13       		.uleb128 0x13
 6536 19f5 6200     		.ascii	"b\000"
 6537 19f7 A501     		.2byte	0x1a5
 6538 19f9 35       		.byte	0x35
 6539 19fa D6190000 		.4byte	0x19d6
 6540 19fe 02       		.uleb128 0x2
 6541 19ff 91       		.byte	0x91
 6542 1a00 6C       		.sleb128 -20
 6543 1a01 0B       		.uleb128 0xb
 6544 1a02 CF080000 		.4byte	.LASF328
 6545 1a06 A501     		.2byte	0x1a5
 6546 1a08 41       		.byte	0x41
 6547 1a09 B9000000 		.4byte	0xb9
 6548 1a0d 02       		.uleb128 0x2
 6549 1a0e 91       		.byte	0x91
 6550 1a0f 6A       		.sleb128 -22
 6551 1a10 10       		.uleb128 0x10
 6552 1a11 66040000 		.4byte	.LASF329
 6553 1a15 A601     		.2byte	0x1a6
 6554 1a17 0B       		.byte	0xb
 6555 1a18 A8000000 		.4byte	0xa8
 6556 1a1c 02       		.uleb128 0x2
 6557 1a1d 91       		.byte	0x91
 6558 1a1e 77       		.sleb128 -9
 6559 1a1f 10       		.uleb128 0x10
 6560 1a20 B0010000 		.4byte	.LASF319
 6561 1a24 A801     		.2byte	0x1a8
 6562 1a26 13       		.byte	0x13
 6563 1a27 1C010000 		.4byte	0x11c
 6564 1a2b 02       		.uleb128 0x2
 6565 1a2c 91       		.byte	0x91
 6566 1a2d 76       		.sleb128 -10
 6567 1a2e 10       		.uleb128 0x10
 6568 1a2f 4C060000 		.4byte	.LASF316
 6569 1a33 B801     		.2byte	0x1b8
 6570 1a35 14       		.byte	0x14
 6571 1a36 5D010000 		.4byte	0x15d
 6572 1a3a 02       		.uleb128 0x2
 6573 1a3b 91       		.byte	0x91
 6574 1a3c 75       		.sleb128 -11
 6575 1a3d 00       		.byte	0
 6576 1a3e 21       		.uleb128 0x21
 6577 1a3f 1A070000 		.4byte	.LASF331
 6578 1a43 9001     		.2byte	0x190
 6579 1a45 10       		.byte	0x10
 6580 1a46 A8000000 		.4byte	0xa8
 6581 1a4a 00000000 		.4byte	.LFB440
 6582 1a4e A2000000 		.4byte	.LFE440-.LFB440
 6583 1a52 01       		.uleb128 0x1
 6584 1a53 9C       		.byte	0x9c
 6585 1a54 C01A0000 		.4byte	0x1ac0
 6586 1a58 0B       		.uleb128 0xb
 6587 1a59 CF080000 		.4byte	.LASF328
 6588 1a5d 9001     		.2byte	0x190
 6589 1a5f 33       		.byte	0x33
ARM GAS  C:\Users\DEVELO~1\AppData\Local\Temp\ccFr3SeA.s 			page 117


 6590 1a60 B9000000 		.4byte	0xb9
 6591 1a64 02       		.uleb128 0x2
 6592 1a65 91       		.byte	0x91
 6593 1a66 66       		.sleb128 -26
 6594 1a67 0B       		.uleb128 0xb
 6595 1a68 21090000 		.4byte	.LASF292
 6596 1a6c 9001     		.2byte	0x190
 6597 1a6e 43       		.byte	0x43
 6598 1a6f B9000000 		.4byte	0xb9
 6599 1a73 02       		.uleb128 0x2
 6600 1a74 91       		.byte	0x91
 6601 1a75 64       		.sleb128 -28
 6602 1a76 10       		.uleb128 0x10
 6603 1a77 880C0000 		.4byte	.LASF332
 6604 1a7b 9301     		.2byte	0x193
 6605 1a7d 0C       		.byte	0xc
 6606 1a7e B9000000 		.4byte	0xb9
 6607 1a82 02       		.uleb128 0x2
 6608 1a83 91       		.byte	0x91
 6609 1a84 76       		.sleb128 -10
 6610 1a85 10       		.uleb128 0x10
 6611 1a86 90070000 		.4byte	.LASF333
 6612 1a8a 9401     		.2byte	0x194
 6613 1a8c 0C       		.byte	0xc
 6614 1a8d B9000000 		.4byte	0xb9
 6615 1a91 02       		.uleb128 0x2
 6616 1a92 91       		.byte	0x91
 6617 1a93 74       		.sleb128 -12
 6618 1a94 06       		.uleb128 0x6
 6619 1a95 6E756D00 		.ascii	"num\000"
 6620 1a99 9C01     		.2byte	0x19c
 6621 1a9b 0C       		.byte	0xc
 6622 1a9c D6000000 		.4byte	0xd6
 6623 1aa0 02       		.uleb128 0x2
 6624 1aa1 91       		.byte	0x91
 6625 1aa2 6C       		.sleb128 -20
 6626 1aa3 06       		.uleb128 0x6
 6627 1aa4 64656E00 		.ascii	"den\000"
 6628 1aa8 9D01     		.2byte	0x19d
 6629 1aaa 0C       		.byte	0xc
 6630 1aab D6000000 		.4byte	0xd6
 6631 1aaf 02       		.uleb128 0x2
 6632 1ab0 91       		.byte	0x91
 6633 1ab1 68       		.sleb128 -24
 6634 1ab2 06       		.uleb128 0x6
 6635 1ab3 7600     		.ascii	"v\000"
 6636 1ab5 9E01     		.2byte	0x19e
 6637 1ab7 0C       		.byte	0xc
 6638 1ab8 D6000000 		.4byte	0xd6
 6639 1abc 02       		.uleb128 0x2
 6640 1abd 91       		.byte	0x91
 6641 1abe 70       		.sleb128 -16
 6642 1abf 00       		.byte	0
 6643 1ac0 21       		.uleb128 0x21
 6644 1ac1 700A0000 		.4byte	.LASF334
 6645 1ac5 8201     		.2byte	0x182
 6646 1ac7 10       		.byte	0x10
ARM GAS  C:\Users\DEVELO~1\AppData\Local\Temp\ccFr3SeA.s 			page 118


 6647 1ac8 A8000000 		.4byte	0xa8
 6648 1acc 00000000 		.4byte	.LFB439
 6649 1ad0 60000000 		.4byte	.LFE439-.LFB439
 6650 1ad4 01       		.uleb128 0x1
 6651 1ad5 9C       		.byte	0x9c
 6652 1ad6 151B0000 		.4byte	0x1b15
 6653 1ada 0B       		.uleb128 0xb
 6654 1adb 48040000 		.4byte	.LASF335
 6655 1adf 8201     		.2byte	0x182
 6656 1ae1 31       		.byte	0x31
 6657 1ae2 B9000000 		.4byte	0xb9
 6658 1ae6 02       		.uleb128 0x2
 6659 1ae7 91       		.byte	0x91
 6660 1ae8 66       		.sleb128 -26
 6661 1ae9 06       		.uleb128 0x6
 6662 1aea 6E756D00 		.ascii	"num\000"
 6663 1aee 8701     		.2byte	0x187
 6664 1af0 0C       		.byte	0xc
 6665 1af1 D6000000 		.4byte	0xd6
 6666 1af5 02       		.uleb128 0x2
 6667 1af6 91       		.byte	0x91
 6668 1af7 70       		.sleb128 -16
 6669 1af8 06       		.uleb128 0x6
 6670 1af9 64656E00 		.ascii	"den\000"
 6671 1afd 8801     		.2byte	0x188
 6672 1aff 0C       		.byte	0xc
 6673 1b00 D6000000 		.4byte	0xd6
 6674 1b04 02       		.uleb128 0x2
 6675 1b05 91       		.byte	0x91
 6676 1b06 6C       		.sleb128 -20
 6677 1b07 06       		.uleb128 0x6
 6678 1b08 7600     		.ascii	"v\000"
 6679 1b0a 8901     		.2byte	0x189
 6680 1b0c 0C       		.byte	0xc
 6681 1b0d D6000000 		.4byte	0xd6
 6682 1b11 02       		.uleb128 0x2
 6683 1b12 91       		.byte	0x91
 6684 1b13 74       		.sleb128 -12
 6685 1b14 00       		.byte	0
 6686 1b15 21       		.uleb128 0x21
 6687 1b16 A6080000 		.4byte	.LASF336
 6688 1b1a 6D01     		.2byte	0x16d
 6689 1b1c 10       		.byte	0x10
 6690 1b1d A8000000 		.4byte	0xa8
 6691 1b21 00000000 		.4byte	.LFB438
 6692 1b25 A2000000 		.4byte	.LFE438-.LFB438
 6693 1b29 01       		.uleb128 0x1
 6694 1b2a 9C       		.byte	0x9c
 6695 1b2b 971B0000 		.4byte	0x1b97
 6696 1b2f 0B       		.uleb128 0xb
 6697 1b30 CF080000 		.4byte	.LASF328
 6698 1b34 6D01     		.2byte	0x16d
 6699 1b36 2F       		.byte	0x2f
 6700 1b37 B9000000 		.4byte	0xb9
 6701 1b3b 02       		.uleb128 0x2
 6702 1b3c 91       		.byte	0x91
 6703 1b3d 66       		.sleb128 -26
ARM GAS  C:\Users\DEVELO~1\AppData\Local\Temp\ccFr3SeA.s 			page 119


 6704 1b3e 0B       		.uleb128 0xb
 6705 1b3f 560C0000 		.4byte	.LASF291
 6706 1b43 6D01     		.2byte	0x16d
 6707 1b45 3F       		.byte	0x3f
 6708 1b46 B9000000 		.4byte	0xb9
 6709 1b4a 02       		.uleb128 0x2
 6710 1b4b 91       		.byte	0x91
 6711 1b4c 64       		.sleb128 -28
 6712 1b4d 10       		.uleb128 0x10
 6713 1b4e 11020000 		.4byte	.LASF337
 6714 1b52 7001     		.2byte	0x170
 6715 1b54 0C       		.byte	0xc
 6716 1b55 B9000000 		.4byte	0xb9
 6717 1b59 02       		.uleb128 0x2
 6718 1b5a 91       		.byte	0x91
 6719 1b5b 76       		.sleb128 -10
 6720 1b5c 10       		.uleb128 0x10
 6721 1b5d F80C0000 		.4byte	.LASF338
 6722 1b61 7101     		.2byte	0x171
 6723 1b63 0C       		.byte	0xc
 6724 1b64 B9000000 		.4byte	0xb9
 6725 1b68 02       		.uleb128 0x2
 6726 1b69 91       		.byte	0x91
 6727 1b6a 74       		.sleb128 -12
 6728 1b6b 06       		.uleb128 0x6
 6729 1b6c 6E756D00 		.ascii	"num\000"
 6730 1b70 7901     		.2byte	0x179
 6731 1b72 0C       		.byte	0xc
 6732 1b73 D6000000 		.4byte	0xd6
 6733 1b77 02       		.uleb128 0x2
 6734 1b78 91       		.byte	0x91
 6735 1b79 6C       		.sleb128 -20
 6736 1b7a 06       		.uleb128 0x6
 6737 1b7b 64656E00 		.ascii	"den\000"
 6738 1b7f 7A01     		.2byte	0x17a
 6739 1b81 0C       		.byte	0xc
 6740 1b82 D6000000 		.4byte	0xd6
 6741 1b86 02       		.uleb128 0x2
 6742 1b87 91       		.byte	0x91
 6743 1b88 68       		.sleb128 -24
 6744 1b89 06       		.uleb128 0x6
 6745 1b8a 7600     		.ascii	"v\000"
 6746 1b8c 7B01     		.2byte	0x17b
 6747 1b8e 0C       		.byte	0xc
 6748 1b8f D6000000 		.4byte	0xd6
 6749 1b93 02       		.uleb128 0x2
 6750 1b94 91       		.byte	0x91
 6751 1b95 70       		.sleb128 -16
 6752 1b96 00       		.byte	0
 6753 1b97 2B       		.uleb128 0x2b
 6754 1b98 B70F0000 		.4byte	.LASF339
 6755 1b9c 3901     		.2byte	0x139
 6756 1b9e A8000000 		.4byte	0xa8
 6757 1ba2 00000000 		.4byte	.LFB437
 6758 1ba6 40010000 		.4byte	.LFE437-.LFB437
 6759 1baa 01       		.uleb128 0x1
 6760 1bab 9C       		.byte	0x9c
ARM GAS  C:\Users\DEVELO~1\AppData\Local\Temp\ccFr3SeA.s 			page 120


 6761 1bac 811C0000 		.4byte	0x1c81
 6762 1bb0 13       		.uleb128 0x13
 6763 1bb1 7600     		.ascii	"v\000"
 6764 1bb3 3901     		.2byte	0x139
 6765 1bb5 29       		.byte	0x29
 6766 1bb6 A8000000 		.4byte	0xa8
 6767 1bba 02       		.uleb128 0x2
 6768 1bbb 91       		.byte	0x91
 6769 1bbc 4F       		.sleb128 -49
 6770 1bbd 0B       		.uleb128 0xb
 6771 1bbe 4C060000 		.4byte	.LASF316
 6772 1bc2 3901     		.2byte	0x139
 6773 1bc4 3D       		.byte	0x3d
 6774 1bc5 5D010000 		.4byte	0x15d
 6775 1bc9 02       		.uleb128 0x2
 6776 1bca 91       		.byte	0x91
 6777 1bcb 4E       		.sleb128 -50
 6778 1bcc 1A       		.uleb128 0x1a
 6779 1bcd 4C000000 		.4byte	.LBB25
 6780 1bd1 36000000 		.4byte	.LBE25-.LBB25
 6781 1bd5 F71B0000 		.4byte	0x1bf7
 6782 1bd9 06       		.uleb128 0x6
 6783 1bda 767600   		.ascii	"vv\000"
 6784 1bdd 4301     		.2byte	0x143
 6785 1bdf 10       		.byte	0x10
 6786 1be0 D6000000 		.4byte	0xd6
 6787 1be4 02       		.uleb128 0x2
 6788 1be5 91       		.byte	0x91
 6789 1be6 54       		.sleb128 -44
 6790 1be7 06       		.uleb128 0x6
 6791 1be8 6F757400 		.ascii	"out\000"
 6792 1bec 4401     		.2byte	0x144
 6793 1bee 10       		.byte	0x10
 6794 1bef D6000000 		.4byte	0xd6
 6795 1bf3 02       		.uleb128 0x2
 6796 1bf4 91       		.byte	0x91
 6797 1bf5 74       		.sleb128 -12
 6798 1bf6 00       		.byte	0
 6799 1bf7 1A       		.uleb128 0x1a
 6800 1bf8 82000000 		.4byte	.LBB26
 6801 1bfc 2E000000 		.4byte	.LBE26-.LBB26
 6802 1c00 211C0000 		.4byte	0x1c21
 6803 1c04 06       		.uleb128 0x6
 6804 1c05 7800     		.ascii	"x\000"
 6805 1c07 4C01     		.2byte	0x14c
 6806 1c09 10       		.byte	0x10
 6807 1c0a D6000000 		.4byte	0xd6
 6808 1c0e 02       		.uleb128 0x2
 6809 1c0f 91       		.byte	0x91
 6810 1c10 58       		.sleb128 -40
 6811 1c11 06       		.uleb128 0x6
 6812 1c12 6F757400 		.ascii	"out\000"
 6813 1c16 4D01     		.2byte	0x14d
 6814 1c18 10       		.byte	0x10
 6815 1c19 B9000000 		.4byte	0xb9
 6816 1c1d 02       		.uleb128 0x2
 6817 1c1e 91       		.byte	0x91
ARM GAS  C:\Users\DEVELO~1\AppData\Local\Temp\ccFr3SeA.s 			page 121


 6818 1c1f 72       		.sleb128 -14
 6819 1c20 00       		.byte	0
 6820 1c21 1A       		.uleb128 0x1a
 6821 1c22 B0000000 		.4byte	.LBB27
 6822 1c26 40000000 		.4byte	.LBE27-.LBB27
 6823 1c2a 591C0000 		.4byte	0x1c59
 6824 1c2e 06       		.uleb128 0x6
 6825 1c2f 6400     		.ascii	"d\000"
 6826 1c31 5501     		.2byte	0x155
 6827 1c33 10       		.byte	0x10
 6828 1c34 D6000000 		.4byte	0xd6
 6829 1c38 02       		.uleb128 0x2
 6830 1c39 91       		.byte	0x91
 6831 1c3a 60       		.sleb128 -32
 6832 1c3b 06       		.uleb128 0x6
 6833 1c3c 646400   		.ascii	"dd\000"
 6834 1c3f 5601     		.2byte	0x156
 6835 1c41 10       		.byte	0x10
 6836 1c42 D6000000 		.4byte	0xd6
 6837 1c46 02       		.uleb128 0x2
 6838 1c47 91       		.byte	0x91
 6839 1c48 5C       		.sleb128 -36
 6840 1c49 06       		.uleb128 0x6
 6841 1c4a 6F757400 		.ascii	"out\000"
 6842 1c4e 5701     		.2byte	0x157
 6843 1c50 10       		.byte	0x10
 6844 1c51 D6000000 		.4byte	0xd6
 6845 1c55 02       		.uleb128 0x2
 6846 1c56 91       		.byte	0x91
 6847 1c57 6C       		.sleb128 -20
 6848 1c58 00       		.byte	0
 6849 1c59 20       		.uleb128 0x20
 6850 1c5a F0000000 		.4byte	.LBB28
 6851 1c5e 3C000000 		.4byte	.LBE28-.LBB28
 6852 1c62 06       		.uleb128 0x6
 6853 1c63 767600   		.ascii	"vv\000"
 6854 1c66 5F01     		.2byte	0x15f
 6855 1c68 10       		.byte	0x10
 6856 1c69 D6000000 		.4byte	0xd6
 6857 1c6d 02       		.uleb128 0x2
 6858 1c6e 91       		.byte	0x91
 6859 1c6f 64       		.sleb128 -28
 6860 1c70 06       		.uleb128 0x6
 6861 1c71 6F757400 		.ascii	"out\000"
 6862 1c75 6001     		.2byte	0x160
 6863 1c77 10       		.byte	0x10
 6864 1c78 D6000000 		.4byte	0xd6
 6865 1c7c 02       		.uleb128 0x2
 6866 1c7d 91       		.byte	0x91
 6867 1c7e 68       		.sleb128 -24
 6868 1c7f 00       		.byte	0
 6869 1c80 00       		.byte	0
 6870 1c81 21       		.uleb128 0x21
 6871 1c82 57010000 		.4byte	.LASF340
 6872 1c86 2801     		.2byte	0x128
 6873 1c88 11       		.byte	0x11
 6874 1c89 B9000000 		.4byte	0xb9
ARM GAS  C:\Users\DEVELO~1\AppData\Local\Temp\ccFr3SeA.s 			page 122


 6875 1c8d 00000000 		.4byte	.LFB436
 6876 1c91 6A000000 		.4byte	.LFE436-.LFB436
 6877 1c95 01       		.uleb128 0x1
 6878 1c96 9C       		.byte	0x9c
 6879 1c97 D51C0000 		.4byte	0x1cd5
 6880 1c9b 13       		.uleb128 0x13
 6881 1c9c 7800     		.ascii	"x\000"
 6882 1c9e 2801     		.2byte	0x128
 6883 1ca0 24       		.byte	0x24
 6884 1ca1 D6000000 		.4byte	0xd6
 6885 1ca5 02       		.uleb128 0x2
 6886 1ca6 91       		.byte	0x91
 6887 1ca7 64       		.sleb128 -28
 6888 1ca8 06       		.uleb128 0x6
 6889 1ca9 6F7000   		.ascii	"op\000"
 6890 1cac 2A01     		.2byte	0x12a
 6891 1cae 0C       		.byte	0xc
 6892 1caf D6000000 		.4byte	0xd6
 6893 1cb3 02       		.uleb128 0x2
 6894 1cb4 91       		.byte	0x91
 6895 1cb5 74       		.sleb128 -12
 6896 1cb6 06       		.uleb128 0x6
 6897 1cb7 72657300 		.ascii	"res\000"
 6898 1cbb 2B01     		.2byte	0x12b
 6899 1cbd 0C       		.byte	0xc
 6900 1cbe D6000000 		.4byte	0xd6
 6901 1cc2 02       		.uleb128 0x2
 6902 1cc3 91       		.byte	0x91
 6903 1cc4 70       		.sleb128 -16
 6904 1cc5 06       		.uleb128 0x6
 6905 1cc6 6F6E6500 		.ascii	"one\000"
 6906 1cca 2C01     		.2byte	0x12c
 6907 1ccc 0C       		.byte	0xc
 6908 1ccd D6000000 		.4byte	0xd6
 6909 1cd1 02       		.uleb128 0x2
 6910 1cd2 91       		.byte	0x91
 6911 1cd3 6C       		.sleb128 -20
 6912 1cd4 00       		.byte	0
 6913 1cd5 2A       		.uleb128 0x2a
 6914 1cd6 69090000 		.4byte	.LASF342
 6915 1cda 0101     		.2byte	0x101
 6916 1cdc 00000000 		.4byte	.LFB435
 6917 1ce0 E0000000 		.4byte	.LFE435-.LFB435
 6918 1ce4 01       		.uleb128 0x1
 6919 1ce5 9C       		.byte	0x9c
 6920 1ce6 341D0000 		.4byte	0x1d34
 6921 1cea 13       		.uleb128 0x13
 6922 1ceb 6200     		.ascii	"b\000"
 6923 1ced 0101     		.2byte	0x101
 6924 1cef 31       		.byte	0x31
 6925 1cf0 D6190000 		.4byte	0x19d6
 6926 1cf4 02       		.uleb128 0x2
 6927 1cf5 91       		.byte	0x91
 6928 1cf6 64       		.sleb128 -28
 6929 1cf7 10       		.uleb128 0x10
 6930 1cf8 CF080000 		.4byte	.LASF328
 6931 1cfc 0801     		.2byte	0x108
ARM GAS  C:\Users\DEVELO~1\AppData\Local\Temp\ccFr3SeA.s 			page 123


 6932 1cfe 0C       		.byte	0xc
 6933 1cff D6000000 		.4byte	0xd6
 6934 1d03 02       		.uleb128 0x2
 6935 1d04 91       		.byte	0x91
 6936 1d05 6C       		.sleb128 -20
 6937 1d06 10       		.uleb128 0x10
 6938 1d07 5F090000 		.4byte	.LASF343
 6939 1d0b 0A01     		.2byte	0x10a
 6940 1d0d 0C       		.byte	0xc
 6941 1d0e D6000000 		.4byte	0xd6
 6942 1d12 02       		.uleb128 0x2
 6943 1d13 91       		.byte	0x91
 6944 1d14 68       		.sleb128 -24
 6945 1d15 10       		.uleb128 0x10
 6946 1d16 B9050000 		.4byte	.LASF344
 6947 1d1a 0B01     		.2byte	0x10b
 6948 1d1c 0C       		.byte	0xc
 6949 1d1d D6000000 		.4byte	0xd6
 6950 1d21 02       		.uleb128 0x2
 6951 1d22 91       		.byte	0x91
 6952 1d23 74       		.sleb128 -12
 6953 1d24 10       		.uleb128 0x10
 6954 1d25 02040000 		.4byte	.LASF345
 6955 1d29 0C01     		.2byte	0x10c
 6956 1d2b 0C       		.byte	0xc
 6957 1d2c D6000000 		.4byte	0xd6
 6958 1d30 02       		.uleb128 0x2
 6959 1d31 91       		.byte	0x91
 6960 1d32 70       		.sleb128 -16
 6961 1d33 00       		.byte	0
 6962 1d34 3C       		.uleb128 0x3c
 6963 1d35 4D080000 		.4byte	.LASF346
 6964 1d39 04       		.byte	0x4
 6965 1d3a F9       		.byte	0xf9
 6966 1d3b 0D       		.byte	0xd
 6967 1d3c FC0C0000 		.4byte	0xcfc
 6968 1d40 00000000 		.4byte	.LFB434
 6969 1d44 3E000000 		.4byte	.LFE434-.LFB434
 6970 1d48 01       		.uleb128 0x1
 6971 1d49 9C       		.byte	0x9c
 6972 1d4a 691D0000 		.4byte	0x1d69
 6973 1d4e 2C       		.uleb128 0x2c
 6974 1d4f 6200     		.ascii	"b\000"
 6975 1d51 F9       		.byte	0xf9
 6976 1d52 33       		.byte	0x33
 6977 1d53 691D0000 		.4byte	0x1d69
 6978 1d57 02       		.uleb128 0x2
 6979 1d58 91       		.byte	0x91
 6980 1d59 6C       		.sleb128 -20
 6981 1d5a 0A       		.uleb128 0xa
 6982 1d5b CF080000 		.4byte	.LASF328
 6983 1d5f FD       		.byte	0xfd
 6984 1d60 0C       		.byte	0xc
 6985 1d61 B9000000 		.4byte	0xb9
 6986 1d65 02       		.uleb128 0x2
 6987 1d66 91       		.byte	0x91
 6988 1d67 76       		.sleb128 -10
ARM GAS  C:\Users\DEVELO~1\AppData\Local\Temp\ccFr3SeA.s 			page 124


 6989 1d68 00       		.byte	0
 6990 1d69 05       		.uleb128 0x5
 6991 1d6a B5150000 		.4byte	0x15b5
 6992 1d6e 3D       		.uleb128 0x3d
 6993 1d6f DB090000 		.4byte	.LASF347
 6994 1d73 04       		.byte	0x4
 6995 1d74 F1       		.byte	0xf1
 6996 1d75 0D       		.byte	0xd
 6997 1d76 00000000 		.4byte	.LFB433
 6998 1d7a 94000000 		.4byte	.LFE433-.LFB433
 6999 1d7e 01       		.uleb128 0x1
 7000 1d7f 9C       		.byte	0x9c
 7001 1d80 DC1D0000 		.4byte	0x1ddc
 7002 1d84 2C       		.uleb128 0x2c
 7003 1d85 636800   		.ascii	"ch\000"
 7004 1d88 F1       		.byte	0xf1
 7005 1d89 20       		.byte	0x20
 7006 1d8a A8000000 		.4byte	0xa8
 7007 1d8e 02       		.uleb128 0x2
 7008 1d8f 91       		.byte	0x91
 7009 1d90 67       		.sleb128 -25
 7010 1d91 1A       		.uleb128 0x1a
 7011 1d92 0A000000 		.4byte	.LBB22
 7012 1d96 24000000 		.4byte	.LBE22-.LBB22
 7013 1d9a AB1D0000 		.4byte	0x1dab
 7014 1d9e 1B       		.uleb128 0x1b
 7015 1d9f 7700     		.ascii	"w\000"
 7016 1da1 F2       		.byte	0xf2
 7017 1da2 03       		.byte	0x3
 7018 1da3 D6000000 		.4byte	0xd6
 7019 1da7 02       		.uleb128 0x2
 7020 1da8 91       		.byte	0x91
 7021 1da9 74       		.sleb128 -12
 7022 1daa 00       		.byte	0
 7023 1dab 1A       		.uleb128 0x1a
 7024 1dac 2E000000 		.4byte	.LBB23
 7025 1db0 2C000000 		.4byte	.LBE23-.LBB23
 7026 1db4 C51D0000 		.4byte	0x1dc5
 7027 1db8 1B       		.uleb128 0x1b
 7028 1db9 7700     		.ascii	"w\000"
 7029 1dbb F3       		.byte	0xf3
 7030 1dbc 03       		.byte	0x3
 7031 1dbd D6000000 		.4byte	0xd6
 7032 1dc1 02       		.uleb128 0x2
 7033 1dc2 91       		.byte	0x91
 7034 1dc3 70       		.sleb128 -16
 7035 1dc4 00       		.byte	0
 7036 1dc5 20       		.uleb128 0x20
 7037 1dc6 5A000000 		.4byte	.LBB24
 7038 1dca 2C000000 		.4byte	.LBE24-.LBB24
 7039 1dce 1B       		.uleb128 0x1b
 7040 1dcf 7700     		.ascii	"w\000"
 7041 1dd1 F4       		.byte	0xf4
 7042 1dd2 03       		.byte	0x3
 7043 1dd3 D6000000 		.4byte	0xd6
 7044 1dd7 02       		.uleb128 0x2
 7045 1dd8 91       		.byte	0x91
ARM GAS  C:\Users\DEVELO~1\AppData\Local\Temp\ccFr3SeA.s 			page 125


 7046 1dd9 6C       		.sleb128 -20
 7047 1dda 00       		.byte	0
 7048 1ddb 00       		.byte	0
 7049 1ddc 3E       		.uleb128 0x3e
 7050 1ddd 180D0000 		.4byte	.LASF348
 7051 1de1 04       		.byte	0x4
 7052 1de2 B2       		.byte	0xb2
 7053 1de3 0D       		.byte	0xd
 7054 1de4 00000000 		.4byte	.LFB432
 7055 1de8 94000000 		.4byte	.LFE432-.LFB432
 7056 1dec 01       		.uleb128 0x1
 7057 1ded 9C       		.byte	0x9c
 7058 1dee 2A1E0000 		.4byte	0x1e2a
 7059 1df2 3F       		.uleb128 0x3f
 7060 1df3 130D0000 		.4byte	.LASF349
 7061 1df7 04       		.byte	0x4
 7062 1df8 B2       		.byte	0xb2
 7063 1df9 1F       		.byte	0x1f
 7064 1dfa 5C120000 		.4byte	0x125c
 7065 1dfe 02       		.uleb128 0x2
 7066 1dff 91       		.byte	0x91
 7067 1e00 6C       		.sleb128 -20
 7068 1e01 1B       		.uleb128 0x1b
 7069 1e02 764100   		.ascii	"vA\000"
 7070 1e05 B5       		.byte	0xb5
 7071 1e06 0C       		.byte	0xc
 7072 1e07 B9000000 		.4byte	0xb9
 7073 1e0b 02       		.uleb128 0x2
 7074 1e0c 91       		.byte	0x91
 7075 1e0d 76       		.sleb128 -10
 7076 1e0e 1B       		.uleb128 0x1b
 7077 1e0f 764200   		.ascii	"vB\000"
 7078 1e12 B6       		.byte	0xb6
 7079 1e13 0C       		.byte	0xc
 7080 1e14 B9000000 		.4byte	0xb9
 7081 1e18 02       		.uleb128 0x2
 7082 1e19 91       		.byte	0x91
 7083 1e1a 74       		.sleb128 -12
 7084 1e1b 1B       		.uleb128 0x1b
 7085 1e1c 6D757800 		.ascii	"mux\000"
 7086 1e20 BE       		.byte	0xbe
 7087 1e21 0B       		.byte	0xb
 7088 1e22 A8000000 		.4byte	0xa8
 7089 1e26 02       		.uleb128 0x2
 7090 1e27 91       		.byte	0x91
 7091 1e28 73       		.sleb128 -13
 7092 1e29 00       		.byte	0
 7093 1e2a 2D       		.uleb128 0x2d
 7094 1e2b 25040000 		.4byte	.LASF350
 7095 1e2f A501     		.2byte	0x1a5
 7096 1e31 00000000 		.4byte	.LFB203
 7097 1e35 1E000000 		.4byte	.LFE203-.LFB203
 7098 1e39 01       		.uleb128 0x1
 7099 1e3a 9C       		.byte	0x9c
 7100 1e3b 731E0000 		.4byte	0x1e73
 7101 1e3f 40       		.uleb128 0x40
 7102 1e40 1F0F0000 		.4byte	.LASF358
ARM GAS  C:\Users\DEVELO~1\AppData\Local\Temp\ccFr3SeA.s 			page 126


 7103 1e44 831E0000 		.4byte	0x1e83
 7104 1e48 22       		.uleb128 0x22
 7105 1e49 C81E0000 		.4byte	0x1ec8
 7106 1e4d 0A000000 		.4byte	.LBB18
 7107 1e51 0A000000 		.4byte	.LBE18-.LBB18
 7108 1e55 01       		.byte	0x1
 7109 1e56 B201     		.2byte	0x1b2
 7110 1e58 22       		.uleb128 0x22
 7111 1e59 D61E0000 		.4byte	0x1ed6
 7112 1e5d 0A000000 		.4byte	.LBB20
 7113 1e61 08000000 		.4byte	.LBE20-.LBB20
 7114 1e65 03       		.byte	0x3
 7115 1e66 5203     		.2byte	0x352
 7116 1e68 2E       		.uleb128 0x2e
 7117 1e69 E01E0000 		.4byte	0x1ee0
 7118 1e6d 02       		.uleb128 0x2
 7119 1e6e 91       		.byte	0x91
 7120 1e6f 74       		.sleb128 -12
 7121 1e70 00       		.byte	0
 7122 1e71 00       		.byte	0
 7123 1e72 00       		.byte	0
 7124 1e73 11       		.uleb128 0x11
 7125 1e74 E1030000 		.4byte	0x3e1
 7126 1e78 831E0000 		.4byte	0x1e83
 7127 1e7c 12       		.uleb128 0x12
 7128 1e7d A1000000 		.4byte	0xa1
 7129 1e81 0B       		.byte	0xb
 7130 1e82 00       		.byte	0
 7131 1e83 16       		.uleb128 0x16
 7132 1e84 731E0000 		.4byte	0x1e73
 7133 1e88 2D       		.uleb128 0x2d
 7134 1e89 E5050000 		.4byte	.LASF351
 7135 1e8d 9701     		.2byte	0x197
 7136 1e8f 00000000 		.4byte	.LFB202
 7137 1e93 1E000000 		.4byte	.LFE202-.LFB202
 7138 1e97 01       		.uleb128 0x1
 7139 1e98 9C       		.byte	0x9c
 7140 1e99 C81E0000 		.4byte	0x1ec8
 7141 1e9d 22       		.uleb128 0x22
 7142 1e9e CF1E0000 		.4byte	0x1ecf
 7143 1ea2 0A000000 		.4byte	.LBB14
 7144 1ea6 0A000000 		.4byte	.LBE14-.LBB14
 7145 1eaa 01       		.byte	0x1
 7146 1eab 9901     		.2byte	0x199
 7147 1ead 22       		.uleb128 0x22
 7148 1eae D61E0000 		.4byte	0x1ed6
 7149 1eb2 0A000000 		.4byte	.LBB16
 7150 1eb6 08000000 		.4byte	.LBE16-.LBB16
 7151 1eba 03       		.byte	0x3
 7152 1ebb 3F03     		.2byte	0x33f
 7153 1ebd 2E       		.uleb128 0x2e
 7154 1ebe E01E0000 		.4byte	0x1ee0
 7155 1ec2 02       		.uleb128 0x2
 7156 1ec3 91       		.byte	0x91
 7157 1ec4 74       		.sleb128 -12
 7158 1ec5 00       		.byte	0
 7159 1ec6 00       		.byte	0
ARM GAS  C:\Users\DEVELO~1\AppData\Local\Temp\ccFr3SeA.s 			page 127


 7160 1ec7 00       		.byte	0
 7161 1ec8 2F       		.uleb128 0x2f
 7162 1ec9 80010000 		.4byte	.LASF352
 7163 1ecd 4F03     		.2byte	0x34f
 7164 1ecf 2F       		.uleb128 0x2f
 7165 1ed0 46010000 		.4byte	.LASF353
 7166 1ed4 3703     		.2byte	0x337
 7167 1ed6 41       		.uleb128 0x41
 7168 1ed7 EA0B0000 		.4byte	.LASF359
 7169 1edb 02       		.byte	0x2
 7170 1edc EB01     		.2byte	0x1eb
 7171 1ede 1B       		.byte	0x1b
 7172 1edf 03       		.byte	0x3
 7173 1ee0 42       		.uleb128 0x42
 7174 1ee1 FA040000 		.4byte	.LASF360
 7175 1ee5 02       		.byte	0x2
 7176 1ee6 EB01     		.2byte	0x1eb
 7177 1ee8 32       		.byte	0x32
 7178 1ee9 D6000000 		.4byte	0xd6
 7179 1eed 00       		.byte	0
 7180 1eee 00       		.byte	0
 7181              		.section	.debug_abbrev,"",%progbits
 7182              	.Ldebug_abbrev0:
 7183 0000 01       		.uleb128 0x1
 7184 0001 0D       		.uleb128 0xd
 7185 0002 00       		.byte	0
 7186 0003 03       		.uleb128 0x3
 7187 0004 0E       		.uleb128 0xe
 7188 0005 3A       		.uleb128 0x3a
 7189 0006 0B       		.uleb128 0xb
 7190 0007 3B       		.uleb128 0x3b
 7191 0008 0B       		.uleb128 0xb
 7192 0009 39       		.uleb128 0x39
 7193 000a 0B       		.uleb128 0xb
 7194 000b 49       		.uleb128 0x49
 7195 000c 13       		.uleb128 0x13
 7196 000d 38       		.uleb128 0x38
 7197 000e 0B       		.uleb128 0xb
 7198 000f 00       		.byte	0
 7199 0010 00       		.byte	0
 7200 0011 02       		.uleb128 0x2
 7201 0012 0D       		.uleb128 0xd
 7202 0013 00       		.byte	0
 7203 0014 03       		.uleb128 0x3
 7204 0015 0E       		.uleb128 0xe
 7205 0016 3A       		.uleb128 0x3a
 7206 0017 0B       		.uleb128 0xb
 7207 0018 3B       		.uleb128 0x3b
 7208 0019 05       		.uleb128 0x5
 7209 001a 39       		.uleb128 0x39
 7210 001b 0B       		.uleb128 0xb
 7211 001c 49       		.uleb128 0x49
 7212 001d 13       		.uleb128 0x13
 7213 001e 38       		.uleb128 0x38
 7214 001f 0B       		.uleb128 0xb
 7215 0020 00       		.byte	0
 7216 0021 00       		.byte	0
ARM GAS  C:\Users\DEVELO~1\AppData\Local\Temp\ccFr3SeA.s 			page 128


 7217 0022 03       		.uleb128 0x3
 7218 0023 16       		.uleb128 0x16
 7219 0024 00       		.byte	0
 7220 0025 03       		.uleb128 0x3
 7221 0026 0E       		.uleb128 0xe
 7222 0027 3A       		.uleb128 0x3a
 7223 0028 0B       		.uleb128 0xb
 7224 0029 3B       		.uleb128 0x3b
 7225 002a 0B       		.uleb128 0xb
 7226 002b 39       		.uleb128 0x39
 7227 002c 0B       		.uleb128 0xb
 7228 002d 49       		.uleb128 0x49
 7229 002e 13       		.uleb128 0x13
 7230 002f 00       		.byte	0
 7231 0030 00       		.byte	0
 7232 0031 04       		.uleb128 0x4
 7233 0032 0D       		.uleb128 0xd
 7234 0033 00       		.byte	0
 7235 0034 03       		.uleb128 0x3
 7236 0035 08       		.uleb128 0x8
 7237 0036 3A       		.uleb128 0x3a
 7238 0037 0B       		.uleb128 0xb
 7239 0038 3B       		.uleb128 0x3b
 7240 0039 05       		.uleb128 0x5
 7241 003a 39       		.uleb128 0x39
 7242 003b 0B       		.uleb128 0xb
 7243 003c 49       		.uleb128 0x49
 7244 003d 13       		.uleb128 0x13
 7245 003e 38       		.uleb128 0x38
 7246 003f 0B       		.uleb128 0xb
 7247 0040 00       		.byte	0
 7248 0041 00       		.byte	0
 7249 0042 05       		.uleb128 0x5
 7250 0043 0F       		.uleb128 0xf
 7251 0044 00       		.byte	0
 7252 0045 0B       		.uleb128 0xb
 7253 0046 21       		.uleb128 0x21
 7254 0047 04       		.sleb128 4
 7255 0048 49       		.uleb128 0x49
 7256 0049 13       		.uleb128 0x13
 7257 004a 00       		.byte	0
 7258 004b 00       		.byte	0
 7259 004c 06       		.uleb128 0x6
 7260 004d 34       		.uleb128 0x34
 7261 004e 00       		.byte	0
 7262 004f 03       		.uleb128 0x3
 7263 0050 08       		.uleb128 0x8
 7264 0051 3A       		.uleb128 0x3a
 7265 0052 21       		.uleb128 0x21
 7266 0053 04       		.sleb128 4
 7267 0054 3B       		.uleb128 0x3b
 7268 0055 05       		.uleb128 0x5
 7269 0056 39       		.uleb128 0x39
 7270 0057 0B       		.uleb128 0xb
 7271 0058 49       		.uleb128 0x49
 7272 0059 13       		.uleb128 0x13
 7273 005a 02       		.uleb128 0x2
ARM GAS  C:\Users\DEVELO~1\AppData\Local\Temp\ccFr3SeA.s 			page 129


 7274 005b 18       		.uleb128 0x18
 7275 005c 00       		.byte	0
 7276 005d 00       		.byte	0
 7277 005e 07       		.uleb128 0x7
 7278 005f 28       		.uleb128 0x28
 7279 0060 00       		.byte	0
 7280 0061 03       		.uleb128 0x3
 7281 0062 0E       		.uleb128 0xe
 7282 0063 1C       		.uleb128 0x1c
 7283 0064 0B       		.uleb128 0xb
 7284 0065 00       		.byte	0
 7285 0066 00       		.byte	0
 7286 0067 08       		.uleb128 0x8
 7287 0068 0D       		.uleb128 0xd
 7288 0069 00       		.byte	0
 7289 006a 03       		.uleb128 0x3
 7290 006b 08       		.uleb128 0x8
 7291 006c 3A       		.uleb128 0x3a
 7292 006d 0B       		.uleb128 0xb
 7293 006e 3B       		.uleb128 0x3b
 7294 006f 0B       		.uleb128 0xb
 7295 0070 39       		.uleb128 0x39
 7296 0071 0B       		.uleb128 0xb
 7297 0072 49       		.uleb128 0x49
 7298 0073 13       		.uleb128 0x13
 7299 0074 38       		.uleb128 0x38
 7300 0075 0B       		.uleb128 0xb
 7301 0076 00       		.byte	0
 7302 0077 00       		.byte	0
 7303 0078 09       		.uleb128 0x9
 7304 0079 05       		.uleb128 0x5
 7305 007a 00       		.byte	0
 7306 007b 49       		.uleb128 0x49
 7307 007c 13       		.uleb128 0x13
 7308 007d 00       		.byte	0
 7309 007e 00       		.byte	0
 7310 007f 0A       		.uleb128 0xa
 7311 0080 34       		.uleb128 0x34
 7312 0081 00       		.byte	0
 7313 0082 03       		.uleb128 0x3
 7314 0083 0E       		.uleb128 0xe
 7315 0084 3A       		.uleb128 0x3a
 7316 0085 21       		.uleb128 0x21
 7317 0086 04       		.sleb128 4
 7318 0087 3B       		.uleb128 0x3b
 7319 0088 0B       		.uleb128 0xb
 7320 0089 39       		.uleb128 0x39
 7321 008a 0B       		.uleb128 0xb
 7322 008b 49       		.uleb128 0x49
 7323 008c 13       		.uleb128 0x13
 7324 008d 02       		.uleb128 0x2
 7325 008e 18       		.uleb128 0x18
 7326 008f 00       		.byte	0
 7327 0090 00       		.byte	0
 7328 0091 0B       		.uleb128 0xb
 7329 0092 05       		.uleb128 0x5
 7330 0093 00       		.byte	0
ARM GAS  C:\Users\DEVELO~1\AppData\Local\Temp\ccFr3SeA.s 			page 130


 7331 0094 03       		.uleb128 0x3
 7332 0095 0E       		.uleb128 0xe
 7333 0096 3A       		.uleb128 0x3a
 7334 0097 21       		.uleb128 0x21
 7335 0098 04       		.sleb128 4
 7336 0099 3B       		.uleb128 0x3b
 7337 009a 05       		.uleb128 0x5
 7338 009b 39       		.uleb128 0x39
 7339 009c 0B       		.uleb128 0xb
 7340 009d 49       		.uleb128 0x49
 7341 009e 13       		.uleb128 0x13
 7342 009f 02       		.uleb128 0x2
 7343 00a0 18       		.uleb128 0x18
 7344 00a1 00       		.byte	0
 7345 00a2 00       		.byte	0
 7346 00a3 0C       		.uleb128 0xc
 7347 00a4 16       		.uleb128 0x16
 7348 00a5 00       		.byte	0
 7349 00a6 03       		.uleb128 0x3
 7350 00a7 0E       		.uleb128 0xe
 7351 00a8 3A       		.uleb128 0x3a
 7352 00a9 0B       		.uleb128 0xb
 7353 00aa 3B       		.uleb128 0x3b
 7354 00ab 05       		.uleb128 0x5
 7355 00ac 39       		.uleb128 0x39
 7356 00ad 0B       		.uleb128 0xb
 7357 00ae 49       		.uleb128 0x49
 7358 00af 13       		.uleb128 0x13
 7359 00b0 00       		.byte	0
 7360 00b1 00       		.byte	0
 7361 00b2 0D       		.uleb128 0xd
 7362 00b3 35       		.uleb128 0x35
 7363 00b4 00       		.byte	0
 7364 00b5 49       		.uleb128 0x49
 7365 00b6 13       		.uleb128 0x13
 7366 00b7 00       		.byte	0
 7367 00b8 00       		.byte	0
 7368 00b9 0E       		.uleb128 0xe
 7369 00ba 13       		.uleb128 0x13
 7370 00bb 01       		.byte	0x1
 7371 00bc 03       		.uleb128 0x3
 7372 00bd 0E       		.uleb128 0xe
 7373 00be 0B       		.uleb128 0xb
 7374 00bf 0B       		.uleb128 0xb
 7375 00c0 3A       		.uleb128 0x3a
 7376 00c1 0B       		.uleb128 0xb
 7377 00c2 3B       		.uleb128 0x3b
 7378 00c3 0B       		.uleb128 0xb
 7379 00c4 39       		.uleb128 0x39
 7380 00c5 0B       		.uleb128 0xb
 7381 00c6 01       		.uleb128 0x1
 7382 00c7 13       		.uleb128 0x13
 7383 00c8 00       		.byte	0
 7384 00c9 00       		.byte	0
 7385 00ca 0F       		.uleb128 0xf
 7386 00cb 24       		.uleb128 0x24
 7387 00cc 00       		.byte	0
ARM GAS  C:\Users\DEVELO~1\AppData\Local\Temp\ccFr3SeA.s 			page 131


 7388 00cd 0B       		.uleb128 0xb
 7389 00ce 0B       		.uleb128 0xb
 7390 00cf 3E       		.uleb128 0x3e
 7391 00d0 0B       		.uleb128 0xb
 7392 00d1 03       		.uleb128 0x3
 7393 00d2 0E       		.uleb128 0xe
 7394 00d3 00       		.byte	0
 7395 00d4 00       		.byte	0
 7396 00d5 10       		.uleb128 0x10
 7397 00d6 34       		.uleb128 0x34
 7398 00d7 00       		.byte	0
 7399 00d8 03       		.uleb128 0x3
 7400 00d9 0E       		.uleb128 0xe
 7401 00da 3A       		.uleb128 0x3a
 7402 00db 21       		.uleb128 0x21
 7403 00dc 04       		.sleb128 4
 7404 00dd 3B       		.uleb128 0x3b
 7405 00de 05       		.uleb128 0x5
 7406 00df 39       		.uleb128 0x39
 7407 00e0 0B       		.uleb128 0xb
 7408 00e1 49       		.uleb128 0x49
 7409 00e2 13       		.uleb128 0x13
 7410 00e3 02       		.uleb128 0x2
 7411 00e4 18       		.uleb128 0x18
 7412 00e5 00       		.byte	0
 7413 00e6 00       		.byte	0
 7414 00e7 11       		.uleb128 0x11
 7415 00e8 01       		.uleb128 0x1
 7416 00e9 01       		.byte	0x1
 7417 00ea 49       		.uleb128 0x49
 7418 00eb 13       		.uleb128 0x13
 7419 00ec 01       		.uleb128 0x1
 7420 00ed 13       		.uleb128 0x13
 7421 00ee 00       		.byte	0
 7422 00ef 00       		.byte	0
 7423 00f0 12       		.uleb128 0x12
 7424 00f1 21       		.uleb128 0x21
 7425 00f2 00       		.byte	0
 7426 00f3 49       		.uleb128 0x49
 7427 00f4 13       		.uleb128 0x13
 7428 00f5 2F       		.uleb128 0x2f
 7429 00f6 0B       		.uleb128 0xb
 7430 00f7 00       		.byte	0
 7431 00f8 00       		.byte	0
 7432 00f9 13       		.uleb128 0x13
 7433 00fa 05       		.uleb128 0x5
 7434 00fb 00       		.byte	0
 7435 00fc 03       		.uleb128 0x3
 7436 00fd 08       		.uleb128 0x8
 7437 00fe 3A       		.uleb128 0x3a
 7438 00ff 21       		.uleb128 0x21
 7439 0100 04       		.sleb128 4
 7440 0101 3B       		.uleb128 0x3b
 7441 0102 05       		.uleb128 0x5
 7442 0103 39       		.uleb128 0x39
 7443 0104 0B       		.uleb128 0xb
 7444 0105 49       		.uleb128 0x49
ARM GAS  C:\Users\DEVELO~1\AppData\Local\Temp\ccFr3SeA.s 			page 132


 7445 0106 13       		.uleb128 0x13
 7446 0107 02       		.uleb128 0x2
 7447 0108 18       		.uleb128 0x18
 7448 0109 00       		.byte	0
 7449 010a 00       		.byte	0
 7450 010b 14       		.uleb128 0x14
 7451 010c 13       		.uleb128 0x13
 7452 010d 01       		.byte	0x1
 7453 010e 0B       		.uleb128 0xb
 7454 010f 0B       		.uleb128 0xb
 7455 0110 3A       		.uleb128 0x3a
 7456 0111 0B       		.uleb128 0xb
 7457 0112 3B       		.uleb128 0x3b
 7458 0113 0B       		.uleb128 0xb
 7459 0114 39       		.uleb128 0x39
 7460 0115 0B       		.uleb128 0xb
 7461 0116 01       		.uleb128 0x1
 7462 0117 13       		.uleb128 0x13
 7463 0118 00       		.byte	0
 7464 0119 00       		.byte	0
 7465 011a 15       		.uleb128 0x15
 7466 011b 2E       		.uleb128 0x2e
 7467 011c 01       		.byte	0x1
 7468 011d 3F       		.uleb128 0x3f
 7469 011e 19       		.uleb128 0x19
 7470 011f 03       		.uleb128 0x3
 7471 0120 0E       		.uleb128 0xe
 7472 0121 3A       		.uleb128 0x3a
 7473 0122 21       		.uleb128 0x21
 7474 0123 04       		.sleb128 4
 7475 0124 3B       		.uleb128 0x3b
 7476 0125 05       		.uleb128 0x5
 7477 0126 39       		.uleb128 0x39
 7478 0127 0B       		.uleb128 0xb
 7479 0128 27       		.uleb128 0x27
 7480 0129 19       		.uleb128 0x19
 7481 012a 49       		.uleb128 0x49
 7482 012b 13       		.uleb128 0x13
 7483 012c 11       		.uleb128 0x11
 7484 012d 01       		.uleb128 0x1
 7485 012e 12       		.uleb128 0x12
 7486 012f 06       		.uleb128 0x6
 7487 0130 40       		.uleb128 0x40
 7488 0131 18       		.uleb128 0x18
 7489 0132 7A       		.uleb128 0x7a
 7490 0133 19       		.uleb128 0x19
 7491 0134 01       		.uleb128 0x1
 7492 0135 13       		.uleb128 0x13
 7493 0136 00       		.byte	0
 7494 0137 00       		.byte	0
 7495 0138 16       		.uleb128 0x16
 7496 0139 26       		.uleb128 0x26
 7497 013a 00       		.byte	0
 7498 013b 49       		.uleb128 0x49
 7499 013c 13       		.uleb128 0x13
 7500 013d 00       		.byte	0
 7501 013e 00       		.byte	0
ARM GAS  C:\Users\DEVELO~1\AppData\Local\Temp\ccFr3SeA.s 			page 133


 7502 013f 17       		.uleb128 0x17
 7503 0140 0D       		.uleb128 0xd
 7504 0141 00       		.byte	0
 7505 0142 03       		.uleb128 0x3
 7506 0143 0E       		.uleb128 0xe
 7507 0144 3A       		.uleb128 0x3a
 7508 0145 0B       		.uleb128 0xb
 7509 0146 3B       		.uleb128 0x3b
 7510 0147 0B       		.uleb128 0xb
 7511 0148 39       		.uleb128 0x39
 7512 0149 0B       		.uleb128 0xb
 7513 014a 49       		.uleb128 0x49
 7514 014b 13       		.uleb128 0x13
 7515 014c 00       		.byte	0
 7516 014d 00       		.byte	0
 7517 014e 18       		.uleb128 0x18
 7518 014f 13       		.uleb128 0x13
 7519 0150 01       		.byte	0x1
 7520 0151 0B       		.uleb128 0xb
 7521 0152 0B       		.uleb128 0xb
 7522 0153 3A       		.uleb128 0x3a
 7523 0154 0B       		.uleb128 0xb
 7524 0155 3B       		.uleb128 0x3b
 7525 0156 05       		.uleb128 0x5
 7526 0157 39       		.uleb128 0x39
 7527 0158 21       		.uleb128 0x21
 7528 0159 09       		.sleb128 9
 7529 015a 01       		.uleb128 0x1
 7530 015b 13       		.uleb128 0x13
 7531 015c 00       		.byte	0
 7532 015d 00       		.byte	0
 7533 015e 19       		.uleb128 0x19
 7534 015f 0D       		.uleb128 0xd
 7535 0160 00       		.byte	0
 7536 0161 03       		.uleb128 0x3
 7537 0162 0E       		.uleb128 0xe
 7538 0163 3A       		.uleb128 0x3a
 7539 0164 21       		.uleb128 0x21
 7540 0165 0B       		.sleb128 11
 7541 0166 3B       		.uleb128 0x3b
 7542 0167 05       		.uleb128 0x5
 7543 0168 39       		.uleb128 0x39
 7544 0169 0B       		.uleb128 0xb
 7545 016a 49       		.uleb128 0x49
 7546 016b 13       		.uleb128 0x13
 7547 016c 00       		.byte	0
 7548 016d 00       		.byte	0
 7549 016e 1A       		.uleb128 0x1a
 7550 016f 0B       		.uleb128 0xb
 7551 0170 01       		.byte	0x1
 7552 0171 11       		.uleb128 0x11
 7553 0172 01       		.uleb128 0x1
 7554 0173 12       		.uleb128 0x12
 7555 0174 06       		.uleb128 0x6
 7556 0175 01       		.uleb128 0x1
 7557 0176 13       		.uleb128 0x13
 7558 0177 00       		.byte	0
ARM GAS  C:\Users\DEVELO~1\AppData\Local\Temp\ccFr3SeA.s 			page 134


 7559 0178 00       		.byte	0
 7560 0179 1B       		.uleb128 0x1b
 7561 017a 34       		.uleb128 0x34
 7562 017b 00       		.byte	0
 7563 017c 03       		.uleb128 0x3
 7564 017d 08       		.uleb128 0x8
 7565 017e 3A       		.uleb128 0x3a
 7566 017f 21       		.uleb128 0x21
 7567 0180 04       		.sleb128 4
 7568 0181 3B       		.uleb128 0x3b
 7569 0182 0B       		.uleb128 0xb
 7570 0183 39       		.uleb128 0x39
 7571 0184 0B       		.uleb128 0xb
 7572 0185 49       		.uleb128 0x49
 7573 0186 13       		.uleb128 0x13
 7574 0187 02       		.uleb128 0x2
 7575 0188 18       		.uleb128 0x18
 7576 0189 00       		.byte	0
 7577 018a 00       		.byte	0
 7578 018b 1C       		.uleb128 0x1c
 7579 018c 0D       		.uleb128 0xd
 7580 018d 00       		.byte	0
 7581 018e 03       		.uleb128 0x3
 7582 018f 08       		.uleb128 0x8
 7583 0190 3A       		.uleb128 0x3a
 7584 0191 0B       		.uleb128 0xb
 7585 0192 3B       		.uleb128 0x3b
 7586 0193 0B       		.uleb128 0xb
 7587 0194 39       		.uleb128 0x39
 7588 0195 0B       		.uleb128 0xb
 7589 0196 49       		.uleb128 0x49
 7590 0197 13       		.uleb128 0x13
 7591 0198 00       		.byte	0
 7592 0199 00       		.byte	0
 7593 019a 1D       		.uleb128 0x1d
 7594 019b 13       		.uleb128 0x13
 7595 019c 01       		.byte	0x1
 7596 019d 03       		.uleb128 0x3
 7597 019e 0E       		.uleb128 0xe
 7598 019f 0B       		.uleb128 0xb
 7599 01a0 0B       		.uleb128 0xb
 7600 01a1 3A       		.uleb128 0x3a
 7601 01a2 0B       		.uleb128 0xb
 7602 01a3 3B       		.uleb128 0x3b
 7603 01a4 05       		.uleb128 0x5
 7604 01a5 39       		.uleb128 0x39
 7605 01a6 0B       		.uleb128 0xb
 7606 01a7 01       		.uleb128 0x1
 7607 01a8 13       		.uleb128 0x13
 7608 01a9 00       		.byte	0
 7609 01aa 00       		.byte	0
 7610 01ab 1E       		.uleb128 0x1e
 7611 01ac 04       		.uleb128 0x4
 7612 01ad 01       		.byte	0x1
 7613 01ae 3E       		.uleb128 0x3e
 7614 01af 21       		.uleb128 0x21
 7615 01b0 07       		.sleb128 7
ARM GAS  C:\Users\DEVELO~1\AppData\Local\Temp\ccFr3SeA.s 			page 135


 7616 01b1 0B       		.uleb128 0xb
 7617 01b2 21       		.uleb128 0x21
 7618 01b3 01       		.sleb128 1
 7619 01b4 49       		.uleb128 0x49
 7620 01b5 13       		.uleb128 0x13
 7621 01b6 3A       		.uleb128 0x3a
 7622 01b7 0B       		.uleb128 0xb
 7623 01b8 3B       		.uleb128 0x3b
 7624 01b9 0B       		.uleb128 0xb
 7625 01ba 39       		.uleb128 0x39
 7626 01bb 21       		.uleb128 0x21
 7627 01bc 0E       		.sleb128 14
 7628 01bd 01       		.uleb128 0x1
 7629 01be 13       		.uleb128 0x13
 7630 01bf 00       		.byte	0
 7631 01c0 00       		.byte	0
 7632 01c1 1F       		.uleb128 0x1f
 7633 01c2 17       		.uleb128 0x17
 7634 01c3 01       		.byte	0x1
 7635 01c4 0B       		.uleb128 0xb
 7636 01c5 0B       		.uleb128 0xb
 7637 01c6 3A       		.uleb128 0x3a
 7638 01c7 0B       		.uleb128 0xb
 7639 01c8 3B       		.uleb128 0x3b
 7640 01c9 0B       		.uleb128 0xb
 7641 01ca 39       		.uleb128 0x39
 7642 01cb 0B       		.uleb128 0xb
 7643 01cc 01       		.uleb128 0x1
 7644 01cd 13       		.uleb128 0x13
 7645 01ce 00       		.byte	0
 7646 01cf 00       		.byte	0
 7647 01d0 20       		.uleb128 0x20
 7648 01d1 0B       		.uleb128 0xb
 7649 01d2 01       		.byte	0x1
 7650 01d3 11       		.uleb128 0x11
 7651 01d4 01       		.uleb128 0x1
 7652 01d5 12       		.uleb128 0x12
 7653 01d6 06       		.uleb128 0x6
 7654 01d7 00       		.byte	0
 7655 01d8 00       		.byte	0
 7656 01d9 21       		.uleb128 0x21
 7657 01da 2E       		.uleb128 0x2e
 7658 01db 01       		.byte	0x1
 7659 01dc 03       		.uleb128 0x3
 7660 01dd 0E       		.uleb128 0xe
 7661 01de 3A       		.uleb128 0x3a
 7662 01df 21       		.uleb128 0x21
 7663 01e0 04       		.sleb128 4
 7664 01e1 3B       		.uleb128 0x3b
 7665 01e2 05       		.uleb128 0x5
 7666 01e3 39       		.uleb128 0x39
 7667 01e4 0B       		.uleb128 0xb
 7668 01e5 27       		.uleb128 0x27
 7669 01e6 19       		.uleb128 0x19
 7670 01e7 49       		.uleb128 0x49
 7671 01e8 13       		.uleb128 0x13
 7672 01e9 11       		.uleb128 0x11
ARM GAS  C:\Users\DEVELO~1\AppData\Local\Temp\ccFr3SeA.s 			page 136


 7673 01ea 01       		.uleb128 0x1
 7674 01eb 12       		.uleb128 0x12
 7675 01ec 06       		.uleb128 0x6
 7676 01ed 40       		.uleb128 0x40
 7677 01ee 18       		.uleb128 0x18
 7678 01ef 7A       		.uleb128 0x7a
 7679 01f0 19       		.uleb128 0x19
 7680 01f1 01       		.uleb128 0x1
 7681 01f2 13       		.uleb128 0x13
 7682 01f3 00       		.byte	0
 7683 01f4 00       		.byte	0
 7684 01f5 22       		.uleb128 0x22
 7685 01f6 1D       		.uleb128 0x1d
 7686 01f7 01       		.byte	0x1
 7687 01f8 31       		.uleb128 0x31
 7688 01f9 13       		.uleb128 0x13
 7689 01fa 11       		.uleb128 0x11
 7690 01fb 01       		.uleb128 0x1
 7691 01fc 12       		.uleb128 0x12
 7692 01fd 06       		.uleb128 0x6
 7693 01fe 58       		.uleb128 0x58
 7694 01ff 0B       		.uleb128 0xb
 7695 0200 59       		.uleb128 0x59
 7696 0201 05       		.uleb128 0x5
 7697 0202 57       		.uleb128 0x57
 7698 0203 21       		.uleb128 0x21
 7699 0204 03       		.sleb128 3
 7700 0205 00       		.byte	0
 7701 0206 00       		.byte	0
 7702 0207 23       		.uleb128 0x23
 7703 0208 0D       		.uleb128 0xd
 7704 0209 00       		.byte	0
 7705 020a 03       		.uleb128 0x3
 7706 020b 0E       		.uleb128 0xe
 7707 020c 3A       		.uleb128 0x3a
 7708 020d 21       		.uleb128 0x21
 7709 020e 10       		.sleb128 16
 7710 020f 3B       		.uleb128 0x3b
 7711 0210 0B       		.uleb128 0xb
 7712 0211 39       		.uleb128 0x39
 7713 0212 21       		.uleb128 0x21
 7714 0213 19       		.sleb128 25
 7715 0214 49       		.uleb128 0x49
 7716 0215 13       		.uleb128 0x13
 7717 0216 0D       		.uleb128 0xd
 7718 0217 0B       		.uleb128 0xb
 7719 0218 6B       		.uleb128 0x6b
 7720 0219 0B       		.uleb128 0xb
 7721 021a 00       		.byte	0
 7722 021b 00       		.byte	0
 7723 021c 24       		.uleb128 0x24
 7724 021d 15       		.uleb128 0x15
 7725 021e 01       		.byte	0x1
 7726 021f 27       		.uleb128 0x27
 7727 0220 19       		.uleb128 0x19
 7728 0221 01       		.uleb128 0x1
 7729 0222 13       		.uleb128 0x13
ARM GAS  C:\Users\DEVELO~1\AppData\Local\Temp\ccFr3SeA.s 			page 137


 7730 0223 00       		.byte	0
 7731 0224 00       		.byte	0
 7732 0225 25       		.uleb128 0x25
 7733 0226 34       		.uleb128 0x34
 7734 0227 00       		.byte	0
 7735 0228 03       		.uleb128 0x3
 7736 0229 0E       		.uleb128 0xe
 7737 022a 3A       		.uleb128 0x3a
 7738 022b 0B       		.uleb128 0xb
 7739 022c 3B       		.uleb128 0x3b
 7740 022d 05       		.uleb128 0x5
 7741 022e 39       		.uleb128 0x39
 7742 022f 21       		.uleb128 0x21
 7743 0230 12       		.sleb128 18
 7744 0231 49       		.uleb128 0x49
 7745 0232 13       		.uleb128 0x13
 7746 0233 3F       		.uleb128 0x3f
 7747 0234 19       		.uleb128 0x19
 7748 0235 3C       		.uleb128 0x3c
 7749 0236 19       		.uleb128 0x19
 7750 0237 00       		.byte	0
 7751 0238 00       		.byte	0
 7752 0239 26       		.uleb128 0x26
 7753 023a 2E       		.uleb128 0x2e
 7754 023b 01       		.byte	0x1
 7755 023c 3F       		.uleb128 0x3f
 7756 023d 19       		.uleb128 0x19
 7757 023e 03       		.uleb128 0x3
 7758 023f 0E       		.uleb128 0xe
 7759 0240 3A       		.uleb128 0x3a
 7760 0241 0B       		.uleb128 0xb
 7761 0242 3B       		.uleb128 0x3b
 7762 0243 05       		.uleb128 0x5
 7763 0244 39       		.uleb128 0x39
 7764 0245 21       		.uleb128 0x21
 7765 0246 08       		.sleb128 8
 7766 0247 27       		.uleb128 0x27
 7767 0248 19       		.uleb128 0x19
 7768 0249 3C       		.uleb128 0x3c
 7769 024a 19       		.uleb128 0x19
 7770 024b 01       		.uleb128 0x1
 7771 024c 13       		.uleb128 0x13
 7772 024d 00       		.byte	0
 7773 024e 00       		.byte	0
 7774 024f 27       		.uleb128 0x27
 7775 0250 2E       		.uleb128 0x2e
 7776 0251 00       		.byte	0
 7777 0252 3F       		.uleb128 0x3f
 7778 0253 19       		.uleb128 0x19
 7779 0254 03       		.uleb128 0x3
 7780 0255 0E       		.uleb128 0xe
 7781 0256 3A       		.uleb128 0x3a
 7782 0257 21       		.uleb128 0x21
 7783 0258 04       		.sleb128 4
 7784 0259 3B       		.uleb128 0x3b
 7785 025a 05       		.uleb128 0x5
 7786 025b 39       		.uleb128 0x39
ARM GAS  C:\Users\DEVELO~1\AppData\Local\Temp\ccFr3SeA.s 			page 138


 7787 025c 21       		.uleb128 0x21
 7788 025d 09       		.sleb128 9
 7789 025e 27       		.uleb128 0x27
 7790 025f 19       		.uleb128 0x19
 7791 0260 49       		.uleb128 0x49
 7792 0261 13       		.uleb128 0x13
 7793 0262 11       		.uleb128 0x11
 7794 0263 01       		.uleb128 0x1
 7795 0264 12       		.uleb128 0x12
 7796 0265 06       		.uleb128 0x6
 7797 0266 40       		.uleb128 0x40
 7798 0267 18       		.uleb128 0x18
 7799 0268 7A       		.uleb128 0x7a
 7800 0269 19       		.uleb128 0x19
 7801 026a 00       		.byte	0
 7802 026b 00       		.byte	0
 7803 026c 28       		.uleb128 0x28
 7804 026d 2E       		.uleb128 0x2e
 7805 026e 01       		.byte	0x1
 7806 026f 3F       		.uleb128 0x3f
 7807 0270 19       		.uleb128 0x19
 7808 0271 03       		.uleb128 0x3
 7809 0272 0E       		.uleb128 0xe
 7810 0273 3A       		.uleb128 0x3a
 7811 0274 21       		.uleb128 0x21
 7812 0275 04       		.sleb128 4
 7813 0276 3B       		.uleb128 0x3b
 7814 0277 05       		.uleb128 0x5
 7815 0278 39       		.uleb128 0x39
 7816 0279 21       		.uleb128 0x21
 7817 027a 06       		.sleb128 6
 7818 027b 27       		.uleb128 0x27
 7819 027c 19       		.uleb128 0x19
 7820 027d 11       		.uleb128 0x11
 7821 027e 01       		.uleb128 0x1
 7822 027f 12       		.uleb128 0x12
 7823 0280 06       		.uleb128 0x6
 7824 0281 40       		.uleb128 0x40
 7825 0282 18       		.uleb128 0x18
 7826 0283 7A       		.uleb128 0x7a
 7827 0284 19       		.uleb128 0x19
 7828 0285 01       		.uleb128 0x1
 7829 0286 13       		.uleb128 0x13
 7830 0287 00       		.byte	0
 7831 0288 00       		.byte	0
 7832 0289 29       		.uleb128 0x29
 7833 028a 2E       		.uleb128 0x2e
 7834 028b 01       		.byte	0x1
 7835 028c 3F       		.uleb128 0x3f
 7836 028d 19       		.uleb128 0x19
 7837 028e 03       		.uleb128 0x3
 7838 028f 0E       		.uleb128 0xe
 7839 0290 3A       		.uleb128 0x3a
 7840 0291 21       		.uleb128 0x21
 7841 0292 04       		.sleb128 4
 7842 0293 3B       		.uleb128 0x3b
 7843 0294 05       		.uleb128 0x5
ARM GAS  C:\Users\DEVELO~1\AppData\Local\Temp\ccFr3SeA.s 			page 139


 7844 0295 39       		.uleb128 0x39
 7845 0296 21       		.uleb128 0x21
 7846 0297 06       		.sleb128 6
 7847 0298 27       		.uleb128 0x27
 7848 0299 19       		.uleb128 0x19
 7849 029a 49       		.uleb128 0x49
 7850 029b 13       		.uleb128 0x13
 7851 029c 11       		.uleb128 0x11
 7852 029d 01       		.uleb128 0x1
 7853 029e 12       		.uleb128 0x12
 7854 029f 06       		.uleb128 0x6
 7855 02a0 40       		.uleb128 0x40
 7856 02a1 18       		.uleb128 0x18
 7857 02a2 7C       		.uleb128 0x7c
 7858 02a3 19       		.uleb128 0x19
 7859 02a4 01       		.uleb128 0x1
 7860 02a5 13       		.uleb128 0x13
 7861 02a6 00       		.byte	0
 7862 02a7 00       		.byte	0
 7863 02a8 2A       		.uleb128 0x2a
 7864 02a9 2E       		.uleb128 0x2e
 7865 02aa 01       		.byte	0x1
 7866 02ab 03       		.uleb128 0x3
 7867 02ac 0E       		.uleb128 0xe
 7868 02ad 3A       		.uleb128 0x3a
 7869 02ae 21       		.uleb128 0x21
 7870 02af 04       		.sleb128 4
 7871 02b0 3B       		.uleb128 0x3b
 7872 02b1 05       		.uleb128 0x5
 7873 02b2 39       		.uleb128 0x39
 7874 02b3 21       		.uleb128 0x21
 7875 02b4 0D       		.sleb128 13
 7876 02b5 27       		.uleb128 0x27
 7877 02b6 19       		.uleb128 0x19
 7878 02b7 11       		.uleb128 0x11
 7879 02b8 01       		.uleb128 0x1
 7880 02b9 12       		.uleb128 0x12
 7881 02ba 06       		.uleb128 0x6
 7882 02bb 40       		.uleb128 0x40
 7883 02bc 18       		.uleb128 0x18
 7884 02bd 7C       		.uleb128 0x7c
 7885 02be 19       		.uleb128 0x19
 7886 02bf 01       		.uleb128 0x1
 7887 02c0 13       		.uleb128 0x13
 7888 02c1 00       		.byte	0
 7889 02c2 00       		.byte	0
 7890 02c3 2B       		.uleb128 0x2b
 7891 02c4 2E       		.uleb128 0x2e
 7892 02c5 01       		.byte	0x1
 7893 02c6 03       		.uleb128 0x3
 7894 02c7 0E       		.uleb128 0xe
 7895 02c8 3A       		.uleb128 0x3a
 7896 02c9 21       		.uleb128 0x21
 7897 02ca 04       		.sleb128 4
 7898 02cb 3B       		.uleb128 0x3b
 7899 02cc 05       		.uleb128 0x5
 7900 02cd 39       		.uleb128 0x39
ARM GAS  C:\Users\DEVELO~1\AppData\Local\Temp\ccFr3SeA.s 			page 140


 7901 02ce 21       		.uleb128 0x21
 7902 02cf 10       		.sleb128 16
 7903 02d0 27       		.uleb128 0x27
 7904 02d1 19       		.uleb128 0x19
 7905 02d2 49       		.uleb128 0x49
 7906 02d3 13       		.uleb128 0x13
 7907 02d4 11       		.uleb128 0x11
 7908 02d5 01       		.uleb128 0x1
 7909 02d6 12       		.uleb128 0x12
 7910 02d7 06       		.uleb128 0x6
 7911 02d8 40       		.uleb128 0x40
 7912 02d9 18       		.uleb128 0x18
 7913 02da 7C       		.uleb128 0x7c
 7914 02db 19       		.uleb128 0x19
 7915 02dc 01       		.uleb128 0x1
 7916 02dd 13       		.uleb128 0x13
 7917 02de 00       		.byte	0
 7918 02df 00       		.byte	0
 7919 02e0 2C       		.uleb128 0x2c
 7920 02e1 05       		.uleb128 0x5
 7921 02e2 00       		.byte	0
 7922 02e3 03       		.uleb128 0x3
 7923 02e4 08       		.uleb128 0x8
 7924 02e5 3A       		.uleb128 0x3a
 7925 02e6 21       		.uleb128 0x21
 7926 02e7 04       		.sleb128 4
 7927 02e8 3B       		.uleb128 0x3b
 7928 02e9 0B       		.uleb128 0xb
 7929 02ea 39       		.uleb128 0x39
 7930 02eb 0B       		.uleb128 0xb
 7931 02ec 49       		.uleb128 0x49
 7932 02ed 13       		.uleb128 0x13
 7933 02ee 02       		.uleb128 0x2
 7934 02ef 18       		.uleb128 0x18
 7935 02f0 00       		.byte	0
 7936 02f1 00       		.byte	0
 7937 02f2 2D       		.uleb128 0x2d
 7938 02f3 2E       		.uleb128 0x2e
 7939 02f4 01       		.byte	0x1
 7940 02f5 03       		.uleb128 0x3
 7941 02f6 0E       		.uleb128 0xe
 7942 02f7 3A       		.uleb128 0x3a
 7943 02f8 21       		.uleb128 0x21
 7944 02f9 01       		.sleb128 1
 7945 02fa 3B       		.uleb128 0x3b
 7946 02fb 05       		.uleb128 0x5
 7947 02fc 39       		.uleb128 0x39
 7948 02fd 21       		.uleb128 0x21
 7949 02fe 14       		.sleb128 20
 7950 02ff 27       		.uleb128 0x27
 7951 0300 19       		.uleb128 0x19
 7952 0301 11       		.uleb128 0x11
 7953 0302 01       		.uleb128 0x1
 7954 0303 12       		.uleb128 0x12
 7955 0304 06       		.uleb128 0x6
 7956 0305 40       		.uleb128 0x40
 7957 0306 18       		.uleb128 0x18
ARM GAS  C:\Users\DEVELO~1\AppData\Local\Temp\ccFr3SeA.s 			page 141


 7958 0307 7A       		.uleb128 0x7a
 7959 0308 19       		.uleb128 0x19
 7960 0309 01       		.uleb128 0x1
 7961 030a 13       		.uleb128 0x13
 7962 030b 00       		.byte	0
 7963 030c 00       		.byte	0
 7964 030d 2E       		.uleb128 0x2e
 7965 030e 05       		.uleb128 0x5
 7966 030f 00       		.byte	0
 7967 0310 31       		.uleb128 0x31
 7968 0311 13       		.uleb128 0x13
 7969 0312 02       		.uleb128 0x2
 7970 0313 18       		.uleb128 0x18
 7971 0314 00       		.byte	0
 7972 0315 00       		.byte	0
 7973 0316 2F       		.uleb128 0x2f
 7974 0317 2E       		.uleb128 0x2e
 7975 0318 00       		.byte	0
 7976 0319 03       		.uleb128 0x3
 7977 031a 0E       		.uleb128 0xe
 7978 031b 3A       		.uleb128 0x3a
 7979 031c 21       		.uleb128 0x21
 7980 031d 03       		.sleb128 3
 7981 031e 3B       		.uleb128 0x3b
 7982 031f 05       		.uleb128 0x5
 7983 0320 39       		.uleb128 0x39
 7984 0321 21       		.uleb128 0x21
 7985 0322 1B       		.sleb128 27
 7986 0323 27       		.uleb128 0x27
 7987 0324 19       		.uleb128 0x19
 7988 0325 20       		.uleb128 0x20
 7989 0326 21       		.uleb128 0x21
 7990 0327 03       		.sleb128 3
 7991 0328 00       		.byte	0
 7992 0329 00       		.byte	0
 7993 032a 30       		.uleb128 0x30
 7994 032b 11       		.uleb128 0x11
 7995 032c 01       		.byte	0x1
 7996 032d 25       		.uleb128 0x25
 7997 032e 0E       		.uleb128 0xe
 7998 032f 13       		.uleb128 0x13
 7999 0330 0B       		.uleb128 0xb
 8000 0331 03       		.uleb128 0x3
 8001 0332 0E       		.uleb128 0xe
 8002 0333 1B       		.uleb128 0x1b
 8003 0334 0E       		.uleb128 0xe
 8004 0335 55       		.uleb128 0x55
 8005 0336 17       		.uleb128 0x17
 8006 0337 11       		.uleb128 0x11
 8007 0338 01       		.uleb128 0x1
 8008 0339 10       		.uleb128 0x10
 8009 033a 17       		.uleb128 0x17
 8010 033b 00       		.byte	0
 8011 033c 00       		.byte	0
 8012 033d 31       		.uleb128 0x31
 8013 033e 24       		.uleb128 0x24
 8014 033f 00       		.byte	0
ARM GAS  C:\Users\DEVELO~1\AppData\Local\Temp\ccFr3SeA.s 			page 142


 8015 0340 0B       		.uleb128 0xb
 8016 0341 0B       		.uleb128 0xb
 8017 0342 3E       		.uleb128 0x3e
 8018 0343 0B       		.uleb128 0xb
 8019 0344 03       		.uleb128 0x3
 8020 0345 08       		.uleb128 0x8
 8021 0346 00       		.byte	0
 8022 0347 00       		.byte	0
 8023 0348 32       		.uleb128 0x32
 8024 0349 13       		.uleb128 0x13
 8025 034a 01       		.byte	0x1
 8026 034b 03       		.uleb128 0x3
 8027 034c 0E       		.uleb128 0xe
 8028 034d 0B       		.uleb128 0xb
 8029 034e 05       		.uleb128 0x5
 8030 034f 3A       		.uleb128 0x3a
 8031 0350 0B       		.uleb128 0xb
 8032 0351 3B       		.uleb128 0x3b
 8033 0352 05       		.uleb128 0x5
 8034 0353 39       		.uleb128 0x39
 8035 0354 0B       		.uleb128 0xb
 8036 0355 01       		.uleb128 0x1
 8037 0356 13       		.uleb128 0x13
 8038 0357 00       		.byte	0
 8039 0358 00       		.byte	0
 8040 0359 33       		.uleb128 0x33
 8041 035a 0F       		.uleb128 0xf
 8042 035b 00       		.byte	0
 8043 035c 0B       		.uleb128 0xb
 8044 035d 0B       		.uleb128 0xb
 8045 035e 00       		.byte	0
 8046 035f 00       		.byte	0
 8047 0360 34       		.uleb128 0x34
 8048 0361 13       		.uleb128 0x13
 8049 0362 01       		.byte	0x1
 8050 0363 0B       		.uleb128 0xb
 8051 0364 05       		.uleb128 0x5
 8052 0365 3A       		.uleb128 0x3a
 8053 0366 0B       		.uleb128 0xb
 8054 0367 3B       		.uleb128 0x3b
 8055 0368 0B       		.uleb128 0xb
 8056 0369 39       		.uleb128 0x39
 8057 036a 0B       		.uleb128 0xb
 8058 036b 01       		.uleb128 0x1
 8059 036c 13       		.uleb128 0x13
 8060 036d 00       		.byte	0
 8061 036e 00       		.byte	0
 8062 036f 35       		.uleb128 0x35
 8063 0370 17       		.uleb128 0x17
 8064 0371 01       		.byte	0x1
 8065 0372 0B       		.uleb128 0xb
 8066 0373 0B       		.uleb128 0xb
 8067 0374 3A       		.uleb128 0x3a
 8068 0375 0B       		.uleb128 0xb
 8069 0376 3B       		.uleb128 0x3b
 8070 0377 05       		.uleb128 0x5
 8071 0378 39       		.uleb128 0x39
ARM GAS  C:\Users\DEVELO~1\AppData\Local\Temp\ccFr3SeA.s 			page 143


 8072 0379 0B       		.uleb128 0xb
 8073 037a 01       		.uleb128 0x1
 8074 037b 13       		.uleb128 0x13
 8075 037c 00       		.byte	0
 8076 037d 00       		.byte	0
 8077 037e 36       		.uleb128 0x36
 8078 037f 0D       		.uleb128 0xd
 8079 0380 00       		.byte	0
 8080 0381 03       		.uleb128 0x3
 8081 0382 08       		.uleb128 0x8
 8082 0383 3A       		.uleb128 0x3a
 8083 0384 0B       		.uleb128 0xb
 8084 0385 3B       		.uleb128 0x3b
 8085 0386 05       		.uleb128 0x5
 8086 0387 39       		.uleb128 0x39
 8087 0388 0B       		.uleb128 0xb
 8088 0389 49       		.uleb128 0x49
 8089 038a 13       		.uleb128 0x13
 8090 038b 00       		.byte	0
 8091 038c 00       		.byte	0
 8092 038d 37       		.uleb128 0x37
 8093 038e 2E       		.uleb128 0x2e
 8094 038f 01       		.byte	0x1
 8095 0390 3F       		.uleb128 0x3f
 8096 0391 19       		.uleb128 0x19
 8097 0392 03       		.uleb128 0x3
 8098 0393 0E       		.uleb128 0xe
 8099 0394 3A       		.uleb128 0x3a
 8100 0395 0B       		.uleb128 0xb
 8101 0396 3B       		.uleb128 0x3b
 8102 0397 0B       		.uleb128 0xb
 8103 0398 39       		.uleb128 0x39
 8104 0399 0B       		.uleb128 0xb
 8105 039a 27       		.uleb128 0x27
 8106 039b 19       		.uleb128 0x19
 8107 039c 3C       		.uleb128 0x3c
 8108 039d 19       		.uleb128 0x19
 8109 039e 01       		.uleb128 0x1
 8110 039f 13       		.uleb128 0x13
 8111 03a0 00       		.byte	0
 8112 03a1 00       		.byte	0
 8113 03a2 38       		.uleb128 0x38
 8114 03a3 2E       		.uleb128 0x2e
 8115 03a4 01       		.byte	0x1
 8116 03a5 3F       		.uleb128 0x3f
 8117 03a6 19       		.uleb128 0x19
 8118 03a7 03       		.uleb128 0x3
 8119 03a8 0E       		.uleb128 0xe
 8120 03a9 3A       		.uleb128 0x3a
 8121 03aa 0B       		.uleb128 0xb
 8122 03ab 3B       		.uleb128 0x3b
 8123 03ac 05       		.uleb128 0x5
 8124 03ad 39       		.uleb128 0x39
 8125 03ae 0B       		.uleb128 0xb
 8126 03af 27       		.uleb128 0x27
 8127 03b0 19       		.uleb128 0x19
 8128 03b1 49       		.uleb128 0x49
ARM GAS  C:\Users\DEVELO~1\AppData\Local\Temp\ccFr3SeA.s 			page 144


 8129 03b2 13       		.uleb128 0x13
 8130 03b3 3C       		.uleb128 0x3c
 8131 03b4 19       		.uleb128 0x19
 8132 03b5 01       		.uleb128 0x1
 8133 03b6 13       		.uleb128 0x13
 8134 03b7 00       		.byte	0
 8135 03b8 00       		.byte	0
 8136 03b9 39       		.uleb128 0x39
 8137 03ba 2E       		.uleb128 0x2e
 8138 03bb 01       		.byte	0x1
 8139 03bc 3F       		.uleb128 0x3f
 8140 03bd 19       		.uleb128 0x19
 8141 03be 03       		.uleb128 0x3
 8142 03bf 0E       		.uleb128 0xe
 8143 03c0 3A       		.uleb128 0x3a
 8144 03c1 0B       		.uleb128 0xb
 8145 03c2 3B       		.uleb128 0x3b
 8146 03c3 0B       		.uleb128 0xb
 8147 03c4 39       		.uleb128 0x39
 8148 03c5 0B       		.uleb128 0xb
 8149 03c6 27       		.uleb128 0x27
 8150 03c7 19       		.uleb128 0x19
 8151 03c8 49       		.uleb128 0x49
 8152 03c9 13       		.uleb128 0x13
 8153 03ca 3C       		.uleb128 0x3c
 8154 03cb 19       		.uleb128 0x19
 8155 03cc 01       		.uleb128 0x1
 8156 03cd 13       		.uleb128 0x13
 8157 03ce 00       		.byte	0
 8158 03cf 00       		.byte	0
 8159 03d0 3A       		.uleb128 0x3a
 8160 03d1 2E       		.uleb128 0x2e
 8161 03d2 00       		.byte	0
 8162 03d3 3F       		.uleb128 0x3f
 8163 03d4 19       		.uleb128 0x19
 8164 03d5 03       		.uleb128 0x3
 8165 03d6 0E       		.uleb128 0xe
 8166 03d7 3A       		.uleb128 0x3a
 8167 03d8 0B       		.uleb128 0xb
 8168 03d9 3B       		.uleb128 0x3b
 8169 03da 05       		.uleb128 0x5
 8170 03db 39       		.uleb128 0x39
 8171 03dc 0B       		.uleb128 0xb
 8172 03dd 27       		.uleb128 0x27
 8173 03de 19       		.uleb128 0x19
 8174 03df 11       		.uleb128 0x11
 8175 03e0 01       		.uleb128 0x1
 8176 03e1 12       		.uleb128 0x12
 8177 03e2 06       		.uleb128 0x6
 8178 03e3 40       		.uleb128 0x40
 8179 03e4 18       		.uleb128 0x18
 8180 03e5 7A       		.uleb128 0x7a
 8181 03e6 19       		.uleb128 0x19
 8182 03e7 00       		.byte	0
 8183 03e8 00       		.byte	0
 8184 03e9 3B       		.uleb128 0x3b
 8185 03ea 2E       		.uleb128 0x2e
ARM GAS  C:\Users\DEVELO~1\AppData\Local\Temp\ccFr3SeA.s 			page 145


 8186 03eb 01       		.byte	0x1
 8187 03ec 3F       		.uleb128 0x3f
 8188 03ed 19       		.uleb128 0x19
 8189 03ee 03       		.uleb128 0x3
 8190 03ef 0E       		.uleb128 0xe
 8191 03f0 3A       		.uleb128 0x3a
 8192 03f1 0B       		.uleb128 0xb
 8193 03f2 3B       		.uleb128 0x3b
 8194 03f3 05       		.uleb128 0x5
 8195 03f4 39       		.uleb128 0x39
 8196 03f5 0B       		.uleb128 0xb
 8197 03f6 27       		.uleb128 0x27
 8198 03f7 19       		.uleb128 0x19
 8199 03f8 11       		.uleb128 0x11
 8200 03f9 01       		.uleb128 0x1
 8201 03fa 12       		.uleb128 0x12
 8202 03fb 06       		.uleb128 0x6
 8203 03fc 40       		.uleb128 0x40
 8204 03fd 18       		.uleb128 0x18
 8205 03fe 7C       		.uleb128 0x7c
 8206 03ff 19       		.uleb128 0x19
 8207 0400 01       		.uleb128 0x1
 8208 0401 13       		.uleb128 0x13
 8209 0402 00       		.byte	0
 8210 0403 00       		.byte	0
 8211 0404 3C       		.uleb128 0x3c
 8212 0405 2E       		.uleb128 0x2e
 8213 0406 01       		.byte	0x1
 8214 0407 03       		.uleb128 0x3
 8215 0408 0E       		.uleb128 0xe
 8216 0409 3A       		.uleb128 0x3a
 8217 040a 0B       		.uleb128 0xb
 8218 040b 3B       		.uleb128 0x3b
 8219 040c 0B       		.uleb128 0xb
 8220 040d 39       		.uleb128 0x39
 8221 040e 0B       		.uleb128 0xb
 8222 040f 27       		.uleb128 0x27
 8223 0410 19       		.uleb128 0x19
 8224 0411 49       		.uleb128 0x49
 8225 0412 13       		.uleb128 0x13
 8226 0413 11       		.uleb128 0x11
 8227 0414 01       		.uleb128 0x1
 8228 0415 12       		.uleb128 0x12
 8229 0416 06       		.uleb128 0x6
 8230 0417 40       		.uleb128 0x40
 8231 0418 18       		.uleb128 0x18
 8232 0419 7A       		.uleb128 0x7a
 8233 041a 19       		.uleb128 0x19
 8234 041b 01       		.uleb128 0x1
 8235 041c 13       		.uleb128 0x13
 8236 041d 00       		.byte	0
 8237 041e 00       		.byte	0
 8238 041f 3D       		.uleb128 0x3d
 8239 0420 2E       		.uleb128 0x2e
 8240 0421 01       		.byte	0x1
 8241 0422 03       		.uleb128 0x3
 8242 0423 0E       		.uleb128 0xe
ARM GAS  C:\Users\DEVELO~1\AppData\Local\Temp\ccFr3SeA.s 			page 146


 8243 0424 3A       		.uleb128 0x3a
 8244 0425 0B       		.uleb128 0xb
 8245 0426 3B       		.uleb128 0x3b
 8246 0427 0B       		.uleb128 0xb
 8247 0428 39       		.uleb128 0x39
 8248 0429 0B       		.uleb128 0xb
 8249 042a 27       		.uleb128 0x27
 8250 042b 19       		.uleb128 0x19
 8251 042c 11       		.uleb128 0x11
 8252 042d 01       		.uleb128 0x1
 8253 042e 12       		.uleb128 0x12
 8254 042f 06       		.uleb128 0x6
 8255 0430 40       		.uleb128 0x40
 8256 0431 18       		.uleb128 0x18
 8257 0432 7A       		.uleb128 0x7a
 8258 0433 19       		.uleb128 0x19
 8259 0434 01       		.uleb128 0x1
 8260 0435 13       		.uleb128 0x13
 8261 0436 00       		.byte	0
 8262 0437 00       		.byte	0
 8263 0438 3E       		.uleb128 0x3e
 8264 0439 2E       		.uleb128 0x2e
 8265 043a 01       		.byte	0x1
 8266 043b 03       		.uleb128 0x3
 8267 043c 0E       		.uleb128 0xe
 8268 043d 3A       		.uleb128 0x3a
 8269 043e 0B       		.uleb128 0xb
 8270 043f 3B       		.uleb128 0x3b
 8271 0440 0B       		.uleb128 0xb
 8272 0441 39       		.uleb128 0x39
 8273 0442 0B       		.uleb128 0xb
 8274 0443 27       		.uleb128 0x27
 8275 0444 19       		.uleb128 0x19
 8276 0445 11       		.uleb128 0x11
 8277 0446 01       		.uleb128 0x1
 8278 0447 12       		.uleb128 0x12
 8279 0448 06       		.uleb128 0x6
 8280 0449 40       		.uleb128 0x40
 8281 044a 18       		.uleb128 0x18
 8282 044b 7C       		.uleb128 0x7c
 8283 044c 19       		.uleb128 0x19
 8284 044d 01       		.uleb128 0x1
 8285 044e 13       		.uleb128 0x13
 8286 044f 00       		.byte	0
 8287 0450 00       		.byte	0
 8288 0451 3F       		.uleb128 0x3f
 8289 0452 05       		.uleb128 0x5
 8290 0453 00       		.byte	0
 8291 0454 03       		.uleb128 0x3
 8292 0455 0E       		.uleb128 0xe
 8293 0456 3A       		.uleb128 0x3a
 8294 0457 0B       		.uleb128 0xb
 8295 0458 3B       		.uleb128 0x3b
 8296 0459 0B       		.uleb128 0xb
 8297 045a 39       		.uleb128 0x39
 8298 045b 0B       		.uleb128 0xb
 8299 045c 49       		.uleb128 0x49
ARM GAS  C:\Users\DEVELO~1\AppData\Local\Temp\ccFr3SeA.s 			page 147


 8300 045d 13       		.uleb128 0x13
 8301 045e 02       		.uleb128 0x2
 8302 045f 18       		.uleb128 0x18
 8303 0460 00       		.byte	0
 8304 0461 00       		.byte	0
 8305 0462 40       		.uleb128 0x40
 8306 0463 34       		.uleb128 0x34
 8307 0464 00       		.byte	0
 8308 0465 03       		.uleb128 0x3
 8309 0466 0E       		.uleb128 0xe
 8310 0467 49       		.uleb128 0x49
 8311 0468 13       		.uleb128 0x13
 8312 0469 34       		.uleb128 0x34
 8313 046a 19       		.uleb128 0x19
 8314 046b 00       		.byte	0
 8315 046c 00       		.byte	0
 8316 046d 41       		.uleb128 0x41
 8317 046e 2E       		.uleb128 0x2e
 8318 046f 01       		.byte	0x1
 8319 0470 03       		.uleb128 0x3
 8320 0471 0E       		.uleb128 0xe
 8321 0472 3A       		.uleb128 0x3a
 8322 0473 0B       		.uleb128 0xb
 8323 0474 3B       		.uleb128 0x3b
 8324 0475 05       		.uleb128 0x5
 8325 0476 39       		.uleb128 0x39
 8326 0477 0B       		.uleb128 0xb
 8327 0478 27       		.uleb128 0x27
 8328 0479 19       		.uleb128 0x19
 8329 047a 20       		.uleb128 0x20
 8330 047b 0B       		.uleb128 0xb
 8331 047c 00       		.byte	0
 8332 047d 00       		.byte	0
 8333 047e 42       		.uleb128 0x42
 8334 047f 05       		.uleb128 0x5
 8335 0480 00       		.byte	0
 8336 0481 03       		.uleb128 0x3
 8337 0482 0E       		.uleb128 0xe
 8338 0483 3A       		.uleb128 0x3a
 8339 0484 0B       		.uleb128 0xb
 8340 0485 3B       		.uleb128 0x3b
 8341 0486 05       		.uleb128 0x5
 8342 0487 39       		.uleb128 0x39
 8343 0488 0B       		.uleb128 0xb
 8344 0489 49       		.uleb128 0x49
 8345 048a 13       		.uleb128 0x13
 8346 048b 00       		.byte	0
 8347 048c 00       		.byte	0
 8348 048d 00       		.byte	0
 8349              		.section	.debug_aranges,"",%progbits
 8350 0000 0C010000 		.4byte	0x10c
 8351 0004 0200     		.2byte	0x2
 8352 0006 00000000 		.4byte	.Ldebug_info0
 8353 000a 04       		.byte	0x4
 8354 000b 00       		.byte	0
 8355 000c 0000     		.2byte	0
 8356 000e 0000     		.2byte	0
ARM GAS  C:\Users\DEVELO~1\AppData\Local\Temp\ccFr3SeA.s 			page 148


 8357 0010 00000000 		.4byte	.LFB202
 8358 0014 1E000000 		.4byte	.LFE202-.LFB202
 8359 0018 00000000 		.4byte	.LFB203
 8360 001c 1E000000 		.4byte	.LFE203-.LFB203
 8361 0020 00000000 		.4byte	.LFB432
 8362 0024 94000000 		.4byte	.LFE432-.LFB432
 8363 0028 00000000 		.4byte	.LFB433
 8364 002c 94000000 		.4byte	.LFE433-.LFB433
 8365 0030 00000000 		.4byte	.LFB434
 8366 0034 3E000000 		.4byte	.LFE434-.LFB434
 8367 0038 00000000 		.4byte	.LFB435
 8368 003c E0000000 		.4byte	.LFE435-.LFB435
 8369 0040 00000000 		.4byte	.LFB436
 8370 0044 6A000000 		.4byte	.LFE436-.LFB436
 8371 0048 00000000 		.4byte	.LFB437
 8372 004c 40010000 		.4byte	.LFE437-.LFB437
 8373 0050 00000000 		.4byte	.LFB438
 8374 0054 A2000000 		.4byte	.LFE438-.LFB438
 8375 0058 00000000 		.4byte	.LFB439
 8376 005c 60000000 		.4byte	.LFE439-.LFB439
 8377 0060 00000000 		.4byte	.LFB440
 8378 0064 A2000000 		.4byte	.LFE440-.LFB440
 8379 0068 00000000 		.4byte	.LFB441
 8380 006c 80000000 		.4byte	.LFE441-.LFB441
 8381 0070 00000000 		.4byte	.LFB442
 8382 0074 00020000 		.4byte	.LFE442-.LFB442
 8383 0078 00000000 		.4byte	.LFB443
 8384 007c 30020000 		.4byte	.LFE443-.LFB443
 8385 0080 00000000 		.4byte	.LFB444
 8386 0084 0C000000 		.4byte	.LFE444-.LFB444
 8387 0088 00000000 		.4byte	.LFB445
 8388 008c 2C000000 		.4byte	.LFE445-.LFB445
 8389 0090 00000000 		.4byte	.LFB446
 8390 0094 3C000000 		.4byte	.LFE446-.LFB446
 8391 0098 00000000 		.4byte	.LFB447
 8392 009c 3C000000 		.4byte	.LFE447-.LFB447
 8393 00a0 00000000 		.4byte	.LFB448
 8394 00a4 2C000000 		.4byte	.LFE448-.LFB448
 8395 00a8 00000000 		.4byte	.LFB449
 8396 00ac 2C000000 		.4byte	.LFE449-.LFB449
 8397 00b0 00000000 		.4byte	.LFB450
 8398 00b4 2C000000 		.4byte	.LFE450-.LFB450
 8399 00b8 00000000 		.4byte	.LFB451
 8400 00bc 24000000 		.4byte	.LFE451-.LFB451
 8401 00c0 00000000 		.4byte	.LFB452
 8402 00c4 24000000 		.4byte	.LFE452-.LFB452
 8403 00c8 00000000 		.4byte	.LFB453
 8404 00cc 18000000 		.4byte	.LFE453-.LFB453
 8405 00d0 00000000 		.4byte	.LFB454
 8406 00d4 18000000 		.4byte	.LFE454-.LFB454
 8407 00d8 00000000 		.4byte	.LFB455
 8408 00dc 34000000 		.4byte	.LFE455-.LFB455
 8409 00e0 00000000 		.4byte	.LFB456
 8410 00e4 34000000 		.4byte	.LFE456-.LFB456
 8411 00e8 00000000 		.4byte	.LFB457
 8412 00ec 34000000 		.4byte	.LFE457-.LFB457
 8413 00f0 00000000 		.4byte	.LFB458
ARM GAS  C:\Users\DEVELO~1\AppData\Local\Temp\ccFr3SeA.s 			page 149


 8414 00f4 34000000 		.4byte	.LFE458-.LFB458
 8415 00f8 00000000 		.4byte	.LFB459
 8416 00fc 34000000 		.4byte	.LFE459-.LFB459
 8417 0100 00000000 		.4byte	.LFB460
 8418 0104 34000000 		.4byte	.LFE460-.LFB460
 8419 0108 00000000 		.4byte	0
 8420 010c 00000000 		.4byte	0
 8421              		.section	.debug_rnglists,"",%progbits
 8422              	.Ldebug_ranges0:
 8423 0000 CC000000 		.4byte	.Ldebug_ranges3-.Ldebug_ranges2
 8424              	.Ldebug_ranges2:
 8425 0004 0500     		.2byte	0x5
 8426 0006 04       		.byte	0x4
 8427 0007 00       		.byte	0
 8428 0008 00000000 		.4byte	0
 8429              	.LLRL0:
 8430 000c 07       		.byte	0x7
 8431 000d 00000000 		.4byte	.LFB202
 8432 0011 1E       		.uleb128 .LFE202-.LFB202
 8433 0012 07       		.byte	0x7
 8434 0013 00000000 		.4byte	.LFB203
 8435 0017 1E       		.uleb128 .LFE203-.LFB203
 8436 0018 07       		.byte	0x7
 8437 0019 00000000 		.4byte	.LFB432
 8438 001d 9401     		.uleb128 .LFE432-.LFB432
 8439 001f 07       		.byte	0x7
 8440 0020 00000000 		.4byte	.LFB433
 8441 0024 9401     		.uleb128 .LFE433-.LFB433
 8442 0026 07       		.byte	0x7
 8443 0027 00000000 		.4byte	.LFB434
 8444 002b 3E       		.uleb128 .LFE434-.LFB434
 8445 002c 07       		.byte	0x7
 8446 002d 00000000 		.4byte	.LFB435
 8447 0031 E001     		.uleb128 .LFE435-.LFB435
 8448 0033 07       		.byte	0x7
 8449 0034 00000000 		.4byte	.LFB436
 8450 0038 6A       		.uleb128 .LFE436-.LFB436
 8451 0039 07       		.byte	0x7
 8452 003a 00000000 		.4byte	.LFB437
 8453 003e C002     		.uleb128 .LFE437-.LFB437
 8454 0040 07       		.byte	0x7
 8455 0041 00000000 		.4byte	.LFB438
 8456 0045 A201     		.uleb128 .LFE438-.LFB438
 8457 0047 07       		.byte	0x7
 8458 0048 00000000 		.4byte	.LFB439
 8459 004c 60       		.uleb128 .LFE439-.LFB439
 8460 004d 07       		.byte	0x7
 8461 004e 00000000 		.4byte	.LFB440
 8462 0052 A201     		.uleb128 .LFE440-.LFB440
 8463 0054 07       		.byte	0x7
 8464 0055 00000000 		.4byte	.LFB441
 8465 0059 8001     		.uleb128 .LFE441-.LFB441
 8466 005b 07       		.byte	0x7
 8467 005c 00000000 		.4byte	.LFB442
 8468 0060 8004     		.uleb128 .LFE442-.LFB442
 8469 0062 07       		.byte	0x7
 8470 0063 00000000 		.4byte	.LFB443
ARM GAS  C:\Users\DEVELO~1\AppData\Local\Temp\ccFr3SeA.s 			page 150


 8471 0067 B004     		.uleb128 .LFE443-.LFB443
 8472 0069 07       		.byte	0x7
 8473 006a 00000000 		.4byte	.LFB444
 8474 006e 0C       		.uleb128 .LFE444-.LFB444
 8475 006f 07       		.byte	0x7
 8476 0070 00000000 		.4byte	.LFB445
 8477 0074 2C       		.uleb128 .LFE445-.LFB445
 8478 0075 07       		.byte	0x7
 8479 0076 00000000 		.4byte	.LFB446
 8480 007a 3C       		.uleb128 .LFE446-.LFB446
 8481 007b 07       		.byte	0x7
 8482 007c 00000000 		.4byte	.LFB447
 8483 0080 3C       		.uleb128 .LFE447-.LFB447
 8484 0081 07       		.byte	0x7
 8485 0082 00000000 		.4byte	.LFB448
 8486 0086 2C       		.uleb128 .LFE448-.LFB448
 8487 0087 07       		.byte	0x7
 8488 0088 00000000 		.4byte	.LFB449
 8489 008c 2C       		.uleb128 .LFE449-.LFB449
 8490 008d 07       		.byte	0x7
 8491 008e 00000000 		.4byte	.LFB450
 8492 0092 2C       		.uleb128 .LFE450-.LFB450
 8493 0093 07       		.byte	0x7
 8494 0094 00000000 		.4byte	.LFB451
 8495 0098 24       		.uleb128 .LFE451-.LFB451
 8496 0099 07       		.byte	0x7
 8497 009a 00000000 		.4byte	.LFB452
 8498 009e 24       		.uleb128 .LFE452-.LFB452
 8499 009f 07       		.byte	0x7
 8500 00a0 00000000 		.4byte	.LFB453
 8501 00a4 18       		.uleb128 .LFE453-.LFB453
 8502 00a5 07       		.byte	0x7
 8503 00a6 00000000 		.4byte	.LFB454
 8504 00aa 18       		.uleb128 .LFE454-.LFB454
 8505 00ab 07       		.byte	0x7
 8506 00ac 00000000 		.4byte	.LFB455
 8507 00b0 34       		.uleb128 .LFE455-.LFB455
 8508 00b1 07       		.byte	0x7
 8509 00b2 00000000 		.4byte	.LFB456
 8510 00b6 34       		.uleb128 .LFE456-.LFB456
 8511 00b7 07       		.byte	0x7
 8512 00b8 00000000 		.4byte	.LFB457
 8513 00bc 34       		.uleb128 .LFE457-.LFB457
 8514 00bd 07       		.byte	0x7
 8515 00be 00000000 		.4byte	.LFB458
 8516 00c2 34       		.uleb128 .LFE458-.LFB458
 8517 00c3 07       		.byte	0x7
 8518 00c4 00000000 		.4byte	.LFB459
 8519 00c8 34       		.uleb128 .LFE459-.LFB459
 8520 00c9 07       		.byte	0x7
 8521 00ca 00000000 		.4byte	.LFB460
 8522 00ce 34       		.uleb128 .LFE460-.LFB460
 8523 00cf 00       		.byte	0
 8524              	.Ldebug_ranges3:
 8525              		.section	.debug_line,"",%progbits
 8526              	.Ldebug_line0:
 8527 0000 890D0000 		.section	.debug_str,"MS",%progbits,1
ARM GAS  C:\Users\DEVELO~1\AppData\Local\Temp\ccFr3SeA.s 			page 151


 8527      03000604 
 8527      00000201 
 8527      FB0E0D00 
 8527      01010101 
 8528              	.LASF7:
 8529 0000 6C6F6E67 		.ascii	"long int\000"
 8529      20696E74 
 8529      00
 8530              	.LASF114:
 8531 0009 53515234 		.ascii	"SQR4\000"
 8531      00
 8532              	.LASF167:
 8533 000e 77746D74 		.ascii	"wtmtxp\000"
 8533      787000
 8534              	.LASF29:
 8535 0015 48414C4C 		.ascii	"HALL_VEL_CURVE_COUNT\000"
 8535      5F56454C 
 8535      5F435552 
 8535      56455F43 
 8535      4F554E54 
 8536              	.LASF191:
 8537 002a 43434D52 		.ascii	"CCMR2\000"
 8537      3200
 8538              	.LASF235:
 8539 0030 63697263 		.ascii	"circular\000"
 8539      756C6172 
 8539      00
 8540              	.LASF159:
 8541 0039 74687265 		.ascii	"thread_reference_t\000"
 8541      61645F72 
 8541      65666572 
 8541      656E6365 
 8541      5F7400
 8542              	.LASF203:
 8543 004c 42535252 		.ascii	"BSRR\000"
 8543      00
 8544              	.LASF120:
 8545 0051 4F465232 		.ascii	"OFR2\000"
 8545      00
 8546              	.LASF156:
 8547 0056 63685F72 		.ascii	"ch_registry\000"
 8547      65676973 
 8547      74727900 
 8548              	.LASF313:
 8549 0062 68616C6C 		.ascii	"hall_dbg_get_min\000"
 8549      5F646267 
 8549      5F676574 
 8549      5F6D696E 
 8549      00
 8550              	.LASF228:
 8551 0073 646D616D 		.ascii	"dmamode\000"
 8551      6F646500 
 8552              	.LASF69:
 8553 007b 63685F72 		.ascii	"ch_rfcu\000"
 8553      66637500 
 8554              	.LASF49:
 8555 0083 666C6167 		.ascii	"flags\000"
ARM GAS  C:\Users\DEVELO~1\AppData\Local\Temp\ccFr3SeA.s 			page 152


 8555      7300
 8556              	.LASF76:
 8557 0089 73797374 		.ascii	"systime_t\000"
 8557      696D655F 
 8557      7400
 8558              	.LASF55:
 8559 0093 7265616C 		.ascii	"realprio\000"
 8559      7072696F 
 8559      00
 8560              	.LASF100:
 8561 009c 62756666 		.ascii	"buffer\000"
 8561      657200
 8562              	.LASF98:
 8563 00a3 73757370 		.ascii	"suspended\000"
 8563      656E6465 
 8563      6400
 8564              	.LASF277:
 8565 00ad 68616C6C 		.ascii	"hall_values\000"
 8565      5F76616C 
 8565      75657300 
 8566              	.LASF53:
 8567 00b9 6570656E 		.ascii	"epending\000"
 8567      64696E67 
 8567      00
 8568              	.LASF13:
 8569 00c2 756E7369 		.ascii	"unsigned int\000"
 8569      676E6564 
 8569      20696E74 
 8569      00
 8570              	.LASF80:
 8571 00cf 6E657874 		.ascii	"next\000"
 8571      00
 8572              	.LASF261:
 8573 00d4 4750545F 		.ascii	"GPT_ONESHOT\000"
 8573      4F4E4553 
 8573      484F5400 
 8574              	.LASF63:
 8575 00e0 636F7265 		.ascii	"core_id\000"
 8575      5F696400 
 8576              	.LASF254:
 8577 00e8 6164635F 		.ascii	"adc_ldd_dma_reference_t\000"
 8577      6C64645F 
 8577      646D615F 
 8577      72656665 
 8577      72656E63 
 8578              	.LASF6:
 8579 0100 5F5F696E 		.ascii	"__int32_t\000"
 8579      7433325F 
 8579      7400
 8580              	.LASF50:
 8581 010a 72656673 		.ascii	"refs\000"
 8581      00
 8582              	.LASF245:
 8583 010f 68747232 		.ascii	"htr2\000"
 8583      00
 8584              	.LASF247:
 8585 0114 68747233 		.ascii	"htr3\000"
ARM GAS  C:\Users\DEVELO~1\AppData\Local\Temp\ccFr3SeA.s 			page 153


 8585      00
 8586              	.LASF258:
 8587 0119 4750545F 		.ascii	"GPT_STOP\000"
 8587      53544F50 
 8587      00
 8588              	.LASF22:
 8589 0122 48414C4C 		.ascii	"HALL_VEL_MODE_COUNT\000"
 8589      5F56454C 
 8589      5F4D4F44 
 8589      455F434F 
 8589      554E5400 
 8590              	.LASF238:
 8591 0136 6572726F 		.ascii	"error_cb\000"
 8591      725F6362 
 8591      00
 8592              	.LASF90:
 8593 013f 77746F62 		.ascii	"wtobjp\000"
 8593      6A7000
 8594              	.LASF353:
 8595 0146 706F7274 		.ascii	"port_lock\000"
 8595      5F6C6F63 
 8595      6B00
 8596              	.LASF61:
 8597 0150 76746C69 		.ascii	"vtlist\000"
 8597      737400
 8598              	.LASF340:
 8599 0157 69737172 		.ascii	"isqrt_u32\000"
 8599      745F7533 
 8599      3200
 8600              	.LASF310:
 8601 0161 68616C6C 		.ascii	"hall_dbg_get_trig_hi\000"
 8601      5F646267 
 8601      5F676574 
 8601      5F747269 
 8601      675F6869 
 8602              	.LASF271:
 8603 0176 47505443 		.ascii	"GPTConfig\000"
 8603      6F6E6669 
 8603      6700
 8604              	.LASF352:
 8605 0180 706F7274 		.ascii	"port_unlock\000"
 8605      5F756E6C 
 8605      6F636B00 
 8606              	.LASF171:
 8607 018c 63685F72 		.ascii	"ch_ready_list\000"
 8607      65616479 
 8607      5F6C6973 
 8607      7400
 8608              	.LASF144:
 8609 019a 4E445452 		.ascii	"NDTR\000"
 8609      00
 8610              	.LASF154:
 8611 019f 6C617374 		.ascii	"laststamp\000"
 8611      7374616D 
 8611      7000
 8612              	.LASF168:
 8613 01a9 65776D61 		.ascii	"ewmask\000"
ARM GAS  C:\Users\DEVELO~1\AppData\Local\Temp\ccFr3SeA.s 			page 154


 8613      736B00
 8614              	.LASF319:
 8615 01b0 6D6F6465 		.ascii	"mode\000"
 8615      00
 8616              	.LASF83:
 8617 01b5 70726576 		.ascii	"prev\000"
 8617      00
 8618              	.LASF325:
 8619 01ba 68616C6C 		.ascii	"hall_get_note_on\000"
 8619      5F676574 
 8619      5F6E6F74 
 8619      655F6F6E 
 8619      00
 8620              	.LASF194:
 8621 01cb 444D4152 		.ascii	"DMAR\000"
 8621      00
 8622              	.LASF79:
 8623 01d0 63685F6C 		.ascii	"ch_list\000"
 8623      69737400 
 8624              	.LASF107:
 8625 01d8 4C545231 		.ascii	"LTR1\000"
 8625      00
 8626              	.LASF133:
 8627 01dd 4C545232 		.ascii	"LTR2\000"
 8627      00
 8628              	.LASF135:
 8629 01e2 4C545233 		.ascii	"LTR3\000"
 8629      00
 8630              	.LASF137:
 8631 01e7 44494653 		.ascii	"DIFSEL\000"
 8631      454C00
 8632              	.LASF259:
 8633 01ee 4750545F 		.ascii	"GPT_READY\000"
 8633      52454144 
 8633      5900
 8634              	.LASF72:
 8635 01f8 63685F73 		.ascii	"ch_system_debug\000"
 8635      79737465 
 8635      6D5F6465 
 8635      62756700 
 8636              	.LASF290:
 8637 0208 70726576 		.ascii	"prev_raw\000"
 8637      5F726177 
 8637      00
 8638              	.LASF337:
 8639 0211 64765F73 		.ascii	"dv_slow\000"
 8639      6C6F7700 
 8640              	.LASF160:
 8641 0219 6C697374 		.ascii	"list\000"
 8641      00
 8642              	.LASF150:
 8643 021e 706F7274 		.ascii	"port_context\000"
 8643      5F636F6E 
 8643      74657874 
 8643      00
 8644              	.LASF88:
 8645 022b 63685F64 		.ascii	"ch_delta_list\000"
ARM GAS  C:\Users\DEVELO~1\AppData\Local\Temp\ccFr3SeA.s 			page 155


 8645      656C7461 
 8645      5F6C6973 
 8645      7400
 8646              	.LASF273:
 8647 0239 47505444 		.ascii	"GPTD4\000"
 8647      3400
 8648              	.LASF21:
 8649 023f 48414C4C 		.ascii	"HALL_VEL_MODE_ENERGY\000"
 8649      5F56454C 
 8649      5F4D4F44 
 8649      455F454E 
 8649      45524759 
 8650              	.LASF256:
 8651 0254 61646365 		.ascii	"adcerrorcallback_t\000"
 8651      72726F72 
 8651      63616C6C 
 8651      6261636B 
 8651      5F7400
 8652              	.LASF165:
 8653 0267 73656E74 		.ascii	"sentmsg\000"
 8653      6D736700 
 8654              	.LASF193:
 8655 026f 42445452 		.ascii	"BDTR\000"
 8655      00
 8656              	.LASF183:
 8657 0274 69666372 		.ascii	"ifcr\000"
 8657      00
 8658              	.LASF97:
 8659 0279 74726163 		.ascii	"trace_event_t\000"
 8659      655F6576 
 8659      656E745F 
 8659      7400
 8660              	.LASF239:
 8661 0287 63666772 		.ascii	"cfgr\000"
 8661      00
 8662              	.LASF224:
 8663 028c 6D757465 		.ascii	"mutex\000"
 8663      7800
 8664              	.LASF184:
 8665 0292 73686966 		.ascii	"shift\000"
 8665      7400
 8666              	.LASF169:
 8667 0298 63685F73 		.ascii	"ch_semaphore\000"
 8667      656D6170 
 8667      686F7265 
 8667      00
 8668              	.LASF38:
 8669 02a5 74707269 		.ascii	"tprio_t\000"
 8669      6F5F7400 
 8670              	.LASF52:
 8671 02ad 6D736771 		.ascii	"msgqueue\000"
 8671      75657565 
 8671      00
 8672              	.LASF321:
 8673 02b6 696E6465 		.ascii	"index\000"
 8673      7800
 8674              	.LASF294:
ARM GAS  C:\Users\DEVELO~1\AppData\Local\Temp\ccFr3SeA.s 			page 156


 8675 02bc 76656C5F 		.ascii	"vel_end_th\000"
 8675      656E645F 
 8675      746800
 8676              	.LASF190:
 8677 02c7 43434D52 		.ascii	"CCMR1\000"
 8677      3100
 8678              	.LASF323:
 8679 02cd 68616C6C 		.ascii	"hall_get_velocity\000"
 8679      5F676574 
 8679      5F76656C 
 8679      6F636974 
 8679      7900
 8680              	.LASF237:
 8681 02df 656E645F 		.ascii	"end_cb\000"
 8681      636200
 8682              	.LASF354:
 8683 02e6 474E5520 		.ascii	"GNU C17 11.3.1 20220712 -mcpu=cortex-m7 -mthumb -mf"
 8683      43313720 
 8683      31312E33 
 8683      2E312032 
 8683      30323230 
 8684 0319 6C6F6174 		.ascii	"loat-abi=soft -march=armv7e-m -ggdb -O0 -ffunction-"
 8684      2D616269 
 8684      3D736F66 
 8684      74202D6D 
 8684      61726368 
 8685 034c 73656374 		.ascii	"sections -fdata-sections -fno-common\000"
 8685      696F6E73 
 8685      202D6664 
 8685      6174612D 
 8685      73656374 
 8686              	.LASF330:
 8687 0371 68616C6C 		.ascii	"hall_velocity_compute\000"
 8687      5F76656C 
 8687      6F636974 
 8687      795F636F 
 8687      6D707574 
 8688              	.LASF12:
 8689 0387 6C6F6E67 		.ascii	"long long unsigned int\000"
 8689      206C6F6E 
 8689      6720756E 
 8689      7369676E 
 8689      65642069 
 8690              	.LASF123:
 8691 039e 52455345 		.ascii	"RESERVED6\000"
 8691      52564544 
 8691      3600
 8692              	.LASF303:
 8693 03a8 67707453 		.ascii	"gptStartContinuous\000"
 8693      74617274 
 8693      436F6E74 
 8693      696E756F 
 8693      757300
 8694              	.LASF106:
 8695 03bb 50435345 		.ascii	"PCSEL\000"
 8695      4C00
 8696              	.LASF67:
ARM GAS  C:\Users\DEVELO~1\AppData\Local\Temp\ccFr3SeA.s 			page 157


 8697 03c1 74726163 		.ascii	"trace_buffer\000"
 8697      655F6275 
 8697      66666572 
 8697      00
 8698              	.LASF186:
 8699 03ce 76656374 		.ascii	"vector\000"
 8699      6F7200
 8700              	.LASF179:
 8701 03d5 6F735F69 		.ascii	"os_instance_config_t\000"
 8701      6E737461 
 8701      6E63655F 
 8701      636F6E66 
 8701      69675F74 
 8702              	.LASF161:
 8703 03ea 70717565 		.ascii	"pqueue\000"
 8703      756500
 8704              	.LASF4:
 8705 03f1 5F5F7569 		.ascii	"__uint16_t\000"
 8705      6E743136 
 8705      5F7400
 8706              	.LASF41:
 8707 03fc 636E745F 		.ascii	"cnt_t\000"
 8707      7400
 8708              	.LASF345:
 8709 0402 68695F70 		.ascii	"hi_ppm\000"
 8709      706D00
 8710              	.LASF307:
 8711 0409 5F70616C 		.ascii	"_pal_lld_setgroupmode\000"
 8711      5F6C6C64 
 8711      5F736574 
 8711      67726F75 
 8711      706D6F64 
 8712              	.LASF199:
 8713 041f 4D4F4445 		.ascii	"MODER\000"
 8713      5200
 8714              	.LASF350:
 8715 0425 63685379 		.ascii	"chSysUnlock\000"
 8715      73556E6C 
 8715      6F636B00 
 8716              	.LASF96:
 8717 0431 74696D65 		.ascii	"time\000"
 8717      00
 8718              	.LASF206:
 8719 0436 41465248 		.ascii	"AFRH\000"
 8719      00
 8720              	.LASF207:
 8721 043b 73746D33 		.ascii	"stm32_gpio_t\000"
 8721      325F6770 
 8721      696F5F74 
 8721      00
 8722              	.LASF335:
 8723 0448 64745F63 		.ascii	"dt_count\000"
 8723      6F756E74 
 8723      00
 8724              	.LASF204:
 8725 0451 4C4F434B 		.ascii	"LOCKR\000"
 8725      5200
ARM GAS  C:\Users\DEVELO~1\AppData\Local\Temp\ccFr3SeA.s 			page 158


 8726              	.LASF176:
 8727 0457 6D61696E 		.ascii	"mainthread_end\000"
 8727      74687265 
 8727      61645F65 
 8727      6E6400
 8728              	.LASF329:
 8729 0466 76656C5F 		.ascii	"vel_raw\000"
 8729      72617700 
 8730              	.LASF288:
 8731 046e 70726576 		.ascii	"prev_out\000"
 8731      5F6F7574 
 8731      00
 8732              	.LASF54:
 8733 0477 6D74786C 		.ascii	"mtxlist\000"
 8733      69737400 
 8734              	.LASF151:
 8735 047f 63685F76 		.ascii	"ch_virtual_timers_list\000"
 8735      69727475 
 8735      616C5F74 
 8735      696D6572 
 8735      735F6C69 
 8736              	.LASF356:
 8737 0496 433A5C50 		.ascii	"C:\\PROJET\\ChibiOS project\\ChibiOS_21.11.4\\demos"
 8737      524F4A45 
 8737      545C4368 
 8737      6962694F 
 8737      53207072 
 8738 04c5 5C53544D 		.ascii	"\\STM32\\RT-STM32H743ZI_REV_XY-NUCLEO144_Quartz8M\000"
 8738      33325C52 
 8738      542D5354 
 8738      4D333248 
 8738      3734335A 
 8739              	.LASF64:
 8740 04f5 72666375 		.ascii	"rfcu\000"
 8740      00
 8741              	.LASF360:
 8742 04fa 62617365 		.ascii	"basePri\000"
 8742      50726900 
 8743              	.LASF43:
 8744 0502 74687265 		.ascii	"thread_t\000"
 8744      61645F74 
 8744      00
 8745              	.LASF141:
 8746 050b 52455345 		.ascii	"RESERVED\000"
 8746      52564544 
 8746      00
 8747              	.LASF93:
 8748 0514 75736572 		.ascii	"user\000"
 8748      00
 8749              	.LASF300:
 8750 0519 68616C6C 		.ascii	"hall_gptcfg\000"
 8750      5F677074 
 8750      63666700 
 8751              	.LASF31:
 8752 0525 73697A65 		.ascii	"size_t\000"
 8752      5F7400
 8753              	.LASF162:
ARM GAS  C:\Users\DEVELO~1\AppData\Local\Temp\ccFr3SeA.s 			page 159


 8754 052c 7264796D 		.ascii	"rdymsg\000"
 8754      736700
 8755              	.LASF218:
 8756 0533 41444344 		.ascii	"ADCDriver\000"
 8756      72697665 
 8756      7200
 8757              	.LASF84:
 8758 053d 63685F70 		.ascii	"ch_priority_queue_t\000"
 8758      72696F72 
 8758      6974795F 
 8758      71756575 
 8758      655F7400 
 8759              	.LASF197:
 8760 0551 73746D33 		.ascii	"stm32_tim_t\000"
 8760      325F7469 
 8760      6D5F7400 
 8761              	.LASF324:
 8762 055d 68616C6C 		.ascii	"hall_get_note_off\000"
 8762      5F676574 
 8762      5F6E6F74 
 8762      655F6F66 
 8762      6600
 8763              	.LASF283:
 8764 056f 68616C6C 		.ascii	"hall_initialized\000"
 8764      5F696E69 
 8764      7469616C 
 8764      697A6564 
 8764      00
 8765              	.LASF119:
 8766 0580 4F465231 		.ascii	"OFR1\000"
 8766      00
 8767              	.LASF181:
 8768 0585 5F426F6F 		.ascii	"_Bool\000"
 8768      6C00
 8769              	.LASF121:
 8770 058b 4F465233 		.ascii	"OFR3\000"
 8770      00
 8771              	.LASF122:
 8772 0590 4F465234 		.ascii	"OFR4\000"
 8772      00
 8773              	.LASF202:
 8774 0595 50555044 		.ascii	"PUPDR\000"
 8774      5200
 8775              	.LASF139:
 8776 059b 43414C46 		.ascii	"CALFACT2\000"
 8776      41435432 
 8776      00
 8777              	.LASF65:
 8778 05a4 636F6E66 		.ascii	"config\000"
 8778      696700
 8779              	.LASF170:
 8780 05ab 63685F6D 		.ascii	"ch_mutex\000"
 8780      75746578 
 8780      00
 8781              	.LASF189:
 8782 05b4 44494552 		.ascii	"DIER\000"
 8782      00
ARM GAS  C:\Users\DEVELO~1\AppData\Local\Temp\ccFr3SeA.s 			page 160


 8783              	.LASF344:
 8784 05b9 6C6F5F70 		.ascii	"lo_ppm\000"
 8784      706D00
 8785              	.LASF145:
 8786 05c0 4D304152 		.ascii	"M0AR\000"
 8786      00
 8787              	.LASF59:
 8788 05c5 63685F6F 		.ascii	"ch_os_instance\000"
 8788      735F696E 
 8788      7374616E 
 8788      636500
 8789              	.LASF210:
 8790 05d4 696F706F 		.ascii	"ioportid_t\000"
 8790      72746964 
 8790      5F7400
 8791              	.LASF241:
 8792 05df 70637365 		.ascii	"pcsel\000"
 8792      6C00
 8793              	.LASF351:
 8794 05e5 63685379 		.ascii	"chSysLock\000"
 8794      734C6F63 
 8794      6B00
 8795              	.LASF215:
 8796 05ef 4144435F 		.ascii	"ADC_COMPLETE\000"
 8796      434F4D50 
 8796      4C455445 
 8796      00
 8797              	.LASF104:
 8798 05fc 534D5052 		.ascii	"SMPR1\000"
 8798      3100
 8799              	.LASF216:
 8800 0602 4144435F 		.ascii	"ADC_ERROR\000"
 8800      4552524F 
 8800      5200
 8801              	.LASF311:
 8802 060c 68616C6C 		.ascii	"hall_dbg_get_trig_lo\000"
 8802      5F646267 
 8802      5F676574 
 8802      5F747269 
 8802      675F6C6F 
 8803              	.LASF178:
 8804 0621 69646C65 		.ascii	"idlethread_end\000"
 8804      74687265 
 8804      61645F65 
 8804      6E6400
 8805              	.LASF278:
 8806 0630 68616C6C 		.ascii	"hall_note_on\000"
 8806      5F6E6F74 
 8806      655F6F6E 
 8806      00
 8807              	.LASF266:
 8808 063d 67707466 		.ascii	"gptfreq_t\000"
 8808      7265715F 
 8808      7400
 8809              	.LASF86:
 8810 0647 7072696F 		.ascii	"prio\000"
 8810      00
ARM GAS  C:\Users\DEVELO~1\AppData\Local\Temp\ccFr3SeA.s 			page 161


 8811              	.LASF316:
 8812 064c 63757276 		.ascii	"curve\000"
 8812      6500
 8813              	.LASF192:
 8814 0652 43434552 		.ascii	"CCER\000"
 8814      00
 8815              	.LASF74:
 8816 0657 63686172 		.ascii	"char\000"
 8816      00
 8817              	.LASF279:
 8818 065c 68616C6C 		.ascii	"hall_note_off\000"
 8818      5F6E6F74 
 8818      655F6F66 
 8818      6600
 8819              	.LASF87:
 8820 066a 63685F64 		.ascii	"ch_delta_list_t\000"
 8820      656C7461 
 8820      5F6C6973 
 8820      745F7400 
 8821              	.LASF68:
 8822 067a 72666375 		.ascii	"rfcu_mask_t\000"
 8822      5F6D6173 
 8822      6B5F7400 
 8823              	.LASF242:
 8824 0686 6C747231 		.ascii	"ltr1\000"
 8824      00
 8825              	.LASF244:
 8826 068b 6C747232 		.ascii	"ltr2\000"
 8826      00
 8827              	.LASF246:
 8828 0690 6C747233 		.ascii	"ltr3\000"
 8828      00
 8829              	.LASF243:
 8830 0695 68747231 		.ascii	"htr1\000"
 8830      00
 8831              	.LASF182:
 8832 069a 73747265 		.ascii	"stream\000"
 8832      616D00
 8833              	.LASF47:
 8834 06a1 77616261 		.ascii	"wabase\000"
 8834      736500
 8835              	.LASF318:
 8836 06a8 68616C6C 		.ascii	"hall_set_velocity_mode\000"
 8836      5F736574 
 8836      5F76656C 
 8836      6F636974 
 8836      795F6D6F 
 8837              	.LASF299:
 8838 06bf 68616C6C 		.ascii	"hall_btn\000"
 8838      5F62746E 
 8838      00
 8839              	.LASF36:
 8840 06c8 74737461 		.ascii	"tstate_t\000"
 8840      74655F74 
 8840      00
 8841              	.LASF326:
 8842 06d1 68616C6C 		.ascii	"hall_get\000"
ARM GAS  C:\Users\DEVELO~1\AppData\Local\Temp\ccFr3SeA.s 			page 162


 8842      5F676574 
 8842      00
 8843              	.LASF44:
 8844 06da 72717565 		.ascii	"rqueue\000"
 8844      756500
 8845              	.LASF175:
 8846 06e1 6D61696E 		.ascii	"mainthread_base\000"
 8846      74687265 
 8846      61645F62 
 8846      61736500 
 8847              	.LASF217:
 8848 06f1 61646373 		.ascii	"adcstate_t\000"
 8848      74617465 
 8848      5F7400
 8849              	.LASF187:
 8850 06fc 73746D33 		.ascii	"stm32_dma_stream_t\000"
 8850      325F646D 
 8850      615F7374 
 8850      7265616D 
 8850      5F7400
 8851              	.LASF11:
 8852 070f 5F5F7569 		.ascii	"__uint64_t\000"
 8852      6E743634 
 8852      5F7400
 8853              	.LASF331:
 8854 071a 68616C6C 		.ascii	"hall_velocity_from_energy\000"
 8854      5F76656C 
 8854      6F636974 
 8854      795F6672 
 8854      6F6D5F65 
 8855              	.LASF309:
 8856 0734 68616C6C 		.ascii	"hall_dbg_get_state\000"
 8856      5F646267 
 8856      5F676574 
 8856      5F737461 
 8856      746500
 8857              	.LASF14:
 8858 0747 75696E74 		.ascii	"uint8_t\000"
 8858      385F7400 
 8859              	.LASF138:
 8860 074f 43414C46 		.ascii	"CALFACT\000"
 8860      41435400 
 8861              	.LASF302:
 8862 0757 61646367 		.ascii	"adcgrpcfg\000"
 8862      72706366 
 8862      6700
 8863              	.LASF188:
 8864 0761 534D4352 		.ascii	"SMCR\000"
 8864      00
 8865              	.LASF58:
 8866 0766 63685F74 		.ascii	"ch_thread\000"
 8866      68726561 
 8866      6400
 8867              	.LASF320:
 8868 0770 68616C6C 		.ascii	"hall_get_midi_value\000"
 8868      5F676574 
 8868      5F6D6964 
ARM GAS  C:\Users\DEVELO~1\AppData\Local\Temp\ccFr3SeA.s 			page 163


 8868      695F7661 
 8868      6C756500 
 8869              	.LASF297:
 8870 0784 76656C5F 		.ascii	"vel_latched\000"
 8870      6C617463 
 8870      68656400 
 8871              	.LASF333:
 8872 0790 655F6661 		.ascii	"e_fast\000"
 8872      737400
 8873              	.LASF305:
 8874 0797 61646353 		.ascii	"adcStart\000"
 8874      74617274 
 8874      00
 8875              	.LASF23:
 8876 07a0 68616C6C 		.ascii	"hall_vel_mode_t\000"
 8876      5F76656C 
 8876      5F6D6F64 
 8876      655F7400 
 8877              	.LASF75:
 8878 07b0 73797374 		.ascii	"system_debug_t\000"
 8878      656D5F64 
 8878      65627567 
 8878      5F7400
 8879              	.LASF220:
 8880 07bf 73616D70 		.ascii	"samples\000"
 8880      6C657300 
 8881              	.LASF140:
 8882 07c7 4144435F 		.ascii	"ADC_TypeDef\000"
 8882      54797065 
 8882      44656600 
 8883              	.LASF10:
 8884 07d3 6C6F6E67 		.ascii	"long long int\000"
 8884      206C6F6E 
 8884      6720696E 
 8884      7400
 8885              	.LASF129:
 8886 07e1 41574432 		.ascii	"AWD2CR\000"
 8886      435200
 8887              	.LASF276:
 8888 07e8 6164635F 		.ascii	"adc_buffer\000"
 8888      62756666 
 8888      657200
 8889              	.LASF250:
 8890 07f3 736D7072 		.ascii	"smpr\000"
 8890      00
 8891              	.LASF130:
 8892 07f8 41574433 		.ascii	"AWD3CR\000"
 8892      435200
 8893              	.LASF40:
 8894 07ff 6576656E 		.ascii	"eventmask_t\000"
 8894      746D6173 
 8894      6B5F7400 
 8895              	.LASF221:
 8896 080b 64657074 		.ascii	"depth\000"
 8896      6800
 8897              	.LASF39:
 8898 0811 6D73675F 		.ascii	"msg_t\000"
ARM GAS  C:\Users\DEVELO~1\AppData\Local\Temp\ccFr3SeA.s 			page 164


 8898      7400
 8899              	.LASF253:
 8900 0817 61646365 		.ascii	"adcerror_t\000"
 8900      72726F72 
 8900      5F7400
 8901              	.LASF229:
 8902 0822 41444343 		.ascii	"ADCConfig\000"
 8902      6F6E6669 
 8902      6700
 8903              	.LASF281:
 8904 082c 68616C6C 		.ascii	"hall_pressure\000"
 8904      5F707265 
 8904      73737572 
 8904      6500
 8905              	.LASF255:
 8906 083a 61646363 		.ascii	"adccallback_t\000"
 8906      616C6C62 
 8906      61636B5F 
 8906      7400
 8907              	.LASF92:
 8908 0848 68616C74 		.ascii	"halt\000"
 8908      00
 8909              	.LASF346:
 8910 084d 68616C6C 		.ascii	"hall_range_valid\000"
 8910      5F72616E 
 8910      67655F76 
 8910      616C6964 
 8910      00
 8911              	.LASF158:
 8912 085e 72656769 		.ascii	"registry_t\000"
 8912      73747279 
 8912      5F7400
 8913              	.LASF208:
 8914 0869 696F706F 		.ascii	"ioportmask_t\000"
 8914      72746D61 
 8914      736B5F74 
 8914      00
 8915              	.LASF312:
 8916 0876 68616C6C 		.ascii	"hall_dbg_get_max\000"
 8916      5F646267 
 8916      5F676574 
 8916      5F6D6178 
 8916      00
 8917              	.LASF82:
 8918 0887 63685F71 		.ascii	"ch_queue\000"
 8918      75657565 
 8918      00
 8919              	.LASF308:
 8920 0890 68616C6C 		.ascii	"hall_dbg_get_velocity\000"
 8920      5F646267 
 8920      5F676574 
 8920      5F76656C 
 8920      6F636974 
 8921              	.LASF336:
 8922 08a6 68616C6C 		.ascii	"hall_velocity_from_dv\000"
 8922      5F76656C 
 8922      6F636974 
ARM GAS  C:\Users\DEVELO~1\AppData\Local\Temp\ccFr3SeA.s 			page 165


 8922      795F6672 
 8922      6F6D5F64 
 8923              	.LASF298:
 8924 08bc 68616C6C 		.ascii	"hall_button_t\000"
 8924      5F627574 
 8924      746F6E5F 
 8924      7400
 8925              	.LASF99:
 8926 08ca 73697A65 		.ascii	"size\000"
 8926      00
 8927              	.LASF328:
 8928 08cf 72616E67 		.ascii	"range\000"
 8928      6500
 8929              	.LASF30:
 8930 08d5 68616C6C 		.ascii	"hall_vel_curve_t\000"
 8930      5F76656C 
 8930      5F637572 
 8930      76655F74 
 8930      00
 8931              	.LASF70:
 8932 08e6 6D61736B 		.ascii	"mask\000"
 8932      00
 8933              	.LASF260:
 8934 08eb 4750545F 		.ascii	"GPT_CONTINUOUS\000"
 8934      434F4E54 
 8934      494E554F 
 8934      555300
 8935              	.LASF103:
 8936 08fa 43464752 		.ascii	"CFGR2\000"
 8936      3200
 8937              	.LASF143:
 8938 0900 4144435F 		.ascii	"ADC_Common_TypeDef\000"
 8938      436F6D6D 
 8938      6F6E5F54 
 8938      79706544 
 8938      656600
 8939              	.LASF265:
 8940 0913 67707463 		.ascii	"gptcallback_t\000"
 8940      616C6C62 
 8940      61636B5F 
 8940      7400
 8941              	.LASF292:
 8942 0921 73756D5F 		.ascii	"sum_dv\000"
 8942      647600
 8943              	.LASF295:
 8944 0928 74696D65 		.ascii	"time_count\000"
 8944      5F636F75 
 8944      6E7400
 8945              	.LASF77:
 8946 0933 73797369 		.ascii	"sysinterval_t\000"
 8946      6E746572 
 8946      76616C5F 
 8946      7400
 8947              	.LASF81:
 8948 0941 63685F71 		.ascii	"ch_queue_t\000"
 8948      75657565 
 8948      5F7400
ARM GAS  C:\Users\DEVELO~1\AppData\Local\Temp\ccFr3SeA.s 			page 166


 8949              	.LASF289:
 8950 094c 63757272 		.ascii	"curr_out\000"
 8950      5F6F7574 
 8950      00
 8951              	.LASF73:
 8952 0955 70616E69 		.ascii	"panic_msg\000"
 8952      635F6D73 
 8952      6700
 8953              	.LASF343:
 8954 095f 68616C66 		.ascii	"half_hyst\000"
 8954      5F687973 
 8954      7400
 8955              	.LASF342:
 8956 0969 68616C6C 		.ascii	"hall_update_triggers\000"
 8956      5F757064 
 8956      6174655F 
 8956      74726967 
 8956      67657273 
 8957              	.LASF284:
 8958 097e 68616C6C 		.ascii	"hall_mux_index\000"
 8958      5F6D7578 
 8958      5F696E64 
 8958      657800
 8959              	.LASF301:
 8960 098d 68616C6C 		.ascii	"hall_gpt_interval\000"
 8960      5F677074 
 8960      5F696E74 
 8960      65727661 
 8960      6C00
 8961              	.LASF101:
 8962 099f 74726163 		.ascii	"trace_buffer_t\000"
 8962      655F6275 
 8962      66666572 
 8962      5F7400
 8963              	.LASF322:
 8964 09ae 68616C6C 		.ascii	"hall_get_pressure\000"
 8964      5F676574 
 8964      5F707265 
 8964      73737572 
 8964      6500
 8965              	.LASF35:
 8966 09c0 746D6F64 		.ascii	"tmode_t\000"
 8966      655F7400 
 8967              	.LASF304:
 8968 09c8 61646353 		.ascii	"adcStartConversion\000"
 8968      74617274 
 8968      436F6E76 
 8968      65727369 
 8968      6F6E00
 8969              	.LASF347:
 8970 09db 6D75785F 		.ascii	"mux_select\000"
 8970      73656C65 
 8970      637400
 8971              	.LASF105:
 8972 09e6 534D5052 		.ascii	"SMPR2\000"
 8972      3200
 8973              	.LASF287:
ARM GAS  C:\Users\DEVELO~1\AppData\Local\Temp\ccFr3SeA.s 			page 167


 8974 09ec 74726967 		.ascii	"trig_hi\000"
 8974      5F686900 
 8975              	.LASF66:
 8976 09f4 6D61696E 		.ascii	"mainthread\000"
 8976      74687265 
 8976      616400
 8977              	.LASF251:
 8978 09ff 61646373 		.ascii	"adcsample_t\000"
 8978      616D706C 
 8978      655F7400 
 8979              	.LASF201:
 8980 0a0b 4F535045 		.ascii	"OSPEEDR\000"
 8980      45445200 
 8981              	.LASF306:
 8982 0a13 67707453 		.ascii	"gptStart\000"
 8982      74617274 
 8982      00
 8983              	.LASF272:
 8984 0a1c 41444344 		.ascii	"ADCD1\000"
 8984      3100
 8985              	.LASF357:
 8986 0a22 68616C6C 		.ascii	"hall_update\000"
 8986      5F757064 
 8986      61746500 
 8987              	.LASF142:
 8988 0a2e 43445232 		.ascii	"CDR2\000"
 8988      00
 8989              	.LASF32:
 8990 0a33 6C6F6E67 		.ascii	"long double\000"
 8990      20646F75 
 8990      626C6500 
 8991              	.LASF15:
 8992 0a3f 75696E74 		.ascii	"uint16_t\000"
 8992      31365F74 
 8992      00
 8993              	.LASF355:
 8994 0a48 64726976 		.ascii	"drivers/HallEffect/drv_hall.c\000"
 8994      6572732F 
 8994      48616C6C 
 8994      45666665 
 8994      63742F64 
 8995              	.LASF78:
 8996 0a66 63685F6C 		.ascii	"ch_list_t\000"
 8996      6973745F 
 8996      7400
 8997              	.LASF334:
 8998 0a70 68616C6C 		.ascii	"hall_velocity_from_time\000"
 8998      5F76656C 
 8998      6F636974 
 8998      795F6672 
 8998      6F6D5F74 
 8999              	.LASF293:
 9000 0a88 76656C5F 		.ascii	"vel_start_th\000"
 9000      73746172 
 9000      745F7468 
 9000      00
 9001              	.LASF270:
ARM GAS  C:\Users\DEVELO~1\AppData\Local\Temp\ccFr3SeA.s 			page 168


 9002 0a95 64696572 		.ascii	"dier\000"
 9002      00
 9003              	.LASF214:
 9004 0a9a 4144435F 		.ascii	"ADC_ACTIVE\000"
 9004      41435449 
 9004      564500
 9005              	.LASF196:
 9006 0aa5 43435852 		.ascii	"CCXR\000"
 9006      00
 9007              	.LASF198:
 9008 0aaa 636C6561 		.ascii	"clear\000"
 9008      7200
 9009              	.LASF24:
 9010 0ab0 48414C4C 		.ascii	"HALL_VEL_CURVE_LINEAR\000"
 9010      5F56454C 
 9010      5F435552 
 9010      56455F4C 
 9010      494E4541 
 9011              	.LASF124:
 9012 0ac6 4A445231 		.ascii	"JDR1\000"
 9012      00
 9013              	.LASF126:
 9014 0acb 4A445233 		.ascii	"JDR3\000"
 9014      00
 9015              	.LASF127:
 9016 0ad0 4A445234 		.ascii	"JDR4\000"
 9016      00
 9017              	.LASF148:
 9018 0ad5 444D414D 		.ascii	"DMAMUX_Channel_TypeDef\000"
 9018      55585F43 
 9018      68616E6E 
 9018      656C5F54 
 9018      79706544 
 9019              	.LASF109:
 9020 0aec 52455345 		.ascii	"RESERVED1\000"
 9020      52564544 
 9020      3100
 9021              	.LASF110:
 9022 0af6 52455345 		.ascii	"RESERVED2\000"
 9022      52564544 
 9022      3200
 9023              	.LASF115:
 9024 0b00 52455345 		.ascii	"RESERVED3\000"
 9024      52564544 
 9024      3300
 9025              	.LASF116:
 9026 0b0a 52455345 		.ascii	"RESERVED4\000"
 9026      52564544 
 9026      3400
 9027              	.LASF231:
 9028 0b14 64696673 		.ascii	"difsel\000"
 9028      656C00
 9029              	.LASF128:
 9030 0b1b 52455345 		.ascii	"RESERVED7\000"
 9030      52564544 
 9030      3700
 9031              	.LASF296:
ARM GAS  C:\Users\DEVELO~1\AppData\Local\Temp\ccFr3SeA.s 			page 169


 9032 0b25 74696D65 		.ascii	"time_active\000"
 9032      5F616374 
 9032      69766500 
 9033              	.LASF252:
 9034 0b31 6164635F 		.ascii	"adc_channels_num_t\000"
 9034      6368616E 
 9034      6E656C73 
 9034      5F6E756D 
 9034      5F7400
 9035              	.LASF240:
 9036 0b44 63666772 		.ascii	"cfgr2\000"
 9036      3200
 9037              	.LASF147:
 9038 0b4a 444D415F 		.ascii	"DMA_Stream_TypeDef\000"
 9038      53747265 
 9038      616D5F54 
 9038      79706544 
 9038      656600
 9039              	.LASF149:
 9040 0b5d 706F7274 		.ascii	"port_intctx\000"
 9040      5F696E74 
 9040      63747800 
 9041              	.LASF233:
 9042 0b69 41444343 		.ascii	"ADCConversionGroup\000"
 9042      6F6E7665 
 9042      7273696F 
 9042      6E47726F 
 9042      757000
 9043              	.LASF236:
 9044 0b7c 6E756D5F 		.ascii	"num_channels\000"
 9044      6368616E 
 9044      6E656C73 
 9044      00
 9045              	.LASF230:
 9046 0b89 68616C5F 		.ascii	"hal_adc_config\000"
 9046      6164635F 
 9046      636F6E66 
 9046      696700
 9047              	.LASF317:
 9048 0b98 68616C6C 		.ascii	"hall_set_velocity_curve\000"
 9048      5F736574 
 9048      5F76656C 
 9048      6F636974 
 9048      795F6375 
 9049              	.LASF33:
 9050 0bb0 706F7274 		.ascii	"port_stkalign_t\000"
 9050      5F73746B 
 9050      616C6967 
 9050      6E5F7400 
 9051              	.LASF219:
 9052 0bc0 68616C5F 		.ascii	"hal_adc_driver\000"
 9052      6164635F 
 9052      64726976 
 9052      657200
 9053              	.LASF26:
 9054 0bcf 48414C4C 		.ascii	"HALL_VEL_CURVE_HARD\000"
 9054      5F56454C 
ARM GAS  C:\Users\DEVELO~1\AppData\Local\Temp\ccFr3SeA.s 			page 170


 9054      5F435552 
 9054      56455F48 
 9054      41524400 
 9055              	.LASF200:
 9056 0be3 4F545950 		.ascii	"OTYPER\000"
 9056      455200
 9057              	.LASF359:
 9058 0bea 5F5F7365 		.ascii	"__set_BASEPRI\000"
 9058      745F4241 
 9058      53455052 
 9058      4900
 9059              	.LASF174:
 9060 0bf8 63685F6F 		.ascii	"ch_os_instance_config\000"
 9060      735F696E 
 9060      7374616E 
 9060      63655F63 
 9060      6F6E6669 
 9061              	.LASF152:
 9062 0c0e 646C6973 		.ascii	"dlist\000"
 9062      7400
 9063              	.LASF153:
 9064 0c14 6C617374 		.ascii	"lasttime\000"
 9064      74696D65 
 9064      00
 9065              	.LASF18:
 9066 0c1d 75696E74 		.ascii	"uint64_t\000"
 9066      36345F74 
 9066      00
 9067              	.LASF257:
 9068 0c26 4750545F 		.ascii	"GPT_UNINIT\000"
 9068      554E494E 
 9068      495400
 9069              	.LASF232:
 9070 0c31 63616C69 		.ascii	"calibration\000"
 9070      62726174 
 9070      696F6E00 
 9071              	.LASF102:
 9072 0c3d 43464752 		.ascii	"CFGR\000"
 9072      00
 9073              	.LASF60:
 9074 0c42 726C6973 		.ascii	"rlist\000"
 9074      7400
 9075              	.LASF280:
 9076 0c48 68616C6C 		.ascii	"hall_velocity\000"
 9076      5F76656C 
 9076      6F636974 
 9076      7900
 9077              	.LASF291:
 9078 0c56 64765F70 		.ascii	"dv_peak\000"
 9078      65616B00 
 9079              	.LASF282:
 9080 0c5e 68616C6C 		.ascii	"hall_midi_value\000"
 9080      5F6D6964 
 9080      695F7661 
 9080      6C756500 
 9081              	.LASF3:
 9082 0c6e 5F5F7569 		.ascii	"__uint8_t\000"
ARM GAS  C:\Users\DEVELO~1\AppData\Local\Temp\ccFr3SeA.s 			page 171


 9082      6E74385F 
 9082      7400
 9083              	.LASF211:
 9084 0c78 4144435F 		.ascii	"ADC_UNINIT\000"
 9084      554E494E 
 9084      495400
 9085              	.LASF46:
 9086 0c83 6E616D65 		.ascii	"name\000"
 9086      00
 9087              	.LASF332:
 9088 0c88 655F736C 		.ascii	"e_slow\000"
 9088      6F7700
 9089              	.LASF125:
 9090 0c8f 4A445232 		.ascii	"JDR2\000"
 9090      00
 9091              	.LASF262:
 9092 0c94 67707473 		.ascii	"gptstate_t\000"
 9092      74617465 
 9092      5F7400
 9093              	.LASF146:
 9094 0c9f 4D314152 		.ascii	"M1AR\000"
 9094      00
 9095              	.LASF327:
 9096 0ca4 68616C6C 		.ascii	"hall_init\000"
 9096      5F696E69 
 9096      7400
 9097              	.LASF111:
 9098 0cae 53515231 		.ascii	"SQR1\000"
 9098      00
 9099              	.LASF112:
 9100 0cb3 53515232 		.ascii	"SQR2\000"
 9100      00
 9101              	.LASF113:
 9102 0cb8 53515233 		.ascii	"SQR3\000"
 9102      00
 9103              	.LASF37:
 9104 0cbd 74726566 		.ascii	"trefs_t\000"
 9104      735F7400 
 9105              	.LASF227:
 9106 0cc5 64617461 		.ascii	"data\000"
 9106      00
 9107              	.LASF226:
 9108 0cca 61646363 		.ascii	"adcc\000"
 9108      00
 9109              	.LASF9:
 9110 0ccf 6C6F6E67 		.ascii	"long unsigned int\000"
 9110      20756E73 
 9110      69676E65 
 9110      6420696E 
 9110      7400
 9111              	.LASF213:
 9112 0ce1 4144435F 		.ascii	"ADC_READY\000"
 9112      52454144 
 9112      5900
 9113              	.LASF173:
 9114 0ceb 72656164 		.ascii	"ready_list_t\000"
 9114      795F6C69 
ARM GAS  C:\Users\DEVELO~1\AppData\Local\Temp\ccFr3SeA.s 			page 172


 9114      73745F74 
 9114      00
 9115              	.LASF338:
 9116 0cf8 64765F66 		.ascii	"dv_fast\000"
 9116      61737400 
 9117              	.LASF225:
 9118 0d00 6164636D 		.ascii	"adcm\000"
 9118      00
 9119              	.LASF95:
 9120 0d05 72747374 		.ascii	"rtstamp\000"
 9120      616D7000 
 9121              	.LASF157:
 9122 0d0d 71756575 		.ascii	"queue\000"
 9122      6500
 9123              	.LASF349:
 9124 0d13 61646370 		.ascii	"adcp\000"
 9124      00
 9125              	.LASF348:
 9126 0d18 6164635F 		.ascii	"adc_cb\000"
 9126      636200
 9127              	.LASF16:
 9128 0d1f 696E7433 		.ascii	"int32_t\000"
 9128      325F7400 
 9129              	.LASF71:
 9130 0d27 72666375 		.ascii	"rfcu_t\000"
 9130      5F7400
 9131              	.LASF223:
 9132 0d2e 74687265 		.ascii	"thread\000"
 9132      616400
 9133              	.LASF166:
 9134 0d35 77747365 		.ascii	"wtsemp\000"
 9134      6D7000
 9135              	.LASF85:
 9136 0d3c 63685F70 		.ascii	"ch_priority_queue\000"
 9136      72696F72 
 9136      6974795F 
 9136      71756575 
 9136      6500
 9137              	.LASF195:
 9138 0d4e 43434D52 		.ascii	"CCMR3\000"
 9138      3300
 9139              	.LASF263:
 9140 0d54 47505444 		.ascii	"GPTDriver\000"
 9140      72697665 
 9140      7200
 9141              	.LASF28:
 9142 0d5e 48414C4C 		.ascii	"HALL_VEL_CURVE_EXP\000"
 9142      5F56454C 
 9142      5F435552 
 9142      56455F45 
 9142      585000
 9143              	.LASF180:
 9144 0d71 6D757465 		.ascii	"mutex_t\000"
 9144      785F7400 
 9145              	.LASF94:
 9146 0d79 74797065 		.ascii	"type\000"
 9146      00
ARM GAS  C:\Users\DEVELO~1\AppData\Local\Temp\ccFr3SeA.s 			page 173


 9147              	.LASF1:
 9148 0d7e 756E7369 		.ascii	"unsigned char\000"
 9148      676E6564 
 9148      20636861 
 9148      7200
 9149              	.LASF25:
 9150 0d8c 48414C4C 		.ascii	"HALL_VEL_CURVE_SOFT\000"
 9150      5F56454C 
 9150      5F435552 
 9150      56455F53 
 9150      4F465400 
 9151              	.LASF205:
 9152 0da0 4146524C 		.ascii	"AFRL\000"
 9152      00
 9153              	.LASF8:
 9154 0da5 5F5F7569 		.ascii	"__uint32_t\000"
 9154      6E743332 
 9154      5F7400
 9155              	.LASF51:
 9156 0db0 77616974 		.ascii	"waiting\000"
 9156      696E6700 
 9157              	.LASF155:
 9158 0db8 76697274 		.ascii	"virtual_timers_list_t\000"
 9158      75616C5F 
 9158      74696D65 
 9158      72735F6C 
 9158      6973745F 
 9159              	.LASF17:
 9160 0dce 75696E74 		.ascii	"uint32_t\000"
 9160      33325F74 
 9160      00
 9161              	.LASF108:
 9162 0dd7 48545231 		.ascii	"HTR1\000"
 9162      00
 9163              	.LASF134:
 9164 0ddc 48545232 		.ascii	"HTR2\000"
 9164      00
 9165              	.LASF136:
 9166 0de1 48545233 		.ascii	"HTR3\000"
 9166      00
 9167              	.LASF285:
 9168 0de6 68616C6C 		.ascii	"hall_discard_next\000"
 9168      5F646973 
 9168      63617264 
 9168      5F6E6578 
 9168      7400
 9169              	.LASF314:
 9170 0df8 68616C6C 		.ascii	"hall_get_velocity_curve\000"
 9170      5F676574 
 9170      5F76656C 
 9170      6F636974 
 9170      795F6375 
 9171              	.LASF267:
 9172 0e10 67707463 		.ascii	"gptcnt_t\000"
 9172      6E745F74 
 9172      00
 9173              	.LASF268:
ARM GAS  C:\Users\DEVELO~1\AppData\Local\Temp\ccFr3SeA.s 			page 174


 9174 0e19 66726571 		.ascii	"frequency\000"
 9174      75656E63 
 9174      7900
 9175              	.LASF48:
 9176 0e23 73746174 		.ascii	"state\000"
 9176      6500
 9177              	.LASF269:
 9178 0e29 63616C6C 		.ascii	"callback\000"
 9178      6261636B 
 9178      00
 9179              	.LASF117:
 9180 0e32 4A535152 		.ascii	"JSQR\000"
 9180      00
 9181              	.LASF286:
 9182 0e37 74726967 		.ascii	"trig_lo\000"
 9182      5F6C6F00 
 9183              	.LASF57:
 9184 0e3f 6F735F69 		.ascii	"os_instance_t\000"
 9184      6E737461 
 9184      6E63655F 
 9184      7400
 9185              	.LASF62:
 9186 0e4d 7265676C 		.ascii	"reglist\000"
 9186      69737400 
 9187              	.LASF274:
 9188 0e55 675F7665 		.ascii	"g_vel_mode\000"
 9188      6C5F6D6F 
 9188      646500
 9189              	.LASF209:
 9190 0e60 696F6D6F 		.ascii	"iomode_t\000"
 9190      64655F74 
 9190      00
 9191              	.LASF275:
 9192 0e69 675F7665 		.ascii	"g_vel_curve\000"
 9192      6C5F6375 
 9192      72766500 
 9193              	.LASF177:
 9194 0e75 69646C65 		.ascii	"idlethread_base\000"
 9194      74687265 
 9194      61645F62 
 9194      61736500 
 9195              	.LASF19:
 9196 0e85 48414C4C 		.ascii	"HALL_VEL_MODE_DV_PEAK\000"
 9196      5F56454C 
 9196      5F4D4F44 
 9196      455F4456 
 9196      5F504541 
 9197              	.LASF0:
 9198 0e9b 7369676E 		.ascii	"signed char\000"
 9198      65642063 
 9198      68617200 
 9199              	.LASF89:
 9200 0ea7 64656C74 		.ascii	"delta\000"
 9200      6100
 9201              	.LASF5:
 9202 0ead 73686F72 		.ascii	"short unsigned int\000"
 9202      7420756E 
ARM GAS  C:\Users\DEVELO~1\AppData\Local\Temp\ccFr3SeA.s 			page 175


 9202      7369676E 
 9202      65642069 
 9202      6E7400
 9203              	.LASF248:
 9204 0ec0 61776432 		.ascii	"awd2cr\000"
 9204      637200
 9205              	.LASF34:
 9206 0ec7 73746B61 		.ascii	"stkalign_t\000"
 9206      6C69676E 
 9206      5F7400
 9207              	.LASF264:
 9208 0ed2 636C6F63 		.ascii	"clock\000"
 9208      6B00
 9209              	.LASF341:
 9210 0ed8 68616C6C 		.ascii	"hall_process_channel\000"
 9210      5F70726F 
 9210      63657373 
 9210      5F636861 
 9210      6E6E656C 
 9211              	.LASF20:
 9212 0eed 48414C4C 		.ascii	"HALL_VEL_MODE_TIME\000"
 9212      5F56454C 
 9212      5F4D4F44 
 9212      455F5449 
 9212      4D4500
 9213              	.LASF2:
 9214 0f00 73686F72 		.ascii	"short int\000"
 9214      7420696E 
 9214      7400
 9215              	.LASF45:
 9216 0f0a 6F776E65 		.ascii	"owner\000"
 9216      7200
 9217              	.LASF249:
 9218 0f10 61776433 		.ascii	"awd3cr\000"
 9218      637200
 9219              	.LASF172:
 9220 0f17 63757272 		.ascii	"current\000"
 9220      656E7400 
 9221              	.LASF358:
 9222 0f1f 5F5F6675 		.ascii	"__func__\000"
 9222      6E635F5F 
 9222      00
 9223              	.LASF212:
 9224 0f28 4144435F 		.ascii	"ADC_STOP\000"
 9224      53544F50 
 9224      00
 9225              	.LASF222:
 9226 0f31 67727070 		.ascii	"grpp\000"
 9226      00
 9227              	.LASF315:
 9228 0f36 68616C6C 		.ascii	"hall_get_velocity_mode\000"
 9228      5F676574 
 9228      5F76656C 
 9228      6F636974 
 9228      795F6D6F 
 9229              	.LASF118:
 9230 0f4d 52455345 		.ascii	"RESERVED5\000"
ARM GAS  C:\Users\DEVELO~1\AppData\Local\Temp\ccFr3SeA.s 			page 176


 9230      52564544 
 9230      3500
 9231              	.LASF91:
 9232 0f57 72656173 		.ascii	"reason\000"
 9232      6F6E00
 9233              	.LASF131:
 9234 0f5e 52455345 		.ascii	"RESERVED8\000"
 9234      52564544 
 9234      3800
 9235              	.LASF132:
 9236 0f68 52455345 		.ascii	"RESERVED9\000"
 9236      52564544 
 9236      3900
 9237              	.LASF234:
 9238 0f72 68616C5F 		.ascii	"hal_adc_configuration_group\000"
 9238      6164635F 
 9238      636F6E66 
 9238      69677572 
 9238      6174696F 
 9239              	.LASF164:
 9240 0f8e 77747472 		.ascii	"wttrp\000"
 9240      7000
 9241              	.LASF163:
 9242 0f94 65786974 		.ascii	"exitcode\000"
 9242      636F6465 
 9242      00
 9243              	.LASF185:
 9244 0f9d 73656C66 		.ascii	"selfindex\000"
 9244      696E6465 
 9244      7800
 9245              	.LASF42:
 9246 0fa7 636F7265 		.ascii	"core_id_t\000"
 9246      5F69645F 
 9246      7400
 9247              	.LASF56:
 9248 0fb1 6D706F6F 		.ascii	"mpool\000"
 9248      6C00
 9249              	.LASF339:
 9250 0fb7 68616C6C 		.ascii	"hall_apply_curve\000"
 9250      5F617070 
 9250      6C795F63 
 9250      75727665 
 9250      00
 9251              	.LASF27:
 9252 0fc8 48414C4C 		.ascii	"HALL_VEL_CURVE_LOG\000"
 9252      5F56454C 
 9252      5F435552 
 9252      56455F4C 
 9252      4F4700
 9253              		.ident	"GCC: (Arm GNU Toolchain 11.3.Rel1) 11.3.1 20220712"
ARM GAS  C:\Users\DEVELO~1\AppData\Local\Temp\ccFr3SeA.s 			page 177


DEFINED SYMBOLS
                            *ABS*:00000000 drv_hall.c
C:\Users\DEVELO~1\AppData\Local\Temp\ccFr3SeA.s:18     .text.chSysLock:00000000 $t
C:\Users\DEVELO~1\AppData\Local\Temp\ccFr3SeA.s:23     .text.chSysLock:00000000 chSysLock
C:\Users\DEVELO~1\AppData\Local\Temp\ccFr3SeA.s:77     .text.chSysUnlock:00000000 $t
C:\Users\DEVELO~1\AppData\Local\Temp\ccFr3SeA.s:82     .text.chSysUnlock:00000000 chSysUnlock
C:\Users\DEVELO~1\AppData\Local\Temp\ccFr3SeA.s:135    .data.g_vel_mode:00000000 g_vel_mode
C:\Users\DEVELO~1\AppData\Local\Temp\ccFr3SeA.s:140    .data.g_vel_curve:00000000 g_vel_curve
C:\Users\DEVELO~1\AppData\Local\Temp\ccFr3SeA.s:143    .ramd2:00000000 $d
C:\Users\DEVELO~1\AppData\Local\Temp\ccFr3SeA.s:146    .ramd2:00000000 adc_buffer
C:\Users\DEVELO~1\AppData\Local\Temp\ccFr3SeA.s:149    .bss.hall_values:00000000 $d
C:\Users\DEVELO~1\AppData\Local\Temp\ccFr3SeA.s:152    .bss.hall_values:00000000 hall_values
C:\Users\DEVELO~1\AppData\Local\Temp\ccFr3SeA.s:155    .bss.hall_note_on:00000000 $d
C:\Users\DEVELO~1\AppData\Local\Temp\ccFr3SeA.s:158    .bss.hall_note_on:00000000 hall_note_on
C:\Users\DEVELO~1\AppData\Local\Temp\ccFr3SeA.s:161    .bss.hall_note_off:00000000 $d
C:\Users\DEVELO~1\AppData\Local\Temp\ccFr3SeA.s:164    .bss.hall_note_off:00000000 hall_note_off
C:\Users\DEVELO~1\AppData\Local\Temp\ccFr3SeA.s:167    .bss.hall_velocity:00000000 $d
C:\Users\DEVELO~1\AppData\Local\Temp\ccFr3SeA.s:170    .bss.hall_velocity:00000000 hall_velocity
C:\Users\DEVELO~1\AppData\Local\Temp\ccFr3SeA.s:173    .bss.hall_pressure:00000000 $d
C:\Users\DEVELO~1\AppData\Local\Temp\ccFr3SeA.s:176    .bss.hall_pressure:00000000 hall_pressure
C:\Users\DEVELO~1\AppData\Local\Temp\ccFr3SeA.s:179    .bss.hall_midi_value:00000000 $d
C:\Users\DEVELO~1\AppData\Local\Temp\ccFr3SeA.s:182    .bss.hall_midi_value:00000000 hall_midi_value
C:\Users\DEVELO~1\AppData\Local\Temp\ccFr3SeA.s:187    .bss.hall_initialized:00000000 hall_initialized
C:\Users\DEVELO~1\AppData\Local\Temp\ccFr3SeA.s:188    .bss.hall_initialized:00000000 $d
C:\Users\DEVELO~1\AppData\Local\Temp\ccFr3SeA.s:192    .bss.hall_mux_index:00000000 hall_mux_index
C:\Users\DEVELO~1\AppData\Local\Temp\ccFr3SeA.s:193    .bss.hall_mux_index:00000000 $d
C:\Users\DEVELO~1\AppData\Local\Temp\ccFr3SeA.s:197    .data.hall_discard_next:00000000 hall_discard_next
C:\Users\DEVELO~1\AppData\Local\Temp\ccFr3SeA.s:200    .bss.hall_btn:00000000 $d
C:\Users\DEVELO~1\AppData\Local\Temp\ccFr3SeA.s:203    .bss.hall_btn:00000000 hall_btn
C:\Users\DEVELO~1\AppData\Local\Temp\ccFr3SeA.s:206    .rodata.hall_gptcfg:00000000 $d
C:\Users\DEVELO~1\AppData\Local\Temp\ccFr3SeA.s:209    .rodata.hall_gptcfg:00000000 hall_gptcfg
C:\Users\DEVELO~1\AppData\Local\Temp\ccFr3SeA.s:215    .rodata.hall_gpt_interval:00000000 $d
C:\Users\DEVELO~1\AppData\Local\Temp\ccFr3SeA.s:218    .rodata.hall_gpt_interval:00000000 hall_gpt_interval
C:\Users\DEVELO~1\AppData\Local\Temp\ccFr3SeA.s:221    .text.adc_cb:00000000 $t
C:\Users\DEVELO~1\AppData\Local\Temp\ccFr3SeA.s:226    .text.adc_cb:00000000 adc_cb
C:\Users\DEVELO~1\AppData\Local\Temp\ccFr3SeA.s:1527   .text.hall_process_channel:00000000 hall_process_channel
C:\Users\DEVELO~1\AppData\Local\Temp\ccFr3SeA.s:366    .text.mux_select:00000000 mux_select
C:\Users\DEVELO~1\AppData\Local\Temp\ccFr3SeA.s:325    .text.adc_cb:00000084 $d
C:\Users\DEVELO~1\AppData\Local\Temp\ccFr3SeA.s:333    .rodata.adcgrpcfg:00000000 $d
C:\Users\DEVELO~1\AppData\Local\Temp\ccFr3SeA.s:336    .rodata.adcgrpcfg:00000000 adcgrpcfg
C:\Users\DEVELO~1\AppData\Local\Temp\ccFr3SeA.s:361    .text.mux_select:00000000 $t
C:\Users\DEVELO~1\AppData\Local\Temp\ccFr3SeA.s:473    .text.mux_select:00000090 $d
C:\Users\DEVELO~1\AppData\Local\Temp\ccFr3SeA.s:478    .text.hall_range_valid:00000000 $t
C:\Users\DEVELO~1\AppData\Local\Temp\ccFr3SeA.s:483    .text.hall_range_valid:00000000 hall_range_valid
C:\Users\DEVELO~1\AppData\Local\Temp\ccFr3SeA.s:544    .text.hall_update_triggers:00000000 $t
C:\Users\DEVELO~1\AppData\Local\Temp\ccFr3SeA.s:549    .text.hall_update_triggers:00000000 hall_update_triggers
C:\Users\DEVELO~1\AppData\Local\Temp\ccFr3SeA.s:709    .text.hall_update_triggers:000000dc $d
C:\Users\DEVELO~1\AppData\Local\Temp\ccFr3SeA.s:714    .text.isqrt_u32:00000000 $t
C:\Users\DEVELO~1\AppData\Local\Temp\ccFr3SeA.s:719    .text.isqrt_u32:00000000 isqrt_u32
C:\Users\DEVELO~1\AppData\Local\Temp\ccFr3SeA.s:814    .text.hall_apply_curve:00000000 $t
C:\Users\DEVELO~1\AppData\Local\Temp\ccFr3SeA.s:819    .text.hall_apply_curve:00000000 hall_apply_curve
C:\Users\DEVELO~1\AppData\Local\Temp\ccFr3SeA.s:863    .text.hall_apply_curve:00000034 $d
C:\Users\DEVELO~1\AppData\Local\Temp\ccFr3SeA.s:868    .text.hall_apply_curve:00000048 $t
C:\Users\DEVELO~1\AppData\Local\Temp\ccFr3SeA.s:1048   .text.hall_apply_curve:00000138 $d
C:\Users\DEVELO~1\AppData\Local\Temp\ccFr3SeA.s:1054   .text.hall_velocity_from_dv:00000000 $t
C:\Users\DEVELO~1\AppData\Local\Temp\ccFr3SeA.s:1059   .text.hall_velocity_from_dv:00000000 hall_velocity_from_dv
C:\Users\DEVELO~1\AppData\Local\Temp\ccFr3SeA.s:1193   .text.hall_velocity_from_time:00000000 $t
ARM GAS  C:\Users\DEVELO~1\AppData\Local\Temp\ccFr3SeA.s 			page 178


C:\Users\DEVELO~1\AppData\Local\Temp\ccFr3SeA.s:1198   .text.hall_velocity_from_time:00000000 hall_velocity_from_time
C:\Users\DEVELO~1\AppData\Local\Temp\ccFr3SeA.s:1284   .text.hall_velocity_from_energy:00000000 $t
C:\Users\DEVELO~1\AppData\Local\Temp\ccFr3SeA.s:1289   .text.hall_velocity_from_energy:00000000 hall_velocity_from_energy
C:\Users\DEVELO~1\AppData\Local\Temp\ccFr3SeA.s:1423   .text.hall_velocity_compute:00000000 $t
C:\Users\DEVELO~1\AppData\Local\Temp\ccFr3SeA.s:1428   .text.hall_velocity_compute:00000000 hall_velocity_compute
C:\Users\DEVELO~1\AppData\Local\Temp\ccFr3SeA.s:1516   .text.hall_velocity_compute:00000078 $d
C:\Users\DEVELO~1\AppData\Local\Temp\ccFr3SeA.s:1522   .text.hall_process_channel:00000000 $t
C:\Users\DEVELO~1\AppData\Local\Temp\ccFr3SeA.s:1898   .text.hall_process_channel:000001f0 $d
C:\Users\DEVELO~1\AppData\Local\Temp\ccFr3SeA.s:1906   .text.hall_init:00000000 $t
C:\Users\DEVELO~1\AppData\Local\Temp\ccFr3SeA.s:1912   .text.hall_init:00000000 hall_init
C:\Users\DEVELO~1\AppData\Local\Temp\ccFr3SeA.s:2226   .text.hall_init:000001ec $d
C:\Users\DEVELO~1\AppData\Local\Temp\ccFr3SeA.s:2247   .text.hall_update:00000000 $t
C:\Users\DEVELO~1\AppData\Local\Temp\ccFr3SeA.s:2253   .text.hall_update:00000000 hall_update
C:\Users\DEVELO~1\AppData\Local\Temp\ccFr3SeA.s:2278   .text.hall_get:00000000 $t
C:\Users\DEVELO~1\AppData\Local\Temp\ccFr3SeA.s:2284   .text.hall_get:00000000 hall_get
C:\Users\DEVELO~1\AppData\Local\Temp\ccFr3SeA.s:2328   .text.hall_get:00000028 $d
C:\Users\DEVELO~1\AppData\Local\Temp\ccFr3SeA.s:2333   .text.hall_get_note_on:00000000 $t
C:\Users\DEVELO~1\AppData\Local\Temp\ccFr3SeA.s:2339   .text.hall_get_note_on:00000000 hall_get_note_on
C:\Users\DEVELO~1\AppData\Local\Temp\ccFr3SeA.s:2393   .text.hall_get_note_on:00000038 $d
C:\Users\DEVELO~1\AppData\Local\Temp\ccFr3SeA.s:2398   .text.hall_get_note_off:00000000 $t
C:\Users\DEVELO~1\AppData\Local\Temp\ccFr3SeA.s:2404   .text.hall_get_note_off:00000000 hall_get_note_off
C:\Users\DEVELO~1\AppData\Local\Temp\ccFr3SeA.s:2458   .text.hall_get_note_off:00000038 $d
C:\Users\DEVELO~1\AppData\Local\Temp\ccFr3SeA.s:2463   .text.hall_get_velocity:00000000 $t
C:\Users\DEVELO~1\AppData\Local\Temp\ccFr3SeA.s:2469   .text.hall_get_velocity:00000000 hall_get_velocity
C:\Users\DEVELO~1\AppData\Local\Temp\ccFr3SeA.s:2513   .text.hall_get_velocity:00000028 $d
C:\Users\DEVELO~1\AppData\Local\Temp\ccFr3SeA.s:2518   .text.hall_get_pressure:00000000 $t
C:\Users\DEVELO~1\AppData\Local\Temp\ccFr3SeA.s:2524   .text.hall_get_pressure:00000000 hall_get_pressure
C:\Users\DEVELO~1\AppData\Local\Temp\ccFr3SeA.s:2568   .text.hall_get_pressure:00000028 $d
C:\Users\DEVELO~1\AppData\Local\Temp\ccFr3SeA.s:2573   .text.hall_get_midi_value:00000000 $t
C:\Users\DEVELO~1\AppData\Local\Temp\ccFr3SeA.s:2579   .text.hall_get_midi_value:00000000 hall_get_midi_value
C:\Users\DEVELO~1\AppData\Local\Temp\ccFr3SeA.s:2623   .text.hall_get_midi_value:00000028 $d
C:\Users\DEVELO~1\AppData\Local\Temp\ccFr3SeA.s:2628   .text.hall_set_velocity_mode:00000000 $t
C:\Users\DEVELO~1\AppData\Local\Temp\ccFr3SeA.s:2634   .text.hall_set_velocity_mode:00000000 hall_set_velocity_mode
C:\Users\DEVELO~1\AppData\Local\Temp\ccFr3SeA.s:2673   .text.hall_set_velocity_mode:00000020 $d
C:\Users\DEVELO~1\AppData\Local\Temp\ccFr3SeA.s:2678   .text.hall_set_velocity_curve:00000000 $t
C:\Users\DEVELO~1\AppData\Local\Temp\ccFr3SeA.s:2684   .text.hall_set_velocity_curve:00000000 hall_set_velocity_curve
C:\Users\DEVELO~1\AppData\Local\Temp\ccFr3SeA.s:2723   .text.hall_set_velocity_curve:00000020 $d
C:\Users\DEVELO~1\AppData\Local\Temp\ccFr3SeA.s:2728   .text.hall_get_velocity_mode:00000000 $t
C:\Users\DEVELO~1\AppData\Local\Temp\ccFr3SeA.s:2734   .text.hall_get_velocity_mode:00000000 hall_get_velocity_mode
C:\Users\DEVELO~1\AppData\Local\Temp\ccFr3SeA.s:2762   .text.hall_get_velocity_mode:00000014 $d
C:\Users\DEVELO~1\AppData\Local\Temp\ccFr3SeA.s:2767   .text.hall_get_velocity_curve:00000000 $t
C:\Users\DEVELO~1\AppData\Local\Temp\ccFr3SeA.s:2773   .text.hall_get_velocity_curve:00000000 hall_get_velocity_curve
C:\Users\DEVELO~1\AppData\Local\Temp\ccFr3SeA.s:2801   .text.hall_get_velocity_curve:00000014 $d
C:\Users\DEVELO~1\AppData\Local\Temp\ccFr3SeA.s:2806   .text.hall_dbg_get_min:00000000 $t
C:\Users\DEVELO~1\AppData\Local\Temp\ccFr3SeA.s:2812   .text.hall_dbg_get_min:00000000 hall_dbg_get_min
C:\Users\DEVELO~1\AppData\Local\Temp\ccFr3SeA.s:2860   .text.hall_dbg_get_min:00000030 $d
C:\Users\DEVELO~1\AppData\Local\Temp\ccFr3SeA.s:2865   .text.hall_dbg_get_max:00000000 $t
C:\Users\DEVELO~1\AppData\Local\Temp\ccFr3SeA.s:2871   .text.hall_dbg_get_max:00000000 hall_dbg_get_max
C:\Users\DEVELO~1\AppData\Local\Temp\ccFr3SeA.s:2920   .text.hall_dbg_get_max:00000030 $d
C:\Users\DEVELO~1\AppData\Local\Temp\ccFr3SeA.s:2925   .text.hall_dbg_get_trig_lo:00000000 $t
C:\Users\DEVELO~1\AppData\Local\Temp\ccFr3SeA.s:2931   .text.hall_dbg_get_trig_lo:00000000 hall_dbg_get_trig_lo
C:\Users\DEVELO~1\AppData\Local\Temp\ccFr3SeA.s:2980   .text.hall_dbg_get_trig_lo:00000030 $d
C:\Users\DEVELO~1\AppData\Local\Temp\ccFr3SeA.s:2985   .text.hall_dbg_get_trig_hi:00000000 $t
C:\Users\DEVELO~1\AppData\Local\Temp\ccFr3SeA.s:2991   .text.hall_dbg_get_trig_hi:00000000 hall_dbg_get_trig_hi
C:\Users\DEVELO~1\AppData\Local\Temp\ccFr3SeA.s:3040   .text.hall_dbg_get_trig_hi:00000030 $d
C:\Users\DEVELO~1\AppData\Local\Temp\ccFr3SeA.s:3045   .text.hall_dbg_get_state:00000000 $t
C:\Users\DEVELO~1\AppData\Local\Temp\ccFr3SeA.s:3051   .text.hall_dbg_get_state:00000000 hall_dbg_get_state
ARM GAS  C:\Users\DEVELO~1\AppData\Local\Temp\ccFr3SeA.s 			page 179


C:\Users\DEVELO~1\AppData\Local\Temp\ccFr3SeA.s:3100   .text.hall_dbg_get_state:00000030 $d
C:\Users\DEVELO~1\AppData\Local\Temp\ccFr3SeA.s:3105   .text.hall_dbg_get_velocity:00000000 $t
C:\Users\DEVELO~1\AppData\Local\Temp\ccFr3SeA.s:3111   .text.hall_dbg_get_velocity:00000000 hall_dbg_get_velocity
C:\Users\DEVELO~1\AppData\Local\Temp\ccFr3SeA.s:3160   .text.hall_dbg_get_velocity:00000030 $d

UNDEFINED SYMBOLS
_pal_lld_setgroupmode
gptStart
adcStart
adcStartConversion
gptStartContinuous
GPTD4
ADCD1
