ARM GAS  C:\Users\DEVELO~1\AppData\Local\Temp\cc5fkIXN.s 			page 1


   1              		.cpu cortex-m7
   2              		.arch armv7e-m
   3              		.fpu softvfp
   4              		.eabi_attribute 20, 1
   5              		.eabi_attribute 21, 1
   6              		.eabi_attribute 23, 3
   7              		.eabi_attribute 24, 1
   8              		.eabi_attribute 25, 1
   9              		.eabi_attribute 26, 1
  10              		.eabi_attribute 30, 6
  11              		.eabi_attribute 34, 1
  12              		.eabi_attribute 18, 4
  13              		.file	"drv_display.c"
  14              		.text
  15              	.Ltext0:
  16              		.cfi_sections	.debug_frame
  17              		.section	.text.chThdGetSelfX,"ax",%progbits
  18              		.align	1
  19              		.syntax unified
  20              		.thumb
  21              		.thumb_func
  22              		.type	chThdGetSelfX, %function
  23              	chThdGetSelfX:
  24              	.LFB229:
  25              		.file 1 "../../../os/rt/include/chthreads.h"
  26              		.loc 1 341 45
  27              		.cfi_startproc
  28              		@ args = 0, pretend = 0, frame = 0
  29              		@ frame_needed = 1, uses_anonymous_args = 0
  30              		@ link register save eliminated.
  31 0000 80B4     		push	{r7}
  32              		.cfi_def_cfa_offset 4
  33              		.cfi_offset 7, -4
  34 0002 00AF     		add	r7, sp, #0
  35              		.cfi_def_cfa_register 7
  36              		.loc 1 343 10
  37 0004 024B     		ldr	r3, .L3
  38 0006 DB68     		ldr	r3, [r3, #12]
  39              		.loc 1 344 1
  40 0008 1846     		mov	r0, r3
  41 000a BD46     		mov	sp, r7
  42              		.cfi_def_cfa_register 13
  43              		@ sp needed
  44 000c 80BC     		pop	{r7}
  45              		.cfi_restore 7
  46              		.cfi_def_cfa_offset 0
  47 000e 7047     		bx	lr
  48              	.L4:
  49              		.align	2
  50              	.L3:
  51 0010 00000000 		.word	ch0
  52              		.cfi_endproc
  53              	.LFE229:
  54              		.size	chThdGetSelfX, .-chThdGetSelfX
  55              		.section	.text.chThdTerminatedX,"ax",%progbits
  56              		.align	1
  57              		.syntax unified
ARM GAS  C:\Users\DEVELO~1\AppData\Local\Temp\cc5fkIXN.s 			page 2


  58              		.thumb
  59              		.thumb_func
  60              		.type	chThdTerminatedX, %function
  61              	chThdTerminatedX:
  62              	.LFB232:
  63              		.loc 1 401 51
  64              		.cfi_startproc
  65              		@ args = 0, pretend = 0, frame = 8
  66              		@ frame_needed = 1, uses_anonymous_args = 0
  67              		@ link register save eliminated.
  68 0000 80B4     		push	{r7}
  69              		.cfi_def_cfa_offset 4
  70              		.cfi_offset 7, -4
  71 0002 83B0     		sub	sp, sp, #12
  72              		.cfi_def_cfa_offset 16
  73 0004 00AF     		add	r7, sp, #0
  74              		.cfi_def_cfa_register 7
  75 0006 7860     		str	r0, [r7, #4]
  76              		.loc 1 403 19
  77 0008 7B68     		ldr	r3, [r7, #4]
  78 000a 93F82430 		ldrb	r3, [r3, #36]	@ zero_extendqisi2
  79              		.loc 1 403 10
  80 000e 0F2B     		cmp	r3, #15
  81 0010 0CBF     		ite	eq
  82 0012 0123     		moveq	r3, #1
  83 0014 0023     		movne	r3, #0
  84 0016 DBB2     		uxtb	r3, r3
  85              		.loc 1 404 1
  86 0018 1846     		mov	r0, r3
  87 001a 0C37     		adds	r7, r7, #12
  88              		.cfi_def_cfa_offset 4
  89 001c BD46     		mov	sp, r7
  90              		.cfi_def_cfa_register 13
  91              		@ sp needed
  92 001e 80BC     		pop	{r7}
  93              		.cfi_restore 7
  94              		.cfi_def_cfa_offset 0
  95 0020 7047     		bx	lr
  96              		.cfi_endproc
  97              	.LFE232:
  98              		.size	chThdTerminatedX, .-chThdTerminatedX
  99              		.section	.text.chThdShouldTerminateX,"ax",%progbits
 100              		.align	1
 101              		.syntax unified
 102              		.thumb
 103              		.thumb_func
 104              		.type	chThdShouldTerminateX, %function
 105              	chThdShouldTerminateX:
 106              	.LFB233:
 107              		.loc 1 414 48
 108              		.cfi_startproc
 109              		@ args = 0, pretend = 0, frame = 0
 110              		@ frame_needed = 1, uses_anonymous_args = 0
 111 0000 80B5     		push	{r7, lr}
 112              		.cfi_def_cfa_offset 8
 113              		.cfi_offset 7, -8
 114              		.cfi_offset 14, -4
ARM GAS  C:\Users\DEVELO~1\AppData\Local\Temp\cc5fkIXN.s 			page 3


 115 0002 00AF     		add	r7, sp, #0
 116              		.cfi_def_cfa_register 7
 117              		.loc 1 416 18
 118 0004 FFF7FEFF 		bl	chThdGetSelfX
 119 0008 0346     		mov	r3, r0
 120              		.loc 1 416 33
 121 000a 93F82530 		ldrb	r3, [r3, #37]	@ zero_extendqisi2
 122              		.loc 1 416 41
 123 000e 03F00403 		and	r3, r3, #4
 124              		.loc 1 416 10
 125 0012 002B     		cmp	r3, #0
 126 0014 14BF     		ite	ne
 127 0016 0123     		movne	r3, #1
 128 0018 0023     		moveq	r3, #0
 129 001a DBB2     		uxtb	r3, r3
 130              		.loc 1 417 1
 131 001c 1846     		mov	r0, r3
 132 001e 80BD     		pop	{r7, pc}
 133              		.cfi_endproc
 134              	.LFE233:
 135              		.size	chThdShouldTerminateX, .-chThdShouldTerminateX
 136              		.section	.text.chRegSetThreadName,"ax",%progbits
 137              		.align	1
 138              		.syntax unified
 139              		.thumb
 140              		.thumb_func
 141              		.type	chRegSetThreadName, %function
 142              	chRegSetThreadName:
 143              	.LFB240:
 144              		.file 2 "../../../os/rt/include/chregistry.h"
 145              		.loc 2 165 57
 146              		.cfi_startproc
 147              		@ args = 0, pretend = 0, frame = 8
 148              		@ frame_needed = 1, uses_anonymous_args = 0
 149              		@ link register save eliminated.
 150 0000 80B4     		push	{r7}
 151              		.cfi_def_cfa_offset 4
 152              		.cfi_offset 7, -4
 153 0002 83B0     		sub	sp, sp, #12
 154              		.cfi_def_cfa_offset 16
 155 0004 00AF     		add	r7, sp, #0
 156              		.cfi_def_cfa_register 7
 157 0006 7860     		str	r0, [r7, #4]
 158              		.loc 2 168 3
 159 0008 044B     		ldr	r3, .L10
 160 000a DB68     		ldr	r3, [r3, #12]
 161              		.loc 2 168 32
 162 000c 7A68     		ldr	r2, [r7, #4]
 163 000e DA61     		str	r2, [r3, #28]
 164              		.loc 2 172 1
 165 0010 00BF     		nop
 166 0012 0C37     		adds	r7, r7, #12
 167              		.cfi_def_cfa_offset 4
 168 0014 BD46     		mov	sp, r7
 169              		.cfi_def_cfa_register 13
 170              		@ sp needed
 171 0016 80BC     		pop	{r7}
ARM GAS  C:\Users\DEVELO~1\AppData\Local\Temp\cc5fkIXN.s 			page 4


 172              		.cfi_restore 7
 173              		.cfi_def_cfa_offset 0
 174 0018 7047     		bx	lr
 175              	.L11:
 176 001a 00BF     		.align	2
 177              	.L10:
 178 001c 00000000 		.word	ch0
 179              		.cfi_endproc
 180              	.LFE240:
 181              		.size	chRegSetThreadName, .-chRegSetThreadName
 182              		.section	.rodata.spicfg,"a"
 183              		.align	2
 184              		.type	spicfg, %object
 185              		.size	spicfg, 28
 186              	spicfg:
 187 0000 00       		.byte	0
 188 0001 00       		.byte	0
 189 0002 0000     		.space	2
 190 0004 00000000 		.word	0
 191 0008 00000000 		.word	0
 192 000c 00000000 		.space	8
 192      00000000 
 193 0014 07000040 		.word	1073741831
 194 0018 00004004 		.word	71303168
 195              		.section	.bss.buffer,"aw",%nobits
 196              		.align	2
 197              		.type	buffer, %object
 198              		.size	buffer, 1024
 199              	buffer:
 200 0000 00000000 		.space	1024
 200      00000000 
 200      00000000 
 200      00000000 
 200      00000000 
 201              		.section	.bss.current_font,"aw",%nobits
 202              		.align	2
 203              		.type	current_font, %object
 204              		.size	current_font, 4
 205              	current_font:
 206 0000 00000000 		.space	4
 207              		.section	.bss.display_tp,"aw",%nobits
 208              		.align	2
 209              		.type	display_tp, %object
 210              		.size	display_tp, 4
 211              	display_tp:
 212 0000 00000000 		.space	4
 213              		.section	.text.cs_low,"ax",%progbits
 214              		.align	1
 215              		.syntax unified
 216              		.thumb
 217              		.thumb_func
 218              		.type	cs_low, %function
 219              	cs_low:
 220              	.LFB435:
 221              		.file 3 "drivers/drv_display.c"
 222              		.loc 3 57 34
 223              		.cfi_startproc
ARM GAS  C:\Users\DEVELO~1\AppData\Local\Temp\cc5fkIXN.s 			page 5


 224              		@ args = 0, pretend = 0, frame = 0
 225              		@ frame_needed = 1, uses_anonymous_args = 0
 226              		@ link register save eliminated.
 227 0000 80B4     		push	{r7}
 228              		.cfi_def_cfa_offset 4
 229              		.cfi_offset 7, -4
 230 0002 00AF     		add	r7, sp, #0
 231              		.cfi_def_cfa_register 7
 232              		.loc 3 57 36
 233 0004 034B     		ldr	r3, .L13
 234 0006 0422     		movs	r2, #4
 235 0008 5A83     		strh	r2, [r3, #26]	@ movhi
 236              		.loc 3 57 69
 237 000a 00BF     		nop
 238 000c BD46     		mov	sp, r7
 239              		.cfi_def_cfa_register 13
 240              		@ sp needed
 241 000e 80BC     		pop	{r7}
 242              		.cfi_restore 7
 243              		.cfi_def_cfa_offset 0
 244 0010 7047     		bx	lr
 245              	.L14:
 246 0012 00BF     		.align	2
 247              	.L13:
 248 0014 00100258 		.word	1476530176
 249              		.cfi_endproc
 250              	.LFE435:
 251              		.size	cs_low, .-cs_low
 252              		.section	.text.cs_high,"ax",%progbits
 253              		.align	1
 254              		.syntax unified
 255              		.thumb
 256              		.thumb_func
 257              		.type	cs_high, %function
 258              	cs_high:
 259              	.LFB436:
 260              		.loc 3 58 34
 261              		.cfi_startproc
 262              		@ args = 0, pretend = 0, frame = 0
 263              		@ frame_needed = 1, uses_anonymous_args = 0
 264              		@ link register save eliminated.
 265 0000 80B4     		push	{r7}
 266              		.cfi_def_cfa_offset 4
 267              		.cfi_offset 7, -4
 268 0002 00AF     		add	r7, sp, #0
 269              		.cfi_def_cfa_register 7
 270              		.loc 3 58 36
 271 0004 034B     		ldr	r3, .L16
 272 0006 0422     		movs	r2, #4
 273 0008 1A83     		strh	r2, [r3, #24]	@ movhi
 274              		.loc 3 58 69
 275 000a 00BF     		nop
 276 000c BD46     		mov	sp, r7
 277              		.cfi_def_cfa_register 13
 278              		@ sp needed
 279 000e 80BC     		pop	{r7}
 280              		.cfi_restore 7
ARM GAS  C:\Users\DEVELO~1\AppData\Local\Temp\cc5fkIXN.s 			page 6


 281              		.cfi_def_cfa_offset 0
 282 0010 7047     		bx	lr
 283              	.L17:
 284 0012 00BF     		.align	2
 285              	.L16:
 286 0014 00100258 		.word	1476530176
 287              		.cfi_endproc
 288              	.LFE436:
 289              		.size	cs_high, .-cs_high
 290              		.section	.text.dc_cmd,"ax",%progbits
 291              		.align	1
 292              		.syntax unified
 293              		.thumb
 294              		.thumb_func
 295              		.type	dc_cmd, %function
 296              	dc_cmd:
 297              	.LFB437:
 298              		.loc 3 59 34
 299              		.cfi_startproc
 300              		@ args = 0, pretend = 0, frame = 0
 301              		@ frame_needed = 1, uses_anonymous_args = 0
 302              		@ link register save eliminated.
 303 0000 80B4     		push	{r7}
 304              		.cfi_def_cfa_offset 4
 305              		.cfi_offset 7, -4
 306 0002 00AF     		add	r7, sp, #0
 307              		.cfi_def_cfa_register 7
 308              		.loc 3 59 36
 309 0004 034B     		ldr	r3, .L19
 310 0006 4FF40062 		mov	r2, #2048
 311 000a 5A83     		strh	r2, [r3, #26]	@ movhi
 312              		.loc 3 59 69
 313 000c 00BF     		nop
 314 000e BD46     		mov	sp, r7
 315              		.cfi_def_cfa_register 13
 316              		@ sp needed
 317 0010 80BC     		pop	{r7}
 318              		.cfi_restore 7
 319              		.cfi_def_cfa_offset 0
 320 0012 7047     		bx	lr
 321              	.L20:
 322              		.align	2
 323              	.L19:
 324 0014 000C0258 		.word	1476529152
 325              		.cfi_endproc
 326              	.LFE437:
 327              		.size	dc_cmd, .-dc_cmd
 328              		.section	.text.dc_data,"ax",%progbits
 329              		.align	1
 330              		.syntax unified
 331              		.thumb
 332              		.thumb_func
 333              		.type	dc_data, %function
 334              	dc_data:
 335              	.LFB438:
 336              		.loc 3 60 34
 337              		.cfi_startproc
ARM GAS  C:\Users\DEVELO~1\AppData\Local\Temp\cc5fkIXN.s 			page 7


 338              		@ args = 0, pretend = 0, frame = 0
 339              		@ frame_needed = 1, uses_anonymous_args = 0
 340              		@ link register save eliminated.
 341 0000 80B4     		push	{r7}
 342              		.cfi_def_cfa_offset 4
 343              		.cfi_offset 7, -4
 344 0002 00AF     		add	r7, sp, #0
 345              		.cfi_def_cfa_register 7
 346              		.loc 3 60 36
 347 0004 034B     		ldr	r3, .L22
 348 0006 4FF40062 		mov	r2, #2048
 349 000a 1A83     		strh	r2, [r3, #24]	@ movhi
 350              		.loc 3 60 69
 351 000c 00BF     		nop
 352 000e BD46     		mov	sp, r7
 353              		.cfi_def_cfa_register 13
 354              		@ sp needed
 355 0010 80BC     		pop	{r7}
 356              		.cfi_restore 7
 357              		.cfi_def_cfa_offset 0
 358 0012 7047     		bx	lr
 359              	.L23:
 360              		.align	2
 361              	.L22:
 362 0014 000C0258 		.word	1476529152
 363              		.cfi_endproc
 364              	.LFE438:
 365              		.size	dc_data, .-dc_data
 366              		.section	.text.send_cmd,"ax",%progbits
 367              		.align	1
 368              		.syntax unified
 369              		.thumb
 370              		.thumb_func
 371              		.type	send_cmd, %function
 372              	send_cmd:
 373              	.LFB439:
 374              		.loc 3 66 35
 375              		.cfi_startproc
 376              		@ args = 0, pretend = 0, frame = 8
 377              		@ frame_needed = 1, uses_anonymous_args = 0
 378 0000 80B5     		push	{r7, lr}
 379              		.cfi_def_cfa_offset 8
 380              		.cfi_offset 7, -8
 381              		.cfi_offset 14, -4
 382 0002 82B0     		sub	sp, sp, #8
 383              		.cfi_def_cfa_offset 16
 384 0004 00AF     		add	r7, sp, #0
 385              		.cfi_def_cfa_register 7
 386 0006 0346     		mov	r3, r0
 387 0008 FB71     		strb	r3, [r7, #7]
 388              		.loc 3 67 5
 389 000a FFF7FEFF 		bl	dc_cmd
 390              		.loc 3 68 5
 391 000e FFF7FEFF 		bl	cs_low
 392              		.loc 3 69 5
 393 0012 FB79     		ldrb	r3, [r7, #7]	@ zero_extendqisi2
 394 0014 1946     		mov	r1, r3
ARM GAS  C:\Users\DEVELO~1\AppData\Local\Temp\cc5fkIXN.s 			page 8


 395 0016 0448     		ldr	r0, .L25
 396 0018 FFF7FEFF 		bl	spi_lld_polled_exchange
 397              		.loc 3 70 5
 398 001c FFF7FEFF 		bl	cs_high
 399              		.loc 3 71 1
 400 0020 00BF     		nop
 401 0022 0837     		adds	r7, r7, #8
 402              		.cfi_def_cfa_offset 8
 403 0024 BD46     		mov	sp, r7
 404              		.cfi_def_cfa_register 13
 405              		@ sp needed
 406 0026 80BD     		pop	{r7, pc}
 407              	.L26:
 408              		.align	2
 409              	.L25:
 410 0028 00000000 		.word	SPID2
 411              		.cfi_endproc
 412              	.LFE439:
 413              		.size	send_cmd, .-send_cmd
 414              		.section	.text.send_data,"ax",%progbits
 415              		.align	1
 416              		.syntax unified
 417              		.thumb
 418              		.thumb_func
 419              		.type	send_data, %function
 420              	send_data:
 421              	.LFB440:
 422              		.loc 3 73 56
 423              		.cfi_startproc
 424              		@ args = 0, pretend = 0, frame = 16
 425              		@ frame_needed = 1, uses_anonymous_args = 0
 426 0000 80B5     		push	{r7, lr}
 427              		.cfi_def_cfa_offset 8
 428              		.cfi_offset 7, -8
 429              		.cfi_offset 14, -4
 430 0002 84B0     		sub	sp, sp, #16
 431              		.cfi_def_cfa_offset 24
 432 0004 00AF     		add	r7, sp, #0
 433              		.cfi_def_cfa_register 7
 434 0006 7860     		str	r0, [r7, #4]
 435 0008 3960     		str	r1, [r7]
 436              		.loc 3 74 5
 437 000a FFF7FEFF 		bl	dc_data
 438              	.LBB2:
 439              		.loc 3 75 17
 440 000e 0023     		movs	r3, #0
 441 0010 FB60     		str	r3, [r7, #12]
 442              		.loc 3 75 5
 443 0012 0EE0     		b	.L28
 444              	.L29:
 445              		.loc 3 76 9 discriminator 3
 446 0014 FFF7FEFF 		bl	cs_low
 447              		.loc 3 77 9 discriminator 3
 448 0018 7A68     		ldr	r2, [r7, #4]
 449 001a FB68     		ldr	r3, [r7, #12]
 450 001c 1344     		add	r3, r3, r2
 451 001e 1B78     		ldrb	r3, [r3]	@ zero_extendqisi2
ARM GAS  C:\Users\DEVELO~1\AppData\Local\Temp\cc5fkIXN.s 			page 9


 452 0020 1946     		mov	r1, r3
 453 0022 0848     		ldr	r0, .L30
 454 0024 FFF7FEFF 		bl	spi_lld_polled_exchange
 455              		.loc 3 78 9 discriminator 3
 456 0028 FFF7FEFF 		bl	cs_high
 457              		.loc 3 75 34 discriminator 3
 458 002c FB68     		ldr	r3, [r7, #12]
 459 002e 0133     		adds	r3, r3, #1
 460 0030 FB60     		str	r3, [r7, #12]
 461              	.L28:
 462              		.loc 3 75 26 discriminator 1
 463 0032 FA68     		ldr	r2, [r7, #12]
 464 0034 3B68     		ldr	r3, [r7]
 465 0036 9A42     		cmp	r2, r3
 466 0038 ECD3     		bcc	.L29
 467              	.LBE2:
 468              		.loc 3 80 1
 469 003a 00BF     		nop
 470 003c 00BF     		nop
 471 003e 1037     		adds	r7, r7, #16
 472              		.cfi_def_cfa_offset 8
 473 0040 BD46     		mov	sp, r7
 474              		.cfi_def_cfa_register 13
 475              		@ sp needed
 476 0042 80BD     		pop	{r7, pc}
 477              	.L31:
 478              		.align	2
 479              	.L30:
 480 0044 00000000 		.word	SPID2
 481              		.cfi_endproc
 482              	.LFE440:
 483              		.size	send_data, .-send_data
 484              		.section	.bss.display_dirty,"aw",%nobits
 485              		.type	display_dirty, %object
 486              		.size	display_dirty, 1
 487              	display_dirty:
 488 0000 00       		.space	1
 489              		.section	.bss.dirty_pages,"aw",%nobits
 490              		.type	dirty_pages, %object
 491              		.size	dirty_pages, 1
 492              	dirty_pages:
 493 0000 00       		.space	1
 494              		.section	.text.drv_display_get_buffer,"ax",%progbits
 495              		.align	1
 496              		.global	drv_display_get_buffer
 497              		.syntax unified
 498              		.thumb
 499              		.thumb_func
 500              		.type	drv_display_get_buffer, %function
 501              	drv_display_get_buffer:
 502              	.LFB441:
 503              		.loc 3 94 39
 504              		.cfi_startproc
 505              		@ args = 0, pretend = 0, frame = 0
 506              		@ frame_needed = 1, uses_anonymous_args = 0
 507              		@ link register save eliminated.
 508 0000 80B4     		push	{r7}
ARM GAS  C:\Users\DEVELO~1\AppData\Local\Temp\cc5fkIXN.s 			page 10


 509              		.cfi_def_cfa_offset 4
 510              		.cfi_offset 7, -4
 511 0002 00AF     		add	r7, sp, #0
 512              		.cfi_def_cfa_register 7
 513              		.loc 3 95 12
 514 0004 024B     		ldr	r3, .L34
 515              		.loc 3 96 1
 516 0006 1846     		mov	r0, r3
 517 0008 BD46     		mov	sp, r7
 518              		.cfi_def_cfa_register 13
 519              		@ sp needed
 520 000a 80BC     		pop	{r7}
 521              		.cfi_restore 7
 522              		.cfi_def_cfa_offset 0
 523 000c 7047     		bx	lr
 524              	.L35:
 525 000e 00BF     		.align	2
 526              	.L34:
 527 0010 00000000 		.word	buffer
 528              		.cfi_endproc
 529              	.LFE441:
 530              		.size	drv_display_get_buffer, .-drv_display_get_buffer
 531              		.section	.text.set_pixel,"ax",%progbits
 532              		.align	1
 533              		.syntax unified
 534              		.thumb
 535              		.thumb_func
 536              		.type	set_pixel, %function
 537              	set_pixel:
 538              	.LFB442:
 539              		.loc 3 102 53
 540              		.cfi_startproc
 541              		@ args = 0, pretend = 0, frame = 24
 542              		@ frame_needed = 1, uses_anonymous_args = 0
 543              		@ link register save eliminated.
 544 0000 80B4     		push	{r7}
 545              		.cfi_def_cfa_offset 4
 546              		.cfi_offset 7, -4
 547 0002 87B0     		sub	sp, sp, #28
 548              		.cfi_def_cfa_offset 32
 549 0004 00AF     		add	r7, sp, #0
 550              		.cfi_def_cfa_register 7
 551 0006 F860     		str	r0, [r7, #12]
 552 0008 B960     		str	r1, [r7, #8]
 553 000a 1346     		mov	r3, r2
 554 000c FB71     		strb	r3, [r7, #7]
 555              		.loc 3 103 8
 556 000e FB68     		ldr	r3, [r7, #12]
 557 0010 002B     		cmp	r3, #0
 558 0012 4FDB     		blt	.L42
 559              		.loc 3 103 15 discriminator 1
 560 0014 FB68     		ldr	r3, [r7, #12]
 561 0016 7F2B     		cmp	r3, #127
 562 0018 4CDC     		bgt	.L42
 563              		.loc 3 103 40 discriminator 2
 564 001a BB68     		ldr	r3, [r7, #8]
 565 001c 002B     		cmp	r3, #0
ARM GAS  C:\Users\DEVELO~1\AppData\Local\Temp\cc5fkIXN.s 			page 11


 566 001e 49DB     		blt	.L42
 567              		.loc 3 103 49 discriminator 3
 568 0020 BB68     		ldr	r3, [r7, #8]
 569 0022 3F2B     		cmp	r3, #63
 570 0024 46DC     		bgt	.L42
 571              		.loc 3 106 30
 572 0026 BB68     		ldr	r3, [r7, #8]
 573 0028 DB10     		asrs	r3, r3, #3
 574              		.loc 3 106 36
 575 002a DB01     		lsls	r3, r3, #7
 576              		.loc 3 106 15
 577 002c FA68     		ldr	r2, [r7, #12]
 578 002e 1344     		add	r3, r3, r2
 579 0030 7B61     		str	r3, [r7, #20]
 580              		.loc 3 107 45
 581 0032 BB68     		ldr	r3, [r7, #8]
 582 0034 03F00703 		and	r3, r3, #7
 583              		.loc 3 107 39
 584 0038 0122     		movs	r2, #1
 585 003a 02FA03F3 		lsl	r3, r2, r3
 586              		.loc 3 107 19
 587 003e FB74     		strb	r3, [r7, #19]
 588              		.loc 3 109 13
 589 0040 1F4A     		ldr	r2, .L43
 590 0042 7B69     		ldr	r3, [r7, #20]
 591 0044 1344     		add	r3, r3, r2
 592 0046 1B78     		ldrb	r3, [r3]
 593 0048 BB74     		strb	r3, [r7, #18]
 594              		.loc 3 111 8
 595 004a FB79     		ldrb	r3, [r7, #7]	@ zero_extendqisi2
 596 004c 002B     		cmp	r3, #0
 597 004e 0CD0     		beq	.L40
 598              		.loc 3 111 27 discriminator 1
 599 0050 1B4A     		ldr	r2, .L43
 600 0052 7B69     		ldr	r3, [r7, #20]
 601 0054 1344     		add	r3, r3, r2
 602 0056 1A78     		ldrb	r2, [r3]	@ zero_extendqisi2
 603 0058 FB7C     		ldrb	r3, [r7, #19]
 604 005a 1343     		orrs	r3, r3, r2
 605 005c D9B2     		uxtb	r1, r3
 606 005e 184A     		ldr	r2, .L43
 607 0060 7B69     		ldr	r3, [r7, #20]
 608 0062 1344     		add	r3, r3, r2
 609 0064 0A46     		mov	r2, r1
 610 0066 1A70     		strb	r2, [r3]
 611 0068 0DE0     		b	.L41
 612              	.L40:
 613              		.loc 3 112 27
 614 006a 154A     		ldr	r2, .L43
 615 006c 7B69     		ldr	r3, [r7, #20]
 616 006e 1344     		add	r3, r3, r2
 617 0070 1A78     		ldrb	r2, [r3]	@ zero_extendqisi2
 618              		.loc 3 112 30
 619 0072 FB7C     		ldrb	r3, [r7, #19]
 620 0074 DB43     		mvns	r3, r3
 621 0076 DBB2     		uxtb	r3, r3
 622              		.loc 3 112 27
ARM GAS  C:\Users\DEVELO~1\AppData\Local\Temp\cc5fkIXN.s 			page 12


 623 0078 1340     		ands	r3, r3, r2
 624 007a D9B2     		uxtb	r1, r3
 625 007c 104A     		ldr	r2, .L43
 626 007e 7B69     		ldr	r3, [r7, #20]
 627 0080 1344     		add	r3, r3, r2
 628 0082 0A46     		mov	r2, r1
 629 0084 1A70     		strb	r2, [r3]
 630              	.L41:
 631              		.loc 3 115 15
 632 0086 0E4A     		ldr	r2, .L43
 633 0088 7B69     		ldr	r3, [r7, #20]
 634 008a 1344     		add	r3, r3, r2
 635 008c 1B78     		ldrb	r3, [r3]	@ zero_extendqisi2
 636              		.loc 3 115 8
 637 008e BA7C     		ldrb	r2, [r7, #18]	@ zero_extendqisi2
 638 0090 9A42     		cmp	r2, r3
 639 0092 10D0     		beq	.L36
 640              		.loc 3 116 23
 641 0094 0B4B     		ldr	r3, .L43+4
 642 0096 0122     		movs	r2, #1
 643 0098 1A70     		strb	r2, [r3]
 644              		.loc 3 117 34
 645 009a BB68     		ldr	r3, [r7, #8]
 646 009c DB10     		asrs	r3, r3, #3
 647              		.loc 3 117 28
 648 009e 0122     		movs	r2, #1
 649 00a0 02FA03F3 		lsl	r3, r2, r3
 650              		.loc 3 117 21
 651 00a4 DAB2     		uxtb	r2, r3
 652 00a6 084B     		ldr	r3, .L43+8
 653 00a8 1B78     		ldrb	r3, [r3]	@ zero_extendqisi2
 654 00aa 1343     		orrs	r3, r3, r2
 655 00ac DAB2     		uxtb	r2, r3
 656 00ae 064B     		ldr	r3, .L43+8
 657 00b0 1A70     		strb	r2, [r3]
 658 00b2 00E0     		b	.L36
 659              	.L42:
 660              		.loc 3 104 9
 661 00b4 00BF     		nop
 662              	.L36:
 663              		.loc 3 119 1
 664 00b6 1C37     		adds	r7, r7, #28
 665              		.cfi_def_cfa_offset 4
 666 00b8 BD46     		mov	sp, r7
 667              		.cfi_def_cfa_register 13
 668              		@ sp needed
 669 00ba 80BC     		pop	{r7}
 670              		.cfi_restore 7
 671              		.cfi_def_cfa_offset 0
 672 00bc 7047     		bx	lr
 673              	.L44:
 674 00be 00BF     		.align	2
 675              	.L43:
 676 00c0 00000000 		.word	buffer
 677 00c4 00000000 		.word	display_dirty
 678 00c8 00000000 		.word	dirty_pages
 679              		.cfi_endproc
ARM GAS  C:\Users\DEVELO~1\AppData\Local\Temp\cc5fkIXN.s 			page 13


 680              	.LFE442:
 681              		.size	set_pixel, .-set_pixel
 682              		.section	.text.drv_display_draw_pixel,"ax",%progbits
 683              		.align	1
 684              		.global	drv_display_draw_pixel
 685              		.syntax unified
 686              		.thumb
 687              		.thumb_func
 688              		.type	drv_display_draw_pixel, %function
 689              	drv_display_draw_pixel:
 690              	.LFB443:
 691              		.loc 3 121 52
 692              		.cfi_startproc
 693              		@ args = 0, pretend = 0, frame = 16
 694              		@ frame_needed = 1, uses_anonymous_args = 0
 695 0000 80B5     		push	{r7, lr}
 696              		.cfi_def_cfa_offset 8
 697              		.cfi_offset 7, -8
 698              		.cfi_offset 14, -4
 699 0002 84B0     		sub	sp, sp, #16
 700              		.cfi_def_cfa_offset 24
 701 0004 00AF     		add	r7, sp, #0
 702              		.cfi_def_cfa_register 7
 703 0006 F860     		str	r0, [r7, #12]
 704 0008 B960     		str	r1, [r7, #8]
 705 000a 1346     		mov	r3, r2
 706 000c FB71     		strb	r3, [r7, #7]
 707              		.loc 3 122 5
 708 000e FB79     		ldrb	r3, [r7, #7]	@ zero_extendqisi2
 709 0010 1A46     		mov	r2, r3
 710 0012 B968     		ldr	r1, [r7, #8]
 711 0014 F868     		ldr	r0, [r7, #12]
 712 0016 FFF7FEFF 		bl	set_pixel
 713              		.loc 3 123 1
 714 001a 00BF     		nop
 715 001c 1037     		adds	r7, r7, #16
 716              		.cfi_def_cfa_offset 8
 717 001e BD46     		mov	sp, r7
 718              		.cfi_def_cfa_register 13
 719              		@ sp needed
 720 0020 80BD     		pop	{r7, pc}
 721              		.cfi_endproc
 722              	.LFE443:
 723              		.size	drv_display_draw_pixel, .-drv_display_draw_pixel
 724              		.section	.text.drv_display_draw_rect,"ax",%progbits
 725              		.align	1
 726              		.global	drv_display_draw_rect
 727              		.syntax unified
 728              		.thumb
 729              		.thumb_func
 730              		.type	drv_display_draw_rect, %function
 731              	drv_display_draw_rect:
 732              	.LFB444:
 733              		.loc 3 125 56
 734              		.cfi_startproc
 735              		@ args = 0, pretend = 0, frame = 24
 736              		@ frame_needed = 1, uses_anonymous_args = 0
ARM GAS  C:\Users\DEVELO~1\AppData\Local\Temp\cc5fkIXN.s 			page 14


 737 0000 80B5     		push	{r7, lr}
 738              		.cfi_def_cfa_offset 8
 739              		.cfi_offset 7, -8
 740              		.cfi_offset 14, -4
 741 0002 86B0     		sub	sp, sp, #24
 742              		.cfi_def_cfa_offset 32
 743 0004 00AF     		add	r7, sp, #0
 744              		.cfi_def_cfa_register 7
 745 0006 F860     		str	r0, [r7, #12]
 746 0008 B960     		str	r1, [r7, #8]
 747 000a 7A60     		str	r2, [r7, #4]
 748 000c 3B60     		str	r3, [r7]
 749              		.loc 3 127 8
 750 000e 7B68     		ldr	r3, [r7, #4]
 751 0010 002B     		cmp	r3, #0
 752 0012 3DDD     		ble	.L54
 753              		.loc 3 127 16 discriminator 1
 754 0014 3B68     		ldr	r3, [r7]
 755 0016 002B     		cmp	r3, #0
 756 0018 3ADD     		ble	.L54
 757              	.LBB3:
 758              		.loc 3 131 14
 759 001a 0023     		movs	r3, #0
 760 001c 7B61     		str	r3, [r7, #20]
 761              		.loc 3 131 5
 762 001e 15E0     		b	.L50
 763              	.L51:
 764              		.loc 3 132 9 discriminator 3
 765 0020 FA68     		ldr	r2, [r7, #12]
 766 0022 7B69     		ldr	r3, [r7, #20]
 767 0024 1344     		add	r3, r3, r2
 768 0026 0122     		movs	r2, #1
 769 0028 B968     		ldr	r1, [r7, #8]
 770 002a 1846     		mov	r0, r3
 771 002c FFF7FEFF 		bl	drv_display_draw_pixel
 772              		.loc 3 133 9 discriminator 3
 773 0030 FA68     		ldr	r2, [r7, #12]
 774 0032 7B69     		ldr	r3, [r7, #20]
 775 0034 D018     		adds	r0, r2, r3
 776              		.loc 3 133 42 discriminator 3
 777 0036 BA68     		ldr	r2, [r7, #8]
 778 0038 3B68     		ldr	r3, [r7]
 779 003a 1344     		add	r3, r3, r2
 780              		.loc 3 133 9 discriminator 3
 781 003c 013B     		subs	r3, r3, #1
 782 003e 0122     		movs	r2, #1
 783 0040 1946     		mov	r1, r3
 784 0042 FFF7FEFF 		bl	drv_display_draw_pixel
 785              		.loc 3 131 32 discriminator 3
 786 0046 7B69     		ldr	r3, [r7, #20]
 787 0048 0133     		adds	r3, r3, #1
 788 004a 7B61     		str	r3, [r7, #20]
 789              	.L50:
 790              		.loc 3 131 25 discriminator 1
 791 004c 7A69     		ldr	r2, [r7, #20]
 792 004e 7B68     		ldr	r3, [r7, #4]
 793 0050 9A42     		cmp	r2, r3
ARM GAS  C:\Users\DEVELO~1\AppData\Local\Temp\cc5fkIXN.s 			page 15


 794 0052 E5DB     		blt	.L51
 795              	.LBE3:
 796              	.LBB4:
 797              		.loc 3 137 14
 798 0054 0023     		movs	r3, #0
 799 0056 3B61     		str	r3, [r7, #16]
 800              		.loc 3 137 5
 801 0058 15E0     		b	.L52
 802              	.L53:
 803              		.loc 3 138 9 discriminator 3
 804 005a BA68     		ldr	r2, [r7, #8]
 805 005c 3B69     		ldr	r3, [r7, #16]
 806 005e 1344     		add	r3, r3, r2
 807 0060 0122     		movs	r2, #1
 808 0062 1946     		mov	r1, r3
 809 0064 F868     		ldr	r0, [r7, #12]
 810 0066 FFF7FEFF 		bl	drv_display_draw_pixel
 811              		.loc 3 139 34 discriminator 3
 812 006a FA68     		ldr	r2, [r7, #12]
 813 006c 7B68     		ldr	r3, [r7, #4]
 814 006e 1344     		add	r3, r3, r2
 815              		.loc 3 139 9 discriminator 3
 816 0070 581E     		subs	r0, r3, #1
 817 0072 BA68     		ldr	r2, [r7, #8]
 818 0074 3B69     		ldr	r3, [r7, #16]
 819 0076 1344     		add	r3, r3, r2
 820 0078 0122     		movs	r2, #1
 821 007a 1946     		mov	r1, r3
 822 007c FFF7FEFF 		bl	drv_display_draw_pixel
 823              		.loc 3 137 32 discriminator 3
 824 0080 3B69     		ldr	r3, [r7, #16]
 825 0082 0133     		adds	r3, r3, #1
 826 0084 3B61     		str	r3, [r7, #16]
 827              	.L52:
 828              		.loc 3 137 25 discriminator 1
 829 0086 3A69     		ldr	r2, [r7, #16]
 830 0088 3B68     		ldr	r3, [r7]
 831 008a 9A42     		cmp	r2, r3
 832 008c E5DB     		blt	.L53
 833 008e 00E0     		b	.L46
 834              	.L54:
 835              	.LBE4:
 836              		.loc 3 128 9
 837 0090 00BF     		nop
 838              	.L46:
 839              		.loc 3 141 1
 840 0092 1837     		adds	r7, r7, #24
 841              		.cfi_def_cfa_offset 8
 842 0094 BD46     		mov	sp, r7
 843              		.cfi_def_cfa_register 13
 844              		@ sp needed
 845 0096 80BD     		pop	{r7, pc}
 846              		.cfi_endproc
 847              	.LFE444:
 848              		.size	drv_display_draw_rect, .-drv_display_draw_rect
 849              		.section	.text.drv_display_fill_rect,"ax",%progbits
 850              		.align	1
ARM GAS  C:\Users\DEVELO~1\AppData\Local\Temp\cc5fkIXN.s 			page 16


 851              		.global	drv_display_fill_rect
 852              		.syntax unified
 853              		.thumb
 854              		.thumb_func
 855              		.type	drv_display_fill_rect, %function
 856              	drv_display_fill_rect:
 857              	.LFB445:
 858              		.loc 3 143 56
 859              		.cfi_startproc
 860              		@ args = 0, pretend = 0, frame = 24
 861              		@ frame_needed = 1, uses_anonymous_args = 0
 862 0000 80B5     		push	{r7, lr}
 863              		.cfi_def_cfa_offset 8
 864              		.cfi_offset 7, -8
 865              		.cfi_offset 14, -4
 866 0002 86B0     		sub	sp, sp, #24
 867              		.cfi_def_cfa_offset 32
 868 0004 00AF     		add	r7, sp, #0
 869              		.cfi_def_cfa_register 7
 870 0006 F860     		str	r0, [r7, #12]
 871 0008 B960     		str	r1, [r7, #8]
 872 000a 7A60     		str	r2, [r7, #4]
 873 000c 3B60     		str	r3, [r7]
 874              		.loc 3 145 8
 875 000e 7B68     		ldr	r3, [r7, #4]
 876 0010 002B     		cmp	r3, #0
 877 0012 21DD     		ble	.L63
 878              		.loc 3 145 16 discriminator 1
 879 0014 3B68     		ldr	r3, [r7]
 880 0016 002B     		cmp	r3, #0
 881 0018 1EDD     		ble	.L63
 882              	.LBB5:
 883              		.loc 3 148 14
 884 001a 0023     		movs	r3, #0
 885 001c 7B61     		str	r3, [r7, #20]
 886              		.loc 3 148 5
 887 001e 16E0     		b	.L59
 888              	.L62:
 889              	.LBB6:
 890              		.loc 3 149 18
 891 0020 0023     		movs	r3, #0
 892 0022 3B61     		str	r3, [r7, #16]
 893              		.loc 3 149 9
 894 0024 0CE0     		b	.L60
 895              	.L61:
 896              		.loc 3 150 13 discriminator 3
 897 0026 FA68     		ldr	r2, [r7, #12]
 898 0028 3B69     		ldr	r3, [r7, #16]
 899 002a D018     		adds	r0, r2, r3
 900 002c BA68     		ldr	r2, [r7, #8]
 901 002e 7B69     		ldr	r3, [r7, #20]
 902 0030 1344     		add	r3, r3, r2
 903 0032 0122     		movs	r2, #1
 904 0034 1946     		mov	r1, r3
 905 0036 FFF7FEFF 		bl	drv_display_draw_pixel
 906              		.loc 3 149 36 discriminator 3
 907 003a 3B69     		ldr	r3, [r7, #16]
ARM GAS  C:\Users\DEVELO~1\AppData\Local\Temp\cc5fkIXN.s 			page 17


 908 003c 0133     		adds	r3, r3, #1
 909 003e 3B61     		str	r3, [r7, #16]
 910              	.L60:
 911              		.loc 3 149 29 discriminator 1
 912 0040 3A69     		ldr	r2, [r7, #16]
 913 0042 7B68     		ldr	r3, [r7, #4]
 914 0044 9A42     		cmp	r2, r3
 915 0046 EEDB     		blt	.L61
 916              	.LBE6:
 917              		.loc 3 148 32 discriminator 2
 918 0048 7B69     		ldr	r3, [r7, #20]
 919 004a 0133     		adds	r3, r3, #1
 920 004c 7B61     		str	r3, [r7, #20]
 921              	.L59:
 922              		.loc 3 148 25 discriminator 1
 923 004e 7A69     		ldr	r2, [r7, #20]
 924 0050 3B68     		ldr	r3, [r7]
 925 0052 9A42     		cmp	r2, r3
 926 0054 E4DB     		blt	.L62
 927 0056 00E0     		b	.L55
 928              	.L63:
 929              	.LBE5:
 930              		.loc 3 146 9
 931 0058 00BF     		nop
 932              	.L55:
 933              		.loc 3 153 1
 934 005a 1837     		adds	r7, r7, #24
 935              		.cfi_def_cfa_offset 8
 936 005c BD46     		mov	sp, r7
 937              		.cfi_def_cfa_register 13
 938              		@ sp needed
 939 005e 80BD     		pop	{r7, pc}
 940              		.cfi_endproc
 941              	.LFE445:
 942              		.size	drv_display_fill_rect, .-drv_display_fill_rect
 943              		.section	.text.drv_display_clear_rect,"ax",%progbits
 944              		.align	1
 945              		.global	drv_display_clear_rect
 946              		.syntax unified
 947              		.thumb
 948              		.thumb_func
 949              		.type	drv_display_clear_rect, %function
 950              	drv_display_clear_rect:
 951              	.LFB446:
 952              		.loc 3 155 57
 953              		.cfi_startproc
 954              		@ args = 0, pretend = 0, frame = 24
 955              		@ frame_needed = 1, uses_anonymous_args = 0
 956 0000 80B5     		push	{r7, lr}
 957              		.cfi_def_cfa_offset 8
 958              		.cfi_offset 7, -8
 959              		.cfi_offset 14, -4
 960 0002 86B0     		sub	sp, sp, #24
 961              		.cfi_def_cfa_offset 32
 962 0004 00AF     		add	r7, sp, #0
 963              		.cfi_def_cfa_register 7
 964 0006 F860     		str	r0, [r7, #12]
ARM GAS  C:\Users\DEVELO~1\AppData\Local\Temp\cc5fkIXN.s 			page 18


 965 0008 B960     		str	r1, [r7, #8]
 966 000a 7A60     		str	r2, [r7, #4]
 967 000c 3B60     		str	r3, [r7]
 968              		.loc 3 157 8
 969 000e 7B68     		ldr	r3, [r7, #4]
 970 0010 002B     		cmp	r3, #0
 971 0012 21DD     		ble	.L72
 972              		.loc 3 157 16 discriminator 1
 973 0014 3B68     		ldr	r3, [r7]
 974 0016 002B     		cmp	r3, #0
 975 0018 1EDD     		ble	.L72
 976              	.LBB7:
 977              		.loc 3 160 14
 978 001a 0023     		movs	r3, #0
 979 001c 7B61     		str	r3, [r7, #20]
 980              		.loc 3 160 5
 981 001e 16E0     		b	.L68
 982              	.L71:
 983              	.LBB8:
 984              		.loc 3 161 18
 985 0020 0023     		movs	r3, #0
 986 0022 3B61     		str	r3, [r7, #16]
 987              		.loc 3 161 9
 988 0024 0CE0     		b	.L69
 989              	.L70:
 990              		.loc 3 162 13 discriminator 3
 991 0026 FA68     		ldr	r2, [r7, #12]
 992 0028 3B69     		ldr	r3, [r7, #16]
 993 002a D018     		adds	r0, r2, r3
 994 002c BA68     		ldr	r2, [r7, #8]
 995 002e 7B69     		ldr	r3, [r7, #20]
 996 0030 1344     		add	r3, r3, r2
 997 0032 0022     		movs	r2, #0
 998 0034 1946     		mov	r1, r3
 999 0036 FFF7FEFF 		bl	drv_display_draw_pixel
 1000              		.loc 3 161 36 discriminator 3
 1001 003a 3B69     		ldr	r3, [r7, #16]
 1002 003c 0133     		adds	r3, r3, #1
 1003 003e 3B61     		str	r3, [r7, #16]
 1004              	.L69:
 1005              		.loc 3 161 29 discriminator 1
 1006 0040 3A69     		ldr	r2, [r7, #16]
 1007 0042 7B68     		ldr	r3, [r7, #4]
 1008 0044 9A42     		cmp	r2, r3
 1009 0046 EEDB     		blt	.L70
 1010              	.LBE8:
 1011              		.loc 3 160 32 discriminator 2
 1012 0048 7B69     		ldr	r3, [r7, #20]
 1013 004a 0133     		adds	r3, r3, #1
 1014 004c 7B61     		str	r3, [r7, #20]
 1015              	.L68:
 1016              		.loc 3 160 25 discriminator 1
 1017 004e 7A69     		ldr	r2, [r7, #20]
 1018 0050 3B68     		ldr	r3, [r7]
 1019 0052 9A42     		cmp	r2, r3
 1020 0054 E4DB     		blt	.L71
 1021 0056 00E0     		b	.L64
ARM GAS  C:\Users\DEVELO~1\AppData\Local\Temp\cc5fkIXN.s 			page 19


 1022              	.L72:
 1023              	.LBE7:
 1024              		.loc 3 158 9
 1025 0058 00BF     		nop
 1026              	.L64:
 1027              		.loc 3 165 1
 1028 005a 1837     		adds	r7, r7, #24
 1029              		.cfi_def_cfa_offset 8
 1030 005c BD46     		mov	sp, r7
 1031              		.cfi_def_cfa_register 13
 1032              		@ sp needed
 1033 005e 80BD     		pop	{r7, pc}
 1034              		.cfi_endproc
 1035              	.LFE446:
 1036              		.size	drv_display_clear_rect, .-drv_display_clear_rect
 1037              		.section	.text.drv_display_init,"ax",%progbits
 1038              		.align	1
 1039              		.global	drv_display_init
 1040              		.syntax unified
 1041              		.thumb
 1042              		.thumb_func
 1043              		.type	drv_display_init, %function
 1044              	drv_display_init:
 1045              	.LFB447:
 1046              		.loc 3 171 29
 1047              		.cfi_startproc
 1048              		@ args = 0, pretend = 0, frame = 0
 1049              		@ frame_needed = 1, uses_anonymous_args = 0
 1050 0000 80B5     		push	{r7, lr}
 1051              		.cfi_def_cfa_offset 8
 1052              		.cfi_offset 7, -8
 1053              		.cfi_offset 14, -4
 1054 0002 00AF     		add	r7, sp, #0
 1055              		.cfi_def_cfa_register 7
 1056              		.loc 3 174 5
 1057 0004 0122     		movs	r2, #1
 1058 0006 0421     		movs	r1, #4
 1059 0008 3748     		ldr	r0, .L74
 1060 000a FFF7FEFF 		bl	_pal_lld_setgroupmode
 1061              		.loc 3 175 5
 1062 000e 0122     		movs	r2, #1
 1063 0010 4FF40061 		mov	r1, #2048
 1064 0014 3548     		ldr	r0, .L74+4
 1065 0016 FFF7FEFF 		bl	_pal_lld_setgroupmode
 1066              		.loc 3 176 5
 1067 001a 0122     		movs	r2, #1
 1068 001c 4021     		movs	r1, #64
 1069 001e 3448     		ldr	r0, .L74+8
 1070 0020 FFF7FEFF 		bl	_pal_lld_setgroupmode
 1071              		.loc 3 178 5
 1072 0024 FFF7FEFF 		bl	cs_high
 1073              		.loc 3 179 5
 1074 0028 FFF7FEFF 		bl	dc_data
 1075              		.loc 3 180 5
 1076 002c 304B     		ldr	r3, .L74+8
 1077 002e 4022     		movs	r2, #64
 1078 0030 1A83     		strh	r2, [r3, #24]	@ movhi
ARM GAS  C:\Users\DEVELO~1\AppData\Local\Temp\cc5fkIXN.s 			page 20


 1079              		.loc 3 183 5
 1080 0032 40F29A22 		movw	r2, #666
 1081 0036 0221     		movs	r1, #2
 1082 0038 2E48     		ldr	r0, .L74+12
 1083 003a FFF7FEFF 		bl	_pal_lld_setgroupmode
 1084              		.loc 3 184 5
 1085 003e 40F29A22 		movw	r2, #666
 1086 0042 0821     		movs	r1, #8
 1087 0044 2B48     		ldr	r0, .L74+12
 1088 0046 FFF7FEFF 		bl	_pal_lld_setgroupmode
 1089              		.loc 3 186 5
 1090 004a 2B49     		ldr	r1, .L74+16
 1091 004c 2B48     		ldr	r0, .L74+20
 1092 004e FFF7FEFF 		bl	spiStart
 1093              		.loc 3 189 5
 1094 0052 274B     		ldr	r3, .L74+8
 1095 0054 4022     		movs	r2, #64
 1096 0056 5A83     		strh	r2, [r3, #26]	@ movhi
 1097              		.loc 3 190 5
 1098 0058 4FF4FA70 		mov	r0, #500
 1099 005c FFF7FEFF 		bl	chThdSleep
 1100              		.loc 3 191 5
 1101 0060 234B     		ldr	r3, .L74+8
 1102 0062 4022     		movs	r2, #64
 1103 0064 1A83     		strh	r2, [r3, #24]	@ movhi
 1104              		.loc 3 192 5
 1105 0066 4FF4FA70 		mov	r0, #500
 1106 006a FFF7FEFF 		bl	chThdSleep
 1107              		.loc 3 195 5
 1108 006e AE20     		movs	r0, #174
 1109 0070 FFF7FEFF 		bl	send_cmd
 1110              		.loc 3 196 5
 1111 0074 D520     		movs	r0, #213
 1112 0076 FFF7FEFF 		bl	send_cmd
 1113              		.loc 3 196 21
 1114 007a 8020     		movs	r0, #128
 1115 007c FFF7FEFF 		bl	send_cmd
 1116              		.loc 3 197 5
 1117 0080 A820     		movs	r0, #168
 1118 0082 FFF7FEFF 		bl	send_cmd
 1119              		.loc 3 197 21
 1120 0086 3F20     		movs	r0, #63
 1121 0088 FFF7FEFF 		bl	send_cmd
 1122              		.loc 3 198 5
 1123 008c D320     		movs	r0, #211
 1124 008e FFF7FEFF 		bl	send_cmd
 1125              		.loc 3 198 21
 1126 0092 0020     		movs	r0, #0
 1127 0094 FFF7FEFF 		bl	send_cmd
 1128              		.loc 3 199 5
 1129 0098 4020     		movs	r0, #64
 1130 009a FFF7FEFF 		bl	send_cmd
 1131              		.loc 3 200 5
 1132 009e 8D20     		movs	r0, #141
 1133 00a0 FFF7FEFF 		bl	send_cmd
 1134              		.loc 3 200 21
 1135 00a4 1420     		movs	r0, #20
ARM GAS  C:\Users\DEVELO~1\AppData\Local\Temp\cc5fkIXN.s 			page 21


 1136 00a6 FFF7FEFF 		bl	send_cmd
 1137              		.loc 3 201 5
 1138 00aa 2020     		movs	r0, #32
 1139 00ac FFF7FEFF 		bl	send_cmd
 1140              		.loc 3 201 21
 1141 00b0 0020     		movs	r0, #0
 1142 00b2 FFF7FEFF 		bl	send_cmd
 1143              		.loc 3 202 5
 1144 00b6 A120     		movs	r0, #161
 1145 00b8 FFF7FEFF 		bl	send_cmd
 1146              		.loc 3 203 5
 1147 00bc C820     		movs	r0, #200
 1148 00be FFF7FEFF 		bl	send_cmd
 1149              		.loc 3 204 5
 1150 00c2 DA20     		movs	r0, #218
 1151 00c4 FFF7FEFF 		bl	send_cmd
 1152              		.loc 3 204 21
 1153 00c8 1220     		movs	r0, #18
 1154 00ca FFF7FEFF 		bl	send_cmd
 1155              		.loc 3 205 5
 1156 00ce AF20     		movs	r0, #175
 1157 00d0 FFF7FEFF 		bl	send_cmd
 1158              		.loc 3 207 5
 1159 00d4 FFF7FEFF 		bl	drv_display_clear
 1160              		.loc 3 208 5
 1161 00d8 FFF7FEFF 		bl	drv_display_update
 1162              		.loc 3 211 18
 1163 00dc 084B     		ldr	r3, .L74+24
 1164 00de 094A     		ldr	r2, .L74+28
 1165 00e0 1A60     		str	r2, [r3]
 1166              		.loc 3 212 1
 1167 00e2 00BF     		nop
 1168 00e4 80BD     		pop	{r7, pc}
 1169              	.L75:
 1170 00e6 00BF     		.align	2
 1171              	.L74:
 1172 00e8 00100258 		.word	1476530176
 1173 00ec 000C0258 		.word	1476529152
 1174 00f0 00140258 		.word	1476531200
 1175 00f4 00200258 		.word	1476534272
 1176 00f8 00000000 		.word	spicfg
 1177 00fc 00000000 		.word	SPID2
 1178 0100 00000000 		.word	current_font
 1179 0104 00000000 		.word	FONT_5X7
 1180              		.cfi_endproc
 1181              	.LFE447:
 1182              		.size	drv_display_init, .-drv_display_init
 1183              		.section	.text.drv_display_clear,"ax",%progbits
 1184              		.align	1
 1185              		.global	drv_display_clear
 1186              		.syntax unified
 1187              		.thumb
 1188              		.thumb_func
 1189              		.type	drv_display_clear, %function
 1190              	drv_display_clear:
 1191              	.LFB448:
 1192              		.loc 3 218 30
ARM GAS  C:\Users\DEVELO~1\AppData\Local\Temp\cc5fkIXN.s 			page 22


 1193              		.cfi_startproc
 1194              		@ args = 0, pretend = 0, frame = 0
 1195              		@ frame_needed = 1, uses_anonymous_args = 0
 1196 0000 80B5     		push	{r7, lr}
 1197              		.cfi_def_cfa_offset 8
 1198              		.cfi_offset 7, -8
 1199              		.cfi_offset 14, -4
 1200 0002 00AF     		add	r7, sp, #0
 1201              		.cfi_def_cfa_register 7
 1202              		.loc 3 219 5
 1203 0004 4FF48062 		mov	r2, #1024
 1204 0008 0021     		movs	r1, #0
 1205 000a 0548     		ldr	r0, .L77
 1206 000c FFF7FEFF 		bl	memset
 1207              		.loc 3 220 19
 1208 0010 044B     		ldr	r3, .L77+4
 1209 0012 0122     		movs	r2, #1
 1210 0014 1A70     		strb	r2, [r3]
 1211              		.loc 3 221 17
 1212 0016 044B     		ldr	r3, .L77+8
 1213 0018 FF22     		movs	r2, #255
 1214 001a 1A70     		strb	r2, [r3]
 1215              		.loc 3 222 1
 1216 001c 00BF     		nop
 1217 001e 80BD     		pop	{r7, pc}
 1218              	.L78:
 1219              		.align	2
 1220              	.L77:
 1221 0020 00000000 		.word	buffer
 1222 0024 00000000 		.word	display_dirty
 1223 0028 00000000 		.word	dirty_pages
 1224              		.cfi_endproc
 1225              	.LFE448:
 1226              		.size	drv_display_clear, .-drv_display_clear
 1227              		.section	.text.drv_display_update,"ax",%progbits
 1228              		.align	1
 1229              		.global	drv_display_update
 1230              		.syntax unified
 1231              		.thumb
 1232              		.thumb_func
 1233              		.type	drv_display_update, %function
 1234              	drv_display_update:
 1235              	.LFB449:
 1236              		.loc 3 228 31
 1237              		.cfi_startproc
 1238              		@ args = 0, pretend = 0, frame = 8
 1239              		@ frame_needed = 1, uses_anonymous_args = 0
 1240 0000 80B5     		push	{r7, lr}
 1241              		.cfi_def_cfa_offset 8
 1242              		.cfi_offset 7, -8
 1243              		.cfi_offset 14, -4
 1244 0002 82B0     		sub	sp, sp, #8
 1245              		.cfi_def_cfa_offset 16
 1246 0004 00AF     		add	r7, sp, #0
 1247              		.cfi_def_cfa_register 7
 1248              		.loc 3 231 9
 1249 0006 1E4B     		ldr	r3, .L88
ARM GAS  C:\Users\DEVELO~1\AppData\Local\Temp\cc5fkIXN.s 			page 23


 1250 0008 1B78     		ldrb	r3, [r3]
 1251 000a DBB2     		uxtb	r3, r3
 1252 000c 83F00103 		eor	r3, r3, #1
 1253 0010 DBB2     		uxtb	r3, r3
 1254              		.loc 3 231 8
 1255 0012 002B     		cmp	r3, #0
 1256 0014 2FD1     		bne	.L86
 1257              	.LBB9:
 1258              		.loc 3 234 18
 1259 0016 0023     		movs	r3, #0
 1260 0018 FB71     		strb	r3, [r7, #7]
 1261              		.loc 3 234 5
 1262 001a 22E0     		b	.L82
 1263              	.L85:
 1264              		.loc 3 236 13
 1265 001c 194B     		ldr	r3, .L88+4
 1266 001e 1B78     		ldrb	r3, [r3]	@ zero_extendqisi2
 1267 0020 1A46     		mov	r2, r3
 1268 0022 FB79     		ldrb	r3, [r7, #7]	@ zero_extendqisi2
 1269 0024 22FA03F3 		lsr	r3, r2, r3
 1270 0028 03F00103 		and	r3, r3, #1
 1271              		.loc 3 236 12
 1272 002c 002B     		cmp	r3, #0
 1273 002e 14D0     		beq	.L87
 1274              		.loc 3 239 9
 1275 0030 FB79     		ldrb	r3, [r7, #7]
 1276 0032 503B     		subs	r3, r3, #80
 1277 0034 DBB2     		uxtb	r3, r3
 1278 0036 1846     		mov	r0, r3
 1279 0038 FFF7FEFF 		bl	send_cmd
 1280              		.loc 3 240 9
 1281 003c 0020     		movs	r0, #0
 1282 003e FFF7FEFF 		bl	send_cmd
 1283              		.loc 3 241 9
 1284 0042 1020     		movs	r0, #16
 1285 0044 FFF7FEFF 		bl	send_cmd
 1286              		.loc 3 243 32
 1287 0048 FB79     		ldrb	r3, [r7, #7]	@ zero_extendqisi2
 1288 004a DB01     		lsls	r3, r3, #7
 1289              		.loc 3 243 19
 1290 004c 0E4A     		ldr	r2, .L88+8
 1291 004e 1344     		add	r3, r3, r2
 1292              		.loc 3 243 9
 1293 0050 8021     		movs	r1, #128
 1294 0052 1846     		mov	r0, r3
 1295 0054 FFF7FEFF 		bl	send_data
 1296 0058 00E0     		b	.L84
 1297              	.L87:
 1298              		.loc 3 237 13
 1299 005a 00BF     		nop
 1300              	.L84:
 1301              		.loc 3 234 42 discriminator 2
 1302 005c FB79     		ldrb	r3, [r7, #7]	@ zero_extendqisi2
 1303 005e 0133     		adds	r3, r3, #1
 1304 0060 FB71     		strb	r3, [r7, #7]
 1305              	.L82:
 1306              		.loc 3 234 33 discriminator 1
ARM GAS  C:\Users\DEVELO~1\AppData\Local\Temp\cc5fkIXN.s 			page 24


 1307 0062 FB79     		ldrb	r3, [r7, #7]	@ zero_extendqisi2
 1308 0064 072B     		cmp	r3, #7
 1309 0066 D9D9     		bls	.L85
 1310              	.LBE9:
 1311              		.loc 3 248 19
 1312 0068 054B     		ldr	r3, .L88
 1313 006a 0022     		movs	r2, #0
 1314 006c 1A70     		strb	r2, [r3]
 1315              		.loc 3 249 17
 1316 006e 054B     		ldr	r3, .L88+4
 1317 0070 0022     		movs	r2, #0
 1318 0072 1A70     		strb	r2, [r3]
 1319 0074 00E0     		b	.L79
 1320              	.L86:
 1321              		.loc 3 232 9
 1322 0076 00BF     		nop
 1323              	.L79:
 1324              		.loc 3 250 1
 1325 0078 0837     		adds	r7, r7, #8
 1326              		.cfi_def_cfa_offset 8
 1327 007a BD46     		mov	sp, r7
 1328              		.cfi_def_cfa_register 13
 1329              		@ sp needed
 1330 007c 80BD     		pop	{r7, pc}
 1331              	.L89:
 1332 007e 00BF     		.align	2
 1333              	.L88:
 1334 0080 00000000 		.word	display_dirty
 1335 0084 00000000 		.word	dirty_pages
 1336 0088 00000000 		.word	buffer
 1337              		.cfi_endproc
 1338              	.LFE449:
 1339              		.size	drv_display_update, .-drv_display_update
 1340              		.section	.text.drv_display_set_font,"ax",%progbits
 1341              		.align	1
 1342              		.global	drv_display_set_font
 1343              		.syntax unified
 1344              		.thumb
 1345              		.thumb_func
 1346              		.type	drv_display_set_font, %function
 1347              	drv_display_set_font:
 1348              	.LFB450:
 1349              		.loc 3 256 47
 1350              		.cfi_startproc
 1351              		@ args = 0, pretend = 0, frame = 8
 1352              		@ frame_needed = 1, uses_anonymous_args = 0
 1353              		@ link register save eliminated.
 1354 0000 80B4     		push	{r7}
 1355              		.cfi_def_cfa_offset 4
 1356              		.cfi_offset 7, -4
 1357 0002 83B0     		sub	sp, sp, #12
 1358              		.cfi_def_cfa_offset 16
 1359 0004 00AF     		add	r7, sp, #0
 1360              		.cfi_def_cfa_register 7
 1361 0006 7860     		str	r0, [r7, #4]
 1362              		.loc 3 257 18
 1363 0008 034A     		ldr	r2, .L91
ARM GAS  C:\Users\DEVELO~1\AppData\Local\Temp\cc5fkIXN.s 			page 25


 1364 000a 7B68     		ldr	r3, [r7, #4]
 1365 000c 1360     		str	r3, [r2]
 1366              		.loc 3 258 1
 1367 000e 00BF     		nop
 1368 0010 0C37     		adds	r7, r7, #12
 1369              		.cfi_def_cfa_offset 4
 1370 0012 BD46     		mov	sp, r7
 1371              		.cfi_def_cfa_register 13
 1372              		@ sp needed
 1373 0014 80BC     		pop	{r7}
 1374              		.cfi_restore 7
 1375              		.cfi_def_cfa_offset 0
 1376 0016 7047     		bx	lr
 1377              	.L92:
 1378              		.align	2
 1379              	.L91:
 1380 0018 00000000 		.word	current_font
 1381              		.cfi_endproc
 1382              	.LFE450:
 1383              		.size	drv_display_set_font, .-drv_display_set_font
 1384              		.section	.text.font_advance,"ax",%progbits
 1385              		.align	1
 1386              		.syntax unified
 1387              		.thumb
 1388              		.thumb_func
 1389              		.type	font_advance, %function
 1390              	font_advance:
 1391              	.LFB451:
 1392              		.loc 3 260 53
 1393              		.cfi_startproc
 1394              		@ args = 0, pretend = 0, frame = 8
 1395              		@ frame_needed = 1, uses_anonymous_args = 0
 1396              		@ link register save eliminated.
 1397 0000 80B4     		push	{r7}
 1398              		.cfi_def_cfa_offset 4
 1399              		.cfi_offset 7, -4
 1400 0002 83B0     		sub	sp, sp, #12
 1401              		.cfi_def_cfa_offset 16
 1402 0004 00AF     		add	r7, sp, #0
 1403              		.cfi_def_cfa_register 7
 1404 0006 7860     		str	r0, [r7, #4]
 1405              		.loc 3 261 23
 1406 0008 7B68     		ldr	r3, [r7, #4]
 1407 000a 1A79     		ldrb	r2, [r3, #4]	@ zero_extendqisi2
 1408              		.loc 3 261 34
 1409 000c 7B68     		ldr	r3, [r7, #4]
 1410 000e 1B7A     		ldrb	r3, [r3, #8]	@ zero_extendqisi2
 1411              		.loc 3 261 12
 1412 0010 1344     		add	r3, r3, r2
 1413 0012 DBB2     		uxtb	r3, r3
 1414              		.loc 3 262 1
 1415 0014 1846     		mov	r0, r3
 1416 0016 0C37     		adds	r7, r7, #12
 1417              		.cfi_def_cfa_offset 4
 1418 0018 BD46     		mov	sp, r7
 1419              		.cfi_def_cfa_register 13
 1420              		@ sp needed
ARM GAS  C:\Users\DEVELO~1\AppData\Local\Temp\cc5fkIXN.s 			page 26


 1421 001a 80BC     		pop	{r7}
 1422              		.cfi_restore 7
 1423              		.cfi_def_cfa_offset 0
 1424 001c 7047     		bx	lr
 1425              		.cfi_endproc
 1426              	.LFE451:
 1427              		.size	font_advance, .-font_advance
 1428              		.section	.text.drv_display_draw_char,"ax",%progbits
 1429              		.align	1
 1430              		.global	drv_display_draw_char
 1431              		.syntax unified
 1432              		.thumb
 1433              		.thumb_func
 1434              		.type	drv_display_draw_char, %function
 1435              	drv_display_draw_char:
 1436              	.LFB452:
 1437              		.loc 3 264 58
 1438              		.cfi_startproc
 1439              		@ args = 0, pretend = 0, frame = 16
 1440              		@ frame_needed = 1, uses_anonymous_args = 0
 1441 0000 80B5     		push	{r7, lr}
 1442              		.cfi_def_cfa_offset 8
 1443              		.cfi_offset 7, -8
 1444              		.cfi_offset 14, -4
 1445 0002 84B0     		sub	sp, sp, #16
 1446              		.cfi_def_cfa_offset 24
 1447 0004 00AF     		add	r7, sp, #0
 1448              		.cfi_def_cfa_register 7
 1449 0006 0346     		mov	r3, r0
 1450 0008 FB71     		strb	r3, [r7, #7]
 1451 000a 0B46     		mov	r3, r1
 1452 000c BB71     		strb	r3, [r7, #6]
 1453 000e 1346     		mov	r3, r2
 1454 0010 7B71     		strb	r3, [r7, #5]
 1455              		.loc 3 266 9
 1456 0012 254B     		ldr	r3, .L106
 1457 0014 1B68     		ldr	r3, [r3]
 1458              		.loc 3 266 8
 1459 0016 002B     		cmp	r3, #0
 1460 0018 41D0     		beq	.L105
 1461              		.loc 3 268 34
 1462 001a 234B     		ldr	r3, .L106
 1463 001c 1B68     		ldr	r3, [r3]
 1464 001e 9B79     		ldrb	r3, [r3, #6]	@ zero_extendqisi2
 1465              		.loc 3 268 8
 1466 0020 7A79     		ldrb	r2, [r7, #5]	@ zero_extendqisi2
 1467 0022 9A42     		cmp	r2, r3
 1468 0024 05D3     		bcc	.L98
 1469              		.loc 3 268 70 discriminator 1
 1470 0026 204B     		ldr	r3, .L106
 1471 0028 1B68     		ldr	r3, [r3]
 1472 002a DB79     		ldrb	r3, [r3, #7]	@ zero_extendqisi2
 1473              		.loc 3 268 42 discriminator 1
 1474 002c 7A79     		ldrb	r2, [r7, #5]	@ zero_extendqisi2
 1475 002e 9A42     		cmp	r2, r3
 1476 0030 01D9     		bls	.L99
 1477              	.L98:
ARM GAS  C:\Users\DEVELO~1\AppData\Local\Temp\cc5fkIXN.s 			page 27


 1478              		.loc 3 269 11
 1479 0032 3F23     		movs	r3, #63
 1480 0034 7B71     		strb	r3, [r7, #5]
 1481              	.L99:
 1482              	.LBB10:
 1483              		.loc 3 271 18
 1484 0036 0023     		movs	r3, #0
 1485 0038 FB73     		strb	r3, [r7, #15]
 1486              		.loc 3 271 5
 1487 003a 29E0     		b	.L100
 1488              	.L104:
 1489              	.LBB11:
 1490              		.loc 3 272 36
 1491 003c 1A4B     		ldr	r3, .L106
 1492 003e 1B68     		ldr	r3, [r3]
 1493 0040 DB68     		ldr	r3, [r3, #12]
 1494              		.loc 3 272 24
 1495 0042 F97B     		ldrb	r1, [r7, #15]	@ zero_extendqisi2
 1496 0044 7A79     		ldrb	r2, [r7, #5]	@ zero_extendqisi2
 1497 0046 1046     		mov	r0, r2
 1498 0048 9847     		blx	r3
 1499              	.LVL0:
 1500 004a 0346     		mov	r3, r0
 1501 004c 7B73     		strb	r3, [r7, #13]
 1502              	.LBB12:
 1503              		.loc 3 273 22
 1504 004e 0023     		movs	r3, #0
 1505 0050 BB73     		strb	r3, [r7, #14]
 1506              		.loc 3 273 9
 1507 0052 14E0     		b	.L101
 1508              	.L103:
 1509              		.loc 3 274 17
 1510 0054 7A7B     		ldrb	r2, [r7, #13]	@ zero_extendqisi2
 1511 0056 BB7B     		ldrb	r3, [r7, #14]	@ zero_extendqisi2
 1512 0058 22FA03F3 		lsr	r3, r2, r3
 1513 005c 03F00103 		and	r3, r3, #1
 1514              		.loc 3 274 16
 1515 0060 002B     		cmp	r3, #0
 1516 0062 09D0     		beq	.L102
 1517              		.loc 3 275 17
 1518 0064 FA79     		ldrb	r2, [r7, #7]	@ zero_extendqisi2
 1519 0066 FB7B     		ldrb	r3, [r7, #15]	@ zero_extendqisi2
 1520 0068 D018     		adds	r0, r2, r3
 1521 006a BA79     		ldrb	r2, [r7, #6]	@ zero_extendqisi2
 1522 006c BB7B     		ldrb	r3, [r7, #14]	@ zero_extendqisi2
 1523 006e 1344     		add	r3, r3, r2
 1524 0070 0122     		movs	r2, #1
 1525 0072 1946     		mov	r1, r3
 1526 0074 FFF7FEFF 		bl	set_pixel
 1527              	.L102:
 1528              		.loc 3 273 62 discriminator 2
 1529 0078 BB7B     		ldrb	r3, [r7, #14]	@ zero_extendqisi2
 1530 007a 0133     		adds	r3, r3, #1
 1531 007c BB73     		strb	r3, [r7, #14]
 1532              	.L101:
 1533              		.loc 3 273 49 discriminator 1
 1534 007e 0A4B     		ldr	r3, .L106
ARM GAS  C:\Users\DEVELO~1\AppData\Local\Temp\cc5fkIXN.s 			page 28


 1535 0080 1B68     		ldr	r3, [r3]
 1536 0082 5B79     		ldrb	r3, [r3, #5]	@ zero_extendqisi2
 1537              		.loc 3 273 35 discriminator 1
 1538 0084 BA7B     		ldrb	r2, [r7, #14]	@ zero_extendqisi2
 1539 0086 9A42     		cmp	r2, r3
 1540 0088 E4D3     		bcc	.L103
 1541              	.LBE12:
 1542              	.LBE11:
 1543              		.loc 3 271 57 discriminator 2
 1544 008a FB7B     		ldrb	r3, [r7, #15]	@ zero_extendqisi2
 1545 008c 0133     		adds	r3, r3, #1
 1546 008e FB73     		strb	r3, [r7, #15]
 1547              	.L100:
 1548              		.loc 3 271 45 discriminator 1
 1549 0090 054B     		ldr	r3, .L106
 1550 0092 1B68     		ldr	r3, [r3]
 1551 0094 1B79     		ldrb	r3, [r3, #4]	@ zero_extendqisi2
 1552              		.loc 3 271 31 discriminator 1
 1553 0096 FA7B     		ldrb	r2, [r7, #15]	@ zero_extendqisi2
 1554 0098 9A42     		cmp	r2, r3
 1555 009a CFD3     		bcc	.L104
 1556 009c 00E0     		b	.L95
 1557              	.L105:
 1558              	.LBE10:
 1559              		.loc 3 266 24
 1560 009e 00BF     		nop
 1561              	.L95:
 1562              		.loc 3 278 1
 1563 00a0 1037     		adds	r7, r7, #16
 1564              		.cfi_def_cfa_offset 8
 1565 00a2 BD46     		mov	sp, r7
 1566              		.cfi_def_cfa_register 13
 1567              		@ sp needed
 1568 00a4 80BD     		pop	{r7, pc}
 1569              	.L107:
 1570 00a6 00BF     		.align	2
 1571              	.L106:
 1572 00a8 00000000 		.word	current_font
 1573              		.cfi_endproc
 1574              	.LFE452:
 1575              		.size	drv_display_draw_char, .-drv_display_draw_char
 1576              		.section	.text.drv_display_draw_text,"ax",%progbits
 1577              		.align	1
 1578              		.global	drv_display_draw_text
 1579              		.syntax unified
 1580              		.thumb
 1581              		.thumb_func
 1582              		.type	drv_display_draw_text, %function
 1583              	drv_display_draw_text:
 1584              	.LFB453:
 1585              		.loc 3 280 67
 1586              		.cfi_startproc
 1587              		@ args = 0, pretend = 0, frame = 16
 1588              		@ frame_needed = 1, uses_anonymous_args = 0
 1589 0000 80B5     		push	{r7, lr}
 1590              		.cfi_def_cfa_offset 8
 1591              		.cfi_offset 7, -8
ARM GAS  C:\Users\DEVELO~1\AppData\Local\Temp\cc5fkIXN.s 			page 29


 1592              		.cfi_offset 14, -4
 1593 0002 84B0     		sub	sp, sp, #16
 1594              		.cfi_def_cfa_offset 24
 1595 0004 00AF     		add	r7, sp, #0
 1596              		.cfi_def_cfa_register 7
 1597 0006 0346     		mov	r3, r0
 1598 0008 3A60     		str	r2, [r7]
 1599 000a FB71     		strb	r3, [r7, #7]
 1600 000c 0B46     		mov	r3, r1
 1601 000e BB71     		strb	r3, [r7, #6]
 1602              		.loc 3 282 9
 1603 0010 144B     		ldr	r3, .L115
 1604 0012 1B68     		ldr	r3, [r3]
 1605              		.loc 3 282 8
 1606 0014 002B     		cmp	r3, #0
 1607 0016 20D0     		beq	.L114
 1608              		.loc 3 282 23 discriminator 2
 1609 0018 3B68     		ldr	r3, [r7]
 1610 001a 002B     		cmp	r3, #0
 1611 001c 1DD0     		beq	.L114
 1612              		.loc 3 284 25
 1613 001e 114B     		ldr	r3, .L115
 1614 0020 1B68     		ldr	r3, [r3]
 1615 0022 1846     		mov	r0, r3
 1616 0024 FFF7FEFF 		bl	font_advance
 1617 0028 0346     		mov	r3, r0
 1618 002a FB73     		strb	r3, [r7, #15]
 1619              		.loc 3 286 11
 1620 002c 0CE0     		b	.L112
 1621              	.L113:
 1622              		.loc 3 287 41
 1623 002e 3B68     		ldr	r3, [r7]
 1624 0030 5A1C     		adds	r2, r3, #1
 1625 0032 3A60     		str	r2, [r7]
 1626              		.loc 3 287 9
 1627 0034 1A78     		ldrb	r2, [r3]	@ zero_extendqisi2
 1628 0036 B979     		ldrb	r1, [r7, #6]	@ zero_extendqisi2
 1629 0038 FB79     		ldrb	r3, [r7, #7]	@ zero_extendqisi2
 1630 003a 1846     		mov	r0, r3
 1631 003c FFF7FEFF 		bl	drv_display_draw_char
 1632              		.loc 3 288 11
 1633 0040 FA79     		ldrb	r2, [r7, #7]
 1634 0042 FB7B     		ldrb	r3, [r7, #15]
 1635 0044 1344     		add	r3, r3, r2
 1636 0046 FB71     		strb	r3, [r7, #7]
 1637              	.L112:
 1638              		.loc 3 286 12
 1639 0048 3B68     		ldr	r3, [r7]
 1640 004a 1B78     		ldrb	r3, [r3]	@ zero_extendqisi2
 1641              		.loc 3 286 17
 1642 004c 002B     		cmp	r3, #0
 1643 004e 05D0     		beq	.L108
 1644              		.loc 3 286 22 discriminator 1
 1645 0050 97F90730 		ldrsb	r3, [r7, #7]
 1646              		.loc 3 286 17 discriminator 1
 1647 0054 002B     		cmp	r3, #0
 1648 0056 EADA     		bge	.L113
ARM GAS  C:\Users\DEVELO~1\AppData\Local\Temp\cc5fkIXN.s 			page 30


 1649 0058 00E0     		b	.L108
 1650              	.L114:
 1651              		.loc 3 282 32
 1652 005a 00BF     		nop
 1653              	.L108:
 1654              		.loc 3 290 1
 1655 005c 1037     		adds	r7, r7, #16
 1656              		.cfi_def_cfa_offset 8
 1657 005e BD46     		mov	sp, r7
 1658              		.cfi_def_cfa_register 13
 1659              		@ sp needed
 1660 0060 80BD     		pop	{r7, pc}
 1661              	.L116:
 1662 0062 00BF     		.align	2
 1663              	.L115:
 1664 0064 00000000 		.word	current_font
 1665              		.cfi_endproc
 1666              	.LFE453:
 1667              		.size	drv_display_draw_text, .-drv_display_draw_text
 1668              		.section	.text.drv_display_draw_text_with_font,"ax",%progbits
 1669              		.align	1
 1670              		.global	drv_display_draw_text_with_font
 1671              		.syntax unified
 1672              		.thumb
 1673              		.thumb_func
 1674              		.type	drv_display_draw_text_with_font, %function
 1675              	drv_display_draw_text_with_font:
 1676              	.LFB454:
 1677              		.loc 3 294 55
 1678              		.cfi_startproc
 1679              		@ args = 0, pretend = 0, frame = 24
 1680              		@ frame_needed = 1, uses_anonymous_args = 0
 1681 0000 80B5     		push	{r7, lr}
 1682              		.cfi_def_cfa_offset 8
 1683              		.cfi_offset 7, -8
 1684              		.cfi_offset 14, -4
 1685 0002 86B0     		sub	sp, sp, #24
 1686              		.cfi_def_cfa_offset 32
 1687 0004 00AF     		add	r7, sp, #0
 1688              		.cfi_def_cfa_register 7
 1689 0006 F860     		str	r0, [r7, #12]
 1690 0008 7B60     		str	r3, [r7, #4]
 1691 000a 0B46     		mov	r3, r1
 1692 000c FB72     		strb	r3, [r7, #11]
 1693 000e 1346     		mov	r3, r2
 1694 0010 BB72     		strb	r3, [r7, #10]
 1695              		.loc 3 296 8
 1696 0012 FB68     		ldr	r3, [r7, #12]
 1697 0014 002B     		cmp	r3, #0
 1698 0016 12D0     		beq	.L121
 1699              		.loc 3 296 15 discriminator 2
 1700 0018 7B68     		ldr	r3, [r7, #4]
 1701 001a 002B     		cmp	r3, #0
 1702 001c 0FD0     		beq	.L121
 1703              		.loc 3 298 19
 1704 001e 0A4B     		ldr	r3, .L122
 1705 0020 1B68     		ldr	r3, [r3]
ARM GAS  C:\Users\DEVELO~1\AppData\Local\Temp\cc5fkIXN.s 			page 31


 1706 0022 7B61     		str	r3, [r7, #20]
 1707              		.loc 3 299 18
 1708 0024 084A     		ldr	r2, .L122
 1709 0026 FB68     		ldr	r3, [r7, #12]
 1710 0028 1360     		str	r3, [r2]
 1711              		.loc 3 300 5
 1712 002a B97A     		ldrb	r1, [r7, #10]	@ zero_extendqisi2
 1713 002c FB7A     		ldrb	r3, [r7, #11]	@ zero_extendqisi2
 1714 002e 7A68     		ldr	r2, [r7, #4]
 1715 0030 1846     		mov	r0, r3
 1716 0032 FFF7FEFF 		bl	drv_display_draw_text
 1717              		.loc 3 301 18
 1718 0036 044A     		ldr	r2, .L122
 1719 0038 7B69     		ldr	r3, [r7, #20]
 1720 003a 1360     		str	r3, [r2]
 1721 003c 00E0     		b	.L117
 1722              	.L121:
 1723              		.loc 3 296 24
 1724 003e 00BF     		nop
 1725              	.L117:
 1726              		.loc 3 302 1
 1727 0040 1837     		adds	r7, r7, #24
 1728              		.cfi_def_cfa_offset 8
 1729 0042 BD46     		mov	sp, r7
 1730              		.cfi_def_cfa_register 13
 1731              		@ sp needed
 1732 0044 80BD     		pop	{r7, pc}
 1733              	.L123:
 1734 0046 00BF     		.align	2
 1735              	.L122:
 1736 0048 00000000 		.word	current_font
 1737              		.cfi_endproc
 1738              	.LFE454:
 1739              		.size	drv_display_draw_text_with_font, .-drv_display_draw_text_with_font
 1740              		.section	.text.drv_display_draw_text_at_baseline,"ax",%progbits
 1741              		.align	1
 1742              		.global	drv_display_draw_text_at_baseline
 1743              		.syntax unified
 1744              		.thumb
 1745              		.thumb_func
 1746              		.type	drv_display_draw_text_at_baseline, %function
 1747              	drv_display_draw_text_at_baseline:
 1748              	.LFB455:
 1749              		.loc 3 306 57
 1750              		.cfi_startproc
 1751              		@ args = 0, pretend = 0, frame = 24
 1752              		@ frame_needed = 1, uses_anonymous_args = 0
 1753 0000 80B5     		push	{r7, lr}
 1754              		.cfi_def_cfa_offset 8
 1755              		.cfi_offset 7, -8
 1756              		.cfi_offset 14, -4
 1757 0002 86B0     		sub	sp, sp, #24
 1758              		.cfi_def_cfa_offset 32
 1759 0004 00AF     		add	r7, sp, #0
 1760              		.cfi_def_cfa_register 7
 1761 0006 F860     		str	r0, [r7, #12]
 1762 0008 7B60     		str	r3, [r7, #4]
ARM GAS  C:\Users\DEVELO~1\AppData\Local\Temp\cc5fkIXN.s 			page 32


 1763 000a 0B46     		mov	r3, r1
 1764 000c FB72     		strb	r3, [r7, #11]
 1765 000e 1346     		mov	r3, r2
 1766 0010 BB72     		strb	r3, [r7, #10]
 1767              		.loc 3 308 8
 1768 0012 FB68     		ldr	r3, [r7, #12]
 1769 0014 002B     		cmp	r3, #0
 1770 0016 1FD0     		beq	.L130
 1771              		.loc 3 308 15 discriminator 2
 1772 0018 7B68     		ldr	r3, [r7, #4]
 1773 001a 002B     		cmp	r3, #0
 1774 001c 1CD0     		beq	.L130
 1775              		.loc 3 310 19
 1776 001e 104B     		ldr	r3, .L131
 1777 0020 1B68     		ldr	r3, [r3]
 1778 0022 7B61     		str	r3, [r7, #20]
 1779              		.loc 3 311 18
 1780 0024 0E4A     		ldr	r2, .L131
 1781 0026 FB68     		ldr	r3, [r7, #12]
 1782 0028 1360     		str	r3, [r2]
 1783              		.loc 3 313 36
 1784 002a FB68     		ldr	r3, [r7, #12]
 1785 002c 5B79     		ldrb	r3, [r3, #5]	@ zero_extendqisi2
 1786              		.loc 3 313 13
 1787 002e BA7A     		ldrb	r2, [r7, #10]	@ zero_extendqisi2
 1788 0030 9A42     		cmp	r2, r3
 1789 0032 05D3     		bcc	.L128
 1790              		.loc 3 314 37 discriminator 1
 1791 0034 FB68     		ldr	r3, [r7, #12]
 1792 0036 5B79     		ldrb	r3, [r3, #5]	@ zero_extendqisi2
 1793              		.loc 3 313 13 discriminator 1
 1794 0038 BA7A     		ldrb	r2, [r7, #10]
 1795 003a D31A     		subs	r3, r2, r3
 1796 003c DBB2     		uxtb	r3, r3
 1797 003e 00E0     		b	.L129
 1798              	.L128:
 1799              		.loc 3 313 13 is_stmt 0 discriminator 2
 1800 0040 0023     		movs	r3, #0
 1801              	.L129:
 1802              		.loc 3 313 13 discriminator 4
 1803 0042 FB74     		strb	r3, [r7, #19]
 1804              		.loc 3 317 5 is_stmt 1 discriminator 4
 1805 0044 F97C     		ldrb	r1, [r7, #19]	@ zero_extendqisi2
 1806 0046 FB7A     		ldrb	r3, [r7, #11]	@ zero_extendqisi2
 1807 0048 7A68     		ldr	r2, [r7, #4]
 1808 004a 1846     		mov	r0, r3
 1809 004c FFF7FEFF 		bl	drv_display_draw_text
 1810              		.loc 3 318 18 discriminator 4
 1811 0050 034A     		ldr	r2, .L131
 1812 0052 7B69     		ldr	r3, [r7, #20]
 1813 0054 1360     		str	r3, [r2]
 1814 0056 00E0     		b	.L124
 1815              	.L130:
 1816              		.loc 3 308 24
 1817 0058 00BF     		nop
 1818              	.L124:
 1819              		.loc 3 319 1
ARM GAS  C:\Users\DEVELO~1\AppData\Local\Temp\cc5fkIXN.s 			page 33


 1820 005a 1837     		adds	r7, r7, #24
 1821              		.cfi_def_cfa_offset 8
 1822 005c BD46     		mov	sp, r7
 1823              		.cfi_def_cfa_register 13
 1824              		@ sp needed
 1825 005e 80BD     		pop	{r7, pc}
 1826              	.L132:
 1827              		.align	2
 1828              	.L131:
 1829 0060 00000000 		.word	current_font
 1830              		.cfi_endproc
 1831              	.LFE455:
 1832              		.size	drv_display_draw_text_at_baseline, .-drv_display_draw_text_at_baseline
 1833              		.section	.rodata
 1834              		.align	2
 1835              	.LC0:
 1836 0000 25642020 		.ascii	"%d   \000"
 1836      2000
 1837              		.section	.text.drv_display_draw_number,"ax",%progbits
 1838              		.align	1
 1839              		.global	drv_display_draw_number
 1840              		.syntax unified
 1841              		.thumb
 1842              		.thumb_func
 1843              		.type	drv_display_draw_number, %function
 1844              	drv_display_draw_number:
 1845              	.LFB456:
 1846              		.loc 3 321 61
 1847              		.cfi_startproc
 1848              		@ args = 0, pretend = 0, frame = 24
 1849              		@ frame_needed = 1, uses_anonymous_args = 0
 1850 0000 80B5     		push	{r7, lr}
 1851              		.cfi_def_cfa_offset 8
 1852              		.cfi_offset 7, -8
 1853              		.cfi_offset 14, -4
 1854 0002 86B0     		sub	sp, sp, #24
 1855              		.cfi_def_cfa_offset 32
 1856 0004 00AF     		add	r7, sp, #0
 1857              		.cfi_def_cfa_register 7
 1858 0006 0346     		mov	r3, r0
 1859 0008 3A60     		str	r2, [r7]
 1860 000a FB71     		strb	r3, [r7, #7]
 1861 000c 0B46     		mov	r3, r1
 1862 000e BB71     		strb	r3, [r7, #6]
 1863              		.loc 3 323 5
 1864 0010 07F10800 		add	r0, r7, #8
 1865 0014 3B68     		ldr	r3, [r7]
 1866 0016 074A     		ldr	r2, .L134
 1867 0018 1021     		movs	r1, #16
 1868 001a FFF7FEFF 		bl	snprintf
 1869              		.loc 3 324 5
 1870 001e 07F10802 		add	r2, r7, #8
 1871 0022 B979     		ldrb	r1, [r7, #6]	@ zero_extendqisi2
 1872 0024 FB79     		ldrb	r3, [r7, #7]	@ zero_extendqisi2
 1873 0026 1846     		mov	r0, r3
 1874 0028 FFF7FEFF 		bl	drv_display_draw_text
 1875              		.loc 3 325 1
ARM GAS  C:\Users\DEVELO~1\AppData\Local\Temp\cc5fkIXN.s 			page 34


 1876 002c 00BF     		nop
 1877 002e 1837     		adds	r7, r7, #24
 1878              		.cfi_def_cfa_offset 8
 1879 0030 BD46     		mov	sp, r7
 1880              		.cfi_def_cfa_register 13
 1881              		@ sp needed
 1882 0032 80BD     		pop	{r7, pc}
 1883              	.L135:
 1884              		.align	2
 1885              	.L134:
 1886 0034 00000000 		.word	.LC0
 1887              		.cfi_endproc
 1888              	.LFE456:
 1889              		.size	drv_display_draw_number, .-drv_display_draw_number
 1890              		.section	.bss.waDisplay,"aw",%nobits
 1891              		.align	3
 1892              		.type	waDisplay, %object
 1893              		.size	waDisplay, 752
 1894              	waDisplay:
 1895 0000 00000000 		.space	752
 1895      00000000 
 1895      00000000 
 1895      00000000 
 1895      00000000 
 1896              		.section	.rodata
 1897 0006 0000     		.align	2
 1898              	.LC1:
 1899 0008 44697370 		.ascii	"Display\000"
 1899      6C617900 
 1900              		.section	.text.displayThread,"ax",%progbits
 1901              		.align	1
 1902              		.syntax unified
 1903              		.thumb
 1904              		.thumb_func
 1905              		.type	displayThread, %function
 1906              	displayThread:
 1907              	.LFB457:
 1908              		.loc 3 333 41
 1909              		.cfi_startproc
 1910              		@ args = 0, pretend = 0, frame = 8
 1911              		@ frame_needed = 1, uses_anonymous_args = 0
 1912 0000 80B5     		push	{r7, lr}
 1913              		.cfi_def_cfa_offset 8
 1914              		.cfi_offset 7, -8
 1915              		.cfi_offset 14, -4
 1916 0002 82B0     		sub	sp, sp, #8
 1917              		.cfi_def_cfa_offset 16
 1918 0004 00AF     		add	r7, sp, #0
 1919              		.cfi_def_cfa_register 7
 1920 0006 7860     		str	r0, [r7, #4]
 1921              		.loc 3 335 5
 1922 0008 0C48     		ldr	r0, .L139
 1923 000a FFF7FEFF 		bl	chRegSetThreadName
 1924              		.loc 3 337 11
 1925 000e 05E0     		b	.L137
 1926              	.L138:
 1927              		.loc 3 338 9
ARM GAS  C:\Users\DEVELO~1\AppData\Local\Temp\cc5fkIXN.s 			page 35


 1928 0010 FFF7FEFF 		bl	drv_display_update
 1929              		.loc 3 339 9
 1930 0014 4FF4A570 		mov	r0, #330
 1931 0018 FFF7FEFF 		bl	chThdSleep
 1932              	.L137:
 1933              		.loc 3 337 13
 1934 001c FFF7FEFF 		bl	chThdShouldTerminateX
 1935 0020 0346     		mov	r3, r0
 1936              		.loc 3 337 12
 1937 0022 83F00103 		eor	r3, r3, #1
 1938 0026 DBB2     		uxtb	r3, r3
 1939 0028 002B     		cmp	r3, #0
 1940 002a F1D1     		bne	.L138
 1941              		.loc 3 342 5
 1942 002c 0020     		movs	r0, #0
 1943 002e FFF7FEFF 		bl	chThdExit
 1944              		.loc 3 343 1
 1945 0032 00BF     		nop
 1946 0034 0837     		adds	r7, r7, #8
 1947              		.cfi_def_cfa_offset 8
 1948 0036 BD46     		mov	sp, r7
 1949              		.cfi_def_cfa_register 13
 1950              		@ sp needed
 1951 0038 80BD     		pop	{r7, pc}
 1952              	.L140:
 1953 003a 00BF     		.align	2
 1954              	.L139:
 1955 003c 08000000 		.word	.LC1
 1956              		.cfi_endproc
 1957              	.LFE457:
 1958              		.size	displayThread, .-displayThread
 1959              		.section	.text.drv_display_start,"ax",%progbits
 1960              		.align	1
 1961              		.global	drv_display_start
 1962              		.syntax unified
 1963              		.thumb
 1964              		.thumb_func
 1965              		.type	drv_display_start, %function
 1966              	drv_display_start:
 1967              	.LFB458:
 1968              		.loc 3 345 30
 1969              		.cfi_startproc
 1970              		@ args = 0, pretend = 0, frame = 0
 1971              		@ frame_needed = 1, uses_anonymous_args = 0
 1972 0000 80B5     		push	{r7, lr}
 1973              		.cfi_def_cfa_offset 8
 1974              		.cfi_offset 7, -8
 1975              		.cfi_offset 14, -4
 1976 0002 82B0     		sub	sp, sp, #8
 1977              		.cfi_def_cfa_offset 16
 1978 0004 02AF     		add	r7, sp, #8
 1979              		.cfi_def_cfa 7, 8
 1980              		.loc 3 346 20
 1981 0006 134B     		ldr	r3, .L146
 1982 0008 1B68     		ldr	r3, [r3]
 1983              		.loc 3 346 8
 1984 000a 002B     		cmp	r3, #0
ARM GAS  C:\Users\DEVELO~1\AppData\Local\Temp\cc5fkIXN.s 			page 36


 1985 000c 0FD0     		beq	.L142
 1986              		.loc 3 347 13
 1987 000e 114B     		ldr	r3, .L146
 1988 0010 1B68     		ldr	r3, [r3]
 1989 0012 1846     		mov	r0, r3
 1990 0014 FFF7FEFF 		bl	chThdTerminatedX
 1991 0018 0346     		mov	r3, r0
 1992              		.loc 3 347 12
 1993 001a 002B     		cmp	r3, #0
 1994 001c 16D0     		beq	.L145
 1995              		.loc 3 348 13
 1996 001e 0D4B     		ldr	r3, .L146
 1997 0020 1B68     		ldr	r3, [r3]
 1998 0022 1846     		mov	r0, r3
 1999 0024 FFF7FEFF 		bl	chThdWait
 2000              		.loc 3 349 24
 2001 0028 0A4B     		ldr	r3, .L146
 2002 002a 0022     		movs	r2, #0
 2003 002c 1A60     		str	r2, [r3]
 2004              	.L142:
 2005              		.loc 3 355 5
 2006 002e FFF7FEFF 		bl	drv_display_init
 2007              		.loc 3 357 18
 2008 0032 0023     		movs	r3, #0
 2009 0034 0093     		str	r3, [sp]
 2010 0036 084B     		ldr	r3, .L146+4
 2011 0038 8022     		movs	r2, #128
 2012 003a 4FF43C71 		mov	r1, #752
 2013 003e 0748     		ldr	r0, .L146+8
 2014 0040 FFF7FEFF 		bl	chThdCreateStatic
 2015 0044 0346     		mov	r3, r0
 2016              		.loc 3 357 16
 2017 0046 034A     		ldr	r2, .L146
 2018 0048 1360     		str	r3, [r2]
 2019 004a 00E0     		b	.L141
 2020              	.L145:
 2021              		.loc 3 351 13
 2022 004c 00BF     		nop
 2023              	.L141:
 2024              		.loc 3 359 1
 2025 004e BD46     		mov	sp, r7
 2026              		.cfi_def_cfa_register 13
 2027              		@ sp needed
 2028 0050 80BD     		pop	{r7, pc}
 2029              	.L147:
 2030 0052 00BF     		.align	2
 2031              	.L146:
 2032 0054 00000000 		.word	display_tp
 2033 0058 00000000 		.word	displayThread
 2034 005c 00000000 		.word	waDisplay
 2035              		.cfi_endproc
 2036              	.LFE458:
 2037              		.size	drv_display_start, .-drv_display_start
 2038              		.section	.text.drv_display_stop,"ax",%progbits
 2039              		.align	1
 2040              		.global	drv_display_stop
 2041              		.syntax unified
ARM GAS  C:\Users\DEVELO~1\AppData\Local\Temp\cc5fkIXN.s 			page 37


 2042              		.thumb
 2043              		.thumb_func
 2044              		.type	drv_display_stop, %function
 2045              	drv_display_stop:
 2046              	.LFB459:
 2047              		.loc 3 361 29
 2048              		.cfi_startproc
 2049              		@ args = 0, pretend = 0, frame = 0
 2050              		@ frame_needed = 1, uses_anonymous_args = 0
 2051 0000 80B5     		push	{r7, lr}
 2052              		.cfi_def_cfa_offset 8
 2053              		.cfi_offset 7, -8
 2054              		.cfi_offset 14, -4
 2055 0002 00AF     		add	r7, sp, #0
 2056              		.cfi_def_cfa_register 7
 2057              		.loc 3 362 20
 2058 0004 094B     		ldr	r3, .L152
 2059 0006 1B68     		ldr	r3, [r3]
 2060              		.loc 3 362 8
 2061 0008 002B     		cmp	r3, #0
 2062 000a 0DD0     		beq	.L151
 2063              		.loc 3 365 5
 2064 000c 074B     		ldr	r3, .L152
 2065 000e 1B68     		ldr	r3, [r3]
 2066 0010 1846     		mov	r0, r3
 2067 0012 FFF7FEFF 		bl	chThdTerminate
 2068              		.loc 3 366 5
 2069 0016 054B     		ldr	r3, .L152
 2070 0018 1B68     		ldr	r3, [r3]
 2071 001a 1846     		mov	r0, r3
 2072 001c FFF7FEFF 		bl	chThdWait
 2073              		.loc 3 367 16
 2074 0020 024B     		ldr	r3, .L152
 2075 0022 0022     		movs	r2, #0
 2076 0024 1A60     		str	r2, [r3]
 2077 0026 00E0     		b	.L148
 2078              	.L151:
 2079              		.loc 3 363 9
 2080 0028 00BF     		nop
 2081              	.L148:
 2082              		.loc 3 368 1
 2083 002a 80BD     		pop	{r7, pc}
 2084              	.L153:
 2085              		.align	2
 2086              	.L152:
 2087 002c 00000000 		.word	display_tp
 2088              		.cfi_endproc
 2089              	.LFE459:
 2090              		.size	drv_display_stop, .-drv_display_stop
 2091              		.text
 2092              	.Letext0:
 2093              		.file 4 "c:\\chibistudio\\tools\\gnu tools arm embedded\\11.3 2022.08\\lib\\gcc\\arm-none-eabi\\11
 2094              		.file 5 "c:\\chibistudio\\tools\\gnu tools arm embedded\\11.3 2022.08\\arm-none-eabi\\include\\mac
 2095              		.file 6 "c:\\chibistudio\\tools\\gnu tools arm embedded\\11.3 2022.08\\arm-none-eabi\\include\\sys
 2096              		.file 7 "c:\\chibistudio\\tools\\gnu tools arm embedded\\11.3 2022.08\\arm-none-eabi\\include\\std
 2097              		.file 8 "../../../os/common/ports/ARM-common/chtypes.h"
 2098              		.file 9 "../../../os/rt/include/chearly.h"
ARM GAS  C:\Users\DEVELO~1\AppData\Local\Temp\cc5fkIXN.s 			page 38


 2099              		.file 10 "../../../os/rt/include/chobjects.h"
 2100              		.file 11 "../../../os/rt/include/chrfcu.h"
 2101              		.file 12 "../../../os/rt/include/chdebug.h"
 2102              		.file 13 "../../../os/rt/include/chtime.h"
 2103              		.file 14 "../../../os/rt/include/chlists.h"
 2104              		.file 15 "../../../os/rt/include/chtrace.h"
 2105              		.file 16 "../../../os/common/ext/ST/STM32H7xx/stm32h743xx.h"
 2106              		.file 17 "../../../os/common/ports/ARMv7-M/chcore.h"
 2107              		.file 18 "../../../os/rt/include/chsem.h"
 2108              		.file 19 "../../../os/rt/include/chmtx.h"
 2109              		.file 20 "../../../os/hal/ports/STM32/LLD/DMAv2/stm32_dma.h"
 2110              		.file 21 "../../../os/hal/ports/STM32/LLD/BDMAv1/stm32_bdma.h"
 2111              		.file 22 "../../../os/hal/ports/STM32/LLD/GPIOv2/stm32_gpio.h"
 2112              		.file 23 "../../../os/hal/ports/STM32/LLD/GPIOv2/hal_pal_lld.h"
 2113              		.file 24 "../../../os/hal/include/hal_spi_v2.h"
 2114              		.file 25 "ui/font.h"
 2115              		.file 26 "../../../os/hal/ports/STM32/LLD/SPIv3/hal_spi_v2_lld.h"
 2116              		.file 27 "c:\\chibistudio\\tools\\gnu tools arm embedded\\11.3 2022.08\\arm-none-eabi\\include\\st
 2117              		.file 28 "c:\\chibistudio\\tools\\gnu tools arm embedded\\11.3 2022.08\\arm-none-eabi\\include\\st
 2118              		.file 29 "../../../os/rt/include/chsys.h"