ARM GAS  C:\Users\DEVELO~1\AppData\Local\Temp\ccFTurKf.s 			page 1


   1              		.cpu cortex-m7
   2              		.arch armv7e-m
   3              		.fpu softvfp
   4              		.eabi_attribute 20, 1
   5              		.eabi_attribute 21, 1
   6              		.eabi_attribute 23, 3
   7              		.eabi_attribute 24, 1
   8              		.eabi_attribute 25, 1
   9              		.eabi_attribute 26, 1
  10              		.eabi_attribute 30, 6
  11              		.eabi_attribute 34, 1
  12              		.eabi_attribute 18, 4
  13              		.file	"hal.c"
  14              		.text
  15              	.Ltext0:
  16              		.cfi_sections	.debug_frame
  17              		.section	.text.osalInit,"ax",%progbits
  18              		.align	1
  19              		.syntax unified
  20              		.thumb
  21              		.thumb_func
  22              		.type	osalInit, %function
  23              	osalInit:
  24              	.LFB346:
  25              		.file 1 "../../../os/hal/osal/rt-nil/osal.h"
  26              		.loc 1 531 35
  27              		.cfi_startproc
  28              		@ args = 0, pretend = 0, frame = 0
  29              		@ frame_needed = 1, uses_anonymous_args = 0
  30              		@ link register save eliminated.
  31 0000 80B4     		push	{r7}
  32              		.cfi_def_cfa_offset 4
  33              		.cfi_offset 7, -4
  34 0002 00AF     		add	r7, sp, #0
  35              		.cfi_def_cfa_register 7
  36              		.loc 1 533 1
  37 0004 00BF     		nop
  38 0006 BD46     		mov	sp, r7
  39              		.cfi_def_cfa_register 13
  40              		@ sp needed
  41 0008 80BC     		pop	{r7}
  42              		.cfi_restore 7
  43              		.cfi_def_cfa_offset 0
  44 000a 7047     		bx	lr
  45              		.cfi_endproc
  46              	.LFE346:
  47              		.size	osalInit, .-osalInit
  48              		.section	.text.halInit,"ax",%progbits
  49              		.align	1
  50              		.global	halInit
  51              		.syntax unified
  52              		.thumb
  53              		.thumb_func
  54              		.type	halInit, %function
  55              	halInit:
  56              	.LFB432:
  57              		.file 2 "../../../os/hal/src/hal.c"
ARM GAS  C:\Users\DEVELO~1\AppData\Local\Temp\ccFTurKf.s 			page 2


  58              		.loc 2 56 20
  59              		.cfi_startproc
  60              		@ args = 0, pretend = 0, frame = 0
  61              		@ frame_needed = 1, uses_anonymous_args = 0
  62 0000 80B5     		push	{r7, lr}
  63              		.cfi_def_cfa_offset 8
  64              		.cfi_offset 7, -8
  65              		.cfi_offset 14, -4
  66 0002 00AF     		add	r7, sp, #0
  67              		.cfi_def_cfa_register 7
  68              		.loc 2 59 3
  69 0004 FFF7FEFF 		bl	osalInit
  70              		.loc 2 62 3
  71 0008 FFF7FEFF 		bl	hal_lld_init
  72              		.loc 2 66 3
  73 000c FFF7FEFF 		bl	_pal_lld_init
  74              		.loc 2 72 3
  75 0010 FFF7FEFF 		bl	adcInit
  76              		.loc 2 90 3
  77 0014 FFF7FEFF 		bl	i2cInit
  78              		.loc 2 108 3
  79 0018 FFF7FEFF 		bl	sdInit
  80              		.loc 2 117 3
  81 001c FFF7FEFF 		bl	spiInit
  82              		.loc 2 126 3
  83 0020 FFF7FEFF 		bl	usbInit
  84              		.loc 2 147 3
  85 0024 FFF7FEFF 		bl	halCommunityInit
  86              		.loc 2 152 3
  87 0028 FFF7FEFF 		bl	boardInit
  88              		.loc 2 159 3
  89 002c FFF7FEFF 		bl	stInit
  90              		.loc 2 161 1
  91 0030 00BF     		nop
  92 0032 80BD     		pop	{r7, pc}
  93              		.cfi_endproc
  94              	.LFE432:
  95              		.size	halInit, .-halInit
  96              		.text
  97              	.Letext0:
  98              		.file 3 "../../../os/hal/include/hal_st.h"
  99              		.file 4 "../../../os/hal/boards/STM32H743_LQFP176_CUSTOM_Q_8M/board.h"
 100              		.file 5 "../../../ChibiOS-Contrib-chibios-21.11.x/os/hal/include/hal_community.h"
 101              		.file 6 "../../../os/hal/include/hal_usb.h"
 102              		.file 7 "../../../os/hal/include/hal_spi_v2.h"
 103              		.file 8 "../../../os/hal/include/hal_serial.h"
 104              		.file 9 "../../../os/hal/include/hal_i2c.h"
 105              		.file 10 "../../../os/hal/include/hal_adc.h"
 106              		.file 11 "../../../os/hal/ports/STM32/LLD/GPIOv2/hal_pal_lld.h"
 107              		.file 12 "../../../os/hal/ports/STM32/STM32H7xx/hal_lld.h"
 108              		.section	.debug_info,"",%progbits
 109              	.Ldebug_info0:
 110 0000 EF000000 		.4byte	0xef
 111 0004 0500     		.2byte	0x5
 112 0006 01       		.byte	0x1
 113 0007 04       		.byte	0x4
 114 0008 00000000 		.4byte	.Ldebug_abbrev0
ARM GAS  C:\Users\DEVELO~1\AppData\Local\Temp\ccFTurKf.s 			page 3


 115 000c 04       		.uleb128 0x4
 116 000d E8000000 		.4byte	.LASF22
 117 0011 1D       		.byte	0x1d
 118 0012 95000000 		.4byte	.LASF23
 119 0016 36000000 		.4byte	.LASF24
 120 001a 0C000000 		.4byte	.LLRL0
 121 001e 00000000 		.4byte	0
 122 0022 00000000 		.4byte	.Ldebug_line0
 123 0026 05       		.uleb128 0x5
 124 0027 04       		.byte	0x4
 125 0028 05       		.byte	0x5
 126 0029 696E7400 		.ascii	"int\000"
 127 002d 01       		.uleb128 0x1
 128 002e 04       		.byte	0x4
 129 002f 07       		.byte	0x7
 130 0030 29000000 		.4byte	.LASF0
 131 0034 01       		.uleb128 0x1
 132 0035 08       		.byte	0x8
 133 0036 05       		.byte	0x5
 134 0037 00000000 		.4byte	.LASF1
 135 003b 01       		.uleb128 0x1
 136 003c 08       		.byte	0x8
 137 003d 04       		.byte	0x4
 138 003e EE010000 		.4byte	.LASF2
 139 0042 01       		.uleb128 0x1
 140 0043 01       		.byte	0x1
 141 0044 06       		.byte	0x6
 142 0045 08020000 		.4byte	.LASF3
 143 0049 01       		.uleb128 0x1
 144 004a 01       		.byte	0x1
 145 004b 08       		.byte	0x8
 146 004c 7B010000 		.4byte	.LASF4
 147 0050 01       		.uleb128 0x1
 148 0051 02       		.byte	0x2
 149 0052 05       		.byte	0x5
 150 0053 9D010000 		.4byte	.LASF5
 151 0057 01       		.uleb128 0x1
 152 0058 02       		.byte	0x2
 153 0059 07       		.byte	0x7
 154 005a 0E000000 		.4byte	.LASF6
 155 005e 01       		.uleb128 0x1
 156 005f 04       		.byte	0x4
 157 0060 05       		.byte	0x5
 158 0061 B4010000 		.4byte	.LASF7
 159 0065 01       		.uleb128 0x1
 160 0066 04       		.byte	0x4
 161 0067 07       		.byte	0x7
 162 0068 BF000000 		.4byte	.LASF8
 163 006c 01       		.uleb128 0x1
 164 006d 08       		.byte	0x8
 165 006e 07       		.byte	0x7
 166 006f D1000000 		.4byte	.LASF9
 167 0073 01       		.uleb128 0x1
 168 0074 01       		.byte	0x1
 169 0075 08       		.byte	0x8
 170 0076 89010000 		.4byte	.LASF10
 171 007a 01       		.uleb128 0x1
ARM GAS  C:\Users\DEVELO~1\AppData\Local\Temp\ccFTurKf.s 			page 4


 172 007b 01       		.byte	0x1
 173 007c 02       		.byte	0x2
 174 007d AE010000 		.4byte	.LASF11
 175 0081 03       		.uleb128 0x3
 176 0082 8E010000 		.4byte	.LASF12
 177 0086 03       		.byte	0x3
 178 0087 46       		.byte	0x46
 179 0088 02       		.uleb128 0x2
 180 0089 CA010000 		.4byte	.LASF13
 181 008d 04       		.byte	0x4
 182 008e 3D06     		.2byte	0x63d
 183 0090 03       		.uleb128 0x3
 184 0091 D4010000 		.4byte	.LASF14
 185 0095 05       		.byte	0x5
 186 0096 91       		.byte	0x91
 187 0097 02       		.uleb128 0x2
 188 0098 21000000 		.4byte	.LASF15
 189 009c 06       		.byte	0x6
 190 009d 5D02     		.2byte	0x25d
 191 009f 02       		.uleb128 0x2
 192 00a0 73010000 		.4byte	.LASF16
 193 00a4 07       		.byte	0x7
 194 00a5 E101     		.2byte	0x1e1
 195 00a7 02       		.uleb128 0x2
 196 00a8 A7010000 		.4byte	.LASF17
 197 00ac 08       		.byte	0x8
 198 00ad 7F01     		.2byte	0x17f
 199 00af 03       		.uleb128 0x3
 200 00b0 B7000000 		.4byte	.LASF18
 201 00b4 09       		.byte	0x9
 202 00b5 B0       		.byte	0xb0
 203 00b6 02       		.uleb128 0x2
 204 00b7 AF000000 		.4byte	.LASF19
 205 00bb 0A       		.byte	0xa
 206 00bc 8001     		.2byte	0x180
 207 00be 02       		.uleb128 0x2
 208 00bf FA010000 		.4byte	.LASF20
 209 00c3 0B       		.byte	0xb
 210 00c4 F201     		.2byte	0x1f2
 211 00c6 03       		.uleb128 0x3
 212 00c7 BD010000 		.4byte	.LASF21
 213 00cb 0C       		.byte	0xc
 214 00cc BC       		.byte	0xbc
 215 00cd 06       		.uleb128 0x6
 216 00ce 95010000 		.4byte	.LASF25
 217 00d2 02       		.byte	0x2
 218 00d3 38       		.byte	0x38
 219 00d4 06       		.byte	0x6
 220 00d5 00000000 		.4byte	.LFB432
 221 00d9 34000000 		.4byte	.LFE432-.LFB432
 222 00dd 01       		.uleb128 0x1
 223 00de 9C       		.byte	0x9c
 224 00df 07       		.uleb128 0x7
 225 00e0 E5010000 		.4byte	.LASF26
 226 00e4 01       		.byte	0x1
 227 00e5 1302     		.2byte	0x213
 228 00e7 14       		.byte	0x14
ARM GAS  C:\Users\DEVELO~1\AppData\Local\Temp\ccFTurKf.s 			page 5


 229 00e8 00000000 		.4byte	.LFB346
 230 00ec 0C000000 		.4byte	.LFE346-.LFB346
 231 00f0 01       		.uleb128 0x1
 232 00f1 9C       		.byte	0x9c
 233 00f2 00       		.byte	0
 234              		.section	.debug_abbrev,"",%progbits
 235              	.Ldebug_abbrev0:
 236 0000 01       		.uleb128 0x1
 237 0001 24       		.uleb128 0x24
 238 0002 00       		.byte	0
 239 0003 0B       		.uleb128 0xb
 240 0004 0B       		.uleb128 0xb
 241 0005 3E       		.uleb128 0x3e
 242 0006 0B       		.uleb128 0xb
 243 0007 03       		.uleb128 0x3
 244 0008 0E       		.uleb128 0xe
 245 0009 00       		.byte	0
 246 000a 00       		.byte	0
 247 000b 02       		.uleb128 0x2
 248 000c 2E       		.uleb128 0x2e
 249 000d 00       		.byte	0
 250 000e 3F       		.uleb128 0x3f
 251 000f 19       		.uleb128 0x19
 252 0010 03       		.uleb128 0x3
 253 0011 0E       		.uleb128 0xe
 254 0012 3A       		.uleb128 0x3a
 255 0013 0B       		.uleb128 0xb
 256 0014 3B       		.uleb128 0x3b
 257 0015 05       		.uleb128 0x5
 258 0016 39       		.uleb128 0x39
 259 0017 21       		.uleb128 0x21
 260 0018 08       		.sleb128 8
 261 0019 27       		.uleb128 0x27
 262 001a 19       		.uleb128 0x19
 263 001b 3C       		.uleb128 0x3c
 264 001c 19       		.uleb128 0x19
 265 001d 00       		.byte	0
 266 001e 00       		.byte	0
 267 001f 03       		.uleb128 0x3
 268 0020 2E       		.uleb128 0x2e
 269 0021 00       		.byte	0
 270 0022 3F       		.uleb128 0x3f
 271 0023 19       		.uleb128 0x19
 272 0024 03       		.uleb128 0x3
 273 0025 0E       		.uleb128 0xe
 274 0026 3A       		.uleb128 0x3a
 275 0027 0B       		.uleb128 0xb
 276 0028 3B       		.uleb128 0x3b
 277 0029 0B       		.uleb128 0xb
 278 002a 39       		.uleb128 0x39
 279 002b 21       		.uleb128 0x21
 280 002c 08       		.sleb128 8
 281 002d 27       		.uleb128 0x27
 282 002e 19       		.uleb128 0x19
 283 002f 3C       		.uleb128 0x3c
 284 0030 19       		.uleb128 0x19
 285 0031 00       		.byte	0
ARM GAS  C:\Users\DEVELO~1\AppData\Local\Temp\ccFTurKf.s 			page 6


 286 0032 00       		.byte	0
 287 0033 04       		.uleb128 0x4
 288 0034 11       		.uleb128 0x11
 289 0035 01       		.byte	0x1
 290 0036 25       		.uleb128 0x25
 291 0037 0E       		.uleb128 0xe
 292 0038 13       		.uleb128 0x13
 293 0039 0B       		.uleb128 0xb
 294 003a 03       		.uleb128 0x3
 295 003b 0E       		.uleb128 0xe
 296 003c 1B       		.uleb128 0x1b
 297 003d 0E       		.uleb128 0xe
 298 003e 55       		.uleb128 0x55
 299 003f 17       		.uleb128 0x17
 300 0040 11       		.uleb128 0x11
 301 0041 01       		.uleb128 0x1
 302 0042 10       		.uleb128 0x10
 303 0043 17       		.uleb128 0x17
 304 0044 00       		.byte	0
 305 0045 00       		.byte	0
 306 0046 05       		.uleb128 0x5
 307 0047 24       		.uleb128 0x24
 308 0048 00       		.byte	0
 309 0049 0B       		.uleb128 0xb
 310 004a 0B       		.uleb128 0xb
 311 004b 3E       		.uleb128 0x3e
 312 004c 0B       		.uleb128 0xb
 313 004d 03       		.uleb128 0x3
 314 004e 08       		.uleb128 0x8
 315 004f 00       		.byte	0
 316 0050 00       		.byte	0
 317 0051 06       		.uleb128 0x6
 318 0052 2E       		.uleb128 0x2e
 319 0053 00       		.byte	0
 320 0054 3F       		.uleb128 0x3f
 321 0055 19       		.uleb128 0x19
 322 0056 03       		.uleb128 0x3
 323 0057 0E       		.uleb128 0xe
 324 0058 3A       		.uleb128 0x3a
 325 0059 0B       		.uleb128 0xb
 326 005a 3B       		.uleb128 0x3b
 327 005b 0B       		.uleb128 0xb
 328 005c 39       		.uleb128 0x39
 329 005d 0B       		.uleb128 0xb
 330 005e 27       		.uleb128 0x27
 331 005f 19       		.uleb128 0x19
 332 0060 11       		.uleb128 0x11
 333 0061 01       		.uleb128 0x1
 334 0062 12       		.uleb128 0x12
 335 0063 06       		.uleb128 0x6
 336 0064 40       		.uleb128 0x40
 337 0065 18       		.uleb128 0x18
 338 0066 7C       		.uleb128 0x7c
 339 0067 19       		.uleb128 0x19
 340 0068 00       		.byte	0
 341 0069 00       		.byte	0
 342 006a 07       		.uleb128 0x7
ARM GAS  C:\Users\DEVELO~1\AppData\Local\Temp\ccFTurKf.s 			page 7


 343 006b 2E       		.uleb128 0x2e
 344 006c 00       		.byte	0
 345 006d 03       		.uleb128 0x3
 346 006e 0E       		.uleb128 0xe
 347 006f 3A       		.uleb128 0x3a
 348 0070 0B       		.uleb128 0xb
 349 0071 3B       		.uleb128 0x3b
 350 0072 05       		.uleb128 0x5
 351 0073 39       		.uleb128 0x39
 352 0074 0B       		.uleb128 0xb
 353 0075 27       		.uleb128 0x27
 354 0076 19       		.uleb128 0x19
 355 0077 11       		.uleb128 0x11
 356 0078 01       		.uleb128 0x1
 357 0079 12       		.uleb128 0x12
 358 007a 06       		.uleb128 0x6
 359 007b 40       		.uleb128 0x40
 360 007c 18       		.uleb128 0x18
 361 007d 7A       		.uleb128 0x7a
 362 007e 19       		.uleb128 0x19
 363 007f 00       		.byte	0
 364 0080 00       		.byte	0
 365 0081 00       		.byte	0
 366              		.section	.debug_aranges,"",%progbits
 367 0000 24000000 		.4byte	0x24
 368 0004 0200     		.2byte	0x2
 369 0006 00000000 		.4byte	.Ldebug_info0
 370 000a 04       		.byte	0x4
 371 000b 00       		.byte	0
 372 000c 0000     		.2byte	0
 373 000e 0000     		.2byte	0
 374 0010 00000000 		.4byte	.LFB346
 375 0014 0C000000 		.4byte	.LFE346-.LFB346
 376 0018 00000000 		.4byte	.LFB432
 377 001c 34000000 		.4byte	.LFE432-.LFB432
 378 0020 00000000 		.4byte	0
 379 0024 00000000 		.4byte	0
 380              		.section	.debug_rnglists,"",%progbits
 381              	.Ldebug_ranges0:
 382 0000 15000000 		.4byte	.Ldebug_ranges3-.Ldebug_ranges2
 383              	.Ldebug_ranges2:
 384 0004 0500     		.2byte	0x5
 385 0006 04       		.byte	0x4
 386 0007 00       		.byte	0
 387 0008 00000000 		.4byte	0
 388              	.LLRL0:
 389 000c 07       		.byte	0x7
 390 000d 00000000 		.4byte	.LFB346
 391 0011 0C       		.uleb128 .LFE346-.LFB346
 392 0012 07       		.byte	0x7
 393 0013 00000000 		.4byte	.LFB432
 394 0017 34       		.uleb128 .LFE432-.LFB432
 395 0018 00       		.byte	0
 396              	.Ldebug_ranges3:
 397              		.section	.debug_line,"",%progbits
 398              	.Ldebug_line0:
 399 0000 FF010000 		.section	.debug_str,"MS",%progbits,1
ARM GAS  C:\Users\DEVELO~1\AppData\Local\Temp\ccFTurKf.s 			page 8


 399      0300B701 
 399      00000201 
 399      FB0E0D00 
 399      01010101 
 400              	.LASF1:
 401 0000 6C6F6E67 		.ascii	"long long int\000"
 401      206C6F6E 
 401      6720696E 
 401      7400
 402              	.LASF6:
 403 000e 73686F72 		.ascii	"short unsigned int\000"
 403      7420756E 
 403      7369676E 
 403      65642069 
 403      6E7400
 404              	.LASF15:
 405 0021 75736249 		.ascii	"usbInit\000"
 405      6E697400 
 406              	.LASF0:
 407 0029 756E7369 		.ascii	"unsigned int\000"
 407      676E6564 
 407      20696E74 
 407      00
 408              	.LASF24:
 409 0036 433A5C50 		.ascii	"C:\\PROJET\\ChibiOS project\\ChibiOS_21.11.4\\demos"
 409      524F4A45 
 409      545C4368 
 409      6962694F 
 409      53207072 
 410 0065 5C53544D 		.ascii	"\\STM32\\RT-STM32H743ZI_REV_XY-NUCLEO144_Quartz8M\000"
 410      33325C52 
 410      542D5354 
 410      4D333248 
 410      3734335A 
 411              	.LASF23:
 412 0095 2E2E2F2E 		.ascii	"../../../os/hal/src/hal.c\000"
 412      2E2F2E2E 
 412      2F6F732F 
 412      68616C2F 
 412      7372632F 
 413              	.LASF19:
 414 00af 61646349 		.ascii	"adcInit\000"
 414      6E697400 
 415              	.LASF18:
 416 00b7 69326349 		.ascii	"i2cInit\000"
 416      6E697400 
 417              	.LASF8:
 418 00bf 6C6F6E67 		.ascii	"long unsigned int\000"
 418      20756E73 
 418      69676E65 
 418      6420696E 
 418      7400
 419              	.LASF9:
 420 00d1 6C6F6E67 		.ascii	"long long unsigned int\000"
 420      206C6F6E 
 420      6720756E 
 420      7369676E 
ARM GAS  C:\Users\DEVELO~1\AppData\Local\Temp\ccFTurKf.s 			page 9


 420      65642069 
 421              	.LASF22:
 422 00e8 474E5520 		.ascii	"GNU C17 11.3.1 20220712 -mcpu=cortex-m7 -mthumb -mf"
 422      43313720 
 422      31312E33 
 422      2E312032 
 422      30323230 
 423 011b 6C6F6174 		.ascii	"loat-abi=soft -march=armv7e-m -ggdb -O0 -ffunction-"
 423      2D616269 
 423      3D736F66 
 423      74202D6D 
 423      61726368 
 424 014e 73656374 		.ascii	"sections -fdata-sections -fno-common\000"
 424      696F6E73 
 424      202D6664 
 424      6174612D 
 424      73656374 
 425              	.LASF16:
 426 0173 73706949 		.ascii	"spiInit\000"
 426      6E697400 
 427              	.LASF4:
 428 017b 756E7369 		.ascii	"unsigned char\000"
 428      676E6564 
 428      20636861 
 428      7200
 429              	.LASF10:
 430 0189 63686172 		.ascii	"char\000"
 430      00
 431              	.LASF12:
 432 018e 7374496E 		.ascii	"stInit\000"
 432      697400
 433              	.LASF25:
 434 0195 68616C49 		.ascii	"halInit\000"
 434      6E697400 
 435              	.LASF5:
 436 019d 73686F72 		.ascii	"short int\000"
 436      7420696E 
 436      7400
 437              	.LASF17:
 438 01a7 7364496E 		.ascii	"sdInit\000"
 438      697400
 439              	.LASF11:
 440 01ae 5F426F6F 		.ascii	"_Bool\000"
 440      6C00
 441              	.LASF7:
 442 01b4 6C6F6E67 		.ascii	"long int\000"
 442      20696E74 
 442      00
 443              	.LASF21:
 444 01bd 68616C5F 		.ascii	"hal_lld_init\000"
 444      6C6C645F 
 444      696E6974 
 444      00
 445              	.LASF13:
 446 01ca 626F6172 		.ascii	"boardInit\000"
 446      64496E69 
 446      7400
ARM GAS  C:\Users\DEVELO~1\AppData\Local\Temp\ccFTurKf.s 			page 10


 447              	.LASF14:
 448 01d4 68616C43 		.ascii	"halCommunityInit\000"
 448      6F6D6D75 
 448      6E697479 
 448      496E6974 
 448      00
 449              	.LASF26:
 450 01e5 6F73616C 		.ascii	"osalInit\000"
 450      496E6974 
 450      00
 451              	.LASF2:
 452 01ee 6C6F6E67 		.ascii	"long double\000"
 452      20646F75 
 452      626C6500 
 453              	.LASF20:
 454 01fa 5F70616C 		.ascii	"_pal_lld_init\000"
 454      5F6C6C64 
 454      5F696E69 
 454      7400
 455              	.LASF3:
 456 0208 7369676E 		.ascii	"signed char\000"
 456      65642063 
 456      68617200 
 457              		.ident	"GCC: (Arm GNU Toolchain 11.3.Rel1) 11.3.1 20220712"
ARM GAS  C:\Users\DEVELO~1\AppData\Local\Temp\ccFTurKf.s 			page 11


DEFINED SYMBOLS
                            *ABS*:00000000 hal.c
C:\Users\DEVELO~1\AppData\Local\Temp\ccFTurKf.s:18     .text.osalInit:00000000 $t
C:\Users\DEVELO~1\AppData\Local\Temp\ccFTurKf.s:23     .text.osalInit:00000000 osalInit
C:\Users\DEVELO~1\AppData\Local\Temp\ccFTurKf.s:49     .text.halInit:00000000 $t
C:\Users\DEVELO~1\AppData\Local\Temp\ccFTurKf.s:55     .text.halInit:00000000 halInit

UNDEFINED SYMBOLS
hal_lld_init
_pal_lld_init
adcInit
i2cInit
sdInit
spiInit
usbInit
halCommunityInit
boardInit
stInit
