ARM GAS  C:\Users\DEVELO~1\AppData\Local\Temp\ccFTurKf.s 			page 1


   1              		.cpu cortex-m7
   2              		.arch armv7e-m
   3              		.fpu softvfp
   4              		.eabi_attribute 20, 1
   5              		.eabi_attribute 21, 1
   6              		.eabi_attribute 23, 3
   7              		.eabi_attribute 24, 1
   8              		.eabi_attribute 25, 1
   9              		.eabi_attribute 26, 1
  10              		.eabi_attribute 30, 6
  11              		.eabi_attribute 34, 1
  12              		.eabi_attribute 18, 4
  13              		.file	"hal.c"
  14              		.text
  15              	.Ltext0:
  16              		.cfi_sections	.debug_frame
  17              		.section	.text.osalInit,"ax",%progbits
  18              		.align	1
  19              		.syntax unified
  20              		.thumb
  21              		.thumb_func
  22              		.type	osalInit, %function
  23              	osalInit:
  24              	.LFB346:
  25              		.file 1 "../../../os/hal/osal/rt-nil/osal.h"
  26              		.loc 1 531 35
  27              		.cfi_startproc
  28              		@ args = 0, pretend = 0, frame = 0
  29              		@ frame_needed = 1, uses_anonymous_args = 0
  30              		@ link register save eliminated.
  31 0000 80B4     		push	{r7}
  32              		.cfi_def_cfa_offset 4
  33              		.cfi_offset 7, -4
  34 0002 00AF     		add	r7, sp, #0
  35              		.cfi_def_cfa_register 7
  36              		.loc 1 533 1
  37 0004 00BF     		nop
  38 0006 BD46     		mov	sp, r7
  39              		.cfi_def_cfa_register 13
  40              		@ sp needed
  41 0008 80BC     		pop	{r7}
  42              		.cfi_restore 7
  43              		.cfi_def_cfa_offset 0
  44 000a 7047     		bx	lr
  45              		.cfi_endproc
  46              	.LFE346:
  47              		.size	osalInit, .-osalInit
  48              		.section	.text.halInit,"ax",%progbits
  49              		.align	1
  50              		.global	halInit
  51              		.syntax unified
  52              		.thumb
  53              		.thumb_func
  54              		.type	halInit, %function
  55              	halInit:
  56              	.LFB432:
  57              		.file 2 "../../../os/hal/src/hal.c"
ARM GAS  C:\Users\DEVELO~1\AppData\Local\Temp\ccFTurKf.s 			page 2


  58              		.loc 2 56 20
  59              		.cfi_startproc
  60              		@ args = 0, pretend = 0, frame = 0
  61              		@ frame_needed = 1, uses_anonymous_args = 0
  62 0000 80B5     		push	{r7, lr}
  63              		.cfi_def_cfa_offset 8
  64              		.cfi_offset 7, -8
  65              		.cfi_offset 14, -4
  66 0002 00AF     		add	r7, sp, #0
  67              		.cfi_def_cfa_register 7
  68              		.loc 2 59 3
  69 0004 FFF7FEFF 		bl	osalInit
  70              		.loc 2 62 3
  71 0008 FFF7FEFF 		bl	hal_lld_init
  72              		.loc 2 66 3
  73 000c FFF7FEFF 		bl	_pal_lld_init
  74              		.loc 2 72 3
  75 0010 FFF7FEFF 		bl	adcInit
  76              		.loc 2 90 3
  77 0014 FFF7FEFF 		bl	i2cInit
  78              		.loc 2 108 3
  79 0018 FFF7FEFF 		bl	sdInit
  80              		.loc 2 117 3
  81 001c FFF7FEFF 		bl	spiInit
  82              		.loc 2 126 3
  83 0020 FFF7FEFF 		bl	usbInit
  84              		.loc 2 147 3
  85 0024 FFF7FEFF 		bl	halCommunityInit
  86              		.loc 2 152 3
  87 0028 FFF7FEFF 		bl	boardInit
  88              		.loc 2 159 3
  89 002c FFF7FEFF 		bl	stInit
  90              		.loc 2 161 1
  91 0030 00BF     		nop
  92 0032 80BD     		pop	{r7, pc}
  93              		.cfi_endproc
  94              	.LFE432:
  95              		.size	halInit, .-halInit
  96              		.text
  97              	.Letext0:
  98              		.file 3 "../../../os/hal/include/hal_st.h"
  99              		.file 4 "../../../os/hal/boards/STM32H743_LQFP176_CUSTOM_Q_8M/board.h"
 100              		.file 5 "../../../ChibiOS-Contrib-chibios-21.11.x/os/hal/include/hal_community.h"
 101              		.file 6 "../../../os/hal/include/hal_usb.h"
 102              		.file 7 "../../../os/hal/include/hal_spi_v2.h"
 103              		.file 8 "../../../os/hal/include/hal_serial.h"
 104              		.file 9 "../../../os/hal/include/hal_i2c.h"
 105              		.file 10 "../../../os/hal/include/hal_adc.h"
 106              		.file 11 "../../../os/hal/ports/STM32/LLD/GPIOv2/hal_pal_lld.h"
 107              		.file 12 "../../../os/hal/ports/STM32/STM32H7xx/hal_lld.h"