ARM GAS  C:\Users\DEVELO~1\AppData\Local\Temp\cc00sQ0X.s 			page 1


   1              		.cpu cortex-m7
   2              		.arch armv7e-m
   3              		.fpu softvfp
   4              		.eabi_attribute 20, 1
   5              		.eabi_attribute 21, 1
   6              		.eabi_attribute 23, 3
   7              		.eabi_attribute 24, 1
   8              		.eabi_attribute 25, 1
   9              		.eabi_attribute 26, 1
  10              		.eabi_attribute 30, 6
  11              		.eabi_attribute 34, 1
  12              		.eabi_attribute 18, 4
  13              		.file	"hal_adc_lld.c"
  14              		.text
  15              	.Ltext0:
  16              		.cfi_sections	.debug_frame
  17              		.section	.text.chSysLockFromISR,"ax",%progbits
  18              		.align	1
  19              		.syntax unified
  20              		.thumb
  21              		.thumb_func
  22              		.type	chSysLockFromISR, %function
  23              	chSysLockFromISR:
  24              	.LFB204:
  25              		.file 1 "../../../os/rt/include/chsys.h"
  26              		.loc 1 451 43
  27              		.cfi_startproc
  28              		@ args = 0, pretend = 0, frame = 8
  29              		@ frame_needed = 1, uses_anonymous_args = 0
  30              		@ link register save eliminated.
  31 0000 80B4     		push	{r7}
  32              		.cfi_def_cfa_offset 4
  33              		.cfi_offset 7, -4
  34 0002 83B0     		sub	sp, sp, #12
  35              		.cfi_def_cfa_offset 16
  36 0004 00AF     		add	r7, sp, #0
  37              		.cfi_def_cfa_register 7
  38 0006 3023     		movs	r3, #48
  39 0008 7B60     		str	r3, [r7, #4]
  40              	.LBB26:
  41              	.LBB27:
  42              	.LBB28:
  43              	.LBB29:
  44              	.LBB30:
  45              	.LBB31:
  46              		.file 2 "../../../os/common/ext/ARM/CMSIS/Core/Include/cmsis_gcc.h"
  47              		.loc 2 493 3
  48 000a 7B68     		ldr	r3, [r7, #4]
  49              		.syntax unified
  50              	@ 493 "../../../os/common/ext/ARM/CMSIS/Core/Include/cmsis_gcc.h" 1
  51 000c 83F31188 		MSR basepri, r3
  52              	@ 0 "" 2
  53              		.loc 2 494 1
  54              		.thumb
  55              		.syntax unified
  56 0010 00BF     		nop
  57              	.LBE31:
ARM GAS  C:\Users\DEVELO~1\AppData\Local\Temp\cc00sQ0X.s 			page 2


  58              	.LBE30:
  59              		.file 3 "../../../os/common/ports/ARMv7-M/chcore.h"
  60              		.loc 3 840 1
  61 0012 00BF     		nop
  62              	.LBE29:
  63              	.LBE28:
  64              		.loc 3 865 1
  65 0014 00BF     		nop
  66              	.LBE27:
  67              	.LBE26:
  68              		.loc 1 456 1
  69 0016 00BF     		nop
  70 0018 0C37     		adds	r7, r7, #12
  71              		.cfi_def_cfa_offset 4
  72 001a BD46     		mov	sp, r7
  73              		.cfi_def_cfa_register 13
  74              		@ sp needed
  75 001c 80BC     		pop	{r7}
  76              		.cfi_restore 7
  77              		.cfi_def_cfa_offset 0
  78 001e 7047     		bx	lr
  79              		.cfi_endproc
  80              	.LFE204:
  81              		.size	chSysLockFromISR, .-chSysLockFromISR
  82              		.section	.text.chSysUnlockFromISR,"ax",%progbits
  83              		.align	1
  84              		.syntax unified
  85              		.thumb
  86              		.thumb_func
  87              		.type	chSysUnlockFromISR, %function
  88              	chSysUnlockFromISR:
  89              	.LFB205:
  90              		.loc 1 473 45
  91              		.cfi_startproc
  92              		@ args = 0, pretend = 0, frame = 8
  93              		@ frame_needed = 1, uses_anonymous_args = 0
  94              		@ link register save eliminated.
  95 0000 80B4     		push	{r7}
  96              		.cfi_def_cfa_offset 4
  97              		.cfi_offset 7, -4
  98 0002 83B0     		sub	sp, sp, #12
  99              		.cfi_def_cfa_offset 16
 100 0004 00AF     		add	r7, sp, #0
 101              		.cfi_def_cfa_register 7
 102 0006 0023     		movs	r3, #0
 103 0008 7B60     		str	r3, [r7, #4]
 104              	.LBB32:
 105              	.LBB33:
 106              	.LBB34:
 107              	.LBB35:
 108              	.LBB36:
 109              	.LBB37:
 110              		.loc 2 493 3
 111 000a 7B68     		ldr	r3, [r7, #4]
 112              		.syntax unified
 113              	@ 493 "../../../os/common/ext/ARM/CMSIS/Core/Include/cmsis_gcc.h" 1
 114 000c 83F31188 		MSR basepri, r3
ARM GAS  C:\Users\DEVELO~1\AppData\Local\Temp\cc00sQ0X.s 			page 3


 115              	@ 0 "" 2
 116              		.loc 2 494 1
 117              		.thumb
 118              		.syntax unified
 119 0010 00BF     		nop
 120              	.LBE37:
 121              	.LBE36:
 122              		.loc 3 854 1
 123 0012 00BF     		nop
 124              	.LBE35:
 125              	.LBE34:
 126              		.loc 3 876 1
 127 0014 00BF     		nop
 128              	.LBE33:
 129              	.LBE32:
 130              		.loc 1 478 1
 131 0016 00BF     		nop
 132 0018 0C37     		adds	r7, r7, #12
 133              		.cfi_def_cfa_offset 4
 134 001a BD46     		mov	sp, r7
 135              		.cfi_def_cfa_register 13
 136              		@ sp needed
 137 001c 80BC     		pop	{r7}
 138              		.cfi_restore 7
 139              		.cfi_def_cfa_offset 0
 140 001e 7047     		bx	lr
 141              		.cfi_endproc
 142              	.LFE205:
 143              		.size	chSysUnlockFromISR, .-chSysUnlockFromISR
 144              		.section	.text.osalSysLockFromISR,"ax",%progbits
 145              		.align	1
 146              		.syntax unified
 147              		.thumb
 148              		.thumb_func
 149              		.type	osalSysLockFromISR, %function
 150              	osalSysLockFromISR:
 151              	.LFB352:
 152              		.file 4 "../../../os/hal/osal/rt-nil/osal.h"
 153              		.loc 4 595 45
 154              		.cfi_startproc
 155              		@ args = 0, pretend = 0, frame = 0
 156              		@ frame_needed = 1, uses_anonymous_args = 0
 157 0000 80B5     		push	{r7, lr}
 158              		.cfi_def_cfa_offset 8
 159              		.cfi_offset 7, -8
 160              		.cfi_offset 14, -4
 161 0002 00AF     		add	r7, sp, #0
 162              		.cfi_def_cfa_register 7
 163              		.loc 4 597 3
 164 0004 FFF7FEFF 		bl	chSysLockFromISR
 165              		.loc 4 598 1
 166 0008 00BF     		nop
 167 000a 80BD     		pop	{r7, pc}
 168              		.cfi_endproc
 169              	.LFE352:
 170              		.size	osalSysLockFromISR, .-osalSysLockFromISR
 171              		.section	.text.osalSysUnlockFromISR,"ax",%progbits
ARM GAS  C:\Users\DEVELO~1\AppData\Local\Temp\cc00sQ0X.s 			page 4


 172              		.align	1
 173              		.syntax unified
 174              		.thumb
 175              		.thumb_func
 176              		.type	osalSysUnlockFromISR, %function
 177              	osalSysUnlockFromISR:
 178              	.LFB353:
 179              		.loc 4 606 47
 180              		.cfi_startproc
 181              		@ args = 0, pretend = 0, frame = 0
 182              		@ frame_needed = 1, uses_anonymous_args = 0
 183 0000 80B5     		push	{r7, lr}
 184              		.cfi_def_cfa_offset 8
 185              		.cfi_offset 7, -8
 186              		.cfi_offset 14, -4
 187 0002 00AF     		add	r7, sp, #0
 188              		.cfi_def_cfa_register 7
 189              		.loc 4 608 3
 190 0004 FFF7FEFF 		bl	chSysUnlockFromISR
 191              		.loc 4 609 1
 192 0008 00BF     		nop
 193 000a 80BD     		pop	{r7, pc}
 194              		.cfi_endproc
 195              	.LFE353:
 196              		.size	osalSysUnlockFromISR, .-osalSysUnlockFromISR
 197              		.section	.text.osalSysPolledDelayX,"ax",%progbits
 198              		.align	1
 199              		.syntax unified
 200              		.thumb
 201              		.thumb_func
 202              		.type	osalSysPolledDelayX, %function
 203              	osalSysPolledDelayX:
 204              	.LFB356:
 205              		.loc 4 653 56
 206              		.cfi_startproc
 207              		@ args = 0, pretend = 0, frame = 8
 208              		@ frame_needed = 1, uses_anonymous_args = 0
 209 0000 80B5     		push	{r7, lr}
 210              		.cfi_def_cfa_offset 8
 211              		.cfi_offset 7, -8
 212              		.cfi_offset 14, -4
 213 0002 82B0     		sub	sp, sp, #8
 214              		.cfi_def_cfa_offset 16
 215 0004 00AF     		add	r7, sp, #0
 216              		.cfi_def_cfa_register 7
 217 0006 7860     		str	r0, [r7, #4]
 218              		.loc 4 655 3
 219 0008 7868     		ldr	r0, [r7, #4]
 220 000a FFF7FEFF 		bl	chSysPolledDelayX
 221              		.loc 4 656 1
 222 000e 00BF     		nop
 223 0010 0837     		adds	r7, r7, #8
 224              		.cfi_def_cfa_offset 8
 225 0012 BD46     		mov	sp, r7
 226              		.cfi_def_cfa_register 13
 227              		@ sp needed
 228 0014 80BD     		pop	{r7, pc}
ARM GAS  C:\Users\DEVELO~1\AppData\Local\Temp\cc00sQ0X.s 			page 5


 229              		.cfi_endproc
 230              	.LFE356:
 231              		.size	osalSysPolledDelayX, .-osalSysPolledDelayX
 232              		.section	.text.osalThreadResumeI,"ax",%progbits
 233              		.align	1
 234              		.syntax unified
 235              		.thumb
 236              		.thumb_func
 237              		.type	osalThreadResumeI, %function
 238              	osalThreadResumeI:
 239              	.LFB367:
 240              		.loc 4 837 74
 241              		.cfi_startproc
 242              		@ args = 0, pretend = 0, frame = 8
 243              		@ frame_needed = 1, uses_anonymous_args = 0
 244 0000 80B5     		push	{r7, lr}
 245              		.cfi_def_cfa_offset 8
 246              		.cfi_offset 7, -8
 247              		.cfi_offset 14, -4
 248 0002 82B0     		sub	sp, sp, #8
 249              		.cfi_def_cfa_offset 16
 250 0004 00AF     		add	r7, sp, #0
 251              		.cfi_def_cfa_register 7
 252 0006 7860     		str	r0, [r7, #4]
 253 0008 3960     		str	r1, [r7]
 254              		.loc 4 839 3
 255 000a 3968     		ldr	r1, [r7]
 256 000c 7868     		ldr	r0, [r7, #4]
 257 000e FFF7FEFF 		bl	chThdResumeI
 258              		.loc 4 840 1
 259 0012 00BF     		nop
 260 0014 0837     		adds	r7, r7, #8
 261              		.cfi_def_cfa_offset 8
 262 0016 BD46     		mov	sp, r7
 263              		.cfi_def_cfa_register 13
 264              		@ sp needed
 265 0018 80BD     		pop	{r7, pc}
 266              		.cfi_endproc
 267              	.LFE367:
 268              		.size	osalThreadResumeI, .-osalThreadResumeI
 269              		.section	.text.__rccResetAHB1,"ax",%progbits
 270              		.align	1
 271              		.syntax unified
 272              		.thumb
 273              		.thumb_func
 274              		.type	__rccResetAHB1, %function
 275              	__rccResetAHB1:
 276              	.LFB384:
 277              		.file 5 "../../../os/hal/ports/STM32/STM32H7xx/stm32_rcc.h"
 278              		.loc 5 97 52
 279              		.cfi_startproc
 280              		@ args = 0, pretend = 0, frame = 8
 281              		@ frame_needed = 1, uses_anonymous_args = 0
 282              		@ link register save eliminated.
 283 0000 80B4     		push	{r7}
 284              		.cfi_def_cfa_offset 4
 285              		.cfi_offset 7, -4
ARM GAS  C:\Users\DEVELO~1\AppData\Local\Temp\cc00sQ0X.s 			page 6


 286 0002 83B0     		sub	sp, sp, #12
 287              		.cfi_def_cfa_offset 16
 288 0004 00AF     		add	r7, sp, #0
 289              		.cfi_def_cfa_register 7
 290 0006 7860     		str	r0, [r7, #4]
 291              		.loc 5 100 17
 292 0008 0C4B     		ldr	r3, .L8
 293 000a D3F88020 		ldr	r2, [r3, #128]
 294 000e 0B49     		ldr	r1, .L8
 295 0010 7B68     		ldr	r3, [r7, #4]
 296 0012 1343     		orrs	r3, r3, r2
 297 0014 C1F88030 		str	r3, [r1, #128]
 298              		.loc 5 101 17
 299 0018 084B     		ldr	r3, .L8
 300 001a D3F88020 		ldr	r2, [r3, #128]
 301              		.loc 5 101 20
 302 001e 7B68     		ldr	r3, [r7, #4]
 303 0020 DB43     		mvns	r3, r3
 304              		.loc 5 101 17
 305 0022 0649     		ldr	r1, .L8
 306 0024 1340     		ands	r3, r3, r2
 307 0026 C1F88030 		str	r3, [r1, #128]
 308              		.loc 5 102 12
 309 002a 044B     		ldr	r3, .L8
 310              		.loc 5 102 3
 311 002c D3F88030 		ldr	r3, [r3, #128]
 312              		.loc 5 103 1
 313 0030 00BF     		nop
 314 0032 0C37     		adds	r7, r7, #12
 315              		.cfi_def_cfa_offset 4
 316 0034 BD46     		mov	sp, r7
 317              		.cfi_def_cfa_register 13
 318              		@ sp needed
 319 0036 80BC     		pop	{r7}
 320              		.cfi_restore 7
 321              		.cfi_def_cfa_offset 0
 322 0038 7047     		bx	lr
 323              	.L9:
 324 003a 00BF     		.align	2
 325              	.L8:
 326 003c 00440258 		.word	1476543488
 327              		.cfi_endproc
 328              	.LFE384:
 329              		.size	__rccResetAHB1, .-__rccResetAHB1
 330              		.section	.text.__rccResetAHB4,"ax",%progbits
 331              		.align	1
 332              		.syntax unified
 333              		.thumb
 334              		.thumb_func
 335              		.type	__rccResetAHB4, %function
 336              	__rccResetAHB4:
 337              	.LFB387:
 338              		.loc 5 121 52
 339              		.cfi_startproc
 340              		@ args = 0, pretend = 0, frame = 8
 341              		@ frame_needed = 1, uses_anonymous_args = 0
 342              		@ link register save eliminated.
ARM GAS  C:\Users\DEVELO~1\AppData\Local\Temp\cc00sQ0X.s 			page 7


 343 0000 80B4     		push	{r7}
 344              		.cfi_def_cfa_offset 4
 345              		.cfi_offset 7, -4
 346 0002 83B0     		sub	sp, sp, #12
 347              		.cfi_def_cfa_offset 16
 348 0004 00AF     		add	r7, sp, #0
 349              		.cfi_def_cfa_register 7
 350 0006 7860     		str	r0, [r7, #4]
 351              		.loc 5 124 17
 352 0008 0C4B     		ldr	r3, .L11
 353 000a D3F88820 		ldr	r2, [r3, #136]
 354 000e 0B49     		ldr	r1, .L11
 355 0010 7B68     		ldr	r3, [r7, #4]
 356 0012 1343     		orrs	r3, r3, r2
 357 0014 C1F88830 		str	r3, [r1, #136]
 358              		.loc 5 125 17
 359 0018 084B     		ldr	r3, .L11
 360 001a D3F88820 		ldr	r2, [r3, #136]
 361              		.loc 5 125 20
 362 001e 7B68     		ldr	r3, [r7, #4]
 363 0020 DB43     		mvns	r3, r3
 364              		.loc 5 125 17
 365 0022 0649     		ldr	r1, .L11
 366 0024 1340     		ands	r3, r3, r2
 367 0026 C1F88830 		str	r3, [r1, #136]
 368              		.loc 5 126 12
 369 002a 044B     		ldr	r3, .L11
 370              		.loc 5 126 3
 371 002c D3F88830 		ldr	r3, [r3, #136]
 372              		.loc 5 127 1
 373 0030 00BF     		nop
 374 0032 0C37     		adds	r7, r7, #12
 375              		.cfi_def_cfa_offset 4
 376 0034 BD46     		mov	sp, r7
 377              		.cfi_def_cfa_register 13
 378              		@ sp needed
 379 0036 80BC     		pop	{r7}
 380              		.cfi_restore 7
 381              		.cfi_def_cfa_offset 0
 382 0038 7047     		bx	lr
 383              	.L12:
 384 003a 00BF     		.align	2
 385              	.L11:
 386 003c 00440258 		.word	1476543488
 387              		.cfi_endproc
 388              	.LFE387:
 389              		.size	__rccResetAHB4, .-__rccResetAHB4
 390              		.section	.text.rccEnableAHB1,"ax",%progbits
 391              		.align	1
 392              		.syntax unified
 393              		.thumb
 394              		.thumb_func
 395              		.type	rccEnableAHB1, %function
 396              	rccEnableAHB1:
 397              	.LFB403:
 398              		.loc 5 586 60
 399              		.cfi_startproc
ARM GAS  C:\Users\DEVELO~1\AppData\Local\Temp\cc00sQ0X.s 			page 8


 400              		@ args = 0, pretend = 0, frame = 8
 401              		@ frame_needed = 1, uses_anonymous_args = 0
 402              		@ link register save eliminated.
 403 0000 80B4     		push	{r7}
 404              		.cfi_def_cfa_offset 4
 405              		.cfi_offset 7, -4
 406 0002 83B0     		sub	sp, sp, #12
 407              		.cfi_def_cfa_offset 16
 408 0004 00AF     		add	r7, sp, #0
 409              		.cfi_def_cfa_register 7
 410 0006 7860     		str	r0, [r7, #4]
 411 0008 0B46     		mov	r3, r1
 412 000a FB70     		strb	r3, [r7, #3]
 413              		.loc 5 590 19
 414 000c 124B     		ldr	r3, .L16
 415 000e D3F8D820 		ldr	r2, [r3, #216]
 416 0012 1149     		ldr	r1, .L16
 417 0014 7B68     		ldr	r3, [r7, #4]
 418 0016 1343     		orrs	r3, r3, r2
 419 0018 C1F8D830 		str	r3, [r1, #216]
 420              		.loc 5 591 6
 421 001c FB78     		ldrb	r3, [r7, #3]	@ zero_extendqisi2
 422 001e 002B     		cmp	r3, #0
 423 0020 08D0     		beq	.L14
 424              		.loc 5 592 23
 425 0022 0D4B     		ldr	r3, .L16
 426 0024 D3F80021 		ldr	r2, [r3, #256]
 427 0028 0B49     		ldr	r1, .L16
 428 002a 7B68     		ldr	r3, [r7, #4]
 429 002c 1343     		orrs	r3, r3, r2
 430 002e C1F80031 		str	r3, [r1, #256]
 431 0032 08E0     		b	.L15
 432              	.L14:
 433              		.loc 5 595 23
 434 0034 084B     		ldr	r3, .L16
 435 0036 D3F80021 		ldr	r2, [r3, #256]
 436              		.loc 5 595 26
 437 003a 7B68     		ldr	r3, [r7, #4]
 438 003c DB43     		mvns	r3, r3
 439              		.loc 5 595 23
 440 003e 0649     		ldr	r1, .L16
 441 0040 1340     		ands	r3, r3, r2
 442 0042 C1F80031 		str	r3, [r1, #256]
 443              	.L15:
 444              		.loc 5 597 15
 445 0046 044B     		ldr	r3, .L16
 446              		.loc 5 597 3
 447 0048 D3F80031 		ldr	r3, [r3, #256]
 448              		.loc 5 609 1
 449 004c 00BF     		nop
 450 004e 0C37     		adds	r7, r7, #12
 451              		.cfi_def_cfa_offset 4
 452 0050 BD46     		mov	sp, r7
 453              		.cfi_def_cfa_register 13
 454              		@ sp needed
 455 0052 80BC     		pop	{r7}
 456              		.cfi_restore 7
ARM GAS  C:\Users\DEVELO~1\AppData\Local\Temp\cc00sQ0X.s 			page 9


 457              		.cfi_def_cfa_offset 0
 458 0054 7047     		bx	lr
 459              	.L17:
 460 0056 00BF     		.align	2
 461              	.L16:
 462 0058 00440258 		.word	1476543488
 463              		.cfi_endproc
 464              	.LFE403:
 465              		.size	rccEnableAHB1, .-rccEnableAHB1
 466              		.section	.text.rccDisableAHB1,"ax",%progbits
 467              		.align	1
 468              		.syntax unified
 469              		.thumb
 470              		.thumb_func
 471              		.type	rccDisableAHB1, %function
 472              	rccDisableAHB1:
 473              	.LFB404:
 474              		.loc 5 618 52
 475              		.cfi_startproc
 476              		@ args = 0, pretend = 0, frame = 8
 477              		@ frame_needed = 1, uses_anonymous_args = 0
 478              		@ link register save eliminated.
 479 0000 80B4     		push	{r7}
 480              		.cfi_def_cfa_offset 4
 481              		.cfi_offset 7, -4
 482 0002 83B0     		sub	sp, sp, #12
 483              		.cfi_def_cfa_offset 16
 484 0004 00AF     		add	r7, sp, #0
 485              		.cfi_def_cfa_register 7
 486 0006 7860     		str	r0, [r7, #4]
 487              		.loc 5 628 19
 488 0008 0C4B     		ldr	r3, .L19
 489 000a D3F8D820 		ldr	r2, [r3, #216]
 490              		.loc 5 628 22
 491 000e 7B68     		ldr	r3, [r7, #4]
 492 0010 DB43     		mvns	r3, r3
 493              		.loc 5 628 19
 494 0012 0A49     		ldr	r1, .L19
 495 0014 1340     		ands	r3, r3, r2
 496 0016 C1F8D830 		str	r3, [r1, #216]
 497              		.loc 5 629 21
 498 001a 084B     		ldr	r3, .L19
 499 001c D3F80021 		ldr	r2, [r3, #256]
 500              		.loc 5 629 24
 501 0020 7B68     		ldr	r3, [r7, #4]
 502 0022 DB43     		mvns	r3, r3
 503              		.loc 5 629 21
 504 0024 0549     		ldr	r1, .L19
 505 0026 1340     		ands	r3, r3, r2
 506 0028 C1F80031 		str	r3, [r1, #256]
 507              		.loc 5 630 15
 508 002c 034B     		ldr	r3, .L19
 509              		.loc 5 630 3
 510 002e D3F80031 		ldr	r3, [r3, #256]
 511              		.loc 5 643 1
 512 0032 00BF     		nop
 513 0034 0C37     		adds	r7, r7, #12
ARM GAS  C:\Users\DEVELO~1\AppData\Local\Temp\cc00sQ0X.s 			page 10


 514              		.cfi_def_cfa_offset 4
 515 0036 BD46     		mov	sp, r7
 516              		.cfi_def_cfa_register 13
 517              		@ sp needed
 518 0038 80BC     		pop	{r7}
 519              		.cfi_restore 7
 520              		.cfi_def_cfa_offset 0
 521 003a 7047     		bx	lr
 522              	.L20:
 523              		.align	2
 524              	.L19:
 525 003c 00440258 		.word	1476543488
 526              		.cfi_endproc
 527              	.LFE404:
 528              		.size	rccDisableAHB1, .-rccDisableAHB1
 529              		.section	.text.rccResetAHB1,"ax",%progbits
 530              		.align	1
 531              		.syntax unified
 532              		.thumb
 533              		.thumb_func
 534              		.type	rccResetAHB1, %function
 535              	rccResetAHB1:
 536              	.LFB405:
 537              		.loc 5 652 50
 538              		.cfi_startproc
 539              		@ args = 0, pretend = 0, frame = 8
 540              		@ frame_needed = 1, uses_anonymous_args = 0
 541 0000 80B5     		push	{r7, lr}
 542              		.cfi_def_cfa_offset 8
 543              		.cfi_offset 7, -8
 544              		.cfi_offset 14, -4
 545 0002 82B0     		sub	sp, sp, #8
 546              		.cfi_def_cfa_offset 16
 547 0004 00AF     		add	r7, sp, #0
 548              		.cfi_def_cfa_register 7
 549 0006 7860     		str	r0, [r7, #4]
 550              		.loc 5 664 3
 551 0008 7868     		ldr	r0, [r7, #4]
 552 000a FFF7FEFF 		bl	__rccResetAHB1
 553              		.loc 5 665 1
 554 000e 00BF     		nop
 555 0010 0837     		adds	r7, r7, #8
 556              		.cfi_def_cfa_offset 8
 557 0012 BD46     		mov	sp, r7
 558              		.cfi_def_cfa_register 13
 559              		@ sp needed
 560 0014 80BD     		pop	{r7, pc}
 561              		.cfi_endproc
 562              	.LFE405:
 563              		.size	rccResetAHB1, .-rccResetAHB1
 564              		.section	.text.rccEnableAHB4,"ax",%progbits
 565              		.align	1
 566              		.syntax unified
 567              		.thumb
 568              		.thumb_func
 569              		.type	rccEnableAHB4, %function
 570              	rccEnableAHB4:
ARM GAS  C:\Users\DEVELO~1\AppData\Local\Temp\cc00sQ0X.s 			page 11


 571              	.LFB412:
 572              		.loc 5 853 60
 573              		.cfi_startproc
 574              		@ args = 0, pretend = 0, frame = 8
 575              		@ frame_needed = 1, uses_anonymous_args = 0
 576              		@ link register save eliminated.
 577 0000 80B4     		push	{r7}
 578              		.cfi_def_cfa_offset 4
 579              		.cfi_offset 7, -4
 580 0002 83B0     		sub	sp, sp, #12
 581              		.cfi_def_cfa_offset 16
 582 0004 00AF     		add	r7, sp, #0
 583              		.cfi_def_cfa_register 7
 584 0006 7860     		str	r0, [r7, #4]
 585 0008 0B46     		mov	r3, r1
 586 000a FB70     		strb	r3, [r7, #3]
 587              		.loc 5 857 19
 588 000c 124B     		ldr	r3, .L25
 589 000e D3F8E020 		ldr	r2, [r3, #224]
 590 0012 1149     		ldr	r1, .L25
 591 0014 7B68     		ldr	r3, [r7, #4]
 592 0016 1343     		orrs	r3, r3, r2
 593 0018 C1F8E030 		str	r3, [r1, #224]
 594              		.loc 5 858 6
 595 001c FB78     		ldrb	r3, [r7, #3]	@ zero_extendqisi2
 596 001e 002B     		cmp	r3, #0
 597 0020 08D0     		beq	.L23
 598              		.loc 5 859 23
 599 0022 0D4B     		ldr	r3, .L25
 600 0024 D3F80821 		ldr	r2, [r3, #264]
 601 0028 0B49     		ldr	r1, .L25
 602 002a 7B68     		ldr	r3, [r7, #4]
 603 002c 1343     		orrs	r3, r3, r2
 604 002e C1F80831 		str	r3, [r1, #264]
 605 0032 08E0     		b	.L24
 606              	.L23:
 607              		.loc 5 862 23
 608 0034 084B     		ldr	r3, .L25
 609 0036 D3F80821 		ldr	r2, [r3, #264]
 610              		.loc 5 862 26
 611 003a 7B68     		ldr	r3, [r7, #4]
 612 003c DB43     		mvns	r3, r3
 613              		.loc 5 862 23
 614 003e 0649     		ldr	r1, .L25
 615 0040 1340     		ands	r3, r3, r2
 616 0042 C1F80831 		str	r3, [r1, #264]
 617              	.L24:
 618              		.loc 5 864 15
 619 0046 044B     		ldr	r3, .L25
 620              		.loc 5 864 3
 621 0048 D3F80831 		ldr	r3, [r3, #264]
 622              		.loc 5 876 1
 623 004c 00BF     		nop
 624 004e 0C37     		adds	r7, r7, #12
 625              		.cfi_def_cfa_offset 4
 626 0050 BD46     		mov	sp, r7
 627              		.cfi_def_cfa_register 13
ARM GAS  C:\Users\DEVELO~1\AppData\Local\Temp\cc00sQ0X.s 			page 12


 628              		@ sp needed
 629 0052 80BC     		pop	{r7}
 630              		.cfi_restore 7
 631              		.cfi_def_cfa_offset 0
 632 0054 7047     		bx	lr
 633              	.L26:
 634 0056 00BF     		.align	2
 635              	.L25:
 636 0058 00440258 		.word	1476543488
 637              		.cfi_endproc
 638              	.LFE412:
 639              		.size	rccEnableAHB4, .-rccEnableAHB4
 640              		.section	.text.rccDisableAHB4,"ax",%progbits
 641              		.align	1
 642              		.syntax unified
 643              		.thumb
 644              		.thumb_func
 645              		.type	rccDisableAHB4, %function
 646              	rccDisableAHB4:
 647              	.LFB413:
 648              		.loc 5 885 52
 649              		.cfi_startproc
 650              		@ args = 0, pretend = 0, frame = 8
 651              		@ frame_needed = 1, uses_anonymous_args = 0
 652              		@ link register save eliminated.
 653 0000 80B4     		push	{r7}
 654              		.cfi_def_cfa_offset 4
 655              		.cfi_offset 7, -4
 656 0002 83B0     		sub	sp, sp, #12
 657              		.cfi_def_cfa_offset 16
 658 0004 00AF     		add	r7, sp, #0
 659              		.cfi_def_cfa_register 7
 660 0006 7860     		str	r0, [r7, #4]
 661              		.loc 5 895 19
 662 0008 0C4B     		ldr	r3, .L28
 663 000a D3F8E020 		ldr	r2, [r3, #224]
 664              		.loc 5 895 22
 665 000e 7B68     		ldr	r3, [r7, #4]
 666 0010 DB43     		mvns	r3, r3
 667              		.loc 5 895 19
 668 0012 0A49     		ldr	r1, .L28
 669 0014 1340     		ands	r3, r3, r2
 670 0016 C1F8E030 		str	r3, [r1, #224]
 671              		.loc 5 896 21
 672 001a 084B     		ldr	r3, .L28
 673 001c D3F80821 		ldr	r2, [r3, #264]
 674              		.loc 5 896 24
 675 0020 7B68     		ldr	r3, [r7, #4]
 676 0022 DB43     		mvns	r3, r3
 677              		.loc 5 896 21
 678 0024 0549     		ldr	r1, .L28
 679 0026 1340     		ands	r3, r3, r2
 680 0028 C1F80831 		str	r3, [r1, #264]
 681              		.loc 5 897 15
 682 002c 034B     		ldr	r3, .L28
 683              		.loc 5 897 3
 684 002e D3F80831 		ldr	r3, [r3, #264]
ARM GAS  C:\Users\DEVELO~1\AppData\Local\Temp\cc00sQ0X.s 			page 13


 685              		.loc 5 910 1
 686 0032 00BF     		nop
 687 0034 0C37     		adds	r7, r7, #12
 688              		.cfi_def_cfa_offset 4
 689 0036 BD46     		mov	sp, r7
 690              		.cfi_def_cfa_register 13
 691              		@ sp needed
 692 0038 80BC     		pop	{r7}
 693              		.cfi_restore 7
 694              		.cfi_def_cfa_offset 0
 695 003a 7047     		bx	lr
 696              	.L29:
 697              		.align	2
 698              	.L28:
 699 003c 00440258 		.word	1476543488
 700              		.cfi_endproc
 701              	.LFE413:
 702              		.size	rccDisableAHB4, .-rccDisableAHB4
 703              		.section	.text.rccResetAHB4,"ax",%progbits
 704              		.align	1
 705              		.syntax unified
 706              		.thumb
 707              		.thumb_func
 708              		.type	rccResetAHB4, %function
 709              	rccResetAHB4:
 710              	.LFB414:
 711              		.loc 5 919 50
 712              		.cfi_startproc
 713              		@ args = 0, pretend = 0, frame = 8
 714              		@ frame_needed = 1, uses_anonymous_args = 0
 715 0000 80B5     		push	{r7, lr}
 716              		.cfi_def_cfa_offset 8
 717              		.cfi_offset 7, -8
 718              		.cfi_offset 14, -4
 719 0002 82B0     		sub	sp, sp, #8
 720              		.cfi_def_cfa_offset 16
 721 0004 00AF     		add	r7, sp, #0
 722              		.cfi_def_cfa_register 7
 723 0006 7860     		str	r0, [r7, #4]
 724              		.loc 5 931 3
 725 0008 7868     		ldr	r0, [r7, #4]
 726 000a FFF7FEFF 		bl	__rccResetAHB4
 727              		.loc 5 932 1
 728 000e 00BF     		nop
 729 0010 0837     		adds	r7, r7, #8
 730              		.cfi_def_cfa_offset 8
 731 0012 BD46     		mov	sp, r7
 732              		.cfi_def_cfa_register 13
 733              		@ sp needed
 734 0014 80BD     		pop	{r7, pc}
 735              		.cfi_endproc
 736              	.LFE414:
 737              		.size	rccResetAHB4, .-rccResetAHB4
 738              		.global	ADCD1
 739              		.section	.bss.ADCD1,"aw",%nobits
 740              		.align	2
 741              		.type	ADCD1, %object
ARM GAS  C:\Users\DEVELO~1\AppData\Local\Temp\cc00sQ0X.s 			page 14


 742              		.size	ADCD1, 56
 743              	ADCD1:
 744 0000 00000000 		.space	56
 744      00000000 
 744      00000000 
 744      00000000 
 744      00000000 
 745              		.global	ADCD3
 746              		.section	.bss.ADCD3,"aw",%nobits
 747              		.align	2
 748              		.type	ADCD3, %object
 749              		.size	ADCD3, 56
 750              	ADCD3:
 751 0000 00000000 		.space	56
 751      00000000 
 751      00000000 
 751      00000000 
 751      00000000 
 752              		.section	.rodata.default_config,"a"
 753              		.align	2
 754              		.type	default_config, %object
 755              		.size	default_config, 8
 756              	default_config:
 757 0000 00000000 		.space	8
 757      00000000 
 758              		.section	.text.adc_lld_vreg_on,"ax",%progbits
 759              		.align	1
 760              		.syntax unified
 761              		.thumb
 762              		.thumb_func
 763              		.type	adc_lld_vreg_on, %function
 764              	adc_lld_vreg_on:
 765              	.LFB432:
 766              		.file 6 "../../../os/hal/ports/STM32/LLD/ADCv4/hal_adc_lld.c"
 767              		.loc 6 115 46
 768              		.cfi_startproc
 769              		@ args = 0, pretend = 0, frame = 8
 770              		@ frame_needed = 1, uses_anonymous_args = 0
 771 0000 80B5     		push	{r7, lr}
 772              		.cfi_def_cfa_offset 8
 773              		.cfi_offset 7, -8
 774              		.cfi_offset 14, -4
 775 0002 82B0     		sub	sp, sp, #8
 776              		.cfi_def_cfa_offset 16
 777 0004 00AF     		add	r7, sp, #0
 778              		.cfi_def_cfa_register 7
 779 0006 7860     		str	r0, [r7, #4]
 780              		.loc 6 117 7
 781 0008 7B68     		ldr	r3, [r7, #4]
 782 000a 9B6A     		ldr	r3, [r3, #40]
 783              		.loc 6 117 18
 784 000c 4FF08052 		mov	r2, #268435456
 785 0010 9A60     		str	r2, [r3, #8]
 786              		.loc 6 123 3
 787 0012 4FF47A60 		mov	r0, #4000
 788 0016 FFF7FEFF 		bl	osalSysPolledDelayX
 789              		.loc 6 124 1
ARM GAS  C:\Users\DEVELO~1\AppData\Local\Temp\cc00sQ0X.s 			page 15


 790 001a 00BF     		nop
 791 001c 0837     		adds	r7, r7, #8
 792              		.cfi_def_cfa_offset 8
 793 001e BD46     		mov	sp, r7
 794              		.cfi_def_cfa_register 13
 795              		@ sp needed
 796 0020 80BD     		pop	{r7, pc}
 797              		.cfi_endproc
 798              	.LFE432:
 799              		.size	adc_lld_vreg_on, .-adc_lld_vreg_on
 800              		.section	.text.adc_lld_vreg_off,"ax",%progbits
 801              		.align	1
 802              		.syntax unified
 803              		.thumb
 804              		.thumb_func
 805              		.type	adc_lld_vreg_off, %function
 806              	adc_lld_vreg_off:
 807              	.LFB433:
 808              		.loc 6 131 47
 809              		.cfi_startproc
 810              		@ args = 0, pretend = 0, frame = 8
 811              		@ frame_needed = 1, uses_anonymous_args = 0
 812              		@ link register save eliminated.
 813 0000 80B4     		push	{r7}
 814              		.cfi_def_cfa_offset 4
 815              		.cfi_offset 7, -4
 816 0002 83B0     		sub	sp, sp, #12
 817              		.cfi_def_cfa_offset 16
 818 0004 00AF     		add	r7, sp, #0
 819              		.cfi_def_cfa_register 7
 820 0006 7860     		str	r0, [r7, #4]
 821              		.loc 6 133 7
 822 0008 7B68     		ldr	r3, [r7, #4]
 823 000a 9B6A     		ldr	r3, [r3, #40]
 824              		.loc 6 133 18
 825 000c 4FF00052 		mov	r2, #536870912
 826 0010 9A60     		str	r2, [r3, #8]
 827              		.loc 6 139 1
 828 0012 00BF     		nop
 829 0014 0C37     		adds	r7, r7, #12
 830              		.cfi_def_cfa_offset 4
 831 0016 BD46     		mov	sp, r7
 832              		.cfi_def_cfa_register 13
 833              		@ sp needed
 834 0018 80BC     		pop	{r7}
 835              		.cfi_restore 7
 836              		.cfi_def_cfa_offset 0
 837 001a 7047     		bx	lr
 838              		.cfi_endproc
 839              	.LFE433:
 840              		.size	adc_lld_vreg_off, .-adc_lld_vreg_off
 841              		.section	.text.adc_lld_analog_on,"ax",%progbits
 842              		.align	1
 843              		.syntax unified
 844              		.thumb
 845              		.thumb_func
 846              		.type	adc_lld_analog_on, %function
ARM GAS  C:\Users\DEVELO~1\AppData\Local\Temp\cc00sQ0X.s 			page 16


 847              	adc_lld_analog_on:
 848              	.LFB434:
 849              		.loc 6 146 48
 850              		.cfi_startproc
 851              		@ args = 0, pretend = 0, frame = 8
 852              		@ frame_needed = 1, uses_anonymous_args = 0
 853              		@ link register save eliminated.
 854 0000 80B4     		push	{r7}
 855              		.cfi_def_cfa_offset 4
 856              		.cfi_offset 7, -4
 857 0002 83B0     		sub	sp, sp, #12
 858              		.cfi_def_cfa_offset 16
 859 0004 00AF     		add	r7, sp, #0
 860              		.cfi_def_cfa_register 7
 861 0006 7860     		str	r0, [r7, #4]
 862              		.loc 6 148 7
 863 0008 7B68     		ldr	r3, [r7, #4]
 864 000a 9B6A     		ldr	r3, [r3, #40]
 865              		.loc 6 148 19
 866 000c 0122     		movs	r2, #1
 867 000e 1A60     		str	r2, [r3]
 868              		.loc 6 149 7
 869 0010 7B68     		ldr	r3, [r7, #4]
 870 0012 9B6A     		ldr	r3, [r3, #40]
 871              		.loc 6 149 18
 872 0014 9A68     		ldr	r2, [r3, #8]
 873              		.loc 6 149 7
 874 0016 7B68     		ldr	r3, [r7, #4]
 875 0018 9B6A     		ldr	r3, [r3, #40]
 876              		.loc 6 149 18
 877 001a 42F00102 		orr	r2, r2, #1
 878 001e 9A60     		str	r2, [r3, #8]
 879              		.loc 6 150 9
 880 0020 00BF     		nop
 881              	.L34:
 882              		.loc 6 150 15 discriminator 1
 883 0022 7B68     		ldr	r3, [r7, #4]
 884 0024 9B6A     		ldr	r3, [r3, #40]
 885              		.loc 6 150 21 discriminator 1
 886 0026 1B68     		ldr	r3, [r3]
 887              		.loc 6 150 27 discriminator 1
 888 0028 03F00103 		and	r3, r3, #1
 889              		.loc 6 150 44 discriminator 1
 890 002c 002B     		cmp	r3, #0
 891 002e F8D0     		beq	.L34
 892              		.loc 6 160 1
 893 0030 00BF     		nop
 894 0032 00BF     		nop
 895 0034 0C37     		adds	r7, r7, #12
 896              		.cfi_def_cfa_offset 4
 897 0036 BD46     		mov	sp, r7
 898              		.cfi_def_cfa_register 13
 899              		@ sp needed
 900 0038 80BC     		pop	{r7}
 901              		.cfi_restore 7
 902              		.cfi_def_cfa_offset 0
 903 003a 7047     		bx	lr
ARM GAS  C:\Users\DEVELO~1\AppData\Local\Temp\cc00sQ0X.s 			page 17


 904              		.cfi_endproc
 905              	.LFE434:
 906              		.size	adc_lld_analog_on, .-adc_lld_analog_on
 907              		.section	.text.adc_lld_analog_off,"ax",%progbits
 908              		.align	1
 909              		.syntax unified
 910              		.thumb
 911              		.thumb_func
 912              		.type	adc_lld_analog_off, %function
 913              	adc_lld_analog_off:
 914              	.LFB435:
 915              		.loc 6 167 49
 916              		.cfi_startproc
 917              		@ args = 0, pretend = 0, frame = 8
 918              		@ frame_needed = 1, uses_anonymous_args = 0
 919              		@ link register save eliminated.
 920 0000 80B4     		push	{r7}
 921              		.cfi_def_cfa_offset 4
 922              		.cfi_offset 7, -4
 923 0002 83B0     		sub	sp, sp, #12
 924              		.cfi_def_cfa_offset 16
 925 0004 00AF     		add	r7, sp, #0
 926              		.cfi_def_cfa_register 7
 927 0006 7860     		str	r0, [r7, #4]
 928              		.loc 6 169 7
 929 0008 7B68     		ldr	r3, [r7, #4]
 930 000a 9B6A     		ldr	r3, [r3, #40]
 931              		.loc 6 169 18
 932 000c 9A68     		ldr	r2, [r3, #8]
 933              		.loc 6 169 7
 934 000e 7B68     		ldr	r3, [r7, #4]
 935 0010 9B6A     		ldr	r3, [r3, #40]
 936              		.loc 6 169 18
 937 0012 42F00202 		orr	r2, r2, #2
 938 0016 9A60     		str	r2, [r3, #8]
 939              		.loc 6 170 9
 940 0018 00BF     		nop
 941              	.L36:
 942              		.loc 6 170 15 discriminator 1
 943 001a 7B68     		ldr	r3, [r7, #4]
 944 001c 9B6A     		ldr	r3, [r3, #40]
 945              		.loc 6 170 21 discriminator 1
 946 001e 9B68     		ldr	r3, [r3, #8]
 947              		.loc 6 170 26 discriminator 1
 948 0020 03F00203 		and	r3, r3, #2
 949              		.loc 6 170 42 discriminator 1
 950 0024 002B     		cmp	r3, #0
 951 0026 F8D1     		bne	.L36
 952              		.loc 6 179 1
 953 0028 00BF     		nop
 954 002a 00BF     		nop
 955 002c 0C37     		adds	r7, r7, #12
 956              		.cfi_def_cfa_offset 4
 957 002e BD46     		mov	sp, r7
 958              		.cfi_def_cfa_register 13
 959              		@ sp needed
 960 0030 80BC     		pop	{r7}
ARM GAS  C:\Users\DEVELO~1\AppData\Local\Temp\cc00sQ0X.s 			page 18


 961              		.cfi_restore 7
 962              		.cfi_def_cfa_offset 0
 963 0032 7047     		bx	lr
 964              		.cfi_endproc
 965              	.LFE435:
 966              		.size	adc_lld_analog_off, .-adc_lld_analog_off
 967              		.section	.text.adc_lld_calibrate,"ax",%progbits
 968              		.align	1
 969              		.syntax unified
 970              		.thumb
 971              		.thumb_func
 972              		.type	adc_lld_calibrate, %function
 973              	adc_lld_calibrate:
 974              	.LFB436:
 975              		.loc 6 186 48
 976              		.cfi_startproc
 977              		@ args = 0, pretend = 0, frame = 8
 978              		@ frame_needed = 1, uses_anonymous_args = 0
 979              		@ link register save eliminated.
 980 0000 80B4     		push	{r7}
 981              		.cfi_def_cfa_offset 4
 982              		.cfi_offset 7, -4
 983 0002 83B0     		sub	sp, sp, #12
 984              		.cfi_def_cfa_offset 16
 985 0004 00AF     		add	r7, sp, #0
 986              		.cfi_def_cfa_register 7
 987 0006 7860     		str	r0, [r7, #4]
 988              		.loc 6 190 7
 989 0008 7B68     		ldr	r3, [r7, #4]
 990 000a 9B6A     		ldr	r3, [r3, #40]
 991              		.loc 6 190 18
 992 000c 9968     		ldr	r1, [r3, #8]
 993              		.loc 6 190 7
 994 000e 7B68     		ldr	r3, [r7, #4]
 995 0010 9A6A     		ldr	r2, [r3, #40]
 996              		.loc 6 190 18
 997 0012 114B     		ldr	r3, .L39
 998 0014 0B40     		ands	r3, r3, r1
 999 0016 9360     		str	r3, [r2, #8]
 1000              		.loc 6 191 7
 1001 0018 7B68     		ldr	r3, [r7, #4]
 1002 001a 9B6A     		ldr	r3, [r3, #40]
 1003              		.loc 6 191 18
 1004 001c 9968     		ldr	r1, [r3, #8]
 1005              		.loc 6 191 25
 1006 001e 7B68     		ldr	r3, [r7, #4]
 1007 0020 5B68     		ldr	r3, [r3, #4]
 1008              		.loc 6 191 33
 1009 0022 5A68     		ldr	r2, [r3, #4]
 1010              		.loc 6 191 47
 1011 0024 0D4B     		ldr	r3, .L39+4
 1012 0026 1340     		ands	r3, r3, r2
 1013              		.loc 6 191 7
 1014 0028 7A68     		ldr	r2, [r7, #4]
 1015 002a 926A     		ldr	r2, [r2, #40]
 1016              		.loc 6 191 18
 1017 002c 0B43     		orrs	r3, r3, r1
ARM GAS  C:\Users\DEVELO~1\AppData\Local\Temp\cc00sQ0X.s 			page 19


 1018 002e 9360     		str	r3, [r2, #8]
 1019              		.loc 6 193 7
 1020 0030 7B68     		ldr	r3, [r7, #4]
 1021 0032 9B6A     		ldr	r3, [r3, #40]
 1022              		.loc 6 193 18
 1023 0034 9A68     		ldr	r2, [r3, #8]
 1024              		.loc 6 193 7
 1025 0036 7B68     		ldr	r3, [r7, #4]
 1026 0038 9B6A     		ldr	r3, [r3, #40]
 1027              		.loc 6 193 18
 1028 003a 42F00042 		orr	r2, r2, #-2147483648
 1029 003e 9A60     		str	r2, [r3, #8]
 1030              		.loc 6 194 9
 1031 0040 00BF     		nop
 1032              	.L38:
 1033              		.loc 6 194 15 discriminator 1
 1034 0042 7B68     		ldr	r3, [r7, #4]
 1035 0044 9B6A     		ldr	r3, [r3, #40]
 1036              		.loc 6 194 21 discriminator 1
 1037 0046 9B68     		ldr	r3, [r3, #8]
 1038              		.loc 6 194 42 discriminator 1
 1039 0048 002B     		cmp	r3, #0
 1040 004a FADB     		blt	.L38
 1041              		.loc 6 208 1
 1042 004c 00BF     		nop
 1043 004e 00BF     		nop
 1044 0050 0C37     		adds	r7, r7, #12
 1045              		.cfi_def_cfa_offset 4
 1046 0052 BD46     		mov	sp, r7
 1047              		.cfi_def_cfa_register 13
 1048              		@ sp needed
 1049 0054 80BC     		pop	{r7}
 1050              		.cfi_restore 7
 1051              		.cfi_def_cfa_offset 0
 1052 0056 7047     		bx	lr
 1053              	.L40:
 1054              		.align	2
 1055              	.L39:
 1056 0058 FFFFFEBF 		.word	-1073807361
 1057 005c 00000140 		.word	1073807360
 1058              		.cfi_endproc
 1059              	.LFE436:
 1060              		.size	adc_lld_calibrate, .-adc_lld_calibrate
 1061              		.section	.text.adc_lld_stop_adc,"ax",%progbits
 1062              		.align	1
 1063              		.syntax unified
 1064              		.thumb
 1065              		.thumb_func
 1066              		.type	adc_lld_stop_adc, %function
 1067              	adc_lld_stop_adc:
 1068              	.LFB437:
 1069              		.loc 6 215 47
 1070              		.cfi_startproc
 1071              		@ args = 0, pretend = 0, frame = 8
 1072              		@ frame_needed = 1, uses_anonymous_args = 0
 1073              		@ link register save eliminated.
 1074 0000 80B4     		push	{r7}
ARM GAS  C:\Users\DEVELO~1\AppData\Local\Temp\cc00sQ0X.s 			page 20


 1075              		.cfi_def_cfa_offset 4
 1076              		.cfi_offset 7, -4
 1077 0002 83B0     		sub	sp, sp, #12
 1078              		.cfi_def_cfa_offset 16
 1079 0004 00AF     		add	r7, sp, #0
 1080              		.cfi_def_cfa_register 7
 1081 0006 7860     		str	r0, [r7, #4]
 1082              		.loc 6 217 11
 1083 0008 7B68     		ldr	r3, [r7, #4]
 1084 000a 9B6A     		ldr	r3, [r3, #40]
 1085              		.loc 6 217 17
 1086 000c 9B68     		ldr	r3, [r3, #8]
 1087              		.loc 6 217 22
 1088 000e 03F00403 		and	r3, r3, #4
 1089              		.loc 6 217 6
 1090 0012 002B     		cmp	r3, #0
 1091 0014 0FD0     		beq	.L42
 1092              		.loc 6 218 9
 1093 0016 7B68     		ldr	r3, [r7, #4]
 1094 0018 9B6A     		ldr	r3, [r3, #40]
 1095              		.loc 6 218 20
 1096 001a 9A68     		ldr	r2, [r3, #8]
 1097              		.loc 6 218 9
 1098 001c 7B68     		ldr	r3, [r7, #4]
 1099 001e 9B6A     		ldr	r3, [r3, #40]
 1100              		.loc 6 218 20
 1101 0020 42F01002 		orr	r2, r2, #16
 1102 0024 9A60     		str	r2, [r3, #8]
 1103              		.loc 6 219 11
 1104 0026 00BF     		nop
 1105              	.L43:
 1106              		.loc 6 219 16 discriminator 1
 1107 0028 7B68     		ldr	r3, [r7, #4]
 1108 002a 9B6A     		ldr	r3, [r3, #40]
 1109              		.loc 6 219 22 discriminator 1
 1110 002c 9B68     		ldr	r3, [r3, #8]
 1111              		.loc 6 219 27 discriminator 1
 1112 002e 03F01003 		and	r3, r3, #16
 1113              		.loc 6 219 12 discriminator 1
 1114 0032 002B     		cmp	r3, #0
 1115 0034 F8D1     		bne	.L43
 1116              	.L42:
 1117              		.loc 6 222 7
 1118 0036 7B68     		ldr	r3, [r7, #4]
 1119 0038 9B6A     		ldr	r3, [r3, #40]
 1120              		.loc 6 222 21
 1121 003a 0022     		movs	r2, #0
 1122 003c DA61     		str	r2, [r3, #28]
 1123              		.loc 6 223 1
 1124 003e 00BF     		nop
 1125 0040 0C37     		adds	r7, r7, #12
 1126              		.cfi_def_cfa_offset 4
 1127 0042 BD46     		mov	sp, r7
 1128              		.cfi_def_cfa_register 13
 1129              		@ sp needed
 1130 0044 80BC     		pop	{r7}
 1131              		.cfi_restore 7
ARM GAS  C:\Users\DEVELO~1\AppData\Local\Temp\cc00sQ0X.s 			page 21


 1132              		.cfi_def_cfa_offset 0
 1133 0046 7047     		bx	lr
 1134              		.cfi_endproc
 1135              	.LFE437:
 1136              		.size	adc_lld_stop_adc, .-adc_lld_stop_adc
 1137              		.section	.text.adc_lld_serve_dma_interrupt,"ax",%progbits
 1138              		.align	1
 1139              		.syntax unified
 1140              		.thumb
 1141              		.thumb_func
 1142              		.type	adc_lld_serve_dma_interrupt, %function
 1143              	adc_lld_serve_dma_interrupt:
 1144              	.LFB438:
 1145              		.loc 6 232 74
 1146              		.cfi_startproc
 1147              		@ args = 0, pretend = 0, frame = 8
 1148              		@ frame_needed = 1, uses_anonymous_args = 0
 1149 0000 80B5     		push	{r7, lr}
 1150              		.cfi_def_cfa_offset 8
 1151              		.cfi_offset 7, -8
 1152              		.cfi_offset 14, -4
 1153 0002 82B0     		sub	sp, sp, #8
 1154              		.cfi_def_cfa_offset 16
 1155 0004 00AF     		add	r7, sp, #0
 1156              		.cfi_def_cfa_register 7
 1157 0006 7860     		str	r0, [r7, #4]
 1158 0008 3960     		str	r1, [r7]
 1159              		.loc 6 235 14
 1160 000a 3B68     		ldr	r3, [r7]
 1161 000c 03F00C03 		and	r3, r3, #12
 1162              		.loc 6 235 6
 1163 0010 002B     		cmp	r3, #0
 1164 0012 2DD0     		beq	.L45
 1165              		.loc 6 238 5
 1166 0014 7868     		ldr	r0, [r7, #4]
 1167 0016 FFF7FEFF 		bl	adc_lld_stop_conversion
 1168 001a 7B68     		ldr	r3, [r7, #4]
 1169 001c 1B69     		ldr	r3, [r3, #16]
 1170 001e DB68     		ldr	r3, [r3, #12]
 1171 0020 002B     		cmp	r3, #0
 1172 0022 13D0     		beq	.L46
 1173              		.loc 6 238 5 is_stmt 0 discriminator 1
 1174 0024 7B68     		ldr	r3, [r7, #4]
 1175 0026 0522     		movs	r2, #5
 1176 0028 1A70     		strb	r2, [r3]
 1177 002a 7B68     		ldr	r3, [r7, #4]
 1178 002c 1B69     		ldr	r3, [r3, #16]
 1179 002e DB68     		ldr	r3, [r3, #12]
 1180 0030 0121     		movs	r1, #1
 1181 0032 7868     		ldr	r0, [r7, #4]
 1182 0034 9847     		blx	r3
 1183              	.LVL0:
 1184 0036 7B68     		ldr	r3, [r7, #4]
 1185 0038 1B78     		ldrb	r3, [r3]	@ zero_extendqisi2
 1186 003a 052B     		cmp	r3, #5
 1187 003c 0CD1     		bne	.L47
 1188              		.loc 6 238 5 discriminator 3
ARM GAS  C:\Users\DEVELO~1\AppData\Local\Temp\cc00sQ0X.s 			page 22


 1189 003e 7B68     		ldr	r3, [r7, #4]
 1190 0040 0222     		movs	r2, #2
 1191 0042 1A70     		strb	r2, [r3]
 1192 0044 7B68     		ldr	r3, [r7, #4]
 1193 0046 0022     		movs	r2, #0
 1194 0048 1A61     		str	r2, [r3, #16]
 1195 004a 05E0     		b	.L47
 1196              	.L46:
 1197              		.loc 6 238 5 discriminator 2
 1198 004c 7B68     		ldr	r3, [r7, #4]
 1199 004e 0222     		movs	r2, #2
 1200 0050 1A70     		strb	r2, [r3]
 1201 0052 7B68     		ldr	r3, [r7, #4]
 1202 0054 0022     		movs	r2, #0
 1203 0056 1A61     		str	r2, [r3, #16]
 1204              	.L47:
 1205              		.loc 6 238 5 discriminator 4
 1206 0058 FFF7FEFF 		bl	osalSysLockFromISR
 1207 005c 7B68     		ldr	r3, [r7, #4]
 1208 005e 1433     		adds	r3, r3, #20
 1209 0060 4FF0FF31 		mov	r1, #-1
 1210 0064 1846     		mov	r0, r3
 1211 0066 FFF7FEFF 		bl	osalThreadResumeI
 1212 006a FFF7FEFF 		bl	osalSysUnlockFromISR
 1213              		.loc 6 254 1 is_stmt 1 discriminator 4
 1214 006e 5DE0     		b	.L53
 1215              	.L45:
 1216              		.loc 6 243 13
 1217 0070 7B68     		ldr	r3, [r7, #4]
 1218 0072 1B69     		ldr	r3, [r3, #16]
 1219              		.loc 6 243 8
 1220 0074 002B     		cmp	r3, #0
 1221 0076 59D0     		beq	.L53
 1222              		.loc 6 244 18
 1223 0078 3B68     		ldr	r3, [r7]
 1224 007a 03F02003 		and	r3, r3, #32
 1225              		.loc 6 244 10
 1226 007e 002B     		cmp	r3, #0
 1227 0080 45D0     		beq	.L49
 1228              		.loc 6 246 9
 1229 0082 7B68     		ldr	r3, [r7, #4]
 1230 0084 1B69     		ldr	r3, [r3, #16]
 1231 0086 1B78     		ldrb	r3, [r3]	@ zero_extendqisi2
 1232 0088 002B     		cmp	r3, #0
 1233 008a 14D0     		beq	.L50
 1234              		.loc 6 246 9 is_stmt 0 discriminator 1
 1235 008c 7B68     		ldr	r3, [r7, #4]
 1236 008e 1B69     		ldr	r3, [r3, #16]
 1237 0090 9B68     		ldr	r3, [r3, #8]
 1238 0092 002B     		cmp	r3, #0
 1239 0094 4AD0     		beq	.L53
 1240              		.loc 6 246 9 discriminator 3
 1241 0096 7B68     		ldr	r3, [r7, #4]
 1242 0098 0422     		movs	r2, #4
 1243 009a 1A70     		strb	r2, [r3]
 1244 009c 7B68     		ldr	r3, [r7, #4]
 1245 009e 1B69     		ldr	r3, [r3, #16]
ARM GAS  C:\Users\DEVELO~1\AppData\Local\Temp\cc00sQ0X.s 			page 23


 1246 00a0 9B68     		ldr	r3, [r3, #8]
 1247 00a2 7868     		ldr	r0, [r7, #4]
 1248 00a4 9847     		blx	r3
 1249              	.LVL1:
 1250 00a6 7B68     		ldr	r3, [r7, #4]
 1251 00a8 1B78     		ldrb	r3, [r3]	@ zero_extendqisi2
 1252 00aa 042B     		cmp	r3, #4
 1253 00ac 3ED1     		bne	.L53
 1254              		.loc 6 246 9 discriminator 4
 1255 00ae 7B68     		ldr	r3, [r7, #4]
 1256 00b0 0322     		movs	r2, #3
 1257 00b2 1A70     		strb	r2, [r3]
 1258              		.loc 6 254 1 is_stmt 1 discriminator 4
 1259 00b4 3AE0     		b	.L53
 1260              	.L50:
 1261              		.loc 6 246 9 discriminator 2
 1262 00b6 7868     		ldr	r0, [r7, #4]
 1263 00b8 FFF7FEFF 		bl	adc_lld_stop_conversion
 1264 00bc 7B68     		ldr	r3, [r7, #4]
 1265 00be 1B69     		ldr	r3, [r3, #16]
 1266 00c0 9B68     		ldr	r3, [r3, #8]
 1267 00c2 002B     		cmp	r3, #0
 1268 00c4 12D0     		beq	.L51
 1269              		.loc 6 246 9 is_stmt 0 discriminator 5
 1270 00c6 7B68     		ldr	r3, [r7, #4]
 1271 00c8 0422     		movs	r2, #4
 1272 00ca 1A70     		strb	r2, [r3]
 1273 00cc 7B68     		ldr	r3, [r7, #4]
 1274 00ce 1B69     		ldr	r3, [r3, #16]
 1275 00d0 9B68     		ldr	r3, [r3, #8]
 1276 00d2 7868     		ldr	r0, [r7, #4]
 1277 00d4 9847     		blx	r3
 1278              	.LVL2:
 1279 00d6 7B68     		ldr	r3, [r7, #4]
 1280 00d8 1B78     		ldrb	r3, [r3]	@ zero_extendqisi2
 1281 00da 042B     		cmp	r3, #4
 1282 00dc 0CD1     		bne	.L52
 1283              		.loc 6 246 9 discriminator 7
 1284 00de 7B68     		ldr	r3, [r7, #4]
 1285 00e0 0222     		movs	r2, #2
 1286 00e2 1A70     		strb	r2, [r3]
 1287 00e4 7B68     		ldr	r3, [r7, #4]
 1288 00e6 0022     		movs	r2, #0
 1289 00e8 1A61     		str	r2, [r3, #16]
 1290 00ea 05E0     		b	.L52
 1291              	.L51:
 1292              		.loc 6 246 9 discriminator 6
 1293 00ec 7B68     		ldr	r3, [r7, #4]
 1294 00ee 0222     		movs	r2, #2
 1295 00f0 1A70     		strb	r2, [r3]
 1296 00f2 7B68     		ldr	r3, [r7, #4]
 1297 00f4 0022     		movs	r2, #0
 1298 00f6 1A61     		str	r2, [r3, #16]
 1299              	.L52:
 1300              		.loc 6 246 9 discriminator 8
 1301 00f8 FFF7FEFF 		bl	osalSysLockFromISR
 1302 00fc 7B68     		ldr	r3, [r7, #4]
ARM GAS  C:\Users\DEVELO~1\AppData\Local\Temp\cc00sQ0X.s 			page 24


 1303 00fe 1433     		adds	r3, r3, #20
 1304 0100 0021     		movs	r1, #0
 1305 0102 1846     		mov	r0, r3
 1306 0104 FFF7FEFF 		bl	osalThreadResumeI
 1307 0108 FFF7FEFF 		bl	osalSysUnlockFromISR
 1308              		.loc 6 254 1 is_stmt 1 discriminator 8
 1309 010c 0EE0     		b	.L53
 1310              	.L49:
 1311              		.loc 6 248 23
 1312 010e 3B68     		ldr	r3, [r7]
 1313 0110 03F01003 		and	r3, r3, #16
 1314              		.loc 6 248 15
 1315 0114 002B     		cmp	r3, #0
 1316 0116 09D0     		beq	.L53
 1317              		.loc 6 250 9
 1318 0118 7B68     		ldr	r3, [r7, #4]
 1319 011a 1B69     		ldr	r3, [r3, #16]
 1320 011c 9B68     		ldr	r3, [r3, #8]
 1321 011e 002B     		cmp	r3, #0
 1322 0120 04D0     		beq	.L53
 1323              		.loc 6 250 9 is_stmt 0 discriminator 1
 1324 0122 7B68     		ldr	r3, [r7, #4]
 1325 0124 1B69     		ldr	r3, [r3, #16]
 1326 0126 9B68     		ldr	r3, [r3, #8]
 1327 0128 7868     		ldr	r0, [r7, #4]
 1328 012a 9847     		blx	r3
 1329              	.LVL3:
 1330              	.L53:
 1331              		.loc 6 254 1 is_stmt 1
 1332 012c 00BF     		nop
 1333 012e 0837     		adds	r7, r7, #8
 1334              		.cfi_def_cfa_offset 8
 1335 0130 BD46     		mov	sp, r7
 1336              		.cfi_def_cfa_register 13
 1337              		@ sp needed
 1338 0132 80BD     		pop	{r7, pc}
 1339              		.cfi_endproc
 1340              	.LFE438:
 1341              		.size	adc_lld_serve_dma_interrupt, .-adc_lld_serve_dma_interrupt
 1342              		.section	.text.adc_lld_serve_interrupt,"ax",%progbits
 1343              		.align	1
 1344              		.syntax unified
 1345              		.thumb
 1346              		.thumb_func
 1347              		.type	adc_lld_serve_interrupt, %function
 1348              	adc_lld_serve_interrupt:
 1349              	.LFB439:
 1350              		.loc 6 296 68
 1351              		.cfi_startproc
 1352              		@ args = 0, pretend = 0, frame = 16
 1353              		@ frame_needed = 1, uses_anonymous_args = 0
 1354 0000 80B5     		push	{r7, lr}
 1355              		.cfi_def_cfa_offset 8
 1356              		.cfi_offset 7, -8
 1357              		.cfi_offset 14, -4
 1358 0002 84B0     		sub	sp, sp, #16
 1359              		.cfi_def_cfa_offset 24
ARM GAS  C:\Users\DEVELO~1\AppData\Local\Temp\cc00sQ0X.s 			page 25


 1360 0004 00AF     		add	r7, sp, #0
 1361              		.cfi_def_cfa_register 7
 1362 0006 7860     		str	r0, [r7, #4]
 1363 0008 3960     		str	r1, [r7]
 1364              		.loc 6 300 11
 1365 000a 7B68     		ldr	r3, [r7, #4]
 1366 000c 1B69     		ldr	r3, [r3, #16]
 1367              		.loc 6 300 6
 1368 000e 002B     		cmp	r3, #0
 1369 0010 59D0     		beq	.L62
 1370              	.LBB38:
 1371              		.loc 6 301 16
 1372 0012 0023     		movs	r3, #0
 1373 0014 FB60     		str	r3, [r7, #12]
 1374              		.loc 6 305 14
 1375 0016 3B68     		ldr	r3, [r7]
 1376 0018 03F01003 		and	r3, r3, #16
 1377              		.loc 6 305 8
 1378 001c 002B     		cmp	r3, #0
 1379 001e 07D0     		beq	.L56
 1380              		.loc 6 305 37 discriminator 1
 1381 0020 7B68     		ldr	r3, [r7, #4]
 1382 0022 1B78     		ldrb	r3, [r3]	@ zero_extendqisi2
 1383              		.loc 6 305 29 discriminator 1
 1384 0024 032B     		cmp	r3, #3
 1385 0026 03D1     		bne	.L56
 1386              		.loc 6 308 13
 1387 0028 FB68     		ldr	r3, [r7, #12]
 1388 002a 43F00203 		orr	r3, r3, #2
 1389 002e FB60     		str	r3, [r7, #12]
 1390              	.L56:
 1391              		.loc 6 310 13
 1392 0030 3B68     		ldr	r3, [r7]
 1393 0032 03F08003 		and	r3, r3, #128
 1394              		.loc 6 310 8
 1395 0036 002B     		cmp	r3, #0
 1396 0038 03D0     		beq	.L57
 1397              		.loc 6 312 13
 1398 003a FB68     		ldr	r3, [r7, #12]
 1399 003c 43F00403 		orr	r3, r3, #4
 1400 0040 FB60     		str	r3, [r7, #12]
 1401              	.L57:
 1402              		.loc 6 314 13
 1403 0042 3B68     		ldr	r3, [r7]
 1404 0044 03F48073 		and	r3, r3, #256
 1405              		.loc 6 314 8
 1406 0048 002B     		cmp	r3, #0
 1407 004a 03D0     		beq	.L58
 1408              		.loc 6 316 13
 1409 004c FB68     		ldr	r3, [r7, #12]
 1410 004e 43F00803 		orr	r3, r3, #8
 1411 0052 FB60     		str	r3, [r7, #12]
 1412              	.L58:
 1413              		.loc 6 318 13
 1414 0054 3B68     		ldr	r3, [r7]
 1415 0056 03F40073 		and	r3, r3, #512
 1416              		.loc 6 318 8
ARM GAS  C:\Users\DEVELO~1\AppData\Local\Temp\cc00sQ0X.s 			page 26


 1417 005a 002B     		cmp	r3, #0
 1418 005c 03D0     		beq	.L59
 1419              		.loc 6 320 13
 1420 005e FB68     		ldr	r3, [r7, #12]
 1421 0060 43F01003 		orr	r3, r3, #16
 1422 0064 FB60     		str	r3, [r7, #12]
 1423              	.L59:
 1424              		.loc 6 322 8
 1425 0066 FB68     		ldr	r3, [r7, #12]
 1426 0068 002B     		cmp	r3, #0
 1427 006a 2CD0     		beq	.L62
 1428              		.loc 6 323 7
 1429 006c 7868     		ldr	r0, [r7, #4]
 1430 006e FFF7FEFF 		bl	adc_lld_stop_conversion
 1431 0072 7B68     		ldr	r3, [r7, #4]
 1432 0074 1B69     		ldr	r3, [r3, #16]
 1433 0076 DB68     		ldr	r3, [r3, #12]
 1434 0078 002B     		cmp	r3, #0
 1435 007a 13D0     		beq	.L60
 1436              		.loc 6 323 7 is_stmt 0 discriminator 1
 1437 007c 7B68     		ldr	r3, [r7, #4]
 1438 007e 0522     		movs	r2, #5
 1439 0080 1A70     		strb	r2, [r3]
 1440 0082 7B68     		ldr	r3, [r7, #4]
 1441 0084 1B69     		ldr	r3, [r3, #16]
 1442 0086 DB68     		ldr	r3, [r3, #12]
 1443 0088 F968     		ldr	r1, [r7, #12]
 1444 008a 7868     		ldr	r0, [r7, #4]
 1445 008c 9847     		blx	r3
 1446              	.LVL4:
 1447 008e 7B68     		ldr	r3, [r7, #4]
 1448 0090 1B78     		ldrb	r3, [r3]	@ zero_extendqisi2
 1449 0092 052B     		cmp	r3, #5
 1450 0094 0CD1     		bne	.L61
 1451              		.loc 6 323 7 discriminator 3
 1452 0096 7B68     		ldr	r3, [r7, #4]
 1453 0098 0222     		movs	r2, #2
 1454 009a 1A70     		strb	r2, [r3]
 1455 009c 7B68     		ldr	r3, [r7, #4]
 1456 009e 0022     		movs	r2, #0
 1457 00a0 1A61     		str	r2, [r3, #16]
 1458 00a2 05E0     		b	.L61
 1459              	.L60:
 1460              		.loc 6 323 7 discriminator 2
 1461 00a4 7B68     		ldr	r3, [r7, #4]
 1462 00a6 0222     		movs	r2, #2
 1463 00a8 1A70     		strb	r2, [r3]
 1464 00aa 7B68     		ldr	r3, [r7, #4]
 1465 00ac 0022     		movs	r2, #0
 1466 00ae 1A61     		str	r2, [r3, #16]
 1467              	.L61:
 1468              		.loc 6 323 7 discriminator 4
 1469 00b0 FFF7FEFF 		bl	osalSysLockFromISR
 1470 00b4 7B68     		ldr	r3, [r7, #4]
 1471 00b6 1433     		adds	r3, r3, #20
 1472 00b8 4FF0FF31 		mov	r1, #-1
 1473 00bc 1846     		mov	r0, r3
ARM GAS  C:\Users\DEVELO~1\AppData\Local\Temp\cc00sQ0X.s 			page 27


 1474 00be FFF7FEFF 		bl	osalThreadResumeI
 1475 00c2 FFF7FEFF 		bl	osalSysUnlockFromISR
 1476              	.L62:
 1477              	.LBE38:
 1478              		.loc 6 326 1 is_stmt 1
 1479 00c6 00BF     		nop
 1480 00c8 1037     		adds	r7, r7, #16
 1481              		.cfi_def_cfa_offset 8
 1482 00ca BD46     		mov	sp, r7
 1483              		.cfi_def_cfa_register 13
 1484              		@ sp needed
 1485 00cc 80BD     		pop	{r7, pc}
 1486              		.cfi_endproc
 1487              	.LFE439:
 1488              		.size	adc_lld_serve_interrupt, .-adc_lld_serve_interrupt
 1489              		.section	.text.Vector88,"ax",%progbits
 1490              		.align	1
 1491              		.global	Vector88
 1492              		.syntax unified
 1493              		.thumb
 1494              		.thumb_func
 1495              		.type	Vector88, %function
 1496              	Vector88:
 1497              	.LFB440:
 1498              		.loc 6 338 39
 1499              		.cfi_startproc
 1500              		@ args = 0, pretend = 0, frame = 8
 1501              		@ frame_needed = 1, uses_anonymous_args = 0
 1502 0000 80B5     		push	{r7, lr}
 1503              		.cfi_def_cfa_offset 8
 1504              		.cfi_offset 7, -8
 1505              		.cfi_offset 14, -4
 1506 0002 82B0     		sub	sp, sp, #8
 1507              		.cfi_def_cfa_offset 16
 1508 0004 00AF     		add	r7, sp, #0
 1509              		.cfi_def_cfa_register 7
 1510              		.loc 6 341 3
 1511 0006 0B48     		ldr	r0, .L64
 1512 0008 FFF7FEFF 		bl	__trace_isr_enter
 1513              		.loc 6 344 14
 1514 000c 0A4B     		ldr	r3, .L64+4
 1515              		.loc 6 344 8
 1516 000e 1B68     		ldr	r3, [r3]
 1517 0010 7B60     		str	r3, [r7, #4]
 1518              		.loc 6 345 7
 1519 0012 094A     		ldr	r2, .L64+4
 1520              		.loc 6 345 13
 1521 0014 7B68     		ldr	r3, [r7, #4]
 1522 0016 1360     		str	r3, [r2]
 1523              		.loc 6 349 3
 1524 0018 7968     		ldr	r1, [r7, #4]
 1525 001a 0848     		ldr	r0, .L64+8
 1526 001c FFF7FEFF 		bl	adc_lld_serve_interrupt
 1527              		.loc 6 361 3
 1528 0020 0448     		ldr	r0, .L64
 1529 0022 FFF7FEFF 		bl	__trace_isr_leave
 1530 0026 FFF7FEFF 		bl	__port_irq_epilogue
ARM GAS  C:\Users\DEVELO~1\AppData\Local\Temp\cc00sQ0X.s 			page 28


 1531              		.loc 6 362 1
 1532 002a 00BF     		nop
 1533 002c 0837     		adds	r7, r7, #8
 1534              		.cfi_def_cfa_offset 8
 1535 002e BD46     		mov	sp, r7
 1536              		.cfi_def_cfa_register 13
 1537              		@ sp needed
 1538 0030 80BD     		pop	{r7, pc}
 1539              	.L65:
 1540 0032 00BF     		.align	2
 1541              	.L64:
 1542 0034 00000000 		.word	__func__.1
 1543 0038 00200240 		.word	1073881088
 1544 003c 00000000 		.word	ADCD1
 1545              		.cfi_endproc
 1546              	.LFE440:
 1547              		.size	Vector88, .-Vector88
 1548              		.section	.text.Vector23C,"ax",%progbits
 1549              		.align	1
 1550              		.global	Vector23C
 1551              		.syntax unified
 1552              		.thumb
 1553              		.thumb_func
 1554              		.type	Vector23C, %function
 1555              	Vector23C:
 1556              	.LFB441:
 1557              		.loc 6 371 38
 1558              		.cfi_startproc
 1559              		@ args = 0, pretend = 0, frame = 8
 1560              		@ frame_needed = 1, uses_anonymous_args = 0
 1561 0000 80B5     		push	{r7, lr}
 1562              		.cfi_def_cfa_offset 8
 1563              		.cfi_offset 7, -8
 1564              		.cfi_offset 14, -4
 1565 0002 82B0     		sub	sp, sp, #8
 1566              		.cfi_def_cfa_offset 16
 1567 0004 00AF     		add	r7, sp, #0
 1568              		.cfi_def_cfa_register 7
 1569              		.loc 6 374 3
 1570 0006 0B48     		ldr	r0, .L67
 1571 0008 FFF7FEFF 		bl	__trace_isr_enter
 1572              		.loc 6 376 14
 1573 000c 0A4B     		ldr	r3, .L67+4
 1574              		.loc 6 376 8
 1575 000e 1B68     		ldr	r3, [r3]
 1576 0010 7B60     		str	r3, [r7, #4]
 1577              		.loc 6 377 7
 1578 0012 094A     		ldr	r2, .L67+4
 1579              		.loc 6 377 13
 1580 0014 7B68     		ldr	r3, [r7, #4]
 1581 0016 1360     		str	r3, [r2]
 1582              		.loc 6 381 3
 1583 0018 7968     		ldr	r1, [r7, #4]
 1584 001a 0848     		ldr	r0, .L67+8
 1585 001c FFF7FEFF 		bl	adc_lld_serve_interrupt
 1586              		.loc 6 383 3
 1587 0020 0448     		ldr	r0, .L67
ARM GAS  C:\Users\DEVELO~1\AppData\Local\Temp\cc00sQ0X.s 			page 29


 1588 0022 FFF7FEFF 		bl	__trace_isr_leave
 1589 0026 FFF7FEFF 		bl	__port_irq_epilogue
 1590              		.loc 6 384 1
 1591 002a 00BF     		nop
 1592 002c 0837     		adds	r7, r7, #8
 1593              		.cfi_def_cfa_offset 8
 1594 002e BD46     		mov	sp, r7
 1595              		.cfi_def_cfa_register 13
 1596              		@ sp needed
 1597 0030 80BD     		pop	{r7, pc}
 1598              	.L68:
 1599 0032 00BF     		.align	2
 1600              	.L67:
 1601 0034 00000000 		.word	__func__.0
 1602 0038 00600258 		.word	1476550656
 1603 003c 00000000 		.word	ADCD3
 1604              		.cfi_endproc
 1605              	.LFE441:
 1606              		.size	Vector23C, .-Vector23C
 1607              		.section	.text.adc_lld_init,"ax",%progbits
 1608              		.align	1
 1609              		.global	adc_lld_init
 1610              		.syntax unified
 1611              		.thumb
 1612              		.thumb_func
 1613              		.type	adc_lld_init, %function
 1614              	adc_lld_init:
 1615              	.LFB442:
 1616              		.loc 6 396 25
 1617              		.cfi_startproc
 1618              		@ args = 0, pretend = 0, frame = 0
 1619              		@ frame_needed = 1, uses_anonymous_args = 0
 1620 0000 80B5     		push	{r7, lr}
 1621              		.cfi_def_cfa_offset 8
 1622              		.cfi_offset 7, -8
 1623              		.cfi_offset 14, -4
 1624 0002 00AF     		add	r7, sp, #0
 1625              		.cfi_def_cfa_register 7
 1626              		.loc 6 400 3
 1627 0004 2248     		ldr	r0, .L70
 1628 0006 FFF7FEFF 		bl	adcObjectInit
 1629              		.loc 6 401 21
 1630 000a 214B     		ldr	r3, .L70
 1631 000c 214A     		ldr	r2, .L70+4
 1632 000e DA62     		str	r2, [r3, #44]
 1633              		.loc 6 402 21
 1634 0010 1F4B     		ldr	r3, .L70
 1635 0012 214A     		ldr	r2, .L70+8
 1636 0014 9A62     		str	r2, [r3, #40]
 1637              		.loc 6 406 21
 1638 0016 1E4B     		ldr	r3, .L70
 1639 0018 0022     		movs	r2, #0
 1640 001a 1A63     		str	r2, [r3, #48]
 1641              		.loc 6 407 21
 1642 001c 1C4B     		ldr	r3, .L70
 1643 001e 1F4A     		ldr	r2, .L70+12
 1644 0020 5A63     		str	r2, [r3, #52]
ARM GAS  C:\Users\DEVELO~1\AppData\Local\Temp\cc00sQ0X.s 			page 30


 1645              		.loc 6 412 3
 1646 0022 0521     		movs	r1, #5
 1647 0024 1220     		movs	r0, #18
 1648 0026 FFF7FEFF 		bl	nvicEnableVector
 1649              		.loc 6 417 3
 1650 002a 1D48     		ldr	r0, .L70+16
 1651 002c FFF7FEFF 		bl	adcObjectInit
 1652              		.loc 6 418 21
 1653 0030 1B4B     		ldr	r3, .L70+16
 1654 0032 1C4A     		ldr	r2, .L70+20
 1655 0034 DA62     		str	r2, [r3, #44]
 1656              		.loc 6 419 21
 1657 0036 1A4B     		ldr	r3, .L70+16
 1658 0038 1B4A     		ldr	r2, .L70+24
 1659 003a 9A62     		str	r2, [r3, #40]
 1660              		.loc 6 429 21
 1661 003c 184B     		ldr	r3, .L70+16
 1662 003e 0022     		movs	r2, #0
 1663 0040 1A63     		str	r2, [r3, #48]
 1664              		.loc 6 430 21
 1665 0042 174B     		ldr	r3, .L70+16
 1666 0044 154A     		ldr	r2, .L70+12
 1667 0046 5A63     		str	r2, [r3, #52]
 1668              		.loc 6 435 3
 1669 0048 0521     		movs	r1, #5
 1670 004a 7F20     		movs	r0, #127
 1671 004c FFF7FEFF 		bl	nvicEnableVector
 1672              		.loc 6 442 3
 1673 0050 0121     		movs	r1, #1
 1674 0052 2020     		movs	r0, #32
 1675 0054 FFF7FEFF 		bl	rccEnableAHB1
 1676              		.loc 6 443 3
 1677 0058 2020     		movs	r0, #32
 1678 005a FFF7FEFF 		bl	rccResetAHB1
 1679              		.loc 6 444 15
 1680 005e 0D4B     		ldr	r3, .L70+4
 1681              		.loc 6 444 21
 1682 0060 0022     		movs	r2, #0
 1683 0062 9A60     		str	r2, [r3, #8]
 1684              		.loc 6 445 3
 1685 0064 2020     		movs	r0, #32
 1686 0066 FFF7FEFF 		bl	rccDisableAHB1
 1687              		.loc 6 448 3
 1688 006a 0121     		movs	r1, #1
 1689 006c 4FF08070 		mov	r0, #16777216
 1690 0070 FFF7FEFF 		bl	rccEnableAHB4
 1691              		.loc 6 449 3
 1692 0074 4FF08070 		mov	r0, #16777216
 1693 0078 FFF7FEFF 		bl	rccResetAHB4
 1694              		.loc 6 450 14
 1695 007c 094B     		ldr	r3, .L70+20
 1696              		.loc 6 450 20
 1697 007e 0022     		movs	r2, #0
 1698 0080 9A60     		str	r2, [r3, #8]
 1699              		.loc 6 451 3
 1700 0082 4FF08070 		mov	r0, #16777216
 1701 0086 FFF7FEFF 		bl	rccDisableAHB4
ARM GAS  C:\Users\DEVELO~1\AppData\Local\Temp\cc00sQ0X.s 			page 31


 1702              		.loc 6 454 1
 1703 008a 00BF     		nop
 1704 008c 80BD     		pop	{r7, pc}
 1705              	.L71:
 1706 008e 00BF     		.align	2
 1707              	.L70:
 1708 0090 00000000 		.word	ADCD1
 1709 0094 00230240 		.word	1073881856
 1710 0098 00200240 		.word	1073881088
 1711 009c 162C0200 		.word	142358
 1712 00a0 00000000 		.word	ADCD3
 1713 00a4 00630258 		.word	1476551424
 1714 00a8 00600258 		.word	1476550656
 1715              		.cfi_endproc
 1716              	.LFE442:
 1717              		.size	adc_lld_init, .-adc_lld_init
 1718              		.section	.text.adc_lld_start,"ax",%progbits
 1719              		.align	1
 1720              		.global	adc_lld_start
 1721              		.syntax unified
 1722              		.thumb
 1723              		.thumb_func
 1724              		.type	adc_lld_start, %function
 1725              	adc_lld_start:
 1726              	.LFB443:
 1727              		.loc 6 464 38
 1728              		.cfi_startproc
 1729              		@ args = 0, pretend = 0, frame = 8
 1730              		@ frame_needed = 1, uses_anonymous_args = 0
 1731 0000 80B5     		push	{r7, lr}
 1732              		.cfi_def_cfa_offset 8
 1733              		.cfi_offset 7, -8
 1734              		.cfi_offset 14, -4
 1735 0002 82B0     		sub	sp, sp, #8
 1736              		.cfi_def_cfa_offset 16
 1737 0004 00AF     		add	r7, sp, #0
 1738              		.cfi_def_cfa_register 7
 1739 0006 7860     		str	r0, [r7, #4]
 1740              		.loc 6 467 11
 1741 0008 7B68     		ldr	r3, [r7, #4]
 1742 000a 5B68     		ldr	r3, [r3, #4]
 1743              		.loc 6 467 6
 1744 000c 002B     		cmp	r3, #0
 1745 000e 02D1     		bne	.L73
 1746              		.loc 6 468 18
 1747 0010 7B68     		ldr	r3, [r7, #4]
 1748 0012 434A     		ldr	r2, .L82
 1749 0014 5A60     		str	r2, [r3, #4]
 1750              	.L73:
 1751              		.loc 6 472 11
 1752 0016 7B68     		ldr	r3, [r7, #4]
 1753 0018 1B78     		ldrb	r3, [r3]	@ zero_extendqisi2
 1754              		.loc 6 472 6
 1755 001a 012B     		cmp	r3, #1
 1756 001c 7BD1     		bne	.L74
 1757              		.loc 6 474 8
 1758 001e 7B68     		ldr	r3, [r7, #4]
ARM GAS  C:\Users\DEVELO~1\AppData\Local\Temp\cc00sQ0X.s 			page 32


 1759 0020 404A     		ldr	r2, .L82+4
 1760 0022 9342     		cmp	r3, r2
 1761 0024 28D1     		bne	.L75
 1762              		.loc 6 475 24
 1763 0026 7B68     		ldr	r3, [r7, #4]
 1764 0028 3F4A     		ldr	r2, .L82+8
 1765 002a 0521     		movs	r1, #5
 1766 002c 1020     		movs	r0, #16
 1767 002e FFF7FEFF 		bl	dmaStreamAllocI
 1768 0032 0246     		mov	r2, r0
 1769              		.loc 6 475 22
 1770 0034 7B68     		ldr	r3, [r7, #4]
 1771 0036 1A63     		str	r2, [r3, #48]
 1772              		.loc 6 479 21
 1773 0038 7B68     		ldr	r3, [r7, #4]
 1774 003a 1B6B     		ldr	r3, [r3, #48]
 1775              		.loc 6 479 10
 1776 003c 002B     		cmp	r3, #0
 1777 003e 02D1     		bne	.L76
 1778              		.loc 6 480 16
 1779 0040 6FF01003 		mvn	r3, #16
 1780 0044 68E0     		b	.L77
 1781              	.L76:
 1782              		.loc 6 483 7
 1783 0046 0121     		movs	r1, #1
 1784 0048 2020     		movs	r0, #32
 1785 004a FFF7FEFF 		bl	rccEnableAHB1
 1786              		.loc 6 485 7
 1787 004e 7B68     		ldr	r3, [r7, #4]
 1788 0050 1B6B     		ldr	r3, [r3, #48]
 1789 0052 0921     		movs	r1, #9
 1790 0054 1846     		mov	r0, r3
 1791 0056 FFF7FEFF 		bl	dmaSetRequestSource
 1792              		.loc 6 491 7
 1793 005a 7B68     		ldr	r3, [r7, #4]
 1794 005c 9B6A     		ldr	r3, [r3, #40]
 1795 005e 03F14002 		add	r2, r3, #64
 1796 0062 7B68     		ldr	r3, [r7, #4]
 1797 0064 1B6B     		ldr	r3, [r3, #48]
 1798 0066 1B68     		ldr	r3, [r3]
 1799 0068 9A60     		str	r2, [r3, #8]
 1800              		.loc 6 499 32
 1801 006a 7B68     		ldr	r3, [r7, #4]
 1802 006c 5A68     		ldr	r2, [r3, #4]
 1803              		.loc 6 499 11
 1804 006e 7B68     		ldr	r3, [r7, #4]
 1805 0070 9B6A     		ldr	r3, [r3, #40]
 1806              		.loc 6 499 40
 1807 0072 1268     		ldr	r2, [r2]
 1808              		.loc 6 499 26
 1809 0074 C3F8C020 		str	r2, [r3, #192]
 1810              	.L75:
 1811              		.loc 6 505 8
 1812 0078 7B68     		ldr	r3, [r7, #4]
 1813 007a 2C4A     		ldr	r2, .L82+12
 1814 007c 9342     		cmp	r3, r2
 1815 007e 2DD1     		bne	.L78
ARM GAS  C:\Users\DEVELO~1\AppData\Local\Temp\cc00sQ0X.s 			page 33


 1816              		.loc 6 525 24
 1817 0080 7B68     		ldr	r3, [r7, #4]
 1818 0082 294A     		ldr	r2, .L82+8
 1819 0084 0521     		movs	r1, #5
 1820 0086 1020     		movs	r0, #16
 1821 0088 FFF7FEFF 		bl	dmaStreamAllocI
 1822 008c 0246     		mov	r2, r0
 1823              		.loc 6 525 22
 1824 008e 7B68     		ldr	r3, [r7, #4]
 1825 0090 1A63     		str	r2, [r3, #48]
 1826              		.loc 6 529 21
 1827 0092 7B68     		ldr	r3, [r7, #4]
 1828 0094 1B6B     		ldr	r3, [r3, #48]
 1829              		.loc 6 529 10
 1830 0096 002B     		cmp	r3, #0
 1831 0098 02D1     		bne	.L79
 1832              		.loc 6 530 16
 1833 009a 6FF01003 		mvn	r3, #16
 1834 009e 3BE0     		b	.L77
 1835              	.L79:
 1836              		.loc 6 533 7
 1837 00a0 0121     		movs	r1, #1
 1838 00a2 4FF08070 		mov	r0, #16777216
 1839 00a6 FFF7FEFF 		bl	rccEnableAHB4
 1840              		.loc 6 534 7
 1841 00aa 4FF08070 		mov	r0, #16777216
 1842 00ae FFF7FEFF 		bl	rccResetAHB4
 1843              		.loc 6 536 7
 1844 00b2 7B68     		ldr	r3, [r7, #4]
 1845 00b4 1B6B     		ldr	r3, [r3, #48]
 1846 00b6 7321     		movs	r1, #115
 1847 00b8 1846     		mov	r0, r3
 1848 00ba FFF7FEFF 		bl	dmaSetRequestSource
 1849              		.loc 6 540 7
 1850 00be 7B68     		ldr	r3, [r7, #4]
 1851 00c0 9B6A     		ldr	r3, [r3, #40]
 1852 00c2 03F14002 		add	r2, r3, #64
 1853 00c6 7B68     		ldr	r3, [r7, #4]
 1854 00c8 1B6B     		ldr	r3, [r3, #48]
 1855 00ca 1B68     		ldr	r3, [r3]
 1856 00cc 9A60     		str	r2, [r3, #8]
 1857              		.loc 6 544 32
 1858 00ce 7B68     		ldr	r3, [r7, #4]
 1859 00d0 5A68     		ldr	r2, [r3, #4]
 1860              		.loc 6 544 11
 1861 00d2 7B68     		ldr	r3, [r7, #4]
 1862 00d4 9B6A     		ldr	r3, [r3, #40]
 1863              		.loc 6 544 40
 1864 00d6 1268     		ldr	r2, [r2]
 1865              		.loc 6 544 26
 1866 00d8 C3F8C020 		str	r2, [r3, #192]
 1867              	.L78:
 1868              		.loc 6 550 5
 1869 00dc 7868     		ldr	r0, [r7, #4]
 1870 00de FFF7FEFF 		bl	adc_lld_vreg_on
 1871              		.loc 6 551 5
 1872 00e2 7868     		ldr	r0, [r7, #4]
ARM GAS  C:\Users\DEVELO~1\AppData\Local\Temp\cc00sQ0X.s 			page 34


 1873 00e4 FFF7FEFF 		bl	adc_lld_calibrate
 1874              		.loc 6 559 8
 1875 00e8 7B68     		ldr	r3, [r7, #4]
 1876 00ea 0E4A     		ldr	r2, .L82+4
 1877 00ec 9342     		cmp	r3, r2
 1878 00ee 05D1     		bne	.L80
 1879              		.loc 6 560 11
 1880 00f0 7B68     		ldr	r3, [r7, #4]
 1881 00f2 9A6A     		ldr	r2, [r3, #40]
 1882 00f4 7B68     		ldr	r3, [r7, #4]
 1883 00f6 9B6A     		ldr	r3, [r3, #40]
 1884              		.loc 6 560 22
 1885 00f8 9268     		ldr	r2, [r2, #8]
 1886 00fa 9A60     		str	r2, [r3, #8]
 1887              	.L80:
 1888              		.loc 6 568 8
 1889 00fc 7B68     		ldr	r3, [r7, #4]
 1890 00fe 0B4A     		ldr	r2, .L82+12
 1891 0100 9342     		cmp	r3, r2
 1892 0102 05D1     		bne	.L81
 1893              		.loc 6 569 11
 1894 0104 7B68     		ldr	r3, [r7, #4]
 1895 0106 9A6A     		ldr	r2, [r3, #40]
 1896 0108 7B68     		ldr	r3, [r7, #4]
 1897 010a 9B6A     		ldr	r3, [r3, #40]
 1898              		.loc 6 569 22
 1899 010c 9268     		ldr	r2, [r2, #8]
 1900 010e 9A60     		str	r2, [r3, #8]
 1901              	.L81:
 1902              		.loc 6 574 5
 1903 0110 7868     		ldr	r0, [r7, #4]
 1904 0112 FFF7FEFF 		bl	adc_lld_analog_on
 1905              	.L74:
 1906              		.loc 6 577 10
 1907 0116 0023     		movs	r3, #0
 1908              	.L77:
 1909              		.loc 6 578 1
 1910 0118 1846     		mov	r0, r3
 1911 011a 0837     		adds	r7, r7, #8
 1912              		.cfi_def_cfa_offset 8
 1913 011c BD46     		mov	sp, r7
 1914              		.cfi_def_cfa_register 13
 1915              		@ sp needed
 1916 011e 80BD     		pop	{r7, pc}
 1917              	.L83:
 1918              		.align	2
 1919              	.L82:
 1920 0120 00000000 		.word	default_config
 1921 0124 00000000 		.word	ADCD1
 1922 0128 00000000 		.word	adc_lld_serve_dma_interrupt
 1923 012c 00000000 		.word	ADCD3
 1924              		.cfi_endproc
 1925              	.LFE443:
 1926              		.size	adc_lld_start, .-adc_lld_start
 1927              		.section	.text.adc_lld_stop,"ax",%progbits
 1928              		.align	1
 1929              		.global	adc_lld_stop
ARM GAS  C:\Users\DEVELO~1\AppData\Local\Temp\cc00sQ0X.s 			page 35


 1930              		.syntax unified
 1931              		.thumb
 1932              		.thumb_func
 1933              		.type	adc_lld_stop, %function
 1934              	adc_lld_stop:
 1935              	.LFB444:
 1936              		.loc 6 587 36
 1937              		.cfi_startproc
 1938              		@ args = 0, pretend = 0, frame = 8
 1939              		@ frame_needed = 1, uses_anonymous_args = 0
 1940 0000 80B5     		push	{r7, lr}
 1941              		.cfi_def_cfa_offset 8
 1942              		.cfi_offset 7, -8
 1943              		.cfi_offset 14, -4
 1944 0002 82B0     		sub	sp, sp, #8
 1945              		.cfi_def_cfa_offset 16
 1946 0004 00AF     		add	r7, sp, #0
 1947              		.cfi_def_cfa_register 7
 1948 0006 7860     		str	r0, [r7, #4]
 1949              		.loc 6 590 11
 1950 0008 7B68     		ldr	r3, [r7, #4]
 1951 000a 1B78     		ldrb	r3, [r3]	@ zero_extendqisi2
 1952              		.loc 6 590 6
 1953 000c 022B     		cmp	r3, #2
 1954 000e 2FD1     		bne	.L87
 1955              		.loc 6 593 5
 1956 0010 7868     		ldr	r0, [r7, #4]
 1957 0012 FFF7FEFF 		bl	adc_lld_stop_adc
 1958              		.loc 6 596 5
 1959 0016 7868     		ldr	r0, [r7, #4]
 1960 0018 FFF7FEFF 		bl	adc_lld_analog_off
 1961              		.loc 6 597 5
 1962 001c 7868     		ldr	r0, [r7, #4]
 1963 001e FFF7FEFF 		bl	adc_lld_vreg_off
 1964              		.loc 6 600 8
 1965 0022 7B68     		ldr	r3, [r7, #4]
 1966 0024 144A     		ldr	r2, .L88
 1967 0026 9342     		cmp	r3, r2
 1968 0028 0ED1     		bne	.L86
 1969              		.loc 6 603 7
 1970 002a 7B68     		ldr	r3, [r7, #4]
 1971 002c 1B6B     		ldr	r3, [r3, #48]
 1972 002e 1846     		mov	r0, r3
 1973 0030 FFF7FEFF 		bl	dmaStreamFreeI
 1974              		.loc 6 604 22
 1975 0034 7B68     		ldr	r3, [r7, #4]
 1976 0036 0022     		movs	r2, #0
 1977 0038 1A63     		str	r2, [r3, #48]
 1978              		.loc 6 607 11
 1979 003a 7B68     		ldr	r3, [r7, #4]
 1980 003c DB6A     		ldr	r3, [r3, #44]
 1981              		.loc 6 607 23
 1982 003e 0022     		movs	r2, #0
 1983 0040 9A60     		str	r2, [r3, #8]
 1984              		.loc 6 608 7
 1985 0042 2020     		movs	r0, #32
 1986 0044 FFF7FEFF 		bl	rccDisableAHB1
ARM GAS  C:\Users\DEVELO~1\AppData\Local\Temp\cc00sQ0X.s 			page 36


 1987              	.L86:
 1988              		.loc 6 613 8
 1989 0048 7B68     		ldr	r3, [r7, #4]
 1990 004a 0C4A     		ldr	r2, .L88+4
 1991 004c 9342     		cmp	r3, r2
 1992 004e 0FD1     		bne	.L87
 1993              		.loc 6 627 5
 1994 0050 7B68     		ldr	r3, [r7, #4]
 1995 0052 1B6B     		ldr	r3, [r3, #48]
 1996 0054 1846     		mov	r0, r3
 1997 0056 FFF7FEFF 		bl	dmaStreamFreeI
 1998              		.loc 6 628 20
 1999 005a 7B68     		ldr	r3, [r7, #4]
 2000 005c 0022     		movs	r2, #0
 2001 005e 1A63     		str	r2, [r3, #48]
 2002              		.loc 6 631 9
 2003 0060 7B68     		ldr	r3, [r7, #4]
 2004 0062 DB6A     		ldr	r3, [r3, #44]
 2005              		.loc 6 631 21
 2006 0064 0022     		movs	r2, #0
 2007 0066 9A60     		str	r2, [r3, #8]
 2008              		.loc 6 632 5
 2009 0068 4FF08070 		mov	r0, #16777216
 2010 006c FFF7FEFF 		bl	rccDisableAHB4
 2011              	.L87:
 2012              		.loc 6 637 1
 2013 0070 00BF     		nop
 2014 0072 0837     		adds	r7, r7, #8
 2015              		.cfi_def_cfa_offset 8
 2016 0074 BD46     		mov	sp, r7
 2017              		.cfi_def_cfa_register 13
 2018              		@ sp needed
 2019 0076 80BD     		pop	{r7, pc}
 2020              	.L89:
 2021              		.align	2
 2022              	.L88:
 2023 0078 00000000 		.word	ADCD1
 2024 007c 00000000 		.word	ADCD3
 2025              		.cfi_endproc
 2026              	.LFE444:
 2027              		.size	adc_lld_stop, .-adc_lld_stop
 2028              		.section	.text.adc_lld_start_conversion,"ax",%progbits
 2029              		.align	1
 2030              		.global	adc_lld_start_conversion
 2031              		.syntax unified
 2032              		.thumb
 2033              		.thumb_func
 2034              		.type	adc_lld_start_conversion, %function
 2035              	adc_lld_start_conversion:
 2036              	.LFB445:
 2037              		.loc 6 646 48
 2038              		.cfi_startproc
 2039              		@ args = 0, pretend = 0, frame = 24
 2040              		@ frame_needed = 1, uses_anonymous_args = 0
 2041              		@ link register save eliminated.
 2042 0000 80B4     		push	{r7}
 2043              		.cfi_def_cfa_offset 4
ARM GAS  C:\Users\DEVELO~1\AppData\Local\Temp\cc00sQ0X.s 			page 37


 2044              		.cfi_offset 7, -4
 2045 0002 87B0     		sub	sp, sp, #28
 2046              		.cfi_def_cfa_offset 32
 2047 0004 00AF     		add	r7, sp, #0
 2048              		.cfi_def_cfa_register 7
 2049 0006 7860     		str	r0, [r7, #4]
 2050              		.loc 6 647 21
 2051 0008 0023     		movs	r3, #0
 2052 000a 3B61     		str	r3, [r7, #16]
 2053              		.loc 6 648 29
 2054 000c 7B68     		ldr	r3, [r7, #4]
 2055 000e 1B69     		ldr	r3, [r3, #16]
 2056 0010 FB60     		str	r3, [r7, #12]
 2057              		.loc 6 654 6
 2058 0012 7B68     		ldr	r3, [r7, #4]
 2059 0014 7D4A     		ldr	r2, .L98
 2060 0016 9342     		cmp	r3, r2
 2061 0018 3CD1     		bne	.L91
 2062              		.loc 6 662 13
 2063 001a 7B68     		ldr	r3, [r7, #4]
 2064 001c 5B6B     		ldr	r3, [r3, #52]
 2065 001e 7B61     		str	r3, [r7, #20]
 2066              		.loc 6 663 13
 2067 0020 FB68     		ldr	r3, [r7, #12]
 2068 0022 1B78     		ldrb	r3, [r3]	@ zero_extendqisi2
 2069              		.loc 6 663 8
 2070 0024 002B     		cmp	r3, #0
 2071 0026 11D0     		beq	.L92
 2072              		.loc 6 664 15
 2073 0028 7B69     		ldr	r3, [r7, #20]
 2074 002a 43F48073 		orr	r3, r3, #256
 2075 002e 7B61     		str	r3, [r7, #20]
 2076              		.loc 6 665 18
 2077 0030 FB68     		ldr	r3, [r7, #12]
 2078 0032 1B69     		ldr	r3, [r3, #16]
 2079              		.loc 6 665 12
 2080 0034 43F00303 		orr	r3, r3, #3
 2081 0038 3B61     		str	r3, [r7, #16]
 2082              		.loc 6 666 15
 2083 003a 7B68     		ldr	r3, [r7, #4]
 2084 003c DB68     		ldr	r3, [r3, #12]
 2085              		.loc 6 666 10
 2086 003e 012B     		cmp	r3, #1
 2087 0040 09D9     		bls	.L93
 2088              		.loc 6 669 17
 2089 0042 7B69     		ldr	r3, [r7, #20]
 2090 0044 43F00803 		orr	r3, r3, #8
 2091 0048 7B61     		str	r3, [r7, #20]
 2092 004a 04E0     		b	.L93
 2093              	.L92:
 2094              		.loc 6 673 18
 2095 004c FB68     		ldr	r3, [r7, #12]
 2096 004e 1B69     		ldr	r3, [r3, #16]
 2097              		.loc 6 673 12
 2098 0050 43F00103 		orr	r3, r3, #1
 2099 0054 3B61     		str	r3, [r7, #16]
 2100              	.L93:
ARM GAS  C:\Users\DEVELO~1\AppData\Local\Temp\cc00sQ0X.s 			page 38


 2101              		.loc 6 677 5
 2102 0056 7B68     		ldr	r3, [r7, #4]
 2103 0058 9A68     		ldr	r2, [r3, #8]
 2104 005a 7B68     		ldr	r3, [r7, #4]
 2105 005c 1B6B     		ldr	r3, [r3, #48]
 2106 005e 1B68     		ldr	r3, [r3]
 2107 0060 DA60     		str	r2, [r3, #12]
 2108              		.loc 6 682 5
 2109 0062 FB68     		ldr	r3, [r7, #12]
 2110 0064 5A68     		ldr	r2, [r3, #4]
 2111 0066 7B68     		ldr	r3, [r7, #4]
 2112 0068 D968     		ldr	r1, [r3, #12]
 2113 006a 7B68     		ldr	r3, [r7, #4]
 2114 006c 1B6B     		ldr	r3, [r3, #48]
 2115 006e 1B68     		ldr	r3, [r3]
 2116 0070 01FB02F2 		mul	r2, r1, r2
 2117 0074 5A60     		str	r2, [r3, #4]
 2118              		.loc 6 685 5
 2119 0076 7B68     		ldr	r3, [r7, #4]
 2120 0078 1B6B     		ldr	r3, [r3, #48]
 2121 007a 1B68     		ldr	r3, [r3]
 2122 007c 7A69     		ldr	r2, [r7, #20]
 2123 007e 1A60     		str	r2, [r3]
 2124              		.loc 6 686 5
 2125 0080 7B68     		ldr	r3, [r7, #4]
 2126 0082 1B6B     		ldr	r3, [r3, #48]
 2127 0084 1B68     		ldr	r3, [r3]
 2128 0086 1A68     		ldr	r2, [r3]
 2129 0088 7B68     		ldr	r3, [r7, #4]
 2130 008a 1B6B     		ldr	r3, [r3, #48]
 2131 008c 1B68     		ldr	r3, [r3]
 2132 008e 42F00102 		orr	r2, r2, #1
 2133 0092 1A60     		str	r2, [r3]
 2134              	.L91:
 2135              		.loc 6 691 6
 2136 0094 7B68     		ldr	r3, [r7, #4]
 2137 0096 5E4A     		ldr	r2, .L98+4
 2138 0098 9342     		cmp	r3, r2
 2139 009a 3CD1     		bne	.L94
 2140              		.loc 6 692 13
 2141 009c 7B68     		ldr	r3, [r7, #4]
 2142 009e 5B6B     		ldr	r3, [r3, #52]
 2143 00a0 7B61     		str	r3, [r7, #20]
 2144              		.loc 6 716 13
 2145 00a2 FB68     		ldr	r3, [r7, #12]
 2146 00a4 1B78     		ldrb	r3, [r3]	@ zero_extendqisi2
 2147              		.loc 6 716 8
 2148 00a6 002B     		cmp	r3, #0
 2149 00a8 11D0     		beq	.L95
 2150              		.loc 6 717 15
 2151 00aa 7B69     		ldr	r3, [r7, #20]
 2152 00ac 43F48073 		orr	r3, r3, #256
 2153 00b0 7B61     		str	r3, [r7, #20]
 2154              		.loc 6 718 18
 2155 00b2 FB68     		ldr	r3, [r7, #12]
 2156 00b4 1B69     		ldr	r3, [r3, #16]
 2157              		.loc 6 718 12
ARM GAS  C:\Users\DEVELO~1\AppData\Local\Temp\cc00sQ0X.s 			page 39


 2158 00b6 43F00303 		orr	r3, r3, #3
 2159 00ba 3B61     		str	r3, [r7, #16]
 2160              		.loc 6 719 15
 2161 00bc 7B68     		ldr	r3, [r7, #4]
 2162 00be DB68     		ldr	r3, [r3, #12]
 2163              		.loc 6 719 10
 2164 00c0 012B     		cmp	r3, #1
 2165 00c2 09D9     		bls	.L96
 2166              		.loc 6 722 17
 2167 00c4 7B69     		ldr	r3, [r7, #20]
 2168 00c6 43F00803 		orr	r3, r3, #8
 2169 00ca 7B61     		str	r3, [r7, #20]
 2170 00cc 04E0     		b	.L96
 2171              	.L95:
 2172              		.loc 6 726 18
 2173 00ce FB68     		ldr	r3, [r7, #12]
 2174 00d0 1B69     		ldr	r3, [r3, #16]
 2175              		.loc 6 726 12
 2176 00d2 43F00103 		orr	r3, r3, #1
 2177 00d6 3B61     		str	r3, [r7, #16]
 2178              	.L96:
 2179              		.loc 6 729 5
 2180 00d8 7B68     		ldr	r3, [r7, #4]
 2181 00da 9A68     		ldr	r2, [r3, #8]
 2182 00dc 7B68     		ldr	r3, [r7, #4]
 2183 00de 1B6B     		ldr	r3, [r3, #48]
 2184 00e0 1B68     		ldr	r3, [r3]
 2185 00e2 DA60     		str	r2, [r3, #12]
 2186              		.loc 6 730 5
 2187 00e4 FB68     		ldr	r3, [r7, #12]
 2188 00e6 5A68     		ldr	r2, [r3, #4]
 2189 00e8 7B68     		ldr	r3, [r7, #4]
 2190 00ea D968     		ldr	r1, [r3, #12]
 2191 00ec 7B68     		ldr	r3, [r7, #4]
 2192 00ee 1B6B     		ldr	r3, [r3, #48]
 2193 00f0 1B68     		ldr	r3, [r3]
 2194 00f2 01FB02F2 		mul	r2, r1, r2
 2195 00f6 5A60     		str	r2, [r3, #4]
 2196              		.loc 6 732 5
 2197 00f8 7B68     		ldr	r3, [r7, #4]
 2198 00fa 1B6B     		ldr	r3, [r3, #48]
 2199 00fc 1B68     		ldr	r3, [r3]
 2200 00fe 7A69     		ldr	r2, [r7, #20]
 2201 0100 1A60     		str	r2, [r3]
 2202              		.loc 6 733 5
 2203 0102 7B68     		ldr	r3, [r7, #4]
 2204 0104 1B6B     		ldr	r3, [r3, #48]
 2205 0106 1B68     		ldr	r3, [r3]
 2206 0108 1A68     		ldr	r2, [r3]
 2207 010a 7B68     		ldr	r3, [r7, #4]
 2208 010c 1B6B     		ldr	r3, [r3, #48]
 2209 010e 1B68     		ldr	r3, [r3]
 2210 0110 42F00102 		orr	r2, r2, #1
 2211 0114 1A60     		str	r2, [r3]
 2212              	.L94:
 2213              		.loc 6 741 27
 2214 0116 7B68     		ldr	r3, [r7, #4]
ARM GAS  C:\Users\DEVELO~1\AppData\Local\Temp\cc00sQ0X.s 			page 40


 2215 0118 9A6A     		ldr	r2, [r3, #40]
 2216              		.loc 6 741 7
 2217 011a 7B68     		ldr	r3, [r7, #4]
 2218 011c 9B6A     		ldr	r3, [r3, #40]
 2219              		.loc 6 741 33
 2220 011e 1268     		ldr	r2, [r2]
 2221              		.loc 6 741 21
 2222 0120 1A60     		str	r2, [r3]
 2223              		.loc 6 743 11
 2224 0122 FB68     		ldr	r3, [r7, #12]
 2225 0124 DB68     		ldr	r3, [r3, #12]
 2226              		.loc 6 743 6
 2227 0126 002B     		cmp	r3, #0
 2228 0128 04D0     		beq	.L97
 2229              		.loc 6 744 9
 2230 012a 7B68     		ldr	r3, [r7, #4]
 2231 012c 9B6A     		ldr	r3, [r3, #40]
 2232              		.loc 6 744 23
 2233 012e 4FF46472 		mov	r2, #912
 2234 0132 5A60     		str	r2, [r3, #4]
 2235              	.L97:
 2236              		.loc 6 807 9
 2237 0134 7B68     		ldr	r3, [r7, #4]
 2238 0136 9B6A     		ldr	r3, [r3, #40]
 2239              		.loc 6 807 31
 2240 0138 FA68     		ldr	r2, [r7, #12]
 2241 013a 5269     		ldr	r2, [r2, #20]
 2242              		.loc 6 807 25
 2243 013c 1A61     		str	r2, [r3, #16]
 2244              		.loc 6 808 9
 2245 013e 7B68     		ldr	r3, [r7, #4]
 2246 0140 9B6A     		ldr	r3, [r3, #40]
 2247              		.loc 6 808 31
 2248 0142 FA68     		ldr	r2, [r7, #12]
 2249 0144 D269     		ldr	r2, [r2, #28]
 2250              		.loc 6 808 25
 2251 0146 DA61     		str	r2, [r3, #28]
 2252              		.loc 6 809 9
 2253 0148 7B68     		ldr	r3, [r7, #4]
 2254 014a 9B6A     		ldr	r3, [r3, #40]
 2255              		.loc 6 809 31
 2256 014c FA68     		ldr	r2, [r7, #12]
 2257 014e 126A     		ldr	r2, [r2, #32]
 2258              		.loc 6 809 25
 2259 0150 1A62     		str	r2, [r3, #32]
 2260              		.loc 6 810 9
 2261 0152 7B68     		ldr	r3, [r7, #4]
 2262 0154 9B6A     		ldr	r3, [r3, #40]
 2263              		.loc 6 810 31
 2264 0156 FA68     		ldr	r2, [r7, #12]
 2265 0158 526A     		ldr	r2, [r2, #36]
 2266              		.loc 6 810 25
 2267 015a 5A62     		str	r2, [r3, #36]
 2268              		.loc 6 811 9
 2269 015c 7B68     		ldr	r3, [r7, #4]
 2270 015e 9B6A     		ldr	r3, [r3, #40]
 2271              		.loc 6 811 31
ARM GAS  C:\Users\DEVELO~1\AppData\Local\Temp\cc00sQ0X.s 			page 41


 2272 0160 FA68     		ldr	r2, [r7, #12]
 2273 0162 926A     		ldr	r2, [r2, #40]
 2274              		.loc 6 811 25
 2275 0164 C3F8B020 		str	r2, [r3, #176]
 2276              		.loc 6 812 9
 2277 0168 7B68     		ldr	r3, [r7, #4]
 2278 016a 9B6A     		ldr	r3, [r3, #40]
 2279              		.loc 6 812 31
 2280 016c FA68     		ldr	r2, [r7, #12]
 2281 016e D26A     		ldr	r2, [r2, #44]
 2282              		.loc 6 812 25
 2283 0170 C3F8B420 		str	r2, [r3, #180]
 2284              		.loc 6 813 9
 2285 0174 7B68     		ldr	r3, [r7, #4]
 2286 0176 9B6A     		ldr	r3, [r3, #40]
 2287              		.loc 6 813 31
 2288 0178 FA68     		ldr	r2, [r7, #12]
 2289 017a 126B     		ldr	r2, [r2, #48]
 2290              		.loc 6 813 25
 2291 017c C3F8B820 		str	r2, [r3, #184]
 2292              		.loc 6 814 9
 2293 0180 7B68     		ldr	r3, [r7, #4]
 2294 0182 9B6A     		ldr	r3, [r3, #40]
 2295              		.loc 6 814 31
 2296 0184 FA68     		ldr	r2, [r7, #12]
 2297 0186 526B     		ldr	r2, [r2, #52]
 2298              		.loc 6 814 25
 2299 0188 C3F8BC20 		str	r2, [r3, #188]
 2300              		.loc 6 815 9
 2301 018c 7B68     		ldr	r3, [r7, #4]
 2302 018e 9B6A     		ldr	r3, [r3, #40]
 2303              		.loc 6 815 31
 2304 0190 FA68     		ldr	r2, [r7, #12]
 2305 0192 926B     		ldr	r2, [r2, #56]
 2306              		.loc 6 815 25
 2307 0194 C3F8A020 		str	r2, [r3, #160]
 2308              		.loc 6 816 9
 2309 0198 7B68     		ldr	r3, [r7, #4]
 2310 019a 9B6A     		ldr	r3, [r3, #40]
 2311              		.loc 6 816 31
 2312 019c FA68     		ldr	r2, [r7, #12]
 2313 019e D26B     		ldr	r2, [r2, #60]
 2314              		.loc 6 816 25
 2315 01a0 C3F8A420 		str	r2, [r3, #164]
 2316              		.loc 6 817 9
 2317 01a4 7B68     		ldr	r3, [r7, #4]
 2318 01a6 9B6A     		ldr	r3, [r3, #40]
 2319              		.loc 6 817 37
 2320 01a8 FA68     		ldr	r2, [r7, #12]
 2321 01aa 126C     		ldr	r2, [r2, #64]
 2322              		.loc 6 817 25
 2323 01ac 5A61     		str	r2, [r3, #20]
 2324              		.loc 6 818 9
 2325 01ae 7B68     		ldr	r3, [r7, #4]
 2326 01b0 9B6A     		ldr	r3, [r3, #40]
 2327              		.loc 6 818 37
 2328 01b2 FA68     		ldr	r2, [r7, #12]
ARM GAS  C:\Users\DEVELO~1\AppData\Local\Temp\cc00sQ0X.s 			page 42


 2329 01b4 526C     		ldr	r2, [r2, #68]
 2330              		.loc 6 818 25
 2331 01b6 9A61     		str	r2, [r3, #24]
 2332              		.loc 6 819 36
 2333 01b8 FB68     		ldr	r3, [r7, #12]
 2334 01ba 996C     		ldr	r1, [r3, #72]
 2335              		.loc 6 819 42
 2336 01bc FB68     		ldr	r3, [r7, #12]
 2337 01be 5B68     		ldr	r3, [r3, #4]
 2338 01c0 5A1E     		subs	r2, r3, #1
 2339              		.loc 6 819 9
 2340 01c2 7B68     		ldr	r3, [r7, #4]
 2341 01c4 9B6A     		ldr	r3, [r3, #40]
 2342              		.loc 6 819 40
 2343 01c6 0A43     		orrs	r2, r2, r1
 2344              		.loc 6 819 25
 2345 01c8 1A63     		str	r2, [r3, #48]
 2346              		.loc 6 820 9
 2347 01ca 7B68     		ldr	r3, [r7, #4]
 2348 01cc 9B6A     		ldr	r3, [r3, #40]
 2349              		.loc 6 820 36
 2350 01ce FA68     		ldr	r2, [r7, #12]
 2351 01d0 D26C     		ldr	r2, [r2, #76]
 2352              		.loc 6 820 25
 2353 01d2 5A63     		str	r2, [r3, #52]
 2354              		.loc 6 821 9
 2355 01d4 7B68     		ldr	r3, [r7, #4]
 2356 01d6 9B6A     		ldr	r3, [r3, #40]
 2357              		.loc 6 821 36
 2358 01d8 FA68     		ldr	r2, [r7, #12]
 2359 01da 126D     		ldr	r2, [r2, #80]
 2360              		.loc 6 821 25
 2361 01dc 9A63     		str	r2, [r3, #56]
 2362              		.loc 6 822 9
 2363 01de 7B68     		ldr	r3, [r7, #4]
 2364 01e0 9B6A     		ldr	r3, [r3, #40]
 2365              		.loc 6 822 36
 2366 01e2 FA68     		ldr	r2, [r7, #12]
 2367 01e4 526D     		ldr	r2, [r2, #84]
 2368              		.loc 6 822 25
 2369 01e6 DA63     		str	r2, [r3, #60]
 2370              		.loc 6 825 9
 2371 01e8 7B68     		ldr	r3, [r7, #4]
 2372 01ea 9B6A     		ldr	r3, [r3, #40]
 2373              		.loc 6 825 23
 2374 01ec 3A69     		ldr	r2, [r7, #16]
 2375 01ee DA60     		str	r2, [r3, #12]
 2376              		.loc 6 829 7
 2377 01f0 7B68     		ldr	r3, [r7, #4]
 2378 01f2 9B6A     		ldr	r3, [r3, #40]
 2379              		.loc 6 829 20
 2380 01f4 9A68     		ldr	r2, [r3, #8]
 2381              		.loc 6 829 7
 2382 01f6 7B68     		ldr	r3, [r7, #4]
 2383 01f8 9B6A     		ldr	r3, [r3, #40]
 2384              		.loc 6 829 20
 2385 01fa 42F00402 		orr	r2, r2, #4
ARM GAS  C:\Users\DEVELO~1\AppData\Local\Temp\cc00sQ0X.s 			page 43


 2386 01fe 9A60     		str	r2, [r3, #8]
 2387              		.loc 6 830 1
 2388 0200 00BF     		nop
 2389 0202 1C37     		adds	r7, r7, #28
 2390              		.cfi_def_cfa_offset 4
 2391 0204 BD46     		mov	sp, r7
 2392              		.cfi_def_cfa_register 13
 2393              		@ sp needed
 2394 0206 80BC     		pop	{r7}
 2395              		.cfi_restore 7
 2396              		.cfi_def_cfa_offset 0
 2397 0208 7047     		bx	lr
 2398              	.L99:
 2399 020a 00BF     		.align	2
 2400              	.L98:
 2401 020c 00000000 		.word	ADCD1
 2402 0210 00000000 		.word	ADCD3
 2403              		.cfi_endproc
 2404              	.LFE445:
 2405              		.size	adc_lld_start_conversion, .-adc_lld_start_conversion
 2406              		.section	.text.adc_lld_stop_conversion,"ax",%progbits
 2407              		.align	1
 2408              		.global	adc_lld_stop_conversion
 2409              		.syntax unified
 2410              		.thumb
 2411              		.thumb_func
 2412              		.type	adc_lld_stop_conversion, %function
 2413              	adc_lld_stop_conversion:
 2414              	.LFB446:
 2415              		.loc 6 839 47
 2416              		.cfi_startproc
 2417              		@ args = 0, pretend = 0, frame = 8
 2418              		@ frame_needed = 1, uses_anonymous_args = 0
 2419 0000 80B5     		push	{r7, lr}
 2420              		.cfi_def_cfa_offset 8
 2421              		.cfi_offset 7, -8
 2422              		.cfi_offset 14, -4
 2423 0002 82B0     		sub	sp, sp, #8
 2424              		.cfi_def_cfa_offset 16
 2425 0004 00AF     		add	r7, sp, #0
 2426              		.cfi_def_cfa_register 7
 2427 0006 7860     		str	r0, [r7, #4]
 2428              		.loc 6 842 6
 2429 0008 7B68     		ldr	r3, [r7, #4]
 2430 000a 234A     		ldr	r2, .L105
 2431 000c 9342     		cmp	r3, r2
 2432 000e 1BD1     		bne	.L101
 2433              		.loc 6 843 5
 2434 0010 7B68     		ldr	r3, [r7, #4]
 2435 0012 1B6B     		ldr	r3, [r3, #48]
 2436 0014 1B68     		ldr	r3, [r3]
 2437 0016 1A68     		ldr	r2, [r3]
 2438 0018 7B68     		ldr	r3, [r7, #4]
 2439 001a 1B6B     		ldr	r3, [r3, #48]
 2440 001c 1B68     		ldr	r3, [r3]
 2441 001e 22F01F02 		bic	r2, r2, #31
 2442 0022 1A60     		str	r2, [r3]
ARM GAS  C:\Users\DEVELO~1\AppData\Local\Temp\cc00sQ0X.s 			page 44


 2443              	.L102:
 2444              		.loc 6 843 5 is_stmt 0 discriminator 2
 2445 0024 7B68     		ldr	r3, [r7, #4]
 2446 0026 1B6B     		ldr	r3, [r3, #48]
 2447 0028 1B68     		ldr	r3, [r3]
 2448 002a 1B68     		ldr	r3, [r3]
 2449 002c 03F00103 		and	r3, r3, #1
 2450 0030 002B     		cmp	r3, #0
 2451 0032 F7D1     		bne	.L102
 2452              		.loc 6 843 5 discriminator 3
 2453 0034 7B68     		ldr	r3, [r7, #4]
 2454 0036 1B6B     		ldr	r3, [r3, #48]
 2455 0038 1B7B     		ldrb	r3, [r3, #12]	@ zero_extendqisi2
 2456 003a 1946     		mov	r1, r3
 2457 003c 7B68     		ldr	r3, [r7, #4]
 2458 003e 1B6B     		ldr	r3, [r3, #48]
 2459 0040 5B68     		ldr	r3, [r3, #4]
 2460 0042 3D22     		movs	r2, #61
 2461 0044 8A40     		lsls	r2, r2, r1
 2462 0046 1A60     		str	r2, [r3]
 2463              	.L101:
 2464              		.loc 6 848 6 is_stmt 1
 2465 0048 7B68     		ldr	r3, [r7, #4]
 2466 004a 144A     		ldr	r2, .L105+4
 2467 004c 9342     		cmp	r3, r2
 2468 004e 1BD1     		bne	.L103
 2469              		.loc 6 852 5
 2470 0050 7B68     		ldr	r3, [r7, #4]
 2471 0052 1B6B     		ldr	r3, [r3, #48]
 2472 0054 1B68     		ldr	r3, [r3]
 2473 0056 1A68     		ldr	r2, [r3]
 2474 0058 7B68     		ldr	r3, [r7, #4]
 2475 005a 1B6B     		ldr	r3, [r3, #48]
 2476 005c 1B68     		ldr	r3, [r3]
 2477 005e 22F01F02 		bic	r2, r2, #31
 2478 0062 1A60     		str	r2, [r3]
 2479              	.L104:
 2480              		.loc 6 852 5 is_stmt 0 discriminator 2
 2481 0064 7B68     		ldr	r3, [r7, #4]
 2482 0066 1B6B     		ldr	r3, [r3, #48]
 2483 0068 1B68     		ldr	r3, [r3]
 2484 006a 1B68     		ldr	r3, [r3]
 2485 006c 03F00103 		and	r3, r3, #1
 2486 0070 002B     		cmp	r3, #0
 2487 0072 F7D1     		bne	.L104
 2488              		.loc 6 852 5 discriminator 3
 2489 0074 7B68     		ldr	r3, [r7, #4]
 2490 0076 1B6B     		ldr	r3, [r3, #48]
 2491 0078 1B7B     		ldrb	r3, [r3, #12]	@ zero_extendqisi2
 2492 007a 1946     		mov	r1, r3
 2493 007c 7B68     		ldr	r3, [r7, #4]
 2494 007e 1B6B     		ldr	r3, [r3, #48]
 2495 0080 5B68     		ldr	r3, [r3, #4]
 2496 0082 3D22     		movs	r2, #61
 2497 0084 8A40     		lsls	r2, r2, r1
 2498 0086 1A60     		str	r2, [r3]
 2499              	.L103:
ARM GAS  C:\Users\DEVELO~1\AppData\Local\Temp\cc00sQ0X.s 			page 45


 2500              		.loc 6 857 3 is_stmt 1
 2501 0088 7868     		ldr	r0, [r7, #4]
 2502 008a FFF7FEFF 		bl	adc_lld_stop_adc
 2503              		.loc 6 858 1
 2504 008e 00BF     		nop
 2505 0090 0837     		adds	r7, r7, #8
 2506              		.cfi_def_cfa_offset 8
 2507 0092 BD46     		mov	sp, r7
 2508              		.cfi_def_cfa_register 13
 2509              		@ sp needed
 2510 0094 80BD     		pop	{r7, pc}
 2511              	.L106:
 2512 0096 00BF     		.align	2
 2513              	.L105:
 2514 0098 00000000 		.word	ADCD1
 2515 009c 00000000 		.word	ADCD3
 2516              		.cfi_endproc
 2517              	.LFE446:
 2518              		.size	adc_lld_stop_conversion, .-adc_lld_stop_conversion
 2519              		.section	.text.adcSTM32EnableVREF,"ax",%progbits
 2520              		.align	1
 2521              		.global	adcSTM32EnableVREF
 2522              		.syntax unified
 2523              		.thumb
 2524              		.thumb_func
 2525              		.type	adcSTM32EnableVREF, %function
 2526              	adcSTM32EnableVREF:
 2527              	.LFB447:
 2528              		.loc 6 870 42
 2529              		.cfi_startproc
 2530              		@ args = 0, pretend = 0, frame = 8
 2531              		@ frame_needed = 1, uses_anonymous_args = 0
 2532              		@ link register save eliminated.
 2533 0000 80B4     		push	{r7}
 2534              		.cfi_def_cfa_offset 4
 2535              		.cfi_offset 7, -4
 2536 0002 83B0     		sub	sp, sp, #12
 2537              		.cfi_def_cfa_offset 16
 2538 0004 00AF     		add	r7, sp, #0
 2539              		.cfi_def_cfa_register 7
 2540 0006 7860     		str	r0, [r7, #4]
 2541              		.loc 6 872 7
 2542 0008 7B68     		ldr	r3, [r7, #4]
 2543 000a DB6A     		ldr	r3, [r3, #44]
 2544              		.loc 6 872 19
 2545 000c 9A68     		ldr	r2, [r3, #8]
 2546              		.loc 6 872 7
 2547 000e 7B68     		ldr	r3, [r7, #4]
 2548 0010 DB6A     		ldr	r3, [r3, #44]
 2549              		.loc 6 872 19
 2550 0012 42F48002 		orr	r2, r2, #4194304
 2551 0016 9A60     		str	r2, [r3, #8]
 2552              		.loc 6 873 1
 2553 0018 00BF     		nop
 2554 001a 0C37     		adds	r7, r7, #12
 2555              		.cfi_def_cfa_offset 4
 2556 001c BD46     		mov	sp, r7
ARM GAS  C:\Users\DEVELO~1\AppData\Local\Temp\cc00sQ0X.s 			page 46


 2557              		.cfi_def_cfa_register 13
 2558              		@ sp needed
 2559 001e 80BC     		pop	{r7}
 2560              		.cfi_restore 7
 2561              		.cfi_def_cfa_offset 0
 2562 0020 7047     		bx	lr
 2563              		.cfi_endproc
 2564              	.LFE447:
 2565              		.size	adcSTM32EnableVREF, .-adcSTM32EnableVREF
 2566              		.section	.text.adcSTM32DisableVREF,"ax",%progbits
 2567              		.align	1
 2568              		.global	adcSTM32DisableVREF
 2569              		.syntax unified
 2570              		.thumb
 2571              		.thumb_func
 2572              		.type	adcSTM32DisableVREF, %function
 2573              	adcSTM32DisableVREF:
 2574              	.LFB448:
 2575              		.loc 6 885 43
 2576              		.cfi_startproc
 2577              		@ args = 0, pretend = 0, frame = 8
 2578              		@ frame_needed = 1, uses_anonymous_args = 0
 2579              		@ link register save eliminated.
 2580 0000 80B4     		push	{r7}
 2581              		.cfi_def_cfa_offset 4
 2582              		.cfi_offset 7, -4
 2583 0002 83B0     		sub	sp, sp, #12
 2584              		.cfi_def_cfa_offset 16
 2585 0004 00AF     		add	r7, sp, #0
 2586              		.cfi_def_cfa_register 7
 2587 0006 7860     		str	r0, [r7, #4]
 2588              		.loc 6 887 7
 2589 0008 7B68     		ldr	r3, [r7, #4]
 2590 000a DB6A     		ldr	r3, [r3, #44]
 2591              		.loc 6 887 19
 2592 000c 9A68     		ldr	r2, [r3, #8]
 2593              		.loc 6 887 7
 2594 000e 7B68     		ldr	r3, [r7, #4]
 2595 0010 DB6A     		ldr	r3, [r3, #44]
 2596              		.loc 6 887 19
 2597 0012 22F48002 		bic	r2, r2, #4194304
 2598 0016 9A60     		str	r2, [r3, #8]
 2599              		.loc 6 888 1
 2600 0018 00BF     		nop
 2601 001a 0C37     		adds	r7, r7, #12
 2602              		.cfi_def_cfa_offset 4
 2603 001c BD46     		mov	sp, r7
 2604              		.cfi_def_cfa_register 13
 2605              		@ sp needed
 2606 001e 80BC     		pop	{r7}
 2607              		.cfi_restore 7
 2608              		.cfi_def_cfa_offset 0
 2609 0020 7047     		bx	lr
 2610              		.cfi_endproc
 2611              	.LFE448:
 2612              		.size	adcSTM32DisableVREF, .-adcSTM32DisableVREF
 2613              		.section	.text.adcSTM32EnableTS,"ax",%progbits
ARM GAS  C:\Users\DEVELO~1\AppData\Local\Temp\cc00sQ0X.s 			page 47


 2614              		.align	1
 2615              		.global	adcSTM32EnableTS
 2616              		.syntax unified
 2617              		.thumb
 2618              		.thumb_func
 2619              		.type	adcSTM32EnableTS, %function
 2620              	adcSTM32EnableTS:
 2621              	.LFB449:
 2622              		.loc 6 900 40
 2623              		.cfi_startproc
 2624              		@ args = 0, pretend = 0, frame = 8
 2625              		@ frame_needed = 1, uses_anonymous_args = 0
 2626              		@ link register save eliminated.
 2627 0000 80B4     		push	{r7}
 2628              		.cfi_def_cfa_offset 4
 2629              		.cfi_offset 7, -4
 2630 0002 83B0     		sub	sp, sp, #12
 2631              		.cfi_def_cfa_offset 16
 2632 0004 00AF     		add	r7, sp, #0
 2633              		.cfi_def_cfa_register 7
 2634 0006 7860     		str	r0, [r7, #4]
 2635              		.loc 6 902 7
 2636 0008 7B68     		ldr	r3, [r7, #4]
 2637 000a DB6A     		ldr	r3, [r3, #44]
 2638              		.loc 6 902 19
 2639 000c 9A68     		ldr	r2, [r3, #8]
 2640              		.loc 6 902 7
 2641 000e 7B68     		ldr	r3, [r7, #4]
 2642 0010 DB6A     		ldr	r3, [r3, #44]
 2643              		.loc 6 902 19
 2644 0012 42F40002 		orr	r2, r2, #8388608
 2645 0016 9A60     		str	r2, [r3, #8]
 2646              		.loc 6 903 1
 2647 0018 00BF     		nop
 2648 001a 0C37     		adds	r7, r7, #12
 2649              		.cfi_def_cfa_offset 4
 2650 001c BD46     		mov	sp, r7
 2651              		.cfi_def_cfa_register 13
 2652              		@ sp needed
 2653 001e 80BC     		pop	{r7}
 2654              		.cfi_restore 7
 2655              		.cfi_def_cfa_offset 0
 2656 0020 7047     		bx	lr
 2657              		.cfi_endproc
 2658              	.LFE449:
 2659              		.size	adcSTM32EnableTS, .-adcSTM32EnableTS
 2660              		.section	.text.adcSTM32DisableTS,"ax",%progbits
 2661              		.align	1
 2662              		.global	adcSTM32DisableTS
 2663              		.syntax unified
 2664              		.thumb
 2665              		.thumb_func
 2666              		.type	adcSTM32DisableTS, %function
 2667              	adcSTM32DisableTS:
 2668              	.LFB450:
 2669              		.loc 6 915 41
 2670              		.cfi_startproc
ARM GAS  C:\Users\DEVELO~1\AppData\Local\Temp\cc00sQ0X.s 			page 48


 2671              		@ args = 0, pretend = 0, frame = 8
 2672              		@ frame_needed = 1, uses_anonymous_args = 0
 2673              		@ link register save eliminated.
 2674 0000 80B4     		push	{r7}
 2675              		.cfi_def_cfa_offset 4
 2676              		.cfi_offset 7, -4
 2677 0002 83B0     		sub	sp, sp, #12
 2678              		.cfi_def_cfa_offset 16
 2679 0004 00AF     		add	r7, sp, #0
 2680              		.cfi_def_cfa_register 7
 2681 0006 7860     		str	r0, [r7, #4]
 2682              		.loc 6 917 7
 2683 0008 7B68     		ldr	r3, [r7, #4]
 2684 000a DB6A     		ldr	r3, [r3, #44]
 2685              		.loc 6 917 19
 2686 000c 9A68     		ldr	r2, [r3, #8]
 2687              		.loc 6 917 7
 2688 000e 7B68     		ldr	r3, [r7, #4]
 2689 0010 DB6A     		ldr	r3, [r3, #44]
 2690              		.loc 6 917 19
 2691 0012 22F40002 		bic	r2, r2, #8388608
 2692 0016 9A60     		str	r2, [r3, #8]
 2693              		.loc 6 918 1
 2694 0018 00BF     		nop
 2695 001a 0C37     		adds	r7, r7, #12
 2696              		.cfi_def_cfa_offset 4
 2697 001c BD46     		mov	sp, r7
 2698              		.cfi_def_cfa_register 13
 2699              		@ sp needed
 2700 001e 80BC     		pop	{r7}
 2701              		.cfi_restore 7
 2702              		.cfi_def_cfa_offset 0
 2703 0020 7047     		bx	lr
 2704              		.cfi_endproc
 2705              	.LFE450:
 2706              		.size	adcSTM32DisableTS, .-adcSTM32DisableTS
 2707              		.section	.text.adcSTM32EnableVBAT,"ax",%progbits
 2708              		.align	1
 2709              		.global	adcSTM32EnableVBAT
 2710              		.syntax unified
 2711              		.thumb
 2712              		.thumb_func
 2713              		.type	adcSTM32EnableVBAT, %function
 2714              	adcSTM32EnableVBAT:
 2715              	.LFB451:
 2716              		.loc 6 930 42
 2717              		.cfi_startproc
 2718              		@ args = 0, pretend = 0, frame = 8
 2719              		@ frame_needed = 1, uses_anonymous_args = 0
 2720              		@ link register save eliminated.
 2721 0000 80B4     		push	{r7}
 2722              		.cfi_def_cfa_offset 4
 2723              		.cfi_offset 7, -4
 2724 0002 83B0     		sub	sp, sp, #12
 2725              		.cfi_def_cfa_offset 16
 2726 0004 00AF     		add	r7, sp, #0
 2727              		.cfi_def_cfa_register 7
ARM GAS  C:\Users\DEVELO~1\AppData\Local\Temp\cc00sQ0X.s 			page 49


 2728 0006 7860     		str	r0, [r7, #4]
 2729              		.loc 6 932 7
 2730 0008 7B68     		ldr	r3, [r7, #4]
 2731 000a DB6A     		ldr	r3, [r3, #44]
 2732              		.loc 6 932 19
 2733 000c 9A68     		ldr	r2, [r3, #8]
 2734              		.loc 6 932 7
 2735 000e 7B68     		ldr	r3, [r7, #4]
 2736 0010 DB6A     		ldr	r3, [r3, #44]
 2737              		.loc 6 932 19
 2738 0012 42F08072 		orr	r2, r2, #16777216
 2739 0016 9A60     		str	r2, [r3, #8]
 2740              		.loc 6 933 1
 2741 0018 00BF     		nop
 2742 001a 0C37     		adds	r7, r7, #12
 2743              		.cfi_def_cfa_offset 4
 2744 001c BD46     		mov	sp, r7
 2745              		.cfi_def_cfa_register 13
 2746              		@ sp needed
 2747 001e 80BC     		pop	{r7}
 2748              		.cfi_restore 7
 2749              		.cfi_def_cfa_offset 0
 2750 0020 7047     		bx	lr
 2751              		.cfi_endproc
 2752              	.LFE451:
 2753              		.size	adcSTM32EnableVBAT, .-adcSTM32EnableVBAT
 2754              		.section	.text.adcSTM32DisableVBAT,"ax",%progbits
 2755              		.align	1
 2756              		.global	adcSTM32DisableVBAT
 2757              		.syntax unified
 2758              		.thumb
 2759              		.thumb_func
 2760              		.type	adcSTM32DisableVBAT, %function
 2761              	adcSTM32DisableVBAT:
 2762              	.LFB452:
 2763              		.loc 6 945 43
 2764              		.cfi_startproc
 2765              		@ args = 0, pretend = 0, frame = 8
 2766              		@ frame_needed = 1, uses_anonymous_args = 0
 2767              		@ link register save eliminated.
 2768 0000 80B4     		push	{r7}
 2769              		.cfi_def_cfa_offset 4
 2770              		.cfi_offset 7, -4
 2771 0002 83B0     		sub	sp, sp, #12
 2772              		.cfi_def_cfa_offset 16
 2773 0004 00AF     		add	r7, sp, #0
 2774              		.cfi_def_cfa_register 7
 2775 0006 7860     		str	r0, [r7, #4]
 2776              		.loc 6 947 7
 2777 0008 7B68     		ldr	r3, [r7, #4]
 2778 000a DB6A     		ldr	r3, [r3, #44]
 2779              		.loc 6 947 19
 2780 000c 9A68     		ldr	r2, [r3, #8]
 2781              		.loc 6 947 7
 2782 000e 7B68     		ldr	r3, [r7, #4]
 2783 0010 DB6A     		ldr	r3, [r3, #44]
 2784              		.loc 6 947 19
ARM GAS  C:\Users\DEVELO~1\AppData\Local\Temp\cc00sQ0X.s 			page 50


 2785 0012 22F08072 		bic	r2, r2, #16777216
 2786 0016 9A60     		str	r2, [r3, #8]
 2787              		.loc 6 948 1
 2788 0018 00BF     		nop
 2789 001a 0C37     		adds	r7, r7, #12
 2790              		.cfi_def_cfa_offset 4
 2791 001c BD46     		mov	sp, r7
 2792              		.cfi_def_cfa_register 13
 2793              		@ sp needed
 2794 001e 80BC     		pop	{r7}
 2795              		.cfi_restore 7
 2796              		.cfi_def_cfa_offset 0
 2797 0020 7047     		bx	lr
 2798              		.cfi_endproc
 2799              	.LFE452:
 2800              		.size	adcSTM32DisableVBAT, .-adcSTM32DisableVBAT
 2801              		.section	.rodata.__func__.1,"a"
 2802              		.align	2
 2803              		.type	__func__.1, %object
 2804              		.size	__func__.1, 9
 2805              	__func__.1:
 2806 0000 56656374 		.ascii	"Vector88\000"
 2806      6F723838 
 2806      00
 2807              		.section	.rodata.__func__.0,"a"
 2808              		.align	2
 2809              		.type	__func__.0, %object
 2810              		.size	__func__.0, 10
 2811              	__func__.0:
 2812 0000 56656374 		.ascii	"Vector23C\000"
 2812      6F723233 
 2812      4300
 2813              		.text
 2814              	.Letext0:
 2815              		.file 7 "c:\\chibistudio\\tools\\gnu tools arm embedded\\11.3 2022.08\\lib\\gcc\\arm-none-eabi\\11
 2816              		.file 8 "c:\\chibistudio\\tools\\gnu tools arm embedded\\11.3 2022.08\\arm-none-eabi\\include\\mac
 2817              		.file 9 "c:\\chibistudio\\tools\\gnu tools arm embedded\\11.3 2022.08\\arm-none-eabi\\include\\sys
 2818              		.file 10 "../../../os/common/ports/ARM-common/chtypes.h"
 2819              		.file 11 "../../../os/rt/include/chearly.h"
 2820              		.file 12 "../../../os/rt/include/chobjects.h"
 2821              		.file 13 "../../../os/rt/include/chrfcu.h"
 2822              		.file 14 "../../../os/rt/include/chdebug.h"
 2823              		.file 15 "../../../os/rt/include/chtime.h"
 2824              		.file 16 "../../../os/rt/include/chlists.h"
 2825              		.file 17 "../../../os/rt/include/chtrace.h"
 2826              		.file 18 "../../../os/common/ext/ST/STM32H7xx/stm32h743xx.h"
 2827              		.file 19 "../../../os/rt/include/chsem.h"
 2828              		.file 20 "../../../os/rt/include/chmtx.h"
 2829              		.file 21 "../../../os/hal/ports/STM32/LLD/DMAv2/stm32_dma.h"
 2830              		.file 22 "../../../os/hal/include/hal_adc.h"
 2831              		.file 23 "../../../os/hal/ports/STM32/LLD/ADCv4/hal_adc_lld.h"
 2832              		.file 24 "../../../os/hal/ports/common/ARMCMx/nvic.h"
 2833              		.file 25 "../../../os/rt/include/chthreads.h"