ARM GAS  C:\Users\DEVELO~1\AppData\Local\Temp\ccNdA3FK.s 			page 1


   1              		.cpu cortex-m7
   2              		.arch armv7e-m
   3              		.fpu softvfp
   4              		.eabi_attribute 20, 1
   5              		.eabi_attribute 21, 1
   6              		.eabi_attribute 23, 3
   7              		.eabi_attribute 24, 1
   8              		.eabi_attribute 25, 1
   9              		.eabi_attribute 26, 1
  10              		.eabi_attribute 30, 6
  11              		.eabi_attribute 34, 1
  12              		.eabi_attribute 18, 4
  13              		.file	"hal_st.c"
  14              		.text
  15              	.Ltext0:
  16              		.cfi_sections	.debug_frame
  17              		.section	.text.st_lld_get_counter,"ax",%progbits
  18              		.align	1
  19              		.syntax unified
  20              		.thumb
  21              		.thumb_func
  22              		.type	st_lld_get_counter, %function
  23              	st_lld_get_counter:
  24              	.LFB426:
  25              		.file 1 "../../../os/hal/ports/STM32/LLD/SYSTICKv1/hal_st_lld.h"
  26              		.loc 1 804 50
  27              		.cfi_startproc
  28              		@ args = 0, pretend = 0, frame = 0
  29              		@ frame_needed = 1, uses_anonymous_args = 0
  30              		@ link register save eliminated.
  31 0000 80B4     		push	{r7}
  32              		.cfi_def_cfa_offset 4
  33              		.cfi_offset 7, -4
  34 0002 00AF     		add	r7, sp, #0
  35              		.cfi_def_cfa_register 7
  36              		.loc 1 806 33
  37 0004 4FF08043 		mov	r3, #1073741824
  38              		.loc 1 806 10
  39 0008 5B6A     		ldr	r3, [r3, #36]
  40              		.loc 1 807 1
  41 000a 1846     		mov	r0, r3
  42 000c BD46     		mov	sp, r7
  43              		.cfi_def_cfa_register 13
  44              		@ sp needed
  45 000e 80BC     		pop	{r7}
  46              		.cfi_restore 7
  47              		.cfi_def_cfa_offset 0
  48 0010 7047     		bx	lr
  49              		.cfi_endproc
  50              	.LFE426:
  51              		.size	st_lld_get_counter, .-st_lld_get_counter
  52              		.section	.text.st_lld_start_alarm,"ax",%progbits
  53              		.align	1
  54              		.syntax unified
  55              		.thumb
  56              		.thumb_func
  57              		.type	st_lld_start_alarm, %function
ARM GAS  C:\Users\DEVELO~1\AppData\Local\Temp\ccNdA3FK.s 			page 2


  58              	st_lld_start_alarm:
  59              	.LFB427:
  60              		.loc 1 818 58
  61              		.cfi_startproc
  62              		@ args = 0, pretend = 0, frame = 8
  63              		@ frame_needed = 1, uses_anonymous_args = 0
  64              		@ link register save eliminated.
  65 0000 80B4     		push	{r7}
  66              		.cfi_def_cfa_offset 4
  67              		.cfi_offset 7, -4
  68 0002 83B0     		sub	sp, sp, #12
  69              		.cfi_def_cfa_offset 16
  70 0004 00AF     		add	r7, sp, #0
  71              		.cfi_def_cfa_register 7
  72 0006 7860     		str	r0, [r7, #4]
  73              		.loc 1 820 15
  74 0008 4FF08042 		mov	r2, #1073741824
  75              		.loc 1 820 24
  76 000c 7B68     		ldr	r3, [r7, #4]
  77 000e 5363     		str	r3, [r2, #52]
  78              		.loc 1 821 15
  79 0010 4FF08043 		mov	r3, #1073741824
  80              		.loc 1 821 24
  81 0014 0022     		movs	r2, #0
  82 0016 1A61     		str	r2, [r3, #16]
  83              		.loc 1 823 15
  84 0018 4FF08043 		mov	r3, #1073741824
  85              		.loc 1 823 24
  86 001c 0222     		movs	r2, #2
  87 001e DA60     		str	r2, [r3, #12]
  88              		.loc 1 827 1
  89 0020 00BF     		nop
  90 0022 0C37     		adds	r7, r7, #12
  91              		.cfi_def_cfa_offset 4
  92 0024 BD46     		mov	sp, r7
  93              		.cfi_def_cfa_register 13
  94              		@ sp needed
  95 0026 80BC     		pop	{r7}
  96              		.cfi_restore 7
  97              		.cfi_def_cfa_offset 0
  98 0028 7047     		bx	lr
  99              		.cfi_endproc
 100              	.LFE427:
 101              		.size	st_lld_start_alarm, .-st_lld_start_alarm
 102              		.section	.text.st_lld_stop_alarm,"ax",%progbits
 103              		.align	1
 104              		.syntax unified
 105              		.thumb
 106              		.thumb_func
 107              		.type	st_lld_stop_alarm, %function
 108              	st_lld_stop_alarm:
 109              	.LFB428:
 110              		.loc 1 834 44
 111              		.cfi_startproc
 112              		@ args = 0, pretend = 0, frame = 0
 113              		@ frame_needed = 1, uses_anonymous_args = 0
 114              		@ link register save eliminated.
ARM GAS  C:\Users\DEVELO~1\AppData\Local\Temp\ccNdA3FK.s 			page 3


 115 0000 80B4     		push	{r7}
 116              		.cfi_def_cfa_offset 4
 117              		.cfi_offset 7, -4
 118 0002 00AF     		add	r7, sp, #0
 119              		.cfi_def_cfa_register 7
 120              		.loc 1 837 15
 121 0004 4FF08043 		mov	r3, #1073741824
 122              		.loc 1 837 22
 123 0008 0022     		movs	r2, #0
 124 000a DA60     		str	r2, [r3, #12]
 125              		.loc 1 841 1
 126 000c 00BF     		nop
 127 000e BD46     		mov	sp, r7
 128              		.cfi_def_cfa_register 13
 129              		@ sp needed
 130 0010 80BC     		pop	{r7}
 131              		.cfi_restore 7
 132              		.cfi_def_cfa_offset 0
 133 0012 7047     		bx	lr
 134              		.cfi_endproc
 135              	.LFE428:
 136              		.size	st_lld_stop_alarm, .-st_lld_stop_alarm
 137              		.section	.text.st_lld_set_alarm,"ax",%progbits
 138              		.align	1
 139              		.syntax unified
 140              		.thumb
 141              		.thumb_func
 142              		.type	st_lld_set_alarm, %function
 143              	st_lld_set_alarm:
 144              	.LFB429:
 145              		.loc 1 850 56
 146              		.cfi_startproc
 147              		@ args = 0, pretend = 0, frame = 8
 148              		@ frame_needed = 1, uses_anonymous_args = 0
 149              		@ link register save eliminated.
 150 0000 80B4     		push	{r7}
 151              		.cfi_def_cfa_offset 4
 152              		.cfi_offset 7, -4
 153 0002 83B0     		sub	sp, sp, #12
 154              		.cfi_def_cfa_offset 16
 155 0004 00AF     		add	r7, sp, #0
 156              		.cfi_def_cfa_register 7
 157 0006 7860     		str	r0, [r7, #4]
 158              		.loc 1 852 15
 159 0008 4FF08042 		mov	r2, #1073741824
 160              		.loc 1 852 24
 161 000c 7B68     		ldr	r3, [r7, #4]
 162 000e 5363     		str	r3, [r2, #52]
 163              		.loc 1 853 1
 164 0010 00BF     		nop
 165 0012 0C37     		adds	r7, r7, #12
 166              		.cfi_def_cfa_offset 4
 167 0014 BD46     		mov	sp, r7
 168              		.cfi_def_cfa_register 13
 169              		@ sp needed
 170 0016 80BC     		pop	{r7}
 171              		.cfi_restore 7
ARM GAS  C:\Users\DEVELO~1\AppData\Local\Temp\ccNdA3FK.s 			page 4


 172              		.cfi_def_cfa_offset 0
 173 0018 7047     		bx	lr
 174              		.cfi_endproc
 175              	.LFE429:
 176              		.size	st_lld_set_alarm, .-st_lld_set_alarm
 177              		.section	.text.st_lld_get_alarm,"ax",%progbits
 178              		.align	1
 179              		.syntax unified
 180              		.thumb
 181              		.thumb_func
 182              		.type	st_lld_get_alarm, %function
 183              	st_lld_get_alarm:
 184              	.LFB430:
 185              		.loc 1 862 48
 186              		.cfi_startproc
 187              		@ args = 0, pretend = 0, frame = 0
 188              		@ frame_needed = 1, uses_anonymous_args = 0
 189              		@ link register save eliminated.
 190 0000 80B4     		push	{r7}
 191              		.cfi_def_cfa_offset 4
 192              		.cfi_offset 7, -4
 193 0002 00AF     		add	r7, sp, #0
 194              		.cfi_def_cfa_register 7
 195              		.loc 1 864 33
 196 0004 4FF08043 		mov	r3, #1073741824
 197              		.loc 1 864 10
 198 0008 5B6B     		ldr	r3, [r3, #52]
 199              		.loc 1 865 1
 200 000a 1846     		mov	r0, r3
 201 000c BD46     		mov	sp, r7
 202              		.cfi_def_cfa_register 13
 203              		@ sp needed
 204 000e 80BC     		pop	{r7}
 205              		.cfi_restore 7
 206              		.cfi_def_cfa_offset 0
 207 0010 7047     		bx	lr
 208              		.cfi_endproc
 209              	.LFE430:
 210              		.size	st_lld_get_alarm, .-st_lld_get_alarm
 211              		.section	.text.st_lld_is_alarm_active,"ax",%progbits
 212              		.align	1
 213              		.syntax unified
 214              		.thumb
 215              		.thumb_func
 216              		.type	st_lld_is_alarm_active, %function
 217              	st_lld_is_alarm_active:
 218              	.LFB431:
 219              		.loc 1 876 49
 220              		.cfi_startproc
 221              		@ args = 0, pretend = 0, frame = 0
 222              		@ frame_needed = 1, uses_anonymous_args = 0
 223              		@ link register save eliminated.
 224 0000 80B4     		push	{r7}
 225              		.cfi_def_cfa_offset 4
 226              		.cfi_offset 7, -4
 227 0002 00AF     		add	r7, sp, #0
 228              		.cfi_def_cfa_register 7
ARM GAS  C:\Users\DEVELO~1\AppData\Local\Temp\ccNdA3FK.s 			page 5


 229              		.loc 1 878 30
 230 0004 4FF08043 		mov	r3, #1073741824
 231 0008 DB68     		ldr	r3, [r3, #12]
 232              		.loc 1 878 37
 233 000a 03F00203 		and	r3, r3, #2
 234              		.loc 1 878 10
 235 000e 002B     		cmp	r3, #0
 236 0010 14BF     		ite	ne
 237 0012 0123     		movne	r3, #1
 238 0014 0023     		moveq	r3, #0
 239 0016 DBB2     		uxtb	r3, r3
 240              		.loc 1 879 1
 241 0018 1846     		mov	r0, r3
 242 001a BD46     		mov	sp, r7
 243              		.cfi_def_cfa_register 13
 244              		@ sp needed
 245 001c 80BC     		pop	{r7}
 246              		.cfi_restore 7
 247              		.cfi_def_cfa_offset 0
 248 001e 7047     		bx	lr
 249              		.cfi_endproc
 250              	.LFE431:
 251              		.size	st_lld_is_alarm_active, .-st_lld_is_alarm_active
 252              		.section	.text.stInit,"ax",%progbits
 253              		.align	1
 254              		.global	stInit
 255              		.syntax unified
 256              		.thumb
 257              		.thumb_func
 258              		.type	stInit, %function
 259              	stInit:
 260              	.LFB432:
 261              		.file 2 "../../../os/hal/src/hal_st.c"
 262              		.loc 2 69 19
 263              		.cfi_startproc
 264              		@ args = 0, pretend = 0, frame = 0
 265              		@ frame_needed = 1, uses_anonymous_args = 0
 266 0000 80B5     		push	{r7, lr}
 267              		.cfi_def_cfa_offset 8
 268              		.cfi_offset 7, -8
 269              		.cfi_offset 14, -4
 270 0002 00AF     		add	r7, sp, #0
 271              		.cfi_def_cfa_register 7
 272              		.loc 2 77 3
 273 0004 FFF7FEFF 		bl	st_lld_init
 274              		.loc 2 78 1
 275 0008 00BF     		nop
 276 000a 80BD     		pop	{r7, pc}
 277              		.cfi_endproc
 278              	.LFE432:
 279              		.size	stInit, .-stInit
 280              		.section	.text.stGetCounter,"ax",%progbits
 281              		.align	1
 282              		.global	stGetCounter
 283              		.syntax unified
 284              		.thumb
 285              		.thumb_func
ARM GAS  C:\Users\DEVELO~1\AppData\Local\Temp\ccNdA3FK.s 			page 6


 286              		.type	stGetCounter, %function
 287              	stGetCounter:
 288              	.LFB433:
 289              		.loc 2 103 30
 290              		.cfi_startproc
 291              		@ args = 0, pretend = 0, frame = 0
 292              		@ frame_needed = 1, uses_anonymous_args = 0
 293 0000 80B5     		push	{r7, lr}
 294              		.cfi_def_cfa_offset 8
 295              		.cfi_offset 7, -8
 296              		.cfi_offset 14, -4
 297 0002 00AF     		add	r7, sp, #0
 298              		.cfi_def_cfa_register 7
 299              		.loc 2 105 10
 300 0004 FFF7FEFF 		bl	st_lld_get_counter
 301 0008 0346     		mov	r3, r0
 302              		.loc 2 106 1
 303 000a 1846     		mov	r0, r3
 304 000c 80BD     		pop	{r7, pc}
 305              		.cfi_endproc
 306              	.LFE433:
 307              		.size	stGetCounter, .-stGetCounter
 308              		.section	.text.stStartAlarm,"ax",%progbits
 309              		.align	1
 310              		.global	stStartAlarm
 311              		.syntax unified
 312              		.thumb
 313              		.thumb_func
 314              		.type	stStartAlarm, %function
 315              	stStartAlarm:
 316              	.LFB434:
 317              		.loc 2 119 38
 318              		.cfi_startproc
 319              		@ args = 0, pretend = 0, frame = 8
 320              		@ frame_needed = 1, uses_anonymous_args = 0
 321 0000 80B5     		push	{r7, lr}
 322              		.cfi_def_cfa_offset 8
 323              		.cfi_offset 7, -8
 324              		.cfi_offset 14, -4
 325 0002 82B0     		sub	sp, sp, #8
 326              		.cfi_def_cfa_offset 16
 327 0004 00AF     		add	r7, sp, #0
 328              		.cfi_def_cfa_register 7
 329 0006 7860     		str	r0, [r7, #4]
 330              		.loc 2 123 3
 331 0008 7868     		ldr	r0, [r7, #4]
 332 000a FFF7FEFF 		bl	st_lld_start_alarm
 333              		.loc 2 124 1
 334 000e 00BF     		nop
 335 0010 0837     		adds	r7, r7, #8
 336              		.cfi_def_cfa_offset 8
 337 0012 BD46     		mov	sp, r7
 338              		.cfi_def_cfa_register 13
 339              		@ sp needed
 340 0014 80BD     		pop	{r7, pc}
 341              		.cfi_endproc
 342              	.LFE434:
ARM GAS  C:\Users\DEVELO~1\AppData\Local\Temp\ccNdA3FK.s 			page 7


 343              		.size	stStartAlarm, .-stStartAlarm
 344              		.section	.text.stStopAlarm,"ax",%progbits
 345              		.align	1
 346              		.global	stStopAlarm
 347              		.syntax unified
 348              		.thumb
 349              		.thumb_func
 350              		.type	stStopAlarm, %function
 351              	stStopAlarm:
 352              	.LFB435:
 353              		.loc 2 133 24
 354              		.cfi_startproc
 355              		@ args = 0, pretend = 0, frame = 0
 356              		@ frame_needed = 1, uses_anonymous_args = 0
 357 0000 80B5     		push	{r7, lr}
 358              		.cfi_def_cfa_offset 8
 359              		.cfi_offset 7, -8
 360              		.cfi_offset 14, -4
 361 0002 00AF     		add	r7, sp, #0
 362              		.cfi_def_cfa_register 7
 363              		.loc 2 135 3
 364 0004 FFF7FEFF 		bl	st_lld_stop_alarm
 365              		.loc 2 136 1
 366 0008 00BF     		nop
 367 000a 80BD     		pop	{r7, pc}
 368              		.cfi_endproc
 369              	.LFE435:
 370              		.size	stStopAlarm, .-stStopAlarm
 371              		.section	.text.stSetAlarm,"ax",%progbits
 372              		.align	1
 373              		.global	stSetAlarm
 374              		.syntax unified
 375              		.thumb
 376              		.thumb_func
 377              		.type	stSetAlarm, %function
 378              	stSetAlarm:
 379              	.LFB436:
 380              		.loc 2 147 36
 381              		.cfi_startproc
 382              		@ args = 0, pretend = 0, frame = 8
 383              		@ frame_needed = 1, uses_anonymous_args = 0
 384 0000 80B5     		push	{r7, lr}
 385              		.cfi_def_cfa_offset 8
 386              		.cfi_offset 7, -8
 387              		.cfi_offset 14, -4
 388 0002 82B0     		sub	sp, sp, #8
 389              		.cfi_def_cfa_offset 16
 390 0004 00AF     		add	r7, sp, #0
 391              		.cfi_def_cfa_register 7
 392 0006 7860     		str	r0, [r7, #4]
 393              		.loc 2 151 3
 394 0008 7868     		ldr	r0, [r7, #4]
 395 000a FFF7FEFF 		bl	st_lld_set_alarm
 396              		.loc 2 152 1
 397 000e 00BF     		nop
 398 0010 0837     		adds	r7, r7, #8
 399              		.cfi_def_cfa_offset 8
ARM GAS  C:\Users\DEVELO~1\AppData\Local\Temp\ccNdA3FK.s 			page 8


 400 0012 BD46     		mov	sp, r7
 401              		.cfi_def_cfa_register 13
 402              		@ sp needed
 403 0014 80BD     		pop	{r7, pc}
 404              		.cfi_endproc
 405              	.LFE436:
 406              		.size	stSetAlarm, .-stSetAlarm
 407              		.section	.text.stGetAlarm,"ax",%progbits
 408              		.align	1
 409              		.global	stGetAlarm
 410              		.syntax unified
 411              		.thumb
 412              		.thumb_func
 413              		.type	stGetAlarm, %function
 414              	stGetAlarm:
 415              	.LFB437:
 416              		.loc 2 163 28
 417              		.cfi_startproc
 418              		@ args = 0, pretend = 0, frame = 0
 419              		@ frame_needed = 1, uses_anonymous_args = 0
 420 0000 80B5     		push	{r7, lr}
 421              		.cfi_def_cfa_offset 8
 422              		.cfi_offset 7, -8
 423              		.cfi_offset 14, -4
 424 0002 00AF     		add	r7, sp, #0
 425              		.cfi_def_cfa_register 7
 426              		.loc 2 167 10
 427 0004 FFF7FEFF 		bl	st_lld_get_alarm
 428 0008 0346     		mov	r3, r0
 429              		.loc 2 168 1
 430 000a 1846     		mov	r0, r3
 431 000c 80BD     		pop	{r7, pc}
 432              		.cfi_endproc
 433              	.LFE437:
 434              		.size	stGetAlarm, .-stGetAlarm
 435              		.section	.text.stIsAlarmActive,"ax",%progbits
 436              		.align	1
 437              		.global	stIsAlarmActive
 438              		.syntax unified
 439              		.thumb
 440              		.thumb_func
 441              		.type	stIsAlarmActive, %function
 442              	stIsAlarmActive:
 443              	.LFB438:
 444              		.loc 2 179 28
 445              		.cfi_startproc
 446              		@ args = 0, pretend = 0, frame = 0
 447              		@ frame_needed = 1, uses_anonymous_args = 0
 448 0000 80B5     		push	{r7, lr}
 449              		.cfi_def_cfa_offset 8
 450              		.cfi_offset 7, -8
 451              		.cfi_offset 14, -4
 452 0002 00AF     		add	r7, sp, #0
 453              		.cfi_def_cfa_register 7
 454              		.loc 2 181 10
 455 0004 FFF7FEFF 		bl	st_lld_is_alarm_active
 456 0008 0346     		mov	r3, r0
ARM GAS  C:\Users\DEVELO~1\AppData\Local\Temp\ccNdA3FK.s 			page 9


 457              		.loc 2 182 1
 458 000a 1846     		mov	r0, r3
 459 000c 80BD     		pop	{r7, pc}
 460              		.cfi_endproc
 461              	.LFE438:
 462              		.size	stIsAlarmActive, .-stIsAlarmActive
 463              		.text
 464              	.Letext0:
 465              		.file 3 "c:\\chibistudio\\tools\\gnu tools arm embedded\\11.3 2022.08\\arm-none-eabi\\include\\mac
 466              		.file 4 "c:\\chibistudio\\tools\\gnu tools arm embedded\\11.3 2022.08\\arm-none-eabi\\include\\sys
 467              		.file 5 "../../../os/rt/include/chtime.h"
 468              		.file 6 "../../../os/hal/ports/STM32/LLD/TIMv1/stm32_tim.h"