ARM GAS  C:\Users\DEVELO~1\AppData\Local\Temp\cc4ViyBo.s 			page 1


   1              		.cpu cortex-m7
   2              		.arch armv7e-m
   3              		.fpu softvfp
   4              		.eabi_attribute 20, 1
   5              		.eabi_attribute 21, 1
   6              		.eabi_attribute 23, 3
   7              		.eabi_attribute 24, 1
   8              		.eabi_attribute 25, 1
   9              		.eabi_attribute 26, 1
  10              		.eabi_attribute 30, 6
  11              		.eabi_attribute 34, 1
  12              		.eabi_attribute 18, 4
  13              		.file	"hal_buffered_serial.c"
  14              		.text
  15              	.Ltext0:
  16              		.cfi_sections	.debug_frame
  17              		.section	.text.osalEventBroadcastFlagsI,"ax",%progbits
  18              		.align	1
  19              		.syntax unified
  20              		.thumb
  21              		.thumb_func
  22              		.type	osalEventBroadcastFlagsI, %function
  23              	osalEventBroadcastFlagsI:
  24              	.LFB374:
  25              		.file 1 "../../../os/hal/osal/rt-nil/osal.h"
  26              		.loc 1 957 65
  27              		.cfi_startproc
  28              		@ args = 0, pretend = 0, frame = 8
  29              		@ frame_needed = 1, uses_anonymous_args = 0
  30 0000 80B5     		push	{r7, lr}
  31              		.cfi_def_cfa_offset 8
  32              		.cfi_offset 7, -8
  33              		.cfi_offset 14, -4
  34 0002 82B0     		sub	sp, sp, #8
  35              		.cfi_def_cfa_offset 16
  36 0004 00AF     		add	r7, sp, #0
  37              		.cfi_def_cfa_register 7
  38 0006 7860     		str	r0, [r7, #4]
  39 0008 3960     		str	r1, [r7]
  40              		.loc 1 959 3
  41 000a 3968     		ldr	r1, [r7]
  42 000c 7868     		ldr	r0, [r7, #4]
  43 000e FFF7FEFF 		bl	chEvtBroadcastFlagsI
  44              		.loc 1 960 1
  45 0012 00BF     		nop
  46 0014 0837     		adds	r7, r7, #8
  47              		.cfi_def_cfa_offset 8
  48 0016 BD46     		mov	sp, r7
  49              		.cfi_def_cfa_register 13
  50              		@ sp needed
  51 0018 80BD     		pop	{r7, pc}
  52              		.cfi_endproc
  53              	.LFE374:
  54              		.size	osalEventBroadcastFlagsI, .-osalEventBroadcastFlagsI
  55              		.section	.text.bsIncomingDataI,"ax",%progbits
  56              		.align	1
  57              		.global	bsIncomingDataI
ARM GAS  C:\Users\DEVELO~1\AppData\Local\Temp\cc4ViyBo.s 			page 2


  58              		.syntax unified
  59              		.thumb
  60              		.thumb_func
  61              		.type	bsIncomingDataI, %function
  62              	bsIncomingDataI:
  63              	.LFB432:
  64              		.file 2 "../../../os/hal/src/hal_buffered_serial.c"
  65              		.loc 2 60 54
  66              		.cfi_startproc
  67              		@ args = 0, pretend = 0, frame = 8
  68              		@ frame_needed = 1, uses_anonymous_args = 0
  69 0000 80B5     		push	{r7, lr}
  70              		.cfi_def_cfa_offset 8
  71              		.cfi_offset 7, -8
  72              		.cfi_offset 14, -4
  73 0002 82B0     		sub	sp, sp, #8
  74              		.cfi_def_cfa_offset 16
  75 0004 00AF     		add	r7, sp, #0
  76              		.cfi_def_cfa_register 7
  77 0006 7860     		str	r0, [r7, #4]
  78 0008 0B46     		mov	r3, r1
  79 000a FB70     		strb	r3, [r7, #3]
  80              		.loc 2 65 7
  81 000c 7B68     		ldr	r3, [r7, #4]
  82 000e 5B69     		ldr	r3, [r3, #20]
  83              		.loc 2 65 6
  84 0010 002B     		cmp	r3, #0
  85 0012 05D1     		bne	.L3
  86              		.loc 2 66 5
  87 0014 7B68     		ldr	r3, [r7, #4]
  88 0016 0433     		adds	r3, r3, #4
  89 0018 0421     		movs	r1, #4
  90 001a 1846     		mov	r0, r3
  91 001c FFF7FEFF 		bl	osalEventBroadcastFlagsI
  92              	.L3:
  93              		.loc 2 69 7
  94 0020 7B68     		ldr	r3, [r7, #4]
  95 0022 0C33     		adds	r3, r3, #12
  96 0024 FA78     		ldrb	r2, [r7, #3]	@ zero_extendqisi2
  97 0026 1146     		mov	r1, r2
  98 0028 1846     		mov	r0, r3
  99 002a FFF7FEFF 		bl	iqPutI
 100 002e 0346     		mov	r3, r0
 101              		.loc 2 69 6
 102 0030 002B     		cmp	r3, #0
 103 0032 06DA     		bge	.L5
 104              		.loc 2 70 5
 105 0034 7B68     		ldr	r3, [r7, #4]
 106 0036 0433     		adds	r3, r3, #4
 107 0038 4FF40061 		mov	r1, #2048
 108 003c 1846     		mov	r0, r3
 109 003e FFF7FEFF 		bl	osalEventBroadcastFlagsI
 110              	.L5:
 111              		.loc 2 72 1
 112 0042 00BF     		nop
 113 0044 0837     		adds	r7, r7, #8
 114              		.cfi_def_cfa_offset 8
ARM GAS  C:\Users\DEVELO~1\AppData\Local\Temp\cc4ViyBo.s 			page 3


 115 0046 BD46     		mov	sp, r7
 116              		.cfi_def_cfa_register 13
 117              		@ sp needed
 118 0048 80BD     		pop	{r7, pc}
 119              		.cfi_endproc
 120              	.LFE432:
 121              		.size	bsIncomingDataI, .-bsIncomingDataI
 122              		.section	.text.bsRequestDataI,"ax",%progbits
 123              		.align	1
 124              		.global	bsRequestDataI
 125              		.syntax unified
 126              		.thumb
 127              		.thumb_func
 128              		.type	bsRequestDataI, %function
 129              	bsRequestDataI:
 130              	.LFB433:
 131              		.loc 2 88 43
 132              		.cfi_startproc
 133              		@ args = 0, pretend = 0, frame = 16
 134              		@ frame_needed = 1, uses_anonymous_args = 0
 135 0000 80B5     		push	{r7, lr}
 136              		.cfi_def_cfa_offset 8
 137              		.cfi_offset 7, -8
 138              		.cfi_offset 14, -4
 139 0002 84B0     		sub	sp, sp, #16
 140              		.cfi_def_cfa_offset 24
 141 0004 00AF     		add	r7, sp, #0
 142              		.cfi_def_cfa_register 7
 143 0006 7860     		str	r0, [r7, #4]
 144              		.loc 2 94 7
 145 0008 7B68     		ldr	r3, [r7, #4]
 146 000a 3033     		adds	r3, r3, #48
 147 000c 1846     		mov	r0, r3
 148 000e FFF7FEFF 		bl	oqGetI
 149 0012 F860     		str	r0, [r7, #12]
 150              		.loc 2 95 6
 151 0014 FB68     		ldr	r3, [r7, #12]
 152 0016 002B     		cmp	r3, #0
 153 0018 05DA     		bge	.L7
 154              		.loc 2 96 5
 155 001a 7B68     		ldr	r3, [r7, #4]
 156 001c 0433     		adds	r3, r3, #4
 157 001e 0821     		movs	r1, #8
 158 0020 1846     		mov	r0, r3
 159 0022 FFF7FEFF 		bl	osalEventBroadcastFlagsI
 160              	.L7:
 161              		.loc 2 99 10
 162 0026 FB68     		ldr	r3, [r7, #12]
 163              		.loc 2 100 1
 164 0028 1846     		mov	r0, r3
 165 002a 1037     		adds	r7, r7, #16
 166              		.cfi_def_cfa_offset 8
 167 002c BD46     		mov	sp, r7
 168              		.cfi_def_cfa_register 13
 169              		@ sp needed
 170 002e 80BD     		pop	{r7, pc}
 171              		.cfi_endproc
ARM GAS  C:\Users\DEVELO~1\AppData\Local\Temp\cc4ViyBo.s 			page 4


 172              	.LFE433:
 173              		.size	bsRequestDataI, .-bsRequestDataI
 174              		.text
 175              	.Letext0:
 176              		.file 3 "c:\\chibistudio\\tools\\gnu tools arm embedded\\11.3 2022.08\\lib\\gcc\\arm-none-eabi\\11
 177              		.file 4 "c:\\chibistudio\\tools\\gnu tools arm embedded\\11.3 2022.08\\arm-none-eabi\\include\\mac
 178              		.file 5 "c:\\chibistudio\\tools\\gnu tools arm embedded\\11.3 2022.08\\arm-none-eabi\\include\\sys
 179              		.file 6 "../../../os/common/ports/ARM-common/chtypes.h"
 180              		.file 7 "../../../os/rt/include/chearly.h"
 181              		.file 8 "../../../os/rt/include/chobjects.h"
 182              		.file 9 "../../../os/rt/include/chrfcu.h"
 183              		.file 10 "../../../os/rt/include/chdebug.h"
 184              		.file 11 "../../../os/rt/include/chtime.h"
 185              		.file 12 "../../../os/rt/include/chlists.h"
 186              		.file 13 "../../../os/rt/include/chtrace.h"
 187              		.file 14 "../../../os/common/ports/ARMv7-M/chcore.h"
 188              		.file 15 "../../../os/rt/include/chsem.h"
 189              		.file 16 "../../../os/rt/include/chmtx.h"
 190              		.file 17 "../../../os/rt/include/chevents.h"
 191              		.file 18 "../../../os/hal/include/hal_queues.h"
 192              		.file 19 "../../../os/hal/include/hal_buffered_serial.h"