ARM GAS  C:\Users\DEVELO~1\AppData\Local\Temp\ccnjsgLn.s 			page 1


   1              		.cpu cortex-m7
   2              		.arch armv7e-m
   3              		.fpu softvfp
   4              		.eabi_attribute 20, 1
   5              		.eabi_attribute 21, 1
   6              		.eabi_attribute 23, 3
   7              		.eabi_attribute 24, 1
   8              		.eabi_attribute 25, 1
   9              		.eabi_attribute 26, 1
  10              		.eabi_attribute 30, 6
  11              		.eabi_attribute 34, 1
  12              		.eabi_attribute 18, 4
  13              		.file	"hal_sdram.c"
  14              		.text
  15              	.Ltext0:
  16              		.cfi_sections	.debug_frame
  17              		.section	.text.chSysLock,"ax",%progbits
  18              		.align	1
  19              		.syntax unified
  20              		.thumb
  21              		.thumb_func
  22              		.type	chSysLock, %function
  23              	chSysLock:
  24              	.LFB202:
  25              		.file 1 "../../../os/rt/include/chsys.h"
  26              		.loc 1 407 36
  27              		.cfi_startproc
  28              		@ args = 0, pretend = 0, frame = 8
  29              		@ frame_needed = 1, uses_anonymous_args = 0
  30              		@ link register save eliminated.
  31 0000 80B4     		push	{r7}
  32              		.cfi_def_cfa_offset 4
  33              		.cfi_offset 7, -4
  34 0002 83B0     		sub	sp, sp, #12
  35              		.cfi_def_cfa_offset 16
  36 0004 00AF     		add	r7, sp, #0
  37              		.cfi_def_cfa_register 7
  38 0006 3023     		movs	r3, #48
  39 0008 7B60     		str	r3, [r7, #4]
  40              	.LBB14:
  41              	.LBB15:
  42              	.LBB16:
  43              	.LBB17:
  44              		.file 2 "../../../os/common/ext/ARM/CMSIS/Core/Include/cmsis_gcc.h"
  45              		.loc 2 493 3
  46 000a 7B68     		ldr	r3, [r7, #4]
  47              		.syntax unified
  48              	@ 493 "../../../os/common/ext/ARM/CMSIS/Core/Include/cmsis_gcc.h" 1
  49 000c 83F31188 		MSR basepri, r3
  50              	@ 0 "" 2
  51              		.loc 2 494 1
  52              		.thumb
  53              		.syntax unified
  54 0010 00BF     		nop
  55              	.LBE17:
  56              	.LBE16:
  57              		.file 3 "../../../os/common/ports/ARMv7-M/chcore.h"
ARM GAS  C:\Users\DEVELO~1\AppData\Local\Temp\ccnjsgLn.s 			page 2


  58              		.loc 3 840 1
  59 0012 00BF     		nop
  60              	.LBE15:
  61              	.LBE14:
  62              		.loc 1 412 1
  63 0014 00BF     		nop
  64 0016 0C37     		adds	r7, r7, #12
  65              		.cfi_def_cfa_offset 4
  66 0018 BD46     		mov	sp, r7
  67              		.cfi_def_cfa_register 13
  68              		@ sp needed
  69 001a 80BC     		pop	{r7}
  70              		.cfi_restore 7
  71              		.cfi_def_cfa_offset 0
  72 001c 7047     		bx	lr
  73              		.cfi_endproc
  74              	.LFE202:
  75              		.size	chSysLock, .-chSysLock
  76              		.section	.text.chSysUnlock,"ax",%progbits
  77              		.align	1
  78              		.syntax unified
  79              		.thumb
  80              		.thumb_func
  81              		.type	chSysUnlock, %function
  82              	chSysUnlock:
  83              	.LFB203:
  84              		.loc 1 421 38
  85              		.cfi_startproc
  86              		@ args = 0, pretend = 0, frame = 8
  87              		@ frame_needed = 1, uses_anonymous_args = 0
  88              		@ link register save eliminated.
  89 0000 80B4     		push	{r7}
  90              		.cfi_def_cfa_offset 4
  91              		.cfi_offset 7, -4
  92 0002 83B0     		sub	sp, sp, #12
  93              		.cfi_def_cfa_offset 16
  94 0004 00AF     		add	r7, sp, #0
  95              		.cfi_def_cfa_register 7
  96 0006 0023     		movs	r3, #0
  97 0008 7B60     		str	r3, [r7, #4]
  98              	.LBB18:
  99              	.LBB19:
 100              	.LBB20:
 101              	.LBB21:
 102              		.loc 2 493 3
 103 000a 7B68     		ldr	r3, [r7, #4]
 104              		.syntax unified
 105              	@ 493 "../../../os/common/ext/ARM/CMSIS/Core/Include/cmsis_gcc.h" 1
 106 000c 83F31188 		MSR basepri, r3
 107              	@ 0 "" 2
 108              		.loc 2 494 1
 109              		.thumb
 110              		.syntax unified
 111 0010 00BF     		nop
 112              	.LBE21:
 113              	.LBE20:
 114              		.loc 3 854 1
ARM GAS  C:\Users\DEVELO~1\AppData\Local\Temp\ccnjsgLn.s 			page 3


 115 0012 00BF     		nop
 116              	.LBE19:
 117              	.LBE18:
 118              		.loc 1 435 1
 119 0014 00BF     		nop
 120 0016 0C37     		adds	r7, r7, #12
 121              		.cfi_def_cfa_offset 4
 122 0018 BD46     		mov	sp, r7
 123              		.cfi_def_cfa_register 13
 124              		@ sp needed
 125 001a 80BC     		pop	{r7}
 126              		.cfi_restore 7
 127              		.cfi_def_cfa_offset 0
 128 001c 7047     		bx	lr
 129              		.cfi_endproc
 130              	.LFE203:
 131              		.size	chSysUnlock, .-chSysUnlock
 132              		.section	.text.osalSysLock,"ax",%progbits
 133              		.align	1
 134              		.syntax unified
 135              		.thumb
 136              		.thumb_func
 137              		.type	osalSysLock, %function
 138              	osalSysLock:
 139              	.LFB350:
 140              		.file 4 "../../../os/hal/osal/rt-nil/osal.h"
 141              		.loc 4 573 38
 142              		.cfi_startproc
 143              		@ args = 0, pretend = 0, frame = 0
 144              		@ frame_needed = 1, uses_anonymous_args = 0
 145 0000 80B5     		push	{r7, lr}
 146              		.cfi_def_cfa_offset 8
 147              		.cfi_offset 7, -8
 148              		.cfi_offset 14, -4
 149 0002 00AF     		add	r7, sp, #0
 150              		.cfi_def_cfa_register 7
 151              		.loc 4 575 3
 152 0004 FFF7FEFF 		bl	chSysLock
 153              		.loc 4 576 1
 154 0008 00BF     		nop
 155 000a 80BD     		pop	{r7, pc}
 156              		.cfi_endproc
 157              	.LFE350:
 158              		.size	osalSysLock, .-osalSysLock
 159              		.section	.text.osalSysUnlock,"ax",%progbits
 160              		.align	1
 161              		.syntax unified
 162              		.thumb
 163              		.thumb_func
 164              		.type	osalSysUnlock, %function
 165              	osalSysUnlock:
 166              	.LFB351:
 167              		.loc 4 584 40
 168              		.cfi_startproc
 169              		@ args = 0, pretend = 0, frame = 0
 170              		@ frame_needed = 1, uses_anonymous_args = 0
 171 0000 80B5     		push	{r7, lr}
ARM GAS  C:\Users\DEVELO~1\AppData\Local\Temp\ccnjsgLn.s 			page 4


 172              		.cfi_def_cfa_offset 8
 173              		.cfi_offset 7, -8
 174              		.cfi_offset 14, -4
 175 0002 00AF     		add	r7, sp, #0
 176              		.cfi_def_cfa_register 7
 177              		.loc 4 586 3
 178 0004 FFF7FEFF 		bl	chSysUnlock
 179              		.loc 4 587 1
 180 0008 00BF     		nop
 181 000a 80BD     		pop	{r7, pc}
 182              		.cfi_endproc
 183              	.LFE351:
 184              		.size	osalSysUnlock, .-osalSysUnlock
 185              		.section	.text.sdramInit,"ax",%progbits
 186              		.align	1
 187              		.global	sdramInit
 188              		.syntax unified
 189              		.thumb
 190              		.thumb_func
 191              		.type	sdramInit, %function
 192              	sdramInit:
 193              	.LFB432:
 194              		.file 5 "../../../ChibiOS-Contrib-chibios-21.11.x/os/hal/src/hal_sdram.c"
 195              		.loc 5 60 22
 196              		.cfi_startproc
 197              		@ args = 0, pretend = 0, frame = 0
 198              		@ frame_needed = 1, uses_anonymous_args = 0
 199 0000 80B5     		push	{r7, lr}
 200              		.cfi_def_cfa_offset 8
 201              		.cfi_offset 7, -8
 202              		.cfi_offset 14, -4
 203 0002 00AF     		add	r7, sp, #0
 204              		.cfi_def_cfa_register 7
 205              		.loc 5 61 3
 206 0004 FFF7FEFF 		bl	fsmcInit
 207              		.loc 5 62 3
 208 0008 0248     		ldr	r0, .L6
 209 000a FFF7FEFF 		bl	sdramObjectInit
 210              		.loc 5 63 1
 211 000e 00BF     		nop
 212 0010 80BD     		pop	{r7, pc}
 213              	.L7:
 214 0012 00BF     		.align	2
 215              	.L6:
 216 0014 00000000 		.word	SDRAMD1
 217              		.cfi_endproc
 218              	.LFE432:
 219              		.size	sdramInit, .-sdramInit
 220              		.section	.text.sdramObjectInit,"ax",%progbits
 221              		.align	1
 222              		.global	sdramObjectInit
 223              		.syntax unified
 224              		.thumb
 225              		.thumb_func
 226              		.type	sdramObjectInit, %function
 227              	sdramObjectInit:
 228              	.LFB433:
ARM GAS  C:\Users\DEVELO~1\AppData\Local\Temp\ccnjsgLn.s 			page 5


 229              		.loc 5 72 43
 230              		.cfi_startproc
 231              		@ args = 0, pretend = 0, frame = 8
 232              		@ frame_needed = 1, uses_anonymous_args = 0
 233              		@ link register save eliminated.
 234 0000 80B4     		push	{r7}
 235              		.cfi_def_cfa_offset 4
 236              		.cfi_offset 7, -4
 237 0002 83B0     		sub	sp, sp, #12
 238              		.cfi_def_cfa_offset 16
 239 0004 00AF     		add	r7, sp, #0
 240              		.cfi_def_cfa_register 7
 241 0006 7860     		str	r0, [r7, #4]
 242              		.loc 5 74 25
 243 0008 054B     		ldr	r3, .L9
 244 000a 5A68     		ldr	r2, [r3, #4]
 245              		.loc 5 74 17
 246 000c 7B68     		ldr	r3, [r7, #4]
 247 000e 5A60     		str	r2, [r3, #4]
 248              		.loc 5 75 18
 249 0010 7B68     		ldr	r3, [r7, #4]
 250 0012 0122     		movs	r2, #1
 251 0014 1A70     		strb	r2, [r3]
 252              		.loc 5 76 1
 253 0016 00BF     		nop
 254 0018 0C37     		adds	r7, r7, #12
 255              		.cfi_def_cfa_offset 4
 256 001a BD46     		mov	sp, r7
 257              		.cfi_def_cfa_register 13
 258              		@ sp needed
 259 001c 80BC     		pop	{r7}
 260              		.cfi_restore 7
 261              		.cfi_def_cfa_offset 0
 262 001e 7047     		bx	lr
 263              	.L10:
 264              		.align	2
 265              	.L9:
 266 0020 00000000 		.word	FSMCD1
 267              		.cfi_endproc
 268              	.LFE433:
 269              		.size	sdramObjectInit, .-sdramObjectInit
 270              		.section	.text.sdramStart,"ax",%progbits
 271              		.align	1
 272              		.global	sdramStart
 273              		.syntax unified
 274              		.thumb
 275              		.thumb_func
 276              		.type	sdramStart, %function
 277              	sdramStart:
 278              	.LFB434:
 279              		.loc 5 86 65
 280              		.cfi_startproc
 281              		@ args = 0, pretend = 0, frame = 8
 282              		@ frame_needed = 1, uses_anonymous_args = 0
 283 0000 80B5     		push	{r7, lr}
 284              		.cfi_def_cfa_offset 8
 285              		.cfi_offset 7, -8
ARM GAS  C:\Users\DEVELO~1\AppData\Local\Temp\ccnjsgLn.s 			page 6


 286              		.cfi_offset 14, -4
 287 0002 82B0     		sub	sp, sp, #8
 288              		.cfi_def_cfa_offset 16
 289 0004 00AF     		add	r7, sp, #0
 290              		.cfi_def_cfa_register 7
 291 0006 7860     		str	r0, [r7, #4]
 292 0008 3960     		str	r1, [r7]
 293              		.loc 5 90 13
 294 000a 0B4B     		ldr	r3, .L13
 295 000c 1B78     		ldrb	r3, [r3]	@ zero_extendqisi2
 296              		.loc 5 90 6
 297 000e 012B     		cmp	r3, #1
 298 0010 02D1     		bne	.L12
 299              		.loc 5 91 5
 300 0012 0948     		ldr	r0, .L13
 301 0014 FFF7FEFF 		bl	fsmcStart
 302              	.L12:
 303              		.loc 5 93 3
 304 0018 FFF7FEFF 		bl	osalSysLock
 305              		.loc 5 96 3
 306 001c 3968     		ldr	r1, [r7]
 307 001e 7868     		ldr	r0, [r7, #4]
 308 0020 FFF7FEFF 		bl	sdram_lld_start
 309              		.loc 5 97 17
 310 0024 7B68     		ldr	r3, [r7, #4]
 311 0026 0222     		movs	r2, #2
 312 0028 1A70     		strb	r2, [r3]
 313              		.loc 5 98 3
 314 002a FFF7FEFF 		bl	osalSysUnlock
 315              		.loc 5 99 1
 316 002e 00BF     		nop
 317 0030 0837     		adds	r7, r7, #8
 318              		.cfi_def_cfa_offset 8
 319 0032 BD46     		mov	sp, r7
 320              		.cfi_def_cfa_register 13
 321              		@ sp needed
 322 0034 80BD     		pop	{r7, pc}
 323              	.L14:
 324 0036 00BF     		.align	2
 325              	.L13:
 326 0038 00000000 		.word	FSMCD1
 327              		.cfi_endproc
 328              	.LFE434:
 329              		.size	sdramStart, .-sdramStart
 330              		.section	.text.sdramStop,"ax",%progbits
 331              		.align	1
 332              		.global	sdramStop
 333              		.syntax unified
 334              		.thumb
 335              		.thumb_func
 336              		.type	sdramStop, %function
 337              	sdramStop:
 338              	.LFB435:
 339              		.loc 5 108 37
 340              		.cfi_startproc
 341              		@ args = 0, pretend = 0, frame = 8
 342              		@ frame_needed = 1, uses_anonymous_args = 0
ARM GAS  C:\Users\DEVELO~1\AppData\Local\Temp\ccnjsgLn.s 			page 7


 343 0000 80B5     		push	{r7, lr}
 344              		.cfi_def_cfa_offset 8
 345              		.cfi_offset 7, -8
 346              		.cfi_offset 14, -4
 347 0002 82B0     		sub	sp, sp, #8
 348              		.cfi_def_cfa_offset 16
 349 0004 00AF     		add	r7, sp, #0
 350              		.cfi_def_cfa_register 7
 351 0006 7860     		str	r0, [r7, #4]
 352              		.loc 5 112 3
 353 0008 FFF7FEFF 		bl	osalSysLock
 354              		.loc 5 115 3
 355 000c 7868     		ldr	r0, [r7, #4]
 356 000e FFF7FEFF 		bl	sdram_lld_stop
 357              		.loc 5 116 17
 358 0012 7B68     		ldr	r3, [r7, #4]
 359 0014 0122     		movs	r2, #1
 360 0016 1A70     		strb	r2, [r3]
 361              		.loc 5 117 3
 362 0018 FFF7FEFF 		bl	osalSysUnlock
 363              		.loc 5 118 1
 364 001c 00BF     		nop
 365 001e 0837     		adds	r7, r7, #8
 366              		.cfi_def_cfa_offset 8
 367 0020 BD46     		mov	sp, r7
 368              		.cfi_def_cfa_register 13
 369              		@ sp needed
 370 0022 80BD     		pop	{r7, pc}
 371              		.cfi_endproc
 372              	.LFE435:
 373              		.size	sdramStop, .-sdramStop
 374              		.text
 375              	.Letext0:
 376              		.file 6 "c:\\chibistudio\\tools\\gnu tools arm embedded\\11.3 2022.08\\arm-none-eabi\\include\\mac
 377              		.file 7 "c:\\chibistudio\\tools\\gnu tools arm embedded\\11.3 2022.08\\arm-none-eabi\\include\\sys
 378              		.file 8 "../../../ChibiOS-Contrib-chibios-21.11.x/os/hal/include/hal_fsmc.h"
 379              		.file 9 "../../../ChibiOS-Contrib-chibios-21.11.x/os/hal/include/hal_sdram.h"
 380              		.file 10 "../../../ChibiOS-Contrib-chibios-21.11.x/os/hal/ports/STM32/LLD/FSMCv1/hal_sdram_lld.h"