ARM GAS  C:\Users\DEVELO~1\AppData\Local\Temp\cceO3YBA.s 			page 1


   1              		.cpu cortex-m7
   2              		.arch armv7e-m
   3              		.fpu softvfp
   4              		.eabi_attribute 20, 1
   5              		.eabi_attribute 21, 1
   6              		.eabi_attribute 23, 3
   7              		.eabi_attribute 24, 1
   8              		.eabi_attribute 25, 1
   9              		.eabi_attribute 26, 1
  10              		.eabi_attribute 30, 6
  11              		.eabi_attribute 34, 1
  12              		.eabi_attribute 18, 4
  13              		.file	"hal_serial.c"
  14              		.text
  15              	.Ltext0:
  16              		.cfi_sections	.debug_frame
  17              		.section	.text.chSysLock,"ax",%progbits
  18              		.align	1
  19              		.syntax unified
  20              		.thumb
  21              		.thumb_func
  22              		.type	chSysLock, %function
  23              	chSysLock:
  24              	.LFB202:
  25              		.file 1 "../../../os/rt/include/chsys.h"
  26              		.loc 1 407 36
  27              		.cfi_startproc
  28              		@ args = 0, pretend = 0, frame = 8
  29              		@ frame_needed = 1, uses_anonymous_args = 0
  30              		@ link register save eliminated.
  31 0000 80B4     		push	{r7}
  32              		.cfi_def_cfa_offset 4
  33              		.cfi_offset 7, -4
  34 0002 83B0     		sub	sp, sp, #12
  35              		.cfi_def_cfa_offset 16
  36 0004 00AF     		add	r7, sp, #0
  37              		.cfi_def_cfa_register 7
  38 0006 3023     		movs	r3, #48
  39 0008 7B60     		str	r3, [r7, #4]
  40              	.LBB14:
  41              	.LBB15:
  42              	.LBB16:
  43              	.LBB17:
  44              		.file 2 "../../../os/common/ext/ARM/CMSIS/Core/Include/cmsis_gcc.h"
  45              		.loc 2 493 3
  46 000a 7B68     		ldr	r3, [r7, #4]
  47              		.syntax unified
  48              	@ 493 "../../../os/common/ext/ARM/CMSIS/Core/Include/cmsis_gcc.h" 1
  49 000c 83F31188 		MSR basepri, r3
  50              	@ 0 "" 2
  51              		.loc 2 494 1
  52              		.thumb
  53              		.syntax unified
  54 0010 00BF     		nop
  55              	.LBE17:
  56              	.LBE16:
  57              		.file 3 "../../../os/common/ports/ARMv7-M/chcore.h"
ARM GAS  C:\Users\DEVELO~1\AppData\Local\Temp\cceO3YBA.s 			page 2


  58              		.loc 3 840 1
  59 0012 00BF     		nop
  60              	.LBE15:
  61              	.LBE14:
  62              		.loc 1 412 1
  63 0014 00BF     		nop
  64 0016 0C37     		adds	r7, r7, #12
  65              		.cfi_def_cfa_offset 4
  66 0018 BD46     		mov	sp, r7
  67              		.cfi_def_cfa_register 13
  68              		@ sp needed
  69 001a 80BC     		pop	{r7}
  70              		.cfi_restore 7
  71              		.cfi_def_cfa_offset 0
  72 001c 7047     		bx	lr
  73              		.cfi_endproc
  74              	.LFE202:
  75              		.size	chSysLock, .-chSysLock
  76              		.section	.text.chSysUnlock,"ax",%progbits
  77              		.align	1
  78              		.syntax unified
  79              		.thumb
  80              		.thumb_func
  81              		.type	chSysUnlock, %function
  82              	chSysUnlock:
  83              	.LFB203:
  84              		.loc 1 421 38
  85              		.cfi_startproc
  86              		@ args = 0, pretend = 0, frame = 8
  87              		@ frame_needed = 1, uses_anonymous_args = 0
  88              		@ link register save eliminated.
  89 0000 80B4     		push	{r7}
  90              		.cfi_def_cfa_offset 4
  91              		.cfi_offset 7, -4
  92 0002 83B0     		sub	sp, sp, #12
  93              		.cfi_def_cfa_offset 16
  94 0004 00AF     		add	r7, sp, #0
  95              		.cfi_def_cfa_register 7
  96 0006 0023     		movs	r3, #0
  97 0008 7B60     		str	r3, [r7, #4]
  98              	.LBB18:
  99              	.LBB19:
 100              	.LBB20:
 101              	.LBB21:
 102              		.loc 2 493 3
 103 000a 7B68     		ldr	r3, [r7, #4]
 104              		.syntax unified
 105              	@ 493 "../../../os/common/ext/ARM/CMSIS/Core/Include/cmsis_gcc.h" 1
 106 000c 83F31188 		MSR basepri, r3
 107              	@ 0 "" 2
 108              		.loc 2 494 1
 109              		.thumb
 110              		.syntax unified
 111 0010 00BF     		nop
 112              	.LBE21:
 113              	.LBE20:
 114              		.loc 3 854 1
ARM GAS  C:\Users\DEVELO~1\AppData\Local\Temp\cceO3YBA.s 			page 3


 115 0012 00BF     		nop
 116              	.LBE19:
 117              	.LBE18:
 118              		.loc 1 435 1
 119 0014 00BF     		nop
 120 0016 0C37     		adds	r7, r7, #12
 121              		.cfi_def_cfa_offset 4
 122 0018 BD46     		mov	sp, r7
 123              		.cfi_def_cfa_register 13
 124              		@ sp needed
 125 001a 80BC     		pop	{r7}
 126              		.cfi_restore 7
 127              		.cfi_def_cfa_offset 0
 128 001c 7047     		bx	lr
 129              		.cfi_endproc
 130              	.LFE203:
 131              		.size	chSysUnlock, .-chSysUnlock
 132              		.section	.text.chEvtObjectInit,"ax",%progbits
 133              		.align	1
 134              		.syntax unified
 135              		.thumb
 136              		.thumb_func
 137              		.type	chEvtObjectInit, %function
 138              	chEvtObjectInit:
 139              	.LFB251:
 140              		.file 4 "../../../os/rt/include/chevents.h"
 141              		.loc 4 175 57
 142              		.cfi_startproc
 143              		@ args = 0, pretend = 0, frame = 8
 144              		@ frame_needed = 1, uses_anonymous_args = 0
 145              		@ link register save eliminated.
 146 0000 80B4     		push	{r7}
 147              		.cfi_def_cfa_offset 4
 148              		.cfi_offset 7, -4
 149 0002 83B0     		sub	sp, sp, #12
 150              		.cfi_def_cfa_offset 16
 151 0004 00AF     		add	r7, sp, #0
 152              		.cfi_def_cfa_register 7
 153 0006 7860     		str	r0, [r7, #4]
 154              		.loc 4 177 13
 155 0008 7B68     		ldr	r3, [r7, #4]
 156 000a 7A68     		ldr	r2, [r7, #4]
 157 000c 1A60     		str	r2, [r3]
 158              		.loc 4 178 1
 159 000e 00BF     		nop
 160 0010 0C37     		adds	r7, r7, #12
 161              		.cfi_def_cfa_offset 4
 162 0012 BD46     		mov	sp, r7
 163              		.cfi_def_cfa_register 13
 164              		@ sp needed
 165 0014 80BC     		pop	{r7}
 166              		.cfi_restore 7
 167              		.cfi_def_cfa_offset 0
 168 0016 7047     		bx	lr
 169              		.cfi_endproc
 170              	.LFE251:
 171              		.size	chEvtObjectInit, .-chEvtObjectInit
ARM GAS  C:\Users\DEVELO~1\AppData\Local\Temp\cceO3YBA.s 			page 4


 172              		.section	.text.osalSysLock,"ax",%progbits
 173              		.align	1
 174              		.syntax unified
 175              		.thumb
 176              		.thumb_func
 177              		.type	osalSysLock, %function
 178              	osalSysLock:
 179              	.LFB350:
 180              		.file 5 "../../../os/hal/osal/rt-nil/osal.h"
 181              		.loc 5 573 38
 182              		.cfi_startproc
 183              		@ args = 0, pretend = 0, frame = 0
 184              		@ frame_needed = 1, uses_anonymous_args = 0
 185 0000 80B5     		push	{r7, lr}
 186              		.cfi_def_cfa_offset 8
 187              		.cfi_offset 7, -8
 188              		.cfi_offset 14, -4
 189 0002 00AF     		add	r7, sp, #0
 190              		.cfi_def_cfa_register 7
 191              		.loc 5 575 3
 192 0004 FFF7FEFF 		bl	chSysLock
 193              		.loc 5 576 1
 194 0008 00BF     		nop
 195 000a 80BD     		pop	{r7, pc}
 196              		.cfi_endproc
 197              	.LFE350:
 198              		.size	osalSysLock, .-osalSysLock
 199              		.section	.text.osalSysUnlock,"ax",%progbits
 200              		.align	1
 201              		.syntax unified
 202              		.thumb
 203              		.thumb_func
 204              		.type	osalSysUnlock, %function
 205              	osalSysUnlock:
 206              	.LFB351:
 207              		.loc 5 584 40
 208              		.cfi_startproc
 209              		@ args = 0, pretend = 0, frame = 0
 210              		@ frame_needed = 1, uses_anonymous_args = 0
 211 0000 80B5     		push	{r7, lr}
 212              		.cfi_def_cfa_offset 8
 213              		.cfi_offset 7, -8
 214              		.cfi_offset 14, -4
 215 0002 00AF     		add	r7, sp, #0
 216              		.cfi_def_cfa_register 7
 217              		.loc 5 586 3
 218 0004 FFF7FEFF 		bl	chSysUnlock
 219              		.loc 5 587 1
 220 0008 00BF     		nop
 221 000a 80BD     		pop	{r7, pc}
 222              		.cfi_endproc
 223              	.LFE351:
 224              		.size	osalSysUnlock, .-osalSysUnlock
 225              		.section	.text.osalOsRescheduleS,"ax",%progbits
 226              		.align	1
 227              		.syntax unified
 228              		.thumb
ARM GAS  C:\Users\DEVELO~1\AppData\Local\Temp\cceO3YBA.s 			page 5


 229              		.thumb_func
 230              		.type	osalOsRescheduleS, %function
 231              	osalOsRescheduleS:
 232              	.LFB358:
 233              		.loc 5 680 44
 234              		.cfi_startproc
 235              		@ args = 0, pretend = 0, frame = 0
 236              		@ frame_needed = 1, uses_anonymous_args = 0
 237 0000 80B5     		push	{r7, lr}
 238              		.cfi_def_cfa_offset 8
 239              		.cfi_offset 7, -8
 240              		.cfi_offset 14, -4
 241 0002 00AF     		add	r7, sp, #0
 242              		.cfi_def_cfa_register 7
 243              		.loc 5 682 3
 244 0004 FFF7FEFF 		bl	chSchRescheduleS
 245              		.loc 5 683 1
 246 0008 00BF     		nop
 247 000a 80BD     		pop	{r7, pc}
 248              		.cfi_endproc
 249              	.LFE358:
 250              		.size	osalOsRescheduleS, .-osalOsRescheduleS
 251              		.section	.text.osalEventObjectInit,"ax",%progbits
 252              		.align	1
 253              		.syntax unified
 254              		.thumb
 255              		.thumb_func
 256              		.type	osalEventObjectInit, %function
 257              	osalEventObjectInit:
 258              	.LFB373:
 259              		.loc 5 932 61
 260              		.cfi_startproc
 261              		@ args = 0, pretend = 0, frame = 8
 262              		@ frame_needed = 1, uses_anonymous_args = 0
 263 0000 80B5     		push	{r7, lr}
 264              		.cfi_def_cfa_offset 8
 265              		.cfi_offset 7, -8
 266              		.cfi_offset 14, -4
 267 0002 82B0     		sub	sp, sp, #8
 268              		.cfi_def_cfa_offset 16
 269 0004 00AF     		add	r7, sp, #0
 270              		.cfi_def_cfa_register 7
 271 0006 7860     		str	r0, [r7, #4]
 272              		.loc 5 934 3
 273 0008 7868     		ldr	r0, [r7, #4]
 274 000a FFF7FEFF 		bl	chEvtObjectInit
 275              		.loc 5 935 1
 276 000e 00BF     		nop
 277 0010 0837     		adds	r7, r7, #8
 278              		.cfi_def_cfa_offset 8
 279 0012 BD46     		mov	sp, r7
 280              		.cfi_def_cfa_register 13
 281              		@ sp needed
 282 0014 80BD     		pop	{r7, pc}
 283              		.cfi_endproc
 284              	.LFE373:
 285              		.size	osalEventObjectInit, .-osalEventObjectInit
ARM GAS  C:\Users\DEVELO~1\AppData\Local\Temp\cceO3YBA.s 			page 6


 286              		.section	.text.osalEventBroadcastFlagsI,"ax",%progbits
 287              		.align	1
 288              		.syntax unified
 289              		.thumb
 290              		.thumb_func
 291              		.type	osalEventBroadcastFlagsI, %function
 292              	osalEventBroadcastFlagsI:
 293              	.LFB374:
 294              		.loc 5 957 65
 295              		.cfi_startproc
 296              		@ args = 0, pretend = 0, frame = 8
 297              		@ frame_needed = 1, uses_anonymous_args = 0
 298 0000 80B5     		push	{r7, lr}
 299              		.cfi_def_cfa_offset 8
 300              		.cfi_offset 7, -8
 301              		.cfi_offset 14, -4
 302 0002 82B0     		sub	sp, sp, #8
 303              		.cfi_def_cfa_offset 16
 304 0004 00AF     		add	r7, sp, #0
 305              		.cfi_def_cfa_register 7
 306 0006 7860     		str	r0, [r7, #4]
 307 0008 3960     		str	r1, [r7]
 308              		.loc 5 959 3
 309 000a 3968     		ldr	r1, [r7]
 310 000c 7868     		ldr	r0, [r7, #4]
 311 000e FFF7FEFF 		bl	chEvtBroadcastFlagsI
 312              		.loc 5 960 1
 313 0012 00BF     		nop
 314 0014 0837     		adds	r7, r7, #8
 315              		.cfi_def_cfa_offset 8
 316 0016 BD46     		mov	sp, r7
 317              		.cfi_def_cfa_register 13
 318              		@ sp needed
 319 0018 80BD     		pop	{r7, pc}
 320              		.cfi_endproc
 321              	.LFE374:
 322              		.size	osalEventBroadcastFlagsI, .-osalEventBroadcastFlagsI
 323              		.section	.text._write,"ax",%progbits
 324              		.align	1
 325              		.syntax unified
 326              		.thumb
 327              		.thumb_func
 328              		.type	_write, %function
 329              	_write:
 330              	.LFB432:
 331              		.file 6 "../../../os/hal/src/hal_serial.c"
 332              		.loc 6 50 61
 333              		.cfi_startproc
 334              		@ args = 0, pretend = 0, frame = 16
 335              		@ frame_needed = 1, uses_anonymous_args = 0
 336 0000 80B5     		push	{r7, lr}
 337              		.cfi_def_cfa_offset 8
 338              		.cfi_offset 7, -8
 339              		.cfi_offset 14, -4
 340 0002 84B0     		sub	sp, sp, #16
 341              		.cfi_def_cfa_offset 24
 342 0004 00AF     		add	r7, sp, #0
ARM GAS  C:\Users\DEVELO~1\AppData\Local\Temp\cceO3YBA.s 			page 7


 343              		.cfi_def_cfa_register 7
 344 0006 F860     		str	r0, [r7, #12]
 345 0008 B960     		str	r1, [r7, #8]
 346 000a 7A60     		str	r2, [r7, #4]
 347              		.loc 6 52 10
 348 000c FB68     		ldr	r3, [r7, #12]
 349 000e 03F13000 		add	r0, r3, #48
 350 0012 4FF0FF33 		mov	r3, #-1
 351 0016 7A68     		ldr	r2, [r7, #4]
 352 0018 B968     		ldr	r1, [r7, #8]
 353 001a FFF7FEFF 		bl	oqWriteTimeout
 354 001e 0346     		mov	r3, r0
 355              		.loc 6 54 1
 356 0020 1846     		mov	r0, r3
 357 0022 1037     		adds	r7, r7, #16
 358              		.cfi_def_cfa_offset 8
 359 0024 BD46     		mov	sp, r7
 360              		.cfi_def_cfa_register 13
 361              		@ sp needed
 362 0026 80BD     		pop	{r7, pc}
 363              		.cfi_endproc
 364              	.LFE432:
 365              		.size	_write, .-_write
 366              		.section	.text._read,"ax",%progbits
 367              		.align	1
 368              		.syntax unified
 369              		.thumb
 370              		.thumb_func
 371              		.type	_read, %function
 372              	_read:
 373              	.LFB433:
 374              		.loc 6 56 54
 375              		.cfi_startproc
 376              		@ args = 0, pretend = 0, frame = 16
 377              		@ frame_needed = 1, uses_anonymous_args = 0
 378 0000 80B5     		push	{r7, lr}
 379              		.cfi_def_cfa_offset 8
 380              		.cfi_offset 7, -8
 381              		.cfi_offset 14, -4
 382 0002 84B0     		sub	sp, sp, #16
 383              		.cfi_def_cfa_offset 24
 384 0004 00AF     		add	r7, sp, #0
 385              		.cfi_def_cfa_register 7
 386 0006 F860     		str	r0, [r7, #12]
 387 0008 B960     		str	r1, [r7, #8]
 388 000a 7A60     		str	r2, [r7, #4]
 389              		.loc 6 58 10
 390 000c FB68     		ldr	r3, [r7, #12]
 391 000e 03F10C00 		add	r0, r3, #12
 392 0012 4FF0FF33 		mov	r3, #-1
 393 0016 7A68     		ldr	r2, [r7, #4]
 394 0018 B968     		ldr	r1, [r7, #8]
 395 001a FFF7FEFF 		bl	iqReadTimeout
 396 001e 0346     		mov	r3, r0
 397              		.loc 6 60 1
 398 0020 1846     		mov	r0, r3
 399 0022 1037     		adds	r7, r7, #16
ARM GAS  C:\Users\DEVELO~1\AppData\Local\Temp\cceO3YBA.s 			page 8


 400              		.cfi_def_cfa_offset 8
 401 0024 BD46     		mov	sp, r7
 402              		.cfi_def_cfa_register 13
 403              		@ sp needed
 404 0026 80BD     		pop	{r7, pc}
 405              		.cfi_endproc
 406              	.LFE433:
 407              		.size	_read, .-_read
 408              		.section	.text._put,"ax",%progbits
 409              		.align	1
 410              		.syntax unified
 411              		.thumb
 412              		.thumb_func
 413              		.type	_put, %function
 414              	_put:
 415              	.LFB434:
 416              		.loc 6 62 40
 417              		.cfi_startproc
 418              		@ args = 0, pretend = 0, frame = 8
 419              		@ frame_needed = 1, uses_anonymous_args = 0
 420 0000 80B5     		push	{r7, lr}
 421              		.cfi_def_cfa_offset 8
 422              		.cfi_offset 7, -8
 423              		.cfi_offset 14, -4
 424 0002 82B0     		sub	sp, sp, #8
 425              		.cfi_def_cfa_offset 16
 426 0004 00AF     		add	r7, sp, #0
 427              		.cfi_def_cfa_register 7
 428 0006 7860     		str	r0, [r7, #4]
 429 0008 0B46     		mov	r3, r1
 430 000a FB70     		strb	r3, [r7, #3]
 431              		.loc 6 64 10
 432 000c 7B68     		ldr	r3, [r7, #4]
 433 000e 3033     		adds	r3, r3, #48
 434 0010 F978     		ldrb	r1, [r7, #3]	@ zero_extendqisi2
 435 0012 4FF0FF32 		mov	r2, #-1
 436 0016 1846     		mov	r0, r3
 437 0018 FFF7FEFF 		bl	oqPutTimeout
 438 001c 0346     		mov	r3, r0
 439              		.loc 6 65 1
 440 001e 1846     		mov	r0, r3
 441 0020 0837     		adds	r7, r7, #8
 442              		.cfi_def_cfa_offset 8
 443 0022 BD46     		mov	sp, r7
 444              		.cfi_def_cfa_register 13
 445              		@ sp needed
 446 0024 80BD     		pop	{r7, pc}
 447              		.cfi_endproc
 448              	.LFE434:
 449              		.size	_put, .-_put
 450              		.section	.text._get,"ax",%progbits
 451              		.align	1
 452              		.syntax unified
 453              		.thumb
 454              		.thumb_func
 455              		.type	_get, %function
 456              	_get:
ARM GAS  C:\Users\DEVELO~1\AppData\Local\Temp\cceO3YBA.s 			page 9


 457              	.LFB435:
 458              		.loc 6 67 29
 459              		.cfi_startproc
 460              		@ args = 0, pretend = 0, frame = 8
 461              		@ frame_needed = 1, uses_anonymous_args = 0
 462 0000 80B5     		push	{r7, lr}
 463              		.cfi_def_cfa_offset 8
 464              		.cfi_offset 7, -8
 465              		.cfi_offset 14, -4
 466 0002 82B0     		sub	sp, sp, #8
 467              		.cfi_def_cfa_offset 16
 468 0004 00AF     		add	r7, sp, #0
 469              		.cfi_def_cfa_register 7
 470 0006 7860     		str	r0, [r7, #4]
 471              		.loc 6 69 10
 472 0008 7B68     		ldr	r3, [r7, #4]
 473 000a 0C33     		adds	r3, r3, #12
 474 000c 4FF0FF31 		mov	r1, #-1
 475 0010 1846     		mov	r0, r3
 476 0012 FFF7FEFF 		bl	iqGetTimeout
 477 0016 0346     		mov	r3, r0
 478              		.loc 6 70 1
 479 0018 1846     		mov	r0, r3
 480 001a 0837     		adds	r7, r7, #8
 481              		.cfi_def_cfa_offset 8
 482 001c BD46     		mov	sp, r7
 483              		.cfi_def_cfa_register 13
 484              		@ sp needed
 485 001e 80BD     		pop	{r7, pc}
 486              		.cfi_endproc
 487              	.LFE435:
 488              		.size	_get, .-_get
 489              		.section	.text._putt,"ax",%progbits
 490              		.align	1
 491              		.syntax unified
 492              		.thumb
 493              		.thumb_func
 494              		.type	_putt, %function
 495              	_putt:
 496              	.LFB436:
 497              		.loc 6 72 64
 498              		.cfi_startproc
 499              		@ args = 0, pretend = 0, frame = 16
 500              		@ frame_needed = 1, uses_anonymous_args = 0
 501 0000 80B5     		push	{r7, lr}
 502              		.cfi_def_cfa_offset 8
 503              		.cfi_offset 7, -8
 504              		.cfi_offset 14, -4
 505 0002 84B0     		sub	sp, sp, #16
 506              		.cfi_def_cfa_offset 24
 507 0004 00AF     		add	r7, sp, #0
 508              		.cfi_def_cfa_register 7
 509 0006 F860     		str	r0, [r7, #12]
 510 0008 0B46     		mov	r3, r1
 511 000a 7A60     		str	r2, [r7, #4]
 512 000c FB72     		strb	r3, [r7, #11]
 513              		.loc 6 74 10
ARM GAS  C:\Users\DEVELO~1\AppData\Local\Temp\cceO3YBA.s 			page 10


 514 000e FB68     		ldr	r3, [r7, #12]
 515 0010 3033     		adds	r3, r3, #48
 516 0012 F97A     		ldrb	r1, [r7, #11]	@ zero_extendqisi2
 517 0014 7A68     		ldr	r2, [r7, #4]
 518 0016 1846     		mov	r0, r3
 519 0018 FFF7FEFF 		bl	oqPutTimeout
 520 001c 0346     		mov	r3, r0
 521              		.loc 6 75 1
 522 001e 1846     		mov	r0, r3
 523 0020 1037     		adds	r7, r7, #16
 524              		.cfi_def_cfa_offset 8
 525 0022 BD46     		mov	sp, r7
 526              		.cfi_def_cfa_register 13
 527              		@ sp needed
 528 0024 80BD     		pop	{r7, pc}
 529              		.cfi_endproc
 530              	.LFE436:
 531              		.size	_putt, .-_putt
 532              		.section	.text._gett,"ax",%progbits
 533              		.align	1
 534              		.syntax unified
 535              		.thumb
 536              		.thumb_func
 537              		.type	_gett, %function
 538              	_gett:
 539              	.LFB437:
 540              		.loc 6 77 53
 541              		.cfi_startproc
 542              		@ args = 0, pretend = 0, frame = 8
 543              		@ frame_needed = 1, uses_anonymous_args = 0
 544 0000 80B5     		push	{r7, lr}
 545              		.cfi_def_cfa_offset 8
 546              		.cfi_offset 7, -8
 547              		.cfi_offset 14, -4
 548 0002 82B0     		sub	sp, sp, #8
 549              		.cfi_def_cfa_offset 16
 550 0004 00AF     		add	r7, sp, #0
 551              		.cfi_def_cfa_register 7
 552 0006 7860     		str	r0, [r7, #4]
 553 0008 3960     		str	r1, [r7]
 554              		.loc 6 79 10
 555 000a 7B68     		ldr	r3, [r7, #4]
 556 000c 0C33     		adds	r3, r3, #12
 557 000e 3968     		ldr	r1, [r7]
 558 0010 1846     		mov	r0, r3
 559 0012 FFF7FEFF 		bl	iqGetTimeout
 560 0016 0346     		mov	r3, r0
 561              		.loc 6 80 1
 562 0018 1846     		mov	r0, r3
 563 001a 0837     		adds	r7, r7, #8
 564              		.cfi_def_cfa_offset 8
 565 001c BD46     		mov	sp, r7
 566              		.cfi_def_cfa_register 13
 567              		@ sp needed
 568 001e 80BD     		pop	{r7, pc}
 569              		.cfi_endproc
 570              	.LFE437:
ARM GAS  C:\Users\DEVELO~1\AppData\Local\Temp\cceO3YBA.s 			page 11


 571              		.size	_gett, .-_gett
 572              		.section	.text._writet,"ax",%progbits
 573              		.align	1
 574              		.syntax unified
 575              		.thumb
 576              		.thumb_func
 577              		.type	_writet, %function
 578              	_writet:
 579              	.LFB438:
 580              		.loc 6 83 46
 581              		.cfi_startproc
 582              		@ args = 0, pretend = 0, frame = 16
 583              		@ frame_needed = 1, uses_anonymous_args = 0
 584 0000 80B5     		push	{r7, lr}
 585              		.cfi_def_cfa_offset 8
 586              		.cfi_offset 7, -8
 587              		.cfi_offset 14, -4
 588 0002 84B0     		sub	sp, sp, #16
 589              		.cfi_def_cfa_offset 24
 590 0004 00AF     		add	r7, sp, #0
 591              		.cfi_def_cfa_register 7
 592 0006 F860     		str	r0, [r7, #12]
 593 0008 B960     		str	r1, [r7, #8]
 594 000a 7A60     		str	r2, [r7, #4]
 595 000c 3B60     		str	r3, [r7]
 596              		.loc 6 85 10
 597 000e FB68     		ldr	r3, [r7, #12]
 598 0010 03F13000 		add	r0, r3, #48
 599 0014 3B68     		ldr	r3, [r7]
 600 0016 7A68     		ldr	r2, [r7, #4]
 601 0018 B968     		ldr	r1, [r7, #8]
 602 001a FFF7FEFF 		bl	oqWriteTimeout
 603 001e 0346     		mov	r3, r0
 604              		.loc 6 86 1
 605 0020 1846     		mov	r0, r3
 606 0022 1037     		adds	r7, r7, #16
 607              		.cfi_def_cfa_offset 8
 608 0024 BD46     		mov	sp, r7
 609              		.cfi_def_cfa_register 13
 610              		@ sp needed
 611 0026 80BD     		pop	{r7, pc}
 612              		.cfi_endproc
 613              	.LFE438:
 614              		.size	_writet, .-_writet
 615              		.section	.text._readt,"ax",%progbits
 616              		.align	1
 617              		.syntax unified
 618              		.thumb
 619              		.thumb_func
 620              		.type	_readt, %function
 621              	_readt:
 622              	.LFB439:
 623              		.loc 6 89 45
 624              		.cfi_startproc
 625              		@ args = 0, pretend = 0, frame = 16
 626              		@ frame_needed = 1, uses_anonymous_args = 0
 627 0000 80B5     		push	{r7, lr}
ARM GAS  C:\Users\DEVELO~1\AppData\Local\Temp\cceO3YBA.s 			page 12


 628              		.cfi_def_cfa_offset 8
 629              		.cfi_offset 7, -8
 630              		.cfi_offset 14, -4
 631 0002 84B0     		sub	sp, sp, #16
 632              		.cfi_def_cfa_offset 24
 633 0004 00AF     		add	r7, sp, #0
 634              		.cfi_def_cfa_register 7
 635 0006 F860     		str	r0, [r7, #12]
 636 0008 B960     		str	r1, [r7, #8]
 637 000a 7A60     		str	r2, [r7, #4]
 638 000c 3B60     		str	r3, [r7]
 639              		.loc 6 91 10
 640 000e FB68     		ldr	r3, [r7, #12]
 641 0010 03F10C00 		add	r0, r3, #12
 642 0014 3B68     		ldr	r3, [r7]
 643 0016 7A68     		ldr	r2, [r7, #4]
 644 0018 B968     		ldr	r1, [r7, #8]
 645 001a FFF7FEFF 		bl	iqReadTimeout
 646 001e 0346     		mov	r3, r0
 647              		.loc 6 92 1
 648 0020 1846     		mov	r0, r3
 649 0022 1037     		adds	r7, r7, #16
 650              		.cfi_def_cfa_offset 8
 651 0024 BD46     		mov	sp, r7
 652              		.cfi_def_cfa_register 13
 653              		@ sp needed
 654 0026 80BD     		pop	{r7, pc}
 655              		.cfi_endproc
 656              	.LFE439:
 657              		.size	_readt, .-_readt
 658              		.section	.text._ctl,"ax",%progbits
 659              		.align	1
 660              		.syntax unified
 661              		.thumb
 662              		.thumb_func
 663              		.type	_ctl, %function
 664              	_ctl:
 665              	.LFB440:
 666              		.loc 6 94 64
 667              		.cfi_startproc
 668              		@ args = 0, pretend = 0, frame = 24
 669              		@ frame_needed = 1, uses_anonymous_args = 0
 670              		@ link register save eliminated.
 671 0000 80B4     		push	{r7}
 672              		.cfi_def_cfa_offset 4
 673              		.cfi_offset 7, -4
 674 0002 87B0     		sub	sp, sp, #28
 675              		.cfi_def_cfa_offset 32
 676 0004 00AF     		add	r7, sp, #0
 677              		.cfi_def_cfa_register 7
 678 0006 F860     		str	r0, [r7, #12]
 679 0008 B960     		str	r1, [r7, #8]
 680 000a 7A60     		str	r2, [r7, #4]
 681              		.loc 6 95 17
 682 000c FB68     		ldr	r3, [r7, #12]
 683 000e 7B61     		str	r3, [r7, #20]
 684              		.loc 6 99 3
ARM GAS  C:\Users\DEVELO~1\AppData\Local\Temp\cceO3YBA.s 			page 13


 685 0010 BB68     		ldr	r3, [r7, #8]
 686 0012 002B     		cmp	r3, #0
 687 0014 03D0     		beq	.L26
 688 0016 BB68     		ldr	r3, [r7, #8]
 689 0018 012B     		cmp	r3, #1
 690 001a 03D1     		bne	.L27
 691              		.loc 6 102 5
 692 001c 05E0     		b	.L30
 693              	.L26:
 694              		.loc 6 104 12
 695 001e 6FF01303 		mvn	r3, #19
 696 0022 03E0     		b	.L29
 697              	.L27:
 698              		.loc 6 110 12
 699 0024 6FF01303 		mvn	r3, #19
 700 0028 00E0     		b	.L29
 701              	.L30:
 702              		.loc 6 113 10
 703 002a 0023     		movs	r3, #0
 704              	.L29:
 705              		.loc 6 114 1
 706 002c 1846     		mov	r0, r3
 707 002e 1C37     		adds	r7, r7, #28
 708              		.cfi_def_cfa_offset 4
 709 0030 BD46     		mov	sp, r7
 710              		.cfi_def_cfa_register 13
 711              		@ sp needed
 712 0032 80BC     		pop	{r7}
 713              		.cfi_restore 7
 714              		.cfi_def_cfa_offset 0
 715 0034 7047     		bx	lr
 716              		.cfi_endproc
 717              	.LFE440:
 718              		.size	_ctl, .-_ctl
 719              		.section	.rodata.vmt,"a"
 720              		.align	2
 721              		.type	vmt, %object
 722              		.size	vmt, 40
 723              	vmt:
 724 0000 00000000 		.word	0
 725 0004 00000000 		.word	_write
 726 0008 00000000 		.word	_read
 727 000c 00000000 		.word	_put
 728 0010 00000000 		.word	_get
 729 0014 00000000 		.word	_putt
 730 0018 00000000 		.word	_gett
 731 001c 00000000 		.word	_writet
 732 0020 00000000 		.word	_readt
 733 0024 00000000 		.word	_ctl
 734              		.section	.text.sdInit,"ax",%progbits
 735              		.align	1
 736              		.global	sdInit
 737              		.syntax unified
 738              		.thumb
 739              		.thumb_func
 740              		.type	sdInit, %function
 741              	sdInit:
ARM GAS  C:\Users\DEVELO~1\AppData\Local\Temp\cceO3YBA.s 			page 14


 742              	.LFB441:
 743              		.loc 6 134 19
 744              		.cfi_startproc
 745              		@ args = 0, pretend = 0, frame = 0
 746              		@ frame_needed = 1, uses_anonymous_args = 0
 747 0000 80B5     		push	{r7, lr}
 748              		.cfi_def_cfa_offset 8
 749              		.cfi_offset 7, -8
 750              		.cfi_offset 14, -4
 751 0002 00AF     		add	r7, sp, #0
 752              		.cfi_def_cfa_register 7
 753              		.loc 6 136 3
 754 0004 FFF7FEFF 		bl	sd_lld_init
 755              		.loc 6 137 1
 756 0008 00BF     		nop
 757 000a 80BD     		pop	{r7, pc}
 758              		.cfi_endproc
 759              	.LFE441:
 760              		.size	sdInit, .-sdInit
 761              		.section	.text.sdObjectInit,"ax",%progbits
 762              		.align	1
 763              		.global	sdObjectInit
 764              		.syntax unified
 765              		.thumb
 766              		.thumb_func
 767              		.type	sdObjectInit, %function
 768              	sdObjectInit:
 769              	.LFB442:
 770              		.loc 6 166 38
 771              		.cfi_startproc
 772              		@ args = 0, pretend = 0, frame = 8
 773              		@ frame_needed = 1, uses_anonymous_args = 0
 774 0000 80B5     		push	{r7, lr}
 775              		.cfi_def_cfa_offset 8
 776              		.cfi_offset 7, -8
 777              		.cfi_offset 14, -4
 778 0002 82B0     		sub	sp, sp, #8
 779              		.cfi_def_cfa_offset 16
 780 0004 00AF     		add	r7, sp, #0
 781              		.cfi_def_cfa_register 7
 782 0006 7860     		str	r0, [r7, #4]
 783              		.loc 6 168 12
 784 0008 7B68     		ldr	r3, [r7, #4]
 785 000a 074A     		ldr	r2, .L33
 786 000c 1A60     		str	r2, [r3]
 787              		.loc 6 169 3
 788 000e 7B68     		ldr	r3, [r7, #4]
 789 0010 0433     		adds	r3, r3, #4
 790 0012 1846     		mov	r0, r3
 791 0014 FFF7FEFF 		bl	osalEventObjectInit
 792              		.loc 6 170 14
 793 0018 7B68     		ldr	r3, [r7, #4]
 794 001a 0122     		movs	r2, #1
 795 001c 1A72     		strb	r2, [r3, #8]
 796              		.loc 6 171 1
 797 001e 00BF     		nop
 798 0020 0837     		adds	r7, r7, #8
ARM GAS  C:\Users\DEVELO~1\AppData\Local\Temp\cceO3YBA.s 			page 15


 799              		.cfi_def_cfa_offset 8
 800 0022 BD46     		mov	sp, r7
 801              		.cfi_def_cfa_register 13
 802              		@ sp needed
 803 0024 80BD     		pop	{r7, pc}
 804              	.L34:
 805 0026 00BF     		.align	2
 806              	.L33:
 807 0028 00000000 		.word	vmt
 808              		.cfi_endproc
 809              	.LFE442:
 810              		.size	sdObjectInit, .-sdObjectInit
 811              		.section	.text.sdStart,"ax",%progbits
 812              		.align	1
 813              		.global	sdStart
 814              		.syntax unified
 815              		.thumb
 816              		.thumb_func
 817              		.type	sdStart, %function
 818              	sdStart:
 819              	.LFB443:
 820              		.loc 6 185 62
 821              		.cfi_startproc
 822              		@ args = 0, pretend = 0, frame = 16
 823              		@ frame_needed = 1, uses_anonymous_args = 0
 824 0000 80B5     		push	{r7, lr}
 825              		.cfi_def_cfa_offset 8
 826              		.cfi_offset 7, -8
 827              		.cfi_offset 14, -4
 828 0002 84B0     		sub	sp, sp, #16
 829              		.cfi_def_cfa_offset 24
 830 0004 00AF     		add	r7, sp, #0
 831              		.cfi_def_cfa_register 7
 832 0006 7860     		str	r0, [r7, #4]
 833 0008 3960     		str	r1, [r7]
 834              		.loc 6 190 3
 835 000a FFF7FEFF 		bl	osalSysLock
 836              		.loc 6 203 3
 837 000e 3968     		ldr	r1, [r7]
 838 0010 7868     		ldr	r0, [r7, #4]
 839 0012 FFF7FEFF 		bl	sd_lld_start
 840              		.loc 6 204 14
 841 0016 7B68     		ldr	r3, [r7, #4]
 842 0018 0222     		movs	r2, #2
 843 001a 1A72     		strb	r2, [r3, #8]
 844              		.loc 6 205 7
 845 001c 0023     		movs	r3, #0
 846 001e FB60     		str	r3, [r7, #12]
 847              		.loc 6 208 3
 848 0020 FFF7FEFF 		bl	osalSysUnlock
 849              		.loc 6 210 10
 850 0024 FB68     		ldr	r3, [r7, #12]
 851              		.loc 6 211 1
 852 0026 1846     		mov	r0, r3
 853 0028 1037     		adds	r7, r7, #16
 854              		.cfi_def_cfa_offset 8
 855 002a BD46     		mov	sp, r7
ARM GAS  C:\Users\DEVELO~1\AppData\Local\Temp\cceO3YBA.s 			page 16


 856              		.cfi_def_cfa_register 13
 857              		@ sp needed
 858 002c 80BD     		pop	{r7, pc}
 859              		.cfi_endproc
 860              	.LFE443:
 861              		.size	sdStart, .-sdStart
 862              		.section	.text.sdStop,"ax",%progbits
 863              		.align	1
 864              		.global	sdStop
 865              		.syntax unified
 866              		.thumb
 867              		.thumb_func
 868              		.type	sdStop, %function
 869              	sdStop:
 870              	.LFB444:
 871              		.loc 6 222 32
 872              		.cfi_startproc
 873              		@ args = 0, pretend = 0, frame = 8
 874              		@ frame_needed = 1, uses_anonymous_args = 0
 875 0000 80B5     		push	{r7, lr}
 876              		.cfi_def_cfa_offset 8
 877              		.cfi_offset 7, -8
 878              		.cfi_offset 14, -4
 879 0002 82B0     		sub	sp, sp, #8
 880              		.cfi_def_cfa_offset 16
 881 0004 00AF     		add	r7, sp, #0
 882              		.cfi_def_cfa_register 7
 883 0006 7860     		str	r0, [r7, #4]
 884              		.loc 6 226 3
 885 0008 FFF7FEFF 		bl	osalSysLock
 886              		.loc 6 231 3
 887 000c 7868     		ldr	r0, [r7, #4]
 888 000e FFF7FEFF 		bl	sd_lld_stop
 889              		.loc 6 232 14
 890 0012 7B68     		ldr	r3, [r7, #4]
 891 0014 0122     		movs	r2, #1
 892 0016 1A72     		strb	r2, [r3, #8]
 893              		.loc 6 233 3
 894 0018 7B68     		ldr	r3, [r7, #4]
 895 001a 3033     		adds	r3, r3, #48
 896 001c 1846     		mov	r0, r3
 897 001e FFF7FEFF 		bl	oqResetI
 898              		.loc 6 234 3
 899 0022 7B68     		ldr	r3, [r7, #4]
 900 0024 0C33     		adds	r3, r3, #12
 901 0026 1846     		mov	r0, r3
 902 0028 FFF7FEFF 		bl	iqResetI
 903              		.loc 6 235 3
 904 002c FFF7FEFF 		bl	osalOsRescheduleS
 905              		.loc 6 237 3
 906 0030 FFF7FEFF 		bl	osalSysUnlock
 907              		.loc 6 238 1
 908 0034 00BF     		nop
 909 0036 0837     		adds	r7, r7, #8
 910              		.cfi_def_cfa_offset 8
 911 0038 BD46     		mov	sp, r7
 912              		.cfi_def_cfa_register 13
ARM GAS  C:\Users\DEVELO~1\AppData\Local\Temp\cceO3YBA.s 			page 17


 913              		@ sp needed
 914 003a 80BD     		pop	{r7, pc}
 915              		.cfi_endproc
 916              	.LFE444:
 917              		.size	sdStop, .-sdStop
 918              		.section	.text.sdIncomingDataI,"ax",%progbits
 919              		.align	1
 920              		.global	sdIncomingDataI
 921              		.syntax unified
 922              		.thumb
 923              		.thumb_func
 924              		.type	sdIncomingDataI, %function
 925              	sdIncomingDataI:
 926              	.LFB445:
 927              		.loc 6 256 52
 928              		.cfi_startproc
 929              		@ args = 0, pretend = 0, frame = 8
 930              		@ frame_needed = 1, uses_anonymous_args = 0
 931 0000 80B5     		push	{r7, lr}
 932              		.cfi_def_cfa_offset 8
 933              		.cfi_offset 7, -8
 934              		.cfi_offset 14, -4
 935 0002 82B0     		sub	sp, sp, #8
 936              		.cfi_def_cfa_offset 16
 937 0004 00AF     		add	r7, sp, #0
 938              		.cfi_def_cfa_register 7
 939 0006 7860     		str	r0, [r7, #4]
 940 0008 0B46     		mov	r3, r1
 941 000a FB70     		strb	r3, [r7, #3]
 942              		.loc 6 261 7
 943 000c 7B68     		ldr	r3, [r7, #4]
 944 000e 5B69     		ldr	r3, [r3, #20]
 945              		.loc 6 261 6
 946 0010 002B     		cmp	r3, #0
 947 0012 05D1     		bne	.L39
 948              		.loc 6 262 5
 949 0014 7B68     		ldr	r3, [r7, #4]
 950 0016 0433     		adds	r3, r3, #4
 951 0018 0421     		movs	r1, #4
 952 001a 1846     		mov	r0, r3
 953 001c FFF7FEFF 		bl	osalEventBroadcastFlagsI
 954              	.L39:
 955              		.loc 6 263 7
 956 0020 7B68     		ldr	r3, [r7, #4]
 957 0022 0C33     		adds	r3, r3, #12
 958 0024 FA78     		ldrb	r2, [r7, #3]	@ zero_extendqisi2
 959 0026 1146     		mov	r1, r2
 960 0028 1846     		mov	r0, r3
 961 002a FFF7FEFF 		bl	iqPutI
 962 002e 0346     		mov	r3, r0
 963              		.loc 6 263 6
 964 0030 002B     		cmp	r3, #0
 965 0032 06DA     		bge	.L41
 966              		.loc 6 264 5
 967 0034 7B68     		ldr	r3, [r7, #4]
 968 0036 0433     		adds	r3, r3, #4
 969 0038 4FF40061 		mov	r1, #2048
ARM GAS  C:\Users\DEVELO~1\AppData\Local\Temp\cceO3YBA.s 			page 18


 970 003c 1846     		mov	r0, r3
 971 003e FFF7FEFF 		bl	osalEventBroadcastFlagsI
 972              	.L41:
 973              		.loc 6 265 1
 974 0042 00BF     		nop
 975 0044 0837     		adds	r7, r7, #8
 976              		.cfi_def_cfa_offset 8
 977 0046 BD46     		mov	sp, r7
 978              		.cfi_def_cfa_register 13
 979              		@ sp needed
 980 0048 80BD     		pop	{r7, pc}
 981              		.cfi_endproc
 982              	.LFE445:
 983              		.size	sdIncomingDataI, .-sdIncomingDataI
 984              		.section	.text.sdRequestDataI,"ax",%progbits
 985              		.align	1
 986              		.global	sdRequestDataI
 987              		.syntax unified
 988              		.thumb
 989              		.thumb_func
 990              		.type	sdRequestDataI, %function
 991              	sdRequestDataI:
 992              	.LFB446:
 993              		.loc 6 282 41
 994              		.cfi_startproc
 995              		@ args = 0, pretend = 0, frame = 16
 996              		@ frame_needed = 1, uses_anonymous_args = 0
 997 0000 80B5     		push	{r7, lr}
 998              		.cfi_def_cfa_offset 8
 999              		.cfi_offset 7, -8
 1000              		.cfi_offset 14, -4
 1001 0002 84B0     		sub	sp, sp, #16
 1002              		.cfi_def_cfa_offset 24
 1003 0004 00AF     		add	r7, sp, #0
 1004              		.cfi_def_cfa_register 7
 1005 0006 7860     		str	r0, [r7, #4]
 1006              		.loc 6 288 7
 1007 0008 7B68     		ldr	r3, [r7, #4]
 1008 000a 3033     		adds	r3, r3, #48
 1009 000c 1846     		mov	r0, r3
 1010 000e FFF7FEFF 		bl	oqGetI
 1011 0012 F860     		str	r0, [r7, #12]
 1012              		.loc 6 289 6
 1013 0014 FB68     		ldr	r3, [r7, #12]
 1014 0016 002B     		cmp	r3, #0
 1015 0018 05DA     		bge	.L43
 1016              		.loc 6 290 5
 1017 001a 7B68     		ldr	r3, [r7, #4]
 1018 001c 0433     		adds	r3, r3, #4
 1019 001e 0821     		movs	r1, #8
 1020 0020 1846     		mov	r0, r3
 1021 0022 FFF7FEFF 		bl	osalEventBroadcastFlagsI
 1022              	.L43:
 1023              		.loc 6 291 10
 1024 0026 FB68     		ldr	r3, [r7, #12]
 1025              		.loc 6 292 1
 1026 0028 1846     		mov	r0, r3
ARM GAS  C:\Users\DEVELO~1\AppData\Local\Temp\cceO3YBA.s 			page 19


 1027 002a 1037     		adds	r7, r7, #16
 1028              		.cfi_def_cfa_offset 8
 1029 002c BD46     		mov	sp, r7
 1030              		.cfi_def_cfa_register 13
 1031              		@ sp needed
 1032 002e 80BD     		pop	{r7, pc}
 1033              		.cfi_endproc
 1034              	.LFE446:
 1035              		.size	sdRequestDataI, .-sdRequestDataI
 1036              		.section	.text.sdPutWouldBlock,"ax",%progbits
 1037              		.align	1
 1038              		.global	sdPutWouldBlock
 1039              		.syntax unified
 1040              		.thumb
 1041              		.thumb_func
 1042              		.type	sdPutWouldBlock, %function
 1043              	sdPutWouldBlock:
 1044              	.LFB447:
 1045              		.loc 6 309 41
 1046              		.cfi_startproc
 1047              		@ args = 0, pretend = 0, frame = 16
 1048              		@ frame_needed = 1, uses_anonymous_args = 0
 1049 0000 80B5     		push	{r7, lr}
 1050              		.cfi_def_cfa_offset 8
 1051              		.cfi_offset 7, -8
 1052              		.cfi_offset 14, -4
 1053 0002 84B0     		sub	sp, sp, #16
 1054              		.cfi_def_cfa_offset 24
 1055 0004 00AF     		add	r7, sp, #0
 1056              		.cfi_def_cfa_register 7
 1057 0006 7860     		str	r0, [r7, #4]
 1058              		.loc 6 312 3
 1059 0008 FFF7FEFF 		bl	osalSysLock
 1060              		.loc 6 313 7
 1061 000c 7B68     		ldr	r3, [r7, #4]
 1062 000e 9B6B     		ldr	r3, [r3, #56]
 1063              		.loc 6 313 5
 1064 0010 002B     		cmp	r3, #0
 1065 0012 0CBF     		ite	eq
 1066 0014 0123     		moveq	r3, #1
 1067 0016 0023     		movne	r3, #0
 1068 0018 FB73     		strb	r3, [r7, #15]
 1069              		.loc 6 314 3
 1070 001a FFF7FEFF 		bl	osalSysUnlock
 1071              		.loc 6 316 10
 1072 001e FB7B     		ldrb	r3, [r7, #15]	@ zero_extendqisi2
 1073              		.loc 6 317 1
 1074 0020 1846     		mov	r0, r3
 1075 0022 1037     		adds	r7, r7, #16
 1076              		.cfi_def_cfa_offset 8
 1077 0024 BD46     		mov	sp, r7
 1078              		.cfi_def_cfa_register 13
 1079              		@ sp needed
 1080 0026 80BD     		pop	{r7, pc}
 1081              		.cfi_endproc
 1082              	.LFE447:
 1083              		.size	sdPutWouldBlock, .-sdPutWouldBlock
ARM GAS  C:\Users\DEVELO~1\AppData\Local\Temp\cceO3YBA.s 			page 20


 1084              		.section	.text.sdGetWouldBlock,"ax",%progbits
 1085              		.align	1
 1086              		.global	sdGetWouldBlock
 1087              		.syntax unified
 1088              		.thumb
 1089              		.thumb_func
 1090              		.type	sdGetWouldBlock, %function
 1091              	sdGetWouldBlock:
 1092              	.LFB448:
 1093              		.loc 6 334 41
 1094              		.cfi_startproc
 1095              		@ args = 0, pretend = 0, frame = 16
 1096              		@ frame_needed = 1, uses_anonymous_args = 0
 1097 0000 80B5     		push	{r7, lr}
 1098              		.cfi_def_cfa_offset 8
 1099              		.cfi_offset 7, -8
 1100              		.cfi_offset 14, -4
 1101 0002 84B0     		sub	sp, sp, #16
 1102              		.cfi_def_cfa_offset 24
 1103 0004 00AF     		add	r7, sp, #0
 1104              		.cfi_def_cfa_register 7
 1105 0006 7860     		str	r0, [r7, #4]
 1106              		.loc 6 337 3
 1107 0008 FFF7FEFF 		bl	osalSysLock
 1108              		.loc 6 338 7
 1109 000c 7B68     		ldr	r3, [r7, #4]
 1110 000e 5B69     		ldr	r3, [r3, #20]
 1111              		.loc 6 338 5
 1112 0010 002B     		cmp	r3, #0
 1113 0012 0CBF     		ite	eq
 1114 0014 0123     		moveq	r3, #1
 1115 0016 0023     		movne	r3, #0
 1116 0018 FB73     		strb	r3, [r7, #15]
 1117              		.loc 6 339 3
 1118 001a FFF7FEFF 		bl	osalSysUnlock
 1119              		.loc 6 341 10
 1120 001e FB7B     		ldrb	r3, [r7, #15]	@ zero_extendqisi2
 1121              		.loc 6 342 1
 1122 0020 1846     		mov	r0, r3
 1123 0022 1037     		adds	r7, r7, #16
 1124              		.cfi_def_cfa_offset 8
 1125 0024 BD46     		mov	sp, r7
 1126              		.cfi_def_cfa_register 13
 1127              		@ sp needed
 1128 0026 80BD     		pop	{r7, pc}
 1129              		.cfi_endproc
 1130              	.LFE448:
 1131              		.size	sdGetWouldBlock, .-sdGetWouldBlock
 1132              		.section	.text.sdControl,"ax",%progbits
 1133              		.align	1
 1134              		.global	sdControl
 1135              		.syntax unified
 1136              		.thumb
 1137              		.thumb_func
 1138              		.type	sdControl, %function
 1139              	sdControl:
 1140              	.LFB449:
ARM GAS  C:\Users\DEVELO~1\AppData\Local\Temp\cceO3YBA.s 			page 21


 1141              		.loc 6 358 71
 1142              		.cfi_startproc
 1143              		@ args = 0, pretend = 0, frame = 16
 1144              		@ frame_needed = 1, uses_anonymous_args = 0
 1145 0000 80B5     		push	{r7, lr}
 1146              		.cfi_def_cfa_offset 8
 1147              		.cfi_offset 7, -8
 1148              		.cfi_offset 14, -4
 1149 0002 84B0     		sub	sp, sp, #16
 1150              		.cfi_def_cfa_offset 24
 1151 0004 00AF     		add	r7, sp, #0
 1152              		.cfi_def_cfa_register 7
 1153 0006 F860     		str	r0, [r7, #12]
 1154 0008 B960     		str	r1, [r7, #8]
 1155 000a 7A60     		str	r2, [r7, #4]
 1156              		.loc 6 360 10
 1157 000c 7A68     		ldr	r2, [r7, #4]
 1158 000e B968     		ldr	r1, [r7, #8]
 1159 0010 F868     		ldr	r0, [r7, #12]
 1160 0012 FFF7FEFF 		bl	_ctl
 1161 0016 0346     		mov	r3, r0
 1162              		.loc 6 361 1
 1163 0018 1846     		mov	r0, r3
 1164 001a 1037     		adds	r7, r7, #16
 1165              		.cfi_def_cfa_offset 8
 1166 001c BD46     		mov	sp, r7
 1167              		.cfi_def_cfa_register 13
 1168              		@ sp needed
 1169 001e 80BD     		pop	{r7, pc}
 1170              		.cfi_endproc
 1171              	.LFE449:
 1172              		.size	sdControl, .-sdControl
 1173              		.text
 1174              	.Letext0:
 1175              		.file 7 "c:\\chibistudio\\tools\\gnu tools arm embedded\\11.3 2022.08\\lib\\gcc\\arm-none-eabi\\11
 1176              		.file 8 "c:\\chibistudio\\tools\\gnu tools arm embedded\\11.3 2022.08\\arm-none-eabi\\include\\mac
 1177              		.file 9 "c:\\chibistudio\\tools\\gnu tools arm embedded\\11.3 2022.08\\arm-none-eabi\\include\\sys
 1178              		.file 10 "../../../os/common/ports/ARM-common/chtypes.h"
 1179              		.file 11 "../../../os/rt/include/chearly.h"
 1180              		.file 12 "../../../os/rt/include/chobjects.h"
 1181              		.file 13 "../../../os/rt/include/chrfcu.h"
 1182              		.file 14 "../../../os/rt/include/chdebug.h"
 1183              		.file 15 "../../../os/rt/include/chtime.h"
 1184              		.file 16 "../../../os/rt/include/chlists.h"
 1185              		.file 17 "../../../os/rt/include/chtrace.h"
 1186              		.file 18 "../../../os/common/ext/ST/STM32H7xx/stm32h743xx.h"
 1187              		.file 19 "../../../os/rt/include/chsem.h"
 1188              		.file 20 "../../../os/rt/include/chmtx.h"
 1189              		.file 21 "../../../os/hal/include/hal_queues.h"
 1190              		.file 22 "../../../os/hal/include/hal_serial.h"
 1191              		.file 23 "../../../os/hal/ports/STM32/LLD/USARTv3/hal_serial_lld.h"
 1192              		.file 24 "../../../os/rt/include/chschd.h"