ARM GAS  C:\Users\DEVELO~1\AppData\Local\Temp\ccqM33Ed.s 			page 1


   1              		.cpu cortex-m7
   2              		.arch armv7e-m
   3              		.fpu softvfp
   4              		.eabi_attribute 20, 1
   5              		.eabi_attribute 21, 1
   6              		.eabi_attribute 23, 3
   7              		.eabi_attribute 24, 1
   8              		.eabi_attribute 25, 1
   9              		.eabi_attribute 26, 1
  10              		.eabi_attribute 30, 6
  11              		.eabi_attribute 34, 1
  12              		.eabi_attribute 18, 4
  13              		.file	"hal_lld.c"
  14              		.text
  15              	.Ltext0:
  16              		.cfi_sections	.debug_frame
  17              		.section	.text.__rccResetAPB1L,"ax",%progbits
  18              		.align	1
  19              		.syntax unified
  20              		.thumb
  21              		.thumb_func
  22              		.type	__rccResetAPB1L, %function
  23              	__rccResetAPB1L:
  24              	.LFB379:
  25              		.file 1 "../../../os/hal/ports/STM32/STM32H7xx/stm32_rcc.h"
  26              		.loc 1 57 53
  27              		.cfi_startproc
  28              		@ args = 0, pretend = 0, frame = 8
  29              		@ frame_needed = 1, uses_anonymous_args = 0
  30              		@ link register save eliminated.
  31 0000 80B4     		push	{r7}
  32              		.cfi_def_cfa_offset 4
  33              		.cfi_offset 7, -4
  34 0002 83B0     		sub	sp, sp, #12
  35              		.cfi_def_cfa_offset 16
  36 0004 00AF     		add	r7, sp, #0
  37              		.cfi_def_cfa_register 7
  38 0006 7860     		str	r0, [r7, #4]
  39              		.loc 1 60 18
  40 0008 0C4B     		ldr	r3, .L2
  41 000a D3F89020 		ldr	r2, [r3, #144]
  42 000e 0B49     		ldr	r1, .L2
  43 0010 7B68     		ldr	r3, [r7, #4]
  44 0012 1343     		orrs	r3, r3, r2
  45 0014 C1F89030 		str	r3, [r1, #144]
  46              		.loc 1 61 18
  47 0018 084B     		ldr	r3, .L2
  48 001a D3F89020 		ldr	r2, [r3, #144]
  49              		.loc 1 61 21
  50 001e 7B68     		ldr	r3, [r7, #4]
  51 0020 DB43     		mvns	r3, r3
  52              		.loc 1 61 18
  53 0022 0649     		ldr	r1, .L2
  54 0024 1340     		ands	r3, r3, r2
  55 0026 C1F89030 		str	r3, [r1, #144]
  56              		.loc 1 62 12
  57 002a 044B     		ldr	r3, .L2
ARM GAS  C:\Users\DEVELO~1\AppData\Local\Temp\ccqM33Ed.s 			page 2


  58              		.loc 1 62 3
  59 002c D3F89030 		ldr	r3, [r3, #144]
  60              		.loc 1 63 1
  61 0030 00BF     		nop
  62 0032 0C37     		adds	r7, r7, #12
  63              		.cfi_def_cfa_offset 4
  64 0034 BD46     		mov	sp, r7
  65              		.cfi_def_cfa_register 13
  66              		@ sp needed
  67 0036 80BC     		pop	{r7}
  68              		.cfi_restore 7
  69              		.cfi_def_cfa_offset 0
  70 0038 7047     		bx	lr
  71              	.L3:
  72 003a 00BF     		.align	2
  73              	.L2:
  74 003c 00440258 		.word	1476543488
  75              		.cfi_endproc
  76              	.LFE379:
  77              		.size	__rccResetAPB1L, .-__rccResetAPB1L
  78              		.section	.text.__rccResetAPB1H,"ax",%progbits
  79              		.align	1
  80              		.syntax unified
  81              		.thumb
  82              		.thumb_func
  83              		.type	__rccResetAPB1H, %function
  84              	__rccResetAPB1H:
  85              	.LFB380:
  86              		.loc 1 65 53
  87              		.cfi_startproc
  88              		@ args = 0, pretend = 0, frame = 8
  89              		@ frame_needed = 1, uses_anonymous_args = 0
  90              		@ link register save eliminated.
  91 0000 80B4     		push	{r7}
  92              		.cfi_def_cfa_offset 4
  93              		.cfi_offset 7, -4
  94 0002 83B0     		sub	sp, sp, #12
  95              		.cfi_def_cfa_offset 16
  96 0004 00AF     		add	r7, sp, #0
  97              		.cfi_def_cfa_register 7
  98 0006 7860     		str	r0, [r7, #4]
  99              		.loc 1 68 18
 100 0008 0C4B     		ldr	r3, .L5
 101 000a D3F89420 		ldr	r2, [r3, #148]
 102 000e 0B49     		ldr	r1, .L5
 103 0010 7B68     		ldr	r3, [r7, #4]
 104 0012 1343     		orrs	r3, r3, r2
 105 0014 C1F89430 		str	r3, [r1, #148]
 106              		.loc 1 69 18
 107 0018 084B     		ldr	r3, .L5
 108 001a D3F89420 		ldr	r2, [r3, #148]
 109              		.loc 1 69 21
 110 001e 7B68     		ldr	r3, [r7, #4]
 111 0020 DB43     		mvns	r3, r3
 112              		.loc 1 69 18
 113 0022 0649     		ldr	r1, .L5
 114 0024 1340     		ands	r3, r3, r2
ARM GAS  C:\Users\DEVELO~1\AppData\Local\Temp\ccqM33Ed.s 			page 3


 115 0026 C1F89430 		str	r3, [r1, #148]
 116              		.loc 1 70 12
 117 002a 044B     		ldr	r3, .L5
 118              		.loc 1 70 3
 119 002c D3F89430 		ldr	r3, [r3, #148]
 120              		.loc 1 71 1
 121 0030 00BF     		nop
 122 0032 0C37     		adds	r7, r7, #12
 123              		.cfi_def_cfa_offset 4
 124 0034 BD46     		mov	sp, r7
 125              		.cfi_def_cfa_register 13
 126              		@ sp needed
 127 0036 80BC     		pop	{r7}
 128              		.cfi_restore 7
 129              		.cfi_def_cfa_offset 0
 130 0038 7047     		bx	lr
 131              	.L6:
 132 003a 00BF     		.align	2
 133              	.L5:
 134 003c 00440258 		.word	1476543488
 135              		.cfi_endproc
 136              	.LFE380:
 137              		.size	__rccResetAPB1H, .-__rccResetAPB1H
 138              		.section	.text.__rccResetAPB2,"ax",%progbits
 139              		.align	1
 140              		.syntax unified
 141              		.thumb
 142              		.thumb_func
 143              		.type	__rccResetAPB2, %function
 144              	__rccResetAPB2:
 145              	.LFB381:
 146              		.loc 1 73 52
 147              		.cfi_startproc
 148              		@ args = 0, pretend = 0, frame = 8
 149              		@ frame_needed = 1, uses_anonymous_args = 0
 150              		@ link register save eliminated.
 151 0000 80B4     		push	{r7}
 152              		.cfi_def_cfa_offset 4
 153              		.cfi_offset 7, -4
 154 0002 83B0     		sub	sp, sp, #12
 155              		.cfi_def_cfa_offset 16
 156 0004 00AF     		add	r7, sp, #0
 157              		.cfi_def_cfa_register 7
 158 0006 7860     		str	r0, [r7, #4]
 159              		.loc 1 76 17
 160 0008 0C4B     		ldr	r3, .L8
 161 000a D3F89820 		ldr	r2, [r3, #152]
 162 000e 0B49     		ldr	r1, .L8
 163 0010 7B68     		ldr	r3, [r7, #4]
 164 0012 1343     		orrs	r3, r3, r2
 165 0014 C1F89830 		str	r3, [r1, #152]
 166              		.loc 1 77 17
 167 0018 084B     		ldr	r3, .L8
 168 001a D3F89820 		ldr	r2, [r3, #152]
 169              		.loc 1 77 20
 170 001e 7B68     		ldr	r3, [r7, #4]
 171 0020 DB43     		mvns	r3, r3
ARM GAS  C:\Users\DEVELO~1\AppData\Local\Temp\ccqM33Ed.s 			page 4


 172              		.loc 1 77 17
 173 0022 0649     		ldr	r1, .L8
 174 0024 1340     		ands	r3, r3, r2
 175 0026 C1F89830 		str	r3, [r1, #152]
 176              		.loc 1 78 12
 177 002a 044B     		ldr	r3, .L8
 178              		.loc 1 78 3
 179 002c D3F89830 		ldr	r3, [r3, #152]
 180              		.loc 1 79 1
 181 0030 00BF     		nop
 182 0032 0C37     		adds	r7, r7, #12
 183              		.cfi_def_cfa_offset 4
 184 0034 BD46     		mov	sp, r7
 185              		.cfi_def_cfa_register 13
 186              		@ sp needed
 187 0036 80BC     		pop	{r7}
 188              		.cfi_restore 7
 189              		.cfi_def_cfa_offset 0
 190 0038 7047     		bx	lr
 191              	.L9:
 192 003a 00BF     		.align	2
 193              	.L8:
 194 003c 00440258 		.word	1476543488
 195              		.cfi_endproc
 196              	.LFE381:
 197              		.size	__rccResetAPB2, .-__rccResetAPB2
 198              		.section	.text.__rccResetAPB3,"ax",%progbits
 199              		.align	1
 200              		.syntax unified
 201              		.thumb
 202              		.thumb_func
 203              		.type	__rccResetAPB3, %function
 204              	__rccResetAPB3:
 205              	.LFB382:
 206              		.loc 1 81 52
 207              		.cfi_startproc
 208              		@ args = 0, pretend = 0, frame = 8
 209              		@ frame_needed = 1, uses_anonymous_args = 0
 210              		@ link register save eliminated.
 211 0000 80B4     		push	{r7}
 212              		.cfi_def_cfa_offset 4
 213              		.cfi_offset 7, -4
 214 0002 83B0     		sub	sp, sp, #12
 215              		.cfi_def_cfa_offset 16
 216 0004 00AF     		add	r7, sp, #0
 217              		.cfi_def_cfa_register 7
 218 0006 7860     		str	r0, [r7, #4]
 219              		.loc 1 84 17
 220 0008 0C4B     		ldr	r3, .L11
 221 000a D3F88C20 		ldr	r2, [r3, #140]
 222 000e 0B49     		ldr	r1, .L11
 223 0010 7B68     		ldr	r3, [r7, #4]
 224 0012 1343     		orrs	r3, r3, r2
 225 0014 C1F88C30 		str	r3, [r1, #140]
 226              		.loc 1 85 17
 227 0018 084B     		ldr	r3, .L11
 228 001a D3F88C20 		ldr	r2, [r3, #140]
ARM GAS  C:\Users\DEVELO~1\AppData\Local\Temp\ccqM33Ed.s 			page 5


 229              		.loc 1 85 20
 230 001e 7B68     		ldr	r3, [r7, #4]
 231 0020 DB43     		mvns	r3, r3
 232              		.loc 1 85 17
 233 0022 0649     		ldr	r1, .L11
 234 0024 1340     		ands	r3, r3, r2
 235 0026 C1F88C30 		str	r3, [r1, #140]
 236              		.loc 1 86 12
 237 002a 044B     		ldr	r3, .L11
 238              		.loc 1 86 3
 239 002c D3F88C30 		ldr	r3, [r3, #140]
 240              		.loc 1 87 1
 241 0030 00BF     		nop
 242 0032 0C37     		adds	r7, r7, #12
 243              		.cfi_def_cfa_offset 4
 244 0034 BD46     		mov	sp, r7
 245              		.cfi_def_cfa_register 13
 246              		@ sp needed
 247 0036 80BC     		pop	{r7}
 248              		.cfi_restore 7
 249              		.cfi_def_cfa_offset 0
 250 0038 7047     		bx	lr
 251              	.L12:
 252 003a 00BF     		.align	2
 253              	.L11:
 254 003c 00440258 		.word	1476543488
 255              		.cfi_endproc
 256              	.LFE382:
 257              		.size	__rccResetAPB3, .-__rccResetAPB3
 258              		.section	.text.__rccResetAPB4,"ax",%progbits
 259              		.align	1
 260              		.syntax unified
 261              		.thumb
 262              		.thumb_func
 263              		.type	__rccResetAPB4, %function
 264              	__rccResetAPB4:
 265              	.LFB383:
 266              		.loc 1 89 52
 267              		.cfi_startproc
 268              		@ args = 0, pretend = 0, frame = 8
 269              		@ frame_needed = 1, uses_anonymous_args = 0
 270              		@ link register save eliminated.
 271 0000 80B4     		push	{r7}
 272              		.cfi_def_cfa_offset 4
 273              		.cfi_offset 7, -4
 274 0002 83B0     		sub	sp, sp, #12
 275              		.cfi_def_cfa_offset 16
 276 0004 00AF     		add	r7, sp, #0
 277              		.cfi_def_cfa_register 7
 278 0006 7860     		str	r0, [r7, #4]
 279              		.loc 1 92 17
 280 0008 0C4B     		ldr	r3, .L14
 281 000a D3F89C20 		ldr	r2, [r3, #156]
 282 000e 0B49     		ldr	r1, .L14
 283 0010 7B68     		ldr	r3, [r7, #4]
 284 0012 1343     		orrs	r3, r3, r2
 285 0014 C1F89C30 		str	r3, [r1, #156]
ARM GAS  C:\Users\DEVELO~1\AppData\Local\Temp\ccqM33Ed.s 			page 6


 286              		.loc 1 93 17
 287 0018 084B     		ldr	r3, .L14
 288 001a D3F89C20 		ldr	r2, [r3, #156]
 289              		.loc 1 93 20
 290 001e 7B68     		ldr	r3, [r7, #4]
 291 0020 DB43     		mvns	r3, r3
 292              		.loc 1 93 17
 293 0022 0649     		ldr	r1, .L14
 294 0024 1340     		ands	r3, r3, r2
 295 0026 C1F89C30 		str	r3, [r1, #156]
 296              		.loc 1 94 12
 297 002a 044B     		ldr	r3, .L14
 298              		.loc 1 94 3
 299 002c D3F89C30 		ldr	r3, [r3, #156]
 300              		.loc 1 95 1
 301 0030 00BF     		nop
 302 0032 0C37     		adds	r7, r7, #12
 303              		.cfi_def_cfa_offset 4
 304 0034 BD46     		mov	sp, r7
 305              		.cfi_def_cfa_register 13
 306              		@ sp needed
 307 0036 80BC     		pop	{r7}
 308              		.cfi_restore 7
 309              		.cfi_def_cfa_offset 0
 310 0038 7047     		bx	lr
 311              	.L15:
 312 003a 00BF     		.align	2
 313              	.L14:
 314 003c 00440258 		.word	1476543488
 315              		.cfi_endproc
 316              	.LFE383:
 317              		.size	__rccResetAPB4, .-__rccResetAPB4
 318              		.section	.text.__rccResetAHB1,"ax",%progbits
 319              		.align	1
 320              		.syntax unified
 321              		.thumb
 322              		.thumb_func
 323              		.type	__rccResetAHB1, %function
 324              	__rccResetAHB1:
 325              	.LFB384:
 326              		.loc 1 97 52
 327              		.cfi_startproc
 328              		@ args = 0, pretend = 0, frame = 8
 329              		@ frame_needed = 1, uses_anonymous_args = 0
 330              		@ link register save eliminated.
 331 0000 80B4     		push	{r7}
 332              		.cfi_def_cfa_offset 4
 333              		.cfi_offset 7, -4
 334 0002 83B0     		sub	sp, sp, #12
 335              		.cfi_def_cfa_offset 16
 336 0004 00AF     		add	r7, sp, #0
 337              		.cfi_def_cfa_register 7
 338 0006 7860     		str	r0, [r7, #4]
 339              		.loc 1 100 17
 340 0008 0C4B     		ldr	r3, .L17
 341 000a D3F88020 		ldr	r2, [r3, #128]
 342 000e 0B49     		ldr	r1, .L17
ARM GAS  C:\Users\DEVELO~1\AppData\Local\Temp\ccqM33Ed.s 			page 7


 343 0010 7B68     		ldr	r3, [r7, #4]
 344 0012 1343     		orrs	r3, r3, r2
 345 0014 C1F88030 		str	r3, [r1, #128]
 346              		.loc 1 101 17
 347 0018 084B     		ldr	r3, .L17
 348 001a D3F88020 		ldr	r2, [r3, #128]
 349              		.loc 1 101 20
 350 001e 7B68     		ldr	r3, [r7, #4]
 351 0020 DB43     		mvns	r3, r3
 352              		.loc 1 101 17
 353 0022 0649     		ldr	r1, .L17
 354 0024 1340     		ands	r3, r3, r2
 355 0026 C1F88030 		str	r3, [r1, #128]
 356              		.loc 1 102 12
 357 002a 044B     		ldr	r3, .L17
 358              		.loc 1 102 3
 359 002c D3F88030 		ldr	r3, [r3, #128]
 360              		.loc 1 103 1
 361 0030 00BF     		nop
 362 0032 0C37     		adds	r7, r7, #12
 363              		.cfi_def_cfa_offset 4
 364 0034 BD46     		mov	sp, r7
 365              		.cfi_def_cfa_register 13
 366              		@ sp needed
 367 0036 80BC     		pop	{r7}
 368              		.cfi_restore 7
 369              		.cfi_def_cfa_offset 0
 370 0038 7047     		bx	lr
 371              	.L18:
 372 003a 00BF     		.align	2
 373              	.L17:
 374 003c 00440258 		.word	1476543488
 375              		.cfi_endproc
 376              	.LFE384:
 377              		.size	__rccResetAHB1, .-__rccResetAHB1
 378              		.section	.text.__rccResetAHB2,"ax",%progbits
 379              		.align	1
 380              		.syntax unified
 381              		.thumb
 382              		.thumb_func
 383              		.type	__rccResetAHB2, %function
 384              	__rccResetAHB2:
 385              	.LFB385:
 386              		.loc 1 105 52
 387              		.cfi_startproc
 388              		@ args = 0, pretend = 0, frame = 8
 389              		@ frame_needed = 1, uses_anonymous_args = 0
 390              		@ link register save eliminated.
 391 0000 80B4     		push	{r7}
 392              		.cfi_def_cfa_offset 4
 393              		.cfi_offset 7, -4
 394 0002 83B0     		sub	sp, sp, #12
 395              		.cfi_def_cfa_offset 16
 396 0004 00AF     		add	r7, sp, #0
 397              		.cfi_def_cfa_register 7
 398 0006 7860     		str	r0, [r7, #4]
 399              		.loc 1 108 17
ARM GAS  C:\Users\DEVELO~1\AppData\Local\Temp\ccqM33Ed.s 			page 8


 400 0008 0C4B     		ldr	r3, .L20
 401 000a D3F88420 		ldr	r2, [r3, #132]
 402 000e 0B49     		ldr	r1, .L20
 403 0010 7B68     		ldr	r3, [r7, #4]
 404 0012 1343     		orrs	r3, r3, r2
 405 0014 C1F88430 		str	r3, [r1, #132]
 406              		.loc 1 109 17
 407 0018 084B     		ldr	r3, .L20
 408 001a D3F88420 		ldr	r2, [r3, #132]
 409              		.loc 1 109 20
 410 001e 7B68     		ldr	r3, [r7, #4]
 411 0020 DB43     		mvns	r3, r3
 412              		.loc 1 109 17
 413 0022 0649     		ldr	r1, .L20
 414 0024 1340     		ands	r3, r3, r2
 415 0026 C1F88430 		str	r3, [r1, #132]
 416              		.loc 1 110 12
 417 002a 044B     		ldr	r3, .L20
 418              		.loc 1 110 3
 419 002c D3F88430 		ldr	r3, [r3, #132]
 420              		.loc 1 111 1
 421 0030 00BF     		nop
 422 0032 0C37     		adds	r7, r7, #12
 423              		.cfi_def_cfa_offset 4
 424 0034 BD46     		mov	sp, r7
 425              		.cfi_def_cfa_register 13
 426              		@ sp needed
 427 0036 80BC     		pop	{r7}
 428              		.cfi_restore 7
 429              		.cfi_def_cfa_offset 0
 430 0038 7047     		bx	lr
 431              	.L21:
 432 003a 00BF     		.align	2
 433              	.L20:
 434 003c 00440258 		.word	1476543488
 435              		.cfi_endproc
 436              	.LFE385:
 437              		.size	__rccResetAHB2, .-__rccResetAHB2
 438              		.section	.text.__rccResetAHB3,"ax",%progbits
 439              		.align	1
 440              		.syntax unified
 441              		.thumb
 442              		.thumb_func
 443              		.type	__rccResetAHB3, %function
 444              	__rccResetAHB3:
 445              	.LFB386:
 446              		.loc 1 113 52
 447              		.cfi_startproc
 448              		@ args = 0, pretend = 0, frame = 8
 449              		@ frame_needed = 1, uses_anonymous_args = 0
 450              		@ link register save eliminated.
 451 0000 80B4     		push	{r7}
 452              		.cfi_def_cfa_offset 4
 453              		.cfi_offset 7, -4
 454 0002 83B0     		sub	sp, sp, #12
 455              		.cfi_def_cfa_offset 16
 456 0004 00AF     		add	r7, sp, #0
ARM GAS  C:\Users\DEVELO~1\AppData\Local\Temp\ccqM33Ed.s 			page 9


 457              		.cfi_def_cfa_register 7
 458 0006 7860     		str	r0, [r7, #4]
 459              		.loc 1 116 17
 460 0008 094B     		ldr	r3, .L23
 461 000a DA6F     		ldr	r2, [r3, #124]
 462 000c 0849     		ldr	r1, .L23
 463 000e 7B68     		ldr	r3, [r7, #4]
 464 0010 1343     		orrs	r3, r3, r2
 465 0012 CB67     		str	r3, [r1, #124]
 466              		.loc 1 117 17
 467 0014 064B     		ldr	r3, .L23
 468 0016 DA6F     		ldr	r2, [r3, #124]
 469              		.loc 1 117 20
 470 0018 7B68     		ldr	r3, [r7, #4]
 471 001a DB43     		mvns	r3, r3
 472              		.loc 1 117 17
 473 001c 0449     		ldr	r1, .L23
 474 001e 1340     		ands	r3, r3, r2
 475 0020 CB67     		str	r3, [r1, #124]
 476              		.loc 1 118 12
 477 0022 034B     		ldr	r3, .L23
 478              		.loc 1 118 3
 479 0024 DB6F     		ldr	r3, [r3, #124]
 480              		.loc 1 119 1
 481 0026 00BF     		nop
 482 0028 0C37     		adds	r7, r7, #12
 483              		.cfi_def_cfa_offset 4
 484 002a BD46     		mov	sp, r7
 485              		.cfi_def_cfa_register 13
 486              		@ sp needed
 487 002c 80BC     		pop	{r7}
 488              		.cfi_restore 7
 489              		.cfi_def_cfa_offset 0
 490 002e 7047     		bx	lr
 491              	.L24:
 492              		.align	2
 493              	.L23:
 494 0030 00440258 		.word	1476543488
 495              		.cfi_endproc
 496              	.LFE386:
 497              		.size	__rccResetAHB3, .-__rccResetAHB3
 498              		.section	.text.__rccResetAHB4,"ax",%progbits
 499              		.align	1
 500              		.syntax unified
 501              		.thumb
 502              		.thumb_func
 503              		.type	__rccResetAHB4, %function
 504              	__rccResetAHB4:
 505              	.LFB387:
 506              		.loc 1 121 52
 507              		.cfi_startproc
 508              		@ args = 0, pretend = 0, frame = 8
 509              		@ frame_needed = 1, uses_anonymous_args = 0
 510              		@ link register save eliminated.
 511 0000 80B4     		push	{r7}
 512              		.cfi_def_cfa_offset 4
 513              		.cfi_offset 7, -4
ARM GAS  C:\Users\DEVELO~1\AppData\Local\Temp\ccqM33Ed.s 			page 10


 514 0002 83B0     		sub	sp, sp, #12
 515              		.cfi_def_cfa_offset 16
 516 0004 00AF     		add	r7, sp, #0
 517              		.cfi_def_cfa_register 7
 518 0006 7860     		str	r0, [r7, #4]
 519              		.loc 1 124 17
 520 0008 0C4B     		ldr	r3, .L26
 521 000a D3F88820 		ldr	r2, [r3, #136]
 522 000e 0B49     		ldr	r1, .L26
 523 0010 7B68     		ldr	r3, [r7, #4]
 524 0012 1343     		orrs	r3, r3, r2
 525 0014 C1F88830 		str	r3, [r1, #136]
 526              		.loc 1 125 17
 527 0018 084B     		ldr	r3, .L26
 528 001a D3F88820 		ldr	r2, [r3, #136]
 529              		.loc 1 125 20
 530 001e 7B68     		ldr	r3, [r7, #4]
 531 0020 DB43     		mvns	r3, r3
 532              		.loc 1 125 17
 533 0022 0649     		ldr	r1, .L26
 534 0024 1340     		ands	r3, r3, r2
 535 0026 C1F88830 		str	r3, [r1, #136]
 536              		.loc 1 126 12
 537 002a 044B     		ldr	r3, .L26
 538              		.loc 1 126 3
 539 002c D3F88830 		ldr	r3, [r3, #136]
 540              		.loc 1 127 1
 541 0030 00BF     		nop
 542 0032 0C37     		adds	r7, r7, #12
 543              		.cfi_def_cfa_offset 4
 544 0034 BD46     		mov	sp, r7
 545              		.cfi_def_cfa_register 13
 546              		@ sp needed
 547 0036 80BC     		pop	{r7}
 548              		.cfi_restore 7
 549              		.cfi_def_cfa_offset 0
 550 0038 7047     		bx	lr
 551              	.L27:
 552 003a 00BF     		.align	2
 553              	.L26:
 554 003c 00440258 		.word	1476543488
 555              		.cfi_endproc
 556              	.LFE387:
 557              		.size	__rccResetAHB4, .-__rccResetAHB4
 558              		.section	.text.rccEnableAPB4,"ax",%progbits
 559              		.align	1
 560              		.syntax unified
 561              		.thumb
 562              		.thumb_func
 563              		.type	rccEnableAPB4, %function
 564              	rccEnableAPB4:
 565              	.LFB400:
 566              		.loc 1 497 60
 567              		.cfi_startproc
 568              		@ args = 0, pretend = 0, frame = 8
 569              		@ frame_needed = 1, uses_anonymous_args = 0
 570              		@ link register save eliminated.
ARM GAS  C:\Users\DEVELO~1\AppData\Local\Temp\ccqM33Ed.s 			page 11


 571 0000 80B4     		push	{r7}
 572              		.cfi_def_cfa_offset 4
 573              		.cfi_offset 7, -4
 574 0002 83B0     		sub	sp, sp, #12
 575              		.cfi_def_cfa_offset 16
 576 0004 00AF     		add	r7, sp, #0
 577              		.cfi_def_cfa_register 7
 578 0006 7860     		str	r0, [r7, #4]
 579 0008 0B46     		mov	r3, r1
 580 000a FB70     		strb	r3, [r7, #3]
 581              		.loc 1 501 19
 582 000c 124B     		ldr	r3, .L31
 583 000e D3F8F420 		ldr	r2, [r3, #244]
 584 0012 1149     		ldr	r1, .L31
 585 0014 7B68     		ldr	r3, [r7, #4]
 586 0016 1343     		orrs	r3, r3, r2
 587 0018 C1F8F430 		str	r3, [r1, #244]
 588              		.loc 1 502 6
 589 001c FB78     		ldrb	r3, [r7, #3]	@ zero_extendqisi2
 590 001e 002B     		cmp	r3, #0
 591 0020 08D0     		beq	.L29
 592              		.loc 1 503 23
 593 0022 0D4B     		ldr	r3, .L31
 594 0024 D3F81C21 		ldr	r2, [r3, #284]
 595 0028 0B49     		ldr	r1, .L31
 596 002a 7B68     		ldr	r3, [r7, #4]
 597 002c 1343     		orrs	r3, r3, r2
 598 002e C1F81C31 		str	r3, [r1, #284]
 599 0032 08E0     		b	.L30
 600              	.L29:
 601              		.loc 1 506 23
 602 0034 084B     		ldr	r3, .L31
 603 0036 D3F81C21 		ldr	r2, [r3, #284]
 604              		.loc 1 506 26
 605 003a 7B68     		ldr	r3, [r7, #4]
 606 003c DB43     		mvns	r3, r3
 607              		.loc 1 506 23
 608 003e 0649     		ldr	r1, .L31
 609 0040 1340     		ands	r3, r3, r2
 610 0042 C1F81C31 		str	r3, [r1, #284]
 611              	.L30:
 612              		.loc 1 508 15
 613 0046 044B     		ldr	r3, .L31
 614              		.loc 1 508 3
 615 0048 D3F81C31 		ldr	r3, [r3, #284]
 616              		.loc 1 520 1
 617 004c 00BF     		nop
 618 004e 0C37     		adds	r7, r7, #12
 619              		.cfi_def_cfa_offset 4
 620 0050 BD46     		mov	sp, r7
 621              		.cfi_def_cfa_register 13
 622              		@ sp needed
 623 0052 80BC     		pop	{r7}
 624              		.cfi_restore 7
 625              		.cfi_def_cfa_offset 0
 626 0054 7047     		bx	lr
 627              	.L32:
ARM GAS  C:\Users\DEVELO~1\AppData\Local\Temp\ccqM33Ed.s 			page 12


 628 0056 00BF     		.align	2
 629              	.L31:
 630 0058 00440258 		.word	1476543488
 631              		.cfi_endproc
 632              	.LFE400:
 633              		.size	rccEnableAPB4, .-rccEnableAPB4
 634              		.section	.text.rccEnableAHB2,"ax",%progbits
 635              		.align	1
 636              		.syntax unified
 637              		.thumb
 638              		.thumb_func
 639              		.type	rccEnableAHB2, %function
 640              	rccEnableAHB2:
 641              	.LFB406:
 642              		.loc 1 675 60
 643              		.cfi_startproc
 644              		@ args = 0, pretend = 0, frame = 8
 645              		@ frame_needed = 1, uses_anonymous_args = 0
 646              		@ link register save eliminated.
 647 0000 80B4     		push	{r7}
 648              		.cfi_def_cfa_offset 4
 649              		.cfi_offset 7, -4
 650 0002 83B0     		sub	sp, sp, #12
 651              		.cfi_def_cfa_offset 16
 652 0004 00AF     		add	r7, sp, #0
 653              		.cfi_def_cfa_register 7
 654 0006 7860     		str	r0, [r7, #4]
 655 0008 0B46     		mov	r3, r1
 656 000a FB70     		strb	r3, [r7, #3]
 657              		.loc 1 679 19
 658 000c 124B     		ldr	r3, .L36
 659 000e D3F8DC20 		ldr	r2, [r3, #220]
 660 0012 1149     		ldr	r1, .L36
 661 0014 7B68     		ldr	r3, [r7, #4]
 662 0016 1343     		orrs	r3, r3, r2
 663 0018 C1F8DC30 		str	r3, [r1, #220]
 664              		.loc 1 680 6
 665 001c FB78     		ldrb	r3, [r7, #3]	@ zero_extendqisi2
 666 001e 002B     		cmp	r3, #0
 667 0020 08D0     		beq	.L34
 668              		.loc 1 681 23
 669 0022 0D4B     		ldr	r3, .L36
 670 0024 D3F80421 		ldr	r2, [r3, #260]
 671 0028 0B49     		ldr	r1, .L36
 672 002a 7B68     		ldr	r3, [r7, #4]
 673 002c 1343     		orrs	r3, r3, r2
 674 002e C1F80431 		str	r3, [r1, #260]
 675 0032 08E0     		b	.L35
 676              	.L34:
 677              		.loc 1 684 23
 678 0034 084B     		ldr	r3, .L36
 679 0036 D3F80421 		ldr	r2, [r3, #260]
 680              		.loc 1 684 26
 681 003a 7B68     		ldr	r3, [r7, #4]
 682 003c DB43     		mvns	r3, r3
 683              		.loc 1 684 23
 684 003e 0649     		ldr	r1, .L36
ARM GAS  C:\Users\DEVELO~1\AppData\Local\Temp\ccqM33Ed.s 			page 13


 685 0040 1340     		ands	r3, r3, r2
 686 0042 C1F80431 		str	r3, [r1, #260]
 687              	.L35:
 688              		.loc 1 686 15
 689 0046 044B     		ldr	r3, .L36
 690              		.loc 1 686 3
 691 0048 D3F80431 		ldr	r3, [r3, #260]
 692              		.loc 1 698 1
 693 004c 00BF     		nop
 694 004e 0C37     		adds	r7, r7, #12
 695              		.cfi_def_cfa_offset 4
 696 0050 BD46     		mov	sp, r7
 697              		.cfi_def_cfa_register 13
 698              		@ sp needed
 699 0052 80BC     		pop	{r7}
 700              		.cfi_restore 7
 701              		.cfi_def_cfa_offset 0
 702 0054 7047     		bx	lr
 703              	.L37:
 704 0056 00BF     		.align	2
 705              	.L36:
 706 0058 00440258 		.word	1476543488
 707              		.cfi_endproc
 708              	.LFE406:
 709              		.size	rccEnableAHB2, .-rccEnableAHB2
 710              		.global	SystemCoreClock
 711              		.section	.data.SystemCoreClock,"aw"
 712              		.align	2
 713              		.type	SystemCoreClock, %object
 714              		.size	SystemCoreClock, 4
 715              	SystemCoreClock:
 716 0000 0084D717 		.word	400000000
 717              		.section	.text.init_bkp_domain,"ax",%progbits
 718              		.align	1
 719              		.syntax unified
 720              		.thumb
 721              		.thumb_func
 722              		.type	init_bkp_domain, %function
 723              	init_bkp_domain:
 724              	.LFB432:
 725              		.file 2 "../../../os/hal/ports/STM32/STM32H7xx/hal_lld.c"
 726              		.loc 2 58 42
 727              		.cfi_startproc
 728              		@ args = 0, pretend = 0, frame = 0
 729              		@ frame_needed = 1, uses_anonymous_args = 0
 730              		@ link register save eliminated.
 731 0000 80B4     		push	{r7}
 732              		.cfi_def_cfa_offset 4
 733              		.cfi_offset 7, -4
 734 0002 00AF     		add	r7, sp, #0
 735              		.cfi_def_cfa_register 7
 736              		.loc 2 61 12
 737 0004 0B4B     		ldr	r3, .L41
 738 0006 1B68     		ldr	r3, [r3]
 739 0008 0A4A     		ldr	r2, .L41
 740 000a 43F48073 		orr	r3, r3, #256
 741 000e 1360     		str	r3, [r2]
ARM GAS  C:\Users\DEVELO~1\AppData\Local\Temp\ccqM33Ed.s 			page 14


 742              		.loc 2 64 11
 743 0010 094B     		ldr	r3, .L41+4
 744 0012 1B6F     		ldr	r3, [r3, #112]
 745              		.loc 2 64 18
 746 0014 03F44073 		and	r3, r3, #768
 747              		.loc 2 64 6
 748 0018 B3F5007F 		cmp	r3, #512
 749 001c 06D0     		beq	.L40
 750              		.loc 2 66 8
 751 001e 064B     		ldr	r3, .L41+4
 752              		.loc 2 66 15
 753 0020 4FF48032 		mov	r2, #65536
 754 0024 1A67     		str	r2, [r3, #112]
 755              		.loc 2 67 8
 756 0026 044B     		ldr	r3, .L41+4
 757              		.loc 2 67 15
 758 0028 0022     		movs	r2, #0
 759 002a 1A67     		str	r2, [r3, #112]
 760              	.L40:
 761              		.loc 2 93 1
 762 002c 00BF     		nop
 763 002e BD46     		mov	sp, r7
 764              		.cfi_def_cfa_register 13
 765              		@ sp needed
 766 0030 80BC     		pop	{r7}
 767              		.cfi_restore 7
 768              		.cfi_def_cfa_offset 0
 769 0032 7047     		bx	lr
 770              	.L42:
 771              		.align	2
 772              	.L41:
 773 0034 00480258 		.word	1476544512
 774 0038 00440258 		.word	1476543488
 775              		.cfi_endproc
 776              	.LFE432:
 777              		.size	init_bkp_domain, .-init_bkp_domain
 778              		.section	.text.init_pwr,"ax",%progbits
 779              		.align	1
 780              		.syntax unified
 781              		.thumb
 782              		.thumb_func
 783              		.type	init_pwr, %function
 784              	init_pwr:
 785              	.LFB433:
 786              		.loc 2 98 35
 787              		.cfi_startproc
 788              		@ args = 0, pretend = 0, frame = 0
 789              		@ frame_needed = 1, uses_anonymous_args = 0
 790              		@ link register save eliminated.
 791 0000 80B4     		push	{r7}
 792              		.cfi_def_cfa_offset 4
 793              		.cfi_offset 7, -4
 794 0002 00AF     		add	r7, sp, #0
 795              		.cfi_def_cfa_register 7
 796              		.loc 2 106 6
 797 0004 124B     		ldr	r3, .L46
 798              		.loc 2 106 14
ARM GAS  C:\Users\DEVELO~1\AppData\Local\Temp\ccqM33Ed.s 			page 15


 799 0006 0222     		movs	r2, #2
 800 0008 DA60     		str	r2, [r3, #12]
 801              		.loc 2 107 9
 802 000a 00BF     		nop
 803              	.L44:
 804              		.loc 2 107 14 discriminator 1
 805 000c 104B     		ldr	r3, .L46
 806 000e 5B68     		ldr	r3, [r3, #4]
 807              		.loc 2 107 21 discriminator 1
 808 0010 03F40053 		and	r3, r3, #8192
 809              		.loc 2 107 43 discriminator 1
 810 0014 002B     		cmp	r3, #0
 811 0016 F9D0     		beq	.L44
 812              		.loc 2 110 6
 813 0018 0D4B     		ldr	r3, .L46
 814              		.loc 2 110 14
 815 001a 0E4A     		ldr	r2, .L46+4
 816 001c 1A60     		str	r2, [r3]
 817              		.loc 2 111 6
 818 001e 0C4B     		ldr	r3, .L46
 819              		.loc 2 111 14
 820 0020 0122     		movs	r2, #1
 821 0022 9A60     		str	r2, [r3, #8]
 822              		.loc 2 112 6
 823 0024 0A4B     		ldr	r3, .L46
 824              		.loc 2 112 14
 825 0026 0C4A     		ldr	r2, .L46+8
 826 0028 DA60     		str	r2, [r3, #12]
 827              		.loc 2 113 6
 828 002a 094B     		ldr	r3, .L46
 829              		.loc 2 113 14
 830 002c 0022     		movs	r2, #0
 831 002e 1A61     		str	r2, [r3, #16]
 832              		.loc 2 117 6
 833 0030 074B     		ldr	r3, .L46
 834              		.loc 2 117 14
 835 0032 4FF44042 		mov	r2, #49152
 836 0036 9A61     		str	r2, [r3, #24]
 837              		.loc 2 127 9
 838 0038 00BF     		nop
 839              	.L45:
 840              		.loc 2 127 14 discriminator 1
 841 003a 054B     		ldr	r3, .L46
 842 003c 9B69     		ldr	r3, [r3, #24]
 843              		.loc 2 127 21 discriminator 1
 844 003e 03F40053 		and	r3, r3, #8192
 845              		.loc 2 127 40 discriminator 1
 846 0042 002B     		cmp	r3, #0
 847 0044 F9D0     		beq	.L45
 848              		.loc 2 135 1
 849 0046 00BF     		nop
 850 0048 00BF     		nop
 851 004a BD46     		mov	sp, r7
 852              		.cfi_def_cfa_register 13
 853              		@ sp needed
 854 004c 80BC     		pop	{r7}
 855              		.cfi_restore 7
ARM GAS  C:\Users\DEVELO~1\AppData\Local\Temp\ccqM33Ed.s 			page 16


 856              		.cfi_def_cfa_offset 0
 857 004e 7047     		bx	lr
 858              	.L47:
 859              		.align	2
 860              	.L46:
 861 0050 00480258 		.word	1476544512
 862 0054 00C000F0 		.word	-268386304
 863 0058 02000001 		.word	16777218
 864              		.cfi_endproc
 865              	.LFE433:
 866              		.size	init_pwr, .-init_pwr
 867              		.section	.text.hal_lld_init,"ax",%progbits
 868              		.align	1
 869              		.global	hal_lld_init
 870              		.syntax unified
 871              		.thumb
 872              		.thumb_func
 873              		.type	hal_lld_init, %function
 874              	hal_lld_init:
 875              	.LFB434:
 876              		.loc 2 150 25
 877              		.cfi_startproc
 878              		@ args = 0, pretend = 0, frame = 0
 879              		@ frame_needed = 1, uses_anonymous_args = 0
 880 0000 80B5     		push	{r7, lr}
 881              		.cfi_def_cfa_offset 8
 882              		.cfi_offset 7, -8
 883              		.cfi_offset 14, -4
 884 0002 00AF     		add	r7, sp, #0
 885              		.cfi_def_cfa_register 7
 886              		.loc 2 160 3
 887 0004 6FF00040 		mvn	r0, #-2147483648
 888 0008 FFF7FEFF 		bl	__rccResetAHB1
 889              		.loc 2 161 3
 890 000c 4FF0FF30 		mov	r0, #-1
 891 0010 FFF7FEFF 		bl	__rccResetAHB2
 892              		.loc 2 162 3
 893 0014 0F48     		ldr	r0, .L49
 894 0016 FFF7FEFF 		bl	__rccResetAHB3
 895              		.loc 2 177 3
 896 001a 0F48     		ldr	r0, .L49+4
 897 001c FFF7FEFF 		bl	__rccResetAHB4
 898              		.loc 2 178 3
 899 0020 4FF0FF30 		mov	r0, #-1
 900 0024 FFF7FEFF 		bl	__rccResetAPB1L
 901              		.loc 2 179 3
 902 0028 4FF0FF30 		mov	r0, #-1
 903 002c FFF7FEFF 		bl	__rccResetAPB1H
 904              		.loc 2 180 3
 905 0030 4FF0FF30 		mov	r0, #-1
 906 0034 FFF7FEFF 		bl	__rccResetAPB2
 907              		.loc 2 181 3
 908 0038 4FF0FF30 		mov	r0, #-1
 909 003c FFF7FEFF 		bl	__rccResetAPB3
 910              		.loc 2 182 3
 911 0040 4FF0FF30 		mov	r0, #-1
 912 0044 FFF7FEFF 		bl	__rccResetAPB4
ARM GAS  C:\Users\DEVELO~1\AppData\Local\Temp\ccqM33Ed.s 			page 17


 913              		.loc 2 190 3
 914 0048 FFF7FEFF 		bl	dmaInit
 915              		.loc 2 197 3
 916 004c FFF7FEFF 		bl	irqInit
 917              		.loc 2 218 1
 918 0050 00BF     		nop
 919 0052 80BD     		pop	{r7, pc}
 920              	.L50:
 921              		.align	2
 922              	.L49:
 923 0054 FFEFFF7F 		.word	2147479551
 924 0058 00F8FFFF 		.word	-2048
 925              		.cfi_endproc
 926              	.LFE434:
 927              		.size	hal_lld_init, .-hal_lld_init
 928              		.section	.text.stm32_clock_init,"ax",%progbits
 929              		.align	1
 930              		.global	stm32_clock_init
 931              		.syntax unified
 932              		.thumb
 933              		.thumb_func
 934              		.type	stm32_clock_init, %function
 935              	stm32_clock_init:
 936              	.LFB435:
 937              		.loc 2 227 29
 938              		.cfi_startproc
 939              		@ args = 0, pretend = 0, frame = 16
 940              		@ frame_needed = 1, uses_anonymous_args = 0
 941 0000 80B5     		push	{r7, lr}
 942              		.cfi_def_cfa_offset 8
 943              		.cfi_offset 7, -8
 944              		.cfi_offset 14, -4
 945 0002 84B0     		sub	sp, sp, #16
 946              		.cfi_def_cfa_offset 24
 947 0004 00AF     		add	r7, sp, #0
 948              		.cfi_def_cfa_register 7
 949              		.loc 2 240 3
 950 0006 7A4B     		ldr	r3, .L59
 951              		.loc 2 240 58
 952 0008 0122     		movs	r2, #1
 953 000a 1A60     		str	r2, [r3]
 954              		.loc 2 245 3
 955 000c 0121     		movs	r1, #1
 956 000e 0220     		movs	r0, #2
 957 0010 FFF7FEFF 		bl	rccEnableAPB4
 958              		.loc 2 248 3
 959 0014 FFF7FEFF 		bl	init_pwr
 960              		.loc 2 251 3
 961 0018 FFF7FEFF 		bl	init_bkp_domain
 962              		.loc 2 255 11
 963 001c 754B     		ldr	r3, .L59+4
 964 001e 1B68     		ldr	r3, [r3]
 965 0020 744A     		ldr	r2, .L59+4
 966 0022 43F00103 		orr	r3, r3, #1
 967 0026 1360     		str	r3, [r2]
 968              		.loc 2 256 9
 969 0028 00BF     		nop
ARM GAS  C:\Users\DEVELO~1\AppData\Local\Temp\ccqM33Ed.s 			page 18


 970              	.L52:
 971              		.loc 2 256 15 discriminator 1
 972 002a 724B     		ldr	r3, .L59+4
 973 002c 1B68     		ldr	r3, [r3]
 974              		.loc 2 256 20 discriminator 1
 975 002e 03F00403 		and	r3, r3, #4
 976              		.loc 2 256 10 discriminator 1
 977 0032 002B     		cmp	r3, #0
 978 0034 F9D0     		beq	.L52
 979              		.loc 2 262 6
 980 0036 6F4B     		ldr	r3, .L59+4
 981              		.loc 2 262 16
 982 0038 0022     		movs	r2, #0
 983 003a 1A61     		str	r2, [r3, #16]
 984              		.loc 2 263 9
 985 003c 00BF     		nop
 986              	.L53:
 987              		.loc 2 263 14 discriminator 1
 988 003e 6D4B     		ldr	r3, .L59+4
 989 0040 1B69     		ldr	r3, [r3, #16]
 990              		.loc 2 263 21 discriminator 1
 991 0042 03F03803 		and	r3, r3, #56
 992              		.loc 2 263 37 discriminator 1
 993 0046 002B     		cmp	r3, #0
 994 0048 F9D1     		bne	.L53
 995              		.loc 2 267 6
 996 004a 6A4B     		ldr	r3, .L59+4
 997              		.loc 2 267 16
 998 004c 0122     		movs	r2, #1
 999 004e 1A60     		str	r2, [r3]
 1000              		.loc 2 268 6
 1001 0050 684B     		ldr	r3, .L59+4
 1002              		.loc 2 268 16
 1003 0052 4FF08042 		mov	r2, #1073741824
 1004 0056 5A60     		str	r2, [r3, #4]
 1005              		.loc 2 272 6
 1006 0058 664B     		ldr	r3, .L59+4
 1007              		.loc 2 272 16
 1008 005a 0022     		movs	r2, #0
 1009 005c 5A67     		str	r2, [r3, #116]
 1010              		.loc 2 273 6
 1011 005e 654B     		ldr	r3, .L59+4
 1012              		.loc 2 273 16
 1013 0060 654A     		ldr	r2, .L59+8
 1014 0062 DA62     		str	r2, [r3, #44]
 1015              		.loc 2 277 8
 1016 0064 654B     		ldr	r3, .L59+12
 1017 0066 FB60     		str	r3, [r7, #12]
 1018              		.loc 2 285 8
 1019 0068 FB68     		ldr	r3, [r7, #12]
 1020 006a 43F40043 		orr	r3, r3, #32768
 1021 006e FB60     		str	r3, [r7, #12]
 1022              		.loc 2 287 6
 1023 0070 604A     		ldr	r2, .L59+4
 1024              		.loc 2 287 13
 1025 0072 FB68     		ldr	r3, [r7, #12]
 1026 0074 1361     		str	r3, [r2, #16]
ARM GAS  C:\Users\DEVELO~1\AppData\Local\Temp\ccqM33Ed.s 			page 19


 1027              		.loc 2 294 11
 1028 0076 5F4B     		ldr	r3, .L59+4
 1029 0078 1B68     		ldr	r3, [r3]
 1030 007a 5E4A     		ldr	r2, .L59+4
 1031 007c 43F48033 		orr	r3, r3, #65536
 1032 0080 1360     		str	r3, [r2]
 1033              		.loc 2 296 9
 1034 0082 00BF     		nop
 1035              	.L54:
 1036              		.loc 2 296 14 discriminator 1
 1037 0084 5B4B     		ldr	r3, .L59+4
 1038 0086 1B68     		ldr	r3, [r3]
 1039              		.loc 2 296 19 discriminator 1
 1040 0088 03F40033 		and	r3, r3, #131072
 1041              		.loc 2 296 36 discriminator 1
 1042 008c 002B     		cmp	r3, #0
 1043 008e F9D0     		beq	.L54
 1044              		.loc 2 302 11
 1045 0090 584B     		ldr	r3, .L59+4
 1046 0092 1B68     		ldr	r3, [r3]
 1047 0094 574A     		ldr	r2, .L59+4
 1048 0096 43F48053 		orr	r3, r3, #4096
 1049 009a 1360     		str	r3, [r2]
 1050              		.loc 2 303 9
 1051 009c 00BF     		nop
 1052              	.L55:
 1053              		.loc 2 303 14 discriminator 1
 1054 009e 554B     		ldr	r3, .L59+4
 1055 00a0 1B68     		ldr	r3, [r3]
 1056              		.loc 2 303 19 discriminator 1
 1057 00a2 03F40053 		and	r3, r3, #8192
 1058              		.loc 2 303 38 discriminator 1
 1059 00a6 002B     		cmp	r3, #0
 1060 00a8 F9D0     		beq	.L55
 1061              	.LBB2:
 1062              		.loc 2 328 14
 1063 00aa 0023     		movs	r3, #0
 1064 00ac BB60     		str	r3, [r7, #8]
 1065              		.loc 2 329 14
 1066 00ae 0023     		movs	r3, #0
 1067 00b0 7B60     		str	r3, [r7, #4]
 1068              		.loc 2 330 14
 1069 00b2 0023     		movs	r3, #0
 1070 00b4 3B60     		str	r3, [r7]
 1071              		.loc 2 332 8
 1072 00b6 4F4B     		ldr	r3, .L59+4
 1073              		.loc 2 332 20
 1074 00b8 514A     		ldr	r2, .L59+16
 1075 00ba 9A62     		str	r2, [r3, #40]
 1076              		.loc 2 337 13
 1077 00bc 40F25573 		movw	r3, #1877
 1078 00c0 3B60     		str	r3, [r7]
 1079              		.loc 2 342 8
 1080 00c2 4C4B     		ldr	r3, .L59+4
 1081              		.loc 2 342 20
 1082 00c4 0022     		movs	r2, #0
 1083 00c6 5A63     		str	r2, [r3, #52]
ARM GAS  C:\Users\DEVELO~1\AppData\Local\Temp\ccqM33Ed.s 			page 20


 1084              		.loc 2 343 8
 1085 00c8 4A4B     		ldr	r3, .L59+4
 1086              		.loc 2 343 20
 1087 00ca 4E4A     		ldr	r2, .L59+20
 1088 00cc 1A63     		str	r2, [r3, #48]
 1089              		.loc 2 345 13
 1090 00ce BB68     		ldr	r3, [r7, #8]
 1091 00d0 43F08073 		orr	r3, r3, #16777216
 1092 00d4 BB60     		str	r3, [r7, #8]
 1093              		.loc 2 346 13
 1094 00d6 7B68     		ldr	r3, [r7, #4]
 1095 00d8 43F00073 		orr	r3, r3, #33554432
 1096 00dc 7B60     		str	r3, [r7, #4]
 1097              		.loc 2 348 13
 1098 00de 3B68     		ldr	r3, [r7]
 1099 00e0 43F48033 		orr	r3, r3, #65536
 1100 00e4 3B60     		str	r3, [r7]
 1101              		.loc 2 351 13
 1102 00e6 3B68     		ldr	r3, [r7]
 1103 00e8 43F40033 		orr	r3, r3, #131072
 1104 00ec 3B60     		str	r3, [r7]
 1105              		.loc 2 359 8
 1106 00ee 414B     		ldr	r3, .L59+4
 1107              		.loc 2 359 20
 1108 00f0 4CF29022 		movw	r2, #49808
 1109 00f4 DA63     		str	r2, [r3, #60]
 1110              		.loc 2 360 8
 1111 00f6 3F4B     		ldr	r3, .L59+4
 1112              		.loc 2 360 20
 1113 00f8 434A     		ldr	r2, .L59+24
 1114 00fa 9A63     		str	r2, [r3, #56]
 1115              		.loc 2 362 13
 1116 00fc BB68     		ldr	r3, [r7, #8]
 1117 00fe 43F08063 		orr	r3, r3, #67108864
 1118 0102 BB60     		str	r3, [r7, #8]
 1119              		.loc 2 363 13
 1120 0104 7B68     		ldr	r3, [r7, #4]
 1121 0106 43F00063 		orr	r3, r3, #134217728
 1122 010a 7B60     		str	r3, [r7, #4]
 1123              		.loc 2 365 13
 1124 010c 3B68     		ldr	r3, [r7]
 1125 010e 43F40023 		orr	r3, r3, #524288
 1126 0112 3B60     		str	r3, [r7]
 1127              		.loc 2 371 13
 1128 0114 3B68     		ldr	r3, [r7]
 1129 0116 43F40013 		orr	r3, r3, #2097152
 1130 011a 3B60     		str	r3, [r7]
 1131              		.loc 2 376 8
 1132 011c 354B     		ldr	r3, .L59+4
 1133              		.loc 2 376 20
 1134 011e 0022     		movs	r2, #0
 1135 0120 5A64     		str	r2, [r3, #68]
 1136              		.loc 2 377 8
 1137 0122 344B     		ldr	r3, .L59+4
 1138              		.loc 2 377 20
 1139 0124 394A     		ldr	r2, .L59+28
 1140 0126 1A64     		str	r2, [r3, #64]
ARM GAS  C:\Users\DEVELO~1\AppData\Local\Temp\ccqM33Ed.s 			page 21


 1141              		.loc 2 379 13
 1142 0128 BB68     		ldr	r3, [r7, #8]
 1143 012a 43F08053 		orr	r3, r3, #268435456
 1144 012e BB60     		str	r3, [r7, #8]
 1145              		.loc 2 380 13
 1146 0130 7B68     		ldr	r3, [r7, #4]
 1147 0132 43F00053 		orr	r3, r3, #536870912
 1148 0136 7B60     		str	r3, [r7, #4]
 1149              		.loc 2 382 13
 1150 0138 3B68     		ldr	r3, [r7]
 1151 013a 43F48003 		orr	r3, r3, #4194304
 1152 013e 3B60     		str	r3, [r7]
 1153              		.loc 2 388 13
 1154 0140 3B68     		ldr	r3, [r7]
 1155 0142 43F08073 		orr	r3, r3, #16777216
 1156 0146 3B60     		str	r3, [r7]
 1157              		.loc 2 393 8
 1158 0148 2A4A     		ldr	r2, .L59+4
 1159              		.loc 2 393 18
 1160 014a 3B68     		ldr	r3, [r7]
 1161 014c D362     		str	r3, [r2, #44]
 1162              		.loc 2 394 17
 1163 014e 294B     		ldr	r3, .L59+4
 1164 0150 1A68     		ldr	r2, [r3]
 1165 0152 2849     		ldr	r1, .L59+4
 1166 0154 BB68     		ldr	r3, [r7, #8]
 1167 0156 1343     		orrs	r3, r3, r2
 1168 0158 0B60     		str	r3, [r1]
 1169              		.loc 2 395 11
 1170 015a 00BF     		nop
 1171              	.L56:
 1172              		.loc 2 395 16 discriminator 1
 1173 015c 254B     		ldr	r3, .L59+4
 1174 015e 1A68     		ldr	r2, [r3]
 1175              		.loc 2 395 21 discriminator 1
 1176 0160 7B68     		ldr	r3, [r7, #4]
 1177 0162 1340     		ands	r3, r3, r2
 1178              		.loc 2 395 32 discriminator 1
 1179 0164 7A68     		ldr	r2, [r7, #4]
 1180 0166 9A42     		cmp	r2, r3
 1181 0168 F8D1     		bne	.L56
 1182              	.LBE2:
 1183              		.loc 2 406 6
 1184 016a 224B     		ldr	r3, .L59+4
 1185              		.loc 2 406 15
 1186 016c 4822     		movs	r2, #72
 1187 016e 9A61     		str	r2, [r3, #24]
 1188              		.loc 2 407 6
 1189 0170 204B     		ldr	r3, .L59+4
 1190              		.loc 2 407 15
 1191 0172 4FF48862 		mov	r2, #1088
 1192 0176 DA61     		str	r2, [r3, #28]
 1193              		.loc 2 408 6
 1194 0178 1E4B     		ldr	r3, .L59+4
 1195              		.loc 2 408 15
 1196 017a 4022     		movs	r2, #64
 1197 017c 1A62     		str	r2, [r3, #32]
ARM GAS  C:\Users\DEVELO~1\AppData\Local\Temp\ccqM33Ed.s 			page 22


 1198              		.loc 2 413 6
 1199 017e 1D4B     		ldr	r3, .L59+4
 1200              		.loc 2 413 17
 1201 0180 4FF48032 		mov	r2, #65536
 1202 0184 DA64     		str	r2, [r3, #76]
 1203              		.loc 2 415 6
 1204 0186 1B4B     		ldr	r3, .L59+4
 1205              		.loc 2 415 17
 1206 0188 214A     		ldr	r2, .L59+32
 1207 018a 1A65     		str	r2, [r3, #80]
 1208              		.loc 2 418 6
 1209 018c 194B     		ldr	r3, .L59+4
 1210              		.loc 2 418 17
 1211 018e 4FF4E002 		mov	r2, #7340032
 1212 0192 5A65     		str	r2, [r3, #84]
 1213              		.loc 2 421 6
 1214 0194 174B     		ldr	r3, .L59+4
 1215              		.loc 2 421 17
 1216 0196 4FF48032 		mov	r2, #65536
 1217 019a 9A65     		str	r2, [r3, #88]
 1218              		.loc 2 452 8
 1219 019c 1D4B     		ldr	r3, .L59+36
 1220              		.loc 2 452 14
 1221 019e 3222     		movs	r2, #50
 1222 01a0 1A60     		str	r2, [r3]
 1223              		.loc 2 454 9
 1224 01a2 00BF     		nop
 1225              	.L57:
 1226              		.loc 2 454 16 discriminator 1
 1227 01a4 1B4B     		ldr	r3, .L59+36
 1228 01a6 1B68     		ldr	r3, [r3]
 1229              		.loc 2 454 22 discriminator 1
 1230 01a8 03F00F03 		and	r3, r3, #15
 1231              		.loc 2 454 43 discriminator 1
 1232 01ac 022B     		cmp	r3, #2
 1233 01ae F9D1     		bne	.L57
 1234              		.loc 2 461 13
 1235 01b0 104B     		ldr	r3, .L59+4
 1236 01b2 1B69     		ldr	r3, [r3, #16]
 1237 01b4 0F4A     		ldr	r2, .L59+4
 1238 01b6 43F00303 		orr	r3, r3, #3
 1239 01ba 1361     		str	r3, [r2, #16]
 1240              		.loc 2 462 9
 1241 01bc 00BF     		nop
 1242              	.L58:
 1243              		.loc 2 462 14 discriminator 1
 1244 01be 0D4B     		ldr	r3, .L59+4
 1245 01c0 1B69     		ldr	r3, [r3, #16]
 1246              		.loc 2 462 21 discriminator 1
 1247 01c2 03F03803 		and	r3, r3, #56
 1248              		.loc 2 462 41 discriminator 1
 1249 01c6 182B     		cmp	r3, #24
 1250 01c8 F9D1     		bne	.L58
 1251              		.loc 2 477 3
 1252 01ca 0121     		movs	r1, #1
 1253 01cc 4FF00050 		mov	r0, #536870912
 1254 01d0 FFF7FEFF 		bl	rccEnableAHB2
ARM GAS  C:\Users\DEVELO~1\AppData\Local\Temp\ccqM33Ed.s 			page 23


 1255              		.loc 2 478 3
 1256 01d4 0121     		movs	r1, #1
 1257 01d6 4FF08040 		mov	r0, #1073741824
 1258 01da FFF7FEFF 		bl	rccEnableAHB2
 1259              		.loc 2 480 3
 1260 01de 0121     		movs	r1, #1
 1261 01e0 4FF00040 		mov	r0, #-2147483648
 1262 01e4 FFF7FEFF 		bl	rccEnableAHB2
 1263              		.loc 2 483 1
 1264 01e8 00BF     		nop
 1265 01ea 1037     		adds	r7, r7, #16
 1266              		.cfi_def_cfa_offset 8
 1267 01ec BD46     		mov	sp, r7
 1268              		.cfi_def_cfa_register 13
 1269              		@ sp needed
 1270 01ee 80BD     		pop	{r7, pc}
 1271              	.L60:
 1272              		.align	2
 1273              	.L59:
 1274 01f0 08810051 		.word	1358987528
 1275 01f4 00440258 		.word	1476543488
 1276 01f8 0000FF01 		.word	33488896
 1277 01fc 00081008 		.word	135268352
 1278 0200 42404000 		.word	4210754
 1279 0204 8F030901 		.word	17367951
 1280 0208 F412010B 		.word	184619764
 1281 020c 8F060507 		.word	117769871
 1282 0210 40000010 		.word	268435520
 1283 0214 00200052 		.word	1375739904
 1284              		.cfi_endproc
 1285              	.LFE435:
 1286              		.size	stm32_clock_init, .-stm32_clock_init
 1287              		.text
 1288              	.Letext0:
 1289              		.file 3 "c:\\chibistudio\\tools\\gnu tools arm embedded\\11.3 2022.08\\arm-none-eabi\\include\\mac
 1290              		.file 4 "c:\\chibistudio\\tools\\gnu tools arm embedded\\11.3 2022.08\\arm-none-eabi\\include\\sys
 1291              		.file 5 "../../../os/common/ext/ST/STM32H7xx/stm32h743xx.h"
 1292              		.file 6 "../../../os/hal/ports/STM32/STM32H7xx/stm32_isr.h"
 1293              		.file 7 "../../../os/hal/ports/STM32/LLD/DMAv2/stm32_dma.h"
 1294              		.file 8 "../../../os/common/ext/ST/STM32H7xx/system_stm32h7xx.h"