ARM GAS  C:\Users\DEVELO~1\AppData\Local\Temp\ccNdA3FK.s 			page 1


   1              		.cpu cortex-m7
   2              		.arch armv7e-m
   3              		.fpu softvfp
   4              		.eabi_attribute 20, 1
   5              		.eabi_attribute 21, 1
   6              		.eabi_attribute 23, 3
   7              		.eabi_attribute 24, 1
   8              		.eabi_attribute 25, 1
   9              		.eabi_attribute 26, 1
  10              		.eabi_attribute 30, 6
  11              		.eabi_attribute 34, 1
  12              		.eabi_attribute 18, 4
  13              		.file	"hal_st.c"
  14              		.text
  15              	.Ltext0:
  16              		.cfi_sections	.debug_frame
  17              		.section	.text.st_lld_get_counter,"ax",%progbits
  18              		.align	1
  19              		.syntax unified
  20              		.thumb
  21              		.thumb_func
  22              		.type	st_lld_get_counter, %function
  23              	st_lld_get_counter:
  24              	.LFB426:
  25              		.file 1 "../../../os/hal/ports/STM32/LLD/SYSTICKv1/hal_st_lld.h"
  26              		.loc 1 804 50
  27              		.cfi_startproc
  28              		@ args = 0, pretend = 0, frame = 0
  29              		@ frame_needed = 1, uses_anonymous_args = 0
  30              		@ link register save eliminated.
  31 0000 80B4     		push	{r7}
  32              		.cfi_def_cfa_offset 4
  33              		.cfi_offset 7, -4
  34 0002 00AF     		add	r7, sp, #0
  35              		.cfi_def_cfa_register 7
  36              		.loc 1 806 33
  37 0004 4FF08043 		mov	r3, #1073741824
  38              		.loc 1 806 10
  39 0008 5B6A     		ldr	r3, [r3, #36]
  40              		.loc 1 807 1
  41 000a 1846     		mov	r0, r3
  42 000c BD46     		mov	sp, r7
  43              		.cfi_def_cfa_register 13
  44              		@ sp needed
  45 000e 80BC     		pop	{r7}
  46              		.cfi_restore 7
  47              		.cfi_def_cfa_offset 0
  48 0010 7047     		bx	lr
  49              		.cfi_endproc
  50              	.LFE426:
  51              		.size	st_lld_get_counter, .-st_lld_get_counter
  52              		.section	.text.st_lld_start_alarm,"ax",%progbits
  53              		.align	1
  54              		.syntax unified
  55              		.thumb
  56              		.thumb_func
  57              		.type	st_lld_start_alarm, %function
ARM GAS  C:\Users\DEVELO~1\AppData\Local\Temp\ccNdA3FK.s 			page 2


  58              	st_lld_start_alarm:
  59              	.LFB427:
  60              		.loc 1 818 58
  61              		.cfi_startproc
  62              		@ args = 0, pretend = 0, frame = 8
  63              		@ frame_needed = 1, uses_anonymous_args = 0
  64              		@ link register save eliminated.
  65 0000 80B4     		push	{r7}
  66              		.cfi_def_cfa_offset 4
  67              		.cfi_offset 7, -4
  68 0002 83B0     		sub	sp, sp, #12
  69              		.cfi_def_cfa_offset 16
  70 0004 00AF     		add	r7, sp, #0
  71              		.cfi_def_cfa_register 7
  72 0006 7860     		str	r0, [r7, #4]
  73              		.loc 1 820 15
  74 0008 4FF08042 		mov	r2, #1073741824
  75              		.loc 1 820 24
  76 000c 7B68     		ldr	r3, [r7, #4]
  77 000e 5363     		str	r3, [r2, #52]
  78              		.loc 1 821 15
  79 0010 4FF08043 		mov	r3, #1073741824
  80              		.loc 1 821 24
  81 0014 0022     		movs	r2, #0
  82 0016 1A61     		str	r2, [r3, #16]
  83              		.loc 1 823 15
  84 0018 4FF08043 		mov	r3, #1073741824
  85              		.loc 1 823 24
  86 001c 0222     		movs	r2, #2
  87 001e DA60     		str	r2, [r3, #12]
  88              		.loc 1 827 1
  89 0020 00BF     		nop
  90 0022 0C37     		adds	r7, r7, #12
  91              		.cfi_def_cfa_offset 4
  92 0024 BD46     		mov	sp, r7
  93              		.cfi_def_cfa_register 13
  94              		@ sp needed
  95 0026 80BC     		pop	{r7}
  96              		.cfi_restore 7
  97              		.cfi_def_cfa_offset 0
  98 0028 7047     		bx	lr
  99              		.cfi_endproc
 100              	.LFE427:
 101              		.size	st_lld_start_alarm, .-st_lld_start_alarm
 102              		.section	.text.st_lld_stop_alarm,"ax",%progbits
 103              		.align	1
 104              		.syntax unified
 105              		.thumb
 106              		.thumb_func
 107              		.type	st_lld_stop_alarm, %function
 108              	st_lld_stop_alarm:
 109              	.LFB428:
 110              		.loc 1 834 44
 111              		.cfi_startproc
 112              		@ args = 0, pretend = 0, frame = 0
 113              		@ frame_needed = 1, uses_anonymous_args = 0
 114              		@ link register save eliminated.
ARM GAS  C:\Users\DEVELO~1\AppData\Local\Temp\ccNdA3FK.s 			page 3


 115 0000 80B4     		push	{r7}
 116              		.cfi_def_cfa_offset 4
 117              		.cfi_offset 7, -4
 118 0002 00AF     		add	r7, sp, #0
 119              		.cfi_def_cfa_register 7
 120              		.loc 1 837 15
 121 0004 4FF08043 		mov	r3, #1073741824
 122              		.loc 1 837 22
 123 0008 0022     		movs	r2, #0
 124 000a DA60     		str	r2, [r3, #12]
 125              		.loc 1 841 1
 126 000c 00BF     		nop
 127 000e BD46     		mov	sp, r7
 128              		.cfi_def_cfa_register 13
 129              		@ sp needed
 130 0010 80BC     		pop	{r7}
 131              		.cfi_restore 7
 132              		.cfi_def_cfa_offset 0
 133 0012 7047     		bx	lr
 134              		.cfi_endproc
 135              	.LFE428:
 136              		.size	st_lld_stop_alarm, .-st_lld_stop_alarm
 137              		.section	.text.st_lld_set_alarm,"ax",%progbits
 138              		.align	1
 139              		.syntax unified
 140              		.thumb
 141              		.thumb_func
 142              		.type	st_lld_set_alarm, %function
 143              	st_lld_set_alarm:
 144              	.LFB429:
 145              		.loc 1 850 56
 146              		.cfi_startproc
 147              		@ args = 0, pretend = 0, frame = 8
 148              		@ frame_needed = 1, uses_anonymous_args = 0
 149              		@ link register save eliminated.
 150 0000 80B4     		push	{r7}
 151              		.cfi_def_cfa_offset 4
 152              		.cfi_offset 7, -4
 153 0002 83B0     		sub	sp, sp, #12
 154              		.cfi_def_cfa_offset 16
 155 0004 00AF     		add	r7, sp, #0
 156              		.cfi_def_cfa_register 7
 157 0006 7860     		str	r0, [r7, #4]
 158              		.loc 1 852 15
 159 0008 4FF08042 		mov	r2, #1073741824
 160              		.loc 1 852 24
 161 000c 7B68     		ldr	r3, [r7, #4]
 162 000e 5363     		str	r3, [r2, #52]
 163              		.loc 1 853 1
 164 0010 00BF     		nop
 165 0012 0C37     		adds	r7, r7, #12
 166              		.cfi_def_cfa_offset 4
 167 0014 BD46     		mov	sp, r7
 168              		.cfi_def_cfa_register 13
 169              		@ sp needed
 170 0016 80BC     		pop	{r7}
 171              		.cfi_restore 7
ARM GAS  C:\Users\DEVELO~1\AppData\Local\Temp\ccNdA3FK.s 			page 4


 172              		.cfi_def_cfa_offset 0
 173 0018 7047     		bx	lr
 174              		.cfi_endproc
 175              	.LFE429:
 176              		.size	st_lld_set_alarm, .-st_lld_set_alarm
 177              		.section	.text.st_lld_get_alarm,"ax",%progbits
 178              		.align	1
 179              		.syntax unified
 180              		.thumb
 181              		.thumb_func
 182              		.type	st_lld_get_alarm, %function
 183              	st_lld_get_alarm:
 184              	.LFB430:
 185              		.loc 1 862 48
 186              		.cfi_startproc
 187              		@ args = 0, pretend = 0, frame = 0
 188              		@ frame_needed = 1, uses_anonymous_args = 0
 189              		@ link register save eliminated.
 190 0000 80B4     		push	{r7}
 191              		.cfi_def_cfa_offset 4
 192              		.cfi_offset 7, -4
 193 0002 00AF     		add	r7, sp, #0
 194              		.cfi_def_cfa_register 7
 195              		.loc 1 864 33
 196 0004 4FF08043 		mov	r3, #1073741824
 197              		.loc 1 864 10
 198 0008 5B6B     		ldr	r3, [r3, #52]
 199              		.loc 1 865 1
 200 000a 1846     		mov	r0, r3
 201 000c BD46     		mov	sp, r7
 202              		.cfi_def_cfa_register 13
 203              		@ sp needed
 204 000e 80BC     		pop	{r7}
 205              		.cfi_restore 7
 206              		.cfi_def_cfa_offset 0
 207 0010 7047     		bx	lr
 208              		.cfi_endproc
 209              	.LFE430:
 210              		.size	st_lld_get_alarm, .-st_lld_get_alarm
 211              		.section	.text.st_lld_is_alarm_active,"ax",%progbits
 212              		.align	1
 213              		.syntax unified
 214              		.thumb
 215              		.thumb_func
 216              		.type	st_lld_is_alarm_active, %function
 217              	st_lld_is_alarm_active:
 218              	.LFB431:
 219              		.loc 1 876 49
 220              		.cfi_startproc
 221              		@ args = 0, pretend = 0, frame = 0
 222              		@ frame_needed = 1, uses_anonymous_args = 0
 223              		@ link register save eliminated.
 224 0000 80B4     		push	{r7}
 225              		.cfi_def_cfa_offset 4
 226              		.cfi_offset 7, -4
 227 0002 00AF     		add	r7, sp, #0
 228              		.cfi_def_cfa_register 7
ARM GAS  C:\Users\DEVELO~1\AppData\Local\Temp\ccNdA3FK.s 			page 5


 229              		.loc 1 878 30
 230 0004 4FF08043 		mov	r3, #1073741824
 231 0008 DB68     		ldr	r3, [r3, #12]
 232              		.loc 1 878 37
 233 000a 03F00203 		and	r3, r3, #2
 234              		.loc 1 878 10
 235 000e 002B     		cmp	r3, #0
 236 0010 14BF     		ite	ne
 237 0012 0123     		movne	r3, #1
 238 0014 0023     		moveq	r3, #0
 239 0016 DBB2     		uxtb	r3, r3
 240              		.loc 1 879 1
 241 0018 1846     		mov	r0, r3
 242 001a BD46     		mov	sp, r7
 243              		.cfi_def_cfa_register 13
 244              		@ sp needed
 245 001c 80BC     		pop	{r7}
 246              		.cfi_restore 7
 247              		.cfi_def_cfa_offset 0
 248 001e 7047     		bx	lr
 249              		.cfi_endproc
 250              	.LFE431:
 251              		.size	st_lld_is_alarm_active, .-st_lld_is_alarm_active
 252              		.section	.text.stInit,"ax",%progbits
 253              		.align	1
 254              		.global	stInit
 255              		.syntax unified
 256              		.thumb
 257              		.thumb_func
 258              		.type	stInit, %function
 259              	stInit:
 260              	.LFB432:
 261              		.file 2 "../../../os/hal/src/hal_st.c"
 262              		.loc 2 69 19
 263              		.cfi_startproc
 264              		@ args = 0, pretend = 0, frame = 0
 265              		@ frame_needed = 1, uses_anonymous_args = 0
 266 0000 80B5     		push	{r7, lr}
 267              		.cfi_def_cfa_offset 8
 268              		.cfi_offset 7, -8
 269              		.cfi_offset 14, -4
 270 0002 00AF     		add	r7, sp, #0
 271              		.cfi_def_cfa_register 7
 272              		.loc 2 77 3
 273 0004 FFF7FEFF 		bl	st_lld_init
 274              		.loc 2 78 1
 275 0008 00BF     		nop
 276 000a 80BD     		pop	{r7, pc}
 277              		.cfi_endproc
 278              	.LFE432:
 279              		.size	stInit, .-stInit
 280              		.section	.text.stGetCounter,"ax",%progbits
 281              		.align	1
 282              		.global	stGetCounter
 283              		.syntax unified
 284              		.thumb
 285              		.thumb_func
ARM GAS  C:\Users\DEVELO~1\AppData\Local\Temp\ccNdA3FK.s 			page 6


 286              		.type	stGetCounter, %function
 287              	stGetCounter:
 288              	.LFB433:
 289              		.loc 2 103 30
 290              		.cfi_startproc
 291              		@ args = 0, pretend = 0, frame = 0
 292              		@ frame_needed = 1, uses_anonymous_args = 0
 293 0000 80B5     		push	{r7, lr}
 294              		.cfi_def_cfa_offset 8
 295              		.cfi_offset 7, -8
 296              		.cfi_offset 14, -4
 297 0002 00AF     		add	r7, sp, #0
 298              		.cfi_def_cfa_register 7
 299              		.loc 2 105 10
 300 0004 FFF7FEFF 		bl	st_lld_get_counter
 301 0008 0346     		mov	r3, r0
 302              		.loc 2 106 1
 303 000a 1846     		mov	r0, r3
 304 000c 80BD     		pop	{r7, pc}
 305              		.cfi_endproc
 306              	.LFE433:
 307              		.size	stGetCounter, .-stGetCounter
 308              		.section	.text.stStartAlarm,"ax",%progbits
 309              		.align	1
 310              		.global	stStartAlarm
 311              		.syntax unified
 312              		.thumb
 313              		.thumb_func
 314              		.type	stStartAlarm, %function
 315              	stStartAlarm:
 316              	.LFB434:
 317              		.loc 2 119 38
 318              		.cfi_startproc
 319              		@ args = 0, pretend = 0, frame = 8
 320              		@ frame_needed = 1, uses_anonymous_args = 0
 321 0000 80B5     		push	{r7, lr}
 322              		.cfi_def_cfa_offset 8
 323              		.cfi_offset 7, -8
 324              		.cfi_offset 14, -4
 325 0002 82B0     		sub	sp, sp, #8
 326              		.cfi_def_cfa_offset 16
 327 0004 00AF     		add	r7, sp, #0
 328              		.cfi_def_cfa_register 7
 329 0006 7860     		str	r0, [r7, #4]
 330              		.loc 2 123 3
 331 0008 7868     		ldr	r0, [r7, #4]
 332 000a FFF7FEFF 		bl	st_lld_start_alarm
 333              		.loc 2 124 1
 334 000e 00BF     		nop
 335 0010 0837     		adds	r7, r7, #8
 336              		.cfi_def_cfa_offset 8
 337 0012 BD46     		mov	sp, r7
 338              		.cfi_def_cfa_register 13
 339              		@ sp needed
 340 0014 80BD     		pop	{r7, pc}
 341              		.cfi_endproc
 342              	.LFE434:
ARM GAS  C:\Users\DEVELO~1\AppData\Local\Temp\ccNdA3FK.s 			page 7


 343              		.size	stStartAlarm, .-stStartAlarm
 344              		.section	.text.stStopAlarm,"ax",%progbits
 345              		.align	1
 346              		.global	stStopAlarm
 347              		.syntax unified
 348              		.thumb
 349              		.thumb_func
 350              		.type	stStopAlarm, %function
 351              	stStopAlarm:
 352              	.LFB435:
 353              		.loc 2 133 24
 354              		.cfi_startproc
 355              		@ args = 0, pretend = 0, frame = 0
 356              		@ frame_needed = 1, uses_anonymous_args = 0
 357 0000 80B5     		push	{r7, lr}
 358              		.cfi_def_cfa_offset 8
 359              		.cfi_offset 7, -8
 360              		.cfi_offset 14, -4
 361 0002 00AF     		add	r7, sp, #0
 362              		.cfi_def_cfa_register 7
 363              		.loc 2 135 3
 364 0004 FFF7FEFF 		bl	st_lld_stop_alarm
 365              		.loc 2 136 1
 366 0008 00BF     		nop
 367 000a 80BD     		pop	{r7, pc}
 368              		.cfi_endproc
 369              	.LFE435:
 370              		.size	stStopAlarm, .-stStopAlarm
 371              		.section	.text.stSetAlarm,"ax",%progbits
 372              		.align	1
 373              		.global	stSetAlarm
 374              		.syntax unified
 375              		.thumb
 376              		.thumb_func
 377              		.type	stSetAlarm, %function
 378              	stSetAlarm:
 379              	.LFB436:
 380              		.loc 2 147 36
 381              		.cfi_startproc
 382              		@ args = 0, pretend = 0, frame = 8
 383              		@ frame_needed = 1, uses_anonymous_args = 0
 384 0000 80B5     		push	{r7, lr}
 385              		.cfi_def_cfa_offset 8
 386              		.cfi_offset 7, -8
 387              		.cfi_offset 14, -4
 388 0002 82B0     		sub	sp, sp, #8
 389              		.cfi_def_cfa_offset 16
 390 0004 00AF     		add	r7, sp, #0
 391              		.cfi_def_cfa_register 7
 392 0006 7860     		str	r0, [r7, #4]
 393              		.loc 2 151 3
 394 0008 7868     		ldr	r0, [r7, #4]
 395 000a FFF7FEFF 		bl	st_lld_set_alarm
 396              		.loc 2 152 1
 397 000e 00BF     		nop
 398 0010 0837     		adds	r7, r7, #8
 399              		.cfi_def_cfa_offset 8
ARM GAS  C:\Users\DEVELO~1\AppData\Local\Temp\ccNdA3FK.s 			page 8


 400 0012 BD46     		mov	sp, r7
 401              		.cfi_def_cfa_register 13
 402              		@ sp needed
 403 0014 80BD     		pop	{r7, pc}
 404              		.cfi_endproc
 405              	.LFE436:
 406              		.size	stSetAlarm, .-stSetAlarm
 407              		.section	.text.stGetAlarm,"ax",%progbits
 408              		.align	1
 409              		.global	stGetAlarm
 410              		.syntax unified
 411              		.thumb
 412              		.thumb_func
 413              		.type	stGetAlarm, %function
 414              	stGetAlarm:
 415              	.LFB437:
 416              		.loc 2 163 28
 417              		.cfi_startproc
 418              		@ args = 0, pretend = 0, frame = 0
 419              		@ frame_needed = 1, uses_anonymous_args = 0
 420 0000 80B5     		push	{r7, lr}
 421              		.cfi_def_cfa_offset 8
 422              		.cfi_offset 7, -8
 423              		.cfi_offset 14, -4
 424 0002 00AF     		add	r7, sp, #0
 425              		.cfi_def_cfa_register 7
 426              		.loc 2 167 10
 427 0004 FFF7FEFF 		bl	st_lld_get_alarm
 428 0008 0346     		mov	r3, r0
 429              		.loc 2 168 1
 430 000a 1846     		mov	r0, r3
 431 000c 80BD     		pop	{r7, pc}
 432              		.cfi_endproc
 433              	.LFE437:
 434              		.size	stGetAlarm, .-stGetAlarm
 435              		.section	.text.stIsAlarmActive,"ax",%progbits
 436              		.align	1
 437              		.global	stIsAlarmActive
 438              		.syntax unified
 439              		.thumb
 440              		.thumb_func
 441              		.type	stIsAlarmActive, %function
 442              	stIsAlarmActive:
 443              	.LFB438:
 444              		.loc 2 179 28
 445              		.cfi_startproc
 446              		@ args = 0, pretend = 0, frame = 0
 447              		@ frame_needed = 1, uses_anonymous_args = 0
 448 0000 80B5     		push	{r7, lr}
 449              		.cfi_def_cfa_offset 8
 450              		.cfi_offset 7, -8
 451              		.cfi_offset 14, -4
 452 0002 00AF     		add	r7, sp, #0
 453              		.cfi_def_cfa_register 7
 454              		.loc 2 181 10
 455 0004 FFF7FEFF 		bl	st_lld_is_alarm_active
 456 0008 0346     		mov	r3, r0
ARM GAS  C:\Users\DEVELO~1\AppData\Local\Temp\ccNdA3FK.s 			page 9


 457              		.loc 2 182 1
 458 000a 1846     		mov	r0, r3
 459 000c 80BD     		pop	{r7, pc}
 460              		.cfi_endproc
 461              	.LFE438:
 462              		.size	stIsAlarmActive, .-stIsAlarmActive
 463              		.text
 464              	.Letext0:
 465              		.file 3 "c:\\chibistudio\\tools\\gnu tools arm embedded\\11.3 2022.08\\arm-none-eabi\\include\\mac
 466              		.file 4 "c:\\chibistudio\\tools\\gnu tools arm embedded\\11.3 2022.08\\arm-none-eabi\\include\\sys
 467              		.file 5 "../../../os/rt/include/chtime.h"
 468              		.file 6 "../../../os/hal/ports/STM32/LLD/TIMv1/stm32_tim.h"
 469              		.section	.debug_info,"",%progbits
 470              	.Ldebug_info0:
 471 0000 74030000 		.4byte	0x374
 472 0004 0500     		.2byte	0x5
 473 0006 01       		.byte	0x1
 474 0007 04       		.byte	0x4
 475 0008 00000000 		.4byte	.Ldebug_abbrev0
 476 000c 11       		.uleb128 0x11
 477 000d 82010000 		.4byte	.LASF38
 478 0011 1D       		.byte	0x1d
 479 0012 92000000 		.4byte	.LASF39
 480 0016 18010000 		.4byte	.LASF40
 481 001a 0C000000 		.4byte	.LLRL0
 482 001e 00000000 		.4byte	0
 483 0022 00000000 		.4byte	.Ldebug_line0
 484 0026 12       		.uleb128 0x12
 485 0027 04       		.byte	0x4
 486 0028 05       		.byte	0x5
 487 0029 696E7400 		.ascii	"int\000"
 488 002d 01       		.uleb128 0x1
 489 002e 04       		.byte	0x4
 490 002f 07       		.byte	0x7
 491 0030 1E020000 		.4byte	.LASF0
 492 0034 01       		.uleb128 0x1
 493 0035 08       		.byte	0x8
 494 0036 05       		.byte	0x5
 495 0037 69020000 		.4byte	.LASF1
 496 003b 01       		.uleb128 0x1
 497 003c 08       		.byte	0x8
 498 003d 04       		.byte	0x4
 499 003e 56020000 		.4byte	.LASF2
 500 0042 01       		.uleb128 0x1
 501 0043 01       		.byte	0x1
 502 0044 06       		.byte	0x6
 503 0045 BB020000 		.4byte	.LASF3
 504 0049 01       		.uleb128 0x1
 505 004a 01       		.byte	0x1
 506 004b 08       		.byte	0x8
 507 004c E7000000 		.4byte	.LASF4
 508 0050 01       		.uleb128 0x1
 509 0051 02       		.byte	0x2
 510 0052 05       		.byte	0x5
 511 0053 4B000000 		.4byte	.LASF5
 512 0057 01       		.uleb128 0x1
 513 0058 02       		.byte	0x2
ARM GAS  C:\Users\DEVELO~1\AppData\Local\Temp\ccNdA3FK.s 			page 10


 514 0059 07       		.byte	0x7
 515 005a 2C000000 		.4byte	.LASF6
 516 005e 01       		.uleb128 0x1
 517 005f 04       		.byte	0x4
 518 0060 05       		.byte	0x5
 519 0061 A7020000 		.4byte	.LASF7
 520 0065 06       		.uleb128 0x6
 521 0066 77010000 		.4byte	.LASF10
 522 006a 03       		.byte	0x3
 523 006b 4F       		.byte	0x4f
 524 006c 19       		.byte	0x19
 525 006d 71000000 		.4byte	0x71
 526 0071 01       		.uleb128 0x1
 527 0072 04       		.byte	0x4
 528 0073 07       		.byte	0x7
 529 0074 F5000000 		.4byte	.LASF8
 530 0078 01       		.uleb128 0x1
 531 0079 08       		.byte	0x8
 532 007a 07       		.byte	0x7
 533 007b D0000000 		.4byte	.LASF9
 534 007f 06       		.uleb128 0x6
 535 0080 9E020000 		.4byte	.LASF11
 536 0084 04       		.byte	0x4
 537 0085 30       		.byte	0x30
 538 0086 14       		.byte	0x14
 539 0087 65000000 		.4byte	0x65
 540 008b 07       		.uleb128 0x7
 541 008c 7F000000 		.4byte	0x7f
 542 0090 01       		.uleb128 0x1
 543 0091 01       		.byte	0x1
 544 0092 08       		.byte	0x8
 545 0093 B0020000 		.4byte	.LASF12
 546 0097 08       		.uleb128 0x8
 547 0098 90000000 		.4byte	0x90
 548 009c 06       		.uleb128 0x6
 549 009d 22000000 		.4byte	.LASF13
 550 00a1 05       		.byte	0x5
 551 00a2 6D       		.byte	0x6d
 552 00a3 12       		.byte	0x12
 553 00a4 7F000000 		.4byte	0x7f
 554 00a8 04       		.uleb128 0x4
 555 00a9 8B000000 		.4byte	0x8b
 556 00ad B8000000 		.4byte	0xb8
 557 00b1 05       		.uleb128 0x5
 558 00b2 2D000000 		.4byte	0x2d
 559 00b6 03       		.byte	0x3
 560 00b7 00       		.byte	0
 561 00b8 07       		.uleb128 0x7
 562 00b9 A8000000 		.4byte	0xa8
 563 00bd 04       		.uleb128 0x4
 564 00be 8B000000 		.4byte	0x8b
 565 00c2 CD000000 		.4byte	0xcd
 566 00c6 05       		.uleb128 0x5
 567 00c7 2D000000 		.4byte	0x2d
 568 00cb 01       		.byte	0x1
 569 00cc 00       		.byte	0
 570 00cd 07       		.uleb128 0x7
ARM GAS  C:\Users\DEVELO~1\AppData\Local\Temp\ccNdA3FK.s 			page 11


 571 00ce BD000000 		.4byte	0xbd
 572 00d2 01       		.uleb128 0x1
 573 00d3 01       		.byte	0x1
 574 00d4 02       		.byte	0x2
 575 00d5 C7020000 		.4byte	.LASF14
 576 00d9 13       		.uleb128 0x13
 577 00da 60       		.byte	0x60
 578 00db 06       		.byte	0x6
 579 00dc F601     		.2byte	0x1f6
 580 00de 09       		.byte	0x9
 581 00df D2010000 		.4byte	0x1d2
 582 00e3 02       		.uleb128 0x2
 583 00e4 43523100 		.ascii	"CR1\000"
 584 00e8 F701     		.2byte	0x1f7
 585 00ea 8B000000 		.4byte	0x8b
 586 00ee 00       		.byte	0
 587 00ef 02       		.uleb128 0x2
 588 00f0 43523200 		.ascii	"CR2\000"
 589 00f4 F801     		.2byte	0x1f8
 590 00f6 8B000000 		.4byte	0x8b
 591 00fa 04       		.byte	0x4
 592 00fb 03       		.uleb128 0x3
 593 00fc 8D020000 		.4byte	.LASF15
 594 0100 F901     		.2byte	0x1f9
 595 0102 8B000000 		.4byte	0x8b
 596 0106 08       		.byte	0x8
 597 0107 03       		.uleb128 0x3
 598 0108 AF000000 		.4byte	.LASF16
 599 010c FA01     		.2byte	0x1fa
 600 010e 8B000000 		.4byte	0x8b
 601 0112 0C       		.byte	0xc
 602 0113 02       		.uleb128 0x2
 603 0114 535200   		.ascii	"SR\000"
 604 0117 FB01     		.2byte	0x1fb
 605 0119 8B000000 		.4byte	0x8b
 606 011d 10       		.byte	0x10
 607 011e 02       		.uleb128 0x2
 608 011f 45475200 		.ascii	"EGR\000"
 609 0123 FC01     		.2byte	0x1fc
 610 0125 8B000000 		.4byte	0x8b
 611 0129 14       		.byte	0x14
 612 012a 03       		.uleb128 0x3
 613 012b 92020000 		.4byte	.LASF17
 614 012f FD01     		.2byte	0x1fd
 615 0131 8B000000 		.4byte	0x8b
 616 0135 18       		.byte	0x18
 617 0136 03       		.uleb128 0x3
 618 0137 B5020000 		.4byte	.LASF18
 619 013b FE01     		.2byte	0x1fe
 620 013d 8B000000 		.4byte	0x8b
 621 0141 1C       		.byte	0x1c
 622 0142 03       		.uleb128 0x3
 623 0143 88020000 		.4byte	.LASF19
 624 0147 FF01     		.2byte	0x1ff
 625 0149 8B000000 		.4byte	0x8b
 626 014d 20       		.byte	0x20
 627 014e 02       		.uleb128 0x2
ARM GAS  C:\Users\DEVELO~1\AppData\Local\Temp\ccNdA3FK.s 			page 12


 628 014f 434E5400 		.ascii	"CNT\000"
 629 0153 0002     		.2byte	0x200
 630 0155 8B000000 		.4byte	0x8b
 631 0159 24       		.byte	0x24
 632 015a 02       		.uleb128 0x2
 633 015b 50534300 		.ascii	"PSC\000"
 634 015f 0102     		.2byte	0x201
 635 0161 8B000000 		.4byte	0x8b
 636 0165 28       		.byte	0x28
 637 0166 02       		.uleb128 0x2
 638 0167 41525200 		.ascii	"ARR\000"
 639 016b 0202     		.2byte	0x202
 640 016d 8B000000 		.4byte	0x8b
 641 0171 2C       		.byte	0x2c
 642 0172 02       		.uleb128 0x2
 643 0173 52435200 		.ascii	"RCR\000"
 644 0177 0302     		.2byte	0x203
 645 0179 8B000000 		.4byte	0x8b
 646 017d 30       		.byte	0x30
 647 017e 02       		.uleb128 0x2
 648 017f 43435200 		.ascii	"CCR\000"
 649 0183 0402     		.2byte	0x204
 650 0185 B8000000 		.4byte	0xb8
 651 0189 34       		.byte	0x34
 652 018a 03       		.uleb128 0x3
 653 018b 00000000 		.4byte	.LASF20
 654 018f 0502     		.2byte	0x205
 655 0191 8B000000 		.4byte	0x8b
 656 0195 44       		.byte	0x44
 657 0196 02       		.uleb128 0x2
 658 0197 44435200 		.ascii	"DCR\000"
 659 019b 1302     		.2byte	0x213
 660 019d 8B000000 		.4byte	0x8b
 661 01a1 48       		.byte	0x48
 662 01a2 03       		.uleb128 0x3
 663 01a3 0D020000 		.4byte	.LASF21
 664 01a7 1402     		.2byte	0x214
 665 01a9 8B000000 		.4byte	0x8b
 666 01ad 4C       		.byte	0x4c
 667 01ae 02       		.uleb128 0x2
 668 01af 4F5200   		.ascii	"OR\000"
 669 01b2 1502     		.2byte	0x215
 670 01b4 8B000000 		.4byte	0x8b
 671 01b8 50       		.byte	0x50
 672 01b9 03       		.uleb128 0x3
 673 01ba 98020000 		.4byte	.LASF22
 674 01be 1602     		.2byte	0x216
 675 01c0 8B000000 		.4byte	0x8b
 676 01c4 54       		.byte	0x54
 677 01c5 03       		.uleb128 0x3
 678 01c6 CD020000 		.4byte	.LASF23
 679 01ca 1702     		.2byte	0x217
 680 01cc CD000000 		.4byte	0xcd
 681 01d0 58       		.byte	0x58
 682 01d1 00       		.byte	0
 683 01d2 14       		.uleb128 0x14
 684 01d3 74000000 		.4byte	.LASF24
ARM GAS  C:\Users\DEVELO~1\AppData\Local\Temp\ccNdA3FK.s 			page 13


 685 01d7 06       		.byte	0x6
 686 01d8 1902     		.2byte	0x219
 687 01da 03       		.byte	0x3
 688 01db D9000000 		.4byte	0xd9
 689 01df 15       		.uleb128 0x15
 690 01e0 3F000000 		.4byte	.LASF41
 691 01e4 01       		.byte	0x1
 692 01e5 1103     		.2byte	0x311
 693 01e7 08       		.byte	0x8
 694 01e8 0B       		.uleb128 0xb
 695 01e9 05000000 		.4byte	.LASF29
 696 01ed B3       		.byte	0xb3
 697 01ee 06       		.byte	0x6
 698 01ef D2000000 		.4byte	0xd2
 699 01f3 00000000 		.4byte	.LFB438
 700 01f7 0E000000 		.4byte	.LFE438-.LFB438
 701 01fb 01       		.uleb128 0x1
 702 01fc 9C       		.byte	0x9c
 703 01fd 16       		.uleb128 0x16
 704 01fe D2020000 		.4byte	.LASF42
 705 0202 02       		.byte	0x2
 706 0203 A3       		.byte	0xa3
 707 0204 0B       		.byte	0xb
 708 0205 9C000000 		.4byte	0x9c
 709 0209 00000000 		.4byte	.LFB437
 710 020d 0E000000 		.4byte	.LFE437-.LFB437
 711 0211 01       		.uleb128 0x1
 712 0212 9C       		.byte	0x9c
 713 0213 21020000 		.4byte	0x221
 714 0217 09       		.uleb128 0x9
 715 0218 B4000000 		.4byte	.LASF25
 716 021c 31020000 		.4byte	0x231
 717 0220 00       		.byte	0
 718 0221 04       		.uleb128 0x4
 719 0222 97000000 		.4byte	0x97
 720 0226 31020000 		.4byte	0x231
 721 022a 05       		.uleb128 0x5
 722 022b 2D000000 		.4byte	0x2d
 723 022f 0A       		.byte	0xa
 724 0230 00       		.byte	0
 725 0231 08       		.uleb128 0x8
 726 0232 21020000 		.4byte	0x221
 727 0236 0C       		.uleb128 0xc
 728 0237 4B020000 		.4byte	.LASF26
 729 023b 93       		.byte	0x93
 730 023c 00000000 		.4byte	.LFB436
 731 0240 16000000 		.4byte	.LFE436-.LFB436
 732 0244 01       		.uleb128 0x1
 733 0245 9C       		.byte	0x9c
 734 0246 62020000 		.4byte	0x262
 735 024a 0D       		.uleb128 0xd
 736 024b 55000000 		.4byte	.LASF28
 737 024f 93       		.byte	0x93
 738 0250 1B       		.byte	0x1b
 739 0251 9C000000 		.4byte	0x9c
 740 0255 02       		.uleb128 0x2
 741 0256 91       		.byte	0x91
ARM GAS  C:\Users\DEVELO~1\AppData\Local\Temp\ccNdA3FK.s 			page 14


 742 0257 74       		.sleb128 -12
 743 0258 09       		.uleb128 0x9
 744 0259 B4000000 		.4byte	.LASF25
 745 025d 31020000 		.4byte	0x231
 746 0261 00       		.byte	0
 747 0262 0E       		.uleb128 0xe
 748 0263 12020000 		.4byte	.LASF31
 749 0267 85       		.byte	0x85
 750 0268 00000000 		.4byte	.LFB435
 751 026c 0C000000 		.4byte	.LFE435-.LFB435
 752 0270 01       		.uleb128 0x1
 753 0271 9C       		.byte	0x9c
 754 0272 0C       		.uleb128 0xc
 755 0273 3E020000 		.4byte	.LASF27
 756 0277 77       		.byte	0x77
 757 0278 00000000 		.4byte	.LFB434
 758 027c 16000000 		.4byte	.LFE434-.LFB434
 759 0280 01       		.uleb128 0x1
 760 0281 9C       		.byte	0x9c
 761 0282 9E020000 		.4byte	0x29e
 762 0286 0D       		.uleb128 0xd
 763 0287 55000000 		.4byte	.LASF28
 764 028b 77       		.byte	0x77
 765 028c 1D       		.byte	0x1d
 766 028d 9C000000 		.4byte	0x9c
 767 0291 02       		.uleb128 0x2
 768 0292 91       		.byte	0x91
 769 0293 74       		.sleb128 -12
 770 0294 09       		.uleb128 0x9
 771 0295 B4000000 		.4byte	.LASF25
 772 0299 AE020000 		.4byte	0x2ae
 773 029d 00       		.byte	0
 774 029e 04       		.uleb128 0x4
 775 029f 97000000 		.4byte	0x97
 776 02a3 AE020000 		.4byte	0x2ae
 777 02a7 05       		.uleb128 0x5
 778 02a8 2D000000 		.4byte	0x2d
 779 02ac 0C       		.byte	0xc
 780 02ad 00       		.byte	0
 781 02ae 08       		.uleb128 0x8
 782 02af 9E020000 		.4byte	0x29e
 783 02b3 0B       		.uleb128 0xb
 784 02b4 15000000 		.4byte	.LASF30
 785 02b8 67       		.byte	0x67
 786 02b9 0B       		.byte	0xb
 787 02ba 9C000000 		.4byte	0x9c
 788 02be 00000000 		.4byte	.LFB433
 789 02c2 0E000000 		.4byte	.LFE433-.LFB433
 790 02c6 01       		.uleb128 0x1
 791 02c7 9C       		.byte	0x9c
 792 02c8 0E       		.uleb128 0xe
 793 02c9 62020000 		.4byte	.LASF32
 794 02cd 45       		.byte	0x45
 795 02ce 00000000 		.4byte	.LFB432
 796 02d2 0C000000 		.4byte	.LFE432-.LFB432
 797 02d6 01       		.uleb128 0x1
 798 02d7 9C       		.byte	0x9c
ARM GAS  C:\Users\DEVELO~1\AppData\Local\Temp\ccNdA3FK.s 			page 15


 799 02d8 0A       		.uleb128 0xa
 800 02d9 5D000000 		.4byte	.LASF33
 801 02dd 6C03     		.2byte	0x36c
 802 02df 14       		.byte	0x14
 803 02e0 D2000000 		.4byte	0xd2
 804 02e4 00000000 		.4byte	.LFB431
 805 02e8 20000000 		.4byte	.LFE431-.LFB431
 806 02ec 01       		.uleb128 0x1
 807 02ed 9C       		.byte	0x9c
 808 02ee 0A       		.uleb128 0xa
 809 02ef 77020000 		.4byte	.LASF34
 810 02f3 5E03     		.2byte	0x35e
 811 02f5 19       		.byte	0x19
 812 02f6 9C000000 		.4byte	0x9c
 813 02fa 00000000 		.4byte	.LFB430
 814 02fe 12000000 		.4byte	.LFE430-.LFB430
 815 0302 01       		.uleb128 0x1
 816 0303 9C       		.byte	0x9c
 817 0304 0F       		.uleb128 0xf
 818 0305 07010000 		.4byte	.LASF35
 819 0309 5203     		.2byte	0x352
 820 030b 00000000 		.4byte	.LFB429
 821 030f 1A000000 		.4byte	.LFE429-.LFB429
 822 0313 01       		.uleb128 0x1
 823 0314 9C       		.byte	0x9c
 824 0315 29030000 		.4byte	0x329
 825 0319 10       		.uleb128 0x10
 826 031a 55000000 		.4byte	.LASF28
 827 031e 5203     		.2byte	0x352
 828 0320 2F       		.byte	0x2f
 829 0321 9C000000 		.4byte	0x9c
 830 0325 02       		.uleb128 0x2
 831 0326 91       		.byte	0x91
 832 0327 74       		.sleb128 -12
 833 0328 00       		.byte	0
 834 0329 17       		.uleb128 0x17
 835 032a 80000000 		.4byte	.LASF43
 836 032e 01       		.byte	0x1
 837 032f 4203     		.2byte	0x342
 838 0331 14       		.byte	0x14
 839 0332 00000000 		.4byte	.LFB428
 840 0336 14000000 		.4byte	.LFE428-.LFB428
 841 033a 01       		.uleb128 0x1
 842 033b 9C       		.byte	0x9c
 843 033c 0F       		.uleb128 0xf
 844 033d BD000000 		.4byte	.LASF36
 845 0341 3203     		.2byte	0x332
 846 0343 00000000 		.4byte	.LFB427
 847 0347 2A000000 		.4byte	.LFE427-.LFB427
 848 034b 01       		.uleb128 0x1
 849 034c 9C       		.byte	0x9c
 850 034d 61030000 		.4byte	0x361
 851 0351 10       		.uleb128 0x10
 852 0352 55000000 		.4byte	.LASF28
 853 0356 3203     		.2byte	0x332
 854 0358 31       		.byte	0x31
 855 0359 9C000000 		.4byte	0x9c
ARM GAS  C:\Users\DEVELO~1\AppData\Local\Temp\ccNdA3FK.s 			page 16


 856 035d 02       		.uleb128 0x2
 857 035e 91       		.byte	0x91
 858 035f 74       		.sleb128 -12
 859 0360 00       		.byte	0
 860 0361 0A       		.uleb128 0xa
 861 0362 2B020000 		.4byte	.LASF37
 862 0366 2403     		.2byte	0x324
 863 0368 19       		.byte	0x19
 864 0369 9C000000 		.4byte	0x9c
 865 036d 00000000 		.4byte	.LFB426
 866 0371 12000000 		.4byte	.LFE426-.LFB426
 867 0375 01       		.uleb128 0x1
 868 0376 9C       		.byte	0x9c
 869 0377 00       		.byte	0
 870              		.section	.debug_abbrev,"",%progbits
 871              	.Ldebug_abbrev0:
 872 0000 01       		.uleb128 0x1
 873 0001 24       		.uleb128 0x24
 874 0002 00       		.byte	0
 875 0003 0B       		.uleb128 0xb
 876 0004 0B       		.uleb128 0xb
 877 0005 3E       		.uleb128 0x3e
 878 0006 0B       		.uleb128 0xb
 879 0007 03       		.uleb128 0x3
 880 0008 0E       		.uleb128 0xe
 881 0009 00       		.byte	0
 882 000a 00       		.byte	0
 883 000b 02       		.uleb128 0x2
 884 000c 0D       		.uleb128 0xd
 885 000d 00       		.byte	0
 886 000e 03       		.uleb128 0x3
 887 000f 08       		.uleb128 0x8
 888 0010 3A       		.uleb128 0x3a
 889 0011 21       		.uleb128 0x21
 890 0012 06       		.sleb128 6
 891 0013 3B       		.uleb128 0x3b
 892 0014 05       		.uleb128 0x5
 893 0015 39       		.uleb128 0x39
 894 0016 21       		.uleb128 0x21
 895 0017 19       		.sleb128 25
 896 0018 49       		.uleb128 0x49
 897 0019 13       		.uleb128 0x13
 898 001a 38       		.uleb128 0x38
 899 001b 0B       		.uleb128 0xb
 900 001c 00       		.byte	0
 901 001d 00       		.byte	0
 902 001e 03       		.uleb128 0x3
 903 001f 0D       		.uleb128 0xd
 904 0020 00       		.byte	0
 905 0021 03       		.uleb128 0x3
 906 0022 0E       		.uleb128 0xe
 907 0023 3A       		.uleb128 0x3a
 908 0024 21       		.uleb128 0x21
 909 0025 06       		.sleb128 6
 910 0026 3B       		.uleb128 0x3b
 911 0027 05       		.uleb128 0x5
 912 0028 39       		.uleb128 0x39
ARM GAS  C:\Users\DEVELO~1\AppData\Local\Temp\ccNdA3FK.s 			page 17


 913 0029 21       		.uleb128 0x21
 914 002a 19       		.sleb128 25
 915 002b 49       		.uleb128 0x49
 916 002c 13       		.uleb128 0x13
 917 002d 38       		.uleb128 0x38
 918 002e 0B       		.uleb128 0xb
 919 002f 00       		.byte	0
 920 0030 00       		.byte	0
 921 0031 04       		.uleb128 0x4
 922 0032 01       		.uleb128 0x1
 923 0033 01       		.byte	0x1
 924 0034 49       		.uleb128 0x49
 925 0035 13       		.uleb128 0x13
 926 0036 01       		.uleb128 0x1
 927 0037 13       		.uleb128 0x13
 928 0038 00       		.byte	0
 929 0039 00       		.byte	0
 930 003a 05       		.uleb128 0x5
 931 003b 21       		.uleb128 0x21
 932 003c 00       		.byte	0
 933 003d 49       		.uleb128 0x49
 934 003e 13       		.uleb128 0x13
 935 003f 2F       		.uleb128 0x2f
 936 0040 0B       		.uleb128 0xb
 937 0041 00       		.byte	0
 938 0042 00       		.byte	0
 939 0043 06       		.uleb128 0x6
 940 0044 16       		.uleb128 0x16
 941 0045 00       		.byte	0
 942 0046 03       		.uleb128 0x3
 943 0047 0E       		.uleb128 0xe
 944 0048 3A       		.uleb128 0x3a
 945 0049 0B       		.uleb128 0xb
 946 004a 3B       		.uleb128 0x3b
 947 004b 0B       		.uleb128 0xb
 948 004c 39       		.uleb128 0x39
 949 004d 0B       		.uleb128 0xb
 950 004e 49       		.uleb128 0x49
 951 004f 13       		.uleb128 0x13
 952 0050 00       		.byte	0
 953 0051 00       		.byte	0
 954 0052 07       		.uleb128 0x7
 955 0053 35       		.uleb128 0x35
 956 0054 00       		.byte	0
 957 0055 49       		.uleb128 0x49
 958 0056 13       		.uleb128 0x13
 959 0057 00       		.byte	0
 960 0058 00       		.byte	0
 961 0059 08       		.uleb128 0x8
 962 005a 26       		.uleb128 0x26
 963 005b 00       		.byte	0
 964 005c 49       		.uleb128 0x49
 965 005d 13       		.uleb128 0x13
 966 005e 00       		.byte	0
 967 005f 00       		.byte	0
 968 0060 09       		.uleb128 0x9
 969 0061 34       		.uleb128 0x34
ARM GAS  C:\Users\DEVELO~1\AppData\Local\Temp\ccNdA3FK.s 			page 18


 970 0062 00       		.byte	0
 971 0063 03       		.uleb128 0x3
 972 0064 0E       		.uleb128 0xe
 973 0065 49       		.uleb128 0x49
 974 0066 13       		.uleb128 0x13
 975 0067 34       		.uleb128 0x34
 976 0068 19       		.uleb128 0x19
 977 0069 00       		.byte	0
 978 006a 00       		.byte	0
 979 006b 0A       		.uleb128 0xa
 980 006c 2E       		.uleb128 0x2e
 981 006d 00       		.byte	0
 982 006e 03       		.uleb128 0x3
 983 006f 0E       		.uleb128 0xe
 984 0070 3A       		.uleb128 0x3a
 985 0071 21       		.uleb128 0x21
 986 0072 01       		.sleb128 1
 987 0073 3B       		.uleb128 0x3b
 988 0074 05       		.uleb128 0x5
 989 0075 39       		.uleb128 0x39
 990 0076 0B       		.uleb128 0xb
 991 0077 27       		.uleb128 0x27
 992 0078 19       		.uleb128 0x19
 993 0079 49       		.uleb128 0x49
 994 007a 13       		.uleb128 0x13
 995 007b 11       		.uleb128 0x11
 996 007c 01       		.uleb128 0x1
 997 007d 12       		.uleb128 0x12
 998 007e 06       		.uleb128 0x6
 999 007f 40       		.uleb128 0x40
 1000 0080 18       		.uleb128 0x18
 1001 0081 7A       		.uleb128 0x7a
 1002 0082 19       		.uleb128 0x19
 1003 0083 00       		.byte	0
 1004 0084 00       		.byte	0
 1005 0085 0B       		.uleb128 0xb
 1006 0086 2E       		.uleb128 0x2e
 1007 0087 00       		.byte	0
 1008 0088 3F       		.uleb128 0x3f
 1009 0089 19       		.uleb128 0x19
 1010 008a 03       		.uleb128 0x3
 1011 008b 0E       		.uleb128 0xe
 1012 008c 3A       		.uleb128 0x3a
 1013 008d 21       		.uleb128 0x21
 1014 008e 02       		.sleb128 2
 1015 008f 3B       		.uleb128 0x3b
 1016 0090 0B       		.uleb128 0xb
 1017 0091 39       		.uleb128 0x39
 1018 0092 0B       		.uleb128 0xb
 1019 0093 27       		.uleb128 0x27
 1020 0094 19       		.uleb128 0x19
 1021 0095 49       		.uleb128 0x49
 1022 0096 13       		.uleb128 0x13
 1023 0097 11       		.uleb128 0x11
 1024 0098 01       		.uleb128 0x1
 1025 0099 12       		.uleb128 0x12
 1026 009a 06       		.uleb128 0x6
ARM GAS  C:\Users\DEVELO~1\AppData\Local\Temp\ccNdA3FK.s 			page 19


 1027 009b 40       		.uleb128 0x40
 1028 009c 18       		.uleb128 0x18
 1029 009d 7C       		.uleb128 0x7c
 1030 009e 19       		.uleb128 0x19
 1031 009f 00       		.byte	0
 1032 00a0 00       		.byte	0
 1033 00a1 0C       		.uleb128 0xc
 1034 00a2 2E       		.uleb128 0x2e
 1035 00a3 01       		.byte	0x1
 1036 00a4 3F       		.uleb128 0x3f
 1037 00a5 19       		.uleb128 0x19
 1038 00a6 03       		.uleb128 0x3
 1039 00a7 0E       		.uleb128 0xe
 1040 00a8 3A       		.uleb128 0x3a
 1041 00a9 21       		.uleb128 0x21
 1042 00aa 02       		.sleb128 2
 1043 00ab 3B       		.uleb128 0x3b
 1044 00ac 0B       		.uleb128 0xb
 1045 00ad 39       		.uleb128 0x39
 1046 00ae 21       		.uleb128 0x21
 1047 00af 06       		.sleb128 6
 1048 00b0 27       		.uleb128 0x27
 1049 00b1 19       		.uleb128 0x19
 1050 00b2 11       		.uleb128 0x11
 1051 00b3 01       		.uleb128 0x1
 1052 00b4 12       		.uleb128 0x12
 1053 00b5 06       		.uleb128 0x6
 1054 00b6 40       		.uleb128 0x40
 1055 00b7 18       		.uleb128 0x18
 1056 00b8 7C       		.uleb128 0x7c
 1057 00b9 19       		.uleb128 0x19
 1058 00ba 01       		.uleb128 0x1
 1059 00bb 13       		.uleb128 0x13
 1060 00bc 00       		.byte	0
 1061 00bd 00       		.byte	0
 1062 00be 0D       		.uleb128 0xd
 1063 00bf 05       		.uleb128 0x5
 1064 00c0 00       		.byte	0
 1065 00c1 03       		.uleb128 0x3
 1066 00c2 0E       		.uleb128 0xe
 1067 00c3 3A       		.uleb128 0x3a
 1068 00c4 21       		.uleb128 0x21
 1069 00c5 02       		.sleb128 2
 1070 00c6 3B       		.uleb128 0x3b
 1071 00c7 0B       		.uleb128 0xb
 1072 00c8 39       		.uleb128 0x39
 1073 00c9 0B       		.uleb128 0xb
 1074 00ca 49       		.uleb128 0x49
 1075 00cb 13       		.uleb128 0x13
 1076 00cc 02       		.uleb128 0x2
 1077 00cd 18       		.uleb128 0x18
 1078 00ce 00       		.byte	0
 1079 00cf 00       		.byte	0
 1080 00d0 0E       		.uleb128 0xe
 1081 00d1 2E       		.uleb128 0x2e
 1082 00d2 00       		.byte	0
 1083 00d3 3F       		.uleb128 0x3f
ARM GAS  C:\Users\DEVELO~1\AppData\Local\Temp\ccNdA3FK.s 			page 20


 1084 00d4 19       		.uleb128 0x19
 1085 00d5 03       		.uleb128 0x3
 1086 00d6 0E       		.uleb128 0xe
 1087 00d7 3A       		.uleb128 0x3a
 1088 00d8 21       		.uleb128 0x21
 1089 00d9 02       		.sleb128 2
 1090 00da 3B       		.uleb128 0x3b
 1091 00db 0B       		.uleb128 0xb
 1092 00dc 39       		.uleb128 0x39
 1093 00dd 21       		.uleb128 0x21
 1094 00de 06       		.sleb128 6
 1095 00df 27       		.uleb128 0x27
 1096 00e0 19       		.uleb128 0x19
 1097 00e1 11       		.uleb128 0x11
 1098 00e2 01       		.uleb128 0x1
 1099 00e3 12       		.uleb128 0x12
 1100 00e4 06       		.uleb128 0x6
 1101 00e5 40       		.uleb128 0x40
 1102 00e6 18       		.uleb128 0x18
 1103 00e7 7C       		.uleb128 0x7c
 1104 00e8 19       		.uleb128 0x19
 1105 00e9 00       		.byte	0
 1106 00ea 00       		.byte	0
 1107 00eb 0F       		.uleb128 0xf
 1108 00ec 2E       		.uleb128 0x2e
 1109 00ed 01       		.byte	0x1
 1110 00ee 03       		.uleb128 0x3
 1111 00ef 0E       		.uleb128 0xe
 1112 00f0 3A       		.uleb128 0x3a
 1113 00f1 21       		.uleb128 0x21
 1114 00f2 01       		.sleb128 1
 1115 00f3 3B       		.uleb128 0x3b
 1116 00f4 05       		.uleb128 0x5
 1117 00f5 39       		.uleb128 0x39
 1118 00f6 21       		.uleb128 0x21
 1119 00f7 14       		.sleb128 20
 1120 00f8 27       		.uleb128 0x27
 1121 00f9 19       		.uleb128 0x19
 1122 00fa 11       		.uleb128 0x11
 1123 00fb 01       		.uleb128 0x1
 1124 00fc 12       		.uleb128 0x12
 1125 00fd 06       		.uleb128 0x6
 1126 00fe 40       		.uleb128 0x40
 1127 00ff 18       		.uleb128 0x18
 1128 0100 7A       		.uleb128 0x7a
 1129 0101 19       		.uleb128 0x19
 1130 0102 01       		.uleb128 0x1
 1131 0103 13       		.uleb128 0x13
 1132 0104 00       		.byte	0
 1133 0105 00       		.byte	0
 1134 0106 10       		.uleb128 0x10
 1135 0107 05       		.uleb128 0x5
 1136 0108 00       		.byte	0
 1137 0109 03       		.uleb128 0x3
 1138 010a 0E       		.uleb128 0xe
 1139 010b 3A       		.uleb128 0x3a
 1140 010c 21       		.uleb128 0x21
ARM GAS  C:\Users\DEVELO~1\AppData\Local\Temp\ccNdA3FK.s 			page 21


 1141 010d 01       		.sleb128 1
 1142 010e 3B       		.uleb128 0x3b
 1143 010f 05       		.uleb128 0x5
 1144 0110 39       		.uleb128 0x39
 1145 0111 0B       		.uleb128 0xb
 1146 0112 49       		.uleb128 0x49
 1147 0113 13       		.uleb128 0x13
 1148 0114 02       		.uleb128 0x2
 1149 0115 18       		.uleb128 0x18
 1150 0116 00       		.byte	0
 1151 0117 00       		.byte	0
 1152 0118 11       		.uleb128 0x11
 1153 0119 11       		.uleb128 0x11
 1154 011a 01       		.byte	0x1
 1155 011b 25       		.uleb128 0x25
 1156 011c 0E       		.uleb128 0xe
 1157 011d 13       		.uleb128 0x13
 1158 011e 0B       		.uleb128 0xb
 1159 011f 03       		.uleb128 0x3
 1160 0120 0E       		.uleb128 0xe
 1161 0121 1B       		.uleb128 0x1b
 1162 0122 0E       		.uleb128 0xe
 1163 0123 55       		.uleb128 0x55
 1164 0124 17       		.uleb128 0x17
 1165 0125 11       		.uleb128 0x11
 1166 0126 01       		.uleb128 0x1
 1167 0127 10       		.uleb128 0x10
 1168 0128 17       		.uleb128 0x17
 1169 0129 00       		.byte	0
 1170 012a 00       		.byte	0
 1171 012b 12       		.uleb128 0x12
 1172 012c 24       		.uleb128 0x24
 1173 012d 00       		.byte	0
 1174 012e 0B       		.uleb128 0xb
 1175 012f 0B       		.uleb128 0xb
 1176 0130 3E       		.uleb128 0x3e
 1177 0131 0B       		.uleb128 0xb
 1178 0132 03       		.uleb128 0x3
 1179 0133 08       		.uleb128 0x8
 1180 0134 00       		.byte	0
 1181 0135 00       		.byte	0
 1182 0136 13       		.uleb128 0x13
 1183 0137 13       		.uleb128 0x13
 1184 0138 01       		.byte	0x1
 1185 0139 0B       		.uleb128 0xb
 1186 013a 0B       		.uleb128 0xb
 1187 013b 3A       		.uleb128 0x3a
 1188 013c 0B       		.uleb128 0xb
 1189 013d 3B       		.uleb128 0x3b
 1190 013e 05       		.uleb128 0x5
 1191 013f 39       		.uleb128 0x39
 1192 0140 0B       		.uleb128 0xb
 1193 0141 01       		.uleb128 0x1
 1194 0142 13       		.uleb128 0x13
 1195 0143 00       		.byte	0
 1196 0144 00       		.byte	0
 1197 0145 14       		.uleb128 0x14
ARM GAS  C:\Users\DEVELO~1\AppData\Local\Temp\ccNdA3FK.s 			page 22


 1198 0146 16       		.uleb128 0x16
 1199 0147 00       		.byte	0
 1200 0148 03       		.uleb128 0x3
 1201 0149 0E       		.uleb128 0xe
 1202 014a 3A       		.uleb128 0x3a
 1203 014b 0B       		.uleb128 0xb
 1204 014c 3B       		.uleb128 0x3b
 1205 014d 05       		.uleb128 0x5
 1206 014e 39       		.uleb128 0x39
 1207 014f 0B       		.uleb128 0xb
 1208 0150 49       		.uleb128 0x49
 1209 0151 13       		.uleb128 0x13
 1210 0152 00       		.byte	0
 1211 0153 00       		.byte	0
 1212 0154 15       		.uleb128 0x15
 1213 0155 2E       		.uleb128 0x2e
 1214 0156 00       		.byte	0
 1215 0157 3F       		.uleb128 0x3f
 1216 0158 19       		.uleb128 0x19
 1217 0159 03       		.uleb128 0x3
 1218 015a 0E       		.uleb128 0xe
 1219 015b 3A       		.uleb128 0x3a
 1220 015c 0B       		.uleb128 0xb
 1221 015d 3B       		.uleb128 0x3b
 1222 015e 05       		.uleb128 0x5
 1223 015f 39       		.uleb128 0x39
 1224 0160 0B       		.uleb128 0xb
 1225 0161 27       		.uleb128 0x27
 1226 0162 19       		.uleb128 0x19
 1227 0163 3C       		.uleb128 0x3c
 1228 0164 19       		.uleb128 0x19
 1229 0165 00       		.byte	0
 1230 0166 00       		.byte	0
 1231 0167 16       		.uleb128 0x16
 1232 0168 2E       		.uleb128 0x2e
 1233 0169 01       		.byte	0x1
 1234 016a 3F       		.uleb128 0x3f
 1235 016b 19       		.uleb128 0x19
 1236 016c 03       		.uleb128 0x3
 1237 016d 0E       		.uleb128 0xe
 1238 016e 3A       		.uleb128 0x3a
 1239 016f 0B       		.uleb128 0xb
 1240 0170 3B       		.uleb128 0x3b
 1241 0171 0B       		.uleb128 0xb
 1242 0172 39       		.uleb128 0x39
 1243 0173 0B       		.uleb128 0xb
 1244 0174 27       		.uleb128 0x27
 1245 0175 19       		.uleb128 0x19
 1246 0176 49       		.uleb128 0x49
 1247 0177 13       		.uleb128 0x13
 1248 0178 11       		.uleb128 0x11
 1249 0179 01       		.uleb128 0x1
 1250 017a 12       		.uleb128 0x12
 1251 017b 06       		.uleb128 0x6
 1252 017c 40       		.uleb128 0x40
 1253 017d 18       		.uleb128 0x18
 1254 017e 7C       		.uleb128 0x7c
ARM GAS  C:\Users\DEVELO~1\AppData\Local\Temp\ccNdA3FK.s 			page 23


 1255 017f 19       		.uleb128 0x19
 1256 0180 01       		.uleb128 0x1
 1257 0181 13       		.uleb128 0x13
 1258 0182 00       		.byte	0
 1259 0183 00       		.byte	0
 1260 0184 17       		.uleb128 0x17
 1261 0185 2E       		.uleb128 0x2e
 1262 0186 00       		.byte	0
 1263 0187 03       		.uleb128 0x3
 1264 0188 0E       		.uleb128 0xe
 1265 0189 3A       		.uleb128 0x3a
 1266 018a 0B       		.uleb128 0xb
 1267 018b 3B       		.uleb128 0x3b
 1268 018c 05       		.uleb128 0x5
 1269 018d 39       		.uleb128 0x39
 1270 018e 0B       		.uleb128 0xb
 1271 018f 27       		.uleb128 0x27
 1272 0190 19       		.uleb128 0x19
 1273 0191 11       		.uleb128 0x11
 1274 0192 01       		.uleb128 0x1
 1275 0193 12       		.uleb128 0x12
 1276 0194 06       		.uleb128 0x6
 1277 0195 40       		.uleb128 0x40
 1278 0196 18       		.uleb128 0x18
 1279 0197 7A       		.uleb128 0x7a
 1280 0198 19       		.uleb128 0x19
 1281 0199 00       		.byte	0
 1282 019a 00       		.byte	0
 1283 019b 00       		.byte	0
 1284              		.section	.debug_aranges,"",%progbits
 1285 0000 7C000000 		.4byte	0x7c
 1286 0004 0200     		.2byte	0x2
 1287 0006 00000000 		.4byte	.Ldebug_info0
 1288 000a 04       		.byte	0x4
 1289 000b 00       		.byte	0
 1290 000c 0000     		.2byte	0
 1291 000e 0000     		.2byte	0
 1292 0010 00000000 		.4byte	.LFB426
 1293 0014 12000000 		.4byte	.LFE426-.LFB426
 1294 0018 00000000 		.4byte	.LFB427
 1295 001c 2A000000 		.4byte	.LFE427-.LFB427
 1296 0020 00000000 		.4byte	.LFB428
 1297 0024 14000000 		.4byte	.LFE428-.LFB428
 1298 0028 00000000 		.4byte	.LFB429
 1299 002c 1A000000 		.4byte	.LFE429-.LFB429
 1300 0030 00000000 		.4byte	.LFB430
 1301 0034 12000000 		.4byte	.LFE430-.LFB430
 1302 0038 00000000 		.4byte	.LFB431
 1303 003c 20000000 		.4byte	.LFE431-.LFB431
 1304 0040 00000000 		.4byte	.LFB432
 1305 0044 0C000000 		.4byte	.LFE432-.LFB432
 1306 0048 00000000 		.4byte	.LFB433
 1307 004c 0E000000 		.4byte	.LFE433-.LFB433
 1308 0050 00000000 		.4byte	.LFB434
 1309 0054 16000000 		.4byte	.LFE434-.LFB434
 1310 0058 00000000 		.4byte	.LFB435
 1311 005c 0C000000 		.4byte	.LFE435-.LFB435
ARM GAS  C:\Users\DEVELO~1\AppData\Local\Temp\ccNdA3FK.s 			page 24


 1312 0060 00000000 		.4byte	.LFB436
 1313 0064 16000000 		.4byte	.LFE436-.LFB436
 1314 0068 00000000 		.4byte	.LFB437
 1315 006c 0E000000 		.4byte	.LFE437-.LFB437
 1316 0070 00000000 		.4byte	.LFB438
 1317 0074 0E000000 		.4byte	.LFE438-.LFB438
 1318 0078 00000000 		.4byte	0
 1319 007c 00000000 		.4byte	0
 1320              		.section	.debug_rnglists,"",%progbits
 1321              	.Ldebug_ranges0:
 1322 0000 57000000 		.4byte	.Ldebug_ranges3-.Ldebug_ranges2
 1323              	.Ldebug_ranges2:
 1324 0004 0500     		.2byte	0x5
 1325 0006 04       		.byte	0x4
 1326 0007 00       		.byte	0
 1327 0008 00000000 		.4byte	0
 1328              	.LLRL0:
 1329 000c 07       		.byte	0x7
 1330 000d 00000000 		.4byte	.LFB426
 1331 0011 12       		.uleb128 .LFE426-.LFB426
 1332 0012 07       		.byte	0x7
 1333 0013 00000000 		.4byte	.LFB427
 1334 0017 2A       		.uleb128 .LFE427-.LFB427
 1335 0018 07       		.byte	0x7
 1336 0019 00000000 		.4byte	.LFB428
 1337 001d 14       		.uleb128 .LFE428-.LFB428
 1338 001e 07       		.byte	0x7
 1339 001f 00000000 		.4byte	.LFB429
 1340 0023 1A       		.uleb128 .LFE429-.LFB429
 1341 0024 07       		.byte	0x7
 1342 0025 00000000 		.4byte	.LFB430
 1343 0029 12       		.uleb128 .LFE430-.LFB430
 1344 002a 07       		.byte	0x7
 1345 002b 00000000 		.4byte	.LFB431
 1346 002f 20       		.uleb128 .LFE431-.LFB431
 1347 0030 07       		.byte	0x7
 1348 0031 00000000 		.4byte	.LFB432
 1349 0035 0C       		.uleb128 .LFE432-.LFB432
 1350 0036 07       		.byte	0x7
 1351 0037 00000000 		.4byte	.LFB433
 1352 003b 0E       		.uleb128 .LFE433-.LFB433
 1353 003c 07       		.byte	0x7
 1354 003d 00000000 		.4byte	.LFB434
 1355 0041 16       		.uleb128 .LFE434-.LFB434
 1356 0042 07       		.byte	0x7
 1357 0043 00000000 		.4byte	.LFB435
 1358 0047 0C       		.uleb128 .LFE435-.LFB435
 1359 0048 07       		.byte	0x7
 1360 0049 00000000 		.4byte	.LFB436
 1361 004d 16       		.uleb128 .LFE436-.LFB436
 1362 004e 07       		.byte	0x7
 1363 004f 00000000 		.4byte	.LFB437
 1364 0053 0E       		.uleb128 .LFE437-.LFB437
 1365 0054 07       		.byte	0x7
 1366 0055 00000000 		.4byte	.LFB438
 1367 0059 0E       		.uleb128 .LFE438-.LFB438
 1368 005a 00       		.byte	0
ARM GAS  C:\Users\DEVELO~1\AppData\Local\Temp\ccNdA3FK.s 			page 25


 1369              	.Ldebug_ranges3:
 1370              		.section	.debug_line,"",%progbits
 1371              	.Ldebug_line0:
 1372 0000 FD020000 		.section	.debug_str,"MS",%progbits,1
 1372      03009001 
 1372      00000201 
 1372      FB0E0D00 
 1372      01010101 
 1373              	.LASF20:
 1374 0000 42445452 		.ascii	"BDTR\000"
 1374      00
 1375              	.LASF29:
 1376 0005 73744973 		.ascii	"stIsAlarmActive\000"
 1376      416C6172 
 1376      6D416374 
 1376      69766500 
 1377              	.LASF30:
 1378 0015 73744765 		.ascii	"stGetCounter\000"
 1378      74436F75 
 1378      6E746572 
 1378      00
 1379              	.LASF13:
 1380 0022 73797374 		.ascii	"systime_t\000"
 1380      696D655F 
 1380      7400
 1381              	.LASF6:
 1382 002c 73686F72 		.ascii	"short unsigned int\000"
 1382      7420756E 
 1382      7369676E 
 1382      65642069 
 1382      6E7400
 1383              	.LASF41:
 1384 003f 73745F6C 		.ascii	"st_lld_init\000"
 1384      6C645F69 
 1384      6E697400 
 1385              	.LASF5:
 1386 004b 73686F72 		.ascii	"short int\000"
 1386      7420696E 
 1386      7400
 1387              	.LASF28:
 1388 0055 61627374 		.ascii	"abstime\000"
 1388      696D6500 
 1389              	.LASF33:
 1390 005d 73745F6C 		.ascii	"st_lld_is_alarm_active\000"
 1390      6C645F69 
 1390      735F616C 
 1390      61726D5F 
 1390      61637469 
 1391              	.LASF24:
 1392 0074 73746D33 		.ascii	"stm32_tim_t\000"
 1392      325F7469 
 1392      6D5F7400 
 1393              	.LASF43:
 1394 0080 73745F6C 		.ascii	"st_lld_stop_alarm\000"
 1394      6C645F73 
 1394      746F705F 
 1394      616C6172 
ARM GAS  C:\Users\DEVELO~1\AppData\Local\Temp\ccNdA3FK.s 			page 26


 1394      6D00
 1395              	.LASF39:
 1396 0092 2E2E2F2E 		.ascii	"../../../os/hal/src/hal_st.c\000"
 1396      2E2F2E2E 
 1396      2F6F732F 
 1396      68616C2F 
 1396      7372632F 
 1397              	.LASF16:
 1398 00af 44494552 		.ascii	"DIER\000"
 1398      00
 1399              	.LASF25:
 1400 00b4 5F5F6675 		.ascii	"__func__\000"
 1400      6E635F5F 
 1400      00
 1401              	.LASF36:
 1402 00bd 73745F6C 		.ascii	"st_lld_start_alarm\000"
 1402      6C645F73 
 1402      74617274 
 1402      5F616C61 
 1402      726D00
 1403              	.LASF9:
 1404 00d0 6C6F6E67 		.ascii	"long long unsigned int\000"
 1404      206C6F6E 
 1404      6720756E 
 1404      7369676E 
 1404      65642069 
 1405              	.LASF4:
 1406 00e7 756E7369 		.ascii	"unsigned char\000"
 1406      676E6564 
 1406      20636861 
 1406      7200
 1407              	.LASF8:
 1408 00f5 6C6F6E67 		.ascii	"long unsigned int\000"
 1408      20756E73 
 1408      69676E65 
 1408      6420696E 
 1408      7400
 1409              	.LASF35:
 1410 0107 73745F6C 		.ascii	"st_lld_set_alarm\000"
 1410      6C645F73 
 1410      65745F61 
 1410      6C61726D 
 1410      00
 1411              	.LASF40:
 1412 0118 433A5C50 		.ascii	"C:\\PROJET\\ChibiOS project\\ChibiOS_21.11.4\\demos"
 1412      524F4A45 
 1412      545C4368 
 1412      6962694F 
 1412      53207072 
 1413 0147 5C53544D 		.ascii	"\\STM32\\RT-STM32H743ZI_REV_XY-NUCLEO144_Quartz8M\000"
 1413      33325C52 
 1413      542D5354 
 1413      4D333248 
 1413      3734335A 
 1414              	.LASF10:
 1415 0177 5F5F7569 		.ascii	"__uint32_t\000"
 1415      6E743332 
ARM GAS  C:\Users\DEVELO~1\AppData\Local\Temp\ccNdA3FK.s 			page 27


 1415      5F7400
 1416              	.LASF38:
 1417 0182 474E5520 		.ascii	"GNU C17 11.3.1 20220712 -mcpu=cortex-m7 -mthumb -mf"
 1417      43313720 
 1417      31312E33 
 1417      2E312032 
 1417      30323230 
 1418 01b5 6C6F6174 		.ascii	"loat-abi=soft -march=armv7e-m -ggdb -O0 -ffunction-"
 1418      2D616269 
 1418      3D736F66 
 1418      74202D6D 
 1418      61726368 
 1419 01e8 73656374 		.ascii	"sections -fdata-sections -fno-common\000"
 1419      696F6E73 
 1419      202D6664 
 1419      6174612D 
 1419      73656374 
 1420              	.LASF21:
 1421 020d 444D4152 		.ascii	"DMAR\000"
 1421      00
 1422              	.LASF31:
 1423 0212 73745374 		.ascii	"stStopAlarm\000"
 1423      6F70416C 
 1423      61726D00 
 1424              	.LASF0:
 1425 021e 756E7369 		.ascii	"unsigned int\000"
 1425      676E6564 
 1425      20696E74 
 1425      00
 1426              	.LASF37:
 1427 022b 73745F6C 		.ascii	"st_lld_get_counter\000"
 1427      6C645F67 
 1427      65745F63 
 1427      6F756E74 
 1427      657200
 1428              	.LASF27:
 1429 023e 73745374 		.ascii	"stStartAlarm\000"
 1429      61727441 
 1429      6C61726D 
 1429      00
 1430              	.LASF26:
 1431 024b 73745365 		.ascii	"stSetAlarm\000"
 1431      74416C61 
 1431      726D00
 1432              	.LASF2:
 1433 0256 6C6F6E67 		.ascii	"long double\000"
 1433      20646F75 
 1433      626C6500 
 1434              	.LASF32:
 1435 0262 7374496E 		.ascii	"stInit\000"
 1435      697400
 1436              	.LASF1:
 1437 0269 6C6F6E67 		.ascii	"long long int\000"
 1437      206C6F6E 
 1437      6720696E 
 1437      7400
 1438              	.LASF34:
ARM GAS  C:\Users\DEVELO~1\AppData\Local\Temp\ccNdA3FK.s 			page 28


 1439 0277 73745F6C 		.ascii	"st_lld_get_alarm\000"
 1439      6C645F67 
 1439      65745F61 
 1439      6C61726D 
 1439      00
 1440              	.LASF19:
 1441 0288 43434552 		.ascii	"CCER\000"
 1441      00
 1442              	.LASF15:
 1443 028d 534D4352 		.ascii	"SMCR\000"
 1443      00
 1444              	.LASF17:
 1445 0292 43434D52 		.ascii	"CCMR1\000"
 1445      3100
 1446              	.LASF22:
 1447 0298 43434D52 		.ascii	"CCMR3\000"
 1447      3300
 1448              	.LASF11:
 1449 029e 75696E74 		.ascii	"uint32_t\000"
 1449      33325F74 
 1449      00
 1450              	.LASF7:
 1451 02a7 6C6F6E67 		.ascii	"long int\000"
 1451      20696E74 
 1451      00
 1452              	.LASF12:
 1453 02b0 63686172 		.ascii	"char\000"
 1453      00
 1454              	.LASF18:
 1455 02b5 43434D52 		.ascii	"CCMR2\000"
 1455      3200
 1456              	.LASF3:
 1457 02bb 7369676E 		.ascii	"signed char\000"
 1457      65642063 
 1457      68617200 
 1458              	.LASF14:
 1459 02c7 5F426F6F 		.ascii	"_Bool\000"
 1459      6C00
 1460              	.LASF23:
 1461 02cd 43435852 		.ascii	"CCXR\000"
 1461      00
 1462              	.LASF42:
 1463 02d2 73744765 		.ascii	"stGetAlarm\000"
 1463      74416C61 
 1463      726D00
 1464              		.ident	"GCC: (Arm GNU Toolchain 11.3.Rel1) 11.3.1 20220712"
ARM GAS  C:\Users\DEVELO~1\AppData\Local\Temp\ccNdA3FK.s 			page 29


DEFINED SYMBOLS
                            *ABS*:00000000 hal_st.c
C:\Users\DEVELO~1\AppData\Local\Temp\ccNdA3FK.s:18     .text.st_lld_get_counter:00000000 $t
C:\Users\DEVELO~1\AppData\Local\Temp\ccNdA3FK.s:23     .text.st_lld_get_counter:00000000 st_lld_get_counter
C:\Users\DEVELO~1\AppData\Local\Temp\ccNdA3FK.s:53     .text.st_lld_start_alarm:00000000 $t
C:\Users\DEVELO~1\AppData\Local\Temp\ccNdA3FK.s:58     .text.st_lld_start_alarm:00000000 st_lld_start_alarm
C:\Users\DEVELO~1\AppData\Local\Temp\ccNdA3FK.s:103    .text.st_lld_stop_alarm:00000000 $t
C:\Users\DEVELO~1\AppData\Local\Temp\ccNdA3FK.s:108    .text.st_lld_stop_alarm:00000000 st_lld_stop_alarm
C:\Users\DEVELO~1\AppData\Local\Temp\ccNdA3FK.s:138    .text.st_lld_set_alarm:00000000 $t
C:\Users\DEVELO~1\AppData\Local\Temp\ccNdA3FK.s:143    .text.st_lld_set_alarm:00000000 st_lld_set_alarm
C:\Users\DEVELO~1\AppData\Local\Temp\ccNdA3FK.s:178    .text.st_lld_get_alarm:00000000 $t
C:\Users\DEVELO~1\AppData\Local\Temp\ccNdA3FK.s:183    .text.st_lld_get_alarm:00000000 st_lld_get_alarm
C:\Users\DEVELO~1\AppData\Local\Temp\ccNdA3FK.s:212    .text.st_lld_is_alarm_active:00000000 $t
C:\Users\DEVELO~1\AppData\Local\Temp\ccNdA3FK.s:217    .text.st_lld_is_alarm_active:00000000 st_lld_is_alarm_active
C:\Users\DEVELO~1\AppData\Local\Temp\ccNdA3FK.s:253    .text.stInit:00000000 $t
C:\Users\DEVELO~1\AppData\Local\Temp\ccNdA3FK.s:259    .text.stInit:00000000 stInit
C:\Users\DEVELO~1\AppData\Local\Temp\ccNdA3FK.s:281    .text.stGetCounter:00000000 $t
C:\Users\DEVELO~1\AppData\Local\Temp\ccNdA3FK.s:287    .text.stGetCounter:00000000 stGetCounter
C:\Users\DEVELO~1\AppData\Local\Temp\ccNdA3FK.s:309    .text.stStartAlarm:00000000 $t
C:\Users\DEVELO~1\AppData\Local\Temp\ccNdA3FK.s:315    .text.stStartAlarm:00000000 stStartAlarm
C:\Users\DEVELO~1\AppData\Local\Temp\ccNdA3FK.s:345    .text.stStopAlarm:00000000 $t
C:\Users\DEVELO~1\AppData\Local\Temp\ccNdA3FK.s:351    .text.stStopAlarm:00000000 stStopAlarm
C:\Users\DEVELO~1\AppData\Local\Temp\ccNdA3FK.s:372    .text.stSetAlarm:00000000 $t
C:\Users\DEVELO~1\AppData\Local\Temp\ccNdA3FK.s:378    .text.stSetAlarm:00000000 stSetAlarm
C:\Users\DEVELO~1\AppData\Local\Temp\ccNdA3FK.s:408    .text.stGetAlarm:00000000 $t
C:\Users\DEVELO~1\AppData\Local\Temp\ccNdA3FK.s:414    .text.stGetAlarm:00000000 stGetAlarm
C:\Users\DEVELO~1\AppData\Local\Temp\ccNdA3FK.s:436    .text.stIsAlarmActive:00000000 $t
C:\Users\DEVELO~1\AppData\Local\Temp\ccNdA3FK.s:442    .text.stIsAlarmActive:00000000 stIsAlarmActive

UNDEFINED SYMBOLS
st_lld_init
