ARM GAS  C:\Users\DEVELO~1\AppData\Local\Temp\ccunflWu.s 			page 1


   1              		.cpu cortex-m7
   2              		.arch armv7e-m
   3              		.fpu softvfp
   4              		.eabi_attribute 20, 1
   5              		.eabi_attribute 21, 1
   6              		.eabi_attribute 23, 3
   7              		.eabi_attribute 24, 1
   8              		.eabi_attribute 25, 1
   9              		.eabi_attribute 26, 1
  10              		.eabi_attribute 30, 6
  11              		.eabi_attribute 34, 1
  12              		.eabi_attribute 18, 4
  13              		.file	"hal_adc.c"
  14              		.text
  15              	.Ltext0:
  16              		.cfi_sections	.debug_frame
  17              		.section	.text.chSysLock,"ax",%progbits
  18              		.align	1
  19              		.syntax unified
  20              		.thumb
  21              		.thumb_func
  22              		.type	chSysLock, %function
  23              	chSysLock:
  24              	.LFB202:
  25              		.file 1 "../../../os/rt/include/chsys.h"
  26              		.loc 1 407 36
  27              		.cfi_startproc
  28              		@ args = 0, pretend = 0, frame = 8
  29              		@ frame_needed = 1, uses_anonymous_args = 0
  30              		@ link register save eliminated.
  31 0000 80B4     		push	{r7}
  32              		.cfi_def_cfa_offset 4
  33              		.cfi_offset 7, -4
  34 0002 83B0     		sub	sp, sp, #12
  35              		.cfi_def_cfa_offset 16
  36 0004 00AF     		add	r7, sp, #0
  37              		.cfi_def_cfa_register 7
  38 0006 3023     		movs	r3, #48
  39 0008 7B60     		str	r3, [r7, #4]
  40              	.LBB14:
  41              	.LBB15:
  42              	.LBB16:
  43              	.LBB17:
  44              		.file 2 "../../../os/common/ext/ARM/CMSIS/Core/Include/cmsis_gcc.h"
  45              		.loc 2 493 3
  46 000a 7B68     		ldr	r3, [r7, #4]
  47              		.syntax unified
  48              	@ 493 "../../../os/common/ext/ARM/CMSIS/Core/Include/cmsis_gcc.h" 1
  49 000c 83F31188 		MSR basepri, r3
  50              	@ 0 "" 2
  51              		.loc 2 494 1
  52              		.thumb
  53              		.syntax unified
  54 0010 00BF     		nop
  55              	.LBE17:
  56              	.LBE16:
  57              		.file 3 "../../../os/common/ports/ARMv7-M/chcore.h"
ARM GAS  C:\Users\DEVELO~1\AppData\Local\Temp\ccunflWu.s 			page 2


  58              		.loc 3 840 1
  59 0012 00BF     		nop
  60              	.LBE15:
  61              	.LBE14:
  62              		.loc 1 412 1
  63 0014 00BF     		nop
  64 0016 0C37     		adds	r7, r7, #12
  65              		.cfi_def_cfa_offset 4
  66 0018 BD46     		mov	sp, r7
  67              		.cfi_def_cfa_register 13
  68              		@ sp needed
  69 001a 80BC     		pop	{r7}
  70              		.cfi_restore 7
  71              		.cfi_def_cfa_offset 0
  72 001c 7047     		bx	lr
  73              		.cfi_endproc
  74              	.LFE202:
  75              		.size	chSysLock, .-chSysLock
  76              		.section	.text.chSysUnlock,"ax",%progbits
  77              		.align	1
  78              		.syntax unified
  79              		.thumb
  80              		.thumb_func
  81              		.type	chSysUnlock, %function
  82              	chSysUnlock:
  83              	.LFB203:
  84              		.loc 1 421 38
  85              		.cfi_startproc
  86              		@ args = 0, pretend = 0, frame = 8
  87              		@ frame_needed = 1, uses_anonymous_args = 0
  88              		@ link register save eliminated.
  89 0000 80B4     		push	{r7}
  90              		.cfi_def_cfa_offset 4
  91              		.cfi_offset 7, -4
  92 0002 83B0     		sub	sp, sp, #12
  93              		.cfi_def_cfa_offset 16
  94 0004 00AF     		add	r7, sp, #0
  95              		.cfi_def_cfa_register 7
  96 0006 0023     		movs	r3, #0
  97 0008 7B60     		str	r3, [r7, #4]
  98              	.LBB18:
  99              	.LBB19:
 100              	.LBB20:
 101              	.LBB21:
 102              		.loc 2 493 3
 103 000a 7B68     		ldr	r3, [r7, #4]
 104              		.syntax unified
 105              	@ 493 "../../../os/common/ext/ARM/CMSIS/Core/Include/cmsis_gcc.h" 1
 106 000c 83F31188 		MSR basepri, r3
 107              	@ 0 "" 2
 108              		.loc 2 494 1
 109              		.thumb
 110              		.syntax unified
 111 0010 00BF     		nop
 112              	.LBE21:
 113              	.LBE20:
 114              		.loc 3 854 1
ARM GAS  C:\Users\DEVELO~1\AppData\Local\Temp\ccunflWu.s 			page 3


 115 0012 00BF     		nop
 116              	.LBE19:
 117              	.LBE18:
 118              		.loc 1 435 1
 119 0014 00BF     		nop
 120 0016 0C37     		adds	r7, r7, #12
 121              		.cfi_def_cfa_offset 4
 122 0018 BD46     		mov	sp, r7
 123              		.cfi_def_cfa_register 13
 124              		@ sp needed
 125 001a 80BC     		pop	{r7}
 126              		.cfi_restore 7
 127              		.cfi_def_cfa_offset 0
 128 001c 7047     		bx	lr
 129              		.cfi_endproc
 130              	.LFE203:
 131              		.size	chSysUnlock, .-chSysUnlock
 132              		.section	.text.osalSysLock,"ax",%progbits
 133              		.align	1
 134              		.syntax unified
 135              		.thumb
 136              		.thumb_func
 137              		.type	osalSysLock, %function
 138              	osalSysLock:
 139              	.LFB350:
 140              		.file 4 "../../../os/hal/osal/rt-nil/osal.h"
 141              		.loc 4 573 38
 142              		.cfi_startproc
 143              		@ args = 0, pretend = 0, frame = 0
 144              		@ frame_needed = 1, uses_anonymous_args = 0
 145 0000 80B5     		push	{r7, lr}
 146              		.cfi_def_cfa_offset 8
 147              		.cfi_offset 7, -8
 148              		.cfi_offset 14, -4
 149 0002 00AF     		add	r7, sp, #0
 150              		.cfi_def_cfa_register 7
 151              		.loc 4 575 3
 152 0004 FFF7FEFF 		bl	chSysLock
 153              		.loc 4 576 1
 154 0008 00BF     		nop
 155 000a 80BD     		pop	{r7, pc}
 156              		.cfi_endproc
 157              	.LFE350:
 158              		.size	osalSysLock, .-osalSysLock
 159              		.section	.text.osalSysUnlock,"ax",%progbits
 160              		.align	1
 161              		.syntax unified
 162              		.thumb
 163              		.thumb_func
 164              		.type	osalSysUnlock, %function
 165              	osalSysUnlock:
 166              	.LFB351:
 167              		.loc 4 584 40
 168              		.cfi_startproc
 169              		@ args = 0, pretend = 0, frame = 0
 170              		@ frame_needed = 1, uses_anonymous_args = 0
 171 0000 80B5     		push	{r7, lr}
ARM GAS  C:\Users\DEVELO~1\AppData\Local\Temp\ccunflWu.s 			page 4


 172              		.cfi_def_cfa_offset 8
 173              		.cfi_offset 7, -8
 174              		.cfi_offset 14, -4
 175 0002 00AF     		add	r7, sp, #0
 176              		.cfi_def_cfa_register 7
 177              		.loc 4 586 3
 178 0004 FFF7FEFF 		bl	chSysUnlock
 179              		.loc 4 587 1
 180 0008 00BF     		nop
 181 000a 80BD     		pop	{r7, pc}
 182              		.cfi_endproc
 183              	.LFE351:
 184              		.size	osalSysUnlock, .-osalSysUnlock
 185              		.section	.text.osalThreadSuspendS,"ax",%progbits
 186              		.align	1
 187              		.syntax unified
 188              		.thumb
 189              		.thumb_func
 190              		.type	osalThreadSuspendS, %function
 191              	osalThreadSuspendS:
 192              	.LFB365:
 193              		.loc 4 797 65
 194              		.cfi_startproc
 195              		@ args = 0, pretend = 0, frame = 8
 196              		@ frame_needed = 1, uses_anonymous_args = 0
 197 0000 80B5     		push	{r7, lr}
 198              		.cfi_def_cfa_offset 8
 199              		.cfi_offset 7, -8
 200              		.cfi_offset 14, -4
 201 0002 82B0     		sub	sp, sp, #8
 202              		.cfi_def_cfa_offset 16
 203 0004 00AF     		add	r7, sp, #0
 204              		.cfi_def_cfa_register 7
 205 0006 7860     		str	r0, [r7, #4]
 206              		.loc 4 799 10
 207 0008 4FF0FF31 		mov	r1, #-1
 208 000c 7868     		ldr	r0, [r7, #4]
 209 000e FFF7FEFF 		bl	chThdSuspendTimeoutS
 210 0012 0346     		mov	r3, r0
 211              		.loc 4 800 1
 212 0014 1846     		mov	r0, r3
 213 0016 0837     		adds	r7, r7, #8
 214              		.cfi_def_cfa_offset 8
 215 0018 BD46     		mov	sp, r7
 216              		.cfi_def_cfa_register 13
 217              		@ sp needed
 218 001a 80BD     		pop	{r7, pc}
 219              		.cfi_endproc
 220              	.LFE365:
 221              		.size	osalThreadSuspendS, .-osalThreadSuspendS
 222              		.section	.text.osalThreadResumeI,"ax",%progbits
 223              		.align	1
 224              		.syntax unified
 225              		.thumb
 226              		.thumb_func
 227              		.type	osalThreadResumeI, %function
 228              	osalThreadResumeI:
ARM GAS  C:\Users\DEVELO~1\AppData\Local\Temp\ccunflWu.s 			page 5


 229              	.LFB367:
 230              		.loc 4 837 74
 231              		.cfi_startproc
 232              		@ args = 0, pretend = 0, frame = 8
 233              		@ frame_needed = 1, uses_anonymous_args = 0
 234 0000 80B5     		push	{r7, lr}
 235              		.cfi_def_cfa_offset 8
 236              		.cfi_offset 7, -8
 237              		.cfi_offset 14, -4
 238 0002 82B0     		sub	sp, sp, #8
 239              		.cfi_def_cfa_offset 16
 240 0004 00AF     		add	r7, sp, #0
 241              		.cfi_def_cfa_register 7
 242 0006 7860     		str	r0, [r7, #4]
 243 0008 3960     		str	r1, [r7]
 244              		.loc 4 839 3
 245 000a 3968     		ldr	r1, [r7]
 246 000c 7868     		ldr	r0, [r7, #4]
 247 000e FFF7FEFF 		bl	chThdResumeI
 248              		.loc 4 840 1
 249 0012 00BF     		nop
 250 0014 0837     		adds	r7, r7, #8
 251              		.cfi_def_cfa_offset 8
 252 0016 BD46     		mov	sp, r7
 253              		.cfi_def_cfa_register 13
 254              		@ sp needed
 255 0018 80BD     		pop	{r7, pc}
 256              		.cfi_endproc
 257              	.LFE367:
 258              		.size	osalThreadResumeI, .-osalThreadResumeI
 259              		.section	.text.osalThreadResumeS,"ax",%progbits
 260              		.align	1
 261              		.syntax unified
 262              		.thumb
 263              		.thumb_func
 264              		.type	osalThreadResumeS, %function
 265              	osalThreadResumeS:
 266              	.LFB368:
 267              		.loc 4 852 74
 268              		.cfi_startproc
 269              		@ args = 0, pretend = 0, frame = 8
 270              		@ frame_needed = 1, uses_anonymous_args = 0
 271 0000 80B5     		push	{r7, lr}
 272              		.cfi_def_cfa_offset 8
 273              		.cfi_offset 7, -8
 274              		.cfi_offset 14, -4
 275 0002 82B0     		sub	sp, sp, #8
 276              		.cfi_def_cfa_offset 16
 277 0004 00AF     		add	r7, sp, #0
 278              		.cfi_def_cfa_register 7
 279 0006 7860     		str	r0, [r7, #4]
 280 0008 3960     		str	r1, [r7]
 281              		.loc 4 854 3
 282 000a 3968     		ldr	r1, [r7]
 283 000c 7868     		ldr	r0, [r7, #4]
 284 000e FFF7FEFF 		bl	chThdResumeS
 285              		.loc 4 855 1
ARM GAS  C:\Users\DEVELO~1\AppData\Local\Temp\ccunflWu.s 			page 6


 286 0012 00BF     		nop
 287 0014 0837     		adds	r7, r7, #8
 288              		.cfi_def_cfa_offset 8
 289 0016 BD46     		mov	sp, r7
 290              		.cfi_def_cfa_register 13
 291              		@ sp needed
 292 0018 80BD     		pop	{r7, pc}
 293              		.cfi_endproc
 294              	.LFE368:
 295              		.size	osalThreadResumeS, .-osalThreadResumeS
 296              		.section	.text.osalMutexObjectInit,"ax",%progbits
 297              		.align	1
 298              		.syntax unified
 299              		.thumb
 300              		.thumb_func
 301              		.type	osalMutexObjectInit, %function
 302              	osalMutexObjectInit:
 303              	.LFB376:
 304              		.loc 4 1035 53
 305              		.cfi_startproc
 306              		@ args = 0, pretend = 0, frame = 8
 307              		@ frame_needed = 1, uses_anonymous_args = 0
 308 0000 80B5     		push	{r7, lr}
 309              		.cfi_def_cfa_offset 8
 310              		.cfi_offset 7, -8
 311              		.cfi_offset 14, -4
 312 0002 82B0     		sub	sp, sp, #8
 313              		.cfi_def_cfa_offset 16
 314 0004 00AF     		add	r7, sp, #0
 315              		.cfi_def_cfa_register 7
 316 0006 7860     		str	r0, [r7, #4]
 317              		.loc 4 1038 3
 318 0008 7868     		ldr	r0, [r7, #4]
 319 000a FFF7FEFF 		bl	chMtxObjectInit
 320              		.loc 4 1044 1
 321 000e 00BF     		nop
 322 0010 0837     		adds	r7, r7, #8
 323              		.cfi_def_cfa_offset 8
 324 0012 BD46     		mov	sp, r7
 325              		.cfi_def_cfa_register 13
 326              		@ sp needed
 327 0014 80BD     		pop	{r7, pc}
 328              		.cfi_endproc
 329              	.LFE376:
 330              		.size	osalMutexObjectInit, .-osalMutexObjectInit
 331              		.section	.text.osalMutexLock,"ax",%progbits
 332              		.align	1
 333              		.syntax unified
 334              		.thumb
 335              		.thumb_func
 336              		.type	osalMutexLock, %function
 337              	osalMutexLock:
 338              	.LFB377:
 339              		.loc 4 1055 47
 340              		.cfi_startproc
 341              		@ args = 0, pretend = 0, frame = 8
 342              		@ frame_needed = 1, uses_anonymous_args = 0
ARM GAS  C:\Users\DEVELO~1\AppData\Local\Temp\ccunflWu.s 			page 7


 343 0000 80B5     		push	{r7, lr}
 344              		.cfi_def_cfa_offset 8
 345              		.cfi_offset 7, -8
 346              		.cfi_offset 14, -4
 347 0002 82B0     		sub	sp, sp, #8
 348              		.cfi_def_cfa_offset 16
 349 0004 00AF     		add	r7, sp, #0
 350              		.cfi_def_cfa_register 7
 351 0006 7860     		str	r0, [r7, #4]
 352              		.loc 4 1058 3
 353 0008 7868     		ldr	r0, [r7, #4]
 354 000a FFF7FEFF 		bl	chMtxLock
 355              		.loc 4 1064 1
 356 000e 00BF     		nop
 357 0010 0837     		adds	r7, r7, #8
 358              		.cfi_def_cfa_offset 8
 359 0012 BD46     		mov	sp, r7
 360              		.cfi_def_cfa_register 13
 361              		@ sp needed
 362 0014 80BD     		pop	{r7, pc}
 363              		.cfi_endproc
 364              	.LFE377:
 365              		.size	osalMutexLock, .-osalMutexLock
 366              		.section	.text.osalMutexUnlock,"ax",%progbits
 367              		.align	1
 368              		.syntax unified
 369              		.thumb
 370              		.thumb_func
 371              		.type	osalMutexUnlock, %function
 372              	osalMutexUnlock:
 373              	.LFB378:
 374              		.loc 4 1079 49
 375              		.cfi_startproc
 376              		@ args = 0, pretend = 0, frame = 8
 377              		@ frame_needed = 1, uses_anonymous_args = 0
 378 0000 80B5     		push	{r7, lr}
 379              		.cfi_def_cfa_offset 8
 380              		.cfi_offset 7, -8
 381              		.cfi_offset 14, -4
 382 0002 82B0     		sub	sp, sp, #8
 383              		.cfi_def_cfa_offset 16
 384 0004 00AF     		add	r7, sp, #0
 385              		.cfi_def_cfa_register 7
 386 0006 7860     		str	r0, [r7, #4]
 387              		.loc 4 1082 3
 388 0008 7868     		ldr	r0, [r7, #4]
 389 000a FFF7FEFF 		bl	chMtxUnlock
 390              		.loc 4 1088 1
 391 000e 00BF     		nop
 392 0010 0837     		adds	r7, r7, #8
 393              		.cfi_def_cfa_offset 8
 394 0012 BD46     		mov	sp, r7
 395              		.cfi_def_cfa_register 13
 396              		@ sp needed
 397 0014 80BD     		pop	{r7, pc}
 398              		.cfi_endproc
 399              	.LFE378:
ARM GAS  C:\Users\DEVELO~1\AppData\Local\Temp\ccunflWu.s 			page 8


 400              		.size	osalMutexUnlock, .-osalMutexUnlock
 401              		.section	.text.adcInit,"ax",%progbits
 402              		.align	1
 403              		.global	adcInit
 404              		.syntax unified
 405              		.thumb
 406              		.thumb_func
 407              		.type	adcInit, %function
 408              	adcInit:
 409              	.LFB432:
 410              		.file 5 "../../../os/hal/src/hal_adc.c"
 411              		.loc 5 56 20
 412              		.cfi_startproc
 413              		@ args = 0, pretend = 0, frame = 0
 414              		@ frame_needed = 1, uses_anonymous_args = 0
 415 0000 80B5     		push	{r7, lr}
 416              		.cfi_def_cfa_offset 8
 417              		.cfi_offset 7, -8
 418              		.cfi_offset 14, -4
 419 0002 00AF     		add	r7, sp, #0
 420              		.cfi_def_cfa_register 7
 421              		.loc 5 58 3
 422 0004 FFF7FEFF 		bl	adc_lld_init
 423              		.loc 5 59 1
 424 0008 00BF     		nop
 425 000a 80BD     		pop	{r7, pc}
 426              		.cfi_endproc
 427              	.LFE432:
 428              		.size	adcInit, .-adcInit
 429              		.section	.text.adcObjectInit,"ax",%progbits
 430              		.align	1
 431              		.global	adcObjectInit
 432              		.syntax unified
 433              		.thumb
 434              		.thumb_func
 435              		.type	adcObjectInit, %function
 436              	adcObjectInit:
 437              	.LFB433:
 438              		.loc 5 68 37
 439              		.cfi_startproc
 440              		@ args = 0, pretend = 0, frame = 8
 441              		@ frame_needed = 1, uses_anonymous_args = 0
 442 0000 80B5     		push	{r7, lr}
 443              		.cfi_def_cfa_offset 8
 444              		.cfi_offset 7, -8
 445              		.cfi_offset 14, -4
 446 0002 82B0     		sub	sp, sp, #8
 447              		.cfi_def_cfa_offset 16
 448 0004 00AF     		add	r7, sp, #0
 449              		.cfi_def_cfa_register 7
 450 0006 7860     		str	r0, [r7, #4]
 451              		.loc 5 70 18
 452 0008 7B68     		ldr	r3, [r7, #4]
 453 000a 0122     		movs	r2, #1
 454 000c 1A70     		strb	r2, [r3]
 455              		.loc 5 71 18
 456 000e 7B68     		ldr	r3, [r7, #4]
ARM GAS  C:\Users\DEVELO~1\AppData\Local\Temp\ccunflWu.s 			page 9


 457 0010 0022     		movs	r2, #0
 458 0012 5A60     		str	r2, [r3, #4]
 459              		.loc 5 72 18
 460 0014 7B68     		ldr	r3, [r7, #4]
 461 0016 0022     		movs	r2, #0
 462 0018 9A60     		str	r2, [r3, #8]
 463              		.loc 5 73 18
 464 001a 7B68     		ldr	r3, [r7, #4]
 465 001c 0022     		movs	r2, #0
 466 001e DA60     		str	r2, [r3, #12]
 467              		.loc 5 74 18
 468 0020 7B68     		ldr	r3, [r7, #4]
 469 0022 0022     		movs	r2, #0
 470 0024 1A61     		str	r2, [r3, #16]
 471              		.loc 5 76 18
 472 0026 7B68     		ldr	r3, [r7, #4]
 473 0028 0022     		movs	r2, #0
 474 002a 5A61     		str	r2, [r3, #20]
 475              		.loc 5 79 3
 476 002c 7B68     		ldr	r3, [r7, #4]
 477 002e 1833     		adds	r3, r3, #24
 478 0030 1846     		mov	r0, r3
 479 0032 FFF7FEFF 		bl	osalMutexObjectInit
 480              		.loc 5 84 1
 481 0036 00BF     		nop
 482 0038 0837     		adds	r7, r7, #8
 483              		.cfi_def_cfa_offset 8
 484 003a BD46     		mov	sp, r7
 485              		.cfi_def_cfa_register 13
 486              		@ sp needed
 487 003c 80BD     		pop	{r7, pc}
 488              		.cfi_endproc
 489              	.LFE433:
 490              		.size	adcObjectInit, .-adcObjectInit
 491              		.section	.text.adcStart,"ax",%progbits
 492              		.align	1
 493              		.global	adcStart
 494              		.syntax unified
 495              		.thumb
 496              		.thumb_func
 497              		.type	adcStart, %function
 498              	adcStart:
 499              	.LFB434:
 500              		.loc 5 96 58
 501              		.cfi_startproc
 502              		@ args = 0, pretend = 0, frame = 16
 503              		@ frame_needed = 1, uses_anonymous_args = 0
 504 0000 80B5     		push	{r7, lr}
 505              		.cfi_def_cfa_offset 8
 506              		.cfi_offset 7, -8
 507              		.cfi_offset 14, -4
 508 0002 84B0     		sub	sp, sp, #16
 509              		.cfi_def_cfa_offset 24
 510 0004 00AF     		add	r7, sp, #0
 511              		.cfi_def_cfa_register 7
 512 0006 7860     		str	r0, [r7, #4]
 513 0008 3960     		str	r1, [r7]
ARM GAS  C:\Users\DEVELO~1\AppData\Local\Temp\ccunflWu.s 			page 10


 514              		.loc 5 101 3
 515 000a FFF7FEFF 		bl	osalSysLock
 516              		.loc 5 104 16
 517 000e 7B68     		ldr	r3, [r7, #4]
 518 0010 3A68     		ldr	r2, [r7]
 519 0012 5A60     		str	r2, [r3, #4]
 520              		.loc 5 107 9
 521 0014 7868     		ldr	r0, [r7, #4]
 522 0016 FFF7FEFF 		bl	adc_lld_start
 523 001a F860     		str	r0, [r7, #12]
 524              		.loc 5 108 6
 525 001c FB68     		ldr	r3, [r7, #12]
 526 001e 002B     		cmp	r3, #0
 527 0020 03D1     		bne	.L15
 528              		.loc 5 109 17
 529 0022 7B68     		ldr	r3, [r7, #4]
 530 0024 0222     		movs	r2, #2
 531 0026 1A70     		strb	r2, [r3]
 532 0028 02E0     		b	.L16
 533              	.L15:
 534              		.loc 5 112 17
 535 002a 7B68     		ldr	r3, [r7, #4]
 536 002c 0122     		movs	r2, #1
 537 002e 1A70     		strb	r2, [r3]
 538              	.L16:
 539              		.loc 5 120 3
 540 0030 FFF7FEFF 		bl	osalSysUnlock
 541              		.loc 5 122 10
 542 0034 FB68     		ldr	r3, [r7, #12]
 543              		.loc 5 123 1
 544 0036 1846     		mov	r0, r3
 545 0038 1037     		adds	r7, r7, #16
 546              		.cfi_def_cfa_offset 8
 547 003a BD46     		mov	sp, r7
 548              		.cfi_def_cfa_register 13
 549              		@ sp needed
 550 003c 80BD     		pop	{r7, pc}
 551              		.cfi_endproc
 552              	.LFE434:
 553              		.size	adcStart, .-adcStart
 554              		.section	.text.adcStop,"ax",%progbits
 555              		.align	1
 556              		.global	adcStop
 557              		.syntax unified
 558              		.thumb
 559              		.thumb_func
 560              		.type	adcStop, %function
 561              	adcStop:
 562              	.LFB435:
 563              		.loc 5 132 31
 564              		.cfi_startproc
 565              		@ args = 0, pretend = 0, frame = 8
 566              		@ frame_needed = 1, uses_anonymous_args = 0
 567 0000 80B5     		push	{r7, lr}
 568              		.cfi_def_cfa_offset 8
 569              		.cfi_offset 7, -8
 570              		.cfi_offset 14, -4
ARM GAS  C:\Users\DEVELO~1\AppData\Local\Temp\ccunflWu.s 			page 11


 571 0002 82B0     		sub	sp, sp, #8
 572              		.cfi_def_cfa_offset 16
 573 0004 00AF     		add	r7, sp, #0
 574              		.cfi_def_cfa_register 7
 575 0006 7860     		str	r0, [r7, #4]
 576              		.loc 5 136 3
 577 0008 FFF7FEFF 		bl	osalSysLock
 578              		.loc 5 141 3
 579 000c 7868     		ldr	r0, [r7, #4]
 580 000e FFF7FEFF 		bl	adc_lld_stop
 581              		.loc 5 142 16
 582 0012 7B68     		ldr	r3, [r7, #4]
 583 0014 0022     		movs	r2, #0
 584 0016 5A60     		str	r2, [r3, #4]
 585              		.loc 5 143 16
 586 0018 7B68     		ldr	r3, [r7, #4]
 587 001a 0122     		movs	r2, #1
 588 001c 1A70     		strb	r2, [r3]
 589              		.loc 5 145 3
 590 001e FFF7FEFF 		bl	osalSysUnlock
 591              		.loc 5 146 1
 592 0022 00BF     		nop
 593 0024 0837     		adds	r7, r7, #8
 594              		.cfi_def_cfa_offset 8
 595 0026 BD46     		mov	sp, r7
 596              		.cfi_def_cfa_register 13
 597              		@ sp needed
 598 0028 80BD     		pop	{r7, pc}
 599              		.cfi_endproc
 600              	.LFE435:
 601              		.size	adcStop, .-adcStop
 602              		.section	.text.adcStartConversion,"ax",%progbits
 603              		.align	1
 604              		.global	adcStartConversion
 605              		.syntax unified
 606              		.thumb
 607              		.thumb_func
 608              		.type	adcStartConversion, %function
 609              	adcStartConversion:
 610              	.LFB436:
 611              		.loc 5 167 39
 612              		.cfi_startproc
 613              		@ args = 0, pretend = 0, frame = 16
 614              		@ frame_needed = 1, uses_anonymous_args = 0
 615 0000 80B5     		push	{r7, lr}
 616              		.cfi_def_cfa_offset 8
 617              		.cfi_offset 7, -8
 618              		.cfi_offset 14, -4
 619 0002 84B0     		sub	sp, sp, #16
 620              		.cfi_def_cfa_offset 24
 621 0004 00AF     		add	r7, sp, #0
 622              		.cfi_def_cfa_register 7
 623 0006 F860     		str	r0, [r7, #12]
 624 0008 B960     		str	r1, [r7, #8]
 625 000a 7A60     		str	r2, [r7, #4]
 626 000c 3B60     		str	r3, [r7]
 627              		.loc 5 169 3
ARM GAS  C:\Users\DEVELO~1\AppData\Local\Temp\ccunflWu.s 			page 12


 628 000e FFF7FEFF 		bl	osalSysLock
 629              		.loc 5 170 3
 630 0012 3B68     		ldr	r3, [r7]
 631 0014 7A68     		ldr	r2, [r7, #4]
 632 0016 B968     		ldr	r1, [r7, #8]
 633 0018 F868     		ldr	r0, [r7, #12]
 634 001a FFF7FEFF 		bl	adcStartConversionI
 635              		.loc 5 171 3
 636 001e FFF7FEFF 		bl	osalSysUnlock
 637              		.loc 5 172 1
 638 0022 00BF     		nop
 639 0024 1037     		adds	r7, r7, #16
 640              		.cfi_def_cfa_offset 8
 641 0026 BD46     		mov	sp, r7
 642              		.cfi_def_cfa_register 13
 643              		@ sp needed
 644 0028 80BD     		pop	{r7, pc}
 645              		.cfi_endproc
 646              	.LFE436:
 647              		.size	adcStartConversion, .-adcStartConversion
 648              		.section	.text.adcStartConversionI,"ax",%progbits
 649              		.align	1
 650              		.global	adcStartConversionI
 651              		.syntax unified
 652              		.thumb
 653              		.thumb_func
 654              		.type	adcStartConversionI, %function
 655              	adcStartConversionI:
 656              	.LFB437:
 657              		.loc 5 195 40
 658              		.cfi_startproc
 659              		@ args = 0, pretend = 0, frame = 16
 660              		@ frame_needed = 1, uses_anonymous_args = 0
 661 0000 80B5     		push	{r7, lr}
 662              		.cfi_def_cfa_offset 8
 663              		.cfi_offset 7, -8
 664              		.cfi_offset 14, -4
 665 0002 84B0     		sub	sp, sp, #16
 666              		.cfi_def_cfa_offset 24
 667 0004 00AF     		add	r7, sp, #0
 668              		.cfi_def_cfa_register 7
 669 0006 F860     		str	r0, [r7, #12]
 670 0008 B960     		str	r1, [r7, #8]
 671 000a 7A60     		str	r2, [r7, #4]
 672 000c 3B60     		str	r3, [r7]
 673              		.loc 5 204 18
 674 000e FB68     		ldr	r3, [r7, #12]
 675 0010 7A68     		ldr	r2, [r7, #4]
 676 0012 9A60     		str	r2, [r3, #8]
 677              		.loc 5 205 18
 678 0014 FB68     		ldr	r3, [r7, #12]
 679 0016 3A68     		ldr	r2, [r7]
 680 0018 DA60     		str	r2, [r3, #12]
 681              		.loc 5 206 18
 682 001a FB68     		ldr	r3, [r7, #12]
 683 001c BA68     		ldr	r2, [r7, #8]
 684 001e 1A61     		str	r2, [r3, #16]
ARM GAS  C:\Users\DEVELO~1\AppData\Local\Temp\ccunflWu.s 			page 13


 685              		.loc 5 207 18
 686 0020 FB68     		ldr	r3, [r7, #12]
 687 0022 0322     		movs	r2, #3
 688 0024 1A70     		strb	r2, [r3]
 689              		.loc 5 208 3
 690 0026 F868     		ldr	r0, [r7, #12]
 691 0028 FFF7FEFF 		bl	adc_lld_start_conversion
 692              		.loc 5 209 1
 693 002c 00BF     		nop
 694 002e 1037     		adds	r7, r7, #16
 695              		.cfi_def_cfa_offset 8
 696 0030 BD46     		mov	sp, r7
 697              		.cfi_def_cfa_register 13
 698              		@ sp needed
 699 0032 80BD     		pop	{r7, pc}
 700              		.cfi_endproc
 701              	.LFE437:
 702              		.size	adcStartConversionI, .-adcStartConversionI
 703              		.section	.text.adcStopConversion,"ax",%progbits
 704              		.align	1
 705              		.global	adcStopConversion
 706              		.syntax unified
 707              		.thumb
 708              		.thumb_func
 709              		.type	adcStopConversion, %function
 710              	adcStopConversion:
 711              	.LFB438:
 712              		.loc 5 221 41
 713              		.cfi_startproc
 714              		@ args = 0, pretend = 0, frame = 8
 715              		@ frame_needed = 1, uses_anonymous_args = 0
 716 0000 80B5     		push	{r7, lr}
 717              		.cfi_def_cfa_offset 8
 718              		.cfi_offset 7, -8
 719              		.cfi_offset 14, -4
 720 0002 82B0     		sub	sp, sp, #8
 721              		.cfi_def_cfa_offset 16
 722 0004 00AF     		add	r7, sp, #0
 723              		.cfi_def_cfa_register 7
 724 0006 7860     		str	r0, [r7, #4]
 725              		.loc 5 225 3
 726 0008 FFF7FEFF 		bl	osalSysLock
 727              		.loc 5 228 11
 728 000c 7B68     		ldr	r3, [r7, #4]
 729 000e 1B78     		ldrb	r3, [r3]	@ zero_extendqisi2
 730              		.loc 5 228 6
 731 0010 022B     		cmp	r3, #2
 732 0012 0FD0     		beq	.L22
 733              		.loc 5 229 5
 734 0014 7868     		ldr	r0, [r7, #4]
 735 0016 FFF7FEFF 		bl	adc_lld_stop_conversion
 736              		.loc 5 230 17
 737 001a 7B68     		ldr	r3, [r7, #4]
 738 001c 0022     		movs	r2, #0
 739 001e 1A61     		str	r2, [r3, #16]
 740              		.loc 5 231 17
 741 0020 7B68     		ldr	r3, [r7, #4]
ARM GAS  C:\Users\DEVELO~1\AppData\Local\Temp\ccunflWu.s 			page 14


 742 0022 0222     		movs	r2, #2
 743 0024 1A70     		strb	r2, [r3]
 744              		.loc 5 232 5
 745 0026 7B68     		ldr	r3, [r7, #4]
 746 0028 1433     		adds	r3, r3, #20
 747 002a 6FF00101 		mvn	r1, #1
 748 002e 1846     		mov	r0, r3
 749 0030 FFF7FEFF 		bl	osalThreadResumeS
 750              	.L22:
 751              		.loc 5 234 3
 752 0034 FFF7FEFF 		bl	osalSysUnlock
 753              		.loc 5 235 1
 754 0038 00BF     		nop
 755 003a 0837     		adds	r7, r7, #8
 756              		.cfi_def_cfa_offset 8
 757 003c BD46     		mov	sp, r7
 758              		.cfi_def_cfa_register 13
 759              		@ sp needed
 760 003e 80BD     		pop	{r7, pc}
 761              		.cfi_endproc
 762              	.LFE438:
 763              		.size	adcStopConversion, .-adcStopConversion
 764              		.section	.text.adcStopConversionI,"ax",%progbits
 765              		.align	1
 766              		.global	adcStopConversionI
 767              		.syntax unified
 768              		.thumb
 769              		.thumb_func
 770              		.type	adcStopConversionI, %function
 771              	adcStopConversionI:
 772              	.LFB439:
 773              		.loc 5 247 42
 774              		.cfi_startproc
 775              		@ args = 0, pretend = 0, frame = 8
 776              		@ frame_needed = 1, uses_anonymous_args = 0
 777 0000 80B5     		push	{r7, lr}
 778              		.cfi_def_cfa_offset 8
 779              		.cfi_offset 7, -8
 780              		.cfi_offset 14, -4
 781 0002 82B0     		sub	sp, sp, #8
 782              		.cfi_def_cfa_offset 16
 783 0004 00AF     		add	r7, sp, #0
 784              		.cfi_def_cfa_register 7
 785 0006 7860     		str	r0, [r7, #4]
 786              		.loc 5 256 11
 787 0008 7B68     		ldr	r3, [r7, #4]
 788 000a 1B78     		ldrb	r3, [r3]	@ zero_extendqisi2
 789              		.loc 5 256 6
 790 000c 022B     		cmp	r3, #2
 791 000e 0FD0     		beq	.L25
 792              		.loc 5 257 5
 793 0010 7868     		ldr	r0, [r7, #4]
 794 0012 FFF7FEFF 		bl	adc_lld_stop_conversion
 795              		.loc 5 258 17
 796 0016 7B68     		ldr	r3, [r7, #4]
 797 0018 0022     		movs	r2, #0
 798 001a 1A61     		str	r2, [r3, #16]
ARM GAS  C:\Users\DEVELO~1\AppData\Local\Temp\ccunflWu.s 			page 15


 799              		.loc 5 259 17
 800 001c 7B68     		ldr	r3, [r7, #4]
 801 001e 0222     		movs	r2, #2
 802 0020 1A70     		strb	r2, [r3]
 803              		.loc 5 260 5
 804 0022 7B68     		ldr	r3, [r7, #4]
 805 0024 1433     		adds	r3, r3, #20
 806 0026 6FF00101 		mvn	r1, #1
 807 002a 1846     		mov	r0, r3
 808 002c FFF7FEFF 		bl	osalThreadResumeI
 809              	.L25:
 810              		.loc 5 262 1
 811 0030 00BF     		nop
 812 0032 0837     		adds	r7, r7, #8
 813              		.cfi_def_cfa_offset 8
 814 0034 BD46     		mov	sp, r7
 815              		.cfi_def_cfa_register 13
 816              		@ sp needed
 817 0036 80BD     		pop	{r7, pc}
 818              		.cfi_endproc
 819              	.LFE439:
 820              		.size	adcStopConversionI, .-adcStopConversionI
 821              		.section	.text.adcConvert,"ax",%progbits
 822              		.align	1
 823              		.global	adcConvert
 824              		.syntax unified
 825              		.thumb
 826              		.thumb_func
 827              		.type	adcConvert, %function
 828              	adcConvert:
 829              	.LFB440:
 830              		.loc 5 291 32
 831              		.cfi_startproc
 832              		@ args = 0, pretend = 0, frame = 24
 833              		@ frame_needed = 1, uses_anonymous_args = 0
 834 0000 80B5     		push	{r7, lr}
 835              		.cfi_def_cfa_offset 8
 836              		.cfi_offset 7, -8
 837              		.cfi_offset 14, -4
 838 0002 86B0     		sub	sp, sp, #24
 839              		.cfi_def_cfa_offset 32
 840 0004 00AF     		add	r7, sp, #0
 841              		.cfi_def_cfa_register 7
 842 0006 F860     		str	r0, [r7, #12]
 843 0008 B960     		str	r1, [r7, #8]
 844 000a 7A60     		str	r2, [r7, #4]
 845 000c 3B60     		str	r3, [r7]
 846              		.loc 5 294 3
 847 000e FFF7FEFF 		bl	osalSysLock
 848              		.loc 5 296 3
 849 0012 3B68     		ldr	r3, [r7]
 850 0014 7A68     		ldr	r2, [r7, #4]
 851 0016 B968     		ldr	r1, [r7, #8]
 852 0018 F868     		ldr	r0, [r7, #12]
 853 001a FFF7FEFF 		bl	adcStartConversionI
 854              		.loc 5 297 9
 855 001e FB68     		ldr	r3, [r7, #12]
ARM GAS  C:\Users\DEVELO~1\AppData\Local\Temp\ccunflWu.s 			page 16


 856 0020 1433     		adds	r3, r3, #20
 857 0022 1846     		mov	r0, r3
 858 0024 FFF7FEFF 		bl	osalThreadSuspendS
 859 0028 7861     		str	r0, [r7, #20]
 860              		.loc 5 298 3
 861 002a FFF7FEFF 		bl	osalSysUnlock
 862              		.loc 5 299 10
 863 002e 7B69     		ldr	r3, [r7, #20]
 864              		.loc 5 300 1
 865 0030 1846     		mov	r0, r3
 866 0032 1837     		adds	r7, r7, #24
 867              		.cfi_def_cfa_offset 8
 868 0034 BD46     		mov	sp, r7
 869              		.cfi_def_cfa_register 13
 870              		@ sp needed
 871 0036 80BD     		pop	{r7, pc}
 872              		.cfi_endproc
 873              	.LFE440:
 874              		.size	adcConvert, .-adcConvert
 875              		.section	.text.adcAcquireBus,"ax",%progbits
 876              		.align	1
 877              		.global	adcAcquireBus
 878              		.syntax unified
 879              		.thumb
 880              		.thumb_func
 881              		.type	adcAcquireBus, %function
 882              	adcAcquireBus:
 883              	.LFB441:
 884              		.loc 5 315 37
 885              		.cfi_startproc
 886              		@ args = 0, pretend = 0, frame = 8
 887              		@ frame_needed = 1, uses_anonymous_args = 0
 888 0000 80B5     		push	{r7, lr}
 889              		.cfi_def_cfa_offset 8
 890              		.cfi_offset 7, -8
 891              		.cfi_offset 14, -4
 892 0002 82B0     		sub	sp, sp, #8
 893              		.cfi_def_cfa_offset 16
 894 0004 00AF     		add	r7, sp, #0
 895              		.cfi_def_cfa_register 7
 896 0006 7860     		str	r0, [r7, #4]
 897              		.loc 5 319 3
 898 0008 7B68     		ldr	r3, [r7, #4]
 899 000a 1833     		adds	r3, r3, #24
 900 000c 1846     		mov	r0, r3
 901 000e FFF7FEFF 		bl	osalMutexLock
 902              		.loc 5 320 1
 903 0012 00BF     		nop
 904 0014 0837     		adds	r7, r7, #8
 905              		.cfi_def_cfa_offset 8
 906 0016 BD46     		mov	sp, r7
 907              		.cfi_def_cfa_register 13
 908              		@ sp needed
 909 0018 80BD     		pop	{r7, pc}
 910              		.cfi_endproc
 911              	.LFE441:
 912              		.size	adcAcquireBus, .-adcAcquireBus
ARM GAS  C:\Users\DEVELO~1\AppData\Local\Temp\ccunflWu.s 			page 17


 913              		.section	.text.adcReleaseBus,"ax",%progbits
 914              		.align	1
 915              		.global	adcReleaseBus
 916              		.syntax unified
 917              		.thumb
 918              		.thumb_func
 919              		.type	adcReleaseBus, %function
 920              	adcReleaseBus:
 921              	.LFB442:
 922              		.loc 5 331 37
 923              		.cfi_startproc
 924              		@ args = 0, pretend = 0, frame = 8
 925              		@ frame_needed = 1, uses_anonymous_args = 0
 926 0000 80B5     		push	{r7, lr}
 927              		.cfi_def_cfa_offset 8
 928              		.cfi_offset 7, -8
 929              		.cfi_offset 14, -4
 930 0002 82B0     		sub	sp, sp, #8
 931              		.cfi_def_cfa_offset 16
 932 0004 00AF     		add	r7, sp, #0
 933              		.cfi_def_cfa_register 7
 934 0006 7860     		str	r0, [r7, #4]
 935              		.loc 5 335 3
 936 0008 7B68     		ldr	r3, [r7, #4]
 937 000a 1833     		adds	r3, r3, #24
 938 000c 1846     		mov	r0, r3
 939 000e FFF7FEFF 		bl	osalMutexUnlock
 940              		.loc 5 336 1
 941 0012 00BF     		nop
 942 0014 0837     		adds	r7, r7, #8
 943              		.cfi_def_cfa_offset 8
 944 0016 BD46     		mov	sp, r7
 945              		.cfi_def_cfa_register 13
 946              		@ sp needed
 947 0018 80BD     		pop	{r7, pc}
 948              		.cfi_endproc
 949              	.LFE442:
 950              		.size	adcReleaseBus, .-adcReleaseBus
 951              		.text
 952              	.Letext0:
 953              		.file 6 "c:\\chibistudio\\tools\\gnu tools arm embedded\\11.3 2022.08\\lib\\gcc\\arm-none-eabi\\11
 954              		.file 7 "c:\\chibistudio\\tools\\gnu tools arm embedded\\11.3 2022.08\\arm-none-eabi\\include\\mac
 955              		.file 8 "c:\\chibistudio\\tools\\gnu tools arm embedded\\11.3 2022.08\\arm-none-eabi\\include\\sys
 956              		.file 9 "../../../os/common/ports/ARM-common/chtypes.h"
 957              		.file 10 "../../../os/rt/include/chearly.h"
 958              		.file 11 "../../../os/rt/include/chobjects.h"
 959              		.file 12 "../../../os/rt/include/chrfcu.h"
 960              		.file 13 "../../../os/rt/include/chdebug.h"
 961              		.file 14 "../../../os/rt/include/chtime.h"
 962              		.file 15 "../../../os/rt/include/chlists.h"
 963              		.file 16 "../../../os/rt/include/chtrace.h"
 964              		.file 17 "../../../os/common/ext/ST/STM32H7xx/stm32h743xx.h"
 965              		.file 18 "../../../os/rt/include/chsem.h"
 966              		.file 19 "../../../os/rt/include/chmtx.h"
 967              		.file 20 "../../../os/hal/ports/STM32/LLD/DMAv2/stm32_dma.h"
 968              		.file 21 "../../../os/hal/include/hal_adc.h"
 969              		.file 22 "../../../os/hal/ports/STM32/LLD/ADCv4/hal_adc_lld.h"
ARM GAS  C:\Users\DEVELO~1\AppData\Local\Temp\ccunflWu.s 			page 18


 970              		.file 23 "../../../os/rt/include/chthreads.h"