ARM GAS  C:\Users\DEVELO~1\AppData\Local\Temp\ccHwwtpW.s 			page 1


   1              		.cpu cortex-m7
   2              		.arch armv7e-m
   3              		.fpu softvfp
   4              		.eabi_attribute 20, 1
   5              		.eabi_attribute 21, 1
   6              		.eabi_attribute 23, 3
   7              		.eabi_attribute 24, 1
   8              		.eabi_attribute 25, 1
   9              		.eabi_attribute 26, 1
  10              		.eabi_attribute 30, 6
  11              		.eabi_attribute 34, 1
  12              		.eabi_attribute 18, 4
  13              		.file	"hal_i2c.c"
  14              		.text
  15              	.Ltext0:
  16              		.cfi_sections	.debug_frame
  17              		.section	.text.chSysLock,"ax",%progbits
  18              		.align	1
  19              		.syntax unified
  20              		.thumb
  21              		.thumb_func
  22              		.type	chSysLock, %function
  23              	chSysLock:
  24              	.LFB202:
  25              		.file 1 "../../../os/rt/include/chsys.h"
  26              		.loc 1 407 36
  27              		.cfi_startproc
  28              		@ args = 0, pretend = 0, frame = 8
  29              		@ frame_needed = 1, uses_anonymous_args = 0
  30              		@ link register save eliminated.
  31 0000 80B4     		push	{r7}
  32              		.cfi_def_cfa_offset 4
  33              		.cfi_offset 7, -4
  34 0002 83B0     		sub	sp, sp, #12
  35              		.cfi_def_cfa_offset 16
  36 0004 00AF     		add	r7, sp, #0
  37              		.cfi_def_cfa_register 7
  38 0006 3023     		movs	r3, #48
  39 0008 7B60     		str	r3, [r7, #4]
  40              	.LBB14:
  41              	.LBB15:
  42              	.LBB16:
  43              	.LBB17:
  44              		.file 2 "../../../os/common/ext/ARM/CMSIS/Core/Include/cmsis_gcc.h"
  45              		.loc 2 493 3
  46 000a 7B68     		ldr	r3, [r7, #4]
  47              		.syntax unified
  48              	@ 493 "../../../os/common/ext/ARM/CMSIS/Core/Include/cmsis_gcc.h" 1
  49 000c 83F31188 		MSR basepri, r3
  50              	@ 0 "" 2
  51              		.loc 2 494 1
  52              		.thumb
  53              		.syntax unified
  54 0010 00BF     		nop
  55              	.LBE17:
  56              	.LBE16:
  57              		.file 3 "../../../os/common/ports/ARMv7-M/chcore.h"
ARM GAS  C:\Users\DEVELO~1\AppData\Local\Temp\ccHwwtpW.s 			page 2


  58              		.loc 3 840 1
  59 0012 00BF     		nop
  60              	.LBE15:
  61              	.LBE14:
  62              		.loc 1 412 1
  63 0014 00BF     		nop
  64 0016 0C37     		adds	r7, r7, #12
  65              		.cfi_def_cfa_offset 4
  66 0018 BD46     		mov	sp, r7
  67              		.cfi_def_cfa_register 13
  68              		@ sp needed
  69 001a 80BC     		pop	{r7}
  70              		.cfi_restore 7
  71              		.cfi_def_cfa_offset 0
  72 001c 7047     		bx	lr
  73              		.cfi_endproc
  74              	.LFE202:
  75              		.size	chSysLock, .-chSysLock
  76              		.section	.text.chSysUnlock,"ax",%progbits
  77              		.align	1
  78              		.syntax unified
  79              		.thumb
  80              		.thumb_func
  81              		.type	chSysUnlock, %function
  82              	chSysUnlock:
  83              	.LFB203:
  84              		.loc 1 421 38
  85              		.cfi_startproc
  86              		@ args = 0, pretend = 0, frame = 8
  87              		@ frame_needed = 1, uses_anonymous_args = 0
  88              		@ link register save eliminated.
  89 0000 80B4     		push	{r7}
  90              		.cfi_def_cfa_offset 4
  91              		.cfi_offset 7, -4
  92 0002 83B0     		sub	sp, sp, #12
  93              		.cfi_def_cfa_offset 16
  94 0004 00AF     		add	r7, sp, #0
  95              		.cfi_def_cfa_register 7
  96 0006 0023     		movs	r3, #0
  97 0008 7B60     		str	r3, [r7, #4]
  98              	.LBB18:
  99              	.LBB19:
 100              	.LBB20:
 101              	.LBB21:
 102              		.loc 2 493 3
 103 000a 7B68     		ldr	r3, [r7, #4]
 104              		.syntax unified
 105              	@ 493 "../../../os/common/ext/ARM/CMSIS/Core/Include/cmsis_gcc.h" 1
 106 000c 83F31188 		MSR basepri, r3
 107              	@ 0 "" 2
 108              		.loc 2 494 1
 109              		.thumb
 110              		.syntax unified
 111 0010 00BF     		nop
 112              	.LBE21:
 113              	.LBE20:
 114              		.loc 3 854 1
ARM GAS  C:\Users\DEVELO~1\AppData\Local\Temp\ccHwwtpW.s 			page 3


 115 0012 00BF     		nop
 116              	.LBE19:
 117              	.LBE18:
 118              		.loc 1 435 1
 119 0014 00BF     		nop
 120 0016 0C37     		adds	r7, r7, #12
 121              		.cfi_def_cfa_offset 4
 122 0018 BD46     		mov	sp, r7
 123              		.cfi_def_cfa_register 13
 124              		@ sp needed
 125 001a 80BC     		pop	{r7}
 126              		.cfi_restore 7
 127              		.cfi_def_cfa_offset 0
 128 001c 7047     		bx	lr
 129              		.cfi_endproc
 130              	.LFE203:
 131              		.size	chSysUnlock, .-chSysUnlock
 132              		.section	.text.osalSysLock,"ax",%progbits
 133              		.align	1
 134              		.syntax unified
 135              		.thumb
 136              		.thumb_func
 137              		.type	osalSysLock, %function
 138              	osalSysLock:
 139              	.LFB350:
 140              		.file 4 "../../../os/hal/osal/rt-nil/osal.h"
 141              		.loc 4 573 38
 142              		.cfi_startproc
 143              		@ args = 0, pretend = 0, frame = 0
 144              		@ frame_needed = 1, uses_anonymous_args = 0
 145 0000 80B5     		push	{r7, lr}
 146              		.cfi_def_cfa_offset 8
 147              		.cfi_offset 7, -8
 148              		.cfi_offset 14, -4
 149 0002 00AF     		add	r7, sp, #0
 150              		.cfi_def_cfa_register 7
 151              		.loc 4 575 3
 152 0004 FFF7FEFF 		bl	chSysLock
 153              		.loc 4 576 1
 154 0008 00BF     		nop
 155 000a 80BD     		pop	{r7, pc}
 156              		.cfi_endproc
 157              	.LFE350:
 158              		.size	osalSysLock, .-osalSysLock
 159              		.section	.text.osalSysUnlock,"ax",%progbits
 160              		.align	1
 161              		.syntax unified
 162              		.thumb
 163              		.thumb_func
 164              		.type	osalSysUnlock, %function
 165              	osalSysUnlock:
 166              	.LFB351:
 167              		.loc 4 584 40
 168              		.cfi_startproc
 169              		@ args = 0, pretend = 0, frame = 0
 170              		@ frame_needed = 1, uses_anonymous_args = 0
 171 0000 80B5     		push	{r7, lr}
ARM GAS  C:\Users\DEVELO~1\AppData\Local\Temp\ccHwwtpW.s 			page 4


 172              		.cfi_def_cfa_offset 8
 173              		.cfi_offset 7, -8
 174              		.cfi_offset 14, -4
 175 0002 00AF     		add	r7, sp, #0
 176              		.cfi_def_cfa_register 7
 177              		.loc 4 586 3
 178 0004 FFF7FEFF 		bl	chSysUnlock
 179              		.loc 4 587 1
 180 0008 00BF     		nop
 181 000a 80BD     		pop	{r7, pc}
 182              		.cfi_endproc
 183              	.LFE351:
 184              		.size	osalSysUnlock, .-osalSysUnlock
 185              		.section	.text.osalMutexObjectInit,"ax",%progbits
 186              		.align	1
 187              		.syntax unified
 188              		.thumb
 189              		.thumb_func
 190              		.type	osalMutexObjectInit, %function
 191              	osalMutexObjectInit:
 192              	.LFB376:
 193              		.loc 4 1035 53
 194              		.cfi_startproc
 195              		@ args = 0, pretend = 0, frame = 8
 196              		@ frame_needed = 1, uses_anonymous_args = 0
 197 0000 80B5     		push	{r7, lr}
 198              		.cfi_def_cfa_offset 8
 199              		.cfi_offset 7, -8
 200              		.cfi_offset 14, -4
 201 0002 82B0     		sub	sp, sp, #8
 202              		.cfi_def_cfa_offset 16
 203 0004 00AF     		add	r7, sp, #0
 204              		.cfi_def_cfa_register 7
 205 0006 7860     		str	r0, [r7, #4]
 206              		.loc 4 1038 3
 207 0008 7868     		ldr	r0, [r7, #4]
 208 000a FFF7FEFF 		bl	chMtxObjectInit
 209              		.loc 4 1044 1
 210 000e 00BF     		nop
 211 0010 0837     		adds	r7, r7, #8
 212              		.cfi_def_cfa_offset 8
 213 0012 BD46     		mov	sp, r7
 214              		.cfi_def_cfa_register 13
 215              		@ sp needed
 216 0014 80BD     		pop	{r7, pc}
 217              		.cfi_endproc
 218              	.LFE376:
 219              		.size	osalMutexObjectInit, .-osalMutexObjectInit
 220              		.section	.text.osalMutexLock,"ax",%progbits
 221              		.align	1
 222              		.syntax unified
 223              		.thumb
 224              		.thumb_func
 225              		.type	osalMutexLock, %function
 226              	osalMutexLock:
 227              	.LFB377:
 228              		.loc 4 1055 47
ARM GAS  C:\Users\DEVELO~1\AppData\Local\Temp\ccHwwtpW.s 			page 5


 229              		.cfi_startproc
 230              		@ args = 0, pretend = 0, frame = 8
 231              		@ frame_needed = 1, uses_anonymous_args = 0
 232 0000 80B5     		push	{r7, lr}
 233              		.cfi_def_cfa_offset 8
 234              		.cfi_offset 7, -8
 235              		.cfi_offset 14, -4
 236 0002 82B0     		sub	sp, sp, #8
 237              		.cfi_def_cfa_offset 16
 238 0004 00AF     		add	r7, sp, #0
 239              		.cfi_def_cfa_register 7
 240 0006 7860     		str	r0, [r7, #4]
 241              		.loc 4 1058 3
 242 0008 7868     		ldr	r0, [r7, #4]
 243 000a FFF7FEFF 		bl	chMtxLock
 244              		.loc 4 1064 1
 245 000e 00BF     		nop
 246 0010 0837     		adds	r7, r7, #8
 247              		.cfi_def_cfa_offset 8
 248 0012 BD46     		mov	sp, r7
 249              		.cfi_def_cfa_register 13
 250              		@ sp needed
 251 0014 80BD     		pop	{r7, pc}
 252              		.cfi_endproc
 253              	.LFE377:
 254              		.size	osalMutexLock, .-osalMutexLock
 255              		.section	.text.osalMutexUnlock,"ax",%progbits
 256              		.align	1
 257              		.syntax unified
 258              		.thumb
 259              		.thumb_func
 260              		.type	osalMutexUnlock, %function
 261              	osalMutexUnlock:
 262              	.LFB378:
 263              		.loc 4 1079 49
 264              		.cfi_startproc
 265              		@ args = 0, pretend = 0, frame = 8
 266              		@ frame_needed = 1, uses_anonymous_args = 0
 267 0000 80B5     		push	{r7, lr}
 268              		.cfi_def_cfa_offset 8
 269              		.cfi_offset 7, -8
 270              		.cfi_offset 14, -4
 271 0002 82B0     		sub	sp, sp, #8
 272              		.cfi_def_cfa_offset 16
 273 0004 00AF     		add	r7, sp, #0
 274              		.cfi_def_cfa_register 7
 275 0006 7860     		str	r0, [r7, #4]
 276              		.loc 4 1082 3
 277 0008 7868     		ldr	r0, [r7, #4]
 278 000a FFF7FEFF 		bl	chMtxUnlock
 279              		.loc 4 1088 1
 280 000e 00BF     		nop
 281 0010 0837     		adds	r7, r7, #8
 282              		.cfi_def_cfa_offset 8
 283 0012 BD46     		mov	sp, r7
 284              		.cfi_def_cfa_register 13
 285              		@ sp needed
ARM GAS  C:\Users\DEVELO~1\AppData\Local\Temp\ccHwwtpW.s 			page 6


 286 0014 80BD     		pop	{r7, pc}
 287              		.cfi_endproc
 288              	.LFE378:
 289              		.size	osalMutexUnlock, .-osalMutexUnlock
 290              		.section	.text.i2cInit,"ax",%progbits
 291              		.align	1
 292              		.global	i2cInit
 293              		.syntax unified
 294              		.thumb
 295              		.thumb_func
 296              		.type	i2cInit, %function
 297              	i2cInit:
 298              	.LFB432:
 299              		.file 5 "../../../os/hal/src/hal_i2c.c"
 300              		.loc 5 59 20
 301              		.cfi_startproc
 302              		@ args = 0, pretend = 0, frame = 0
 303              		@ frame_needed = 1, uses_anonymous_args = 0
 304 0000 80B5     		push	{r7, lr}
 305              		.cfi_def_cfa_offset 8
 306              		.cfi_offset 7, -8
 307              		.cfi_offset 14, -4
 308 0002 00AF     		add	r7, sp, #0
 309              		.cfi_def_cfa_register 7
 310              		.loc 5 61 3
 311 0004 FFF7FEFF 		bl	i2c_lld_init
 312              		.loc 5 62 1
 313 0008 00BF     		nop
 314 000a 80BD     		pop	{r7, pc}
 315              		.cfi_endproc
 316              	.LFE432:
 317              		.size	i2cInit, .-i2cInit
 318              		.section	.text.i2cObjectInit,"ax",%progbits
 319              		.align	1
 320              		.global	i2cObjectInit
 321              		.syntax unified
 322              		.thumb
 323              		.thumb_func
 324              		.type	i2cObjectInit, %function
 325              	i2cObjectInit:
 326              	.LFB433:
 327              		.loc 5 71 37
 328              		.cfi_startproc
 329              		@ args = 0, pretend = 0, frame = 8
 330              		@ frame_needed = 1, uses_anonymous_args = 0
 331 0000 80B5     		push	{r7, lr}
 332              		.cfi_def_cfa_offset 8
 333              		.cfi_offset 7, -8
 334              		.cfi_offset 14, -4
 335 0002 82B0     		sub	sp, sp, #8
 336              		.cfi_def_cfa_offset 16
 337 0004 00AF     		add	r7, sp, #0
 338              		.cfi_def_cfa_register 7
 339 0006 7860     		str	r0, [r7, #4]
 340              		.loc 5 73 16
 341 0008 7B68     		ldr	r3, [r7, #4]
 342 000a 0122     		movs	r2, #1
ARM GAS  C:\Users\DEVELO~1\AppData\Local\Temp\ccHwwtpW.s 			page 7


 343 000c 1A70     		strb	r2, [r3]
 344              		.loc 5 74 16
 345 000e 7B68     		ldr	r3, [r7, #4]
 346 0010 0022     		movs	r2, #0
 347 0012 5A60     		str	r2, [r3, #4]
 348              		.loc 5 77 3
 349 0014 7B68     		ldr	r3, [r7, #4]
 350 0016 0C33     		adds	r3, r3, #12
 351 0018 1846     		mov	r0, r3
 352 001a FFF7FEFF 		bl	osalMutexObjectInit
 353              		.loc 5 83 1
 354 001e 00BF     		nop
 355 0020 0837     		adds	r7, r7, #8
 356              		.cfi_def_cfa_offset 8
 357 0022 BD46     		mov	sp, r7
 358              		.cfi_def_cfa_register 13
 359              		@ sp needed
 360 0024 80BD     		pop	{r7, pc}
 361              		.cfi_endproc
 362              	.LFE433:
 363              		.size	i2cObjectInit, .-i2cObjectInit
 364              		.section	.text.i2cStart,"ax",%progbits
 365              		.align	1
 366              		.global	i2cStart
 367              		.syntax unified
 368              		.thumb
 369              		.thumb_func
 370              		.type	i2cStart, %function
 371              	i2cStart:
 372              	.LFB434:
 373              		.loc 5 94 58
 374              		.cfi_startproc
 375              		@ args = 0, pretend = 0, frame = 16
 376              		@ frame_needed = 1, uses_anonymous_args = 0
 377 0000 80B5     		push	{r7, lr}
 378              		.cfi_def_cfa_offset 8
 379              		.cfi_offset 7, -8
 380              		.cfi_offset 14, -4
 381 0002 84B0     		sub	sp, sp, #16
 382              		.cfi_def_cfa_offset 24
 383 0004 00AF     		add	r7, sp, #0
 384              		.cfi_def_cfa_register 7
 385 0006 7860     		str	r0, [r7, #4]
 386 0008 3960     		str	r1, [r7]
 387              		.loc 5 99 3
 388 000a FFF7FEFF 		bl	osalSysLock
 389              		.loc 5 103 16
 390 000e 7B68     		ldr	r3, [r7, #4]
 391 0010 3A68     		ldr	r2, [r7]
 392 0012 5A60     		str	r2, [r3, #4]
 393              		.loc 5 114 3
 394 0014 7868     		ldr	r0, [r7, #4]
 395 0016 FFF7FEFF 		bl	i2c_lld_start
 396              		.loc 5 115 15
 397 001a 7B68     		ldr	r3, [r7, #4]
 398 001c 0222     		movs	r2, #2
 399 001e 1A70     		strb	r2, [r3]
ARM GAS  C:\Users\DEVELO~1\AppData\Local\Temp\ccHwwtpW.s 			page 8


 400              		.loc 5 116 7
 401 0020 0023     		movs	r3, #0
 402 0022 FB60     		str	r3, [r7, #12]
 403              		.loc 5 119 3
 404 0024 FFF7FEFF 		bl	osalSysUnlock
 405              		.loc 5 121 10
 406 0028 FB68     		ldr	r3, [r7, #12]
 407              		.loc 5 122 1
 408 002a 1846     		mov	r0, r3
 409 002c 1037     		adds	r7, r7, #16
 410              		.cfi_def_cfa_offset 8
 411 002e BD46     		mov	sp, r7
 412              		.cfi_def_cfa_register 13
 413              		@ sp needed
 414 0030 80BD     		pop	{r7, pc}
 415              		.cfi_endproc
 416              	.LFE434:
 417              		.size	i2cStart, .-i2cStart
 418              		.section	.text.i2cStop,"ax",%progbits
 419              		.align	1
 420              		.global	i2cStop
 421              		.syntax unified
 422              		.thumb
 423              		.thumb_func
 424              		.type	i2cStop, %function
 425              	i2cStop:
 426              	.LFB435:
 427              		.loc 5 131 31
 428              		.cfi_startproc
 429              		@ args = 0, pretend = 0, frame = 8
 430              		@ frame_needed = 1, uses_anonymous_args = 0
 431 0000 80B5     		push	{r7, lr}
 432              		.cfi_def_cfa_offset 8
 433              		.cfi_offset 7, -8
 434              		.cfi_offset 14, -4
 435 0002 82B0     		sub	sp, sp, #8
 436              		.cfi_def_cfa_offset 16
 437 0004 00AF     		add	r7, sp, #0
 438              		.cfi_def_cfa_register 7
 439 0006 7860     		str	r0, [r7, #4]
 440              		.loc 5 135 3
 441 0008 FFF7FEFF 		bl	osalSysLock
 442              		.loc 5 140 3
 443 000c 7868     		ldr	r0, [r7, #4]
 444 000e FFF7FEFF 		bl	i2c_lld_stop
 445              		.loc 5 141 16
 446 0012 7B68     		ldr	r3, [r7, #4]
 447 0014 0022     		movs	r2, #0
 448 0016 5A60     		str	r2, [r3, #4]
 449              		.loc 5 142 16
 450 0018 7B68     		ldr	r3, [r7, #4]
 451 001a 0122     		movs	r2, #1
 452 001c 1A70     		strb	r2, [r3]
 453              		.loc 5 144 3
 454 001e FFF7FEFF 		bl	osalSysUnlock
 455              		.loc 5 145 1
 456 0022 00BF     		nop
ARM GAS  C:\Users\DEVELO~1\AppData\Local\Temp\ccHwwtpW.s 			page 9


 457 0024 0837     		adds	r7, r7, #8
 458              		.cfi_def_cfa_offset 8
 459 0026 BD46     		mov	sp, r7
 460              		.cfi_def_cfa_register 13
 461              		@ sp needed
 462 0028 80BD     		pop	{r7, pc}
 463              		.cfi_endproc
 464              	.LFE435:
 465              		.size	i2cStop, .-i2cStop
 466              		.section	.text.i2cGetErrors,"ax",%progbits
 467              		.align	1
 468              		.global	i2cGetErrors
 469              		.syntax unified
 470              		.thumb
 471              		.thumb_func
 472              		.type	i2cGetErrors, %function
 473              	i2cGetErrors:
 474              	.LFB436:
 475              		.loc 5 155 42
 476              		.cfi_startproc
 477              		@ args = 0, pretend = 0, frame = 8
 478              		@ frame_needed = 1, uses_anonymous_args = 0
 479              		@ link register save eliminated.
 480 0000 80B4     		push	{r7}
 481              		.cfi_def_cfa_offset 4
 482              		.cfi_offset 7, -4
 483 0002 83B0     		sub	sp, sp, #12
 484              		.cfi_def_cfa_offset 16
 485 0004 00AF     		add	r7, sp, #0
 486              		.cfi_def_cfa_register 7
 487 0006 7860     		str	r0, [r7, #4]
 488              		.loc 5 159 10
 489 0008 7B68     		ldr	r3, [r7, #4]
 490 000a 9B68     		ldr	r3, [r3, #8]
 491              		.loc 5 160 1
 492 000c 1846     		mov	r0, r3
 493 000e 0C37     		adds	r7, r7, #12
 494              		.cfi_def_cfa_offset 4
 495 0010 BD46     		mov	sp, r7
 496              		.cfi_def_cfa_register 13
 497              		@ sp needed
 498 0012 80BC     		pop	{r7}
 499              		.cfi_restore 7
 500              		.cfi_def_cfa_offset 0
 501 0014 7047     		bx	lr
 502              		.cfi_endproc
 503              	.LFE436:
 504              		.size	i2cGetErrors, .-i2cGetErrors
 505              		.section	.text.i2cMasterTransmitTimeout,"ax",%progbits
 506              		.align	1
 507              		.global	i2cMasterTransmitTimeout
 508              		.syntax unified
 509              		.thumb
 510              		.thumb_func
 511              		.type	i2cMasterTransmitTimeout, %function
 512              	i2cMasterTransmitTimeout:
 513              	.LFB437:
ARM GAS  C:\Users\DEVELO~1\AppData\Local\Temp\ccHwwtpW.s 			page 10


 514              		.loc 5 193 55
 515              		.cfi_startproc
 516              		@ args = 12, pretend = 0, frame = 24
 517              		@ frame_needed = 1, uses_anonymous_args = 0
 518 0000 80B5     		push	{r7, lr}
 519              		.cfi_def_cfa_offset 8
 520              		.cfi_offset 7, -8
 521              		.cfi_offset 14, -4
 522 0002 8AB0     		sub	sp, sp, #40
 523              		.cfi_def_cfa_offset 48
 524 0004 04AF     		add	r7, sp, #16
 525              		.cfi_def_cfa 7, 32
 526 0006 F860     		str	r0, [r7, #12]
 527 0008 7A60     		str	r2, [r7, #4]
 528 000a 3B60     		str	r3, [r7]
 529 000c 0B46     		mov	r3, r1	@ movhi
 530 000e 7B81     		strh	r3, [r7, #10]	@ movhi
 531              		.loc 5 203 3
 532 0010 FFF7FEFF 		bl	osalSysLock
 533              		.loc 5 204 16
 534 0014 FB68     		ldr	r3, [r7, #12]
 535 0016 0022     		movs	r2, #0
 536 0018 9A60     		str	r2, [r3, #8]
 537              		.loc 5 205 15
 538 001a FB68     		ldr	r3, [r7, #12]
 539 001c 0322     		movs	r2, #3
 540 001e 1A70     		strb	r2, [r3]
 541              		.loc 5 206 12
 542 0020 7989     		ldrh	r1, [r7, #10]
 543 0022 BB6A     		ldr	r3, [r7, #40]
 544 0024 0293     		str	r3, [sp, #8]
 545 0026 7B6A     		ldr	r3, [r7, #36]
 546 0028 0193     		str	r3, [sp, #4]
 547 002a 3B6A     		ldr	r3, [r7, #32]
 548 002c 0093     		str	r3, [sp]
 549 002e 3B68     		ldr	r3, [r7]
 550 0030 7A68     		ldr	r2, [r7, #4]
 551 0032 F868     		ldr	r0, [r7, #12]
 552 0034 FFF7FEFF 		bl	i2c_lld_master_transmit_timeout
 553 0038 7861     		str	r0, [r7, #20]
 554              		.loc 5 208 6
 555 003a 7B69     		ldr	r3, [r7, #20]
 556 003c B3F1FF3F 		cmp	r3, #-1
 557 0040 03D1     		bne	.L16
 558              		.loc 5 209 17
 559 0042 FB68     		ldr	r3, [r7, #12]
 560 0044 0522     		movs	r2, #5
 561 0046 1A70     		strb	r2, [r3]
 562 0048 02E0     		b	.L17
 563              	.L16:
 564              		.loc 5 212 17
 565 004a FB68     		ldr	r3, [r7, #12]
 566 004c 0222     		movs	r2, #2
 567 004e 1A70     		strb	r2, [r3]
 568              	.L17:
 569              		.loc 5 214 3
 570 0050 FFF7FEFF 		bl	osalSysUnlock
ARM GAS  C:\Users\DEVELO~1\AppData\Local\Temp\ccHwwtpW.s 			page 11


 571              		.loc 5 215 10
 572 0054 7B69     		ldr	r3, [r7, #20]
 573              		.loc 5 216 1
 574 0056 1846     		mov	r0, r3
 575 0058 1837     		adds	r7, r7, #24
 576              		.cfi_def_cfa_offset 8
 577 005a BD46     		mov	sp, r7
 578              		.cfi_def_cfa_register 13
 579              		@ sp needed
 580 005c 80BD     		pop	{r7, pc}
 581              		.cfi_endproc
 582              	.LFE437:
 583              		.size	i2cMasterTransmitTimeout, .-i2cMasterTransmitTimeout
 584              		.section	.text.i2cMasterReceiveTimeout,"ax",%progbits
 585              		.align	1
 586              		.global	i2cMasterReceiveTimeout
 587              		.syntax unified
 588              		.thumb
 589              		.thumb_func
 590              		.type	i2cMasterReceiveTimeout, %function
 591              	i2cMasterReceiveTimeout:
 592              	.LFB438:
 593              		.loc 5 241 54
 594              		.cfi_startproc
 595              		@ args = 4, pretend = 0, frame = 24
 596              		@ frame_needed = 1, uses_anonymous_args = 0
 597 0000 80B5     		push	{r7, lr}
 598              		.cfi_def_cfa_offset 8
 599              		.cfi_offset 7, -8
 600              		.cfi_offset 14, -4
 601 0002 88B0     		sub	sp, sp, #32
 602              		.cfi_def_cfa_offset 40
 603 0004 02AF     		add	r7, sp, #8
 604              		.cfi_def_cfa 7, 32
 605 0006 F860     		str	r0, [r7, #12]
 606 0008 7A60     		str	r2, [r7, #4]
 607 000a 3B60     		str	r3, [r7]
 608 000c 0B46     		mov	r3, r1	@ movhi
 609 000e 7B81     		strh	r3, [r7, #10]	@ movhi
 610              		.loc 5 251 3
 611 0010 FFF7FEFF 		bl	osalSysLock
 612              		.loc 5 252 16
 613 0014 FB68     		ldr	r3, [r7, #12]
 614 0016 0022     		movs	r2, #0
 615 0018 9A60     		str	r2, [r3, #8]
 616              		.loc 5 253 15
 617 001a FB68     		ldr	r3, [r7, #12]
 618 001c 0422     		movs	r2, #4
 619 001e 1A70     		strb	r2, [r3]
 620              		.loc 5 254 12
 621 0020 7989     		ldrh	r1, [r7, #10]
 622 0022 3B6A     		ldr	r3, [r7, #32]
 623 0024 0093     		str	r3, [sp]
 624 0026 3B68     		ldr	r3, [r7]
 625 0028 7A68     		ldr	r2, [r7, #4]
 626 002a F868     		ldr	r0, [r7, #12]
 627 002c FFF7FEFF 		bl	i2c_lld_master_receive_timeout
ARM GAS  C:\Users\DEVELO~1\AppData\Local\Temp\ccHwwtpW.s 			page 12


 628 0030 7861     		str	r0, [r7, #20]
 629              		.loc 5 255 6
 630 0032 7B69     		ldr	r3, [r7, #20]
 631 0034 B3F1FF3F 		cmp	r3, #-1
 632 0038 03D1     		bne	.L20
 633              		.loc 5 256 17
 634 003a FB68     		ldr	r3, [r7, #12]
 635 003c 0522     		movs	r2, #5
 636 003e 1A70     		strb	r2, [r3]
 637 0040 02E0     		b	.L21
 638              	.L20:
 639              		.loc 5 259 17
 640 0042 FB68     		ldr	r3, [r7, #12]
 641 0044 0222     		movs	r2, #2
 642 0046 1A70     		strb	r2, [r3]
 643              	.L21:
 644              		.loc 5 261 3
 645 0048 FFF7FEFF 		bl	osalSysUnlock
 646              		.loc 5 262 10
 647 004c 7B69     		ldr	r3, [r7, #20]
 648              		.loc 5 263 1
 649 004e 1846     		mov	r0, r3
 650 0050 1837     		adds	r7, r7, #24
 651              		.cfi_def_cfa_offset 8
 652 0052 BD46     		mov	sp, r7
 653              		.cfi_def_cfa_register 13
 654              		@ sp needed
 655 0054 80BD     		pop	{r7, pc}
 656              		.cfi_endproc
 657              	.LFE438:
 658              		.size	i2cMasterReceiveTimeout, .-i2cMasterReceiveTimeout
 659              		.section	.text.i2cAcquireBus,"ax",%progbits
 660              		.align	1
 661              		.global	i2cAcquireBus
 662              		.syntax unified
 663              		.thumb
 664              		.thumb_func
 665              		.type	i2cAcquireBus, %function
 666              	i2cAcquireBus:
 667              	.LFB439:
 668              		.loc 5 277 37
 669              		.cfi_startproc
 670              		@ args = 0, pretend = 0, frame = 8
 671              		@ frame_needed = 1, uses_anonymous_args = 0
 672 0000 80B5     		push	{r7, lr}
 673              		.cfi_def_cfa_offset 8
 674              		.cfi_offset 7, -8
 675              		.cfi_offset 14, -4
 676 0002 82B0     		sub	sp, sp, #8
 677              		.cfi_def_cfa_offset 16
 678 0004 00AF     		add	r7, sp, #0
 679              		.cfi_def_cfa_register 7
 680 0006 7860     		str	r0, [r7, #4]
 681              		.loc 5 281 3
 682 0008 7B68     		ldr	r3, [r7, #4]
 683 000a 0C33     		adds	r3, r3, #12
 684 000c 1846     		mov	r0, r3
ARM GAS  C:\Users\DEVELO~1\AppData\Local\Temp\ccHwwtpW.s 			page 13


 685 000e FFF7FEFF 		bl	osalMutexLock
 686              		.loc 5 282 1
 687 0012 00BF     		nop
 688 0014 0837     		adds	r7, r7, #8
 689              		.cfi_def_cfa_offset 8
 690 0016 BD46     		mov	sp, r7
 691              		.cfi_def_cfa_register 13
 692              		@ sp needed
 693 0018 80BD     		pop	{r7, pc}
 694              		.cfi_endproc
 695              	.LFE439:
 696              		.size	i2cAcquireBus, .-i2cAcquireBus
 697              		.section	.text.i2cReleaseBus,"ax",%progbits
 698              		.align	1
 699              		.global	i2cReleaseBus
 700              		.syntax unified
 701              		.thumb
 702              		.thumb_func
 703              		.type	i2cReleaseBus, %function
 704              	i2cReleaseBus:
 705              	.LFB440:
 706              		.loc 5 293 37
 707              		.cfi_startproc
 708              		@ args = 0, pretend = 0, frame = 8
 709              		@ frame_needed = 1, uses_anonymous_args = 0
 710 0000 80B5     		push	{r7, lr}
 711              		.cfi_def_cfa_offset 8
 712              		.cfi_offset 7, -8
 713              		.cfi_offset 14, -4
 714 0002 82B0     		sub	sp, sp, #8
 715              		.cfi_def_cfa_offset 16
 716 0004 00AF     		add	r7, sp, #0
 717              		.cfi_def_cfa_register 7
 718 0006 7860     		str	r0, [r7, #4]
 719              		.loc 5 297 3
 720 0008 7B68     		ldr	r3, [r7, #4]
 721 000a 0C33     		adds	r3, r3, #12
 722 000c 1846     		mov	r0, r3
 723 000e FFF7FEFF 		bl	osalMutexUnlock
 724              		.loc 5 298 1
 725 0012 00BF     		nop
 726 0014 0837     		adds	r7, r7, #8
 727              		.cfi_def_cfa_offset 8
 728 0016 BD46     		mov	sp, r7
 729              		.cfi_def_cfa_register 13
 730              		@ sp needed
 731 0018 80BD     		pop	{r7, pc}
 732              		.cfi_endproc
 733              	.LFE440:
 734              		.size	i2cReleaseBus, .-i2cReleaseBus
 735              		.text
 736              	.Letext0:
 737              		.file 6 "c:\\chibistudio\\tools\\gnu tools arm embedded\\11.3 2022.08\\lib\\gcc\\arm-none-eabi\\11
 738              		.file 7 "c:\\chibistudio\\tools\\gnu tools arm embedded\\11.3 2022.08\\arm-none-eabi\\include\\mac
 739              		.file 8 "c:\\chibistudio\\tools\\gnu tools arm embedded\\11.3 2022.08\\arm-none-eabi\\include\\sys
 740              		.file 9 "../../../os/common/ports/ARM-common/chtypes.h"
 741              		.file 10 "../../../os/rt/include/chearly.h"
ARM GAS  C:\Users\DEVELO~1\AppData\Local\Temp\ccHwwtpW.s 			page 14


 742              		.file 11 "../../../os/rt/include/chobjects.h"
 743              		.file 12 "../../../os/rt/include/chrfcu.h"
 744              		.file 13 "../../../os/rt/include/chdebug.h"
 745              		.file 14 "../../../os/rt/include/chtime.h"
 746              		.file 15 "../../../os/rt/include/chlists.h"
 747              		.file 16 "../../../os/rt/include/chtrace.h"
 748              		.file 17 "../../../os/common/ext/ST/STM32H7xx/stm32h743xx.h"
 749              		.file 18 "../../../os/rt/include/chsem.h"
 750              		.file 19 "../../../os/rt/include/chmtx.h"
 751              		.file 20 "../../../os/hal/ports/STM32/LLD/DMAv2/stm32_dma.h"
 752              		.file 21 "../../../os/hal/include/hal_i2c.h"
 753              		.file 22 "../../../os/hal/ports/STM32/LLD/I2Cv3/hal_i2c_lld.h"