ARM GAS  C:\Users\DEVELO~1\AppData\Local\Temp\ccSYtStj.s 			page 1


   1              		.cpu cortex-m7
   2              		.arch armv7e-m
   3              		.fpu softvfp
   4              		.eabi_attribute 20, 1
   5              		.eabi_attribute 21, 1
   6              		.eabi_attribute 23, 3
   7              		.eabi_attribute 24, 1
   8              		.eabi_attribute 25, 1
   9              		.eabi_attribute 26, 1
  10              		.eabi_attribute 30, 6
  11              		.eabi_attribute 34, 1
  12              		.eabi_attribute 18, 4
  13              		.file	"hal_sdram_lld.c"
  14              		.text
  15              	.Ltext0:
  16              		.cfi_sections	.debug_frame
  17              		.section	.text.osalSysPolledDelayX,"ax",%progbits
  18              		.align	1
  19              		.syntax unified
  20              		.thumb
  21              		.thumb_func
  22              		.type	osalSysPolledDelayX, %function
  23              	osalSysPolledDelayX:
  24              	.LFB356:
  25              		.file 1 "../../../os/hal/osal/rt-nil/osal.h"
  26              		.loc 1 653 56
  27              		.cfi_startproc
  28              		@ args = 0, pretend = 0, frame = 8
  29              		@ frame_needed = 1, uses_anonymous_args = 0
  30 0000 80B5     		push	{r7, lr}
  31              		.cfi_def_cfa_offset 8
  32              		.cfi_offset 7, -8
  33              		.cfi_offset 14, -4
  34 0002 82B0     		sub	sp, sp, #8
  35              		.cfi_def_cfa_offset 16
  36 0004 00AF     		add	r7, sp, #0
  37              		.cfi_def_cfa_register 7
  38 0006 7860     		str	r0, [r7, #4]
  39              		.loc 1 655 3
  40 0008 7868     		ldr	r0, [r7, #4]
  41 000a FFF7FEFF 		bl	chSysPolledDelayX
  42              		.loc 1 656 1
  43 000e 00BF     		nop
  44 0010 0837     		adds	r7, r7, #8
  45              		.cfi_def_cfa_offset 8
  46 0012 BD46     		mov	sp, r7
  47              		.cfi_def_cfa_register 13
  48              		@ sp needed
  49 0014 80BD     		pop	{r7, pc}
  50              		.cfi_endproc
  51              	.LFE356:
  52              		.size	osalSysPolledDelayX, .-osalSysPolledDelayX
  53              		.global	SDRAMD1
  54              		.section	.bss.SDRAMD1,"aw",%nobits
  55              		.align	2
  56              		.type	SDRAMD1, %object
  57              		.size	SDRAMD1, 8
ARM GAS  C:\Users\DEVELO~1\AppData\Local\Temp\ccSYtStj.s 			page 2


  58              	SDRAMD1:
  59 0000 00000000 		.space	8
  59      00000000 
  60              		.section	.text.sdram_lld_init_sequence,"ax",%progbits
  61              		.align	1
  62              		.syntax unified
  63              		.thumb
  64              		.thumb_func
  65              		.type	sdram_lld_init_sequence, %function
  66              	sdram_lld_init_sequence:
  67              	.LFB432:
  68              		.file 2 "../../../ChibiOS-Contrib-chibios-21.11.x/os/hal/ports/STM32/LLD/FSMCv1/hal_sdram_lld.c"
  69              		.loc 2 95 62
  70              		.cfi_startproc
  71              		@ args = 0, pretend = 0, frame = 16
  72              		@ frame_needed = 1, uses_anonymous_args = 0
  73 0000 80B5     		push	{r7, lr}
  74              		.cfi_def_cfa_offset 8
  75              		.cfi_offset 7, -8
  76              		.cfi_offset 14, -4
  77 0002 84B0     		sub	sp, sp, #16
  78              		.cfi_def_cfa_offset 24
  79 0004 00AF     		add	r7, sp, #0
  80              		.cfi_def_cfa_register 7
  81 0006 7860     		str	r0, [r7, #4]
  82              		.loc 2 97 12
  83 0008 0023     		movs	r3, #0
  84 000a FB60     		str	r3, [r7, #12]
  85              		.loc 2 100 18
  86 000c FB68     		ldr	r3, [r7, #12]
  87 000e 43F01003 		orr	r3, r3, #16
  88 0012 FB60     		str	r3, [r7, #12]
  89              		.loc 2 110 10
  90 0014 1E4B     		ldr	r3, .L3
  91 0016 5B68     		ldr	r3, [r3, #4]
  92              		.loc 2 110 44
  93 0018 FA68     		ldr	r2, [r7, #12]
  94 001a 42F00102 		orr	r2, r2, #1
  95              		.loc 2 110 24
  96 001e 1A61     		str	r2, [r3, #16]
  97              		.loc 2 113 3
  98 0020 44F62060 		movw	r0, #20000
  99 0024 FFF7FEFF 		bl	osalSysPolledDelayX
 100              		.loc 2 119 10
 101 0028 194B     		ldr	r3, .L3
 102 002a 5B68     		ldr	r3, [r3, #4]
 103              		.loc 2 119 37
 104 002c FA68     		ldr	r2, [r7, #12]
 105 002e 42F00202 		orr	r2, r2, #2
 106              		.loc 2 119 24
 107 0032 1A61     		str	r2, [r3, #16]
 108              		.loc 2 126 12
 109 0034 7B68     		ldr	r3, [r7, #4]
 110 0036 9B68     		ldr	r3, [r3, #8]
 111              		.loc 2 126 20
 112 0038 03F4F072 		and	r2, r3, #480
 113              		.loc 2 125 62
ARM GAS  C:\Users\DEVELO~1\AppData\Local\Temp\ccSYtStj.s 			page 3


 114 003c FB68     		ldr	r3, [r7, #12]
 115 003e 1A43     		orrs	r2, r2, r3
 116              		.loc 2 125 10
 117 0040 134B     		ldr	r3, .L3
 118 0042 5B68     		ldr	r3, [r3, #4]
 119              		.loc 2 125 62
 120 0044 42F00302 		orr	r2, r2, #3
 121              		.loc 2 125 24
 122 0048 1A61     		str	r2, [r3, #16]
 123              		.loc 2 133 12
 124 004a 7B68     		ldr	r3, [r7, #4]
 125 004c 9B68     		ldr	r3, [r3, #8]
 126              		.loc 2 133 20
 127 004e 03F4F072 		and	r2, r3, #480
 128              		.loc 2 132 62
 129 0052 FB68     		ldr	r3, [r7, #12]
 130 0054 1A43     		orrs	r2, r2, r3
 131              		.loc 2 132 10
 132 0056 0E4B     		ldr	r3, .L3
 133 0058 5B68     		ldr	r3, [r3, #4]
 134              		.loc 2 132 62
 135 005a 42F00302 		orr	r2, r2, #3
 136              		.loc 2 132 24
 137 005e 1A61     		str	r2, [r3, #16]
 138              		.loc 2 140 12
 139 0060 7B68     		ldr	r3, [r7, #4]
 140 0062 9A68     		ldr	r2, [r3, #8]
 141              		.loc 2 140 20
 142 0064 0B4B     		ldr	r3, .L3+4
 143 0066 1340     		ands	r3, r3, r2
 144              		.loc 2 139 59
 145 0068 FA68     		ldr	r2, [r7, #12]
 146 006a 1A43     		orrs	r2, r2, r3
 147              		.loc 2 139 10
 148 006c 084B     		ldr	r3, .L3
 149 006e 5B68     		ldr	r3, [r3, #4]
 150              		.loc 2 139 59
 151 0070 42F00402 		orr	r2, r2, #4
 152              		.loc 2 139 24
 153 0074 1A61     		str	r2, [r3, #16]
 154              		.loc 2 146 30
 155 0076 7B68     		ldr	r3, [r7, #4]
 156 0078 D968     		ldr	r1, [r3, #12]
 157              		.loc 2 146 10
 158 007a 054B     		ldr	r3, .L3
 159 007c 5A68     		ldr	r2, [r3, #4]
 160              		.loc 2 146 38
 161 007e 43F6FE73 		movw	r3, #16382
 162 0082 0B40     		ands	r3, r3, r1
 163              		.loc 2 146 24
 164 0084 5361     		str	r3, [r2, #20]
 165              		.loc 2 151 1
 166 0086 00BF     		nop
 167 0088 1037     		adds	r7, r7, #16
 168              		.cfi_def_cfa_offset 8
 169 008a BD46     		mov	sp, r7
 170              		.cfi_def_cfa_register 13
ARM GAS  C:\Users\DEVELO~1\AppData\Local\Temp\ccSYtStj.s 			page 4


 171              		@ sp needed
 172 008c 80BD     		pop	{r7, pc}
 173              	.L4:
 174 008e 00BF     		.align	2
 175              	.L3:
 176 0090 00000000 		.word	SDRAMD1
 177 0094 00FE3F00 		.word	4193792
 178              		.cfi_endproc
 179              	.LFE432:
 180              		.size	sdram_lld_init_sequence, .-sdram_lld_init_sequence
 181              		.section	.text.sdram_lld_start,"ax",%progbits
 182              		.align	1
 183              		.global	sdram_lld_start
 184              		.syntax unified
 185              		.thumb
 186              		.thumb_func
 187              		.type	sdram_lld_start, %function
 188              	sdram_lld_start:
 189              	.LFB433:
 190              		.loc 2 162 1
 191              		.cfi_startproc
 192              		@ args = 0, pretend = 0, frame = 8
 193              		@ frame_needed = 1, uses_anonymous_args = 0
 194 0000 80B5     		push	{r7, lr}
 195              		.cfi_def_cfa_offset 8
 196              		.cfi_offset 7, -8
 197              		.cfi_offset 14, -4
 198 0002 82B0     		sub	sp, sp, #8
 199              		.cfi_def_cfa_offset 16
 200 0004 00AF     		add	r7, sp, #0
 201              		.cfi_def_cfa_register 7
 202 0006 7860     		str	r0, [r7, #4]
 203 0008 3960     		str	r1, [r7]
 204              		.loc 2 163 9
 205 000a 7B68     		ldr	r3, [r7, #4]
 206 000c 5B68     		ldr	r3, [r3, #4]
 207              		.loc 2 163 30
 208 000e 3A68     		ldr	r2, [r7]
 209 0010 1268     		ldr	r2, [r2]
 210              		.loc 2 163 24
 211 0012 1A60     		str	r2, [r3]
 212              		.loc 2 164 9
 213 0014 7B68     		ldr	r3, [r7, #4]
 214 0016 5B68     		ldr	r3, [r3, #4]
 215              		.loc 2 164 30
 216 0018 3A68     		ldr	r2, [r7]
 217 001a 5268     		ldr	r2, [r2, #4]
 218              		.loc 2 164 24
 219 001c 9A60     		str	r2, [r3, #8]
 220              		.loc 2 165 9
 221 001e 7B68     		ldr	r3, [r7, #4]
 222 0020 5B68     		ldr	r3, [r3, #4]
 223              		.loc 2 165 30
 224 0022 3A68     		ldr	r2, [r7]
 225 0024 1268     		ldr	r2, [r2]
 226              		.loc 2 165 24
 227 0026 5A60     		str	r2, [r3, #4]
ARM GAS  C:\Users\DEVELO~1\AppData\Local\Temp\ccSYtStj.s 			page 5


 228              		.loc 2 166 9
 229 0028 7B68     		ldr	r3, [r7, #4]
 230 002a 5B68     		ldr	r3, [r3, #4]
 231              		.loc 2 166 30
 232 002c 3A68     		ldr	r2, [r7]
 233 002e 5268     		ldr	r2, [r2, #4]
 234              		.loc 2 166 24
 235 0030 DA60     		str	r2, [r3, #12]
 236              		.loc 2 169 24
 237 0032 064B     		ldr	r3, .L6
 238 0034 1B68     		ldr	r3, [r3]
 239 0036 054A     		ldr	r2, .L6
 240 0038 43F00043 		orr	r3, r3, #-2147483648
 241 003c 1360     		str	r3, [r2]
 242              		.loc 2 172 3
 243 003e 3868     		ldr	r0, [r7]
 244 0040 FFF7FEFF 		bl	sdram_lld_init_sequence
 245              		.loc 2 173 1
 246 0044 00BF     		nop
 247 0046 0837     		adds	r7, r7, #8
 248              		.cfi_def_cfa_offset 8
 249 0048 BD46     		mov	sp, r7
 250              		.cfi_def_cfa_register 13
 251              		@ sp needed
 252 004a 80BD     		pop	{r7, pc}
 253              	.L7:
 254              		.align	2
 255              	.L6:
 256 004c 00400052 		.word	1375748096
 257              		.cfi_endproc
 258              	.LFE433:
 259              		.size	sdram_lld_start, .-sdram_lld_start
 260              		.section	.text.sdram_lld_stop,"ax",%progbits
 261              		.align	1
 262              		.global	sdram_lld_stop
 263              		.syntax unified
 264              		.thumb
 265              		.thumb_func
 266              		.type	sdram_lld_stop, %function
 267              	sdram_lld_stop:
 268              	.LFB434:
 269              		.loc 2 175 42
 270              		.cfi_startproc
 271              		@ args = 0, pretend = 0, frame = 16
 272              		@ frame_needed = 1, uses_anonymous_args = 0
 273              		@ link register save eliminated.
 274 0000 80B4     		push	{r7}
 275              		.cfi_def_cfa_offset 4
 276              		.cfi_offset 7, -4
 277 0002 85B0     		sub	sp, sp, #20
 278              		.cfi_def_cfa_offset 24
 279 0004 00AF     		add	r7, sp, #0
 280              		.cfi_def_cfa_register 7
 281 0006 7860     		str	r0, [r7, #4]
 282              		.loc 2 176 12
 283 0008 0023     		movs	r3, #0
 284 000a FB60     		str	r3, [r7, #12]
ARM GAS  C:\Users\DEVELO~1\AppData\Local\Temp\ccSYtStj.s 			page 6


 285              		.loc 2 179 18
 286 000c FB68     		ldr	r3, [r7, #12]
 287 000e 43F01003 		orr	r3, r3, #16
 288 0012 FB60     		str	r3, [r7, #12]
 289              		.loc 2 185 9
 290 0014 7B68     		ldr	r3, [r7, #4]
 291 0016 5B68     		ldr	r3, [r3, #4]
 292              		.loc 2 185 43
 293 0018 FA68     		ldr	r2, [r7, #12]
 294 001a 42F00602 		orr	r2, r2, #6
 295              		.loc 2 185 24
 296 001e 1A61     		str	r2, [r3, #16]
 297              		.loc 2 186 1
 298 0020 00BF     		nop
 299 0022 1437     		adds	r7, r7, #20
 300              		.cfi_def_cfa_offset 4
 301 0024 BD46     		mov	sp, r7
 302              		.cfi_def_cfa_register 13
 303              		@ sp needed
 304 0026 80BC     		pop	{r7}
 305              		.cfi_restore 7
 306              		.cfi_def_cfa_offset 0
 307 0028 7047     		bx	lr
 308              		.cfi_endproc
 309              	.LFE434:
 310              		.size	sdram_lld_stop, .-sdram_lld_stop
 311              		.text
 312              	.Letext0:
 313              		.file 3 "c:\\chibistudio\\tools\\gnu tools arm embedded\\11.3 2022.08\\arm-none-eabi\\include\\mac
 314              		.file 4 "c:\\chibistudio\\tools\\gnu tools arm embedded\\11.3 2022.08\\arm-none-eabi\\include\\sys
 315              		.file 5 "../../../os/common/ports/ARM-common/chtypes.h"
 316              		.file 6 "../../../os/rt/include/chearly.h"
 317              		.file 7 "../../../os/common/ext/ST/STM32H7xx/stm32h743xx.h"
 318              		.file 8 "../../../ChibiOS-Contrib-chibios-21.11.x/os/hal/include/hal_fsmc.h"
 319              		.file 9 "../../../ChibiOS-Contrib-chibios-21.11.x/os/hal/include/hal_sdram.h"
 320              		.file 10 "../../../os/rt/include/chsys.h"