ARM GAS  C:\Users\DEVELO~1\AppData\Local\Temp\cc43K8rk.s 			page 1


   1              		.cpu cortex-m7
   2              		.arch armv7e-m
   3              		.fpu softvfp
   4              		.eabi_attribute 20, 1
   5              		.eabi_attribute 21, 1
   6              		.eabi_attribute 23, 3
   7              		.eabi_attribute 24, 1
   8              		.eabi_attribute 25, 1
   9              		.eabi_attribute 26, 1
  10              		.eabi_attribute 30, 6
  11              		.eabi_attribute 34, 1
  12              		.eabi_attribute 18, 4
  13              		.file	"hal_lld.c"
  14              		.text
  15              	.Ltext0:
  16              		.cfi_sections	.debug_frame
  17              		.section	.text.SCB_CleanInvalidateDCache,"ax",%progbits
  18              		.align	1
  19              		.syntax unified
  20              		.thumb
  21              		.thumb_func
  22              		.type	SCB_CleanInvalidateDCache, %function
  23              	SCB_CleanInvalidateDCache:
  24              	.LFB173:
  25              		.file 1 "../../../os/common/ext/ARM/CMSIS/Core/Include/core_cm7.h"
  26              		.loc 1 2428 1
  27              		.cfi_startproc
  28              		@ args = 0, pretend = 0, frame = 16
  29              		@ frame_needed = 1, uses_anonymous_args = 0
  30              		@ link register save eliminated.
  31 0000 80B4     		push	{r7}
  32              		.cfi_def_cfa_offset 4
  33              		.cfi_offset 7, -4
  34 0002 85B0     		sub	sp, sp, #20
  35              		.cfi_def_cfa_offset 24
  36 0004 00AF     		add	r7, sp, #0
  37              		.cfi_def_cfa_register 7
  38              		.loc 1 2434 8
  39 0006 1A4B     		ldr	r3, .L4
  40              		.loc 1 2434 17
  41 0008 0022     		movs	r2, #0
  42 000a C3F88420 		str	r2, [r3, #132]
  43              	.LBB8:
  44              	.LBB9:
  45              		.file 2 "../../../os/common/ext/ARM/CMSIS/Core/Include/cmsis_gcc.h"
  46              		.loc 2 879 3
  47              		.syntax unified
  48              	@ 879 "../../../os/common/ext/ARM/CMSIS/Core/Include/cmsis_gcc.h" 1
  49 000e BFF34F8F 		dsb 0xF
  50              	@ 0 "" 2
  51              		.loc 2 880 1
  52              		.thumb
  53              		.syntax unified
  54 0012 00BF     		nop
  55              	.LBE9:
  56              	.LBE8:
  57              		.loc 1 2437 17
ARM GAS  C:\Users\DEVELO~1\AppData\Local\Temp\cc43K8rk.s 			page 2


  58 0014 164B     		ldr	r3, .L4
  59              		.loc 1 2437 12
  60 0016 D3F88030 		ldr	r3, [r3, #128]
  61 001a 7B60     		str	r3, [r7, #4]
  62              		.loc 1 2440 12
  63 001c 7B68     		ldr	r3, [r7, #4]
  64 001e 5B0B     		lsrs	r3, r3, #13
  65              		.loc 1 2440 10
  66 0020 C3F30E03 		ubfx	r3, r3, #0, #15
  67 0024 FB60     		str	r3, [r7, #12]
  68              	.L3:
  69              		.loc 1 2442 14
  70 0026 7B68     		ldr	r3, [r7, #4]
  71 0028 DB08     		lsrs	r3, r3, #3
  72              		.loc 1 2442 12
  73 002a C3F30903 		ubfx	r3, r3, #0, #10
  74 002e BB60     		str	r3, [r7, #8]
  75              	.L2:
  76              		.loc 1 2444 31 discriminator 1
  77 0030 FB68     		ldr	r3, [r7, #12]
  78 0032 5A01     		lsls	r2, r3, #5
  79              		.loc 1 2444 54 discriminator 1
  80 0034 43F6E073 		movw	r3, #16352
  81 0038 1340     		ands	r3, r3, r2
  82              		.loc 1 2445 31 discriminator 1
  83 003a BA68     		ldr	r2, [r7, #8]
  84 003c 9207     		lsls	r2, r2, #30
  85              		.loc 1 2444 12 discriminator 1
  86 003e 0C49     		ldr	r1, .L4
  87              		.loc 1 2444 76 discriminator 1
  88 0040 1343     		orrs	r3, r3, r2
  89              		.loc 1 2444 21 discriminator 1
  90 0042 C1F87432 		str	r3, [r1, #628]
  91              		.loc 1 2449 20 discriminator 1
  92 0046 BB68     		ldr	r3, [r7, #8]
  93 0048 5A1E     		subs	r2, r3, #1
  94 004a BA60     		str	r2, [r7, #8]
  95              		.loc 1 2449 23 discriminator 1
  96 004c 002B     		cmp	r3, #0
  97 004e EFD1     		bne	.L2
  98              		.loc 1 2450 17
  99 0050 FB68     		ldr	r3, [r7, #12]
 100 0052 5A1E     		subs	r2, r3, #1
 101 0054 FA60     		str	r2, [r7, #12]
 102              		.loc 1 2450 20
 103 0056 002B     		cmp	r3, #0
 104 0058 E5D1     		bne	.L3
 105              	.LBB10:
 106              	.LBB11:
 107              		.loc 2 879 3
 108              		.syntax unified
 109              	@ 879 "../../../os/common/ext/ARM/CMSIS/Core/Include/cmsis_gcc.h" 1
 110 005a BFF34F8F 		dsb 0xF
 111              	@ 0 "" 2
 112              		.loc 2 880 1
 113              		.thumb
 114              		.syntax unified
ARM GAS  C:\Users\DEVELO~1\AppData\Local\Temp\cc43K8rk.s 			page 3


 115 005e 00BF     		nop
 116              	.LBE11:
 117              	.LBE10:
 118              	.LBB12:
 119              	.LBB13:
 120              		.loc 2 868 3
 121              		.syntax unified
 122              	@ 868 "../../../os/common/ext/ARM/CMSIS/Core/Include/cmsis_gcc.h" 1
 123 0060 BFF36F8F 		isb 0xF
 124              	@ 0 "" 2
 125              		.loc 2 869 1
 126              		.thumb
 127              		.syntax unified
 128 0064 00BF     		nop
 129              	.LBE13:
 130              	.LBE12:
 131              		.loc 1 2455 1
 132 0066 00BF     		nop
 133 0068 1437     		adds	r7, r7, #20
 134              		.cfi_def_cfa_offset 4
 135 006a BD46     		mov	sp, r7
 136              		.cfi_def_cfa_register 13
 137              		@ sp needed
 138 006c 80BC     		pop	{r7}
 139              		.cfi_restore 7
 140              		.cfi_def_cfa_offset 0
 141 006e 7047     		bx	lr
 142              	.L5:
 143              		.align	2
 144              	.L4:
 145 0070 00ED00E0 		.word	-536810240
 146              		.cfi_endproc
 147              	.LFE173:
 148              		.size	SCB_CleanInvalidateDCache, .-SCB_CleanInvalidateDCache
 149              		.section	.text.__rccResetAPB1L,"ax",%progbits
 150              		.align	1
 151              		.syntax unified
 152              		.thumb
 153              		.thumb_func
 154              		.type	__rccResetAPB1L, %function
 155              	__rccResetAPB1L:
 156              	.LFB379:
 157              		.file 3 "../../../os/hal/ports/STM32/STM32H7xx/stm32_rcc.h"
 158              		.loc 3 57 53
 159              		.cfi_startproc
 160              		@ args = 0, pretend = 0, frame = 8
 161              		@ frame_needed = 1, uses_anonymous_args = 0
 162              		@ link register save eliminated.
 163 0000 80B4     		push	{r7}
 164              		.cfi_def_cfa_offset 4
 165              		.cfi_offset 7, -4
 166 0002 83B0     		sub	sp, sp, #12
 167              		.cfi_def_cfa_offset 16
 168 0004 00AF     		add	r7, sp, #0
 169              		.cfi_def_cfa_register 7
 170 0006 7860     		str	r0, [r7, #4]
 171              		.loc 3 60 18
ARM GAS  C:\Users\DEVELO~1\AppData\Local\Temp\cc43K8rk.s 			page 4


 172 0008 0C4B     		ldr	r3, .L7
 173 000a D3F89020 		ldr	r2, [r3, #144]
 174 000e 0B49     		ldr	r1, .L7
 175 0010 7B68     		ldr	r3, [r7, #4]
 176 0012 1343     		orrs	r3, r3, r2
 177 0014 C1F89030 		str	r3, [r1, #144]
 178              		.loc 3 61 18
 179 0018 084B     		ldr	r3, .L7
 180 001a D3F89020 		ldr	r2, [r3, #144]
 181              		.loc 3 61 21
 182 001e 7B68     		ldr	r3, [r7, #4]
 183 0020 DB43     		mvns	r3, r3
 184              		.loc 3 61 18
 185 0022 0649     		ldr	r1, .L7
 186 0024 1340     		ands	r3, r3, r2
 187 0026 C1F89030 		str	r3, [r1, #144]
 188              		.loc 3 62 12
 189 002a 044B     		ldr	r3, .L7
 190              		.loc 3 62 3
 191 002c D3F89030 		ldr	r3, [r3, #144]
 192              		.loc 3 63 1
 193 0030 00BF     		nop
 194 0032 0C37     		adds	r7, r7, #12
 195              		.cfi_def_cfa_offset 4
 196 0034 BD46     		mov	sp, r7
 197              		.cfi_def_cfa_register 13
 198              		@ sp needed
 199 0036 80BC     		pop	{r7}
 200              		.cfi_restore 7
 201              		.cfi_def_cfa_offset 0
 202 0038 7047     		bx	lr
 203              	.L8:
 204 003a 00BF     		.align	2
 205              	.L7:
 206 003c 00440258 		.word	1476543488
 207              		.cfi_endproc
 208              	.LFE379:
 209              		.size	__rccResetAPB1L, .-__rccResetAPB1L
 210              		.section	.text.__rccResetAPB1H,"ax",%progbits
 211              		.align	1
 212              		.syntax unified
 213              		.thumb
 214              		.thumb_func
 215              		.type	__rccResetAPB1H, %function
 216              	__rccResetAPB1H:
 217              	.LFB380:
 218              		.loc 3 65 53
 219              		.cfi_startproc
 220              		@ args = 0, pretend = 0, frame = 8
 221              		@ frame_needed = 1, uses_anonymous_args = 0
 222              		@ link register save eliminated.
 223 0000 80B4     		push	{r7}
 224              		.cfi_def_cfa_offset 4
 225              		.cfi_offset 7, -4
 226 0002 83B0     		sub	sp, sp, #12
 227              		.cfi_def_cfa_offset 16
 228 0004 00AF     		add	r7, sp, #0
ARM GAS  C:\Users\DEVELO~1\AppData\Local\Temp\cc43K8rk.s 			page 5


 229              		.cfi_def_cfa_register 7
 230 0006 7860     		str	r0, [r7, #4]
 231              		.loc 3 68 18
 232 0008 0C4B     		ldr	r3, .L10
 233 000a D3F89420 		ldr	r2, [r3, #148]
 234 000e 0B49     		ldr	r1, .L10
 235 0010 7B68     		ldr	r3, [r7, #4]
 236 0012 1343     		orrs	r3, r3, r2
 237 0014 C1F89430 		str	r3, [r1, #148]
 238              		.loc 3 69 18
 239 0018 084B     		ldr	r3, .L10
 240 001a D3F89420 		ldr	r2, [r3, #148]
 241              		.loc 3 69 21
 242 001e 7B68     		ldr	r3, [r7, #4]
 243 0020 DB43     		mvns	r3, r3
 244              		.loc 3 69 18
 245 0022 0649     		ldr	r1, .L10
 246 0024 1340     		ands	r3, r3, r2
 247 0026 C1F89430 		str	r3, [r1, #148]
 248              		.loc 3 70 12
 249 002a 044B     		ldr	r3, .L10
 250              		.loc 3 70 3
 251 002c D3F89430 		ldr	r3, [r3, #148]
 252              		.loc 3 71 1
 253 0030 00BF     		nop
 254 0032 0C37     		adds	r7, r7, #12
 255              		.cfi_def_cfa_offset 4
 256 0034 BD46     		mov	sp, r7
 257              		.cfi_def_cfa_register 13
 258              		@ sp needed
 259 0036 80BC     		pop	{r7}
 260              		.cfi_restore 7
 261              		.cfi_def_cfa_offset 0
 262 0038 7047     		bx	lr
 263              	.L11:
 264 003a 00BF     		.align	2
 265              	.L10:
 266 003c 00440258 		.word	1476543488
 267              		.cfi_endproc
 268              	.LFE380:
 269              		.size	__rccResetAPB1H, .-__rccResetAPB1H
 270              		.section	.text.__rccResetAPB2,"ax",%progbits
 271              		.align	1
 272              		.syntax unified
 273              		.thumb
 274              		.thumb_func
 275              		.type	__rccResetAPB2, %function
 276              	__rccResetAPB2:
 277              	.LFB381:
 278              		.loc 3 73 52
 279              		.cfi_startproc
 280              		@ args = 0, pretend = 0, frame = 8
 281              		@ frame_needed = 1, uses_anonymous_args = 0
 282              		@ link register save eliminated.
 283 0000 80B4     		push	{r7}
 284              		.cfi_def_cfa_offset 4
 285              		.cfi_offset 7, -4
ARM GAS  C:\Users\DEVELO~1\AppData\Local\Temp\cc43K8rk.s 			page 6


 286 0002 83B0     		sub	sp, sp, #12
 287              		.cfi_def_cfa_offset 16
 288 0004 00AF     		add	r7, sp, #0
 289              		.cfi_def_cfa_register 7
 290 0006 7860     		str	r0, [r7, #4]
 291              		.loc 3 76 17
 292 0008 0C4B     		ldr	r3, .L13
 293 000a D3F89820 		ldr	r2, [r3, #152]
 294 000e 0B49     		ldr	r1, .L13
 295 0010 7B68     		ldr	r3, [r7, #4]
 296 0012 1343     		orrs	r3, r3, r2
 297 0014 C1F89830 		str	r3, [r1, #152]
 298              		.loc 3 77 17
 299 0018 084B     		ldr	r3, .L13
 300 001a D3F89820 		ldr	r2, [r3, #152]
 301              		.loc 3 77 20
 302 001e 7B68     		ldr	r3, [r7, #4]
 303 0020 DB43     		mvns	r3, r3
 304              		.loc 3 77 17
 305 0022 0649     		ldr	r1, .L13
 306 0024 1340     		ands	r3, r3, r2
 307 0026 C1F89830 		str	r3, [r1, #152]
 308              		.loc 3 78 12
 309 002a 044B     		ldr	r3, .L13
 310              		.loc 3 78 3
 311 002c D3F89830 		ldr	r3, [r3, #152]
 312              		.loc 3 79 1
 313 0030 00BF     		nop
 314 0032 0C37     		adds	r7, r7, #12
 315              		.cfi_def_cfa_offset 4
 316 0034 BD46     		mov	sp, r7
 317              		.cfi_def_cfa_register 13
 318              		@ sp needed
 319 0036 80BC     		pop	{r7}
 320              		.cfi_restore 7
 321              		.cfi_def_cfa_offset 0
 322 0038 7047     		bx	lr
 323              	.L14:
 324 003a 00BF     		.align	2
 325              	.L13:
 326 003c 00440258 		.word	1476543488
 327              		.cfi_endproc
 328              	.LFE381:
 329              		.size	__rccResetAPB2, .-__rccResetAPB2
 330              		.section	.text.__rccResetAPB3,"ax",%progbits
 331              		.align	1
 332              		.syntax unified
 333              		.thumb
 334              		.thumb_func
 335              		.type	__rccResetAPB3, %function
 336              	__rccResetAPB3:
 337              	.LFB382:
 338              		.loc 3 81 52
 339              		.cfi_startproc
 340              		@ args = 0, pretend = 0, frame = 8
 341              		@ frame_needed = 1, uses_anonymous_args = 0
 342              		@ link register save eliminated.
ARM GAS  C:\Users\DEVELO~1\AppData\Local\Temp\cc43K8rk.s 			page 7


 343 0000 80B4     		push	{r7}
 344              		.cfi_def_cfa_offset 4
 345              		.cfi_offset 7, -4
 346 0002 83B0     		sub	sp, sp, #12
 347              		.cfi_def_cfa_offset 16
 348 0004 00AF     		add	r7, sp, #0
 349              		.cfi_def_cfa_register 7
 350 0006 7860     		str	r0, [r7, #4]
 351              		.loc 3 84 17
 352 0008 0C4B     		ldr	r3, .L16
 353 000a D3F88C20 		ldr	r2, [r3, #140]
 354 000e 0B49     		ldr	r1, .L16
 355 0010 7B68     		ldr	r3, [r7, #4]
 356 0012 1343     		orrs	r3, r3, r2
 357 0014 C1F88C30 		str	r3, [r1, #140]
 358              		.loc 3 85 17
 359 0018 084B     		ldr	r3, .L16
 360 001a D3F88C20 		ldr	r2, [r3, #140]
 361              		.loc 3 85 20
 362 001e 7B68     		ldr	r3, [r7, #4]
 363 0020 DB43     		mvns	r3, r3
 364              		.loc 3 85 17
 365 0022 0649     		ldr	r1, .L16
 366 0024 1340     		ands	r3, r3, r2
 367 0026 C1F88C30 		str	r3, [r1, #140]
 368              		.loc 3 86 12
 369 002a 044B     		ldr	r3, .L16
 370              		.loc 3 86 3
 371 002c D3F88C30 		ldr	r3, [r3, #140]
 372              		.loc 3 87 1
 373 0030 00BF     		nop
 374 0032 0C37     		adds	r7, r7, #12
 375              		.cfi_def_cfa_offset 4
 376 0034 BD46     		mov	sp, r7
 377              		.cfi_def_cfa_register 13
 378              		@ sp needed
 379 0036 80BC     		pop	{r7}
 380              		.cfi_restore 7
 381              		.cfi_def_cfa_offset 0
 382 0038 7047     		bx	lr
 383              	.L17:
 384 003a 00BF     		.align	2
 385              	.L16:
 386 003c 00440258 		.word	1476543488
 387              		.cfi_endproc
 388              	.LFE382:
 389              		.size	__rccResetAPB3, .-__rccResetAPB3
 390              		.section	.text.__rccResetAPB4,"ax",%progbits
 391              		.align	1
 392              		.syntax unified
 393              		.thumb
 394              		.thumb_func
 395              		.type	__rccResetAPB4, %function
 396              	__rccResetAPB4:
 397              	.LFB383:
 398              		.loc 3 89 52
 399              		.cfi_startproc
ARM GAS  C:\Users\DEVELO~1\AppData\Local\Temp\cc43K8rk.s 			page 8


 400              		@ args = 0, pretend = 0, frame = 8
 401              		@ frame_needed = 1, uses_anonymous_args = 0
 402              		@ link register save eliminated.
 403 0000 80B4     		push	{r7}
 404              		.cfi_def_cfa_offset 4
 405              		.cfi_offset 7, -4
 406 0002 83B0     		sub	sp, sp, #12
 407              		.cfi_def_cfa_offset 16
 408 0004 00AF     		add	r7, sp, #0
 409              		.cfi_def_cfa_register 7
 410 0006 7860     		str	r0, [r7, #4]
 411              		.loc 3 92 17
 412 0008 0C4B     		ldr	r3, .L19
 413 000a D3F89C20 		ldr	r2, [r3, #156]
 414 000e 0B49     		ldr	r1, .L19
 415 0010 7B68     		ldr	r3, [r7, #4]
 416 0012 1343     		orrs	r3, r3, r2
 417 0014 C1F89C30 		str	r3, [r1, #156]
 418              		.loc 3 93 17
 419 0018 084B     		ldr	r3, .L19
 420 001a D3F89C20 		ldr	r2, [r3, #156]
 421              		.loc 3 93 20
 422 001e 7B68     		ldr	r3, [r7, #4]
 423 0020 DB43     		mvns	r3, r3
 424              		.loc 3 93 17
 425 0022 0649     		ldr	r1, .L19
 426 0024 1340     		ands	r3, r3, r2
 427 0026 C1F89C30 		str	r3, [r1, #156]
 428              		.loc 3 94 12
 429 002a 044B     		ldr	r3, .L19
 430              		.loc 3 94 3
 431 002c D3F89C30 		ldr	r3, [r3, #156]
 432              		.loc 3 95 1
 433 0030 00BF     		nop
 434 0032 0C37     		adds	r7, r7, #12
 435              		.cfi_def_cfa_offset 4
 436 0034 BD46     		mov	sp, r7
 437              		.cfi_def_cfa_register 13
 438              		@ sp needed
 439 0036 80BC     		pop	{r7}
 440              		.cfi_restore 7
 441              		.cfi_def_cfa_offset 0
 442 0038 7047     		bx	lr
 443              	.L20:
 444 003a 00BF     		.align	2
 445              	.L19:
 446 003c 00440258 		.word	1476543488
 447              		.cfi_endproc
 448              	.LFE383:
 449              		.size	__rccResetAPB4, .-__rccResetAPB4
 450              		.section	.text.__rccResetAHB1,"ax",%progbits
 451              		.align	1
 452              		.syntax unified
 453              		.thumb
 454              		.thumb_func
 455              		.type	__rccResetAHB1, %function
 456              	__rccResetAHB1:
ARM GAS  C:\Users\DEVELO~1\AppData\Local\Temp\cc43K8rk.s 			page 9


 457              	.LFB384:
 458              		.loc 3 97 52
 459              		.cfi_startproc
 460              		@ args = 0, pretend = 0, frame = 8
 461              		@ frame_needed = 1, uses_anonymous_args = 0
 462              		@ link register save eliminated.
 463 0000 80B4     		push	{r7}
 464              		.cfi_def_cfa_offset 4
 465              		.cfi_offset 7, -4
 466 0002 83B0     		sub	sp, sp, #12
 467              		.cfi_def_cfa_offset 16
 468 0004 00AF     		add	r7, sp, #0
 469              		.cfi_def_cfa_register 7
 470 0006 7860     		str	r0, [r7, #4]
 471              		.loc 3 100 17
 472 0008 0C4B     		ldr	r3, .L22
 473 000a D3F88020 		ldr	r2, [r3, #128]
 474 000e 0B49     		ldr	r1, .L22
 475 0010 7B68     		ldr	r3, [r7, #4]
 476 0012 1343     		orrs	r3, r3, r2
 477 0014 C1F88030 		str	r3, [r1, #128]
 478              		.loc 3 101 17
 479 0018 084B     		ldr	r3, .L22
 480 001a D3F88020 		ldr	r2, [r3, #128]
 481              		.loc 3 101 20
 482 001e 7B68     		ldr	r3, [r7, #4]
 483 0020 DB43     		mvns	r3, r3
 484              		.loc 3 101 17
 485 0022 0649     		ldr	r1, .L22
 486 0024 1340     		ands	r3, r3, r2
 487 0026 C1F88030 		str	r3, [r1, #128]
 488              		.loc 3 102 12
 489 002a 044B     		ldr	r3, .L22
 490              		.loc 3 102 3
 491 002c D3F88030 		ldr	r3, [r3, #128]
 492              		.loc 3 103 1
 493 0030 00BF     		nop
 494 0032 0C37     		adds	r7, r7, #12
 495              		.cfi_def_cfa_offset 4
 496 0034 BD46     		mov	sp, r7
 497              		.cfi_def_cfa_register 13
 498              		@ sp needed
 499 0036 80BC     		pop	{r7}
 500              		.cfi_restore 7
 501              		.cfi_def_cfa_offset 0
 502 0038 7047     		bx	lr
 503              	.L23:
 504 003a 00BF     		.align	2
 505              	.L22:
 506 003c 00440258 		.word	1476543488
 507              		.cfi_endproc
 508              	.LFE384:
 509              		.size	__rccResetAHB1, .-__rccResetAHB1
 510              		.section	.text.__rccResetAHB2,"ax",%progbits
 511              		.align	1
 512              		.syntax unified
 513              		.thumb
ARM GAS  C:\Users\DEVELO~1\AppData\Local\Temp\cc43K8rk.s 			page 10


 514              		.thumb_func
 515              		.type	__rccResetAHB2, %function
 516              	__rccResetAHB2:
 517              	.LFB385:
 518              		.loc 3 105 52
 519              		.cfi_startproc
 520              		@ args = 0, pretend = 0, frame = 8
 521              		@ frame_needed = 1, uses_anonymous_args = 0
 522              		@ link register save eliminated.
 523 0000 80B4     		push	{r7}
 524              		.cfi_def_cfa_offset 4
 525              		.cfi_offset 7, -4
 526 0002 83B0     		sub	sp, sp, #12
 527              		.cfi_def_cfa_offset 16
 528 0004 00AF     		add	r7, sp, #0
 529              		.cfi_def_cfa_register 7
 530 0006 7860     		str	r0, [r7, #4]
 531              		.loc 3 108 17
 532 0008 0C4B     		ldr	r3, .L25
 533 000a D3F88420 		ldr	r2, [r3, #132]
 534 000e 0B49     		ldr	r1, .L25
 535 0010 7B68     		ldr	r3, [r7, #4]
 536 0012 1343     		orrs	r3, r3, r2
 537 0014 C1F88430 		str	r3, [r1, #132]
 538              		.loc 3 109 17
 539 0018 084B     		ldr	r3, .L25
 540 001a D3F88420 		ldr	r2, [r3, #132]
 541              		.loc 3 109 20
 542 001e 7B68     		ldr	r3, [r7, #4]
 543 0020 DB43     		mvns	r3, r3
 544              		.loc 3 109 17
 545 0022 0649     		ldr	r1, .L25
 546 0024 1340     		ands	r3, r3, r2
 547 0026 C1F88430 		str	r3, [r1, #132]
 548              		.loc 3 110 12
 549 002a 044B     		ldr	r3, .L25
 550              		.loc 3 110 3
 551 002c D3F88430 		ldr	r3, [r3, #132]
 552              		.loc 3 111 1
 553 0030 00BF     		nop
 554 0032 0C37     		adds	r7, r7, #12
 555              		.cfi_def_cfa_offset 4
 556 0034 BD46     		mov	sp, r7
 557              		.cfi_def_cfa_register 13
 558              		@ sp needed
 559 0036 80BC     		pop	{r7}
 560              		.cfi_restore 7
 561              		.cfi_def_cfa_offset 0
 562 0038 7047     		bx	lr
 563              	.L26:
 564 003a 00BF     		.align	2
 565              	.L25:
 566 003c 00440258 		.word	1476543488
 567              		.cfi_endproc
 568              	.LFE385:
 569              		.size	__rccResetAHB2, .-__rccResetAHB2
 570              		.section	.text.__rccResetAHB3,"ax",%progbits
ARM GAS  C:\Users\DEVELO~1\AppData\Local\Temp\cc43K8rk.s 			page 11


 571              		.align	1
 572              		.syntax unified
 573              		.thumb
 574              		.thumb_func
 575              		.type	__rccResetAHB3, %function
 576              	__rccResetAHB3:
 577              	.LFB386:
 578              		.loc 3 113 52
 579              		.cfi_startproc
 580              		@ args = 0, pretend = 0, frame = 8
 581              		@ frame_needed = 1, uses_anonymous_args = 0
 582              		@ link register save eliminated.
 583 0000 80B4     		push	{r7}
 584              		.cfi_def_cfa_offset 4
 585              		.cfi_offset 7, -4
 586 0002 83B0     		sub	sp, sp, #12
 587              		.cfi_def_cfa_offset 16
 588 0004 00AF     		add	r7, sp, #0
 589              		.cfi_def_cfa_register 7
 590 0006 7860     		str	r0, [r7, #4]
 591              		.loc 3 116 17
 592 0008 094B     		ldr	r3, .L28
 593 000a DA6F     		ldr	r2, [r3, #124]
 594 000c 0849     		ldr	r1, .L28
 595 000e 7B68     		ldr	r3, [r7, #4]
 596 0010 1343     		orrs	r3, r3, r2
 597 0012 CB67     		str	r3, [r1, #124]
 598              		.loc 3 117 17
 599 0014 064B     		ldr	r3, .L28
 600 0016 DA6F     		ldr	r2, [r3, #124]
 601              		.loc 3 117 20
 602 0018 7B68     		ldr	r3, [r7, #4]
 603 001a DB43     		mvns	r3, r3
 604              		.loc 3 117 17
 605 001c 0449     		ldr	r1, .L28
 606 001e 1340     		ands	r3, r3, r2
 607 0020 CB67     		str	r3, [r1, #124]
 608              		.loc 3 118 12
 609 0022 034B     		ldr	r3, .L28
 610              		.loc 3 118 3
 611 0024 DB6F     		ldr	r3, [r3, #124]
 612              		.loc 3 119 1
 613 0026 00BF     		nop
 614 0028 0C37     		adds	r7, r7, #12
 615              		.cfi_def_cfa_offset 4
 616 002a BD46     		mov	sp, r7
 617              		.cfi_def_cfa_register 13
 618              		@ sp needed
 619 002c 80BC     		pop	{r7}
 620              		.cfi_restore 7
 621              		.cfi_def_cfa_offset 0
 622 002e 7047     		bx	lr
 623              	.L29:
 624              		.align	2
 625              	.L28:
 626 0030 00440258 		.word	1476543488
 627              		.cfi_endproc
ARM GAS  C:\Users\DEVELO~1\AppData\Local\Temp\cc43K8rk.s 			page 12


 628              	.LFE386:
 629              		.size	__rccResetAHB3, .-__rccResetAHB3
 630              		.section	.text.__rccResetAHB4,"ax",%progbits
 631              		.align	1
 632              		.syntax unified
 633              		.thumb
 634              		.thumb_func
 635              		.type	__rccResetAHB4, %function
 636              	__rccResetAHB4:
 637              	.LFB387:
 638              		.loc 3 121 52
 639              		.cfi_startproc
 640              		@ args = 0, pretend = 0, frame = 8
 641              		@ frame_needed = 1, uses_anonymous_args = 0
 642              		@ link register save eliminated.
 643 0000 80B4     		push	{r7}
 644              		.cfi_def_cfa_offset 4
 645              		.cfi_offset 7, -4
 646 0002 83B0     		sub	sp, sp, #12
 647              		.cfi_def_cfa_offset 16
 648 0004 00AF     		add	r7, sp, #0
 649              		.cfi_def_cfa_register 7
 650 0006 7860     		str	r0, [r7, #4]
 651              		.loc 3 124 17
 652 0008 0C4B     		ldr	r3, .L31
 653 000a D3F88820 		ldr	r2, [r3, #136]
 654 000e 0B49     		ldr	r1, .L31
 655 0010 7B68     		ldr	r3, [r7, #4]
 656 0012 1343     		orrs	r3, r3, r2
 657 0014 C1F88830 		str	r3, [r1, #136]
 658              		.loc 3 125 17
 659 0018 084B     		ldr	r3, .L31
 660 001a D3F88820 		ldr	r2, [r3, #136]
 661              		.loc 3 125 20
 662 001e 7B68     		ldr	r3, [r7, #4]
 663 0020 DB43     		mvns	r3, r3
 664              		.loc 3 125 17
 665 0022 0649     		ldr	r1, .L31
 666 0024 1340     		ands	r3, r3, r2
 667 0026 C1F88830 		str	r3, [r1, #136]
 668              		.loc 3 126 12
 669 002a 044B     		ldr	r3, .L31
 670              		.loc 3 126 3
 671 002c D3F88830 		ldr	r3, [r3, #136]
 672              		.loc 3 127 1
 673 0030 00BF     		nop
 674 0032 0C37     		adds	r7, r7, #12
 675              		.cfi_def_cfa_offset 4
 676 0034 BD46     		mov	sp, r7
 677              		.cfi_def_cfa_register 13
 678              		@ sp needed
 679 0036 80BC     		pop	{r7}
 680              		.cfi_restore 7
 681              		.cfi_def_cfa_offset 0
 682 0038 7047     		bx	lr
 683              	.L32:
 684 003a 00BF     		.align	2
ARM GAS  C:\Users\DEVELO~1\AppData\Local\Temp\cc43K8rk.s 			page 13


 685              	.L31:
 686 003c 00440258 		.word	1476543488
 687              		.cfi_endproc
 688              	.LFE387:
 689              		.size	__rccResetAHB4, .-__rccResetAHB4
 690              		.section	.text.rccEnableAPB4,"ax",%progbits
 691              		.align	1
 692              		.syntax unified
 693              		.thumb
 694              		.thumb_func
 695              		.type	rccEnableAPB4, %function
 696              	rccEnableAPB4:
 697              	.LFB400:
 698              		.loc 3 497 60
 699              		.cfi_startproc
 700              		@ args = 0, pretend = 0, frame = 8
 701              		@ frame_needed = 1, uses_anonymous_args = 0
 702              		@ link register save eliminated.
 703 0000 80B4     		push	{r7}
 704              		.cfi_def_cfa_offset 4
 705              		.cfi_offset 7, -4
 706 0002 83B0     		sub	sp, sp, #12
 707              		.cfi_def_cfa_offset 16
 708 0004 00AF     		add	r7, sp, #0
 709              		.cfi_def_cfa_register 7
 710 0006 7860     		str	r0, [r7, #4]
 711 0008 0B46     		mov	r3, r1
 712 000a FB70     		strb	r3, [r7, #3]
 713              		.loc 3 501 19
 714 000c 124B     		ldr	r3, .L36
 715 000e D3F8F420 		ldr	r2, [r3, #244]
 716 0012 1149     		ldr	r1, .L36
 717 0014 7B68     		ldr	r3, [r7, #4]
 718 0016 1343     		orrs	r3, r3, r2
 719 0018 C1F8F430 		str	r3, [r1, #244]
 720              		.loc 3 502 6
 721 001c FB78     		ldrb	r3, [r7, #3]	@ zero_extendqisi2
 722 001e 002B     		cmp	r3, #0
 723 0020 08D0     		beq	.L34
 724              		.loc 3 503 23
 725 0022 0D4B     		ldr	r3, .L36
 726 0024 D3F81C21 		ldr	r2, [r3, #284]
 727 0028 0B49     		ldr	r1, .L36
 728 002a 7B68     		ldr	r3, [r7, #4]
 729 002c 1343     		orrs	r3, r3, r2
 730 002e C1F81C31 		str	r3, [r1, #284]
 731 0032 08E0     		b	.L35
 732              	.L34:
 733              		.loc 3 506 23
 734 0034 084B     		ldr	r3, .L36
 735 0036 D3F81C21 		ldr	r2, [r3, #284]
 736              		.loc 3 506 26
 737 003a 7B68     		ldr	r3, [r7, #4]
 738 003c DB43     		mvns	r3, r3
 739              		.loc 3 506 23
 740 003e 0649     		ldr	r1, .L36
 741 0040 1340     		ands	r3, r3, r2
ARM GAS  C:\Users\DEVELO~1\AppData\Local\Temp\cc43K8rk.s 			page 14


 742 0042 C1F81C31 		str	r3, [r1, #284]
 743              	.L35:
 744              		.loc 3 508 15
 745 0046 044B     		ldr	r3, .L36
 746              		.loc 3 508 3
 747 0048 D3F81C31 		ldr	r3, [r3, #284]
 748              		.loc 3 520 1
 749 004c 00BF     		nop
 750 004e 0C37     		adds	r7, r7, #12
 751              		.cfi_def_cfa_offset 4
 752 0050 BD46     		mov	sp, r7
 753              		.cfi_def_cfa_register 13
 754              		@ sp needed
 755 0052 80BC     		pop	{r7}
 756              		.cfi_restore 7
 757              		.cfi_def_cfa_offset 0
 758 0054 7047     		bx	lr
 759              	.L37:
 760 0056 00BF     		.align	2
 761              	.L36:
 762 0058 00440258 		.word	1476543488
 763              		.cfi_endproc
 764              	.LFE400:
 765              		.size	rccEnableAPB4, .-rccEnableAPB4
 766              		.section	.text.rccEnableAHB2,"ax",%progbits
 767              		.align	1
 768              		.syntax unified
 769              		.thumb
 770              		.thumb_func
 771              		.type	rccEnableAHB2, %function
 772              	rccEnableAHB2:
 773              	.LFB406:
 774              		.loc 3 675 60
 775              		.cfi_startproc
 776              		@ args = 0, pretend = 0, frame = 8
 777              		@ frame_needed = 1, uses_anonymous_args = 0
 778              		@ link register save eliminated.
 779 0000 80B4     		push	{r7}
 780              		.cfi_def_cfa_offset 4
 781              		.cfi_offset 7, -4
 782 0002 83B0     		sub	sp, sp, #12
 783              		.cfi_def_cfa_offset 16
 784 0004 00AF     		add	r7, sp, #0
 785              		.cfi_def_cfa_register 7
 786 0006 7860     		str	r0, [r7, #4]
 787 0008 0B46     		mov	r3, r1
 788 000a FB70     		strb	r3, [r7, #3]
 789              		.loc 3 679 19
 790 000c 124B     		ldr	r3, .L41
 791 000e D3F8DC20 		ldr	r2, [r3, #220]
 792 0012 1149     		ldr	r1, .L41
 793 0014 7B68     		ldr	r3, [r7, #4]
 794 0016 1343     		orrs	r3, r3, r2
 795 0018 C1F8DC30 		str	r3, [r1, #220]
 796              		.loc 3 680 6
 797 001c FB78     		ldrb	r3, [r7, #3]	@ zero_extendqisi2
 798 001e 002B     		cmp	r3, #0
ARM GAS  C:\Users\DEVELO~1\AppData\Local\Temp\cc43K8rk.s 			page 15


 799 0020 08D0     		beq	.L39
 800              		.loc 3 681 23
 801 0022 0D4B     		ldr	r3, .L41
 802 0024 D3F80421 		ldr	r2, [r3, #260]
 803 0028 0B49     		ldr	r1, .L41
 804 002a 7B68     		ldr	r3, [r7, #4]
 805 002c 1343     		orrs	r3, r3, r2
 806 002e C1F80431 		str	r3, [r1, #260]
 807 0032 08E0     		b	.L40
 808              	.L39:
 809              		.loc 3 684 23
 810 0034 084B     		ldr	r3, .L41
 811 0036 D3F80421 		ldr	r2, [r3, #260]
 812              		.loc 3 684 26
 813 003a 7B68     		ldr	r3, [r7, #4]
 814 003c DB43     		mvns	r3, r3
 815              		.loc 3 684 23
 816 003e 0649     		ldr	r1, .L41
 817 0040 1340     		ands	r3, r3, r2
 818 0042 C1F80431 		str	r3, [r1, #260]
 819              	.L40:
 820              		.loc 3 686 15
 821 0046 044B     		ldr	r3, .L41
 822              		.loc 3 686 3
 823 0048 D3F80431 		ldr	r3, [r3, #260]
 824              		.loc 3 698 1
 825 004c 00BF     		nop
 826 004e 0C37     		adds	r7, r7, #12
 827              		.cfi_def_cfa_offset 4
 828 0050 BD46     		mov	sp, r7
 829              		.cfi_def_cfa_register 13
 830              		@ sp needed
 831 0052 80BC     		pop	{r7}
 832              		.cfi_restore 7
 833              		.cfi_def_cfa_offset 0
 834 0054 7047     		bx	lr
 835              	.L42:
 836 0056 00BF     		.align	2
 837              	.L41:
 838 0058 00440258 		.word	1476543488
 839              		.cfi_endproc
 840              	.LFE406:
 841              		.size	rccEnableAHB2, .-rccEnableAHB2
 842              		.global	SystemCoreClock
 843              		.section	.data.SystemCoreClock,"aw"
 844              		.align	2
 845              		.type	SystemCoreClock, %object
 846              		.size	SystemCoreClock, 4
 847              	SystemCoreClock:
 848 0000 0084D717 		.word	400000000
 849              		.section	.text.init_bkp_domain,"ax",%progbits
 850              		.align	1
 851              		.syntax unified
 852              		.thumb
 853              		.thumb_func
 854              		.type	init_bkp_domain, %function
 855              	init_bkp_domain:
ARM GAS  C:\Users\DEVELO~1\AppData\Local\Temp\cc43K8rk.s 			page 16


 856              	.LFB432:
 857              		.file 4 "../../../os/hal/ports/STM32/STM32H7xx/hal_lld.c"
 858              		.loc 4 58 42
 859              		.cfi_startproc
 860              		@ args = 0, pretend = 0, frame = 0
 861              		@ frame_needed = 1, uses_anonymous_args = 0
 862              		@ link register save eliminated.
 863 0000 80B4     		push	{r7}
 864              		.cfi_def_cfa_offset 4
 865              		.cfi_offset 7, -4
 866 0002 00AF     		add	r7, sp, #0
 867              		.cfi_def_cfa_register 7
 868              		.loc 4 61 12
 869 0004 0B4B     		ldr	r3, .L46
 870 0006 1B68     		ldr	r3, [r3]
 871 0008 0A4A     		ldr	r2, .L46
 872 000a 43F48073 		orr	r3, r3, #256
 873 000e 1360     		str	r3, [r2]
 874              		.loc 4 64 11
 875 0010 094B     		ldr	r3, .L46+4
 876 0012 1B6F     		ldr	r3, [r3, #112]
 877              		.loc 4 64 18
 878 0014 03F44073 		and	r3, r3, #768
 879              		.loc 4 64 6
 880 0018 B3F5007F 		cmp	r3, #512
 881 001c 06D0     		beq	.L45
 882              		.loc 4 66 8
 883 001e 064B     		ldr	r3, .L46+4
 884              		.loc 4 66 15
 885 0020 4FF48032 		mov	r2, #65536
 886 0024 1A67     		str	r2, [r3, #112]
 887              		.loc 4 67 8
 888 0026 044B     		ldr	r3, .L46+4
 889              		.loc 4 67 15
 890 0028 0022     		movs	r2, #0
 891 002a 1A67     		str	r2, [r3, #112]
 892              	.L45:
 893              		.loc 4 93 1
 894 002c 00BF     		nop
 895 002e BD46     		mov	sp, r7
 896              		.cfi_def_cfa_register 13
 897              		@ sp needed
 898 0030 80BC     		pop	{r7}
 899              		.cfi_restore 7
 900              		.cfi_def_cfa_offset 0
 901 0032 7047     		bx	lr
 902              	.L47:
 903              		.align	2
 904              	.L46:
 905 0034 00480258 		.word	1476544512
 906 0038 00440258 		.word	1476543488
 907              		.cfi_endproc
 908              	.LFE432:
 909              		.size	init_bkp_domain, .-init_bkp_domain
 910              		.section	.text.init_pwr,"ax",%progbits
 911              		.align	1
 912              		.syntax unified
ARM GAS  C:\Users\DEVELO~1\AppData\Local\Temp\cc43K8rk.s 			page 17


 913              		.thumb
 914              		.thumb_func
 915              		.type	init_pwr, %function
 916              	init_pwr:
 917              	.LFB433:
 918              		.loc 4 98 35
 919              		.cfi_startproc
 920              		@ args = 0, pretend = 0, frame = 0
 921              		@ frame_needed = 1, uses_anonymous_args = 0
 922              		@ link register save eliminated.
 923 0000 80B4     		push	{r7}
 924              		.cfi_def_cfa_offset 4
 925              		.cfi_offset 7, -4
 926 0002 00AF     		add	r7, sp, #0
 927              		.cfi_def_cfa_register 7
 928              		.loc 4 106 6
 929 0004 124B     		ldr	r3, .L51
 930              		.loc 4 106 14
 931 0006 0222     		movs	r2, #2
 932 0008 DA60     		str	r2, [r3, #12]
 933              		.loc 4 107 9
 934 000a 00BF     		nop
 935              	.L49:
 936              		.loc 4 107 14 discriminator 1
 937 000c 104B     		ldr	r3, .L51
 938 000e 5B68     		ldr	r3, [r3, #4]
 939              		.loc 4 107 21 discriminator 1
 940 0010 03F40053 		and	r3, r3, #8192
 941              		.loc 4 107 43 discriminator 1
 942 0014 002B     		cmp	r3, #0
 943 0016 F9D0     		beq	.L49
 944              		.loc 4 110 6
 945 0018 0D4B     		ldr	r3, .L51
 946              		.loc 4 110 14
 947 001a 0E4A     		ldr	r2, .L51+4
 948 001c 1A60     		str	r2, [r3]
 949              		.loc 4 111 6
 950 001e 0C4B     		ldr	r3, .L51
 951              		.loc 4 111 14
 952 0020 0122     		movs	r2, #1
 953 0022 9A60     		str	r2, [r3, #8]
 954              		.loc 4 112 6
 955 0024 0A4B     		ldr	r3, .L51
 956              		.loc 4 112 14
 957 0026 0C4A     		ldr	r2, .L51+8
 958 0028 DA60     		str	r2, [r3, #12]
 959              		.loc 4 113 6
 960 002a 094B     		ldr	r3, .L51
 961              		.loc 4 113 14
 962 002c 0022     		movs	r2, #0
 963 002e 1A61     		str	r2, [r3, #16]
 964              		.loc 4 117 6
 965 0030 074B     		ldr	r3, .L51
 966              		.loc 4 117 14
 967 0032 4FF44042 		mov	r2, #49152
 968 0036 9A61     		str	r2, [r3, #24]
 969              		.loc 4 127 9
ARM GAS  C:\Users\DEVELO~1\AppData\Local\Temp\cc43K8rk.s 			page 18


 970 0038 00BF     		nop
 971              	.L50:
 972              		.loc 4 127 14 discriminator 1
 973 003a 054B     		ldr	r3, .L51
 974 003c 9B69     		ldr	r3, [r3, #24]
 975              		.loc 4 127 21 discriminator 1
 976 003e 03F40053 		and	r3, r3, #8192
 977              		.loc 4 127 40 discriminator 1
 978 0042 002B     		cmp	r3, #0
 979 0044 F9D0     		beq	.L50
 980              		.loc 4 135 1
 981 0046 00BF     		nop
 982 0048 00BF     		nop
 983 004a BD46     		mov	sp, r7
 984              		.cfi_def_cfa_register 13
 985              		@ sp needed
 986 004c 80BC     		pop	{r7}
 987              		.cfi_restore 7
 988              		.cfi_def_cfa_offset 0
 989 004e 7047     		bx	lr
 990              	.L52:
 991              		.align	2
 992              	.L51:
 993 0050 00480258 		.word	1476544512
 994 0054 00C000F0 		.word	-268386304
 995 0058 02000001 		.word	16777218
 996              		.cfi_endproc
 997              	.LFE433:
 998              		.size	init_pwr, .-init_pwr
 999              		.section	.text.hal_lld_init,"ax",%progbits
 1000              		.align	1
 1001              		.global	hal_lld_init
 1002              		.syntax unified
 1003              		.thumb
 1004              		.thumb_func
 1005              		.type	hal_lld_init, %function
 1006              	hal_lld_init:
 1007              	.LFB434:
 1008              		.loc 4 150 25
 1009              		.cfi_startproc
 1010              		@ args = 0, pretend = 0, frame = 0
 1011              		@ frame_needed = 1, uses_anonymous_args = 0
 1012 0000 80B5     		push	{r7, lr}
 1013              		.cfi_def_cfa_offset 8
 1014              		.cfi_offset 7, -8
 1015              		.cfi_offset 14, -4
 1016 0002 00AF     		add	r7, sp, #0
 1017              		.cfi_def_cfa_register 7
 1018              		.loc 4 160 3
 1019 0004 6FF00040 		mvn	r0, #-2147483648
 1020 0008 FFF7FEFF 		bl	__rccResetAHB1
 1021              		.loc 4 161 3
 1022 000c 4FF0FF30 		mov	r0, #-1
 1023 0010 FFF7FEFF 		bl	__rccResetAHB2
 1024              		.loc 4 162 3
 1025 0014 1A48     		ldr	r0, .L54
 1026 0016 FFF7FEFF 		bl	__rccResetAHB3
ARM GAS  C:\Users\DEVELO~1\AppData\Local\Temp\cc43K8rk.s 			page 19


 1027              		.loc 4 177 3
 1028 001a 1A48     		ldr	r0, .L54+4
 1029 001c FFF7FEFF 		bl	__rccResetAHB4
 1030              		.loc 4 178 3
 1031 0020 4FF0FF30 		mov	r0, #-1
 1032 0024 FFF7FEFF 		bl	__rccResetAPB1L
 1033              		.loc 4 179 3
 1034 0028 4FF0FF30 		mov	r0, #-1
 1035 002c FFF7FEFF 		bl	__rccResetAPB1H
 1036              		.loc 4 180 3
 1037 0030 4FF0FF30 		mov	r0, #-1
 1038 0034 FFF7FEFF 		bl	__rccResetAPB2
 1039              		.loc 4 181 3
 1040 0038 4FF0FF30 		mov	r0, #-1
 1041 003c FFF7FEFF 		bl	__rccResetAPB3
 1042              		.loc 4 182 3
 1043 0040 4FF0FF30 		mov	r0, #-1
 1044 0044 FFF7FEFF 		bl	__rccResetAPB4
 1045              		.loc 4 190 3
 1046 0048 FFF7FEFF 		bl	dmaInit
 1047              		.loc 4 197 3
 1048 004c FFF7FEFF 		bl	irqInit
 1049              		.loc 4 202 5
 1050 0050 0D4B     		ldr	r3, .L54+8
 1051 0052 0622     		movs	r2, #6
 1052 0054 9A60     		str	r2, [r3, #8]
 1053 0056 0C4B     		ldr	r3, .L54+8
 1054 0058 4FF01052 		mov	r2, #603979776
 1055 005c DA60     		str	r2, [r3, #12]
 1056 005e 0A4B     		ldr	r3, .L54+8
 1057 0060 0A4A     		ldr	r2, .L54+12
 1058 0062 1A61     		str	r2, [r3, #16]
 1059              		.loc 4 209 5
 1060 0064 084B     		ldr	r3, .L54+8
 1061 0066 0522     		movs	r2, #5
 1062 0068 5A60     		str	r2, [r3, #4]
 1063 006a 094B     		ldr	r3, .L54+16
 1064 006c 5B6A     		ldr	r3, [r3, #36]
 1065 006e 084A     		ldr	r2, .L54+16
 1066 0070 43F48033 		orr	r3, r3, #65536
 1067 0074 5362     		str	r3, [r2, #36]
 1068              		.loc 4 214 5
 1069 0076 FFF7FEFF 		bl	SCB_CleanInvalidateDCache
 1070              		.loc 4 218 1
 1071 007a 00BF     		nop
 1072 007c 80BD     		pop	{r7, pc}
 1073              	.L55:
 1074 007e 00BF     		.align	2
 1075              	.L54:
 1076 0080 FFEFFF7F 		.word	2147479551
 1077 0084 00F8FFFF 		.word	-2048
 1078 0088 90ED00E0 		.word	-536810096
 1079 008c 1B000C03 		.word	51118107
 1080 0090 00ED00E0 		.word	-536810240
 1081              		.cfi_endproc
 1082              	.LFE434:
 1083              		.size	hal_lld_init, .-hal_lld_init
ARM GAS  C:\Users\DEVELO~1\AppData\Local\Temp\cc43K8rk.s 			page 20


 1084              		.section	.text.stm32_clock_init,"ax",%progbits
 1085              		.align	1
 1086              		.global	stm32_clock_init
 1087              		.syntax unified
 1088              		.thumb
 1089              		.thumb_func
 1090              		.type	stm32_clock_init, %function
 1091              	stm32_clock_init:
 1092              	.LFB435:
 1093              		.loc 4 227 29
 1094              		.cfi_startproc
 1095              		@ args = 0, pretend = 0, frame = 16
 1096              		@ frame_needed = 1, uses_anonymous_args = 0
 1097 0000 80B5     		push	{r7, lr}
 1098              		.cfi_def_cfa_offset 8
 1099              		.cfi_offset 7, -8
 1100              		.cfi_offset 14, -4
 1101 0002 84B0     		sub	sp, sp, #16
 1102              		.cfi_def_cfa_offset 24
 1103 0004 00AF     		add	r7, sp, #0
 1104              		.cfi_def_cfa_register 7
 1105              		.loc 4 240 3
 1106 0006 7A4B     		ldr	r3, .L64
 1107              		.loc 4 240 58
 1108 0008 0122     		movs	r2, #1
 1109 000a 1A60     		str	r2, [r3]
 1110              		.loc 4 245 3
 1111 000c 0121     		movs	r1, #1
 1112 000e 0220     		movs	r0, #2
 1113 0010 FFF7FEFF 		bl	rccEnableAPB4
 1114              		.loc 4 248 3
 1115 0014 FFF7FEFF 		bl	init_pwr
 1116              		.loc 4 251 3
 1117 0018 FFF7FEFF 		bl	init_bkp_domain
 1118              		.loc 4 255 11
 1119 001c 754B     		ldr	r3, .L64+4
 1120 001e 1B68     		ldr	r3, [r3]
 1121 0020 744A     		ldr	r2, .L64+4
 1122 0022 43F00103 		orr	r3, r3, #1
 1123 0026 1360     		str	r3, [r2]
 1124              		.loc 4 256 9
 1125 0028 00BF     		nop
 1126              	.L57:
 1127              		.loc 4 256 15 discriminator 1
 1128 002a 724B     		ldr	r3, .L64+4
 1129 002c 1B68     		ldr	r3, [r3]
 1130              		.loc 4 256 20 discriminator 1
 1131 002e 03F00403 		and	r3, r3, #4
 1132              		.loc 4 256 10 discriminator 1
 1133 0032 002B     		cmp	r3, #0
 1134 0034 F9D0     		beq	.L57
 1135              		.loc 4 262 6
 1136 0036 6F4B     		ldr	r3, .L64+4
 1137              		.loc 4 262 16
 1138 0038 0022     		movs	r2, #0
 1139 003a 1A61     		str	r2, [r3, #16]
 1140              		.loc 4 263 9
ARM GAS  C:\Users\DEVELO~1\AppData\Local\Temp\cc43K8rk.s 			page 21


 1141 003c 00BF     		nop
 1142              	.L58:
 1143              		.loc 4 263 14 discriminator 1
 1144 003e 6D4B     		ldr	r3, .L64+4
 1145 0040 1B69     		ldr	r3, [r3, #16]
 1146              		.loc 4 263 21 discriminator 1
 1147 0042 03F03803 		and	r3, r3, #56
 1148              		.loc 4 263 37 discriminator 1
 1149 0046 002B     		cmp	r3, #0
 1150 0048 F9D1     		bne	.L58
 1151              		.loc 4 267 6
 1152 004a 6A4B     		ldr	r3, .L64+4
 1153              		.loc 4 267 16
 1154 004c 0122     		movs	r2, #1
 1155 004e 1A60     		str	r2, [r3]
 1156              		.loc 4 268 6
 1157 0050 684B     		ldr	r3, .L64+4
 1158              		.loc 4 268 16
 1159 0052 4FF08042 		mov	r2, #1073741824
 1160 0056 5A60     		str	r2, [r3, #4]
 1161              		.loc 4 272 6
 1162 0058 664B     		ldr	r3, .L64+4
 1163              		.loc 4 272 16
 1164 005a 0022     		movs	r2, #0
 1165 005c 5A67     		str	r2, [r3, #116]
 1166              		.loc 4 273 6
 1167 005e 654B     		ldr	r3, .L64+4
 1168              		.loc 4 273 16
 1169 0060 654A     		ldr	r2, .L64+8
 1170 0062 DA62     		str	r2, [r3, #44]
 1171              		.loc 4 277 8
 1172 0064 654B     		ldr	r3, .L64+12
 1173 0066 FB60     		str	r3, [r7, #12]
 1174              		.loc 4 285 8
 1175 0068 FB68     		ldr	r3, [r7, #12]
 1176 006a 43F40043 		orr	r3, r3, #32768
 1177 006e FB60     		str	r3, [r7, #12]
 1178              		.loc 4 287 6
 1179 0070 604A     		ldr	r2, .L64+4
 1180              		.loc 4 287 13
 1181 0072 FB68     		ldr	r3, [r7, #12]
 1182 0074 1361     		str	r3, [r2, #16]
 1183              		.loc 4 294 11
 1184 0076 5F4B     		ldr	r3, .L64+4
 1185 0078 1B68     		ldr	r3, [r3]
 1186 007a 5E4A     		ldr	r2, .L64+4
 1187 007c 43F48033 		orr	r3, r3, #65536
 1188 0080 1360     		str	r3, [r2]
 1189              		.loc 4 296 9
 1190 0082 00BF     		nop
 1191              	.L59:
 1192              		.loc 4 296 14 discriminator 1
 1193 0084 5B4B     		ldr	r3, .L64+4
 1194 0086 1B68     		ldr	r3, [r3]
 1195              		.loc 4 296 19 discriminator 1
 1196 0088 03F40033 		and	r3, r3, #131072
 1197              		.loc 4 296 36 discriminator 1
ARM GAS  C:\Users\DEVELO~1\AppData\Local\Temp\cc43K8rk.s 			page 22


 1198 008c 002B     		cmp	r3, #0
 1199 008e F9D0     		beq	.L59
 1200              		.loc 4 302 11
 1201 0090 584B     		ldr	r3, .L64+4
 1202 0092 1B68     		ldr	r3, [r3]
 1203 0094 574A     		ldr	r2, .L64+4
 1204 0096 43F48053 		orr	r3, r3, #4096
 1205 009a 1360     		str	r3, [r2]
 1206              		.loc 4 303 9
 1207 009c 00BF     		nop
 1208              	.L60:
 1209              		.loc 4 303 14 discriminator 1
 1210 009e 554B     		ldr	r3, .L64+4
 1211 00a0 1B68     		ldr	r3, [r3]
 1212              		.loc 4 303 19 discriminator 1
 1213 00a2 03F40053 		and	r3, r3, #8192
 1214              		.loc 4 303 38 discriminator 1
 1215 00a6 002B     		cmp	r3, #0
 1216 00a8 F9D0     		beq	.L60
 1217              	.LBB14:
 1218              		.loc 4 328 14
 1219 00aa 0023     		movs	r3, #0
 1220 00ac BB60     		str	r3, [r7, #8]
 1221              		.loc 4 329 14
 1222 00ae 0023     		movs	r3, #0
 1223 00b0 7B60     		str	r3, [r7, #4]
 1224              		.loc 4 330 14
 1225 00b2 0023     		movs	r3, #0
 1226 00b4 3B60     		str	r3, [r7]
 1227              		.loc 4 332 8
 1228 00b6 4F4B     		ldr	r3, .L64+4
 1229              		.loc 4 332 20
 1230 00b8 514A     		ldr	r2, .L64+16
 1231 00ba 9A62     		str	r2, [r3, #40]
 1232              		.loc 4 337 13
 1233 00bc 40F25573 		movw	r3, #1877
 1234 00c0 3B60     		str	r3, [r7]
 1235              		.loc 4 342 8
 1236 00c2 4C4B     		ldr	r3, .L64+4
 1237              		.loc 4 342 20
 1238 00c4 0022     		movs	r2, #0
 1239 00c6 5A63     		str	r2, [r3, #52]
 1240              		.loc 4 343 8
 1241 00c8 4A4B     		ldr	r3, .L64+4
 1242              		.loc 4 343 20
 1243 00ca 4E4A     		ldr	r2, .L64+20
 1244 00cc 1A63     		str	r2, [r3, #48]
 1245              		.loc 4 345 13
 1246 00ce BB68     		ldr	r3, [r7, #8]
 1247 00d0 43F08073 		orr	r3, r3, #16777216
 1248 00d4 BB60     		str	r3, [r7, #8]
 1249              		.loc 4 346 13
 1250 00d6 7B68     		ldr	r3, [r7, #4]
 1251 00d8 43F00073 		orr	r3, r3, #33554432
 1252 00dc 7B60     		str	r3, [r7, #4]
 1253              		.loc 4 348 13
 1254 00de 3B68     		ldr	r3, [r7]
ARM GAS  C:\Users\DEVELO~1\AppData\Local\Temp\cc43K8rk.s 			page 23


 1255 00e0 43F48033 		orr	r3, r3, #65536
 1256 00e4 3B60     		str	r3, [r7]
 1257              		.loc 4 351 13
 1258 00e6 3B68     		ldr	r3, [r7]
 1259 00e8 43F40033 		orr	r3, r3, #131072
 1260 00ec 3B60     		str	r3, [r7]
 1261              		.loc 4 359 8
 1262 00ee 414B     		ldr	r3, .L64+4
 1263              		.loc 4 359 20
 1264 00f0 4CF29022 		movw	r2, #49808
 1265 00f4 DA63     		str	r2, [r3, #60]
 1266              		.loc 4 360 8
 1267 00f6 3F4B     		ldr	r3, .L64+4
 1268              		.loc 4 360 20
 1269 00f8 434A     		ldr	r2, .L64+24
 1270 00fa 9A63     		str	r2, [r3, #56]
 1271              		.loc 4 362 13
 1272 00fc BB68     		ldr	r3, [r7, #8]
 1273 00fe 43F08063 		orr	r3, r3, #67108864
 1274 0102 BB60     		str	r3, [r7, #8]
 1275              		.loc 4 363 13
 1276 0104 7B68     		ldr	r3, [r7, #4]
 1277 0106 43F00063 		orr	r3, r3, #134217728
 1278 010a 7B60     		str	r3, [r7, #4]
 1279              		.loc 4 365 13
 1280 010c 3B68     		ldr	r3, [r7]
 1281 010e 43F40023 		orr	r3, r3, #524288
 1282 0112 3B60     		str	r3, [r7]
 1283              		.loc 4 371 13
 1284 0114 3B68     		ldr	r3, [r7]
 1285 0116 43F40013 		orr	r3, r3, #2097152
 1286 011a 3B60     		str	r3, [r7]
 1287              		.loc 4 376 8
 1288 011c 354B     		ldr	r3, .L64+4
 1289              		.loc 4 376 20
 1290 011e 0022     		movs	r2, #0
 1291 0120 5A64     		str	r2, [r3, #68]
 1292              		.loc 4 377 8
 1293 0122 344B     		ldr	r3, .L64+4
 1294              		.loc 4 377 20
 1295 0124 394A     		ldr	r2, .L64+28
 1296 0126 1A64     		str	r2, [r3, #64]
 1297              		.loc 4 379 13
 1298 0128 BB68     		ldr	r3, [r7, #8]
 1299 012a 43F08053 		orr	r3, r3, #268435456
 1300 012e BB60     		str	r3, [r7, #8]
 1301              		.loc 4 380 13
 1302 0130 7B68     		ldr	r3, [r7, #4]
 1303 0132 43F00053 		orr	r3, r3, #536870912
 1304 0136 7B60     		str	r3, [r7, #4]
 1305              		.loc 4 382 13
 1306 0138 3B68     		ldr	r3, [r7]
 1307 013a 43F48003 		orr	r3, r3, #4194304
 1308 013e 3B60     		str	r3, [r7]
 1309              		.loc 4 388 13
 1310 0140 3B68     		ldr	r3, [r7]
 1311 0142 43F08073 		orr	r3, r3, #16777216
ARM GAS  C:\Users\DEVELO~1\AppData\Local\Temp\cc43K8rk.s 			page 24


 1312 0146 3B60     		str	r3, [r7]
 1313              		.loc 4 393 8
 1314 0148 2A4A     		ldr	r2, .L64+4
 1315              		.loc 4 393 18
 1316 014a 3B68     		ldr	r3, [r7]
 1317 014c D362     		str	r3, [r2, #44]
 1318              		.loc 4 394 17
 1319 014e 294B     		ldr	r3, .L64+4
 1320 0150 1A68     		ldr	r2, [r3]
 1321 0152 2849     		ldr	r1, .L64+4
 1322 0154 BB68     		ldr	r3, [r7, #8]
 1323 0156 1343     		orrs	r3, r3, r2
 1324 0158 0B60     		str	r3, [r1]
 1325              		.loc 4 395 11
 1326 015a 00BF     		nop
 1327              	.L61:
 1328              		.loc 4 395 16 discriminator 1
 1329 015c 254B     		ldr	r3, .L64+4
 1330 015e 1A68     		ldr	r2, [r3]
 1331              		.loc 4 395 21 discriminator 1
 1332 0160 7B68     		ldr	r3, [r7, #4]
 1333 0162 1340     		ands	r3, r3, r2
 1334              		.loc 4 395 32 discriminator 1
 1335 0164 7A68     		ldr	r2, [r7, #4]
 1336 0166 9A42     		cmp	r2, r3
 1337 0168 F8D1     		bne	.L61
 1338              	.LBE14:
 1339              		.loc 4 406 6
 1340 016a 224B     		ldr	r3, .L64+4
 1341              		.loc 4 406 15
 1342 016c 4822     		movs	r2, #72
 1343 016e 9A61     		str	r2, [r3, #24]
 1344              		.loc 4 407 6
 1345 0170 204B     		ldr	r3, .L64+4
 1346              		.loc 4 407 15
 1347 0172 4FF48862 		mov	r2, #1088
 1348 0176 DA61     		str	r2, [r3, #28]
 1349              		.loc 4 408 6
 1350 0178 1E4B     		ldr	r3, .L64+4
 1351              		.loc 4 408 15
 1352 017a 4022     		movs	r2, #64
 1353 017c 1A62     		str	r2, [r3, #32]
 1354              		.loc 4 413 6
 1355 017e 1D4B     		ldr	r3, .L64+4
 1356              		.loc 4 413 17
 1357 0180 4FF48032 		mov	r2, #65536
 1358 0184 DA64     		str	r2, [r3, #76]
 1359              		.loc 4 415 6
 1360 0186 1B4B     		ldr	r3, .L64+4
 1361              		.loc 4 415 17
 1362 0188 214A     		ldr	r2, .L64+32
 1363 018a 1A65     		str	r2, [r3, #80]
 1364              		.loc 4 418 6
 1365 018c 194B     		ldr	r3, .L64+4
 1366              		.loc 4 418 17
 1367 018e 4FF4E002 		mov	r2, #7340032
 1368 0192 5A65     		str	r2, [r3, #84]
ARM GAS  C:\Users\DEVELO~1\AppData\Local\Temp\cc43K8rk.s 			page 25


 1369              		.loc 4 421 6
 1370 0194 174B     		ldr	r3, .L64+4
 1371              		.loc 4 421 17
 1372 0196 4FF48032 		mov	r2, #65536
 1373 019a 9A65     		str	r2, [r3, #88]
 1374              		.loc 4 452 8
 1375 019c 1D4B     		ldr	r3, .L64+36
 1376              		.loc 4 452 14
 1377 019e 3222     		movs	r2, #50
 1378 01a0 1A60     		str	r2, [r3]
 1379              		.loc 4 454 9
 1380 01a2 00BF     		nop
 1381              	.L62:
 1382              		.loc 4 454 16 discriminator 1
 1383 01a4 1B4B     		ldr	r3, .L64+36
 1384 01a6 1B68     		ldr	r3, [r3]
 1385              		.loc 4 454 22 discriminator 1
 1386 01a8 03F00F03 		and	r3, r3, #15
 1387              		.loc 4 454 43 discriminator 1
 1388 01ac 022B     		cmp	r3, #2
 1389 01ae F9D1     		bne	.L62
 1390              		.loc 4 461 13
 1391 01b0 104B     		ldr	r3, .L64+4
 1392 01b2 1B69     		ldr	r3, [r3, #16]
 1393 01b4 0F4A     		ldr	r2, .L64+4
 1394 01b6 43F00303 		orr	r3, r3, #3
 1395 01ba 1361     		str	r3, [r2, #16]
 1396              		.loc 4 462 9
 1397 01bc 00BF     		nop
 1398              	.L63:
 1399              		.loc 4 462 14 discriminator 1
 1400 01be 0D4B     		ldr	r3, .L64+4
 1401 01c0 1B69     		ldr	r3, [r3, #16]
 1402              		.loc 4 462 21 discriminator 1
 1403 01c2 03F03803 		and	r3, r3, #56
 1404              		.loc 4 462 41 discriminator 1
 1405 01c6 182B     		cmp	r3, #24
 1406 01c8 F9D1     		bne	.L63
 1407              		.loc 4 477 3
 1408 01ca 0121     		movs	r1, #1
 1409 01cc 4FF00050 		mov	r0, #536870912
 1410 01d0 FFF7FEFF 		bl	rccEnableAHB2
 1411              		.loc 4 478 3
 1412 01d4 0121     		movs	r1, #1
 1413 01d6 4FF08040 		mov	r0, #1073741824
 1414 01da FFF7FEFF 		bl	rccEnableAHB2
 1415              		.loc 4 480 3
 1416 01de 0121     		movs	r1, #1
 1417 01e0 4FF00040 		mov	r0, #-2147483648
 1418 01e4 FFF7FEFF 		bl	rccEnableAHB2
 1419              		.loc 4 483 1
 1420 01e8 00BF     		nop
 1421 01ea 1037     		adds	r7, r7, #16
 1422              		.cfi_def_cfa_offset 8
 1423 01ec BD46     		mov	sp, r7
 1424              		.cfi_def_cfa_register 13
 1425              		@ sp needed
ARM GAS  C:\Users\DEVELO~1\AppData\Local\Temp\cc43K8rk.s 			page 26


 1426 01ee 80BD     		pop	{r7, pc}
 1427              	.L65:
 1428              		.align	2
 1429              	.L64:
 1430 01f0 08810051 		.word	1358987528
 1431 01f4 00440258 		.word	1476543488
 1432 01f8 0000FF01 		.word	33488896
 1433 01fc 00081008 		.word	135268352
 1434 0200 42404000 		.word	4210754
 1435 0204 8F030901 		.word	17367951
 1436 0208 F412010B 		.word	184619764
 1437 020c 8F06050F 		.word	251987599
 1438 0210 40000010 		.word	268435520
 1439 0214 00200052 		.word	1375739904
 1440              		.cfi_endproc
 1441              	.LFE435:
 1442              		.size	stm32_clock_init, .-stm32_clock_init
 1443              		.text
 1444              	.Letext0:
 1445              		.file 5 "c:\\chibistudio\\tools\\gnu tools arm embedded\\11.3 2022.08\\arm-none-eabi\\include\\mac
 1446              		.file 6 "c:\\chibistudio\\tools\\gnu tools arm embedded\\11.3 2022.08\\arm-none-eabi\\include\\sys
 1447              		.file 7 "../../../os/common/ext/ST/STM32H7xx/stm32h743xx.h"
 1448              		.file 8 "../../../os/hal/ports/STM32/STM32H7xx/stm32_isr.h"
 1449              		.file 9 "../../../os/hal/ports/STM32/LLD/DMAv2/stm32_dma.h"
 1450              		.file 10 "../../../os/common/ext/ST/STM32H7xx/system_stm32h7xx.h"
 1451              		.section	.debug_info,"",%progbits
 1452              	.Ldebug_info0:
 1453 0000 EC0E0000 		.4byte	0xeec
 1454 0004 0500     		.2byte	0x5
 1455 0006 01       		.byte	0x1
 1456 0007 04       		.byte	0x4
 1457 0008 00000000 		.4byte	.Ldebug_abbrev0
 1458 000c 18       		.uleb128 0x18
 1459 000d 27030000 		.4byte	.LASF199
 1460 0011 1D       		.byte	0x1d
 1461 0012 88000000 		.4byte	.LASF200
 1462 0016 A4070000 		.4byte	.LASF201
 1463 001a 0C000000 		.4byte	.LLRL0
 1464 001e 00000000 		.4byte	0
 1465 0022 00000000 		.4byte	.Ldebug_line0
 1466 0026 19       		.uleb128 0x19
 1467 0027 04       		.byte	0x4
 1468 0028 05       		.byte	0x5
 1469 0029 696E7400 		.ascii	"int\000"
 1470 002d 04       		.uleb128 0x4
 1471 002e 04       		.byte	0x4
 1472 002f 07       		.byte	0x7
 1473 0030 95020000 		.4byte	.LASF0
 1474 0034 04       		.uleb128 0x4
 1475 0035 08       		.byte	0x8
 1476 0036 05       		.byte	0x5
 1477 0037 19010000 		.4byte	.LASF1
 1478 003b 04       		.uleb128 0x4
 1479 003c 08       		.byte	0x8
 1480 003d 04       		.byte	0x4
 1481 003e 6B060000 		.4byte	.LASF2
 1482 0042 04       		.uleb128 0x4
ARM GAS  C:\Users\DEVELO~1\AppData\Local\Temp\cc43K8rk.s 			page 27


 1483 0043 01       		.byte	0x1
 1484 0044 06       		.byte	0x6
 1485 0045 30000000 		.4byte	.LASF3
 1486 0049 0C       		.uleb128 0xc
 1487 004a 3C000000 		.4byte	.LASF8
 1488 004e 05       		.byte	0x5
 1489 004f 2B       		.byte	0x2b
 1490 0050 18       		.byte	0x18
 1491 0051 55000000 		.4byte	0x55
 1492 0055 04       		.uleb128 0x4
 1493 0056 01       		.byte	0x1
 1494 0057 08       		.byte	0x8
 1495 0058 92050000 		.4byte	.LASF4
 1496 005c 04       		.uleb128 0x4
 1497 005d 02       		.byte	0x2
 1498 005e 05       		.byte	0x5
 1499 005f B7050000 		.4byte	.LASF5
 1500 0063 04       		.uleb128 0x4
 1501 0064 02       		.byte	0x2
 1502 0065 07       		.byte	0x7
 1503 0066 F7020000 		.4byte	.LASF6
 1504 006a 04       		.uleb128 0x4
 1505 006b 04       		.byte	0x4
 1506 006c 05       		.byte	0x5
 1507 006d 5F000000 		.4byte	.LASF7
 1508 0071 0C       		.uleb128 0xc
 1509 0072 22020000 		.4byte	.LASF9
 1510 0076 05       		.byte	0x5
 1511 0077 4F       		.byte	0x4f
 1512 0078 19       		.byte	0x19
 1513 0079 7D000000 		.4byte	0x7d
 1514 007d 04       		.uleb128 0x4
 1515 007e 04       		.byte	0x4
 1516 007f 07       		.byte	0x7
 1517 0080 4C010000 		.4byte	.LASF10
 1518 0084 04       		.uleb128 0x4
 1519 0085 08       		.byte	0x8
 1520 0086 07       		.byte	0x7
 1521 0087 68020000 		.4byte	.LASF11
 1522 008b 0C       		.uleb128 0xc
 1523 008c 4E070000 		.4byte	.LASF12
 1524 0090 06       		.byte	0x6
 1525 0091 18       		.byte	0x18
 1526 0092 13       		.byte	0x13
 1527 0093 49000000 		.4byte	0x49
 1528 0097 09       		.uleb128 0x9
 1529 0098 8B000000 		.4byte	0x8b
 1530 009c 0C       		.uleb128 0xc
 1531 009d 3F060000 		.4byte	.LASF13
 1532 00a1 06       		.byte	0x6
 1533 00a2 30       		.byte	0x30
 1534 00a3 14       		.byte	0x14
 1535 00a4 71000000 		.4byte	0x71
 1536 00a8 09       		.uleb128 0x9
 1537 00a9 9C000000 		.4byte	0x9c
 1538 00ad 0D       		.uleb128 0xd
 1539 00ae A8000000 		.4byte	0xa8
ARM GAS  C:\Users\DEVELO~1\AppData\Local\Temp\cc43K8rk.s 			page 28


 1540 00b2 04       		.uleb128 0x4
 1541 00b3 01       		.byte	0x1
 1542 00b4 08       		.byte	0x8
 1543 00b5 77060000 		.4byte	.LASF14
 1544 00b9 0E       		.uleb128 0xe
 1545 00ba AC02     		.2byte	0x2ac
 1546 00bc 01       		.byte	0x1
 1547 00bd C701     		.2byte	0x1c7
 1548 00bf 98030000 		.4byte	0x398
 1549 00c3 01       		.uleb128 0x1
 1550 00c4 F4000000 		.4byte	.LASF15
 1551 00c8 01       		.byte	0x1
 1552 00c9 C901     		.2byte	0x1c9
 1553 00cb 12       		.byte	0x12
 1554 00cc AD000000 		.4byte	0xad
 1555 00d0 00       		.byte	0
 1556 00d1 01       		.uleb128 0x1
 1557 00d2 1A030000 		.4byte	.LASF16
 1558 00d6 01       		.byte	0x1
 1559 00d7 CA01     		.2byte	0x1ca
 1560 00d9 12       		.byte	0x12
 1561 00da A8000000 		.4byte	0xa8
 1562 00de 04       		.byte	0x4
 1563 00df 01       		.uleb128 0x1
 1564 00e0 E0020000 		.4byte	.LASF17
 1565 00e4 01       		.byte	0x1
 1566 00e5 CB01     		.2byte	0x1cb
 1567 00e7 12       		.byte	0x12
 1568 00e8 A8000000 		.4byte	0xa8
 1569 00ec 08       		.byte	0x8
 1570 00ed 01       		.uleb128 0x1
 1571 00ee B2030000 		.4byte	.LASF18
 1572 00f2 01       		.byte	0x1
 1573 00f3 CC01     		.2byte	0x1cc
 1574 00f5 12       		.byte	0x12
 1575 00f6 A8000000 		.4byte	0xa8
 1576 00fa 0C       		.byte	0xc
 1577 00fb 03       		.uleb128 0x3
 1578 00fc 53435200 		.ascii	"SCR\000"
 1579 0100 01       		.byte	0x1
 1580 0101 CD01     		.2byte	0x1cd
 1581 0103 12       		.byte	0x12
 1582 0104 A8000000 		.4byte	0xa8
 1583 0108 10       		.byte	0x10
 1584 0109 03       		.uleb128 0x3
 1585 010a 43435200 		.ascii	"CCR\000"
 1586 010e 01       		.byte	0x1
 1587 010f CE01     		.2byte	0x1ce
 1588 0111 12       		.byte	0x12
 1589 0112 A8000000 		.4byte	0xa8
 1590 0116 14       		.byte	0x14
 1591 0117 01       		.uleb128 0x1
 1592 0118 0D000000 		.4byte	.LASF19
 1593 011c 01       		.byte	0x1
 1594 011d CF01     		.2byte	0x1cf
 1595 011f 12       		.byte	0x12
 1596 0120 A8030000 		.4byte	0x3a8
ARM GAS  C:\Users\DEVELO~1\AppData\Local\Temp\cc43K8rk.s 			page 29


 1597 0124 18       		.byte	0x18
 1598 0125 01       		.uleb128 0x1
 1599 0126 A8050000 		.4byte	.LASF20
 1600 012a 01       		.byte	0x1
 1601 012b D001     		.2byte	0x1d0
 1602 012d 12       		.byte	0x12
 1603 012e A8000000 		.4byte	0xa8
 1604 0132 24       		.byte	0x24
 1605 0133 01       		.uleb128 0x1
 1606 0134 6B040000 		.4byte	.LASF21
 1607 0138 01       		.byte	0x1
 1608 0139 D101     		.2byte	0x1d1
 1609 013b 12       		.byte	0x12
 1610 013c A8000000 		.4byte	0xa8
 1611 0140 28       		.byte	0x28
 1612 0141 01       		.uleb128 0x1
 1613 0142 91070000 		.4byte	.LASF22
 1614 0146 01       		.byte	0x1
 1615 0147 D201     		.2byte	0x1d2
 1616 0149 12       		.byte	0x12
 1617 014a A8000000 		.4byte	0xa8
 1618 014e 2C       		.byte	0x2c
 1619 014f 01       		.uleb128 0x1
 1620 0150 B8030000 		.4byte	.LASF23
 1621 0154 01       		.byte	0x1
 1622 0155 D301     		.2byte	0x1d3
 1623 0157 12       		.byte	0x12
 1624 0158 A8000000 		.4byte	0xa8
 1625 015c 30       		.byte	0x30
 1626 015d 01       		.uleb128 0x1
 1627 015e CD030000 		.4byte	.LASF24
 1628 0162 01       		.byte	0x1
 1629 0163 D401     		.2byte	0x1d4
 1630 0165 12       		.byte	0x12
 1631 0166 A8000000 		.4byte	0xa8
 1632 016a 34       		.byte	0x34
 1633 016b 01       		.uleb128 0x1
 1634 016c 09020000 		.4byte	.LASF25
 1635 0170 01       		.byte	0x1
 1636 0171 D501     		.2byte	0x1d5
 1637 0173 12       		.byte	0x12
 1638 0174 A8000000 		.4byte	0xa8
 1639 0178 38       		.byte	0x38
 1640 0179 01       		.uleb128 0x1
 1641 017a 4D060000 		.4byte	.LASF26
 1642 017e 01       		.byte	0x1
 1643 017f D601     		.2byte	0x1d6
 1644 0181 12       		.byte	0x12
 1645 0182 A8000000 		.4byte	0xa8
 1646 0186 3C       		.byte	0x3c
 1647 0187 01       		.uleb128 0x1
 1648 0188 FA000000 		.4byte	.LASF27
 1649 018c 01       		.byte	0x1
 1650 018d D701     		.2byte	0x1d7
 1651 018f 12       		.byte	0x12
 1652 0190 C2030000 		.4byte	0x3c2
 1653 0194 40       		.byte	0x40
ARM GAS  C:\Users\DEVELO~1\AppData\Local\Temp\cc43K8rk.s 			page 30


 1654 0195 01       		.uleb128 0x1
 1655 0196 48020000 		.4byte	.LASF28
 1656 019a 01       		.byte	0x1
 1657 019b D801     		.2byte	0x1d8
 1658 019d 12       		.byte	0x12
 1659 019e AD000000 		.4byte	0xad
 1660 01a2 48       		.byte	0x48
 1661 01a3 01       		.uleb128 0x1
 1662 01a4 E4060000 		.4byte	.LASF29
 1663 01a8 01       		.byte	0x1
 1664 01a9 D901     		.2byte	0x1d9
 1665 01ab 12       		.byte	0x12
 1666 01ac AD000000 		.4byte	0xad
 1667 01b0 4C       		.byte	0x4c
 1668 01b1 01       		.uleb128 0x1
 1669 01b2 C1050000 		.4byte	.LASF30
 1670 01b6 01       		.byte	0x1
 1671 01b7 DA01     		.2byte	0x1da
 1672 01b9 12       		.byte	0x12
 1673 01ba DC030000 		.4byte	0x3dc
 1674 01be 50       		.byte	0x50
 1675 01bf 01       		.uleb128 0x1
 1676 01c0 6D070000 		.4byte	.LASF31
 1677 01c4 01       		.byte	0x1
 1678 01c5 DB01     		.2byte	0x1db
 1679 01c7 12       		.byte	0x12
 1680 01c8 F6030000 		.4byte	0x3f6
 1681 01cc 60       		.byte	0x60
 1682 01cd 01       		.uleb128 0x1
 1683 01ce 2E050000 		.4byte	.LASF32
 1684 01d2 01       		.byte	0x1
 1685 01d3 DC01     		.2byte	0x1dc
 1686 01d5 12       		.byte	0x12
 1687 01d6 FB030000 		.4byte	0x3fb
 1688 01da 74       		.byte	0x74
 1689 01db 01       		.uleb128 0x1
 1690 01dc 82000000 		.4byte	.LASF33
 1691 01e0 01       		.byte	0x1
 1692 01e1 DD01     		.2byte	0x1dd
 1693 01e3 12       		.byte	0x12
 1694 01e4 AD000000 		.4byte	0xad
 1695 01e8 78       		.byte	0x78
 1696 01e9 03       		.uleb128 0x3
 1697 01ea 43545200 		.ascii	"CTR\000"
 1698 01ee 01       		.byte	0x1
 1699 01ef DE01     		.2byte	0x1de
 1700 01f1 12       		.byte	0x12
 1701 01f2 AD000000 		.4byte	0xad
 1702 01f6 7C       		.byte	0x7c
 1703 01f7 01       		.uleb128 0x1
 1704 01f8 5E010000 		.4byte	.LASF34
 1705 01fc 01       		.byte	0x1
 1706 01fd DF01     		.2byte	0x1df
 1707 01ff 12       		.byte	0x12
 1708 0200 AD000000 		.4byte	0xad
 1709 0204 80       		.byte	0x80
 1710 0205 01       		.uleb128 0x1
ARM GAS  C:\Users\DEVELO~1\AppData\Local\Temp\cc43K8rk.s 			page 31


 1711 0206 8E020000 		.4byte	.LASF35
 1712 020a 01       		.byte	0x1
 1713 020b E001     		.2byte	0x1e0
 1714 020d 12       		.byte	0x12
 1715 020e A8000000 		.4byte	0xa8
 1716 0212 84       		.byte	0x84
 1717 0213 01       		.uleb128 0x1
 1718 0214 8B070000 		.4byte	.LASF36
 1719 0218 01       		.byte	0x1
 1720 0219 E101     		.2byte	0x1e1
 1721 021b 12       		.byte	0x12
 1722 021c A8000000 		.4byte	0xa8
 1723 0220 88       		.byte	0x88
 1724 0221 01       		.uleb128 0x1
 1725 0222 4A050000 		.4byte	.LASF37
 1726 0226 01       		.byte	0x1
 1727 0227 E201     		.2byte	0x1e2
 1728 0229 12       		.byte	0x12
 1729 022a 0B040000 		.4byte	0x40b
 1730 022e 8C       		.byte	0x8c
 1731 022f 02       		.uleb128 0x2
 1732 0230 46000000 		.4byte	.LASF38
 1733 0234 01       		.byte	0x1
 1734 0235 E301     		.2byte	0x1e3
 1735 0237 12       		.byte	0x12
 1736 0238 A8000000 		.4byte	0xa8
 1737 023c 0002     		.2byte	0x200
 1738 023e 02       		.uleb128 0x2
 1739 023f 2C060000 		.4byte	.LASF39
 1740 0243 01       		.byte	0x1
 1741 0244 E401     		.2byte	0x1e4
 1742 0246 12       		.byte	0x12
 1743 0247 1B040000 		.4byte	0x41b
 1744 024b 0402     		.2byte	0x204
 1745 024d 02       		.uleb128 0x2
 1746 024e 1C050000 		.4byte	.LASF40
 1747 0252 01       		.byte	0x1
 1748 0253 E501     		.2byte	0x1e5
 1749 0255 12       		.byte	0x12
 1750 0256 AD000000 		.4byte	0xad
 1751 025a 4002     		.2byte	0x240
 1752 025c 02       		.uleb128 0x2
 1753 025d 22050000 		.4byte	.LASF41
 1754 0261 01       		.byte	0x1
 1755 0262 E601     		.2byte	0x1e6
 1756 0264 12       		.byte	0x12
 1757 0265 AD000000 		.4byte	0xad
 1758 0269 4402     		.2byte	0x244
 1759 026b 02       		.uleb128 0x2
 1760 026c 28050000 		.4byte	.LASF42
 1761 0270 01       		.byte	0x1
 1762 0271 E701     		.2byte	0x1e7
 1763 0273 12       		.byte	0x12
 1764 0274 AD000000 		.4byte	0xad
 1765 0278 4802     		.2byte	0x248
 1766 027a 02       		.uleb128 0x2
 1767 027b 5B050000 		.4byte	.LASF43
ARM GAS  C:\Users\DEVELO~1\AppData\Local\Temp\cc43K8rk.s 			page 32


 1768 027f 01       		.byte	0x1
 1769 0280 E801     		.2byte	0x1e8
 1770 0282 12       		.byte	0x12
 1771 0283 FB030000 		.4byte	0x3fb
 1772 0287 4C02     		.2byte	0x24c
 1773 0289 02       		.uleb128 0x2
 1774 028a 42050000 		.4byte	.LASF44
 1775 028e 01       		.byte	0x1
 1776 028f E901     		.2byte	0x1e9
 1777 0291 12       		.byte	0x12
 1778 0292 A8000000 		.4byte	0xa8
 1779 0296 5002     		.2byte	0x250
 1780 0298 02       		.uleb128 0x2
 1781 0299 65050000 		.4byte	.LASF45
 1782 029d 01       		.byte	0x1
 1783 029e EA01     		.2byte	0x1ea
 1784 02a0 12       		.byte	0x12
 1785 02a1 FB030000 		.4byte	0x3fb
 1786 02a5 5402     		.2byte	0x254
 1787 02a7 02       		.uleb128 0x2
 1788 02a8 DC050000 		.4byte	.LASF46
 1789 02ac 01       		.byte	0x1
 1790 02ad EB01     		.2byte	0x1eb
 1791 02af 12       		.byte	0x12
 1792 02b0 A8000000 		.4byte	0xa8
 1793 02b4 5802     		.2byte	0x258
 1794 02b6 02       		.uleb128 0x2
 1795 02b7 CE060000 		.4byte	.LASF47
 1796 02bb 01       		.byte	0x1
 1797 02bc EC01     		.2byte	0x1ec
 1798 02be 12       		.byte	0x12
 1799 02bf A8000000 		.4byte	0xa8
 1800 02c3 5C02     		.2byte	0x25c
 1801 02c5 02       		.uleb128 0x2
 1802 02c6 F4050000 		.4byte	.LASF48
 1803 02ca 01       		.byte	0x1
 1804 02cb ED01     		.2byte	0x1ed
 1805 02cd 12       		.byte	0x12
 1806 02ce A8000000 		.4byte	0xa8
 1807 02d2 6002     		.2byte	0x260
 1808 02d4 02       		.uleb128 0x2
 1809 02d5 BA020000 		.4byte	.LASF49
 1810 02d9 01       		.byte	0x1
 1811 02da EE01     		.2byte	0x1ee
 1812 02dc 12       		.byte	0x12
 1813 02dd A8000000 		.4byte	0xa8
 1814 02e1 6402     		.2byte	0x264
 1815 02e3 02       		.uleb128 0x2
 1816 02e4 4F020000 		.4byte	.LASF50
 1817 02e8 01       		.byte	0x1
 1818 02e9 EF01     		.2byte	0x1ef
 1819 02eb 12       		.byte	0x12
 1820 02ec A8000000 		.4byte	0xa8
 1821 02f0 6802     		.2byte	0x268
 1822 02f2 02       		.uleb128 0x2
 1823 02f3 AE060000 		.4byte	.LASF51
 1824 02f7 01       		.byte	0x1
ARM GAS  C:\Users\DEVELO~1\AppData\Local\Temp\cc43K8rk.s 			page 33


 1825 02f8 F001     		.2byte	0x1f0
 1826 02fa 12       		.byte	0x12
 1827 02fb A8000000 		.4byte	0xa8
 1828 02ff 6C02     		.2byte	0x26c
 1829 0301 02       		.uleb128 0x2
 1830 0302 AE050000 		.4byte	.LASF52
 1831 0306 01       		.byte	0x1
 1832 0307 F101     		.2byte	0x1f1
 1833 0309 12       		.byte	0x12
 1834 030a A8000000 		.4byte	0xa8
 1835 030e 7002     		.2byte	0x270
 1836 0310 02       		.uleb128 0x2
 1837 0311 C7020000 		.4byte	.LASF53
 1838 0315 01       		.byte	0x1
 1839 0316 F201     		.2byte	0x1f2
 1840 0318 12       		.byte	0x12
 1841 0319 A8000000 		.4byte	0xa8
 1842 031d 7402     		.2byte	0x274
 1843 031f 02       		.uleb128 0x2
 1844 0320 6F050000 		.4byte	.LASF54
 1845 0324 01       		.byte	0x1
 1846 0325 F301     		.2byte	0x1f3
 1847 0327 12       		.byte	0x12
 1848 0328 2B040000 		.4byte	0x42b
 1849 032c 7802     		.2byte	0x278
 1850 032e 02       		.uleb128 0x2
 1851 032f C6030000 		.4byte	.LASF55
 1852 0333 01       		.byte	0x1
 1853 0334 F401     		.2byte	0x1f4
 1854 0336 12       		.byte	0x12
 1855 0337 A8000000 		.4byte	0xa8
 1856 033b 9002     		.2byte	0x290
 1857 033d 02       		.uleb128 0x2
 1858 033e 47070000 		.4byte	.LASF56
 1859 0342 01       		.byte	0x1
 1860 0343 F501     		.2byte	0x1f5
 1861 0345 12       		.byte	0x12
 1862 0346 A8000000 		.4byte	0xa8
 1863 034a 9402     		.2byte	0x294
 1864 034c 02       		.uleb128 0x2
 1865 034d F3040000 		.4byte	.LASF57
 1866 0351 01       		.byte	0x1
 1867 0352 F601     		.2byte	0x1f6
 1868 0354 12       		.byte	0x12
 1869 0355 A8000000 		.4byte	0xa8
 1870 0359 9802     		.2byte	0x298
 1871 035b 02       		.uleb128 0x2
 1872 035c 89020000 		.4byte	.LASF58
 1873 0360 01       		.byte	0x1
 1874 0361 F701     		.2byte	0x1f7
 1875 0363 12       		.byte	0x12
 1876 0364 A8000000 		.4byte	0xa8
 1877 0368 9C02     		.2byte	0x29c
 1878 036a 02       		.uleb128 0x2
 1879 036b 12000000 		.4byte	.LASF59
 1880 036f 01       		.byte	0x1
 1881 0370 F801     		.2byte	0x1f8
ARM GAS  C:\Users\DEVELO~1\AppData\Local\Temp\cc43K8rk.s 			page 34


 1882 0372 12       		.byte	0x12
 1883 0373 A8000000 		.4byte	0xa8
 1884 0377 A002     		.2byte	0x2a0
 1885 0379 02       		.uleb128 0x2
 1886 037a 79050000 		.4byte	.LASF60
 1887 037e 01       		.byte	0x1
 1888 037f F901     		.2byte	0x1f9
 1889 0381 12       		.byte	0x12
 1890 0382 FB030000 		.4byte	0x3fb
 1891 0386 A402     		.2byte	0x2a4
 1892 0388 02       		.uleb128 0x2
 1893 0389 05040000 		.4byte	.LASF61
 1894 038d 01       		.byte	0x1
 1895 038e FA01     		.2byte	0x1fa
 1896 0390 12       		.byte	0x12
 1897 0391 A8000000 		.4byte	0xa8
 1898 0395 A802     		.2byte	0x2a8
 1899 0397 00       		.byte	0
 1900 0398 05       		.uleb128 0x5
 1901 0399 97000000 		.4byte	0x97
 1902 039d A8030000 		.4byte	0x3a8
 1903 03a1 06       		.uleb128 0x6
 1904 03a2 2D000000 		.4byte	0x2d
 1905 03a6 0B       		.byte	0xb
 1906 03a7 00       		.byte	0
 1907 03a8 09       		.uleb128 0x9
 1908 03a9 98030000 		.4byte	0x398
 1909 03ad 05       		.uleb128 0x5
 1910 03ae AD000000 		.4byte	0xad
 1911 03b2 BD030000 		.4byte	0x3bd
 1912 03b6 06       		.uleb128 0x6
 1913 03b7 2D000000 		.4byte	0x2d
 1914 03bb 01       		.byte	0x1
 1915 03bc 00       		.byte	0
 1916 03bd 0D       		.uleb128 0xd
 1917 03be AD030000 		.4byte	0x3ad
 1918 03c2 09       		.uleb128 0x9
 1919 03c3 BD030000 		.4byte	0x3bd
 1920 03c7 05       		.uleb128 0x5
 1921 03c8 AD000000 		.4byte	0xad
 1922 03cc D7030000 		.4byte	0x3d7
 1923 03d0 06       		.uleb128 0x6
 1924 03d1 2D000000 		.4byte	0x2d
 1925 03d5 03       		.byte	0x3
 1926 03d6 00       		.byte	0
 1927 03d7 0D       		.uleb128 0xd
 1928 03d8 C7030000 		.4byte	0x3c7
 1929 03dc 09       		.uleb128 0x9
 1930 03dd D7030000 		.4byte	0x3d7
 1931 03e1 05       		.uleb128 0x5
 1932 03e2 AD000000 		.4byte	0xad
 1933 03e6 F1030000 		.4byte	0x3f1
 1934 03ea 06       		.uleb128 0x6
 1935 03eb 2D000000 		.4byte	0x2d
 1936 03ef 04       		.byte	0x4
 1937 03f0 00       		.byte	0
 1938 03f1 0D       		.uleb128 0xd
ARM GAS  C:\Users\DEVELO~1\AppData\Local\Temp\cc43K8rk.s 			page 35


 1939 03f2 E1030000 		.4byte	0x3e1
 1940 03f6 09       		.uleb128 0x9
 1941 03f7 F1030000 		.4byte	0x3f1
 1942 03fb 05       		.uleb128 0x5
 1943 03fc 9C000000 		.4byte	0x9c
 1944 0400 0B040000 		.4byte	0x40b
 1945 0404 06       		.uleb128 0x6
 1946 0405 2D000000 		.4byte	0x2d
 1947 0409 00       		.byte	0
 1948 040a 00       		.byte	0
 1949 040b 05       		.uleb128 0x5
 1950 040c 9C000000 		.4byte	0x9c
 1951 0410 1B040000 		.4byte	0x41b
 1952 0414 06       		.uleb128 0x6
 1953 0415 2D000000 		.4byte	0x2d
 1954 0419 5C       		.byte	0x5c
 1955 041a 00       		.byte	0
 1956 041b 05       		.uleb128 0x5
 1957 041c 9C000000 		.4byte	0x9c
 1958 0420 2B040000 		.4byte	0x42b
 1959 0424 06       		.uleb128 0x6
 1960 0425 2D000000 		.4byte	0x2d
 1961 0429 0E       		.byte	0xe
 1962 042a 00       		.byte	0
 1963 042b 05       		.uleb128 0x5
 1964 042c 9C000000 		.4byte	0x9c
 1965 0430 3B040000 		.4byte	0x43b
 1966 0434 06       		.uleb128 0x6
 1967 0435 2D000000 		.4byte	0x2d
 1968 0439 05       		.byte	0x5
 1969 043a 00       		.byte	0
 1970 043b 0B       		.uleb128 0xb
 1971 043c 4B000000 		.4byte	.LASF62
 1972 0440 01       		.byte	0x1
 1973 0441 FB01     		.2byte	0x1fb
 1974 0443 B9000000 		.4byte	0xb9
 1975 0447 05       		.uleb128 0x5
 1976 0448 9C000000 		.4byte	0x9c
 1977 044c 57040000 		.4byte	0x457
 1978 0450 06       		.uleb128 0x6
 1979 0451 2D000000 		.4byte	0x2d
 1980 0455 01       		.byte	0x1
 1981 0456 00       		.byte	0
 1982 0457 11       		.uleb128 0x11
 1983 0458 01       		.byte	0x1
 1984 0459 9405     		.2byte	0x594
 1985 045b FA040000 		.4byte	0x4fa
 1986 045f 01       		.uleb128 0x1
 1987 0460 B4060000 		.4byte	.LASF63
 1988 0464 01       		.byte	0x1
 1989 0465 9605     		.2byte	0x596
 1990 0467 12       		.byte	0x12
 1991 0468 AD000000 		.4byte	0xad
 1992 046c 00       		.byte	0
 1993 046d 01       		.uleb128 0x1
 1994 046e EB060000 		.4byte	.LASF64
 1995 0472 01       		.byte	0x1
ARM GAS  C:\Users\DEVELO~1\AppData\Local\Temp\cc43K8rk.s 			page 36


 1996 0473 9705     		.2byte	0x597
 1997 0475 12       		.byte	0x12
 1998 0476 A8000000 		.4byte	0xa8
 1999 047a 04       		.byte	0x4
 2000 047b 03       		.uleb128 0x3
 2001 047c 524E5200 		.ascii	"RNR\000"
 2002 0480 01       		.byte	0x1
 2003 0481 9805     		.2byte	0x598
 2004 0483 12       		.byte	0x12
 2005 0484 A8000000 		.4byte	0xa8
 2006 0488 08       		.byte	0x8
 2007 0489 01       		.uleb128 0x1
 2008 048a D1010000 		.4byte	.LASF65
 2009 048e 01       		.byte	0x1
 2010 048f 9905     		.2byte	0x599
 2011 0491 12       		.byte	0x12
 2012 0492 A8000000 		.4byte	0xa8
 2013 0496 0C       		.byte	0xc
 2014 0497 01       		.uleb128 0x1
 2015 0498 96060000 		.4byte	.LASF66
 2016 049c 01       		.byte	0x1
 2017 049d 9A05     		.2byte	0x59a
 2018 049f 12       		.byte	0x12
 2019 04a0 A8000000 		.4byte	0xa8
 2020 04a4 10       		.byte	0x10
 2021 04a5 01       		.uleb128 0x1
 2022 04a6 B9010000 		.4byte	.LASF67
 2023 04aa 01       		.byte	0x1
 2024 04ab 9B05     		.2byte	0x59b
 2025 04ad 12       		.byte	0x12
 2026 04ae A8000000 		.4byte	0xa8
 2027 04b2 14       		.byte	0x14
 2028 04b3 01       		.uleb128 0x1
 2029 04b4 DC000000 		.4byte	.LASF68
 2030 04b8 01       		.byte	0x1
 2031 04b9 9C05     		.2byte	0x59c
 2032 04bb 12       		.byte	0x12
 2033 04bc A8000000 		.4byte	0xa8
 2034 04c0 18       		.byte	0x18
 2035 04c1 01       		.uleb128 0x1
 2036 04c2 C1010000 		.4byte	.LASF69
 2037 04c6 01       		.byte	0x1
 2038 04c7 9D05     		.2byte	0x59d
 2039 04c9 12       		.byte	0x12
 2040 04ca A8000000 		.4byte	0xa8
 2041 04ce 1C       		.byte	0x1c
 2042 04cf 01       		.uleb128 0x1
 2043 04d0 E4000000 		.4byte	.LASF70
 2044 04d4 01       		.byte	0x1
 2045 04d5 9E05     		.2byte	0x59e
 2046 04d7 12       		.byte	0x12
 2047 04d8 A8000000 		.4byte	0xa8
 2048 04dc 20       		.byte	0x20
 2049 04dd 01       		.uleb128 0x1
 2050 04de C9010000 		.4byte	.LASF71
 2051 04e2 01       		.byte	0x1
 2052 04e3 9F05     		.2byte	0x59f
ARM GAS  C:\Users\DEVELO~1\AppData\Local\Temp\cc43K8rk.s 			page 37


 2053 04e5 12       		.byte	0x12
 2054 04e6 A8000000 		.4byte	0xa8
 2055 04ea 24       		.byte	0x24
 2056 04eb 01       		.uleb128 0x1
 2057 04ec EC000000 		.4byte	.LASF72
 2058 04f0 01       		.byte	0x1
 2059 04f1 A005     		.2byte	0x5a0
 2060 04f3 12       		.byte	0x12
 2061 04f4 A8000000 		.4byte	0xa8
 2062 04f8 28       		.byte	0x28
 2063 04f9 00       		.byte	0
 2064 04fa 0B       		.uleb128 0xb
 2065 04fb 75070000 		.4byte	.LASF73
 2066 04ff 01       		.byte	0x1
 2067 0500 A105     		.2byte	0x5a1
 2068 0502 57040000 		.4byte	0x457
 2069 0506 1A       		.uleb128 0x1a
 2070 0507 AA020000 		.4byte	.LASF202
 2071 050b 0A       		.byte	0xa
 2072 050c 39       		.byte	0x39
 2073 050d 11       		.byte	0x11
 2074 050e 9C000000 		.4byte	0x9c
 2075 0512 05       		.uleb128 0x5
 2076 0513 9C000000 		.4byte	0x9c
 2077 0517 22050000 		.4byte	0x522
 2078 051b 06       		.uleb128 0x6
 2079 051c 2D000000 		.4byte	0x2d
 2080 0520 03       		.byte	0x3
 2081 0521 00       		.byte	0
 2082 0522 05       		.uleb128 0x5
 2083 0523 9C000000 		.4byte	0x9c
 2084 0527 32050000 		.4byte	0x532
 2085 052b 06       		.uleb128 0x6
 2086 052c 2D000000 		.4byte	0x2d
 2087 0530 08       		.byte	0x8
 2088 0531 00       		.byte	0
 2089 0532 0E       		.uleb128 0xe
 2090 0533 6401     		.2byte	0x164
 2091 0535 07       		.byte	0x7
 2092 0536 9303     		.2byte	0x393
 2093 0538 A5070000 		.4byte	0x7a5
 2094 053c 03       		.uleb128 0x3
 2095 053d 41435200 		.ascii	"ACR\000"
 2096 0541 07       		.byte	0x7
 2097 0542 9503     		.2byte	0x395
 2098 0544 11       		.byte	0x11
 2099 0545 A8000000 		.4byte	0xa8
 2100 0549 00       		.byte	0
 2101 054a 01       		.uleb128 0x1
 2102 054b C3060000 		.4byte	.LASF74
 2103 054f 07       		.byte	0x7
 2104 0550 9603     		.2byte	0x396
 2105 0552 11       		.byte	0x11
 2106 0553 A8000000 		.4byte	0xa8
 2107 0557 04       		.byte	0x4
 2108 0558 01       		.uleb128 0x1
 2109 0559 D6010000 		.4byte	.LASF75
ARM GAS  C:\Users\DEVELO~1\AppData\Local\Temp\cc43K8rk.s 			page 38


 2110 055d 07       		.byte	0x7
 2111 055e 9703     		.2byte	0x397
 2112 0560 11       		.byte	0x11
 2113 0561 A8000000 		.4byte	0xa8
 2114 0565 08       		.byte	0x8
 2115 0566 03       		.uleb128 0x3
 2116 0567 43523100 		.ascii	"CR1\000"
 2117 056b 07       		.byte	0x7
 2118 056c 9803     		.2byte	0x398
 2119 056e 11       		.byte	0x11
 2120 056f A8000000 		.4byte	0xa8
 2121 0573 0C       		.byte	0xc
 2122 0574 03       		.uleb128 0x3
 2123 0575 53523100 		.ascii	"SR1\000"
 2124 0579 07       		.byte	0x7
 2125 057a 9903     		.2byte	0x399
 2126 057c 11       		.byte	0x11
 2127 057d A8000000 		.4byte	0xa8
 2128 0581 10       		.byte	0x10
 2129 0582 01       		.uleb128 0x1
 2130 0583 18070000 		.4byte	.LASF76
 2131 0587 07       		.byte	0x7
 2132 0588 9A03     		.2byte	0x39a
 2133 058a 11       		.byte	0x11
 2134 058b A8000000 		.4byte	0xa8
 2135 058f 14       		.byte	0x14
 2136 0590 01       		.uleb128 0x1
 2137 0591 68000000 		.4byte	.LASF77
 2138 0595 07       		.byte	0x7
 2139 0596 9B03     		.2byte	0x39b
 2140 0598 11       		.byte	0x11
 2141 0599 A8000000 		.4byte	0xa8
 2142 059d 18       		.byte	0x18
 2143 059e 01       		.uleb128 0x1
 2144 059f A3040000 		.4byte	.LASF78
 2145 05a3 07       		.byte	0x7
 2146 05a4 9C03     		.2byte	0x39c
 2147 05a6 11       		.byte	0x11
 2148 05a7 A8000000 		.4byte	0xa8
 2149 05ab 1C       		.byte	0x1c
 2150 05ac 01       		.uleb128 0x1
 2151 05ad 9B060000 		.4byte	.LASF79
 2152 05b1 07       		.byte	0x7
 2153 05b2 9D03     		.2byte	0x39d
 2154 05b4 11       		.byte	0x11
 2155 05b5 A8000000 		.4byte	0xa8
 2156 05b9 20       		.byte	0x20
 2157 05ba 01       		.uleb128 0x1
 2158 05bb 65010000 		.4byte	.LASF80
 2159 05bf 07       		.byte	0x7
 2160 05c0 9E03     		.2byte	0x39e
 2161 05c2 11       		.byte	0x11
 2162 05c3 A8000000 		.4byte	0xa8
 2163 05c7 24       		.byte	0x24
 2164 05c8 01       		.uleb128 0x1
 2165 05c9 D3030000 		.4byte	.LASF81
 2166 05cd 07       		.byte	0x7
ARM GAS  C:\Users\DEVELO~1\AppData\Local\Temp\cc43K8rk.s 			page 39


 2167 05ce 9F03     		.2byte	0x39f
 2168 05d0 11       		.byte	0x11
 2169 05d1 A8000000 		.4byte	0xa8
 2170 05d5 28       		.byte	0x28
 2171 05d6 01       		.uleb128 0x1
 2172 05d7 6E000000 		.4byte	.LASF82
 2173 05db 07       		.byte	0x7
 2174 05dc A003     		.2byte	0x3a0
 2175 05de 11       		.byte	0x11
 2176 05df A8000000 		.4byte	0xa8
 2177 05e3 2C       		.byte	0x2c
 2178 05e4 01       		.uleb128 0x1
 2179 05e5 DE010000 		.4byte	.LASF83
 2180 05e9 07       		.byte	0x7
 2181 05ea A103     		.2byte	0x3a1
 2182 05ec 11       		.byte	0x11
 2183 05ed A8000000 		.4byte	0xa8
 2184 05f1 30       		.byte	0x30
 2185 05f2 01       		.uleb128 0x1
 2186 05f3 26040000 		.4byte	.LASF84
 2187 05f7 07       		.byte	0x7
 2188 05f8 A203     		.2byte	0x3a2
 2189 05fa 11       		.byte	0x11
 2190 05fb A8000000 		.4byte	0xa8
 2191 05ff 34       		.byte	0x34
 2192 0600 01       		.uleb128 0x1
 2193 0601 F9060000 		.4byte	.LASF85
 2194 0605 07       		.byte	0x7
 2195 0606 A303     		.2byte	0x3a3
 2196 0608 11       		.byte	0x11
 2197 0609 A8000000 		.4byte	0xa8
 2198 060d 38       		.byte	0x38
 2199 060e 01       		.uleb128 0x1
 2200 060f 57040000 		.4byte	.LASF86
 2201 0613 07       		.byte	0x7
 2202 0614 A403     		.2byte	0x3a4
 2203 0616 11       		.byte	0x11
 2204 0617 A8000000 		.4byte	0xa8
 2205 061b 3C       		.byte	0x3c
 2206 061c 01       		.uleb128 0x1
 2207 061d 27010000 		.4byte	.LASF87
 2208 0621 07       		.byte	0x7
 2209 0622 A503     		.2byte	0x3a5
 2210 0624 11       		.byte	0x11
 2211 0625 A8000000 		.4byte	0xa8
 2212 0629 40       		.byte	0x40
 2213 062a 01       		.uleb128 0x1
 2214 062b E5020000 		.4byte	.LASF88
 2215 062f 07       		.byte	0x7
 2216 0630 A603     		.2byte	0x3a6
 2217 0632 11       		.byte	0x11
 2218 0633 A8000000 		.4byte	0xa8
 2219 0637 44       		.byte	0x44
 2220 0638 01       		.uleb128 0x1
 2221 0639 2E050000 		.4byte	.LASF32
 2222 063d 07       		.byte	0x7
 2223 063e A703     		.2byte	0x3a7
ARM GAS  C:\Users\DEVELO~1\AppData\Local\Temp\cc43K8rk.s 			page 40


 2224 0640 11       		.byte	0x11
 2225 0641 47040000 		.4byte	0x447
 2226 0645 48       		.byte	0x48
 2227 0646 01       		.uleb128 0x1
 2228 0647 95040000 		.4byte	.LASF89
 2229 064b 07       		.byte	0x7
 2230 064c A803     		.2byte	0x3a8
 2231 064e 11       		.byte	0x11
 2232 064f A8000000 		.4byte	0xa8
 2233 0653 50       		.byte	0x50
 2234 0654 01       		.uleb128 0x1
 2235 0655 56070000 		.4byte	.LASF90
 2236 0659 07       		.byte	0x7
 2237 065a A903     		.2byte	0x3a9
 2238 065c 11       		.byte	0x11
 2239 065d A8000000 		.4byte	0xa8
 2240 0661 54       		.byte	0x54
 2241 0662 01       		.uleb128 0x1
 2242 0663 70040000 		.4byte	.LASF91
 2243 0667 07       		.byte	0x7
 2244 0668 AA03     		.2byte	0x3aa
 2245 066a 11       		.byte	0x11
 2246 066b A8000000 		.4byte	0xa8
 2247 066f 58       		.byte	0x58
 2248 0670 01       		.uleb128 0x1
 2249 0671 28000000 		.4byte	.LASF92
 2250 0675 07       		.byte	0x7
 2251 0676 AB03     		.2byte	0x3ab
 2252 0678 11       		.byte	0x11
 2253 0679 A8000000 		.4byte	0xa8
 2254 067d 5C       		.byte	0x5c
 2255 067e 01       		.uleb128 0x1
 2256 067f E4050000 		.4byte	.LASF93
 2257 0683 07       		.byte	0x7
 2258 0684 AC03     		.2byte	0x3ac
 2259 0686 11       		.byte	0x11
 2260 0687 A8000000 		.4byte	0xa8
 2261 068b 60       		.byte	0x60
 2262 068c 01       		.uleb128 0x1
 2263 068d 38050000 		.4byte	.LASF94
 2264 0691 07       		.byte	0x7
 2265 0692 AD03     		.2byte	0x3ad
 2266 0694 11       		.byte	0x11
 2267 0695 A5070000 		.4byte	0x7a5
 2268 0699 64       		.byte	0x64
 2269 069a 02       		.uleb128 0x2
 2270 069b D6060000 		.4byte	.LASF95
 2271 069f 07       		.byte	0x7
 2272 06a0 AE03     		.2byte	0x3ae
 2273 06a2 11       		.byte	0x11
 2274 06a3 A8000000 		.4byte	0xa8
 2275 06a7 0401     		.2byte	0x104
 2276 06a9 02       		.uleb128 0x2
 2277 06aa 13060000 		.4byte	.LASF96
 2278 06ae 07       		.byte	0x7
 2279 06af AF03     		.2byte	0x3af
 2280 06b1 11       		.byte	0x11
ARM GAS  C:\Users\DEVELO~1\AppData\Local\Temp\cc43K8rk.s 			page 41


 2281 06b2 9C000000 		.4byte	0x9c
 2282 06b6 0801     		.2byte	0x108
 2283 06b8 12       		.uleb128 0x12
 2284 06b9 43523200 		.ascii	"CR2\000"
 2285 06bd B003     		.2byte	0x3b0
 2286 06bf A8000000 		.4byte	0xa8
 2287 06c3 0C01     		.2byte	0x10c
 2288 06c5 12       		.uleb128 0x12
 2289 06c6 53523200 		.ascii	"SR2\000"
 2290 06ca B103     		.2byte	0x3b1
 2291 06cc A8000000 		.4byte	0xa8
 2292 06d0 1001     		.2byte	0x110
 2293 06d2 02       		.uleb128 0x2
 2294 06d3 1D070000 		.4byte	.LASF97
 2295 06d7 07       		.byte	0x7
 2296 06d8 B203     		.2byte	0x3b2
 2297 06da 11       		.byte	0x11
 2298 06db A8000000 		.4byte	0xa8
 2299 06df 1401     		.2byte	0x114
 2300 06e1 02       		.uleb128 0x2
 2301 06e2 4A050000 		.4byte	.LASF37
 2302 06e6 07       		.byte	0x7
 2303 06e7 B303     		.2byte	0x3b3
 2304 06e9 11       		.byte	0x11
 2305 06ea 12050000 		.4byte	0x512
 2306 06ee 1801     		.2byte	0x118
 2307 06f0 02       		.uleb128 0x2
 2308 06f1 DD030000 		.4byte	.LASF98
 2309 06f5 07       		.byte	0x7
 2310 06f6 B403     		.2byte	0x3b4
 2311 06f8 11       		.byte	0x11
 2312 06f9 A8000000 		.4byte	0xa8
 2313 06fd 2801     		.2byte	0x128
 2314 06ff 02       		.uleb128 0x2
 2315 0700 78000000 		.4byte	.LASF99
 2316 0704 07       		.byte	0x7
 2317 0705 B503     		.2byte	0x3b5
 2318 0707 11       		.byte	0x11
 2319 0708 A8000000 		.4byte	0xa8
 2320 070c 2C01     		.2byte	0x12c
 2321 070e 02       		.uleb128 0x2
 2322 070f F0010000 		.4byte	.LASF100
 2323 0713 07       		.byte	0x7
 2324 0714 B603     		.2byte	0x3b6
 2325 0716 11       		.byte	0x11
 2326 0717 A8000000 		.4byte	0xa8
 2327 071b 3001     		.2byte	0x130
 2328 071d 02       		.uleb128 0x2
 2329 071e 30040000 		.4byte	.LASF101
 2330 0722 07       		.byte	0x7
 2331 0723 B703     		.2byte	0x3b7
 2332 0725 11       		.byte	0x11
 2333 0726 A8000000 		.4byte	0xa8
 2334 072a 3401     		.2byte	0x134
 2335 072c 02       		.uleb128 0x2
 2336 072d 03070000 		.4byte	.LASF102
 2337 0731 07       		.byte	0x7
ARM GAS  C:\Users\DEVELO~1\AppData\Local\Temp\cc43K8rk.s 			page 42


 2338 0732 B803     		.2byte	0x3b8
 2339 0734 11       		.byte	0x11
 2340 0735 A8000000 		.4byte	0xa8
 2341 0739 3801     		.2byte	0x138
 2342 073b 02       		.uleb128 0x2
 2343 073c 61040000 		.4byte	.LASF103
 2344 0740 07       		.byte	0x7
 2345 0741 B903     		.2byte	0x3b9
 2346 0743 11       		.byte	0x11
 2347 0744 A8000000 		.4byte	0xa8
 2348 0748 3C01     		.2byte	0x13c
 2349 074a 02       		.uleb128 0x2
 2350 074b 2C060000 		.4byte	.LASF39
 2351 074f 07       		.byte	0x7
 2352 0750 BA03     		.2byte	0x3ba
 2353 0752 11       		.byte	0x11
 2354 0753 12050000 		.4byte	0x512
 2355 0757 4001     		.2byte	0x140
 2356 0759 02       		.uleb128 0x2
 2357 075a 9C040000 		.4byte	.LASF104
 2358 075e 07       		.byte	0x7
 2359 075f BB03     		.2byte	0x3bb
 2360 0761 11       		.byte	0x11
 2361 0762 A8000000 		.4byte	0xa8
 2362 0766 5001     		.2byte	0x150
 2363 0768 02       		.uleb128 0x2
 2364 0769 5F070000 		.4byte	.LASF105
 2365 076d 07       		.byte	0x7
 2366 076e BC03     		.2byte	0x3bc
 2367 0770 11       		.byte	0x11
 2368 0771 A8000000 		.4byte	0xa8
 2369 0775 5401     		.2byte	0x154
 2370 0777 02       		.uleb128 0x2
 2371 0778 79040000 		.4byte	.LASF106
 2372 077c 07       		.byte	0x7
 2373 077d BD03     		.2byte	0x3bd
 2374 077f 11       		.byte	0x11
 2375 0780 A8000000 		.4byte	0xa8
 2376 0784 5801     		.2byte	0x158
 2377 0786 02       		.uleb128 0x2
 2378 0787 8D010000 		.4byte	.LASF107
 2379 078b 07       		.byte	0x7
 2380 078c BE03     		.2byte	0x3be
 2381 078e 11       		.byte	0x11
 2382 078f A8000000 		.4byte	0xa8
 2383 0793 5C01     		.2byte	0x15c
 2384 0795 02       		.uleb128 0x2
 2385 0796 EC050000 		.4byte	.LASF108
 2386 079a 07       		.byte	0x7
 2387 079b BF03     		.2byte	0x3bf
 2388 079d 11       		.byte	0x11
 2389 079e A8000000 		.4byte	0xa8
 2390 07a2 6001     		.2byte	0x160
 2391 07a4 00       		.byte	0
 2392 07a5 05       		.uleb128 0x5
 2393 07a6 9C000000 		.4byte	0x9c
 2394 07aa B5070000 		.4byte	0x7b5
ARM GAS  C:\Users\DEVELO~1\AppData\Local\Temp\cc43K8rk.s 			page 43


 2395 07ae 06       		.uleb128 0x6
 2396 07af 2D000000 		.4byte	0x2d
 2397 07b3 27       		.byte	0x27
 2398 07b4 00       		.byte	0
 2399 07b5 0B       		.uleb128 0xb
 2400 07b6 3E010000 		.4byte	.LASF109
 2401 07ba 07       		.byte	0x7
 2402 07bb C003     		.2byte	0x3c0
 2403 07bd 32050000 		.4byte	0x532
 2404 07c1 11       		.uleb128 0x11
 2405 07c2 07       		.byte	0x7
 2406 07c3 BB04     		.2byte	0x4bb
 2407 07c5 64080000 		.4byte	0x864
 2408 07c9 03       		.uleb128 0x3
 2409 07ca 43523100 		.ascii	"CR1\000"
 2410 07ce 07       		.byte	0x7
 2411 07cf BD04     		.2byte	0x4bd
 2412 07d1 11       		.byte	0x11
 2413 07d2 A8000000 		.4byte	0xa8
 2414 07d6 00       		.byte	0
 2415 07d7 01       		.uleb128 0x1
 2416 07d8 9F070000 		.4byte	.LASF110
 2417 07dc 07       		.byte	0x7
 2418 07dd BE04     		.2byte	0x4be
 2419 07df 11       		.byte	0x11
 2420 07e0 A8000000 		.4byte	0xa8
 2421 07e4 04       		.byte	0x4
 2422 07e5 03       		.uleb128 0x3
 2423 07e6 43523200 		.ascii	"CR2\000"
 2424 07ea 07       		.byte	0x7
 2425 07eb BF04     		.2byte	0x4bf
 2426 07ed 11       		.byte	0x11
 2427 07ee A8000000 		.4byte	0xa8
 2428 07f2 08       		.byte	0x8
 2429 07f3 03       		.uleb128 0x3
 2430 07f4 43523300 		.ascii	"CR3\000"
 2431 07f8 07       		.byte	0x7
 2432 07f9 C004     		.2byte	0x4c0
 2433 07fb 11       		.byte	0x11
 2434 07fc A8000000 		.4byte	0xa8
 2435 0800 0C       		.byte	0xc
 2436 0801 01       		.uleb128 0x1
 2437 0802 CE020000 		.4byte	.LASF111
 2438 0806 07       		.byte	0x7
 2439 0807 C104     		.2byte	0x4c1
 2440 0809 11       		.byte	0x11
 2441 080a A8000000 		.4byte	0xa8
 2442 080e 10       		.byte	0x10
 2443 080f 01       		.uleb128 0x1
 2444 0810 2E050000 		.4byte	.LASF32
 2445 0814 07       		.byte	0x7
 2446 0815 C204     		.2byte	0x4c2
 2447 0817 11       		.byte	0x11
 2448 0818 9C000000 		.4byte	0x9c
 2449 081c 14       		.byte	0x14
 2450 081d 01       		.uleb128 0x1
 2451 081e 48060000 		.4byte	.LASF112
ARM GAS  C:\Users\DEVELO~1\AppData\Local\Temp\cc43K8rk.s 			page 44


 2452 0822 07       		.byte	0x7
 2453 0823 C304     		.2byte	0x4c3
 2454 0825 11       		.byte	0x11
 2455 0826 A8000000 		.4byte	0xa8
 2456 082a 18       		.byte	0x18
 2457 082b 01       		.uleb128 0x1
 2458 082c 38050000 		.4byte	.LASF94
 2459 0830 07       		.byte	0x7
 2460 0831 C404     		.2byte	0x4c4
 2461 0833 11       		.byte	0x11
 2462 0834 9C000000 		.4byte	0x9c
 2463 0838 1C       		.byte	0x1c
 2464 0839 01       		.uleb128 0x1
 2465 083a 30010000 		.4byte	.LASF113
 2466 083e 07       		.byte	0x7
 2467 083f C504     		.2byte	0x4c5
 2468 0841 11       		.byte	0x11
 2469 0842 A8000000 		.4byte	0xa8
 2470 0846 20       		.byte	0x20
 2471 0847 01       		.uleb128 0x1
 2472 0848 21000000 		.4byte	.LASF114
 2473 084c 07       		.byte	0x7
 2474 084d C604     		.2byte	0x4c6
 2475 084f 11       		.byte	0x11
 2476 0850 A8000000 		.4byte	0xa8
 2477 0854 24       		.byte	0x24
 2478 0855 01       		.uleb128 0x1
 2479 0856 A2020000 		.4byte	.LASF115
 2480 085a 07       		.byte	0x7
 2481 085b C704     		.2byte	0x4c7
 2482 085d 11       		.byte	0x11
 2483 085e A8000000 		.4byte	0xa8
 2484 0862 28       		.byte	0x28
 2485 0863 00       		.byte	0
 2486 0864 0B       		.uleb128 0xb
 2487 0865 14040000 		.4byte	.LASF116
 2488 0869 07       		.byte	0x7
 2489 086a C804     		.2byte	0x4c8
 2490 086c C1070000 		.4byte	0x7c1
 2491 0870 0E       		.uleb128 0xe
 2492 0871 3001     		.2byte	0x130
 2493 0873 07       		.byte	0x7
 2494 0874 CE04     		.2byte	0x4ce
 2495 0876 110C0000 		.4byte	0xc11
 2496 087a 03       		.uleb128 0x3
 2497 087b 435200   		.ascii	"CR\000"
 2498 087e 07       		.byte	0x7
 2499 087f D004     		.2byte	0x4d0
 2500 0881 10       		.byte	0x10
 2501 0882 A8000000 		.4byte	0xa8
 2502 0886 00       		.byte	0
 2503 0887 01       		.uleb128 0x1
 2504 0888 1F030000 		.4byte	.LASF117
 2505 088c 07       		.byte	0x7
 2506 088d D104     		.2byte	0x4d1
 2507 088f 10       		.byte	0x10
 2508 0890 A8000000 		.4byte	0xa8
ARM GAS  C:\Users\DEVELO~1\AppData\Local\Temp\cc43K8rk.s 			page 45


 2509 0894 04       		.byte	0x4
 2510 0895 01       		.uleb128 0x1
 2511 0896 0E020000 		.4byte	.LASF118
 2512 089a 07       		.byte	0x7
 2513 089b D204     		.2byte	0x4d2
 2514 089d 10       		.byte	0x10
 2515 089e A8000000 		.4byte	0xa8
 2516 08a2 08       		.byte	0x8
 2517 08a3 01       		.uleb128 0x1
 2518 08a4 DC060000 		.4byte	.LASF119
 2519 08a8 07       		.byte	0x7
 2520 08a9 D304     		.2byte	0x4d3
 2521 08ab 10       		.byte	0x10
 2522 08ac A8000000 		.4byte	0xa8
 2523 08b0 0C       		.byte	0xc
 2524 08b1 01       		.uleb128 0x1
 2525 08b2 86070000 		.4byte	.LASF120
 2526 08b6 07       		.byte	0x7
 2527 08b7 D404     		.2byte	0x4d4
 2528 08b9 10       		.byte	0x10
 2529 08ba A8000000 		.4byte	0xa8
 2530 08be 10       		.byte	0x10
 2531 08bf 01       		.uleb128 0x1
 2532 08c0 38050000 		.4byte	.LASF94
 2533 08c4 07       		.byte	0x7
 2534 08c5 D504     		.2byte	0x4d5
 2535 08c7 0F       		.byte	0xf
 2536 08c8 9C000000 		.4byte	0x9c
 2537 08cc 14       		.byte	0x14
 2538 08cd 01       		.uleb128 0x1
 2539 08ce 11080000 		.4byte	.LASF121
 2540 08d2 07       		.byte	0x7
 2541 08d3 D604     		.2byte	0x4d6
 2542 08d5 10       		.byte	0x10
 2543 08d6 A8000000 		.4byte	0xa8
 2544 08da 18       		.byte	0x18
 2545 08db 01       		.uleb128 0x1
 2546 08dc 54050000 		.4byte	.LASF122
 2547 08e0 07       		.byte	0x7
 2548 08e1 D704     		.2byte	0x4d7
 2549 08e3 10       		.byte	0x10
 2550 08e4 A8000000 		.4byte	0xa8
 2551 08e8 1C       		.byte	0x1c
 2552 08e9 01       		.uleb128 0x1
 2553 08ea FA010000 		.4byte	.LASF123
 2554 08ee 07       		.byte	0x7
 2555 08ef D804     		.2byte	0x4d8
 2556 08f1 10       		.byte	0x10
 2557 08f2 A8000000 		.4byte	0xa8
 2558 08f6 20       		.byte	0x20
 2559 08f7 01       		.uleb128 0x1
 2560 08f8 13060000 		.4byte	.LASF96
 2561 08fc 07       		.byte	0x7
 2562 08fd D904     		.2byte	0x4d9
 2563 08ff 0F       		.byte	0xf
 2564 0900 9C000000 		.4byte	0x9c
 2565 0904 24       		.byte	0x24
ARM GAS  C:\Users\DEVELO~1\AppData\Local\Temp\cc43K8rk.s 			page 46


 2566 0905 01       		.uleb128 0x1
 2567 0906 10030000 		.4byte	.LASF124
 2568 090a 07       		.byte	0x7
 2569 090b DA04     		.2byte	0x4da
 2570 090d 10       		.byte	0x10
 2571 090e A8000000 		.4byte	0xa8
 2572 0912 28       		.byte	0x28
 2573 0913 01       		.uleb128 0x1
 2574 0914 01020000 		.4byte	.LASF125
 2575 0918 07       		.byte	0x7
 2576 0919 DB04     		.2byte	0x4db
 2577 091b 10       		.byte	0x10
 2578 091c A8000000 		.4byte	0xa8
 2579 0920 2C       		.byte	0x2c
 2580 0921 01       		.uleb128 0x1
 2581 0922 52060000 		.4byte	.LASF126
 2582 0926 07       		.byte	0x7
 2583 0927 DC04     		.2byte	0x4dc
 2584 0929 10       		.byte	0x10
 2585 092a A8000000 		.4byte	0xa8
 2586 092e 30       		.byte	0x30
 2587 092f 01       		.uleb128 0x1
 2588 0930 96010000 		.4byte	.LASF127
 2589 0934 07       		.byte	0x7
 2590 0935 DD04     		.2byte	0x4dd
 2591 0937 10       		.byte	0x10
 2592 0938 A8000000 		.4byte	0xa8
 2593 093c 34       		.byte	0x34
 2594 093d 01       		.uleb128 0x1
 2595 093e 89050000 		.4byte	.LASF128
 2596 0942 07       		.byte	0x7
 2597 0943 DE04     		.2byte	0x4de
 2598 0945 10       		.byte	0x10
 2599 0946 A8000000 		.4byte	0xa8
 2600 094a 38       		.byte	0x38
 2601 094b 01       		.uleb128 0x1
 2602 094c 7F020000 		.4byte	.LASF129
 2603 0950 07       		.byte	0x7
 2604 0951 DF04     		.2byte	0x4df
 2605 0953 10       		.byte	0x10
 2606 0954 A8000000 		.4byte	0xa8
 2607 0958 3C       		.byte	0x3c
 2608 0959 01       		.uleb128 0x1
 2609 095a 19020000 		.4byte	.LASF130
 2610 095e 07       		.byte	0x7
 2611 095f E004     		.2byte	0x4e0
 2612 0961 10       		.byte	0x10
 2613 0962 A8000000 		.4byte	0xa8
 2614 0966 40       		.byte	0x40
 2615 0967 01       		.uleb128 0x1
 2616 0968 FB030000 		.4byte	.LASF131
 2617 096c 07       		.byte	0x7
 2618 096d E104     		.2byte	0x4e1
 2619 096f 10       		.byte	0x10
 2620 0970 A8000000 		.4byte	0xa8
 2621 0974 44       		.byte	0x44
 2622 0975 01       		.uleb128 0x1
ARM GAS  C:\Users\DEVELO~1\AppData\Local\Temp\cc43K8rk.s 			page 47


 2623 0976 4A050000 		.4byte	.LASF37
 2624 097a 07       		.byte	0x7
 2625 097b E204     		.2byte	0x4e2
 2626 097d 10       		.byte	0x10
 2627 097e 9C000000 		.4byte	0x9c
 2628 0982 48       		.byte	0x48
 2629 0983 01       		.uleb128 0x1
 2630 0984 5B060000 		.4byte	.LASF132
 2631 0988 07       		.byte	0x7
 2632 0989 E304     		.2byte	0x4e3
 2633 098b 11       		.byte	0x11
 2634 098c A8000000 		.4byte	0xa8
 2635 0990 4C       		.byte	0x4c
 2636 0991 01       		.uleb128 0x1
 2637 0992 32020000 		.4byte	.LASF133
 2638 0996 07       		.byte	0x7
 2639 0997 E404     		.2byte	0x4e4
 2640 0999 11       		.byte	0x11
 2641 099a A8000000 		.4byte	0xa8
 2642 099e 50       		.byte	0x50
 2643 099f 01       		.uleb128 0x1
 2644 09a0 EE020000 		.4byte	.LASF134
 2645 09a4 07       		.byte	0x7
 2646 09a5 E504     		.2byte	0x4e5
 2647 09a7 11       		.byte	0x11
 2648 09a8 A8000000 		.4byte	0xa8
 2649 09ac 54       		.byte	0x54
 2650 09ad 01       		.uleb128 0x1
 2651 09ae 40020000 		.4byte	.LASF135
 2652 09b2 07       		.byte	0x7
 2653 09b3 E604     		.2byte	0x4e6
 2654 09b5 11       		.byte	0x11
 2655 09b6 A8000000 		.4byte	0xa8
 2656 09ba 58       		.byte	0x58
 2657 09bb 01       		.uleb128 0x1
 2658 09bc 2C060000 		.4byte	.LASF39
 2659 09c0 07       		.byte	0x7
 2660 09c1 E704     		.2byte	0x4e7
 2661 09c3 10       		.byte	0x10
 2662 09c4 9C000000 		.4byte	0x9c
 2663 09c8 5C       		.byte	0x5c
 2664 09c9 01       		.uleb128 0x1
 2665 09ca 0B010000 		.4byte	.LASF136
 2666 09ce 07       		.byte	0x7
 2667 09cf E804     		.2byte	0x4e8
 2668 09d1 11       		.byte	0x11
 2669 09d2 A8000000 		.4byte	0xa8
 2670 09d6 60       		.byte	0x60
 2671 09d7 01       		.uleb128 0x1
 2672 09d8 14020000 		.4byte	.LASF137
 2673 09dc 07       		.byte	0x7
 2674 09dd E904     		.2byte	0x4e9
 2675 09df 11       		.byte	0x11
 2676 09e0 A8000000 		.4byte	0xa8
 2677 09e4 64       		.byte	0x64
 2678 09e5 01       		.uleb128 0x1
 2679 09e6 22070000 		.4byte	.LASF138
ARM GAS  C:\Users\DEVELO~1\AppData\Local\Temp\cc43K8rk.s 			page 48


 2680 09ea 07       		.byte	0x7
 2681 09eb EA04     		.2byte	0x4ea
 2682 09ed 11       		.byte	0x11
 2683 09ee A8000000 		.4byte	0xa8
 2684 09f2 68       		.byte	0x68
 2685 09f3 01       		.uleb128 0x1
 2686 09f4 5B050000 		.4byte	.LASF43
 2687 09f8 07       		.byte	0x7
 2688 09f9 EB04     		.2byte	0x4eb
 2689 09fb 0F       		.byte	0xf
 2690 09fc 9C000000 		.4byte	0x9c
 2691 0a00 6C       		.byte	0x6c
 2692 0a01 01       		.uleb128 0x1
 2693 0a02 C9060000 		.4byte	.LASF139
 2694 0a06 07       		.byte	0x7
 2695 0a07 EC04     		.2byte	0x4ec
 2696 0a09 11       		.byte	0x11
 2697 0a0a A8000000 		.4byte	0xa8
 2698 0a0e 70       		.byte	0x70
 2699 0a0f 03       		.uleb128 0x3
 2700 0a10 43535200 		.ascii	"CSR\000"
 2701 0a14 07       		.byte	0x7
 2702 0a15 ED04     		.2byte	0x4ed
 2703 0a17 11       		.byte	0x11
 2704 0a18 A8000000 		.4byte	0xa8
 2705 0a1c 74       		.byte	0x74
 2706 0a1d 01       		.uleb128 0x1
 2707 0a1e 65050000 		.4byte	.LASF45
 2708 0a22 07       		.byte	0x7
 2709 0a23 EE04     		.2byte	0x4ee
 2710 0a25 0F       		.byte	0xf
 2711 0a26 9C000000 		.4byte	0x9c
 2712 0a2a 78       		.byte	0x78
 2713 0a2b 01       		.uleb128 0x1
 2714 0a2c 02060000 		.4byte	.LASF140
 2715 0a30 07       		.byte	0x7
 2716 0a31 EF04     		.2byte	0x4ef
 2717 0a33 10       		.byte	0x10
 2718 0a34 A8000000 		.4byte	0xa8
 2719 0a38 7C       		.byte	0x7c
 2720 0a39 01       		.uleb128 0x1
 2721 0a3a F0060000 		.4byte	.LASF141
 2722 0a3e 07       		.byte	0x7
 2723 0a3f F004     		.2byte	0x4f0
 2724 0a41 10       		.byte	0x10
 2725 0a42 A8000000 		.4byte	0xa8
 2726 0a46 80       		.byte	0x80
 2727 0a47 01       		.uleb128 0x1
 2728 0a48 A5060000 		.4byte	.LASF142
 2729 0a4c 07       		.byte	0x7
 2730 0a4d F104     		.2byte	0x4f1
 2731 0a4f 10       		.byte	0x10
 2732 0a50 A8000000 		.4byte	0xa8
 2733 0a54 84       		.byte	0x84
 2734 0a55 01       		.uleb128 0x1
 2735 0a56 10010000 		.4byte	.LASF143
 2736 0a5a 07       		.byte	0x7
ARM GAS  C:\Users\DEVELO~1\AppData\Local\Temp\cc43K8rk.s 			page 49


 2737 0a5b F204     		.2byte	0x4f2
 2738 0a5d 10       		.byte	0x10
 2739 0a5e A8000000 		.4byte	0xa8
 2740 0a62 88       		.byte	0x88
 2741 0a63 01       		.uleb128 0x1
 2742 0a64 36060000 		.4byte	.LASF144
 2743 0a68 07       		.byte	0x7
 2744 0a69 F304     		.2byte	0x4f3
 2745 0a6b 10       		.byte	0x10
 2746 0a6c A8000000 		.4byte	0xa8
 2747 0a70 8C       		.byte	0x8c
 2748 0a71 01       		.uleb128 0x1
 2749 0a72 E7030000 		.4byte	.LASF145
 2750 0a76 07       		.byte	0x7
 2751 0a77 F404     		.2byte	0x4f4
 2752 0a79 10       		.byte	0x10
 2753 0a7a A8000000 		.4byte	0xa8
 2754 0a7e 90       		.byte	0x90
 2755 0a7f 01       		.uleb128 0x1
 2756 0a80 8B040000 		.4byte	.LASF146
 2757 0a84 07       		.byte	0x7
 2758 0a85 F504     		.2byte	0x4f5
 2759 0a87 10       		.byte	0x10
 2760 0a88 A8000000 		.4byte	0xa8
 2761 0a8c 94       		.byte	0x94
 2762 0a8d 01       		.uleb128 0x1
 2763 0a8e A0010000 		.4byte	.LASF147
 2764 0a92 07       		.byte	0x7
 2765 0a93 F604     		.2byte	0x4f6
 2766 0a95 10       		.byte	0x10
 2767 0a96 A8000000 		.4byte	0xa8
 2768 0a9a 98       		.byte	0x98
 2769 0a9b 01       		.uleb128 0x1
 2770 0a9c 0B040000 		.4byte	.LASF148
 2771 0aa0 07       		.byte	0x7
 2772 0aa1 F704     		.2byte	0x4f7
 2773 0aa3 10       		.byte	0x10
 2774 0aa4 A8000000 		.4byte	0xa8
 2775 0aa8 9C       		.byte	0x9c
 2776 0aa9 03       		.uleb128 0x3
 2777 0aaa 47435200 		.ascii	"GCR\000"
 2778 0aae 07       		.byte	0x7
 2779 0aaf F804     		.2byte	0x4f8
 2780 0ab1 10       		.byte	0x10
 2781 0ab2 A8000000 		.4byte	0xa8
 2782 0ab6 A0       		.byte	0xa0
 2783 0ab7 01       		.uleb128 0x1
 2784 0ab8 79050000 		.4byte	.LASF60
 2785 0abc 07       		.byte	0x7
 2786 0abd F904     		.2byte	0x4f9
 2787 0abf 0F       		.byte	0xf
 2788 0ac0 9C000000 		.4byte	0x9c
 2789 0ac4 A4       		.byte	0xa4
 2790 0ac5 01       		.uleb128 0x1
 2791 0ac6 C7000000 		.4byte	.LASF149
 2792 0aca 07       		.byte	0x7
 2793 0acb FA04     		.2byte	0x4fa
ARM GAS  C:\Users\DEVELO~1\AppData\Local\Temp\cc43K8rk.s 			page 50


 2794 0acd 10       		.byte	0x10
 2795 0ace A8000000 		.4byte	0xa8
 2796 0ad2 A8       		.byte	0xa8
 2797 0ad3 01       		.uleb128 0x1
 2798 0ad4 6C010000 		.4byte	.LASF150
 2799 0ad8 07       		.byte	0x7
 2800 0ad9 FB04     		.2byte	0x4fb
 2801 0adb 0F       		.byte	0xf
 2802 0adc 22050000 		.4byte	0x522
 2803 0ae0 AC       		.byte	0xac
 2804 0ae1 03       		.uleb128 0x3
 2805 0ae2 52535200 		.ascii	"RSR\000"
 2806 0ae6 07       		.byte	0x7
 2807 0ae7 FC04     		.2byte	0x4fc
 2808 0ae9 10       		.byte	0x10
 2809 0aea A8000000 		.4byte	0xa8
 2810 0aee D0       		.byte	0xd0
 2811 0aef 01       		.uleb128 0x1
 2812 0af0 0B060000 		.4byte	.LASF151
 2813 0af4 07       		.byte	0x7
 2814 0af5 FD04     		.2byte	0x4fd
 2815 0af7 10       		.byte	0x10
 2816 0af8 A8000000 		.4byte	0xa8
 2817 0afc D4       		.byte	0xd4
 2818 0afd 01       		.uleb128 0x1
 2819 0afe 7E070000 		.4byte	.LASF152
 2820 0b02 07       		.byte	0x7
 2821 0b03 FE04     		.2byte	0x4fe
 2822 0b05 10       		.byte	0x10
 2823 0b06 A8000000 		.4byte	0xa8
 2824 0b0a D8       		.byte	0xd8
 2825 0b0b 01       		.uleb128 0x1
 2826 0b0c 19000000 		.4byte	.LASF153
 2827 0b10 07       		.byte	0x7
 2828 0b11 FF04     		.2byte	0x4ff
 2829 0b13 10       		.byte	0x10
 2830 0b14 A8000000 		.4byte	0xa8
 2831 0b18 DC       		.byte	0xdc
 2832 0b19 01       		.uleb128 0x1
 2833 0b1a A0050000 		.4byte	.LASF154
 2834 0b1e 07       		.byte	0x7
 2835 0b1f 0005     		.2byte	0x500
 2836 0b21 10       		.byte	0x10
 2837 0b22 A8000000 		.4byte	0xa8
 2838 0b26 E0       		.byte	0xe0
 2839 0b27 01       		.uleb128 0x1
 2840 0b28 0C050000 		.4byte	.LASF155
 2841 0b2c 07       		.byte	0x7
 2842 0b2d 0105     		.2byte	0x501
 2843 0b2f 10       		.byte	0x10
 2844 0b30 A8000000 		.4byte	0xa8
 2845 0b34 E4       		.byte	0xe4
 2846 0b35 01       		.uleb128 0x1
 2847 0b36 96070000 		.4byte	.LASF156
 2848 0b3a 07       		.byte	0x7
 2849 0b3b 0205     		.2byte	0x502
 2850 0b3d 10       		.byte	0x10
ARM GAS  C:\Users\DEVELO~1\AppData\Local\Temp\cc43K8rk.s 			page 51


 2851 0b3e A8000000 		.4byte	0xa8
 2852 0b42 E8       		.byte	0xe8
 2853 0b43 01       		.uleb128 0x1
 2854 0b44 BD030000 		.4byte	.LASF157
 2855 0b48 07       		.byte	0x7
 2856 0b49 0305     		.2byte	0x503
 2857 0b4b 10       		.byte	0x10
 2858 0b4c A8000000 		.4byte	0xa8
 2859 0b50 EC       		.byte	0xec
 2860 0b51 01       		.uleb128 0x1
 2861 0b52 FA050000 		.4byte	.LASF158
 2862 0b56 07       		.byte	0x7
 2863 0b57 0405     		.2byte	0x504
 2864 0b59 10       		.byte	0x10
 2865 0b5a A8000000 		.4byte	0xa8
 2866 0b5e F0       		.byte	0xf0
 2867 0b5f 01       		.uleb128 0x1
 2868 0b60 3A040000 		.4byte	.LASF159
 2869 0b64 07       		.byte	0x7
 2870 0b65 0505     		.2byte	0x505
 2871 0b67 10       		.byte	0x10
 2872 0b68 A8000000 		.4byte	0xa8
 2873 0b6c F4       		.byte	0xf4
 2874 0b6d 01       		.uleb128 0x1
 2875 0b6e 77010000 		.4byte	.LASF160
 2876 0b72 07       		.byte	0x7
 2877 0b73 0605     		.2byte	0x506
 2878 0b75 10       		.byte	0x10
 2879 0b76 9C000000 		.4byte	0x9c
 2880 0b7a F8       		.byte	0xf8
 2881 0b7b 01       		.uleb128 0x1
 2882 0b7c C8050000 		.4byte	.LASF161
 2883 0b80 07       		.byte	0x7
 2884 0b81 0705     		.2byte	0x507
 2885 0b83 10       		.byte	0x10
 2886 0b84 A8000000 		.4byte	0xa8
 2887 0b88 FC       		.byte	0xfc
 2888 0b89 02       		.uleb128 0x2
 2889 0b8a 01010000 		.4byte	.LASF162
 2890 0b8e 07       		.byte	0x7
 2891 0b8f 0805     		.2byte	0x508
 2892 0b91 10       		.byte	0x10
 2893 0b92 A8000000 		.4byte	0xa8
 2894 0b96 0001     		.2byte	0x100
 2895 0b98 02       		.uleb128 0x2
 2896 0b99 E9040000 		.4byte	.LASF163
 2897 0b9d 07       		.byte	0x7
 2898 0b9e 0905     		.2byte	0x509
 2899 0ba0 10       		.byte	0x10
 2900 0ba1 A8000000 		.4byte	0xa8
 2901 0ba5 0401     		.2byte	0x104
 2902 0ba7 02       		.uleb128 0x2
 2903 0ba8 B9060000 		.4byte	.LASF164
 2904 0bac 07       		.byte	0x7
 2905 0bad 0A05     		.2byte	0x50a
 2906 0baf 10       		.byte	0x10
 2907 0bb0 A8000000 		.4byte	0xa8
ARM GAS  C:\Users\DEVELO~1\AppData\Local\Temp\cc43K8rk.s 			page 52


 2908 0bb4 0801     		.2byte	0x108
 2909 0bb6 02       		.uleb128 0x2
 2910 0bb7 FA040000 		.4byte	.LASF165
 2911 0bbb 07       		.byte	0x7
 2912 0bbc 0B05     		.2byte	0x50b
 2913 0bbe 10       		.byte	0x10
 2914 0bbf A8000000 		.4byte	0xa8
 2915 0bc3 0C01     		.2byte	0x10c
 2916 0bc5 02       		.uleb128 0x2
 2917 0bc6 0D070000 		.4byte	.LASF166
 2918 0bca 07       		.byte	0x7
 2919 0bcb 0C05     		.2byte	0x50c
 2920 0bcd 10       		.byte	0x10
 2921 0bce A8000000 		.4byte	0xa8
 2922 0bd2 1001     		.2byte	0x110
 2923 0bd4 02       		.uleb128 0x2
 2924 0bd5 54000000 		.4byte	.LASF167
 2925 0bd9 07       		.byte	0x7
 2926 0bda 0D05     		.2byte	0x50d
 2927 0bdc 10       		.byte	0x10
 2928 0bdd A8000000 		.4byte	0xa8
 2929 0be1 1401     		.2byte	0x114
 2930 0be3 02       		.uleb128 0x2
 2931 0be4 F1030000 		.4byte	.LASF168
 2932 0be8 07       		.byte	0x7
 2933 0be9 0E05     		.2byte	0x50e
 2934 0beb 10       		.byte	0x10
 2935 0bec A8000000 		.4byte	0xa8
 2936 0bf0 1801     		.2byte	0x118
 2937 0bf2 02       		.uleb128 0x2
 2938 0bf3 D2050000 		.4byte	.LASF169
 2939 0bf7 07       		.byte	0x7
 2940 0bf8 0F05     		.2byte	0x50f
 2941 0bfa 10       		.byte	0x10
 2942 0bfb A8000000 		.4byte	0xa8
 2943 0bff 1C01     		.2byte	0x11c
 2944 0c01 02       		.uleb128 0x2
 2945 0c02 82010000 		.4byte	.LASF170
 2946 0c06 07       		.byte	0x7
 2947 0c07 1005     		.2byte	0x510
 2948 0c09 0F       		.byte	0xf
 2949 0c0a 12050000 		.4byte	0x512
 2950 0c0e 2001     		.2byte	0x120
 2951 0c10 00       		.byte	0
 2952 0c11 0B       		.uleb128 0xb
 2953 0c12 D4020000 		.4byte	.LASF171
 2954 0c16 07       		.byte	0x7
 2955 0c17 1205     		.2byte	0x512
 2956 0c19 70080000 		.4byte	0x870
 2957 0c1d 04       		.uleb128 0x4
 2958 0c1e 01       		.byte	0x1
 2959 0c1f 02       		.byte	0x2
 2960 0c20 83050000 		.4byte	.LASF172
 2961 0c24 1B       		.uleb128 0x1b
 2962 0c25 06050000 		.4byte	0x506
 2963 0c29 04       		.byte	0x4
 2964 0c2a 2B       		.byte	0x2b
ARM GAS  C:\Users\DEVELO~1\AppData\Local\Temp\cc43K8rk.s 			page 53


 2965 0c2b 0A       		.byte	0xa
 2966 0c2c 05       		.uleb128 0x5
 2967 0c2d 03       		.byte	0x3
 2968 0c2e 00000000 		.4byte	SystemCoreClock
 2969 0c32 13       		.uleb128 0x13
 2970 0c33 14050000 		.4byte	.LASF173
 2971 0c37 08       		.byte	0x8
 2972 0c38 8F01     		.2byte	0x18f
 2973 0c3a 13       		.uleb128 0x13
 2974 0c3b 63060000 		.4byte	.LASF174
 2975 0c3f 09       		.byte	0x9
 2976 0c40 9B02     		.2byte	0x29b
 2977 0c42 1C       		.uleb128 0x1c
 2978 0c43 57020000 		.4byte	.LASF203
 2979 0c47 04       		.byte	0x4
 2980 0c48 E3       		.byte	0xe3
 2981 0c49 06       		.byte	0x6
 2982 0c4a 00000000 		.4byte	.LFB435
 2983 0c4e 18020000 		.4byte	.LFE435-.LFB435
 2984 0c52 01       		.uleb128 0x1
 2985 0c53 9C       		.byte	0x9c
 2986 0c54 9F0C0000 		.4byte	0xc9f
 2987 0c58 1D       		.uleb128 0x1d
 2988 0c59 68070000 		.4byte	.LASF175
 2989 0c5d 04       		.byte	0x4
 2990 0c5e E5       		.byte	0xe5
 2991 0c5f 0C       		.byte	0xc
 2992 0c60 9C000000 		.4byte	0x9c
 2993 0c64 02       		.uleb128 0x2
 2994 0c65 91       		.byte	0x91
 2995 0c66 74       		.sleb128 -12
 2996 0c67 1E       		.uleb128 0x1e
 2997 0c68 AA000000 		.4byte	.LBB14
 2998 0c6c C0000000 		.4byte	.LBE14-.LBB14
 2999 0c70 0A       		.uleb128 0xa
 3000 0c71 37010000 		.4byte	.LASF176
 3001 0c75 04       		.byte	0x4
 3002 0c76 4801     		.2byte	0x148
 3003 0c78 9C000000 		.4byte	0x9c
 3004 0c7c 02       		.uleb128 0x2
 3005 0c7d 91       		.byte	0x91
 3006 0c7e 70       		.sleb128 -16
 3007 0c7f 0A       		.uleb128 0xa
 3008 0c80 04050000 		.4byte	.LASF177
 3009 0c84 04       		.byte	0x4
 3010 0c85 4901     		.2byte	0x149
 3011 0c87 9C000000 		.4byte	0x9c
 3012 0c8b 02       		.uleb128 0x2
 3013 0c8c 91       		.byte	0x91
 3014 0c8d 6C       		.sleb128 -20
 3015 0c8e 0A       		.uleb128 0xa
 3016 0c8f E8010000 		.4byte	.LASF178
 3017 0c93 04       		.byte	0x4
 3018 0c94 4A01     		.2byte	0x14a
 3019 0c96 9C000000 		.4byte	0x9c
 3020 0c9a 02       		.uleb128 0x2
 3021 0c9b 91       		.byte	0x91
ARM GAS  C:\Users\DEVELO~1\AppData\Local\Temp\cc43K8rk.s 			page 54


 3022 0c9c 68       		.sleb128 -24
 3023 0c9d 00       		.byte	0
 3024 0c9e 00       		.byte	0
 3025 0c9f 1F       		.uleb128 0x1f
 3026 0ca0 00000000 		.4byte	.LASF204
 3027 0ca4 04       		.byte	0x4
 3028 0ca5 96       		.byte	0x96
 3029 0ca6 06       		.byte	0x6
 3030 0ca7 00000000 		.4byte	.LFB434
 3031 0cab 94000000 		.4byte	.LFE434-.LFB434
 3032 0caf 01       		.uleb128 0x1
 3033 0cb0 9C       		.byte	0x9c
 3034 0cb1 14       		.uleb128 0x14
 3035 0cb2 82040000 		.4byte	.LASF179
 3036 0cb6 62       		.byte	0x62
 3037 0cb7 00000000 		.4byte	.LFB433
 3038 0cbb 5C000000 		.4byte	.LFE433-.LFB433
 3039 0cbf 01       		.uleb128 0x1
 3040 0cc0 9C       		.byte	0x9c
 3041 0cc1 14       		.uleb128 0x14
 3042 0cc2 A9010000 		.4byte	.LASF180
 3043 0cc6 3A       		.byte	0x3a
 3044 0cc7 00000000 		.4byte	.LFB432
 3045 0ccb 3C000000 		.4byte	.LFE432-.LFB432
 3046 0ccf 01       		.uleb128 0x1
 3047 0cd0 9C       		.byte	0x9c
 3048 0cd1 0F       		.uleb128 0xf
 3049 0cd2 03080000 		.4byte	.LASF182
 3050 0cd6 03       		.byte	0x3
 3051 0cd7 A302     		.2byte	0x2a3
 3052 0cd9 00000000 		.4byte	.LFB406
 3053 0cdd 5C000000 		.4byte	.LFE406-.LFB406
 3054 0ce1 01       		.uleb128 0x1
 3055 0ce2 9C       		.byte	0x9c
 3056 0ce3 030D0000 		.4byte	0xd03
 3057 0ce7 15       		.uleb128 0x15
 3058 0ce8 2D020000 		.4byte	.LASF181
 3059 0cec A302     		.2byte	0x2a3
 3060 0cee 9C000000 		.4byte	0x9c
 3061 0cf2 02       		.uleb128 0x2
 3062 0cf3 91       		.byte	0x91
 3063 0cf4 74       		.sleb128 -12
 3064 0cf5 16       		.uleb128 0x16
 3065 0cf6 6C7000   		.ascii	"lp\000"
 3066 0cf9 A302     		.2byte	0x2a3
 3067 0cfb 1D0C0000 		.4byte	0xc1d
 3068 0cff 02       		.uleb128 0x2
 3069 0d00 91       		.byte	0x91
 3070 0d01 73       		.sleb128 -13
 3071 0d02 00       		.byte	0
 3072 0d03 0F       		.uleb128 0xf
 3073 0d04 49040000 		.4byte	.LASF183
 3074 0d08 03       		.byte	0x3
 3075 0d09 F101     		.2byte	0x1f1
 3076 0d0b 00000000 		.4byte	.LFB400
 3077 0d0f 5C000000 		.4byte	.LFE400-.LFB400
 3078 0d13 01       		.uleb128 0x1
ARM GAS  C:\Users\DEVELO~1\AppData\Local\Temp\cc43K8rk.s 			page 55


 3079 0d14 9C       		.byte	0x9c
 3080 0d15 350D0000 		.4byte	0xd35
 3081 0d19 15       		.uleb128 0x15
 3082 0d1a 2D020000 		.4byte	.LASF181
 3083 0d1e F101     		.2byte	0x1f1
 3084 0d20 9C000000 		.4byte	0x9c
 3085 0d24 02       		.uleb128 0x2
 3086 0d25 91       		.byte	0x91
 3087 0d26 74       		.sleb128 -12
 3088 0d27 16       		.uleb128 0x16
 3089 0d28 6C7000   		.ascii	"lp\000"
 3090 0d2b F101     		.2byte	0x1f1
 3091 0d2d 1D0C0000 		.4byte	0xc1d
 3092 0d31 02       		.uleb128 0x2
 3093 0d32 91       		.byte	0x91
 3094 0d33 73       		.sleb128 -13
 3095 0d34 00       		.byte	0
 3096 0d35 07       		.uleb128 0x7
 3097 0d36 DA040000 		.4byte	.LASF184
 3098 0d3a 79       		.byte	0x79
 3099 0d3b 00000000 		.4byte	.LFB387
 3100 0d3f 40000000 		.4byte	.LFE387-.LFB387
 3101 0d43 01       		.uleb128 0x1
 3102 0d44 9C       		.byte	0x9c
 3103 0d45 580D0000 		.4byte	0xd58
 3104 0d49 08       		.uleb128 0x8
 3105 0d4a 2D020000 		.4byte	.LASF181
 3106 0d4e 79       		.byte	0x79
 3107 0d4f 2E       		.byte	0x2e
 3108 0d50 9C000000 		.4byte	0x9c
 3109 0d54 02       		.uleb128 0x2
 3110 0d55 91       		.byte	0x91
 3111 0d56 74       		.sleb128 -12
 3112 0d57 00       		.byte	0
 3113 0d58 07       		.uleb128 0x7
 3114 0d59 CB040000 		.4byte	.LASF185
 3115 0d5d 71       		.byte	0x71
 3116 0d5e 00000000 		.4byte	.LFB386
 3117 0d62 34000000 		.4byte	.LFE386-.LFB386
 3118 0d66 01       		.uleb128 0x1
 3119 0d67 9C       		.byte	0x9c
 3120 0d68 7B0D0000 		.4byte	0xd7b
 3121 0d6c 08       		.uleb128 0x8
 3122 0d6d 2D020000 		.4byte	.LASF181
 3123 0d71 71       		.byte	0x71
 3124 0d72 2E       		.byte	0x2e
 3125 0d73 9C000000 		.4byte	0x9c
 3126 0d77 02       		.uleb128 0x2
 3127 0d78 91       		.byte	0x91
 3128 0d79 74       		.sleb128 -12
 3129 0d7a 00       		.byte	0
 3130 0d7b 07       		.uleb128 0x7
 3131 0d7c BC040000 		.4byte	.LASF186
 3132 0d80 69       		.byte	0x69
 3133 0d81 00000000 		.4byte	.LFB385
 3134 0d85 40000000 		.4byte	.LFE385-.LFB385
 3135 0d89 01       		.uleb128 0x1
ARM GAS  C:\Users\DEVELO~1\AppData\Local\Temp\cc43K8rk.s 			page 56


 3136 0d8a 9C       		.byte	0x9c
 3137 0d8b 9E0D0000 		.4byte	0xd9e
 3138 0d8f 08       		.uleb128 0x8
 3139 0d90 2D020000 		.4byte	.LASF181
 3140 0d94 69       		.byte	0x69
 3141 0d95 2E       		.byte	0x2e
 3142 0d96 9C000000 		.4byte	0x9c
 3143 0d9a 02       		.uleb128 0x2
 3144 0d9b 91       		.byte	0x91
 3145 0d9c 74       		.sleb128 -12
 3146 0d9d 00       		.byte	0
 3147 0d9e 07       		.uleb128 0x7
 3148 0d9f AD040000 		.4byte	.LASF187
 3149 0da3 61       		.byte	0x61
 3150 0da4 00000000 		.4byte	.LFB384
 3151 0da8 40000000 		.4byte	.LFE384-.LFB384
 3152 0dac 01       		.uleb128 0x1
 3153 0dad 9C       		.byte	0x9c
 3154 0dae C10D0000 		.4byte	0xdc1
 3155 0db2 08       		.uleb128 0x8
 3156 0db3 2D020000 		.4byte	.LASF181
 3157 0db7 61       		.byte	0x61
 3158 0db8 2E       		.byte	0x2e
 3159 0db9 9C000000 		.4byte	0x9c
 3160 0dbd 02       		.uleb128 0x2
 3161 0dbe 91       		.byte	0x91
 3162 0dbf 74       		.sleb128 -12
 3163 0dc0 00       		.byte	0
 3164 0dc1 07       		.uleb128 0x7
 3165 0dc2 CD000000 		.4byte	.LASF188
 3166 0dc6 59       		.byte	0x59
 3167 0dc7 00000000 		.4byte	.LFB383
 3168 0dcb 40000000 		.4byte	.LFE383-.LFB383
 3169 0dcf 01       		.uleb128 0x1
 3170 0dd0 9C       		.byte	0x9c
 3171 0dd1 E40D0000 		.4byte	0xde4
 3172 0dd5 08       		.uleb128 0x8
 3173 0dd6 2D020000 		.4byte	.LASF181
 3174 0dda 59       		.byte	0x59
 3175 0ddb 2E       		.byte	0x2e
 3176 0ddc 9C000000 		.4byte	0x9c
 3177 0de0 02       		.uleb128 0x2
 3178 0de1 91       		.byte	0x91
 3179 0de2 74       		.sleb128 -12
 3180 0de3 00       		.byte	0
 3181 0de4 07       		.uleb128 0x7
 3182 0de5 1D060000 		.4byte	.LASF189
 3183 0de9 51       		.byte	0x51
 3184 0dea 00000000 		.4byte	.LFB382
 3185 0dee 40000000 		.4byte	.LFE382-.LFB382
 3186 0df2 01       		.uleb128 0x1
 3187 0df3 9C       		.byte	0x9c
 3188 0df4 070E0000 		.4byte	0xe07
 3189 0df8 08       		.uleb128 0x8
 3190 0df9 2D020000 		.4byte	.LASF181
 3191 0dfd 51       		.byte	0x51
 3192 0dfe 2E       		.byte	0x2e
ARM GAS  C:\Users\DEVELO~1\AppData\Local\Temp\cc43K8rk.s 			page 57


 3193 0dff 9C000000 		.4byte	0x9c
 3194 0e03 02       		.uleb128 0x2
 3195 0e04 91       		.byte	0x91
 3196 0e05 74       		.sleb128 -12
 3197 0e06 00       		.byte	0
 3198 0e07 07       		.uleb128 0x7
 3199 0e08 B8000000 		.4byte	.LASF190
 3200 0e0c 49       		.byte	0x49
 3201 0e0d 00000000 		.4byte	.LFB381
 3202 0e11 40000000 		.4byte	.LFE381-.LFB381
 3203 0e15 01       		.uleb128 0x1
 3204 0e16 9C       		.byte	0x9c
 3205 0e17 2A0E0000 		.4byte	0xe2a
 3206 0e1b 08       		.uleb128 0x8
 3207 0e1c 2D020000 		.4byte	.LASF181
 3208 0e20 49       		.byte	0x49
 3209 0e21 2E       		.byte	0x2e
 3210 0e22 9C000000 		.4byte	0x9c
 3211 0e26 02       		.uleb128 0x2
 3212 0e27 91       		.byte	0x91
 3213 0e28 74       		.sleb128 -12
 3214 0e29 00       		.byte	0
 3215 0e2a 07       		.uleb128 0x7
 3216 0e2b 27070000 		.4byte	.LASF191
 3217 0e2f 41       		.byte	0x41
 3218 0e30 00000000 		.4byte	.LFB380
 3219 0e34 40000000 		.4byte	.LFE380-.LFB380
 3220 0e38 01       		.uleb128 0x1
 3221 0e39 9C       		.byte	0x9c
 3222 0e3a 4D0E0000 		.4byte	0xe4d
 3223 0e3e 08       		.uleb128 0x8
 3224 0e3f 2D020000 		.4byte	.LASF181
 3225 0e43 41       		.byte	0x41
 3226 0e44 2F       		.byte	0x2f
 3227 0e45 9C000000 		.4byte	0x9c
 3228 0e49 02       		.uleb128 0x2
 3229 0e4a 91       		.byte	0x91
 3230 0e4b 74       		.sleb128 -12
 3231 0e4c 00       		.byte	0
 3232 0e4d 07       		.uleb128 0x7
 3233 0e4e 37070000 		.4byte	.LASF192
 3234 0e52 39       		.byte	0x39
 3235 0e53 00000000 		.4byte	.LFB379
 3236 0e57 40000000 		.4byte	.LFE379-.LFB379
 3237 0e5b 01       		.uleb128 0x1
 3238 0e5c 9C       		.byte	0x9c
 3239 0e5d 700E0000 		.4byte	0xe70
 3240 0e61 08       		.uleb128 0x8
 3241 0e62 2D020000 		.4byte	.LASF181
 3242 0e66 39       		.byte	0x39
 3243 0e67 2F       		.byte	0x2f
 3244 0e68 9C000000 		.4byte	0x9c
 3245 0e6c 02       		.uleb128 0x2
 3246 0e6d 91       		.byte	0x91
 3247 0e6e 74       		.sleb128 -12
 3248 0e6f 00       		.byte	0
 3249 0e70 0F       		.uleb128 0xf
ARM GAS  C:\Users\DEVELO~1\AppData\Local\Temp\cc43K8rk.s 			page 58


 3250 0e71 7C060000 		.4byte	.LASF193
 3251 0e75 01       		.byte	0x1
 3252 0e76 7B09     		.2byte	0x97b
 3253 0e78 00000000 		.4byte	.LFB173
 3254 0e7c 74000000 		.4byte	.LFE173-.LFB173
 3255 0e80 01       		.uleb128 0x1
 3256 0e81 9C       		.byte	0x9c
 3257 0e82 E10E0000 		.4byte	0xee1
 3258 0e86 0A       		.uleb128 0xa
 3259 0e87 42040000 		.4byte	.LASF194
 3260 0e8b 01       		.byte	0x1
 3261 0e8c 7E09     		.2byte	0x97e
 3262 0e8e 9C000000 		.4byte	0x9c
 3263 0e92 02       		.uleb128 0x2
 3264 0e93 91       		.byte	0x91
 3265 0e94 6C       		.sleb128 -20
 3266 0e95 0A       		.uleb128 0xa
 3267 0e96 C2020000 		.4byte	.LASF195
 3268 0e9a 01       		.byte	0x1
 3269 0e9b 7F09     		.2byte	0x97f
 3270 0e9d 9C000000 		.4byte	0x9c
 3271 0ea1 02       		.uleb128 0x2
 3272 0ea2 91       		.byte	0x91
 3273 0ea3 74       		.sleb128 -12
 3274 0ea4 0A       		.uleb128 0xa
 3275 0ea5 3B020000 		.4byte	.LASF196
 3276 0ea9 01       		.byte	0x1
 3277 0eaa 8009     		.2byte	0x980
 3278 0eac 9C000000 		.4byte	0x9c
 3279 0eb0 02       		.uleb128 0x2
 3280 0eb1 91       		.byte	0x91
 3281 0eb2 70       		.sleb128 -16
 3282 0eb3 10       		.uleb128 0x10
 3283 0eb4 E10E0000 		.4byte	0xee1
 3284 0eb8 0E000000 		.4byte	.LBB8
 3285 0ebc 06000000 		.4byte	.LBE8-.LBB8
 3286 0ec0 8309     		.2byte	0x983
 3287 0ec2 10       		.uleb128 0x10
 3288 0ec3 E10E0000 		.4byte	0xee1
 3289 0ec7 5A000000 		.4byte	.LBB10
 3290 0ecb 06000000 		.4byte	.LBE10-.LBB10
 3291 0ecf 9409     		.2byte	0x994
 3292 0ed1 10       		.uleb128 0x10
 3293 0ed2 E80E0000 		.4byte	0xee8
 3294 0ed6 60000000 		.4byte	.LBB12
 3295 0eda 06000000 		.4byte	.LBE12-.LBB12
 3296 0ede 9509     		.2byte	0x995
 3297 0ee0 00       		.byte	0
 3298 0ee1 17       		.uleb128 0x17
 3299 0ee2 20040000 		.4byte	.LASF197
 3300 0ee6 6D03     		.2byte	0x36d
 3301 0ee8 17       		.uleb128 0x17
 3302 0ee9 0A030000 		.4byte	.LASF198
 3303 0eed 6203     		.2byte	0x362
 3304 0eef 00       		.byte	0
 3305              		.section	.debug_abbrev,"",%progbits
 3306              	.Ldebug_abbrev0:
ARM GAS  C:\Users\DEVELO~1\AppData\Local\Temp\cc43K8rk.s 			page 59


 3307 0000 01       		.uleb128 0x1
 3308 0001 0D       		.uleb128 0xd
 3309 0002 00       		.byte	0
 3310 0003 03       		.uleb128 0x3
 3311 0004 0E       		.uleb128 0xe
 3312 0005 3A       		.uleb128 0x3a
 3313 0006 0B       		.uleb128 0xb
 3314 0007 3B       		.uleb128 0x3b
 3315 0008 05       		.uleb128 0x5
 3316 0009 39       		.uleb128 0x39
 3317 000a 0B       		.uleb128 0xb
 3318 000b 49       		.uleb128 0x49
 3319 000c 13       		.uleb128 0x13
 3320 000d 38       		.uleb128 0x38
 3321 000e 0B       		.uleb128 0xb
 3322 000f 00       		.byte	0
 3323 0010 00       		.byte	0
 3324 0011 02       		.uleb128 0x2
 3325 0012 0D       		.uleb128 0xd
 3326 0013 00       		.byte	0
 3327 0014 03       		.uleb128 0x3
 3328 0015 0E       		.uleb128 0xe
 3329 0016 3A       		.uleb128 0x3a
 3330 0017 0B       		.uleb128 0xb
 3331 0018 3B       		.uleb128 0x3b
 3332 0019 05       		.uleb128 0x5
 3333 001a 39       		.uleb128 0x39
 3334 001b 0B       		.uleb128 0xb
 3335 001c 49       		.uleb128 0x49
 3336 001d 13       		.uleb128 0x13
 3337 001e 38       		.uleb128 0x38
 3338 001f 05       		.uleb128 0x5
 3339 0020 00       		.byte	0
 3340 0021 00       		.byte	0
 3341 0022 03       		.uleb128 0x3
 3342 0023 0D       		.uleb128 0xd
 3343 0024 00       		.byte	0
 3344 0025 03       		.uleb128 0x3
 3345 0026 08       		.uleb128 0x8
 3346 0027 3A       		.uleb128 0x3a
 3347 0028 0B       		.uleb128 0xb
 3348 0029 3B       		.uleb128 0x3b
 3349 002a 05       		.uleb128 0x5
 3350 002b 39       		.uleb128 0x39
 3351 002c 0B       		.uleb128 0xb
 3352 002d 49       		.uleb128 0x49
 3353 002e 13       		.uleb128 0x13
 3354 002f 38       		.uleb128 0x38
 3355 0030 0B       		.uleb128 0xb
 3356 0031 00       		.byte	0
 3357 0032 00       		.byte	0
 3358 0033 04       		.uleb128 0x4
 3359 0034 24       		.uleb128 0x24
 3360 0035 00       		.byte	0
 3361 0036 0B       		.uleb128 0xb
 3362 0037 0B       		.uleb128 0xb
 3363 0038 3E       		.uleb128 0x3e
ARM GAS  C:\Users\DEVELO~1\AppData\Local\Temp\cc43K8rk.s 			page 60


 3364 0039 0B       		.uleb128 0xb
 3365 003a 03       		.uleb128 0x3
 3366 003b 0E       		.uleb128 0xe
 3367 003c 00       		.byte	0
 3368 003d 00       		.byte	0
 3369 003e 05       		.uleb128 0x5
 3370 003f 01       		.uleb128 0x1
 3371 0040 01       		.byte	0x1
 3372 0041 49       		.uleb128 0x49
 3373 0042 13       		.uleb128 0x13
 3374 0043 01       		.uleb128 0x1
 3375 0044 13       		.uleb128 0x13
 3376 0045 00       		.byte	0
 3377 0046 00       		.byte	0
 3378 0047 06       		.uleb128 0x6
 3379 0048 21       		.uleb128 0x21
 3380 0049 00       		.byte	0
 3381 004a 49       		.uleb128 0x49
 3382 004b 13       		.uleb128 0x13
 3383 004c 2F       		.uleb128 0x2f
 3384 004d 0B       		.uleb128 0xb
 3385 004e 00       		.byte	0
 3386 004f 00       		.byte	0
 3387 0050 07       		.uleb128 0x7
 3388 0051 2E       		.uleb128 0x2e
 3389 0052 01       		.byte	0x1
 3390 0053 03       		.uleb128 0x3
 3391 0054 0E       		.uleb128 0xe
 3392 0055 3A       		.uleb128 0x3a
 3393 0056 21       		.uleb128 0x21
 3394 0057 03       		.sleb128 3
 3395 0058 3B       		.uleb128 0x3b
 3396 0059 0B       		.uleb128 0xb
 3397 005a 39       		.uleb128 0x39
 3398 005b 21       		.uleb128 0x21
 3399 005c 16       		.sleb128 22
 3400 005d 27       		.uleb128 0x27
 3401 005e 19       		.uleb128 0x19
 3402 005f 11       		.uleb128 0x11
 3403 0060 01       		.uleb128 0x1
 3404 0061 12       		.uleb128 0x12
 3405 0062 06       		.uleb128 0x6
 3406 0063 40       		.uleb128 0x40
 3407 0064 18       		.uleb128 0x18
 3408 0065 7A       		.uleb128 0x7a
 3409 0066 19       		.uleb128 0x19
 3410 0067 01       		.uleb128 0x1
 3411 0068 13       		.uleb128 0x13
 3412 0069 00       		.byte	0
 3413 006a 00       		.byte	0
 3414 006b 08       		.uleb128 0x8
 3415 006c 05       		.uleb128 0x5
 3416 006d 00       		.byte	0
 3417 006e 03       		.uleb128 0x3
 3418 006f 0E       		.uleb128 0xe
 3419 0070 3A       		.uleb128 0x3a
 3420 0071 21       		.uleb128 0x21
ARM GAS  C:\Users\DEVELO~1\AppData\Local\Temp\cc43K8rk.s 			page 61


 3421 0072 03       		.sleb128 3
 3422 0073 3B       		.uleb128 0x3b
 3423 0074 0B       		.uleb128 0xb
 3424 0075 39       		.uleb128 0x39
 3425 0076 0B       		.uleb128 0xb
 3426 0077 49       		.uleb128 0x49
 3427 0078 13       		.uleb128 0x13
 3428 0079 02       		.uleb128 0x2
 3429 007a 18       		.uleb128 0x18
 3430 007b 00       		.byte	0
 3431 007c 00       		.byte	0
 3432 007d 09       		.uleb128 0x9
 3433 007e 35       		.uleb128 0x35
 3434 007f 00       		.byte	0
 3435 0080 49       		.uleb128 0x49
 3436 0081 13       		.uleb128 0x13
 3437 0082 00       		.byte	0
 3438 0083 00       		.byte	0
 3439 0084 0A       		.uleb128 0xa
 3440 0085 34       		.uleb128 0x34
 3441 0086 00       		.byte	0
 3442 0087 03       		.uleb128 0x3
 3443 0088 0E       		.uleb128 0xe
 3444 0089 3A       		.uleb128 0x3a
 3445 008a 0B       		.uleb128 0xb
 3446 008b 3B       		.uleb128 0x3b
 3447 008c 05       		.uleb128 0x5
 3448 008d 39       		.uleb128 0x39
 3449 008e 21       		.uleb128 0x21
 3450 008f 0E       		.sleb128 14
 3451 0090 49       		.uleb128 0x49
 3452 0091 13       		.uleb128 0x13
 3453 0092 02       		.uleb128 0x2
 3454 0093 18       		.uleb128 0x18
 3455 0094 00       		.byte	0
 3456 0095 00       		.byte	0
 3457 0096 0B       		.uleb128 0xb
 3458 0097 16       		.uleb128 0x16
 3459 0098 00       		.byte	0
 3460 0099 03       		.uleb128 0x3
 3461 009a 0E       		.uleb128 0xe
 3462 009b 3A       		.uleb128 0x3a
 3463 009c 0B       		.uleb128 0xb
 3464 009d 3B       		.uleb128 0x3b
 3465 009e 05       		.uleb128 0x5
 3466 009f 39       		.uleb128 0x39
 3467 00a0 21       		.uleb128 0x21
 3468 00a1 03       		.sleb128 3
 3469 00a2 49       		.uleb128 0x49
 3470 00a3 13       		.uleb128 0x13
 3471 00a4 00       		.byte	0
 3472 00a5 00       		.byte	0
 3473 00a6 0C       		.uleb128 0xc
 3474 00a7 16       		.uleb128 0x16
 3475 00a8 00       		.byte	0
 3476 00a9 03       		.uleb128 0x3
 3477 00aa 0E       		.uleb128 0xe
ARM GAS  C:\Users\DEVELO~1\AppData\Local\Temp\cc43K8rk.s 			page 62


 3478 00ab 3A       		.uleb128 0x3a
 3479 00ac 0B       		.uleb128 0xb
 3480 00ad 3B       		.uleb128 0x3b
 3481 00ae 0B       		.uleb128 0xb
 3482 00af 39       		.uleb128 0x39
 3483 00b0 0B       		.uleb128 0xb
 3484 00b1 49       		.uleb128 0x49
 3485 00b2 13       		.uleb128 0x13
 3486 00b3 00       		.byte	0
 3487 00b4 00       		.byte	0
 3488 00b5 0D       		.uleb128 0xd
 3489 00b6 26       		.uleb128 0x26
 3490 00b7 00       		.byte	0
 3491 00b8 49       		.uleb128 0x49
 3492 00b9 13       		.uleb128 0x13
 3493 00ba 00       		.byte	0
 3494 00bb 00       		.byte	0
 3495 00bc 0E       		.uleb128 0xe
 3496 00bd 13       		.uleb128 0x13
 3497 00be 01       		.byte	0x1
 3498 00bf 0B       		.uleb128 0xb
 3499 00c0 05       		.uleb128 0x5
 3500 00c1 3A       		.uleb128 0x3a
 3501 00c2 0B       		.uleb128 0xb
 3502 00c3 3B       		.uleb128 0x3b
 3503 00c4 05       		.uleb128 0x5
 3504 00c5 39       		.uleb128 0x39
 3505 00c6 21       		.uleb128 0x21
 3506 00c7 09       		.sleb128 9
 3507 00c8 01       		.uleb128 0x1
 3508 00c9 13       		.uleb128 0x13
 3509 00ca 00       		.byte	0
 3510 00cb 00       		.byte	0
 3511 00cc 0F       		.uleb128 0xf
 3512 00cd 2E       		.uleb128 0x2e
 3513 00ce 01       		.byte	0x1
 3514 00cf 03       		.uleb128 0x3
 3515 00d0 0E       		.uleb128 0xe
 3516 00d1 3A       		.uleb128 0x3a
 3517 00d2 0B       		.uleb128 0xb
 3518 00d3 3B       		.uleb128 0x3b
 3519 00d4 05       		.uleb128 0x5
 3520 00d5 39       		.uleb128 0x39
 3521 00d6 21       		.uleb128 0x21
 3522 00d7 16       		.sleb128 22
 3523 00d8 27       		.uleb128 0x27
 3524 00d9 19       		.uleb128 0x19
 3525 00da 11       		.uleb128 0x11
 3526 00db 01       		.uleb128 0x1
 3527 00dc 12       		.uleb128 0x12
 3528 00dd 06       		.uleb128 0x6
 3529 00de 40       		.uleb128 0x40
 3530 00df 18       		.uleb128 0x18
 3531 00e0 7A       		.uleb128 0x7a
 3532 00e1 19       		.uleb128 0x19
 3533 00e2 01       		.uleb128 0x1
 3534 00e3 13       		.uleb128 0x13
ARM GAS  C:\Users\DEVELO~1\AppData\Local\Temp\cc43K8rk.s 			page 63


 3535 00e4 00       		.byte	0
 3536 00e5 00       		.byte	0
 3537 00e6 10       		.uleb128 0x10
 3538 00e7 1D       		.uleb128 0x1d
 3539 00e8 00       		.byte	0
 3540 00e9 31       		.uleb128 0x31
 3541 00ea 13       		.uleb128 0x13
 3542 00eb 11       		.uleb128 0x11
 3543 00ec 01       		.uleb128 0x1
 3544 00ed 12       		.uleb128 0x12
 3545 00ee 06       		.uleb128 0x6
 3546 00ef 58       		.uleb128 0x58
 3547 00f0 21       		.uleb128 0x21
 3548 00f1 01       		.sleb128 1
 3549 00f2 59       		.uleb128 0x59
 3550 00f3 05       		.uleb128 0x5
 3551 00f4 57       		.uleb128 0x57
 3552 00f5 21       		.uleb128 0x21
 3553 00f6 05       		.sleb128 5
 3554 00f7 00       		.byte	0
 3555 00f8 00       		.byte	0
 3556 00f9 11       		.uleb128 0x11
 3557 00fa 13       		.uleb128 0x13
 3558 00fb 01       		.byte	0x1
 3559 00fc 0B       		.uleb128 0xb
 3560 00fd 21       		.uleb128 0x21
 3561 00fe 2C       		.sleb128 44
 3562 00ff 3A       		.uleb128 0x3a
 3563 0100 0B       		.uleb128 0xb
 3564 0101 3B       		.uleb128 0x3b
 3565 0102 05       		.uleb128 0x5
 3566 0103 39       		.uleb128 0x39
 3567 0104 21       		.uleb128 0x21
 3568 0105 09       		.sleb128 9
 3569 0106 01       		.uleb128 0x1
 3570 0107 13       		.uleb128 0x13
 3571 0108 00       		.byte	0
 3572 0109 00       		.byte	0
 3573 010a 12       		.uleb128 0x12
 3574 010b 0D       		.uleb128 0xd
 3575 010c 00       		.byte	0
 3576 010d 03       		.uleb128 0x3
 3577 010e 08       		.uleb128 0x8
 3578 010f 3A       		.uleb128 0x3a
 3579 0110 21       		.uleb128 0x21
 3580 0111 07       		.sleb128 7
 3581 0112 3B       		.uleb128 0x3b
 3582 0113 05       		.uleb128 0x5
 3583 0114 39       		.uleb128 0x39
 3584 0115 21       		.uleb128 0x21
 3585 0116 11       		.sleb128 17
 3586 0117 49       		.uleb128 0x49
 3587 0118 13       		.uleb128 0x13
 3588 0119 38       		.uleb128 0x38
 3589 011a 05       		.uleb128 0x5
 3590 011b 00       		.byte	0
 3591 011c 00       		.byte	0
ARM GAS  C:\Users\DEVELO~1\AppData\Local\Temp\cc43K8rk.s 			page 64


 3592 011d 13       		.uleb128 0x13
 3593 011e 2E       		.uleb128 0x2e
 3594 011f 00       		.byte	0
 3595 0120 3F       		.uleb128 0x3f
 3596 0121 19       		.uleb128 0x19
 3597 0122 03       		.uleb128 0x3
 3598 0123 0E       		.uleb128 0xe
 3599 0124 3A       		.uleb128 0x3a
 3600 0125 0B       		.uleb128 0xb
 3601 0126 3B       		.uleb128 0x3b
 3602 0127 05       		.uleb128 0x5
 3603 0128 39       		.uleb128 0x39
 3604 0129 21       		.uleb128 0x21
 3605 012a 08       		.sleb128 8
 3606 012b 27       		.uleb128 0x27
 3607 012c 19       		.uleb128 0x19
 3608 012d 3C       		.uleb128 0x3c
 3609 012e 19       		.uleb128 0x19
 3610 012f 00       		.byte	0
 3611 0130 00       		.byte	0
 3612 0131 14       		.uleb128 0x14
 3613 0132 2E       		.uleb128 0x2e
 3614 0133 00       		.byte	0
 3615 0134 03       		.uleb128 0x3
 3616 0135 0E       		.uleb128 0xe
 3617 0136 3A       		.uleb128 0x3a
 3618 0137 21       		.uleb128 0x21
 3619 0138 04       		.sleb128 4
 3620 0139 3B       		.uleb128 0x3b
 3621 013a 0B       		.uleb128 0xb
 3622 013b 39       		.uleb128 0x39
 3623 013c 21       		.uleb128 0x21
 3624 013d 14       		.sleb128 20
 3625 013e 27       		.uleb128 0x27
 3626 013f 19       		.uleb128 0x19
 3627 0140 11       		.uleb128 0x11
 3628 0141 01       		.uleb128 0x1
 3629 0142 12       		.uleb128 0x12
 3630 0143 06       		.uleb128 0x6
 3631 0144 40       		.uleb128 0x40
 3632 0145 18       		.uleb128 0x18
 3633 0146 7A       		.uleb128 0x7a
 3634 0147 19       		.uleb128 0x19
 3635 0148 00       		.byte	0
 3636 0149 00       		.byte	0
 3637 014a 15       		.uleb128 0x15
 3638 014b 05       		.uleb128 0x5
 3639 014c 00       		.byte	0
 3640 014d 03       		.uleb128 0x3
 3641 014e 0E       		.uleb128 0xe
 3642 014f 3A       		.uleb128 0x3a
 3643 0150 21       		.uleb128 0x21
 3644 0151 03       		.sleb128 3
 3645 0152 3B       		.uleb128 0x3b
 3646 0153 05       		.uleb128 0x5
 3647 0154 39       		.uleb128 0x39
 3648 0155 21       		.uleb128 0x21
ARM GAS  C:\Users\DEVELO~1\AppData\Local\Temp\cc43K8rk.s 			page 65


 3649 0156 2D       		.sleb128 45
 3650 0157 49       		.uleb128 0x49
 3651 0158 13       		.uleb128 0x13
 3652 0159 02       		.uleb128 0x2
 3653 015a 18       		.uleb128 0x18
 3654 015b 00       		.byte	0
 3655 015c 00       		.byte	0
 3656 015d 16       		.uleb128 0x16
 3657 015e 05       		.uleb128 0x5
 3658 015f 00       		.byte	0
 3659 0160 03       		.uleb128 0x3
 3660 0161 08       		.uleb128 0x8
 3661 0162 3A       		.uleb128 0x3a
 3662 0163 21       		.uleb128 0x21
 3663 0164 03       		.sleb128 3
 3664 0165 3B       		.uleb128 0x3b
 3665 0166 05       		.uleb128 0x5
 3666 0167 39       		.uleb128 0x39
 3667 0168 21       		.uleb128 0x21
 3668 0169 38       		.sleb128 56
 3669 016a 49       		.uleb128 0x49
 3670 016b 13       		.uleb128 0x13
 3671 016c 02       		.uleb128 0x2
 3672 016d 18       		.uleb128 0x18
 3673 016e 00       		.byte	0
 3674 016f 00       		.byte	0
 3675 0170 17       		.uleb128 0x17
 3676 0171 2E       		.uleb128 0x2e
 3677 0172 00       		.byte	0
 3678 0173 03       		.uleb128 0x3
 3679 0174 0E       		.uleb128 0xe
 3680 0175 3A       		.uleb128 0x3a
 3681 0176 21       		.uleb128 0x21
 3682 0177 02       		.sleb128 2
 3683 0178 3B       		.uleb128 0x3b
 3684 0179 05       		.uleb128 0x5
 3685 017a 39       		.uleb128 0x39
 3686 017b 21       		.uleb128 0x21
 3687 017c 1B       		.sleb128 27
 3688 017d 27       		.uleb128 0x27
 3689 017e 19       		.uleb128 0x19
 3690 017f 20       		.uleb128 0x20
 3691 0180 21       		.uleb128 0x21
 3692 0181 03       		.sleb128 3
 3693 0182 00       		.byte	0
 3694 0183 00       		.byte	0
 3695 0184 18       		.uleb128 0x18
 3696 0185 11       		.uleb128 0x11
 3697 0186 01       		.byte	0x1
 3698 0187 25       		.uleb128 0x25
 3699 0188 0E       		.uleb128 0xe
 3700 0189 13       		.uleb128 0x13
 3701 018a 0B       		.uleb128 0xb
 3702 018b 03       		.uleb128 0x3
 3703 018c 0E       		.uleb128 0xe
 3704 018d 1B       		.uleb128 0x1b
 3705 018e 0E       		.uleb128 0xe
ARM GAS  C:\Users\DEVELO~1\AppData\Local\Temp\cc43K8rk.s 			page 66


 3706 018f 55       		.uleb128 0x55
 3707 0190 17       		.uleb128 0x17
 3708 0191 11       		.uleb128 0x11
 3709 0192 01       		.uleb128 0x1
 3710 0193 10       		.uleb128 0x10
 3711 0194 17       		.uleb128 0x17
 3712 0195 00       		.byte	0
 3713 0196 00       		.byte	0
 3714 0197 19       		.uleb128 0x19
 3715 0198 24       		.uleb128 0x24
 3716 0199 00       		.byte	0
 3717 019a 0B       		.uleb128 0xb
 3718 019b 0B       		.uleb128 0xb
 3719 019c 3E       		.uleb128 0x3e
 3720 019d 0B       		.uleb128 0xb
 3721 019e 03       		.uleb128 0x3
 3722 019f 08       		.uleb128 0x8
 3723 01a0 00       		.byte	0
 3724 01a1 00       		.byte	0
 3725 01a2 1A       		.uleb128 0x1a
 3726 01a3 34       		.uleb128 0x34
 3727 01a4 00       		.byte	0
 3728 01a5 03       		.uleb128 0x3
 3729 01a6 0E       		.uleb128 0xe
 3730 01a7 3A       		.uleb128 0x3a
 3731 01a8 0B       		.uleb128 0xb
 3732 01a9 3B       		.uleb128 0x3b
 3733 01aa 0B       		.uleb128 0xb
 3734 01ab 39       		.uleb128 0x39
 3735 01ac 0B       		.uleb128 0xb
 3736 01ad 49       		.uleb128 0x49
 3737 01ae 13       		.uleb128 0x13
 3738 01af 3F       		.uleb128 0x3f
 3739 01b0 19       		.uleb128 0x19
 3740 01b1 3C       		.uleb128 0x3c
 3741 01b2 19       		.uleb128 0x19
 3742 01b3 00       		.byte	0
 3743 01b4 00       		.byte	0
 3744 01b5 1B       		.uleb128 0x1b
 3745 01b6 34       		.uleb128 0x34
 3746 01b7 00       		.byte	0
 3747 01b8 47       		.uleb128 0x47
 3748 01b9 13       		.uleb128 0x13
 3749 01ba 3A       		.uleb128 0x3a
 3750 01bb 0B       		.uleb128 0xb
 3751 01bc 3B       		.uleb128 0x3b
 3752 01bd 0B       		.uleb128 0xb
 3753 01be 39       		.uleb128 0x39
 3754 01bf 0B       		.uleb128 0xb
 3755 01c0 02       		.uleb128 0x2
 3756 01c1 18       		.uleb128 0x18
 3757 01c2 00       		.byte	0
 3758 01c3 00       		.byte	0
 3759 01c4 1C       		.uleb128 0x1c
 3760 01c5 2E       		.uleb128 0x2e
 3761 01c6 01       		.byte	0x1
 3762 01c7 3F       		.uleb128 0x3f
ARM GAS  C:\Users\DEVELO~1\AppData\Local\Temp\cc43K8rk.s 			page 67


 3763 01c8 19       		.uleb128 0x19
 3764 01c9 03       		.uleb128 0x3
 3765 01ca 0E       		.uleb128 0xe
 3766 01cb 3A       		.uleb128 0x3a
 3767 01cc 0B       		.uleb128 0xb
 3768 01cd 3B       		.uleb128 0x3b
 3769 01ce 0B       		.uleb128 0xb
 3770 01cf 39       		.uleb128 0x39
 3771 01d0 0B       		.uleb128 0xb
 3772 01d1 27       		.uleb128 0x27
 3773 01d2 19       		.uleb128 0x19
 3774 01d3 11       		.uleb128 0x11
 3775 01d4 01       		.uleb128 0x1
 3776 01d5 12       		.uleb128 0x12
 3777 01d6 06       		.uleb128 0x6
 3778 01d7 40       		.uleb128 0x40
 3779 01d8 18       		.uleb128 0x18
 3780 01d9 7C       		.uleb128 0x7c
 3781 01da 19       		.uleb128 0x19
 3782 01db 01       		.uleb128 0x1
 3783 01dc 13       		.uleb128 0x13
 3784 01dd 00       		.byte	0
 3785 01de 00       		.byte	0
 3786 01df 1D       		.uleb128 0x1d
 3787 01e0 34       		.uleb128 0x34
 3788 01e1 00       		.byte	0
 3789 01e2 03       		.uleb128 0x3
 3790 01e3 0E       		.uleb128 0xe
 3791 01e4 3A       		.uleb128 0x3a
 3792 01e5 0B       		.uleb128 0xb
 3793 01e6 3B       		.uleb128 0x3b
 3794 01e7 0B       		.uleb128 0xb
 3795 01e8 39       		.uleb128 0x39
 3796 01e9 0B       		.uleb128 0xb
 3797 01ea 49       		.uleb128 0x49
 3798 01eb 13       		.uleb128 0x13
 3799 01ec 02       		.uleb128 0x2
 3800 01ed 18       		.uleb128 0x18
 3801 01ee 00       		.byte	0
 3802 01ef 00       		.byte	0
 3803 01f0 1E       		.uleb128 0x1e
 3804 01f1 0B       		.uleb128 0xb
 3805 01f2 01       		.byte	0x1
 3806 01f3 11       		.uleb128 0x11
 3807 01f4 01       		.uleb128 0x1
 3808 01f5 12       		.uleb128 0x12
 3809 01f6 06       		.uleb128 0x6
 3810 01f7 00       		.byte	0
 3811 01f8 00       		.byte	0
 3812 01f9 1F       		.uleb128 0x1f
 3813 01fa 2E       		.uleb128 0x2e
 3814 01fb 00       		.byte	0
 3815 01fc 3F       		.uleb128 0x3f
 3816 01fd 19       		.uleb128 0x19
 3817 01fe 03       		.uleb128 0x3
 3818 01ff 0E       		.uleb128 0xe
 3819 0200 3A       		.uleb128 0x3a
ARM GAS  C:\Users\DEVELO~1\AppData\Local\Temp\cc43K8rk.s 			page 68


 3820 0201 0B       		.uleb128 0xb
 3821 0202 3B       		.uleb128 0x3b
 3822 0203 0B       		.uleb128 0xb
 3823 0204 39       		.uleb128 0x39
 3824 0205 0B       		.uleb128 0xb
 3825 0206 27       		.uleb128 0x27
 3826 0207 19       		.uleb128 0x19
 3827 0208 11       		.uleb128 0x11
 3828 0209 01       		.uleb128 0x1
 3829 020a 12       		.uleb128 0x12
 3830 020b 06       		.uleb128 0x6
 3831 020c 40       		.uleb128 0x40
 3832 020d 18       		.uleb128 0x18
 3833 020e 7C       		.uleb128 0x7c
 3834 020f 19       		.uleb128 0x19
 3835 0210 00       		.byte	0
 3836 0211 00       		.byte	0
 3837 0212 00       		.byte	0
 3838              		.section	.debug_aranges,"",%progbits
 3839 0000 94000000 		.4byte	0x94
 3840 0004 0200     		.2byte	0x2
 3841 0006 00000000 		.4byte	.Ldebug_info0
 3842 000a 04       		.byte	0x4
 3843 000b 00       		.byte	0
 3844 000c 0000     		.2byte	0
 3845 000e 0000     		.2byte	0
 3846 0010 00000000 		.4byte	.LFB173
 3847 0014 74000000 		.4byte	.LFE173-.LFB173
 3848 0018 00000000 		.4byte	.LFB379
 3849 001c 40000000 		.4byte	.LFE379-.LFB379
 3850 0020 00000000 		.4byte	.LFB380
 3851 0024 40000000 		.4byte	.LFE380-.LFB380
 3852 0028 00000000 		.4byte	.LFB381
 3853 002c 40000000 		.4byte	.LFE381-.LFB381
 3854 0030 00000000 		.4byte	.LFB382
 3855 0034 40000000 		.4byte	.LFE382-.LFB382
 3856 0038 00000000 		.4byte	.LFB383
 3857 003c 40000000 		.4byte	.LFE383-.LFB383
 3858 0040 00000000 		.4byte	.LFB384
 3859 0044 40000000 		.4byte	.LFE384-.LFB384
 3860 0048 00000000 		.4byte	.LFB385
 3861 004c 40000000 		.4byte	.LFE385-.LFB385
 3862 0050 00000000 		.4byte	.LFB386
 3863 0054 34000000 		.4byte	.LFE386-.LFB386
 3864 0058 00000000 		.4byte	.LFB387
 3865 005c 40000000 		.4byte	.LFE387-.LFB387
 3866 0060 00000000 		.4byte	.LFB400
 3867 0064 5C000000 		.4byte	.LFE400-.LFB400
 3868 0068 00000000 		.4byte	.LFB406
 3869 006c 5C000000 		.4byte	.LFE406-.LFB406
 3870 0070 00000000 		.4byte	.LFB432
 3871 0074 3C000000 		.4byte	.LFE432-.LFB432
 3872 0078 00000000 		.4byte	.LFB433
 3873 007c 5C000000 		.4byte	.LFE433-.LFB433
 3874 0080 00000000 		.4byte	.LFB434
 3875 0084 94000000 		.4byte	.LFE434-.LFB434
 3876 0088 00000000 		.4byte	.LFB435
ARM GAS  C:\Users\DEVELO~1\AppData\Local\Temp\cc43K8rk.s 			page 69


 3877 008c 18020000 		.4byte	.LFE435-.LFB435
 3878 0090 00000000 		.4byte	0
 3879 0094 00000000 		.4byte	0
 3880              		.section	.debug_rnglists,"",%progbits
 3881              	.Ldebug_ranges0:
 3882 0000 6B000000 		.4byte	.Ldebug_ranges3-.Ldebug_ranges2
 3883              	.Ldebug_ranges2:
 3884 0004 0500     		.2byte	0x5
 3885 0006 04       		.byte	0x4
 3886 0007 00       		.byte	0
 3887 0008 00000000 		.4byte	0
 3888              	.LLRL0:
 3889 000c 07       		.byte	0x7
 3890 000d 00000000 		.4byte	.LFB173
 3891 0011 74       		.uleb128 .LFE173-.LFB173
 3892 0012 07       		.byte	0x7
 3893 0013 00000000 		.4byte	.LFB379
 3894 0017 40       		.uleb128 .LFE379-.LFB379
 3895 0018 07       		.byte	0x7
 3896 0019 00000000 		.4byte	.LFB380
 3897 001d 40       		.uleb128 .LFE380-.LFB380
 3898 001e 07       		.byte	0x7
 3899 001f 00000000 		.4byte	.LFB381
 3900 0023 40       		.uleb128 .LFE381-.LFB381
 3901 0024 07       		.byte	0x7
 3902 0025 00000000 		.4byte	.LFB382
 3903 0029 40       		.uleb128 .LFE382-.LFB382
 3904 002a 07       		.byte	0x7
 3905 002b 00000000 		.4byte	.LFB383
 3906 002f 40       		.uleb128 .LFE383-.LFB383
 3907 0030 07       		.byte	0x7
 3908 0031 00000000 		.4byte	.LFB384
 3909 0035 40       		.uleb128 .LFE384-.LFB384
 3910 0036 07       		.byte	0x7
 3911 0037 00000000 		.4byte	.LFB385
 3912 003b 40       		.uleb128 .LFE385-.LFB385
 3913 003c 07       		.byte	0x7
 3914 003d 00000000 		.4byte	.LFB386
 3915 0041 34       		.uleb128 .LFE386-.LFB386
 3916 0042 07       		.byte	0x7
 3917 0043 00000000 		.4byte	.LFB387
 3918 0047 40       		.uleb128 .LFE387-.LFB387
 3919 0048 07       		.byte	0x7
 3920 0049 00000000 		.4byte	.LFB400
 3921 004d 5C       		.uleb128 .LFE400-.LFB400
 3922 004e 07       		.byte	0x7
 3923 004f 00000000 		.4byte	.LFB406
 3924 0053 5C       		.uleb128 .LFE406-.LFB406
 3925 0054 07       		.byte	0x7
 3926 0055 00000000 		.4byte	.LFB432
 3927 0059 3C       		.uleb128 .LFE432-.LFB432
 3928 005a 07       		.byte	0x7
 3929 005b 00000000 		.4byte	.LFB433
 3930 005f 5C       		.uleb128 .LFE433-.LFB433
 3931 0060 07       		.byte	0x7
 3932 0061 00000000 		.4byte	.LFB434
 3933 0065 9401     		.uleb128 .LFE434-.LFB434
ARM GAS  C:\Users\DEVELO~1\AppData\Local\Temp\cc43K8rk.s 			page 70


 3934 0067 07       		.byte	0x7
 3935 0068 00000000 		.4byte	.LFB435
 3936 006c 9804     		.uleb128 .LFE435-.LFB435
 3937 006e 00       		.byte	0
 3938              	.Ldebug_ranges3:
 3939              		.section	.debug_line,"",%progbits
 3940              	.Ldebug_line0:
 3941 0000 9F060000 		.section	.debug_str,"MS",%progbits,1
 3941      0300FA01 
 3941      00000201 
 3941      FB0E0D00 
 3941      01010101 
 3942              	.LASF204:
 3943 0000 68616C5F 		.ascii	"hal_lld_init\000"
 3943      6C6C645F 
 3943      696E6974 
 3943      00
 3944              	.LASF19:
 3945 000d 53485052 		.ascii	"SHPR\000"
 3945      00
 3946              	.LASF59:
 3947 0012 41484253 		.ascii	"AHBSCR\000"
 3947      435200
 3948              	.LASF153:
 3949 0019 41484232 		.ascii	"AHB2ENR\000"
 3949      454E5200 
 3950              	.LASF114:
 3951 0021 574B5550 		.ascii	"WKUPFR\000"
 3951      465200
 3952              	.LASF92:
 3953 0028 43524344 		.ascii	"CRCDATA\000"
 3953      41544100 
 3954              	.LASF3:
 3955 0030 7369676E 		.ascii	"signed char\000"
 3955      65642063 
 3955      68617200 
 3956              	.LASF8:
 3957 003c 5F5F7569 		.ascii	"__uint8_t\000"
 3957      6E74385F 
 3957      7400
 3958              	.LASF38:
 3959 0046 53544952 		.ascii	"STIR\000"
 3959      00
 3960              	.LASF62:
 3961 004b 5343425F 		.ascii	"SCB_Type\000"
 3961      54797065 
 3961      00
 3962              	.LASF167:
 3963 0054 41504231 		.ascii	"APB1HLPENR\000"
 3963      484C5045 
 3963      4E5200
 3964              	.LASF7:
 3965 005f 6C6F6E67 		.ascii	"long int\000"
 3965      20696E74 
 3965      00
 3966              	.LASF77:
 3967 0068 4F505443 		.ascii	"OPTCR\000"
ARM GAS  C:\Users\DEVELO~1\AppData\Local\Temp\cc43K8rk.s 			page 71


 3967      5200
 3968              	.LASF82:
 3969 006e 50524152 		.ascii	"PRAR_PRG1\000"
 3969      5F505247 
 3969      3100
 3970              	.LASF99:
 3971 0078 50524152 		.ascii	"PRAR_PRG2\000"
 3971      5F505247 
 3971      3200
 3972              	.LASF33:
 3973 0082 434C4944 		.ascii	"CLIDR\000"
 3973      5200
 3974              	.LASF200:
 3975 0088 2E2E2F2E 		.ascii	"../../../os/hal/ports/STM32/STM32H7xx/hal_lld.c\000"
 3975      2E2F2E2E 
 3975      2F6F732F 
 3975      68616C2F 
 3975      706F7274 
 3976              	.LASF190:
 3977 00b8 5F5F7263 		.ascii	"__rccResetAPB2\000"
 3977      63526573 
 3977      65744150 
 3977      423200
 3978              	.LASF149:
 3979 00c7 4433414D 		.ascii	"D3AMR\000"
 3979      5200
 3980              	.LASF188:
 3981 00cd 5F5F7263 		.ascii	"__rccResetAPB4\000"
 3981      63526573 
 3981      65744150 
 3981      423400
 3982              	.LASF68:
 3983 00dc 52415352 		.ascii	"RASR_A1\000"
 3983      5F413100 
 3984              	.LASF70:
 3985 00e4 52415352 		.ascii	"RASR_A2\000"
 3985      5F413200 
 3986              	.LASF72:
 3987 00ec 52415352 		.ascii	"RASR_A3\000"
 3987      5F413300 
 3988              	.LASF15:
 3989 00f4 43505549 		.ascii	"CPUID\000"
 3989      4400
 3990              	.LASF27:
 3991 00fa 49445F50 		.ascii	"ID_PFR\000"
 3991      465200
 3992              	.LASF162:
 3993 0101 41484231 		.ascii	"AHB1LPENR\000"
 3993      4C50454E 
 3993      5200
 3994              	.LASF136:
 3995 010b 43494552 		.ascii	"CIER\000"
 3995      00
 3996              	.LASF143:
 3997 0110 41484234 		.ascii	"AHB4RSTR\000"
 3997      52535452 
 3997      00
ARM GAS  C:\Users\DEVELO~1\AppData\Local\Temp\cc43K8rk.s 			page 72


 3998              	.LASF1:
 3999 0119 6C6F6E67 		.ascii	"long long int\000"
 3999      206C6F6E 
 3999      6720696E 
 3999      7400
 4000              	.LASF87:
 4001 0127 424F4F54 		.ascii	"BOOT_CUR\000"
 4001      5F435552 
 4001      00
 4002              	.LASF113:
 4003 0130 574B5550 		.ascii	"WKUPCR\000"
 4003      435200
 4004              	.LASF176:
 4005 0137 6F6E6D61 		.ascii	"onmask\000"
 4005      736B00
 4006              	.LASF109:
 4007 013e 464C4153 		.ascii	"FLASH_TypeDef\000"
 4007      485F5479 
 4007      70654465 
 4007      6600
 4008              	.LASF10:
 4009 014c 6C6F6E67 		.ascii	"long unsigned int\000"
 4009      20756E73 
 4009      69676E65 
 4009      6420696E 
 4009      7400
 4010              	.LASF34:
 4011 015e 43435349 		.ascii	"CCSIDR\000"
 4011      445200
 4012              	.LASF80:
 4013 0165 4F505443 		.ascii	"OPTCCR\000"
 4013      435200
 4014              	.LASF150:
 4015 016c 52455345 		.ascii	"RESERVED11\000"
 4015      52564544 
 4015      313100
 4016              	.LASF160:
 4017 0177 52455345 		.ascii	"RESERVED12\000"
 4017      52564544 
 4017      313200
 4018              	.LASF170:
 4019 0182 52455345 		.ascii	"RESERVED13\000"
 4019      52564544 
 4019      313300
 4020              	.LASF107:
 4021 018d 43524344 		.ascii	"CRCDATA2\000"
 4021      41544132 
 4021      00
 4022              	.LASF127:
 4023 0196 504C4C31 		.ascii	"PLL1FRACR\000"
 4023      46524143 
 4023      5200
 4024              	.LASF147:
 4025 01a0 41504232 		.ascii	"APB2RSTR\000"
 4025      52535452 
 4025      00
 4026              	.LASF180:
ARM GAS  C:\Users\DEVELO~1\AppData\Local\Temp\cc43K8rk.s 			page 73


 4027 01a9 696E6974 		.ascii	"init_bkp_domain\000"
 4027      5F626B70 
 4027      5F646F6D 
 4027      61696E00 
 4028              	.LASF67:
 4029 01b9 52424152 		.ascii	"RBAR_A1\000"
 4029      5F413100 
 4030              	.LASF69:
 4031 01c1 52424152 		.ascii	"RBAR_A2\000"
 4031      5F413200 
 4032              	.LASF71:
 4033 01c9 52424152 		.ascii	"RBAR_A3\000"
 4033      5F413300 
 4034              	.LASF65:
 4035 01d1 52424152 		.ascii	"RBAR\000"
 4035      00
 4036              	.LASF75:
 4037 01d6 4F50544B 		.ascii	"OPTKEYR\000"
 4037      45595200 
 4038              	.LASF83:
 4039 01de 53434152 		.ascii	"SCAR_CUR1\000"
 4039      5F435552 
 4039      3100
 4040              	.LASF178:
 4041 01e8 6366676D 		.ascii	"cfgmask\000"
 4041      61736B00 
 4042              	.LASF100:
 4043 01f0 53434152 		.ascii	"SCAR_CUR2\000"
 4043      5F435552 
 4043      3200
 4044              	.LASF123:
 4045 01fa 44334346 		.ascii	"D3CFGR\000"
 4045      475200
 4046              	.LASF125:
 4047 0201 504C4C43 		.ascii	"PLLCFGR\000"
 4047      46475200 
 4048              	.LASF25:
 4049 0209 42464152 		.ascii	"BFAR\000"
 4049      00
 4050              	.LASF118:
 4051 020e 43525243 		.ascii	"CRRCR\000"
 4051      5200
 4052              	.LASF137:
 4053 0214 43494652 		.ascii	"CIFR\000"
 4053      00
 4054              	.LASF130:
 4055 0219 504C4C33 		.ascii	"PLL3DIVR\000"
 4055      44495652 
 4055      00
 4056              	.LASF9:
 4057 0222 5F5F7569 		.ascii	"__uint32_t\000"
 4057      6E743332 
 4057      5F7400
 4058              	.LASF181:
 4059 022d 6D61736B 		.ascii	"mask\000"
 4059      00
 4060              	.LASF133:
ARM GAS  C:\Users\DEVELO~1\AppData\Local\Temp\cc43K8rk.s 			page 74


 4061 0232 44324343 		.ascii	"D2CCIP1R\000"
 4061      49503152 
 4061      00
 4062              	.LASF196:
 4063 023b 77617973 		.ascii	"ways\000"
 4063      00
 4064              	.LASF135:
 4065 0240 44334343 		.ascii	"D3CCIPR\000"
 4065      49505200 
 4066              	.LASF28:
 4067 0248 49445F44 		.ascii	"ID_DFR\000"
 4067      465200
 4068              	.LASF50:
 4069 024f 4443434D 		.ascii	"DCCMVAC\000"
 4069      56414300 
 4070              	.LASF203:
 4071 0257 73746D33 		.ascii	"stm32_clock_init\000"
 4071      325F636C 
 4071      6F636B5F 
 4071      696E6974 
 4071      00
 4072              	.LASF11:
 4073 0268 6C6F6E67 		.ascii	"long long unsigned int\000"
 4073      206C6F6E 
 4073      6720756E 
 4073      7369676E 
 4073      65642069 
 4074              	.LASF129:
 4075 027f 504C4C32 		.ascii	"PLL2FRACR\000"
 4075      46524143 
 4075      5200
 4076              	.LASF58:
 4077 0289 43414352 		.ascii	"CACR\000"
 4077      00
 4078              	.LASF35:
 4079 028e 43535345 		.ascii	"CSSELR\000"
 4079      4C5200
 4080              	.LASF0:
 4081 0295 756E7369 		.ascii	"unsigned int\000"
 4081      676E6564 
 4081      20696E74 
 4081      00
 4082              	.LASF115:
 4083 02a2 574B5550 		.ascii	"WKUPEPR\000"
 4083      45505200 
 4084              	.LASF202:
 4085 02aa 53797374 		.ascii	"SystemCoreClock\000"
 4085      656D436F 
 4085      7265436C 
 4085      6F636B00 
 4086              	.LASF49:
 4087 02ba 4443434D 		.ascii	"DCCMVAU\000"
 4087      56415500 
 4088              	.LASF195:
 4089 02c2 73657473 		.ascii	"sets\000"
 4089      00
 4090              	.LASF53:
ARM GAS  C:\Users\DEVELO~1\AppData\Local\Temp\cc43K8rk.s 			page 75


 4091 02c7 44434349 		.ascii	"DCCISW\000"
 4091      535700
 4092              	.LASF111:
 4093 02ce 43505543 		.ascii	"CPUCR\000"
 4093      5200
 4094              	.LASF171:
 4095 02d4 5243435F 		.ascii	"RCC_TypeDef\000"
 4095      54797065 
 4095      44656600 
 4096              	.LASF17:
 4097 02e0 56544F52 		.ascii	"VTOR\000"
 4097      00
 4098              	.LASF88:
 4099 02e5 424F4F54 		.ascii	"BOOT_PRG\000"
 4099      5F505247 
 4099      00
 4100              	.LASF134:
 4101 02ee 44324343 		.ascii	"D2CCIP2R\000"
 4101      49503252 
 4101      00
 4102              	.LASF6:
 4103 02f7 73686F72 		.ascii	"short unsigned int\000"
 4103      7420756E 
 4103      7369676E 
 4103      65642069 
 4103      6E7400
 4104              	.LASF198:
 4105 030a 5F5F4953 		.ascii	"__ISB\000"
 4105      4200
 4106              	.LASF124:
 4107 0310 504C4C43 		.ascii	"PLLCKSELR\000"
 4107      4B53454C 
 4107      5200
 4108              	.LASF16:
 4109 031a 49435352 		.ascii	"ICSR\000"
 4109      00
 4110              	.LASF117:
 4111 031f 48534943 		.ascii	"HSICFGR\000"
 4111      46475200 
 4112              	.LASF199:
 4113 0327 474E5520 		.ascii	"GNU C17 11.3.1 20220712 -mcpu=cortex-m7 -mthumb -mf"
 4113      43313720 
 4113      31312E33 
 4113      2E312032 
 4113      30323230 
 4114 035a 6C6F6174 		.ascii	"loat-abi=soft -march=armv7e-m -ggdb -O0 -ffunction-"
 4114      2D616269 
 4114      3D736F66 
 4114      74202D6D 
 4114      61726368 
 4115 038d 73656374 		.ascii	"sections -fdata-sections -fno-common\000"
 4115      696F6E73 
 4115      202D6664 
 4115      6174612D 
 4115      73656374 
 4116              	.LASF18:
 4117 03b2 41495243 		.ascii	"AIRCR\000"
ARM GAS  C:\Users\DEVELO~1\AppData\Local\Temp\cc43K8rk.s 			page 76


 4117      5200
 4118              	.LASF23:
 4119 03b8 44465352 		.ascii	"DFSR\000"
 4119      00
 4120              	.LASF157:
 4121 03bd 41504231 		.ascii	"APB1HENR\000"
 4121      48454E52 
 4121      00
 4122              	.LASF55:
 4123 03c6 4954434D 		.ascii	"ITCMCR\000"
 4123      435200
 4124              	.LASF24:
 4125 03cd 4D4D4641 		.ascii	"MMFAR\000"
 4125      5200
 4126              	.LASF81:
 4127 03d3 50524152 		.ascii	"PRAR_CUR1\000"
 4127      5F435552 
 4127      3100
 4128              	.LASF98:
 4129 03dd 50524152 		.ascii	"PRAR_CUR2\000"
 4129      5F435552 
 4129      3200
 4130              	.LASF145:
 4131 03e7 41504231 		.ascii	"APB1LRSTR\000"
 4131      4C525354 
 4131      5200
 4132              	.LASF168:
 4133 03f1 41504232 		.ascii	"APB2LPENR\000"
 4133      4C50454E 
 4133      5200
 4134              	.LASF131:
 4135 03fb 504C4C33 		.ascii	"PLL3FRACR\000"
 4135      46524143 
 4135      5200
 4136              	.LASF61:
 4137 0405 41424653 		.ascii	"ABFSR\000"
 4137      5200
 4138              	.LASF148:
 4139 040b 41504234 		.ascii	"APB4RSTR\000"
 4139      52535452 
 4139      00
 4140              	.LASF116:
 4141 0414 5057525F 		.ascii	"PWR_TypeDef\000"
 4141      54797065 
 4141      44656600 
 4142              	.LASF197:
 4143 0420 5F5F4453 		.ascii	"__DSB\000"
 4143      4200
 4144              	.LASF84:
 4145 0426 53434152 		.ascii	"SCAR_PRG1\000"
 4145      5F505247 
 4145      3100
 4146              	.LASF101:
 4147 0430 53434152 		.ascii	"SCAR_PRG2\000"
 4147      5F505247 
 4147      3200
 4148              	.LASF159:
ARM GAS  C:\Users\DEVELO~1\AppData\Local\Temp\cc43K8rk.s 			page 77


 4149 043a 41504234 		.ascii	"APB4ENR\000"
 4149      454E5200 
 4150              	.LASF194:
 4151 0442 63637369 		.ascii	"ccsidr\000"
 4151      647200
 4152              	.LASF183:
 4153 0449 72636345 		.ascii	"rccEnableAPB4\000"
 4153      6E61626C 
 4153      65415042 
 4153      3400
 4154              	.LASF86:
 4155 0457 5750534E 		.ascii	"WPSN_PRG1\000"
 4155      5F505247 
 4155      3100
 4156              	.LASF103:
 4157 0461 5750534E 		.ascii	"WPSN_PRG2\000"
 4157      5F505247 
 4157      3200
 4158              	.LASF21:
 4159 046b 43465352 		.ascii	"CFSR\000"
 4159      00
 4160              	.LASF91:
 4161 0470 43524345 		.ascii	"CRCEADD1\000"
 4161      41444431 
 4161      00
 4162              	.LASF106:
 4163 0479 43524345 		.ascii	"CRCEADD2\000"
 4163      41444432 
 4163      00
 4164              	.LASF179:
 4165 0482 696E6974 		.ascii	"init_pwr\000"
 4165      5F707772 
 4165      00
 4166              	.LASF146:
 4167 048b 41504231 		.ascii	"APB1HRSTR\000"
 4167      48525354 
 4167      5200
 4168              	.LASF89:
 4169 0495 43524343 		.ascii	"CRCCR1\000"
 4169      523100
 4170              	.LASF104:
 4171 049c 43524343 		.ascii	"CRCCR2\000"
 4171      523200
 4172              	.LASF78:
 4173 04a3 4F505453 		.ascii	"OPTSR_CUR\000"
 4173      525F4355 
 4173      5200
 4174              	.LASF187:
 4175 04ad 5F5F7263 		.ascii	"__rccResetAHB1\000"
 4175      63526573 
 4175      65744148 
 4175      423100
 4176              	.LASF186:
 4177 04bc 5F5F7263 		.ascii	"__rccResetAHB2\000"
 4177      63526573 
 4177      65744148 
 4177      423200
ARM GAS  C:\Users\DEVELO~1\AppData\Local\Temp\cc43K8rk.s 			page 78


 4178              	.LASF185:
 4179 04cb 5F5F7263 		.ascii	"__rccResetAHB3\000"
 4179      63526573 
 4179      65744148 
 4179      423300
 4180              	.LASF184:
 4181 04da 5F5F7263 		.ascii	"__rccResetAHB4\000"
 4181      63526573 
 4181      65744148 
 4181      423400
 4182              	.LASF163:
 4183 04e9 41484232 		.ascii	"AHB2LPENR\000"
 4183      4C50454E 
 4183      5200
 4184              	.LASF57:
 4185 04f3 41484250 		.ascii	"AHBPCR\000"
 4185      435200
 4186              	.LASF165:
 4187 04fa 41504233 		.ascii	"APB3LPENR\000"
 4187      4C50454E 
 4187      5200
 4188              	.LASF177:
 4189 0504 7264796D 		.ascii	"rdymask\000"
 4189      61736B00 
 4190              	.LASF155:
 4191 050c 41504233 		.ascii	"APB3ENR\000"
 4191      454E5200 
 4192              	.LASF173:
 4193 0514 69727149 		.ascii	"irqInit\000"
 4193      6E697400 
 4194              	.LASF40:
 4195 051c 4D564652 		.ascii	"MVFR0\000"
 4195      3000
 4196              	.LASF41:
 4197 0522 4D564652 		.ascii	"MVFR1\000"
 4197      3100
 4198              	.LASF42:
 4199 0528 4D564652 		.ascii	"MVFR2\000"
 4199      3200
 4200              	.LASF32:
 4201 052e 52455345 		.ascii	"RESERVED0\000"
 4201      52564544 
 4201      3000
 4202              	.LASF94:
 4203 0538 52455345 		.ascii	"RESERVED1\000"
 4203      52564544 
 4203      3100
 4204              	.LASF44:
 4205 0542 49434941 		.ascii	"ICIALLU\000"
 4205      4C4C5500 
 4206              	.LASF37:
 4207 054a 52455345 		.ascii	"RESERVED3\000"
 4207      52564544 
 4207      3300
 4208              	.LASF122:
 4209 0554 44324346 		.ascii	"D2CFGR\000"
 4209      475200
ARM GAS  C:\Users\DEVELO~1\AppData\Local\Temp\cc43K8rk.s 			page 79


 4210              	.LASF43:
 4211 055b 52455345 		.ascii	"RESERVED5\000"
 4211      52564544 
 4211      3500
 4212              	.LASF45:
 4213 0565 52455345 		.ascii	"RESERVED6\000"
 4213      52564544 
 4213      3600
 4214              	.LASF54:
 4215 056f 52455345 		.ascii	"RESERVED7\000"
 4215      52564544 
 4215      3700
 4216              	.LASF60:
 4217 0579 52455345 		.ascii	"RESERVED8\000"
 4217      52564544 
 4217      3800
 4218              	.LASF172:
 4219 0583 5F426F6F 		.ascii	"_Bool\000"
 4219      6C00
 4220              	.LASF128:
 4221 0589 504C4C32 		.ascii	"PLL2DIVR\000"
 4221      44495652 
 4221      00
 4222              	.LASF4:
 4223 0592 756E7369 		.ascii	"unsigned char\000"
 4223      676E6564 
 4223      20636861 
 4223      7200
 4224              	.LASF154:
 4225 05a0 41484234 		.ascii	"AHB4ENR\000"
 4225      454E5200 
 4226              	.LASF20:
 4227 05a8 53484353 		.ascii	"SHCSR\000"
 4227      5200
 4228              	.LASF52:
 4229 05ae 44434349 		.ascii	"DCCIMVAC\000"
 4229      4D564143 
 4229      00
 4230              	.LASF5:
 4231 05b7 73686F72 		.ascii	"short int\000"
 4231      7420696E 
 4231      7400
 4232              	.LASF30:
 4233 05c1 49445F4D 		.ascii	"ID_MFR\000"
 4233      465200
 4234              	.LASF161:
 4235 05c8 41484233 		.ascii	"AHB3LPENR\000"
 4235      4C50454E 
 4235      5200
 4236              	.LASF169:
 4237 05d2 41504234 		.ascii	"APB4LPENR\000"
 4237      4C50454E 
 4237      5200
 4238              	.LASF46:
 4239 05dc 4943494D 		.ascii	"ICIMVAU\000"
 4239      56415500 
 4240              	.LASF93:
ARM GAS  C:\Users\DEVELO~1\AppData\Local\Temp\cc43K8rk.s 			page 80


 4241 05e4 4543435F 		.ascii	"ECC_FA1\000"
 4241      46413100 
 4242              	.LASF108:
 4243 05ec 4543435F 		.ascii	"ECC_FA2\000"
 4243      46413200 
 4244              	.LASF48:
 4245 05f4 44434953 		.ascii	"DCISW\000"
 4245      5700
 4246              	.LASF158:
 4247 05fa 41504232 		.ascii	"APB2ENR\000"
 4247      454E5200 
 4248              	.LASF140:
 4249 0602 41484233 		.ascii	"AHB3RSTR\000"
 4249      52535452 
 4249      00
 4250              	.LASF151:
 4251 060b 41484233 		.ascii	"AHB3ENR\000"
 4251      454E5200 
 4252              	.LASF96:
 4253 0613 52455345 		.ascii	"RESERVED2\000"
 4253      52564544 
 4253      3200
 4254              	.LASF189:
 4255 061d 5F5F7263 		.ascii	"__rccResetAPB3\000"
 4255      63526573 
 4255      65744150 
 4255      423300
 4256              	.LASF39:
 4257 062c 52455345 		.ascii	"RESERVED4\000"
 4257      52564544 
 4257      3400
 4258              	.LASF144:
 4259 0636 41504233 		.ascii	"APB3RSTR\000"
 4259      52535452 
 4259      00
 4260              	.LASF13:
 4261 063f 75696E74 		.ascii	"uint32_t\000"
 4261      33325F74 
 4261      00
 4262              	.LASF112:
 4263 0648 44334352 		.ascii	"D3CR\000"
 4263      00
 4264              	.LASF26:
 4265 064d 41465352 		.ascii	"AFSR\000"
 4265      00
 4266              	.LASF126:
 4267 0652 504C4C31 		.ascii	"PLL1DIVR\000"
 4267      44495652 
 4267      00
 4268              	.LASF132:
 4269 065b 44314343 		.ascii	"D1CCIPR\000"
 4269      49505200 
 4270              	.LASF174:
 4271 0663 646D6149 		.ascii	"dmaInit\000"
 4271      6E697400 
 4272              	.LASF2:
 4273 066b 6C6F6E67 		.ascii	"long double\000"
ARM GAS  C:\Users\DEVELO~1\AppData\Local\Temp\cc43K8rk.s 			page 81


 4273      20646F75 
 4273      626C6500 
 4274              	.LASF14:
 4275 0677 63686172 		.ascii	"char\000"
 4275      00
 4276              	.LASF193:
 4277 067c 5343425F 		.ascii	"SCB_CleanInvalidateDCache\000"
 4277      436C6561 
 4277      6E496E76 
 4277      616C6964 
 4277      61746544 
 4278              	.LASF66:
 4279 0696 52415352 		.ascii	"RASR\000"
 4279      00
 4280              	.LASF79:
 4281 069b 4F505453 		.ascii	"OPTSR_PRG\000"
 4281      525F5052 
 4281      4700
 4282              	.LASF142:
 4283 06a5 41484232 		.ascii	"AHB2RSTR\000"
 4283      52535452 
 4283      00
 4284              	.LASF51:
 4285 06ae 44434353 		.ascii	"DCCSW\000"
 4285      5700
 4286              	.LASF63:
 4287 06b4 54595045 		.ascii	"TYPE\000"
 4287      00
 4288              	.LASF164:
 4289 06b9 41484234 		.ascii	"AHB4LPENR\000"
 4289      4C50454E 
 4289      5200
 4290              	.LASF74:
 4291 06c3 4B455952 		.ascii	"KEYR1\000"
 4291      3100
 4292              	.LASF139:
 4293 06c9 42444352 		.ascii	"BDCR\000"
 4293      00
 4294              	.LASF47:
 4295 06ce 4443494D 		.ascii	"DCIMVAC\000"
 4295      56414300 
 4296              	.LASF95:
 4297 06d6 4B455952 		.ascii	"KEYR2\000"
 4297      3200
 4298              	.LASF119:
 4299 06dc 43534943 		.ascii	"CSICFGR\000"
 4299      46475200 
 4300              	.LASF29:
 4301 06e4 49445F41 		.ascii	"ID_AFR\000"
 4301      465200
 4302              	.LASF64:
 4303 06eb 4354524C 		.ascii	"CTRL\000"
 4303      00
 4304              	.LASF141:
 4305 06f0 41484231 		.ascii	"AHB1RSTR\000"
 4305      52535452 
 4305      00
ARM GAS  C:\Users\DEVELO~1\AppData\Local\Temp\cc43K8rk.s 			page 82


 4306              	.LASF85:
 4307 06f9 5750534E 		.ascii	"WPSN_CUR1\000"
 4307      5F435552 
 4307      3100
 4308              	.LASF102:
 4309 0703 5750534E 		.ascii	"WPSN_CUR2\000"
 4309      5F435552 
 4309      3200
 4310              	.LASF166:
 4311 070d 41504231 		.ascii	"APB1LLPENR\000"
 4311      4C4C5045 
 4311      4E5200
 4312              	.LASF76:
 4313 0718 43435231 		.ascii	"CCR1\000"
 4313      00
 4314              	.LASF97:
 4315 071d 43435232 		.ascii	"CCR2\000"
 4315      00
 4316              	.LASF138:
 4317 0722 43494352 		.ascii	"CICR\000"
 4317      00
 4318              	.LASF191:
 4319 0727 5F5F7263 		.ascii	"__rccResetAPB1H\000"
 4319      63526573 
 4319      65744150 
 4319      42314800 
 4320              	.LASF192:
 4321 0737 5F5F7263 		.ascii	"__rccResetAPB1L\000"
 4321      63526573 
 4321      65744150 
 4321      42314C00 
 4322              	.LASF56:
 4323 0747 4454434D 		.ascii	"DTCMCR\000"
 4323      435200
 4324              	.LASF12:
 4325 074e 75696E74 		.ascii	"uint8_t\000"
 4325      385F7400 
 4326              	.LASF90:
 4327 0756 43524353 		.ascii	"CRCSADD1\000"
 4327      41444431 
 4327      00
 4328              	.LASF105:
 4329 075f 43524353 		.ascii	"CRCSADD2\000"
 4329      41444432 
 4329      00
 4330              	.LASF175:
 4331 0768 63666772 		.ascii	"cfgr\000"
 4331      00
 4332              	.LASF31:
 4333 076d 49445F49 		.ascii	"ID_ISAR\000"
 4333      53415200 
 4334              	.LASF73:
 4335 0775 4D50555F 		.ascii	"MPU_Type\000"
 4335      54797065 
 4335      00
 4336              	.LASF152:
 4337 077e 41484231 		.ascii	"AHB1ENR\000"
ARM GAS  C:\Users\DEVELO~1\AppData\Local\Temp\cc43K8rk.s 			page 83


 4337      454E5200 
 4338              	.LASF120:
 4339 0786 43464752 		.ascii	"CFGR\000"
 4339      00
 4340              	.LASF36:
 4341 078b 43504143 		.ascii	"CPACR\000"
 4341      5200
 4342              	.LASF22:
 4343 0791 48465352 		.ascii	"HFSR\000"
 4343      00
 4344              	.LASF156:
 4345 0796 41504231 		.ascii	"APB1LENR\000"
 4345      4C454E52 
 4345      00
 4346              	.LASF110:
 4347 079f 43535231 		.ascii	"CSR1\000"
 4347      00
 4348              	.LASF201:
 4349 07a4 433A5C50 		.ascii	"C:\\PROJET\\ChibiOS project\\ChibiOS_21.11.4\\demos"
 4349      524F4A45 
 4349      545C4368 
 4349      6962694F 
 4349      53207072 
 4350 07d3 5C53544D 		.ascii	"\\STM32\\RT-STM32H743ZI_REV_XY-NUCLEO144_Quartz8M\000"
 4350      33325C52 
 4350      542D5354 
 4350      4D333248 
 4350      3734335A 
 4351              	.LASF182:
 4352 0803 72636345 		.ascii	"rccEnableAHB2\000"
 4352      6E61626C 
 4352      65414842 
 4352      3200
 4353              	.LASF121:
 4354 0811 44314346 		.ascii	"D1CFGR\000"
 4354      475200
 4355              		.ident	"GCC: (Arm GNU Toolchain 11.3.Rel1) 11.3.1 20220712"
ARM GAS  C:\Users\DEVELO~1\AppData\Local\Temp\cc43K8rk.s 			page 84


DEFINED SYMBOLS
                            *ABS*:00000000 hal_lld.c
C:\Users\DEVELO~1\AppData\Local\Temp\cc43K8rk.s:18     .text.SCB_CleanInvalidateDCache:00000000 $t
C:\Users\DEVELO~1\AppData\Local\Temp\cc43K8rk.s:23     .text.SCB_CleanInvalidateDCache:00000000 SCB_CleanInvalidateDCache
C:\Users\DEVELO~1\AppData\Local\Temp\cc43K8rk.s:145    .text.SCB_CleanInvalidateDCache:00000070 $d
C:\Users\DEVELO~1\AppData\Local\Temp\cc43K8rk.s:150    .text.__rccResetAPB1L:00000000 $t
C:\Users\DEVELO~1\AppData\Local\Temp\cc43K8rk.s:155    .text.__rccResetAPB1L:00000000 __rccResetAPB1L
C:\Users\DEVELO~1\AppData\Local\Temp\cc43K8rk.s:206    .text.__rccResetAPB1L:0000003c $d
C:\Users\DEVELO~1\AppData\Local\Temp\cc43K8rk.s:211    .text.__rccResetAPB1H:00000000 $t
C:\Users\DEVELO~1\AppData\Local\Temp\cc43K8rk.s:216    .text.__rccResetAPB1H:00000000 __rccResetAPB1H
C:\Users\DEVELO~1\AppData\Local\Temp\cc43K8rk.s:266    .text.__rccResetAPB1H:0000003c $d
C:\Users\DEVELO~1\AppData\Local\Temp\cc43K8rk.s:271    .text.__rccResetAPB2:00000000 $t
C:\Users\DEVELO~1\AppData\Local\Temp\cc43K8rk.s:276    .text.__rccResetAPB2:00000000 __rccResetAPB2
C:\Users\DEVELO~1\AppData\Local\Temp\cc43K8rk.s:326    .text.__rccResetAPB2:0000003c $d
C:\Users\DEVELO~1\AppData\Local\Temp\cc43K8rk.s:331    .text.__rccResetAPB3:00000000 $t
C:\Users\DEVELO~1\AppData\Local\Temp\cc43K8rk.s:336    .text.__rccResetAPB3:00000000 __rccResetAPB3
C:\Users\DEVELO~1\AppData\Local\Temp\cc43K8rk.s:386    .text.__rccResetAPB3:0000003c $d
C:\Users\DEVELO~1\AppData\Local\Temp\cc43K8rk.s:391    .text.__rccResetAPB4:00000000 $t
C:\Users\DEVELO~1\AppData\Local\Temp\cc43K8rk.s:396    .text.__rccResetAPB4:00000000 __rccResetAPB4
C:\Users\DEVELO~1\AppData\Local\Temp\cc43K8rk.s:446    .text.__rccResetAPB4:0000003c $d
C:\Users\DEVELO~1\AppData\Local\Temp\cc43K8rk.s:451    .text.__rccResetAHB1:00000000 $t
C:\Users\DEVELO~1\AppData\Local\Temp\cc43K8rk.s:456    .text.__rccResetAHB1:00000000 __rccResetAHB1
C:\Users\DEVELO~1\AppData\Local\Temp\cc43K8rk.s:506    .text.__rccResetAHB1:0000003c $d
C:\Users\DEVELO~1\AppData\Local\Temp\cc43K8rk.s:511    .text.__rccResetAHB2:00000000 $t
C:\Users\DEVELO~1\AppData\Local\Temp\cc43K8rk.s:516    .text.__rccResetAHB2:00000000 __rccResetAHB2
C:\Users\DEVELO~1\AppData\Local\Temp\cc43K8rk.s:566    .text.__rccResetAHB2:0000003c $d
C:\Users\DEVELO~1\AppData\Local\Temp\cc43K8rk.s:571    .text.__rccResetAHB3:00000000 $t
C:\Users\DEVELO~1\AppData\Local\Temp\cc43K8rk.s:576    .text.__rccResetAHB3:00000000 __rccResetAHB3
C:\Users\DEVELO~1\AppData\Local\Temp\cc43K8rk.s:626    .text.__rccResetAHB3:00000030 $d
C:\Users\DEVELO~1\AppData\Local\Temp\cc43K8rk.s:631    .text.__rccResetAHB4:00000000 $t
C:\Users\DEVELO~1\AppData\Local\Temp\cc43K8rk.s:636    .text.__rccResetAHB4:00000000 __rccResetAHB4
C:\Users\DEVELO~1\AppData\Local\Temp\cc43K8rk.s:686    .text.__rccResetAHB4:0000003c $d
C:\Users\DEVELO~1\AppData\Local\Temp\cc43K8rk.s:691    .text.rccEnableAPB4:00000000 $t
C:\Users\DEVELO~1\AppData\Local\Temp\cc43K8rk.s:696    .text.rccEnableAPB4:00000000 rccEnableAPB4
C:\Users\DEVELO~1\AppData\Local\Temp\cc43K8rk.s:762    .text.rccEnableAPB4:00000058 $d
C:\Users\DEVELO~1\AppData\Local\Temp\cc43K8rk.s:767    .text.rccEnableAHB2:00000000 $t
C:\Users\DEVELO~1\AppData\Local\Temp\cc43K8rk.s:772    .text.rccEnableAHB2:00000000 rccEnableAHB2
C:\Users\DEVELO~1\AppData\Local\Temp\cc43K8rk.s:838    .text.rccEnableAHB2:00000058 $d
C:\Users\DEVELO~1\AppData\Local\Temp\cc43K8rk.s:847    .data.SystemCoreClock:00000000 SystemCoreClock
C:\Users\DEVELO~1\AppData\Local\Temp\cc43K8rk.s:844    .data.SystemCoreClock:00000000 $d
C:\Users\DEVELO~1\AppData\Local\Temp\cc43K8rk.s:850    .text.init_bkp_domain:00000000 $t
C:\Users\DEVELO~1\AppData\Local\Temp\cc43K8rk.s:855    .text.init_bkp_domain:00000000 init_bkp_domain
C:\Users\DEVELO~1\AppData\Local\Temp\cc43K8rk.s:905    .text.init_bkp_domain:00000034 $d
C:\Users\DEVELO~1\AppData\Local\Temp\cc43K8rk.s:911    .text.init_pwr:00000000 $t
C:\Users\DEVELO~1\AppData\Local\Temp\cc43K8rk.s:916    .text.init_pwr:00000000 init_pwr
C:\Users\DEVELO~1\AppData\Local\Temp\cc43K8rk.s:993    .text.init_pwr:00000050 $d
C:\Users\DEVELO~1\AppData\Local\Temp\cc43K8rk.s:1000   .text.hal_lld_init:00000000 $t
C:\Users\DEVELO~1\AppData\Local\Temp\cc43K8rk.s:1006   .text.hal_lld_init:00000000 hal_lld_init
C:\Users\DEVELO~1\AppData\Local\Temp\cc43K8rk.s:1076   .text.hal_lld_init:00000080 $d
C:\Users\DEVELO~1\AppData\Local\Temp\cc43K8rk.s:1085   .text.stm32_clock_init:00000000 $t
C:\Users\DEVELO~1\AppData\Local\Temp\cc43K8rk.s:1091   .text.stm32_clock_init:00000000 stm32_clock_init
C:\Users\DEVELO~1\AppData\Local\Temp\cc43K8rk.s:1430   .text.stm32_clock_init:000001f0 $d

UNDEFINED SYMBOLS
dmaInit
irqInit
