ARM GAS  C:\Users\DEVELO~1\AppData\Local\Temp\ccHwwtpW.s 			page 1


   1              		.cpu cortex-m7
   2              		.arch armv7e-m
   3              		.fpu softvfp
   4              		.eabi_attribute 20, 1
   5              		.eabi_attribute 21, 1
   6              		.eabi_attribute 23, 3
   7              		.eabi_attribute 24, 1
   8              		.eabi_attribute 25, 1
   9              		.eabi_attribute 26, 1
  10              		.eabi_attribute 30, 6
  11              		.eabi_attribute 34, 1
  12              		.eabi_attribute 18, 4
  13              		.file	"hal_i2c.c"
  14              		.text
  15              	.Ltext0:
  16              		.cfi_sections	.debug_frame
  17              		.section	.text.chSysLock,"ax",%progbits
  18              		.align	1
  19              		.syntax unified
  20              		.thumb
  21              		.thumb_func
  22              		.type	chSysLock, %function
  23              	chSysLock:
  24              	.LFB202:
  25              		.file 1 "../../../os/rt/include/chsys.h"
  26              		.loc 1 407 36
  27              		.cfi_startproc
  28              		@ args = 0, pretend = 0, frame = 8
  29              		@ frame_needed = 1, uses_anonymous_args = 0
  30              		@ link register save eliminated.
  31 0000 80B4     		push	{r7}
  32              		.cfi_def_cfa_offset 4
  33              		.cfi_offset 7, -4
  34 0002 83B0     		sub	sp, sp, #12
  35              		.cfi_def_cfa_offset 16
  36 0004 00AF     		add	r7, sp, #0
  37              		.cfi_def_cfa_register 7
  38 0006 3023     		movs	r3, #48
  39 0008 7B60     		str	r3, [r7, #4]
  40              	.LBB14:
  41              	.LBB15:
  42              	.LBB16:
  43              	.LBB17:
  44              		.file 2 "../../../os/common/ext/ARM/CMSIS/Core/Include/cmsis_gcc.h"
  45              		.loc 2 493 3
  46 000a 7B68     		ldr	r3, [r7, #4]
  47              		.syntax unified
  48              	@ 493 "../../../os/common/ext/ARM/CMSIS/Core/Include/cmsis_gcc.h" 1
  49 000c 83F31188 		MSR basepri, r3
  50              	@ 0 "" 2
  51              		.loc 2 494 1
  52              		.thumb
  53              		.syntax unified
  54 0010 00BF     		nop
  55              	.LBE17:
  56              	.LBE16:
  57              		.file 3 "../../../os/common/ports/ARMv7-M/chcore.h"
ARM GAS  C:\Users\DEVELO~1\AppData\Local\Temp\ccHwwtpW.s 			page 2


  58              		.loc 3 840 1
  59 0012 00BF     		nop
  60              	.LBE15:
  61              	.LBE14:
  62              		.loc 1 412 1
  63 0014 00BF     		nop
  64 0016 0C37     		adds	r7, r7, #12
  65              		.cfi_def_cfa_offset 4
  66 0018 BD46     		mov	sp, r7
  67              		.cfi_def_cfa_register 13
  68              		@ sp needed
  69 001a 80BC     		pop	{r7}
  70              		.cfi_restore 7
  71              		.cfi_def_cfa_offset 0
  72 001c 7047     		bx	lr
  73              		.cfi_endproc
  74              	.LFE202:
  75              		.size	chSysLock, .-chSysLock
  76              		.section	.text.chSysUnlock,"ax",%progbits
  77              		.align	1
  78              		.syntax unified
  79              		.thumb
  80              		.thumb_func
  81              		.type	chSysUnlock, %function
  82              	chSysUnlock:
  83              	.LFB203:
  84              		.loc 1 421 38
  85              		.cfi_startproc
  86              		@ args = 0, pretend = 0, frame = 8
  87              		@ frame_needed = 1, uses_anonymous_args = 0
  88              		@ link register save eliminated.
  89 0000 80B4     		push	{r7}
  90              		.cfi_def_cfa_offset 4
  91              		.cfi_offset 7, -4
  92 0002 83B0     		sub	sp, sp, #12
  93              		.cfi_def_cfa_offset 16
  94 0004 00AF     		add	r7, sp, #0
  95              		.cfi_def_cfa_register 7
  96 0006 0023     		movs	r3, #0
  97 0008 7B60     		str	r3, [r7, #4]
  98              	.LBB18:
  99              	.LBB19:
 100              	.LBB20:
 101              	.LBB21:
 102              		.loc 2 493 3
 103 000a 7B68     		ldr	r3, [r7, #4]
 104              		.syntax unified
 105              	@ 493 "../../../os/common/ext/ARM/CMSIS/Core/Include/cmsis_gcc.h" 1
 106 000c 83F31188 		MSR basepri, r3
 107              	@ 0 "" 2
 108              		.loc 2 494 1
 109              		.thumb
 110              		.syntax unified
 111 0010 00BF     		nop
 112              	.LBE21:
 113              	.LBE20:
 114              		.loc 3 854 1
ARM GAS  C:\Users\DEVELO~1\AppData\Local\Temp\ccHwwtpW.s 			page 3


 115 0012 00BF     		nop
 116              	.LBE19:
 117              	.LBE18:
 118              		.loc 1 435 1
 119 0014 00BF     		nop
 120 0016 0C37     		adds	r7, r7, #12
 121              		.cfi_def_cfa_offset 4
 122 0018 BD46     		mov	sp, r7
 123              		.cfi_def_cfa_register 13
 124              		@ sp needed
 125 001a 80BC     		pop	{r7}
 126              		.cfi_restore 7
 127              		.cfi_def_cfa_offset 0
 128 001c 7047     		bx	lr
 129              		.cfi_endproc
 130              	.LFE203:
 131              		.size	chSysUnlock, .-chSysUnlock
 132              		.section	.text.osalSysLock,"ax",%progbits
 133              		.align	1
 134              		.syntax unified
 135              		.thumb
 136              		.thumb_func
 137              		.type	osalSysLock, %function
 138              	osalSysLock:
 139              	.LFB350:
 140              		.file 4 "../../../os/hal/osal/rt-nil/osal.h"
 141              		.loc 4 573 38
 142              		.cfi_startproc
 143              		@ args = 0, pretend = 0, frame = 0
 144              		@ frame_needed = 1, uses_anonymous_args = 0
 145 0000 80B5     		push	{r7, lr}
 146              		.cfi_def_cfa_offset 8
 147              		.cfi_offset 7, -8
 148              		.cfi_offset 14, -4
 149 0002 00AF     		add	r7, sp, #0
 150              		.cfi_def_cfa_register 7
 151              		.loc 4 575 3
 152 0004 FFF7FEFF 		bl	chSysLock
 153              		.loc 4 576 1
 154 0008 00BF     		nop
 155 000a 80BD     		pop	{r7, pc}
 156              		.cfi_endproc
 157              	.LFE350:
 158              		.size	osalSysLock, .-osalSysLock
 159              		.section	.text.osalSysUnlock,"ax",%progbits
 160              		.align	1
 161              		.syntax unified
 162              		.thumb
 163              		.thumb_func
 164              		.type	osalSysUnlock, %function
 165              	osalSysUnlock:
 166              	.LFB351:
 167              		.loc 4 584 40
 168              		.cfi_startproc
 169              		@ args = 0, pretend = 0, frame = 0
 170              		@ frame_needed = 1, uses_anonymous_args = 0
 171 0000 80B5     		push	{r7, lr}
ARM GAS  C:\Users\DEVELO~1\AppData\Local\Temp\ccHwwtpW.s 			page 4


 172              		.cfi_def_cfa_offset 8
 173              		.cfi_offset 7, -8
 174              		.cfi_offset 14, -4
 175 0002 00AF     		add	r7, sp, #0
 176              		.cfi_def_cfa_register 7
 177              		.loc 4 586 3
 178 0004 FFF7FEFF 		bl	chSysUnlock
 179              		.loc 4 587 1
 180 0008 00BF     		nop
 181 000a 80BD     		pop	{r7, pc}
 182              		.cfi_endproc
 183              	.LFE351:
 184              		.size	osalSysUnlock, .-osalSysUnlock
 185              		.section	.text.osalMutexObjectInit,"ax",%progbits
 186              		.align	1
 187              		.syntax unified
 188              		.thumb
 189              		.thumb_func
 190              		.type	osalMutexObjectInit, %function
 191              	osalMutexObjectInit:
 192              	.LFB376:
 193              		.loc 4 1035 53
 194              		.cfi_startproc
 195              		@ args = 0, pretend = 0, frame = 8
 196              		@ frame_needed = 1, uses_anonymous_args = 0
 197 0000 80B5     		push	{r7, lr}
 198              		.cfi_def_cfa_offset 8
 199              		.cfi_offset 7, -8
 200              		.cfi_offset 14, -4
 201 0002 82B0     		sub	sp, sp, #8
 202              		.cfi_def_cfa_offset 16
 203 0004 00AF     		add	r7, sp, #0
 204              		.cfi_def_cfa_register 7
 205 0006 7860     		str	r0, [r7, #4]
 206              		.loc 4 1038 3
 207 0008 7868     		ldr	r0, [r7, #4]
 208 000a FFF7FEFF 		bl	chMtxObjectInit
 209              		.loc 4 1044 1
 210 000e 00BF     		nop
 211 0010 0837     		adds	r7, r7, #8
 212              		.cfi_def_cfa_offset 8
 213 0012 BD46     		mov	sp, r7
 214              		.cfi_def_cfa_register 13
 215              		@ sp needed
 216 0014 80BD     		pop	{r7, pc}
 217              		.cfi_endproc
 218              	.LFE376:
 219              		.size	osalMutexObjectInit, .-osalMutexObjectInit
 220              		.section	.text.osalMutexLock,"ax",%progbits
 221              		.align	1
 222              		.syntax unified
 223              		.thumb
 224              		.thumb_func
 225              		.type	osalMutexLock, %function
 226              	osalMutexLock:
 227              	.LFB377:
 228              		.loc 4 1055 47
ARM GAS  C:\Users\DEVELO~1\AppData\Local\Temp\ccHwwtpW.s 			page 5


 229              		.cfi_startproc
 230              		@ args = 0, pretend = 0, frame = 8
 231              		@ frame_needed = 1, uses_anonymous_args = 0
 232 0000 80B5     		push	{r7, lr}
 233              		.cfi_def_cfa_offset 8
 234              		.cfi_offset 7, -8
 235              		.cfi_offset 14, -4
 236 0002 82B0     		sub	sp, sp, #8
 237              		.cfi_def_cfa_offset 16
 238 0004 00AF     		add	r7, sp, #0
 239              		.cfi_def_cfa_register 7
 240 0006 7860     		str	r0, [r7, #4]
 241              		.loc 4 1058 3
 242 0008 7868     		ldr	r0, [r7, #4]
 243 000a FFF7FEFF 		bl	chMtxLock
 244              		.loc 4 1064 1
 245 000e 00BF     		nop
 246 0010 0837     		adds	r7, r7, #8
 247              		.cfi_def_cfa_offset 8
 248 0012 BD46     		mov	sp, r7
 249              		.cfi_def_cfa_register 13
 250              		@ sp needed
 251 0014 80BD     		pop	{r7, pc}
 252              		.cfi_endproc
 253              	.LFE377:
 254              		.size	osalMutexLock, .-osalMutexLock
 255              		.section	.text.osalMutexUnlock,"ax",%progbits
 256              		.align	1
 257              		.syntax unified
 258              		.thumb
 259              		.thumb_func
 260              		.type	osalMutexUnlock, %function
 261              	osalMutexUnlock:
 262              	.LFB378:
 263              		.loc 4 1079 49
 264              		.cfi_startproc
 265              		@ args = 0, pretend = 0, frame = 8
 266              		@ frame_needed = 1, uses_anonymous_args = 0
 267 0000 80B5     		push	{r7, lr}
 268              		.cfi_def_cfa_offset 8
 269              		.cfi_offset 7, -8
 270              		.cfi_offset 14, -4
 271 0002 82B0     		sub	sp, sp, #8
 272              		.cfi_def_cfa_offset 16
 273 0004 00AF     		add	r7, sp, #0
 274              		.cfi_def_cfa_register 7
 275 0006 7860     		str	r0, [r7, #4]
 276              		.loc 4 1082 3
 277 0008 7868     		ldr	r0, [r7, #4]
 278 000a FFF7FEFF 		bl	chMtxUnlock
 279              		.loc 4 1088 1
 280 000e 00BF     		nop
 281 0010 0837     		adds	r7, r7, #8
 282              		.cfi_def_cfa_offset 8
 283 0012 BD46     		mov	sp, r7
 284              		.cfi_def_cfa_register 13
 285              		@ sp needed
ARM GAS  C:\Users\DEVELO~1\AppData\Local\Temp\ccHwwtpW.s 			page 6


 286 0014 80BD     		pop	{r7, pc}
 287              		.cfi_endproc
 288              	.LFE378:
 289              		.size	osalMutexUnlock, .-osalMutexUnlock
 290              		.section	.text.i2cInit,"ax",%progbits
 291              		.align	1
 292              		.global	i2cInit
 293              		.syntax unified
 294              		.thumb
 295              		.thumb_func
 296              		.type	i2cInit, %function
 297              	i2cInit:
 298              	.LFB432:
 299              		.file 5 "../../../os/hal/src/hal_i2c.c"
 300              		.loc 5 59 20
 301              		.cfi_startproc
 302              		@ args = 0, pretend = 0, frame = 0
 303              		@ frame_needed = 1, uses_anonymous_args = 0
 304 0000 80B5     		push	{r7, lr}
 305              		.cfi_def_cfa_offset 8
 306              		.cfi_offset 7, -8
 307              		.cfi_offset 14, -4
 308 0002 00AF     		add	r7, sp, #0
 309              		.cfi_def_cfa_register 7
 310              		.loc 5 61 3
 311 0004 FFF7FEFF 		bl	i2c_lld_init
 312              		.loc 5 62 1
 313 0008 00BF     		nop
 314 000a 80BD     		pop	{r7, pc}
 315              		.cfi_endproc
 316              	.LFE432:
 317              		.size	i2cInit, .-i2cInit
 318              		.section	.text.i2cObjectInit,"ax",%progbits
 319              		.align	1
 320              		.global	i2cObjectInit
 321              		.syntax unified
 322              		.thumb
 323              		.thumb_func
 324              		.type	i2cObjectInit, %function
 325              	i2cObjectInit:
 326              	.LFB433:
 327              		.loc 5 71 37
 328              		.cfi_startproc
 329              		@ args = 0, pretend = 0, frame = 8
 330              		@ frame_needed = 1, uses_anonymous_args = 0
 331 0000 80B5     		push	{r7, lr}
 332              		.cfi_def_cfa_offset 8
 333              		.cfi_offset 7, -8
 334              		.cfi_offset 14, -4
 335 0002 82B0     		sub	sp, sp, #8
 336              		.cfi_def_cfa_offset 16
 337 0004 00AF     		add	r7, sp, #0
 338              		.cfi_def_cfa_register 7
 339 0006 7860     		str	r0, [r7, #4]
 340              		.loc 5 73 16
 341 0008 7B68     		ldr	r3, [r7, #4]
 342 000a 0122     		movs	r2, #1
ARM GAS  C:\Users\DEVELO~1\AppData\Local\Temp\ccHwwtpW.s 			page 7


 343 000c 1A70     		strb	r2, [r3]
 344              		.loc 5 74 16
 345 000e 7B68     		ldr	r3, [r7, #4]
 346 0010 0022     		movs	r2, #0
 347 0012 5A60     		str	r2, [r3, #4]
 348              		.loc 5 77 3
 349 0014 7B68     		ldr	r3, [r7, #4]
 350 0016 0C33     		adds	r3, r3, #12
 351 0018 1846     		mov	r0, r3
 352 001a FFF7FEFF 		bl	osalMutexObjectInit
 353              		.loc 5 83 1
 354 001e 00BF     		nop
 355 0020 0837     		adds	r7, r7, #8
 356              		.cfi_def_cfa_offset 8
 357 0022 BD46     		mov	sp, r7
 358              		.cfi_def_cfa_register 13
 359              		@ sp needed
 360 0024 80BD     		pop	{r7, pc}
 361              		.cfi_endproc
 362              	.LFE433:
 363              		.size	i2cObjectInit, .-i2cObjectInit
 364              		.section	.text.i2cStart,"ax",%progbits
 365              		.align	1
 366              		.global	i2cStart
 367              		.syntax unified
 368              		.thumb
 369              		.thumb_func
 370              		.type	i2cStart, %function
 371              	i2cStart:
 372              	.LFB434:
 373              		.loc 5 94 58
 374              		.cfi_startproc
 375              		@ args = 0, pretend = 0, frame = 16
 376              		@ frame_needed = 1, uses_anonymous_args = 0
 377 0000 80B5     		push	{r7, lr}
 378              		.cfi_def_cfa_offset 8
 379              		.cfi_offset 7, -8
 380              		.cfi_offset 14, -4
 381 0002 84B0     		sub	sp, sp, #16
 382              		.cfi_def_cfa_offset 24
 383 0004 00AF     		add	r7, sp, #0
 384              		.cfi_def_cfa_register 7
 385 0006 7860     		str	r0, [r7, #4]
 386 0008 3960     		str	r1, [r7]
 387              		.loc 5 99 3
 388 000a FFF7FEFF 		bl	osalSysLock
 389              		.loc 5 103 16
 390 000e 7B68     		ldr	r3, [r7, #4]
 391 0010 3A68     		ldr	r2, [r7]
 392 0012 5A60     		str	r2, [r3, #4]
 393              		.loc 5 114 3
 394 0014 7868     		ldr	r0, [r7, #4]
 395 0016 FFF7FEFF 		bl	i2c_lld_start
 396              		.loc 5 115 15
 397 001a 7B68     		ldr	r3, [r7, #4]
 398 001c 0222     		movs	r2, #2
 399 001e 1A70     		strb	r2, [r3]
ARM GAS  C:\Users\DEVELO~1\AppData\Local\Temp\ccHwwtpW.s 			page 8


 400              		.loc 5 116 7
 401 0020 0023     		movs	r3, #0
 402 0022 FB60     		str	r3, [r7, #12]
 403              		.loc 5 119 3
 404 0024 FFF7FEFF 		bl	osalSysUnlock
 405              		.loc 5 121 10
 406 0028 FB68     		ldr	r3, [r7, #12]
 407              		.loc 5 122 1
 408 002a 1846     		mov	r0, r3
 409 002c 1037     		adds	r7, r7, #16
 410              		.cfi_def_cfa_offset 8
 411 002e BD46     		mov	sp, r7
 412              		.cfi_def_cfa_register 13
 413              		@ sp needed
 414 0030 80BD     		pop	{r7, pc}
 415              		.cfi_endproc
 416              	.LFE434:
 417              		.size	i2cStart, .-i2cStart
 418              		.section	.text.i2cStop,"ax",%progbits
 419              		.align	1
 420              		.global	i2cStop
 421              		.syntax unified
 422              		.thumb
 423              		.thumb_func
 424              		.type	i2cStop, %function
 425              	i2cStop:
 426              	.LFB435:
 427              		.loc 5 131 31
 428              		.cfi_startproc
 429              		@ args = 0, pretend = 0, frame = 8
 430              		@ frame_needed = 1, uses_anonymous_args = 0
 431 0000 80B5     		push	{r7, lr}
 432              		.cfi_def_cfa_offset 8
 433              		.cfi_offset 7, -8
 434              		.cfi_offset 14, -4
 435 0002 82B0     		sub	sp, sp, #8
 436              		.cfi_def_cfa_offset 16
 437 0004 00AF     		add	r7, sp, #0
 438              		.cfi_def_cfa_register 7
 439 0006 7860     		str	r0, [r7, #4]
 440              		.loc 5 135 3
 441 0008 FFF7FEFF 		bl	osalSysLock
 442              		.loc 5 140 3
 443 000c 7868     		ldr	r0, [r7, #4]
 444 000e FFF7FEFF 		bl	i2c_lld_stop
 445              		.loc 5 141 16
 446 0012 7B68     		ldr	r3, [r7, #4]
 447 0014 0022     		movs	r2, #0
 448 0016 5A60     		str	r2, [r3, #4]
 449              		.loc 5 142 16
 450 0018 7B68     		ldr	r3, [r7, #4]
 451 001a 0122     		movs	r2, #1
 452 001c 1A70     		strb	r2, [r3]
 453              		.loc 5 144 3
 454 001e FFF7FEFF 		bl	osalSysUnlock
 455              		.loc 5 145 1
 456 0022 00BF     		nop
ARM GAS  C:\Users\DEVELO~1\AppData\Local\Temp\ccHwwtpW.s 			page 9


 457 0024 0837     		adds	r7, r7, #8
 458              		.cfi_def_cfa_offset 8
 459 0026 BD46     		mov	sp, r7
 460              		.cfi_def_cfa_register 13
 461              		@ sp needed
 462 0028 80BD     		pop	{r7, pc}
 463              		.cfi_endproc
 464              	.LFE435:
 465              		.size	i2cStop, .-i2cStop
 466              		.section	.text.i2cGetErrors,"ax",%progbits
 467              		.align	1
 468              		.global	i2cGetErrors
 469              		.syntax unified
 470              		.thumb
 471              		.thumb_func
 472              		.type	i2cGetErrors, %function
 473              	i2cGetErrors:
 474              	.LFB436:
 475              		.loc 5 155 42
 476              		.cfi_startproc
 477              		@ args = 0, pretend = 0, frame = 8
 478              		@ frame_needed = 1, uses_anonymous_args = 0
 479              		@ link register save eliminated.
 480 0000 80B4     		push	{r7}
 481              		.cfi_def_cfa_offset 4
 482              		.cfi_offset 7, -4
 483 0002 83B0     		sub	sp, sp, #12
 484              		.cfi_def_cfa_offset 16
 485 0004 00AF     		add	r7, sp, #0
 486              		.cfi_def_cfa_register 7
 487 0006 7860     		str	r0, [r7, #4]
 488              		.loc 5 159 10
 489 0008 7B68     		ldr	r3, [r7, #4]
 490 000a 9B68     		ldr	r3, [r3, #8]
 491              		.loc 5 160 1
 492 000c 1846     		mov	r0, r3
 493 000e 0C37     		adds	r7, r7, #12
 494              		.cfi_def_cfa_offset 4
 495 0010 BD46     		mov	sp, r7
 496              		.cfi_def_cfa_register 13
 497              		@ sp needed
 498 0012 80BC     		pop	{r7}
 499              		.cfi_restore 7
 500              		.cfi_def_cfa_offset 0
 501 0014 7047     		bx	lr
 502              		.cfi_endproc
 503              	.LFE436:
 504              		.size	i2cGetErrors, .-i2cGetErrors
 505              		.section	.text.i2cMasterTransmitTimeout,"ax",%progbits
 506              		.align	1
 507              		.global	i2cMasterTransmitTimeout
 508              		.syntax unified
 509              		.thumb
 510              		.thumb_func
 511              		.type	i2cMasterTransmitTimeout, %function
 512              	i2cMasterTransmitTimeout:
 513              	.LFB437:
ARM GAS  C:\Users\DEVELO~1\AppData\Local\Temp\ccHwwtpW.s 			page 10


 514              		.loc 5 193 55
 515              		.cfi_startproc
 516              		@ args = 12, pretend = 0, frame = 24
 517              		@ frame_needed = 1, uses_anonymous_args = 0
 518 0000 80B5     		push	{r7, lr}
 519              		.cfi_def_cfa_offset 8
 520              		.cfi_offset 7, -8
 521              		.cfi_offset 14, -4
 522 0002 8AB0     		sub	sp, sp, #40
 523              		.cfi_def_cfa_offset 48
 524 0004 04AF     		add	r7, sp, #16
 525              		.cfi_def_cfa 7, 32
 526 0006 F860     		str	r0, [r7, #12]
 527 0008 7A60     		str	r2, [r7, #4]
 528 000a 3B60     		str	r3, [r7]
 529 000c 0B46     		mov	r3, r1	@ movhi
 530 000e 7B81     		strh	r3, [r7, #10]	@ movhi
 531              		.loc 5 203 3
 532 0010 FFF7FEFF 		bl	osalSysLock
 533              		.loc 5 204 16
 534 0014 FB68     		ldr	r3, [r7, #12]
 535 0016 0022     		movs	r2, #0
 536 0018 9A60     		str	r2, [r3, #8]
 537              		.loc 5 205 15
 538 001a FB68     		ldr	r3, [r7, #12]
 539 001c 0322     		movs	r2, #3
 540 001e 1A70     		strb	r2, [r3]
 541              		.loc 5 206 12
 542 0020 7989     		ldrh	r1, [r7, #10]
 543 0022 BB6A     		ldr	r3, [r7, #40]
 544 0024 0293     		str	r3, [sp, #8]
 545 0026 7B6A     		ldr	r3, [r7, #36]
 546 0028 0193     		str	r3, [sp, #4]
 547 002a 3B6A     		ldr	r3, [r7, #32]
 548 002c 0093     		str	r3, [sp]
 549 002e 3B68     		ldr	r3, [r7]
 550 0030 7A68     		ldr	r2, [r7, #4]
 551 0032 F868     		ldr	r0, [r7, #12]
 552 0034 FFF7FEFF 		bl	i2c_lld_master_transmit_timeout
 553 0038 7861     		str	r0, [r7, #20]
 554              		.loc 5 208 6
 555 003a 7B69     		ldr	r3, [r7, #20]
 556 003c B3F1FF3F 		cmp	r3, #-1
 557 0040 03D1     		bne	.L16
 558              		.loc 5 209 17
 559 0042 FB68     		ldr	r3, [r7, #12]
 560 0044 0522     		movs	r2, #5
 561 0046 1A70     		strb	r2, [r3]
 562 0048 02E0     		b	.L17
 563              	.L16:
 564              		.loc 5 212 17
 565 004a FB68     		ldr	r3, [r7, #12]
 566 004c 0222     		movs	r2, #2
 567 004e 1A70     		strb	r2, [r3]
 568              	.L17:
 569              		.loc 5 214 3
 570 0050 FFF7FEFF 		bl	osalSysUnlock
ARM GAS  C:\Users\DEVELO~1\AppData\Local\Temp\ccHwwtpW.s 			page 11


 571              		.loc 5 215 10
 572 0054 7B69     		ldr	r3, [r7, #20]
 573              		.loc 5 216 1
 574 0056 1846     		mov	r0, r3
 575 0058 1837     		adds	r7, r7, #24
 576              		.cfi_def_cfa_offset 8
 577 005a BD46     		mov	sp, r7
 578              		.cfi_def_cfa_register 13
 579              		@ sp needed
 580 005c 80BD     		pop	{r7, pc}
 581              		.cfi_endproc
 582              	.LFE437:
 583              		.size	i2cMasterTransmitTimeout, .-i2cMasterTransmitTimeout
 584              		.section	.text.i2cMasterReceiveTimeout,"ax",%progbits
 585              		.align	1
 586              		.global	i2cMasterReceiveTimeout
 587              		.syntax unified
 588              		.thumb
 589              		.thumb_func
 590              		.type	i2cMasterReceiveTimeout, %function
 591              	i2cMasterReceiveTimeout:
 592              	.LFB438:
 593              		.loc 5 241 54
 594              		.cfi_startproc
 595              		@ args = 4, pretend = 0, frame = 24
 596              		@ frame_needed = 1, uses_anonymous_args = 0
 597 0000 80B5     		push	{r7, lr}
 598              		.cfi_def_cfa_offset 8
 599              		.cfi_offset 7, -8
 600              		.cfi_offset 14, -4
 601 0002 88B0     		sub	sp, sp, #32
 602              		.cfi_def_cfa_offset 40
 603 0004 02AF     		add	r7, sp, #8
 604              		.cfi_def_cfa 7, 32
 605 0006 F860     		str	r0, [r7, #12]
 606 0008 7A60     		str	r2, [r7, #4]
 607 000a 3B60     		str	r3, [r7]
 608 000c 0B46     		mov	r3, r1	@ movhi
 609 000e 7B81     		strh	r3, [r7, #10]	@ movhi
 610              		.loc 5 251 3
 611 0010 FFF7FEFF 		bl	osalSysLock
 612              		.loc 5 252 16
 613 0014 FB68     		ldr	r3, [r7, #12]
 614 0016 0022     		movs	r2, #0
 615 0018 9A60     		str	r2, [r3, #8]
 616              		.loc 5 253 15
 617 001a FB68     		ldr	r3, [r7, #12]
 618 001c 0422     		movs	r2, #4
 619 001e 1A70     		strb	r2, [r3]
 620              		.loc 5 254 12
 621 0020 7989     		ldrh	r1, [r7, #10]
 622 0022 3B6A     		ldr	r3, [r7, #32]
 623 0024 0093     		str	r3, [sp]
 624 0026 3B68     		ldr	r3, [r7]
 625 0028 7A68     		ldr	r2, [r7, #4]
 626 002a F868     		ldr	r0, [r7, #12]
 627 002c FFF7FEFF 		bl	i2c_lld_master_receive_timeout
ARM GAS  C:\Users\DEVELO~1\AppData\Local\Temp\ccHwwtpW.s 			page 12


 628 0030 7861     		str	r0, [r7, #20]
 629              		.loc 5 255 6
 630 0032 7B69     		ldr	r3, [r7, #20]
 631 0034 B3F1FF3F 		cmp	r3, #-1
 632 0038 03D1     		bne	.L20
 633              		.loc 5 256 17
 634 003a FB68     		ldr	r3, [r7, #12]
 635 003c 0522     		movs	r2, #5
 636 003e 1A70     		strb	r2, [r3]
 637 0040 02E0     		b	.L21
 638              	.L20:
 639              		.loc 5 259 17
 640 0042 FB68     		ldr	r3, [r7, #12]
 641 0044 0222     		movs	r2, #2
 642 0046 1A70     		strb	r2, [r3]
 643              	.L21:
 644              		.loc 5 261 3
 645 0048 FFF7FEFF 		bl	osalSysUnlock
 646              		.loc 5 262 10
 647 004c 7B69     		ldr	r3, [r7, #20]
 648              		.loc 5 263 1
 649 004e 1846     		mov	r0, r3
 650 0050 1837     		adds	r7, r7, #24
 651              		.cfi_def_cfa_offset 8
 652 0052 BD46     		mov	sp, r7
 653              		.cfi_def_cfa_register 13
 654              		@ sp needed
 655 0054 80BD     		pop	{r7, pc}
 656              		.cfi_endproc
 657              	.LFE438:
 658              		.size	i2cMasterReceiveTimeout, .-i2cMasterReceiveTimeout
 659              		.section	.text.i2cAcquireBus,"ax",%progbits
 660              		.align	1
 661              		.global	i2cAcquireBus
 662              		.syntax unified
 663              		.thumb
 664              		.thumb_func
 665              		.type	i2cAcquireBus, %function
 666              	i2cAcquireBus:
 667              	.LFB439:
 668              		.loc 5 277 37
 669              		.cfi_startproc
 670              		@ args = 0, pretend = 0, frame = 8
 671              		@ frame_needed = 1, uses_anonymous_args = 0
 672 0000 80B5     		push	{r7, lr}
 673              		.cfi_def_cfa_offset 8
 674              		.cfi_offset 7, -8
 675              		.cfi_offset 14, -4
 676 0002 82B0     		sub	sp, sp, #8
 677              		.cfi_def_cfa_offset 16
 678 0004 00AF     		add	r7, sp, #0
 679              		.cfi_def_cfa_register 7
 680 0006 7860     		str	r0, [r7, #4]
 681              		.loc 5 281 3
 682 0008 7B68     		ldr	r3, [r7, #4]
 683 000a 0C33     		adds	r3, r3, #12
 684 000c 1846     		mov	r0, r3
ARM GAS  C:\Users\DEVELO~1\AppData\Local\Temp\ccHwwtpW.s 			page 13


 685 000e FFF7FEFF 		bl	osalMutexLock
 686              		.loc 5 282 1
 687 0012 00BF     		nop
 688 0014 0837     		adds	r7, r7, #8
 689              		.cfi_def_cfa_offset 8
 690 0016 BD46     		mov	sp, r7
 691              		.cfi_def_cfa_register 13
 692              		@ sp needed
 693 0018 80BD     		pop	{r7, pc}
 694              		.cfi_endproc
 695              	.LFE439:
 696              		.size	i2cAcquireBus, .-i2cAcquireBus
 697              		.section	.text.i2cReleaseBus,"ax",%progbits
 698              		.align	1
 699              		.global	i2cReleaseBus
 700              		.syntax unified
 701              		.thumb
 702              		.thumb_func
 703              		.type	i2cReleaseBus, %function
 704              	i2cReleaseBus:
 705              	.LFB440:
 706              		.loc 5 293 37
 707              		.cfi_startproc
 708              		@ args = 0, pretend = 0, frame = 8
 709              		@ frame_needed = 1, uses_anonymous_args = 0
 710 0000 80B5     		push	{r7, lr}
 711              		.cfi_def_cfa_offset 8
 712              		.cfi_offset 7, -8
 713              		.cfi_offset 14, -4
 714 0002 82B0     		sub	sp, sp, #8
 715              		.cfi_def_cfa_offset 16
 716 0004 00AF     		add	r7, sp, #0
 717              		.cfi_def_cfa_register 7
 718 0006 7860     		str	r0, [r7, #4]
 719              		.loc 5 297 3
 720 0008 7B68     		ldr	r3, [r7, #4]
 721 000a 0C33     		adds	r3, r3, #12
 722 000c 1846     		mov	r0, r3
 723 000e FFF7FEFF 		bl	osalMutexUnlock
 724              		.loc 5 298 1
 725 0012 00BF     		nop
 726 0014 0837     		adds	r7, r7, #8
 727              		.cfi_def_cfa_offset 8
 728 0016 BD46     		mov	sp, r7
 729              		.cfi_def_cfa_register 13
 730              		@ sp needed
 731 0018 80BD     		pop	{r7, pc}
 732              		.cfi_endproc
 733              	.LFE440:
 734              		.size	i2cReleaseBus, .-i2cReleaseBus
 735              		.text
 736              	.Letext0:
 737              		.file 6 "c:\\chibistudio\\tools\\gnu tools arm embedded\\11.3 2022.08\\lib\\gcc\\arm-none-eabi\\11
 738              		.file 7 "c:\\chibistudio\\tools\\gnu tools arm embedded\\11.3 2022.08\\arm-none-eabi\\include\\mac
 739              		.file 8 "c:\\chibistudio\\tools\\gnu tools arm embedded\\11.3 2022.08\\arm-none-eabi\\include\\sys
 740              		.file 9 "../../../os/common/ports/ARM-common/chtypes.h"
 741              		.file 10 "../../../os/rt/include/chearly.h"
ARM GAS  C:\Users\DEVELO~1\AppData\Local\Temp\ccHwwtpW.s 			page 14


 742              		.file 11 "../../../os/rt/include/chobjects.h"
 743              		.file 12 "../../../os/rt/include/chrfcu.h"
 744              		.file 13 "../../../os/rt/include/chdebug.h"
 745              		.file 14 "../../../os/rt/include/chtime.h"
 746              		.file 15 "../../../os/rt/include/chlists.h"
 747              		.file 16 "../../../os/rt/include/chtrace.h"
 748              		.file 17 "../../../os/common/ext/ST/STM32H7xx/stm32h743xx.h"
 749              		.file 18 "../../../os/rt/include/chsem.h"
 750              		.file 19 "../../../os/rt/include/chmtx.h"
 751              		.file 20 "../../../os/hal/ports/STM32/LLD/DMAv2/stm32_dma.h"
 752              		.file 21 "../../../os/hal/include/hal_i2c.h"
 753              		.file 22 "../../../os/hal/ports/STM32/LLD/I2Cv3/hal_i2c_lld.h"
 754              		.section	.debug_info,"",%progbits
 755              	.Ldebug_info0:
 756 0000 1A110000 		.4byte	0x111a
 757 0004 0500     		.2byte	0x5
 758 0006 01       		.byte	0x1
 759 0007 04       		.byte	0x4
 760 0008 00000000 		.4byte	.Ldebug_abbrev0
 761 000c 2B       		.uleb128 0x2b
 762 000d A2010000 		.4byte	.LASF193
 763 0011 1D       		.byte	0x1d
 764 0012 B8060000 		.4byte	.LASF194
 765 0016 C1080000 		.4byte	.LASF195
 766 001a 0C000000 		.4byte	.LLRL0
 767 001e 00000000 		.4byte	0
 768 0022 00000000 		.4byte	.Ldebug_line0
 769 0026 2C       		.uleb128 0x2c
 770 0027 04       		.byte	0x4
 771 0028 05       		.byte	0x5
 772 0029 696E7400 		.ascii	"int\000"
 773 002d 02       		.uleb128 0x2
 774 002e 1A000000 		.4byte	.LASF4
 775 0032 06       		.byte	0x6
 776 0033 D1       		.byte	0xd1
 777 0034 17       		.byte	0x17
 778 0035 39000000 		.4byte	0x39
 779 0039 08       		.uleb128 0x8
 780 003a 04       		.byte	0x4
 781 003b 07       		.byte	0x7
 782 003c 27030000 		.4byte	.LASF0
 783 0040 08       		.uleb128 0x8
 784 0041 08       		.byte	0x8
 785 0042 05       		.byte	0x5
 786 0043 77020000 		.4byte	.LASF1
 787 0047 08       		.uleb128 0x8
 788 0048 08       		.byte	0x8
 789 0049 04       		.byte	0x4
 790 004a 11070000 		.4byte	.LASF2
 791 004e 08       		.uleb128 0x8
 792 004f 01       		.byte	0x1
 793 0050 06       		.byte	0x6
 794 0051 45000000 		.4byte	.LASF3
 795 0055 02       		.uleb128 0x2
 796 0056 51000000 		.4byte	.LASF5
 797 005a 07       		.byte	0x7
 798 005b 2B       		.byte	0x2b
ARM GAS  C:\Users\DEVELO~1\AppData\Local\Temp\ccHwwtpW.s 			page 15


 799 005c 18       		.byte	0x18
 800 005d 61000000 		.4byte	0x61
 801 0061 08       		.uleb128 0x8
 802 0062 01       		.byte	0x1
 803 0063 08       		.byte	0x8
 804 0064 FC050000 		.4byte	.LASF6
 805 0068 08       		.uleb128 0x8
 806 0069 02       		.byte	0x2
 807 006a 05       		.byte	0x5
 808 006b 02040000 		.4byte	.LASF7
 809 006f 02       		.uleb128 0x2
 810 0070 40070000 		.4byte	.LASF8
 811 0074 07       		.byte	0x7
 812 0075 39       		.byte	0x39
 813 0076 19       		.byte	0x19
 814 0077 7B000000 		.4byte	0x7b
 815 007b 08       		.uleb128 0x8
 816 007c 02       		.byte	0x2
 817 007d 07       		.byte	0x7
 818 007e 89030000 		.4byte	.LASF9
 819 0082 02       		.uleb128 0x2
 820 0083 0C040000 		.4byte	.LASF10
 821 0087 07       		.byte	0x7
 822 0088 4D       		.byte	0x4d
 823 0089 18       		.byte	0x18
 824 008a 8E000000 		.4byte	0x8e
 825 008e 08       		.uleb128 0x8
 826 008f 04       		.byte	0x4
 827 0090 05       		.byte	0x5
 828 0091 75080000 		.4byte	.LASF11
 829 0095 02       		.uleb128 0x2
 830 0096 C0020000 		.4byte	.LASF12
 831 009a 07       		.byte	0x7
 832 009b 4F       		.byte	0x4f
 833 009c 19       		.byte	0x19
 834 009d A1000000 		.4byte	0xa1
 835 00a1 08       		.uleb128 0x8
 836 00a2 04       		.byte	0x4
 837 00a3 07       		.byte	0x7
 838 00a4 55010000 		.4byte	.LASF13
 839 00a8 02       		.uleb128 0x2
 840 00a9 5A050000 		.4byte	.LASF14
 841 00ad 07       		.byte	0x7
 842 00ae 69       		.byte	0x69
 843 00af 19       		.byte	0x19
 844 00b0 B4000000 		.4byte	0xb4
 845 00b4 08       		.uleb128 0x8
 846 00b5 08       		.byte	0x8
 847 00b6 07       		.byte	0x7
 848 00b7 16040000 		.4byte	.LASF15
 849 00bb 02       		.uleb128 0x2
 850 00bc 22080000 		.4byte	.LASF16
 851 00c0 08       		.byte	0x8
 852 00c1 18       		.byte	0x18
 853 00c2 13       		.byte	0x13
 854 00c3 55000000 		.4byte	0x55
 855 00c7 09       		.uleb128 0x9
ARM GAS  C:\Users\DEVELO~1\AppData\Local\Temp\ccHwwtpW.s 			page 16


 856 00c8 BB000000 		.4byte	0xbb
 857 00cc 02       		.uleb128 0x2
 858 00cd 34030000 		.4byte	.LASF17
 859 00d1 08       		.byte	0x8
 860 00d2 24       		.byte	0x24
 861 00d3 14       		.byte	0x14
 862 00d4 6F000000 		.4byte	0x6f
 863 00d8 02       		.uleb128 0x2
 864 00d9 F4050000 		.4byte	.LASF18
 865 00dd 08       		.byte	0x8
 866 00de 2C       		.byte	0x2c
 867 00df 13       		.byte	0x13
 868 00e0 82000000 		.4byte	0x82
 869 00e4 02       		.uleb128 0x2
 870 00e5 D6060000 		.4byte	.LASF19
 871 00e9 08       		.byte	0x8
 872 00ea 30       		.byte	0x30
 873 00eb 14       		.byte	0x14
 874 00ec 95000000 		.4byte	0x95
 875 00f0 17       		.uleb128 0x17
 876 00f1 E4000000 		.4byte	0xe4
 877 00f5 02       		.uleb128 0x2
 878 00f6 F4040000 		.4byte	.LASF20
 879 00fa 08       		.byte	0x8
 880 00fb 3C       		.byte	0x3c
 881 00fc 14       		.byte	0x14
 882 00fd A8000000 		.4byte	0xa8
 883 0101 17       		.uleb128 0x17
 884 0102 F5000000 		.4byte	0xf5
 885 0106 02       		.uleb128 0x2
 886 0107 E6060000 		.4byte	.LASF21
 887 010b 09       		.byte	0x9
 888 010c 48       		.byte	0x48
 889 010d 1D       		.byte	0x1d
 890 010e F5000000 		.4byte	0xf5
 891 0112 02       		.uleb128 0x2
 892 0113 43040000 		.4byte	.LASF22
 893 0117 0A       		.byte	0xa
 894 0118 50       		.byte	0x50
 895 0119 19       		.byte	0x19
 896 011a 06010000 		.4byte	0x106
 897 011e 02       		.uleb128 0x2
 898 011f D8030000 		.4byte	.LASF23
 899 0123 0A       		.byte	0xa
 900 0124 53       		.byte	0x53
 901 0125 19       		.byte	0x19
 902 0126 BB000000 		.4byte	0xbb
 903 012a 02       		.uleb128 0x2
 904 012b 4F020000 		.4byte	.LASF24
 905 012f 0A       		.byte	0xa
 906 0130 54       		.byte	0x54
 907 0131 19       		.byte	0x19
 908 0132 BB000000 		.4byte	0xbb
 909 0136 02       		.uleb128 0x2
 910 0137 74050000 		.4byte	.LASF25
 911 013b 0A       		.byte	0xa
 912 013c 55       		.byte	0x55
ARM GAS  C:\Users\DEVELO~1\AppData\Local\Temp\ccHwwtpW.s 			page 17


 913 013d 19       		.byte	0x19
 914 013e BB000000 		.4byte	0xbb
 915 0142 02       		.uleb128 0x2
 916 0143 B6050000 		.4byte	.LASF26
 917 0147 0A       		.byte	0xa
 918 0148 57       		.byte	0x57
 919 0149 19       		.byte	0x19
 920 014a E4000000 		.4byte	0xe4
 921 014e 02       		.uleb128 0x2
 922 014f B1030000 		.4byte	.LASF27
 923 0153 0A       		.byte	0xa
 924 0154 58       		.byte	0x58
 925 0155 19       		.byte	0x19
 926 0156 D8000000 		.4byte	0xd8
 927 015a 02       		.uleb128 0x2
 928 015b F6030000 		.4byte	.LASF28
 929 015f 0A       		.byte	0xa
 930 0160 5A       		.byte	0x5a
 931 0161 19       		.byte	0x19
 932 0162 E4000000 		.4byte	0xe4
 933 0166 02       		.uleb128 0x2
 934 0167 13030000 		.4byte	.LASF29
 935 016b 0A       		.byte	0xa
 936 016c 5C       		.byte	0x5c
 937 016d 19       		.byte	0x19
 938 016e D8000000 		.4byte	0xd8
 939 0172 02       		.uleb128 0x2
 940 0173 6A050000 		.4byte	.LASF30
 941 0177 0A       		.byte	0xa
 942 0178 80       		.byte	0x80
 943 0179 12       		.byte	0x12
 944 017a 39000000 		.4byte	0x39
 945 017e 02       		.uleb128 0x2
 946 017f 4B070000 		.4byte	.LASF31
 947 0183 0A       		.byte	0xa
 948 0184 85       		.byte	0x85
 949 0185 1A       		.byte	0x1a
 950 0186 8A010000 		.4byte	0x18a
 951 018a 0A       		.uleb128 0xa
 952 018b 9C030000 		.4byte	.LASF46
 953 018f 48       		.byte	0x48
 954 0190 0B       		.byte	0xb
 955 0191 9C       		.byte	0x9c
 956 0192 08       		.byte	0x8
 957 0193 6D020000 		.4byte	0x26d
 958 0197 0B       		.uleb128 0xb
 959 0198 68647200 		.ascii	"hdr\000"
 960 019c 0B       		.byte	0xb
 961 019d AD       		.byte	0xad
 962 019e 05       		.byte	0x5
 963 019f 65080000 		.4byte	0x865
 964 01a3 00       		.byte	0
 965 01a4 0B       		.uleb128 0xb
 966 01a5 63747800 		.ascii	"ctx\000"
 967 01a9 0B       		.byte	0xb
 968 01aa B1       		.byte	0xb1
 969 01ab 21       		.byte	0x21
ARM GAS  C:\Users\DEVELO~1\AppData\Local\Temp\ccHwwtpW.s 			page 18


 970 01ac D0070000 		.4byte	0x7d0
 971 01b0 0C       		.byte	0xc
 972 01b1 03       		.uleb128 0x3
 973 01b2 4D080000 		.4byte	.LASF32
 974 01b6 0B       		.byte	0xb
 975 01b7 B6       		.byte	0xb6
 976 01b8 21       		.byte	0x21
 977 01b9 BB030000 		.4byte	0x3bb
 978 01bd 10       		.byte	0x10
 979 01be 03       		.uleb128 0x3
 980 01bf F6060000 		.4byte	.LASF33
 981 01c3 0B       		.byte	0xb
 982 01c4 BB       		.byte	0xbb
 983 01c5 22       		.byte	0x22
 984 01c6 67090000 		.4byte	0x967
 985 01ca 18       		.byte	0x18
 986 01cb 03       		.uleb128 0x3
 987 01cc 73030000 		.4byte	.LASF34
 988 01d0 0B       		.byte	0xb
 989 01d1 C0       		.byte	0xc0
 990 01d2 22       		.byte	0x22
 991 01d3 55030000 		.4byte	0x355
 992 01d7 1C       		.byte	0x1c
 993 01d8 03       		.uleb128 0x3
 994 01d9 1D070000 		.4byte	.LASF35
 995 01dd 0B       		.byte	0xb
 996 01de C9       		.byte	0xc9
 997 01df 22       		.byte	0x22
 998 01e0 6C090000 		.4byte	0x96c
 999 01e4 20       		.byte	0x20
 1000 01e5 03       		.uleb128 0x3
 1001 01e6 43020000 		.4byte	.LASF36
 1002 01ea 0B       		.byte	0xb
 1003 01eb CE       		.byte	0xce
 1004 01ec 21       		.byte	0x21
 1005 01ed 2A010000 		.4byte	0x12a
 1006 01f1 24       		.byte	0x24
 1007 01f2 03       		.uleb128 0x3
 1008 01f3 34080000 		.4byte	.LASF37
 1009 01f7 0B       		.byte	0xb
 1010 01f8 D2       		.byte	0xd2
 1011 01f9 21       		.byte	0x21
 1012 01fa 1E010000 		.4byte	0x11e
 1013 01fe 25       		.byte	0x25
 1014 01ff 03       		.uleb128 0x3
 1015 0200 30010000 		.4byte	.LASF38
 1016 0204 0B       		.byte	0xb
 1017 0205 D7       		.byte	0xd7
 1018 0206 21       		.byte	0x21
 1019 0207 36010000 		.4byte	0x136
 1020 020b 26       		.byte	0x26
 1021 020c 04       		.uleb128 0x4
 1022 020d 7500     		.ascii	"u\000"
 1023 020f 0B       		.byte	0xb
 1024 0210 2801     		.2byte	0x128
 1025 0212 21       		.byte	0x21
 1026 0213 92080000 		.4byte	0x892
ARM GAS  C:\Users\DEVELO~1\AppData\Local\Temp\ccHwwtpW.s 			page 19


 1027 0217 28       		.byte	0x28
 1028 0218 01       		.uleb128 0x1
 1029 0219 DA020000 		.4byte	.LASF39
 1030 021d 0B       		.byte	0xb
 1031 021e 2D01     		.2byte	0x12d
 1032 0220 21       		.byte	0x21
 1033 0221 8F030000 		.4byte	0x38f
 1034 0225 2C       		.byte	0x2c
 1035 0226 01       		.uleb128 0x1
 1036 0227 19030000 		.4byte	.LASF40
 1037 022b 0B       		.byte	0xb
 1038 022c 3301     		.2byte	0x133
 1039 022e 21       		.byte	0x21
 1040 022f BB030000 		.4byte	0x3bb
 1041 0233 30       		.byte	0x30
 1042 0234 01       		.uleb128 0x1
 1043 0235 B7030000 		.4byte	.LASF41
 1044 0239 0B       		.byte	0xb
 1045 023a 3901     		.2byte	0x139
 1046 023c 21       		.byte	0x21
 1047 023d 5A010000 		.4byte	0x15a
 1048 0241 38       		.byte	0x38
 1049 0242 01       		.uleb128 0x1
 1050 0243 AB080000 		.4byte	.LASF42
 1051 0247 0B       		.byte	0xb
 1052 0248 4001     		.2byte	0x140
 1053 024a 22       		.byte	0x22
 1054 024b 62090000 		.4byte	0x962
 1055 024f 3C       		.byte	0x3c
 1056 0250 01       		.uleb128 0x1
 1057 0251 6D040000 		.4byte	.LASF43
 1058 0255 0B       		.byte	0xb
 1059 0256 4401     		.2byte	0x144
 1060 0258 21       		.byte	0x21
 1061 0259 42010000 		.4byte	0x142
 1062 025d 40       		.byte	0x40
 1063 025e 01       		.uleb128 0x1
 1064 025f 7E030000 		.4byte	.LASF44
 1065 0263 0B       		.byte	0xb
 1066 0264 4B01     		.2byte	0x14b
 1067 0266 22       		.byte	0x22
 1068 0267 A8040000 		.4byte	0x4a8
 1069 026b 44       		.byte	0x44
 1070 026c 00       		.byte	0
 1071 026d 02       		.uleb128 0x2
 1072 026e D2040000 		.4byte	.LASF45
 1073 0272 0A       		.byte	0xa
 1074 0273 8A       		.byte	0x8a
 1075 0274 1F       		.byte	0x1f
 1076 0275 79020000 		.4byte	0x279
 1077 0279 2D       		.uleb128 0x2d
 1078 027a 2D050000 		.4byte	.LASF47
 1079 027e 9008     		.2byte	0x890
 1080 0280 0B       		.byte	0xb
 1081 0281 8A01     		.2byte	0x18a
 1082 0283 08       		.byte	0x8
 1083 0284 07030000 		.4byte	0x307
ARM GAS  C:\Users\DEVELO~1\AppData\Local\Temp\ccHwwtpW.s 			page 20


 1084 0288 01       		.uleb128 0x1
 1085 0289 1C080000 		.4byte	.LASF48
 1086 028d 0B       		.byte	0xb
 1087 028e 8E01     		.2byte	0x18e
 1088 0290 21       		.byte	0x21
 1089 0291 9C090000 		.4byte	0x99c
 1090 0295 00       		.byte	0
 1091 0296 01       		.uleb128 0x1
 1092 0297 75000000 		.4byte	.LASF49
 1093 029b 0B       		.byte	0xb
 1094 029c 9201     		.2byte	0x192
 1095 029e 21       		.byte	0x21
 1096 029f 26080000 		.4byte	0x826
 1097 02a3 10       		.byte	0x10
 1098 02a4 01       		.uleb128 0x1
 1099 02a5 B2070000 		.4byte	.LASF50
 1100 02a9 0B       		.byte	0xb
 1101 02aa 9901     		.2byte	0x199
 1102 02ac 21       		.byte	0x21
 1103 02ad 4D080000 		.4byte	0x84d
 1104 02b1 28       		.byte	0x28
 1105 02b2 01       		.uleb128 0x1
 1106 02b3 00000000 		.4byte	.LASF51
 1107 02b7 0B       		.byte	0xb
 1108 02b8 9E01     		.2byte	0x19e
 1109 02ba 21       		.byte	0x21
 1110 02bb 72010000 		.4byte	0x172
 1111 02bf 30       		.byte	0x30
 1112 02c0 01       		.uleb128 0x1
 1113 02c1 30000000 		.4byte	.LASF52
 1114 02c5 0B       		.byte	0xb
 1115 02c6 A401     		.2byte	0x1a4
 1116 02c8 21       		.byte	0x21
 1117 02c9 2E030000 		.4byte	0x32e
 1118 02cd 34       		.byte	0x34
 1119 02ce 01       		.uleb128 0x1
 1120 02cf 29070000 		.4byte	.LASF53
 1121 02d3 0B       		.byte	0xb
 1122 02d4 A901     		.2byte	0x1a9
 1123 02d6 22       		.byte	0x22
 1124 02d7 100A0000 		.4byte	0xa10
 1125 02db 38       		.byte	0x38
 1126 02dc 01       		.uleb128 0x1
 1127 02dd A6030000 		.4byte	.LASF54
 1128 02e1 0B       		.byte	0xb
 1129 02e2 AD01     		.2byte	0x1ad
 1130 02e4 21       		.byte	0x21
 1131 02e5 7E010000 		.4byte	0x17e
 1132 02e9 3C       		.byte	0x3c
 1133 02ea 04       		.uleb128 0x4
 1134 02eb 64626700 		.ascii	"dbg\000"
 1135 02ef 0B       		.byte	0xb
 1136 02f0 B101     		.2byte	0x1b1
 1137 02f2 21       		.byte	0x21
 1138 02f3 6B030000 		.4byte	0x36b
 1139 02f7 84       		.byte	0x84
 1140 02f8 01       		.uleb128 0x1
ARM GAS  C:\Users\DEVELO~1\AppData\Local\Temp\ccHwwtpW.s 			page 21


 1141 02f9 54080000 		.4byte	.LASF55
 1142 02fd 0B       		.byte	0xb
 1143 02fe B601     		.2byte	0x1b6
 1144 0300 21       		.byte	0x21
 1145 0301 FE050000 		.4byte	0x5fe
 1146 0305 88       		.byte	0x88
 1147 0306 00       		.byte	0
 1148 0307 02       		.uleb128 0x2
 1149 0308 76040000 		.4byte	.LASF56
 1150 030c 0C       		.byte	0xc
 1151 030d 3F       		.byte	0x3f
 1152 030e 12       		.byte	0x12
 1153 030f E4000000 		.4byte	0xe4
 1154 0313 0A       		.uleb128 0xa
 1155 0314 58020000 		.4byte	.LASF57
 1156 0318 04       		.byte	0x4
 1157 0319 0C       		.byte	0xc
 1158 031a 44       		.byte	0x44
 1159 031b 10       		.byte	0x10
 1160 031c 2E030000 		.4byte	0x32e
 1161 0320 03       		.uleb128 0x3
 1162 0321 CB020000 		.4byte	.LASF58
 1163 0325 0C       		.byte	0xc
 1164 0326 48       		.byte	0x48
 1165 0327 21       		.byte	0x21
 1166 0328 07030000 		.4byte	0x307
 1167 032c 00       		.byte	0
 1168 032d 00       		.byte	0
 1169 032e 02       		.uleb128 0x2
 1170 032f 2A060000 		.4byte	.LASF59
 1171 0333 0C       		.byte	0xc
 1172 0334 49       		.byte	0x49
 1173 0335 03       		.byte	0x3
 1174 0336 13030000 		.4byte	0x313
 1175 033a 0A       		.uleb128 0xa
 1176 033b DE050000 		.4byte	.LASF60
 1177 033f 04       		.byte	0x4
 1178 0340 0D       		.byte	0xd
 1179 0341 3E       		.byte	0x3e
 1180 0342 10       		.byte	0x10
 1181 0343 55030000 		.4byte	0x355
 1182 0347 03       		.uleb128 0x3
 1183 0348 3A080000 		.4byte	.LASF61
 1184 034c 0D       		.byte	0xd
 1185 034d 46       		.byte	0x46
 1186 034e 24       		.byte	0x24
 1187 034f 5A030000 		.4byte	0x35a
 1188 0353 00       		.byte	0
 1189 0354 00       		.byte	0
 1190 0355 05       		.uleb128 0x5
 1191 0356 66030000 		.4byte	0x366
 1192 035a 17       		.uleb128 0x17
 1193 035b 55030000 		.4byte	0x355
 1194 035f 08       		.uleb128 0x8
 1195 0360 01       		.byte	0x1
 1196 0361 08       		.byte	0x8
 1197 0362 24070000 		.4byte	.LASF62
ARM GAS  C:\Users\DEVELO~1\AppData\Local\Temp\ccHwwtpW.s 			page 22


 1198 0366 09       		.uleb128 0x9
 1199 0367 5F030000 		.4byte	0x35f
 1200 036b 02       		.uleb128 0x2
 1201 036c 4B030000 		.4byte	.LASF63
 1202 0370 0D       		.byte	0xd
 1203 0371 51       		.byte	0x51
 1204 0372 03       		.byte	0x3
 1205 0373 3A030000 		.4byte	0x33a
 1206 0377 02       		.uleb128 0x2
 1207 0378 5A070000 		.4byte	.LASF64
 1208 037c 0E       		.byte	0xe
 1209 037d 6D       		.byte	0x6d
 1210 037e 12       		.byte	0x12
 1211 037f E4000000 		.4byte	0xe4
 1212 0383 02       		.uleb128 0x2
 1213 0384 60020000 		.4byte	.LASF65
 1214 0388 0E       		.byte	0xe
 1215 0389 79       		.byte	0x79
 1216 038a 12       		.byte	0x12
 1217 038b E4000000 		.4byte	0xe4
 1218 038f 02       		.uleb128 0x2
 1219 0390 C8040000 		.4byte	.LASF66
 1220 0394 0F       		.byte	0xf
 1221 0395 32       		.byte	0x32
 1222 0396 18       		.byte	0x18
 1223 0397 9B030000 		.4byte	0x39b
 1224 039b 0A       		.uleb128 0xa
 1225 039c E0030000 		.4byte	.LASF67
 1226 03a0 04       		.byte	0x4
 1227 03a1 0F       		.byte	0xf
 1228 03a2 38       		.byte	0x38
 1229 03a3 08       		.byte	0x8
 1230 03a4 B6030000 		.4byte	0x3b6
 1231 03a8 03       		.uleb128 0x3
 1232 03a9 F8000000 		.4byte	.LASF68
 1233 03ad 0F       		.byte	0xf
 1234 03ae 39       		.byte	0x39
 1235 03af 1A       		.byte	0x1a
 1236 03b0 B6030000 		.4byte	0x3b6
 1237 03b4 00       		.byte	0
 1238 03b5 00       		.byte	0
 1239 03b6 05       		.uleb128 0x5
 1240 03b7 8F030000 		.4byte	0x38f
 1241 03bb 02       		.uleb128 0x2
 1242 03bc 60030000 		.4byte	.LASF69
 1243 03c0 0F       		.byte	0xf
 1244 03c1 3F       		.byte	0x3f
 1245 03c2 19       		.byte	0x19
 1246 03c3 C7030000 		.4byte	0x3c7
 1247 03c7 0A       		.uleb128 0xa
 1248 03c8 6E020000 		.4byte	.LASF70
 1249 03cc 08       		.byte	0x8
 1250 03cd 0F       		.byte	0xf
 1251 03ce 45       		.byte	0x45
 1252 03cf 08       		.byte	0x8
 1253 03d0 EF030000 		.4byte	0x3ef
 1254 03d4 03       		.uleb128 0x3
ARM GAS  C:\Users\DEVELO~1\AppData\Local\Temp\ccHwwtpW.s 			page 23


 1255 03d5 F8000000 		.4byte	.LASF68
 1256 03d9 0F       		.byte	0xf
 1257 03da 46       		.byte	0x46
 1258 03db 1A       		.byte	0x1a
 1259 03dc EF030000 		.4byte	0x3ef
 1260 03e0 00       		.byte	0
 1261 03e1 03       		.uleb128 0x3
 1262 03e2 64000000 		.4byte	.LASF71
 1263 03e6 0F       		.byte	0xf
 1264 03e7 47       		.byte	0x47
 1265 03e8 1A       		.byte	0x1a
 1266 03e9 EF030000 		.4byte	0x3ef
 1267 03ed 04       		.byte	0x4
 1268 03ee 00       		.byte	0
 1269 03ef 05       		.uleb128 0x5
 1270 03f0 BB030000 		.4byte	0x3bb
 1271 03f4 02       		.uleb128 0x2
 1272 03f5 6B070000 		.4byte	.LASF72
 1273 03f9 0F       		.byte	0xf
 1274 03fa 4E       		.byte	0x4e
 1275 03fb 22       		.byte	0x22
 1276 03fc 00040000 		.4byte	0x400
 1277 0400 0A       		.uleb128 0xa
 1278 0401 BA070000 		.4byte	.LASF73
 1279 0405 0C       		.byte	0xc
 1280 0406 0F       		.byte	0xf
 1281 0407 55       		.byte	0x55
 1282 0408 08       		.byte	0x8
 1283 0409 35040000 		.4byte	0x435
 1284 040d 03       		.uleb128 0x3
 1285 040e F8000000 		.4byte	.LASF68
 1286 0412 0F       		.byte	0xf
 1287 0413 56       		.byte	0x56
 1288 0414 1A       		.byte	0x1a
 1289 0415 35040000 		.4byte	0x435
 1290 0419 00       		.byte	0
 1291 041a 03       		.uleb128 0x3
 1292 041b 64000000 		.4byte	.LASF71
 1293 041f 0F       		.byte	0xf
 1294 0420 57       		.byte	0x57
 1295 0421 1A       		.byte	0x1a
 1296 0422 35040000 		.4byte	0x435
 1297 0426 04       		.byte	0x4
 1298 0427 03       		.uleb128 0x3
 1299 0428 41050000 		.4byte	.LASF74
 1300 042c 0F       		.byte	0xf
 1301 042d 58       		.byte	0x58
 1302 042e 19       		.byte	0x19
 1303 042f 42010000 		.4byte	0x142
 1304 0433 08       		.byte	0x8
 1305 0434 00       		.byte	0
 1306 0435 05       		.uleb128 0x5
 1307 0436 F4030000 		.4byte	0x3f4
 1308 043a 02       		.uleb128 0x2
 1309 043b D1070000 		.4byte	.LASF75
 1310 043f 0F       		.byte	0xf
 1311 0440 5F       		.byte	0x5f
ARM GAS  C:\Users\DEVELO~1\AppData\Local\Temp\ccHwwtpW.s 			page 24


 1312 0441 1E       		.byte	0x1e
 1313 0442 46040000 		.4byte	0x446
 1314 0446 0A       		.uleb128 0xa
 1315 0447 67010000 		.4byte	.LASF76
 1316 044b 0C       		.byte	0xc
 1317 044c 0F       		.byte	0xf
 1318 044d 64       		.byte	0x64
 1319 044e 08       		.byte	0x8
 1320 044f 7B040000 		.4byte	0x47b
 1321 0453 03       		.uleb128 0x3
 1322 0454 F8000000 		.4byte	.LASF68
 1323 0458 0F       		.byte	0xf
 1324 0459 65       		.byte	0x65
 1325 045a 1A       		.byte	0x1a
 1326 045b 7B040000 		.4byte	0x47b
 1327 045f 00       		.byte	0
 1328 0460 03       		.uleb128 0x3
 1329 0461 64000000 		.4byte	.LASF71
 1330 0465 0F       		.byte	0xf
 1331 0466 66       		.byte	0x66
 1332 0467 1A       		.byte	0x1a
 1333 0468 7B040000 		.4byte	0x47b
 1334 046c 04       		.byte	0x4
 1335 046d 03       		.uleb128 0x3
 1336 046e ED000000 		.4byte	.LASF77
 1337 0472 0F       		.byte	0xf
 1338 0473 67       		.byte	0x67
 1339 0474 19       		.byte	0x19
 1340 0475 83030000 		.4byte	0x383
 1341 0479 08       		.byte	0x8
 1342 047a 00       		.byte	0
 1343 047b 05       		.uleb128 0x5
 1344 047c 3A040000 		.4byte	0x43a
 1345 0480 11       		.uleb128 0x11
 1346 0481 08       		.byte	0x8
 1347 0482 83       		.byte	0x83
 1348 0483 05       		.byte	0x5
 1349 0484 A3040000 		.4byte	0x4a3
 1350 0488 0B       		.uleb128 0xb
 1351 0489 6E747000 		.ascii	"ntp\000"
 1352 048d 10       		.byte	0x10
 1353 048e 87       		.byte	0x87
 1354 048f 1E       		.byte	0x1e
 1355 0490 A3040000 		.4byte	0x4a3
 1356 0494 00       		.byte	0
 1357 0495 03       		.uleb128 0x3
 1358 0496 52060000 		.4byte	.LASF78
 1359 049a 10       		.byte	0x10
 1360 049b 8B       		.byte	0x8b
 1361 049c 1E       		.byte	0x1e
 1362 049d A8040000 		.4byte	0x4a8
 1363 04a1 04       		.byte	0x4
 1364 04a2 00       		.byte	0
 1365 04a3 05       		.uleb128 0x5
 1366 04a4 7E010000 		.4byte	0x17e
 1367 04a8 2E       		.uleb128 0x2e
 1368 04a9 04       		.byte	0x4
ARM GAS  C:\Users\DEVELO~1\AppData\Local\Temp\ccHwwtpW.s 			page 25


 1369 04aa 11       		.uleb128 0x11
 1370 04ab 08       		.byte	0x8
 1371 04ac 90       		.byte	0x90
 1372 04ad 05       		.byte	0x5
 1373 04ae CC040000 		.4byte	0x4cc
 1374 04b2 0B       		.uleb128 0xb
 1375 04b3 747000   		.ascii	"tp\000"
 1376 04b6 10       		.byte	0x10
 1377 04b7 94       		.byte	0x94
 1378 04b8 1E       		.byte	0x1e
 1379 04b9 A3040000 		.4byte	0x4a3
 1380 04bd 00       		.byte	0
 1381 04be 0B       		.uleb128 0xb
 1382 04bf 6D736700 		.ascii	"msg\000"
 1383 04c3 10       		.byte	0x10
 1384 04c4 98       		.byte	0x98
 1385 04c5 1D       		.byte	0x1d
 1386 04c6 4E010000 		.4byte	0x14e
 1387 04ca 04       		.byte	0x4
 1388 04cb 00       		.byte	0
 1389 04cc 11       		.uleb128 0x11
 1390 04cd 04       		.byte	0x4
 1391 04ce 9D       		.byte	0x9d
 1392 04cf 05       		.byte	0x5
 1393 04d0 E2040000 		.4byte	0x4e2
 1394 04d4 03       		.uleb128 0x3
 1395 04d5 73030000 		.4byte	.LASF34
 1396 04d9 10       		.byte	0x10
 1397 04da A1       		.byte	0xa1
 1398 04db 1E       		.byte	0x1e
 1399 04dc 55030000 		.4byte	0x355
 1400 04e0 00       		.byte	0
 1401 04e1 00       		.byte	0
 1402 04e2 11       		.uleb128 0x11
 1403 04e3 04       		.byte	0x4
 1404 04e4 A6       		.byte	0xa6
 1405 04e5 05       		.byte	0x5
 1406 04e6 F8040000 		.4byte	0x4f8
 1407 04ea 03       		.uleb128 0x3
 1408 04eb 81060000 		.4byte	.LASF79
 1409 04ef 10       		.byte	0x10
 1410 04f0 AA       		.byte	0xaa
 1411 04f1 1E       		.byte	0x1e
 1412 04f2 55030000 		.4byte	0x355
 1413 04f6 00       		.byte	0
 1414 04f7 00       		.byte	0
 1415 04f8 11       		.uleb128 0x11
 1416 04f9 08       		.byte	0x8
 1417 04fa AF       		.byte	0xaf
 1418 04fb 05       		.byte	0x5
 1419 04fc 1B050000 		.4byte	0x51b
 1420 0500 0B       		.uleb128 0xb
 1421 0501 75703100 		.ascii	"up1\000"
 1422 0505 10       		.byte	0x10
 1423 0506 B3       		.byte	0xb3
 1424 0507 1E       		.byte	0x1e
 1425 0508 A8040000 		.4byte	0x4a8
ARM GAS  C:\Users\DEVELO~1\AppData\Local\Temp\ccHwwtpW.s 			page 26


 1426 050c 00       		.byte	0
 1427 050d 0B       		.uleb128 0xb
 1428 050e 75703200 		.ascii	"up2\000"
 1429 0512 10       		.byte	0x10
 1430 0513 B7       		.byte	0xb7
 1431 0514 1E       		.byte	0x1e
 1432 0515 A8040000 		.4byte	0x4a8
 1433 0519 04       		.byte	0x4
 1434 051a 00       		.byte	0
 1435 051b 18       		.uleb128 0x18
 1436 051c 08       		.byte	0x8
 1437 051d 10       		.byte	0x10
 1438 051e 7F       		.byte	0x7f
 1439 051f 59050000 		.4byte	0x559
 1440 0523 19       		.uleb128 0x19
 1441 0524 737700   		.ascii	"sw\000"
 1442 0527 8C       		.byte	0x8c
 1443 0528 80040000 		.4byte	0x480
 1444 052c 19       		.uleb128 0x19
 1445 052d 72647900 		.ascii	"rdy\000"
 1446 0531 99       		.byte	0x99
 1447 0532 AA040000 		.4byte	0x4aa
 1448 0536 19       		.uleb128 0x19
 1449 0537 69737200 		.ascii	"isr\000"
 1450 053b A2       		.byte	0xa2
 1451 053c CC040000 		.4byte	0x4cc
 1452 0540 10       		.uleb128 0x10
 1453 0541 B4000000 		.4byte	.LASF80
 1454 0545 10       		.byte	0x10
 1455 0546 AB       		.byte	0xab
 1456 0547 07       		.byte	0x7
 1457 0548 E2040000 		.4byte	0x4e2
 1458 054c 10       		.uleb128 0x10
 1459 054d 90050000 		.4byte	.LASF81
 1460 0551 10       		.byte	0x10
 1461 0552 B8       		.byte	0xb8
 1462 0553 07       		.byte	0x7
 1463 0554 F8040000 		.4byte	0x4f8
 1464 0558 00       		.byte	0
 1465 0559 11       		.uleb128 0x11
 1466 055a 10       		.byte	0x10
 1467 055b 6C       		.byte	0x6c
 1468 055c 09       		.byte	0x9
 1469 055d 9E050000 		.4byte	0x59e
 1470 0561 1A       		.uleb128 0x1a
 1471 0562 9B000000 		.4byte	.LASF82
 1472 0566 70       		.byte	0x70
 1473 0567 E4000000 		.4byte	0xe4
 1474 056b 03       		.byte	0x3
 1475 056c 00       		.byte	0
 1476 056d 1A       		.uleb128 0x1a
 1477 056e 43020000 		.4byte	.LASF36
 1478 0572 74       		.byte	0x74
 1479 0573 E4000000 		.4byte	0xe4
 1480 0577 05       		.byte	0x5
 1481 0578 03       		.byte	0x3
 1482 0579 1A       		.uleb128 0x1a
ARM GAS  C:\Users\DEVELO~1\AppData\Local\Temp\ccHwwtpW.s 			page 27


 1483 057a 5B040000 		.4byte	.LASF83
 1484 057e 7A       		.byte	0x7a
 1485 057f E4000000 		.4byte	0xe4
 1486 0583 18       		.byte	0x18
 1487 0584 08       		.byte	0x8
 1488 0585 03       		.uleb128 0x3
 1489 0586 3C050000 		.4byte	.LASF84
 1490 058a 10       		.byte	0x10
 1491 058b 7E       		.byte	0x7e
 1492 058c 19       		.byte	0x19
 1493 058d 77030000 		.4byte	0x377
 1494 0591 04       		.byte	0x4
 1495 0592 0B       		.uleb128 0xb
 1496 0593 7500     		.ascii	"u\000"
 1497 0595 10       		.byte	0x10
 1498 0596 B9       		.byte	0xb9
 1499 0597 05       		.byte	0x5
 1500 0598 1B050000 		.4byte	0x51b
 1501 059c 08       		.byte	0x8
 1502 059d 00       		.byte	0
 1503 059e 02       		.uleb128 0x2
 1504 059f A6000000 		.4byte	.LASF85
 1505 05a3 10       		.byte	0x10
 1506 05a4 BA       		.byte	0xba
 1507 05a5 03       		.byte	0x3
 1508 05a6 59050000 		.4byte	0x559
 1509 05aa 2F       		.uleb128 0x2f
 1510 05ab 0808     		.2byte	0x808
 1511 05ad 10       		.byte	0x10
 1512 05ae C0       		.byte	0xc0
 1513 05af 09       		.byte	0x9
 1514 05b0 E9050000 		.4byte	0x5e9
 1515 05b4 03       		.uleb128 0x3
 1516 05b5 E0040000 		.4byte	.LASF86
 1517 05b9 10       		.byte	0x10
 1518 05ba C4       		.byte	0xc4
 1519 05bb 19       		.byte	0x19
 1520 05bc CC000000 		.4byte	0xcc
 1521 05c0 00       		.byte	0
 1522 05c1 03       		.uleb128 0x3
 1523 05c2 84030000 		.4byte	.LASF87
 1524 05c6 10       		.byte	0x10
 1525 05c7 C8       		.byte	0xc8
 1526 05c8 19       		.byte	0x19
 1527 05c9 CC000000 		.4byte	0xcc
 1528 05cd 02       		.byte	0x2
 1529 05ce 0B       		.uleb128 0xb
 1530 05cf 70747200 		.ascii	"ptr\000"
 1531 05d3 10       		.byte	0x10
 1532 05d4 CC       		.byte	0xcc
 1533 05d5 1A       		.byte	0x1a
 1534 05d6 E9050000 		.4byte	0x5e9
 1535 05da 04       		.byte	0x4
 1536 05db 03       		.uleb128 0x3
 1537 05dc 64070000 		.4byte	.LASF88
 1538 05e0 10       		.byte	0x10
 1539 05e1 D0       		.byte	0xd0
ARM GAS  C:\Users\DEVELO~1\AppData\Local\Temp\ccHwwtpW.s 			page 28


 1540 05e2 19       		.byte	0x19
 1541 05e3 EE050000 		.4byte	0x5ee
 1542 05e7 08       		.byte	0x8
 1543 05e8 00       		.byte	0
 1544 05e9 05       		.uleb128 0x5
 1545 05ea 9E050000 		.4byte	0x59e
 1546 05ee 0D       		.uleb128 0xd
 1547 05ef 9E050000 		.4byte	0x59e
 1548 05f3 FE050000 		.4byte	0x5fe
 1549 05f7 0E       		.uleb128 0xe
 1550 05f8 39000000 		.4byte	0x39
 1551 05fc 7F       		.byte	0x7f
 1552 05fd 00       		.byte	0
 1553 05fe 02       		.uleb128 0x2
 1554 05ff 8F020000 		.4byte	.LASF89
 1555 0603 10       		.byte	0x10
 1556 0604 D1       		.byte	0xd1
 1557 0605 03       		.byte	0x3
 1558 0606 AA050000 		.4byte	0x5aa
 1559 060a 15       		.uleb128 0x15
 1560 060b 18       		.byte	0x18
 1561 060c 11       		.byte	0x11
 1562 060d 3002     		.2byte	0x230
 1563 060f 67060000 		.4byte	0x667
 1564 0613 04       		.uleb128 0x4
 1565 0614 435200   		.ascii	"CR\000"
 1566 0617 11       		.byte	0x11
 1567 0618 3202     		.2byte	0x232
 1568 061a 11       		.byte	0x11
 1569 061b F0000000 		.4byte	0xf0
 1570 061f 00       		.byte	0
 1571 0620 01       		.uleb128 0x1
 1572 0621 8D070000 		.4byte	.LASF90
 1573 0625 11       		.byte	0x11
 1574 0626 3302     		.2byte	0x233
 1575 0628 11       		.byte	0x11
 1576 0629 F0000000 		.4byte	0xf0
 1577 062d 04       		.byte	0x4
 1578 062e 04       		.uleb128 0x4
 1579 062f 50415200 		.ascii	"PAR\000"
 1580 0633 11       		.byte	0x11
 1581 0634 3402     		.2byte	0x234
 1582 0636 11       		.byte	0x11
 1583 0637 F0000000 		.4byte	0xf0
 1584 063b 08       		.byte	0x8
 1585 063c 01       		.uleb128 0x1
 1586 063d 15000000 		.4byte	.LASF91
 1587 0641 11       		.byte	0x11
 1588 0642 3502     		.2byte	0x235
 1589 0644 11       		.byte	0x11
 1590 0645 F0000000 		.4byte	0xf0
 1591 0649 0C       		.byte	0xc
 1592 064a 01       		.uleb128 0x1
 1593 064b CC070000 		.4byte	.LASF92
 1594 064f 11       		.byte	0x11
 1595 0650 3602     		.2byte	0x236
 1596 0652 11       		.byte	0x11
ARM GAS  C:\Users\DEVELO~1\AppData\Local\Temp\ccHwwtpW.s 			page 29


 1597 0653 F0000000 		.4byte	0xf0
 1598 0657 10       		.byte	0x10
 1599 0658 04       		.uleb128 0x4
 1600 0659 46435200 		.ascii	"FCR\000"
 1601 065d 11       		.byte	0x11
 1602 065e 3702     		.2byte	0x237
 1603 0660 11       		.byte	0x11
 1604 0661 F0000000 		.4byte	0xf0
 1605 0665 14       		.byte	0x14
 1606 0666 00       		.byte	0
 1607 0667 0C       		.uleb128 0xc
 1608 0668 C5030000 		.4byte	.LASF93
 1609 066c 11       		.byte	0x11
 1610 066d 3802     		.2byte	0x238
 1611 066f 03       		.byte	0x3
 1612 0670 0A060000 		.4byte	0x60a
 1613 0674 15       		.uleb128 0x15
 1614 0675 04       		.byte	0x4
 1615 0676 11       		.byte	0x11
 1616 0677 5102     		.2byte	0x251
 1617 0679 8C060000 		.4byte	0x68c
 1618 067d 04       		.uleb128 0x4
 1619 067e 43435200 		.ascii	"CCR\000"
 1620 0682 11       		.byte	0x11
 1621 0683 5302     		.2byte	0x253
 1622 0685 12       		.byte	0x12
 1623 0686 F0000000 		.4byte	0xf0
 1624 068a 00       		.byte	0
 1625 068b 00       		.byte	0
 1626 068c 0C       		.uleb128 0xc
 1627 068d 05080000 		.4byte	.LASF94
 1628 0691 11       		.byte	0x11
 1629 0692 5402     		.2byte	0x254
 1630 0694 02       		.byte	0x2
 1631 0695 74060000 		.4byte	0x674
 1632 0699 15       		.uleb128 0x15
 1633 069a 2C       		.byte	0x2c
 1634 069b 11       		.byte	0x11
 1635 069c 4504     		.2byte	0x445
 1636 069e 3D070000 		.4byte	0x73d
 1637 06a2 04       		.uleb128 0x4
 1638 06a3 43523100 		.ascii	"CR1\000"
 1639 06a7 11       		.byte	0x11
 1640 06a8 4704     		.2byte	0x447
 1641 06aa 11       		.byte	0x11
 1642 06ab F0000000 		.4byte	0xf0
 1643 06af 00       		.byte	0
 1644 06b0 04       		.uleb128 0x4
 1645 06b1 43523200 		.ascii	"CR2\000"
 1646 06b5 11       		.byte	0x11
 1647 06b6 4804     		.2byte	0x448
 1648 06b8 11       		.byte	0x11
 1649 06b9 F0000000 		.4byte	0xf0
 1650 06bd 04       		.byte	0x4
 1651 06be 01       		.uleb128 0x1
 1652 06bf 2A080000 		.4byte	.LASF95
 1653 06c3 11       		.byte	0x11
ARM GAS  C:\Users\DEVELO~1\AppData\Local\Temp\ccHwwtpW.s 			page 30


 1654 06c4 4904     		.2byte	0x449
 1655 06c6 11       		.byte	0x11
 1656 06c7 F0000000 		.4byte	0xf0
 1657 06cb 08       		.byte	0x8
 1658 06cc 01       		.uleb128 0x1
 1659 06cd 2F080000 		.4byte	.LASF96
 1660 06d1 11       		.byte	0x11
 1661 06d2 4A04     		.2byte	0x44a
 1662 06d4 11       		.byte	0x11
 1663 06d5 F0000000 		.4byte	0xf0
 1664 06d9 0C       		.byte	0xc
 1665 06da 01       		.uleb128 0x1
 1666 06db 92010000 		.4byte	.LASF97
 1667 06df 11       		.byte	0x11
 1668 06e0 4B04     		.2byte	0x44b
 1669 06e2 11       		.byte	0x11
 1670 06e3 F0000000 		.4byte	0xf0
 1671 06e7 10       		.byte	0x10
 1672 06e8 01       		.uleb128 0x1
 1673 06e9 87050000 		.4byte	.LASF98
 1674 06ed 11       		.byte	0x11
 1675 06ee 4C04     		.2byte	0x44c
 1676 06f0 11       		.byte	0x11
 1677 06f1 F0000000 		.4byte	0xf0
 1678 06f5 14       		.byte	0x14
 1679 06f6 04       		.uleb128 0x4
 1680 06f7 49535200 		.ascii	"ISR\000"
 1681 06fb 11       		.byte	0x11
 1682 06fc 4D04     		.2byte	0x44d
 1683 06fe 11       		.byte	0x11
 1684 06ff F0000000 		.4byte	0xf0
 1685 0703 18       		.byte	0x18
 1686 0704 04       		.uleb128 0x4
 1687 0705 49435200 		.ascii	"ICR\000"
 1688 0709 11       		.byte	0x11
 1689 070a 4E04     		.2byte	0x44e
 1690 070c 11       		.byte	0x11
 1691 070d F0000000 		.4byte	0xf0
 1692 0711 1C       		.byte	0x1c
 1693 0712 01       		.uleb128 0x1
 1694 0713 8D010000 		.4byte	.LASF99
 1695 0717 11       		.byte	0x11
 1696 0718 4F04     		.2byte	0x44f
 1697 071a 11       		.byte	0x11
 1698 071b F0000000 		.4byte	0xf0
 1699 071f 20       		.byte	0x20
 1700 0720 01       		.uleb128 0x1
 1701 0721 22030000 		.4byte	.LASF100
 1702 0725 11       		.byte	0x11
 1703 0726 5004     		.2byte	0x450
 1704 0728 11       		.byte	0x11
 1705 0729 F0000000 		.4byte	0xf0
 1706 072d 24       		.byte	0x24
 1707 072e 01       		.uleb128 0x1
 1708 072f C0030000 		.4byte	.LASF101
 1709 0733 11       		.byte	0x11
 1710 0734 5104     		.2byte	0x451
ARM GAS  C:\Users\DEVELO~1\AppData\Local\Temp\ccHwwtpW.s 			page 31


 1711 0736 11       		.byte	0x11
 1712 0737 F0000000 		.4byte	0xf0
 1713 073b 28       		.byte	0x28
 1714 073c 00       		.byte	0
 1715 073d 0C       		.uleb128 0xc
 1716 073e E2020000 		.4byte	.LASF102
 1717 0742 11       		.byte	0x11
 1718 0743 5204     		.2byte	0x452
 1719 0745 03       		.byte	0x3
 1720 0746 99060000 		.4byte	0x699
 1721 074a 12       		.uleb128 0x12
 1722 074b 69000000 		.4byte	.LASF103
 1723 074f 24       		.byte	0x24
 1724 0750 03       		.byte	0x3
 1725 0751 E001     		.2byte	0x1e0
 1726 0753 08       		.byte	0x8
 1727 0754 D0070000 		.4byte	0x7d0
 1728 0758 04       		.uleb128 0x4
 1729 0759 723400   		.ascii	"r4\000"
 1730 075c 03       		.byte	0x3
 1731 075d F901     		.2byte	0x1f9
 1732 075f 11       		.byte	0x11
 1733 0760 E4000000 		.4byte	0xe4
 1734 0764 00       		.byte	0
 1735 0765 04       		.uleb128 0x4
 1736 0766 723500   		.ascii	"r5\000"
 1737 0769 03       		.byte	0x3
 1738 076a FA01     		.2byte	0x1fa
 1739 076c 11       		.byte	0x11
 1740 076d E4000000 		.4byte	0xe4
 1741 0771 04       		.byte	0x4
 1742 0772 04       		.uleb128 0x4
 1743 0773 723600   		.ascii	"r6\000"
 1744 0776 03       		.byte	0x3
 1745 0777 FB01     		.2byte	0x1fb
 1746 0779 11       		.byte	0x11
 1747 077a E4000000 		.4byte	0xe4
 1748 077e 08       		.byte	0x8
 1749 077f 04       		.uleb128 0x4
 1750 0780 723700   		.ascii	"r7\000"
 1751 0783 03       		.byte	0x3
 1752 0784 FC01     		.2byte	0x1fc
 1753 0786 11       		.byte	0x11
 1754 0787 E4000000 		.4byte	0xe4
 1755 078b 0C       		.byte	0xc
 1756 078c 04       		.uleb128 0x4
 1757 078d 723800   		.ascii	"r8\000"
 1758 0790 03       		.byte	0x3
 1759 0791 FD01     		.2byte	0x1fd
 1760 0793 11       		.byte	0x11
 1761 0794 E4000000 		.4byte	0xe4
 1762 0798 10       		.byte	0x10
 1763 0799 04       		.uleb128 0x4
 1764 079a 723900   		.ascii	"r9\000"
 1765 079d 03       		.byte	0x3
 1766 079e FE01     		.2byte	0x1fe
 1767 07a0 11       		.byte	0x11
ARM GAS  C:\Users\DEVELO~1\AppData\Local\Temp\ccHwwtpW.s 			page 32


 1768 07a1 E4000000 		.4byte	0xe4
 1769 07a5 14       		.byte	0x14
 1770 07a6 04       		.uleb128 0x4
 1771 07a7 72313000 		.ascii	"r10\000"
 1772 07ab 03       		.byte	0x3
 1773 07ac FF01     		.2byte	0x1ff
 1774 07ae 11       		.byte	0x11
 1775 07af E4000000 		.4byte	0xe4
 1776 07b3 18       		.byte	0x18
 1777 07b4 04       		.uleb128 0x4
 1778 07b5 72313100 		.ascii	"r11\000"
 1779 07b9 03       		.byte	0x3
 1780 07ba 0002     		.2byte	0x200
 1781 07bc 11       		.byte	0x11
 1782 07bd E4000000 		.4byte	0xe4
 1783 07c1 1C       		.byte	0x1c
 1784 07c2 04       		.uleb128 0x4
 1785 07c3 6C7200   		.ascii	"lr\000"
 1786 07c6 03       		.byte	0x3
 1787 07c7 0102     		.2byte	0x201
 1788 07c9 11       		.byte	0x11
 1789 07ca E4000000 		.4byte	0xe4
 1790 07ce 20       		.byte	0x20
 1791 07cf 00       		.byte	0
 1792 07d0 12       		.uleb128 0x12
 1793 07d1 06030000 		.4byte	.LASF104
 1794 07d5 04       		.byte	0x4
 1795 07d6 03       		.byte	0x3
 1796 07d7 0A02     		.2byte	0x20a
 1797 07d9 08       		.byte	0x8
 1798 07da EC070000 		.4byte	0x7ec
 1799 07de 04       		.uleb128 0x4
 1800 07df 737000   		.ascii	"sp\000"
 1801 07e2 03       		.byte	0x3
 1802 07e3 0B02     		.2byte	0x20b
 1803 07e5 1A       		.byte	0x1a
 1804 07e6 EC070000 		.4byte	0x7ec
 1805 07ea 00       		.byte	0
 1806 07eb 00       		.byte	0
 1807 07ec 05       		.uleb128 0x5
 1808 07ed 4A070000 		.4byte	0x74a
 1809 07f1 0A       		.uleb128 0xa
 1810 07f2 A3040000 		.4byte	.LASF105
 1811 07f6 18       		.byte	0x18
 1812 07f7 0B       		.byte	0xb
 1813 07f8 64       		.byte	0x64
 1814 07f9 10       		.byte	0x10
 1815 07fa 26080000 		.4byte	0x826
 1816 07fe 03       		.uleb128 0x3
 1817 07ff 54070000 		.4byte	.LASF106
 1818 0803 0B       		.byte	0xb
 1819 0804 68       		.byte	0x68
 1820 0805 21       		.byte	0x21
 1821 0806 3A040000 		.4byte	0x43a
 1822 080a 00       		.byte	0
 1823 080b 03       		.uleb128 0x3
 1824 080c 3C060000 		.4byte	.LASF107
ARM GAS  C:\Users\DEVELO~1\AppData\Local\Temp\ccHwwtpW.s 			page 33


 1825 0810 0B       		.byte	0xb
 1826 0811 73       		.byte	0x73
 1827 0812 21       		.byte	0x21
 1828 0813 77030000 		.4byte	0x377
 1829 0817 0C       		.byte	0xc
 1830 0818 03       		.uleb128 0x3
 1831 0819 63040000 		.4byte	.LASF108
 1832 081d 0B       		.byte	0xb
 1833 081e 79       		.byte	0x79
 1834 081f 21       		.byte	0x21
 1835 0820 01010000 		.4byte	0x101
 1836 0824 10       		.byte	0x10
 1837 0825 00       		.byte	0
 1838 0826 02       		.uleb128 0x2
 1839 0827 2D040000 		.4byte	.LASF109
 1840 082b 0B       		.byte	0xb
 1841 082c 7B       		.byte	0x7b
 1842 082d 03       		.byte	0x3
 1843 082e F1070000 		.4byte	0x7f1
 1844 0832 0A       		.uleb128 0xa
 1845 0833 9E020000 		.4byte	.LASF110
 1846 0837 08       		.byte	0x8
 1847 0838 0B       		.byte	0xb
 1848 0839 80       		.byte	0x80
 1849 083a 10       		.byte	0x10
 1850 083b 4D080000 		.4byte	0x84d
 1851 083f 03       		.uleb128 0x3
 1852 0840 78030000 		.4byte	.LASF111
 1853 0844 0B       		.byte	0xb
 1854 0845 84       		.byte	0x84
 1855 0846 21       		.byte	0x21
 1856 0847 BB030000 		.4byte	0x3bb
 1857 084b 00       		.byte	0
 1858 084c 00       		.byte	0
 1859 084d 02       		.uleb128 0x2
 1860 084e A0060000 		.4byte	.LASF112
 1861 0852 0B       		.byte	0xb
 1862 0853 85       		.byte	0x85
 1863 0854 03       		.byte	0x3
 1864 0855 32080000 		.4byte	0x832
 1865 0859 02       		.uleb128 0x2
 1866 085a 90040000 		.4byte	.LASF113
 1867 085e 0B       		.byte	0xb
 1868 085f 8A       		.byte	0x8a
 1869 0860 14       		.byte	0x14
 1870 0861 A3040000 		.4byte	0x4a3
 1871 0865 18       		.uleb128 0x18
 1872 0866 0C       		.byte	0xc
 1873 0867 0B       		.byte	0xb
 1874 0868 A0       		.byte	0xa0
 1875 0869 92080000 		.4byte	0x892
 1876 086d 10       		.uleb128 0x10
 1877 086e 7E080000 		.4byte	.LASF114
 1878 0872 0B       		.byte	0xb
 1879 0873 A4       		.byte	0xa4
 1880 0874 21       		.byte	0x21
 1881 0875 8F030000 		.4byte	0x38f
ARM GAS  C:\Users\DEVELO~1\AppData\Local\Temp\ccHwwtpW.s 			page 34


 1882 0879 10       		.uleb128 0x10
 1883 087a 78030000 		.4byte	.LASF111
 1884 087e 0B       		.byte	0xb
 1885 087f A8       		.byte	0xa8
 1886 0880 21       		.byte	0x21
 1887 0881 BB030000 		.4byte	0x3bb
 1888 0885 10       		.uleb128 0x10
 1889 0886 A1070000 		.4byte	.LASF115
 1890 088a 0B       		.byte	0xb
 1891 088b AC       		.byte	0xac
 1892 088c 21       		.byte	0x21
 1893 088d F4030000 		.4byte	0x3f4
 1894 0891 00       		.byte	0
 1895 0892 18       		.uleb128 0x18
 1896 0893 04       		.byte	0x4
 1897 0894 0B       		.byte	0xb
 1898 0895 EB       		.byte	0xeb
 1899 0896 FB080000 		.4byte	0x8fb
 1900 089a 10       		.uleb128 0x10
 1901 089b 29000000 		.4byte	.LASF116
 1902 089f 0B       		.byte	0xb
 1903 08a0 F2       		.byte	0xf2
 1904 08a1 21       		.byte	0x21
 1905 08a2 4E010000 		.4byte	0x14e
 1906 08a6 10       		.uleb128 0x10
 1907 08a7 C7000000 		.4byte	.LASF117
 1908 08ab 0B       		.byte	0xb
 1909 08ac F9       		.byte	0xf9
 1910 08ad 21       		.byte	0x21
 1911 08ae 4E010000 		.4byte	0x14e
 1912 08b2 13       		.uleb128 0x13
 1913 08b3 52060000 		.4byte	.LASF78
 1914 08b7 0001     		.2byte	0x100
 1915 08b9 22       		.byte	0x22
 1916 08ba A8040000 		.4byte	0x4a8
 1917 08be 13       		.uleb128 0x13
 1918 08bf 5A030000 		.4byte	.LASF118
 1919 08c3 0701     		.2byte	0x107
 1920 08c5 22       		.byte	0x22
 1921 08c6 FB080000 		.4byte	0x8fb
 1922 08ca 13       		.uleb128 0x13
 1923 08cb E5000000 		.4byte	.LASF119
 1924 08cf 0C01     		.2byte	0x10c
 1925 08d1 21       		.byte	0x21
 1926 08d2 4E010000 		.4byte	0x14e
 1927 08d6 13       		.uleb128 0x13
 1928 08d7 3D030000 		.4byte	.LASF120
 1929 08db 1501     		.2byte	0x115
 1930 08dd 22       		.byte	0x22
 1931 08de 28090000 		.4byte	0x928
 1932 08e2 13       		.uleb128 0x13
 1933 08e3 DF060000 		.4byte	.LASF121
 1934 08e7 1E01     		.2byte	0x11e
 1935 08e9 22       		.byte	0x22
 1936 08ea 62090000 		.4byte	0x962
 1937 08ee 13       		.uleb128 0x13
 1938 08ef 59060000 		.4byte	.LASF122
ARM GAS  C:\Users\DEVELO~1\AppData\Local\Temp\ccHwwtpW.s 			page 35


 1939 08f3 2601     		.2byte	0x126
 1940 08f5 21       		.byte	0x21
 1941 08f6 5A010000 		.4byte	0x15a
 1942 08fa 00       		.byte	0
 1943 08fb 05       		.uleb128 0x5
 1944 08fc 59080000 		.4byte	0x859
 1945 0900 0A       		.uleb128 0xa
 1946 0901 93060000 		.4byte	.LASF123
 1947 0905 0C       		.byte	0xc
 1948 0906 12       		.byte	0x12
 1949 0907 34       		.byte	0x34
 1950 0908 10       		.byte	0x10
 1951 0909 28090000 		.4byte	0x928
 1952 090d 03       		.uleb128 0x3
 1953 090e 78030000 		.4byte	.LASF111
 1954 0912 12       		.byte	0x12
 1955 0913 35       		.byte	0x35
 1956 0914 19       		.byte	0x19
 1957 0915 BB030000 		.4byte	0x3bb
 1958 0919 00       		.byte	0
 1959 091a 0B       		.uleb128 0xb
 1960 091b 636E7400 		.ascii	"cnt\000"
 1961 091f 12       		.byte	0x12
 1962 0920 37       		.byte	0x37
 1963 0921 19       		.byte	0x19
 1964 0922 66010000 		.4byte	0x166
 1965 0926 08       		.byte	0x8
 1966 0927 00       		.byte	0
 1967 0928 05       		.uleb128 0x5
 1968 0929 00090000 		.4byte	0x900
 1969 092d 0A       		.uleb128 0xa
 1970 092e 44080000 		.4byte	.LASF124
 1971 0932 10       		.byte	0x10
 1972 0933 13       		.byte	0x13
 1973 0934 39       		.byte	0x39
 1974 0935 08       		.byte	0x8
 1975 0936 62090000 		.4byte	0x962
 1976 093a 03       		.uleb128 0x3
 1977 093b 78030000 		.4byte	.LASF111
 1978 093f 13       		.byte	0x13
 1979 0940 3A       		.byte	0x3a
 1980 0941 19       		.byte	0x19
 1981 0942 BB030000 		.4byte	0x3bb
 1982 0946 00       		.byte	0
 1983 0947 03       		.uleb128 0x3
 1984 0948 F6060000 		.4byte	.LASF33
 1985 094c 13       		.byte	0x13
 1986 094d 3C       		.byte	0x3c
 1987 094e 1A       		.byte	0x1a
 1988 094f A3040000 		.4byte	0x4a3
 1989 0953 08       		.byte	0x8
 1990 0954 03       		.uleb128 0x3
 1991 0955 F8000000 		.4byte	.LASF68
 1992 0959 13       		.byte	0x13
 1993 095a 3E       		.byte	0x3e
 1994 095b 1A       		.byte	0x1a
 1995 095c 210A0000 		.4byte	0xa21
ARM GAS  C:\Users\DEVELO~1\AppData\Local\Temp\ccHwwtpW.s 			page 36


 1996 0960 0C       		.byte	0xc
 1997 0961 00       		.byte	0
 1998 0962 05       		.uleb128 0x5
 1999 0963 2D090000 		.4byte	0x92d
 2000 0967 05       		.uleb128 0x5
 2001 0968 6D020000 		.4byte	0x26d
 2002 096c 05       		.uleb128 0x5
 2003 096d 12010000 		.4byte	0x112
 2004 0971 12       		.uleb128 0x12
 2005 0972 E8030000 		.4byte	.LASF125
 2006 0976 10       		.byte	0x10
 2007 0977 0B       		.byte	0xb
 2008 0978 5C01     		.2byte	0x15c
 2009 097a 10       		.byte	0x10
 2010 097b 9C090000 		.4byte	0x99c
 2011 097f 01       		.uleb128 0x1
 2012 0980 A1070000 		.4byte	.LASF115
 2013 0984 0B       		.byte	0xb
 2014 0985 6101     		.2byte	0x161
 2015 0987 21       		.byte	0x21
 2016 0988 F4030000 		.4byte	0x3f4
 2017 098c 00       		.byte	0
 2018 098d 01       		.uleb128 0x1
 2019 098e 52050000 		.4byte	.LASF126
 2020 0992 0B       		.byte	0xb
 2021 0993 6501     		.2byte	0x165
 2022 0995 22       		.byte	0x22
 2023 0996 A3040000 		.4byte	0x4a3
 2024 099a 0C       		.byte	0xc
 2025 099b 00       		.byte	0
 2026 099c 0C       		.uleb128 0xc
 2027 099d 08000000 		.4byte	.LASF127
 2028 09a1 0B       		.byte	0xb
 2029 09a2 6601     		.2byte	0x166
 2030 09a4 03       		.byte	0x3
 2031 09a5 71090000 		.4byte	0x971
 2032 09a9 12       		.uleb128 0x12
 2033 09aa 0D050000 		.4byte	.LASF128
 2034 09ae 14       		.byte	0x14
 2035 09af 0B       		.byte	0xb
 2036 09b0 6B01     		.2byte	0x16b
 2037 09b2 10       		.byte	0x10
 2038 09b3 FE090000 		.4byte	0x9fe
 2039 09b7 01       		.uleb128 0x1
 2040 09b8 73030000 		.4byte	.LASF34
 2041 09bc 0B       		.byte	0xb
 2042 09bd 6F01     		.2byte	0x16f
 2043 09bf 22       		.byte	0x22
 2044 09c0 55030000 		.4byte	0x355
 2045 09c4 00       		.byte	0
 2046 09c5 01       		.uleb128 0x1
 2047 09c6 EE020000 		.4byte	.LASF129
 2048 09ca 0B       		.byte	0xb
 2049 09cb 7501     		.2byte	0x175
 2050 09cd 22       		.byte	0x22
 2051 09ce 6C090000 		.4byte	0x96c
 2052 09d2 04       		.byte	0x4
ARM GAS  C:\Users\DEVELO~1\AppData\Local\Temp\ccHwwtpW.s 			page 37


 2053 09d3 01       		.uleb128 0x1
 2054 09d4 E1070000 		.4byte	.LASF130
 2055 09d8 0B       		.byte	0xb
 2056 09d9 7901     		.2byte	0x179
 2057 09db 22       		.byte	0x22
 2058 09dc 6C090000 		.4byte	0x96c
 2059 09e0 08       		.byte	0x8
 2060 09e1 01       		.uleb128 0x1
 2061 09e2 35000000 		.4byte	.LASF131
 2062 09e6 0B       		.byte	0xb
 2063 09e7 7F01     		.2byte	0x17f
 2064 09e9 22       		.byte	0x22
 2065 09ea 6C090000 		.4byte	0x96c
 2066 09ee 0C       		.byte	0xc
 2067 09ef 01       		.uleb128 0x1
 2068 09f0 9C080000 		.4byte	.LASF132
 2069 09f4 0B       		.byte	0xb
 2070 09f5 8301     		.2byte	0x183
 2071 09f7 22       		.byte	0x22
 2072 09f8 6C090000 		.4byte	0x96c
 2073 09fc 10       		.byte	0x10
 2074 09fd 00       		.byte	0
 2075 09fe 0C       		.uleb128 0xc
 2076 09ff F0070000 		.4byte	.LASF133
 2077 0a03 0B       		.byte	0xb
 2078 0a04 8501     		.2byte	0x185
 2079 0a06 03       		.byte	0x3
 2080 0a07 A9090000 		.4byte	0x9a9
 2081 0a0b 09       		.uleb128 0x9
 2082 0a0c FE090000 		.4byte	0x9fe
 2083 0a10 05       		.uleb128 0x5
 2084 0a11 0B0A0000 		.4byte	0xa0b
 2085 0a15 02       		.uleb128 0x2
 2086 0a16 FE020000 		.4byte	.LASF134
 2087 0a1a 13       		.byte	0x13
 2088 0a1b 34       		.byte	0x34
 2089 0a1c 19       		.byte	0x19
 2090 0a1d 2D090000 		.4byte	0x92d
 2091 0a21 05       		.uleb128 0x5
 2092 0a22 150A0000 		.4byte	0xa15
 2093 0a26 08       		.uleb128 0x8
 2094 0a27 01       		.byte	0x1
 2095 0a28 02       		.byte	0x2
 2096 0a29 EE050000 		.4byte	.LASF135
 2097 0a2d 05       		.uleb128 0x5
 2098 0a2e BB000000 		.4byte	0xbb
 2099 0a32 15       		.uleb128 0x15
 2100 0a33 10       		.byte	0x10
 2101 0a34 14       		.byte	0x14
 2102 0a35 A701     		.2byte	0x1a7
 2103 0a37 900A0000 		.4byte	0xa90
 2104 0a3b 01       		.uleb128 0x1
 2105 0a3c FC060000 		.4byte	.LASF136
 2106 0a40 14       		.byte	0x14
 2107 0a41 A801     		.2byte	0x1a8
 2108 0a43 1A       		.byte	0x1a
 2109 0a44 900A0000 		.4byte	0xa90
ARM GAS  C:\Users\DEVELO~1\AppData\Local\Temp\ccHwwtpW.s 			page 38


 2110 0a48 00       		.byte	0
 2111 0a49 01       		.uleb128 0x1
 2112 0a4a 65050000 		.4byte	.LASF137
 2113 0a4e 14       		.byte	0x14
 2114 0a4f A901     		.2byte	0x1a9
 2115 0a51 1A       		.byte	0x1a
 2116 0a52 950A0000 		.4byte	0xa95
 2117 0a56 04       		.byte	0x4
 2118 0a57 04       		.uleb128 0x4
 2119 0a58 6D757800 		.ascii	"mux\000"
 2120 0a5c 14       		.byte	0x14
 2121 0a5d AB01     		.2byte	0x1ab
 2122 0a5f 1B       		.byte	0x1b
 2123 0a60 9A0A0000 		.4byte	0xa9a
 2124 0a64 08       		.byte	0x8
 2125 0a65 01       		.uleb128 0x1
 2126 0a66 AA020000 		.4byte	.LASF138
 2127 0a6a 14       		.byte	0x14
 2128 0a6b AF01     		.2byte	0x1af
 2129 0a6d 19       		.byte	0x19
 2130 0a6e BB000000 		.4byte	0xbb
 2131 0a72 0C       		.byte	0xc
 2132 0a73 01       		.uleb128 0x1
 2133 0a74 D0020000 		.4byte	.LASF139
 2134 0a78 14       		.byte	0x14
 2135 0a79 B101     		.2byte	0x1b1
 2136 0a7b 19       		.byte	0x19
 2137 0a7c BB000000 		.4byte	0xbb
 2138 0a80 0D       		.byte	0xd
 2139 0a81 01       		.uleb128 0x1
 2140 0a82 D0000000 		.4byte	.LASF140
 2141 0a86 14       		.byte	0x14
 2142 0a87 B201     		.2byte	0x1b2
 2143 0a89 19       		.byte	0x19
 2144 0a8a BB000000 		.4byte	0xbb
 2145 0a8e 0E       		.byte	0xe
 2146 0a8f 00       		.byte	0
 2147 0a90 05       		.uleb128 0x5
 2148 0a91 67060000 		.4byte	0x667
 2149 0a95 05       		.uleb128 0x5
 2150 0a96 F0000000 		.4byte	0xf0
 2151 0a9a 05       		.uleb128 0x5
 2152 0a9b 8C060000 		.4byte	0x68c
 2153 0a9f 0C       		.uleb128 0xc
 2154 0aa0 95050000 		.4byte	.LASF141
 2155 0aa4 14       		.byte	0x14
 2156 0aa5 B301     		.2byte	0x1b3
 2157 0aa7 03       		.byte	0x3
 2158 0aa8 320A0000 		.4byte	0xa32
 2159 0aac 09       		.uleb128 0x9
 2160 0aad 9F0A0000 		.4byte	0xa9f
 2161 0ab1 05       		.uleb128 0x5
 2162 0ab2 C7000000 		.4byte	0xc7
 2163 0ab6 05       		.uleb128 0x5
 2164 0ab7 AC0A0000 		.4byte	0xaac
 2165 0abb 30       		.uleb128 0x30
 2166 0abc 07       		.byte	0x7
ARM GAS  C:\Users\DEVELO~1\AppData\Local\Temp\ccHwwtpW.s 			page 39


 2167 0abd 01       		.byte	0x1
 2168 0abe 61000000 		.4byte	0x61
 2169 0ac2 15       		.byte	0x15
 2170 0ac3 54       		.byte	0x54
 2171 0ac4 0E       		.byte	0xe
 2172 0ac5 EE0A0000 		.4byte	0xaee
 2173 0ac9 14       		.uleb128 0x14
 2174 0aca 31060000 		.4byte	.LASF142
 2175 0ace 00       		.byte	0
 2176 0acf 14       		.uleb128 0x14
 2177 0ad0 5B000000 		.4byte	.LASF143
 2178 0ad4 01       		.byte	0x1
 2179 0ad5 14       		.uleb128 0x14
 2180 0ad6 0D010000 		.4byte	.LASF144
 2181 0ada 02       		.byte	0x2
 2182 0adb 14       		.uleb128 0x14
 2183 0adc BE050000 		.4byte	.LASF145
 2184 0ae0 03       		.byte	0x3
 2185 0ae1 14       		.uleb128 0x14
 2186 0ae2 03070000 		.4byte	.LASF146
 2187 0ae6 04       		.byte	0x4
 2188 0ae7 14       		.uleb128 0x14
 2189 0ae8 88060000 		.4byte	.LASF147
 2190 0aec 05       		.byte	0x5
 2191 0aed 00       		.byte	0
 2192 0aee 02       		.uleb128 0x2
 2193 0aef 7C050000 		.4byte	.LASF148
 2194 0af3 15       		.byte	0x15
 2195 0af4 5B       		.byte	0x5b
 2196 0af5 03       		.byte	0x3
 2197 0af6 BB0A0000 		.4byte	0xabb
 2198 0afa 0C       		.uleb128 0xc
 2199 0afb 39020000 		.4byte	.LASF149
 2200 0aff 16       		.byte	0x16
 2201 0b00 DA01     		.2byte	0x1da
 2202 0b02 12       		.byte	0x12
 2203 0b03 CC000000 		.4byte	0xcc
 2204 0b07 0C       		.uleb128 0xc
 2205 0b08 CC050000 		.4byte	.LASF150
 2206 0b0c 16       		.byte	0x16
 2207 0b0d DF01     		.2byte	0x1df
 2208 0b0f 12       		.byte	0x12
 2209 0b10 E4000000 		.4byte	0xe4
 2210 0b14 12       		.uleb128 0x12
 2211 0b15 92070000 		.4byte	.LASF151
 2212 0b19 0C       		.byte	0xc
 2213 0b1a 16       		.byte	0x16
 2214 0b1b E401     		.2byte	0x1e4
 2215 0b1d 08       		.byte	0x8
 2216 0b1e 4D0B0000 		.4byte	0xb4d
 2217 0b22 01       		.uleb128 0x1
 2218 0b23 21000000 		.4byte	.LASF152
 2219 0b27 16       		.byte	0x16
 2220 0b28 EA01     		.2byte	0x1ea
 2221 0b2a 13       		.byte	0x13
 2222 0b2b E4000000 		.4byte	0xe4
 2223 0b2f 00       		.byte	0
ARM GAS  C:\Users\DEVELO~1\AppData\Local\Temp\ccHwwtpW.s 			page 40


 2224 0b30 04       		.uleb128 0x4
 2225 0b31 63723100 		.ascii	"cr1\000"
 2226 0b35 16       		.byte	0x16
 2227 0b36 EF01     		.2byte	0x1ef
 2228 0b38 13       		.byte	0x13
 2229 0b39 E4000000 		.4byte	0xe4
 2230 0b3d 04       		.byte	0x4
 2231 0b3e 04       		.uleb128 0x4
 2232 0b3f 63723200 		.ascii	"cr2\000"
 2233 0b43 16       		.byte	0x16
 2234 0b44 F401     		.2byte	0x1f4
 2235 0b46 13       		.byte	0x13
 2236 0b47 E4000000 		.4byte	0xe4
 2237 0b4b 08       		.byte	0x8
 2238 0b4c 00       		.byte	0
 2239 0b4d 0C       		.uleb128 0xc
 2240 0b4e 85020000 		.4byte	.LASF153
 2241 0b52 16       		.byte	0x16
 2242 0b53 FA01     		.2byte	0x1fa
 2243 0b55 1F       		.byte	0x1f
 2244 0b56 140B0000 		.4byte	0xb14
 2245 0b5a 09       		.uleb128 0x9
 2246 0b5b 4D0B0000 		.4byte	0xb4d
 2247 0b5f 0C       		.uleb128 0xc
 2248 0b60 A8070000 		.4byte	.LASF154
 2249 0b64 16       		.byte	0x16
 2250 0b65 FF01     		.2byte	0x1ff
 2251 0b67 1F       		.byte	0x1f
 2252 0b68 6C0B0000 		.4byte	0xb6c
 2253 0b6c 12       		.uleb128 0x12
 2254 0b6d 83080000 		.4byte	.LASF155
 2255 0b71 3C       		.byte	0x3c
 2256 0b72 16       		.byte	0x16
 2257 0b73 0402     		.2byte	0x204
 2258 0b75 08       		.byte	0x8
 2259 0b76 210C0000 		.4byte	0xc21
 2260 0b7a 01       		.uleb128 0x1
 2261 0b7b 43020000 		.4byte	.LASF36
 2262 0b7f 16       		.byte	0x16
 2263 0b80 0802     		.2byte	0x208
 2264 0b82 1D       		.byte	0x1d
 2265 0b83 EE0A0000 		.4byte	0xaee
 2266 0b87 00       		.byte	0
 2267 0b88 01       		.uleb128 0x1
 2268 0b89 29070000 		.4byte	.LASF53
 2269 0b8d 16       		.byte	0x16
 2270 0b8e 0C02     		.2byte	0x20c
 2271 0b90 1E       		.byte	0x1e
 2272 0b91 470C0000 		.4byte	0xc47
 2273 0b95 04       		.byte	0x4
 2274 0b96 01       		.uleb128 0x1
 2275 0b97 44030000 		.4byte	.LASF156
 2276 0b9b 16       		.byte	0x16
 2277 0b9c 1002     		.2byte	0x210
 2278 0b9e 1D       		.byte	0x1d
 2279 0b9f 070B0000 		.4byte	0xb07
 2280 0ba3 08       		.byte	0x8
ARM GAS  C:\Users\DEVELO~1\AppData\Local\Temp\ccHwwtpW.s 			page 41


 2281 0ba4 01       		.uleb128 0x1
 2282 0ba5 49020000 		.4byte	.LASF157
 2283 0ba9 16       		.byte	0x16
 2284 0baa 1202     		.2byte	0x212
 2285 0bac 1D       		.byte	0x1d
 2286 0bad 150A0000 		.4byte	0xa15
 2287 0bb1 0C       		.byte	0xc
 2288 0bb2 01       		.uleb128 0x1
 2289 0bb3 D7050000 		.4byte	.LASF158
 2290 0bb7 16       		.byte	0x16
 2291 0bb8 1B02     		.2byte	0x21b
 2292 0bba 1D       		.byte	0x1d
 2293 0bbb 59080000 		.4byte	0x859
 2294 0bbf 1C       		.byte	0x1c
 2295 0bc0 01       		.uleb128 0x1
 2296 0bc1 20090000 		.4byte	.LASF159
 2297 0bc5 16       		.byte	0x16
 2298 0bc6 1F02     		.2byte	0x21f
 2299 0bc8 1D       		.byte	0x1d
 2300 0bc9 2D000000 		.4byte	0x2d
 2301 0bcd 20       		.byte	0x20
 2302 0bce 01       		.uleb128 0x1
 2303 0bcf FD040000 		.4byte	.LASF160
 2304 0bd3 16       		.byte	0x16
 2305 0bd4 2302     		.2byte	0x223
 2306 0bd6 1D       		.byte	0x1d
 2307 0bd7 2D000000 		.4byte	0x2d
 2308 0bdb 24       		.byte	0x24
 2309 0bdc 01       		.uleb128 0x1
 2310 0bdd B0020000 		.4byte	.LASF161
 2311 0be1 16       		.byte	0x16
 2312 0be2 2802     		.2byte	0x228
 2313 0be4 1D       		.byte	0x1d
 2314 0be5 E4000000 		.4byte	0xe4
 2315 0be9 28       		.byte	0x28
 2316 0bea 01       		.uleb128 0x1
 2317 0beb 23050000 		.4byte	.LASF162
 2318 0bef 16       		.byte	0x16
 2319 0bf0 2C02     		.2byte	0x22c
 2320 0bf2 1D       		.byte	0x1d
 2321 0bf3 E4000000 		.4byte	0xe4
 2322 0bf7 2C       		.byte	0x2c
 2323 0bf8 04       		.uleb128 0x4
 2324 0bf9 727800   		.ascii	"rx\000"
 2325 0bfc 16       		.byte	0x16
 2326 0bfd 4502     		.2byte	0x245
 2327 0bff 05       		.byte	0x5
 2328 0c00 210C0000 		.4byte	0xc21
 2329 0c04 30       		.byte	0x30
 2330 0c05 04       		.uleb128 0x4
 2331 0c06 747800   		.ascii	"tx\000"
 2332 0c09 16       		.byte	0x16
 2333 0c0a 5802     		.2byte	0x258
 2334 0c0c 05       		.byte	0x5
 2335 0c0d 340C0000 		.4byte	0xc34
 2336 0c11 34       		.byte	0x34
 2337 0c12 04       		.uleb128 0x4
ARM GAS  C:\Users\DEVELO~1\AppData\Local\Temp\ccHwwtpW.s 			page 42


 2338 0c13 69326300 		.ascii	"i2c\000"
 2339 0c17 16       		.byte	0x16
 2340 0c18 6602     		.2byte	0x266
 2341 0c1a 1E       		.byte	0x1e
 2342 0c1b 4C0C0000 		.4byte	0xc4c
 2343 0c1f 38       		.byte	0x38
 2344 0c20 00       		.byte	0
 2345 0c21 1F       		.uleb128 0x1f
 2346 0c22 3602     		.2byte	0x236
 2347 0c24 340C0000 		.4byte	0xc34
 2348 0c28 20       		.uleb128 0x20
 2349 0c29 646D6100 		.ascii	"dma\000"
 2350 0c2d 3B02     		.2byte	0x23b
 2351 0c2f B60A0000 		.4byte	0xab6
 2352 0c33 00       		.byte	0
 2353 0c34 1F       		.uleb128 0x1f
 2354 0c35 4902     		.2byte	0x249
 2355 0c37 470C0000 		.4byte	0xc47
 2356 0c3b 20       		.uleb128 0x20
 2357 0c3c 646D6100 		.ascii	"dma\000"
 2358 0c40 4E02     		.2byte	0x24e
 2359 0c42 B60A0000 		.4byte	0xab6
 2360 0c46 00       		.byte	0
 2361 0c47 05       		.uleb128 0x5
 2362 0c48 5A0B0000 		.4byte	0xb5a
 2363 0c4c 05       		.uleb128 0x5
 2364 0c4d 3D070000 		.4byte	0x73d
 2365 0c51 1B       		.uleb128 0x1b
 2366 0c52 49010000 		.4byte	.LASF163
 2367 0c56 6B       		.byte	0x6b
 2368 0c57 610C0000 		.4byte	0xc61
 2369 0c5b 06       		.uleb128 0x6
 2370 0c5c 210A0000 		.4byte	0xa21
 2371 0c60 00       		.byte	0
 2372 0c61 1B       		.uleb128 0x1b
 2373 0c62 EA040000 		.4byte	.LASF164
 2374 0c66 67       		.byte	0x67
 2375 0c67 710C0000 		.4byte	0xc71
 2376 0c6b 06       		.uleb128 0x6
 2377 0c6c 210A0000 		.4byte	0xa21
 2378 0c70 00       		.byte	0
 2379 0c71 21       		.uleb128 0x21
 2380 0c72 7C000000 		.4byte	.LASF165
 2381 0c76 A602     		.2byte	0x2a6
 2382 0c78 4E010000 		.4byte	0x14e
 2383 0c7c 9A0C0000 		.4byte	0xc9a
 2384 0c80 06       		.uleb128 0x6
 2385 0c81 9A0C0000 		.4byte	0xc9a
 2386 0c85 06       		.uleb128 0x6
 2387 0c86 FA0A0000 		.4byte	0xafa
 2388 0c8a 06       		.uleb128 0x6
 2389 0c8b 2D0A0000 		.4byte	0xa2d
 2390 0c8f 06       		.uleb128 0x6
 2391 0c90 2D000000 		.4byte	0x2d
 2392 0c94 06       		.uleb128 0x6
 2393 0c95 83030000 		.4byte	0x383
 2394 0c99 00       		.byte	0
ARM GAS  C:\Users\DEVELO~1\AppData\Local\Temp\ccHwwtpW.s 			page 43


 2395 0c9a 05       		.uleb128 0x5
 2396 0c9b 5F0B0000 		.4byte	0xb5f
 2397 0c9f 21       		.uleb128 0x21
 2398 0ca0 0A060000 		.4byte	.LASF166
 2399 0ca4 A202     		.2byte	0x2a2
 2400 0ca6 4E010000 		.4byte	0x14e
 2401 0caa D20C0000 		.4byte	0xcd2
 2402 0cae 06       		.uleb128 0x6
 2403 0caf 9A0C0000 		.4byte	0xc9a
 2404 0cb3 06       		.uleb128 0x6
 2405 0cb4 FA0A0000 		.4byte	0xafa
 2406 0cb8 06       		.uleb128 0x6
 2407 0cb9 B10A0000 		.4byte	0xab1
 2408 0cbd 06       		.uleb128 0x6
 2409 0cbe 2D000000 		.4byte	0x2d
 2410 0cc2 06       		.uleb128 0x6
 2411 0cc3 2D0A0000 		.4byte	0xa2d
 2412 0cc7 06       		.uleb128 0x6
 2413 0cc8 2D000000 		.4byte	0x2d
 2414 0ccc 06       		.uleb128 0x6
 2415 0ccd 83030000 		.4byte	0x383
 2416 0cd1 00       		.byte	0
 2417 0cd2 22       		.uleb128 0x22
 2418 0cd3 4E040000 		.4byte	.LASF167
 2419 0cd7 A102     		.2byte	0x2a1
 2420 0cd9 E30C0000 		.4byte	0xce3
 2421 0cdd 06       		.uleb128 0x6
 2422 0cde 9A0C0000 		.4byte	0xc9a
 2423 0ce2 00       		.byte	0
 2424 0ce3 22       		.uleb128 0x22
 2425 0ce4 82040000 		.4byte	.LASF168
 2426 0ce8 A002     		.2byte	0x2a0
 2427 0cea F40C0000 		.4byte	0xcf4
 2428 0cee 06       		.uleb128 0x6
 2429 0cef 9A0C0000 		.4byte	0xc9a
 2430 0cf3 00       		.byte	0
 2431 0cf4 1B       		.uleb128 0x1b
 2432 0cf5 FD000000 		.4byte	.LASF169
 2433 0cf9 66       		.byte	0x66
 2434 0cfa 040D0000 		.4byte	0xd04
 2435 0cfe 06       		.uleb128 0x6
 2436 0cff 210A0000 		.4byte	0xa21
 2437 0d03 00       		.byte	0
 2438 0d04 31       		.uleb128 0x31
 2439 0d05 AB060000 		.4byte	.LASF196
 2440 0d09 16       		.byte	0x16
 2441 0d0a 9F02     		.2byte	0x29f
 2442 0d0c 08       		.byte	0x8
 2443 0d0d 23       		.uleb128 0x23
 2444 0d0e D7000000 		.4byte	.LASF170
 2445 0d12 2501     		.2byte	0x125
 2446 0d14 00000000 		.4byte	.LFB440
 2447 0d18 1A000000 		.4byte	.LFE440-.LFB440
 2448 0d1c 01       		.uleb128 0x1
 2449 0d1d 9C       		.byte	0x9c
 2450 0d1e 3A0D0000 		.4byte	0xd3a
 2451 0d22 24       		.uleb128 0x24
ARM GAS  C:\Users\DEVELO~1\AppData\Local\Temp\ccHwwtpW.s 			page 44


 2452 0d23 F3000000 		.4byte	.LASF172
 2453 0d27 2501     		.2byte	0x125
 2454 0d29 9A0C0000 		.4byte	0xc9a
 2455 0d2d 02       		.uleb128 0x2
 2456 0d2e 91       		.byte	0x91
 2457 0d2f 74       		.sleb128 -12
 2458 0d30 0F       		.uleb128 0xf
 2459 0d31 60060000 		.4byte	.LASF173
 2460 0d35 4A0D0000 		.4byte	0xd4a
 2461 0d39 00       		.byte	0
 2462 0d3a 0D       		.uleb128 0xd
 2463 0d3b 66030000 		.4byte	0x366
 2464 0d3f 4A0D0000 		.4byte	0xd4a
 2465 0d43 0E       		.uleb128 0xe
 2466 0d44 39000000 		.4byte	0x39
 2467 0d48 0D       		.byte	0xd
 2468 0d49 00       		.byte	0
 2469 0d4a 09       		.uleb128 0x9
 2470 0d4b 3A0D0000 		.4byte	0xd3a
 2471 0d4f 23       		.uleb128 0x23
 2472 0d50 A8050000 		.4byte	.LASF171
 2473 0d54 1501     		.2byte	0x115
 2474 0d56 00000000 		.4byte	.LFB439
 2475 0d5a 1A000000 		.4byte	.LFE439-.LFB439
 2476 0d5e 01       		.uleb128 0x1
 2477 0d5f 9C       		.byte	0x9c
 2478 0d60 7C0D0000 		.4byte	0xd7c
 2479 0d64 24       		.uleb128 0x24
 2480 0d65 F3000000 		.4byte	.LASF172
 2481 0d69 1501     		.2byte	0x115
 2482 0d6b 9A0C0000 		.4byte	0xc9a
 2483 0d6f 02       		.uleb128 0x2
 2484 0d70 91       		.byte	0x91
 2485 0d71 74       		.sleb128 -12
 2486 0d72 0F       		.uleb128 0xf
 2487 0d73 60060000 		.4byte	.LASF173
 2488 0d77 4A0D0000 		.4byte	0xd4a
 2489 0d7b 00       		.byte	0
 2490 0d7c 1C       		.uleb128 0x1c
 2491 0d7d 75010000 		.4byte	.LASF177
 2492 0d81 ED       		.byte	0xed
 2493 0d82 4E010000 		.4byte	0x14e
 2494 0d86 00000000 		.4byte	.LFB438
 2495 0d8a 56000000 		.4byte	.LFE438-.LFB438
 2496 0d8e 01       		.uleb128 0x1
 2497 0d8f 9C       		.byte	0x9c
 2498 0d90 F10D0000 		.4byte	0xdf1
 2499 0d94 07       		.uleb128 0x7
 2500 0d95 F3000000 		.4byte	.LASF172
 2501 0d99 ED       		.byte	0xed
 2502 0d9a 2A       		.byte	0x2a
 2503 0d9b 9A0C0000 		.4byte	0xc9a
 2504 0d9f 02       		.uleb128 0x2
 2505 0da0 91       		.byte	0x91
 2506 0da1 6C       		.sleb128 -20
 2507 0da2 07       		.uleb128 0x7
 2508 0da3 B9000000 		.4byte	.LASF174
ARM GAS  C:\Users\DEVELO~1\AppData\Local\Temp\ccHwwtpW.s 			page 45


 2509 0da7 EE       		.byte	0xee
 2510 0da8 29       		.byte	0x29
 2511 0da9 FA0A0000 		.4byte	0xafa
 2512 0dad 02       		.uleb128 0x2
 2513 0dae 91       		.byte	0x91
 2514 0daf 6A       		.sleb128 -22
 2515 0db0 07       		.uleb128 0x7
 2516 0db1 A0000000 		.4byte	.LASF175
 2517 0db5 EF       		.byte	0xef
 2518 0db6 28       		.byte	0x28
 2519 0db7 2D0A0000 		.4byte	0xa2d
 2520 0dbb 02       		.uleb128 0x2
 2521 0dbc 91       		.byte	0x91
 2522 0dbd 64       		.sleb128 -28
 2523 0dbe 07       		.uleb128 0x7
 2524 0dbf FD040000 		.4byte	.LASF160
 2525 0dc3 F0       		.byte	0xf0
 2526 0dc4 26       		.byte	0x26
 2527 0dc5 2D000000 		.4byte	0x2d
 2528 0dc9 02       		.uleb128 0x2
 2529 0dca 91       		.byte	0x91
 2530 0dcb 60       		.sleb128 -32
 2531 0dcc 07       		.uleb128 0x7
 2532 0dcd 6B030000 		.4byte	.LASF176
 2533 0dd1 F1       		.byte	0xf1
 2534 0dd2 2D       		.byte	0x2d
 2535 0dd3 83030000 		.4byte	0x383
 2536 0dd7 02       		.uleb128 0x2
 2537 0dd8 91       		.byte	0x91
 2538 0dd9 00       		.sleb128 0
 2539 0dda 25       		.uleb128 0x25
 2540 0ddb 29000000 		.4byte	.LASF116
 2541 0ddf F3       		.byte	0xf3
 2542 0de0 4E010000 		.4byte	0x14e
 2543 0de4 02       		.uleb128 0x2
 2544 0de5 91       		.byte	0x91
 2545 0de6 74       		.sleb128 -12
 2546 0de7 0F       		.uleb128 0xf
 2547 0de8 60060000 		.4byte	.LASF173
 2548 0dec 010E0000 		.4byte	0xe01
 2549 0df0 00       		.byte	0
 2550 0df1 0D       		.uleb128 0xd
 2551 0df2 66030000 		.4byte	0x366
 2552 0df6 010E0000 		.4byte	0xe01
 2553 0dfa 0E       		.uleb128 0xe
 2554 0dfb 39000000 		.4byte	0x39
 2555 0dff 17       		.byte	0x17
 2556 0e00 00       		.byte	0
 2557 0e01 09       		.uleb128 0x9
 2558 0e02 F10D0000 		.4byte	0xdf1
 2559 0e06 1C       		.uleb128 0x1c
 2560 0e07 17010000 		.4byte	.LASF178
 2561 0e0b BB       		.byte	0xbb
 2562 0e0c 4E010000 		.4byte	0x14e
 2563 0e10 00000000 		.4byte	.LFB437
 2564 0e14 5E000000 		.4byte	.LFE437-.LFB437
 2565 0e18 01       		.uleb128 0x1
ARM GAS  C:\Users\DEVELO~1\AppData\Local\Temp\ccHwwtpW.s 			page 46


 2566 0e19 9C       		.byte	0x9c
 2567 0e1a 970E0000 		.4byte	0xe97
 2568 0e1e 07       		.uleb128 0x7
 2569 0e1f F3000000 		.4byte	.LASF172
 2570 0e23 BB       		.byte	0xbb
 2571 0e24 2B       		.byte	0x2b
 2572 0e25 9A0C0000 		.4byte	0xc9a
 2573 0e29 02       		.uleb128 0x2
 2574 0e2a 91       		.byte	0x91
 2575 0e2b 6C       		.sleb128 -20
 2576 0e2c 07       		.uleb128 0x7
 2577 0e2d B9000000 		.4byte	.LASF174
 2578 0e31 BC       		.byte	0xbc
 2579 0e32 2A       		.byte	0x2a
 2580 0e33 FA0A0000 		.4byte	0xafa
 2581 0e37 02       		.uleb128 0x2
 2582 0e38 91       		.byte	0x91
 2583 0e39 6A       		.sleb128 -22
 2584 0e3a 07       		.uleb128 0x7
 2585 0e3b BA020000 		.4byte	.LASF179
 2586 0e3f BD       		.byte	0xbd
 2587 0e40 2F       		.byte	0x2f
 2588 0e41 B10A0000 		.4byte	0xab1
 2589 0e45 02       		.uleb128 0x2
 2590 0e46 91       		.byte	0x91
 2591 0e47 64       		.sleb128 -28
 2592 0e48 07       		.uleb128 0x7
 2593 0e49 20090000 		.4byte	.LASF159
 2594 0e4d BE       		.byte	0xbe
 2595 0e4e 27       		.byte	0x27
 2596 0e4f 2D000000 		.4byte	0x2d
 2597 0e53 02       		.uleb128 0x2
 2598 0e54 91       		.byte	0x91
 2599 0e55 60       		.sleb128 -32
 2600 0e56 07       		.uleb128 0x7
 2601 0e57 A0000000 		.4byte	.LASF175
 2602 0e5b BF       		.byte	0xbf
 2603 0e5c 29       		.byte	0x29
 2604 0e5d 2D0A0000 		.4byte	0xa2d
 2605 0e61 02       		.uleb128 0x2
 2606 0e62 91       		.byte	0x91
 2607 0e63 00       		.sleb128 0
 2608 0e64 07       		.uleb128 0x7
 2609 0e65 FD040000 		.4byte	.LASF160
 2610 0e69 C0       		.byte	0xc0
 2611 0e6a 27       		.byte	0x27
 2612 0e6b 2D000000 		.4byte	0x2d
 2613 0e6f 02       		.uleb128 0x2
 2614 0e70 91       		.byte	0x91
 2615 0e71 04       		.sleb128 4
 2616 0e72 07       		.uleb128 0x7
 2617 0e73 6B030000 		.4byte	.LASF176
 2618 0e77 C1       		.byte	0xc1
 2619 0e78 2E       		.byte	0x2e
 2620 0e79 83030000 		.4byte	0x383
 2621 0e7d 02       		.uleb128 0x2
 2622 0e7e 91       		.byte	0x91
ARM GAS  C:\Users\DEVELO~1\AppData\Local\Temp\ccHwwtpW.s 			page 47


 2623 0e7f 08       		.sleb128 8
 2624 0e80 25       		.uleb128 0x25
 2625 0e81 29000000 		.4byte	.LASF116
 2626 0e85 C2       		.byte	0xc2
 2627 0e86 4E010000 		.4byte	0x14e
 2628 0e8a 02       		.uleb128 0x2
 2629 0e8b 91       		.byte	0x91
 2630 0e8c 74       		.sleb128 -12
 2631 0e8d 0F       		.uleb128 0xf
 2632 0e8e 60060000 		.4byte	.LASF173
 2633 0e92 A70E0000 		.4byte	0xea7
 2634 0e96 00       		.byte	0
 2635 0e97 0D       		.uleb128 0xd
 2636 0e98 66030000 		.4byte	0x366
 2637 0e9c A70E0000 		.4byte	0xea7
 2638 0ea0 0E       		.uleb128 0xe
 2639 0ea1 39000000 		.4byte	0x39
 2640 0ea5 18       		.byte	0x18
 2641 0ea6 00       		.byte	0
 2642 0ea7 09       		.uleb128 0x9
 2643 0ea8 970E0000 		.4byte	0xe97
 2644 0eac 32       		.uleb128 0x32
 2645 0ead 45060000 		.4byte	.LASF180
 2646 0eb1 05       		.byte	0x5
 2647 0eb2 9B       		.byte	0x9b
 2648 0eb3 0C       		.byte	0xc
 2649 0eb4 070B0000 		.4byte	0xb07
 2650 0eb8 00000000 		.4byte	.LFB436
 2651 0ebc 16000000 		.4byte	.LFE436-.LFB436
 2652 0ec0 01       		.uleb128 0x1
 2653 0ec1 9C       		.byte	0x9c
 2654 0ec2 DE0E0000 		.4byte	0xede
 2655 0ec6 07       		.uleb128 0x7
 2656 0ec7 F3000000 		.4byte	.LASF172
 2657 0ecb 9B       		.byte	0x9b
 2658 0ecc 24       		.byte	0x24
 2659 0ecd 9A0C0000 		.4byte	0xc9a
 2660 0ed1 02       		.uleb128 0x2
 2661 0ed2 91       		.byte	0x91
 2662 0ed3 74       		.sleb128 -12
 2663 0ed4 0F       		.uleb128 0xf
 2664 0ed5 60060000 		.4byte	.LASF173
 2665 0ed9 EE0E0000 		.4byte	0xeee
 2666 0edd 00       		.byte	0
 2667 0ede 0D       		.uleb128 0xd
 2668 0edf 66030000 		.4byte	0x366
 2669 0ee3 EE0E0000 		.4byte	0xeee
 2670 0ee7 0E       		.uleb128 0xe
 2671 0ee8 39000000 		.4byte	0x39
 2672 0eec 0C       		.byte	0xc
 2673 0eed 00       		.byte	0
 2674 0eee 09       		.uleb128 0x9
 2675 0eef DE0E0000 		.4byte	0xede
 2676 0ef3 26       		.uleb128 0x26
 2677 0ef4 05050000 		.4byte	.LASF181
 2678 0ef8 83       		.byte	0x83
 2679 0ef9 00000000 		.4byte	.LFB435
ARM GAS  C:\Users\DEVELO~1\AppData\Local\Temp\ccHwwtpW.s 			page 48


 2680 0efd 2A000000 		.4byte	.LFE435-.LFB435
 2681 0f01 01       		.uleb128 0x1
 2682 0f02 9C       		.byte	0x9c
 2683 0f03 1F0F0000 		.4byte	0xf1f
 2684 0f07 07       		.uleb128 0x7
 2685 0f08 F3000000 		.4byte	.LASF172
 2686 0f0c 83       		.byte	0x83
 2687 0f0d 19       		.byte	0x19
 2688 0f0e 9A0C0000 		.4byte	0xc9a
 2689 0f12 02       		.uleb128 0x2
 2690 0f13 91       		.byte	0x91
 2691 0f14 74       		.sleb128 -12
 2692 0f15 0F       		.uleb128 0xf
 2693 0f16 60060000 		.4byte	.LASF173
 2694 0f1a 2F0F0000 		.4byte	0xf2f
 2695 0f1e 00       		.byte	0
 2696 0f1f 0D       		.uleb128 0xd
 2697 0f20 66030000 		.4byte	0x366
 2698 0f24 2F0F0000 		.4byte	0xf2f
 2699 0f28 0E       		.uleb128 0xe
 2700 0f29 39000000 		.4byte	0x39
 2701 0f2d 07       		.byte	0x7
 2702 0f2e 00       		.byte	0
 2703 0f2f 09       		.uleb128 0x9
 2704 0f30 1F0F0000 		.4byte	0xf1f
 2705 0f34 1C       		.uleb128 0x1c
 2706 0f35 BE000000 		.4byte	.LASF182
 2707 0f39 5E       		.byte	0x5e
 2708 0f3a 4E010000 		.4byte	0x14e
 2709 0f3e 00000000 		.4byte	.LFB434
 2710 0f42 32000000 		.4byte	.LFE434-.LFB434
 2711 0f46 01       		.uleb128 0x1
 2712 0f47 9C       		.byte	0x9c
 2713 0f48 810F0000 		.4byte	0xf81
 2714 0f4c 07       		.uleb128 0x7
 2715 0f4d F3000000 		.4byte	.LASF172
 2716 0f51 5E       		.byte	0x5e
 2717 0f52 1B       		.byte	0x1b
 2718 0f53 9A0C0000 		.4byte	0xc9a
 2719 0f57 02       		.uleb128 0x2
 2720 0f58 91       		.byte	0x91
 2721 0f59 6C       		.sleb128 -20
 2722 0f5a 07       		.uleb128 0x7
 2723 0f5b 29070000 		.4byte	.LASF53
 2724 0f5f 5E       		.byte	0x5e
 2725 0f60 32       		.byte	0x32
 2726 0f61 470C0000 		.4byte	0xc47
 2727 0f65 02       		.uleb128 0x2
 2728 0f66 91       		.byte	0x91
 2729 0f67 68       		.sleb128 -24
 2730 0f68 33       		.uleb128 0x33
 2731 0f69 6D736700 		.ascii	"msg\000"
 2732 0f6d 05       		.byte	0x5
 2733 0f6e 5F       		.byte	0x5f
 2734 0f6f 09       		.byte	0x9
 2735 0f70 4E010000 		.4byte	0x14e
 2736 0f74 02       		.uleb128 0x2
ARM GAS  C:\Users\DEVELO~1\AppData\Local\Temp\ccHwwtpW.s 			page 49


 2737 0f75 91       		.byte	0x91
 2738 0f76 74       		.sleb128 -12
 2739 0f77 0F       		.uleb128 0xf
 2740 0f78 60060000 		.4byte	.LASF173
 2741 0f7c 910F0000 		.4byte	0xf91
 2742 0f80 00       		.byte	0
 2743 0f81 0D       		.uleb128 0xd
 2744 0f82 66030000 		.4byte	0x366
 2745 0f86 910F0000 		.4byte	0xf91
 2746 0f8a 0E       		.uleb128 0xe
 2747 0f8b 39000000 		.4byte	0x39
 2748 0f8f 08       		.byte	0x8
 2749 0f90 00       		.byte	0
 2750 0f91 09       		.uleb128 0x9
 2751 0f92 810F0000 		.4byte	0xf81
 2752 0f96 26       		.uleb128 0x26
 2753 0f97 B3080000 		.4byte	.LASF183
 2754 0f9b 47       		.byte	0x47
 2755 0f9c 00000000 		.4byte	.LFB433
 2756 0fa0 26000000 		.4byte	.LFE433-.LFB433
 2757 0fa4 01       		.uleb128 0x1
 2758 0fa5 9C       		.byte	0x9c
 2759 0fa6 B90F0000 		.4byte	0xfb9
 2760 0faa 07       		.uleb128 0x7
 2761 0fab F3000000 		.4byte	.LASF172
 2762 0faf 47       		.byte	0x47
 2763 0fb0 1F       		.byte	0x1f
 2764 0fb1 9A0C0000 		.4byte	0xc9a
 2765 0fb5 02       		.uleb128 0x2
 2766 0fb6 91       		.byte	0x91
 2767 0fb7 74       		.sleb128 -12
 2768 0fb8 00       		.byte	0
 2769 0fb9 34       		.uleb128 0x34
 2770 0fba 61080000 		.4byte	.LASF197
 2771 0fbe 05       		.byte	0x5
 2772 0fbf 3B       		.byte	0x3b
 2773 0fc0 06       		.byte	0x6
 2774 0fc1 00000000 		.4byte	.LFB432
 2775 0fc5 0C000000 		.4byte	.LFE432-.LFB432
 2776 0fc9 01       		.uleb128 0x1
 2777 0fca 9C       		.byte	0x9c
 2778 0fcb 1D       		.uleb128 0x1d
 2779 0fcc 30070000 		.4byte	.LASF184
 2780 0fd0 3704     		.2byte	0x437
 2781 0fd2 00000000 		.4byte	.LFB378
 2782 0fd6 16000000 		.4byte	.LFE378-.LFB378
 2783 0fda 01       		.uleb128 0x1
 2784 0fdb 9C       		.byte	0x9c
 2785 0fdc EF0F0000 		.4byte	0xfef
 2786 0fe0 1E       		.uleb128 0x1e
 2787 0fe1 6D7000   		.ascii	"mp\000"
 2788 0fe4 3704     		.2byte	0x437
 2789 0fe6 2D       		.byte	0x2d
 2790 0fe7 210A0000 		.4byte	0xa21
 2791 0feb 02       		.uleb128 0x2
 2792 0fec 91       		.byte	0x91
 2793 0fed 74       		.sleb128 -12
ARM GAS  C:\Users\DEVELO~1\AppData\Local\Temp\ccHwwtpW.s 			page 50


 2794 0fee 00       		.byte	0
 2795 0fef 1D       		.uleb128 0x1d
 2796 0ff0 7F070000 		.4byte	.LASF185
 2797 0ff4 1F04     		.2byte	0x41f
 2798 0ff6 00000000 		.4byte	.LFB377
 2799 0ffa 16000000 		.4byte	.LFE377-.LFB377
 2800 0ffe 01       		.uleb128 0x1
 2801 0fff 9C       		.byte	0x9c
 2802 1000 13100000 		.4byte	0x1013
 2803 1004 1E       		.uleb128 0x1e
 2804 1005 6D7000   		.ascii	"mp\000"
 2805 1008 1F04     		.2byte	0x41f
 2806 100a 2B       		.byte	0x2b
 2807 100b 210A0000 		.4byte	0xa21
 2808 100f 02       		.uleb128 0x2
 2809 1010 91       		.byte	0x91
 2810 1011 74       		.sleb128 -12
 2811 1012 00       		.byte	0
 2812 1013 1D       		.uleb128 0x1d
 2813 1014 35010000 		.4byte	.LASF186
 2814 1018 0B04     		.2byte	0x40b
 2815 101a 00000000 		.4byte	.LFB376
 2816 101e 16000000 		.4byte	.LFE376-.LFB376
 2817 1022 01       		.uleb128 0x1
 2818 1023 9C       		.byte	0x9c
 2819 1024 37100000 		.4byte	0x1037
 2820 1028 1E       		.uleb128 0x1e
 2821 1029 6D7000   		.ascii	"mp\000"
 2822 102c 0B04     		.2byte	0x40b
 2823 102e 31       		.byte	0x31
 2824 102f 210A0000 		.4byte	0xa21
 2825 1033 02       		.uleb128 0x2
 2826 1034 91       		.byte	0x91
 2827 1035 74       		.sleb128 -12
 2828 1036 00       		.byte	0
 2829 1037 27       		.uleb128 0x27
 2830 1038 73060000 		.4byte	.LASF187
 2831 103c 4802     		.2byte	0x248
 2832 103e 00000000 		.4byte	.LFB351
 2833 1042 0C000000 		.4byte	.LFE351-.LFB351
 2834 1046 01       		.uleb128 0x1
 2835 1047 9C       		.byte	0x9c
 2836 1048 27       		.uleb128 0x27
 2837 1049 46050000 		.4byte	.LASF188
 2838 104d 3D02     		.2byte	0x23d
 2839 104f 00000000 		.4byte	.LFB350
 2840 1053 0C000000 		.4byte	.LFE350-.LFB350
 2841 1057 01       		.uleb128 0x1
 2842 1058 9C       		.byte	0x9c
 2843 1059 28       		.uleb128 0x28
 2844 105a 69080000 		.4byte	.LASF189
 2845 105e A501     		.2byte	0x1a5
 2846 1060 00000000 		.4byte	.LFB203
 2847 1064 1E000000 		.4byte	.LFE203-.LFB203
 2848 1068 01       		.uleb128 0x1
 2849 1069 9C       		.byte	0x9c
 2850 106a A2100000 		.4byte	0x10a2
ARM GAS  C:\Users\DEVELO~1\AppData\Local\Temp\ccHwwtpW.s 			page 51


 2851 106e 0F       		.uleb128 0xf
 2852 106f 60060000 		.4byte	.LASF173
 2853 1073 B2100000 		.4byte	0x10b2
 2854 1077 16       		.uleb128 0x16
 2855 1078 F7100000 		.4byte	0x10f7
 2856 107c 0A000000 		.4byte	.LBB18
 2857 1080 0A000000 		.4byte	.LBE18-.LBB18
 2858 1084 01       		.byte	0x1
 2859 1085 B201     		.2byte	0x1b2
 2860 1087 16       		.uleb128 0x16
 2861 1088 05110000 		.4byte	0x1105
 2862 108c 0A000000 		.4byte	.LBB20
 2863 1090 08000000 		.4byte	.LBE20-.LBB20
 2864 1094 03       		.byte	0x3
 2865 1095 5203     		.2byte	0x352
 2866 1097 29       		.uleb128 0x29
 2867 1098 0F110000 		.4byte	0x110f
 2868 109c 02       		.uleb128 0x2
 2869 109d 91       		.byte	0x91
 2870 109e 74       		.sleb128 -12
 2871 109f 00       		.byte	0
 2872 10a0 00       		.byte	0
 2873 10a1 00       		.byte	0
 2874 10a2 0D       		.uleb128 0xd
 2875 10a3 66030000 		.4byte	0x366
 2876 10a7 B2100000 		.4byte	0x10b2
 2877 10ab 0E       		.uleb128 0xe
 2878 10ac 39000000 		.4byte	0x39
 2879 10b0 0B       		.byte	0xb
 2880 10b1 00       		.byte	0
 2881 10b2 09       		.uleb128 0x9
 2882 10b3 A2100000 		.4byte	0x10a2
 2883 10b7 28       		.uleb128 0x28
 2884 10b8 69060000 		.4byte	.LASF190
 2885 10bc 9701     		.2byte	0x197
 2886 10be 00000000 		.4byte	.LFB202
 2887 10c2 1E000000 		.4byte	.LFE202-.LFB202
 2888 10c6 01       		.uleb128 0x1
 2889 10c7 9C       		.byte	0x9c
 2890 10c8 F7100000 		.4byte	0x10f7
 2891 10cc 16       		.uleb128 0x16
 2892 10cd FE100000 		.4byte	0x10fe
 2893 10d1 0A000000 		.4byte	.LBB14
 2894 10d5 0A000000 		.4byte	.LBE14-.LBB14
 2895 10d9 01       		.byte	0x1
 2896 10da 9901     		.2byte	0x199
 2897 10dc 16       		.uleb128 0x16
 2898 10dd 05110000 		.4byte	0x1105
 2899 10e1 0A000000 		.4byte	.LBB16
 2900 10e5 08000000 		.4byte	.LBE16-.LBB16
 2901 10e9 03       		.byte	0x3
 2902 10ea 3F03     		.2byte	0x33f
 2903 10ec 29       		.uleb128 0x29
 2904 10ed 0F110000 		.4byte	0x110f
 2905 10f1 02       		.uleb128 0x2
 2906 10f2 91       		.byte	0x91
 2907 10f3 74       		.sleb128 -12
ARM GAS  C:\Users\DEVELO~1\AppData\Local\Temp\ccHwwtpW.s 			page 52


 2908 10f4 00       		.byte	0
 2909 10f5 00       		.byte	0
 2910 10f6 00       		.byte	0
 2911 10f7 2A       		.uleb128 0x2a
 2912 10f8 2D020000 		.4byte	.LASF191
 2913 10fc 4F03     		.2byte	0x34f
 2914 10fe 2A       		.uleb128 0x2a
 2915 10ff 92080000 		.4byte	.LASF192
 2916 1103 3703     		.2byte	0x337
 2917 1105 35       		.uleb128 0x35
 2918 1106 BA040000 		.4byte	.LASF198
 2919 110a 02       		.byte	0x2
 2920 110b EB01     		.2byte	0x1eb
 2921 110d 1B       		.byte	0x1b
 2922 110e 03       		.byte	0x3
 2923 110f 36       		.uleb128 0x36
 2924 1110 9A010000 		.4byte	.LASF199
 2925 1114 02       		.byte	0x2
 2926 1115 EB01     		.2byte	0x1eb
 2927 1117 32       		.byte	0x32
 2928 1118 E4000000 		.4byte	0xe4
 2929 111c 00       		.byte	0
 2930 111d 00       		.byte	0
 2931              		.section	.debug_abbrev,"",%progbits
 2932              	.Ldebug_abbrev0:
 2933 0000 01       		.uleb128 0x1
 2934 0001 0D       		.uleb128 0xd
 2935 0002 00       		.byte	0
 2936 0003 03       		.uleb128 0x3
 2937 0004 0E       		.uleb128 0xe
 2938 0005 3A       		.uleb128 0x3a
 2939 0006 0B       		.uleb128 0xb
 2940 0007 3B       		.uleb128 0x3b
 2941 0008 05       		.uleb128 0x5
 2942 0009 39       		.uleb128 0x39
 2943 000a 0B       		.uleb128 0xb
 2944 000b 49       		.uleb128 0x49
 2945 000c 13       		.uleb128 0x13
 2946 000d 38       		.uleb128 0x38
 2947 000e 0B       		.uleb128 0xb
 2948 000f 00       		.byte	0
 2949 0010 00       		.byte	0
 2950 0011 02       		.uleb128 0x2
 2951 0012 16       		.uleb128 0x16
 2952 0013 00       		.byte	0
 2953 0014 03       		.uleb128 0x3
 2954 0015 0E       		.uleb128 0xe
 2955 0016 3A       		.uleb128 0x3a
 2956 0017 0B       		.uleb128 0xb
 2957 0018 3B       		.uleb128 0x3b
 2958 0019 0B       		.uleb128 0xb
 2959 001a 39       		.uleb128 0x39
 2960 001b 0B       		.uleb128 0xb
 2961 001c 49       		.uleb128 0x49
 2962 001d 13       		.uleb128 0x13
 2963 001e 00       		.byte	0
 2964 001f 00       		.byte	0
ARM GAS  C:\Users\DEVELO~1\AppData\Local\Temp\ccHwwtpW.s 			page 53


 2965 0020 03       		.uleb128 0x3
 2966 0021 0D       		.uleb128 0xd
 2967 0022 00       		.byte	0
 2968 0023 03       		.uleb128 0x3
 2969 0024 0E       		.uleb128 0xe
 2970 0025 3A       		.uleb128 0x3a
 2971 0026 0B       		.uleb128 0xb
 2972 0027 3B       		.uleb128 0x3b
 2973 0028 0B       		.uleb128 0xb
 2974 0029 39       		.uleb128 0x39
 2975 002a 0B       		.uleb128 0xb
 2976 002b 49       		.uleb128 0x49
 2977 002c 13       		.uleb128 0x13
 2978 002d 38       		.uleb128 0x38
 2979 002e 0B       		.uleb128 0xb
 2980 002f 00       		.byte	0
 2981 0030 00       		.byte	0
 2982 0031 04       		.uleb128 0x4
 2983 0032 0D       		.uleb128 0xd
 2984 0033 00       		.byte	0
 2985 0034 03       		.uleb128 0x3
 2986 0035 08       		.uleb128 0x8
 2987 0036 3A       		.uleb128 0x3a
 2988 0037 0B       		.uleb128 0xb
 2989 0038 3B       		.uleb128 0x3b
 2990 0039 05       		.uleb128 0x5
 2991 003a 39       		.uleb128 0x39
 2992 003b 0B       		.uleb128 0xb
 2993 003c 49       		.uleb128 0x49
 2994 003d 13       		.uleb128 0x13
 2995 003e 38       		.uleb128 0x38
 2996 003f 0B       		.uleb128 0xb
 2997 0040 00       		.byte	0
 2998 0041 00       		.byte	0
 2999 0042 05       		.uleb128 0x5
 3000 0043 0F       		.uleb128 0xf
 3001 0044 00       		.byte	0
 3002 0045 0B       		.uleb128 0xb
 3003 0046 21       		.uleb128 0x21
 3004 0047 04       		.sleb128 4
 3005 0048 49       		.uleb128 0x49
 3006 0049 13       		.uleb128 0x13
 3007 004a 00       		.byte	0
 3008 004b 00       		.byte	0
 3009 004c 06       		.uleb128 0x6
 3010 004d 05       		.uleb128 0x5
 3011 004e 00       		.byte	0
 3012 004f 49       		.uleb128 0x49
 3013 0050 13       		.uleb128 0x13
 3014 0051 00       		.byte	0
 3015 0052 00       		.byte	0
 3016 0053 07       		.uleb128 0x7
 3017 0054 05       		.uleb128 0x5
 3018 0055 00       		.byte	0
 3019 0056 03       		.uleb128 0x3
 3020 0057 0E       		.uleb128 0xe
 3021 0058 3A       		.uleb128 0x3a
ARM GAS  C:\Users\DEVELO~1\AppData\Local\Temp\ccHwwtpW.s 			page 54


 3022 0059 21       		.uleb128 0x21
 3023 005a 05       		.sleb128 5
 3024 005b 3B       		.uleb128 0x3b
 3025 005c 0B       		.uleb128 0xb
 3026 005d 39       		.uleb128 0x39
 3027 005e 0B       		.uleb128 0xb
 3028 005f 49       		.uleb128 0x49
 3029 0060 13       		.uleb128 0x13
 3030 0061 02       		.uleb128 0x2
 3031 0062 18       		.uleb128 0x18
 3032 0063 00       		.byte	0
 3033 0064 00       		.byte	0
 3034 0065 08       		.uleb128 0x8
 3035 0066 24       		.uleb128 0x24
 3036 0067 00       		.byte	0
 3037 0068 0B       		.uleb128 0xb
 3038 0069 0B       		.uleb128 0xb
 3039 006a 3E       		.uleb128 0x3e
 3040 006b 0B       		.uleb128 0xb
 3041 006c 03       		.uleb128 0x3
 3042 006d 0E       		.uleb128 0xe
 3043 006e 00       		.byte	0
 3044 006f 00       		.byte	0
 3045 0070 09       		.uleb128 0x9
 3046 0071 26       		.uleb128 0x26
 3047 0072 00       		.byte	0
 3048 0073 49       		.uleb128 0x49
 3049 0074 13       		.uleb128 0x13
 3050 0075 00       		.byte	0
 3051 0076 00       		.byte	0
 3052 0077 0A       		.uleb128 0xa
 3053 0078 13       		.uleb128 0x13
 3054 0079 01       		.byte	0x1
 3055 007a 03       		.uleb128 0x3
 3056 007b 0E       		.uleb128 0xe
 3057 007c 0B       		.uleb128 0xb
 3058 007d 0B       		.uleb128 0xb
 3059 007e 3A       		.uleb128 0x3a
 3060 007f 0B       		.uleb128 0xb
 3061 0080 3B       		.uleb128 0x3b
 3062 0081 0B       		.uleb128 0xb
 3063 0082 39       		.uleb128 0x39
 3064 0083 0B       		.uleb128 0xb
 3065 0084 01       		.uleb128 0x1
 3066 0085 13       		.uleb128 0x13
 3067 0086 00       		.byte	0
 3068 0087 00       		.byte	0
 3069 0088 0B       		.uleb128 0xb
 3070 0089 0D       		.uleb128 0xd
 3071 008a 00       		.byte	0
 3072 008b 03       		.uleb128 0x3
 3073 008c 08       		.uleb128 0x8
 3074 008d 3A       		.uleb128 0x3a
 3075 008e 0B       		.uleb128 0xb
 3076 008f 3B       		.uleb128 0x3b
 3077 0090 0B       		.uleb128 0xb
 3078 0091 39       		.uleb128 0x39
ARM GAS  C:\Users\DEVELO~1\AppData\Local\Temp\ccHwwtpW.s 			page 55


 3079 0092 0B       		.uleb128 0xb
 3080 0093 49       		.uleb128 0x49
 3081 0094 13       		.uleb128 0x13
 3082 0095 38       		.uleb128 0x38
 3083 0096 0B       		.uleb128 0xb
 3084 0097 00       		.byte	0
 3085 0098 00       		.byte	0
 3086 0099 0C       		.uleb128 0xc
 3087 009a 16       		.uleb128 0x16
 3088 009b 00       		.byte	0
 3089 009c 03       		.uleb128 0x3
 3090 009d 0E       		.uleb128 0xe
 3091 009e 3A       		.uleb128 0x3a
 3092 009f 0B       		.uleb128 0xb
 3093 00a0 3B       		.uleb128 0x3b
 3094 00a1 05       		.uleb128 0x5
 3095 00a2 39       		.uleb128 0x39
 3096 00a3 0B       		.uleb128 0xb
 3097 00a4 49       		.uleb128 0x49
 3098 00a5 13       		.uleb128 0x13
 3099 00a6 00       		.byte	0
 3100 00a7 00       		.byte	0
 3101 00a8 0D       		.uleb128 0xd
 3102 00a9 01       		.uleb128 0x1
 3103 00aa 01       		.byte	0x1
 3104 00ab 49       		.uleb128 0x49
 3105 00ac 13       		.uleb128 0x13
 3106 00ad 01       		.uleb128 0x1
 3107 00ae 13       		.uleb128 0x13
 3108 00af 00       		.byte	0
 3109 00b0 00       		.byte	0
 3110 00b1 0E       		.uleb128 0xe
 3111 00b2 21       		.uleb128 0x21
 3112 00b3 00       		.byte	0
 3113 00b4 49       		.uleb128 0x49
 3114 00b5 13       		.uleb128 0x13
 3115 00b6 2F       		.uleb128 0x2f
 3116 00b7 0B       		.uleb128 0xb
 3117 00b8 00       		.byte	0
 3118 00b9 00       		.byte	0
 3119 00ba 0F       		.uleb128 0xf
 3120 00bb 34       		.uleb128 0x34
 3121 00bc 00       		.byte	0
 3122 00bd 03       		.uleb128 0x3
 3123 00be 0E       		.uleb128 0xe
 3124 00bf 49       		.uleb128 0x49
 3125 00c0 13       		.uleb128 0x13
 3126 00c1 34       		.uleb128 0x34
 3127 00c2 19       		.uleb128 0x19
 3128 00c3 00       		.byte	0
 3129 00c4 00       		.byte	0
 3130 00c5 10       		.uleb128 0x10
 3131 00c6 0D       		.uleb128 0xd
 3132 00c7 00       		.byte	0
 3133 00c8 03       		.uleb128 0x3
 3134 00c9 0E       		.uleb128 0xe
 3135 00ca 3A       		.uleb128 0x3a
ARM GAS  C:\Users\DEVELO~1\AppData\Local\Temp\ccHwwtpW.s 			page 56


 3136 00cb 0B       		.uleb128 0xb
 3137 00cc 3B       		.uleb128 0x3b
 3138 00cd 0B       		.uleb128 0xb
 3139 00ce 39       		.uleb128 0x39
 3140 00cf 0B       		.uleb128 0xb
 3141 00d0 49       		.uleb128 0x49
 3142 00d1 13       		.uleb128 0x13
 3143 00d2 00       		.byte	0
 3144 00d3 00       		.byte	0
 3145 00d4 11       		.uleb128 0x11
 3146 00d5 13       		.uleb128 0x13
 3147 00d6 01       		.byte	0x1
 3148 00d7 0B       		.uleb128 0xb
 3149 00d8 0B       		.uleb128 0xb
 3150 00d9 3A       		.uleb128 0x3a
 3151 00da 21       		.uleb128 0x21
 3152 00db 10       		.sleb128 16
 3153 00dc 3B       		.uleb128 0x3b
 3154 00dd 0B       		.uleb128 0xb
 3155 00de 39       		.uleb128 0x39
 3156 00df 0B       		.uleb128 0xb
 3157 00e0 01       		.uleb128 0x1
 3158 00e1 13       		.uleb128 0x13
 3159 00e2 00       		.byte	0
 3160 00e3 00       		.byte	0
 3161 00e4 12       		.uleb128 0x12
 3162 00e5 13       		.uleb128 0x13
 3163 00e6 01       		.byte	0x1
 3164 00e7 03       		.uleb128 0x3
 3165 00e8 0E       		.uleb128 0xe
 3166 00e9 0B       		.uleb128 0xb
 3167 00ea 0B       		.uleb128 0xb
 3168 00eb 3A       		.uleb128 0x3a
 3169 00ec 0B       		.uleb128 0xb
 3170 00ed 3B       		.uleb128 0x3b
 3171 00ee 05       		.uleb128 0x5
 3172 00ef 39       		.uleb128 0x39
 3173 00f0 0B       		.uleb128 0xb
 3174 00f1 01       		.uleb128 0x1
 3175 00f2 13       		.uleb128 0x13
 3176 00f3 00       		.byte	0
 3177 00f4 00       		.byte	0
 3178 00f5 13       		.uleb128 0x13
 3179 00f6 0D       		.uleb128 0xd
 3180 00f7 00       		.byte	0
 3181 00f8 03       		.uleb128 0x3
 3182 00f9 0E       		.uleb128 0xe
 3183 00fa 3A       		.uleb128 0x3a
 3184 00fb 21       		.uleb128 0x21
 3185 00fc 0B       		.sleb128 11
 3186 00fd 3B       		.uleb128 0x3b
 3187 00fe 05       		.uleb128 0x5
 3188 00ff 39       		.uleb128 0x39
 3189 0100 0B       		.uleb128 0xb
 3190 0101 49       		.uleb128 0x49
 3191 0102 13       		.uleb128 0x13
 3192 0103 00       		.byte	0
ARM GAS  C:\Users\DEVELO~1\AppData\Local\Temp\ccHwwtpW.s 			page 57


 3193 0104 00       		.byte	0
 3194 0105 14       		.uleb128 0x14
 3195 0106 28       		.uleb128 0x28
 3196 0107 00       		.byte	0
 3197 0108 03       		.uleb128 0x3
 3198 0109 0E       		.uleb128 0xe
 3199 010a 1C       		.uleb128 0x1c
 3200 010b 0B       		.uleb128 0xb
 3201 010c 00       		.byte	0
 3202 010d 00       		.byte	0
 3203 010e 15       		.uleb128 0x15
 3204 010f 13       		.uleb128 0x13
 3205 0110 01       		.byte	0x1
 3206 0111 0B       		.uleb128 0xb
 3207 0112 0B       		.uleb128 0xb
 3208 0113 3A       		.uleb128 0x3a
 3209 0114 0B       		.uleb128 0xb
 3210 0115 3B       		.uleb128 0x3b
 3211 0116 05       		.uleb128 0x5
 3212 0117 39       		.uleb128 0x39
 3213 0118 21       		.uleb128 0x21
 3214 0119 09       		.sleb128 9
 3215 011a 01       		.uleb128 0x1
 3216 011b 13       		.uleb128 0x13
 3217 011c 00       		.byte	0
 3218 011d 00       		.byte	0
 3219 011e 16       		.uleb128 0x16
 3220 011f 1D       		.uleb128 0x1d
 3221 0120 01       		.byte	0x1
 3222 0121 31       		.uleb128 0x31
 3223 0122 13       		.uleb128 0x13
 3224 0123 11       		.uleb128 0x11
 3225 0124 01       		.uleb128 0x1
 3226 0125 12       		.uleb128 0x12
 3227 0126 06       		.uleb128 0x6
 3228 0127 58       		.uleb128 0x58
 3229 0128 0B       		.uleb128 0xb
 3230 0129 59       		.uleb128 0x59
 3231 012a 05       		.uleb128 0x5
 3232 012b 57       		.uleb128 0x57
 3233 012c 21       		.uleb128 0x21
 3234 012d 03       		.sleb128 3
 3235 012e 00       		.byte	0
 3236 012f 00       		.byte	0
 3237 0130 17       		.uleb128 0x17
 3238 0131 35       		.uleb128 0x35
 3239 0132 00       		.byte	0
 3240 0133 49       		.uleb128 0x49
 3241 0134 13       		.uleb128 0x13
 3242 0135 00       		.byte	0
 3243 0136 00       		.byte	0
 3244 0137 18       		.uleb128 0x18
 3245 0138 17       		.uleb128 0x17
 3246 0139 01       		.byte	0x1
 3247 013a 0B       		.uleb128 0xb
 3248 013b 0B       		.uleb128 0xb
 3249 013c 3A       		.uleb128 0x3a
ARM GAS  C:\Users\DEVELO~1\AppData\Local\Temp\ccHwwtpW.s 			page 58


 3250 013d 0B       		.uleb128 0xb
 3251 013e 3B       		.uleb128 0x3b
 3252 013f 0B       		.uleb128 0xb
 3253 0140 39       		.uleb128 0x39
 3254 0141 21       		.uleb128 0x21
 3255 0142 03       		.sleb128 3
 3256 0143 01       		.uleb128 0x1
 3257 0144 13       		.uleb128 0x13
 3258 0145 00       		.byte	0
 3259 0146 00       		.byte	0
 3260 0147 19       		.uleb128 0x19
 3261 0148 0D       		.uleb128 0xd
 3262 0149 00       		.byte	0
 3263 014a 03       		.uleb128 0x3
 3264 014b 08       		.uleb128 0x8
 3265 014c 3A       		.uleb128 0x3a
 3266 014d 21       		.uleb128 0x21
 3267 014e 10       		.sleb128 16
 3268 014f 3B       		.uleb128 0x3b
 3269 0150 0B       		.uleb128 0xb
 3270 0151 39       		.uleb128 0x39
 3271 0152 21       		.uleb128 0x21
 3272 0153 07       		.sleb128 7
 3273 0154 49       		.uleb128 0x49
 3274 0155 13       		.uleb128 0x13
 3275 0156 00       		.byte	0
 3276 0157 00       		.byte	0
 3277 0158 1A       		.uleb128 0x1a
 3278 0159 0D       		.uleb128 0xd
 3279 015a 00       		.byte	0
 3280 015b 03       		.uleb128 0x3
 3281 015c 0E       		.uleb128 0xe
 3282 015d 3A       		.uleb128 0x3a
 3283 015e 21       		.uleb128 0x21
 3284 015f 10       		.sleb128 16
 3285 0160 3B       		.uleb128 0x3b
 3286 0161 0B       		.uleb128 0xb
 3287 0162 39       		.uleb128 0x39
 3288 0163 21       		.uleb128 0x21
 3289 0164 19       		.sleb128 25
 3290 0165 49       		.uleb128 0x49
 3291 0166 13       		.uleb128 0x13
 3292 0167 0D       		.uleb128 0xd
 3293 0168 0B       		.uleb128 0xb
 3294 0169 6B       		.uleb128 0x6b
 3295 016a 0B       		.uleb128 0xb
 3296 016b 00       		.byte	0
 3297 016c 00       		.byte	0
 3298 016d 1B       		.uleb128 0x1b
 3299 016e 2E       		.uleb128 0x2e
 3300 016f 01       		.byte	0x1
 3301 0170 3F       		.uleb128 0x3f
 3302 0171 19       		.uleb128 0x19
 3303 0172 03       		.uleb128 0x3
 3304 0173 0E       		.uleb128 0xe
 3305 0174 3A       		.uleb128 0x3a
 3306 0175 21       		.uleb128 0x21
ARM GAS  C:\Users\DEVELO~1\AppData\Local\Temp\ccHwwtpW.s 			page 59


 3307 0176 13       		.sleb128 19
 3308 0177 3B       		.uleb128 0x3b
 3309 0178 0B       		.uleb128 0xb
 3310 0179 39       		.uleb128 0x39
 3311 017a 21       		.uleb128 0x21
 3312 017b 08       		.sleb128 8
 3313 017c 27       		.uleb128 0x27
 3314 017d 19       		.uleb128 0x19
 3315 017e 3C       		.uleb128 0x3c
 3316 017f 19       		.uleb128 0x19
 3317 0180 01       		.uleb128 0x1
 3318 0181 13       		.uleb128 0x13
 3319 0182 00       		.byte	0
 3320 0183 00       		.byte	0
 3321 0184 1C       		.uleb128 0x1c
 3322 0185 2E       		.uleb128 0x2e
 3323 0186 01       		.byte	0x1
 3324 0187 3F       		.uleb128 0x3f
 3325 0188 19       		.uleb128 0x19
 3326 0189 03       		.uleb128 0x3
 3327 018a 0E       		.uleb128 0xe
 3328 018b 3A       		.uleb128 0x3a
 3329 018c 21       		.uleb128 0x21
 3330 018d 05       		.sleb128 5
 3331 018e 3B       		.uleb128 0x3b
 3332 018f 0B       		.uleb128 0xb
 3333 0190 39       		.uleb128 0x39
 3334 0191 21       		.uleb128 0x21
 3335 0192 07       		.sleb128 7
 3336 0193 27       		.uleb128 0x27
 3337 0194 19       		.uleb128 0x19
 3338 0195 49       		.uleb128 0x49
 3339 0196 13       		.uleb128 0x13
 3340 0197 11       		.uleb128 0x11
 3341 0198 01       		.uleb128 0x1
 3342 0199 12       		.uleb128 0x12
 3343 019a 06       		.uleb128 0x6
 3344 019b 40       		.uleb128 0x40
 3345 019c 18       		.uleb128 0x18
 3346 019d 7C       		.uleb128 0x7c
 3347 019e 19       		.uleb128 0x19
 3348 019f 01       		.uleb128 0x1
 3349 01a0 13       		.uleb128 0x13
 3350 01a1 00       		.byte	0
 3351 01a2 00       		.byte	0
 3352 01a3 1D       		.uleb128 0x1d
 3353 01a4 2E       		.uleb128 0x2e
 3354 01a5 01       		.byte	0x1
 3355 01a6 03       		.uleb128 0x3
 3356 01a7 0E       		.uleb128 0xe
 3357 01a8 3A       		.uleb128 0x3a
 3358 01a9 21       		.uleb128 0x21
 3359 01aa 04       		.sleb128 4
 3360 01ab 3B       		.uleb128 0x3b
 3361 01ac 05       		.uleb128 0x5
 3362 01ad 39       		.uleb128 0x39
 3363 01ae 21       		.uleb128 0x21
ARM GAS  C:\Users\DEVELO~1\AppData\Local\Temp\ccHwwtpW.s 			page 60


 3364 01af 14       		.sleb128 20
 3365 01b0 27       		.uleb128 0x27
 3366 01b1 19       		.uleb128 0x19
 3367 01b2 11       		.uleb128 0x11
 3368 01b3 01       		.uleb128 0x1
 3369 01b4 12       		.uleb128 0x12
 3370 01b5 06       		.uleb128 0x6
 3371 01b6 40       		.uleb128 0x40
 3372 01b7 18       		.uleb128 0x18
 3373 01b8 7C       		.uleb128 0x7c
 3374 01b9 19       		.uleb128 0x19
 3375 01ba 01       		.uleb128 0x1
 3376 01bb 13       		.uleb128 0x13
 3377 01bc 00       		.byte	0
 3378 01bd 00       		.byte	0
 3379 01be 1E       		.uleb128 0x1e
 3380 01bf 05       		.uleb128 0x5
 3381 01c0 00       		.byte	0
 3382 01c1 03       		.uleb128 0x3
 3383 01c2 08       		.uleb128 0x8
 3384 01c3 3A       		.uleb128 0x3a
 3385 01c4 21       		.uleb128 0x21
 3386 01c5 04       		.sleb128 4
 3387 01c6 3B       		.uleb128 0x3b
 3388 01c7 05       		.uleb128 0x5
 3389 01c8 39       		.uleb128 0x39
 3390 01c9 0B       		.uleb128 0xb
 3391 01ca 49       		.uleb128 0x49
 3392 01cb 13       		.uleb128 0x13
 3393 01cc 02       		.uleb128 0x2
 3394 01cd 18       		.uleb128 0x18
 3395 01ce 00       		.byte	0
 3396 01cf 00       		.byte	0
 3397 01d0 1F       		.uleb128 0x1f
 3398 01d1 17       		.uleb128 0x17
 3399 01d2 01       		.byte	0x1
 3400 01d3 0B       		.uleb128 0xb
 3401 01d4 21       		.uleb128 0x21
 3402 01d5 04       		.sleb128 4
 3403 01d6 3A       		.uleb128 0x3a
 3404 01d7 21       		.uleb128 0x21
 3405 01d8 16       		.sleb128 22
 3406 01d9 3B       		.uleb128 0x3b
 3407 01da 05       		.uleb128 0x5
 3408 01db 39       		.uleb128 0x39
 3409 01dc 21       		.uleb128 0x21
 3410 01dd 03       		.sleb128 3
 3411 01de 01       		.uleb128 0x1
 3412 01df 13       		.uleb128 0x13
 3413 01e0 00       		.byte	0
 3414 01e1 00       		.byte	0
 3415 01e2 20       		.uleb128 0x20
 3416 01e3 0D       		.uleb128 0xd
 3417 01e4 00       		.byte	0
 3418 01e5 03       		.uleb128 0x3
 3419 01e6 08       		.uleb128 0x8
 3420 01e7 3A       		.uleb128 0x3a
ARM GAS  C:\Users\DEVELO~1\AppData\Local\Temp\ccHwwtpW.s 			page 61


 3421 01e8 21       		.uleb128 0x21
 3422 01e9 16       		.sleb128 22
 3423 01ea 3B       		.uleb128 0x3b
 3424 01eb 05       		.uleb128 0x5
 3425 01ec 39       		.uleb128 0x39
 3426 01ed 21       		.uleb128 0x21
 3427 01ee 20       		.sleb128 32
 3428 01ef 49       		.uleb128 0x49
 3429 01f0 13       		.uleb128 0x13
 3430 01f1 00       		.byte	0
 3431 01f2 00       		.byte	0
 3432 01f3 21       		.uleb128 0x21
 3433 01f4 2E       		.uleb128 0x2e
 3434 01f5 01       		.byte	0x1
 3435 01f6 3F       		.uleb128 0x3f
 3436 01f7 19       		.uleb128 0x19
 3437 01f8 03       		.uleb128 0x3
 3438 01f9 0E       		.uleb128 0xe
 3439 01fa 3A       		.uleb128 0x3a
 3440 01fb 21       		.uleb128 0x21
 3441 01fc 16       		.sleb128 22
 3442 01fd 3B       		.uleb128 0x3b
 3443 01fe 05       		.uleb128 0x5
 3444 01ff 39       		.uleb128 0x39
 3445 0200 21       		.uleb128 0x21
 3446 0201 09       		.sleb128 9
 3447 0202 27       		.uleb128 0x27
 3448 0203 19       		.uleb128 0x19
 3449 0204 49       		.uleb128 0x49
 3450 0205 13       		.uleb128 0x13
 3451 0206 3C       		.uleb128 0x3c
 3452 0207 19       		.uleb128 0x19
 3453 0208 01       		.uleb128 0x1
 3454 0209 13       		.uleb128 0x13
 3455 020a 00       		.byte	0
 3456 020b 00       		.byte	0
 3457 020c 22       		.uleb128 0x22
 3458 020d 2E       		.uleb128 0x2e
 3459 020e 01       		.byte	0x1
 3460 020f 3F       		.uleb128 0x3f
 3461 0210 19       		.uleb128 0x19
 3462 0211 03       		.uleb128 0x3
 3463 0212 0E       		.uleb128 0xe
 3464 0213 3A       		.uleb128 0x3a
 3465 0214 21       		.uleb128 0x21
 3466 0215 16       		.sleb128 22
 3467 0216 3B       		.uleb128 0x3b
 3468 0217 05       		.uleb128 0x5
 3469 0218 39       		.uleb128 0x39
 3470 0219 21       		.uleb128 0x21
 3471 021a 08       		.sleb128 8
 3472 021b 27       		.uleb128 0x27
 3473 021c 19       		.uleb128 0x19
 3474 021d 3C       		.uleb128 0x3c
 3475 021e 19       		.uleb128 0x19
 3476 021f 01       		.uleb128 0x1
 3477 0220 13       		.uleb128 0x13
ARM GAS  C:\Users\DEVELO~1\AppData\Local\Temp\ccHwwtpW.s 			page 62


 3478 0221 00       		.byte	0
 3479 0222 00       		.byte	0
 3480 0223 23       		.uleb128 0x23
 3481 0224 2E       		.uleb128 0x2e
 3482 0225 01       		.byte	0x1
 3483 0226 3F       		.uleb128 0x3f
 3484 0227 19       		.uleb128 0x19
 3485 0228 03       		.uleb128 0x3
 3486 0229 0E       		.uleb128 0xe
 3487 022a 3A       		.uleb128 0x3a
 3488 022b 21       		.uleb128 0x21
 3489 022c 05       		.sleb128 5
 3490 022d 3B       		.uleb128 0x3b
 3491 022e 05       		.uleb128 0x5
 3492 022f 39       		.uleb128 0x39
 3493 0230 21       		.uleb128 0x21
 3494 0231 06       		.sleb128 6
 3495 0232 27       		.uleb128 0x27
 3496 0233 19       		.uleb128 0x19
 3497 0234 11       		.uleb128 0x11
 3498 0235 01       		.uleb128 0x1
 3499 0236 12       		.uleb128 0x12
 3500 0237 06       		.uleb128 0x6
 3501 0238 40       		.uleb128 0x40
 3502 0239 18       		.uleb128 0x18
 3503 023a 7C       		.uleb128 0x7c
 3504 023b 19       		.uleb128 0x19
 3505 023c 01       		.uleb128 0x1
 3506 023d 13       		.uleb128 0x13
 3507 023e 00       		.byte	0
 3508 023f 00       		.byte	0
 3509 0240 24       		.uleb128 0x24
 3510 0241 05       		.uleb128 0x5
 3511 0242 00       		.byte	0
 3512 0243 03       		.uleb128 0x3
 3513 0244 0E       		.uleb128 0xe
 3514 0245 3A       		.uleb128 0x3a
 3515 0246 21       		.uleb128 0x21
 3516 0247 05       		.sleb128 5
 3517 0248 3B       		.uleb128 0x3b
 3518 0249 05       		.uleb128 0x5
 3519 024a 39       		.uleb128 0x39
 3520 024b 21       		.uleb128 0x21
 3521 024c 1F       		.sleb128 31
 3522 024d 49       		.uleb128 0x49
 3523 024e 13       		.uleb128 0x13
 3524 024f 02       		.uleb128 0x2
 3525 0250 18       		.uleb128 0x18
 3526 0251 00       		.byte	0
 3527 0252 00       		.byte	0
 3528 0253 25       		.uleb128 0x25
 3529 0254 34       		.uleb128 0x34
 3530 0255 00       		.byte	0
 3531 0256 03       		.uleb128 0x3
 3532 0257 0E       		.uleb128 0xe
 3533 0258 3A       		.uleb128 0x3a
 3534 0259 21       		.uleb128 0x21
ARM GAS  C:\Users\DEVELO~1\AppData\Local\Temp\ccHwwtpW.s 			page 63


 3535 025a 05       		.sleb128 5
 3536 025b 3B       		.uleb128 0x3b
 3537 025c 0B       		.uleb128 0xb
 3538 025d 39       		.uleb128 0x39
 3539 025e 21       		.uleb128 0x21
 3540 025f 09       		.sleb128 9
 3541 0260 49       		.uleb128 0x49
 3542 0261 13       		.uleb128 0x13
 3543 0262 02       		.uleb128 0x2
 3544 0263 18       		.uleb128 0x18
 3545 0264 00       		.byte	0
 3546 0265 00       		.byte	0
 3547 0266 26       		.uleb128 0x26
 3548 0267 2E       		.uleb128 0x2e
 3549 0268 01       		.byte	0x1
 3550 0269 3F       		.uleb128 0x3f
 3551 026a 19       		.uleb128 0x19
 3552 026b 03       		.uleb128 0x3
 3553 026c 0E       		.uleb128 0xe
 3554 026d 3A       		.uleb128 0x3a
 3555 026e 21       		.uleb128 0x21
 3556 026f 05       		.sleb128 5
 3557 0270 3B       		.uleb128 0x3b
 3558 0271 0B       		.uleb128 0xb
 3559 0272 39       		.uleb128 0x39
 3560 0273 21       		.uleb128 0x21
 3561 0274 06       		.sleb128 6
 3562 0275 27       		.uleb128 0x27
 3563 0276 19       		.uleb128 0x19
 3564 0277 11       		.uleb128 0x11
 3565 0278 01       		.uleb128 0x1
 3566 0279 12       		.uleb128 0x12
 3567 027a 06       		.uleb128 0x6
 3568 027b 40       		.uleb128 0x40
 3569 027c 18       		.uleb128 0x18
 3570 027d 7C       		.uleb128 0x7c
 3571 027e 19       		.uleb128 0x19
 3572 027f 01       		.uleb128 0x1
 3573 0280 13       		.uleb128 0x13
 3574 0281 00       		.byte	0
 3575 0282 00       		.byte	0
 3576 0283 27       		.uleb128 0x27
 3577 0284 2E       		.uleb128 0x2e
 3578 0285 00       		.byte	0
 3579 0286 03       		.uleb128 0x3
 3580 0287 0E       		.uleb128 0xe
 3581 0288 3A       		.uleb128 0x3a
 3582 0289 21       		.uleb128 0x21
 3583 028a 04       		.sleb128 4
 3584 028b 3B       		.uleb128 0x3b
 3585 028c 05       		.uleb128 0x5
 3586 028d 39       		.uleb128 0x39
 3587 028e 21       		.uleb128 0x21
 3588 028f 14       		.sleb128 20
 3589 0290 27       		.uleb128 0x27
 3590 0291 19       		.uleb128 0x19
 3591 0292 11       		.uleb128 0x11
ARM GAS  C:\Users\DEVELO~1\AppData\Local\Temp\ccHwwtpW.s 			page 64


 3592 0293 01       		.uleb128 0x1
 3593 0294 12       		.uleb128 0x12
 3594 0295 06       		.uleb128 0x6
 3595 0296 40       		.uleb128 0x40
 3596 0297 18       		.uleb128 0x18
 3597 0298 7C       		.uleb128 0x7c
 3598 0299 19       		.uleb128 0x19
 3599 029a 00       		.byte	0
 3600 029b 00       		.byte	0
 3601 029c 28       		.uleb128 0x28
 3602 029d 2E       		.uleb128 0x2e
 3603 029e 01       		.byte	0x1
 3604 029f 03       		.uleb128 0x3
 3605 02a0 0E       		.uleb128 0xe
 3606 02a1 3A       		.uleb128 0x3a
 3607 02a2 21       		.uleb128 0x21
 3608 02a3 01       		.sleb128 1
 3609 02a4 3B       		.uleb128 0x3b
 3610 02a5 05       		.uleb128 0x5
 3611 02a6 39       		.uleb128 0x39
 3612 02a7 21       		.uleb128 0x21
 3613 02a8 14       		.sleb128 20
 3614 02a9 27       		.uleb128 0x27
 3615 02aa 19       		.uleb128 0x19
 3616 02ab 11       		.uleb128 0x11
 3617 02ac 01       		.uleb128 0x1
 3618 02ad 12       		.uleb128 0x12
 3619 02ae 06       		.uleb128 0x6
 3620 02af 40       		.uleb128 0x40
 3621 02b0 18       		.uleb128 0x18
 3622 02b1 7A       		.uleb128 0x7a
 3623 02b2 19       		.uleb128 0x19
 3624 02b3 01       		.uleb128 0x1
 3625 02b4 13       		.uleb128 0x13
 3626 02b5 00       		.byte	0
 3627 02b6 00       		.byte	0
 3628 02b7 29       		.uleb128 0x29
 3629 02b8 05       		.uleb128 0x5
 3630 02b9 00       		.byte	0
 3631 02ba 31       		.uleb128 0x31
 3632 02bb 13       		.uleb128 0x13
 3633 02bc 02       		.uleb128 0x2
 3634 02bd 18       		.uleb128 0x18
 3635 02be 00       		.byte	0
 3636 02bf 00       		.byte	0
 3637 02c0 2A       		.uleb128 0x2a
 3638 02c1 2E       		.uleb128 0x2e
 3639 02c2 00       		.byte	0
 3640 02c3 03       		.uleb128 0x3
 3641 02c4 0E       		.uleb128 0xe
 3642 02c5 3A       		.uleb128 0x3a
 3643 02c6 21       		.uleb128 0x21
 3644 02c7 03       		.sleb128 3
 3645 02c8 3B       		.uleb128 0x3b
 3646 02c9 05       		.uleb128 0x5
 3647 02ca 39       		.uleb128 0x39
 3648 02cb 21       		.uleb128 0x21
ARM GAS  C:\Users\DEVELO~1\AppData\Local\Temp\ccHwwtpW.s 			page 65


 3649 02cc 1B       		.sleb128 27
 3650 02cd 27       		.uleb128 0x27
 3651 02ce 19       		.uleb128 0x19
 3652 02cf 20       		.uleb128 0x20
 3653 02d0 21       		.uleb128 0x21
 3654 02d1 03       		.sleb128 3
 3655 02d2 00       		.byte	0
 3656 02d3 00       		.byte	0
 3657 02d4 2B       		.uleb128 0x2b
 3658 02d5 11       		.uleb128 0x11
 3659 02d6 01       		.byte	0x1
 3660 02d7 25       		.uleb128 0x25
 3661 02d8 0E       		.uleb128 0xe
 3662 02d9 13       		.uleb128 0x13
 3663 02da 0B       		.uleb128 0xb
 3664 02db 03       		.uleb128 0x3
 3665 02dc 0E       		.uleb128 0xe
 3666 02dd 1B       		.uleb128 0x1b
 3667 02de 0E       		.uleb128 0xe
 3668 02df 55       		.uleb128 0x55
 3669 02e0 17       		.uleb128 0x17
 3670 02e1 11       		.uleb128 0x11
 3671 02e2 01       		.uleb128 0x1
 3672 02e3 10       		.uleb128 0x10
 3673 02e4 17       		.uleb128 0x17
 3674 02e5 00       		.byte	0
 3675 02e6 00       		.byte	0
 3676 02e7 2C       		.uleb128 0x2c
 3677 02e8 24       		.uleb128 0x24
 3678 02e9 00       		.byte	0
 3679 02ea 0B       		.uleb128 0xb
 3680 02eb 0B       		.uleb128 0xb
 3681 02ec 3E       		.uleb128 0x3e
 3682 02ed 0B       		.uleb128 0xb
 3683 02ee 03       		.uleb128 0x3
 3684 02ef 08       		.uleb128 0x8
 3685 02f0 00       		.byte	0
 3686 02f1 00       		.byte	0
 3687 02f2 2D       		.uleb128 0x2d
 3688 02f3 13       		.uleb128 0x13
 3689 02f4 01       		.byte	0x1
 3690 02f5 03       		.uleb128 0x3
 3691 02f6 0E       		.uleb128 0xe
 3692 02f7 0B       		.uleb128 0xb
 3693 02f8 05       		.uleb128 0x5
 3694 02f9 3A       		.uleb128 0x3a
 3695 02fa 0B       		.uleb128 0xb
 3696 02fb 3B       		.uleb128 0x3b
 3697 02fc 05       		.uleb128 0x5
 3698 02fd 39       		.uleb128 0x39
 3699 02fe 0B       		.uleb128 0xb
 3700 02ff 01       		.uleb128 0x1
 3701 0300 13       		.uleb128 0x13
 3702 0301 00       		.byte	0
 3703 0302 00       		.byte	0
 3704 0303 2E       		.uleb128 0x2e
 3705 0304 0F       		.uleb128 0xf
ARM GAS  C:\Users\DEVELO~1\AppData\Local\Temp\ccHwwtpW.s 			page 66


 3706 0305 00       		.byte	0
 3707 0306 0B       		.uleb128 0xb
 3708 0307 0B       		.uleb128 0xb
 3709 0308 00       		.byte	0
 3710 0309 00       		.byte	0
 3711 030a 2F       		.uleb128 0x2f
 3712 030b 13       		.uleb128 0x13
 3713 030c 01       		.byte	0x1
 3714 030d 0B       		.uleb128 0xb
 3715 030e 05       		.uleb128 0x5
 3716 030f 3A       		.uleb128 0x3a
 3717 0310 0B       		.uleb128 0xb
 3718 0311 3B       		.uleb128 0x3b
 3719 0312 0B       		.uleb128 0xb
 3720 0313 39       		.uleb128 0x39
 3721 0314 0B       		.uleb128 0xb
 3722 0315 01       		.uleb128 0x1
 3723 0316 13       		.uleb128 0x13
 3724 0317 00       		.byte	0
 3725 0318 00       		.byte	0
 3726 0319 30       		.uleb128 0x30
 3727 031a 04       		.uleb128 0x4
 3728 031b 01       		.byte	0x1
 3729 031c 3E       		.uleb128 0x3e
 3730 031d 0B       		.uleb128 0xb
 3731 031e 0B       		.uleb128 0xb
 3732 031f 0B       		.uleb128 0xb
 3733 0320 49       		.uleb128 0x49
 3734 0321 13       		.uleb128 0x13
 3735 0322 3A       		.uleb128 0x3a
 3736 0323 0B       		.uleb128 0xb
 3737 0324 3B       		.uleb128 0x3b
 3738 0325 0B       		.uleb128 0xb
 3739 0326 39       		.uleb128 0x39
 3740 0327 0B       		.uleb128 0xb
 3741 0328 01       		.uleb128 0x1
 3742 0329 13       		.uleb128 0x13
 3743 032a 00       		.byte	0
 3744 032b 00       		.byte	0
 3745 032c 31       		.uleb128 0x31
 3746 032d 2E       		.uleb128 0x2e
 3747 032e 00       		.byte	0
 3748 032f 3F       		.uleb128 0x3f
 3749 0330 19       		.uleb128 0x19
 3750 0331 03       		.uleb128 0x3
 3751 0332 0E       		.uleb128 0xe
 3752 0333 3A       		.uleb128 0x3a
 3753 0334 0B       		.uleb128 0xb
 3754 0335 3B       		.uleb128 0x3b
 3755 0336 05       		.uleb128 0x5
 3756 0337 39       		.uleb128 0x39
 3757 0338 0B       		.uleb128 0xb
 3758 0339 27       		.uleb128 0x27
 3759 033a 19       		.uleb128 0x19
 3760 033b 3C       		.uleb128 0x3c
 3761 033c 19       		.uleb128 0x19
 3762 033d 00       		.byte	0
ARM GAS  C:\Users\DEVELO~1\AppData\Local\Temp\ccHwwtpW.s 			page 67


 3763 033e 00       		.byte	0
 3764 033f 32       		.uleb128 0x32
 3765 0340 2E       		.uleb128 0x2e
 3766 0341 01       		.byte	0x1
 3767 0342 3F       		.uleb128 0x3f
 3768 0343 19       		.uleb128 0x19
 3769 0344 03       		.uleb128 0x3
 3770 0345 0E       		.uleb128 0xe
 3771 0346 3A       		.uleb128 0x3a
 3772 0347 0B       		.uleb128 0xb
 3773 0348 3B       		.uleb128 0x3b
 3774 0349 0B       		.uleb128 0xb
 3775 034a 39       		.uleb128 0x39
 3776 034b 0B       		.uleb128 0xb
 3777 034c 27       		.uleb128 0x27
 3778 034d 19       		.uleb128 0x19
 3779 034e 49       		.uleb128 0x49
 3780 034f 13       		.uleb128 0x13
 3781 0350 11       		.uleb128 0x11
 3782 0351 01       		.uleb128 0x1
 3783 0352 12       		.uleb128 0x12
 3784 0353 06       		.uleb128 0x6
 3785 0354 40       		.uleb128 0x40
 3786 0355 18       		.uleb128 0x18
 3787 0356 7A       		.uleb128 0x7a
 3788 0357 19       		.uleb128 0x19
 3789 0358 01       		.uleb128 0x1
 3790 0359 13       		.uleb128 0x13
 3791 035a 00       		.byte	0
 3792 035b 00       		.byte	0
 3793 035c 33       		.uleb128 0x33
 3794 035d 34       		.uleb128 0x34
 3795 035e 00       		.byte	0
 3796 035f 03       		.uleb128 0x3
 3797 0360 08       		.uleb128 0x8
 3798 0361 3A       		.uleb128 0x3a
 3799 0362 0B       		.uleb128 0xb
 3800 0363 3B       		.uleb128 0x3b
 3801 0364 0B       		.uleb128 0xb
 3802 0365 39       		.uleb128 0x39
 3803 0366 0B       		.uleb128 0xb
 3804 0367 49       		.uleb128 0x49
 3805 0368 13       		.uleb128 0x13
 3806 0369 02       		.uleb128 0x2
 3807 036a 18       		.uleb128 0x18
 3808 036b 00       		.byte	0
 3809 036c 00       		.byte	0
 3810 036d 34       		.uleb128 0x34
 3811 036e 2E       		.uleb128 0x2e
 3812 036f 00       		.byte	0
 3813 0370 3F       		.uleb128 0x3f
 3814 0371 19       		.uleb128 0x19
 3815 0372 03       		.uleb128 0x3
 3816 0373 0E       		.uleb128 0xe
 3817 0374 3A       		.uleb128 0x3a
 3818 0375 0B       		.uleb128 0xb
 3819 0376 3B       		.uleb128 0x3b
ARM GAS  C:\Users\DEVELO~1\AppData\Local\Temp\ccHwwtpW.s 			page 68


 3820 0377 0B       		.uleb128 0xb
 3821 0378 39       		.uleb128 0x39
 3822 0379 0B       		.uleb128 0xb
 3823 037a 27       		.uleb128 0x27
 3824 037b 19       		.uleb128 0x19
 3825 037c 11       		.uleb128 0x11
 3826 037d 01       		.uleb128 0x1
 3827 037e 12       		.uleb128 0x12
 3828 037f 06       		.uleb128 0x6
 3829 0380 40       		.uleb128 0x40
 3830 0381 18       		.uleb128 0x18
 3831 0382 7C       		.uleb128 0x7c
 3832 0383 19       		.uleb128 0x19
 3833 0384 00       		.byte	0
 3834 0385 00       		.byte	0
 3835 0386 35       		.uleb128 0x35
 3836 0387 2E       		.uleb128 0x2e
 3837 0388 01       		.byte	0x1
 3838 0389 03       		.uleb128 0x3
 3839 038a 0E       		.uleb128 0xe
 3840 038b 3A       		.uleb128 0x3a
 3841 038c 0B       		.uleb128 0xb
 3842 038d 3B       		.uleb128 0x3b
 3843 038e 05       		.uleb128 0x5
 3844 038f 39       		.uleb128 0x39
 3845 0390 0B       		.uleb128 0xb
 3846 0391 27       		.uleb128 0x27
 3847 0392 19       		.uleb128 0x19
 3848 0393 20       		.uleb128 0x20
 3849 0394 0B       		.uleb128 0xb
 3850 0395 00       		.byte	0
 3851 0396 00       		.byte	0
 3852 0397 36       		.uleb128 0x36
 3853 0398 05       		.uleb128 0x5
 3854 0399 00       		.byte	0
 3855 039a 03       		.uleb128 0x3
 3856 039b 0E       		.uleb128 0xe
 3857 039c 3A       		.uleb128 0x3a
 3858 039d 0B       		.uleb128 0xb
 3859 039e 3B       		.uleb128 0x3b
 3860 039f 05       		.uleb128 0x5
 3861 03a0 39       		.uleb128 0x39
 3862 03a1 0B       		.uleb128 0xb
 3863 03a2 49       		.uleb128 0x49
 3864 03a3 13       		.uleb128 0x13
 3865 03a4 00       		.byte	0
 3866 03a5 00       		.byte	0
 3867 03a6 00       		.byte	0
 3868              		.section	.debug_aranges,"",%progbits
 3869 0000 94000000 		.4byte	0x94
 3870 0004 0200     		.2byte	0x2
 3871 0006 00000000 		.4byte	.Ldebug_info0
 3872 000a 04       		.byte	0x4
 3873 000b 00       		.byte	0
 3874 000c 0000     		.2byte	0
 3875 000e 0000     		.2byte	0
 3876 0010 00000000 		.4byte	.LFB202
ARM GAS  C:\Users\DEVELO~1\AppData\Local\Temp\ccHwwtpW.s 			page 69


 3877 0014 1E000000 		.4byte	.LFE202-.LFB202
 3878 0018 00000000 		.4byte	.LFB203
 3879 001c 1E000000 		.4byte	.LFE203-.LFB203
 3880 0020 00000000 		.4byte	.LFB350
 3881 0024 0C000000 		.4byte	.LFE350-.LFB350
 3882 0028 00000000 		.4byte	.LFB351
 3883 002c 0C000000 		.4byte	.LFE351-.LFB351
 3884 0030 00000000 		.4byte	.LFB376
 3885 0034 16000000 		.4byte	.LFE376-.LFB376
 3886 0038 00000000 		.4byte	.LFB377
 3887 003c 16000000 		.4byte	.LFE377-.LFB377
 3888 0040 00000000 		.4byte	.LFB378
 3889 0044 16000000 		.4byte	.LFE378-.LFB378
 3890 0048 00000000 		.4byte	.LFB432
 3891 004c 0C000000 		.4byte	.LFE432-.LFB432
 3892 0050 00000000 		.4byte	.LFB433
 3893 0054 26000000 		.4byte	.LFE433-.LFB433
 3894 0058 00000000 		.4byte	.LFB434
 3895 005c 32000000 		.4byte	.LFE434-.LFB434
 3896 0060 00000000 		.4byte	.LFB435
 3897 0064 2A000000 		.4byte	.LFE435-.LFB435
 3898 0068 00000000 		.4byte	.LFB436
 3899 006c 16000000 		.4byte	.LFE436-.LFB436
 3900 0070 00000000 		.4byte	.LFB437
 3901 0074 5E000000 		.4byte	.LFE437-.LFB437
 3902 0078 00000000 		.4byte	.LFB438
 3903 007c 56000000 		.4byte	.LFE438-.LFB438
 3904 0080 00000000 		.4byte	.LFB439
 3905 0084 1A000000 		.4byte	.LFE439-.LFB439
 3906 0088 00000000 		.4byte	.LFB440
 3907 008c 1A000000 		.4byte	.LFE440-.LFB440
 3908 0090 00000000 		.4byte	0
 3909 0094 00000000 		.4byte	0
 3910              		.section	.debug_rnglists,"",%progbits
 3911              	.Ldebug_ranges0:
 3912 0000 69000000 		.4byte	.Ldebug_ranges3-.Ldebug_ranges2
 3913              	.Ldebug_ranges2:
 3914 0004 0500     		.2byte	0x5
 3915 0006 04       		.byte	0x4
 3916 0007 00       		.byte	0
 3917 0008 00000000 		.4byte	0
 3918              	.LLRL0:
 3919 000c 07       		.byte	0x7
 3920 000d 00000000 		.4byte	.LFB202
 3921 0011 1E       		.uleb128 .LFE202-.LFB202
 3922 0012 07       		.byte	0x7
 3923 0013 00000000 		.4byte	.LFB203
 3924 0017 1E       		.uleb128 .LFE203-.LFB203
 3925 0018 07       		.byte	0x7
 3926 0019 00000000 		.4byte	.LFB350
 3927 001d 0C       		.uleb128 .LFE350-.LFB350
 3928 001e 07       		.byte	0x7
 3929 001f 00000000 		.4byte	.LFB351
 3930 0023 0C       		.uleb128 .LFE351-.LFB351
 3931 0024 07       		.byte	0x7
 3932 0025 00000000 		.4byte	.LFB376
 3933 0029 16       		.uleb128 .LFE376-.LFB376
ARM GAS  C:\Users\DEVELO~1\AppData\Local\Temp\ccHwwtpW.s 			page 70


 3934 002a 07       		.byte	0x7
 3935 002b 00000000 		.4byte	.LFB377
 3936 002f 16       		.uleb128 .LFE377-.LFB377
 3937 0030 07       		.byte	0x7
 3938 0031 00000000 		.4byte	.LFB378
 3939 0035 16       		.uleb128 .LFE378-.LFB378
 3940 0036 07       		.byte	0x7
 3941 0037 00000000 		.4byte	.LFB432
 3942 003b 0C       		.uleb128 .LFE432-.LFB432
 3943 003c 07       		.byte	0x7
 3944 003d 00000000 		.4byte	.LFB433
 3945 0041 26       		.uleb128 .LFE433-.LFB433
 3946 0042 07       		.byte	0x7
 3947 0043 00000000 		.4byte	.LFB434
 3948 0047 32       		.uleb128 .LFE434-.LFB434
 3949 0048 07       		.byte	0x7
 3950 0049 00000000 		.4byte	.LFB435
 3951 004d 2A       		.uleb128 .LFE435-.LFB435
 3952 004e 07       		.byte	0x7
 3953 004f 00000000 		.4byte	.LFB436
 3954 0053 16       		.uleb128 .LFE436-.LFB436
 3955 0054 07       		.byte	0x7
 3956 0055 00000000 		.4byte	.LFB437
 3957 0059 5E       		.uleb128 .LFE437-.LFB437
 3958 005a 07       		.byte	0x7
 3959 005b 00000000 		.4byte	.LFB438
 3960 005f 56       		.uleb128 .LFE438-.LFB438
 3961 0060 07       		.byte	0x7
 3962 0061 00000000 		.4byte	.LFB439
 3963 0065 1A       		.uleb128 .LFE439-.LFB439
 3964 0066 07       		.byte	0x7
 3965 0067 00000000 		.4byte	.LFB440
 3966 006b 1A       		.uleb128 .LFE440-.LFB440
 3967 006c 00       		.byte	0
 3968              	.Ldebug_ranges3:
 3969              		.section	.debug_line,"",%progbits
 3970              	.Ldebug_line0:
 3971 0000 96050000 		.section	.debug_str,"MS",%progbits,1
 3971      03008303 
 3971      00000201 
 3971      FB0E0D00 
 3971      01010101 
 3972              	.LASF51:
 3973 0000 636F7265 		.ascii	"core_id\000"
 3973      5F696400 
 3974              	.LASF127:
 3975 0008 72656164 		.ascii	"ready_list_t\000"
 3975      795F6C69 
 3975      73745F74 
 3975      00
 3976              	.LASF91:
 3977 0015 4D304152 		.ascii	"M0AR\000"
 3977      00
 3978              	.LASF4:
 3979 001a 73697A65 		.ascii	"size_t\000"
 3979      5F7400
 3980              	.LASF152:
ARM GAS  C:\Users\DEVELO~1\AppData\Local\Temp\ccHwwtpW.s 			page 71


 3981 0021 74696D69 		.ascii	"timingr\000"
 3981      6E677200 
 3982              	.LASF116:
 3983 0029 7264796D 		.ascii	"rdymsg\000"
 3983      736700
 3984              	.LASF52:
 3985 0030 72666375 		.ascii	"rfcu\000"
 3985      00
 3986              	.LASF131:
 3987 0035 69646C65 		.ascii	"idlethread_base\000"
 3987      74687265 
 3987      61645F62 
 3987      61736500 
 3988              	.LASF3:
 3989 0045 7369676E 		.ascii	"signed char\000"
 3989      65642063 
 3989      68617200 
 3990              	.LASF5:
 3991 0051 5F5F7569 		.ascii	"__uint8_t\000"
 3991      6E74385F 
 3991      7400
 3992              	.LASF143:
 3993 005b 4932435F 		.ascii	"I2C_STOP\000"
 3993      53544F50 
 3993      00
 3994              	.LASF71:
 3995 0064 70726576 		.ascii	"prev\000"
 3995      00
 3996              	.LASF103:
 3997 0069 706F7274 		.ascii	"port_intctx\000"
 3997      5F696E74 
 3997      63747800 
 3998              	.LASF49:
 3999 0075 76746C69 		.ascii	"vtlist\000"
 3999      737400
 4000              	.LASF165:
 4001 007c 6932635F 		.ascii	"i2c_lld_master_receive_timeout\000"
 4001      6C6C645F 
 4001      6D617374 
 4001      65725F72 
 4001      65636569 
 4002              	.LASF82:
 4003 009b 74797065 		.ascii	"type\000"
 4003      00
 4004              	.LASF175:
 4005 00a0 72786275 		.ascii	"rxbuf\000"
 4005      6600
 4006              	.LASF85:
 4007 00a6 74726163 		.ascii	"trace_event_t\000"
 4007      655F6576 
 4007      656E745F 
 4007      7400
 4008              	.LASF80:
 4009 00b4 68616C74 		.ascii	"halt\000"
 4009      00
 4010              	.LASF174:
 4011 00b9 61646472 		.ascii	"addr\000"
ARM GAS  C:\Users\DEVELO~1\AppData\Local\Temp\ccHwwtpW.s 			page 72


 4011      00
 4012              	.LASF182:
 4013 00be 69326353 		.ascii	"i2cStart\000"
 4013      74617274 
 4013      00
 4014              	.LASF117:
 4015 00c7 65786974 		.ascii	"exitcode\000"
 4015      636F6465 
 4015      00
 4016              	.LASF140:
 4017 00d0 76656374 		.ascii	"vector\000"
 4017      6F7200
 4018              	.LASF170:
 4019 00d7 69326352 		.ascii	"i2cReleaseBus\000"
 4019      656C6561 
 4019      73654275 
 4019      7300
 4020              	.LASF119:
 4021 00e5 73656E74 		.ascii	"sentmsg\000"
 4021      6D736700 
 4022              	.LASF77:
 4023 00ed 64656C74 		.ascii	"delta\000"
 4023      6100
 4024              	.LASF172:
 4025 00f3 69326370 		.ascii	"i2cp\000"
 4025      00
 4026              	.LASF68:
 4027 00f8 6E657874 		.ascii	"next\000"
 4027      00
 4028              	.LASF169:
 4029 00fd 63684D74 		.ascii	"chMtxObjectInit\000"
 4029      784F626A 
 4029      65637449 
 4029      6E697400 
 4030              	.LASF144:
 4031 010d 4932435F 		.ascii	"I2C_READY\000"
 4031      52454144 
 4031      5900
 4032              	.LASF178:
 4033 0117 6932634D 		.ascii	"i2cMasterTransmitTimeout\000"
 4033      61737465 
 4033      72547261 
 4033      6E736D69 
 4033      7454696D 
 4034              	.LASF38:
 4035 0130 72656673 		.ascii	"refs\000"
 4035      00
 4036              	.LASF186:
 4037 0135 6F73616C 		.ascii	"osalMutexObjectInit\000"
 4037      4D757465 
 4037      784F626A 
 4037      65637449 
 4037      6E697400 
 4038              	.LASF163:
 4039 0149 63684D74 		.ascii	"chMtxUnlock\000"
 4039      78556E6C 
 4039      6F636B00 
ARM GAS  C:\Users\DEVELO~1\AppData\Local\Temp\ccHwwtpW.s 			page 73


 4040              	.LASF13:
 4041 0155 6C6F6E67 		.ascii	"long unsigned int\000"
 4041      20756E73 
 4041      69676E65 
 4041      6420696E 
 4041      7400
 4042              	.LASF76:
 4043 0167 63685F64 		.ascii	"ch_delta_list\000"
 4043      656C7461 
 4043      5F6C6973 
 4043      7400
 4044              	.LASF177:
 4045 0175 6932634D 		.ascii	"i2cMasterReceiveTimeout\000"
 4045      61737465 
 4045      72526563 
 4045      65697665 
 4045      54696D65 
 4046              	.LASF99:
 4047 018d 50454352 		.ascii	"PECR\000"
 4047      00
 4048              	.LASF97:
 4049 0192 54494D49 		.ascii	"TIMINGR\000"
 4049      4E475200 
 4050              	.LASF199:
 4051 019a 62617365 		.ascii	"basePri\000"
 4051      50726900 
 4052              	.LASF193:
 4053 01a2 474E5520 		.ascii	"GNU C17 11.3.1 20220712 -mcpu=cortex-m7 -mthumb -mf"
 4053      43313720 
 4053      31312E33 
 4053      2E312032 
 4053      30323230 
 4054 01d5 6C6F6174 		.ascii	"loat-abi=soft -march=armv7e-m -ggdb -O0 -ffunction-"
 4054      2D616269 
 4054      3D736F66 
 4054      74202D6D 
 4054      61726368 
 4055 0208 73656374 		.ascii	"sections -fdata-sections -fno-common\000"
 4055      696F6E73 
 4055      202D6664 
 4055      6174612D 
 4055      73656374 
 4056              	.LASF191:
 4057 022d 706F7274 		.ascii	"port_unlock\000"
 4057      5F756E6C 
 4057      6F636B00 
 4058              	.LASF149:
 4059 0239 69326361 		.ascii	"i2caddr_t\000"
 4059      6464725F 
 4059      7400
 4060              	.LASF36:
 4061 0243 73746174 		.ascii	"state\000"
 4061      6500
 4062              	.LASF157:
 4063 0249 6D757465 		.ascii	"mutex\000"
 4063      7800
 4064              	.LASF24:
ARM GAS  C:\Users\DEVELO~1\AppData\Local\Temp\ccHwwtpW.s 			page 74


 4065 024f 74737461 		.ascii	"tstate_t\000"
 4065      74655F74 
 4065      00
 4066              	.LASF57:
 4067 0258 63685F72 		.ascii	"ch_rfcu\000"
 4067      66637500 
 4068              	.LASF65:
 4069 0260 73797369 		.ascii	"sysinterval_t\000"
 4069      6E746572 
 4069      76616C5F 
 4069      7400
 4070              	.LASF70:
 4071 026e 63685F71 		.ascii	"ch_queue\000"
 4071      75657565 
 4071      00
 4072              	.LASF1:
 4073 0277 6C6F6E67 		.ascii	"long long int\000"
 4073      206C6F6E 
 4073      6720696E 
 4073      7400
 4074              	.LASF153:
 4075 0285 49324343 		.ascii	"I2CConfig\000"
 4075      6F6E6669 
 4075      6700
 4076              	.LASF89:
 4077 028f 74726163 		.ascii	"trace_buffer_t\000"
 4077      655F6275 
 4077      66666572 
 4077      5F7400
 4078              	.LASF110:
 4079 029e 63685F72 		.ascii	"ch_registry\000"
 4079      65676973 
 4079      74727900 
 4080              	.LASF138:
 4081 02aa 73686966 		.ascii	"shift\000"
 4081      7400
 4082              	.LASF161:
 4083 02b0 7278646D 		.ascii	"rxdmamode\000"
 4083      616D6F64 
 4083      6500
 4084              	.LASF179:
 4085 02ba 74786275 		.ascii	"txbuf\000"
 4085      6600
 4086              	.LASF12:
 4087 02c0 5F5F7569 		.ascii	"__uint32_t\000"
 4087      6E743332 
 4087      5F7400
 4088              	.LASF58:
 4089 02cb 6D61736B 		.ascii	"mask\000"
 4089      00
 4090              	.LASF139:
 4091 02d0 73656C66 		.ascii	"selfindex\000"
 4091      696E6465 
 4091      7800
 4092              	.LASF39:
 4093 02da 77616974 		.ascii	"waiting\000"
 4093      696E6700 
ARM GAS  C:\Users\DEVELO~1\AppData\Local\Temp\ccHwwtpW.s 			page 75


 4094              	.LASF102:
 4095 02e2 4932435F 		.ascii	"I2C_TypeDef\000"
 4095      54797065 
 4095      44656600 
 4096              	.LASF129:
 4097 02ee 6D61696E 		.ascii	"mainthread_base\000"
 4097      74687265 
 4097      61645F62 
 4097      61736500 
 4098              	.LASF134:
 4099 02fe 6D757465 		.ascii	"mutex_t\000"
 4099      785F7400 
 4100              	.LASF104:
 4101 0306 706F7274 		.ascii	"port_context\000"
 4101      5F636F6E 
 4101      74657874 
 4101      00
 4102              	.LASF29:
 4103 0313 636E745F 		.ascii	"cnt_t\000"
 4103      7400
 4104              	.LASF40:
 4105 0319 6D736771 		.ascii	"msgqueue\000"
 4105      75657565 
 4105      00
 4106              	.LASF100:
 4107 0322 52584452 		.ascii	"RXDR\000"
 4107      00
 4108              	.LASF0:
 4109 0327 756E7369 		.ascii	"unsigned int\000"
 4109      676E6564 
 4109      20696E74 
 4109      00
 4110              	.LASF17:
 4111 0334 75696E74 		.ascii	"uint16_t\000"
 4111      31365F74 
 4111      00
 4112              	.LASF120:
 4113 033d 77747365 		.ascii	"wtsemp\000"
 4113      6D7000
 4114              	.LASF156:
 4115 0344 6572726F 		.ascii	"errors\000"
 4115      727300
 4116              	.LASF63:
 4117 034b 73797374 		.ascii	"system_debug_t\000"
 4117      656D5F64 
 4117      65627567 
 4117      5F7400
 4118              	.LASF118:
 4119 035a 77747472 		.ascii	"wttrp\000"
 4119      7000
 4120              	.LASF69:
 4121 0360 63685F71 		.ascii	"ch_queue_t\000"
 4121      75657565 
 4121      5F7400
 4122              	.LASF176:
 4123 036b 74696D65 		.ascii	"timeout\000"
 4123      6F757400 
ARM GAS  C:\Users\DEVELO~1\AppData\Local\Temp\ccHwwtpW.s 			page 76


 4124              	.LASF34:
 4125 0373 6E616D65 		.ascii	"name\000"
 4125      00
 4126              	.LASF111:
 4127 0378 71756575 		.ascii	"queue\000"
 4127      6500
 4128              	.LASF44:
 4129 037e 6D706F6F 		.ascii	"mpool\000"
 4129      6C00
 4130              	.LASF87:
 4131 0384 73697A65 		.ascii	"size\000"
 4131      00
 4132              	.LASF9:
 4133 0389 73686F72 		.ascii	"short unsigned int\000"
 4133      7420756E 
 4133      7369676E 
 4133      65642069 
 4133      6E7400
 4134              	.LASF46:
 4135 039c 63685F74 		.ascii	"ch_thread\000"
 4135      68726561 
 4135      6400
 4136              	.LASF54:
 4137 03a6 6D61696E 		.ascii	"mainthread\000"
 4137      74687265 
 4137      616400
 4138              	.LASF27:
 4139 03b1 6D73675F 		.ascii	"msg_t\000"
 4139      7400
 4140              	.LASF41:
 4141 03b7 6570656E 		.ascii	"epending\000"
 4141      64696E67 
 4141      00
 4142              	.LASF101:
 4143 03c0 54584452 		.ascii	"TXDR\000"
 4143      00
 4144              	.LASF93:
 4145 03c5 444D415F 		.ascii	"DMA_Stream_TypeDef\000"
 4145      53747265 
 4145      616D5F54 
 4145      79706544 
 4145      656600
 4146              	.LASF23:
 4147 03d8 746D6F64 		.ascii	"tmode_t\000"
 4147      655F7400 
 4148              	.LASF67:
 4149 03e0 63685F6C 		.ascii	"ch_list\000"
 4149      69737400 
 4150              	.LASF125:
 4151 03e8 63685F72 		.ascii	"ch_ready_list\000"
 4151      65616479 
 4151      5F6C6973 
 4151      7400
 4152              	.LASF28:
 4153 03f6 6576656E 		.ascii	"eventmask_t\000"
 4153      746D6173 
 4153      6B5F7400 
ARM GAS  C:\Users\DEVELO~1\AppData\Local\Temp\ccHwwtpW.s 			page 77


 4154              	.LASF7:
 4155 0402 73686F72 		.ascii	"short int\000"
 4155      7420696E 
 4155      7400
 4156              	.LASF10:
 4157 040c 5F5F696E 		.ascii	"__int32_t\000"
 4157      7433325F 
 4157      7400
 4158              	.LASF15:
 4159 0416 6C6F6E67 		.ascii	"long long unsigned int\000"
 4159      206C6F6E 
 4159      6720756E 
 4159      7369676E 
 4159      65642069 
 4160              	.LASF109:
 4161 042d 76697274 		.ascii	"virtual_timers_list_t\000"
 4161      75616C5F 
 4161      74696D65 
 4161      72735F6C 
 4161      6973745F 
 4162              	.LASF22:
 4163 0443 73746B61 		.ascii	"stkalign_t\000"
 4163      6C69676E 
 4163      5F7400
 4164              	.LASF167:
 4165 044e 6932635F 		.ascii	"i2c_lld_stop\000"
 4165      6C6C645F 
 4165      73746F70 
 4165      00
 4166              	.LASF83:
 4167 045b 72747374 		.ascii	"rtstamp\000"
 4167      616D7000 
 4168              	.LASF108:
 4169 0463 6C617374 		.ascii	"laststamp\000"
 4169      7374616D 
 4169      7000
 4170              	.LASF43:
 4171 046d 7265616C 		.ascii	"realprio\000"
 4171      7072696F 
 4171      00
 4172              	.LASF56:
 4173 0476 72666375 		.ascii	"rfcu_mask_t\000"
 4173      5F6D6173 
 4173      6B5F7400 
 4174              	.LASF168:
 4175 0482 6932635F 		.ascii	"i2c_lld_start\000"
 4175      6C6C645F 
 4175      73746172 
 4175      7400
 4176              	.LASF113:
 4177 0490 74687265 		.ascii	"thread_reference_t\000"
 4177      61645F72 
 4177      65666572 
 4177      656E6365 
 4177      5F7400
 4178              	.LASF105:
 4179 04a3 63685F76 		.ascii	"ch_virtual_timers_list\000"
ARM GAS  C:\Users\DEVELO~1\AppData\Local\Temp\ccHwwtpW.s 			page 78


 4179      69727475 
 4179      616C5F74 
 4179      696D6572 
 4179      735F6C69 
 4180              	.LASF198:
 4181 04ba 5F5F7365 		.ascii	"__set_BASEPRI\000"
 4181      745F4241 
 4181      53455052 
 4181      4900
 4182              	.LASF66:
 4183 04c8 63685F6C 		.ascii	"ch_list_t\000"
 4183      6973745F 
 4183      7400
 4184              	.LASF45:
 4185 04d2 6F735F69 		.ascii	"os_instance_t\000"
 4185      6E737461 
 4185      6E63655F 
 4185      7400
 4186              	.LASF86:
 4187 04e0 73757370 		.ascii	"suspended\000"
 4187      656E6465 
 4187      6400
 4188              	.LASF164:
 4189 04ea 63684D74 		.ascii	"chMtxLock\000"
 4189      784C6F63 
 4189      6B00
 4190              	.LASF20:
 4191 04f4 75696E74 		.ascii	"uint64_t\000"
 4191      36345F74 
 4191      00
 4192              	.LASF160:
 4193 04fd 72786279 		.ascii	"rxbytes\000"
 4193      74657300 
 4194              	.LASF181:
 4195 0505 69326353 		.ascii	"i2cStop\000"
 4195      746F7000 
 4196              	.LASF128:
 4197 050d 63685F6F 		.ascii	"ch_os_instance_config\000"
 4197      735F696E 
 4197      7374616E 
 4197      63655F63 
 4197      6F6E6669 
 4198              	.LASF162:
 4199 0523 7478646D 		.ascii	"txdmamode\000"
 4199      616D6F64 
 4199      6500
 4200              	.LASF47:
 4201 052d 63685F6F 		.ascii	"ch_os_instance\000"
 4201      735F696E 
 4201      7374616E 
 4201      636500
 4202              	.LASF84:
 4203 053c 74696D65 		.ascii	"time\000"
 4203      00
 4204              	.LASF74:
 4205 0541 7072696F 		.ascii	"prio\000"
 4205      00
ARM GAS  C:\Users\DEVELO~1\AppData\Local\Temp\ccHwwtpW.s 			page 79


 4206              	.LASF188:
 4207 0546 6F73616C 		.ascii	"osalSysLock\000"
 4207      5379734C 
 4207      6F636B00 
 4208              	.LASF126:
 4209 0552 63757272 		.ascii	"current\000"
 4209      656E7400 
 4210              	.LASF14:
 4211 055a 5F5F7569 		.ascii	"__uint64_t\000"
 4211      6E743634 
 4211      5F7400
 4212              	.LASF137:
 4213 0565 69666372 		.ascii	"ifcr\000"
 4213      00
 4214              	.LASF30:
 4215 056a 636F7265 		.ascii	"core_id_t\000"
 4215      5F69645F 
 4215      7400
 4216              	.LASF25:
 4217 0574 74726566 		.ascii	"trefs_t\000"
 4217      735F7400 
 4218              	.LASF148:
 4219 057c 69326373 		.ascii	"i2cstate_t\000"
 4219      74617465 
 4219      5F7400
 4220              	.LASF98:
 4221 0587 54494D45 		.ascii	"TIMEOUTR\000"
 4221      4F555452 
 4221      00
 4222              	.LASF81:
 4223 0590 75736572 		.ascii	"user\000"
 4223      00
 4224              	.LASF141:
 4225 0595 73746D33 		.ascii	"stm32_dma_stream_t\000"
 4225      325F646D 
 4225      615F7374 
 4225      7265616D 
 4225      5F7400
 4226              	.LASF171:
 4227 05a8 69326341 		.ascii	"i2cAcquireBus\000"
 4227      63717569 
 4227      72654275 
 4227      7300
 4228              	.LASF26:
 4229 05b6 74707269 		.ascii	"tprio_t\000"
 4229      6F5F7400 
 4230              	.LASF145:
 4231 05be 4932435F 		.ascii	"I2C_ACTIVE_TX\000"
 4231      41435449 
 4231      56455F54 
 4231      5800
 4232              	.LASF150:
 4233 05cc 69326366 		.ascii	"i2cflags_t\000"
 4233      6C616773 
 4233      5F7400
 4234              	.LASF158:
 4235 05d7 74687265 		.ascii	"thread\000"
ARM GAS  C:\Users\DEVELO~1\AppData\Local\Temp\ccHwwtpW.s 			page 80


 4235      616400
 4236              	.LASF60:
 4237 05de 63685F73 		.ascii	"ch_system_debug\000"
 4237      79737465 
 4237      6D5F6465 
 4237      62756700 
 4238              	.LASF135:
 4239 05ee 5F426F6F 		.ascii	"_Bool\000"
 4239      6C00
 4240              	.LASF18:
 4241 05f4 696E7433 		.ascii	"int32_t\000"
 4241      325F7400 
 4242              	.LASF6:
 4243 05fc 756E7369 		.ascii	"unsigned char\000"
 4243      676E6564 
 4243      20636861 
 4243      7200
 4244              	.LASF166:
 4245 060a 6932635F 		.ascii	"i2c_lld_master_transmit_timeout\000"
 4245      6C6C645F 
 4245      6D617374 
 4245      65725F74 
 4245      72616E73 
 4246              	.LASF59:
 4247 062a 72666375 		.ascii	"rfcu_t\000"
 4247      5F7400
 4248              	.LASF142:
 4249 0631 4932435F 		.ascii	"I2C_UNINIT\000"
 4249      554E494E 
 4249      495400
 4250              	.LASF107:
 4251 063c 6C617374 		.ascii	"lasttime\000"
 4251      74696D65 
 4251      00
 4252              	.LASF180:
 4253 0645 69326347 		.ascii	"i2cGetErrors\000"
 4253      65744572 
 4253      726F7273 
 4253      00
 4254              	.LASF78:
 4255 0652 77746F62 		.ascii	"wtobjp\000"
 4255      6A7000
 4256              	.LASF122:
 4257 0659 65776D61 		.ascii	"ewmask\000"
 4257      736B00
 4258              	.LASF173:
 4259 0660 5F5F6675 		.ascii	"__func__\000"
 4259      6E635F5F 
 4259      00
 4260              	.LASF190:
 4261 0669 63685379 		.ascii	"chSysLock\000"
 4261      734C6F63 
 4261      6B00
 4262              	.LASF187:
 4263 0673 6F73616C 		.ascii	"osalSysUnlock\000"
 4263      53797355 
 4263      6E6C6F63 
ARM GAS  C:\Users\DEVELO~1\AppData\Local\Temp\ccHwwtpW.s 			page 81


 4263      6B00
 4264              	.LASF79:
 4265 0681 72656173 		.ascii	"reason\000"
 4265      6F6E00
 4266              	.LASF147:
 4267 0688 4932435F 		.ascii	"I2C_LOCKED\000"
 4267      4C4F434B 
 4267      454400
 4268              	.LASF123:
 4269 0693 63685F73 		.ascii	"ch_semaphore\000"
 4269      656D6170 
 4269      686F7265 
 4269      00
 4270              	.LASF112:
 4271 06a0 72656769 		.ascii	"registry_t\000"
 4271      73747279 
 4271      5F7400
 4272              	.LASF196:
 4273 06ab 6932635F 		.ascii	"i2c_lld_init\000"
 4273      6C6C645F 
 4273      696E6974 
 4273      00
 4274              	.LASF194:
 4275 06b8 2E2E2F2E 		.ascii	"../../../os/hal/src/hal_i2c.c\000"
 4275      2E2F2E2E 
 4275      2F6F732F 
 4275      68616C2F 
 4275      7372632F 
 4276              	.LASF19:
 4277 06d6 75696E74 		.ascii	"uint32_t\000"
 4277      33325F74 
 4277      00
 4278              	.LASF121:
 4279 06df 77746D74 		.ascii	"wtmtxp\000"
 4279      787000
 4280              	.LASF21:
 4281 06e6 706F7274 		.ascii	"port_stkalign_t\000"
 4281      5F73746B 
 4281      616C6967 
 4281      6E5F7400 
 4282              	.LASF33:
 4283 06f6 6F776E65 		.ascii	"owner\000"
 4283      7200
 4284              	.LASF136:
 4285 06fc 73747265 		.ascii	"stream\000"
 4285      616D00
 4286              	.LASF146:
 4287 0703 4932435F 		.ascii	"I2C_ACTIVE_RX\000"
 4287      41435449 
 4287      56455F52 
 4287      5800
 4288              	.LASF2:
 4289 0711 6C6F6E67 		.ascii	"long double\000"
 4289      20646F75 
 4289      626C6500 
 4290              	.LASF35:
 4291 071d 77616261 		.ascii	"wabase\000"
ARM GAS  C:\Users\DEVELO~1\AppData\Local\Temp\ccHwwtpW.s 			page 82


 4291      736500
 4292              	.LASF62:
 4293 0724 63686172 		.ascii	"char\000"
 4293      00
 4294              	.LASF53:
 4295 0729 636F6E66 		.ascii	"config\000"
 4295      696700
 4296              	.LASF184:
 4297 0730 6F73616C 		.ascii	"osalMutexUnlock\000"
 4297      4D757465 
 4297      78556E6C 
 4297      6F636B00 
 4298              	.LASF8:
 4299 0740 5F5F7569 		.ascii	"__uint16_t\000"
 4299      6E743136 
 4299      5F7400
 4300              	.LASF31:
 4301 074b 74687265 		.ascii	"thread_t\000"
 4301      61645F74 
 4301      00
 4302              	.LASF106:
 4303 0754 646C6973 		.ascii	"dlist\000"
 4303      7400
 4304              	.LASF64:
 4305 075a 73797374 		.ascii	"systime_t\000"
 4305      696D655F 
 4305      7400
 4306              	.LASF88:
 4307 0764 62756666 		.ascii	"buffer\000"
 4307      657200
 4308              	.LASF72:
 4309 076b 63685F70 		.ascii	"ch_priority_queue_t\000"
 4309      72696F72 
 4309      6974795F 
 4309      71756575 
 4309      655F7400 
 4310              	.LASF185:
 4311 077f 6F73616C 		.ascii	"osalMutexLock\000"
 4311      4D757465 
 4311      784C6F63 
 4311      6B00
 4312              	.LASF90:
 4313 078d 4E445452 		.ascii	"NDTR\000"
 4313      00
 4314              	.LASF151:
 4315 0792 68616C5F 		.ascii	"hal_i2c_config\000"
 4315      6932635F 
 4315      636F6E66 
 4315      696700
 4316              	.LASF115:
 4317 07a1 70717565 		.ascii	"pqueue\000"
 4317      756500
 4318              	.LASF154:
 4319 07a8 49324344 		.ascii	"I2CDriver\000"
 4319      72697665 
 4319      7200
 4320              	.LASF50:
ARM GAS  C:\Users\DEVELO~1\AppData\Local\Temp\ccHwwtpW.s 			page 83


 4321 07b2 7265676C 		.ascii	"reglist\000"
 4321      69737400 
 4322              	.LASF73:
 4323 07ba 63685F70 		.ascii	"ch_priority_queue\000"
 4323      72696F72 
 4323      6974795F 
 4323      71756575 
 4323      6500
 4324              	.LASF92:
 4325 07cc 4D314152 		.ascii	"M1AR\000"
 4325      00
 4326              	.LASF75:
 4327 07d1 63685F64 		.ascii	"ch_delta_list_t\000"
 4327      656C7461 
 4327      5F6C6973 
 4327      745F7400 
 4328              	.LASF130:
 4329 07e1 6D61696E 		.ascii	"mainthread_end\000"
 4329      74687265 
 4329      61645F65 
 4329      6E6400
 4330              	.LASF133:
 4331 07f0 6F735F69 		.ascii	"os_instance_config_t\000"
 4331      6E737461 
 4331      6E63655F 
 4331      636F6E66 
 4331      69675F74 
 4332              	.LASF94:
 4333 0805 444D414D 		.ascii	"DMAMUX_Channel_TypeDef\000"
 4333      55585F43 
 4333      68616E6E 
 4333      656C5F54 
 4333      79706544 
 4334              	.LASF48:
 4335 081c 726C6973 		.ascii	"rlist\000"
 4335      7400
 4336              	.LASF16:
 4337 0822 75696E74 		.ascii	"uint8_t\000"
 4337      385F7400 
 4338              	.LASF95:
 4339 082a 4F415231 		.ascii	"OAR1\000"
 4339      00
 4340              	.LASF96:
 4341 082f 4F415232 		.ascii	"OAR2\000"
 4341      00
 4342              	.LASF37:
 4343 0834 666C6167 		.ascii	"flags\000"
 4343      7300
 4344              	.LASF61:
 4345 083a 70616E69 		.ascii	"panic_msg\000"
 4345      635F6D73 
 4345      6700
 4346              	.LASF124:
 4347 0844 63685F6D 		.ascii	"ch_mutex\000"
 4347      75746578 
 4347      00
 4348              	.LASF32:
ARM GAS  C:\Users\DEVELO~1\AppData\Local\Temp\ccHwwtpW.s 			page 84


 4349 084d 72717565 		.ascii	"rqueue\000"
 4349      756500
 4350              	.LASF55:
 4351 0854 74726163 		.ascii	"trace_buffer\000"
 4351      655F6275 
 4351      66666572 
 4351      00
 4352              	.LASF197:
 4353 0861 69326349 		.ascii	"i2cInit\000"
 4353      6E697400 
 4354              	.LASF189:
 4355 0869 63685379 		.ascii	"chSysUnlock\000"
 4355      73556E6C 
 4355      6F636B00 
 4356              	.LASF11:
 4357 0875 6C6F6E67 		.ascii	"long int\000"
 4357      20696E74 
 4357      00
 4358              	.LASF114:
 4359 087e 6C697374 		.ascii	"list\000"
 4359      00
 4360              	.LASF155:
 4361 0883 68616C5F 		.ascii	"hal_i2c_driver\000"
 4361      6932635F 
 4361      64726976 
 4361      657200
 4362              	.LASF192:
 4363 0892 706F7274 		.ascii	"port_lock\000"
 4363      5F6C6F63 
 4363      6B00
 4364              	.LASF132:
 4365 089c 69646C65 		.ascii	"idlethread_end\000"
 4365      74687265 
 4365      61645F65 
 4365      6E6400
 4366              	.LASF42:
 4367 08ab 6D74786C 		.ascii	"mtxlist\000"
 4367      69737400 
 4368              	.LASF183:
 4369 08b3 6932634F 		.ascii	"i2cObjectInit\000"
 4369      626A6563 
 4369      74496E69 
 4369      7400
 4370              	.LASF195:
 4371 08c1 433A5C50 		.ascii	"C:\\PROJET\\ChibiOS project\\ChibiOS_21.11.4\\demos"
 4371      524F4A45 
 4371      545C4368 
 4371      6962694F 
 4371      53207072 
 4372 08f0 5C53544D 		.ascii	"\\STM32\\RT-STM32H743ZI_REV_XY-NUCLEO144_Quartz8M\000"
 4372      33325C52 
 4372      542D5354 
 4372      4D333248 
 4372      3734335A 
 4373              	.LASF159:
 4374 0920 74786279 		.ascii	"txbytes\000"
 4374      74657300 
ARM GAS  C:\Users\DEVELO~1\AppData\Local\Temp\ccHwwtpW.s 			page 85


 4375              		.ident	"GCC: (Arm GNU Toolchain 11.3.Rel1) 11.3.1 20220712"
ARM GAS  C:\Users\DEVELO~1\AppData\Local\Temp\ccHwwtpW.s 			page 86


DEFINED SYMBOLS
                            *ABS*:00000000 hal_i2c.c
C:\Users\DEVELO~1\AppData\Local\Temp\ccHwwtpW.s:18     .text.chSysLock:00000000 $t
C:\Users\DEVELO~1\AppData\Local\Temp\ccHwwtpW.s:23     .text.chSysLock:00000000 chSysLock
C:\Users\DEVELO~1\AppData\Local\Temp\ccHwwtpW.s:77     .text.chSysUnlock:00000000 $t
C:\Users\DEVELO~1\AppData\Local\Temp\ccHwwtpW.s:82     .text.chSysUnlock:00000000 chSysUnlock
C:\Users\DEVELO~1\AppData\Local\Temp\ccHwwtpW.s:133    .text.osalSysLock:00000000 $t
C:\Users\DEVELO~1\AppData\Local\Temp\ccHwwtpW.s:138    .text.osalSysLock:00000000 osalSysLock
C:\Users\DEVELO~1\AppData\Local\Temp\ccHwwtpW.s:160    .text.osalSysUnlock:00000000 $t
C:\Users\DEVELO~1\AppData\Local\Temp\ccHwwtpW.s:165    .text.osalSysUnlock:00000000 osalSysUnlock
C:\Users\DEVELO~1\AppData\Local\Temp\ccHwwtpW.s:186    .text.osalMutexObjectInit:00000000 $t
C:\Users\DEVELO~1\AppData\Local\Temp\ccHwwtpW.s:191    .text.osalMutexObjectInit:00000000 osalMutexObjectInit
C:\Users\DEVELO~1\AppData\Local\Temp\ccHwwtpW.s:221    .text.osalMutexLock:00000000 $t
C:\Users\DEVELO~1\AppData\Local\Temp\ccHwwtpW.s:226    .text.osalMutexLock:00000000 osalMutexLock
C:\Users\DEVELO~1\AppData\Local\Temp\ccHwwtpW.s:256    .text.osalMutexUnlock:00000000 $t
C:\Users\DEVELO~1\AppData\Local\Temp\ccHwwtpW.s:261    .text.osalMutexUnlock:00000000 osalMutexUnlock
C:\Users\DEVELO~1\AppData\Local\Temp\ccHwwtpW.s:291    .text.i2cInit:00000000 $t
C:\Users\DEVELO~1\AppData\Local\Temp\ccHwwtpW.s:297    .text.i2cInit:00000000 i2cInit
C:\Users\DEVELO~1\AppData\Local\Temp\ccHwwtpW.s:319    .text.i2cObjectInit:00000000 $t
C:\Users\DEVELO~1\AppData\Local\Temp\ccHwwtpW.s:325    .text.i2cObjectInit:00000000 i2cObjectInit
C:\Users\DEVELO~1\AppData\Local\Temp\ccHwwtpW.s:365    .text.i2cStart:00000000 $t
C:\Users\DEVELO~1\AppData\Local\Temp\ccHwwtpW.s:371    .text.i2cStart:00000000 i2cStart
C:\Users\DEVELO~1\AppData\Local\Temp\ccHwwtpW.s:419    .text.i2cStop:00000000 $t
C:\Users\DEVELO~1\AppData\Local\Temp\ccHwwtpW.s:425    .text.i2cStop:00000000 i2cStop
C:\Users\DEVELO~1\AppData\Local\Temp\ccHwwtpW.s:467    .text.i2cGetErrors:00000000 $t
C:\Users\DEVELO~1\AppData\Local\Temp\ccHwwtpW.s:473    .text.i2cGetErrors:00000000 i2cGetErrors
C:\Users\DEVELO~1\AppData\Local\Temp\ccHwwtpW.s:506    .text.i2cMasterTransmitTimeout:00000000 $t
C:\Users\DEVELO~1\AppData\Local\Temp\ccHwwtpW.s:512    .text.i2cMasterTransmitTimeout:00000000 i2cMasterTransmitTimeout
C:\Users\DEVELO~1\AppData\Local\Temp\ccHwwtpW.s:585    .text.i2cMasterReceiveTimeout:00000000 $t
C:\Users\DEVELO~1\AppData\Local\Temp\ccHwwtpW.s:591    .text.i2cMasterReceiveTimeout:00000000 i2cMasterReceiveTimeout
C:\Users\DEVELO~1\AppData\Local\Temp\ccHwwtpW.s:660    .text.i2cAcquireBus:00000000 $t
C:\Users\DEVELO~1\AppData\Local\Temp\ccHwwtpW.s:666    .text.i2cAcquireBus:00000000 i2cAcquireBus
C:\Users\DEVELO~1\AppData\Local\Temp\ccHwwtpW.s:698    .text.i2cReleaseBus:00000000 $t
C:\Users\DEVELO~1\AppData\Local\Temp\ccHwwtpW.s:704    .text.i2cReleaseBus:00000000 i2cReleaseBus

UNDEFINED SYMBOLS
chMtxObjectInit
chMtxLock
chMtxUnlock
i2c_lld_init
i2c_lld_start
i2c_lld_stop
i2c_lld_master_transmit_timeout
i2c_lld_master_receive_timeout
