ARM GAS  C:\Users\DEVELO~1\AppData\Local\Temp\ccW4vRdT.s 			page 1


   1              		.cpu cortex-m7
   2              		.arch armv7e-m
   3              		.fpu softvfp
   4              		.eabi_attribute 20, 1
   5              		.eabi_attribute 21, 1
   6              		.eabi_attribute 23, 3
   7              		.eabi_attribute 24, 1
   8              		.eabi_attribute 25, 1
   9              		.eabi_attribute 26, 1
  10              		.eabi_attribute 30, 6
  11              		.eabi_attribute 34, 1
  12              		.eabi_attribute 18, 4
  13              		.file	"hal_gpt.c"
  14              		.text
  15              	.Ltext0:
  16              		.cfi_sections	.debug_frame
  17              		.section	.text.chSysLock,"ax",%progbits
  18              		.align	1
  19              		.syntax unified
  20              		.thumb
  21              		.thumb_func
  22              		.type	chSysLock, %function
  23              	chSysLock:
  24              	.LFB202:
  25              		.file 1 "../../../os/rt/include/chsys.h"
  26              		.loc 1 407 36
  27              		.cfi_startproc
  28              		@ args = 0, pretend = 0, frame = 8
  29              		@ frame_needed = 1, uses_anonymous_args = 0
  30              		@ link register save eliminated.
  31 0000 80B4     		push	{r7}
  32              		.cfi_def_cfa_offset 4
  33              		.cfi_offset 7, -4
  34 0002 83B0     		sub	sp, sp, #12
  35              		.cfi_def_cfa_offset 16
  36 0004 00AF     		add	r7, sp, #0
  37              		.cfi_def_cfa_register 7
  38 0006 3023     		movs	r3, #48
  39 0008 7B60     		str	r3, [r7, #4]
  40              	.LBB14:
  41              	.LBB15:
  42              	.LBB16:
  43              	.LBB17:
  44              		.file 2 "../../../os/common/ext/ARM/CMSIS/Core/Include/cmsis_gcc.h"
  45              		.loc 2 493 3
  46 000a 7B68     		ldr	r3, [r7, #4]
  47              		.syntax unified
  48              	@ 493 "../../../os/common/ext/ARM/CMSIS/Core/Include/cmsis_gcc.h" 1
  49 000c 83F31188 		MSR basepri, r3
  50              	@ 0 "" 2
  51              		.loc 2 494 1
  52              		.thumb
  53              		.syntax unified
  54 0010 00BF     		nop
  55              	.LBE17:
  56              	.LBE16:
  57              		.file 3 "../../../os/common/ports/ARMv7-M/chcore.h"
ARM GAS  C:\Users\DEVELO~1\AppData\Local\Temp\ccW4vRdT.s 			page 2


  58              		.loc 3 840 1
  59 0012 00BF     		nop
  60              	.LBE15:
  61              	.LBE14:
  62              		.loc 1 412 1
  63 0014 00BF     		nop
  64 0016 0C37     		adds	r7, r7, #12
  65              		.cfi_def_cfa_offset 4
  66 0018 BD46     		mov	sp, r7
  67              		.cfi_def_cfa_register 13
  68              		@ sp needed
  69 001a 80BC     		pop	{r7}
  70              		.cfi_restore 7
  71              		.cfi_def_cfa_offset 0
  72 001c 7047     		bx	lr
  73              		.cfi_endproc
  74              	.LFE202:
  75              		.size	chSysLock, .-chSysLock
  76              		.section	.text.chSysUnlock,"ax",%progbits
  77              		.align	1
  78              		.syntax unified
  79              		.thumb
  80              		.thumb_func
  81              		.type	chSysUnlock, %function
  82              	chSysUnlock:
  83              	.LFB203:
  84              		.loc 1 421 38
  85              		.cfi_startproc
  86              		@ args = 0, pretend = 0, frame = 8
  87              		@ frame_needed = 1, uses_anonymous_args = 0
  88              		@ link register save eliminated.
  89 0000 80B4     		push	{r7}
  90              		.cfi_def_cfa_offset 4
  91              		.cfi_offset 7, -4
  92 0002 83B0     		sub	sp, sp, #12
  93              		.cfi_def_cfa_offset 16
  94 0004 00AF     		add	r7, sp, #0
  95              		.cfi_def_cfa_register 7
  96 0006 0023     		movs	r3, #0
  97 0008 7B60     		str	r3, [r7, #4]
  98              	.LBB18:
  99              	.LBB19:
 100              	.LBB20:
 101              	.LBB21:
 102              		.loc 2 493 3
 103 000a 7B68     		ldr	r3, [r7, #4]
 104              		.syntax unified
 105              	@ 493 "../../../os/common/ext/ARM/CMSIS/Core/Include/cmsis_gcc.h" 1
 106 000c 83F31188 		MSR basepri, r3
 107              	@ 0 "" 2
 108              		.loc 2 494 1
 109              		.thumb
 110              		.syntax unified
 111 0010 00BF     		nop
 112              	.LBE21:
 113              	.LBE20:
 114              		.loc 3 854 1
ARM GAS  C:\Users\DEVELO~1\AppData\Local\Temp\ccW4vRdT.s 			page 3


 115 0012 00BF     		nop
 116              	.LBE19:
 117              	.LBE18:
 118              		.loc 1 435 1
 119 0014 00BF     		nop
 120 0016 0C37     		adds	r7, r7, #12
 121              		.cfi_def_cfa_offset 4
 122 0018 BD46     		mov	sp, r7
 123              		.cfi_def_cfa_register 13
 124              		@ sp needed
 125 001a 80BC     		pop	{r7}
 126              		.cfi_restore 7
 127              		.cfi_def_cfa_offset 0
 128 001c 7047     		bx	lr
 129              		.cfi_endproc
 130              	.LFE203:
 131              		.size	chSysUnlock, .-chSysUnlock
 132              		.section	.text.osalSysLock,"ax",%progbits
 133              		.align	1
 134              		.syntax unified
 135              		.thumb
 136              		.thumb_func
 137              		.type	osalSysLock, %function
 138              	osalSysLock:
 139              	.LFB350:
 140              		.file 4 "../../../os/hal/osal/rt-nil/osal.h"
 141              		.loc 4 573 38
 142              		.cfi_startproc
 143              		@ args = 0, pretend = 0, frame = 0
 144              		@ frame_needed = 1, uses_anonymous_args = 0
 145 0000 80B5     		push	{r7, lr}
 146              		.cfi_def_cfa_offset 8
 147              		.cfi_offset 7, -8
 148              		.cfi_offset 14, -4
 149 0002 00AF     		add	r7, sp, #0
 150              		.cfi_def_cfa_register 7
 151              		.loc 4 575 3
 152 0004 FFF7FEFF 		bl	chSysLock
 153              		.loc 4 576 1
 154 0008 00BF     		nop
 155 000a 80BD     		pop	{r7, pc}
 156              		.cfi_endproc
 157              	.LFE350:
 158              		.size	osalSysLock, .-osalSysLock
 159              		.section	.text.osalSysUnlock,"ax",%progbits
 160              		.align	1
 161              		.syntax unified
 162              		.thumb
 163              		.thumb_func
 164              		.type	osalSysUnlock, %function
 165              	osalSysUnlock:
 166              	.LFB351:
 167              		.loc 4 584 40
 168              		.cfi_startproc
 169              		@ args = 0, pretend = 0, frame = 0
 170              		@ frame_needed = 1, uses_anonymous_args = 0
 171 0000 80B5     		push	{r7, lr}
ARM GAS  C:\Users\DEVELO~1\AppData\Local\Temp\ccW4vRdT.s 			page 4


 172              		.cfi_def_cfa_offset 8
 173              		.cfi_offset 7, -8
 174              		.cfi_offset 14, -4
 175 0002 00AF     		add	r7, sp, #0
 176              		.cfi_def_cfa_register 7
 177              		.loc 4 586 3
 178 0004 FFF7FEFF 		bl	chSysUnlock
 179              		.loc 4 587 1
 180 0008 00BF     		nop
 181 000a 80BD     		pop	{r7, pc}
 182              		.cfi_endproc
 183              	.LFE351:
 184              		.size	osalSysUnlock, .-osalSysUnlock
 185              		.section	.text.gptInit,"ax",%progbits
 186              		.align	1
 187              		.global	gptInit
 188              		.syntax unified
 189              		.thumb
 190              		.thumb_func
 191              		.type	gptInit, %function
 192              	gptInit:
 193              	.LFB432:
 194              		.file 5 "../../../os/hal/src/hal_gpt.c"
 195              		.loc 5 56 20
 196              		.cfi_startproc
 197              		@ args = 0, pretend = 0, frame = 0
 198              		@ frame_needed = 1, uses_anonymous_args = 0
 199 0000 80B5     		push	{r7, lr}
 200              		.cfi_def_cfa_offset 8
 201              		.cfi_offset 7, -8
 202              		.cfi_offset 14, -4
 203 0002 00AF     		add	r7, sp, #0
 204              		.cfi_def_cfa_register 7
 205              		.loc 5 58 3
 206 0004 FFF7FEFF 		bl	gpt_lld_init
 207              		.loc 5 59 1
 208 0008 00BF     		nop
 209 000a 80BD     		pop	{r7, pc}
 210              		.cfi_endproc
 211              	.LFE432:
 212              		.size	gptInit, .-gptInit
 213              		.section	.text.gptObjectInit,"ax",%progbits
 214              		.align	1
 215              		.global	gptObjectInit
 216              		.syntax unified
 217              		.thumb
 218              		.thumb_func
 219              		.type	gptObjectInit, %function
 220              	gptObjectInit:
 221              	.LFB433:
 222              		.loc 5 68 37
 223              		.cfi_startproc
 224              		@ args = 0, pretend = 0, frame = 8
 225              		@ frame_needed = 1, uses_anonymous_args = 0
 226              		@ link register save eliminated.
 227 0000 80B4     		push	{r7}
 228              		.cfi_def_cfa_offset 4
ARM GAS  C:\Users\DEVELO~1\AppData\Local\Temp\ccW4vRdT.s 			page 5


 229              		.cfi_offset 7, -4
 230 0002 83B0     		sub	sp, sp, #12
 231              		.cfi_def_cfa_offset 16
 232 0004 00AF     		add	r7, sp, #0
 233              		.cfi_def_cfa_register 7
 234 0006 7860     		str	r0, [r7, #4]
 235              		.loc 5 70 16
 236 0008 7B68     		ldr	r3, [r7, #4]
 237 000a 0122     		movs	r2, #1
 238 000c 1A70     		strb	r2, [r3]
 239              		.loc 5 71 16
 240 000e 7B68     		ldr	r3, [r7, #4]
 241 0010 0022     		movs	r2, #0
 242 0012 5A60     		str	r2, [r3, #4]
 243              		.loc 5 72 1
 244 0014 00BF     		nop
 245 0016 0C37     		adds	r7, r7, #12
 246              		.cfi_def_cfa_offset 4
 247 0018 BD46     		mov	sp, r7
 248              		.cfi_def_cfa_register 13
 249              		@ sp needed
 250 001a 80BC     		pop	{r7}
 251              		.cfi_restore 7
 252              		.cfi_def_cfa_offset 0
 253 001c 7047     		bx	lr
 254              		.cfi_endproc
 255              	.LFE433:
 256              		.size	gptObjectInit, .-gptObjectInit
 257              		.section	.text.gptStart,"ax",%progbits
 258              		.align	1
 259              		.global	gptStart
 260              		.syntax unified
 261              		.thumb
 262              		.thumb_func
 263              		.type	gptStart, %function
 264              	gptStart:
 265              	.LFB434:
 266              		.loc 5 83 58
 267              		.cfi_startproc
 268              		@ args = 0, pretend = 0, frame = 16
 269              		@ frame_needed = 1, uses_anonymous_args = 0
 270 0000 80B5     		push	{r7, lr}
 271              		.cfi_def_cfa_offset 8
 272              		.cfi_offset 7, -8
 273              		.cfi_offset 14, -4
 274 0002 84B0     		sub	sp, sp, #16
 275              		.cfi_def_cfa_offset 24
 276 0004 00AF     		add	r7, sp, #0
 277              		.cfi_def_cfa_register 7
 278 0006 7860     		str	r0, [r7, #4]
 279 0008 3960     		str	r1, [r7]
 280              		.loc 5 88 3
 281 000a FFF7FEFF 		bl	osalSysLock
 282              		.loc 5 93 16
 283 000e 7B68     		ldr	r3, [r7, #4]
 284 0010 3A68     		ldr	r2, [r7]
 285 0012 5A60     		str	r2, [r3, #4]
ARM GAS  C:\Users\DEVELO~1\AppData\Local\Temp\ccW4vRdT.s 			page 6


 286              		.loc 5 104 3
 287 0014 7868     		ldr	r0, [r7, #4]
 288 0016 FFF7FEFF 		bl	gpt_lld_start
 289              		.loc 5 105 15
 290 001a 7B68     		ldr	r3, [r7, #4]
 291 001c 0222     		movs	r2, #2
 292 001e 1A70     		strb	r2, [r3]
 293              		.loc 5 106 7
 294 0020 0023     		movs	r3, #0
 295 0022 FB60     		str	r3, [r7, #12]
 296              		.loc 5 109 3
 297 0024 FFF7FEFF 		bl	osalSysUnlock
 298              		.loc 5 111 10
 299 0028 FB68     		ldr	r3, [r7, #12]
 300              		.loc 5 112 1
 301 002a 1846     		mov	r0, r3
 302 002c 1037     		adds	r7, r7, #16
 303              		.cfi_def_cfa_offset 8
 304 002e BD46     		mov	sp, r7
 305              		.cfi_def_cfa_register 13
 306              		@ sp needed
 307 0030 80BD     		pop	{r7, pc}
 308              		.cfi_endproc
 309              	.LFE434:
 310              		.size	gptStart, .-gptStart
 311              		.section	.text.gptStop,"ax",%progbits
 312              		.align	1
 313              		.global	gptStop
 314              		.syntax unified
 315              		.thumb
 316              		.thumb_func
 317              		.type	gptStop, %function
 318              	gptStop:
 319              	.LFB435:
 320              		.loc 5 121 31
 321              		.cfi_startproc
 322              		@ args = 0, pretend = 0, frame = 8
 323              		@ frame_needed = 1, uses_anonymous_args = 0
 324 0000 80B5     		push	{r7, lr}
 325              		.cfi_def_cfa_offset 8
 326              		.cfi_offset 7, -8
 327              		.cfi_offset 14, -4
 328 0002 82B0     		sub	sp, sp, #8
 329              		.cfi_def_cfa_offset 16
 330 0004 00AF     		add	r7, sp, #0
 331              		.cfi_def_cfa_register 7
 332 0006 7860     		str	r0, [r7, #4]
 333              		.loc 5 125 3
 334 0008 FFF7FEFF 		bl	osalSysLock
 335              		.loc 5 130 3
 336 000c 7868     		ldr	r0, [r7, #4]
 337 000e FFF7FEFF 		bl	gpt_lld_stop
 338              		.loc 5 131 16
 339 0012 7B68     		ldr	r3, [r7, #4]
 340 0014 0022     		movs	r2, #0
 341 0016 5A60     		str	r2, [r3, #4]
 342              		.loc 5 132 16
ARM GAS  C:\Users\DEVELO~1\AppData\Local\Temp\ccW4vRdT.s 			page 7


 343 0018 7B68     		ldr	r3, [r7, #4]
 344 001a 0122     		movs	r2, #1
 345 001c 1A70     		strb	r2, [r3]
 346              		.loc 5 134 3
 347 001e FFF7FEFF 		bl	osalSysUnlock
 348              		.loc 5 135 1
 349 0022 00BF     		nop
 350 0024 0837     		adds	r7, r7, #8
 351              		.cfi_def_cfa_offset 8
 352 0026 BD46     		mov	sp, r7
 353              		.cfi_def_cfa_register 13
 354              		@ sp needed
 355 0028 80BD     		pop	{r7, pc}
 356              		.cfi_endproc
 357              	.LFE435:
 358              		.size	gptStop, .-gptStop
 359              		.section	.text.gptChangeInterval,"ax",%progbits
 360              		.align	1
 361              		.global	gptChangeInterval
 362              		.syntax unified
 363              		.thumb
 364              		.thumb_func
 365              		.type	gptChangeInterval, %function
 366              	gptChangeInterval:
 367              	.LFB436:
 368              		.loc 5 148 60
 369              		.cfi_startproc
 370              		@ args = 0, pretend = 0, frame = 8
 371              		@ frame_needed = 1, uses_anonymous_args = 0
 372 0000 80B5     		push	{r7, lr}
 373              		.cfi_def_cfa_offset 8
 374              		.cfi_offset 7, -8
 375              		.cfi_offset 14, -4
 376 0002 82B0     		sub	sp, sp, #8
 377              		.cfi_def_cfa_offset 16
 378 0004 00AF     		add	r7, sp, #0
 379              		.cfi_def_cfa_register 7
 380 0006 7860     		str	r0, [r7, #4]
 381 0008 3960     		str	r1, [r7]
 382              		.loc 5 152 3
 383 000a FFF7FEFF 		bl	osalSysLock
 384              		.loc 5 155 3
 385 000e 7B68     		ldr	r3, [r7, #4]
 386 0010 DB68     		ldr	r3, [r3, #12]
 387 0012 3A68     		ldr	r2, [r7]
 388 0014 013A     		subs	r2, r2, #1
 389 0016 DA62     		str	r2, [r3, #44]
 390              		.loc 5 156 3
 391 0018 FFF7FEFF 		bl	osalSysUnlock
 392              		.loc 5 157 1
 393 001c 00BF     		nop
 394 001e 0837     		adds	r7, r7, #8
 395              		.cfi_def_cfa_offset 8
 396 0020 BD46     		mov	sp, r7
 397              		.cfi_def_cfa_register 13
 398              		@ sp needed
 399 0022 80BD     		pop	{r7, pc}
ARM GAS  C:\Users\DEVELO~1\AppData\Local\Temp\ccW4vRdT.s 			page 8


 400              		.cfi_endproc
 401              	.LFE436:
 402              		.size	gptChangeInterval, .-gptChangeInterval
 403              		.section	.text.gptStartContinuous,"ax",%progbits
 404              		.align	1
 405              		.global	gptStartContinuous
 406              		.syntax unified
 407              		.thumb
 408              		.thumb_func
 409              		.type	gptStartContinuous, %function
 410              	gptStartContinuous:
 411              	.LFB437:
 412              		.loc 5 167 61
 413              		.cfi_startproc
 414              		@ args = 0, pretend = 0, frame = 8
 415              		@ frame_needed = 1, uses_anonymous_args = 0
 416 0000 80B5     		push	{r7, lr}
 417              		.cfi_def_cfa_offset 8
 418              		.cfi_offset 7, -8
 419              		.cfi_offset 14, -4
 420 0002 82B0     		sub	sp, sp, #8
 421              		.cfi_def_cfa_offset 16
 422 0004 00AF     		add	r7, sp, #0
 423              		.cfi_def_cfa_register 7
 424 0006 7860     		str	r0, [r7, #4]
 425 0008 3960     		str	r1, [r7]
 426              		.loc 5 169 3
 427 000a FFF7FEFF 		bl	osalSysLock
 428              		.loc 5 170 3
 429 000e 3968     		ldr	r1, [r7]
 430 0010 7868     		ldr	r0, [r7, #4]
 431 0012 FFF7FEFF 		bl	gptStartContinuousI
 432              		.loc 5 171 3
 433 0016 FFF7FEFF 		bl	osalSysUnlock
 434              		.loc 5 172 1
 435 001a 00BF     		nop
 436 001c 0837     		adds	r7, r7, #8
 437              		.cfi_def_cfa_offset 8
 438 001e BD46     		mov	sp, r7
 439              		.cfi_def_cfa_register 13
 440              		@ sp needed
 441 0020 80BD     		pop	{r7, pc}
 442              		.cfi_endproc
 443              	.LFE437:
 444              		.size	gptStartContinuous, .-gptStartContinuous
 445              		.section	.text.gptStartContinuousI,"ax",%progbits
 446              		.align	1
 447              		.global	gptStartContinuousI
 448              		.syntax unified
 449              		.thumb
 450              		.thumb_func
 451              		.type	gptStartContinuousI, %function
 452              	gptStartContinuousI:
 453              	.LFB438:
 454              		.loc 5 182 62
 455              		.cfi_startproc
 456              		@ args = 0, pretend = 0, frame = 8
ARM GAS  C:\Users\DEVELO~1\AppData\Local\Temp\ccW4vRdT.s 			page 9


 457              		@ frame_needed = 1, uses_anonymous_args = 0
 458 0000 80B5     		push	{r7, lr}
 459              		.cfi_def_cfa_offset 8
 460              		.cfi_offset 7, -8
 461              		.cfi_offset 14, -4
 462 0002 82B0     		sub	sp, sp, #8
 463              		.cfi_def_cfa_offset 16
 464 0004 00AF     		add	r7, sp, #0
 465              		.cfi_def_cfa_register 7
 466 0006 7860     		str	r0, [r7, #4]
 467 0008 3960     		str	r1, [r7]
 468              		.loc 5 189 15
 469 000a 7B68     		ldr	r3, [r7, #4]
 470 000c 0322     		movs	r2, #3
 471 000e 1A70     		strb	r2, [r3]
 472              		.loc 5 190 3
 473 0010 3968     		ldr	r1, [r7]
 474 0012 7868     		ldr	r0, [r7, #4]
 475 0014 FFF7FEFF 		bl	gpt_lld_start_timer
 476              		.loc 5 191 1
 477 0018 00BF     		nop
 478 001a 0837     		adds	r7, r7, #8
 479              		.cfi_def_cfa_offset 8
 480 001c BD46     		mov	sp, r7
 481              		.cfi_def_cfa_register 13
 482              		@ sp needed
 483 001e 80BD     		pop	{r7, pc}
 484              		.cfi_endproc
 485              	.LFE438:
 486              		.size	gptStartContinuousI, .-gptStartContinuousI
 487              		.section	.text.gptStartOneShot,"ax",%progbits
 488              		.align	1
 489              		.global	gptStartOneShot
 490              		.syntax unified
 491              		.thumb
 492              		.thumb_func
 493              		.type	gptStartOneShot, %function
 494              	gptStartOneShot:
 495              	.LFB439:
 496              		.loc 5 201 58
 497              		.cfi_startproc
 498              		@ args = 0, pretend = 0, frame = 8
 499              		@ frame_needed = 1, uses_anonymous_args = 0
 500 0000 80B5     		push	{r7, lr}
 501              		.cfi_def_cfa_offset 8
 502              		.cfi_offset 7, -8
 503              		.cfi_offset 14, -4
 504 0002 82B0     		sub	sp, sp, #8
 505              		.cfi_def_cfa_offset 16
 506 0004 00AF     		add	r7, sp, #0
 507              		.cfi_def_cfa_register 7
 508 0006 7860     		str	r0, [r7, #4]
 509 0008 3960     		str	r1, [r7]
 510              		.loc 5 203 3
 511 000a FFF7FEFF 		bl	osalSysLock
 512              		.loc 5 204 3
 513 000e 3968     		ldr	r1, [r7]
ARM GAS  C:\Users\DEVELO~1\AppData\Local\Temp\ccW4vRdT.s 			page 10


 514 0010 7868     		ldr	r0, [r7, #4]
 515 0012 FFF7FEFF 		bl	gptStartOneShotI
 516              		.loc 5 205 3
 517 0016 FFF7FEFF 		bl	osalSysUnlock
 518              		.loc 5 206 1
 519 001a 00BF     		nop
 520 001c 0837     		adds	r7, r7, #8
 521              		.cfi_def_cfa_offset 8
 522 001e BD46     		mov	sp, r7
 523              		.cfi_def_cfa_register 13
 524              		@ sp needed
 525 0020 80BD     		pop	{r7, pc}
 526              		.cfi_endproc
 527              	.LFE439:
 528              		.size	gptStartOneShot, .-gptStartOneShot
 529              		.section	.text.gptStartOneShotI,"ax",%progbits
 530              		.align	1
 531              		.global	gptStartOneShotI
 532              		.syntax unified
 533              		.thumb
 534              		.thumb_func
 535              		.type	gptStartOneShotI, %function
 536              	gptStartOneShotI:
 537              	.LFB440:
 538              		.loc 5 216 59
 539              		.cfi_startproc
 540              		@ args = 0, pretend = 0, frame = 8
 541              		@ frame_needed = 1, uses_anonymous_args = 0
 542 0000 80B5     		push	{r7, lr}
 543              		.cfi_def_cfa_offset 8
 544              		.cfi_offset 7, -8
 545              		.cfi_offset 14, -4
 546 0002 82B0     		sub	sp, sp, #8
 547              		.cfi_def_cfa_offset 16
 548 0004 00AF     		add	r7, sp, #0
 549              		.cfi_def_cfa_register 7
 550 0006 7860     		str	r0, [r7, #4]
 551 0008 3960     		str	r1, [r7]
 552              		.loc 5 224 15
 553 000a 7B68     		ldr	r3, [r7, #4]
 554 000c 0422     		movs	r2, #4
 555 000e 1A70     		strb	r2, [r3]
 556              		.loc 5 225 3
 557 0010 3968     		ldr	r1, [r7]
 558 0012 7868     		ldr	r0, [r7, #4]
 559 0014 FFF7FEFF 		bl	gpt_lld_start_timer
 560              		.loc 5 226 1
 561 0018 00BF     		nop
 562 001a 0837     		adds	r7, r7, #8
 563              		.cfi_def_cfa_offset 8
 564 001c BD46     		mov	sp, r7
 565              		.cfi_def_cfa_register 13
 566              		@ sp needed
 567 001e 80BD     		pop	{r7, pc}
 568              		.cfi_endproc
 569              	.LFE440:
 570              		.size	gptStartOneShotI, .-gptStartOneShotI
ARM GAS  C:\Users\DEVELO~1\AppData\Local\Temp\ccW4vRdT.s 			page 11


 571              		.section	.text.gptStopTimer,"ax",%progbits
 572              		.align	1
 573              		.global	gptStopTimer
 574              		.syntax unified
 575              		.thumb
 576              		.thumb_func
 577              		.type	gptStopTimer, %function
 578              	gptStopTimer:
 579              	.LFB441:
 580              		.loc 5 235 36
 581              		.cfi_startproc
 582              		@ args = 0, pretend = 0, frame = 8
 583              		@ frame_needed = 1, uses_anonymous_args = 0
 584 0000 80B5     		push	{r7, lr}
 585              		.cfi_def_cfa_offset 8
 586              		.cfi_offset 7, -8
 587              		.cfi_offset 14, -4
 588 0002 82B0     		sub	sp, sp, #8
 589              		.cfi_def_cfa_offset 16
 590 0004 00AF     		add	r7, sp, #0
 591              		.cfi_def_cfa_register 7
 592 0006 7860     		str	r0, [r7, #4]
 593              		.loc 5 237 3
 594 0008 FFF7FEFF 		bl	osalSysLock
 595              		.loc 5 238 3
 596 000c 7868     		ldr	r0, [r7, #4]
 597 000e FFF7FEFF 		bl	gptStopTimerI
 598              		.loc 5 239 3
 599 0012 FFF7FEFF 		bl	osalSysUnlock
 600              		.loc 5 240 1
 601 0016 00BF     		nop
 602 0018 0837     		adds	r7, r7, #8
 603              		.cfi_def_cfa_offset 8
 604 001a BD46     		mov	sp, r7
 605              		.cfi_def_cfa_register 13
 606              		@ sp needed
 607 001c 80BD     		pop	{r7, pc}
 608              		.cfi_endproc
 609              	.LFE441:
 610              		.size	gptStopTimer, .-gptStopTimer
 611              		.section	.text.gptStopTimerI,"ax",%progbits
 612              		.align	1
 613              		.global	gptStopTimerI
 614              		.syntax unified
 615              		.thumb
 616              		.thumb_func
 617              		.type	gptStopTimerI, %function
 618              	gptStopTimerI:
 619              	.LFB442:
 620              		.loc 5 249 37
 621              		.cfi_startproc
 622              		@ args = 0, pretend = 0, frame = 8
 623              		@ frame_needed = 1, uses_anonymous_args = 0
 624 0000 80B5     		push	{r7, lr}
 625              		.cfi_def_cfa_offset 8
 626              		.cfi_offset 7, -8
 627              		.cfi_offset 14, -4
ARM GAS  C:\Users\DEVELO~1\AppData\Local\Temp\ccW4vRdT.s 			page 12


 628 0002 82B0     		sub	sp, sp, #8
 629              		.cfi_def_cfa_offset 16
 630 0004 00AF     		add	r7, sp, #0
 631              		.cfi_def_cfa_register 7
 632 0006 7860     		str	r0, [r7, #4]
 633              		.loc 5 257 15
 634 0008 7B68     		ldr	r3, [r7, #4]
 635 000a 0222     		movs	r2, #2
 636 000c 1A70     		strb	r2, [r3]
 637              		.loc 5 258 3
 638 000e 7868     		ldr	r0, [r7, #4]
 639 0010 FFF7FEFF 		bl	gpt_lld_stop_timer
 640              		.loc 5 259 1
 641 0014 00BF     		nop
 642 0016 0837     		adds	r7, r7, #8
 643              		.cfi_def_cfa_offset 8
 644 0018 BD46     		mov	sp, r7
 645              		.cfi_def_cfa_register 13
 646              		@ sp needed
 647 001a 80BD     		pop	{r7, pc}
 648              		.cfi_endproc
 649              	.LFE442:
 650              		.size	gptStopTimerI, .-gptStopTimerI
 651              		.section	.text.gptPolledDelay,"ax",%progbits
 652              		.align	1
 653              		.global	gptPolledDelay
 654              		.syntax unified
 655              		.thumb
 656              		.thumb_func
 657              		.type	gptPolledDelay, %function
 658              	gptPolledDelay:
 659              	.LFB443:
 660              		.loc 5 273 57
 661              		.cfi_startproc
 662              		@ args = 0, pretend = 0, frame = 8
 663              		@ frame_needed = 1, uses_anonymous_args = 0
 664 0000 80B5     		push	{r7, lr}
 665              		.cfi_def_cfa_offset 8
 666              		.cfi_offset 7, -8
 667              		.cfi_offset 14, -4
 668 0002 82B0     		sub	sp, sp, #8
 669              		.cfi_def_cfa_offset 16
 670 0004 00AF     		add	r7, sp, #0
 671              		.cfi_def_cfa_register 7
 672 0006 7860     		str	r0, [r7, #4]
 673 0008 3960     		str	r1, [r7]
 674              		.loc 5 278 15
 675 000a 7B68     		ldr	r3, [r7, #4]
 676 000c 0422     		movs	r2, #4
 677 000e 1A70     		strb	r2, [r3]
 678              		.loc 5 279 3
 679 0010 3968     		ldr	r1, [r7]
 680 0012 7868     		ldr	r0, [r7, #4]
 681 0014 FFF7FEFF 		bl	gpt_lld_polled_delay
 682              		.loc 5 280 15
 683 0018 7B68     		ldr	r3, [r7, #4]
 684 001a 0222     		movs	r2, #2
ARM GAS  C:\Users\DEVELO~1\AppData\Local\Temp\ccW4vRdT.s 			page 13


 685 001c 1A70     		strb	r2, [r3]
 686              		.loc 5 281 1
 687 001e 00BF     		nop
 688 0020 0837     		adds	r7, r7, #8
 689              		.cfi_def_cfa_offset 8
 690 0022 BD46     		mov	sp, r7
 691              		.cfi_def_cfa_register 13
 692              		@ sp needed
 693 0024 80BD     		pop	{r7, pc}
 694              		.cfi_endproc
 695              	.LFE443:
 696              		.size	gptPolledDelay, .-gptPolledDelay
 697              		.text
 698              	.Letext0:
 699              		.file 6 "c:\\chibistudio\\tools\\gnu tools arm embedded\\11.3 2022.08\\arm-none-eabi\\include\\mac
 700              		.file 7 "c:\\chibistudio\\tools\\gnu tools arm embedded\\11.3 2022.08\\arm-none-eabi\\include\\sys
 701              		.file 8 "../../../os/rt/include/chearly.h"
 702              		.file 9 "../../../os/hal/ports/STM32/LLD/TIMv1/stm32_tim.h"
 703              		.file 10 "../../../os/hal/include/hal_gpt.h"
 704              		.file 11 "../../../os/hal/ports/STM32/LLD/TIMv1/hal_gpt_lld.h"