ARM GAS  C:\Users\DEVELO~1\AppData\Local\Temp\cc4ViyBo.s 			page 1


   1              		.cpu cortex-m7
   2              		.arch armv7e-m
   3              		.fpu softvfp
   4              		.eabi_attribute 20, 1
   5              		.eabi_attribute 21, 1
   6              		.eabi_attribute 23, 3
   7              		.eabi_attribute 24, 1
   8              		.eabi_attribute 25, 1
   9              		.eabi_attribute 26, 1
  10              		.eabi_attribute 30, 6
  11              		.eabi_attribute 34, 1
  12              		.eabi_attribute 18, 4
  13              		.file	"hal_buffered_serial.c"
  14              		.text
  15              	.Ltext0:
  16              		.cfi_sections	.debug_frame
  17              		.section	.text.osalEventBroadcastFlagsI,"ax",%progbits
  18              		.align	1
  19              		.syntax unified
  20              		.thumb
  21              		.thumb_func
  22              		.type	osalEventBroadcastFlagsI, %function
  23              	osalEventBroadcastFlagsI:
  24              	.LFB374:
  25              		.file 1 "../../../os/hal/osal/rt-nil/osal.h"
  26              		.loc 1 957 65
  27              		.cfi_startproc
  28              		@ args = 0, pretend = 0, frame = 8
  29              		@ frame_needed = 1, uses_anonymous_args = 0
  30 0000 80B5     		push	{r7, lr}
  31              		.cfi_def_cfa_offset 8
  32              		.cfi_offset 7, -8
  33              		.cfi_offset 14, -4
  34 0002 82B0     		sub	sp, sp, #8
  35              		.cfi_def_cfa_offset 16
  36 0004 00AF     		add	r7, sp, #0
  37              		.cfi_def_cfa_register 7
  38 0006 7860     		str	r0, [r7, #4]
  39 0008 3960     		str	r1, [r7]
  40              		.loc 1 959 3
  41 000a 3968     		ldr	r1, [r7]
  42 000c 7868     		ldr	r0, [r7, #4]
  43 000e FFF7FEFF 		bl	chEvtBroadcastFlagsI
  44              		.loc 1 960 1
  45 0012 00BF     		nop
  46 0014 0837     		adds	r7, r7, #8
  47              		.cfi_def_cfa_offset 8
  48 0016 BD46     		mov	sp, r7
  49              		.cfi_def_cfa_register 13
  50              		@ sp needed
  51 0018 80BD     		pop	{r7, pc}
  52              		.cfi_endproc
  53              	.LFE374:
  54              		.size	osalEventBroadcastFlagsI, .-osalEventBroadcastFlagsI
  55              		.section	.text.bsIncomingDataI,"ax",%progbits
  56              		.align	1
  57              		.global	bsIncomingDataI
ARM GAS  C:\Users\DEVELO~1\AppData\Local\Temp\cc4ViyBo.s 			page 2


  58              		.syntax unified
  59              		.thumb
  60              		.thumb_func
  61              		.type	bsIncomingDataI, %function
  62              	bsIncomingDataI:
  63              	.LFB432:
  64              		.file 2 "../../../os/hal/src/hal_buffered_serial.c"
  65              		.loc 2 60 54
  66              		.cfi_startproc
  67              		@ args = 0, pretend = 0, frame = 8
  68              		@ frame_needed = 1, uses_anonymous_args = 0
  69 0000 80B5     		push	{r7, lr}
  70              		.cfi_def_cfa_offset 8
  71              		.cfi_offset 7, -8
  72              		.cfi_offset 14, -4
  73 0002 82B0     		sub	sp, sp, #8
  74              		.cfi_def_cfa_offset 16
  75 0004 00AF     		add	r7, sp, #0
  76              		.cfi_def_cfa_register 7
  77 0006 7860     		str	r0, [r7, #4]
  78 0008 0B46     		mov	r3, r1
  79 000a FB70     		strb	r3, [r7, #3]
  80              		.loc 2 65 7
  81 000c 7B68     		ldr	r3, [r7, #4]
  82 000e 5B69     		ldr	r3, [r3, #20]
  83              		.loc 2 65 6
  84 0010 002B     		cmp	r3, #0
  85 0012 05D1     		bne	.L3
  86              		.loc 2 66 5
  87 0014 7B68     		ldr	r3, [r7, #4]
  88 0016 0433     		adds	r3, r3, #4
  89 0018 0421     		movs	r1, #4
  90 001a 1846     		mov	r0, r3
  91 001c FFF7FEFF 		bl	osalEventBroadcastFlagsI
  92              	.L3:
  93              		.loc 2 69 7
  94 0020 7B68     		ldr	r3, [r7, #4]
  95 0022 0C33     		adds	r3, r3, #12
  96 0024 FA78     		ldrb	r2, [r7, #3]	@ zero_extendqisi2
  97 0026 1146     		mov	r1, r2
  98 0028 1846     		mov	r0, r3
  99 002a FFF7FEFF 		bl	iqPutI
 100 002e 0346     		mov	r3, r0
 101              		.loc 2 69 6
 102 0030 002B     		cmp	r3, #0
 103 0032 06DA     		bge	.L5
 104              		.loc 2 70 5
 105 0034 7B68     		ldr	r3, [r7, #4]
 106 0036 0433     		adds	r3, r3, #4
 107 0038 4FF40061 		mov	r1, #2048
 108 003c 1846     		mov	r0, r3
 109 003e FFF7FEFF 		bl	osalEventBroadcastFlagsI
 110              	.L5:
 111              		.loc 2 72 1
 112 0042 00BF     		nop
 113 0044 0837     		adds	r7, r7, #8
 114              		.cfi_def_cfa_offset 8
ARM GAS  C:\Users\DEVELO~1\AppData\Local\Temp\cc4ViyBo.s 			page 3


 115 0046 BD46     		mov	sp, r7
 116              		.cfi_def_cfa_register 13
 117              		@ sp needed
 118 0048 80BD     		pop	{r7, pc}
 119              		.cfi_endproc
 120              	.LFE432:
 121              		.size	bsIncomingDataI, .-bsIncomingDataI
 122              		.section	.text.bsRequestDataI,"ax",%progbits
 123              		.align	1
 124              		.global	bsRequestDataI
 125              		.syntax unified
 126              		.thumb
 127              		.thumb_func
 128              		.type	bsRequestDataI, %function
 129              	bsRequestDataI:
 130              	.LFB433:
 131              		.loc 2 88 43
 132              		.cfi_startproc
 133              		@ args = 0, pretend = 0, frame = 16
 134              		@ frame_needed = 1, uses_anonymous_args = 0
 135 0000 80B5     		push	{r7, lr}
 136              		.cfi_def_cfa_offset 8
 137              		.cfi_offset 7, -8
 138              		.cfi_offset 14, -4
 139 0002 84B0     		sub	sp, sp, #16
 140              		.cfi_def_cfa_offset 24
 141 0004 00AF     		add	r7, sp, #0
 142              		.cfi_def_cfa_register 7
 143 0006 7860     		str	r0, [r7, #4]
 144              		.loc 2 94 7
 145 0008 7B68     		ldr	r3, [r7, #4]
 146 000a 3033     		adds	r3, r3, #48
 147 000c 1846     		mov	r0, r3
 148 000e FFF7FEFF 		bl	oqGetI
 149 0012 F860     		str	r0, [r7, #12]
 150              		.loc 2 95 6
 151 0014 FB68     		ldr	r3, [r7, #12]
 152 0016 002B     		cmp	r3, #0
 153 0018 05DA     		bge	.L7
 154              		.loc 2 96 5
 155 001a 7B68     		ldr	r3, [r7, #4]
 156 001c 0433     		adds	r3, r3, #4
 157 001e 0821     		movs	r1, #8
 158 0020 1846     		mov	r0, r3
 159 0022 FFF7FEFF 		bl	osalEventBroadcastFlagsI
 160              	.L7:
 161              		.loc 2 99 10
 162 0026 FB68     		ldr	r3, [r7, #12]
 163              		.loc 2 100 1
 164 0028 1846     		mov	r0, r3
 165 002a 1037     		adds	r7, r7, #16
 166              		.cfi_def_cfa_offset 8
 167 002c BD46     		mov	sp, r7
 168              		.cfi_def_cfa_register 13
 169              		@ sp needed
 170 002e 80BD     		pop	{r7, pc}
 171              		.cfi_endproc
ARM GAS  C:\Users\DEVELO~1\AppData\Local\Temp\cc4ViyBo.s 			page 4


 172              	.LFE433:
 173              		.size	bsRequestDataI, .-bsRequestDataI
 174              		.text
 175              	.Letext0:
 176              		.file 3 "c:\\chibistudio\\tools\\gnu tools arm embedded\\11.3 2022.08\\lib\\gcc\\arm-none-eabi\\11
 177              		.file 4 "c:\\chibistudio\\tools\\gnu tools arm embedded\\11.3 2022.08\\arm-none-eabi\\include\\mac
 178              		.file 5 "c:\\chibistudio\\tools\\gnu tools arm embedded\\11.3 2022.08\\arm-none-eabi\\include\\sys
 179              		.file 6 "../../../os/common/ports/ARM-common/chtypes.h"
 180              		.file 7 "../../../os/rt/include/chearly.h"
 181              		.file 8 "../../../os/rt/include/chobjects.h"
 182              		.file 9 "../../../os/rt/include/chrfcu.h"
 183              		.file 10 "../../../os/rt/include/chdebug.h"
 184              		.file 11 "../../../os/rt/include/chtime.h"
 185              		.file 12 "../../../os/rt/include/chlists.h"
 186              		.file 13 "../../../os/rt/include/chtrace.h"
 187              		.file 14 "../../../os/common/ports/ARMv7-M/chcore.h"
 188              		.file 15 "../../../os/rt/include/chsem.h"
 189              		.file 16 "../../../os/rt/include/chmtx.h"
 190              		.file 17 "../../../os/rt/include/chevents.h"
 191              		.file 18 "../../../os/hal/include/hal_queues.h"
 192              		.file 19 "../../../os/hal/include/hal_buffered_serial.h"
 193              		.section	.debug_info,"",%progbits
 194              	.Ldebug_info0:
 195 0000 A70D0000 		.4byte	0xda7
 196 0004 0500     		.2byte	0x5
 197 0006 01       		.byte	0x1
 198 0007 04       		.byte	0x4
 199 0008 00000000 		.4byte	.Ldebug_abbrev0
 200 000c 1B       		.uleb128 0x1b
 201 000d 18010000 		.4byte	.LASF166
 202 0011 1D       		.byte	0x1d
 203 0012 7F050000 		.4byte	.LASF167
 204 0016 F4020000 		.4byte	.LASF168
 205 001a 0C000000 		.4byte	.LLRL0
 206 001e 00000000 		.4byte	0
 207 0022 00000000 		.4byte	.Ldebug_line0
 208 0026 1C       		.uleb128 0x1c
 209 0027 04       		.byte	0x4
 210 0028 05       		.byte	0x5
 211 0029 696E7400 		.ascii	"int\000"
 212 002d 02       		.uleb128 0x2
 213 002e 1C000000 		.4byte	.LASF4
 214 0032 03       		.byte	0x3
 215 0033 D1       		.byte	0xd1
 216 0034 17       		.byte	0x17
 217 0035 3E000000 		.4byte	0x3e
 218 0039 10       		.uleb128 0x10
 219 003a 2D000000 		.4byte	0x2d
 220 003e 08       		.uleb128 0x8
 221 003f 04       		.byte	0x4
 222 0040 07       		.byte	0x7
 223 0041 91020000 		.4byte	.LASF0
 224 0045 08       		.uleb128 0x8
 225 0046 08       		.byte	0x8
 226 0047 05       		.byte	0x5
 227 0048 C7000000 		.4byte	.LASF1
 228 004c 08       		.uleb128 0x8
ARM GAS  C:\Users\DEVELO~1\AppData\Local\Temp\cc4ViyBo.s 			page 5


 229 004d 08       		.byte	0x8
 230 004e 04       		.byte	0x4
 231 004f 59060000 		.4byte	.LASF2
 232 0053 08       		.uleb128 0x8
 233 0054 01       		.byte	0x1
 234 0055 06       		.byte	0x6
 235 0056 D5000000 		.4byte	.LASF3
 236 005a 02       		.uleb128 0x2
 237 005b 35000000 		.4byte	.LASF5
 238 005f 04       		.byte	0x4
 239 0060 2B       		.byte	0x2b
 240 0061 18       		.byte	0x18
 241 0062 66000000 		.4byte	0x66
 242 0066 08       		.uleb128 0x8
 243 0067 01       		.byte	0x1
 244 0068 08       		.byte	0x8
 245 0069 6A050000 		.4byte	.LASF6
 246 006d 08       		.uleb128 0x8
 247 006e 02       		.byte	0x2
 248 006f 05       		.byte	0x5
 249 0070 DF030000 		.4byte	.LASF7
 250 0074 02       		.uleb128 0x2
 251 0075 78060000 		.4byte	.LASF8
 252 0079 04       		.byte	0x4
 253 007a 39       		.byte	0x39
 254 007b 19       		.byte	0x19
 255 007c 80000000 		.4byte	0x80
 256 0080 08       		.uleb128 0x8
 257 0081 02       		.byte	0x2
 258 0082 07       		.byte	0x7
 259 0083 74030000 		.4byte	.LASF9
 260 0087 02       		.uleb128 0x2
 261 0088 E9030000 		.4byte	.LASF10
 262 008c 04       		.byte	0x4
 263 008d 4D       		.byte	0x4d
 264 008e 18       		.byte	0x18
 265 008f 93000000 		.4byte	0x93
 266 0093 08       		.uleb128 0x8
 267 0094 04       		.byte	0x4
 268 0095 05       		.byte	0x5
 269 0096 B1010000 		.4byte	.LASF11
 270 009a 02       		.uleb128 0x2
 271 009b 24020000 		.4byte	.LASF12
 272 009f 04       		.byte	0x4
 273 00a0 4F       		.byte	0x4f
 274 00a1 19       		.byte	0x19
 275 00a2 A6000000 		.4byte	0xa6
 276 00a6 08       		.uleb128 0x8
 277 00a7 04       		.byte	0x4
 278 00a8 07       		.byte	0x7
 279 00a9 E1000000 		.4byte	.LASF13
 280 00ad 02       		.uleb128 0x2
 281 00ae 10050000 		.4byte	.LASF14
 282 00b2 04       		.byte	0x4
 283 00b3 69       		.byte	0x69
 284 00b4 19       		.byte	0x19
 285 00b5 B9000000 		.4byte	0xb9
ARM GAS  C:\Users\DEVELO~1\AppData\Local\Temp\cc4ViyBo.s 			page 6


 286 00b9 08       		.uleb128 0x8
 287 00ba 08       		.byte	0x8
 288 00bb 07       		.byte	0x7
 289 00bc 01010000 		.4byte	.LASF15
 290 00c0 02       		.uleb128 0x2
 291 00c1 76070000 		.4byte	.LASF16
 292 00c5 05       		.byte	0x5
 293 00c6 18       		.byte	0x18
 294 00c7 13       		.byte	0x13
 295 00c8 5A000000 		.4byte	0x5a
 296 00cc 0C       		.uleb128 0xc
 297 00cd C0000000 		.4byte	0xc0
 298 00d1 02       		.uleb128 0x2
 299 00d2 DD010000 		.4byte	.LASF17
 300 00d6 05       		.byte	0x5
 301 00d7 24       		.byte	0x24
 302 00d8 14       		.byte	0x14
 303 00d9 74000000 		.4byte	0x74
 304 00dd 02       		.uleb128 0x2
 305 00de 62050000 		.4byte	.LASF18
 306 00e2 05       		.byte	0x5
 307 00e3 2C       		.byte	0x2c
 308 00e4 13       		.byte	0x13
 309 00e5 87000000 		.4byte	0x87
 310 00e9 02       		.uleb128 0x2
 311 00ea 11060000 		.4byte	.LASF19
 312 00ee 05       		.byte	0x5
 313 00ef 30       		.byte	0x30
 314 00f0 14       		.byte	0x14
 315 00f1 9A000000 		.4byte	0x9a
 316 00f5 02       		.uleb128 0x2
 317 00f6 A7040000 		.4byte	.LASF20
 318 00fa 05       		.byte	0x5
 319 00fb 3C       		.byte	0x3c
 320 00fc 14       		.byte	0x14
 321 00fd AD000000 		.4byte	0xad
 322 0101 10       		.uleb128 0x10
 323 0102 F5000000 		.4byte	0xf5
 324 0106 02       		.uleb128 0x2
 325 0107 3A060000 		.4byte	.LASF21
 326 010b 06       		.byte	0x6
 327 010c 48       		.byte	0x48
 328 010d 1D       		.byte	0x1d
 329 010e F5000000 		.4byte	0xf5
 330 0112 02       		.uleb128 0x2
 331 0113 09040000 		.4byte	.LASF22
 332 0117 07       		.byte	0x7
 333 0118 50       		.byte	0x50
 334 0119 19       		.byte	0x19
 335 011a 06010000 		.4byte	0x106
 336 011e 02       		.uleb128 0x2
 337 011f B4030000 		.4byte	.LASF23
 338 0123 07       		.byte	0x7
 339 0124 53       		.byte	0x53
 340 0125 19       		.byte	0x19
 341 0126 C0000000 		.4byte	0xc0
 342 012a 02       		.uleb128 0x2
ARM GAS  C:\Users\DEVELO~1\AppData\Local\Temp\cc4ViyBo.s 			page 7


 343 012b BA010000 		.4byte	.LASF24
 344 012f 07       		.byte	0x7
 345 0130 54       		.byte	0x54
 346 0131 19       		.byte	0x19
 347 0132 C0000000 		.4byte	0xc0
 348 0136 02       		.uleb128 0x2
 349 0137 25050000 		.4byte	.LASF25
 350 013b 07       		.byte	0x7
 351 013c 55       		.byte	0x55
 352 013d 19       		.byte	0x19
 353 013e C0000000 		.4byte	0xc0
 354 0142 02       		.uleb128 0x2
 355 0143 3C050000 		.4byte	.LASF26
 356 0147 07       		.byte	0x7
 357 0148 57       		.byte	0x57
 358 0149 19       		.byte	0x19
 359 014a E9000000 		.4byte	0xe9
 360 014e 02       		.uleb128 0x2
 361 014f 9E030000 		.4byte	.LASF27
 362 0153 07       		.byte	0x7
 363 0154 58       		.byte	0x58
 364 0155 19       		.byte	0x19
 365 0156 DD000000 		.4byte	0xdd
 366 015a 02       		.uleb128 0x2
 367 015b D3030000 		.4byte	.LASF28
 368 015f 07       		.byte	0x7
 369 0160 5A       		.byte	0x5a
 370 0161 19       		.byte	0x19
 371 0162 E9000000 		.4byte	0xe9
 372 0166 02       		.uleb128 0x2
 373 0167 91030000 		.4byte	.LASF29
 374 016b 07       		.byte	0x7
 375 016c 5B       		.byte	0x5b
 376 016d 19       		.byte	0x19
 377 016e E9000000 		.4byte	0xe9
 378 0172 02       		.uleb128 0x2
 379 0173 82020000 		.4byte	.LASF30
 380 0177 07       		.byte	0x7
 381 0178 5C       		.byte	0x5c
 382 0179 19       		.byte	0x19
 383 017a DD000000 		.4byte	0xdd
 384 017e 02       		.uleb128 0x2
 385 017f 1B050000 		.4byte	.LASF31
 386 0183 07       		.byte	0x7
 387 0184 80       		.byte	0x80
 388 0185 12       		.byte	0x12
 389 0186 3E000000 		.4byte	0x3e
 390 018a 02       		.uleb128 0x2
 391 018b 83060000 		.4byte	.LASF32
 392 018f 07       		.byte	0x7
 393 0190 85       		.byte	0x85
 394 0191 1A       		.byte	0x1a
 395 0192 96010000 		.4byte	0x196
 396 0196 06       		.uleb128 0x6
 397 0197 87030000 		.4byte	.LASF47
 398 019b 48       		.byte	0x48
 399 019c 08       		.byte	0x8
ARM GAS  C:\Users\DEVELO~1\AppData\Local\Temp\cc4ViyBo.s 			page 8


 400 019d 9C       		.byte	0x9c
 401 019e 08       		.byte	0x8
 402 019f 73020000 		.4byte	0x273
 403 01a3 07       		.uleb128 0x7
 404 01a4 68647200 		.ascii	"hdr\000"
 405 01a8 08       		.byte	0x8
 406 01a9 AD       		.byte	0xad
 407 01aa 05       		.byte	0x5
 408 01ab 4A070000 		.4byte	0x74a
 409 01af 00       		.byte	0
 410 01b0 07       		.uleb128 0x7
 411 01b1 63747800 		.ascii	"ctx\000"
 412 01b5 08       		.byte	0x8
 413 01b6 B1       		.byte	0xb1
 414 01b7 21       		.byte	0x21
 415 01b8 8E060000 		.4byte	0x68e
 416 01bc 0C       		.byte	0xc
 417 01bd 01       		.uleb128 0x1
 418 01be D8020000 		.4byte	.LASF33
 419 01c2 08       		.byte	0x8
 420 01c3 B6       		.byte	0xb6
 421 01c4 21       		.byte	0x21
 422 01c5 B9030000 		.4byte	0x3b9
 423 01c9 10       		.byte	0x10
 424 01ca 01       		.uleb128 0x1
 425 01cb 4A060000 		.4byte	.LASF34
 426 01cf 08       		.byte	0x8
 427 01d0 BB       		.byte	0xbb
 428 01d1 22       		.byte	0x22
 429 01d2 4C080000 		.4byte	0x84c
 430 01d6 18       		.byte	0x18
 431 01d7 01       		.uleb128 0x1
 432 01d8 58030000 		.4byte	.LASF35
 433 01dc 08       		.byte	0x8
 434 01dd C0       		.byte	0xc0
 435 01de 22       		.byte	0x22
 436 01df 53030000 		.4byte	0x353
 437 01e3 1C       		.byte	0x1c
 438 01e4 01       		.uleb128 0x1
 439 01e5 65060000 		.4byte	.LASF36
 440 01e9 08       		.byte	0x8
 441 01ea C9       		.byte	0xc9
 442 01eb 22       		.byte	0x22
 443 01ec 51080000 		.4byte	0x851
 444 01f0 20       		.byte	0x20
 445 01f1 01       		.uleb128 0x1
 446 01f2 AB010000 		.4byte	.LASF37
 447 01f6 08       		.byte	0x8
 448 01f7 CE       		.byte	0xce
 449 01f8 21       		.byte	0x21
 450 01f9 2A010000 		.4byte	0x12a
 451 01fd 24       		.byte	0x24
 452 01fe 01       		.uleb128 0x1
 453 01ff 86070000 		.4byte	.LASF38
 454 0203 08       		.byte	0x8
 455 0204 D2       		.byte	0xd2
 456 0205 21       		.byte	0x21
ARM GAS  C:\Users\DEVELO~1\AppData\Local\Temp\cc4ViyBo.s 			page 9


 457 0206 1E010000 		.4byte	0x11e
 458 020a 25       		.byte	0x25
 459 020b 01       		.uleb128 0x1
 460 020c B8000000 		.4byte	.LASF39
 461 0210 08       		.byte	0x8
 462 0211 D7       		.byte	0xd7
 463 0212 21       		.byte	0x21
 464 0213 36010000 		.4byte	0x136
 465 0217 26       		.byte	0x26
 466 0218 09       		.uleb128 0x9
 467 0219 7500     		.ascii	"u\000"
 468 021b 08       		.byte	0x8
 469 021c 2801     		.2byte	0x128
 470 021e 21       		.byte	0x21
 471 021f 77070000 		.4byte	0x777
 472 0223 28       		.byte	0x28
 473 0224 05       		.uleb128 0x5
 474 0225 34020000 		.4byte	.LASF40
 475 0229 2D01     		.2byte	0x12d
 476 022b 21       		.byte	0x21
 477 022c 8D030000 		.4byte	0x38d
 478 0230 2C       		.byte	0x2c
 479 0231 05       		.uleb128 0x5
 480 0232 88020000 		.4byte	.LASF41
 481 0236 3301     		.2byte	0x133
 482 0238 21       		.byte	0x21
 483 0239 B9030000 		.4byte	0x3b9
 484 023d 30       		.byte	0x30
 485 023e 05       		.uleb128 0x5
 486 023f A4030000 		.4byte	.LASF42
 487 0243 3901     		.2byte	0x139
 488 0245 21       		.byte	0x21
 489 0246 5A010000 		.4byte	0x15a
 490 024a 38       		.byte	0x38
 491 024b 05       		.uleb128 0x5
 492 024c D1070000 		.4byte	.LASF43
 493 0250 4001     		.2byte	0x140
 494 0252 22       		.byte	0x22
 495 0253 47080000 		.4byte	0x847
 496 0257 3C       		.byte	0x3c
 497 0258 05       		.uleb128 0x5
 498 0259 50060000 		.4byte	.LASF44
 499 025d 4401     		.2byte	0x144
 500 025f 21       		.byte	0x21
 501 0260 42010000 		.4byte	0x142
 502 0264 40       		.byte	0x40
 503 0265 05       		.uleb128 0x5
 504 0266 63030000 		.4byte	.LASF45
 505 026a 4B01     		.2byte	0x14b
 506 026c 22       		.byte	0x22
 507 026d A6040000 		.4byte	0x4a6
 508 0271 44       		.byte	0x44
 509 0272 00       		.byte	0
 510 0273 02       		.uleb128 0x2
 511 0274 D7060000 		.4byte	.LASF46
 512 0278 07       		.byte	0x7
 513 0279 8A       		.byte	0x8a
ARM GAS  C:\Users\DEVELO~1\AppData\Local\Temp\cc4ViyBo.s 			page 10


 514 027a 1F       		.byte	0x1f
 515 027b 7F020000 		.4byte	0x27f
 516 027f 1D       		.uleb128 0x1d
 517 0280 C8060000 		.4byte	.LASF48
 518 0284 9008     		.2byte	0x890
 519 0286 08       		.byte	0x8
 520 0287 8A01     		.2byte	0x18a
 521 0289 08       		.byte	0x8
 522 028a 05030000 		.4byte	0x305
 523 028e 05       		.uleb128 0x5
 524 028f 63070000 		.4byte	.LASF49
 525 0293 8E01     		.2byte	0x18e
 526 0295 21       		.byte	0x21
 527 0296 7F080000 		.4byte	0x87f
 528 029a 00       		.byte	0
 529 029b 05       		.uleb128 0x5
 530 029c 50000000 		.4byte	.LASF50
 531 02a0 9201     		.2byte	0x192
 532 02a2 21       		.byte	0x21
 533 02a3 E4060000 		.4byte	0x6e4
 534 02a7 10       		.byte	0x10
 535 02a8 05       		.uleb128 0x5
 536 02a9 E5060000 		.4byte	.LASF51
 537 02ad 9901     		.2byte	0x199
 538 02af 21       		.byte	0x21
 539 02b0 0B070000 		.4byte	0x70b
 540 02b4 28       		.byte	0x28
 541 02b5 05       		.uleb128 0x5
 542 02b6 7A020000 		.4byte	.LASF52
 543 02ba 9E01     		.2byte	0x19e
 544 02bc 21       		.byte	0x21
 545 02bd 7E010000 		.4byte	0x17e
 546 02c1 30       		.byte	0x30
 547 02c2 05       		.uleb128 0x5
 548 02c3 2A000000 		.4byte	.LASF53
 549 02c7 A401     		.2byte	0x1a4
 550 02c9 21       		.byte	0x21
 551 02ca 2C030000 		.4byte	0x32c
 552 02ce 34       		.byte	0x34
 553 02cf 05       		.uleb128 0x5
 554 02d0 71060000 		.4byte	.LASF54
 555 02d4 A901     		.2byte	0x1a9
 556 02d6 22       		.byte	0x22
 557 02d7 EA080000 		.4byte	0x8ea
 558 02db 38       		.byte	0x38
 559 02dc 05       		.uleb128 0x5
 560 02dd 78000000 		.4byte	.LASF55
 561 02e1 AD01     		.2byte	0x1ad
 562 02e3 21       		.byte	0x21
 563 02e4 8A010000 		.4byte	0x18a
 564 02e8 3C       		.byte	0x3c
 565 02e9 09       		.uleb128 0x9
 566 02ea 64626700 		.ascii	"dbg\000"
 567 02ee 08       		.byte	0x8
 568 02ef B101     		.2byte	0x1b1
 569 02f1 21       		.byte	0x21
 570 02f2 69030000 		.4byte	0x369
ARM GAS  C:\Users\DEVELO~1\AppData\Local\Temp\cc4ViyBo.s 			page 11


 571 02f6 84       		.byte	0x84
 572 02f7 05       		.uleb128 0x5
 573 02f8 91070000 		.4byte	.LASF56
 574 02fc B601     		.2byte	0x1b6
 575 02fe 21       		.byte	0x21
 576 02ff FC050000 		.4byte	0x5fc
 577 0303 88       		.byte	0x88
 578 0304 00       		.byte	0
 579 0305 02       		.uleb128 0x2
 580 0306 4A040000 		.4byte	.LASF57
 581 030a 09       		.byte	0x9
 582 030b 3F       		.byte	0x3f
 583 030c 12       		.byte	0x12
 584 030d E9000000 		.4byte	0xe9
 585 0311 06       		.uleb128 0x6
 586 0312 C3010000 		.4byte	.LASF58
 587 0316 04       		.byte	0x4
 588 0317 09       		.byte	0x9
 589 0318 44       		.byte	0x44
 590 0319 10       		.byte	0x10
 591 031a 2C030000 		.4byte	0x32c
 592 031e 01       		.uleb128 0x1
 593 031f 2F020000 		.4byte	.LASF59
 594 0323 09       		.byte	0x9
 595 0324 48       		.byte	0x48
 596 0325 21       		.byte	0x21
 597 0326 05030000 		.4byte	0x305
 598 032a 00       		.byte	0
 599 032b 00       		.byte	0
 600 032c 02       		.uleb128 0x2
 601 032d 78050000 		.4byte	.LASF60
 602 0331 09       		.byte	0x9
 603 0332 49       		.byte	0x49
 604 0333 03       		.byte	0x3
 605 0334 11030000 		.4byte	0x311
 606 0338 06       		.uleb128 0x6
 607 0339 4C050000 		.4byte	.LASF61
 608 033d 04       		.byte	0x4
 609 033e 0A       		.byte	0xa
 610 033f 3E       		.byte	0x3e
 611 0340 10       		.byte	0x10
 612 0341 53030000 		.4byte	0x353
 613 0345 01       		.uleb128 0x1
 614 0346 B7060000 		.4byte	.LASF62
 615 034a 0A       		.byte	0xa
 616 034b 46       		.byte	0x46
 617 034c 24       		.byte	0x24
 618 034d 58030000 		.4byte	0x358
 619 0351 00       		.byte	0
 620 0352 00       		.byte	0
 621 0353 03       		.uleb128 0x3
 622 0354 64030000 		.4byte	0x364
 623 0358 10       		.uleb128 0x10
 624 0359 53030000 		.4byte	0x353
 625 035d 08       		.uleb128 0x8
 626 035e 01       		.byte	0x1
 627 035f 08       		.byte	0x8
ARM GAS  C:\Users\DEVELO~1\AppData\Local\Temp\cc4ViyBo.s 			page 12


 628 0360 6C060000 		.4byte	.LASF63
 629 0364 0C       		.uleb128 0xc
 630 0365 5D030000 		.4byte	0x35d
 631 0369 02       		.uleb128 0x2
 632 036a BC020000 		.4byte	.LASF64
 633 036e 0A       		.byte	0xa
 634 036f 51       		.byte	0x51
 635 0370 03       		.byte	0x3
 636 0371 38030000 		.4byte	0x338
 637 0375 02       		.uleb128 0x2
 638 0376 92060000 		.4byte	.LASF65
 639 037a 0B       		.byte	0xb
 640 037b 6D       		.byte	0x6d
 641 037c 12       		.byte	0x12
 642 037d E9000000 		.4byte	0xe9
 643 0381 02       		.uleb128 0x2
 644 0382 6C020000 		.4byte	.LASF66
 645 0386 0B       		.byte	0xb
 646 0387 79       		.byte	0x79
 647 0388 12       		.byte	0x12
 648 0389 E9000000 		.4byte	0xe9
 649 038d 02       		.uleb128 0x2
 650 038e 93040000 		.4byte	.LASF67
 651 0392 0C       		.byte	0xc
 652 0393 32       		.byte	0x32
 653 0394 18       		.byte	0x18
 654 0395 99030000 		.4byte	0x399
 655 0399 06       		.uleb128 0x6
 656 039a A3010000 		.4byte	.LASF68
 657 039e 04       		.byte	0x4
 658 039f 0C       		.byte	0xc
 659 03a0 38       		.byte	0x38
 660 03a1 08       		.byte	0x8
 661 03a2 B4030000 		.4byte	0x3b4
 662 03a6 01       		.uleb128 0x1
 663 03a7 9C000000 		.4byte	.LASF69
 664 03ab 0C       		.byte	0xc
 665 03ac 39       		.byte	0x39
 666 03ad 1A       		.byte	0x1a
 667 03ae B4030000 		.4byte	0x3b4
 668 03b2 00       		.byte	0
 669 03b3 00       		.byte	0
 670 03b4 03       		.uleb128 0x3
 671 03b5 8D030000 		.4byte	0x38d
 672 03b9 02       		.uleb128 0x2
 673 03ba DF020000 		.4byte	.LASF70
 674 03be 0C       		.byte	0xc
 675 03bf 3F       		.byte	0x3f
 676 03c0 19       		.byte	0x19
 677 03c1 C5030000 		.4byte	0x3c5
 678 03c5 06       		.uleb128 0x6
 679 03c6 CB010000 		.4byte	.LASF71
 680 03ca 08       		.byte	0x8
 681 03cb 0C       		.byte	0xc
 682 03cc 45       		.byte	0x45
 683 03cd 08       		.byte	0x8
 684 03ce ED030000 		.4byte	0x3ed
ARM GAS  C:\Users\DEVELO~1\AppData\Local\Temp\cc4ViyBo.s 			page 13


 685 03d2 01       		.uleb128 0x1
 686 03d3 9C000000 		.4byte	.LASF69
 687 03d7 0C       		.byte	0xc
 688 03d8 46       		.byte	0x46
 689 03d9 1A       		.byte	0x1a
 690 03da ED030000 		.4byte	0x3ed
 691 03de 00       		.byte	0
 692 03df 01       		.uleb128 0x1
 693 03e0 3F000000 		.4byte	.LASF72
 694 03e4 0C       		.byte	0xc
 695 03e5 47       		.byte	0x47
 696 03e6 1A       		.byte	0x1a
 697 03e7 ED030000 		.4byte	0x3ed
 698 03eb 04       		.byte	0x4
 699 03ec 00       		.byte	0
 700 03ed 03       		.uleb128 0x3
 701 03ee B9030000 		.4byte	0x3b9
 702 03f2 02       		.uleb128 0x2
 703 03f3 A3060000 		.4byte	.LASF73
 704 03f7 0C       		.byte	0xc
 705 03f8 4E       		.byte	0x4e
 706 03f9 22       		.byte	0x22
 707 03fa FE030000 		.4byte	0x3fe
 708 03fe 06       		.uleb128 0x6
 709 03ff ED060000 		.4byte	.LASF74
 710 0403 0C       		.byte	0xc
 711 0404 0C       		.byte	0xc
 712 0405 55       		.byte	0x55
 713 0406 08       		.byte	0x8
 714 0407 33040000 		.4byte	0x433
 715 040b 01       		.uleb128 0x1
 716 040c 9C000000 		.4byte	.LASF69
 717 0410 0C       		.byte	0xc
 718 0411 56       		.byte	0x56
 719 0412 1A       		.byte	0x1a
 720 0413 33040000 		.4byte	0x433
 721 0417 00       		.byte	0
 722 0418 01       		.uleb128 0x1
 723 0419 3F000000 		.4byte	.LASF72
 724 041d 0C       		.byte	0xc
 725 041e 57       		.byte	0x57
 726 041f 1A       		.byte	0x1a
 727 0420 33040000 		.4byte	0x433
 728 0424 04       		.byte	0x4
 729 0425 01       		.uleb128 0x1
 730 0426 03050000 		.4byte	.LASF75
 731 042a 0C       		.byte	0xc
 732 042b 58       		.byte	0x58
 733 042c 19       		.byte	0x19
 734 042d 42010000 		.4byte	0x142
 735 0431 08       		.byte	0x8
 736 0432 00       		.byte	0
 737 0433 03       		.uleb128 0x3
 738 0434 F2030000 		.4byte	0x3f2
 739 0438 02       		.uleb128 0x2
 740 0439 FF060000 		.4byte	.LASF76
 741 043d 0C       		.byte	0xc
ARM GAS  C:\Users\DEVELO~1\AppData\Local\Temp\cc4ViyBo.s 			page 14


 742 043e 5F       		.byte	0x5f
 743 043f 1E       		.byte	0x1e
 744 0440 44040000 		.4byte	0x444
 745 0444 06       		.uleb128 0x6
 746 0445 F3000000 		.4byte	.LASF77
 747 0449 0C       		.byte	0xc
 748 044a 0C       		.byte	0xc
 749 044b 64       		.byte	0x64
 750 044c 08       		.byte	0x8
 751 044d 79040000 		.4byte	0x479
 752 0451 01       		.uleb128 0x1
 753 0452 9C000000 		.4byte	.LASF69
 754 0456 0C       		.byte	0xc
 755 0457 65       		.byte	0x65
 756 0458 1A       		.byte	0x1a
 757 0459 79040000 		.4byte	0x479
 758 045d 00       		.byte	0
 759 045e 01       		.uleb128 0x1
 760 045f 3F000000 		.4byte	.LASF72
 761 0463 0C       		.byte	0xc
 762 0464 66       		.byte	0x66
 763 0465 1A       		.byte	0x1a
 764 0466 79040000 		.4byte	0x479
 765 046a 04       		.byte	0x4
 766 046b 01       		.uleb128 0x1
 767 046c 8B000000 		.4byte	.LASF78
 768 0470 0C       		.byte	0xc
 769 0471 67       		.byte	0x67
 770 0472 19       		.byte	0x19
 771 0473 81030000 		.4byte	0x381
 772 0477 08       		.byte	0x8
 773 0478 00       		.byte	0
 774 0479 03       		.uleb128 0x3
 775 047a 38040000 		.4byte	0x438
 776 047e 0D       		.uleb128 0xd
 777 047f 08       		.byte	0x8
 778 0480 83       		.byte	0x83
 779 0481 05       		.byte	0x5
 780 0482 A1040000 		.4byte	0x4a1
 781 0486 07       		.uleb128 0x7
 782 0487 6E747000 		.ascii	"ntp\000"
 783 048b 0D       		.byte	0xd
 784 048c 87       		.byte	0x87
 785 048d 1E       		.byte	0x1e
 786 048e A1040000 		.4byte	0x4a1
 787 0492 00       		.byte	0
 788 0493 01       		.uleb128 0x1
 789 0494 A9050000 		.4byte	.LASF79
 790 0498 0D       		.byte	0xd
 791 0499 8B       		.byte	0x8b
 792 049a 1E       		.byte	0x1e
 793 049b A6040000 		.4byte	0x4a6
 794 049f 04       		.byte	0x4
 795 04a0 00       		.byte	0
 796 04a1 03       		.uleb128 0x3
 797 04a2 8A010000 		.4byte	0x18a
 798 04a6 1E       		.uleb128 0x1e
ARM GAS  C:\Users\DEVELO~1\AppData\Local\Temp\cc4ViyBo.s 			page 15


 799 04a7 04       		.byte	0x4
 800 04a8 0D       		.uleb128 0xd
 801 04a9 08       		.byte	0x8
 802 04aa 90       		.byte	0x90
 803 04ab 05       		.byte	0x5
 804 04ac CA040000 		.4byte	0x4ca
 805 04b0 07       		.uleb128 0x7
 806 04b1 747000   		.ascii	"tp\000"
 807 04b4 0D       		.byte	0xd
 808 04b5 94       		.byte	0x94
 809 04b6 1E       		.byte	0x1e
 810 04b7 A1040000 		.4byte	0x4a1
 811 04bb 00       		.byte	0
 812 04bc 07       		.uleb128 0x7
 813 04bd 6D736700 		.ascii	"msg\000"
 814 04c1 0D       		.byte	0xd
 815 04c2 98       		.byte	0x98
 816 04c3 1D       		.byte	0x1d
 817 04c4 4E010000 		.4byte	0x14e
 818 04c8 04       		.byte	0x4
 819 04c9 00       		.byte	0
 820 04ca 0D       		.uleb128 0xd
 821 04cb 04       		.byte	0x4
 822 04cc 9D       		.byte	0x9d
 823 04cd 05       		.byte	0x5
 824 04ce E0040000 		.4byte	0x4e0
 825 04d2 01       		.uleb128 0x1
 826 04d3 58030000 		.4byte	.LASF35
 827 04d7 0D       		.byte	0xd
 828 04d8 A1       		.byte	0xa1
 829 04d9 1E       		.byte	0x1e
 830 04da 53030000 		.4byte	0x353
 831 04de 00       		.byte	0
 832 04df 00       		.byte	0
 833 04e0 0D       		.uleb128 0xd
 834 04e1 04       		.byte	0x4
 835 04e2 A6       		.byte	0xa6
 836 04e3 05       		.byte	0x5
 837 04e4 F6040000 		.4byte	0x4f6
 838 04e8 01       		.uleb128 0x1
 839 04e9 DB050000 		.4byte	.LASF80
 840 04ed 0D       		.byte	0xd
 841 04ee AA       		.byte	0xaa
 842 04ef 1E       		.byte	0x1e
 843 04f0 53030000 		.4byte	0x353
 844 04f4 00       		.byte	0
 845 04f5 00       		.byte	0
 846 04f6 0D       		.uleb128 0xd
 847 04f7 08       		.byte	0x8
 848 04f8 AF       		.byte	0xaf
 849 04f9 05       		.byte	0x5
 850 04fa 19050000 		.4byte	0x519
 851 04fe 07       		.uleb128 0x7
 852 04ff 75703100 		.ascii	"up1\000"
 853 0503 0D       		.byte	0xd
 854 0504 B3       		.byte	0xb3
 855 0505 1E       		.byte	0x1e
ARM GAS  C:\Users\DEVELO~1\AppData\Local\Temp\cc4ViyBo.s 			page 16


 856 0506 A6040000 		.4byte	0x4a6
 857 050a 00       		.byte	0
 858 050b 07       		.uleb128 0x7
 859 050c 75703200 		.ascii	"up2\000"
 860 0510 0D       		.byte	0xd
 861 0511 B7       		.byte	0xb7
 862 0512 1E       		.byte	0x1e
 863 0513 A6040000 		.4byte	0x4a6
 864 0517 04       		.byte	0x4
 865 0518 00       		.byte	0
 866 0519 11       		.uleb128 0x11
 867 051a 08       		.byte	0x8
 868 051b 0D       		.byte	0xd
 869 051c 7F       		.byte	0x7f
 870 051d 57050000 		.4byte	0x557
 871 0521 12       		.uleb128 0x12
 872 0522 737700   		.ascii	"sw\000"
 873 0525 8C       		.byte	0x8c
 874 0526 7E040000 		.4byte	0x47e
 875 052a 12       		.uleb128 0x12
 876 052b 72647900 		.ascii	"rdy\000"
 877 052f 99       		.byte	0x99
 878 0530 A8040000 		.4byte	0x4a8
 879 0534 12       		.uleb128 0x12
 880 0535 69737200 		.ascii	"isr\000"
 881 0539 A2       		.byte	0xa2
 882 053a CA040000 		.4byte	0x4ca
 883 053e 0B       		.uleb128 0xb
 884 053f 6A000000 		.4byte	.LASF81
 885 0543 0D       		.byte	0xd
 886 0544 AB       		.byte	0xab
 887 0545 07       		.byte	0x7
 888 0546 E0040000 		.4byte	0x4e0
 889 054a 0B       		.uleb128 0xb
 890 054b 37050000 		.4byte	.LASF82
 891 054f 0D       		.byte	0xd
 892 0550 B8       		.byte	0xb8
 893 0551 07       		.byte	0x7
 894 0552 F6040000 		.4byte	0x4f6
 895 0556 00       		.byte	0
 896 0557 0D       		.uleb128 0xd
 897 0558 10       		.byte	0x10
 898 0559 6C       		.byte	0x6c
 899 055a 09       		.byte	0x9
 900 055b 9C050000 		.4byte	0x59c
 901 055f 13       		.uleb128 0x13
 902 0560 57000000 		.4byte	.LASF83
 903 0564 70       		.byte	0x70
 904 0565 E9000000 		.4byte	0xe9
 905 0569 03       		.byte	0x3
 906 056a 00       		.byte	0
 907 056b 13       		.uleb128 0x13
 908 056c AB010000 		.4byte	.LASF37
 909 0570 74       		.byte	0x74
 910 0571 E9000000 		.4byte	0xe9
 911 0575 05       		.byte	0x5
 912 0576 03       		.byte	0x3
ARM GAS  C:\Users\DEVELO~1\AppData\Local\Temp\cc4ViyBo.s 			page 17


 913 0577 13       		.uleb128 0x13
 914 0578 14040000 		.4byte	.LASF84
 915 057c 7A       		.byte	0x7a
 916 057d E9000000 		.4byte	0xe9
 917 0581 18       		.byte	0x18
 918 0582 08       		.byte	0x8
 919 0583 01       		.uleb128 0x1
 920 0584 FE040000 		.4byte	.LASF85
 921 0588 0D       		.byte	0xd
 922 0589 7E       		.byte	0x7e
 923 058a 19       		.byte	0x19
 924 058b 75030000 		.4byte	0x375
 925 058f 04       		.byte	0x4
 926 0590 07       		.uleb128 0x7
 927 0591 7500     		.ascii	"u\000"
 928 0593 0D       		.byte	0xd
 929 0594 B9       		.byte	0xb9
 930 0595 05       		.byte	0x5
 931 0596 19050000 		.4byte	0x519
 932 059a 08       		.byte	0x8
 933 059b 00       		.byte	0
 934 059c 02       		.uleb128 0x2
 935 059d 5C000000 		.4byte	.LASF86
 936 05a1 0D       		.byte	0xd
 937 05a2 BA       		.byte	0xba
 938 05a3 03       		.byte	0x3
 939 05a4 57050000 		.4byte	0x557
 940 05a8 1F       		.uleb128 0x1f
 941 05a9 0808     		.2byte	0x808
 942 05ab 0D       		.byte	0xd
 943 05ac C0       		.byte	0xc0
 944 05ad 09       		.byte	0x9
 945 05ae E7050000 		.4byte	0x5e7
 946 05b2 01       		.uleb128 0x1
 947 05b3 9D040000 		.4byte	.LASF87
 948 05b7 0D       		.byte	0xd
 949 05b8 C4       		.byte	0xc4
 950 05b9 19       		.byte	0x19
 951 05ba D1000000 		.4byte	0xd1
 952 05be 00       		.byte	0
 953 05bf 01       		.uleb128 0x1
 954 05c0 6F030000 		.4byte	.LASF88
 955 05c4 0D       		.byte	0xd
 956 05c5 C8       		.byte	0xc8
 957 05c6 19       		.byte	0x19
 958 05c7 D1000000 		.4byte	0xd1
 959 05cb 02       		.byte	0x2
 960 05cc 07       		.uleb128 0x7
 961 05cd 70747200 		.ascii	"ptr\000"
 962 05d1 0D       		.byte	0xd
 963 05d2 CC       		.byte	0xcc
 964 05d3 1A       		.byte	0x1a
 965 05d4 E7050000 		.4byte	0x5e7
 966 05d8 04       		.byte	0x4
 967 05d9 01       		.uleb128 0x1
 968 05da 9C060000 		.4byte	.LASF89
 969 05de 0D       		.byte	0xd
ARM GAS  C:\Users\DEVELO~1\AppData\Local\Temp\cc4ViyBo.s 			page 18


 970 05df D0       		.byte	0xd0
 971 05e0 19       		.byte	0x19
 972 05e1 EC050000 		.4byte	0x5ec
 973 05e5 08       		.byte	0x8
 974 05e6 00       		.byte	0
 975 05e7 03       		.uleb128 0x3
 976 05e8 9C050000 		.4byte	0x59c
 977 05ec 14       		.uleb128 0x14
 978 05ed 9C050000 		.4byte	0x59c
 979 05f1 FC050000 		.4byte	0x5fc
 980 05f5 15       		.uleb128 0x15
 981 05f6 3E000000 		.4byte	0x3e
 982 05fa 7F       		.byte	0x7f
 983 05fb 00       		.byte	0
 984 05fc 02       		.uleb128 0x2
 985 05fd ED010000 		.4byte	.LASF90
 986 0601 0D       		.byte	0xd
 987 0602 D1       		.byte	0xd1
 988 0603 03       		.byte	0x3
 989 0604 A8050000 		.4byte	0x5a8
 990 0608 0F       		.uleb128 0xf
 991 0609 44000000 		.4byte	.LASF91
 992 060d 24       		.byte	0x24
 993 060e 0E       		.byte	0xe
 994 060f E001     		.2byte	0x1e0
 995 0611 08       		.byte	0x8
 996 0612 8E060000 		.4byte	0x68e
 997 0616 09       		.uleb128 0x9
 998 0617 723400   		.ascii	"r4\000"
 999 061a 0E       		.byte	0xe
 1000 061b F901     		.2byte	0x1f9
 1001 061d 11       		.byte	0x11
 1002 061e E9000000 		.4byte	0xe9
 1003 0622 00       		.byte	0
 1004 0623 09       		.uleb128 0x9
 1005 0624 723500   		.ascii	"r5\000"
 1006 0627 0E       		.byte	0xe
 1007 0628 FA01     		.2byte	0x1fa
 1008 062a 11       		.byte	0x11
 1009 062b E9000000 		.4byte	0xe9
 1010 062f 04       		.byte	0x4
 1011 0630 09       		.uleb128 0x9
 1012 0631 723600   		.ascii	"r6\000"
 1013 0634 0E       		.byte	0xe
 1014 0635 FB01     		.2byte	0x1fb
 1015 0637 11       		.byte	0x11
 1016 0638 E9000000 		.4byte	0xe9
 1017 063c 08       		.byte	0x8
 1018 063d 09       		.uleb128 0x9
 1019 063e 723700   		.ascii	"r7\000"
 1020 0641 0E       		.byte	0xe
 1021 0642 FC01     		.2byte	0x1fc
 1022 0644 11       		.byte	0x11
 1023 0645 E9000000 		.4byte	0xe9
 1024 0649 0C       		.byte	0xc
 1025 064a 09       		.uleb128 0x9
 1026 064b 723800   		.ascii	"r8\000"
ARM GAS  C:\Users\DEVELO~1\AppData\Local\Temp\cc4ViyBo.s 			page 19


 1027 064e 0E       		.byte	0xe
 1028 064f FD01     		.2byte	0x1fd
 1029 0651 11       		.byte	0x11
 1030 0652 E9000000 		.4byte	0xe9
 1031 0656 10       		.byte	0x10
 1032 0657 09       		.uleb128 0x9
 1033 0658 723900   		.ascii	"r9\000"
 1034 065b 0E       		.byte	0xe
 1035 065c FE01     		.2byte	0x1fe
 1036 065e 11       		.byte	0x11
 1037 065f E9000000 		.4byte	0xe9
 1038 0663 14       		.byte	0x14
 1039 0664 09       		.uleb128 0x9
 1040 0665 72313000 		.ascii	"r10\000"
 1041 0669 0E       		.byte	0xe
 1042 066a FF01     		.2byte	0x1ff
 1043 066c 11       		.byte	0x11
 1044 066d E9000000 		.4byte	0xe9
 1045 0671 18       		.byte	0x18
 1046 0672 09       		.uleb128 0x9
 1047 0673 72313100 		.ascii	"r11\000"
 1048 0677 0E       		.byte	0xe
 1049 0678 0002     		.2byte	0x200
 1050 067a 11       		.byte	0x11
 1051 067b E9000000 		.4byte	0xe9
 1052 067f 1C       		.byte	0x1c
 1053 0680 09       		.uleb128 0x9
 1054 0681 6C7200   		.ascii	"lr\000"
 1055 0684 0E       		.byte	0xe
 1056 0685 0102     		.2byte	0x201
 1057 0687 11       		.byte	0x11
 1058 0688 E9000000 		.4byte	0xe9
 1059 068c 20       		.byte	0x20
 1060 068d 00       		.byte	0
 1061 068e 0F       		.uleb128 0xf
 1062 068f EA040000 		.4byte	.LASF92
 1063 0693 04       		.byte	0x4
 1064 0694 0E       		.byte	0xe
 1065 0695 0A02     		.2byte	0x20a
 1066 0697 08       		.byte	0x8
 1067 0698 AA060000 		.4byte	0x6aa
 1068 069c 09       		.uleb128 0x9
 1069 069d 737000   		.ascii	"sp\000"
 1070 06a0 0E       		.byte	0xe
 1071 06a1 0B02     		.2byte	0x20b
 1072 06a3 1A       		.byte	0x1a
 1073 06a4 AA060000 		.4byte	0x6aa
 1074 06a8 00       		.byte	0
 1075 06a9 00       		.byte	0
 1076 06aa 03       		.uleb128 0x3
 1077 06ab 08060000 		.4byte	0x608
 1078 06af 06       		.uleb128 0x6
 1079 06b0 72040000 		.4byte	.LASF93
 1080 06b4 18       		.byte	0x18
 1081 06b5 08       		.byte	0x8
 1082 06b6 64       		.byte	0x64
 1083 06b7 10       		.byte	0x10
ARM GAS  C:\Users\DEVELO~1\AppData\Local\Temp\cc4ViyBo.s 			page 20


 1084 06b8 E4060000 		.4byte	0x6e4
 1085 06bc 01       		.uleb128 0x1
 1086 06bd 8C060000 		.4byte	.LASF94
 1087 06c1 08       		.byte	0x8
 1088 06c2 68       		.byte	0x68
 1089 06c3 21       		.byte	0x21
 1090 06c4 38040000 		.4byte	0x438
 1091 06c8 00       		.byte	0
 1092 06c9 01       		.uleb128 0x1
 1093 06ca 51070000 		.4byte	.LASF95
 1094 06ce 08       		.byte	0x8
 1095 06cf 73       		.byte	0x73
 1096 06d0 21       		.byte	0x21
 1097 06d1 75030000 		.4byte	0x375
 1098 06d5 0C       		.byte	0xc
 1099 06d6 01       		.uleb128 0x1
 1100 06d7 1C040000 		.4byte	.LASF96
 1101 06db 08       		.byte	0x8
 1102 06dc 79       		.byte	0x79
 1103 06dd 21       		.byte	0x21
 1104 06de 01010000 		.4byte	0x101
 1105 06e2 10       		.byte	0x10
 1106 06e3 00       		.byte	0
 1107 06e4 02       		.uleb128 0x2
 1108 06e5 F3030000 		.4byte	.LASF97
 1109 06e9 08       		.byte	0x8
 1110 06ea 7B       		.byte	0x7b
 1111 06eb 03       		.byte	0x3
 1112 06ec AF060000 		.4byte	0x6af
 1113 06f0 06       		.uleb128 0x6
 1114 06f1 11020000 		.4byte	.LASF98
 1115 06f5 08       		.byte	0x8
 1116 06f6 08       		.byte	0x8
 1117 06f7 80       		.byte	0x80
 1118 06f8 10       		.byte	0x10
 1119 06f9 0B070000 		.4byte	0x70b
 1120 06fd 01       		.uleb128 0x1
 1121 06fe 5D030000 		.4byte	.LASF99
 1122 0702 08       		.byte	0x8
 1123 0703 84       		.byte	0x84
 1124 0704 21       		.byte	0x21
 1125 0705 B9030000 		.4byte	0x3b9
 1126 0709 00       		.byte	0
 1127 070a 00       		.byte	0
 1128 070b 02       		.uleb128 0x2
 1129 070c FF050000 		.4byte	.LASF100
 1130 0710 08       		.byte	0x8
 1131 0711 85       		.byte	0x85
 1132 0712 03       		.byte	0x3
 1133 0713 F0060000 		.4byte	0x6f0
 1134 0717 02       		.uleb128 0x2
 1135 0718 56040000 		.4byte	.LASF101
 1136 071c 08       		.byte	0x8
 1137 071d 8A       		.byte	0x8a
 1138 071e 14       		.byte	0x14
 1139 071f A1040000 		.4byte	0x4a1
 1140 0723 06       		.uleb128 0x6
ARM GAS  C:\Users\DEVELO~1\AppData\Local\Temp\cc4ViyBo.s 			page 21


 1141 0724 A1000000 		.4byte	.LASF102
 1142 0728 08       		.byte	0x8
 1143 0729 08       		.byte	0x8
 1144 072a 8F       		.byte	0x8f
 1145 072b 10       		.byte	0x10
 1146 072c 3E070000 		.4byte	0x73e
 1147 0730 01       		.uleb128 0x1
 1148 0731 5D030000 		.4byte	.LASF99
 1149 0735 08       		.byte	0x8
 1150 0736 93       		.byte	0x93
 1151 0737 21       		.byte	0x21
 1152 0738 B9030000 		.4byte	0x3b9
 1153 073c 00       		.byte	0
 1154 073d 00       		.byte	0
 1155 073e 02       		.uleb128 0x2
 1156 073f E2050000 		.4byte	.LASF103
 1157 0743 08       		.byte	0x8
 1158 0744 94       		.byte	0x94
 1159 0745 03       		.byte	0x3
 1160 0746 23070000 		.4byte	0x723
 1161 074a 11       		.uleb128 0x11
 1162 074b 0C       		.byte	0xc
 1163 074c 08       		.byte	0x8
 1164 074d A0       		.byte	0xa0
 1165 074e 77070000 		.4byte	0x777
 1166 0752 0B       		.uleb128 0xb
 1167 0753 AE070000 		.4byte	.LASF104
 1168 0757 08       		.byte	0x8
 1169 0758 A4       		.byte	0xa4
 1170 0759 21       		.byte	0x21
 1171 075a 8D030000 		.4byte	0x38d
 1172 075e 0B       		.uleb128 0xb
 1173 075f 5D030000 		.4byte	.LASF99
 1174 0763 08       		.byte	0x8
 1175 0764 A8       		.byte	0xa8
 1176 0765 21       		.byte	0x21
 1177 0766 B9030000 		.4byte	0x3b9
 1178 076a 0B       		.uleb128 0xb
 1179 076b C1060000 		.4byte	.LASF105
 1180 076f 08       		.byte	0x8
 1181 0770 AC       		.byte	0xac
 1182 0771 21       		.byte	0x21
 1183 0772 F2030000 		.4byte	0x3f2
 1184 0776 00       		.byte	0
 1185 0777 11       		.uleb128 0x11
 1186 0778 04       		.byte	0x4
 1187 0779 08       		.byte	0x8
 1188 077a EB       		.byte	0xeb
 1189 077b E0070000 		.4byte	0x7e0
 1190 077f 0B       		.uleb128 0xb
 1191 0780 23000000 		.4byte	.LASF106
 1192 0784 08       		.byte	0x8
 1193 0785 F2       		.byte	0xf2
 1194 0786 21       		.byte	0x21
 1195 0787 4E010000 		.4byte	0x14e
 1196 078b 0B       		.uleb128 0xb
 1197 078c 6F000000 		.4byte	.LASF107
ARM GAS  C:\Users\DEVELO~1\AppData\Local\Temp\cc4ViyBo.s 			page 22


 1198 0790 08       		.byte	0x8
 1199 0791 F9       		.byte	0xf9
 1200 0792 21       		.byte	0x21
 1201 0793 4E010000 		.4byte	0x14e
 1202 0797 0E       		.uleb128 0xe
 1203 0798 A9050000 		.4byte	.LASF79
 1204 079c 0001     		.2byte	0x100
 1205 079e 22       		.byte	0x22
 1206 079f A6040000 		.4byte	0x4a6
 1207 07a3 0E       		.uleb128 0xe
 1208 07a4 D2020000 		.4byte	.LASF108
 1209 07a8 0701     		.2byte	0x107
 1210 07aa 22       		.byte	0x22
 1211 07ab E0070000 		.4byte	0x7e0
 1212 07af 0E       		.uleb128 0xe
 1213 07b0 83000000 		.4byte	.LASF109
 1214 07b4 0C01     		.2byte	0x10c
 1215 07b6 21       		.byte	0x21
 1216 07b7 4E010000 		.4byte	0x14e
 1217 07bb 0E       		.uleb128 0xe
 1218 07bc AE020000 		.4byte	.LASF110
 1219 07c0 1501     		.2byte	0x115
 1220 07c2 22       		.byte	0x22
 1221 07c3 0D080000 		.4byte	0x80d
 1222 07c7 0E       		.uleb128 0xe
 1223 07c8 1A060000 		.4byte	.LASF111
 1224 07cc 1E01     		.2byte	0x11e
 1225 07ce 22       		.byte	0x22
 1226 07cf 47080000 		.4byte	0x847
 1227 07d3 0E       		.uleb128 0xe
 1228 07d4 B0050000 		.4byte	.LASF112
 1229 07d8 2601     		.2byte	0x126
 1230 07da 21       		.byte	0x21
 1231 07db 5A010000 		.4byte	0x15a
 1232 07df 00       		.byte	0
 1233 07e0 03       		.uleb128 0x3
 1234 07e1 17070000 		.4byte	0x717
 1235 07e5 06       		.uleb128 0x6
 1236 07e6 F2050000 		.4byte	.LASF113
 1237 07ea 0C       		.byte	0xc
 1238 07eb 0F       		.byte	0xf
 1239 07ec 34       		.byte	0x34
 1240 07ed 10       		.byte	0x10
 1241 07ee 0D080000 		.4byte	0x80d
 1242 07f2 01       		.uleb128 0x1
 1243 07f3 5D030000 		.4byte	.LASF99
 1244 07f7 0F       		.byte	0xf
 1245 07f8 35       		.byte	0x35
 1246 07f9 19       		.byte	0x19
 1247 07fa B9030000 		.4byte	0x3b9
 1248 07fe 00       		.byte	0
 1249 07ff 07       		.uleb128 0x7
 1250 0800 636E7400 		.ascii	"cnt\000"
 1251 0804 0F       		.byte	0xf
 1252 0805 37       		.byte	0x37
 1253 0806 19       		.byte	0x19
 1254 0807 72010000 		.4byte	0x172
ARM GAS  C:\Users\DEVELO~1\AppData\Local\Temp\cc4ViyBo.s 			page 23


 1255 080b 08       		.byte	0x8
 1256 080c 00       		.byte	0
 1257 080d 03       		.uleb128 0x3
 1258 080e E5070000 		.4byte	0x7e5
 1259 0812 06       		.uleb128 0x6
 1260 0813 48070000 		.4byte	.LASF114
 1261 0817 10       		.byte	0x10
 1262 0818 10       		.byte	0x10
 1263 0819 39       		.byte	0x39
 1264 081a 08       		.byte	0x8
 1265 081b 47080000 		.4byte	0x847
 1266 081f 01       		.uleb128 0x1
 1267 0820 5D030000 		.4byte	.LASF99
 1268 0824 10       		.byte	0x10
 1269 0825 3A       		.byte	0x3a
 1270 0826 19       		.byte	0x19
 1271 0827 B9030000 		.4byte	0x3b9
 1272 082b 00       		.byte	0
 1273 082c 01       		.uleb128 0x1
 1274 082d 4A060000 		.4byte	.LASF34
 1275 0831 10       		.byte	0x10
 1276 0832 3C       		.byte	0x3c
 1277 0833 1A       		.byte	0x1a
 1278 0834 A1040000 		.4byte	0x4a1
 1279 0838 08       		.byte	0x8
 1280 0839 01       		.uleb128 0x1
 1281 083a 9C000000 		.4byte	.LASF69
 1282 083e 10       		.byte	0x10
 1283 083f 3E       		.byte	0x3e
 1284 0840 1A       		.byte	0x1a
 1285 0841 FB080000 		.4byte	0x8fb
 1286 0845 0C       		.byte	0xc
 1287 0846 00       		.byte	0
 1288 0847 03       		.uleb128 0x3
 1289 0848 12080000 		.4byte	0x812
 1290 084c 03       		.uleb128 0x3
 1291 084d 73020000 		.4byte	0x273
 1292 0851 03       		.uleb128 0x3
 1293 0852 12010000 		.4byte	0x112
 1294 0856 0F       		.uleb128 0xf
 1295 0857 C5030000 		.4byte	.LASF115
 1296 085b 10       		.byte	0x10
 1297 085c 08       		.byte	0x8
 1298 085d 5C01     		.2byte	0x15c
 1299 085f 10       		.byte	0x10
 1300 0860 7F080000 		.4byte	0x87f
 1301 0864 05       		.uleb128 0x5
 1302 0865 C1060000 		.4byte	.LASF105
 1303 0869 6101     		.2byte	0x161
 1304 086b 21       		.byte	0x21
 1305 086c F2030000 		.4byte	0x3f2
 1306 0870 00       		.byte	0
 1307 0871 05       		.uleb128 0x5
 1308 0872 08050000 		.4byte	.LASF116
 1309 0876 6501     		.2byte	0x165
 1310 0878 22       		.byte	0x22
 1311 0879 A1040000 		.4byte	0x4a1
ARM GAS  C:\Users\DEVELO~1\AppData\Local\Temp\cc4ViyBo.s 			page 24


 1312 087d 0C       		.byte	0xc
 1313 087e 00       		.byte	0
 1314 087f 18       		.uleb128 0x18
 1315 0880 0F000000 		.4byte	.LASF117
 1316 0884 6601     		.2byte	0x166
 1317 0886 56080000 		.4byte	0x856
 1318 088a 0F       		.uleb128 0xf
 1319 088b D4040000 		.4byte	.LASF118
 1320 088f 14       		.byte	0x14
 1321 0890 08       		.byte	0x8
 1322 0891 6B01     		.2byte	0x16b
 1323 0893 10       		.byte	0x10
 1324 0894 DA080000 		.4byte	0x8da
 1325 0898 05       		.uleb128 0x5
 1326 0899 58030000 		.4byte	.LASF35
 1327 089d 6F01     		.2byte	0x16f
 1328 089f 22       		.byte	0x22
 1329 08a0 53030000 		.4byte	0x353
 1330 08a4 00       		.byte	0
 1331 08a5 05       		.uleb128 0x5
 1332 08a6 3C020000 		.4byte	.LASF119
 1333 08aa 7501     		.2byte	0x175
 1334 08ac 22       		.byte	0x22
 1335 08ad 51080000 		.4byte	0x851
 1336 08b1 04       		.byte	0x4
 1337 08b2 05       		.uleb128 0x5
 1338 08b3 0F070000 		.4byte	.LASF120
 1339 08b7 7901     		.2byte	0x179
 1340 08b9 22       		.byte	0x22
 1341 08ba 51080000 		.4byte	0x851
 1342 08be 08       		.byte	0x8
 1343 08bf 05       		.uleb128 0x5
 1344 08c0 9E020000 		.4byte	.LASF121
 1345 08c4 7F01     		.2byte	0x17f
 1346 08c6 22       		.byte	0x22
 1347 08c7 51080000 		.4byte	0x851
 1348 08cb 0C       		.byte	0xc
 1349 08cc 05       		.uleb128 0x5
 1350 08cd C2070000 		.4byte	.LASF122
 1351 08d1 8301     		.2byte	0x183
 1352 08d3 22       		.byte	0x22
 1353 08d4 51080000 		.4byte	0x851
 1354 08d8 10       		.byte	0x10
 1355 08d9 00       		.byte	0
 1356 08da 18       		.uleb128 0x18
 1357 08db 2D070000 		.4byte	.LASF123
 1358 08df 8501     		.2byte	0x185
 1359 08e1 8A080000 		.4byte	0x88a
 1360 08e5 0C       		.uleb128 0xc
 1361 08e6 DA080000 		.4byte	0x8da
 1362 08ea 03       		.uleb128 0x3
 1363 08eb E5080000 		.4byte	0x8e5
 1364 08ef 02       		.uleb128 0x2
 1365 08f0 4C020000 		.4byte	.LASF124
 1366 08f4 10       		.byte	0x10
 1367 08f5 34       		.byte	0x34
 1368 08f6 19       		.byte	0x19
ARM GAS  C:\Users\DEVELO~1\AppData\Local\Temp\cc4ViyBo.s 			page 25


 1369 08f7 12080000 		.4byte	0x812
 1370 08fb 03       		.uleb128 0x3
 1371 08fc EF080000 		.4byte	0x8ef
 1372 0900 02       		.uleb128 0x2
 1373 0901 26040000 		.4byte	.LASF125
 1374 0905 11       		.byte	0x11
 1375 0906 34       		.byte	0x34
 1376 0907 1F       		.byte	0x1f
 1377 0908 0C090000 		.4byte	0x90c
 1378 090c 06       		.uleb128 0x6
 1379 090d E9070000 		.4byte	.LASF126
 1380 0911 14       		.byte	0x14
 1381 0912 11       		.byte	0x11
 1382 0913 39       		.byte	0x39
 1383 0914 08       		.byte	0x8
 1384 0915 5B090000 		.4byte	0x95b
 1385 0919 01       		.uleb128 0x1
 1386 091a 9C000000 		.4byte	.LASF69
 1387 091e 11       		.byte	0x11
 1388 091f 3A       		.byte	0x3a
 1389 0920 1A       		.byte	0x1a
 1390 0921 5B090000 		.4byte	0x95b
 1391 0925 00       		.byte	0
 1392 0926 01       		.uleb128 0x1
 1393 0927 69040000 		.4byte	.LASF127
 1394 092b 11       		.byte	0x11
 1395 092c 3D       		.byte	0x3d
 1396 092d 1A       		.byte	0x1a
 1397 092e A1040000 		.4byte	0x4a1
 1398 0932 04       		.byte	0x4
 1399 0933 01       		.uleb128 0x1
 1400 0934 0A060000 		.4byte	.LASF128
 1401 0938 11       		.byte	0x11
 1402 0939 3F       		.byte	0x3f
 1403 093a 19       		.byte	0x19
 1404 093b 5A010000 		.4byte	0x15a
 1405 093f 08       		.byte	0x8
 1406 0940 01       		.uleb128 0x1
 1407 0941 86070000 		.4byte	.LASF38
 1408 0945 11       		.byte	0x11
 1409 0946 41       		.byte	0x41
 1410 0947 19       		.byte	0x19
 1411 0948 66010000 		.4byte	0x166
 1412 094c 0C       		.byte	0xc
 1413 094d 01       		.uleb128 0x1
 1414 094e 1D020000 		.4byte	.LASF129
 1415 0952 11       		.byte	0x11
 1416 0953 43       		.byte	0x43
 1417 0954 19       		.byte	0x19
 1418 0955 66010000 		.4byte	0x166
 1419 0959 10       		.byte	0x10
 1420 095a 00       		.byte	0
 1421 095b 03       		.uleb128 0x3
 1422 095c 00090000 		.4byte	0x900
 1423 0960 06       		.uleb128 0x6
 1424 0961 69070000 		.4byte	.LASF130
 1425 0965 04       		.byte	0x4
ARM GAS  C:\Users\DEVELO~1\AppData\Local\Temp\cc4ViyBo.s 			page 26


 1426 0966 11       		.byte	0x11
 1427 0967 4A       		.byte	0x4a
 1428 0968 10       		.byte	0x10
 1429 0969 7B090000 		.4byte	0x97b
 1430 096d 01       		.uleb128 0x1
 1431 096e 9C000000 		.4byte	.LASF69
 1432 0972 11       		.byte	0x11
 1433 0973 4B       		.byte	0x4b
 1434 0974 1A       		.byte	0x1a
 1435 0975 5B090000 		.4byte	0x95b
 1436 0979 00       		.byte	0
 1437 097a 00       		.byte	0
 1438 097b 02       		.uleb128 0x2
 1439 097c 5D020000 		.4byte	.LASF131
 1440 0980 11       		.byte	0x11
 1441 0981 4E       		.byte	0x4e
 1442 0982 03       		.byte	0x3
 1443 0983 60090000 		.4byte	0x960
 1444 0987 08       		.uleb128 0x8
 1445 0988 01       		.byte	0x1
 1446 0989 02       		.byte	0x2
 1447 098a 5C050000 		.4byte	.LASF132
 1448 098e 03       		.uleb128 0x3
 1449 098f C0000000 		.4byte	0xc0
 1450 0993 0A       		.uleb128 0xa
 1451 0994 2D000000 		.4byte	0x2d
 1452 0998 AC090000 		.4byte	0x9ac
 1453 099c 04       		.uleb128 0x4
 1454 099d A6040000 		.4byte	0x4a6
 1455 09a1 04       		.uleb128 0x4
 1456 09a2 AC090000 		.4byte	0x9ac
 1457 09a6 04       		.uleb128 0x4
 1458 09a7 2D000000 		.4byte	0x2d
 1459 09ab 00       		.byte	0
 1460 09ac 03       		.uleb128 0x3
 1461 09ad CC000000 		.4byte	0xcc
 1462 09b1 03       		.uleb128 0x3
 1463 09b2 93090000 		.4byte	0x993
 1464 09b6 0A       		.uleb128 0xa
 1465 09b7 2D000000 		.4byte	0x2d
 1466 09bb CF090000 		.4byte	0x9cf
 1467 09bf 04       		.uleb128 0x4
 1468 09c0 A6040000 		.4byte	0x4a6
 1469 09c4 04       		.uleb128 0x4
 1470 09c5 8E090000 		.4byte	0x98e
 1471 09c9 04       		.uleb128 0x4
 1472 09ca 2D000000 		.4byte	0x2d
 1473 09ce 00       		.byte	0
 1474 09cf 03       		.uleb128 0x3
 1475 09d0 B6090000 		.4byte	0x9b6
 1476 09d4 0A       		.uleb128 0xa
 1477 09d5 4E010000 		.4byte	0x14e
 1478 09d9 E8090000 		.4byte	0x9e8
 1479 09dd 04       		.uleb128 0x4
 1480 09de A6040000 		.4byte	0x4a6
 1481 09e2 04       		.uleb128 0x4
 1482 09e3 C0000000 		.4byte	0xc0
ARM GAS  C:\Users\DEVELO~1\AppData\Local\Temp\cc4ViyBo.s 			page 27


 1483 09e7 00       		.byte	0
 1484 09e8 03       		.uleb128 0x3
 1485 09e9 D4090000 		.4byte	0x9d4
 1486 09ed 0A       		.uleb128 0xa
 1487 09ee 4E010000 		.4byte	0x14e
 1488 09f2 FC090000 		.4byte	0x9fc
 1489 09f6 04       		.uleb128 0x4
 1490 09f7 A6040000 		.4byte	0x4a6
 1491 09fb 00       		.byte	0
 1492 09fc 03       		.uleb128 0x3
 1493 09fd ED090000 		.4byte	0x9ed
 1494 0a01 0A       		.uleb128 0xa
 1495 0a02 4E010000 		.4byte	0x14e
 1496 0a06 1A0A0000 		.4byte	0xa1a
 1497 0a0a 04       		.uleb128 0x4
 1498 0a0b A6040000 		.4byte	0x4a6
 1499 0a0f 04       		.uleb128 0x4
 1500 0a10 C0000000 		.4byte	0xc0
 1501 0a14 04       		.uleb128 0x4
 1502 0a15 81030000 		.4byte	0x381
 1503 0a19 00       		.byte	0
 1504 0a1a 03       		.uleb128 0x3
 1505 0a1b 010A0000 		.4byte	0xa01
 1506 0a1f 0A       		.uleb128 0xa
 1507 0a20 4E010000 		.4byte	0x14e
 1508 0a24 330A0000 		.4byte	0xa33
 1509 0a28 04       		.uleb128 0x4
 1510 0a29 A6040000 		.4byte	0x4a6
 1511 0a2d 04       		.uleb128 0x4
 1512 0a2e 81030000 		.4byte	0x381
 1513 0a32 00       		.byte	0
 1514 0a33 03       		.uleb128 0x3
 1515 0a34 1F0A0000 		.4byte	0xa1f
 1516 0a38 0A       		.uleb128 0xa
 1517 0a39 2D000000 		.4byte	0x2d
 1518 0a3d 560A0000 		.4byte	0xa56
 1519 0a41 04       		.uleb128 0x4
 1520 0a42 A6040000 		.4byte	0x4a6
 1521 0a46 04       		.uleb128 0x4
 1522 0a47 AC090000 		.4byte	0x9ac
 1523 0a4b 04       		.uleb128 0x4
 1524 0a4c 2D000000 		.4byte	0x2d
 1525 0a50 04       		.uleb128 0x4
 1526 0a51 81030000 		.4byte	0x381
 1527 0a55 00       		.byte	0
 1528 0a56 03       		.uleb128 0x3
 1529 0a57 380A0000 		.4byte	0xa38
 1530 0a5b 0A       		.uleb128 0xa
 1531 0a5c 2D000000 		.4byte	0x2d
 1532 0a60 790A0000 		.4byte	0xa79
 1533 0a64 04       		.uleb128 0x4
 1534 0a65 A6040000 		.4byte	0x4a6
 1535 0a69 04       		.uleb128 0x4
 1536 0a6a 8E090000 		.4byte	0x98e
 1537 0a6e 04       		.uleb128 0x4
 1538 0a6f 2D000000 		.4byte	0x2d
 1539 0a73 04       		.uleb128 0x4
ARM GAS  C:\Users\DEVELO~1\AppData\Local\Temp\cc4ViyBo.s 			page 28


 1540 0a74 81030000 		.4byte	0x381
 1541 0a78 00       		.byte	0
 1542 0a79 03       		.uleb128 0x3
 1543 0a7a 5B0A0000 		.4byte	0xa5b
 1544 0a7e 0A       		.uleb128 0xa
 1545 0a7f 4E010000 		.4byte	0x14e
 1546 0a83 970A0000 		.4byte	0xa97
 1547 0a87 04       		.uleb128 0x4
 1548 0a88 A6040000 		.4byte	0x4a6
 1549 0a8c 04       		.uleb128 0x4
 1550 0a8d 3E000000 		.4byte	0x3e
 1551 0a91 04       		.uleb128 0x4
 1552 0a92 A6040000 		.4byte	0x4a6
 1553 0a96 00       		.byte	0
 1554 0a97 03       		.uleb128 0x3
 1555 0a98 7E0A0000 		.4byte	0xa7e
 1556 0a9c 02       		.uleb128 0x2
 1557 0a9d 91000000 		.4byte	.LASF133
 1558 0aa1 12       		.byte	0x12
 1559 0aa2 3A       		.byte	0x3a
 1560 0aa3 19       		.byte	0x19
 1561 0aa4 A80A0000 		.4byte	0xaa8
 1562 0aa8 06       		.uleb128 0x6
 1563 0aa9 54020000 		.4byte	.LASF134
 1564 0aad 24       		.byte	0x24
 1565 0aae 12       		.byte	0x12
 1566 0aaf 4B       		.byte	0x4b
 1567 0ab0 08       		.byte	0x8
 1568 0ab1 1E0B0000 		.4byte	0xb1e
 1569 0ab5 01       		.uleb128 0x1
 1570 0ab6 BD000000 		.4byte	.LASF135
 1571 0aba 12       		.byte	0x12
 1572 0abb 4C       		.byte	0x4c
 1573 0abc 19       		.byte	0x19
 1574 0abd 3E070000 		.4byte	0x73e
 1575 0ac1 00       		.byte	0
 1576 0ac2 01       		.uleb128 0x1
 1577 0ac3 89040000 		.4byte	.LASF136
 1578 0ac7 12       		.byte	0x12
 1579 0ac8 4D       		.byte	0x4d
 1580 0ac9 19       		.byte	0x19
 1581 0aca 39000000 		.4byte	0x39
 1582 0ace 08       		.byte	0x8
 1583 0acf 01       		.uleb128 0x1
 1584 0ad0 D4010000 		.4byte	.LASF137
 1585 0ad4 12       		.byte	0x12
 1586 0ad5 4E       		.byte	0x4e
 1587 0ad6 1A       		.byte	0x1a
 1588 0ad7 8E090000 		.4byte	0x98e
 1589 0adb 0C       		.byte	0xc
 1590 0adc 01       		.uleb128 0x1
 1591 0add 42070000 		.4byte	.LASF138
 1592 0ae1 12       		.byte	0x12
 1593 0ae2 4F       		.byte	0x4f
 1594 0ae3 1A       		.byte	0x1a
 1595 0ae4 8E090000 		.4byte	0x98e
 1596 0ae8 10       		.byte	0x10
ARM GAS  C:\Users\DEVELO~1\AppData\Local\Temp\cc4ViyBo.s 			page 29


 1597 0ae9 01       		.uleb128 0x1
 1598 0aea C2040000 		.4byte	.LASF139
 1599 0aee 12       		.byte	0x12
 1600 0aef 51       		.byte	0x51
 1601 0af0 1A       		.byte	0x1a
 1602 0af1 8E090000 		.4byte	0x98e
 1603 0af5 14       		.byte	0x14
 1604 0af6 01       		.uleb128 0x1
 1605 0af7 44050000 		.4byte	.LASF140
 1606 0afb 12       		.byte	0x12
 1607 0afc 52       		.byte	0x52
 1608 0afd 1A       		.byte	0x1a
 1609 0afe 8E090000 		.4byte	0x98e
 1610 0b02 18       		.byte	0x18
 1611 0b03 01       		.uleb128 0x1
 1612 0b04 5A070000 		.4byte	.LASF141
 1613 0b08 12       		.byte	0x12
 1614 0b09 53       		.byte	0x53
 1615 0b0a 19       		.byte	0x19
 1616 0b0b 1E0B0000 		.4byte	0xb1e
 1617 0b0f 1C       		.byte	0x1c
 1618 0b10 01       		.uleb128 0x1
 1619 0b11 E6010000 		.4byte	.LASF142
 1620 0b15 12       		.byte	0x12
 1621 0b16 54       		.byte	0x54
 1622 0b17 1A       		.byte	0x1a
 1623 0b18 A6040000 		.4byte	0x4a6
 1624 0b1c 20       		.byte	0x20
 1625 0b1d 00       		.byte	0
 1626 0b1e 02       		.uleb128 0x2
 1627 0b1f 2D050000 		.4byte	.LASF143
 1628 0b23 12       		.byte	0x12
 1629 0b24 41       		.byte	0x41
 1630 0b25 10       		.byte	0x10
 1631 0b26 2A0B0000 		.4byte	0xb2a
 1632 0b2a 03       		.uleb128 0x3
 1633 0b2b 2F0B0000 		.4byte	0xb2f
 1634 0b2f 20       		.uleb128 0x20
 1635 0b30 3A0B0000 		.4byte	0xb3a
 1636 0b34 04       		.uleb128 0x4
 1637 0b35 3A0B0000 		.4byte	0xb3a
 1638 0b39 00       		.byte	0
 1639 0b3a 03       		.uleb128 0x3
 1640 0b3b 9C0A0000 		.4byte	0xa9c
 1641 0b3f 02       		.uleb128 0x2
 1642 0b40 37040000 		.4byte	.LASF144
 1643 0b44 12       		.byte	0x12
 1644 0b45 61       		.byte	0x61
 1645 0b46 14       		.byte	0x14
 1646 0b47 9C0A0000 		.4byte	0xa9c
 1647 0b4b 02       		.uleb128 0x2
 1648 0b4c 1E070000 		.4byte	.LASF145
 1649 0b50 12       		.byte	0x12
 1650 0b51 6D       		.byte	0x6d
 1651 0b52 14       		.byte	0x14
 1652 0b53 9C0A0000 		.4byte	0xa9c
 1653 0b57 21       		.uleb128 0x21
ARM GAS  C:\Users\DEVELO~1\AppData\Local\Temp\cc4ViyBo.s 			page 30


 1654 0b58 07       		.byte	0x7
 1655 0b59 01       		.byte	0x1
 1656 0b5a 66000000 		.4byte	0x66
 1657 0b5e 13       		.byte	0x13
 1658 0b5f 2F       		.byte	0x2f
 1659 0b60 0E       		.byte	0xe
 1660 0b61 780B0000 		.4byte	0xb78
 1661 0b65 16       		.uleb128 0x16
 1662 0b66 CA040000 		.4byte	.LASF146
 1663 0b6a 00       		.byte	0
 1664 0b6b 16       		.uleb128 0x16
 1665 0b6c 7E070000 		.4byte	.LASF147
 1666 0b70 01       		.byte	0x1
 1667 0b71 16       		.uleb128 0x16
 1668 0b72 BC030000 		.4byte	.LASF148
 1669 0b76 02       		.byte	0x2
 1670 0b77 00       		.byte	0
 1671 0b78 02       		.uleb128 0x2
 1672 0b79 EA020000 		.4byte	.LASF149
 1673 0b7d 13       		.byte	0x13
 1674 0b7e 33       		.byte	0x33
 1675 0b7f 03       		.byte	0x3
 1676 0b80 570B0000 		.4byte	0xb57
 1677 0b84 02       		.uleb128 0x2
 1678 0b85 00000000 		.4byte	.LASF150
 1679 0b89 13       		.byte	0x13
 1680 0b8a 38       		.byte	0x38
 1681 0b8b 24       		.byte	0x24
 1682 0b8c 900B0000 		.4byte	0xb90
 1683 0b90 06       		.uleb128 0x6
 1684 0b91 BE050000 		.4byte	.LASF151
 1685 0b95 54       		.byte	0x54
 1686 0b96 13       		.byte	0x13
 1687 0b97 5C       		.byte	0x5c
 1688 0b98 08       		.byte	0x8
 1689 0b99 DF0B0000 		.4byte	0xbdf
 1690 0b9d 07       		.uleb128 0x7
 1691 0b9e 766D7400 		.ascii	"vmt\000"
 1692 0ba2 13       		.byte	0x13
 1693 0ba3 5E       		.byte	0x5e
 1694 0ba4 23       		.byte	0x23
 1695 0ba5 740C0000 		.4byte	0xc74
 1696 0ba9 00       		.byte	0
 1697 0baa 01       		.uleb128 0x1
 1698 0bab 69030000 		.4byte	.LASF152
 1699 0baf 13       		.byte	0x13
 1700 0bb0 5F       		.byte	0x5f
 1701 0bb1 03       		.byte	0x3
 1702 0bb2 7B090000 		.4byte	0x97b
 1703 0bb6 04       		.byte	0x4
 1704 0bb7 01       		.uleb128 0x1
 1705 0bb8 AB010000 		.4byte	.LASF37
 1706 0bbc 13       		.byte	0x13
 1707 0bbd 5F       		.byte	0x5f
 1708 0bbe 03       		.byte	0x3
 1709 0bbf 780B0000 		.4byte	0xb78
 1710 0bc3 08       		.byte	0x8
ARM GAS  C:\Users\DEVELO~1\AppData\Local\Temp\cc4ViyBo.s 			page 31


 1711 0bc4 01       		.uleb128 0x1
 1712 0bc5 CB020000 		.4byte	.LASF153
 1713 0bc9 13       		.byte	0x13
 1714 0bca 5F       		.byte	0x5f
 1715 0bcb 03       		.byte	0x3
 1716 0bcc 3F0B0000 		.4byte	0xb3f
 1717 0bd0 0C       		.byte	0xc
 1718 0bd1 01       		.uleb128 0x1
 1719 0bd2 B7050000 		.4byte	.LASF154
 1720 0bd6 13       		.byte	0x13
 1721 0bd7 5F       		.byte	0x5f
 1722 0bd8 03       		.byte	0x3
 1723 0bd9 4B0B0000 		.4byte	0xb4b
 1724 0bdd 30       		.byte	0x30
 1725 0bde 00       		.byte	0
 1726 0bdf 06       		.uleb128 0x6
 1727 0be0 B0040000 		.4byte	.LASF155
 1728 0be4 28       		.byte	0x28
 1729 0be5 13       		.byte	0x13
 1730 0be6 45       		.byte	0x45
 1731 0be7 08       		.byte	0x8
 1732 0be8 6F0C0000 		.4byte	0xc6f
 1733 0bec 01       		.uleb128 0x1
 1734 0bed 9E070000 		.4byte	.LASF156
 1735 0bf1 13       		.byte	0x13
 1736 0bf2 46       		.byte	0x46
 1737 0bf3 03       		.byte	0x3
 1738 0bf4 2D000000 		.4byte	0x2d
 1739 0bf8 00       		.byte	0
 1740 0bf9 01       		.uleb128 0x1
 1741 0bfa 2F000000 		.4byte	.LASF157
 1742 0bfe 13       		.byte	0x13
 1743 0bff 46       		.byte	0x46
 1744 0c00 03       		.byte	0x3
 1745 0c01 B1090000 		.4byte	0x9b1
 1746 0c05 04       		.byte	0x4
 1747 0c06 01       		.uleb128 0x1
 1748 0c07 8C070000 		.4byte	.LASF158
 1749 0c0b 13       		.byte	0x13
 1750 0c0c 46       		.byte	0x46
 1751 0c0d 03       		.byte	0x3
 1752 0c0e CF090000 		.4byte	0x9cf
 1753 0c12 08       		.byte	0x8
 1754 0c13 07       		.uleb128 0x7
 1755 0c14 70757400 		.ascii	"put\000"
 1756 0c18 13       		.byte	0x13
 1757 0c19 46       		.byte	0x46
 1758 0c1a 03       		.byte	0x3
 1759 0c1b E8090000 		.4byte	0x9e8
 1760 0c1f 0C       		.byte	0xc
 1761 0c20 07       		.uleb128 0x7
 1762 0c21 67657400 		.ascii	"get\000"
 1763 0c25 13       		.byte	0x13
 1764 0c26 46       		.byte	0x46
 1765 0c27 03       		.byte	0x3
 1766 0c28 FC090000 		.4byte	0x9fc
 1767 0c2c 10       		.byte	0x10
ARM GAS  C:\Users\DEVELO~1\AppData\Local\Temp\cc4ViyBo.s 			page 32


 1768 0c2d 01       		.uleb128 0x1
 1769 0c2e 45040000 		.4byte	.LASF159
 1770 0c32 13       		.byte	0x13
 1771 0c33 46       		.byte	0x46
 1772 0c34 03       		.byte	0x3
 1773 0c35 1A0A0000 		.4byte	0xa1a
 1774 0c39 14       		.byte	0x14
 1775 0c3a 01       		.uleb128 0x1
 1776 0c3b 53030000 		.4byte	.LASF160
 1777 0c3f 13       		.byte	0x13
 1778 0c40 46       		.byte	0x46
 1779 0c41 03       		.byte	0x3
 1780 0c42 330A0000 		.4byte	0xa33
 1781 0c46 18       		.byte	0x18
 1782 0c47 01       		.uleb128 0x1
 1783 0c48 AD030000 		.4byte	.LASF161
 1784 0c4c 13       		.byte	0x13
 1785 0c4d 46       		.byte	0x46
 1786 0c4e 03       		.byte	0x3
 1787 0c4f 560A0000 		.4byte	0xa56
 1788 0c53 1C       		.byte	0x1c
 1789 0c54 01       		.uleb128 0x1
 1790 0c55 B2000000 		.4byte	.LASF162
 1791 0c59 13       		.byte	0x13
 1792 0c5a 46       		.byte	0x46
 1793 0c5b 03       		.byte	0x3
 1794 0c5c 790A0000 		.4byte	0xa79
 1795 0c60 20       		.byte	0x20
 1796 0c61 07       		.uleb128 0x7
 1797 0c62 63746C00 		.ascii	"ctl\000"
 1798 0c66 13       		.byte	0x13
 1799 0c67 46       		.byte	0x46
 1800 0c68 03       		.byte	0x3
 1801 0c69 970A0000 		.4byte	0xa97
 1802 0c6d 24       		.byte	0x24
 1803 0c6e 00       		.byte	0
 1804 0c6f 0C       		.uleb128 0xc
 1805 0c70 DF0B0000 		.4byte	0xbdf
 1806 0c74 03       		.uleb128 0x3
 1807 0c75 6F0C0000 		.4byte	0xc6f
 1808 0c79 19       		.uleb128 0x19
 1809 0c7a F7040000 		.4byte	.LASF163
 1810 0c7e 3D01     		.2byte	0x13d
 1811 0c80 4E010000 		.4byte	0x14e
 1812 0c84 8E0C0000 		.4byte	0xc8e
 1813 0c88 04       		.uleb128 0x4
 1814 0c89 8E0C0000 		.4byte	0xc8e
 1815 0c8d 00       		.byte	0
 1816 0c8e 03       		.uleb128 0x3
 1817 0c8f 4B0B0000 		.4byte	0xb4b
 1818 0c93 22       		.uleb128 0x22
 1819 0c94 FC010000 		.4byte	.LASF169
 1820 0c98 11       		.byte	0x11
 1821 0c99 8C       		.byte	0x8c
 1822 0c9a 08       		.byte	0x8
 1823 0c9b AA0C0000 		.4byte	0xcaa
 1824 0c9f 04       		.uleb128 0x4
ARM GAS  C:\Users\DEVELO~1\AppData\Local\Temp\cc4ViyBo.s 			page 33


 1825 0ca0 AA0C0000 		.4byte	0xcaa
 1826 0ca4 04       		.uleb128 0x4
 1827 0ca5 66010000 		.4byte	0x166
 1828 0ca9 00       		.byte	0
 1829 0caa 03       		.uleb128 0x3
 1830 0cab 7B090000 		.4byte	0x97b
 1831 0caf 19       		.uleb128 0x19
 1832 0cb0 B5020000 		.4byte	.LASF164
 1833 0cb4 3101     		.2byte	0x131
 1834 0cb6 4E010000 		.4byte	0x14e
 1835 0cba C90C0000 		.4byte	0xcc9
 1836 0cbe 04       		.uleb128 0x4
 1837 0cbf C90C0000 		.4byte	0xcc9
 1838 0cc3 04       		.uleb128 0x4
 1839 0cc4 C0000000 		.4byte	0xc0
 1840 0cc8 00       		.byte	0
 1841 0cc9 03       		.uleb128 0x3
 1842 0cca 3F0B0000 		.4byte	0xb3f
 1843 0cce 23       		.uleb128 0x23
 1844 0ccf B3070000 		.4byte	.LASF170
 1845 0cd3 02       		.byte	0x2
 1846 0cd4 58       		.byte	0x58
 1847 0cd5 07       		.byte	0x7
 1848 0cd6 4E010000 		.4byte	0x14e
 1849 0cda 00000000 		.4byte	.LFB433
 1850 0cde 30000000 		.4byte	.LFE433-.LFB433
 1851 0ce2 01       		.uleb128 0x1
 1852 0ce3 9C       		.byte	0x9c
 1853 0ce4 0D0D0000 		.4byte	0xd0d
 1854 0ce8 17       		.uleb128 0x17
 1855 0ce9 62737000 		.ascii	"bsp\000"
 1856 0ced 58       		.byte	0x58
 1857 0cee 26       		.byte	0x26
 1858 0cef 0D0D0000 		.4byte	0xd0d
 1859 0cf3 02       		.uleb128 0x2
 1860 0cf4 91       		.byte	0x91
 1861 0cf5 6C       		.sleb128 -20
 1862 0cf6 24       		.uleb128 0x24
 1863 0cf7 6200     		.ascii	"b\000"
 1864 0cf9 02       		.byte	0x2
 1865 0cfa 59       		.byte	0x59
 1866 0cfb 0A       		.byte	0xa
 1867 0cfc 4E010000 		.4byte	0x14e
 1868 0d00 02       		.uleb128 0x2
 1869 0d01 91       		.byte	0x91
 1870 0d02 74       		.sleb128 -12
 1871 0d03 1A       		.uleb128 0x1a
 1872 0d04 D2050000 		.4byte	.LASF165
 1873 0d08 220D0000 		.4byte	0xd22
 1874 0d0c 00       		.byte	0
 1875 0d0d 03       		.uleb128 0x3
 1876 0d0e 840B0000 		.4byte	0xb84
 1877 0d12 14       		.uleb128 0x14
 1878 0d13 64030000 		.4byte	0x364
 1879 0d17 220D0000 		.4byte	0xd22
 1880 0d1b 15       		.uleb128 0x15
 1881 0d1c 3E000000 		.4byte	0x3e
ARM GAS  C:\Users\DEVELO~1\AppData\Local\Temp\cc4ViyBo.s 			page 34


 1882 0d20 0E       		.byte	0xe
 1883 0d21 00       		.byte	0
 1884 0d22 0C       		.uleb128 0xc
 1885 0d23 120D0000 		.4byte	0xd12
 1886 0d27 25       		.uleb128 0x25
 1887 0d28 D9070000 		.4byte	.LASF171
 1888 0d2c 02       		.byte	0x2
 1889 0d2d 3C       		.byte	0x3c
 1890 0d2e 06       		.byte	0x6
 1891 0d2f 00000000 		.4byte	.LFB432
 1892 0d33 4A000000 		.4byte	.LFE432-.LFB432
 1893 0d37 01       		.uleb128 0x1
 1894 0d38 9C       		.byte	0x9c
 1895 0d39 610D0000 		.4byte	0xd61
 1896 0d3d 17       		.uleb128 0x17
 1897 0d3e 62737000 		.ascii	"bsp\000"
 1898 0d42 3C       		.byte	0x3c
 1899 0d43 26       		.byte	0x26
 1900 0d44 0D0D0000 		.4byte	0xd0d
 1901 0d48 02       		.uleb128 0x2
 1902 0d49 91       		.byte	0x91
 1903 0d4a 74       		.sleb128 -12
 1904 0d4b 17       		.uleb128 0x17
 1905 0d4c 6200     		.ascii	"b\000"
 1906 0d4e 3C       		.byte	0x3c
 1907 0d4f 33       		.byte	0x33
 1908 0d50 C0000000 		.4byte	0xc0
 1909 0d54 02       		.uleb128 0x2
 1910 0d55 91       		.byte	0x91
 1911 0d56 73       		.sleb128 -13
 1912 0d57 1A       		.uleb128 0x1a
 1913 0d58 D2050000 		.4byte	.LASF165
 1914 0d5c 710D0000 		.4byte	0xd71
 1915 0d60 00       		.byte	0
 1916 0d61 14       		.uleb128 0x14
 1917 0d62 64030000 		.4byte	0x364
 1918 0d66 710D0000 		.4byte	0xd71
 1919 0d6a 15       		.uleb128 0x15
 1920 0d6b 3E000000 		.4byte	0x3e
 1921 0d6f 0F       		.byte	0xf
 1922 0d70 00       		.byte	0
 1923 0d71 0C       		.uleb128 0xc
 1924 0d72 610D0000 		.4byte	0xd61
 1925 0d76 26       		.uleb128 0x26
 1926 0d77 21060000 		.4byte	.LASF172
 1927 0d7b 01       		.byte	0x1
 1928 0d7c BC03     		.2byte	0x3bc
 1929 0d7e 14       		.byte	0x14
 1930 0d7f 00000000 		.4byte	.LFB374
 1931 0d83 1A000000 		.4byte	.LFE374-.LFB374
 1932 0d87 01       		.uleb128 0x1
 1933 0d88 9C       		.byte	0x9c
 1934 0d89 27       		.uleb128 0x27
 1935 0d8a 65737000 		.ascii	"esp\000"
 1936 0d8e 01       		.byte	0x1
 1937 0d8f BC03     		.2byte	0x3bc
 1938 0d91 3D       		.byte	0x3d
ARM GAS  C:\Users\DEVELO~1\AppData\Local\Temp\cc4ViyBo.s 			page 35


 1939 0d92 AA0C0000 		.4byte	0xcaa
 1940 0d96 02       		.uleb128 0x2
 1941 0d97 91       		.byte	0x91
 1942 0d98 74       		.sleb128 -12
 1943 0d99 28       		.uleb128 0x28
 1944 0d9a 86070000 		.4byte	.LASF38
 1945 0d9e 01       		.byte	0x1
 1946 0d9f BD03     		.2byte	0x3bd
 1947 0da1 3A       		.byte	0x3a
 1948 0da2 66010000 		.4byte	0x166
 1949 0da6 02       		.uleb128 0x2
 1950 0da7 91       		.byte	0x91
 1951 0da8 70       		.sleb128 -16
 1952 0da9 00       		.byte	0
 1953 0daa 00       		.byte	0
 1954              		.section	.debug_abbrev,"",%progbits
 1955              	.Ldebug_abbrev0:
 1956 0000 01       		.uleb128 0x1
 1957 0001 0D       		.uleb128 0xd
 1958 0002 00       		.byte	0
 1959 0003 03       		.uleb128 0x3
 1960 0004 0E       		.uleb128 0xe
 1961 0005 3A       		.uleb128 0x3a
 1962 0006 0B       		.uleb128 0xb
 1963 0007 3B       		.uleb128 0x3b
 1964 0008 0B       		.uleb128 0xb
 1965 0009 39       		.uleb128 0x39
 1966 000a 0B       		.uleb128 0xb
 1967 000b 49       		.uleb128 0x49
 1968 000c 13       		.uleb128 0x13
 1969 000d 38       		.uleb128 0x38
 1970 000e 0B       		.uleb128 0xb
 1971 000f 00       		.byte	0
 1972 0010 00       		.byte	0
 1973 0011 02       		.uleb128 0x2
 1974 0012 16       		.uleb128 0x16
 1975 0013 00       		.byte	0
 1976 0014 03       		.uleb128 0x3
 1977 0015 0E       		.uleb128 0xe
 1978 0016 3A       		.uleb128 0x3a
 1979 0017 0B       		.uleb128 0xb
 1980 0018 3B       		.uleb128 0x3b
 1981 0019 0B       		.uleb128 0xb
 1982 001a 39       		.uleb128 0x39
 1983 001b 0B       		.uleb128 0xb
 1984 001c 49       		.uleb128 0x49
 1985 001d 13       		.uleb128 0x13
 1986 001e 00       		.byte	0
 1987 001f 00       		.byte	0
 1988 0020 03       		.uleb128 0x3
 1989 0021 0F       		.uleb128 0xf
 1990 0022 00       		.byte	0
 1991 0023 0B       		.uleb128 0xb
 1992 0024 21       		.uleb128 0x21
 1993 0025 04       		.sleb128 4
 1994 0026 49       		.uleb128 0x49
 1995 0027 13       		.uleb128 0x13
ARM GAS  C:\Users\DEVELO~1\AppData\Local\Temp\cc4ViyBo.s 			page 36


 1996 0028 00       		.byte	0
 1997 0029 00       		.byte	0
 1998 002a 04       		.uleb128 0x4
 1999 002b 05       		.uleb128 0x5
 2000 002c 00       		.byte	0
 2001 002d 49       		.uleb128 0x49
 2002 002e 13       		.uleb128 0x13
 2003 002f 00       		.byte	0
 2004 0030 00       		.byte	0
 2005 0031 05       		.uleb128 0x5
 2006 0032 0D       		.uleb128 0xd
 2007 0033 00       		.byte	0
 2008 0034 03       		.uleb128 0x3
 2009 0035 0E       		.uleb128 0xe
 2010 0036 3A       		.uleb128 0x3a
 2011 0037 21       		.uleb128 0x21
 2012 0038 08       		.sleb128 8
 2013 0039 3B       		.uleb128 0x3b
 2014 003a 05       		.uleb128 0x5
 2015 003b 39       		.uleb128 0x39
 2016 003c 0B       		.uleb128 0xb
 2017 003d 49       		.uleb128 0x49
 2018 003e 13       		.uleb128 0x13
 2019 003f 38       		.uleb128 0x38
 2020 0040 0B       		.uleb128 0xb
 2021 0041 00       		.byte	0
 2022 0042 00       		.byte	0
 2023 0043 06       		.uleb128 0x6
 2024 0044 13       		.uleb128 0x13
 2025 0045 01       		.byte	0x1
 2026 0046 03       		.uleb128 0x3
 2027 0047 0E       		.uleb128 0xe
 2028 0048 0B       		.uleb128 0xb
 2029 0049 0B       		.uleb128 0xb
 2030 004a 3A       		.uleb128 0x3a
 2031 004b 0B       		.uleb128 0xb
 2032 004c 3B       		.uleb128 0x3b
 2033 004d 0B       		.uleb128 0xb
 2034 004e 39       		.uleb128 0x39
 2035 004f 0B       		.uleb128 0xb
 2036 0050 01       		.uleb128 0x1
 2037 0051 13       		.uleb128 0x13
 2038 0052 00       		.byte	0
 2039 0053 00       		.byte	0
 2040 0054 07       		.uleb128 0x7
 2041 0055 0D       		.uleb128 0xd
 2042 0056 00       		.byte	0
 2043 0057 03       		.uleb128 0x3
 2044 0058 08       		.uleb128 0x8
 2045 0059 3A       		.uleb128 0x3a
 2046 005a 0B       		.uleb128 0xb
 2047 005b 3B       		.uleb128 0x3b
 2048 005c 0B       		.uleb128 0xb
 2049 005d 39       		.uleb128 0x39
 2050 005e 0B       		.uleb128 0xb
 2051 005f 49       		.uleb128 0x49
 2052 0060 13       		.uleb128 0x13
ARM GAS  C:\Users\DEVELO~1\AppData\Local\Temp\cc4ViyBo.s 			page 37


 2053 0061 38       		.uleb128 0x38
 2054 0062 0B       		.uleb128 0xb
 2055 0063 00       		.byte	0
 2056 0064 00       		.byte	0
 2057 0065 08       		.uleb128 0x8
 2058 0066 24       		.uleb128 0x24
 2059 0067 00       		.byte	0
 2060 0068 0B       		.uleb128 0xb
 2061 0069 0B       		.uleb128 0xb
 2062 006a 3E       		.uleb128 0x3e
 2063 006b 0B       		.uleb128 0xb
 2064 006c 03       		.uleb128 0x3
 2065 006d 0E       		.uleb128 0xe
 2066 006e 00       		.byte	0
 2067 006f 00       		.byte	0
 2068 0070 09       		.uleb128 0x9
 2069 0071 0D       		.uleb128 0xd
 2070 0072 00       		.byte	0
 2071 0073 03       		.uleb128 0x3
 2072 0074 08       		.uleb128 0x8
 2073 0075 3A       		.uleb128 0x3a
 2074 0076 0B       		.uleb128 0xb
 2075 0077 3B       		.uleb128 0x3b
 2076 0078 05       		.uleb128 0x5
 2077 0079 39       		.uleb128 0x39
 2078 007a 0B       		.uleb128 0xb
 2079 007b 49       		.uleb128 0x49
 2080 007c 13       		.uleb128 0x13
 2081 007d 38       		.uleb128 0x38
 2082 007e 0B       		.uleb128 0xb
 2083 007f 00       		.byte	0
 2084 0080 00       		.byte	0
 2085 0081 0A       		.uleb128 0xa
 2086 0082 15       		.uleb128 0x15
 2087 0083 01       		.byte	0x1
 2088 0084 27       		.uleb128 0x27
 2089 0085 19       		.uleb128 0x19
 2090 0086 49       		.uleb128 0x49
 2091 0087 13       		.uleb128 0x13
 2092 0088 01       		.uleb128 0x1
 2093 0089 13       		.uleb128 0x13
 2094 008a 00       		.byte	0
 2095 008b 00       		.byte	0
 2096 008c 0B       		.uleb128 0xb
 2097 008d 0D       		.uleb128 0xd
 2098 008e 00       		.byte	0
 2099 008f 03       		.uleb128 0x3
 2100 0090 0E       		.uleb128 0xe
 2101 0091 3A       		.uleb128 0x3a
 2102 0092 0B       		.uleb128 0xb
 2103 0093 3B       		.uleb128 0x3b
 2104 0094 0B       		.uleb128 0xb
 2105 0095 39       		.uleb128 0x39
 2106 0096 0B       		.uleb128 0xb
 2107 0097 49       		.uleb128 0x49
 2108 0098 13       		.uleb128 0x13
 2109 0099 00       		.byte	0
ARM GAS  C:\Users\DEVELO~1\AppData\Local\Temp\cc4ViyBo.s 			page 38


 2110 009a 00       		.byte	0
 2111 009b 0C       		.uleb128 0xc
 2112 009c 26       		.uleb128 0x26
 2113 009d 00       		.byte	0
 2114 009e 49       		.uleb128 0x49
 2115 009f 13       		.uleb128 0x13
 2116 00a0 00       		.byte	0
 2117 00a1 00       		.byte	0
 2118 00a2 0D       		.uleb128 0xd
 2119 00a3 13       		.uleb128 0x13
 2120 00a4 01       		.byte	0x1
 2121 00a5 0B       		.uleb128 0xb
 2122 00a6 0B       		.uleb128 0xb
 2123 00a7 3A       		.uleb128 0x3a
 2124 00a8 21       		.uleb128 0x21
 2125 00a9 0D       		.sleb128 13
 2126 00aa 3B       		.uleb128 0x3b
 2127 00ab 0B       		.uleb128 0xb
 2128 00ac 39       		.uleb128 0x39
 2129 00ad 0B       		.uleb128 0xb
 2130 00ae 01       		.uleb128 0x1
 2131 00af 13       		.uleb128 0x13
 2132 00b0 00       		.byte	0
 2133 00b1 00       		.byte	0
 2134 00b2 0E       		.uleb128 0xe
 2135 00b3 0D       		.uleb128 0xd
 2136 00b4 00       		.byte	0
 2137 00b5 03       		.uleb128 0x3
 2138 00b6 0E       		.uleb128 0xe
 2139 00b7 3A       		.uleb128 0x3a
 2140 00b8 21       		.uleb128 0x21
 2141 00b9 08       		.sleb128 8
 2142 00ba 3B       		.uleb128 0x3b
 2143 00bb 05       		.uleb128 0x5
 2144 00bc 39       		.uleb128 0x39
 2145 00bd 0B       		.uleb128 0xb
 2146 00be 49       		.uleb128 0x49
 2147 00bf 13       		.uleb128 0x13
 2148 00c0 00       		.byte	0
 2149 00c1 00       		.byte	0
 2150 00c2 0F       		.uleb128 0xf
 2151 00c3 13       		.uleb128 0x13
 2152 00c4 01       		.byte	0x1
 2153 00c5 03       		.uleb128 0x3
 2154 00c6 0E       		.uleb128 0xe
 2155 00c7 0B       		.uleb128 0xb
 2156 00c8 0B       		.uleb128 0xb
 2157 00c9 3A       		.uleb128 0x3a
 2158 00ca 0B       		.uleb128 0xb
 2159 00cb 3B       		.uleb128 0x3b
 2160 00cc 05       		.uleb128 0x5
 2161 00cd 39       		.uleb128 0x39
 2162 00ce 0B       		.uleb128 0xb
 2163 00cf 01       		.uleb128 0x1
 2164 00d0 13       		.uleb128 0x13
 2165 00d1 00       		.byte	0
 2166 00d2 00       		.byte	0
ARM GAS  C:\Users\DEVELO~1\AppData\Local\Temp\cc4ViyBo.s 			page 39


 2167 00d3 10       		.uleb128 0x10
 2168 00d4 35       		.uleb128 0x35
 2169 00d5 00       		.byte	0
 2170 00d6 49       		.uleb128 0x49
 2171 00d7 13       		.uleb128 0x13
 2172 00d8 00       		.byte	0
 2173 00d9 00       		.byte	0
 2174 00da 11       		.uleb128 0x11
 2175 00db 17       		.uleb128 0x17
 2176 00dc 01       		.byte	0x1
 2177 00dd 0B       		.uleb128 0xb
 2178 00de 0B       		.uleb128 0xb
 2179 00df 3A       		.uleb128 0x3a
 2180 00e0 0B       		.uleb128 0xb
 2181 00e1 3B       		.uleb128 0x3b
 2182 00e2 0B       		.uleb128 0xb
 2183 00e3 39       		.uleb128 0x39
 2184 00e4 21       		.uleb128 0x21
 2185 00e5 03       		.sleb128 3
 2186 00e6 01       		.uleb128 0x1
 2187 00e7 13       		.uleb128 0x13
 2188 00e8 00       		.byte	0
 2189 00e9 00       		.byte	0
 2190 00ea 12       		.uleb128 0x12
 2191 00eb 0D       		.uleb128 0xd
 2192 00ec 00       		.byte	0
 2193 00ed 03       		.uleb128 0x3
 2194 00ee 08       		.uleb128 0x8
 2195 00ef 3A       		.uleb128 0x3a
 2196 00f0 21       		.uleb128 0x21
 2197 00f1 0D       		.sleb128 13
 2198 00f2 3B       		.uleb128 0x3b
 2199 00f3 0B       		.uleb128 0xb
 2200 00f4 39       		.uleb128 0x39
 2201 00f5 21       		.uleb128 0x21
 2202 00f6 07       		.sleb128 7
 2203 00f7 49       		.uleb128 0x49
 2204 00f8 13       		.uleb128 0x13
 2205 00f9 00       		.byte	0
 2206 00fa 00       		.byte	0
 2207 00fb 13       		.uleb128 0x13
 2208 00fc 0D       		.uleb128 0xd
 2209 00fd 00       		.byte	0
 2210 00fe 03       		.uleb128 0x3
 2211 00ff 0E       		.uleb128 0xe
 2212 0100 3A       		.uleb128 0x3a
 2213 0101 21       		.uleb128 0x21
 2214 0102 0D       		.sleb128 13
 2215 0103 3B       		.uleb128 0x3b
 2216 0104 0B       		.uleb128 0xb
 2217 0105 39       		.uleb128 0x39
 2218 0106 21       		.uleb128 0x21
 2219 0107 19       		.sleb128 25
 2220 0108 49       		.uleb128 0x49
 2221 0109 13       		.uleb128 0x13
 2222 010a 0D       		.uleb128 0xd
 2223 010b 0B       		.uleb128 0xb
ARM GAS  C:\Users\DEVELO~1\AppData\Local\Temp\cc4ViyBo.s 			page 40


 2224 010c 6B       		.uleb128 0x6b
 2225 010d 0B       		.uleb128 0xb
 2226 010e 00       		.byte	0
 2227 010f 00       		.byte	0
 2228 0110 14       		.uleb128 0x14
 2229 0111 01       		.uleb128 0x1
 2230 0112 01       		.byte	0x1
 2231 0113 49       		.uleb128 0x49
 2232 0114 13       		.uleb128 0x13
 2233 0115 01       		.uleb128 0x1
 2234 0116 13       		.uleb128 0x13
 2235 0117 00       		.byte	0
 2236 0118 00       		.byte	0
 2237 0119 15       		.uleb128 0x15
 2238 011a 21       		.uleb128 0x21
 2239 011b 00       		.byte	0
 2240 011c 49       		.uleb128 0x49
 2241 011d 13       		.uleb128 0x13
 2242 011e 2F       		.uleb128 0x2f
 2243 011f 0B       		.uleb128 0xb
 2244 0120 00       		.byte	0
 2245 0121 00       		.byte	0
 2246 0122 16       		.uleb128 0x16
 2247 0123 28       		.uleb128 0x28
 2248 0124 00       		.byte	0
 2249 0125 03       		.uleb128 0x3
 2250 0126 0E       		.uleb128 0xe
 2251 0127 1C       		.uleb128 0x1c
 2252 0128 0B       		.uleb128 0xb
 2253 0129 00       		.byte	0
 2254 012a 00       		.byte	0
 2255 012b 17       		.uleb128 0x17
 2256 012c 05       		.uleb128 0x5
 2257 012d 00       		.byte	0
 2258 012e 03       		.uleb128 0x3
 2259 012f 08       		.uleb128 0x8
 2260 0130 3A       		.uleb128 0x3a
 2261 0131 21       		.uleb128 0x21
 2262 0132 02       		.sleb128 2
 2263 0133 3B       		.uleb128 0x3b
 2264 0134 0B       		.uleb128 0xb
 2265 0135 39       		.uleb128 0x39
 2266 0136 0B       		.uleb128 0xb
 2267 0137 49       		.uleb128 0x49
 2268 0138 13       		.uleb128 0x13
 2269 0139 02       		.uleb128 0x2
 2270 013a 18       		.uleb128 0x18
 2271 013b 00       		.byte	0
 2272 013c 00       		.byte	0
 2273 013d 18       		.uleb128 0x18
 2274 013e 16       		.uleb128 0x16
 2275 013f 00       		.byte	0
 2276 0140 03       		.uleb128 0x3
 2277 0141 0E       		.uleb128 0xe
 2278 0142 3A       		.uleb128 0x3a
 2279 0143 21       		.uleb128 0x21
 2280 0144 08       		.sleb128 8
ARM GAS  C:\Users\DEVELO~1\AppData\Local\Temp\cc4ViyBo.s 			page 41


 2281 0145 3B       		.uleb128 0x3b
 2282 0146 05       		.uleb128 0x5
 2283 0147 39       		.uleb128 0x39
 2284 0148 21       		.uleb128 0x21
 2285 0149 03       		.sleb128 3
 2286 014a 49       		.uleb128 0x49
 2287 014b 13       		.uleb128 0x13
 2288 014c 00       		.byte	0
 2289 014d 00       		.byte	0
 2290 014e 19       		.uleb128 0x19
 2291 014f 2E       		.uleb128 0x2e
 2292 0150 01       		.byte	0x1
 2293 0151 3F       		.uleb128 0x3f
 2294 0152 19       		.uleb128 0x19
 2295 0153 03       		.uleb128 0x3
 2296 0154 0E       		.uleb128 0xe
 2297 0155 3A       		.uleb128 0x3a
 2298 0156 21       		.uleb128 0x21
 2299 0157 12       		.sleb128 18
 2300 0158 3B       		.uleb128 0x3b
 2301 0159 05       		.uleb128 0x5
 2302 015a 39       		.uleb128 0x39
 2303 015b 21       		.uleb128 0x21
 2304 015c 09       		.sleb128 9
 2305 015d 27       		.uleb128 0x27
 2306 015e 19       		.uleb128 0x19
 2307 015f 49       		.uleb128 0x49
 2308 0160 13       		.uleb128 0x13
 2309 0161 3C       		.uleb128 0x3c
 2310 0162 19       		.uleb128 0x19
 2311 0163 01       		.uleb128 0x1
 2312 0164 13       		.uleb128 0x13
 2313 0165 00       		.byte	0
 2314 0166 00       		.byte	0
 2315 0167 1A       		.uleb128 0x1a
 2316 0168 34       		.uleb128 0x34
 2317 0169 00       		.byte	0
 2318 016a 03       		.uleb128 0x3
 2319 016b 0E       		.uleb128 0xe
 2320 016c 49       		.uleb128 0x49
 2321 016d 13       		.uleb128 0x13
 2322 016e 34       		.uleb128 0x34
 2323 016f 19       		.uleb128 0x19
 2324 0170 00       		.byte	0
 2325 0171 00       		.byte	0
 2326 0172 1B       		.uleb128 0x1b
 2327 0173 11       		.uleb128 0x11
 2328 0174 01       		.byte	0x1
 2329 0175 25       		.uleb128 0x25
 2330 0176 0E       		.uleb128 0xe
 2331 0177 13       		.uleb128 0x13
 2332 0178 0B       		.uleb128 0xb
 2333 0179 03       		.uleb128 0x3
 2334 017a 0E       		.uleb128 0xe
 2335 017b 1B       		.uleb128 0x1b
 2336 017c 0E       		.uleb128 0xe
 2337 017d 55       		.uleb128 0x55
ARM GAS  C:\Users\DEVELO~1\AppData\Local\Temp\cc4ViyBo.s 			page 42


 2338 017e 17       		.uleb128 0x17
 2339 017f 11       		.uleb128 0x11
 2340 0180 01       		.uleb128 0x1
 2341 0181 10       		.uleb128 0x10
 2342 0182 17       		.uleb128 0x17
 2343 0183 00       		.byte	0
 2344 0184 00       		.byte	0
 2345 0185 1C       		.uleb128 0x1c
 2346 0186 24       		.uleb128 0x24
 2347 0187 00       		.byte	0
 2348 0188 0B       		.uleb128 0xb
 2349 0189 0B       		.uleb128 0xb
 2350 018a 3E       		.uleb128 0x3e
 2351 018b 0B       		.uleb128 0xb
 2352 018c 03       		.uleb128 0x3
 2353 018d 08       		.uleb128 0x8
 2354 018e 00       		.byte	0
 2355 018f 00       		.byte	0
 2356 0190 1D       		.uleb128 0x1d
 2357 0191 13       		.uleb128 0x13
 2358 0192 01       		.byte	0x1
 2359 0193 03       		.uleb128 0x3
 2360 0194 0E       		.uleb128 0xe
 2361 0195 0B       		.uleb128 0xb
 2362 0196 05       		.uleb128 0x5
 2363 0197 3A       		.uleb128 0x3a
 2364 0198 0B       		.uleb128 0xb
 2365 0199 3B       		.uleb128 0x3b
 2366 019a 05       		.uleb128 0x5
 2367 019b 39       		.uleb128 0x39
 2368 019c 0B       		.uleb128 0xb
 2369 019d 01       		.uleb128 0x1
 2370 019e 13       		.uleb128 0x13
 2371 019f 00       		.byte	0
 2372 01a0 00       		.byte	0
 2373 01a1 1E       		.uleb128 0x1e
 2374 01a2 0F       		.uleb128 0xf
 2375 01a3 00       		.byte	0
 2376 01a4 0B       		.uleb128 0xb
 2377 01a5 0B       		.uleb128 0xb
 2378 01a6 00       		.byte	0
 2379 01a7 00       		.byte	0
 2380 01a8 1F       		.uleb128 0x1f
 2381 01a9 13       		.uleb128 0x13
 2382 01aa 01       		.byte	0x1
 2383 01ab 0B       		.uleb128 0xb
 2384 01ac 05       		.uleb128 0x5
 2385 01ad 3A       		.uleb128 0x3a
 2386 01ae 0B       		.uleb128 0xb
 2387 01af 3B       		.uleb128 0x3b
 2388 01b0 0B       		.uleb128 0xb
 2389 01b1 39       		.uleb128 0x39
 2390 01b2 0B       		.uleb128 0xb
 2391 01b3 01       		.uleb128 0x1
 2392 01b4 13       		.uleb128 0x13
 2393 01b5 00       		.byte	0
 2394 01b6 00       		.byte	0
ARM GAS  C:\Users\DEVELO~1\AppData\Local\Temp\cc4ViyBo.s 			page 43


 2395 01b7 20       		.uleb128 0x20
 2396 01b8 15       		.uleb128 0x15
 2397 01b9 01       		.byte	0x1
 2398 01ba 27       		.uleb128 0x27
 2399 01bb 19       		.uleb128 0x19
 2400 01bc 01       		.uleb128 0x1
 2401 01bd 13       		.uleb128 0x13
 2402 01be 00       		.byte	0
 2403 01bf 00       		.byte	0
 2404 01c0 21       		.uleb128 0x21
 2405 01c1 04       		.uleb128 0x4
 2406 01c2 01       		.byte	0x1
 2407 01c3 3E       		.uleb128 0x3e
 2408 01c4 0B       		.uleb128 0xb
 2409 01c5 0B       		.uleb128 0xb
 2410 01c6 0B       		.uleb128 0xb
 2411 01c7 49       		.uleb128 0x49
 2412 01c8 13       		.uleb128 0x13
 2413 01c9 3A       		.uleb128 0x3a
 2414 01ca 0B       		.uleb128 0xb
 2415 01cb 3B       		.uleb128 0x3b
 2416 01cc 0B       		.uleb128 0xb
 2417 01cd 39       		.uleb128 0x39
 2418 01ce 0B       		.uleb128 0xb
 2419 01cf 01       		.uleb128 0x1
 2420 01d0 13       		.uleb128 0x13
 2421 01d1 00       		.byte	0
 2422 01d2 00       		.byte	0
 2423 01d3 22       		.uleb128 0x22
 2424 01d4 2E       		.uleb128 0x2e
 2425 01d5 01       		.byte	0x1
 2426 01d6 3F       		.uleb128 0x3f
 2427 01d7 19       		.uleb128 0x19
 2428 01d8 03       		.uleb128 0x3
 2429 01d9 0E       		.uleb128 0xe
 2430 01da 3A       		.uleb128 0x3a
 2431 01db 0B       		.uleb128 0xb
 2432 01dc 3B       		.uleb128 0x3b
 2433 01dd 0B       		.uleb128 0xb
 2434 01de 39       		.uleb128 0x39
 2435 01df 0B       		.uleb128 0xb
 2436 01e0 27       		.uleb128 0x27
 2437 01e1 19       		.uleb128 0x19
 2438 01e2 3C       		.uleb128 0x3c
 2439 01e3 19       		.uleb128 0x19
 2440 01e4 01       		.uleb128 0x1
 2441 01e5 13       		.uleb128 0x13
 2442 01e6 00       		.byte	0
 2443 01e7 00       		.byte	0
 2444 01e8 23       		.uleb128 0x23
 2445 01e9 2E       		.uleb128 0x2e
 2446 01ea 01       		.byte	0x1
 2447 01eb 3F       		.uleb128 0x3f
 2448 01ec 19       		.uleb128 0x19
 2449 01ed 03       		.uleb128 0x3
 2450 01ee 0E       		.uleb128 0xe
 2451 01ef 3A       		.uleb128 0x3a
ARM GAS  C:\Users\DEVELO~1\AppData\Local\Temp\cc4ViyBo.s 			page 44


 2452 01f0 0B       		.uleb128 0xb
 2453 01f1 3B       		.uleb128 0x3b
 2454 01f2 0B       		.uleb128 0xb
 2455 01f3 39       		.uleb128 0x39
 2456 01f4 0B       		.uleb128 0xb
 2457 01f5 27       		.uleb128 0x27
 2458 01f6 19       		.uleb128 0x19
 2459 01f7 49       		.uleb128 0x49
 2460 01f8 13       		.uleb128 0x13
 2461 01f9 11       		.uleb128 0x11
 2462 01fa 01       		.uleb128 0x1
 2463 01fb 12       		.uleb128 0x12
 2464 01fc 06       		.uleb128 0x6
 2465 01fd 40       		.uleb128 0x40
 2466 01fe 18       		.uleb128 0x18
 2467 01ff 7C       		.uleb128 0x7c
 2468 0200 19       		.uleb128 0x19
 2469 0201 01       		.uleb128 0x1
 2470 0202 13       		.uleb128 0x13
 2471 0203 00       		.byte	0
 2472 0204 00       		.byte	0
 2473 0205 24       		.uleb128 0x24
 2474 0206 34       		.uleb128 0x34
 2475 0207 00       		.byte	0
 2476 0208 03       		.uleb128 0x3
 2477 0209 08       		.uleb128 0x8
 2478 020a 3A       		.uleb128 0x3a
 2479 020b 0B       		.uleb128 0xb
 2480 020c 3B       		.uleb128 0x3b
 2481 020d 0B       		.uleb128 0xb
 2482 020e 39       		.uleb128 0x39
 2483 020f 0B       		.uleb128 0xb
 2484 0210 49       		.uleb128 0x49
 2485 0211 13       		.uleb128 0x13
 2486 0212 02       		.uleb128 0x2
 2487 0213 18       		.uleb128 0x18
 2488 0214 00       		.byte	0
 2489 0215 00       		.byte	0
 2490 0216 25       		.uleb128 0x25
 2491 0217 2E       		.uleb128 0x2e
 2492 0218 01       		.byte	0x1
 2493 0219 3F       		.uleb128 0x3f
 2494 021a 19       		.uleb128 0x19
 2495 021b 03       		.uleb128 0x3
 2496 021c 0E       		.uleb128 0xe
 2497 021d 3A       		.uleb128 0x3a
 2498 021e 0B       		.uleb128 0xb
 2499 021f 3B       		.uleb128 0x3b
 2500 0220 0B       		.uleb128 0xb
 2501 0221 39       		.uleb128 0x39
 2502 0222 0B       		.uleb128 0xb
 2503 0223 27       		.uleb128 0x27
 2504 0224 19       		.uleb128 0x19
 2505 0225 11       		.uleb128 0x11
 2506 0226 01       		.uleb128 0x1
 2507 0227 12       		.uleb128 0x12
 2508 0228 06       		.uleb128 0x6
ARM GAS  C:\Users\DEVELO~1\AppData\Local\Temp\cc4ViyBo.s 			page 45


 2509 0229 40       		.uleb128 0x40
 2510 022a 18       		.uleb128 0x18
 2511 022b 7C       		.uleb128 0x7c
 2512 022c 19       		.uleb128 0x19
 2513 022d 01       		.uleb128 0x1
 2514 022e 13       		.uleb128 0x13
 2515 022f 00       		.byte	0
 2516 0230 00       		.byte	0
 2517 0231 26       		.uleb128 0x26
 2518 0232 2E       		.uleb128 0x2e
 2519 0233 01       		.byte	0x1
 2520 0234 03       		.uleb128 0x3
 2521 0235 0E       		.uleb128 0xe
 2522 0236 3A       		.uleb128 0x3a
 2523 0237 0B       		.uleb128 0xb
 2524 0238 3B       		.uleb128 0x3b
 2525 0239 05       		.uleb128 0x5
 2526 023a 39       		.uleb128 0x39
 2527 023b 0B       		.uleb128 0xb
 2528 023c 27       		.uleb128 0x27
 2529 023d 19       		.uleb128 0x19
 2530 023e 11       		.uleb128 0x11
 2531 023f 01       		.uleb128 0x1
 2532 0240 12       		.uleb128 0x12
 2533 0241 06       		.uleb128 0x6
 2534 0242 40       		.uleb128 0x40
 2535 0243 18       		.uleb128 0x18
 2536 0244 7C       		.uleb128 0x7c
 2537 0245 19       		.uleb128 0x19
 2538 0246 00       		.byte	0
 2539 0247 00       		.byte	0
 2540 0248 27       		.uleb128 0x27
 2541 0249 05       		.uleb128 0x5
 2542 024a 00       		.byte	0
 2543 024b 03       		.uleb128 0x3
 2544 024c 08       		.uleb128 0x8
 2545 024d 3A       		.uleb128 0x3a
 2546 024e 0B       		.uleb128 0xb
 2547 024f 3B       		.uleb128 0x3b
 2548 0250 05       		.uleb128 0x5
 2549 0251 39       		.uleb128 0x39
 2550 0252 0B       		.uleb128 0xb
 2551 0253 49       		.uleb128 0x49
 2552 0254 13       		.uleb128 0x13
 2553 0255 02       		.uleb128 0x2
 2554 0256 18       		.uleb128 0x18
 2555 0257 00       		.byte	0
 2556 0258 00       		.byte	0
 2557 0259 28       		.uleb128 0x28
 2558 025a 05       		.uleb128 0x5
 2559 025b 00       		.byte	0
 2560 025c 03       		.uleb128 0x3
 2561 025d 0E       		.uleb128 0xe
 2562 025e 3A       		.uleb128 0x3a
 2563 025f 0B       		.uleb128 0xb
 2564 0260 3B       		.uleb128 0x3b
 2565 0261 05       		.uleb128 0x5
ARM GAS  C:\Users\DEVELO~1\AppData\Local\Temp\cc4ViyBo.s 			page 46


 2566 0262 39       		.uleb128 0x39
 2567 0263 0B       		.uleb128 0xb
 2568 0264 49       		.uleb128 0x49
 2569 0265 13       		.uleb128 0x13
 2570 0266 02       		.uleb128 0x2
 2571 0267 18       		.uleb128 0x18
 2572 0268 00       		.byte	0
 2573 0269 00       		.byte	0
 2574 026a 00       		.byte	0
 2575              		.section	.debug_aranges,"",%progbits
 2576 0000 2C000000 		.4byte	0x2c
 2577 0004 0200     		.2byte	0x2
 2578 0006 00000000 		.4byte	.Ldebug_info0
 2579 000a 04       		.byte	0x4
 2580 000b 00       		.byte	0
 2581 000c 0000     		.2byte	0
 2582 000e 0000     		.2byte	0
 2583 0010 00000000 		.4byte	.LFB374
 2584 0014 1A000000 		.4byte	.LFE374-.LFB374
 2585 0018 00000000 		.4byte	.LFB432
 2586 001c 4A000000 		.4byte	.LFE432-.LFB432
 2587 0020 00000000 		.4byte	.LFB433
 2588 0024 30000000 		.4byte	.LFE433-.LFB433
 2589 0028 00000000 		.4byte	0
 2590 002c 00000000 		.4byte	0
 2591              		.section	.debug_rnglists,"",%progbits
 2592              	.Ldebug_ranges0:
 2593 0000 1B000000 		.4byte	.Ldebug_ranges3-.Ldebug_ranges2
 2594              	.Ldebug_ranges2:
 2595 0004 0500     		.2byte	0x5
 2596 0006 04       		.byte	0x4
 2597 0007 00       		.byte	0
 2598 0008 00000000 		.4byte	0
 2599              	.LLRL0:
 2600 000c 07       		.byte	0x7
 2601 000d 00000000 		.4byte	.LFB374
 2602 0011 1A       		.uleb128 .LFE374-.LFB374
 2603 0012 07       		.byte	0x7
 2604 0013 00000000 		.4byte	.LFB432
 2605 0017 4A       		.uleb128 .LFE432-.LFB432
 2606 0018 07       		.byte	0x7
 2607 0019 00000000 		.4byte	.LFB433
 2608 001d 30       		.uleb128 .LFE433-.LFB433
 2609 001e 00       		.byte	0
 2610              	.Ldebug_ranges3:
 2611              		.section	.debug_line,"",%progbits
 2612              	.Ldebug_line0:
 2613 0000 39030000 		.section	.debug_str,"MS",%progbits,1
 2613      0300D002 
 2613      00000201 
 2613      FB0E0D00 
 2613      01010101 
 2614              	.LASF150:
 2615 0000 42756666 		.ascii	"BufferedSerial\000"
 2615      65726564 
 2615      53657269 
 2615      616C00
ARM GAS  C:\Users\DEVELO~1\AppData\Local\Temp\cc4ViyBo.s 			page 47


 2616              	.LASF117:
 2617 000f 72656164 		.ascii	"ready_list_t\000"
 2617      795F6C69 
 2617      73745F74 
 2617      00
 2618              	.LASF4:
 2619 001c 73697A65 		.ascii	"size_t\000"
 2619      5F7400
 2620              	.LASF106:
 2621 0023 7264796D 		.ascii	"rdymsg\000"
 2621      736700
 2622              	.LASF53:
 2623 002a 72666375 		.ascii	"rfcu\000"
 2623      00
 2624              	.LASF157:
 2625 002f 77726974 		.ascii	"write\000"
 2625      6500
 2626              	.LASF5:
 2627 0035 5F5F7569 		.ascii	"__uint8_t\000"
 2627      6E74385F 
 2627      7400
 2628              	.LASF72:
 2629 003f 70726576 		.ascii	"prev\000"
 2629      00
 2630              	.LASF91:
 2631 0044 706F7274 		.ascii	"port_intctx\000"
 2631      5F696E74 
 2631      63747800 
 2632              	.LASF50:
 2633 0050 76746C69 		.ascii	"vtlist\000"
 2633      737400
 2634              	.LASF83:
 2635 0057 74797065 		.ascii	"type\000"
 2635      00
 2636              	.LASF86:
 2637 005c 74726163 		.ascii	"trace_event_t\000"
 2637      655F6576 
 2637      656E745F 
 2637      7400
 2638              	.LASF81:
 2639 006a 68616C74 		.ascii	"halt\000"
 2639      00
 2640              	.LASF107:
 2641 006f 65786974 		.ascii	"exitcode\000"
 2641      636F6465 
 2641      00
 2642              	.LASF55:
 2643 0078 6D61696E 		.ascii	"mainthread\000"
 2643      74687265 
 2643      616400
 2644              	.LASF109:
 2645 0083 73656E74 		.ascii	"sentmsg\000"
 2645      6D736700 
 2646              	.LASF78:
 2647 008b 64656C74 		.ascii	"delta\000"
 2647      6100
 2648              	.LASF133:
ARM GAS  C:\Users\DEVELO~1\AppData\Local\Temp\cc4ViyBo.s 			page 48


 2649 0091 696F5F71 		.ascii	"io_queue_t\000"
 2649      75657565 
 2649      5F7400
 2650              	.LASF69:
 2651 009c 6E657874 		.ascii	"next\000"
 2651      00
 2652              	.LASF102:
 2653 00a1 63685F74 		.ascii	"ch_threads_queue\000"
 2653      68726561 
 2653      64735F71 
 2653      75657565 
 2653      00
 2654              	.LASF162:
 2655 00b2 72656164 		.ascii	"readt\000"
 2655      7400
 2656              	.LASF39:
 2657 00b8 72656673 		.ascii	"refs\000"
 2657      00
 2658              	.LASF135:
 2659 00bd 715F7761 		.ascii	"q_waiting\000"
 2659      6974696E 
 2659      6700
 2660              	.LASF1:
 2661 00c7 6C6F6E67 		.ascii	"long long int\000"
 2661      206C6F6E 
 2661      6720696E 
 2661      7400
 2662              	.LASF3:
 2663 00d5 7369676E 		.ascii	"signed char\000"
 2663      65642063 
 2663      68617200 
 2664              	.LASF13:
 2665 00e1 6C6F6E67 		.ascii	"long unsigned int\000"
 2665      20756E73 
 2665      69676E65 
 2665      6420696E 
 2665      7400
 2666              	.LASF77:
 2667 00f3 63685F64 		.ascii	"ch_delta_list\000"
 2667      656C7461 
 2667      5F6C6973 
 2667      7400
 2668              	.LASF15:
 2669 0101 6C6F6E67 		.ascii	"long long unsigned int\000"
 2669      206C6F6E 
 2669      6720756E 
 2669      7369676E 
 2669      65642069 
 2670              	.LASF166:
 2671 0118 474E5520 		.ascii	"GNU C17 11.3.1 20220712 -mcpu=cortex-m7 -mthumb -mf"
 2671      43313720 
 2671      31312E33 
 2671      2E312032 
 2671      30323230 
 2672 014b 6C6F6174 		.ascii	"loat-abi=soft -march=armv7e-m -ggdb -O0 -ffunction-"
 2672      2D616269 
 2672      3D736F66 
ARM GAS  C:\Users\DEVELO~1\AppData\Local\Temp\cc4ViyBo.s 			page 49


 2672      74202D6D 
 2672      61726368 
 2673 017e 73656374 		.ascii	"sections -fdata-sections -fno-common\000"
 2673      696F6E73 
 2673      202D6664 
 2673      6174612D 
 2673      73656374 
 2674              	.LASF68:
 2675 01a3 63685F6C 		.ascii	"ch_list\000"
 2675      69737400 
 2676              	.LASF37:
 2677 01ab 73746174 		.ascii	"state\000"
 2677      6500
 2678              	.LASF11:
 2679 01b1 6C6F6E67 		.ascii	"long int\000"
 2679      20696E74 
 2679      00
 2680              	.LASF24:
 2681 01ba 74737461 		.ascii	"tstate_t\000"
 2681      74655F74 
 2681      00
 2682              	.LASF58:
 2683 01c3 63685F72 		.ascii	"ch_rfcu\000"
 2683      66637500 
 2684              	.LASF71:
 2685 01cb 63685F71 		.ascii	"ch_queue\000"
 2685      75657565 
 2685      00
 2686              	.LASF137:
 2687 01d4 715F6275 		.ascii	"q_buffer\000"
 2687      66666572 
 2687      00
 2688              	.LASF17:
 2689 01dd 75696E74 		.ascii	"uint16_t\000"
 2689      31365F74 
 2689      00
 2690              	.LASF142:
 2691 01e6 715F6C69 		.ascii	"q_link\000"
 2691      6E6B00
 2692              	.LASF90:
 2693 01ed 74726163 		.ascii	"trace_buffer_t\000"
 2693      655F6275 
 2693      66666572 
 2693      5F7400
 2694              	.LASF169:
 2695 01fc 63684576 		.ascii	"chEvtBroadcastFlagsI\000"
 2695      7442726F 
 2695      61646361 
 2695      7374466C 
 2695      61677349 
 2696              	.LASF98:
 2697 0211 63685F72 		.ascii	"ch_registry\000"
 2697      65676973 
 2697      74727900 
 2698              	.LASF129:
 2699 021d 77666C61 		.ascii	"wflags\000"
 2699      677300
ARM GAS  C:\Users\DEVELO~1\AppData\Local\Temp\cc4ViyBo.s 			page 50


 2700              	.LASF12:
 2701 0224 5F5F7569 		.ascii	"__uint32_t\000"
 2701      6E743332 
 2701      5F7400
 2702              	.LASF59:
 2703 022f 6D61736B 		.ascii	"mask\000"
 2703      00
 2704              	.LASF40:
 2705 0234 77616974 		.ascii	"waiting\000"
 2705      696E6700 
 2706              	.LASF119:
 2707 023c 6D61696E 		.ascii	"mainthread_base\000"
 2707      74687265 
 2707      61645F62 
 2707      61736500 
 2708              	.LASF124:
 2709 024c 6D757465 		.ascii	"mutex_t\000"
 2709      785F7400 
 2710              	.LASF134:
 2711 0254 696F5F71 		.ascii	"io_queue\000"
 2711      75657565 
 2711      00
 2712              	.LASF131:
 2713 025d 6576656E 		.ascii	"event_source_t\000"
 2713      745F736F 
 2713      75726365 
 2713      5F7400
 2714              	.LASF66:
 2715 026c 73797369 		.ascii	"sysinterval_t\000"
 2715      6E746572 
 2715      76616C5F 
 2715      7400
 2716              	.LASF52:
 2717 027a 636F7265 		.ascii	"core_id\000"
 2717      5F696400 
 2718              	.LASF30:
 2719 0282 636E745F 		.ascii	"cnt_t\000"
 2719      7400
 2720              	.LASF41:
 2721 0288 6D736771 		.ascii	"msgqueue\000"
 2721      75657565 
 2721      00
 2722              	.LASF0:
 2723 0291 756E7369 		.ascii	"unsigned int\000"
 2723      676E6564 
 2723      20696E74 
 2723      00
 2724              	.LASF121:
 2725 029e 69646C65 		.ascii	"idlethread_base\000"
 2725      74687265 
 2725      61645F62 
 2725      61736500 
 2726              	.LASF110:
 2727 02ae 77747365 		.ascii	"wtsemp\000"
 2727      6D7000
 2728              	.LASF164:
 2729 02b5 69715075 		.ascii	"iqPutI\000"
ARM GAS  C:\Users\DEVELO~1\AppData\Local\Temp\cc4ViyBo.s 			page 51


 2729      744900
 2730              	.LASF64:
 2731 02bc 73797374 		.ascii	"system_debug_t\000"
 2731      656D5F64 
 2731      65627567 
 2731      5F7400
 2732              	.LASF153:
 2733 02cb 69717565 		.ascii	"iqueue\000"
 2733      756500
 2734              	.LASF108:
 2735 02d2 77747472 		.ascii	"wttrp\000"
 2735      7000
 2736              	.LASF33:
 2737 02d8 72717565 		.ascii	"rqueue\000"
 2737      756500
 2738              	.LASF70:
 2739 02df 63685F71 		.ascii	"ch_queue_t\000"
 2739      75657565 
 2739      5F7400
 2740              	.LASF149:
 2741 02ea 62737374 		.ascii	"bsstate_t\000"
 2741      6174655F 
 2741      7400
 2742              	.LASF168:
 2743 02f4 433A5C50 		.ascii	"C:\\PROJET\\ChibiOS project\\ChibiOS_21.11.4\\demos"
 2743      524F4A45 
 2743      545C4368 
 2743      6962694F 
 2743      53207072 
 2744 0323 5C53544D 		.ascii	"\\STM32\\RT-STM32H743ZI_REV_XY-NUCLEO144_Quartz8M\000"
 2744      33325C52 
 2744      542D5354 
 2744      4D333248 
 2744      3734335A 
 2745              	.LASF160:
 2746 0353 67657474 		.ascii	"gett\000"
 2746      00
 2747              	.LASF35:
 2748 0358 6E616D65 		.ascii	"name\000"
 2748      00
 2749              	.LASF99:
 2750 035d 71756575 		.ascii	"queue\000"
 2750      6500
 2751              	.LASF45:
 2752 0363 6D706F6F 		.ascii	"mpool\000"
 2752      6C00
 2753              	.LASF152:
 2754 0369 6576656E 		.ascii	"event\000"
 2754      7400
 2755              	.LASF88:
 2756 036f 73697A65 		.ascii	"size\000"
 2756      00
 2757              	.LASF9:
 2758 0374 73686F72 		.ascii	"short unsigned int\000"
 2758      7420756E 
 2758      7369676E 
 2758      65642069 
ARM GAS  C:\Users\DEVELO~1\AppData\Local\Temp\cc4ViyBo.s 			page 52


 2758      6E7400
 2759              	.LASF47:
 2760 0387 63685F74 		.ascii	"ch_thread\000"
 2760      68726561 
 2760      6400
 2761              	.LASF29:
 2762 0391 6576656E 		.ascii	"eventflags_t\000"
 2762      74666C61 
 2762      67735F74 
 2762      00
 2763              	.LASF27:
 2764 039e 6D73675F 		.ascii	"msg_t\000"
 2764      7400
 2765              	.LASF42:
 2766 03a4 6570656E 		.ascii	"epending\000"
 2766      64696E67 
 2766      00
 2767              	.LASF161:
 2768 03ad 77726974 		.ascii	"writet\000"
 2768      657400
 2769              	.LASF23:
 2770 03b4 746D6F64 		.ascii	"tmode_t\000"
 2770      655F7400 
 2771              	.LASF148:
 2772 03bc 42535F52 		.ascii	"BS_READY\000"
 2772      45414459 
 2772      00
 2773              	.LASF115:
 2774 03c5 63685F72 		.ascii	"ch_ready_list\000"
 2774      65616479 
 2774      5F6C6973 
 2774      7400
 2775              	.LASF28:
 2776 03d3 6576656E 		.ascii	"eventmask_t\000"
 2776      746D6173 
 2776      6B5F7400 
 2777              	.LASF7:
 2778 03df 73686F72 		.ascii	"short int\000"
 2778      7420696E 
 2778      7400
 2779              	.LASF10:
 2780 03e9 5F5F696E 		.ascii	"__int32_t\000"
 2780      7433325F 
 2780      7400
 2781              	.LASF97:
 2782 03f3 76697274 		.ascii	"virtual_timers_list_t\000"
 2782      75616C5F 
 2782      74696D65 
 2782      72735F6C 
 2782      6973745F 
 2783              	.LASF22:
 2784 0409 73746B61 		.ascii	"stkalign_t\000"
 2784      6C69676E 
 2784      5F7400
 2785              	.LASF84:
 2786 0414 72747374 		.ascii	"rtstamp\000"
 2786      616D7000 
ARM GAS  C:\Users\DEVELO~1\AppData\Local\Temp\cc4ViyBo.s 			page 53


 2787              	.LASF96:
 2788 041c 6C617374 		.ascii	"laststamp\000"
 2788      7374616D 
 2788      7000
 2789              	.LASF125:
 2790 0426 6576656E 		.ascii	"event_listener_t\000"
 2790      745F6C69 
 2790      7374656E 
 2790      65725F74 
 2790      00
 2791              	.LASF144:
 2792 0437 696E7075 		.ascii	"input_queue_t\000"
 2792      745F7175 
 2792      6575655F 
 2792      7400
 2793              	.LASF159:
 2794 0445 70757474 		.ascii	"putt\000"
 2794      00
 2795              	.LASF57:
 2796 044a 72666375 		.ascii	"rfcu_mask_t\000"
 2796      5F6D6173 
 2796      6B5F7400 
 2797              	.LASF101:
 2798 0456 74687265 		.ascii	"thread_reference_t\000"
 2798      61645F72 
 2798      65666572 
 2798      656E6365 
 2798      5F7400
 2799              	.LASF127:
 2800 0469 6C697374 		.ascii	"listener\000"
 2800      656E6572 
 2800      00
 2801              	.LASF93:
 2802 0472 63685F76 		.ascii	"ch_virtual_timers_list\000"
 2802      69727475 
 2802      616C5F74 
 2802      696D6572 
 2802      735F6C69 
 2803              	.LASF136:
 2804 0489 715F636F 		.ascii	"q_counter\000"
 2804      756E7465 
 2804      7200
 2805              	.LASF67:
 2806 0493 63685F6C 		.ascii	"ch_list_t\000"
 2806      6973745F 
 2806      7400
 2807              	.LASF87:
 2808 049d 73757370 		.ascii	"suspended\000"
 2808      656E6465 
 2808      6400
 2809              	.LASF20:
 2810 04a7 75696E74 		.ascii	"uint64_t\000"
 2810      36345F74 
 2810      00
 2811              	.LASF155:
 2812 04b0 42756666 		.ascii	"BufferedSerialVMT\000"
 2812      65726564 
ARM GAS  C:\Users\DEVELO~1\AppData\Local\Temp\cc4ViyBo.s 			page 54


 2812      53657269 
 2812      616C564D 
 2812      5400
 2813              	.LASF139:
 2814 04c2 715F7772 		.ascii	"q_wrptr\000"
 2814      70747200 
 2815              	.LASF146:
 2816 04ca 42535F55 		.ascii	"BS_UNINIT\000"
 2816      4E494E49 
 2816      5400
 2817              	.LASF118:
 2818 04d4 63685F6F 		.ascii	"ch_os_instance_config\000"
 2818      735F696E 
 2818      7374616E 
 2818      63655F63 
 2818      6F6E6669 
 2819              	.LASF92:
 2820 04ea 706F7274 		.ascii	"port_context\000"
 2820      5F636F6E 
 2820      74657874 
 2820      00
 2821              	.LASF163:
 2822 04f7 6F714765 		.ascii	"oqGetI\000"
 2822      744900
 2823              	.LASF85:
 2824 04fe 74696D65 		.ascii	"time\000"
 2824      00
 2825              	.LASF75:
 2826 0503 7072696F 		.ascii	"prio\000"
 2826      00
 2827              	.LASF116:
 2828 0508 63757272 		.ascii	"current\000"
 2828      656E7400 
 2829              	.LASF14:
 2830 0510 5F5F7569 		.ascii	"__uint64_t\000"
 2830      6E743634 
 2830      5F7400
 2831              	.LASF31:
 2832 051b 636F7265 		.ascii	"core_id_t\000"
 2832      5F69645F 
 2832      7400
 2833              	.LASF25:
 2834 0525 74726566 		.ascii	"trefs_t\000"
 2834      735F7400 
 2835              	.LASF143:
 2836 052d 716E6F74 		.ascii	"qnotify_t\000"
 2836      6966795F 
 2836      7400
 2837              	.LASF82:
 2838 0537 75736572 		.ascii	"user\000"
 2838      00
 2839              	.LASF26:
 2840 053c 74707269 		.ascii	"tprio_t\000"
 2840      6F5F7400 
 2841              	.LASF140:
 2842 0544 715F7264 		.ascii	"q_rdptr\000"
 2842      70747200 
ARM GAS  C:\Users\DEVELO~1\AppData\Local\Temp\cc4ViyBo.s 			page 55


 2843              	.LASF61:
 2844 054c 63685F73 		.ascii	"ch_system_debug\000"
 2844      79737465 
 2844      6D5F6465 
 2844      62756700 
 2845              	.LASF132:
 2846 055c 5F426F6F 		.ascii	"_Bool\000"
 2846      6C00
 2847              	.LASF18:
 2848 0562 696E7433 		.ascii	"int32_t\000"
 2848      325F7400 
 2849              	.LASF6:
 2850 056a 756E7369 		.ascii	"unsigned char\000"
 2850      676E6564 
 2850      20636861 
 2850      7200
 2851              	.LASF60:
 2852 0578 72666375 		.ascii	"rfcu_t\000"
 2852      5F7400
 2853              	.LASF167:
 2854 057f 2E2E2F2E 		.ascii	"../../../os/hal/src/hal_buffered_serial.c\000"
 2854      2E2F2E2E 
 2854      2F6F732F 
 2854      68616C2F 
 2854      7372632F 
 2855              	.LASF79:
 2856 05a9 77746F62 		.ascii	"wtobjp\000"
 2856      6A7000
 2857              	.LASF112:
 2858 05b0 65776D61 		.ascii	"ewmask\000"
 2858      736B00
 2859              	.LASF154:
 2860 05b7 6F717565 		.ascii	"oqueue\000"
 2860      756500
 2861              	.LASF151:
 2862 05be 68616C5F 		.ascii	"hal_buffered_serial\000"
 2862      62756666 
 2862      65726564 
 2862      5F736572 
 2862      69616C00 
 2863              	.LASF165:
 2864 05d2 5F5F6675 		.ascii	"__func__\000"
 2864      6E635F5F 
 2864      00
 2865              	.LASF80:
 2866 05db 72656173 		.ascii	"reason\000"
 2866      6F6E00
 2867              	.LASF103:
 2868 05e2 74687265 		.ascii	"threads_queue_t\000"
 2868      6164735F 
 2868      71756575 
 2868      655F7400 
 2869              	.LASF113:
 2870 05f2 63685F73 		.ascii	"ch_semaphore\000"
 2870      656D6170 
 2870      686F7265 
 2870      00
ARM GAS  C:\Users\DEVELO~1\AppData\Local\Temp\cc4ViyBo.s 			page 56


 2871              	.LASF100:
 2872 05ff 72656769 		.ascii	"registry_t\000"
 2872      73747279 
 2872      5F7400
 2873              	.LASF128:
 2874 060a 6576656E 		.ascii	"events\000"
 2874      747300
 2875              	.LASF19:
 2876 0611 75696E74 		.ascii	"uint32_t\000"
 2876      33325F74 
 2876      00
 2877              	.LASF111:
 2878 061a 77746D74 		.ascii	"wtmtxp\000"
 2878      787000
 2879              	.LASF172:
 2880 0621 6F73616C 		.ascii	"osalEventBroadcastFlagsI\000"
 2880      4576656E 
 2880      7442726F 
 2880      61646361 
 2880      7374466C 
 2881              	.LASF21:
 2882 063a 706F7274 		.ascii	"port_stkalign_t\000"
 2882      5F73746B 
 2882      616C6967 
 2882      6E5F7400 
 2883              	.LASF34:
 2884 064a 6F776E65 		.ascii	"owner\000"
 2884      7200
 2885              	.LASF44:
 2886 0650 7265616C 		.ascii	"realprio\000"
 2886      7072696F 
 2886      00
 2887              	.LASF2:
 2888 0659 6C6F6E67 		.ascii	"long double\000"
 2888      20646F75 
 2888      626C6500 
 2889              	.LASF36:
 2890 0665 77616261 		.ascii	"wabase\000"
 2890      736500
 2891              	.LASF63:
 2892 066c 63686172 		.ascii	"char\000"
 2892      00
 2893              	.LASF54:
 2894 0671 636F6E66 		.ascii	"config\000"
 2894      696700
 2895              	.LASF8:
 2896 0678 5F5F7569 		.ascii	"__uint16_t\000"
 2896      6E743136 
 2896      5F7400
 2897              	.LASF32:
 2898 0683 74687265 		.ascii	"thread_t\000"
 2898      61645F74 
 2898      00
 2899              	.LASF94:
 2900 068c 646C6973 		.ascii	"dlist\000"
 2900      7400
 2901              	.LASF65:
ARM GAS  C:\Users\DEVELO~1\AppData\Local\Temp\cc4ViyBo.s 			page 57


 2902 0692 73797374 		.ascii	"systime_t\000"
 2902      696D655F 
 2902      7400
 2903              	.LASF89:
 2904 069c 62756666 		.ascii	"buffer\000"
 2904      657200
 2905              	.LASF73:
 2906 06a3 63685F70 		.ascii	"ch_priority_queue_t\000"
 2906      72696F72 
 2906      6974795F 
 2906      71756575 
 2906      655F7400 
 2907              	.LASF62:
 2908 06b7 70616E69 		.ascii	"panic_msg\000"
 2908      635F6D73 
 2908      6700
 2909              	.LASF105:
 2910 06c1 70717565 		.ascii	"pqueue\000"
 2910      756500
 2911              	.LASF48:
 2912 06c8 63685F6F 		.ascii	"ch_os_instance\000"
 2912      735F696E 
 2912      7374616E 
 2912      636500
 2913              	.LASF46:
 2914 06d7 6F735F69 		.ascii	"os_instance_t\000"
 2914      6E737461 
 2914      6E63655F 
 2914      7400
 2915              	.LASF51:
 2916 06e5 7265676C 		.ascii	"reglist\000"
 2916      69737400 
 2917              	.LASF74:
 2918 06ed 63685F70 		.ascii	"ch_priority_queue\000"
 2918      72696F72 
 2918      6974795F 
 2918      71756575 
 2918      6500
 2919              	.LASF76:
 2920 06ff 63685F64 		.ascii	"ch_delta_list_t\000"
 2920      656C7461 
 2920      5F6C6973 
 2920      745F7400 
 2921              	.LASF120:
 2922 070f 6D61696E 		.ascii	"mainthread_end\000"
 2922      74687265 
 2922      61645F65 
 2922      6E6400
 2923              	.LASF145:
 2924 071e 6F757470 		.ascii	"output_queue_t\000"
 2924      75745F71 
 2924      75657565 
 2924      5F7400
 2925              	.LASF123:
 2926 072d 6F735F69 		.ascii	"os_instance_config_t\000"
 2926      6E737461 
 2926      6E63655F 
ARM GAS  C:\Users\DEVELO~1\AppData\Local\Temp\cc4ViyBo.s 			page 58


 2926      636F6E66 
 2926      69675F74 
 2927              	.LASF138:
 2928 0742 715F746F 		.ascii	"q_top\000"
 2928      7000
 2929              	.LASF114:
 2930 0748 63685F6D 		.ascii	"ch_mutex\000"
 2930      75746578 
 2930      00
 2931              	.LASF95:
 2932 0751 6C617374 		.ascii	"lasttime\000"
 2932      74696D65 
 2932      00
 2933              	.LASF141:
 2934 075a 715F6E6F 		.ascii	"q_notify\000"
 2934      74696679 
 2934      00
 2935              	.LASF49:
 2936 0763 726C6973 		.ascii	"rlist\000"
 2936      7400
 2937              	.LASF130:
 2938 0769 6576656E 		.ascii	"event_source\000"
 2938      745F736F 
 2938      75726365 
 2938      00
 2939              	.LASF16:
 2940 0776 75696E74 		.ascii	"uint8_t\000"
 2940      385F7400 
 2941              	.LASF147:
 2942 077e 42535F53 		.ascii	"BS_STOP\000"
 2942      544F5000 
 2943              	.LASF38:
 2944 0786 666C6167 		.ascii	"flags\000"
 2944      7300
 2945              	.LASF158:
 2946 078c 72656164 		.ascii	"read\000"
 2946      00
 2947              	.LASF56:
 2948 0791 74726163 		.ascii	"trace_buffer\000"
 2948      655F6275 
 2948      66666572 
 2948      00
 2949              	.LASF156:
 2950 079e 696E7374 		.ascii	"instance_offset\000"
 2950      616E6365 
 2950      5F6F6666 
 2950      73657400 
 2951              	.LASF104:
 2952 07ae 6C697374 		.ascii	"list\000"
 2952      00
 2953              	.LASF170:
 2954 07b3 62735265 		.ascii	"bsRequestDataI\000"
 2954      71756573 
 2954      74446174 
 2954      614900
 2955              	.LASF122:
 2956 07c2 69646C65 		.ascii	"idlethread_end\000"
ARM GAS  C:\Users\DEVELO~1\AppData\Local\Temp\cc4ViyBo.s 			page 59


 2956      74687265 
 2956      61645F65 
 2956      6E6400
 2957              	.LASF43:
 2958 07d1 6D74786C 		.ascii	"mtxlist\000"
 2958      69737400 
 2959              	.LASF171:
 2960 07d9 6273496E 		.ascii	"bsIncomingDataI\000"
 2960      636F6D69 
 2960      6E674461 
 2960      74614900 
 2961              	.LASF126:
 2962 07e9 6576656E 		.ascii	"event_listener\000"
 2962      745F6C69 
 2962      7374656E 
 2962      657200
 2963              		.ident	"GCC: (Arm GNU Toolchain 11.3.Rel1) 11.3.1 20220712"
ARM GAS  C:\Users\DEVELO~1\AppData\Local\Temp\cc4ViyBo.s 			page 60


DEFINED SYMBOLS
                            *ABS*:00000000 hal_buffered_serial.c
C:\Users\DEVELO~1\AppData\Local\Temp\cc4ViyBo.s:18     .text.osalEventBroadcastFlagsI:00000000 $t
C:\Users\DEVELO~1\AppData\Local\Temp\cc4ViyBo.s:23     .text.osalEventBroadcastFlagsI:00000000 osalEventBroadcastFlagsI
C:\Users\DEVELO~1\AppData\Local\Temp\cc4ViyBo.s:56     .text.bsIncomingDataI:00000000 $t
C:\Users\DEVELO~1\AppData\Local\Temp\cc4ViyBo.s:62     .text.bsIncomingDataI:00000000 bsIncomingDataI
C:\Users\DEVELO~1\AppData\Local\Temp\cc4ViyBo.s:123    .text.bsRequestDataI:00000000 $t
C:\Users\DEVELO~1\AppData\Local\Temp\cc4ViyBo.s:129    .text.bsRequestDataI:00000000 bsRequestDataI

UNDEFINED SYMBOLS
chEvtBroadcastFlagsI
iqPutI
oqGetI
