ARM GAS  C:\Users\DEVELO~1\AppData\Local\Temp\ccJ56Rgi.s 			page 1


   1              		.cpu cortex-m7
   2              		.arch armv7e-m
   3              		.fpu softvfp
   4              		.eabi_attribute 20, 1
   5              		.eabi_attribute 21, 1
   6              		.eabi_attribute 23, 3
   7              		.eabi_attribute 24, 1
   8              		.eabi_attribute 25, 1
   9              		.eabi_attribute 26, 1
  10              		.eabi_attribute 30, 6
  11              		.eabi_attribute 34, 1
  12              		.eabi_attribute 18, 4
  13              		.file	"hal_mmcsd.c"
  14              		.text
  15              	.Ltext0:
  16              		.cfi_sections	.debug_frame
  17              		.section	.text._mmcsd_get_slice,"ax",%progbits
  18              		.align	1
  19              		.global	_mmcsd_get_slice
  20              		.syntax unified
  21              		.thumb
  22              		.thumb_func
  23              		.type	_mmcsd_get_slice, %function
  24              	_mmcsd_get_slice:
  25              	.LFB432:
  26              		.file 1 "../../../os/hal/src/hal_mmcsd.c"
  27              		.loc 1 63 43
  28              		.cfi_startproc
  29              		@ args = 0, pretend = 0, frame = 32
  30              		@ frame_needed = 1, uses_anonymous_args = 0
  31              		@ link register save eliminated.
  32 0000 80B4     		push	{r7}
  33              		.cfi_def_cfa_offset 4
  34              		.cfi_offset 7, -4
  35 0002 89B0     		sub	sp, sp, #36
  36              		.cfi_def_cfa_offset 40
  37 0004 00AF     		add	r7, sp, #0
  38              		.cfi_def_cfa_register 7
  39 0006 F860     		str	r0, [r7, #12]
  40 0008 B960     		str	r1, [r7, #8]
  41 000a 7A60     		str	r2, [r7, #4]
  42              		.loc 1 69 12
  43 000c 7B68     		ldr	r3, [r7, #4]
  44 000e 5B09     		lsrs	r3, r3, #5
  45 0010 7B61     		str	r3, [r7, #20]
  46              		.loc 1 70 12
  47 0012 7B68     		ldr	r3, [r7, #4]
  48 0014 03F01F03 		and	r3, r3, #31
  49 0018 3B61     		str	r3, [r7, #16]
  50              		.loc 1 71 12
  51 001a BB68     		ldr	r3, [r7, #8]
  52 001c 5B09     		lsrs	r3, r3, #5
  53 001e FB61     		str	r3, [r7, #28]
  54              		.loc 1 72 37
  55 0020 BB68     		ldr	r3, [r7, #8]
  56 0022 03F01F03 		and	r3, r3, #31
  57              		.loc 1 72 44
ARM GAS  C:\Users\DEVELO~1\AppData\Local\Temp\ccJ56Rgi.s 			page 2


  58 0026 0133     		adds	r3, r3, #1
  59              		.loc 1 72 28
  60 0028 0122     		movs	r2, #1
  61 002a 02FA03F3 		lsl	r3, r2, r3
  62              		.loc 1 72 12
  63 002e 013B     		subs	r3, r3, #1
  64 0030 BB61     		str	r3, [r7, #24]
  65              		.loc 1 75 6
  66 0032 7A69     		ldr	r2, [r7, #20]
  67 0034 FB69     		ldr	r3, [r7, #28]
  68 0036 9A42     		cmp	r2, r3
  69 0038 14D2     		bcs	.L2
  70              		.loc 1 76 17
  71 003a 7B69     		ldr	r3, [r7, #20]
  72 003c 9B00     		lsls	r3, r3, #2
  73 003e FA68     		ldr	r2, [r7, #12]
  74 0040 1344     		add	r3, r3, r2
  75 0042 1A68     		ldr	r2, [r3]
  76              		.loc 1 76 28
  77 0044 3B69     		ldr	r3, [r7, #16]
  78 0046 DA40     		lsrs	r2, r2, r3
  79              		.loc 1 77 18
  80 0048 FB69     		ldr	r3, [r7, #28]
  81 004a 9B00     		lsls	r3, r3, #2
  82 004c F968     		ldr	r1, [r7, #12]
  83 004e 0B44     		add	r3, r3, r1
  84 0050 1968     		ldr	r1, [r3]
  85              		.loc 1 77 27
  86 0052 BB69     		ldr	r3, [r7, #24]
  87 0054 1940     		ands	r1, r1, r3
  88              		.loc 1 77 46
  89 0056 3B69     		ldr	r3, [r7, #16]
  90 0058 C3F12003 		rsb	r3, r3, #32
  91              		.loc 1 77 38
  92 005c 01FA03F3 		lsl	r3, r1, r3
  93              		.loc 1 76 41
  94 0060 1343     		orrs	r3, r3, r2
  95 0062 09E0     		b	.L3
  96              	.L2:
  97              		.loc 1 79 15
  98 0064 7B69     		ldr	r3, [r7, #20]
  99 0066 9B00     		lsls	r3, r3, #2
 100 0068 FA68     		ldr	r2, [r7, #12]
 101 006a 1344     		add	r3, r3, r2
 102 006c 1A68     		ldr	r2, [r3]
 103              		.loc 1 79 26
 104 006e BB69     		ldr	r3, [r7, #24]
 105 0070 1A40     		ands	r2, r2, r3
 106              		.loc 1 79 37
 107 0072 3B69     		ldr	r3, [r7, #16]
 108 0074 22FA03F3 		lsr	r3, r2, r3
 109              	.L3:
 110              		.loc 1 80 1
 111 0078 1846     		mov	r0, r3
 112 007a 2437     		adds	r7, r7, #36
 113              		.cfi_def_cfa_offset 4
 114 007c BD46     		mov	sp, r7
ARM GAS  C:\Users\DEVELO~1\AppData\Local\Temp\ccJ56Rgi.s 			page 3


 115              		.cfi_def_cfa_register 13
 116              		@ sp needed
 117 007e 80BC     		pop	{r7}
 118              		.cfi_restore 7
 119              		.cfi_def_cfa_offset 0
 120 0080 7047     		bx	lr
 121              		.cfi_endproc
 122              	.LFE432:
 123              		.size	_mmcsd_get_slice, .-_mmcsd_get_slice
 124              		.section	.text._mmcsd_get_capacity,"ax",%progbits
 125              		.align	1
 126              		.global	_mmcsd_get_capacity
 127              		.syntax unified
 128              		.thumb
 129              		.thumb_func
 130              		.type	_mmcsd_get_capacity, %function
 131              	_mmcsd_get_capacity:
 132              	.LFB433:
 133              		.loc 1 93 51
 134              		.cfi_startproc
 135              		@ args = 0, pretend = 0, frame = 24
 136              		@ frame_needed = 1, uses_anonymous_args = 0
 137 0000 80B5     		push	{r7, lr}
 138              		.cfi_def_cfa_offset 8
 139              		.cfi_offset 7, -8
 140              		.cfi_offset 14, -4
 141 0002 86B0     		sub	sp, sp, #24
 142              		.cfi_def_cfa_offset 32
 143 0004 00AF     		add	r7, sp, #0
 144              		.cfi_def_cfa_register 7
 145 0006 7860     		str	r0, [r7, #4]
 146              		.loc 1 98 11
 147 0008 7E22     		movs	r2, #126
 148 000a 7F21     		movs	r1, #127
 149 000c 7868     		ldr	r0, [r7, #4]
 150 000e FFF7FEFF 		bl	_mmcsd_get_slice
 151 0012 0346     		mov	r3, r0
 152              		.loc 1 98 3
 153 0014 002B     		cmp	r3, #0
 154 0016 04D0     		beq	.L5
 155 0018 012B     		cmp	r3, #1
 156 001a 1ED0     		beq	.L6
 157              		.loc 1 110 5
 158 001c 00BF     		nop
 159              		.loc 1 112 10
 160 001e 0023     		movs	r3, #0
 161 0020 23E0     		b	.L8
 162              	.L5:
 163              		.loc 1 101 9
 164 0022 3E22     		movs	r2, #62
 165 0024 4921     		movs	r1, #73
 166 0026 7868     		ldr	r0, [r7, #4]
 167 0028 FFF7FEFF 		bl	_mmcsd_get_slice
 168 002c 7861     		str	r0, [r7, #20]
 169              		.loc 1 102 9
 170 002e 2F22     		movs	r2, #47
 171 0030 3121     		movs	r1, #49
ARM GAS  C:\Users\DEVELO~1\AppData\Local\Temp\ccJ56Rgi.s 			page 4


 172 0032 7868     		ldr	r0, [r7, #4]
 173 0034 FFF7FEFF 		bl	_mmcsd_get_slice
 174 0038 3861     		str	r0, [r7, #16]
 175              		.loc 1 103 9
 176 003a 5022     		movs	r2, #80
 177 003c 5321     		movs	r1, #83
 178 003e 7868     		ldr	r0, [r7, #4]
 179 0040 FFF7FEFF 		bl	_mmcsd_get_slice
 180 0044 F860     		str	r0, [r7, #12]
 181              		.loc 1 104 16
 182 0046 7B69     		ldr	r3, [r7, #20]
 183 0048 5A1C     		adds	r2, r3, #1
 184              		.loc 1 104 28
 185 004a 3B69     		ldr	r3, [r7, #16]
 186 004c 0233     		adds	r3, r3, #2
 187              		.loc 1 104 22
 188 004e 9A40     		lsls	r2, r2, r3
 189              		.loc 1 104 41
 190 0050 FB68     		ldr	r3, [r7, #12]
 191 0052 093B     		subs	r3, r3, #9
 192              		.loc 1 104 35
 193 0054 02FA03F3 		lsl	r3, r2, r3
 194 0058 07E0     		b	.L8
 195              	.L6:
 196              		.loc 1 107 21
 197 005a 3022     		movs	r2, #48
 198 005c 4521     		movs	r1, #69
 199 005e 7868     		ldr	r0, [r7, #4]
 200 0060 FFF7FEFF 		bl	_mmcsd_get_slice
 201 0064 0346     		mov	r3, r0
 202              		.loc 1 107 70
 203 0066 0133     		adds	r3, r3, #1
 204              		.loc 1 107 18
 205 0068 9B02     		lsls	r3, r3, #10
 206              	.L8:
 207              		.loc 1 113 1
 208 006a 1846     		mov	r0, r3
 209 006c 1837     		adds	r7, r7, #24
 210              		.cfi_def_cfa_offset 8
 211 006e BD46     		mov	sp, r7
 212              		.cfi_def_cfa_register 13
 213              		@ sp needed
 214 0070 80BD     		pop	{r7, pc}
 215              		.cfi_endproc
 216              	.LFE433:
 217              		.size	_mmcsd_get_capacity, .-_mmcsd_get_capacity
 218              		.section	.text._mmcsd_get_capacity_ext,"ax",%progbits
 219              		.align	1
 220              		.global	_mmcsd_get_capacity_ext
 221              		.syntax unified
 222              		.thumb
 223              		.thumb_func
 224              		.type	_mmcsd_get_capacity_ext, %function
 225              	_mmcsd_get_capacity_ext:
 226              	.LFB434:
 227              		.loc 1 125 58
 228              		.cfi_startproc
ARM GAS  C:\Users\DEVELO~1\AppData\Local\Temp\ccJ56Rgi.s 			page 5


 229              		@ args = 0, pretend = 0, frame = 8
 230              		@ frame_needed = 1, uses_anonymous_args = 0
 231              		@ link register save eliminated.
 232 0000 80B4     		push	{r7}
 233              		.cfi_def_cfa_offset 4
 234              		.cfi_offset 7, -4
 235 0002 83B0     		sub	sp, sp, #12
 236              		.cfi_def_cfa_offset 16
 237 0004 00AF     		add	r7, sp, #0
 238              		.cfi_def_cfa_register 7
 239 0006 7860     		str	r0, [r7, #4]
 240              		.loc 1 129 28
 241 0008 7B68     		ldr	r3, [r7, #4]
 242 000a D733     		adds	r3, r3, #215
 243 000c 1B78     		ldrb	r3, [r3]	@ zero_extendqisi2
 244              		.loc 1 129 34
 245 000e 1A06     		lsls	r2, r3, #24
 246              		.loc 1 130 28
 247 0010 7B68     		ldr	r3, [r7, #4]
 248 0012 D633     		adds	r3, r3, #214
 249 0014 1B78     		ldrb	r3, [r3]	@ zero_extendqisi2
 250              		.loc 1 130 34
 251 0016 1B04     		lsls	r3, r3, #16
 252              		.loc 1 129 42
 253 0018 1A44     		add	r2, r2, r3
 254              		.loc 1 131 28
 255 001a 7B68     		ldr	r3, [r7, #4]
 256 001c D533     		adds	r3, r3, #213
 257 001e 1B78     		ldrb	r3, [r3]	@ zero_extendqisi2
 258              		.loc 1 131 34
 259 0020 1B02     		lsls	r3, r3, #8
 260              		.loc 1 130 42
 261 0022 1344     		add	r3, r3, r2
 262              		.loc 1 132 27
 263 0024 7A68     		ldr	r2, [r7, #4]
 264 0026 D432     		adds	r2, r2, #212
 265 0028 1278     		ldrb	r2, [r2]	@ zero_extendqisi2
 266              		.loc 1 131 42
 267 002a 1344     		add	r3, r3, r2
 268              		.loc 1 133 1
 269 002c 1846     		mov	r0, r3
 270 002e 0C37     		adds	r7, r7, #12
 271              		.cfi_def_cfa_offset 4
 272 0030 BD46     		mov	sp, r7
 273              		.cfi_def_cfa_register 13
 274              		@ sp needed
 275 0032 80BC     		pop	{r7}
 276              		.cfi_restore 7
 277              		.cfi_def_cfa_offset 0
 278 0034 7047     		bx	lr
 279              		.cfi_endproc
 280              	.LFE434:
 281              		.size	_mmcsd_get_capacity_ext, .-_mmcsd_get_capacity_ext
 282              		.section	.text._mmcsd_unpack_sdc_cid,"ax",%progbits
 283              		.align	1
 284              		.global	_mmcsd_unpack_sdc_cid
 285              		.syntax unified
ARM GAS  C:\Users\DEVELO~1\AppData\Local\Temp\ccJ56Rgi.s 			page 6


 286              		.thumb
 287              		.thumb_func
 288              		.type	_mmcsd_unpack_sdc_cid, %function
 289              	_mmcsd_unpack_sdc_cid:
 290              	.LFB435:
 291              		.loc 1 144 56
 292              		.cfi_startproc
 293              		@ args = 0, pretend = 0, frame = 16
 294              		@ frame_needed = 1, uses_anonymous_args = 0
 295 0000 80B5     		push	{r7, lr}
 296              		.cfi_def_cfa_offset 8
 297              		.cfi_offset 7, -8
 298              		.cfi_offset 14, -4
 299 0002 84B0     		sub	sp, sp, #16
 300              		.cfi_def_cfa_offset 24
 301 0004 00AF     		add	r7, sp, #0
 302              		.cfi_def_cfa_register 7
 303 0006 7860     		str	r0, [r7, #4]
 304 0008 3960     		str	r1, [r7]
 305              		.loc 1 149 7
 306 000a 7B68     		ldr	r3, [r7, #4]
 307 000c 0833     		adds	r3, r3, #8
 308 000e FB60     		str	r3, [r7, #12]
 309              		.loc 1 150 30
 310 0010 0122     		movs	r2, #1
 311 0012 0721     		movs	r1, #7
 312 0014 F868     		ldr	r0, [r7, #12]
 313 0016 FFF7FEFF 		bl	_mmcsd_get_slice
 314 001a 0346     		mov	r3, r0
 315              		.loc 1 150 20
 316 001c DAB2     		uxtb	r2, r3
 317              		.loc 1 150 18
 318 001e 3B68     		ldr	r3, [r7]
 319 0020 1A75     		strb	r2, [r3, #20]
 320              		.loc 1 151 30
 321 0022 0C22     		movs	r2, #12
 322 0024 1321     		movs	r1, #19
 323 0026 F868     		ldr	r0, [r7, #12]
 324 0028 FFF7FEFF 		bl	_mmcsd_get_slice
 325 002c 0346     		mov	r3, r0
 326              		.loc 1 151 20
 327 002e 9BB2     		uxth	r3, r3
 328              		.loc 1 151 79
 329 0030 03F5FA63 		add	r3, r3, #2000
 330 0034 9AB2     		uxth	r2, r3
 331              		.loc 1 151 18
 332 0036 3B68     		ldr	r3, [r7]
 333 0038 5A82     		strh	r2, [r3, #18]	@ movhi
 334              		.loc 1 153 30
 335 003a 0822     		movs	r2, #8
 336 003c 0B21     		movs	r1, #11
 337 003e F868     		ldr	r0, [r7, #12]
 338 0040 FFF7FEFF 		bl	_mmcsd_get_slice
 339 0044 0346     		mov	r3, r0
 340              		.loc 1 153 20
 341 0046 DAB2     		uxtb	r2, r3
 342              		.loc 1 153 18
ARM GAS  C:\Users\DEVELO~1\AppData\Local\Temp\ccJ56Rgi.s 			page 7


 343 0048 3B68     		ldr	r3, [r7]
 344 004a 1A74     		strb	r2, [r3, #16]
 345              		.loc 1 154 30
 346 004c 7822     		movs	r2, #120
 347 004e 7F21     		movs	r1, #127
 348 0050 F868     		ldr	r0, [r7, #12]
 349 0052 FFF7FEFF 		bl	_mmcsd_get_slice
 350 0056 0346     		mov	r3, r0
 351              		.loc 1 154 20
 352 0058 DAB2     		uxtb	r2, r3
 353              		.loc 1 154 18
 354 005a 3B68     		ldr	r3, [r7]
 355 005c 1A70     		strb	r2, [r3]
 356              		.loc 1 155 30
 357 005e 6822     		movs	r2, #104
 358 0060 7721     		movs	r1, #119
 359 0062 F868     		ldr	r0, [r7, #12]
 360 0064 FFF7FEFF 		bl	_mmcsd_get_slice
 361 0068 0346     		mov	r3, r0
 362              		.loc 1 155 20
 363 006a 9AB2     		uxth	r2, r3
 364              		.loc 1 155 18
 365 006c 3B68     		ldr	r3, [r7]
 366 006e 5A80     		strh	r2, [r3, #2]	@ movhi
 367              		.loc 1 156 30
 368 0070 4022     		movs	r2, #64
 369 0072 4721     		movs	r1, #71
 370 0074 F868     		ldr	r0, [r7, #12]
 371 0076 FFF7FEFF 		bl	_mmcsd_get_slice
 372 007a 0346     		mov	r3, r0
 373              		.loc 1 156 20
 374 007c DAB2     		uxtb	r2, r3
 375              		.loc 1 156 18
 376 007e 3B68     		ldr	r3, [r7]
 377 0080 1A72     		strb	r2, [r3, #8]
 378              		.loc 1 157 30
 379 0082 4822     		movs	r2, #72
 380 0084 4F21     		movs	r1, #79
 381 0086 F868     		ldr	r0, [r7, #12]
 382 0088 FFF7FEFF 		bl	_mmcsd_get_slice
 383 008c 0346     		mov	r3, r0
 384              		.loc 1 157 20
 385 008e DAB2     		uxtb	r2, r3
 386              		.loc 1 157 18
 387 0090 3B68     		ldr	r3, [r7]
 388 0092 DA71     		strb	r2, [r3, #7]
 389              		.loc 1 158 30
 390 0094 5022     		movs	r2, #80
 391 0096 5721     		movs	r1, #87
 392 0098 F868     		ldr	r0, [r7, #12]
 393 009a FFF7FEFF 		bl	_mmcsd_get_slice
 394 009e 0346     		mov	r3, r0
 395              		.loc 1 158 20
 396 00a0 DAB2     		uxtb	r2, r3
 397              		.loc 1 158 18
 398 00a2 3B68     		ldr	r3, [r7]
 399 00a4 9A71     		strb	r2, [r3, #6]
ARM GAS  C:\Users\DEVELO~1\AppData\Local\Temp\ccJ56Rgi.s 			page 8


 400              		.loc 1 159 30
 401 00a6 5822     		movs	r2, #88
 402 00a8 5F21     		movs	r1, #95
 403 00aa F868     		ldr	r0, [r7, #12]
 404 00ac FFF7FEFF 		bl	_mmcsd_get_slice
 405 00b0 0346     		mov	r3, r0
 406              		.loc 1 159 20
 407 00b2 DAB2     		uxtb	r2, r3
 408              		.loc 1 159 18
 409 00b4 3B68     		ldr	r3, [r7]
 410 00b6 5A71     		strb	r2, [r3, #5]
 411              		.loc 1 160 30
 412 00b8 6022     		movs	r2, #96
 413 00ba 6721     		movs	r1, #103
 414 00bc F868     		ldr	r0, [r7, #12]
 415 00be FFF7FEFF 		bl	_mmcsd_get_slice
 416 00c2 0346     		mov	r3, r0
 417              		.loc 1 160 20
 418 00c4 DAB2     		uxtb	r2, r3
 419              		.loc 1 160 18
 420 00c6 3B68     		ldr	r3, [r7]
 421 00c8 1A71     		strb	r2, [r3, #4]
 422              		.loc 1 161 30
 423 00ca 3C22     		movs	r2, #60
 424 00cc 3F21     		movs	r1, #63
 425 00ce F868     		ldr	r0, [r7, #12]
 426 00d0 FFF7FEFF 		bl	_mmcsd_get_slice
 427 00d4 0346     		mov	r3, r0
 428              		.loc 1 161 20
 429 00d6 DAB2     		uxtb	r2, r3
 430              		.loc 1 161 18
 431 00d8 3B68     		ldr	r3, [r7]
 432 00da 5A72     		strb	r2, [r3, #9]
 433              		.loc 1 162 30
 434 00dc 3822     		movs	r2, #56
 435 00de 3B21     		movs	r1, #59
 436 00e0 F868     		ldr	r0, [r7, #12]
 437 00e2 FFF7FEFF 		bl	_mmcsd_get_slice
 438 00e6 0346     		mov	r3, r0
 439              		.loc 1 162 20
 440 00e8 DAB2     		uxtb	r2, r3
 441              		.loc 1 162 18
 442 00ea 3B68     		ldr	r3, [r7]
 443 00ec 9A72     		strb	r2, [r3, #10]
 444              		.loc 1 163 30
 445 00ee 1822     		movs	r2, #24
 446 00f0 3721     		movs	r1, #55
 447 00f2 F868     		ldr	r0, [r7, #12]
 448 00f4 FFF7FEFF 		bl	_mmcsd_get_slice
 449 00f8 0246     		mov	r2, r0
 450              		.loc 1 163 18
 451 00fa 3B68     		ldr	r3, [r7]
 452 00fc DA60     		str	r2, [r3, #12]
 453              		.loc 1 164 1
 454 00fe 00BF     		nop
 455 0100 1037     		adds	r7, r7, #16
 456              		.cfi_def_cfa_offset 8
ARM GAS  C:\Users\DEVELO~1\AppData\Local\Temp\ccJ56Rgi.s 			page 9


 457 0102 BD46     		mov	sp, r7
 458              		.cfi_def_cfa_register 13
 459              		@ sp needed
 460 0104 80BD     		pop	{r7, pc}
 461              		.cfi_endproc
 462              	.LFE435:
 463              		.size	_mmcsd_unpack_sdc_cid, .-_mmcsd_unpack_sdc_cid
 464              		.section	.text._mmcsd_unpack_mmc_cid,"ax",%progbits
 465              		.align	1
 466              		.global	_mmcsd_unpack_mmc_cid
 467              		.syntax unified
 468              		.thumb
 469              		.thumb_func
 470              		.type	_mmcsd_unpack_mmc_cid, %function
 471              	_mmcsd_unpack_mmc_cid:
 472              	.LFB436:
 473              		.loc 1 175 56
 474              		.cfi_startproc
 475              		@ args = 0, pretend = 0, frame = 16
 476              		@ frame_needed = 1, uses_anonymous_args = 0
 477 0000 80B5     		push	{r7, lr}
 478              		.cfi_def_cfa_offset 8
 479              		.cfi_offset 7, -8
 480              		.cfi_offset 14, -4
 481 0002 84B0     		sub	sp, sp, #16
 482              		.cfi_def_cfa_offset 24
 483 0004 00AF     		add	r7, sp, #0
 484              		.cfi_def_cfa_register 7
 485 0006 7860     		str	r0, [r7, #4]
 486 0008 3960     		str	r1, [r7]
 487              		.loc 1 180 7
 488 000a 7B68     		ldr	r3, [r7, #4]
 489 000c 0833     		adds	r3, r3, #8
 490 000e FB60     		str	r3, [r7, #12]
 491              		.loc 1 181 30
 492 0010 0122     		movs	r2, #1
 493 0012 0721     		movs	r1, #7
 494 0014 F868     		ldr	r0, [r7, #12]
 495 0016 FFF7FEFF 		bl	_mmcsd_get_slice
 496 001a 0346     		mov	r3, r0
 497              		.loc 1 181 20
 498 001c DAB2     		uxtb	r2, r3
 499              		.loc 1 181 18
 500 001e 3B68     		ldr	r3, [r7]
 501 0020 1A75     		strb	r2, [r3, #20]
 502              		.loc 1 182 30
 503 0022 0822     		movs	r2, #8
 504 0024 0B21     		movs	r1, #11
 505 0026 F868     		ldr	r0, [r7, #12]
 506 0028 FFF7FEFF 		bl	_mmcsd_get_slice
 507 002c 0346     		mov	r3, r0
 508              		.loc 1 182 20
 509 002e 9BB2     		uxth	r3, r3
 510              		.loc 1 182 79
 511 0030 03F2CD73 		addw	r3, r3, #1997
 512 0034 9AB2     		uxth	r2, r3
 513              		.loc 1 182 18
ARM GAS  C:\Users\DEVELO~1\AppData\Local\Temp\ccJ56Rgi.s 			page 10


 514 0036 3B68     		ldr	r3, [r7]
 515 0038 5A82     		strh	r2, [r3, #18]	@ movhi
 516              		.loc 1 184 30
 517 003a 0C22     		movs	r2, #12
 518 003c 0F21     		movs	r1, #15
 519 003e F868     		ldr	r0, [r7, #12]
 520 0040 FFF7FEFF 		bl	_mmcsd_get_slice
 521 0044 0346     		mov	r3, r0
 522              		.loc 1 184 20
 523 0046 DAB2     		uxtb	r2, r3
 524              		.loc 1 184 18
 525 0048 3B68     		ldr	r3, [r7]
 526 004a 1A74     		strb	r2, [r3, #16]
 527              		.loc 1 185 30
 528 004c 7822     		movs	r2, #120
 529 004e 7F21     		movs	r1, #127
 530 0050 F868     		ldr	r0, [r7, #12]
 531 0052 FFF7FEFF 		bl	_mmcsd_get_slice
 532 0056 0346     		mov	r3, r0
 533              		.loc 1 185 20
 534 0058 DAB2     		uxtb	r2, r3
 535              		.loc 1 185 18
 536 005a 3B68     		ldr	r3, [r7]
 537 005c 1A70     		strb	r2, [r3]
 538              		.loc 1 186 30
 539 005e 6822     		movs	r2, #104
 540 0060 7721     		movs	r1, #119
 541 0062 F868     		ldr	r0, [r7, #12]
 542 0064 FFF7FEFF 		bl	_mmcsd_get_slice
 543 0068 0346     		mov	r3, r0
 544              		.loc 1 186 20
 545 006a 9AB2     		uxth	r2, r3
 546              		.loc 1 186 18
 547 006c 3B68     		ldr	r3, [r7]
 548 006e 5A80     		strh	r2, [r3, #2]	@ movhi
 549              		.loc 1 187 30
 550 0070 3822     		movs	r2, #56
 551 0072 3F21     		movs	r1, #63
 552 0074 F868     		ldr	r0, [r7, #12]
 553 0076 FFF7FEFF 		bl	_mmcsd_get_slice
 554 007a 0346     		mov	r3, r0
 555              		.loc 1 187 20
 556 007c DAB2     		uxtb	r2, r3
 557              		.loc 1 187 18
 558 007e 3B68     		ldr	r3, [r7]
 559 0080 5A72     		strb	r2, [r3, #9]
 560              		.loc 1 188 30
 561 0082 4022     		movs	r2, #64
 562 0084 4721     		movs	r1, #71
 563 0086 F868     		ldr	r0, [r7, #12]
 564 0088 FFF7FEFF 		bl	_mmcsd_get_slice
 565 008c 0346     		mov	r3, r0
 566              		.loc 1 188 20
 567 008e DAB2     		uxtb	r2, r3
 568              		.loc 1 188 18
 569 0090 3B68     		ldr	r3, [r7]
 570 0092 1A72     		strb	r2, [r3, #8]
ARM GAS  C:\Users\DEVELO~1\AppData\Local\Temp\ccJ56Rgi.s 			page 11


 571              		.loc 1 189 30
 572 0094 4822     		movs	r2, #72
 573 0096 4F21     		movs	r1, #79
 574 0098 F868     		ldr	r0, [r7, #12]
 575 009a FFF7FEFF 		bl	_mmcsd_get_slice
 576 009e 0346     		mov	r3, r0
 577              		.loc 1 189 20
 578 00a0 DAB2     		uxtb	r2, r3
 579              		.loc 1 189 18
 580 00a2 3B68     		ldr	r3, [r7]
 581 00a4 DA71     		strb	r2, [r3, #7]
 582              		.loc 1 190 30
 583 00a6 5022     		movs	r2, #80
 584 00a8 5721     		movs	r1, #87
 585 00aa F868     		ldr	r0, [r7, #12]
 586 00ac FFF7FEFF 		bl	_mmcsd_get_slice
 587 00b0 0346     		mov	r3, r0
 588              		.loc 1 190 20
 589 00b2 DAB2     		uxtb	r2, r3
 590              		.loc 1 190 18
 591 00b4 3B68     		ldr	r3, [r7]
 592 00b6 9A71     		strb	r2, [r3, #6]
 593              		.loc 1 191 30
 594 00b8 5822     		movs	r2, #88
 595 00ba 5F21     		movs	r1, #95
 596 00bc F868     		ldr	r0, [r7, #12]
 597 00be FFF7FEFF 		bl	_mmcsd_get_slice
 598 00c2 0346     		mov	r3, r0
 599              		.loc 1 191 20
 600 00c4 DAB2     		uxtb	r2, r3
 601              		.loc 1 191 18
 602 00c6 3B68     		ldr	r3, [r7]
 603 00c8 5A71     		strb	r2, [r3, #5]
 604              		.loc 1 192 30
 605 00ca 6022     		movs	r2, #96
 606 00cc 6721     		movs	r1, #103
 607 00ce F868     		ldr	r0, [r7, #12]
 608 00d0 FFF7FEFF 		bl	_mmcsd_get_slice
 609 00d4 0346     		mov	r3, r0
 610              		.loc 1 192 20
 611 00d6 DAB2     		uxtb	r2, r3
 612              		.loc 1 192 18
 613 00d8 3B68     		ldr	r3, [r7]
 614 00da 1A71     		strb	r2, [r3, #4]
 615              		.loc 1 193 30
 616 00dc 3422     		movs	r2, #52
 617 00de 3721     		movs	r1, #55
 618 00e0 F868     		ldr	r0, [r7, #12]
 619 00e2 FFF7FEFF 		bl	_mmcsd_get_slice
 620 00e6 0346     		mov	r3, r0
 621              		.loc 1 193 20
 622 00e8 DAB2     		uxtb	r2, r3
 623              		.loc 1 193 18
 624 00ea 3B68     		ldr	r3, [r7]
 625 00ec 9A72     		strb	r2, [r3, #10]
 626              		.loc 1 194 30
 627 00ee 3022     		movs	r2, #48
ARM GAS  C:\Users\DEVELO~1\AppData\Local\Temp\ccJ56Rgi.s 			page 12


 628 00f0 3321     		movs	r1, #51
 629 00f2 F868     		ldr	r0, [r7, #12]
 630 00f4 FFF7FEFF 		bl	_mmcsd_get_slice
 631 00f8 0346     		mov	r3, r0
 632              		.loc 1 194 20
 633 00fa DAB2     		uxtb	r2, r3
 634              		.loc 1 194 18
 635 00fc 3B68     		ldr	r3, [r7]
 636 00fe DA72     		strb	r2, [r3, #11]
 637              		.loc 1 195 30
 638 0100 1022     		movs	r2, #16
 639 0102 2F21     		movs	r1, #47
 640 0104 F868     		ldr	r0, [r7, #12]
 641 0106 FFF7FEFF 		bl	_mmcsd_get_slice
 642 010a 0246     		mov	r2, r0
 643              		.loc 1 195 18
 644 010c 3B68     		ldr	r3, [r7]
 645 010e DA60     		str	r2, [r3, #12]
 646              		.loc 1 196 1
 647 0110 00BF     		nop
 648 0112 1037     		adds	r7, r7, #16
 649              		.cfi_def_cfa_offset 8
 650 0114 BD46     		mov	sp, r7
 651              		.cfi_def_cfa_register 13
 652              		@ sp needed
 653 0116 80BD     		pop	{r7, pc}
 654              		.cfi_endproc
 655              	.LFE436:
 656              		.size	_mmcsd_unpack_mmc_cid, .-_mmcsd_unpack_mmc_cid
 657              		.section	.text._mmcsd_unpack_csd_mmc,"ax",%progbits
 658              		.align	1
 659              		.global	_mmcsd_unpack_csd_mmc
 660              		.syntax unified
 661              		.thumb
 662              		.thumb_func
 663              		.type	_mmcsd_unpack_csd_mmc, %function
 664              	_mmcsd_unpack_csd_mmc:
 665              	.LFB437:
 666              		.loc 1 207 56
 667              		.cfi_startproc
 668              		@ args = 0, pretend = 0, frame = 16
 669              		@ frame_needed = 1, uses_anonymous_args = 0
 670 0000 80B5     		push	{r7, lr}
 671              		.cfi_def_cfa_offset 8
 672              		.cfi_offset 7, -8
 673              		.cfi_offset 14, -4
 674 0002 84B0     		sub	sp, sp, #16
 675              		.cfi_def_cfa_offset 24
 676 0004 00AF     		add	r7, sp, #0
 677              		.cfi_def_cfa_register 7
 678 0006 7860     		str	r0, [r7, #4]
 679 0008 3960     		str	r1, [r7]
 680              		.loc 1 212 7
 681 000a 7B68     		ldr	r3, [r7, #4]
 682 000c 1833     		adds	r3, r3, #24
 683 000e FB60     		str	r3, [r7, #12]
 684              		.loc 1 213 42
ARM GAS  C:\Users\DEVELO~1\AppData\Local\Temp\ccJ56Rgi.s 			page 13


 685 0010 3E22     		movs	r2, #62
 686 0012 4921     		movs	r1, #73
 687 0014 F868     		ldr	r0, [r7, #12]
 688 0016 FFF7FEFF 		bl	_mmcsd_get_slice
 689 001a 0346     		mov	r3, r0
 690              		.loc 1 213 32
 691 001c 9AB2     		uxth	r2, r3
 692              		.loc 1 213 30
 693 001e 3B68     		ldr	r3, [r7]
 694 0020 DA81     		strh	r2, [r3, #14]	@ movhi
 695              		.loc 1 214 42
 696 0022 2F22     		movs	r2, #47
 697 0024 3121     		movs	r1, #49
 698 0026 F868     		ldr	r0, [r7, #12]
 699 0028 FFF7FEFF 		bl	_mmcsd_get_slice
 700 002c 0346     		mov	r3, r0
 701              		.loc 1 214 32
 702 002e DAB2     		uxtb	r2, r3
 703              		.loc 1 214 30
 704 0030 3B68     		ldr	r3, [r7]
 705 0032 1A75     		strb	r2, [r3, #20]
 706              		.loc 1 215 42
 707 0034 5422     		movs	r2, #84
 708 0036 5F21     		movs	r1, #95
 709 0038 F868     		ldr	r0, [r7, #12]
 710 003a FFF7FEFF 		bl	_mmcsd_get_slice
 711 003e 0346     		mov	r3, r0
 712              		.loc 1 215 32
 713 0040 9AB2     		uxth	r2, r3
 714              		.loc 1 215 30
 715 0042 3B68     		ldr	r3, [r7]
 716 0044 DA80     		strh	r2, [r3, #6]	@ movhi
 717              		.loc 1 216 42
 718 0046 0E22     		movs	r2, #14
 719 0048 0E21     		movs	r1, #14
 720 004a F868     		ldr	r0, [r7, #12]
 721 004c FFF7FEFF 		bl	_mmcsd_get_slice
 722 0050 0346     		mov	r3, r0
 723              		.loc 1 216 32
 724 0052 DAB2     		uxtb	r2, r3
 725              		.loc 1 216 30
 726 0054 3B68     		ldr	r3, [r7]
 727 0056 DA77     		strb	r2, [r3, #31]
 728              		.loc 1 217 42
 729 0058 0122     		movs	r2, #1
 730 005a 0721     		movs	r1, #7
 731 005c F868     		ldr	r0, [r7, #12]
 732 005e FFF7FEFF 		bl	_mmcsd_get_slice
 733 0062 0346     		mov	r3, r0
 734              		.loc 1 217 32
 735 0064 DAB2     		uxtb	r2, r3
 736              		.loc 1 217 30
 737 0066 3B68     		ldr	r3, [r7]
 738 0068 83F82420 		strb	r2, [r3, #36]
 739              		.loc 1 218 42
 740 006c 7E22     		movs	r2, #126
 741 006e 7F21     		movs	r1, #127
ARM GAS  C:\Users\DEVELO~1\AppData\Local\Temp\ccJ56Rgi.s 			page 14


 742 0070 F868     		ldr	r0, [r7, #12]
 743 0072 FFF7FEFF 		bl	_mmcsd_get_slice
 744 0076 0346     		mov	r3, r0
 745              		.loc 1 218 32
 746 0078 DAB2     		uxtb	r2, r3
 747              		.loc 1 218 30
 748 007a 3B68     		ldr	r3, [r7]
 749 007c 1A70     		strb	r2, [r3]
 750              		.loc 1 219 42
 751 007e 4C22     		movs	r2, #76
 752 0080 4C21     		movs	r1, #76
 753 0082 F868     		ldr	r0, [r7, #12]
 754 0084 FFF7FEFF 		bl	_mmcsd_get_slice
 755 0088 0346     		mov	r3, r0
 756              		.loc 1 219 32
 757 008a DAB2     		uxtb	r2, r3
 758              		.loc 1 219 30
 759 008c 3B68     		ldr	r3, [r7]
 760 008e 1A73     		strb	r2, [r3, #12]
 761              		.loc 1 220 42
 762 0090 0822     		movs	r2, #8
 763 0092 0921     		movs	r1, #9
 764 0094 F868     		ldr	r0, [r7, #12]
 765 0096 FFF7FEFF 		bl	_mmcsd_get_slice
 766 009a 0346     		mov	r3, r0
 767              		.loc 1 220 32
 768 009c DAB2     		uxtb	r2, r3
 769              		.loc 1 220 30
 770 009e 3B68     		ldr	r3, [r7]
 771 00a0 83F82320 		strb	r2, [r3, #35]
 772              		.loc 1 221 42
 773 00a4 2522     		movs	r2, #37
 774 00a6 2921     		movs	r1, #41
 775 00a8 F868     		ldr	r0, [r7, #12]
 776 00aa FFF7FEFF 		bl	_mmcsd_get_slice
 777 00ae 0346     		mov	r3, r0
 778              		.loc 1 221 32
 779 00b0 DAB2     		uxtb	r2, r3
 780              		.loc 1 221 30
 781 00b2 3B68     		ldr	r3, [r7]
 782 00b4 9A75     		strb	r2, [r3, #22]
 783              		.loc 1 222 42
 784 00b6 2A22     		movs	r2, #42
 785 00b8 2E21     		movs	r1, #46
 786 00ba F868     		ldr	r0, [r7, #12]
 787 00bc FFF7FEFF 		bl	_mmcsd_get_slice
 788 00c0 0346     		mov	r3, r0
 789              		.loc 1 222 32
 790 00c2 DAB2     		uxtb	r2, r3
 791              		.loc 1 222 30
 792 00c4 3B68     		ldr	r3, [r7]
 793 00c6 5A75     		strb	r2, [r3, #21]
 794              		.loc 1 223 42
 795 00c8 0A22     		movs	r2, #10
 796 00ca 0B21     		movs	r1, #11
 797 00cc F868     		ldr	r0, [r7, #12]
 798 00ce FFF7FEFF 		bl	_mmcsd_get_slice
ARM GAS  C:\Users\DEVELO~1\AppData\Local\Temp\ccJ56Rgi.s 			page 15


 799 00d2 0346     		mov	r3, r0
 800              		.loc 1 223 32
 801 00d4 DAB2     		uxtb	r2, r3
 802              		.loc 1 223 30
 803 00d6 3B68     		ldr	r3, [r7]
 804 00d8 83F82220 		strb	r2, [r3, #34]
 805              		.loc 1 224 42
 806 00dc 0F22     		movs	r2, #15
 807 00de 0F21     		movs	r1, #15
 808 00e0 F868     		ldr	r0, [r7, #12]
 809 00e2 FFF7FEFF 		bl	_mmcsd_get_slice
 810 00e6 0346     		mov	r3, r0
 811              		.loc 1 224 32
 812 00e8 DAB2     		uxtb	r2, r3
 813              		.loc 1 224 30
 814 00ea 3B68     		ldr	r3, [r7]
 815 00ec 9A77     		strb	r2, [r3, #30]
 816              		.loc 1 225 42
 817 00ee 6822     		movs	r2, #104
 818 00f0 6F21     		movs	r1, #111
 819 00f2 F868     		ldr	r0, [r7, #12]
 820 00f4 FFF7FEFF 		bl	_mmcsd_get_slice
 821 00f8 0346     		mov	r3, r0
 822              		.loc 1 225 32
 823 00fa DAB2     		uxtb	r2, r3
 824              		.loc 1 225 30
 825 00fc 3B68     		ldr	r3, [r7]
 826 00fe DA70     		strb	r2, [r3, #3]
 827              		.loc 1 226 42
 828 0100 0D22     		movs	r2, #13
 829 0102 0D21     		movs	r1, #13
 830 0104 F868     		ldr	r0, [r7, #12]
 831 0106 FFF7FEFF 		bl	_mmcsd_get_slice
 832 010a 0346     		mov	r3, r0
 833              		.loc 1 226 32
 834 010c DAB2     		uxtb	r2, r3
 835              		.loc 1 226 30
 836 010e 3B68     		ldr	r3, [r7]
 837 0110 83F82020 		strb	r2, [r3, #32]
 838              		.loc 1 227 42
 839 0114 1A22     		movs	r2, #26
 840 0116 1C21     		movs	r1, #28
 841 0118 F868     		ldr	r0, [r7, #12]
 842 011a FFF7FEFF 		bl	_mmcsd_get_slice
 843 011e 0346     		mov	r3, r0
 844              		.loc 1 227 32
 845 0120 DAB2     		uxtb	r2, r3
 846              		.loc 1 227 30
 847 0122 3B68     		ldr	r3, [r7]
 848 0124 9A76     		strb	r2, [r3, #26]
 849              		.loc 1 228 42
 850 0126 5022     		movs	r2, #80
 851 0128 5321     		movs	r1, #83
 852 012a F868     		ldr	r0, [r7, #12]
 853 012c FFF7FEFF 		bl	_mmcsd_get_slice
 854 0130 0346     		mov	r3, r0
 855              		.loc 1 228 32
ARM GAS  C:\Users\DEVELO~1\AppData\Local\Temp\ccJ56Rgi.s 			page 16


 856 0132 DAB2     		uxtb	r2, r3
 857              		.loc 1 228 30
 858 0134 3B68     		ldr	r3, [r7]
 859 0136 1A72     		strb	r2, [r3, #8]
 860              		.loc 1 229 42
 861 0138 4F22     		movs	r2, #79
 862 013a 4F21     		movs	r1, #79
 863 013c F868     		ldr	r0, [r7, #12]
 864 013e FFF7FEFF 		bl	_mmcsd_get_slice
 865 0142 0346     		mov	r3, r0
 866              		.loc 1 229 32
 867 0144 DAB2     		uxtb	r2, r3
 868              		.loc 1 229 30
 869 0146 3B68     		ldr	r3, [r7]
 870 0148 5A72     		strb	r2, [r3, #9]
 871              		.loc 1 230 42
 872 014a 4D22     		movs	r2, #77
 873 014c 4D21     		movs	r1, #77
 874 014e F868     		ldr	r0, [r7, #12]
 875 0150 FFF7FEFF 		bl	_mmcsd_get_slice
 876 0154 0346     		mov	r3, r0
 877              		.loc 1 230 32
 878 0156 DAB2     		uxtb	r2, r3
 879              		.loc 1 230 30
 880 0158 3B68     		ldr	r3, [r7]
 881 015a DA72     		strb	r2, [r3, #11]
 882              		.loc 1 231 42
 883 015c 7A22     		movs	r2, #122
 884 015e 7D21     		movs	r1, #125
 885 0160 F868     		ldr	r0, [r7, #12]
 886 0162 FFF7FEFF 		bl	_mmcsd_get_slice
 887 0166 0346     		mov	r3, r0
 888              		.loc 1 231 32
 889 0168 DAB2     		uxtb	r2, r3
 890              		.loc 1 231 30
 891 016a 3B68     		ldr	r3, [r7]
 892 016c 5A70     		strb	r2, [r3, #1]
 893              		.loc 1 232 42
 894 016e 7022     		movs	r2, #112
 895 0170 7721     		movs	r1, #119
 896 0172 F868     		ldr	r0, [r7, #12]
 897 0174 FFF7FEFF 		bl	_mmcsd_get_slice
 898 0178 0346     		mov	r3, r0
 899              		.loc 1 232 32
 900 017a DAB2     		uxtb	r2, r3
 901              		.loc 1 232 30
 902 017c 3B68     		ldr	r3, [r7]
 903 017e 9A70     		strb	r2, [r3, #2]
 904              		.loc 1 233 42
 905 0180 0C22     		movs	r2, #12
 906 0182 0C21     		movs	r1, #12
 907 0184 F868     		ldr	r0, [r7, #12]
 908 0186 FFF7FEFF 		bl	_mmcsd_get_slice
 909 018a 0346     		mov	r3, r0
 910              		.loc 1 233 32
 911 018c DAB2     		uxtb	r2, r3
 912              		.loc 1 233 30
ARM GAS  C:\Users\DEVELO~1\AppData\Local\Temp\ccJ56Rgi.s 			page 17


 913 018e 3B68     		ldr	r3, [r7]
 914 0190 83F82120 		strb	r2, [r3, #33]
 915              		.loc 1 234 42
 916 0194 6022     		movs	r2, #96
 917 0196 6721     		movs	r1, #103
 918 0198 F868     		ldr	r0, [r7, #12]
 919 019a FFF7FEFF 		bl	_mmcsd_get_slice
 920 019e 0346     		mov	r3, r0
 921              		.loc 1 234 32
 922 01a0 DAB2     		uxtb	r2, r3
 923              		.loc 1 234 30
 924 01a2 3B68     		ldr	r3, [r7]
 925 01a4 1A71     		strb	r2, [r3, #4]
 926              		.loc 1 235 42
 927 01a6 3822     		movs	r2, #56
 928 01a8 3A21     		movs	r1, #58
 929 01aa F868     		ldr	r0, [r7, #12]
 930 01ac FFF7FEFF 		bl	_mmcsd_get_slice
 931 01b0 0346     		mov	r3, r0
 932              		.loc 1 235 32
 933 01b2 DAB2     		uxtb	r2, r3
 934              		.loc 1 235 30
 935 01b4 3B68     		ldr	r3, [r7]
 936 01b6 5A74     		strb	r2, [r3, #17]
 937              		.loc 1 236 42
 938 01b8 3B22     		movs	r2, #59
 939 01ba 3D21     		movs	r1, #61
 940 01bc F868     		ldr	r0, [r7, #12]
 941 01be FFF7FEFF 		bl	_mmcsd_get_slice
 942 01c2 0346     		mov	r3, r0
 943              		.loc 1 236 32
 944 01c4 DAB2     		uxtb	r2, r3
 945              		.loc 1 236 30
 946 01c6 3B68     		ldr	r3, [r7]
 947 01c8 1A74     		strb	r2, [r3, #16]
 948              		.loc 1 237 42
 949 01ca 3222     		movs	r2, #50
 950 01cc 3421     		movs	r1, #52
 951 01ce F868     		ldr	r0, [r7, #12]
 952 01d0 FFF7FEFF 		bl	_mmcsd_get_slice
 953 01d4 0346     		mov	r3, r0
 954              		.loc 1 237 32
 955 01d6 DAB2     		uxtb	r2, r3
 956              		.loc 1 237 30
 957 01d8 3B68     		ldr	r3, [r7]
 958 01da DA74     		strb	r2, [r3, #19]
 959              		.loc 1 238 42
 960 01dc 3522     		movs	r2, #53
 961 01de 3721     		movs	r1, #55
 962 01e0 F868     		ldr	r0, [r7, #12]
 963 01e2 FFF7FEFF 		bl	_mmcsd_get_slice
 964 01e6 0346     		mov	r3, r0
 965              		.loc 1 238 32
 966 01e8 DAB2     		uxtb	r2, r3
 967              		.loc 1 238 30
 968 01ea 3B68     		ldr	r3, [r7]
 969 01ec 9A74     		strb	r2, [r3, #18]
ARM GAS  C:\Users\DEVELO~1\AppData\Local\Temp\ccJ56Rgi.s 			page 18


 970              		.loc 1 239 42
 971 01ee 1F22     		movs	r2, #31
 972 01f0 1F21     		movs	r1, #31
 973 01f2 F868     		ldr	r0, [r7, #12]
 974 01f4 FFF7FEFF 		bl	_mmcsd_get_slice
 975 01f8 0346     		mov	r3, r0
 976              		.loc 1 239 32
 977 01fa DAB2     		uxtb	r2, r3
 978              		.loc 1 239 30
 979 01fc 3B68     		ldr	r3, [r7]
 980 01fe 1A76     		strb	r2, [r3, #24]
 981              		.loc 1 240 42
 982 0200 2022     		movs	r2, #32
 983 0202 2421     		movs	r1, #36
 984 0204 F868     		ldr	r0, [r7, #12]
 985 0206 FFF7FEFF 		bl	_mmcsd_get_slice
 986 020a 0346     		mov	r3, r0
 987              		.loc 1 240 32
 988 020c DAB2     		uxtb	r2, r3
 989              		.loc 1 240 30
 990 020e 3B68     		ldr	r3, [r7]
 991 0210 DA75     		strb	r2, [r3, #23]
 992              		.loc 1 241 42
 993 0212 1622     		movs	r2, #22
 994 0214 1921     		movs	r1, #25
 995 0216 F868     		ldr	r0, [r7, #12]
 996 0218 FFF7FEFF 		bl	_mmcsd_get_slice
 997 021c 0346     		mov	r3, r0
 998              		.loc 1 241 32
 999 021e DAB2     		uxtb	r2, r3
 1000              		.loc 1 241 30
 1001 0220 3B68     		ldr	r3, [r7]
 1002 0222 DA76     		strb	r2, [r3, #27]
 1003              		.loc 1 242 42
 1004 0224 1522     		movs	r2, #21
 1005 0226 1521     		movs	r1, #21
 1006 0228 F868     		ldr	r0, [r7, #12]
 1007 022a FFF7FEFF 		bl	_mmcsd_get_slice
 1008 022e 0346     		mov	r3, r0
 1009              		.loc 1 242 32
 1010 0230 DAB2     		uxtb	r2, r3
 1011              		.loc 1 242 30
 1012 0232 3B68     		ldr	r3, [r7]
 1013 0234 1A77     		strb	r2, [r3, #28]
 1014              		.loc 1 243 42
 1015 0236 4E22     		movs	r2, #78
 1016 0238 4E21     		movs	r1, #78
 1017 023a F868     		ldr	r0, [r7, #12]
 1018 023c FFF7FEFF 		bl	_mmcsd_get_slice
 1019 0240 0346     		mov	r3, r0
 1020              		.loc 1 243 32
 1021 0242 DAB2     		uxtb	r2, r3
 1022              		.loc 1 243 30
 1023 0244 3B68     		ldr	r3, [r7]
 1024 0246 9A72     		strb	r2, [r3, #10]
 1025              		.loc 1 244 1
 1026 0248 00BF     		nop
ARM GAS  C:\Users\DEVELO~1\AppData\Local\Temp\ccJ56Rgi.s 			page 19


 1027 024a 1037     		adds	r7, r7, #16
 1028              		.cfi_def_cfa_offset 8
 1029 024c BD46     		mov	sp, r7
 1030              		.cfi_def_cfa_register 13
 1031              		@ sp needed
 1032 024e 80BD     		pop	{r7, pc}
 1033              		.cfi_endproc
 1034              	.LFE437:
 1035              		.size	_mmcsd_unpack_csd_mmc, .-_mmcsd_unpack_csd_mmc
 1036              		.section	.text._mmcsd_unpack_csd_v10,"ax",%progbits
 1037              		.align	1
 1038              		.global	_mmcsd_unpack_csd_v10
 1039              		.syntax unified
 1040              		.thumb
 1041              		.thumb_func
 1042              		.type	_mmcsd_unpack_csd_v10, %function
 1043              	_mmcsd_unpack_csd_v10:
 1044              	.LFB438:
 1045              		.loc 1 255 58
 1046              		.cfi_startproc
 1047              		@ args = 0, pretend = 0, frame = 16
 1048              		@ frame_needed = 1, uses_anonymous_args = 0
 1049 0000 80B5     		push	{r7, lr}
 1050              		.cfi_def_cfa_offset 8
 1051              		.cfi_offset 7, -8
 1052              		.cfi_offset 14, -4
 1053 0002 84B0     		sub	sp, sp, #16
 1054              		.cfi_def_cfa_offset 24
 1055 0004 00AF     		add	r7, sp, #0
 1056              		.cfi_def_cfa_register 7
 1057 0006 7860     		str	r0, [r7, #4]
 1058 0008 3960     		str	r1, [r7]
 1059              		.loc 1 260 7
 1060 000a 7B68     		ldr	r3, [r7, #4]
 1061 000c 1833     		adds	r3, r3, #24
 1062 000e FB60     		str	r3, [r7, #12]
 1063              		.loc 1 261 42
 1064 0010 3E22     		movs	r2, #62
 1065 0012 4921     		movs	r1, #73
 1066 0014 F868     		ldr	r0, [r7, #12]
 1067 0016 FFF7FEFF 		bl	_mmcsd_get_slice
 1068 001a 0346     		mov	r3, r0
 1069              		.loc 1 261 32
 1070 001c 9AB2     		uxth	r2, r3
 1071              		.loc 1 261 30
 1072 001e 3B68     		ldr	r3, [r7]
 1073 0020 9A81     		strh	r2, [r3, #12]	@ movhi
 1074              		.loc 1 262 42
 1075 0022 2F22     		movs	r2, #47
 1076 0024 3121     		movs	r1, #49
 1077 0026 F868     		ldr	r0, [r7, #12]
 1078 0028 FFF7FEFF 		bl	_mmcsd_get_slice
 1079 002c 0346     		mov	r3, r0
 1080              		.loc 1 262 32
 1081 002e DAB2     		uxtb	r2, r3
 1082              		.loc 1 262 30
 1083 0030 3B68     		ldr	r3, [r7]
ARM GAS  C:\Users\DEVELO~1\AppData\Local\Temp\ccJ56Rgi.s 			page 20


 1084 0032 9A74     		strb	r2, [r3, #18]
 1085              		.loc 1 263 42
 1086 0034 5422     		movs	r2, #84
 1087 0036 5F21     		movs	r1, #95
 1088 0038 F868     		ldr	r0, [r7, #12]
 1089 003a FFF7FEFF 		bl	_mmcsd_get_slice
 1090 003e 0346     		mov	r3, r0
 1091              		.loc 1 263 32
 1092 0040 9AB2     		uxth	r2, r3
 1093              		.loc 1 263 30
 1094 0042 3B68     		ldr	r3, [r7]
 1095 0044 9A80     		strh	r2, [r3, #4]	@ movhi
 1096              		.loc 1 264 42
 1097 0046 0E22     		movs	r2, #14
 1098 0048 0E21     		movs	r1, #14
 1099 004a F868     		ldr	r0, [r7, #12]
 1100 004c FFF7FEFF 		bl	_mmcsd_get_slice
 1101 0050 0346     		mov	r3, r0
 1102              		.loc 1 264 32
 1103 0052 DAB2     		uxtb	r2, r3
 1104              		.loc 1 264 30
 1105 0054 3B68     		ldr	r3, [r7]
 1106 0056 DA76     		strb	r2, [r3, #27]
 1107              		.loc 1 265 42
 1108 0058 0122     		movs	r2, #1
 1109 005a 0721     		movs	r1, #7
 1110 005c F868     		ldr	r0, [r7, #12]
 1111 005e FFF7FEFF 		bl	_mmcsd_get_slice
 1112 0062 0346     		mov	r3, r0
 1113              		.loc 1 265 32
 1114 0064 DAB2     		uxtb	r2, r3
 1115              		.loc 1 265 30
 1116 0066 3B68     		ldr	r3, [r7]
 1117 0068 DA77     		strb	r2, [r3, #31]
 1118              		.loc 1 266 42
 1119 006a 7E22     		movs	r2, #126
 1120 006c 7F21     		movs	r1, #127
 1121 006e F868     		ldr	r0, [r7, #12]
 1122 0070 FFF7FEFF 		bl	_mmcsd_get_slice
 1123 0074 0346     		mov	r3, r0
 1124              		.loc 1 266 32
 1125 0076 DAB2     		uxtb	r2, r3
 1126              		.loc 1 266 30
 1127 0078 3B68     		ldr	r3, [r7]
 1128 007a 1A70     		strb	r2, [r3]
 1129              		.loc 1 267 42
 1130 007c 4C22     		movs	r2, #76
 1131 007e 4C21     		movs	r1, #76
 1132 0080 F868     		ldr	r0, [r7, #12]
 1133 0082 FFF7FEFF 		bl	_mmcsd_get_slice
 1134 0086 0346     		mov	r3, r0
 1135              		.loc 1 267 32
 1136 0088 DAB2     		uxtb	r2, r3
 1137              		.loc 1 267 30
 1138 008a 3B68     		ldr	r3, [r7]
 1139 008c 9A72     		strb	r2, [r3, #10]
 1140              		.loc 1 268 42
ARM GAS  C:\Users\DEVELO~1\AppData\Local\Temp\ccJ56Rgi.s 			page 21


 1141 008e 2E22     		movs	r2, #46
 1142 0090 2E21     		movs	r1, #46
 1143 0092 F868     		ldr	r0, [r7, #12]
 1144 0094 FFF7FEFF 		bl	_mmcsd_get_slice
 1145 0098 0346     		mov	r3, r0
 1146              		.loc 1 268 32
 1147 009a DAB2     		uxtb	r2, r3
 1148              		.loc 1 268 30
 1149 009c 3B68     		ldr	r3, [r7]
 1150 009e DA74     		strb	r2, [r3, #19]
 1151              		.loc 1 269 42
 1152 00a0 2722     		movs	r2, #39
 1153 00a2 2D21     		movs	r1, #45
 1154 00a4 F868     		ldr	r0, [r7, #12]
 1155 00a6 FFF7FEFF 		bl	_mmcsd_get_slice
 1156 00aa 0346     		mov	r3, r0
 1157              		.loc 1 269 32
 1158 00ac DAB2     		uxtb	r2, r3
 1159              		.loc 1 269 30
 1160 00ae 3B68     		ldr	r3, [r7]
 1161 00b0 1A75     		strb	r2, [r3, #20]
 1162              		.loc 1 270 42
 1163 00b2 0A22     		movs	r2, #10
 1164 00b4 0B21     		movs	r1, #11
 1165 00b6 F868     		ldr	r0, [r7, #12]
 1166 00b8 FFF7FEFF 		bl	_mmcsd_get_slice
 1167 00bc 0346     		mov	r3, r0
 1168              		.loc 1 270 32
 1169 00be DAB2     		uxtb	r2, r3
 1170              		.loc 1 270 30
 1171 00c0 3B68     		ldr	r3, [r7]
 1172 00c2 9A77     		strb	r2, [r3, #30]
 1173              		.loc 1 271 42
 1174 00c4 0F22     		movs	r2, #15
 1175 00c6 0F21     		movs	r1, #15
 1176 00c8 F868     		ldr	r0, [r7, #12]
 1177 00ca FFF7FEFF 		bl	_mmcsd_get_slice
 1178 00ce 0346     		mov	r3, r0
 1179              		.loc 1 271 32
 1180 00d0 DAB2     		uxtb	r2, r3
 1181              		.loc 1 271 30
 1182 00d2 3B68     		ldr	r3, [r7]
 1183 00d4 9A76     		strb	r2, [r3, #26]
 1184              		.loc 1 272 42
 1185 00d6 6822     		movs	r2, #104
 1186 00d8 6F21     		movs	r1, #111
 1187 00da F868     		ldr	r0, [r7, #12]
 1188 00dc FFF7FEFF 		bl	_mmcsd_get_slice
 1189 00e0 0346     		mov	r3, r0
 1190              		.loc 1 272 32
 1191 00e2 DAB2     		uxtb	r2, r3
 1192              		.loc 1 272 30
 1193 00e4 3B68     		ldr	r3, [r7]
 1194 00e6 9A70     		strb	r2, [r3, #2]
 1195              		.loc 1 273 42
 1196 00e8 0D22     		movs	r2, #13
 1197 00ea 0D21     		movs	r1, #13
ARM GAS  C:\Users\DEVELO~1\AppData\Local\Temp\ccJ56Rgi.s 			page 22


 1198 00ec F868     		ldr	r0, [r7, #12]
 1199 00ee FFF7FEFF 		bl	_mmcsd_get_slice
 1200 00f2 0346     		mov	r3, r0
 1201              		.loc 1 273 32
 1202 00f4 DAB2     		uxtb	r2, r3
 1203              		.loc 1 273 30
 1204 00f6 3B68     		ldr	r3, [r7]
 1205 00f8 1A77     		strb	r2, [r3, #28]
 1206              		.loc 1 274 42
 1207 00fa 1A22     		movs	r2, #26
 1208 00fc 1C21     		movs	r1, #28
 1209 00fe F868     		ldr	r0, [r7, #12]
 1210 0100 FFF7FEFF 		bl	_mmcsd_get_slice
 1211 0104 0346     		mov	r3, r0
 1212              		.loc 1 274 32
 1213 0106 DAB2     		uxtb	r2, r3
 1214              		.loc 1 274 30
 1215 0108 3B68     		ldr	r3, [r7]
 1216 010a DA75     		strb	r2, [r3, #23]
 1217              		.loc 1 275 42
 1218 010c 5022     		movs	r2, #80
 1219 010e 5321     		movs	r1, #83
 1220 0110 F868     		ldr	r0, [r7, #12]
 1221 0112 FFF7FEFF 		bl	_mmcsd_get_slice
 1222 0116 0346     		mov	r3, r0
 1223              		.loc 1 275 32
 1224 0118 DAB2     		uxtb	r2, r3
 1225              		.loc 1 275 30
 1226 011a 3B68     		ldr	r3, [r7]
 1227 011c 9A71     		strb	r2, [r3, #6]
 1228              		.loc 1 276 42
 1229 011e 4F22     		movs	r2, #79
 1230 0120 4F21     		movs	r1, #79
 1231 0122 F868     		ldr	r0, [r7, #12]
 1232 0124 FFF7FEFF 		bl	_mmcsd_get_slice
 1233 0128 0346     		mov	r3, r0
 1234              		.loc 1 276 32
 1235 012a DAB2     		uxtb	r2, r3
 1236              		.loc 1 276 30
 1237 012c 3B68     		ldr	r3, [r7]
 1238 012e DA71     		strb	r2, [r3, #7]
 1239              		.loc 1 277 42
 1240 0130 4D22     		movs	r2, #77
 1241 0132 4D21     		movs	r1, #77
 1242 0134 F868     		ldr	r0, [r7, #12]
 1243 0136 FFF7FEFF 		bl	_mmcsd_get_slice
 1244 013a 0346     		mov	r3, r0
 1245              		.loc 1 277 32
 1246 013c DAB2     		uxtb	r2, r3
 1247              		.loc 1 277 30
 1248 013e 3B68     		ldr	r3, [r7]
 1249 0140 5A72     		strb	r2, [r3, #9]
 1250              		.loc 1 278 42
 1251 0142 7022     		movs	r2, #112
 1252 0144 7721     		movs	r1, #119
 1253 0146 F868     		ldr	r0, [r7, #12]
 1254 0148 FFF7FEFF 		bl	_mmcsd_get_slice
ARM GAS  C:\Users\DEVELO~1\AppData\Local\Temp\ccJ56Rgi.s 			page 23


 1255 014c 0346     		mov	r3, r0
 1256              		.loc 1 278 32
 1257 014e DAB2     		uxtb	r2, r3
 1258              		.loc 1 278 30
 1259 0150 3B68     		ldr	r3, [r7]
 1260 0152 5A70     		strb	r2, [r3, #1]
 1261              		.loc 1 279 42
 1262 0154 0C22     		movs	r2, #12
 1263 0156 0C21     		movs	r1, #12
 1264 0158 F868     		ldr	r0, [r7, #12]
 1265 015a FFF7FEFF 		bl	_mmcsd_get_slice
 1266 015e 0346     		mov	r3, r0
 1267              		.loc 1 279 32
 1268 0160 DAB2     		uxtb	r2, r3
 1269              		.loc 1 279 30
 1270 0162 3B68     		ldr	r3, [r7]
 1271 0164 5A77     		strb	r2, [r3, #29]
 1272              		.loc 1 280 42
 1273 0166 6022     		movs	r2, #96
 1274 0168 6721     		movs	r1, #103
 1275 016a F868     		ldr	r0, [r7, #12]
 1276 016c FFF7FEFF 		bl	_mmcsd_get_slice
 1277 0170 0346     		mov	r3, r0
 1278              		.loc 1 280 32
 1279 0172 DAB2     		uxtb	r2, r3
 1280              		.loc 1 280 30
 1281 0174 3B68     		ldr	r3, [r7]
 1282 0176 DA70     		strb	r2, [r3, #3]
 1283              		.loc 1 281 42
 1284 0178 1F22     		movs	r2, #31
 1285 017a 1F21     		movs	r1, #31
 1286 017c F868     		ldr	r0, [r7, #12]
 1287 017e FFF7FEFF 		bl	_mmcsd_get_slice
 1288 0182 0346     		mov	r3, r0
 1289              		.loc 1 281 32
 1290 0184 DAB2     		uxtb	r2, r3
 1291              		.loc 1 281 30
 1292 0186 3B68     		ldr	r3, [r7]
 1293 0188 9A75     		strb	r2, [r3, #22]
 1294              		.loc 1 282 42
 1295 018a 2022     		movs	r2, #32
 1296 018c 2621     		movs	r1, #38
 1297 018e F868     		ldr	r0, [r7, #12]
 1298 0190 FFF7FEFF 		bl	_mmcsd_get_slice
 1299 0194 0346     		mov	r3, r0
 1300              		.loc 1 282 32
 1301 0196 DAB2     		uxtb	r2, r3
 1302              		.loc 1 282 30
 1303 0198 3B68     		ldr	r3, [r7]
 1304 019a 5A75     		strb	r2, [r3, #21]
 1305              		.loc 1 283 42
 1306 019c 0C22     		movs	r2, #12
 1307 019e 1921     		movs	r1, #25
 1308 01a0 F868     		ldr	r0, [r7, #12]
 1309 01a2 FFF7FEFF 		bl	_mmcsd_get_slice
 1310 01a6 0346     		mov	r3, r0
 1311              		.loc 1 283 32
ARM GAS  C:\Users\DEVELO~1\AppData\Local\Temp\ccJ56Rgi.s 			page 24


 1312 01a8 DAB2     		uxtb	r2, r3
 1313              		.loc 1 283 30
 1314 01aa 3B68     		ldr	r3, [r7]
 1315 01ac 1A76     		strb	r2, [r3, #24]
 1316              		.loc 1 284 42
 1317 01ae 1522     		movs	r2, #21
 1318 01b0 1521     		movs	r1, #21
 1319 01b2 F868     		ldr	r0, [r7, #12]
 1320 01b4 FFF7FEFF 		bl	_mmcsd_get_slice
 1321 01b8 0346     		mov	r3, r0
 1322              		.loc 1 284 32
 1323 01ba DAB2     		uxtb	r2, r3
 1324              		.loc 1 284 30
 1325 01bc 3B68     		ldr	r3, [r7]
 1326 01be 5A76     		strb	r2, [r3, #25]
 1327              		.loc 1 285 42
 1328 01c0 4E22     		movs	r2, #78
 1329 01c2 4E21     		movs	r1, #78
 1330 01c4 F868     		ldr	r0, [r7, #12]
 1331 01c6 FFF7FEFF 		bl	_mmcsd_get_slice
 1332 01ca 0346     		mov	r3, r0
 1333              		.loc 1 285 32
 1334 01cc DAB2     		uxtb	r2, r3
 1335              		.loc 1 285 30
 1336 01ce 3B68     		ldr	r3, [r7]
 1337 01d0 1A72     		strb	r2, [r3, #8]
 1338              		.loc 1 286 1
 1339 01d2 00BF     		nop
 1340 01d4 1037     		adds	r7, r7, #16
 1341              		.cfi_def_cfa_offset 8
 1342 01d6 BD46     		mov	sp, r7
 1343              		.cfi_def_cfa_register 13
 1344              		@ sp needed
 1345 01d8 80BD     		pop	{r7, pc}
 1346              		.cfi_endproc
 1347              	.LFE438:
 1348              		.size	_mmcsd_unpack_csd_v10, .-_mmcsd_unpack_csd_v10
 1349              		.section	.text._mmcsd_unpack_csd_v20,"ax",%progbits
 1350              		.align	1
 1351              		.global	_mmcsd_unpack_csd_v20
 1352              		.syntax unified
 1353              		.thumb
 1354              		.thumb_func
 1355              		.type	_mmcsd_unpack_csd_v20, %function
 1356              	_mmcsd_unpack_csd_v20:
 1357              	.LFB439:
 1358              		.loc 1 297 58
 1359              		.cfi_startproc
 1360              		@ args = 0, pretend = 0, frame = 16
 1361              		@ frame_needed = 1, uses_anonymous_args = 0
 1362 0000 80B5     		push	{r7, lr}
 1363              		.cfi_def_cfa_offset 8
 1364              		.cfi_offset 7, -8
 1365              		.cfi_offset 14, -4
 1366 0002 84B0     		sub	sp, sp, #16
 1367              		.cfi_def_cfa_offset 24
 1368 0004 00AF     		add	r7, sp, #0
ARM GAS  C:\Users\DEVELO~1\AppData\Local\Temp\ccJ56Rgi.s 			page 25


 1369              		.cfi_def_cfa_register 7
 1370 0006 7860     		str	r0, [r7, #4]
 1371 0008 3960     		str	r1, [r7]
 1372              		.loc 1 302 7
 1373 000a 7B68     		ldr	r3, [r7, #4]
 1374 000c 1833     		adds	r3, r3, #24
 1375 000e FB60     		str	r3, [r7, #12]
 1376              		.loc 1 303 42
 1377 0010 3022     		movs	r2, #48
 1378 0012 4521     		movs	r1, #69
 1379 0014 F868     		ldr	r0, [r7, #12]
 1380 0016 FFF7FEFF 		bl	_mmcsd_get_slice
 1381 001a 0246     		mov	r2, r0
 1382              		.loc 1 303 30
 1383 001c 3B68     		ldr	r3, [r7]
 1384 001e DA60     		str	r2, [r3, #12]
 1385              		.loc 1 304 42
 1386 0020 0122     		movs	r2, #1
 1387 0022 0721     		movs	r1, #7
 1388 0024 F868     		ldr	r0, [r7, #12]
 1389 0026 FFF7FEFF 		bl	_mmcsd_get_slice
 1390 002a 0346     		mov	r3, r0
 1391              		.loc 1 304 32
 1392 002c DAB2     		uxtb	r2, r3
 1393              		.loc 1 304 30
 1394 002e 3B68     		ldr	r3, [r7]
 1395 0030 1A77     		strb	r2, [r3, #28]
 1396              		.loc 1 305 42
 1397 0032 5422     		movs	r2, #84
 1398 0034 5F21     		movs	r1, #95
 1399 0036 F868     		ldr	r0, [r7, #12]
 1400 0038 FFF7FEFF 		bl	_mmcsd_get_slice
 1401 003c 0346     		mov	r3, r0
 1402              		.loc 1 305 32
 1403 003e 9AB2     		uxth	r2, r3
 1404              		.loc 1 305 30
 1405 0040 3B68     		ldr	r3, [r7]
 1406 0042 9A80     		strh	r2, [r3, #4]	@ movhi
 1407              		.loc 1 306 42
 1408 0044 0E22     		movs	r2, #14
 1409 0046 0E21     		movs	r1, #14
 1410 0048 F868     		ldr	r0, [r7, #12]
 1411 004a FFF7FEFF 		bl	_mmcsd_get_slice
 1412 004e 0346     		mov	r3, r0
 1413              		.loc 1 306 32
 1414 0050 DAB2     		uxtb	r2, r3
 1415              		.loc 1 306 30
 1416 0052 3B68     		ldr	r3, [r7]
 1417 0054 1A76     		strb	r2, [r3, #24]
 1418              		.loc 1 307 42
 1419 0056 7E22     		movs	r2, #126
 1420 0058 7F21     		movs	r1, #127
 1421 005a F868     		ldr	r0, [r7, #12]
 1422 005c FFF7FEFF 		bl	_mmcsd_get_slice
 1423 0060 0346     		mov	r3, r0
 1424              		.loc 1 307 32
 1425 0062 DAB2     		uxtb	r2, r3
ARM GAS  C:\Users\DEVELO~1\AppData\Local\Temp\ccJ56Rgi.s 			page 26


 1426              		.loc 1 307 30
 1427 0064 3B68     		ldr	r3, [r7]
 1428 0066 1A70     		strb	r2, [r3]
 1429              		.loc 1 308 42
 1430 0068 4C22     		movs	r2, #76
 1431 006a 4C21     		movs	r1, #76
 1432 006c F868     		ldr	r0, [r7, #12]
 1433 006e FFF7FEFF 		bl	_mmcsd_get_slice
 1434 0072 0346     		mov	r3, r0
 1435              		.loc 1 308 32
 1436 0074 DAB2     		uxtb	r2, r3
 1437              		.loc 1 308 30
 1438 0076 3B68     		ldr	r3, [r7]
 1439 0078 9A72     		strb	r2, [r3, #10]
 1440              		.loc 1 309 42
 1441 007a 2E22     		movs	r2, #46
 1442 007c 2E21     		movs	r1, #46
 1443 007e F868     		ldr	r0, [r7, #12]
 1444 0080 FFF7FEFF 		bl	_mmcsd_get_slice
 1445 0084 0346     		mov	r3, r0
 1446              		.loc 1 309 32
 1447 0086 DAB2     		uxtb	r2, r3
 1448              		.loc 1 309 30
 1449 0088 3B68     		ldr	r3, [r7]
 1450 008a 1A74     		strb	r2, [r3, #16]
 1451              		.loc 1 310 42
 1452 008c 0A22     		movs	r2, #10
 1453 008e 0B21     		movs	r1, #11
 1454 0090 F868     		ldr	r0, [r7, #12]
 1455 0092 FFF7FEFF 		bl	_mmcsd_get_slice
 1456 0096 0346     		mov	r3, r0
 1457              		.loc 1 310 32
 1458 0098 DAB2     		uxtb	r2, r3
 1459              		.loc 1 310 30
 1460 009a 3B68     		ldr	r3, [r7]
 1461 009c DA76     		strb	r2, [r3, #27]
 1462              		.loc 1 311 42
 1463 009e 0F22     		movs	r2, #15
 1464 00a0 0F21     		movs	r1, #15
 1465 00a2 F868     		ldr	r0, [r7, #12]
 1466 00a4 FFF7FEFF 		bl	_mmcsd_get_slice
 1467 00a8 0346     		mov	r3, r0
 1468              		.loc 1 311 32
 1469 00aa DAB2     		uxtb	r2, r3
 1470              		.loc 1 311 30
 1471 00ac 3B68     		ldr	r3, [r7]
 1472 00ae DA75     		strb	r2, [r3, #23]
 1473              		.loc 1 312 42
 1474 00b0 6822     		movs	r2, #104
 1475 00b2 6F21     		movs	r1, #111
 1476 00b4 F868     		ldr	r0, [r7, #12]
 1477 00b6 FFF7FEFF 		bl	_mmcsd_get_slice
 1478 00ba 0346     		mov	r3, r0
 1479              		.loc 1 312 32
 1480 00bc DAB2     		uxtb	r2, r3
 1481              		.loc 1 312 30
 1482 00be 3B68     		ldr	r3, [r7]
ARM GAS  C:\Users\DEVELO~1\AppData\Local\Temp\ccJ56Rgi.s 			page 27


 1483 00c0 9A70     		strb	r2, [r3, #2]
 1484              		.loc 1 313 42
 1485 00c2 0D22     		movs	r2, #13
 1486 00c4 0D21     		movs	r1, #13
 1487 00c6 F868     		ldr	r0, [r7, #12]
 1488 00c8 FFF7FEFF 		bl	_mmcsd_get_slice
 1489 00cc 0346     		mov	r3, r0
 1490              		.loc 1 313 32
 1491 00ce DAB2     		uxtb	r2, r3
 1492              		.loc 1 313 30
 1493 00d0 3B68     		ldr	r3, [r7]
 1494 00d2 5A76     		strb	r2, [r3, #25]
 1495              		.loc 1 314 42
 1496 00d4 1A22     		movs	r2, #26
 1497 00d6 1C21     		movs	r1, #28
 1498 00d8 F868     		ldr	r0, [r7, #12]
 1499 00da FFF7FEFF 		bl	_mmcsd_get_slice
 1500 00de 0346     		mov	r3, r0
 1501              		.loc 1 314 32
 1502 00e0 DAB2     		uxtb	r2, r3
 1503              		.loc 1 314 30
 1504 00e2 3B68     		ldr	r3, [r7]
 1505 00e4 1A75     		strb	r2, [r3, #20]
 1506              		.loc 1 315 42
 1507 00e6 5022     		movs	r2, #80
 1508 00e8 5321     		movs	r1, #83
 1509 00ea F868     		ldr	r0, [r7, #12]
 1510 00ec FFF7FEFF 		bl	_mmcsd_get_slice
 1511 00f0 0346     		mov	r3, r0
 1512              		.loc 1 315 32
 1513 00f2 DAB2     		uxtb	r2, r3
 1514              		.loc 1 315 30
 1515 00f4 3B68     		ldr	r3, [r7]
 1516 00f6 9A71     		strb	r2, [r3, #6]
 1517              		.loc 1 316 42
 1518 00f8 4F22     		movs	r2, #79
 1519 00fa 4F21     		movs	r1, #79
 1520 00fc F868     		ldr	r0, [r7, #12]
 1521 00fe FFF7FEFF 		bl	_mmcsd_get_slice
 1522 0102 0346     		mov	r3, r0
 1523              		.loc 1 316 32
 1524 0104 DAB2     		uxtb	r2, r3
 1525              		.loc 1 316 30
 1526 0106 3B68     		ldr	r3, [r7]
 1527 0108 DA71     		strb	r2, [r3, #7]
 1528              		.loc 1 317 42
 1529 010a 4D22     		movs	r2, #77
 1530 010c 4D21     		movs	r1, #77
 1531 010e F868     		ldr	r0, [r7, #12]
 1532 0110 FFF7FEFF 		bl	_mmcsd_get_slice
 1533 0114 0346     		mov	r3, r0
 1534              		.loc 1 317 32
 1535 0116 DAB2     		uxtb	r2, r3
 1536              		.loc 1 317 30
 1537 0118 3B68     		ldr	r3, [r7]
 1538 011a 5A72     		strb	r2, [r3, #9]
 1539              		.loc 1 318 42
ARM GAS  C:\Users\DEVELO~1\AppData\Local\Temp\ccJ56Rgi.s 			page 28


 1540 011c 2722     		movs	r2, #39
 1541 011e 2D21     		movs	r1, #45
 1542 0120 F868     		ldr	r0, [r7, #12]
 1543 0122 FFF7FEFF 		bl	_mmcsd_get_slice
 1544 0126 0346     		mov	r3, r0
 1545              		.loc 1 318 32
 1546 0128 DAB2     		uxtb	r2, r3
 1547              		.loc 1 318 30
 1548 012a 3B68     		ldr	r3, [r7]
 1549 012c 5A74     		strb	r2, [r3, #17]
 1550              		.loc 1 319 42
 1551 012e 7022     		movs	r2, #112
 1552 0130 7721     		movs	r1, #119
 1553 0132 F868     		ldr	r0, [r7, #12]
 1554 0134 FFF7FEFF 		bl	_mmcsd_get_slice
 1555 0138 0346     		mov	r3, r0
 1556              		.loc 1 319 32
 1557 013a DAB2     		uxtb	r2, r3
 1558              		.loc 1 319 30
 1559 013c 3B68     		ldr	r3, [r7]
 1560 013e 5A70     		strb	r2, [r3, #1]
 1561              		.loc 1 320 42
 1562 0140 0C22     		movs	r2, #12
 1563 0142 0C21     		movs	r1, #12
 1564 0144 F868     		ldr	r0, [r7, #12]
 1565 0146 FFF7FEFF 		bl	_mmcsd_get_slice
 1566 014a 0346     		mov	r3, r0
 1567              		.loc 1 320 32
 1568 014c DAB2     		uxtb	r2, r3
 1569              		.loc 1 320 30
 1570 014e 3B68     		ldr	r3, [r7]
 1571 0150 9A76     		strb	r2, [r3, #26]
 1572              		.loc 1 321 42
 1573 0152 6022     		movs	r2, #96
 1574 0154 6721     		movs	r1, #103
 1575 0156 F868     		ldr	r0, [r7, #12]
 1576 0158 FFF7FEFF 		bl	_mmcsd_get_slice
 1577 015c 0346     		mov	r3, r0
 1578              		.loc 1 321 32
 1579 015e DAB2     		uxtb	r2, r3
 1580              		.loc 1 321 30
 1581 0160 3B68     		ldr	r3, [r7]
 1582 0162 DA70     		strb	r2, [r3, #3]
 1583              		.loc 1 322 42
 1584 0164 1F22     		movs	r2, #31
 1585 0166 1F21     		movs	r1, #31
 1586 0168 F868     		ldr	r0, [r7, #12]
 1587 016a FFF7FEFF 		bl	_mmcsd_get_slice
 1588 016e 0346     		mov	r3, r0
 1589              		.loc 1 322 32
 1590 0170 DAB2     		uxtb	r2, r3
 1591              		.loc 1 322 30
 1592 0172 3B68     		ldr	r3, [r7]
 1593 0174 DA74     		strb	r2, [r3, #19]
 1594              		.loc 1 323 42
 1595 0176 2022     		movs	r2, #32
 1596 0178 2621     		movs	r1, #38
ARM GAS  C:\Users\DEVELO~1\AppData\Local\Temp\ccJ56Rgi.s 			page 29


 1597 017a F868     		ldr	r0, [r7, #12]
 1598 017c FFF7FEFF 		bl	_mmcsd_get_slice
 1599 0180 0346     		mov	r3, r0
 1600              		.loc 1 323 32
 1601 0182 DAB2     		uxtb	r2, r3
 1602              		.loc 1 323 30
 1603 0184 3B68     		ldr	r3, [r7]
 1604 0186 9A74     		strb	r2, [r3, #18]
 1605              		.loc 1 324 42
 1606 0188 0C22     		movs	r2, #12
 1607 018a 1921     		movs	r1, #25
 1608 018c F868     		ldr	r0, [r7, #12]
 1609 018e FFF7FEFF 		bl	_mmcsd_get_slice
 1610 0192 0346     		mov	r3, r0
 1611              		.loc 1 324 32
 1612 0194 DAB2     		uxtb	r2, r3
 1613              		.loc 1 324 30
 1614 0196 3B68     		ldr	r3, [r7]
 1615 0198 5A75     		strb	r2, [r3, #21]
 1616              		.loc 1 325 42
 1617 019a 1522     		movs	r2, #21
 1618 019c 1521     		movs	r1, #21
 1619 019e F868     		ldr	r0, [r7, #12]
 1620 01a0 FFF7FEFF 		bl	_mmcsd_get_slice
 1621 01a4 0346     		mov	r3, r0
 1622              		.loc 1 325 32
 1623 01a6 DAB2     		uxtb	r2, r3
 1624              		.loc 1 325 30
 1625 01a8 3B68     		ldr	r3, [r7]
 1626 01aa 9A75     		strb	r2, [r3, #22]
 1627              		.loc 1 326 42
 1628 01ac 4E22     		movs	r2, #78
 1629 01ae 4E21     		movs	r1, #78
 1630 01b0 F868     		ldr	r0, [r7, #12]
 1631 01b2 FFF7FEFF 		bl	_mmcsd_get_slice
 1632 01b6 0346     		mov	r3, r0
 1633              		.loc 1 326 32
 1634 01b8 DAB2     		uxtb	r2, r3
 1635              		.loc 1 326 30
 1636 01ba 3B68     		ldr	r3, [r7]
 1637 01bc 1A72     		strb	r2, [r3, #8]
 1638              		.loc 1 327 1
 1639 01be 00BF     		nop
 1640 01c0 1037     		adds	r7, r7, #16
 1641              		.cfi_def_cfa_offset 8
 1642 01c2 BD46     		mov	sp, r7
 1643              		.cfi_def_cfa_register 13
 1644              		@ sp needed
 1645 01c4 80BD     		pop	{r7, pc}
 1646              		.cfi_endproc
 1647              	.LFE439:
 1648              		.size	_mmcsd_unpack_csd_v20, .-_mmcsd_unpack_csd_v20
 1649              		.text
 1650              	.Letext0:
 1651              		.file 2 "c:\\chibistudio\\tools\\gnu tools arm embedded\\11.3 2022.08\\lib\\gcc\\arm-none-eabi\\11
 1652              		.file 3 "c:\\chibistudio\\tools\\gnu tools arm embedded\\11.3 2022.08\\arm-none-eabi\\include\\mac
 1653              		.file 4 "c:\\chibistudio\\tools\\gnu tools arm embedded\\11.3 2022.08\\arm-none-eabi\\include\\sys
ARM GAS  C:\Users\DEVELO~1\AppData\Local\Temp\ccJ56Rgi.s 			page 30


 1654              		.file 5 "../../../os/hal/include/hal_ioblock.h"
 1655              		.file 6 "../../../os/hal/include/hal_mmcsd.h"