ARM GAS  C:\Users\DEVELO~1\AppData\Local\Temp\ccJ56Rgi.s 			page 1


   1              		.cpu cortex-m7
   2              		.arch armv7e-m
   3              		.fpu softvfp
   4              		.eabi_attribute 20, 1
   5              		.eabi_attribute 21, 1
   6              		.eabi_attribute 23, 3
   7              		.eabi_attribute 24, 1
   8              		.eabi_attribute 25, 1
   9              		.eabi_attribute 26, 1
  10              		.eabi_attribute 30, 6
  11              		.eabi_attribute 34, 1
  12              		.eabi_attribute 18, 4
  13              		.file	"hal_mmcsd.c"
  14              		.text
  15              	.Ltext0:
  16              		.cfi_sections	.debug_frame
  17              		.section	.text._mmcsd_get_slice,"ax",%progbits
  18              		.align	1
  19              		.global	_mmcsd_get_slice
  20              		.syntax unified
  21              		.thumb
  22              		.thumb_func
  23              		.type	_mmcsd_get_slice, %function
  24              	_mmcsd_get_slice:
  25              	.LFB432:
  26              		.file 1 "../../../os/hal/src/hal_mmcsd.c"
  27              		.loc 1 63 43
  28              		.cfi_startproc
  29              		@ args = 0, pretend = 0, frame = 32
  30              		@ frame_needed = 1, uses_anonymous_args = 0
  31              		@ link register save eliminated.
  32 0000 80B4     		push	{r7}
  33              		.cfi_def_cfa_offset 4
  34              		.cfi_offset 7, -4
  35 0002 89B0     		sub	sp, sp, #36
  36              		.cfi_def_cfa_offset 40
  37 0004 00AF     		add	r7, sp, #0
  38              		.cfi_def_cfa_register 7
  39 0006 F860     		str	r0, [r7, #12]
  40 0008 B960     		str	r1, [r7, #8]
  41 000a 7A60     		str	r2, [r7, #4]
  42              		.loc 1 69 12
  43 000c 7B68     		ldr	r3, [r7, #4]
  44 000e 5B09     		lsrs	r3, r3, #5
  45 0010 7B61     		str	r3, [r7, #20]
  46              		.loc 1 70 12
  47 0012 7B68     		ldr	r3, [r7, #4]
  48 0014 03F01F03 		and	r3, r3, #31
  49 0018 3B61     		str	r3, [r7, #16]
  50              		.loc 1 71 12
  51 001a BB68     		ldr	r3, [r7, #8]
  52 001c 5B09     		lsrs	r3, r3, #5
  53 001e FB61     		str	r3, [r7, #28]
  54              		.loc 1 72 37
  55 0020 BB68     		ldr	r3, [r7, #8]
  56 0022 03F01F03 		and	r3, r3, #31
  57              		.loc 1 72 44
ARM GAS  C:\Users\DEVELO~1\AppData\Local\Temp\ccJ56Rgi.s 			page 2


  58 0026 0133     		adds	r3, r3, #1
  59              		.loc 1 72 28
  60 0028 0122     		movs	r2, #1
  61 002a 02FA03F3 		lsl	r3, r2, r3
  62              		.loc 1 72 12
  63 002e 013B     		subs	r3, r3, #1
  64 0030 BB61     		str	r3, [r7, #24]
  65              		.loc 1 75 6
  66 0032 7A69     		ldr	r2, [r7, #20]
  67 0034 FB69     		ldr	r3, [r7, #28]
  68 0036 9A42     		cmp	r2, r3
  69 0038 14D2     		bcs	.L2
  70              		.loc 1 76 17
  71 003a 7B69     		ldr	r3, [r7, #20]
  72 003c 9B00     		lsls	r3, r3, #2
  73 003e FA68     		ldr	r2, [r7, #12]
  74 0040 1344     		add	r3, r3, r2
  75 0042 1A68     		ldr	r2, [r3]
  76              		.loc 1 76 28
  77 0044 3B69     		ldr	r3, [r7, #16]
  78 0046 DA40     		lsrs	r2, r2, r3
  79              		.loc 1 77 18
  80 0048 FB69     		ldr	r3, [r7, #28]
  81 004a 9B00     		lsls	r3, r3, #2
  82 004c F968     		ldr	r1, [r7, #12]
  83 004e 0B44     		add	r3, r3, r1
  84 0050 1968     		ldr	r1, [r3]
  85              		.loc 1 77 27
  86 0052 BB69     		ldr	r3, [r7, #24]
  87 0054 1940     		ands	r1, r1, r3
  88              		.loc 1 77 46
  89 0056 3B69     		ldr	r3, [r7, #16]
  90 0058 C3F12003 		rsb	r3, r3, #32
  91              		.loc 1 77 38
  92 005c 01FA03F3 		lsl	r3, r1, r3
  93              		.loc 1 76 41
  94 0060 1343     		orrs	r3, r3, r2
  95 0062 09E0     		b	.L3
  96              	.L2:
  97              		.loc 1 79 15
  98 0064 7B69     		ldr	r3, [r7, #20]
  99 0066 9B00     		lsls	r3, r3, #2
 100 0068 FA68     		ldr	r2, [r7, #12]
 101 006a 1344     		add	r3, r3, r2
 102 006c 1A68     		ldr	r2, [r3]
 103              		.loc 1 79 26
 104 006e BB69     		ldr	r3, [r7, #24]
 105 0070 1A40     		ands	r2, r2, r3
 106              		.loc 1 79 37
 107 0072 3B69     		ldr	r3, [r7, #16]
 108 0074 22FA03F3 		lsr	r3, r2, r3
 109              	.L3:
 110              		.loc 1 80 1
 111 0078 1846     		mov	r0, r3
 112 007a 2437     		adds	r7, r7, #36
 113              		.cfi_def_cfa_offset 4
 114 007c BD46     		mov	sp, r7
ARM GAS  C:\Users\DEVELO~1\AppData\Local\Temp\ccJ56Rgi.s 			page 3


 115              		.cfi_def_cfa_register 13
 116              		@ sp needed
 117 007e 80BC     		pop	{r7}
 118              		.cfi_restore 7
 119              		.cfi_def_cfa_offset 0
 120 0080 7047     		bx	lr
 121              		.cfi_endproc
 122              	.LFE432:
 123              		.size	_mmcsd_get_slice, .-_mmcsd_get_slice
 124              		.section	.text._mmcsd_get_capacity,"ax",%progbits
 125              		.align	1
 126              		.global	_mmcsd_get_capacity
 127              		.syntax unified
 128              		.thumb
 129              		.thumb_func
 130              		.type	_mmcsd_get_capacity, %function
 131              	_mmcsd_get_capacity:
 132              	.LFB433:
 133              		.loc 1 93 51
 134              		.cfi_startproc
 135              		@ args = 0, pretend = 0, frame = 24
 136              		@ frame_needed = 1, uses_anonymous_args = 0
 137 0000 80B5     		push	{r7, lr}
 138              		.cfi_def_cfa_offset 8
 139              		.cfi_offset 7, -8
 140              		.cfi_offset 14, -4
 141 0002 86B0     		sub	sp, sp, #24
 142              		.cfi_def_cfa_offset 32
 143 0004 00AF     		add	r7, sp, #0
 144              		.cfi_def_cfa_register 7
 145 0006 7860     		str	r0, [r7, #4]
 146              		.loc 1 98 11
 147 0008 7E22     		movs	r2, #126
 148 000a 7F21     		movs	r1, #127
 149 000c 7868     		ldr	r0, [r7, #4]
 150 000e FFF7FEFF 		bl	_mmcsd_get_slice
 151 0012 0346     		mov	r3, r0
 152              		.loc 1 98 3
 153 0014 002B     		cmp	r3, #0
 154 0016 04D0     		beq	.L5
 155 0018 012B     		cmp	r3, #1
 156 001a 1ED0     		beq	.L6
 157              		.loc 1 110 5
 158 001c 00BF     		nop
 159              		.loc 1 112 10
 160 001e 0023     		movs	r3, #0
 161 0020 23E0     		b	.L8
 162              	.L5:
 163              		.loc 1 101 9
 164 0022 3E22     		movs	r2, #62
 165 0024 4921     		movs	r1, #73
 166 0026 7868     		ldr	r0, [r7, #4]
 167 0028 FFF7FEFF 		bl	_mmcsd_get_slice
 168 002c 7861     		str	r0, [r7, #20]
 169              		.loc 1 102 9
 170 002e 2F22     		movs	r2, #47
 171 0030 3121     		movs	r1, #49
ARM GAS  C:\Users\DEVELO~1\AppData\Local\Temp\ccJ56Rgi.s 			page 4


 172 0032 7868     		ldr	r0, [r7, #4]
 173 0034 FFF7FEFF 		bl	_mmcsd_get_slice
 174 0038 3861     		str	r0, [r7, #16]
 175              		.loc 1 103 9
 176 003a 5022     		movs	r2, #80
 177 003c 5321     		movs	r1, #83
 178 003e 7868     		ldr	r0, [r7, #4]
 179 0040 FFF7FEFF 		bl	_mmcsd_get_slice
 180 0044 F860     		str	r0, [r7, #12]
 181              		.loc 1 104 16
 182 0046 7B69     		ldr	r3, [r7, #20]
 183 0048 5A1C     		adds	r2, r3, #1
 184              		.loc 1 104 28
 185 004a 3B69     		ldr	r3, [r7, #16]
 186 004c 0233     		adds	r3, r3, #2
 187              		.loc 1 104 22
 188 004e 9A40     		lsls	r2, r2, r3
 189              		.loc 1 104 41
 190 0050 FB68     		ldr	r3, [r7, #12]
 191 0052 093B     		subs	r3, r3, #9
 192              		.loc 1 104 35
 193 0054 02FA03F3 		lsl	r3, r2, r3
 194 0058 07E0     		b	.L8
 195              	.L6:
 196              		.loc 1 107 21
 197 005a 3022     		movs	r2, #48
 198 005c 4521     		movs	r1, #69
 199 005e 7868     		ldr	r0, [r7, #4]
 200 0060 FFF7FEFF 		bl	_mmcsd_get_slice
 201 0064 0346     		mov	r3, r0
 202              		.loc 1 107 70
 203 0066 0133     		adds	r3, r3, #1
 204              		.loc 1 107 18
 205 0068 9B02     		lsls	r3, r3, #10
 206              	.L8:
 207              		.loc 1 113 1
 208 006a 1846     		mov	r0, r3
 209 006c 1837     		adds	r7, r7, #24
 210              		.cfi_def_cfa_offset 8
 211 006e BD46     		mov	sp, r7
 212              		.cfi_def_cfa_register 13
 213              		@ sp needed
 214 0070 80BD     		pop	{r7, pc}
 215              		.cfi_endproc
 216              	.LFE433:
 217              		.size	_mmcsd_get_capacity, .-_mmcsd_get_capacity
 218              		.section	.text._mmcsd_get_capacity_ext,"ax",%progbits
 219              		.align	1
 220              		.global	_mmcsd_get_capacity_ext
 221              		.syntax unified
 222              		.thumb
 223              		.thumb_func
 224              		.type	_mmcsd_get_capacity_ext, %function
 225              	_mmcsd_get_capacity_ext:
 226              	.LFB434:
 227              		.loc 1 125 58
 228              		.cfi_startproc
ARM GAS  C:\Users\DEVELO~1\AppData\Local\Temp\ccJ56Rgi.s 			page 5


 229              		@ args = 0, pretend = 0, frame = 8
 230              		@ frame_needed = 1, uses_anonymous_args = 0
 231              		@ link register save eliminated.
 232 0000 80B4     		push	{r7}
 233              		.cfi_def_cfa_offset 4
 234              		.cfi_offset 7, -4
 235 0002 83B0     		sub	sp, sp, #12
 236              		.cfi_def_cfa_offset 16
 237 0004 00AF     		add	r7, sp, #0
 238              		.cfi_def_cfa_register 7
 239 0006 7860     		str	r0, [r7, #4]
 240              		.loc 1 129 28
 241 0008 7B68     		ldr	r3, [r7, #4]
 242 000a D733     		adds	r3, r3, #215
 243 000c 1B78     		ldrb	r3, [r3]	@ zero_extendqisi2
 244              		.loc 1 129 34
 245 000e 1A06     		lsls	r2, r3, #24
 246              		.loc 1 130 28
 247 0010 7B68     		ldr	r3, [r7, #4]
 248 0012 D633     		adds	r3, r3, #214
 249 0014 1B78     		ldrb	r3, [r3]	@ zero_extendqisi2
 250              		.loc 1 130 34
 251 0016 1B04     		lsls	r3, r3, #16
 252              		.loc 1 129 42
 253 0018 1A44     		add	r2, r2, r3
 254              		.loc 1 131 28
 255 001a 7B68     		ldr	r3, [r7, #4]
 256 001c D533     		adds	r3, r3, #213
 257 001e 1B78     		ldrb	r3, [r3]	@ zero_extendqisi2
 258              		.loc 1 131 34
 259 0020 1B02     		lsls	r3, r3, #8
 260              		.loc 1 130 42
 261 0022 1344     		add	r3, r3, r2
 262              		.loc 1 132 27
 263 0024 7A68     		ldr	r2, [r7, #4]
 264 0026 D432     		adds	r2, r2, #212
 265 0028 1278     		ldrb	r2, [r2]	@ zero_extendqisi2
 266              		.loc 1 131 42
 267 002a 1344     		add	r3, r3, r2
 268              		.loc 1 133 1
 269 002c 1846     		mov	r0, r3
 270 002e 0C37     		adds	r7, r7, #12
 271              		.cfi_def_cfa_offset 4
 272 0030 BD46     		mov	sp, r7
 273              		.cfi_def_cfa_register 13
 274              		@ sp needed
 275 0032 80BC     		pop	{r7}
 276              		.cfi_restore 7
 277              		.cfi_def_cfa_offset 0
 278 0034 7047     		bx	lr
 279              		.cfi_endproc
 280              	.LFE434:
 281              		.size	_mmcsd_get_capacity_ext, .-_mmcsd_get_capacity_ext
 282              		.section	.text._mmcsd_unpack_sdc_cid,"ax",%progbits
 283              		.align	1
 284              		.global	_mmcsd_unpack_sdc_cid
 285              		.syntax unified
ARM GAS  C:\Users\DEVELO~1\AppData\Local\Temp\ccJ56Rgi.s 			page 6


 286              		.thumb
 287              		.thumb_func
 288              		.type	_mmcsd_unpack_sdc_cid, %function
 289              	_mmcsd_unpack_sdc_cid:
 290              	.LFB435:
 291              		.loc 1 144 56
 292              		.cfi_startproc
 293              		@ args = 0, pretend = 0, frame = 16
 294              		@ frame_needed = 1, uses_anonymous_args = 0
 295 0000 80B5     		push	{r7, lr}
 296              		.cfi_def_cfa_offset 8
 297              		.cfi_offset 7, -8
 298              		.cfi_offset 14, -4
 299 0002 84B0     		sub	sp, sp, #16
 300              		.cfi_def_cfa_offset 24
 301 0004 00AF     		add	r7, sp, #0
 302              		.cfi_def_cfa_register 7
 303 0006 7860     		str	r0, [r7, #4]
 304 0008 3960     		str	r1, [r7]
 305              		.loc 1 149 7
 306 000a 7B68     		ldr	r3, [r7, #4]
 307 000c 0833     		adds	r3, r3, #8
 308 000e FB60     		str	r3, [r7, #12]
 309              		.loc 1 150 30
 310 0010 0122     		movs	r2, #1
 311 0012 0721     		movs	r1, #7
 312 0014 F868     		ldr	r0, [r7, #12]
 313 0016 FFF7FEFF 		bl	_mmcsd_get_slice
 314 001a 0346     		mov	r3, r0
 315              		.loc 1 150 20
 316 001c DAB2     		uxtb	r2, r3
 317              		.loc 1 150 18
 318 001e 3B68     		ldr	r3, [r7]
 319 0020 1A75     		strb	r2, [r3, #20]
 320              		.loc 1 151 30
 321 0022 0C22     		movs	r2, #12
 322 0024 1321     		movs	r1, #19
 323 0026 F868     		ldr	r0, [r7, #12]
 324 0028 FFF7FEFF 		bl	_mmcsd_get_slice
 325 002c 0346     		mov	r3, r0
 326              		.loc 1 151 20
 327 002e 9BB2     		uxth	r3, r3
 328              		.loc 1 151 79
 329 0030 03F5FA63 		add	r3, r3, #2000
 330 0034 9AB2     		uxth	r2, r3
 331              		.loc 1 151 18
 332 0036 3B68     		ldr	r3, [r7]
 333 0038 5A82     		strh	r2, [r3, #18]	@ movhi
 334              		.loc 1 153 30
 335 003a 0822     		movs	r2, #8
 336 003c 0B21     		movs	r1, #11
 337 003e F868     		ldr	r0, [r7, #12]
 338 0040 FFF7FEFF 		bl	_mmcsd_get_slice
 339 0044 0346     		mov	r3, r0
 340              		.loc 1 153 20
 341 0046 DAB2     		uxtb	r2, r3
 342              		.loc 1 153 18
ARM GAS  C:\Users\DEVELO~1\AppData\Local\Temp\ccJ56Rgi.s 			page 7


 343 0048 3B68     		ldr	r3, [r7]
 344 004a 1A74     		strb	r2, [r3, #16]
 345              		.loc 1 154 30
 346 004c 7822     		movs	r2, #120
 347 004e 7F21     		movs	r1, #127
 348 0050 F868     		ldr	r0, [r7, #12]
 349 0052 FFF7FEFF 		bl	_mmcsd_get_slice
 350 0056 0346     		mov	r3, r0
 351              		.loc 1 154 20
 352 0058 DAB2     		uxtb	r2, r3
 353              		.loc 1 154 18
 354 005a 3B68     		ldr	r3, [r7]
 355 005c 1A70     		strb	r2, [r3]
 356              		.loc 1 155 30
 357 005e 6822     		movs	r2, #104
 358 0060 7721     		movs	r1, #119
 359 0062 F868     		ldr	r0, [r7, #12]
 360 0064 FFF7FEFF 		bl	_mmcsd_get_slice
 361 0068 0346     		mov	r3, r0
 362              		.loc 1 155 20
 363 006a 9AB2     		uxth	r2, r3
 364              		.loc 1 155 18
 365 006c 3B68     		ldr	r3, [r7]
 366 006e 5A80     		strh	r2, [r3, #2]	@ movhi
 367              		.loc 1 156 30
 368 0070 4022     		movs	r2, #64
 369 0072 4721     		movs	r1, #71
 370 0074 F868     		ldr	r0, [r7, #12]
 371 0076 FFF7FEFF 		bl	_mmcsd_get_slice
 372 007a 0346     		mov	r3, r0
 373              		.loc 1 156 20
 374 007c DAB2     		uxtb	r2, r3
 375              		.loc 1 156 18
 376 007e 3B68     		ldr	r3, [r7]
 377 0080 1A72     		strb	r2, [r3, #8]
 378              		.loc 1 157 30
 379 0082 4822     		movs	r2, #72
 380 0084 4F21     		movs	r1, #79
 381 0086 F868     		ldr	r0, [r7, #12]
 382 0088 FFF7FEFF 		bl	_mmcsd_get_slice
 383 008c 0346     		mov	r3, r0
 384              		.loc 1 157 20
 385 008e DAB2     		uxtb	r2, r3
 386              		.loc 1 157 18
 387 0090 3B68     		ldr	r3, [r7]
 388 0092 DA71     		strb	r2, [r3, #7]
 389              		.loc 1 158 30
 390 0094 5022     		movs	r2, #80
 391 0096 5721     		movs	r1, #87
 392 0098 F868     		ldr	r0, [r7, #12]
 393 009a FFF7FEFF 		bl	_mmcsd_get_slice
 394 009e 0346     		mov	r3, r0
 395              		.loc 1 158 20
 396 00a0 DAB2     		uxtb	r2, r3
 397              		.loc 1 158 18
 398 00a2 3B68     		ldr	r3, [r7]
 399 00a4 9A71     		strb	r2, [r3, #6]
ARM GAS  C:\Users\DEVELO~1\AppData\Local\Temp\ccJ56Rgi.s 			page 8


 400              		.loc 1 159 30
 401 00a6 5822     		movs	r2, #88
 402 00a8 5F21     		movs	r1, #95
 403 00aa F868     		ldr	r0, [r7, #12]
 404 00ac FFF7FEFF 		bl	_mmcsd_get_slice
 405 00b0 0346     		mov	r3, r0
 406              		.loc 1 159 20
 407 00b2 DAB2     		uxtb	r2, r3
 408              		.loc 1 159 18
 409 00b4 3B68     		ldr	r3, [r7]
 410 00b6 5A71     		strb	r2, [r3, #5]
 411              		.loc 1 160 30
 412 00b8 6022     		movs	r2, #96
 413 00ba 6721     		movs	r1, #103
 414 00bc F868     		ldr	r0, [r7, #12]
 415 00be FFF7FEFF 		bl	_mmcsd_get_slice
 416 00c2 0346     		mov	r3, r0
 417              		.loc 1 160 20
 418 00c4 DAB2     		uxtb	r2, r3
 419              		.loc 1 160 18
 420 00c6 3B68     		ldr	r3, [r7]
 421 00c8 1A71     		strb	r2, [r3, #4]
 422              		.loc 1 161 30
 423 00ca 3C22     		movs	r2, #60
 424 00cc 3F21     		movs	r1, #63
 425 00ce F868     		ldr	r0, [r7, #12]
 426 00d0 FFF7FEFF 		bl	_mmcsd_get_slice
 427 00d4 0346     		mov	r3, r0
 428              		.loc 1 161 20
 429 00d6 DAB2     		uxtb	r2, r3
 430              		.loc 1 161 18
 431 00d8 3B68     		ldr	r3, [r7]
 432 00da 5A72     		strb	r2, [r3, #9]
 433              		.loc 1 162 30
 434 00dc 3822     		movs	r2, #56
 435 00de 3B21     		movs	r1, #59
 436 00e0 F868     		ldr	r0, [r7, #12]
 437 00e2 FFF7FEFF 		bl	_mmcsd_get_slice
 438 00e6 0346     		mov	r3, r0
 439              		.loc 1 162 20
 440 00e8 DAB2     		uxtb	r2, r3
 441              		.loc 1 162 18
 442 00ea 3B68     		ldr	r3, [r7]
 443 00ec 9A72     		strb	r2, [r3, #10]
 444              		.loc 1 163 30
 445 00ee 1822     		movs	r2, #24
 446 00f0 3721     		movs	r1, #55
 447 00f2 F868     		ldr	r0, [r7, #12]
 448 00f4 FFF7FEFF 		bl	_mmcsd_get_slice
 449 00f8 0246     		mov	r2, r0
 450              		.loc 1 163 18
 451 00fa 3B68     		ldr	r3, [r7]
 452 00fc DA60     		str	r2, [r3, #12]
 453              		.loc 1 164 1
 454 00fe 00BF     		nop
 455 0100 1037     		adds	r7, r7, #16
 456              		.cfi_def_cfa_offset 8
ARM GAS  C:\Users\DEVELO~1\AppData\Local\Temp\ccJ56Rgi.s 			page 9


 457 0102 BD46     		mov	sp, r7
 458              		.cfi_def_cfa_register 13
 459              		@ sp needed
 460 0104 80BD     		pop	{r7, pc}
 461              		.cfi_endproc
 462              	.LFE435:
 463              		.size	_mmcsd_unpack_sdc_cid, .-_mmcsd_unpack_sdc_cid
 464              		.section	.text._mmcsd_unpack_mmc_cid,"ax",%progbits
 465              		.align	1
 466              		.global	_mmcsd_unpack_mmc_cid
 467              		.syntax unified
 468              		.thumb
 469              		.thumb_func
 470              		.type	_mmcsd_unpack_mmc_cid, %function
 471              	_mmcsd_unpack_mmc_cid:
 472              	.LFB436:
 473              		.loc 1 175 56
 474              		.cfi_startproc
 475              		@ args = 0, pretend = 0, frame = 16
 476              		@ frame_needed = 1, uses_anonymous_args = 0
 477 0000 80B5     		push	{r7, lr}
 478              		.cfi_def_cfa_offset 8
 479              		.cfi_offset 7, -8
 480              		.cfi_offset 14, -4
 481 0002 84B0     		sub	sp, sp, #16
 482              		.cfi_def_cfa_offset 24
 483 0004 00AF     		add	r7, sp, #0
 484              		.cfi_def_cfa_register 7
 485 0006 7860     		str	r0, [r7, #4]
 486 0008 3960     		str	r1, [r7]
 487              		.loc 1 180 7
 488 000a 7B68     		ldr	r3, [r7, #4]
 489 000c 0833     		adds	r3, r3, #8
 490 000e FB60     		str	r3, [r7, #12]
 491              		.loc 1 181 30
 492 0010 0122     		movs	r2, #1
 493 0012 0721     		movs	r1, #7
 494 0014 F868     		ldr	r0, [r7, #12]
 495 0016 FFF7FEFF 		bl	_mmcsd_get_slice
 496 001a 0346     		mov	r3, r0
 497              		.loc 1 181 20
 498 001c DAB2     		uxtb	r2, r3
 499              		.loc 1 181 18
 500 001e 3B68     		ldr	r3, [r7]
 501 0020 1A75     		strb	r2, [r3, #20]
 502              		.loc 1 182 30
 503 0022 0822     		movs	r2, #8
 504 0024 0B21     		movs	r1, #11
 505 0026 F868     		ldr	r0, [r7, #12]
 506 0028 FFF7FEFF 		bl	_mmcsd_get_slice
 507 002c 0346     		mov	r3, r0
 508              		.loc 1 182 20
 509 002e 9BB2     		uxth	r3, r3
 510              		.loc 1 182 79
 511 0030 03F2CD73 		addw	r3, r3, #1997
 512 0034 9AB2     		uxth	r2, r3
 513              		.loc 1 182 18
ARM GAS  C:\Users\DEVELO~1\AppData\Local\Temp\ccJ56Rgi.s 			page 10


 514 0036 3B68     		ldr	r3, [r7]
 515 0038 5A82     		strh	r2, [r3, #18]	@ movhi
 516              		.loc 1 184 30
 517 003a 0C22     		movs	r2, #12
 518 003c 0F21     		movs	r1, #15
 519 003e F868     		ldr	r0, [r7, #12]
 520 0040 FFF7FEFF 		bl	_mmcsd_get_slice
 521 0044 0346     		mov	r3, r0
 522              		.loc 1 184 20
 523 0046 DAB2     		uxtb	r2, r3
 524              		.loc 1 184 18
 525 0048 3B68     		ldr	r3, [r7]
 526 004a 1A74     		strb	r2, [r3, #16]
 527              		.loc 1 185 30
 528 004c 7822     		movs	r2, #120
 529 004e 7F21     		movs	r1, #127
 530 0050 F868     		ldr	r0, [r7, #12]
 531 0052 FFF7FEFF 		bl	_mmcsd_get_slice
 532 0056 0346     		mov	r3, r0
 533              		.loc 1 185 20
 534 0058 DAB2     		uxtb	r2, r3
 535              		.loc 1 185 18
 536 005a 3B68     		ldr	r3, [r7]
 537 005c 1A70     		strb	r2, [r3]
 538              		.loc 1 186 30
 539 005e 6822     		movs	r2, #104
 540 0060 7721     		movs	r1, #119
 541 0062 F868     		ldr	r0, [r7, #12]
 542 0064 FFF7FEFF 		bl	_mmcsd_get_slice
 543 0068 0346     		mov	r3, r0
 544              		.loc 1 186 20
 545 006a 9AB2     		uxth	r2, r3
 546              		.loc 1 186 18
 547 006c 3B68     		ldr	r3, [r7]
 548 006e 5A80     		strh	r2, [r3, #2]	@ movhi
 549              		.loc 1 187 30
 550 0070 3822     		movs	r2, #56
 551 0072 3F21     		movs	r1, #63
 552 0074 F868     		ldr	r0, [r7, #12]
 553 0076 FFF7FEFF 		bl	_mmcsd_get_slice
 554 007a 0346     		mov	r3, r0
 555              		.loc 1 187 20
 556 007c DAB2     		uxtb	r2, r3
 557              		.loc 1 187 18
 558 007e 3B68     		ldr	r3, [r7]
 559 0080 5A72     		strb	r2, [r3, #9]
 560              		.loc 1 188 30
 561 0082 4022     		movs	r2, #64
 562 0084 4721     		movs	r1, #71
 563 0086 F868     		ldr	r0, [r7, #12]
 564 0088 FFF7FEFF 		bl	_mmcsd_get_slice
 565 008c 0346     		mov	r3, r0
 566              		.loc 1 188 20
 567 008e DAB2     		uxtb	r2, r3
 568              		.loc 1 188 18
 569 0090 3B68     		ldr	r3, [r7]
 570 0092 1A72     		strb	r2, [r3, #8]
ARM GAS  C:\Users\DEVELO~1\AppData\Local\Temp\ccJ56Rgi.s 			page 11


 571              		.loc 1 189 30
 572 0094 4822     		movs	r2, #72
 573 0096 4F21     		movs	r1, #79
 574 0098 F868     		ldr	r0, [r7, #12]
 575 009a FFF7FEFF 		bl	_mmcsd_get_slice
 576 009e 0346     		mov	r3, r0
 577              		.loc 1 189 20
 578 00a0 DAB2     		uxtb	r2, r3
 579              		.loc 1 189 18
 580 00a2 3B68     		ldr	r3, [r7]
 581 00a4 DA71     		strb	r2, [r3, #7]
 582              		.loc 1 190 30
 583 00a6 5022     		movs	r2, #80
 584 00a8 5721     		movs	r1, #87
 585 00aa F868     		ldr	r0, [r7, #12]
 586 00ac FFF7FEFF 		bl	_mmcsd_get_slice
 587 00b0 0346     		mov	r3, r0
 588              		.loc 1 190 20
 589 00b2 DAB2     		uxtb	r2, r3
 590              		.loc 1 190 18
 591 00b4 3B68     		ldr	r3, [r7]
 592 00b6 9A71     		strb	r2, [r3, #6]
 593              		.loc 1 191 30
 594 00b8 5822     		movs	r2, #88
 595 00ba 5F21     		movs	r1, #95
 596 00bc F868     		ldr	r0, [r7, #12]
 597 00be FFF7FEFF 		bl	_mmcsd_get_slice
 598 00c2 0346     		mov	r3, r0
 599              		.loc 1 191 20
 600 00c4 DAB2     		uxtb	r2, r3
 601              		.loc 1 191 18
 602 00c6 3B68     		ldr	r3, [r7]
 603 00c8 5A71     		strb	r2, [r3, #5]
 604              		.loc 1 192 30
 605 00ca 6022     		movs	r2, #96
 606 00cc 6721     		movs	r1, #103
 607 00ce F868     		ldr	r0, [r7, #12]
 608 00d0 FFF7FEFF 		bl	_mmcsd_get_slice
 609 00d4 0346     		mov	r3, r0
 610              		.loc 1 192 20
 611 00d6 DAB2     		uxtb	r2, r3
 612              		.loc 1 192 18
 613 00d8 3B68     		ldr	r3, [r7]
 614 00da 1A71     		strb	r2, [r3, #4]
 615              		.loc 1 193 30
 616 00dc 3422     		movs	r2, #52
 617 00de 3721     		movs	r1, #55
 618 00e0 F868     		ldr	r0, [r7, #12]
 619 00e2 FFF7FEFF 		bl	_mmcsd_get_slice
 620 00e6 0346     		mov	r3, r0
 621              		.loc 1 193 20
 622 00e8 DAB2     		uxtb	r2, r3
 623              		.loc 1 193 18
 624 00ea 3B68     		ldr	r3, [r7]
 625 00ec 9A72     		strb	r2, [r3, #10]
 626              		.loc 1 194 30
 627 00ee 3022     		movs	r2, #48
ARM GAS  C:\Users\DEVELO~1\AppData\Local\Temp\ccJ56Rgi.s 			page 12


 628 00f0 3321     		movs	r1, #51
 629 00f2 F868     		ldr	r0, [r7, #12]
 630 00f4 FFF7FEFF 		bl	_mmcsd_get_slice
 631 00f8 0346     		mov	r3, r0
 632              		.loc 1 194 20
 633 00fa DAB2     		uxtb	r2, r3
 634              		.loc 1 194 18
 635 00fc 3B68     		ldr	r3, [r7]
 636 00fe DA72     		strb	r2, [r3, #11]
 637              		.loc 1 195 30
 638 0100 1022     		movs	r2, #16
 639 0102 2F21     		movs	r1, #47
 640 0104 F868     		ldr	r0, [r7, #12]
 641 0106 FFF7FEFF 		bl	_mmcsd_get_slice
 642 010a 0246     		mov	r2, r0
 643              		.loc 1 195 18
 644 010c 3B68     		ldr	r3, [r7]
 645 010e DA60     		str	r2, [r3, #12]
 646              		.loc 1 196 1
 647 0110 00BF     		nop
 648 0112 1037     		adds	r7, r7, #16
 649              		.cfi_def_cfa_offset 8
 650 0114 BD46     		mov	sp, r7
 651              		.cfi_def_cfa_register 13
 652              		@ sp needed
 653 0116 80BD     		pop	{r7, pc}
 654              		.cfi_endproc
 655              	.LFE436:
 656              		.size	_mmcsd_unpack_mmc_cid, .-_mmcsd_unpack_mmc_cid
 657              		.section	.text._mmcsd_unpack_csd_mmc,"ax",%progbits
 658              		.align	1
 659              		.global	_mmcsd_unpack_csd_mmc
 660              		.syntax unified
 661              		.thumb
 662              		.thumb_func
 663              		.type	_mmcsd_unpack_csd_mmc, %function
 664              	_mmcsd_unpack_csd_mmc:
 665              	.LFB437:
 666              		.loc 1 207 56
 667              		.cfi_startproc
 668              		@ args = 0, pretend = 0, frame = 16
 669              		@ frame_needed = 1, uses_anonymous_args = 0
 670 0000 80B5     		push	{r7, lr}
 671              		.cfi_def_cfa_offset 8
 672              		.cfi_offset 7, -8
 673              		.cfi_offset 14, -4
 674 0002 84B0     		sub	sp, sp, #16
 675              		.cfi_def_cfa_offset 24
 676 0004 00AF     		add	r7, sp, #0
 677              		.cfi_def_cfa_register 7
 678 0006 7860     		str	r0, [r7, #4]
 679 0008 3960     		str	r1, [r7]
 680              		.loc 1 212 7
 681 000a 7B68     		ldr	r3, [r7, #4]
 682 000c 1833     		adds	r3, r3, #24
 683 000e FB60     		str	r3, [r7, #12]
 684              		.loc 1 213 42
ARM GAS  C:\Users\DEVELO~1\AppData\Local\Temp\ccJ56Rgi.s 			page 13


 685 0010 3E22     		movs	r2, #62
 686 0012 4921     		movs	r1, #73
 687 0014 F868     		ldr	r0, [r7, #12]
 688 0016 FFF7FEFF 		bl	_mmcsd_get_slice
 689 001a 0346     		mov	r3, r0
 690              		.loc 1 213 32
 691 001c 9AB2     		uxth	r2, r3
 692              		.loc 1 213 30
 693 001e 3B68     		ldr	r3, [r7]
 694 0020 DA81     		strh	r2, [r3, #14]	@ movhi
 695              		.loc 1 214 42
 696 0022 2F22     		movs	r2, #47
 697 0024 3121     		movs	r1, #49
 698 0026 F868     		ldr	r0, [r7, #12]
 699 0028 FFF7FEFF 		bl	_mmcsd_get_slice
 700 002c 0346     		mov	r3, r0
 701              		.loc 1 214 32
 702 002e DAB2     		uxtb	r2, r3
 703              		.loc 1 214 30
 704 0030 3B68     		ldr	r3, [r7]
 705 0032 1A75     		strb	r2, [r3, #20]
 706              		.loc 1 215 42
 707 0034 5422     		movs	r2, #84
 708 0036 5F21     		movs	r1, #95
 709 0038 F868     		ldr	r0, [r7, #12]
 710 003a FFF7FEFF 		bl	_mmcsd_get_slice
 711 003e 0346     		mov	r3, r0
 712              		.loc 1 215 32
 713 0040 9AB2     		uxth	r2, r3
 714              		.loc 1 215 30
 715 0042 3B68     		ldr	r3, [r7]
 716 0044 DA80     		strh	r2, [r3, #6]	@ movhi
 717              		.loc 1 216 42
 718 0046 0E22     		movs	r2, #14
 719 0048 0E21     		movs	r1, #14
 720 004a F868     		ldr	r0, [r7, #12]
 721 004c FFF7FEFF 		bl	_mmcsd_get_slice
 722 0050 0346     		mov	r3, r0
 723              		.loc 1 216 32
 724 0052 DAB2     		uxtb	r2, r3
 725              		.loc 1 216 30
 726 0054 3B68     		ldr	r3, [r7]
 727 0056 DA77     		strb	r2, [r3, #31]
 728              		.loc 1 217 42
 729 0058 0122     		movs	r2, #1
 730 005a 0721     		movs	r1, #7
 731 005c F868     		ldr	r0, [r7, #12]
 732 005e FFF7FEFF 		bl	_mmcsd_get_slice
 733 0062 0346     		mov	r3, r0
 734              		.loc 1 217 32
 735 0064 DAB2     		uxtb	r2, r3
 736              		.loc 1 217 30
 737 0066 3B68     		ldr	r3, [r7]
 738 0068 83F82420 		strb	r2, [r3, #36]
 739              		.loc 1 218 42
 740 006c 7E22     		movs	r2, #126
 741 006e 7F21     		movs	r1, #127
ARM GAS  C:\Users\DEVELO~1\AppData\Local\Temp\ccJ56Rgi.s 			page 14


 742 0070 F868     		ldr	r0, [r7, #12]
 743 0072 FFF7FEFF 		bl	_mmcsd_get_slice
 744 0076 0346     		mov	r3, r0
 745              		.loc 1 218 32
 746 0078 DAB2     		uxtb	r2, r3
 747              		.loc 1 218 30
 748 007a 3B68     		ldr	r3, [r7]
 749 007c 1A70     		strb	r2, [r3]
 750              		.loc 1 219 42
 751 007e 4C22     		movs	r2, #76
 752 0080 4C21     		movs	r1, #76
 753 0082 F868     		ldr	r0, [r7, #12]
 754 0084 FFF7FEFF 		bl	_mmcsd_get_slice
 755 0088 0346     		mov	r3, r0
 756              		.loc 1 219 32
 757 008a DAB2     		uxtb	r2, r3
 758              		.loc 1 219 30
 759 008c 3B68     		ldr	r3, [r7]
 760 008e 1A73     		strb	r2, [r3, #12]
 761              		.loc 1 220 42
 762 0090 0822     		movs	r2, #8
 763 0092 0921     		movs	r1, #9
 764 0094 F868     		ldr	r0, [r7, #12]
 765 0096 FFF7FEFF 		bl	_mmcsd_get_slice
 766 009a 0346     		mov	r3, r0
 767              		.loc 1 220 32
 768 009c DAB2     		uxtb	r2, r3
 769              		.loc 1 220 30
 770 009e 3B68     		ldr	r3, [r7]
 771 00a0 83F82320 		strb	r2, [r3, #35]
 772              		.loc 1 221 42
 773 00a4 2522     		movs	r2, #37
 774 00a6 2921     		movs	r1, #41
 775 00a8 F868     		ldr	r0, [r7, #12]
 776 00aa FFF7FEFF 		bl	_mmcsd_get_slice
 777 00ae 0346     		mov	r3, r0
 778              		.loc 1 221 32
 779 00b0 DAB2     		uxtb	r2, r3
 780              		.loc 1 221 30
 781 00b2 3B68     		ldr	r3, [r7]
 782 00b4 9A75     		strb	r2, [r3, #22]
 783              		.loc 1 222 42
 784 00b6 2A22     		movs	r2, #42
 785 00b8 2E21     		movs	r1, #46
 786 00ba F868     		ldr	r0, [r7, #12]
 787 00bc FFF7FEFF 		bl	_mmcsd_get_slice
 788 00c0 0346     		mov	r3, r0
 789              		.loc 1 222 32
 790 00c2 DAB2     		uxtb	r2, r3
 791              		.loc 1 222 30
 792 00c4 3B68     		ldr	r3, [r7]
 793 00c6 5A75     		strb	r2, [r3, #21]
 794              		.loc 1 223 42
 795 00c8 0A22     		movs	r2, #10
 796 00ca 0B21     		movs	r1, #11
 797 00cc F868     		ldr	r0, [r7, #12]
 798 00ce FFF7FEFF 		bl	_mmcsd_get_slice
ARM GAS  C:\Users\DEVELO~1\AppData\Local\Temp\ccJ56Rgi.s 			page 15


 799 00d2 0346     		mov	r3, r0
 800              		.loc 1 223 32
 801 00d4 DAB2     		uxtb	r2, r3
 802              		.loc 1 223 30
 803 00d6 3B68     		ldr	r3, [r7]
 804 00d8 83F82220 		strb	r2, [r3, #34]
 805              		.loc 1 224 42
 806 00dc 0F22     		movs	r2, #15
 807 00de 0F21     		movs	r1, #15
 808 00e0 F868     		ldr	r0, [r7, #12]
 809 00e2 FFF7FEFF 		bl	_mmcsd_get_slice
 810 00e6 0346     		mov	r3, r0
 811              		.loc 1 224 32
 812 00e8 DAB2     		uxtb	r2, r3
 813              		.loc 1 224 30
 814 00ea 3B68     		ldr	r3, [r7]
 815 00ec 9A77     		strb	r2, [r3, #30]
 816              		.loc 1 225 42
 817 00ee 6822     		movs	r2, #104
 818 00f0 6F21     		movs	r1, #111
 819 00f2 F868     		ldr	r0, [r7, #12]
 820 00f4 FFF7FEFF 		bl	_mmcsd_get_slice
 821 00f8 0346     		mov	r3, r0
 822              		.loc 1 225 32
 823 00fa DAB2     		uxtb	r2, r3
 824              		.loc 1 225 30
 825 00fc 3B68     		ldr	r3, [r7]
 826 00fe DA70     		strb	r2, [r3, #3]
 827              		.loc 1 226 42
 828 0100 0D22     		movs	r2, #13
 829 0102 0D21     		movs	r1, #13
 830 0104 F868     		ldr	r0, [r7, #12]
 831 0106 FFF7FEFF 		bl	_mmcsd_get_slice
 832 010a 0346     		mov	r3, r0
 833              		.loc 1 226 32
 834 010c DAB2     		uxtb	r2, r3
 835              		.loc 1 226 30
 836 010e 3B68     		ldr	r3, [r7]
 837 0110 83F82020 		strb	r2, [r3, #32]
 838              		.loc 1 227 42
 839 0114 1A22     		movs	r2, #26
 840 0116 1C21     		movs	r1, #28
 841 0118 F868     		ldr	r0, [r7, #12]
 842 011a FFF7FEFF 		bl	_mmcsd_get_slice
 843 011e 0346     		mov	r3, r0
 844              		.loc 1 227 32
 845 0120 DAB2     		uxtb	r2, r3
 846              		.loc 1 227 30
 847 0122 3B68     		ldr	r3, [r7]
 848 0124 9A76     		strb	r2, [r3, #26]
 849              		.loc 1 228 42
 850 0126 5022     		movs	r2, #80
 851 0128 5321     		movs	r1, #83
 852 012a F868     		ldr	r0, [r7, #12]
 853 012c FFF7FEFF 		bl	_mmcsd_get_slice
 854 0130 0346     		mov	r3, r0
 855              		.loc 1 228 32
ARM GAS  C:\Users\DEVELO~1\AppData\Local\Temp\ccJ56Rgi.s 			page 16


 856 0132 DAB2     		uxtb	r2, r3
 857              		.loc 1 228 30
 858 0134 3B68     		ldr	r3, [r7]
 859 0136 1A72     		strb	r2, [r3, #8]
 860              		.loc 1 229 42
 861 0138 4F22     		movs	r2, #79
 862 013a 4F21     		movs	r1, #79
 863 013c F868     		ldr	r0, [r7, #12]
 864 013e FFF7FEFF 		bl	_mmcsd_get_slice
 865 0142 0346     		mov	r3, r0
 866              		.loc 1 229 32
 867 0144 DAB2     		uxtb	r2, r3
 868              		.loc 1 229 30
 869 0146 3B68     		ldr	r3, [r7]
 870 0148 5A72     		strb	r2, [r3, #9]
 871              		.loc 1 230 42
 872 014a 4D22     		movs	r2, #77
 873 014c 4D21     		movs	r1, #77
 874 014e F868     		ldr	r0, [r7, #12]
 875 0150 FFF7FEFF 		bl	_mmcsd_get_slice
 876 0154 0346     		mov	r3, r0
 877              		.loc 1 230 32
 878 0156 DAB2     		uxtb	r2, r3
 879              		.loc 1 230 30
 880 0158 3B68     		ldr	r3, [r7]
 881 015a DA72     		strb	r2, [r3, #11]
 882              		.loc 1 231 42
 883 015c 7A22     		movs	r2, #122
 884 015e 7D21     		movs	r1, #125
 885 0160 F868     		ldr	r0, [r7, #12]
 886 0162 FFF7FEFF 		bl	_mmcsd_get_slice
 887 0166 0346     		mov	r3, r0
 888              		.loc 1 231 32
 889 0168 DAB2     		uxtb	r2, r3
 890              		.loc 1 231 30
 891 016a 3B68     		ldr	r3, [r7]
 892 016c 5A70     		strb	r2, [r3, #1]
 893              		.loc 1 232 42
 894 016e 7022     		movs	r2, #112
 895 0170 7721     		movs	r1, #119
 896 0172 F868     		ldr	r0, [r7, #12]
 897 0174 FFF7FEFF 		bl	_mmcsd_get_slice
 898 0178 0346     		mov	r3, r0
 899              		.loc 1 232 32
 900 017a DAB2     		uxtb	r2, r3
 901              		.loc 1 232 30
 902 017c 3B68     		ldr	r3, [r7]
 903 017e 9A70     		strb	r2, [r3, #2]
 904              		.loc 1 233 42
 905 0180 0C22     		movs	r2, #12
 906 0182 0C21     		movs	r1, #12
 907 0184 F868     		ldr	r0, [r7, #12]
 908 0186 FFF7FEFF 		bl	_mmcsd_get_slice
 909 018a 0346     		mov	r3, r0
 910              		.loc 1 233 32
 911 018c DAB2     		uxtb	r2, r3
 912              		.loc 1 233 30
ARM GAS  C:\Users\DEVELO~1\AppData\Local\Temp\ccJ56Rgi.s 			page 17


 913 018e 3B68     		ldr	r3, [r7]
 914 0190 83F82120 		strb	r2, [r3, #33]
 915              		.loc 1 234 42
 916 0194 6022     		movs	r2, #96
 917 0196 6721     		movs	r1, #103
 918 0198 F868     		ldr	r0, [r7, #12]
 919 019a FFF7FEFF 		bl	_mmcsd_get_slice
 920 019e 0346     		mov	r3, r0
 921              		.loc 1 234 32
 922 01a0 DAB2     		uxtb	r2, r3
 923              		.loc 1 234 30
 924 01a2 3B68     		ldr	r3, [r7]
 925 01a4 1A71     		strb	r2, [r3, #4]
 926              		.loc 1 235 42
 927 01a6 3822     		movs	r2, #56
 928 01a8 3A21     		movs	r1, #58
 929 01aa F868     		ldr	r0, [r7, #12]
 930 01ac FFF7FEFF 		bl	_mmcsd_get_slice
 931 01b0 0346     		mov	r3, r0
 932              		.loc 1 235 32
 933 01b2 DAB2     		uxtb	r2, r3
 934              		.loc 1 235 30
 935 01b4 3B68     		ldr	r3, [r7]
 936 01b6 5A74     		strb	r2, [r3, #17]
 937              		.loc 1 236 42
 938 01b8 3B22     		movs	r2, #59
 939 01ba 3D21     		movs	r1, #61
 940 01bc F868     		ldr	r0, [r7, #12]
 941 01be FFF7FEFF 		bl	_mmcsd_get_slice
 942 01c2 0346     		mov	r3, r0
 943              		.loc 1 236 32
 944 01c4 DAB2     		uxtb	r2, r3
 945              		.loc 1 236 30
 946 01c6 3B68     		ldr	r3, [r7]
 947 01c8 1A74     		strb	r2, [r3, #16]
 948              		.loc 1 237 42
 949 01ca 3222     		movs	r2, #50
 950 01cc 3421     		movs	r1, #52
 951 01ce F868     		ldr	r0, [r7, #12]
 952 01d0 FFF7FEFF 		bl	_mmcsd_get_slice
 953 01d4 0346     		mov	r3, r0
 954              		.loc 1 237 32
 955 01d6 DAB2     		uxtb	r2, r3
 956              		.loc 1 237 30
 957 01d8 3B68     		ldr	r3, [r7]
 958 01da DA74     		strb	r2, [r3, #19]
 959              		.loc 1 238 42
 960 01dc 3522     		movs	r2, #53
 961 01de 3721     		movs	r1, #55
 962 01e0 F868     		ldr	r0, [r7, #12]
 963 01e2 FFF7FEFF 		bl	_mmcsd_get_slice
 964 01e6 0346     		mov	r3, r0
 965              		.loc 1 238 32
 966 01e8 DAB2     		uxtb	r2, r3
 967              		.loc 1 238 30
 968 01ea 3B68     		ldr	r3, [r7]
 969 01ec 9A74     		strb	r2, [r3, #18]
ARM GAS  C:\Users\DEVELO~1\AppData\Local\Temp\ccJ56Rgi.s 			page 18


 970              		.loc 1 239 42
 971 01ee 1F22     		movs	r2, #31
 972 01f0 1F21     		movs	r1, #31
 973 01f2 F868     		ldr	r0, [r7, #12]
 974 01f4 FFF7FEFF 		bl	_mmcsd_get_slice
 975 01f8 0346     		mov	r3, r0
 976              		.loc 1 239 32
 977 01fa DAB2     		uxtb	r2, r3
 978              		.loc 1 239 30
 979 01fc 3B68     		ldr	r3, [r7]
 980 01fe 1A76     		strb	r2, [r3, #24]
 981              		.loc 1 240 42
 982 0200 2022     		movs	r2, #32
 983 0202 2421     		movs	r1, #36
 984 0204 F868     		ldr	r0, [r7, #12]
 985 0206 FFF7FEFF 		bl	_mmcsd_get_slice
 986 020a 0346     		mov	r3, r0
 987              		.loc 1 240 32
 988 020c DAB2     		uxtb	r2, r3
 989              		.loc 1 240 30
 990 020e 3B68     		ldr	r3, [r7]
 991 0210 DA75     		strb	r2, [r3, #23]
 992              		.loc 1 241 42
 993 0212 1622     		movs	r2, #22
 994 0214 1921     		movs	r1, #25
 995 0216 F868     		ldr	r0, [r7, #12]
 996 0218 FFF7FEFF 		bl	_mmcsd_get_slice
 997 021c 0346     		mov	r3, r0
 998              		.loc 1 241 32
 999 021e DAB2     		uxtb	r2, r3
 1000              		.loc 1 241 30
 1001 0220 3B68     		ldr	r3, [r7]
 1002 0222 DA76     		strb	r2, [r3, #27]
 1003              		.loc 1 242 42
 1004 0224 1522     		movs	r2, #21
 1005 0226 1521     		movs	r1, #21
 1006 0228 F868     		ldr	r0, [r7, #12]
 1007 022a FFF7FEFF 		bl	_mmcsd_get_slice
 1008 022e 0346     		mov	r3, r0
 1009              		.loc 1 242 32
 1010 0230 DAB2     		uxtb	r2, r3
 1011              		.loc 1 242 30
 1012 0232 3B68     		ldr	r3, [r7]
 1013 0234 1A77     		strb	r2, [r3, #28]
 1014              		.loc 1 243 42
 1015 0236 4E22     		movs	r2, #78
 1016 0238 4E21     		movs	r1, #78
 1017 023a F868     		ldr	r0, [r7, #12]
 1018 023c FFF7FEFF 		bl	_mmcsd_get_slice
 1019 0240 0346     		mov	r3, r0
 1020              		.loc 1 243 32
 1021 0242 DAB2     		uxtb	r2, r3
 1022              		.loc 1 243 30
 1023 0244 3B68     		ldr	r3, [r7]
 1024 0246 9A72     		strb	r2, [r3, #10]
 1025              		.loc 1 244 1
 1026 0248 00BF     		nop
ARM GAS  C:\Users\DEVELO~1\AppData\Local\Temp\ccJ56Rgi.s 			page 19


 1027 024a 1037     		adds	r7, r7, #16
 1028              		.cfi_def_cfa_offset 8
 1029 024c BD46     		mov	sp, r7
 1030              		.cfi_def_cfa_register 13
 1031              		@ sp needed
 1032 024e 80BD     		pop	{r7, pc}
 1033              		.cfi_endproc
 1034              	.LFE437:
 1035              		.size	_mmcsd_unpack_csd_mmc, .-_mmcsd_unpack_csd_mmc
 1036              		.section	.text._mmcsd_unpack_csd_v10,"ax",%progbits
 1037              		.align	1
 1038              		.global	_mmcsd_unpack_csd_v10
 1039              		.syntax unified
 1040              		.thumb
 1041              		.thumb_func
 1042              		.type	_mmcsd_unpack_csd_v10, %function
 1043              	_mmcsd_unpack_csd_v10:
 1044              	.LFB438:
 1045              		.loc 1 255 58
 1046              		.cfi_startproc
 1047              		@ args = 0, pretend = 0, frame = 16
 1048              		@ frame_needed = 1, uses_anonymous_args = 0
 1049 0000 80B5     		push	{r7, lr}
 1050              		.cfi_def_cfa_offset 8
 1051              		.cfi_offset 7, -8
 1052              		.cfi_offset 14, -4
 1053 0002 84B0     		sub	sp, sp, #16
 1054              		.cfi_def_cfa_offset 24
 1055 0004 00AF     		add	r7, sp, #0
 1056              		.cfi_def_cfa_register 7
 1057 0006 7860     		str	r0, [r7, #4]
 1058 0008 3960     		str	r1, [r7]
 1059              		.loc 1 260 7
 1060 000a 7B68     		ldr	r3, [r7, #4]
 1061 000c 1833     		adds	r3, r3, #24
 1062 000e FB60     		str	r3, [r7, #12]
 1063              		.loc 1 261 42
 1064 0010 3E22     		movs	r2, #62
 1065 0012 4921     		movs	r1, #73
 1066 0014 F868     		ldr	r0, [r7, #12]
 1067 0016 FFF7FEFF 		bl	_mmcsd_get_slice
 1068 001a 0346     		mov	r3, r0
 1069              		.loc 1 261 32
 1070 001c 9AB2     		uxth	r2, r3
 1071              		.loc 1 261 30
 1072 001e 3B68     		ldr	r3, [r7]
 1073 0020 9A81     		strh	r2, [r3, #12]	@ movhi
 1074              		.loc 1 262 42
 1075 0022 2F22     		movs	r2, #47
 1076 0024 3121     		movs	r1, #49
 1077 0026 F868     		ldr	r0, [r7, #12]
 1078 0028 FFF7FEFF 		bl	_mmcsd_get_slice
 1079 002c 0346     		mov	r3, r0
 1080              		.loc 1 262 32
 1081 002e DAB2     		uxtb	r2, r3
 1082              		.loc 1 262 30
 1083 0030 3B68     		ldr	r3, [r7]
ARM GAS  C:\Users\DEVELO~1\AppData\Local\Temp\ccJ56Rgi.s 			page 20


 1084 0032 9A74     		strb	r2, [r3, #18]
 1085              		.loc 1 263 42
 1086 0034 5422     		movs	r2, #84
 1087 0036 5F21     		movs	r1, #95
 1088 0038 F868     		ldr	r0, [r7, #12]
 1089 003a FFF7FEFF 		bl	_mmcsd_get_slice
 1090 003e 0346     		mov	r3, r0
 1091              		.loc 1 263 32
 1092 0040 9AB2     		uxth	r2, r3
 1093              		.loc 1 263 30
 1094 0042 3B68     		ldr	r3, [r7]
 1095 0044 9A80     		strh	r2, [r3, #4]	@ movhi
 1096              		.loc 1 264 42
 1097 0046 0E22     		movs	r2, #14
 1098 0048 0E21     		movs	r1, #14
 1099 004a F868     		ldr	r0, [r7, #12]
 1100 004c FFF7FEFF 		bl	_mmcsd_get_slice
 1101 0050 0346     		mov	r3, r0
 1102              		.loc 1 264 32
 1103 0052 DAB2     		uxtb	r2, r3
 1104              		.loc 1 264 30
 1105 0054 3B68     		ldr	r3, [r7]
 1106 0056 DA76     		strb	r2, [r3, #27]
 1107              		.loc 1 265 42
 1108 0058 0122     		movs	r2, #1
 1109 005a 0721     		movs	r1, #7
 1110 005c F868     		ldr	r0, [r7, #12]
 1111 005e FFF7FEFF 		bl	_mmcsd_get_slice
 1112 0062 0346     		mov	r3, r0
 1113              		.loc 1 265 32
 1114 0064 DAB2     		uxtb	r2, r3
 1115              		.loc 1 265 30
 1116 0066 3B68     		ldr	r3, [r7]
 1117 0068 DA77     		strb	r2, [r3, #31]
 1118              		.loc 1 266 42
 1119 006a 7E22     		movs	r2, #126
 1120 006c 7F21     		movs	r1, #127
 1121 006e F868     		ldr	r0, [r7, #12]
 1122 0070 FFF7FEFF 		bl	_mmcsd_get_slice
 1123 0074 0346     		mov	r3, r0
 1124              		.loc 1 266 32
 1125 0076 DAB2     		uxtb	r2, r3
 1126              		.loc 1 266 30
 1127 0078 3B68     		ldr	r3, [r7]
 1128 007a 1A70     		strb	r2, [r3]
 1129              		.loc 1 267 42
 1130 007c 4C22     		movs	r2, #76
 1131 007e 4C21     		movs	r1, #76
 1132 0080 F868     		ldr	r0, [r7, #12]
 1133 0082 FFF7FEFF 		bl	_mmcsd_get_slice
 1134 0086 0346     		mov	r3, r0
 1135              		.loc 1 267 32
 1136 0088 DAB2     		uxtb	r2, r3
 1137              		.loc 1 267 30
 1138 008a 3B68     		ldr	r3, [r7]
 1139 008c 9A72     		strb	r2, [r3, #10]
 1140              		.loc 1 268 42
ARM GAS  C:\Users\DEVELO~1\AppData\Local\Temp\ccJ56Rgi.s 			page 21


 1141 008e 2E22     		movs	r2, #46
 1142 0090 2E21     		movs	r1, #46
 1143 0092 F868     		ldr	r0, [r7, #12]
 1144 0094 FFF7FEFF 		bl	_mmcsd_get_slice
 1145 0098 0346     		mov	r3, r0
 1146              		.loc 1 268 32
 1147 009a DAB2     		uxtb	r2, r3
 1148              		.loc 1 268 30
 1149 009c 3B68     		ldr	r3, [r7]
 1150 009e DA74     		strb	r2, [r3, #19]
 1151              		.loc 1 269 42
 1152 00a0 2722     		movs	r2, #39
 1153 00a2 2D21     		movs	r1, #45
 1154 00a4 F868     		ldr	r0, [r7, #12]
 1155 00a6 FFF7FEFF 		bl	_mmcsd_get_slice
 1156 00aa 0346     		mov	r3, r0
 1157              		.loc 1 269 32
 1158 00ac DAB2     		uxtb	r2, r3
 1159              		.loc 1 269 30
 1160 00ae 3B68     		ldr	r3, [r7]
 1161 00b0 1A75     		strb	r2, [r3, #20]
 1162              		.loc 1 270 42
 1163 00b2 0A22     		movs	r2, #10
 1164 00b4 0B21     		movs	r1, #11
 1165 00b6 F868     		ldr	r0, [r7, #12]
 1166 00b8 FFF7FEFF 		bl	_mmcsd_get_slice
 1167 00bc 0346     		mov	r3, r0
 1168              		.loc 1 270 32
 1169 00be DAB2     		uxtb	r2, r3
 1170              		.loc 1 270 30
 1171 00c0 3B68     		ldr	r3, [r7]
 1172 00c2 9A77     		strb	r2, [r3, #30]
 1173              		.loc 1 271 42
 1174 00c4 0F22     		movs	r2, #15
 1175 00c6 0F21     		movs	r1, #15
 1176 00c8 F868     		ldr	r0, [r7, #12]
 1177 00ca FFF7FEFF 		bl	_mmcsd_get_slice
 1178 00ce 0346     		mov	r3, r0
 1179              		.loc 1 271 32
 1180 00d0 DAB2     		uxtb	r2, r3
 1181              		.loc 1 271 30
 1182 00d2 3B68     		ldr	r3, [r7]
 1183 00d4 9A76     		strb	r2, [r3, #26]
 1184              		.loc 1 272 42
 1185 00d6 6822     		movs	r2, #104
 1186 00d8 6F21     		movs	r1, #111
 1187 00da F868     		ldr	r0, [r7, #12]
 1188 00dc FFF7FEFF 		bl	_mmcsd_get_slice
 1189 00e0 0346     		mov	r3, r0
 1190              		.loc 1 272 32
 1191 00e2 DAB2     		uxtb	r2, r3
 1192              		.loc 1 272 30
 1193 00e4 3B68     		ldr	r3, [r7]
 1194 00e6 9A70     		strb	r2, [r3, #2]
 1195              		.loc 1 273 42
 1196 00e8 0D22     		movs	r2, #13
 1197 00ea 0D21     		movs	r1, #13
ARM GAS  C:\Users\DEVELO~1\AppData\Local\Temp\ccJ56Rgi.s 			page 22


 1198 00ec F868     		ldr	r0, [r7, #12]
 1199 00ee FFF7FEFF 		bl	_mmcsd_get_slice
 1200 00f2 0346     		mov	r3, r0
 1201              		.loc 1 273 32
 1202 00f4 DAB2     		uxtb	r2, r3
 1203              		.loc 1 273 30
 1204 00f6 3B68     		ldr	r3, [r7]
 1205 00f8 1A77     		strb	r2, [r3, #28]
 1206              		.loc 1 274 42
 1207 00fa 1A22     		movs	r2, #26
 1208 00fc 1C21     		movs	r1, #28
 1209 00fe F868     		ldr	r0, [r7, #12]
 1210 0100 FFF7FEFF 		bl	_mmcsd_get_slice
 1211 0104 0346     		mov	r3, r0
 1212              		.loc 1 274 32
 1213 0106 DAB2     		uxtb	r2, r3
 1214              		.loc 1 274 30
 1215 0108 3B68     		ldr	r3, [r7]
 1216 010a DA75     		strb	r2, [r3, #23]
 1217              		.loc 1 275 42
 1218 010c 5022     		movs	r2, #80
 1219 010e 5321     		movs	r1, #83
 1220 0110 F868     		ldr	r0, [r7, #12]
 1221 0112 FFF7FEFF 		bl	_mmcsd_get_slice
 1222 0116 0346     		mov	r3, r0
 1223              		.loc 1 275 32
 1224 0118 DAB2     		uxtb	r2, r3
 1225              		.loc 1 275 30
 1226 011a 3B68     		ldr	r3, [r7]
 1227 011c 9A71     		strb	r2, [r3, #6]
 1228              		.loc 1 276 42
 1229 011e 4F22     		movs	r2, #79
 1230 0120 4F21     		movs	r1, #79
 1231 0122 F868     		ldr	r0, [r7, #12]
 1232 0124 FFF7FEFF 		bl	_mmcsd_get_slice
 1233 0128 0346     		mov	r3, r0
 1234              		.loc 1 276 32
 1235 012a DAB2     		uxtb	r2, r3
 1236              		.loc 1 276 30
 1237 012c 3B68     		ldr	r3, [r7]
 1238 012e DA71     		strb	r2, [r3, #7]
 1239              		.loc 1 277 42
 1240 0130 4D22     		movs	r2, #77
 1241 0132 4D21     		movs	r1, #77
 1242 0134 F868     		ldr	r0, [r7, #12]
 1243 0136 FFF7FEFF 		bl	_mmcsd_get_slice
 1244 013a 0346     		mov	r3, r0
 1245              		.loc 1 277 32
 1246 013c DAB2     		uxtb	r2, r3
 1247              		.loc 1 277 30
 1248 013e 3B68     		ldr	r3, [r7]
 1249 0140 5A72     		strb	r2, [r3, #9]
 1250              		.loc 1 278 42
 1251 0142 7022     		movs	r2, #112
 1252 0144 7721     		movs	r1, #119
 1253 0146 F868     		ldr	r0, [r7, #12]
 1254 0148 FFF7FEFF 		bl	_mmcsd_get_slice
ARM GAS  C:\Users\DEVELO~1\AppData\Local\Temp\ccJ56Rgi.s 			page 23


 1255 014c 0346     		mov	r3, r0
 1256              		.loc 1 278 32
 1257 014e DAB2     		uxtb	r2, r3
 1258              		.loc 1 278 30
 1259 0150 3B68     		ldr	r3, [r7]
 1260 0152 5A70     		strb	r2, [r3, #1]
 1261              		.loc 1 279 42
 1262 0154 0C22     		movs	r2, #12
 1263 0156 0C21     		movs	r1, #12
 1264 0158 F868     		ldr	r0, [r7, #12]
 1265 015a FFF7FEFF 		bl	_mmcsd_get_slice
 1266 015e 0346     		mov	r3, r0
 1267              		.loc 1 279 32
 1268 0160 DAB2     		uxtb	r2, r3
 1269              		.loc 1 279 30
 1270 0162 3B68     		ldr	r3, [r7]
 1271 0164 5A77     		strb	r2, [r3, #29]
 1272              		.loc 1 280 42
 1273 0166 6022     		movs	r2, #96
 1274 0168 6721     		movs	r1, #103
 1275 016a F868     		ldr	r0, [r7, #12]
 1276 016c FFF7FEFF 		bl	_mmcsd_get_slice
 1277 0170 0346     		mov	r3, r0
 1278              		.loc 1 280 32
 1279 0172 DAB2     		uxtb	r2, r3
 1280              		.loc 1 280 30
 1281 0174 3B68     		ldr	r3, [r7]
 1282 0176 DA70     		strb	r2, [r3, #3]
 1283              		.loc 1 281 42
 1284 0178 1F22     		movs	r2, #31
 1285 017a 1F21     		movs	r1, #31
 1286 017c F868     		ldr	r0, [r7, #12]
 1287 017e FFF7FEFF 		bl	_mmcsd_get_slice
 1288 0182 0346     		mov	r3, r0
 1289              		.loc 1 281 32
 1290 0184 DAB2     		uxtb	r2, r3
 1291              		.loc 1 281 30
 1292 0186 3B68     		ldr	r3, [r7]
 1293 0188 9A75     		strb	r2, [r3, #22]
 1294              		.loc 1 282 42
 1295 018a 2022     		movs	r2, #32
 1296 018c 2621     		movs	r1, #38
 1297 018e F868     		ldr	r0, [r7, #12]
 1298 0190 FFF7FEFF 		bl	_mmcsd_get_slice
 1299 0194 0346     		mov	r3, r0
 1300              		.loc 1 282 32
 1301 0196 DAB2     		uxtb	r2, r3
 1302              		.loc 1 282 30
 1303 0198 3B68     		ldr	r3, [r7]
 1304 019a 5A75     		strb	r2, [r3, #21]
 1305              		.loc 1 283 42
 1306 019c 0C22     		movs	r2, #12
 1307 019e 1921     		movs	r1, #25
 1308 01a0 F868     		ldr	r0, [r7, #12]
 1309 01a2 FFF7FEFF 		bl	_mmcsd_get_slice
 1310 01a6 0346     		mov	r3, r0
 1311              		.loc 1 283 32
ARM GAS  C:\Users\DEVELO~1\AppData\Local\Temp\ccJ56Rgi.s 			page 24


 1312 01a8 DAB2     		uxtb	r2, r3
 1313              		.loc 1 283 30
 1314 01aa 3B68     		ldr	r3, [r7]
 1315 01ac 1A76     		strb	r2, [r3, #24]
 1316              		.loc 1 284 42
 1317 01ae 1522     		movs	r2, #21
 1318 01b0 1521     		movs	r1, #21
 1319 01b2 F868     		ldr	r0, [r7, #12]
 1320 01b4 FFF7FEFF 		bl	_mmcsd_get_slice
 1321 01b8 0346     		mov	r3, r0
 1322              		.loc 1 284 32
 1323 01ba DAB2     		uxtb	r2, r3
 1324              		.loc 1 284 30
 1325 01bc 3B68     		ldr	r3, [r7]
 1326 01be 5A76     		strb	r2, [r3, #25]
 1327              		.loc 1 285 42
 1328 01c0 4E22     		movs	r2, #78
 1329 01c2 4E21     		movs	r1, #78
 1330 01c4 F868     		ldr	r0, [r7, #12]
 1331 01c6 FFF7FEFF 		bl	_mmcsd_get_slice
 1332 01ca 0346     		mov	r3, r0
 1333              		.loc 1 285 32
 1334 01cc DAB2     		uxtb	r2, r3
 1335              		.loc 1 285 30
 1336 01ce 3B68     		ldr	r3, [r7]
 1337 01d0 1A72     		strb	r2, [r3, #8]
 1338              		.loc 1 286 1
 1339 01d2 00BF     		nop
 1340 01d4 1037     		adds	r7, r7, #16
 1341              		.cfi_def_cfa_offset 8
 1342 01d6 BD46     		mov	sp, r7
 1343              		.cfi_def_cfa_register 13
 1344              		@ sp needed
 1345 01d8 80BD     		pop	{r7, pc}
 1346              		.cfi_endproc
 1347              	.LFE438:
 1348              		.size	_mmcsd_unpack_csd_v10, .-_mmcsd_unpack_csd_v10
 1349              		.section	.text._mmcsd_unpack_csd_v20,"ax",%progbits
 1350              		.align	1
 1351              		.global	_mmcsd_unpack_csd_v20
 1352              		.syntax unified
 1353              		.thumb
 1354              		.thumb_func
 1355              		.type	_mmcsd_unpack_csd_v20, %function
 1356              	_mmcsd_unpack_csd_v20:
 1357              	.LFB439:
 1358              		.loc 1 297 58
 1359              		.cfi_startproc
 1360              		@ args = 0, pretend = 0, frame = 16
 1361              		@ frame_needed = 1, uses_anonymous_args = 0
 1362 0000 80B5     		push	{r7, lr}
 1363              		.cfi_def_cfa_offset 8
 1364              		.cfi_offset 7, -8
 1365              		.cfi_offset 14, -4
 1366 0002 84B0     		sub	sp, sp, #16
 1367              		.cfi_def_cfa_offset 24
 1368 0004 00AF     		add	r7, sp, #0
ARM GAS  C:\Users\DEVELO~1\AppData\Local\Temp\ccJ56Rgi.s 			page 25


 1369              		.cfi_def_cfa_register 7
 1370 0006 7860     		str	r0, [r7, #4]
 1371 0008 3960     		str	r1, [r7]
 1372              		.loc 1 302 7
 1373 000a 7B68     		ldr	r3, [r7, #4]
 1374 000c 1833     		adds	r3, r3, #24
 1375 000e FB60     		str	r3, [r7, #12]
 1376              		.loc 1 303 42
 1377 0010 3022     		movs	r2, #48
 1378 0012 4521     		movs	r1, #69
 1379 0014 F868     		ldr	r0, [r7, #12]
 1380 0016 FFF7FEFF 		bl	_mmcsd_get_slice
 1381 001a 0246     		mov	r2, r0
 1382              		.loc 1 303 30
 1383 001c 3B68     		ldr	r3, [r7]
 1384 001e DA60     		str	r2, [r3, #12]
 1385              		.loc 1 304 42
 1386 0020 0122     		movs	r2, #1
 1387 0022 0721     		movs	r1, #7
 1388 0024 F868     		ldr	r0, [r7, #12]
 1389 0026 FFF7FEFF 		bl	_mmcsd_get_slice
 1390 002a 0346     		mov	r3, r0
 1391              		.loc 1 304 32
 1392 002c DAB2     		uxtb	r2, r3
 1393              		.loc 1 304 30
 1394 002e 3B68     		ldr	r3, [r7]
 1395 0030 1A77     		strb	r2, [r3, #28]
 1396              		.loc 1 305 42
 1397 0032 5422     		movs	r2, #84
 1398 0034 5F21     		movs	r1, #95
 1399 0036 F868     		ldr	r0, [r7, #12]
 1400 0038 FFF7FEFF 		bl	_mmcsd_get_slice
 1401 003c 0346     		mov	r3, r0
 1402              		.loc 1 305 32
 1403 003e 9AB2     		uxth	r2, r3
 1404              		.loc 1 305 30
 1405 0040 3B68     		ldr	r3, [r7]
 1406 0042 9A80     		strh	r2, [r3, #4]	@ movhi
 1407              		.loc 1 306 42
 1408 0044 0E22     		movs	r2, #14
 1409 0046 0E21     		movs	r1, #14
 1410 0048 F868     		ldr	r0, [r7, #12]
 1411 004a FFF7FEFF 		bl	_mmcsd_get_slice
 1412 004e 0346     		mov	r3, r0
 1413              		.loc 1 306 32
 1414 0050 DAB2     		uxtb	r2, r3
 1415              		.loc 1 306 30
 1416 0052 3B68     		ldr	r3, [r7]
 1417 0054 1A76     		strb	r2, [r3, #24]
 1418              		.loc 1 307 42
 1419 0056 7E22     		movs	r2, #126
 1420 0058 7F21     		movs	r1, #127
 1421 005a F868     		ldr	r0, [r7, #12]
 1422 005c FFF7FEFF 		bl	_mmcsd_get_slice
 1423 0060 0346     		mov	r3, r0
 1424              		.loc 1 307 32
 1425 0062 DAB2     		uxtb	r2, r3
ARM GAS  C:\Users\DEVELO~1\AppData\Local\Temp\ccJ56Rgi.s 			page 26


 1426              		.loc 1 307 30
 1427 0064 3B68     		ldr	r3, [r7]
 1428 0066 1A70     		strb	r2, [r3]
 1429              		.loc 1 308 42
 1430 0068 4C22     		movs	r2, #76
 1431 006a 4C21     		movs	r1, #76
 1432 006c F868     		ldr	r0, [r7, #12]
 1433 006e FFF7FEFF 		bl	_mmcsd_get_slice
 1434 0072 0346     		mov	r3, r0
 1435              		.loc 1 308 32
 1436 0074 DAB2     		uxtb	r2, r3
 1437              		.loc 1 308 30
 1438 0076 3B68     		ldr	r3, [r7]
 1439 0078 9A72     		strb	r2, [r3, #10]
 1440              		.loc 1 309 42
 1441 007a 2E22     		movs	r2, #46
 1442 007c 2E21     		movs	r1, #46
 1443 007e F868     		ldr	r0, [r7, #12]
 1444 0080 FFF7FEFF 		bl	_mmcsd_get_slice
 1445 0084 0346     		mov	r3, r0
 1446              		.loc 1 309 32
 1447 0086 DAB2     		uxtb	r2, r3
 1448              		.loc 1 309 30
 1449 0088 3B68     		ldr	r3, [r7]
 1450 008a 1A74     		strb	r2, [r3, #16]
 1451              		.loc 1 310 42
 1452 008c 0A22     		movs	r2, #10
 1453 008e 0B21     		movs	r1, #11
 1454 0090 F868     		ldr	r0, [r7, #12]
 1455 0092 FFF7FEFF 		bl	_mmcsd_get_slice
 1456 0096 0346     		mov	r3, r0
 1457              		.loc 1 310 32
 1458 0098 DAB2     		uxtb	r2, r3
 1459              		.loc 1 310 30
 1460 009a 3B68     		ldr	r3, [r7]
 1461 009c DA76     		strb	r2, [r3, #27]
 1462              		.loc 1 311 42
 1463 009e 0F22     		movs	r2, #15
 1464 00a0 0F21     		movs	r1, #15
 1465 00a2 F868     		ldr	r0, [r7, #12]
 1466 00a4 FFF7FEFF 		bl	_mmcsd_get_slice
 1467 00a8 0346     		mov	r3, r0
 1468              		.loc 1 311 32
 1469 00aa DAB2     		uxtb	r2, r3
 1470              		.loc 1 311 30
 1471 00ac 3B68     		ldr	r3, [r7]
 1472 00ae DA75     		strb	r2, [r3, #23]
 1473              		.loc 1 312 42
 1474 00b0 6822     		movs	r2, #104
 1475 00b2 6F21     		movs	r1, #111
 1476 00b4 F868     		ldr	r0, [r7, #12]
 1477 00b6 FFF7FEFF 		bl	_mmcsd_get_slice
 1478 00ba 0346     		mov	r3, r0
 1479              		.loc 1 312 32
 1480 00bc DAB2     		uxtb	r2, r3
 1481              		.loc 1 312 30
 1482 00be 3B68     		ldr	r3, [r7]
ARM GAS  C:\Users\DEVELO~1\AppData\Local\Temp\ccJ56Rgi.s 			page 27


 1483 00c0 9A70     		strb	r2, [r3, #2]
 1484              		.loc 1 313 42
 1485 00c2 0D22     		movs	r2, #13
 1486 00c4 0D21     		movs	r1, #13
 1487 00c6 F868     		ldr	r0, [r7, #12]
 1488 00c8 FFF7FEFF 		bl	_mmcsd_get_slice
 1489 00cc 0346     		mov	r3, r0
 1490              		.loc 1 313 32
 1491 00ce DAB2     		uxtb	r2, r3
 1492              		.loc 1 313 30
 1493 00d0 3B68     		ldr	r3, [r7]
 1494 00d2 5A76     		strb	r2, [r3, #25]
 1495              		.loc 1 314 42
 1496 00d4 1A22     		movs	r2, #26
 1497 00d6 1C21     		movs	r1, #28
 1498 00d8 F868     		ldr	r0, [r7, #12]
 1499 00da FFF7FEFF 		bl	_mmcsd_get_slice
 1500 00de 0346     		mov	r3, r0
 1501              		.loc 1 314 32
 1502 00e0 DAB2     		uxtb	r2, r3
 1503              		.loc 1 314 30
 1504 00e2 3B68     		ldr	r3, [r7]
 1505 00e4 1A75     		strb	r2, [r3, #20]
 1506              		.loc 1 315 42
 1507 00e6 5022     		movs	r2, #80
 1508 00e8 5321     		movs	r1, #83
 1509 00ea F868     		ldr	r0, [r7, #12]
 1510 00ec FFF7FEFF 		bl	_mmcsd_get_slice
 1511 00f0 0346     		mov	r3, r0
 1512              		.loc 1 315 32
 1513 00f2 DAB2     		uxtb	r2, r3
 1514              		.loc 1 315 30
 1515 00f4 3B68     		ldr	r3, [r7]
 1516 00f6 9A71     		strb	r2, [r3, #6]
 1517              		.loc 1 316 42
 1518 00f8 4F22     		movs	r2, #79
 1519 00fa 4F21     		movs	r1, #79
 1520 00fc F868     		ldr	r0, [r7, #12]
 1521 00fe FFF7FEFF 		bl	_mmcsd_get_slice
 1522 0102 0346     		mov	r3, r0
 1523              		.loc 1 316 32
 1524 0104 DAB2     		uxtb	r2, r3
 1525              		.loc 1 316 30
 1526 0106 3B68     		ldr	r3, [r7]
 1527 0108 DA71     		strb	r2, [r3, #7]
 1528              		.loc 1 317 42
 1529 010a 4D22     		movs	r2, #77
 1530 010c 4D21     		movs	r1, #77
 1531 010e F868     		ldr	r0, [r7, #12]
 1532 0110 FFF7FEFF 		bl	_mmcsd_get_slice
 1533 0114 0346     		mov	r3, r0
 1534              		.loc 1 317 32
 1535 0116 DAB2     		uxtb	r2, r3
 1536              		.loc 1 317 30
 1537 0118 3B68     		ldr	r3, [r7]
 1538 011a 5A72     		strb	r2, [r3, #9]
 1539              		.loc 1 318 42
ARM GAS  C:\Users\DEVELO~1\AppData\Local\Temp\ccJ56Rgi.s 			page 28


 1540 011c 2722     		movs	r2, #39
 1541 011e 2D21     		movs	r1, #45
 1542 0120 F868     		ldr	r0, [r7, #12]
 1543 0122 FFF7FEFF 		bl	_mmcsd_get_slice
 1544 0126 0346     		mov	r3, r0
 1545              		.loc 1 318 32
 1546 0128 DAB2     		uxtb	r2, r3
 1547              		.loc 1 318 30
 1548 012a 3B68     		ldr	r3, [r7]
 1549 012c 5A74     		strb	r2, [r3, #17]
 1550              		.loc 1 319 42
 1551 012e 7022     		movs	r2, #112
 1552 0130 7721     		movs	r1, #119
 1553 0132 F868     		ldr	r0, [r7, #12]
 1554 0134 FFF7FEFF 		bl	_mmcsd_get_slice
 1555 0138 0346     		mov	r3, r0
 1556              		.loc 1 319 32
 1557 013a DAB2     		uxtb	r2, r3
 1558              		.loc 1 319 30
 1559 013c 3B68     		ldr	r3, [r7]
 1560 013e 5A70     		strb	r2, [r3, #1]
 1561              		.loc 1 320 42
 1562 0140 0C22     		movs	r2, #12
 1563 0142 0C21     		movs	r1, #12
 1564 0144 F868     		ldr	r0, [r7, #12]
 1565 0146 FFF7FEFF 		bl	_mmcsd_get_slice
 1566 014a 0346     		mov	r3, r0
 1567              		.loc 1 320 32
 1568 014c DAB2     		uxtb	r2, r3
 1569              		.loc 1 320 30
 1570 014e 3B68     		ldr	r3, [r7]
 1571 0150 9A76     		strb	r2, [r3, #26]
 1572              		.loc 1 321 42
 1573 0152 6022     		movs	r2, #96
 1574 0154 6721     		movs	r1, #103
 1575 0156 F868     		ldr	r0, [r7, #12]
 1576 0158 FFF7FEFF 		bl	_mmcsd_get_slice
 1577 015c 0346     		mov	r3, r0
 1578              		.loc 1 321 32
 1579 015e DAB2     		uxtb	r2, r3
 1580              		.loc 1 321 30
 1581 0160 3B68     		ldr	r3, [r7]
 1582 0162 DA70     		strb	r2, [r3, #3]
 1583              		.loc 1 322 42
 1584 0164 1F22     		movs	r2, #31
 1585 0166 1F21     		movs	r1, #31
 1586 0168 F868     		ldr	r0, [r7, #12]
 1587 016a FFF7FEFF 		bl	_mmcsd_get_slice
 1588 016e 0346     		mov	r3, r0
 1589              		.loc 1 322 32
 1590 0170 DAB2     		uxtb	r2, r3
 1591              		.loc 1 322 30
 1592 0172 3B68     		ldr	r3, [r7]
 1593 0174 DA74     		strb	r2, [r3, #19]
 1594              		.loc 1 323 42
 1595 0176 2022     		movs	r2, #32
 1596 0178 2621     		movs	r1, #38
ARM GAS  C:\Users\DEVELO~1\AppData\Local\Temp\ccJ56Rgi.s 			page 29


 1597 017a F868     		ldr	r0, [r7, #12]
 1598 017c FFF7FEFF 		bl	_mmcsd_get_slice
 1599 0180 0346     		mov	r3, r0
 1600              		.loc 1 323 32
 1601 0182 DAB2     		uxtb	r2, r3
 1602              		.loc 1 323 30
 1603 0184 3B68     		ldr	r3, [r7]
 1604 0186 9A74     		strb	r2, [r3, #18]
 1605              		.loc 1 324 42
 1606 0188 0C22     		movs	r2, #12
 1607 018a 1921     		movs	r1, #25
 1608 018c F868     		ldr	r0, [r7, #12]
 1609 018e FFF7FEFF 		bl	_mmcsd_get_slice
 1610 0192 0346     		mov	r3, r0
 1611              		.loc 1 324 32
 1612 0194 DAB2     		uxtb	r2, r3
 1613              		.loc 1 324 30
 1614 0196 3B68     		ldr	r3, [r7]
 1615 0198 5A75     		strb	r2, [r3, #21]
 1616              		.loc 1 325 42
 1617 019a 1522     		movs	r2, #21
 1618 019c 1521     		movs	r1, #21
 1619 019e F868     		ldr	r0, [r7, #12]
 1620 01a0 FFF7FEFF 		bl	_mmcsd_get_slice
 1621 01a4 0346     		mov	r3, r0
 1622              		.loc 1 325 32
 1623 01a6 DAB2     		uxtb	r2, r3
 1624              		.loc 1 325 30
 1625 01a8 3B68     		ldr	r3, [r7]
 1626 01aa 9A75     		strb	r2, [r3, #22]
 1627              		.loc 1 326 42
 1628 01ac 4E22     		movs	r2, #78
 1629 01ae 4E21     		movs	r1, #78
 1630 01b0 F868     		ldr	r0, [r7, #12]
 1631 01b2 FFF7FEFF 		bl	_mmcsd_get_slice
 1632 01b6 0346     		mov	r3, r0
 1633              		.loc 1 326 32
 1634 01b8 DAB2     		uxtb	r2, r3
 1635              		.loc 1 326 30
 1636 01ba 3B68     		ldr	r3, [r7]
 1637 01bc 1A72     		strb	r2, [r3, #8]
 1638              		.loc 1 327 1
 1639 01be 00BF     		nop
 1640 01c0 1037     		adds	r7, r7, #16
 1641              		.cfi_def_cfa_offset 8
 1642 01c2 BD46     		mov	sp, r7
 1643              		.cfi_def_cfa_register 13
 1644              		@ sp needed
 1645 01c4 80BD     		pop	{r7, pc}
 1646              		.cfi_endproc
 1647              	.LFE439:
 1648              		.size	_mmcsd_unpack_csd_v20, .-_mmcsd_unpack_csd_v20
 1649              		.text
 1650              	.Letext0:
 1651              		.file 2 "c:\\chibistudio\\tools\\gnu tools arm embedded\\11.3 2022.08\\lib\\gcc\\arm-none-eabi\\11
 1652              		.file 3 "c:\\chibistudio\\tools\\gnu tools arm embedded\\11.3 2022.08\\arm-none-eabi\\include\\mac
 1653              		.file 4 "c:\\chibistudio\\tools\\gnu tools arm embedded\\11.3 2022.08\\arm-none-eabi\\include\\sys
ARM GAS  C:\Users\DEVELO~1\AppData\Local\Temp\ccJ56Rgi.s 			page 30


 1654              		.file 5 "../../../os/hal/include/hal_ioblock.h"
 1655              		.file 6 "../../../os/hal/include/hal_mmcsd.h"
 1656              		.section	.debug_info,"",%progbits
 1657              	.Ldebug_info0:
 1658 0000 940B0000 		.4byte	0xb94
 1659 0004 0500     		.2byte	0x5
 1660 0006 01       		.byte	0x1
 1661 0007 04       		.byte	0x4
 1662 0008 00000000 		.4byte	.Ldebug_abbrev0
 1663 000c 18       		.uleb128 0x18
 1664 000d 13010000 		.4byte	.LASF107
 1665 0011 1D       		.byte	0x1d
 1666 0012 45040000 		.4byte	.LASF108
 1667 0016 5C020000 		.4byte	.LASF109
 1668 001a 0C000000 		.4byte	.LLRL0
 1669 001e 00000000 		.4byte	0
 1670 0022 00000000 		.4byte	.Ldebug_line0
 1671 0026 19       		.uleb128 0x19
 1672 0027 04       		.byte	0x4
 1673 0028 05       		.byte	0x5
 1674 0029 696E7400 		.ascii	"int\000"
 1675 002d 07       		.uleb128 0x7
 1676 002e 2F000000 		.4byte	.LASF4
 1677 0032 02       		.byte	0x2
 1678 0033 D1       		.byte	0xd1
 1679 0034 17       		.byte	0x17
 1680 0035 39000000 		.4byte	0x39
 1681 0039 04       		.uleb128 0x4
 1682 003a 04       		.byte	0x4
 1683 003b 07       		.byte	0x7
 1684 003c 30020000 		.4byte	.LASF0
 1685 0040 04       		.uleb128 0x4
 1686 0041 08       		.byte	0x8
 1687 0042 05       		.byte	0x5
 1688 0043 C3000000 		.4byte	.LASF1
 1689 0047 04       		.uleb128 0x4
 1690 0048 08       		.byte	0x8
 1691 0049 04       		.byte	0x4
 1692 004a F2040000 		.4byte	.LASF2
 1693 004e 04       		.uleb128 0x4
 1694 004f 01       		.byte	0x1
 1695 0050 06       		.byte	0x6
 1696 0051 D1000000 		.4byte	.LASF3
 1697 0055 07       		.uleb128 0x7
 1698 0056 3E000000 		.4byte	.LASF5
 1699 005a 03       		.byte	0x3
 1700 005b 2B       		.byte	0x2b
 1701 005c 18       		.byte	0x18
 1702 005d 61000000 		.4byte	0x61
 1703 0061 04       		.uleb128 0x4
 1704 0062 01       		.byte	0x1
 1705 0063 08       		.byte	0x8
 1706 0064 65050000 		.4byte	.LASF6
 1707 0068 04       		.uleb128 0x4
 1708 0069 02       		.byte	0x2
 1709 006a 05       		.byte	0x5
 1710 006b 31050000 		.4byte	.LASF7
ARM GAS  C:\Users\DEVELO~1\AppData\Local\Temp\ccJ56Rgi.s 			page 31


 1711 006f 07       		.uleb128 0x7
 1712 0070 05020000 		.4byte	.LASF8
 1713 0074 03       		.byte	0x3
 1714 0075 39       		.byte	0x39
 1715 0076 19       		.byte	0x19
 1716 0077 7B000000 		.4byte	0x7b
 1717 007b 04       		.uleb128 0x4
 1718 007c 02       		.byte	0x2
 1719 007d 07       		.byte	0x7
 1720 007e C0020000 		.4byte	.LASF9
 1721 0082 04       		.uleb128 0x4
 1722 0083 04       		.byte	0x4
 1723 0084 05       		.byte	0x5
 1724 0085 C7010000 		.4byte	.LASF10
 1725 0089 07       		.uleb128 0x7
 1726 008a 10020000 		.4byte	.LASF11
 1727 008e 03       		.byte	0x3
 1728 008f 4F       		.byte	0x4f
 1729 0090 19       		.byte	0x19
 1730 0091 95000000 		.4byte	0x95
 1731 0095 04       		.uleb128 0x4
 1732 0096 04       		.byte	0x4
 1733 0097 07       		.byte	0x7
 1734 0098 4A020000 		.4byte	.LASF12
 1735 009c 04       		.uleb128 0x4
 1736 009d 08       		.byte	0x8
 1737 009e 07       		.byte	0x7
 1738 009f 62000000 		.4byte	.LASF13
 1739 00a3 07       		.uleb128 0x7
 1740 00a4 44050000 		.4byte	.LASF14
 1741 00a8 04       		.byte	0x4
 1742 00a9 18       		.byte	0x18
 1743 00aa 13       		.byte	0x13
 1744 00ab 55000000 		.4byte	0x55
 1745 00af 08       		.uleb128 0x8
 1746 00b0 A3000000 		.4byte	0xa3
 1747 00b4 07       		.uleb128 0x7
 1748 00b5 DE010000 		.4byte	.LASF15
 1749 00b9 04       		.byte	0x4
 1750 00ba 24       		.byte	0x24
 1751 00bb 14       		.byte	0x14
 1752 00bc 6F000000 		.4byte	0x6f
 1753 00c0 07       		.uleb128 0x7
 1754 00c1 8C050000 		.4byte	.LASF16
 1755 00c5 04       		.byte	0x4
 1756 00c6 30       		.byte	0x30
 1757 00c7 14       		.byte	0x14
 1758 00c8 89000000 		.4byte	0x89
 1759 00cc 08       		.uleb128 0x8
 1760 00cd C0000000 		.4byte	0xc0
 1761 00d1 04       		.uleb128 0x4
 1762 00d2 01       		.byte	0x1
 1763 00d3 08       		.byte	0x8
 1764 00d4 FE040000 		.4byte	.LASF17
 1765 00d8 08       		.uleb128 0x8
 1766 00d9 D1000000 		.4byte	0xd1
 1767 00dd 1A       		.uleb128 0x1a
ARM GAS  C:\Users\DEVELO~1\AppData\Local\Temp\ccJ56Rgi.s 			page 32


 1768 00de 04       		.byte	0x4
 1769 00df 0B       		.uleb128 0xb
 1770 00e0 C0000000 		.4byte	0xc0
 1771 00e4 EF000000 		.4byte	0xef
 1772 00e8 0C       		.uleb128 0xc
 1773 00e9 39000000 		.4byte	0x39
 1774 00ed 03       		.byte	0x3
 1775 00ee 00       		.byte	0
 1776 00ef 04       		.uleb128 0x4
 1777 00f0 01       		.byte	0x1
 1778 00f1 02       		.byte	0x2
 1779 00f2 FE030000 		.4byte	.LASF18
 1780 00f6 03       		.uleb128 0x3
 1781 00f7 A3000000 		.4byte	0xa3
 1782 00fb 03       		.uleb128 0x3
 1783 00fc AF000000 		.4byte	0xaf
 1784 0100 1B       		.uleb128 0x1b
 1785 0101 07       		.byte	0x7
 1786 0102 01       		.byte	0x1
 1787 0103 61000000 		.4byte	0x61
 1788 0107 05       		.byte	0x5
 1789 0108 28       		.byte	0x28
 1790 0109 0E       		.byte	0xe
 1791 010a 45010000 		.4byte	0x145
 1792 010e 09       		.uleb128 0x9
 1793 010f B6010000 		.4byte	.LASF19
 1794 0113 00       		.byte	0
 1795 0114 09       		.uleb128 0x9
 1796 0115 9E010000 		.4byte	.LASF20
 1797 0119 01       		.byte	0x1
 1798 011a 09       		.uleb128 0x9
 1799 011b D3020000 		.4byte	.LASF21
 1800 011f 02       		.byte	0x2
 1801 0120 09       		.uleb128 0x9
 1802 0121 E5020000 		.4byte	.LASF22
 1803 0125 03       		.byte	0x3
 1804 0126 09       		.uleb128 0x9
 1805 0127 0D050000 		.4byte	.LASF23
 1806 012b 04       		.byte	0x4
 1807 012c 09       		.uleb128 0x9
 1808 012d 72030000 		.4byte	.LASF24
 1809 0131 05       		.byte	0x5
 1810 0132 09       		.uleb128 0x9
 1811 0133 39030000 		.4byte	.LASF25
 1812 0137 06       		.byte	0x6
 1813 0138 09       		.uleb128 0x9
 1814 0139 B7000000 		.4byte	.LASF26
 1815 013d 07       		.byte	0x7
 1816 013e 09       		.uleb128 0x9
 1817 013f B0050000 		.4byte	.LASF27
 1818 0143 08       		.byte	0x8
 1819 0144 00       		.byte	0
 1820 0145 07       		.uleb128 0x7
 1821 0146 E9000000 		.4byte	.LASF28
 1822 014a 05       		.byte	0x5
 1823 014b 32       		.byte	0x32
 1824 014c 03       		.byte	0x3
ARM GAS  C:\Users\DEVELO~1\AppData\Local\Temp\ccJ56Rgi.s 			page 33


 1825 014d 00010000 		.4byte	0x100
 1826 0151 1C       		.uleb128 0x1c
 1827 0152 08       		.byte	0x8
 1828 0153 05       		.byte	0x5
 1829 0154 37       		.byte	0x37
 1830 0155 09       		.byte	0x9
 1831 0156 71010000 		.4byte	0x171
 1832 015a 13       		.uleb128 0x13
 1833 015b 3B050000 		.4byte	.LASF29
 1834 015f 38       		.byte	0x38
 1835 0160 C0000000 		.4byte	0xc0
 1836 0164 00       		.byte	0
 1837 0165 13       		.uleb128 0x13
 1838 0166 36000000 		.4byte	.LASF30
 1839 016a 39       		.byte	0x39
 1840 016b C0000000 		.4byte	0xc0
 1841 016f 04       		.byte	0x4
 1842 0170 00       		.byte	0
 1843 0171 07       		.uleb128 0x7
 1844 0172 00000000 		.4byte	.LASF31
 1845 0176 05       		.byte	0x5
 1846 0177 3A       		.byte	0x3a
 1847 0178 03       		.byte	0x3
 1848 0179 51010000 		.4byte	0x151
 1849 017d 10       		.uleb128 0x10
 1850 017e EF000000 		.4byte	0xef
 1851 0182 8C010000 		.4byte	0x18c
 1852 0186 05       		.uleb128 0x5
 1853 0187 DD000000 		.4byte	0xdd
 1854 018b 00       		.byte	0
 1855 018c 03       		.uleb128 0x3
 1856 018d 7D010000 		.4byte	0x17d
 1857 0191 10       		.uleb128 0x10
 1858 0192 EF000000 		.4byte	0xef
 1859 0196 AF010000 		.4byte	0x1af
 1860 019a 05       		.uleb128 0x5
 1861 019b DD000000 		.4byte	0xdd
 1862 019f 05       		.uleb128 0x5
 1863 01a0 C0000000 		.4byte	0xc0
 1864 01a4 05       		.uleb128 0x5
 1865 01a5 F6000000 		.4byte	0xf6
 1866 01a9 05       		.uleb128 0x5
 1867 01aa C0000000 		.4byte	0xc0
 1868 01ae 00       		.byte	0
 1869 01af 03       		.uleb128 0x3
 1870 01b0 91010000 		.4byte	0x191
 1871 01b4 10       		.uleb128 0x10
 1872 01b5 EF000000 		.4byte	0xef
 1873 01b9 D2010000 		.4byte	0x1d2
 1874 01bd 05       		.uleb128 0x5
 1875 01be DD000000 		.4byte	0xdd
 1876 01c2 05       		.uleb128 0x5
 1877 01c3 C0000000 		.4byte	0xc0
 1878 01c7 05       		.uleb128 0x5
 1879 01c8 FB000000 		.4byte	0xfb
 1880 01cc 05       		.uleb128 0x5
 1881 01cd C0000000 		.4byte	0xc0
ARM GAS  C:\Users\DEVELO~1\AppData\Local\Temp\ccJ56Rgi.s 			page 34


 1882 01d1 00       		.byte	0
 1883 01d2 03       		.uleb128 0x3
 1884 01d3 B4010000 		.4byte	0x1b4
 1885 01d7 10       		.uleb128 0x10
 1886 01d8 EF000000 		.4byte	0xef
 1887 01dc EB010000 		.4byte	0x1eb
 1888 01e0 05       		.uleb128 0x5
 1889 01e1 DD000000 		.4byte	0xdd
 1890 01e5 05       		.uleb128 0x5
 1891 01e6 EB010000 		.4byte	0x1eb
 1892 01ea 00       		.byte	0
 1893 01eb 03       		.uleb128 0x3
 1894 01ec 71010000 		.4byte	0x171
 1895 01f0 03       		.uleb128 0x3
 1896 01f1 D7010000 		.4byte	0x1d7
 1897 01f5 1D       		.uleb128 0x1d
 1898 01f6 A7040000 		.4byte	.LASF110
 1899 01fa 24       		.byte	0x24
 1900 01fb 06       		.byte	0x6
 1901 01fc 0D01     		.2byte	0x10d
 1902 01fe 08       		.byte	0x8
 1903 01ff 79020000 		.4byte	0x279
 1904 0203 01       		.uleb128 0x1
 1905 0204 1A060000 		.4byte	.LASF32
 1906 0208 0E01     		.2byte	0x10e
 1907 020a 03       		.byte	0x3
 1908 020b 2D000000 		.4byte	0x2d
 1909 020f 00       		.byte	0
 1910 0210 01       		.uleb128 0x1
 1911 0211 DD000000 		.4byte	.LASF33
 1912 0215 0E01     		.2byte	0x10e
 1913 0217 03       		.byte	0x3
 1914 0218 8C010000 		.4byte	0x18c
 1915 021c 04       		.byte	0x4
 1916 021d 01       		.uleb128 0x1
 1917 021e 73050000 		.4byte	.LASF34
 1918 0222 0E01     		.2byte	0x10e
 1919 0224 03       		.byte	0x3
 1920 0225 8C010000 		.4byte	0x18c
 1921 0229 08       		.byte	0x8
 1922 022a 01       		.uleb128 0x1
 1923 022b 90040000 		.4byte	.LASF35
 1924 022f 0E01     		.2byte	0x10e
 1925 0231 03       		.byte	0x3
 1926 0232 8C010000 		.4byte	0x18c
 1927 0236 0C       		.byte	0xc
 1928 0237 01       		.uleb128 0x1
 1929 0238 08010000 		.4byte	.LASF36
 1930 023c 0E01     		.2byte	0x10e
 1931 023e 03       		.byte	0x3
 1932 023f 8C010000 		.4byte	0x18c
 1933 0243 10       		.byte	0x10
 1934 0244 01       		.uleb128 0x1
 1935 0245 ED050000 		.4byte	.LASF37
 1936 0249 0E01     		.2byte	0x10e
 1937 024b 03       		.byte	0x3
 1938 024c AF010000 		.4byte	0x1af
ARM GAS  C:\Users\DEVELO~1\AppData\Local\Temp\ccJ56Rgi.s 			page 35


 1939 0250 14       		.byte	0x14
 1940 0251 01       		.uleb128 0x1
 1941 0252 22030000 		.4byte	.LASF38
 1942 0256 0E01     		.2byte	0x10e
 1943 0258 03       		.byte	0x3
 1944 0259 D2010000 		.4byte	0x1d2
 1945 025d 18       		.byte	0x18
 1946 025e 01       		.uleb128 0x1
 1947 025f E8050000 		.4byte	.LASF39
 1948 0263 0E01     		.2byte	0x10e
 1949 0265 03       		.byte	0x3
 1950 0266 8C010000 		.4byte	0x18c
 1951 026a 1C       		.byte	0x1c
 1952 026b 01       		.uleb128 0x1
 1953 026c 8F000000 		.4byte	.LASF40
 1954 0270 0E01     		.2byte	0x10e
 1955 0272 03       		.byte	0x3
 1956 0273 F0010000 		.4byte	0x1f0
 1957 0277 20       		.byte	0x20
 1958 0278 00       		.byte	0
 1959 0279 08       		.uleb128 0x8
 1960 027a F5010000 		.4byte	0x1f5
 1961 027e 0D       		.uleb128 0xd
 1962 027f 2C       		.byte	0x2c
 1963 0280 1701     		.2byte	0x117
 1964 0282 C8020000 		.4byte	0x2c8
 1965 0286 02       		.uleb128 0x2
 1966 0287 766D7400 		.ascii	"vmt\000"
 1967 028b 1901     		.2byte	0x119
 1968 028d 25       		.byte	0x25
 1969 028e C8020000 		.4byte	0x2c8
 1970 0292 00       		.byte	0
 1971 0293 01       		.uleb128 0x1
 1972 0294 C1010000 		.4byte	.LASF41
 1973 0298 1A01     		.2byte	0x11a
 1974 029a 03       		.byte	0x3
 1975 029b 45010000 		.4byte	0x145
 1976 029f 04       		.byte	0x4
 1977 02a0 02       		.uleb128 0x2
 1978 02a1 63696400 		.ascii	"cid\000"
 1979 02a5 1A01     		.2byte	0x11a
 1980 02a7 03       		.byte	0x3
 1981 02a8 DF000000 		.4byte	0xdf
 1982 02ac 08       		.byte	0x8
 1983 02ad 02       		.uleb128 0x2
 1984 02ae 63736400 		.ascii	"csd\000"
 1985 02b2 1A01     		.2byte	0x11a
 1986 02b4 03       		.byte	0x3
 1987 02b5 DF000000 		.4byte	0xdf
 1988 02b9 18       		.byte	0x18
 1989 02ba 01       		.uleb128 0x1
 1990 02bb 10000000 		.4byte	.LASF42
 1991 02bf 1A01     		.2byte	0x11a
 1992 02c1 03       		.byte	0x3
 1993 02c2 C0000000 		.4byte	0xc0
 1994 02c6 28       		.byte	0x28
 1995 02c7 00       		.byte	0
ARM GAS  C:\Users\DEVELO~1\AppData\Local\Temp\ccJ56Rgi.s 			page 36


 1996 02c8 03       		.uleb128 0x3
 1997 02c9 79020000 		.4byte	0x279
 1998 02cd 0E       		.uleb128 0xe
 1999 02ce E1040000 		.4byte	.LASF43
 2000 02d2 1B01     		.2byte	0x11b
 2001 02d4 7E020000 		.4byte	0x27e
 2002 02d8 08       		.uleb128 0x8
 2003 02d9 CD020000 		.4byte	0x2cd
 2004 02dd 0D       		.uleb128 0xd
 2005 02de 18       		.byte	0x18
 2006 02df 2001     		.2byte	0x120
 2007 02e1 5B030000 		.4byte	0x35b
 2008 02e5 02       		.uleb128 0x2
 2009 02e6 6D696400 		.ascii	"mid\000"
 2010 02ea 2101     		.2byte	0x121
 2011 02ec 0D       		.byte	0xd
 2012 02ed A3000000 		.4byte	0xa3
 2013 02f1 00       		.byte	0
 2014 02f2 02       		.uleb128 0x2
 2015 02f3 6F696400 		.ascii	"oid\000"
 2016 02f7 2201     		.2byte	0x122
 2017 02f9 0D       		.byte	0xd
 2018 02fa B4000000 		.4byte	0xb4
 2019 02fe 02       		.byte	0x2
 2020 02ff 02       		.uleb128 0x2
 2021 0300 706E6D00 		.ascii	"pnm\000"
 2022 0304 2301     		.2byte	0x123
 2023 0306 0D       		.byte	0xd
 2024 0307 5B030000 		.4byte	0x35b
 2025 030b 04       		.byte	0x4
 2026 030c 01       		.uleb128 0x1
 2027 030d 30040000 		.4byte	.LASF44
 2028 0311 2401     		.2byte	0x124
 2029 0313 0D       		.byte	0xd
 2030 0314 A3000000 		.4byte	0xa3
 2031 0318 09       		.byte	0x9
 2032 0319 01       		.uleb128 0x1
 2033 031a 2A040000 		.4byte	.LASF45
 2034 031e 2501     		.2byte	0x125
 2035 0320 0D       		.byte	0xd
 2036 0321 A3000000 		.4byte	0xa3
 2037 0325 0A       		.byte	0xa
 2038 0326 02       		.uleb128 0x2
 2039 0327 70736E00 		.ascii	"psn\000"
 2040 032b 2601     		.2byte	0x126
 2041 032d 0D       		.byte	0xd
 2042 032e C0000000 		.4byte	0xc0
 2043 0332 0C       		.byte	0xc
 2044 0333 01       		.uleb128 0x1
 2045 0334 36040000 		.4byte	.LASF46
 2046 0338 2701     		.2byte	0x127
 2047 033a 0D       		.byte	0xd
 2048 033b A3000000 		.4byte	0xa3
 2049 033f 10       		.byte	0x10
 2050 0340 01       		.uleb128 0x1
 2051 0341 8A040000 		.4byte	.LASF47
 2052 0345 2801     		.2byte	0x128
ARM GAS  C:\Users\DEVELO~1\AppData\Local\Temp\ccJ56Rgi.s 			page 37


 2053 0347 0D       		.byte	0xd
 2054 0348 B4000000 		.4byte	0xb4
 2055 034c 12       		.byte	0x12
 2056 034d 02       		.uleb128 0x2
 2057 034e 63726300 		.ascii	"crc\000"
 2058 0352 2901     		.2byte	0x129
 2059 0354 0D       		.byte	0xd
 2060 0355 A3000000 		.4byte	0xa3
 2061 0359 14       		.byte	0x14
 2062 035a 00       		.byte	0
 2063 035b 0B       		.uleb128 0xb
 2064 035c D1000000 		.4byte	0xd1
 2065 0360 6B030000 		.4byte	0x36b
 2066 0364 0C       		.uleb128 0xc
 2067 0365 39000000 		.4byte	0x39
 2068 0369 04       		.byte	0x4
 2069 036a 00       		.byte	0
 2070 036b 0E       		.uleb128 0xe
 2071 036c F2050000 		.4byte	.LASF48
 2072 0370 2A01     		.2byte	0x12a
 2073 0372 DD020000 		.4byte	0x2dd
 2074 0376 0D       		.uleb128 0xd
 2075 0377 18       		.byte	0x18
 2076 0378 2F01     		.2byte	0x12f
 2077 037a F4030000 		.4byte	0x3f4
 2078 037e 02       		.uleb128 0x2
 2079 037f 6D696400 		.ascii	"mid\000"
 2080 0383 3001     		.2byte	0x130
 2081 0385 0D       		.byte	0xd
 2082 0386 A3000000 		.4byte	0xa3
 2083 038a 00       		.byte	0
 2084 038b 02       		.uleb128 0x2
 2085 038c 6F696400 		.ascii	"oid\000"
 2086 0390 3101     		.2byte	0x131
 2087 0392 0D       		.byte	0xd
 2088 0393 B4000000 		.4byte	0xb4
 2089 0397 02       		.byte	0x2
 2090 0398 02       		.uleb128 0x2
 2091 0399 706E6D00 		.ascii	"pnm\000"
 2092 039d 3201     		.2byte	0x132
 2093 039f 0D       		.byte	0xd
 2094 03a0 F4030000 		.4byte	0x3f4
 2095 03a4 04       		.byte	0x4
 2096 03a5 01       		.uleb128 0x1
 2097 03a6 30040000 		.4byte	.LASF44
 2098 03aa 3301     		.2byte	0x133
 2099 03ac 0D       		.byte	0xd
 2100 03ad A3000000 		.4byte	0xa3
 2101 03b1 0A       		.byte	0xa
 2102 03b2 01       		.uleb128 0x1
 2103 03b3 2A040000 		.4byte	.LASF45
 2104 03b7 3401     		.2byte	0x134
 2105 03b9 0D       		.byte	0xd
 2106 03ba A3000000 		.4byte	0xa3
 2107 03be 0B       		.byte	0xb
 2108 03bf 02       		.uleb128 0x2
 2109 03c0 70736E00 		.ascii	"psn\000"
ARM GAS  C:\Users\DEVELO~1\AppData\Local\Temp\ccJ56Rgi.s 			page 38


 2110 03c4 3501     		.2byte	0x135
 2111 03c6 0D       		.byte	0xd
 2112 03c7 C0000000 		.4byte	0xc0
 2113 03cb 0C       		.byte	0xc
 2114 03cc 01       		.uleb128 0x1
 2115 03cd 36040000 		.4byte	.LASF46
 2116 03d1 3601     		.2byte	0x136
 2117 03d3 0D       		.byte	0xd
 2118 03d4 A3000000 		.4byte	0xa3
 2119 03d8 10       		.byte	0x10
 2120 03d9 01       		.uleb128 0x1
 2121 03da 8A040000 		.4byte	.LASF47
 2122 03de 3701     		.2byte	0x137
 2123 03e0 0D       		.byte	0xd
 2124 03e1 B4000000 		.4byte	0xb4
 2125 03e5 12       		.byte	0x12
 2126 03e6 02       		.uleb128 0x2
 2127 03e7 63726300 		.ascii	"crc\000"
 2128 03eb 3801     		.2byte	0x138
 2129 03ed 0D       		.byte	0xd
 2130 03ee A3000000 		.4byte	0xa3
 2131 03f2 14       		.byte	0x14
 2132 03f3 00       		.byte	0
 2133 03f4 0B       		.uleb128 0xb
 2134 03f5 D1000000 		.4byte	0xd1
 2135 03f9 04040000 		.4byte	0x404
 2136 03fd 0C       		.uleb128 0xc
 2137 03fe 39000000 		.4byte	0x39
 2138 0402 05       		.byte	0x5
 2139 0403 00       		.byte	0
 2140 0404 0E       		.uleb128 0xe
 2141 0405 D0030000 		.4byte	.LASF49
 2142 0409 3901     		.2byte	0x139
 2143 040b 76030000 		.4byte	0x376
 2144 040f 0D       		.uleb128 0xd
 2145 0410 20       		.byte	0x20
 2146 0411 3E01     		.2byte	0x13e
 2147 0413 91050000 		.4byte	0x591
 2148 0417 01       		.uleb128 0x1
 2149 0418 A9000000 		.4byte	.LASF50
 2150 041c 3F01     		.2byte	0x13f
 2151 041e 0D       		.byte	0xd
 2152 041f A3000000 		.4byte	0xa3
 2153 0423 00       		.byte	0
 2154 0424 01       		.uleb128 0x1
 2155 0425 F4020000 		.4byte	.LASF51
 2156 0429 4001     		.2byte	0x140
 2157 042b 0D       		.byte	0xd
 2158 042c A3000000 		.4byte	0xa3
 2159 0430 01       		.byte	0x1
 2160 0431 01       		.uleb128 0x1
 2161 0432 55030000 		.4byte	.LASF52
 2162 0436 4101     		.2byte	0x141
 2163 0438 0D       		.byte	0xd
 2164 0439 A3000000 		.4byte	0xa3
 2165 043d 02       		.byte	0x2
 2166 043e 01       		.uleb128 0x1
ARM GAS  C:\Users\DEVELO~1\AppData\Local\Temp\ccJ56Rgi.s 			page 39


 2167 043f 26050000 		.4byte	.LASF53
 2168 0443 4201     		.2byte	0x142
 2169 0445 0D       		.byte	0xd
 2170 0446 A3000000 		.4byte	0xa3
 2171 044a 03       		.byte	0x3
 2172 044b 02       		.uleb128 0x2
 2173 044c 63636300 		.ascii	"ccc\000"
 2174 0450 4301     		.2byte	0x143
 2175 0452 0D       		.byte	0xd
 2176 0453 B4000000 		.4byte	0xb4
 2177 0457 04       		.byte	0x4
 2178 0458 01       		.uleb128 0x1
 2179 0459 CD050000 		.4byte	.LASF54
 2180 045d 4401     		.2byte	0x144
 2181 045f 0D       		.byte	0xd
 2182 0460 A3000000 		.4byte	0xa3
 2183 0464 06       		.byte	0x6
 2184 0465 01       		.uleb128 0x1
 2185 0466 BB040000 		.4byte	.LASF55
 2186 046a 4501     		.2byte	0x145
 2187 046c 0D       		.byte	0xd
 2188 046d A3000000 		.4byte	0xa3
 2189 0471 07       		.byte	0x7
 2190 0472 01       		.uleb128 0x1
 2191 0473 EB030000 		.4byte	.LASF56
 2192 0477 4601     		.2byte	0x146
 2193 0479 0D       		.byte	0xd
 2194 047a A3000000 		.4byte	0xa3
 2195 047e 08       		.byte	0x8
 2196 047f 01       		.uleb128 0x1
 2197 0480 0A030000 		.4byte	.LASF57
 2198 0484 4701     		.2byte	0x147
 2199 0486 0D       		.byte	0xd
 2200 0487 A3000000 		.4byte	0xa3
 2201 048b 09       		.byte	0x9
 2202 048c 01       		.uleb128 0x1
 2203 048d E3030000 		.4byte	.LASF58
 2204 0491 4801     		.2byte	0x148
 2205 0493 0D       		.byte	0xd
 2206 0494 A3000000 		.4byte	0xa3
 2207 0498 0A       		.byte	0xa
 2208 0499 01       		.uleb128 0x1
 2209 049a 45030000 		.4byte	.LASF59
 2210 049e 4901     		.2byte	0x149
 2211 04a0 0D       		.byte	0xd
 2212 04a1 B4000000 		.4byte	0xb4
 2213 04a5 0C       		.byte	0xc
 2214 04a6 01       		.uleb128 0x1
 2215 04a7 A7010000 		.4byte	.LASF60
 2216 04ab 4A01     		.2byte	0x14a
 2217 04ad 0D       		.byte	0xd
 2218 04ae A3000000 		.4byte	0xa3
 2219 04b2 0E       		.byte	0xe
 2220 04b3 01       		.uleb128 0x1
 2221 04b4 98040000 		.4byte	.LASF61
 2222 04b8 4B01     		.2byte	0x14b
 2223 04ba 0D       		.byte	0xd
ARM GAS  C:\Users\DEVELO~1\AppData\Local\Temp\ccJ56Rgi.s 			page 40


 2224 04bb A3000000 		.4byte	0xa3
 2225 04bf 0F       		.byte	0xf
 2226 04c0 01       		.uleb128 0x1
 2227 04c1 D9050000 		.4byte	.LASF62
 2228 04c5 4C01     		.2byte	0x14c
 2229 04c7 0D       		.byte	0xd
 2230 04c8 A3000000 		.4byte	0xa3
 2231 04cc 10       		.byte	0x10
 2232 04cd 01       		.uleb128 0x1
 2233 04ce 95050000 		.4byte	.LASF63
 2234 04d2 4D01     		.2byte	0x14d
 2235 04d4 0D       		.byte	0xd
 2236 04d5 A3000000 		.4byte	0xa3
 2237 04d9 11       		.byte	0x11
 2238 04da 01       		.uleb128 0x1
 2239 04db A4050000 		.4byte	.LASF64
 2240 04df 4E01     		.2byte	0x14e
 2241 04e1 0D       		.byte	0xd
 2242 04e2 A3000000 		.4byte	0xa3
 2243 04e6 12       		.byte	0x12
 2244 04e7 01       		.uleb128 0x1
 2245 04e8 4C050000 		.4byte	.LASF65
 2246 04ec 4F01     		.2byte	0x14f
 2247 04ee 0D       		.byte	0xd
 2248 04ef A3000000 		.4byte	0xa3
 2249 04f3 13       		.byte	0x13
 2250 04f4 01       		.uleb128 0x1
 2251 04f5 2A060000 		.4byte	.LASF66
 2252 04f9 5001     		.2byte	0x150
 2253 04fb 0D       		.byte	0xd
 2254 04fc A3000000 		.4byte	0xa3
 2255 0500 14       		.byte	0x14
 2256 0501 01       		.uleb128 0x1
 2257 0502 2D030000 		.4byte	.LASF67
 2258 0506 5101     		.2byte	0x151
 2259 0508 0D       		.byte	0xd
 2260 0509 A3000000 		.4byte	0xa3
 2261 050d 15       		.byte	0x15
 2262 050e 01       		.uleb128 0x1
 2263 050f D0010000 		.4byte	.LASF68
 2264 0513 5201     		.2byte	0x152
 2265 0515 0D       		.byte	0xd
 2266 0516 A3000000 		.4byte	0xa3
 2267 051a 16       		.byte	0x16
 2268 051b 01       		.uleb128 0x1
 2269 051c 04040000 		.4byte	.LASF69
 2270 0520 5301     		.2byte	0x153
 2271 0522 0D       		.byte	0xd
 2272 0523 A3000000 		.4byte	0xa3
 2273 0527 17       		.byte	0x17
 2274 0528 01       		.uleb128 0x1
 2275 0529 3D020000 		.4byte	.LASF70
 2276 052d 5401     		.2byte	0x154
 2277 052f 0D       		.byte	0xd
 2278 0530 A3000000 		.4byte	0xa3
 2279 0534 18       		.byte	0x18
 2280 0535 01       		.uleb128 0x1
ARM GAS  C:\Users\DEVELO~1\AppData\Local\Temp\ccJ56Rgi.s 			page 41


 2281 0536 F9020000 		.4byte	.LASF71
 2282 053a 5501     		.2byte	0x155
 2283 053c 0D       		.byte	0xd
 2284 053d A3000000 		.4byte	0xa3
 2285 0541 19       		.byte	0x19
 2286 0542 01       		.uleb128 0x1
 2287 0543 20020000 		.4byte	.LASF72
 2288 0547 5601     		.2byte	0x156
 2289 0549 0D       		.byte	0xd
 2290 054a A3000000 		.4byte	0xa3
 2291 054e 1A       		.byte	0x1a
 2292 054f 01       		.uleb128 0x1
 2293 0550 28030000 		.4byte	.LASF73
 2294 0554 5701     		.2byte	0x157
 2295 0556 0D       		.byte	0xd
 2296 0557 A3000000 		.4byte	0xa3
 2297 055b 1B       		.byte	0x1b
 2298 055c 01       		.uleb128 0x1
 2299 055d BD030000 		.4byte	.LASF74
 2300 0561 5801     		.2byte	0x158
 2301 0563 0D       		.byte	0xd
 2302 0564 A3000000 		.4byte	0xa3
 2303 0568 1C       		.byte	0x1c
 2304 0569 01       		.uleb128 0x1
 2305 056a 0F040000 		.4byte	.LASF75
 2306 056e 5901     		.2byte	0x159
 2307 0570 0D       		.byte	0xd
 2308 0571 A3000000 		.4byte	0xa3
 2309 0575 1D       		.byte	0x1d
 2310 0576 01       		.uleb128 0x1
 2311 0577 80050000 		.4byte	.LASF76
 2312 057b 5A01     		.2byte	0x15a
 2313 057d 0D       		.byte	0xd
 2314 057e A3000000 		.4byte	0xa3
 2315 0582 1E       		.byte	0x1e
 2316 0583 02       		.uleb128 0x2
 2317 0584 63726300 		.ascii	"crc\000"
 2318 0588 5B01     		.2byte	0x15b
 2319 058a 0D       		.byte	0xd
 2320 058b A3000000 		.4byte	0xa3
 2321 058f 1F       		.byte	0x1f
 2322 0590 00       		.byte	0
 2323 0591 0E       		.uleb128 0xe
 2324 0592 74040000 		.4byte	.LASF77
 2325 0596 5C01     		.2byte	0x15c
 2326 0598 0F040000 		.4byte	0x40f
 2327 059c 0D       		.uleb128 0xd
 2328 059d 20       		.byte	0x20
 2329 059e 6101     		.2byte	0x161
 2330 05a0 DD060000 		.4byte	0x6dd
 2331 05a4 01       		.uleb128 0x1
 2332 05a5 A9000000 		.4byte	.LASF50
 2333 05a9 6201     		.2byte	0x162
 2334 05ab 0D       		.byte	0xd
 2335 05ac A3000000 		.4byte	0xa3
 2336 05b0 00       		.byte	0
 2337 05b1 01       		.uleb128 0x1
ARM GAS  C:\Users\DEVELO~1\AppData\Local\Temp\ccJ56Rgi.s 			page 42


 2338 05b2 F4020000 		.4byte	.LASF51
 2339 05b6 6301     		.2byte	0x163
 2340 05b8 0D       		.byte	0xd
 2341 05b9 A3000000 		.4byte	0xa3
 2342 05bd 01       		.byte	0x1
 2343 05be 01       		.uleb128 0x1
 2344 05bf 55030000 		.4byte	.LASF52
 2345 05c3 6401     		.2byte	0x164
 2346 05c5 0D       		.byte	0xd
 2347 05c6 A3000000 		.4byte	0xa3
 2348 05ca 02       		.byte	0x2
 2349 05cb 01       		.uleb128 0x1
 2350 05cc 26050000 		.4byte	.LASF53
 2351 05d0 6501     		.2byte	0x165
 2352 05d2 0D       		.byte	0xd
 2353 05d3 A3000000 		.4byte	0xa3
 2354 05d7 03       		.byte	0x3
 2355 05d8 02       		.uleb128 0x2
 2356 05d9 63636300 		.ascii	"ccc\000"
 2357 05dd 6601     		.2byte	0x166
 2358 05df 0D       		.byte	0xd
 2359 05e0 B4000000 		.4byte	0xb4
 2360 05e4 04       		.byte	0x4
 2361 05e5 01       		.uleb128 0x1
 2362 05e6 CD050000 		.4byte	.LASF54
 2363 05ea 6701     		.2byte	0x167
 2364 05ec 0D       		.byte	0xd
 2365 05ed A3000000 		.4byte	0xa3
 2366 05f1 06       		.byte	0x6
 2367 05f2 01       		.uleb128 0x1
 2368 05f3 BB040000 		.4byte	.LASF55
 2369 05f7 6801     		.2byte	0x168
 2370 05f9 0D       		.byte	0xd
 2371 05fa A3000000 		.4byte	0xa3
 2372 05fe 07       		.byte	0x7
 2373 05ff 01       		.uleb128 0x1
 2374 0600 EB030000 		.4byte	.LASF56
 2375 0604 6901     		.2byte	0x169
 2376 0606 0D       		.byte	0xd
 2377 0607 A3000000 		.4byte	0xa3
 2378 060b 08       		.byte	0x8
 2379 060c 01       		.uleb128 0x1
 2380 060d 0A030000 		.4byte	.LASF57
 2381 0611 6A01     		.2byte	0x16a
 2382 0613 0D       		.byte	0xd
 2383 0614 A3000000 		.4byte	0xa3
 2384 0618 09       		.byte	0x9
 2385 0619 01       		.uleb128 0x1
 2386 061a E3030000 		.4byte	.LASF58
 2387 061e 6B01     		.2byte	0x16b
 2388 0620 0D       		.byte	0xd
 2389 0621 A3000000 		.4byte	0xa3
 2390 0625 0A       		.byte	0xa
 2391 0626 01       		.uleb128 0x1
 2392 0627 45030000 		.4byte	.LASF59
 2393 062b 6C01     		.2byte	0x16c
 2394 062d 0D       		.byte	0xd
ARM GAS  C:\Users\DEVELO~1\AppData\Local\Temp\ccJ56Rgi.s 			page 43


 2395 062e C0000000 		.4byte	0xc0
 2396 0632 0C       		.byte	0xc
 2397 0633 01       		.uleb128 0x1
 2398 0634 4C050000 		.4byte	.LASF65
 2399 0638 6D01     		.2byte	0x16d
 2400 063a 0D       		.byte	0xd
 2401 063b A3000000 		.4byte	0xa3
 2402 063f 10       		.byte	0x10
 2403 0640 01       		.uleb128 0x1
 2404 0641 2A060000 		.4byte	.LASF66
 2405 0645 6E01     		.2byte	0x16e
 2406 0647 0D       		.byte	0xd
 2407 0648 A3000000 		.4byte	0xa3
 2408 064c 11       		.byte	0x11
 2409 064d 01       		.uleb128 0x1
 2410 064e 2D030000 		.4byte	.LASF67
 2411 0652 6F01     		.2byte	0x16f
 2412 0654 0D       		.byte	0xd
 2413 0655 A3000000 		.4byte	0xa3
 2414 0659 12       		.byte	0x12
 2415 065a 01       		.uleb128 0x1
 2416 065b D0010000 		.4byte	.LASF68
 2417 065f 7001     		.2byte	0x170
 2418 0661 0D       		.byte	0xd
 2419 0662 A3000000 		.4byte	0xa3
 2420 0666 13       		.byte	0x13
 2421 0667 01       		.uleb128 0x1
 2422 0668 04040000 		.4byte	.LASF69
 2423 066c 7101     		.2byte	0x171
 2424 066e 0D       		.byte	0xd
 2425 066f A3000000 		.4byte	0xa3
 2426 0673 14       		.byte	0x14
 2427 0674 01       		.uleb128 0x1
 2428 0675 3D020000 		.4byte	.LASF70
 2429 0679 7201     		.2byte	0x172
 2430 067b 0D       		.byte	0xd
 2431 067c A3000000 		.4byte	0xa3
 2432 0680 15       		.byte	0x15
 2433 0681 01       		.uleb128 0x1
 2434 0682 F9020000 		.4byte	.LASF71
 2435 0686 7301     		.2byte	0x173
 2436 0688 0D       		.byte	0xd
 2437 0689 A3000000 		.4byte	0xa3
 2438 068d 16       		.byte	0x16
 2439 068e 01       		.uleb128 0x1
 2440 068f 20020000 		.4byte	.LASF72
 2441 0693 7401     		.2byte	0x174
 2442 0695 0D       		.byte	0xd
 2443 0696 A3000000 		.4byte	0xa3
 2444 069a 17       		.byte	0x17
 2445 069b 01       		.uleb128 0x1
 2446 069c 28030000 		.4byte	.LASF73
 2447 06a0 7501     		.2byte	0x175
 2448 06a2 0D       		.byte	0xd
 2449 06a3 A3000000 		.4byte	0xa3
 2450 06a7 18       		.byte	0x18
 2451 06a8 01       		.uleb128 0x1
ARM GAS  C:\Users\DEVELO~1\AppData\Local\Temp\ccJ56Rgi.s 			page 44


 2452 06a9 BD030000 		.4byte	.LASF74
 2453 06ad 7601     		.2byte	0x176
 2454 06af 0D       		.byte	0xd
 2455 06b0 A3000000 		.4byte	0xa3
 2456 06b4 19       		.byte	0x19
 2457 06b5 01       		.uleb128 0x1
 2458 06b6 0F040000 		.4byte	.LASF75
 2459 06ba 7701     		.2byte	0x177
 2460 06bc 0D       		.byte	0xd
 2461 06bd A3000000 		.4byte	0xa3
 2462 06c1 1A       		.byte	0x1a
 2463 06c2 01       		.uleb128 0x1
 2464 06c3 80050000 		.4byte	.LASF76
 2465 06c7 7801     		.2byte	0x178
 2466 06c9 0D       		.byte	0xd
 2467 06ca A3000000 		.4byte	0xa3
 2468 06ce 1B       		.byte	0x1b
 2469 06cf 02       		.uleb128 0x2
 2470 06d0 63726300 		.ascii	"crc\000"
 2471 06d4 7901     		.2byte	0x179
 2472 06d6 0D       		.byte	0xd
 2473 06d7 A3000000 		.4byte	0xa3
 2474 06db 1C       		.byte	0x1c
 2475 06dc 00       		.byte	0
 2476 06dd 0E       		.uleb128 0xe
 2477 06de 7C030000 		.4byte	.LASF78
 2478 06e2 7A01     		.2byte	0x17a
 2479 06e4 9C050000 		.4byte	0x59c
 2480 06e8 0D       		.uleb128 0xd
 2481 06e9 26       		.byte	0x26
 2482 06ea 7F01     		.2byte	0x17f
 2483 06ec 9E080000 		.4byte	0x89e
 2484 06f0 01       		.uleb128 0x1
 2485 06f1 A9000000 		.4byte	.LASF50
 2486 06f5 8001     		.2byte	0x180
 2487 06f7 0D       		.byte	0xd
 2488 06f8 A3000000 		.4byte	0xa3
 2489 06fc 00       		.byte	0
 2490 06fd 01       		.uleb128 0x1
 2491 06fe 03050000 		.4byte	.LASF79
 2492 0702 8101     		.2byte	0x181
 2493 0704 0D       		.byte	0xd
 2494 0705 A3000000 		.4byte	0xa3
 2495 0709 01       		.byte	0x1
 2496 070a 01       		.uleb128 0x1
 2497 070b F4020000 		.4byte	.LASF51
 2498 070f 8201     		.2byte	0x182
 2499 0711 0D       		.byte	0xd
 2500 0712 A3000000 		.4byte	0xa3
 2501 0716 02       		.byte	0x2
 2502 0717 01       		.uleb128 0x1
 2503 0718 55030000 		.4byte	.LASF52
 2504 071c 8301     		.2byte	0x183
 2505 071e 0D       		.byte	0xd
 2506 071f A3000000 		.4byte	0xa3
 2507 0723 03       		.byte	0x3
 2508 0724 01       		.uleb128 0x1
ARM GAS  C:\Users\DEVELO~1\AppData\Local\Temp\ccJ56Rgi.s 			page 45


 2509 0725 26050000 		.4byte	.LASF53
 2510 0729 8401     		.2byte	0x184
 2511 072b 0D       		.byte	0xd
 2512 072c A3000000 		.4byte	0xa3
 2513 0730 04       		.byte	0x4
 2514 0731 02       		.uleb128 0x2
 2515 0732 63636300 		.ascii	"ccc\000"
 2516 0736 8501     		.2byte	0x185
 2517 0738 0D       		.byte	0xd
 2518 0739 B4000000 		.4byte	0xb4
 2519 073d 06       		.byte	0x6
 2520 073e 01       		.uleb128 0x1
 2521 073f CD050000 		.4byte	.LASF54
 2522 0743 8601     		.2byte	0x186
 2523 0745 0D       		.byte	0xd
 2524 0746 A3000000 		.4byte	0xa3
 2525 074a 08       		.byte	0x8
 2526 074b 01       		.uleb128 0x1
 2527 074c BB040000 		.4byte	.LASF55
 2528 0750 8701     		.2byte	0x187
 2529 0752 0D       		.byte	0xd
 2530 0753 A3000000 		.4byte	0xa3
 2531 0757 09       		.byte	0x9
 2532 0758 01       		.uleb128 0x1
 2533 0759 EB030000 		.4byte	.LASF56
 2534 075d 8801     		.2byte	0x188
 2535 075f 0D       		.byte	0xd
 2536 0760 A3000000 		.4byte	0xa3
 2537 0764 0A       		.byte	0xa
 2538 0765 01       		.uleb128 0x1
 2539 0766 0A030000 		.4byte	.LASF57
 2540 076a 8901     		.2byte	0x189
 2541 076c 0D       		.byte	0xd
 2542 076d A3000000 		.4byte	0xa3
 2543 0771 0B       		.byte	0xb
 2544 0772 01       		.uleb128 0x1
 2545 0773 E3030000 		.4byte	.LASF58
 2546 0777 8A01     		.2byte	0x18a
 2547 0779 0D       		.byte	0xd
 2548 077a A3000000 		.4byte	0xa3
 2549 077e 0C       		.byte	0xc
 2550 077f 01       		.uleb128 0x1
 2551 0780 45030000 		.4byte	.LASF59
 2552 0784 8B01     		.2byte	0x18b
 2553 0786 0D       		.byte	0xd
 2554 0787 B4000000 		.4byte	0xb4
 2555 078b 0E       		.byte	0xe
 2556 078c 01       		.uleb128 0x1
 2557 078d A7010000 		.4byte	.LASF60
 2558 0791 8C01     		.2byte	0x18c
 2559 0793 0D       		.byte	0xd
 2560 0794 A3000000 		.4byte	0xa3
 2561 0798 10       		.byte	0x10
 2562 0799 01       		.uleb128 0x1
 2563 079a 98040000 		.4byte	.LASF61
 2564 079e 8D01     		.2byte	0x18d
 2565 07a0 0D       		.byte	0xd
ARM GAS  C:\Users\DEVELO~1\AppData\Local\Temp\ccJ56Rgi.s 			page 46


 2566 07a1 A3000000 		.4byte	0xa3
 2567 07a5 11       		.byte	0x11
 2568 07a6 01       		.uleb128 0x1
 2569 07a7 D9050000 		.4byte	.LASF62
 2570 07ab 8E01     		.2byte	0x18e
 2571 07ad 0D       		.byte	0xd
 2572 07ae A3000000 		.4byte	0xa3
 2573 07b2 12       		.byte	0x12
 2574 07b3 01       		.uleb128 0x1
 2575 07b4 95050000 		.4byte	.LASF63
 2576 07b8 8F01     		.2byte	0x18f
 2577 07ba 0D       		.byte	0xd
 2578 07bb A3000000 		.4byte	0xa3
 2579 07bf 13       		.byte	0x13
 2580 07c0 01       		.uleb128 0x1
 2581 07c1 A4050000 		.4byte	.LASF64
 2582 07c5 9001     		.2byte	0x190
 2583 07c7 0D       		.byte	0xd
 2584 07c8 A3000000 		.4byte	0xa3
 2585 07cc 14       		.byte	0x14
 2586 07cd 01       		.uleb128 0x1
 2587 07ce 65040000 		.4byte	.LASF80
 2588 07d2 9101     		.2byte	0x191
 2589 07d4 0D       		.byte	0xd
 2590 07d5 A3000000 		.4byte	0xa3
 2591 07d9 15       		.byte	0x15
 2592 07da 01       		.uleb128 0x1
 2593 07db 05060000 		.4byte	.LASF81
 2594 07df 9201     		.2byte	0x192
 2595 07e1 0D       		.byte	0xd
 2596 07e2 A3000000 		.4byte	0xa3
 2597 07e6 16       		.byte	0x16
 2598 07e7 01       		.uleb128 0x1
 2599 07e8 2D030000 		.4byte	.LASF67
 2600 07ec 9301     		.2byte	0x193
 2601 07ee 0D       		.byte	0xd
 2602 07ef A3000000 		.4byte	0xa3
 2603 07f3 17       		.byte	0x17
 2604 07f4 01       		.uleb128 0x1
 2605 07f5 D0010000 		.4byte	.LASF68
 2606 07f9 9401     		.2byte	0x194
 2607 07fb 0D       		.byte	0xd
 2608 07fc A3000000 		.4byte	0xa3
 2609 0800 18       		.byte	0x18
 2610 0801 01       		.uleb128 0x1
 2611 0802 59050000 		.4byte	.LASF82
 2612 0806 9501     		.2byte	0x195
 2613 0808 0D       		.byte	0xd
 2614 0809 A3000000 		.4byte	0xa3
 2615 080d 19       		.byte	0x19
 2616 080e 01       		.uleb128 0x1
 2617 080f 04040000 		.4byte	.LASF69
 2618 0813 9601     		.2byte	0x196
 2619 0815 0D       		.byte	0xd
 2620 0816 A3000000 		.4byte	0xa3
 2621 081a 1A       		.byte	0x1a
 2622 081b 01       		.uleb128 0x1
ARM GAS  C:\Users\DEVELO~1\AppData\Local\Temp\ccJ56Rgi.s 			page 47


 2623 081c 3D020000 		.4byte	.LASF70
 2624 0820 9701     		.2byte	0x197
 2625 0822 0D       		.byte	0xd
 2626 0823 A3000000 		.4byte	0xa3
 2627 0827 1B       		.byte	0x1b
 2628 0828 01       		.uleb128 0x1
 2629 0829 F9020000 		.4byte	.LASF71
 2630 082d 9801     		.2byte	0x198
 2631 082f 0D       		.byte	0xd
 2632 0830 A3000000 		.4byte	0xa3
 2633 0834 1C       		.byte	0x1c
 2634 0835 01       		.uleb128 0x1
 2635 0836 BC050000 		.4byte	.LASF83
 2636 083a 9901     		.2byte	0x199
 2637 083c 0D       		.byte	0xd
 2638 083d A3000000 		.4byte	0xa3
 2639 0841 1D       		.byte	0x1d
 2640 0842 01       		.uleb128 0x1
 2641 0843 20020000 		.4byte	.LASF72
 2642 0847 9A01     		.2byte	0x19a
 2643 0849 0D       		.byte	0xd
 2644 084a A3000000 		.4byte	0xa3
 2645 084e 1E       		.byte	0x1e
 2646 084f 01       		.uleb128 0x1
 2647 0850 28030000 		.4byte	.LASF73
 2648 0854 9B01     		.2byte	0x19b
 2649 0856 0D       		.byte	0xd
 2650 0857 A3000000 		.4byte	0xa3
 2651 085b 1F       		.byte	0x1f
 2652 085c 01       		.uleb128 0x1
 2653 085d BD030000 		.4byte	.LASF74
 2654 0861 9C01     		.2byte	0x19c
 2655 0863 0D       		.byte	0xd
 2656 0864 A3000000 		.4byte	0xa3
 2657 0868 20       		.byte	0x20
 2658 0869 01       		.uleb128 0x1
 2659 086a 0F040000 		.4byte	.LASF75
 2660 086e 9D01     		.2byte	0x19d
 2661 0870 0D       		.byte	0xd
 2662 0871 A3000000 		.4byte	0xa3
 2663 0875 21       		.byte	0x21
 2664 0876 01       		.uleb128 0x1
 2665 0877 80050000 		.4byte	.LASF76
 2666 087b 9E01     		.2byte	0x19e
 2667 087d 0D       		.byte	0xd
 2668 087e A3000000 		.4byte	0xa3
 2669 0882 22       		.byte	0x22
 2670 0883 02       		.uleb128 0x2
 2671 0884 65636300 		.ascii	"ecc\000"
 2672 0888 9F01     		.2byte	0x19f
 2673 088a 0D       		.byte	0xd
 2674 088b A3000000 		.4byte	0xa3
 2675 088f 23       		.byte	0x23
 2676 0890 02       		.uleb128 0x2
 2677 0891 63726300 		.ascii	"crc\000"
 2678 0895 A001     		.2byte	0x1a0
 2679 0897 0D       		.byte	0xd
ARM GAS  C:\Users\DEVELO~1\AppData\Local\Temp\ccJ56Rgi.s 			page 48


 2680 0898 A3000000 		.4byte	0xa3
 2681 089c 24       		.byte	0x24
 2682 089d 00       		.byte	0
 2683 089e 0E       		.uleb128 0xe
 2684 089f 48000000 		.4byte	.LASF84
 2685 08a3 A101     		.2byte	0x1a1
 2686 08a5 E8060000 		.4byte	0x6e8
 2687 08a9 1E       		.uleb128 0x1e
 2688 08aa CB040000 		.4byte	.LASF87
 2689 08ae 01       		.byte	0x1
 2690 08af 2801     		.2byte	0x128
 2691 08b1 06       		.byte	0x6
 2692 08b2 00000000 		.4byte	.LFB439
 2693 08b6 C6010000 		.4byte	.LFE439-.LFB439
 2694 08ba 01       		.uleb128 0x1
 2695 08bb 9C       		.byte	0x9c
 2696 08bc F6080000 		.4byte	0x8f6
 2697 08c0 14       		.uleb128 0x14
 2698 08c1 1B020000 		.4byte	.LASF85
 2699 08c5 2801     		.2byte	0x128
 2700 08c7 34       		.byte	0x34
 2701 08c8 F6080000 		.4byte	0x8f6
 2702 08cc 02       		.uleb128 0x2
 2703 08cd 91       		.byte	0x91
 2704 08ce 6C       		.sleb128 -20
 2705 08cf 14       		.uleb128 0x14
 2706 08d0 92030000 		.4byte	.LASF86
 2707 08d4 2901     		.2byte	0x129
 2708 08d6 33       		.byte	0x33
 2709 08d7 FB080000 		.4byte	0x8fb
 2710 08db 02       		.uleb128 0x2
 2711 08dc 91       		.byte	0x91
 2712 08dd 68       		.sleb128 -24
 2713 08de 15       		.uleb128 0x15
 2714 08df 63736400 		.ascii	"csd\000"
 2715 08e3 2A01     		.2byte	0x12a
 2716 08e5 00090000 		.4byte	0x900
 2717 08e9 02       		.uleb128 0x2
 2718 08ea 91       		.byte	0x91
 2719 08eb 74       		.sleb128 -12
 2720 08ec 0A       		.uleb128 0xa
 2721 08ed 3C040000 		.4byte	.LASF90
 2722 08f1 15090000 		.4byte	0x915
 2723 08f5 00       		.byte	0
 2724 08f6 03       		.uleb128 0x3
 2725 08f7 D8020000 		.4byte	0x2d8
 2726 08fb 03       		.uleb128 0x3
 2727 08fc DD060000 		.4byte	0x6dd
 2728 0900 03       		.uleb128 0x3
 2729 0901 CC000000 		.4byte	0xcc
 2730 0905 0B       		.uleb128 0xb
 2731 0906 D8000000 		.4byte	0xd8
 2732 090a 15090000 		.4byte	0x915
 2733 090e 0C       		.uleb128 0xc
 2734 090f 39000000 		.4byte	0x39
 2735 0913 15       		.byte	0x15
 2736 0914 00       		.byte	0
ARM GAS  C:\Users\DEVELO~1\AppData\Local\Temp\ccJ56Rgi.s 			page 49


 2737 0915 08       		.uleb128 0x8
 2738 0916 05090000 		.4byte	0x905
 2739 091a 11       		.uleb128 0x11
 2740 091b A0030000 		.4byte	.LASF88
 2741 091f FE       		.byte	0xfe
 2742 0920 00000000 		.4byte	.LFB438
 2743 0924 DA010000 		.4byte	.LFE438-.LFB438
 2744 0928 01       		.uleb128 0x1
 2745 0929 9C       		.byte	0x9c
 2746 092a 62090000 		.4byte	0x962
 2747 092e 06       		.uleb128 0x6
 2748 092f 1B020000 		.4byte	.LASF85
 2749 0933 FE       		.byte	0xfe
 2750 0934 34       		.byte	0x34
 2751 0935 F6080000 		.4byte	0x8f6
 2752 0939 02       		.uleb128 0x2
 2753 093a 91       		.byte	0x91
 2754 093b 6C       		.sleb128 -20
 2755 093c 06       		.uleb128 0x6
 2756 093d 1C030000 		.4byte	.LASF89
 2757 0941 FF       		.byte	0xff
 2758 0942 33       		.byte	0x33
 2759 0943 62090000 		.4byte	0x962
 2760 0947 02       		.uleb128 0x2
 2761 0948 91       		.byte	0x91
 2762 0949 68       		.sleb128 -24
 2763 094a 15       		.uleb128 0x15
 2764 094b 63736400 		.ascii	"csd\000"
 2765 094f 0001     		.2byte	0x100
 2766 0951 00090000 		.4byte	0x900
 2767 0955 02       		.uleb128 0x2
 2768 0956 91       		.byte	0x91
 2769 0957 74       		.sleb128 -12
 2770 0958 0A       		.uleb128 0xa
 2771 0959 3C040000 		.4byte	.LASF90
 2772 095d 15090000 		.4byte	0x915
 2773 0961 00       		.byte	0
 2774 0962 03       		.uleb128 0x3
 2775 0963 91050000 		.4byte	0x591
 2776 0967 11       		.uleb128 0x11
 2777 0968 E7010000 		.4byte	.LASF91
 2778 096c CE       		.byte	0xce
 2779 096d 00000000 		.4byte	.LFB437
 2780 0971 50020000 		.4byte	.LFE437-.LFB437
 2781 0975 01       		.uleb128 0x1
 2782 0976 9C       		.byte	0x9c
 2783 0977 AF090000 		.4byte	0x9af
 2784 097b 06       		.uleb128 0x6
 2785 097c 1B020000 		.4byte	.LASF85
 2786 0980 CE       		.byte	0xce
 2787 0981 34       		.byte	0x34
 2788 0982 F6080000 		.4byte	0x8f6
 2789 0986 02       		.uleb128 0x2
 2790 0987 91       		.byte	0x91
 2791 0988 6C       		.sleb128 -20
 2792 0989 06       		.uleb128 0x6
 2793 098a 1F050000 		.4byte	.LASF92
ARM GAS  C:\Users\DEVELO~1\AppData\Local\Temp\ccJ56Rgi.s 			page 50


 2794 098e CF       		.byte	0xcf
 2795 098f 30       		.byte	0x30
 2796 0990 AF090000 		.4byte	0x9af
 2797 0994 02       		.uleb128 0x2
 2798 0995 91       		.byte	0x91
 2799 0996 68       		.sleb128 -24
 2800 0997 0F       		.uleb128 0xf
 2801 0998 63736400 		.ascii	"csd\000"
 2802 099c D0       		.byte	0xd0
 2803 099d 13       		.byte	0x13
 2804 099e 00090000 		.4byte	0x900
 2805 09a2 02       		.uleb128 0x2
 2806 09a3 91       		.byte	0x91
 2807 09a4 74       		.sleb128 -12
 2808 09a5 0A       		.uleb128 0xa
 2809 09a6 3C040000 		.4byte	.LASF90
 2810 09aa 15090000 		.4byte	0x915
 2811 09ae 00       		.byte	0
 2812 09af 03       		.uleb128 0x3
 2813 09b0 9E080000 		.4byte	0x89e
 2814 09b4 11       		.uleb128 0x11
 2815 09b5 19000000 		.4byte	.LASF93
 2816 09b9 AE       		.byte	0xae
 2817 09ba 00000000 		.4byte	.LFB436
 2818 09be 18010000 		.4byte	.LFE436-.LFB436
 2819 09c2 01       		.uleb128 0x1
 2820 09c3 9C       		.byte	0x9c
 2821 09c4 FC090000 		.4byte	0x9fc
 2822 09c8 06       		.uleb128 0x6
 2823 09c9 1B020000 		.4byte	.LASF85
 2824 09cd AE       		.byte	0xae
 2825 09ce 34       		.byte	0x34
 2826 09cf F6080000 		.4byte	0x8f6
 2827 09d3 02       		.uleb128 0x2
 2828 09d4 91       		.byte	0x91
 2829 09d5 6C       		.sleb128 -20
 2830 09d6 06       		.uleb128 0x6
 2831 09d7 DE020000 		.4byte	.LASF94
 2832 09db AF       		.byte	0xaf
 2833 09dc 30       		.byte	0x30
 2834 09dd FC090000 		.4byte	0x9fc
 2835 09e1 02       		.uleb128 0x2
 2836 09e2 91       		.byte	0x91
 2837 09e3 68       		.sleb128 -24
 2838 09e4 0F       		.uleb128 0xf
 2839 09e5 63696400 		.ascii	"cid\000"
 2840 09e9 B0       		.byte	0xb0
 2841 09ea 13       		.byte	0x13
 2842 09eb 00090000 		.4byte	0x900
 2843 09ef 02       		.uleb128 0x2
 2844 09f0 91       		.byte	0x91
 2845 09f1 74       		.sleb128 -12
 2846 09f2 0A       		.uleb128 0xa
 2847 09f3 3C040000 		.4byte	.LASF90
 2848 09f7 15090000 		.4byte	0x915
 2849 09fb 00       		.byte	0
 2850 09fc 03       		.uleb128 0x3
ARM GAS  C:\Users\DEVELO~1\AppData\Local\Temp\ccJ56Rgi.s 			page 51


 2851 09fd 04040000 		.4byte	0x404
 2852 0a01 11       		.uleb128 0x11
 2853 0a02 79000000 		.4byte	.LASF95
 2854 0a06 8F       		.byte	0x8f
 2855 0a07 00000000 		.4byte	.LFB435
 2856 0a0b 06010000 		.4byte	.LFE435-.LFB435
 2857 0a0f 01       		.uleb128 0x1
 2858 0a10 9C       		.byte	0x9c
 2859 0a11 490A0000 		.4byte	0xa49
 2860 0a15 06       		.uleb128 0x6
 2861 0a16 1B020000 		.4byte	.LASF85
 2862 0a1a 8F       		.byte	0x8f
 2863 0a1b 34       		.byte	0x34
 2864 0a1c F6080000 		.4byte	0x8f6
 2865 0a20 02       		.uleb128 0x2
 2866 0a21 91       		.byte	0x91
 2867 0a22 6C       		.sleb128 -20
 2868 0a23 06       		.uleb128 0x6
 2869 0a24 5B000000 		.4byte	.LASF96
 2870 0a28 90       		.byte	0x90
 2871 0a29 30       		.byte	0x30
 2872 0a2a 490A0000 		.4byte	0xa49
 2873 0a2e 02       		.uleb128 0x2
 2874 0a2f 91       		.byte	0x91
 2875 0a30 68       		.sleb128 -24
 2876 0a31 0F       		.uleb128 0xf
 2877 0a32 63696400 		.ascii	"cid\000"
 2878 0a36 91       		.byte	0x91
 2879 0a37 13       		.byte	0x13
 2880 0a38 00090000 		.4byte	0x900
 2881 0a3c 02       		.uleb128 0x2
 2882 0a3d 91       		.byte	0x91
 2883 0a3e 74       		.sleb128 -12
 2884 0a3f 0A       		.uleb128 0xa
 2885 0a40 3C040000 		.4byte	.LASF90
 2886 0a44 15090000 		.4byte	0x915
 2887 0a48 00       		.byte	0
 2888 0a49 03       		.uleb128 0x3
 2889 0a4a 6B030000 		.4byte	0x36b
 2890 0a4e 16       		.uleb128 0x16
 2891 0a4f 5A030000 		.4byte	.LASF98
 2892 0a53 7D       		.byte	0x7d
 2893 0a54 C0000000 		.4byte	0xc0
 2894 0a58 00000000 		.4byte	.LFB434
 2895 0a5c 36000000 		.4byte	.LFE434-.LFB434
 2896 0a60 01       		.uleb128 0x1
 2897 0a61 9C       		.byte	0x9c
 2898 0a62 7E0A0000 		.4byte	0xa7e
 2899 0a66 06       		.uleb128 0x6
 2900 0a67 98030000 		.4byte	.LASF97
 2901 0a6b 7D       		.byte	0x7d
 2902 0a6c 31       		.byte	0x31
 2903 0a6d FB000000 		.4byte	0xfb
 2904 0a71 02       		.uleb128 0x2
 2905 0a72 91       		.byte	0x91
 2906 0a73 74       		.sleb128 -12
 2907 0a74 0A       		.uleb128 0xa
ARM GAS  C:\Users\DEVELO~1\AppData\Local\Temp\ccJ56Rgi.s 			page 52


 2908 0a75 3C040000 		.4byte	.LASF90
 2909 0a79 8E0A0000 		.4byte	0xa8e
 2910 0a7d 00       		.byte	0
 2911 0a7e 0B       		.uleb128 0xb
 2912 0a7f D8000000 		.4byte	0xd8
 2913 0a83 8E0A0000 		.4byte	0xa8e
 2914 0a87 0C       		.uleb128 0xc
 2915 0a88 39000000 		.4byte	0x39
 2916 0a8c 17       		.byte	0x17
 2917 0a8d 00       		.byte	0
 2918 0a8e 08       		.uleb128 0x8
 2919 0a8f 7E0A0000 		.4byte	0xa7e
 2920 0a93 1F       		.uleb128 0x1f
 2921 0a94 F4000000 		.4byte	.LASF99
 2922 0a98 01       		.byte	0x1
 2923 0a99 5D       		.byte	0x5d
 2924 0a9a 0A       		.byte	0xa
 2925 0a9b C0000000 		.4byte	0xc0
 2926 0a9f 00000000 		.4byte	.LFB433
 2927 0aa3 72000000 		.4byte	.LFE433-.LFB433
 2928 0aa7 01       		.uleb128 0x1
 2929 0aa8 9C       		.byte	0x9c
 2930 0aa9 E90A0000 		.4byte	0xae9
 2931 0aad 17       		.uleb128 0x17
 2932 0aae 63736400 		.ascii	"csd\000"
 2933 0ab2 5D       		.byte	0x5d
 2934 0ab3 2E       		.byte	0x2e
 2935 0ab4 00090000 		.4byte	0x900
 2936 0ab8 02       		.uleb128 0x2
 2937 0ab9 91       		.byte	0x91
 2938 0aba 64       		.sleb128 -28
 2939 0abb 0F       		.uleb128 0xf
 2940 0abc 6100     		.ascii	"a\000"
 2941 0abe 5E       		.byte	0x5e
 2942 0abf 0C       		.byte	0xc
 2943 0ac0 C0000000 		.4byte	0xc0
 2944 0ac4 02       		.uleb128 0x2
 2945 0ac5 91       		.byte	0x91
 2946 0ac6 74       		.sleb128 -12
 2947 0ac7 0F       		.uleb128 0xf
 2948 0ac8 6200     		.ascii	"b\000"
 2949 0aca 5E       		.byte	0x5e
 2950 0acb 0F       		.byte	0xf
 2951 0acc C0000000 		.4byte	0xc0
 2952 0ad0 02       		.uleb128 0x2
 2953 0ad1 91       		.byte	0x91
 2954 0ad2 70       		.sleb128 -16
 2955 0ad3 0F       		.uleb128 0xf
 2956 0ad4 6300     		.ascii	"c\000"
 2957 0ad6 5E       		.byte	0x5e
 2958 0ad7 12       		.byte	0x12
 2959 0ad8 C0000000 		.4byte	0xc0
 2960 0adc 02       		.uleb128 0x2
 2961 0add 91       		.byte	0x91
 2962 0ade 6C       		.sleb128 -20
 2963 0adf 0A       		.uleb128 0xa
 2964 0ae0 3C040000 		.4byte	.LASF90
ARM GAS  C:\Users\DEVELO~1\AppData\Local\Temp\ccJ56Rgi.s 			page 53


 2965 0ae4 F90A0000 		.4byte	0xaf9
 2966 0ae8 00       		.byte	0
 2967 0ae9 0B       		.uleb128 0xb
 2968 0aea D8000000 		.4byte	0xd8
 2969 0aee F90A0000 		.4byte	0xaf9
 2970 0af2 0C       		.uleb128 0xc
 2971 0af3 39000000 		.4byte	0x39
 2972 0af7 13       		.byte	0x13
 2973 0af8 00       		.byte	0
 2974 0af9 08       		.uleb128 0x8
 2975 0afa E90A0000 		.4byte	0xae9
 2976 0afe 16       		.uleb128 0x16
 2977 0aff 98000000 		.4byte	.LASF100
 2978 0b03 3D       		.byte	0x3d
 2979 0b04 C0000000 		.4byte	0xc0
 2980 0b08 00000000 		.4byte	.LFB432
 2981 0b0c 82000000 		.4byte	.LFE432-.LFB432
 2982 0b10 01       		.uleb128 0x1
 2983 0b11 9C       		.byte	0x9c
 2984 0b12 820B0000 		.4byte	0xb82
 2985 0b16 06       		.uleb128 0x6
 2986 0b17 BB020000 		.4byte	.LASF101
 2987 0b1b 3D       		.byte	0x3d
 2988 0b1c 2B       		.byte	0x2b
 2989 0b1d 00090000 		.4byte	0x900
 2990 0b21 02       		.uleb128 0x2
 2991 0b22 91       		.byte	0x91
 2992 0b23 64       		.sleb128 -28
 2993 0b24 17       		.uleb128 0x17
 2994 0b25 656E6400 		.ascii	"end\000"
 2995 0b29 3E       		.byte	0x3e
 2996 0b2a 24       		.byte	0x24
 2997 0b2b C0000000 		.4byte	0xc0
 2998 0b2f 02       		.uleb128 0x2
 2999 0b30 91       		.byte	0x91
 3000 0b31 60       		.sleb128 -32
 3001 0b32 06       		.uleb128 0x6
 3002 0b33 14060000 		.4byte	.LASF102
 3003 0b37 3F       		.byte	0x3f
 3004 0b38 24       		.byte	0x24
 3005 0b39 C0000000 		.4byte	0xc0
 3006 0b3d 02       		.uleb128 0x2
 3007 0b3e 91       		.byte	0x91
 3008 0b3f 5C       		.sleb128 -36
 3009 0b40 12       		.uleb128 0x12
 3010 0b41 4C030000 		.4byte	.LASF103
 3011 0b45 40       		.byte	0x40
 3012 0b46 0C       		.byte	0xc
 3013 0b47 39000000 		.4byte	0x39
 3014 0b4b 02       		.uleb128 0x2
 3015 0b4c 91       		.byte	0x91
 3016 0b4d 6C       		.sleb128 -20
 3017 0b4e 12       		.uleb128 0x12
 3018 0b4f B6030000 		.4byte	.LASF104
 3019 0b53 40       		.byte	0x40
 3020 0b54 16       		.byte	0x16
 3021 0b55 39000000 		.4byte	0x39
ARM GAS  C:\Users\DEVELO~1\AppData\Local\Temp\ccJ56Rgi.s 			page 54


 3022 0b59 02       		.uleb128 0x2
 3023 0b5a 91       		.byte	0x91
 3024 0b5b 74       		.sleb128 -12
 3025 0b5c 12       		.uleb128 0x12
 3026 0b5d 21040000 		.4byte	.LASF105
 3027 0b61 40       		.byte	0x40
 3028 0b62 1E       		.byte	0x1e
 3029 0b63 39000000 		.4byte	0x39
 3030 0b67 02       		.uleb128 0x2
 3031 0b68 91       		.byte	0x91
 3032 0b69 68       		.sleb128 -24
 3033 0b6a 12       		.uleb128 0x12
 3034 0b6b FD010000 		.4byte	.LASF106
 3035 0b6f 41       		.byte	0x41
 3036 0b70 0C       		.byte	0xc
 3037 0b71 C0000000 		.4byte	0xc0
 3038 0b75 02       		.uleb128 0x2
 3039 0b76 91       		.byte	0x91
 3040 0b77 70       		.sleb128 -16
 3041 0b78 0A       		.uleb128 0xa
 3042 0b79 3C040000 		.4byte	.LASF90
 3043 0b7d 920B0000 		.4byte	0xb92
 3044 0b81 00       		.byte	0
 3045 0b82 0B       		.uleb128 0xb
 3046 0b83 D8000000 		.4byte	0xd8
 3047 0b87 920B0000 		.4byte	0xb92
 3048 0b8b 0C       		.uleb128 0xc
 3049 0b8c 39000000 		.4byte	0x39
 3050 0b90 10       		.byte	0x10
 3051 0b91 00       		.byte	0
 3052 0b92 08       		.uleb128 0x8
 3053 0b93 820B0000 		.4byte	0xb82
 3054 0b97 00       		.byte	0
 3055              		.section	.debug_abbrev,"",%progbits
 3056              	.Ldebug_abbrev0:
 3057 0000 01       		.uleb128 0x1
 3058 0001 0D       		.uleb128 0xd
 3059 0002 00       		.byte	0
 3060 0003 03       		.uleb128 0x3
 3061 0004 0E       		.uleb128 0xe
 3062 0005 3A       		.uleb128 0x3a
 3063 0006 21       		.uleb128 0x21
 3064 0007 06       		.sleb128 6
 3065 0008 3B       		.uleb128 0x3b
 3066 0009 05       		.uleb128 0x5
 3067 000a 39       		.uleb128 0x39
 3068 000b 0B       		.uleb128 0xb
 3069 000c 49       		.uleb128 0x49
 3070 000d 13       		.uleb128 0x13
 3071 000e 38       		.uleb128 0x38
 3072 000f 0B       		.uleb128 0xb
 3073 0010 00       		.byte	0
 3074 0011 00       		.byte	0
 3075 0012 02       		.uleb128 0x2
 3076 0013 0D       		.uleb128 0xd
 3077 0014 00       		.byte	0
 3078 0015 03       		.uleb128 0x3
ARM GAS  C:\Users\DEVELO~1\AppData\Local\Temp\ccJ56Rgi.s 			page 55


 3079 0016 08       		.uleb128 0x8
 3080 0017 3A       		.uleb128 0x3a
 3081 0018 21       		.uleb128 0x21
 3082 0019 06       		.sleb128 6
 3083 001a 3B       		.uleb128 0x3b
 3084 001b 05       		.uleb128 0x5
 3085 001c 39       		.uleb128 0x39
 3086 001d 0B       		.uleb128 0xb
 3087 001e 49       		.uleb128 0x49
 3088 001f 13       		.uleb128 0x13
 3089 0020 38       		.uleb128 0x38
 3090 0021 0B       		.uleb128 0xb
 3091 0022 00       		.byte	0
 3092 0023 00       		.byte	0
 3093 0024 03       		.uleb128 0x3
 3094 0025 0F       		.uleb128 0xf
 3095 0026 00       		.byte	0
 3096 0027 0B       		.uleb128 0xb
 3097 0028 21       		.uleb128 0x21
 3098 0029 04       		.sleb128 4
 3099 002a 49       		.uleb128 0x49
 3100 002b 13       		.uleb128 0x13
 3101 002c 00       		.byte	0
 3102 002d 00       		.byte	0
 3103 002e 04       		.uleb128 0x4
 3104 002f 24       		.uleb128 0x24
 3105 0030 00       		.byte	0
 3106 0031 0B       		.uleb128 0xb
 3107 0032 0B       		.uleb128 0xb
 3108 0033 3E       		.uleb128 0x3e
 3109 0034 0B       		.uleb128 0xb
 3110 0035 03       		.uleb128 0x3
 3111 0036 0E       		.uleb128 0xe
 3112 0037 00       		.byte	0
 3113 0038 00       		.byte	0
 3114 0039 05       		.uleb128 0x5
 3115 003a 05       		.uleb128 0x5
 3116 003b 00       		.byte	0
 3117 003c 49       		.uleb128 0x49
 3118 003d 13       		.uleb128 0x13
 3119 003e 00       		.byte	0
 3120 003f 00       		.byte	0
 3121 0040 06       		.uleb128 0x6
 3122 0041 05       		.uleb128 0x5
 3123 0042 00       		.byte	0
 3124 0043 03       		.uleb128 0x3
 3125 0044 0E       		.uleb128 0xe
 3126 0045 3A       		.uleb128 0x3a
 3127 0046 21       		.uleb128 0x21
 3128 0047 01       		.sleb128 1
 3129 0048 3B       		.uleb128 0x3b
 3130 0049 0B       		.uleb128 0xb
 3131 004a 39       		.uleb128 0x39
 3132 004b 0B       		.uleb128 0xb
 3133 004c 49       		.uleb128 0x49
 3134 004d 13       		.uleb128 0x13
 3135 004e 02       		.uleb128 0x2
ARM GAS  C:\Users\DEVELO~1\AppData\Local\Temp\ccJ56Rgi.s 			page 56


 3136 004f 18       		.uleb128 0x18
 3137 0050 00       		.byte	0
 3138 0051 00       		.byte	0
 3139 0052 07       		.uleb128 0x7
 3140 0053 16       		.uleb128 0x16
 3141 0054 00       		.byte	0
 3142 0055 03       		.uleb128 0x3
 3143 0056 0E       		.uleb128 0xe
 3144 0057 3A       		.uleb128 0x3a
 3145 0058 0B       		.uleb128 0xb
 3146 0059 3B       		.uleb128 0x3b
 3147 005a 0B       		.uleb128 0xb
 3148 005b 39       		.uleb128 0x39
 3149 005c 0B       		.uleb128 0xb
 3150 005d 49       		.uleb128 0x49
 3151 005e 13       		.uleb128 0x13
 3152 005f 00       		.byte	0
 3153 0060 00       		.byte	0
 3154 0061 08       		.uleb128 0x8
 3155 0062 26       		.uleb128 0x26
 3156 0063 00       		.byte	0
 3157 0064 49       		.uleb128 0x49
 3158 0065 13       		.uleb128 0x13
 3159 0066 00       		.byte	0
 3160 0067 00       		.byte	0
 3161 0068 09       		.uleb128 0x9
 3162 0069 28       		.uleb128 0x28
 3163 006a 00       		.byte	0
 3164 006b 03       		.uleb128 0x3
 3165 006c 0E       		.uleb128 0xe
 3166 006d 1C       		.uleb128 0x1c
 3167 006e 0B       		.uleb128 0xb
 3168 006f 00       		.byte	0
 3169 0070 00       		.byte	0
 3170 0071 0A       		.uleb128 0xa
 3171 0072 34       		.uleb128 0x34
 3172 0073 00       		.byte	0
 3173 0074 03       		.uleb128 0x3
 3174 0075 0E       		.uleb128 0xe
 3175 0076 49       		.uleb128 0x49
 3176 0077 13       		.uleb128 0x13
 3177 0078 34       		.uleb128 0x34
 3178 0079 19       		.uleb128 0x19
 3179 007a 00       		.byte	0
 3180 007b 00       		.byte	0
 3181 007c 0B       		.uleb128 0xb
 3182 007d 01       		.uleb128 0x1
 3183 007e 01       		.byte	0x1
 3184 007f 49       		.uleb128 0x49
 3185 0080 13       		.uleb128 0x13
 3186 0081 01       		.uleb128 0x1
 3187 0082 13       		.uleb128 0x13
 3188 0083 00       		.byte	0
 3189 0084 00       		.byte	0
 3190 0085 0C       		.uleb128 0xc
 3191 0086 21       		.uleb128 0x21
 3192 0087 00       		.byte	0
ARM GAS  C:\Users\DEVELO~1\AppData\Local\Temp\ccJ56Rgi.s 			page 57


 3193 0088 49       		.uleb128 0x49
 3194 0089 13       		.uleb128 0x13
 3195 008a 2F       		.uleb128 0x2f
 3196 008b 0B       		.uleb128 0xb
 3197 008c 00       		.byte	0
 3198 008d 00       		.byte	0
 3199 008e 0D       		.uleb128 0xd
 3200 008f 13       		.uleb128 0x13
 3201 0090 01       		.byte	0x1
 3202 0091 0B       		.uleb128 0xb
 3203 0092 0B       		.uleb128 0xb
 3204 0093 3A       		.uleb128 0x3a
 3205 0094 21       		.uleb128 0x21
 3206 0095 06       		.sleb128 6
 3207 0096 3B       		.uleb128 0x3b
 3208 0097 05       		.uleb128 0x5
 3209 0098 39       		.uleb128 0x39
 3210 0099 21       		.uleb128 0x21
 3211 009a 09       		.sleb128 9
 3212 009b 01       		.uleb128 0x1
 3213 009c 13       		.uleb128 0x13
 3214 009d 00       		.byte	0
 3215 009e 00       		.byte	0
 3216 009f 0E       		.uleb128 0xe
 3217 00a0 16       		.uleb128 0x16
 3218 00a1 00       		.byte	0
 3219 00a2 03       		.uleb128 0x3
 3220 00a3 0E       		.uleb128 0xe
 3221 00a4 3A       		.uleb128 0x3a
 3222 00a5 21       		.uleb128 0x21
 3223 00a6 06       		.sleb128 6
 3224 00a7 3B       		.uleb128 0x3b
 3225 00a8 05       		.uleb128 0x5
 3226 00a9 39       		.uleb128 0x39
 3227 00aa 21       		.uleb128 0x21
 3228 00ab 03       		.sleb128 3
 3229 00ac 49       		.uleb128 0x49
 3230 00ad 13       		.uleb128 0x13
 3231 00ae 00       		.byte	0
 3232 00af 00       		.byte	0
 3233 00b0 0F       		.uleb128 0xf
 3234 00b1 34       		.uleb128 0x34
 3235 00b2 00       		.byte	0
 3236 00b3 03       		.uleb128 0x3
 3237 00b4 08       		.uleb128 0x8
 3238 00b5 3A       		.uleb128 0x3a
 3239 00b6 21       		.uleb128 0x21
 3240 00b7 01       		.sleb128 1
 3241 00b8 3B       		.uleb128 0x3b
 3242 00b9 0B       		.uleb128 0xb
 3243 00ba 39       		.uleb128 0x39
 3244 00bb 0B       		.uleb128 0xb
 3245 00bc 49       		.uleb128 0x49
 3246 00bd 13       		.uleb128 0x13
 3247 00be 02       		.uleb128 0x2
 3248 00bf 18       		.uleb128 0x18
 3249 00c0 00       		.byte	0
ARM GAS  C:\Users\DEVELO~1\AppData\Local\Temp\ccJ56Rgi.s 			page 58


 3250 00c1 00       		.byte	0
 3251 00c2 10       		.uleb128 0x10
 3252 00c3 15       		.uleb128 0x15
 3253 00c4 01       		.byte	0x1
 3254 00c5 27       		.uleb128 0x27
 3255 00c6 19       		.uleb128 0x19
 3256 00c7 49       		.uleb128 0x49
 3257 00c8 13       		.uleb128 0x13
 3258 00c9 01       		.uleb128 0x1
 3259 00ca 13       		.uleb128 0x13
 3260 00cb 00       		.byte	0
 3261 00cc 00       		.byte	0
 3262 00cd 11       		.uleb128 0x11
 3263 00ce 2E       		.uleb128 0x2e
 3264 00cf 01       		.byte	0x1
 3265 00d0 3F       		.uleb128 0x3f
 3266 00d1 19       		.uleb128 0x19
 3267 00d2 03       		.uleb128 0x3
 3268 00d3 0E       		.uleb128 0xe
 3269 00d4 3A       		.uleb128 0x3a
 3270 00d5 21       		.uleb128 0x21
 3271 00d6 01       		.sleb128 1
 3272 00d7 3B       		.uleb128 0x3b
 3273 00d8 0B       		.uleb128 0xb
 3274 00d9 39       		.uleb128 0x39
 3275 00da 21       		.uleb128 0x21
 3276 00db 06       		.sleb128 6
 3277 00dc 27       		.uleb128 0x27
 3278 00dd 19       		.uleb128 0x19
 3279 00de 11       		.uleb128 0x11
 3280 00df 01       		.uleb128 0x1
 3281 00e0 12       		.uleb128 0x12
 3282 00e1 06       		.uleb128 0x6
 3283 00e2 40       		.uleb128 0x40
 3284 00e3 18       		.uleb128 0x18
 3285 00e4 7C       		.uleb128 0x7c
 3286 00e5 19       		.uleb128 0x19
 3287 00e6 01       		.uleb128 0x1
 3288 00e7 13       		.uleb128 0x13
 3289 00e8 00       		.byte	0
 3290 00e9 00       		.byte	0
 3291 00ea 12       		.uleb128 0x12
 3292 00eb 34       		.uleb128 0x34
 3293 00ec 00       		.byte	0
 3294 00ed 03       		.uleb128 0x3
 3295 00ee 0E       		.uleb128 0xe
 3296 00ef 3A       		.uleb128 0x3a
 3297 00f0 21       		.uleb128 0x21
 3298 00f1 01       		.sleb128 1
 3299 00f2 3B       		.uleb128 0x3b
 3300 00f3 0B       		.uleb128 0xb
 3301 00f4 39       		.uleb128 0x39
 3302 00f5 0B       		.uleb128 0xb
 3303 00f6 49       		.uleb128 0x49
 3304 00f7 13       		.uleb128 0x13
 3305 00f8 02       		.uleb128 0x2
 3306 00f9 18       		.uleb128 0x18
ARM GAS  C:\Users\DEVELO~1\AppData\Local\Temp\ccJ56Rgi.s 			page 59


 3307 00fa 00       		.byte	0
 3308 00fb 00       		.byte	0
 3309 00fc 13       		.uleb128 0x13
 3310 00fd 0D       		.uleb128 0xd
 3311 00fe 00       		.byte	0
 3312 00ff 03       		.uleb128 0x3
 3313 0100 0E       		.uleb128 0xe
 3314 0101 3A       		.uleb128 0x3a
 3315 0102 21       		.uleb128 0x21
 3316 0103 05       		.sleb128 5
 3317 0104 3B       		.uleb128 0x3b
 3318 0105 0B       		.uleb128 0xb
 3319 0106 39       		.uleb128 0x39
 3320 0107 21       		.uleb128 0x21
 3321 0108 11       		.sleb128 17
 3322 0109 49       		.uleb128 0x49
 3323 010a 13       		.uleb128 0x13
 3324 010b 38       		.uleb128 0x38
 3325 010c 0B       		.uleb128 0xb
 3326 010d 00       		.byte	0
 3327 010e 00       		.byte	0
 3328 010f 14       		.uleb128 0x14
 3329 0110 05       		.uleb128 0x5
 3330 0111 00       		.byte	0
 3331 0112 03       		.uleb128 0x3
 3332 0113 0E       		.uleb128 0xe
 3333 0114 3A       		.uleb128 0x3a
 3334 0115 21       		.uleb128 0x21
 3335 0116 01       		.sleb128 1
 3336 0117 3B       		.uleb128 0x3b
 3337 0118 05       		.uleb128 0x5
 3338 0119 39       		.uleb128 0x39
 3339 011a 0B       		.uleb128 0xb
 3340 011b 49       		.uleb128 0x49
 3341 011c 13       		.uleb128 0x13
 3342 011d 02       		.uleb128 0x2
 3343 011e 18       		.uleb128 0x18
 3344 011f 00       		.byte	0
 3345 0120 00       		.byte	0
 3346 0121 15       		.uleb128 0x15
 3347 0122 34       		.uleb128 0x34
 3348 0123 00       		.byte	0
 3349 0124 03       		.uleb128 0x3
 3350 0125 08       		.uleb128 0x8
 3351 0126 3A       		.uleb128 0x3a
 3352 0127 21       		.uleb128 0x21
 3353 0128 01       		.sleb128 1
 3354 0129 3B       		.uleb128 0x3b
 3355 012a 05       		.uleb128 0x5
 3356 012b 39       		.uleb128 0x39
 3357 012c 21       		.uleb128 0x21
 3358 012d 13       		.sleb128 19
 3359 012e 49       		.uleb128 0x49
 3360 012f 13       		.uleb128 0x13
 3361 0130 02       		.uleb128 0x2
 3362 0131 18       		.uleb128 0x18
 3363 0132 00       		.byte	0
ARM GAS  C:\Users\DEVELO~1\AppData\Local\Temp\ccJ56Rgi.s 			page 60


 3364 0133 00       		.byte	0
 3365 0134 16       		.uleb128 0x16
 3366 0135 2E       		.uleb128 0x2e
 3367 0136 01       		.byte	0x1
 3368 0137 3F       		.uleb128 0x3f
 3369 0138 19       		.uleb128 0x19
 3370 0139 03       		.uleb128 0x3
 3371 013a 0E       		.uleb128 0xe
 3372 013b 3A       		.uleb128 0x3a
 3373 013c 21       		.uleb128 0x21
 3374 013d 01       		.sleb128 1
 3375 013e 3B       		.uleb128 0x3b
 3376 013f 0B       		.uleb128 0xb
 3377 0140 39       		.uleb128 0x39
 3378 0141 21       		.uleb128 0x21
 3379 0142 0A       		.sleb128 10
 3380 0143 27       		.uleb128 0x27
 3381 0144 19       		.uleb128 0x19
 3382 0145 49       		.uleb128 0x49
 3383 0146 13       		.uleb128 0x13
 3384 0147 11       		.uleb128 0x11
 3385 0148 01       		.uleb128 0x1
 3386 0149 12       		.uleb128 0x12
 3387 014a 06       		.uleb128 0x6
 3388 014b 40       		.uleb128 0x40
 3389 014c 18       		.uleb128 0x18
 3390 014d 7A       		.uleb128 0x7a
 3391 014e 19       		.uleb128 0x19
 3392 014f 01       		.uleb128 0x1
 3393 0150 13       		.uleb128 0x13
 3394 0151 00       		.byte	0
 3395 0152 00       		.byte	0
 3396 0153 17       		.uleb128 0x17
 3397 0154 05       		.uleb128 0x5
 3398 0155 00       		.byte	0
 3399 0156 03       		.uleb128 0x3
 3400 0157 08       		.uleb128 0x8
 3401 0158 3A       		.uleb128 0x3a
 3402 0159 21       		.uleb128 0x21
 3403 015a 01       		.sleb128 1
 3404 015b 3B       		.uleb128 0x3b
 3405 015c 0B       		.uleb128 0xb
 3406 015d 39       		.uleb128 0x39
 3407 015e 0B       		.uleb128 0xb
 3408 015f 49       		.uleb128 0x49
 3409 0160 13       		.uleb128 0x13
 3410 0161 02       		.uleb128 0x2
 3411 0162 18       		.uleb128 0x18
 3412 0163 00       		.byte	0
 3413 0164 00       		.byte	0
 3414 0165 18       		.uleb128 0x18
 3415 0166 11       		.uleb128 0x11
 3416 0167 01       		.byte	0x1
 3417 0168 25       		.uleb128 0x25
 3418 0169 0E       		.uleb128 0xe
 3419 016a 13       		.uleb128 0x13
 3420 016b 0B       		.uleb128 0xb
ARM GAS  C:\Users\DEVELO~1\AppData\Local\Temp\ccJ56Rgi.s 			page 61


 3421 016c 03       		.uleb128 0x3
 3422 016d 0E       		.uleb128 0xe
 3423 016e 1B       		.uleb128 0x1b
 3424 016f 0E       		.uleb128 0xe
 3425 0170 55       		.uleb128 0x55
 3426 0171 17       		.uleb128 0x17
 3427 0172 11       		.uleb128 0x11
 3428 0173 01       		.uleb128 0x1
 3429 0174 10       		.uleb128 0x10
 3430 0175 17       		.uleb128 0x17
 3431 0176 00       		.byte	0
 3432 0177 00       		.byte	0
 3433 0178 19       		.uleb128 0x19
 3434 0179 24       		.uleb128 0x24
 3435 017a 00       		.byte	0
 3436 017b 0B       		.uleb128 0xb
 3437 017c 0B       		.uleb128 0xb
 3438 017d 3E       		.uleb128 0x3e
 3439 017e 0B       		.uleb128 0xb
 3440 017f 03       		.uleb128 0x3
 3441 0180 08       		.uleb128 0x8
 3442 0181 00       		.byte	0
 3443 0182 00       		.byte	0
 3444 0183 1A       		.uleb128 0x1a
 3445 0184 0F       		.uleb128 0xf
 3446 0185 00       		.byte	0
 3447 0186 0B       		.uleb128 0xb
 3448 0187 0B       		.uleb128 0xb
 3449 0188 00       		.byte	0
 3450 0189 00       		.byte	0
 3451 018a 1B       		.uleb128 0x1b
 3452 018b 04       		.uleb128 0x4
 3453 018c 01       		.byte	0x1
 3454 018d 3E       		.uleb128 0x3e
 3455 018e 0B       		.uleb128 0xb
 3456 018f 0B       		.uleb128 0xb
 3457 0190 0B       		.uleb128 0xb
 3458 0191 49       		.uleb128 0x49
 3459 0192 13       		.uleb128 0x13
 3460 0193 3A       		.uleb128 0x3a
 3461 0194 0B       		.uleb128 0xb
 3462 0195 3B       		.uleb128 0x3b
 3463 0196 0B       		.uleb128 0xb
 3464 0197 39       		.uleb128 0x39
 3465 0198 0B       		.uleb128 0xb
 3466 0199 01       		.uleb128 0x1
 3467 019a 13       		.uleb128 0x13
 3468 019b 00       		.byte	0
 3469 019c 00       		.byte	0
 3470 019d 1C       		.uleb128 0x1c
 3471 019e 13       		.uleb128 0x13
 3472 019f 01       		.byte	0x1
 3473 01a0 0B       		.uleb128 0xb
 3474 01a1 0B       		.uleb128 0xb
 3475 01a2 3A       		.uleb128 0x3a
 3476 01a3 0B       		.uleb128 0xb
 3477 01a4 3B       		.uleb128 0x3b
ARM GAS  C:\Users\DEVELO~1\AppData\Local\Temp\ccJ56Rgi.s 			page 62


 3478 01a5 0B       		.uleb128 0xb
 3479 01a6 39       		.uleb128 0x39
 3480 01a7 0B       		.uleb128 0xb
 3481 01a8 01       		.uleb128 0x1
 3482 01a9 13       		.uleb128 0x13
 3483 01aa 00       		.byte	0
 3484 01ab 00       		.byte	0
 3485 01ac 1D       		.uleb128 0x1d
 3486 01ad 13       		.uleb128 0x13
 3487 01ae 01       		.byte	0x1
 3488 01af 03       		.uleb128 0x3
 3489 01b0 0E       		.uleb128 0xe
 3490 01b1 0B       		.uleb128 0xb
 3491 01b2 0B       		.uleb128 0xb
 3492 01b3 3A       		.uleb128 0x3a
 3493 01b4 0B       		.uleb128 0xb
 3494 01b5 3B       		.uleb128 0x3b
 3495 01b6 05       		.uleb128 0x5
 3496 01b7 39       		.uleb128 0x39
 3497 01b8 0B       		.uleb128 0xb
 3498 01b9 01       		.uleb128 0x1
 3499 01ba 13       		.uleb128 0x13
 3500 01bb 00       		.byte	0
 3501 01bc 00       		.byte	0
 3502 01bd 1E       		.uleb128 0x1e
 3503 01be 2E       		.uleb128 0x2e
 3504 01bf 01       		.byte	0x1
 3505 01c0 3F       		.uleb128 0x3f
 3506 01c1 19       		.uleb128 0x19
 3507 01c2 03       		.uleb128 0x3
 3508 01c3 0E       		.uleb128 0xe
 3509 01c4 3A       		.uleb128 0x3a
 3510 01c5 0B       		.uleb128 0xb
 3511 01c6 3B       		.uleb128 0x3b
 3512 01c7 05       		.uleb128 0x5
 3513 01c8 39       		.uleb128 0x39
 3514 01c9 0B       		.uleb128 0xb
 3515 01ca 27       		.uleb128 0x27
 3516 01cb 19       		.uleb128 0x19
 3517 01cc 11       		.uleb128 0x11
 3518 01cd 01       		.uleb128 0x1
 3519 01ce 12       		.uleb128 0x12
 3520 01cf 06       		.uleb128 0x6
 3521 01d0 40       		.uleb128 0x40
 3522 01d1 18       		.uleb128 0x18
 3523 01d2 7C       		.uleb128 0x7c
 3524 01d3 19       		.uleb128 0x19
 3525 01d4 01       		.uleb128 0x1
 3526 01d5 13       		.uleb128 0x13
 3527 01d6 00       		.byte	0
 3528 01d7 00       		.byte	0
 3529 01d8 1F       		.uleb128 0x1f
 3530 01d9 2E       		.uleb128 0x2e
 3531 01da 01       		.byte	0x1
 3532 01db 3F       		.uleb128 0x3f
 3533 01dc 19       		.uleb128 0x19
 3534 01dd 03       		.uleb128 0x3
ARM GAS  C:\Users\DEVELO~1\AppData\Local\Temp\ccJ56Rgi.s 			page 63


 3535 01de 0E       		.uleb128 0xe
 3536 01df 3A       		.uleb128 0x3a
 3537 01e0 0B       		.uleb128 0xb
 3538 01e1 3B       		.uleb128 0x3b
 3539 01e2 0B       		.uleb128 0xb
 3540 01e3 39       		.uleb128 0x39
 3541 01e4 0B       		.uleb128 0xb
 3542 01e5 27       		.uleb128 0x27
 3543 01e6 19       		.uleb128 0x19
 3544 01e7 49       		.uleb128 0x49
 3545 01e8 13       		.uleb128 0x13
 3546 01e9 11       		.uleb128 0x11
 3547 01ea 01       		.uleb128 0x1
 3548 01eb 12       		.uleb128 0x12
 3549 01ec 06       		.uleb128 0x6
 3550 01ed 40       		.uleb128 0x40
 3551 01ee 18       		.uleb128 0x18
 3552 01ef 7C       		.uleb128 0x7c
 3553 01f0 19       		.uleb128 0x19
 3554 01f1 01       		.uleb128 0x1
 3555 01f2 13       		.uleb128 0x13
 3556 01f3 00       		.byte	0
 3557 01f4 00       		.byte	0
 3558 01f5 00       		.byte	0
 3559              		.section	.debug_aranges,"",%progbits
 3560 0000 54000000 		.4byte	0x54
 3561 0004 0200     		.2byte	0x2
 3562 0006 00000000 		.4byte	.Ldebug_info0
 3563 000a 04       		.byte	0x4
 3564 000b 00       		.byte	0
 3565 000c 0000     		.2byte	0
 3566 000e 0000     		.2byte	0
 3567 0010 00000000 		.4byte	.LFB432
 3568 0014 82000000 		.4byte	.LFE432-.LFB432
 3569 0018 00000000 		.4byte	.LFB433
 3570 001c 72000000 		.4byte	.LFE433-.LFB433
 3571 0020 00000000 		.4byte	.LFB434
 3572 0024 36000000 		.4byte	.LFE434-.LFB434
 3573 0028 00000000 		.4byte	.LFB435
 3574 002c 06010000 		.4byte	.LFE435-.LFB435
 3575 0030 00000000 		.4byte	.LFB436
 3576 0034 18010000 		.4byte	.LFE436-.LFB436
 3577 0038 00000000 		.4byte	.LFB437
 3578 003c 50020000 		.4byte	.LFE437-.LFB437
 3579 0040 00000000 		.4byte	.LFB438
 3580 0044 DA010000 		.4byte	.LFE438-.LFB438
 3581 0048 00000000 		.4byte	.LFB439
 3582 004c C6010000 		.4byte	.LFE439-.LFB439
 3583 0050 00000000 		.4byte	0
 3584 0054 00000000 		.4byte	0
 3585              		.section	.debug_rnglists,"",%progbits
 3586              	.Ldebug_ranges0:
 3587 0000 3F000000 		.4byte	.Ldebug_ranges3-.Ldebug_ranges2
 3588              	.Ldebug_ranges2:
 3589 0004 0500     		.2byte	0x5
 3590 0006 04       		.byte	0x4
 3591 0007 00       		.byte	0
ARM GAS  C:\Users\DEVELO~1\AppData\Local\Temp\ccJ56Rgi.s 			page 64


 3592 0008 00000000 		.4byte	0
 3593              	.LLRL0:
 3594 000c 07       		.byte	0x7
 3595 000d 00000000 		.4byte	.LFB432
 3596 0011 8201     		.uleb128 .LFE432-.LFB432
 3597 0013 07       		.byte	0x7
 3598 0014 00000000 		.4byte	.LFB433
 3599 0018 72       		.uleb128 .LFE433-.LFB433
 3600 0019 07       		.byte	0x7
 3601 001a 00000000 		.4byte	.LFB434
 3602 001e 36       		.uleb128 .LFE434-.LFB434
 3603 001f 07       		.byte	0x7
 3604 0020 00000000 		.4byte	.LFB435
 3605 0024 8602     		.uleb128 .LFE435-.LFB435
 3606 0026 07       		.byte	0x7
 3607 0027 00000000 		.4byte	.LFB436
 3608 002b 9802     		.uleb128 .LFE436-.LFB436
 3609 002d 07       		.byte	0x7
 3610 002e 00000000 		.4byte	.LFB437
 3611 0032 D004     		.uleb128 .LFE437-.LFB437
 3612 0034 07       		.byte	0x7
 3613 0035 00000000 		.4byte	.LFB438
 3614 0039 DA03     		.uleb128 .LFE438-.LFB438
 3615 003b 07       		.byte	0x7
 3616 003c 00000000 		.4byte	.LFB439
 3617 0040 C603     		.uleb128 .LFE439-.LFB439
 3618 0042 00       		.byte	0
 3619              	.Ldebug_ranges3:
 3620              		.section	.debug_line,"",%progbits
 3621              	.Ldebug_line0:
 3622 0000 9C060000 		.section	.debug_str,"MS",%progbits,1
 3622      0300A301 
 3622      00000201 
 3622      FB0E0D00 
 3622      01010101 
 3623              	.LASF31:
 3624 0000 426C6F63 		.ascii	"BlockDeviceInfo\000"
 3624      6B446576 
 3624      69636549 
 3624      6E666F00 
 3625              	.LASF42:
 3626 0010 63617061 		.ascii	"capacity\000"
 3626      63697479 
 3626      00
 3627              	.LASF93:
 3628 0019 5F6D6D63 		.ascii	"_mmcsd_unpack_mmc_cid\000"
 3628      73645F75 
 3628      6E706163 
 3628      6B5F6D6D 
 3628      635F6369 
 3629              	.LASF4:
 3630 002f 73697A65 		.ascii	"size_t\000"
 3630      5F7400
 3631              	.LASF30:
 3632 0036 626C6B5F 		.ascii	"blk_num\000"
 3632      6E756D00 
 3633              	.LASF5:
ARM GAS  C:\Users\DEVELO~1\AppData\Local\Temp\ccJ56Rgi.s 			page 65


 3634 003e 5F5F7569 		.ascii	"__uint8_t\000"
 3634      6E74385F 
 3634      7400
 3635              	.LASF84:
 3636 0048 756E7061 		.ascii	"unpacked_mmc_csd_t\000"
 3636      636B6564 
 3636      5F6D6D63 
 3636      5F637364 
 3636      5F7400
 3637              	.LASF96:
 3638 005b 63696473 		.ascii	"cidsdc\000"
 3638      646300
 3639              	.LASF13:
 3640 0062 6C6F6E67 		.ascii	"long long unsigned int\000"
 3640      206C6F6E 
 3640      6720756E 
 3640      7369676E 
 3640      65642069 
 3641              	.LASF95:
 3642 0079 5F6D6D63 		.ascii	"_mmcsd_unpack_sdc_cid\000"
 3642      73645F75 
 3642      6E706163 
 3642      6B5F7364 
 3642      635F6369 
 3643              	.LASF40:
 3644 008f 6765745F 		.ascii	"get_info\000"
 3644      696E666F 
 3644      00
 3645              	.LASF100:
 3646 0098 5F6D6D63 		.ascii	"_mmcsd_get_slice\000"
 3646      73645F67 
 3646      65745F73 
 3646      6C696365 
 3646      00
 3647              	.LASF50:
 3648 00a9 6373645F 		.ascii	"csd_structure\000"
 3648      73747275 
 3648      63747572 
 3648      6500
 3649              	.LASF26:
 3650 00b7 424C4B5F 		.ascii	"BLK_WRITING\000"
 3650      57524954 
 3650      494E4700 
 3651              	.LASF1:
 3652 00c3 6C6F6E67 		.ascii	"long long int\000"
 3652      206C6F6E 
 3652      6720696E 
 3652      7400
 3653              	.LASF3:
 3654 00d1 7369676E 		.ascii	"signed char\000"
 3654      65642063 
 3654      68617200 
 3655              	.LASF33:
 3656 00dd 69735F69 		.ascii	"is_inserted\000"
 3656      6E736572 
 3656      74656400 
 3657              	.LASF28:
ARM GAS  C:\Users\DEVELO~1\AppData\Local\Temp\ccJ56Rgi.s 			page 66


 3658 00e9 626C6B73 		.ascii	"blkstate_t\000"
 3658      74617465 
 3658      5F7400
 3659              	.LASF99:
 3660 00f4 5F6D6D63 		.ascii	"_mmcsd_get_capacity\000"
 3660      73645F67 
 3660      65745F63 
 3660      61706163 
 3660      69747900 
 3661              	.LASF36:
 3662 0108 64697363 		.ascii	"disconnect\000"
 3662      6F6E6E65 
 3662      637400
 3663              	.LASF107:
 3664 0113 474E5520 		.ascii	"GNU C17 11.3.1 20220712 -mcpu=cortex-m7 -mthumb -mf"
 3664      43313720 
 3664      31312E33 
 3664      2E312032 
 3664      30323230 
 3665 0146 6C6F6174 		.ascii	"loat-abi=soft -march=armv7e-m -ggdb -O0 -ffunction-"
 3665      2D616269 
 3665      3D736F66 
 3665      74202D6D 
 3665      61726368 
 3666 0179 73656374 		.ascii	"sections -fdata-sections -fno-common\000"
 3666      696F6E73 
 3666      202D6664 
 3666      6174612D 
 3666      73656374 
 3667              	.LASF20:
 3668 019e 424C4B5F 		.ascii	"BLK_STOP\000"
 3668      53544F50 
 3668      00
 3669              	.LASF60:
 3670 01a7 7664645F 		.ascii	"vdd_r_curr_min\000"
 3670      725F6375 
 3670      72725F6D 
 3670      696E00
 3671              	.LASF19:
 3672 01b6 424C4B5F 		.ascii	"BLK_UNINIT\000"
 3672      554E494E 
 3672      495400
 3673              	.LASF41:
 3674 01c1 73746174 		.ascii	"state\000"
 3674      6500
 3675              	.LASF10:
 3676 01c7 6C6F6E67 		.ascii	"long int\000"
 3676      20696E74 
 3676      00
 3677              	.LASF68:
 3678 01d0 77705F67 		.ascii	"wp_grp_enable\000"
 3678      72705F65 
 3678      6E61626C 
 3678      6500
 3679              	.LASF15:
 3680 01de 75696E74 		.ascii	"uint16_t\000"
 3680      31365F74 
ARM GAS  C:\Users\DEVELO~1\AppData\Local\Temp\ccJ56Rgi.s 			page 67


 3680      00
 3681              	.LASF91:
 3682 01e7 5F6D6D63 		.ascii	"_mmcsd_unpack_csd_mmc\000"
 3682      73645F75 
 3682      6E706163 
 3682      6B5F6373 
 3682      645F6D6D 
 3683              	.LASF106:
 3684 01fd 656E646D 		.ascii	"endmask\000"
 3684      61736B00 
 3685              	.LASF8:
 3686 0205 5F5F7569 		.ascii	"__uint16_t\000"
 3686      6E743136 
 3686      5F7400
 3687              	.LASF11:
 3688 0210 5F5F7569 		.ascii	"__uint32_t\000"
 3688      6E743332 
 3688      5F7400
 3689              	.LASF85:
 3690 021b 73646370 		.ascii	"sdcp\000"
 3690      00
 3691              	.LASF72:
 3692 0220 66696C65 		.ascii	"file_format_grp\000"
 3692      5F666F72 
 3692      6D61745F 
 3692      67727000 
 3693              	.LASF0:
 3694 0230 756E7369 		.ascii	"unsigned int\000"
 3694      676E6564 
 3694      20696E74 
 3694      00
 3695              	.LASF70:
 3696 023d 77726974 		.ascii	"write_bl_len\000"
 3696      655F626C 
 3696      5F6C656E 
 3696      00
 3697              	.LASF12:
 3698 024a 6C6F6E67 		.ascii	"long unsigned int\000"
 3698      20756E73 
 3698      69676E65 
 3698      6420696E 
 3698      7400
 3699              	.LASF109:
 3700 025c 433A5C50 		.ascii	"C:\\PROJET\\ChibiOS project\\ChibiOS_21.11.4\\demos"
 3700      524F4A45 
 3700      545C4368 
 3700      6962694F 
 3700      53207072 
 3701 028b 5C53544D 		.ascii	"\\STM32\\RT-STM32H743ZI_REV_XY-NUCLEO144_Quartz8M\000"
 3701      33325C52 
 3701      542D5354 
 3701      4D333248 
 3701      3734335A 
 3702              	.LASF101:
 3703 02bb 64617461 		.ascii	"data\000"
 3703      00
 3704              	.LASF9:
ARM GAS  C:\Users\DEVELO~1\AppData\Local\Temp\ccJ56Rgi.s 			page 68


 3705 02c0 73686F72 		.ascii	"short unsigned int\000"
 3705      7420756E 
 3705      7369676E 
 3705      65642069 
 3705      6E7400
 3706              	.LASF21:
 3707 02d3 424C4B5F 		.ascii	"BLK_ACTIVE\000"
 3707      41435449 
 3707      564500
 3708              	.LASF94:
 3709 02de 6369646D 		.ascii	"cidmmc\000"
 3709      6D6300
 3710              	.LASF22:
 3711 02e5 424C4B5F 		.ascii	"BLK_CONNECTING\000"
 3711      434F4E4E 
 3711      45435449 
 3711      4E4700
 3712              	.LASF51:
 3713 02f4 74616163 		.ascii	"taac\000"
 3713      00
 3714              	.LASF71:
 3715 02f9 77726974 		.ascii	"write_bl_partial\000"
 3715      655F626C 
 3715      5F706172 
 3715      7469616C 
 3715      00
 3716              	.LASF57:
 3717 030a 72656164 		.ascii	"read_blk_misalign\000"
 3717      5F626C6B 
 3717      5F6D6973 
 3717      616C6967 
 3717      6E00
 3718              	.LASF89:
 3719 031c 63736431 		.ascii	"csd10\000"
 3719      3000
 3720              	.LASF38:
 3721 0322 77726974 		.ascii	"write\000"
 3721      6500
 3722              	.LASF73:
 3723 0328 636F7079 		.ascii	"copy\000"
 3723      00
 3724              	.LASF67:
 3725 032d 77705F67 		.ascii	"wp_grp_size\000"
 3725      72705F73 
 3725      697A6500 
 3726              	.LASF25:
 3727 0339 424C4B5F 		.ascii	"BLK_READING\000"
 3727      52454144 
 3727      494E4700 
 3728              	.LASF59:
 3729 0345 635F7369 		.ascii	"c_size\000"
 3729      7A6500
 3730              	.LASF103:
 3731 034c 73746172 		.ascii	"startidx\000"
 3731      74696478 
 3731      00
 3732              	.LASF52:
ARM GAS  C:\Users\DEVELO~1\AppData\Local\Temp\ccJ56Rgi.s 			page 69


 3733 0355 6E736163 		.ascii	"nsac\000"
 3733      00
 3734              	.LASF98:
 3735 035a 5F6D6D63 		.ascii	"_mmcsd_get_capacity_ext\000"
 3735      73645F67 
 3735      65745F63 
 3735      61706163 
 3735      6974795F 
 3736              	.LASF24:
 3737 0372 424C4B5F 		.ascii	"BLK_READY\000"
 3737      52454144 
 3737      5900
 3738              	.LASF78:
 3739 037c 756E7061 		.ascii	"unpacked_sdc_csd_20_t\000"
 3739      636B6564 
 3739      5F736463 
 3739      5F637364 
 3739      5F32305F 
 3740              	.LASF86:
 3741 0392 63736432 		.ascii	"csd20\000"
 3741      3000
 3742              	.LASF97:
 3743 0398 6578745F 		.ascii	"ext_csd\000"
 3743      63736400 
 3744              	.LASF88:
 3745 03a0 5F6D6D63 		.ascii	"_mmcsd_unpack_csd_v10\000"
 3745      73645F75 
 3745      6E706163 
 3745      6B5F6373 
 3745      645F7631 
 3746              	.LASF104:
 3747 03b6 656E6469 		.ascii	"endidx\000"
 3747      647800
 3748              	.LASF74:
 3749 03bd 7065726D 		.ascii	"perm_write_protect\000"
 3749      5F777269 
 3749      74655F70 
 3749      726F7465 
 3749      637400
 3750              	.LASF49:
 3751 03d0 756E7061 		.ascii	"unpacked_mmc_cid_t\000"
 3751      636B6564 
 3751      5F6D6D63 
 3751      5F636964 
 3751      5F7400
 3752              	.LASF58:
 3753 03e3 6473725F 		.ascii	"dsr_imp\000"
 3753      696D7000 
 3754              	.LASF56:
 3755 03eb 77726974 		.ascii	"write_blk_misalign\000"
 3755      655F626C 
 3755      6B5F6D69 
 3755      73616C69 
 3755      676E00
 3756              	.LASF18:
 3757 03fe 5F426F6F 		.ascii	"_Bool\000"
 3757      6C00
ARM GAS  C:\Users\DEVELO~1\AppData\Local\Temp\ccJ56Rgi.s 			page 70


 3758              	.LASF69:
 3759 0404 7232775F 		.ascii	"r2w_factor\000"
 3759      66616374 
 3759      6F7200
 3760              	.LASF75:
 3761 040f 746D705F 		.ascii	"tmp_write_protect\000"
 3761      77726974 
 3761      655F7072 
 3761      6F746563 
 3761      7400
 3762              	.LASF105:
 3763 0421 73746172 		.ascii	"startoff\000"
 3763      746F6666 
 3763      00
 3764              	.LASF45:
 3765 042a 7072765F 		.ascii	"prv_m\000"
 3765      6D00
 3766              	.LASF44:
 3767 0430 7072765F 		.ascii	"prv_n\000"
 3767      6E00
 3768              	.LASF46:
 3769 0436 6D64745F 		.ascii	"mdt_m\000"
 3769      6D00
 3770              	.LASF90:
 3771 043c 5F5F6675 		.ascii	"__func__\000"
 3771      6E635F5F 
 3771      00
 3772              	.LASF108:
 3773 0445 2E2E2F2E 		.ascii	"../../../os/hal/src/hal_mmcsd.c\000"
 3773      2E2F2E2E 
 3773      2F6F732F 
 3773      68616C2F 
 3773      7372632F 
 3774              	.LASF80:
 3775 0465 65726173 		.ascii	"erase_grp_size\000"
 3775      655F6772 
 3775      705F7369 
 3775      7A6500
 3776              	.LASF77:
 3777 0474 756E7061 		.ascii	"unpacked_sdc_csd_10_t\000"
 3777      636B6564 
 3777      5F736463 
 3777      5F637364 
 3777      5F31305F 
 3778              	.LASF47:
 3779 048a 6D64745F 		.ascii	"mdt_y\000"
 3779      7900
 3780              	.LASF35:
 3781 0490 636F6E6E 		.ascii	"connect\000"
 3781      65637400 
 3782              	.LASF61:
 3783 0498 7664645F 		.ascii	"vdd_r_curr_max\000"
 3783      725F6375 
 3783      72725F6D 
 3783      617800
 3784              	.LASF110:
 3785 04a7 4D4D4353 		.ascii	"MMCSDBlockDeviceVMT\000"
ARM GAS  C:\Users\DEVELO~1\AppData\Local\Temp\ccJ56Rgi.s 			page 71


 3785      44426C6F 
 3785      636B4465 
 3785      76696365 
 3785      564D5400 
 3786              	.LASF55:
 3787 04bb 72656164 		.ascii	"read_bl_partial\000"
 3787      5F626C5F 
 3787      70617274 
 3787      69616C00 
 3788              	.LASF87:
 3789 04cb 5F6D6D63 		.ascii	"_mmcsd_unpack_csd_v20\000"
 3789      73645F75 
 3789      6E706163 
 3789      6B5F6373 
 3789      645F7632 
 3790              	.LASF43:
 3791 04e1 4D4D4353 		.ascii	"MMCSDBlockDevice\000"
 3791      44426C6F 
 3791      636B4465 
 3791      76696365 
 3791      00
 3792              	.LASF2:
 3793 04f2 6C6F6E67 		.ascii	"long double\000"
 3793      20646F75 
 3793      626C6500 
 3794              	.LASF17:
 3795 04fe 63686172 		.ascii	"char\000"
 3795      00
 3796              	.LASF79:
 3797 0503 73706563 		.ascii	"spec_vers\000"
 3797      5F766572 
 3797      7300
 3798              	.LASF23:
 3799 050d 424C4B5F 		.ascii	"BLK_DISCONNECTING\000"
 3799      44495343 
 3799      4F4E4E45 
 3799      4354494E 
 3799      4700
 3800              	.LASF92:
 3801 051f 6373646D 		.ascii	"csdmmc\000"
 3801      6D6300
 3802              	.LASF53:
 3803 0526 7472616E 		.ascii	"tran_speed\000"
 3803      5F737065 
 3803      656400
 3804              	.LASF7:
 3805 0531 73686F72 		.ascii	"short int\000"
 3805      7420696E 
 3805      7400
 3806              	.LASF29:
 3807 053b 626C6B5F 		.ascii	"blk_size\000"
 3807      73697A65 
 3807      00
 3808              	.LASF14:
 3809 0544 75696E74 		.ascii	"uint8_t\000"
 3809      385F7400 
 3810              	.LASF65:
ARM GAS  C:\Users\DEVELO~1\AppData\Local\Temp\ccJ56Rgi.s 			page 72


 3811 054c 65726173 		.ascii	"erase_blk_en\000"
 3811      655F626C 
 3811      6B5F656E 
 3811      00
 3812              	.LASF82:
 3813 0559 64656661 		.ascii	"default_ecc\000"
 3813      756C745F 
 3813      65636300 
 3814              	.LASF6:
 3815 0565 756E7369 		.ascii	"unsigned char\000"
 3815      676E6564 
 3815      20636861 
 3815      7200
 3816              	.LASF34:
 3817 0573 69735F70 		.ascii	"is_protected\000"
 3817      726F7465 
 3817      63746564 
 3817      00
 3818              	.LASF76:
 3819 0580 66696C65 		.ascii	"file_format\000"
 3819      5F666F72 
 3819      6D617400 
 3820              	.LASF16:
 3821 058c 75696E74 		.ascii	"uint32_t\000"
 3821      33325F74 
 3821      00
 3822              	.LASF63:
 3823 0595 7664645F 		.ascii	"vdd_w_curr_max\000"
 3823      775F6375 
 3823      72725F6D 
 3823      617800
 3824              	.LASF64:
 3825 05a4 635F7369 		.ascii	"c_size_mult\000"
 3825      7A655F6D 
 3825      756C7400 
 3826              	.LASF27:
 3827 05b0 424C4B5F 		.ascii	"BLK_SYNCING\000"
 3827      53594E43 
 3827      494E4700 
 3828              	.LASF83:
 3829 05bc 636F6E74 		.ascii	"content_prot_app\000"
 3829      656E745F 
 3829      70726F74 
 3829      5F617070 
 3829      00
 3830              	.LASF54:
 3831 05cd 72656164 		.ascii	"read_bl_len\000"
 3831      5F626C5F 
 3831      6C656E00 
 3832              	.LASF62:
 3833 05d9 7664645F 		.ascii	"vdd_w_curr_min\000"
 3833      775F6375 
 3833      72725F6D 
 3833      696E00
 3834              	.LASF39:
 3835 05e8 73796E63 		.ascii	"sync\000"
 3835      00
ARM GAS  C:\Users\DEVELO~1\AppData\Local\Temp\ccJ56Rgi.s 			page 73


 3836              	.LASF37:
 3837 05ed 72656164 		.ascii	"read\000"
 3837      00
 3838              	.LASF48:
 3839 05f2 756E7061 		.ascii	"unpacked_sdc_cid_t\000"
 3839      636B6564 
 3839      5F736463 
 3839      5F636964 
 3839      5F7400
 3840              	.LASF81:
 3841 0605 65726173 		.ascii	"erase_grp_mult\000"
 3841      655F6772 
 3841      705F6D75 
 3841      6C7400
 3842              	.LASF102:
 3843 0614 73746172 		.ascii	"start\000"
 3843      7400
 3844              	.LASF32:
 3845 061a 696E7374 		.ascii	"instance_offset\000"
 3845      616E6365 
 3845      5F6F6666 
 3845      73657400 
 3846              	.LASF66:
 3847 062a 65726173 		.ascii	"erase_sector_size\000"
 3847      655F7365 
 3847      63746F72 
 3847      5F73697A 
 3847      6500
 3848              		.ident	"GCC: (Arm GNU Toolchain 11.3.Rel1) 11.3.1 20220712"
ARM GAS  C:\Users\DEVELO~1\AppData\Local\Temp\ccJ56Rgi.s 			page 74


DEFINED SYMBOLS
                            *ABS*:00000000 hal_mmcsd.c
C:\Users\DEVELO~1\AppData\Local\Temp\ccJ56Rgi.s:18     .text._mmcsd_get_slice:00000000 $t
C:\Users\DEVELO~1\AppData\Local\Temp\ccJ56Rgi.s:24     .text._mmcsd_get_slice:00000000 _mmcsd_get_slice
C:\Users\DEVELO~1\AppData\Local\Temp\ccJ56Rgi.s:125    .text._mmcsd_get_capacity:00000000 $t
C:\Users\DEVELO~1\AppData\Local\Temp\ccJ56Rgi.s:131    .text._mmcsd_get_capacity:00000000 _mmcsd_get_capacity
C:\Users\DEVELO~1\AppData\Local\Temp\ccJ56Rgi.s:219    .text._mmcsd_get_capacity_ext:00000000 $t
C:\Users\DEVELO~1\AppData\Local\Temp\ccJ56Rgi.s:225    .text._mmcsd_get_capacity_ext:00000000 _mmcsd_get_capacity_ext
C:\Users\DEVELO~1\AppData\Local\Temp\ccJ56Rgi.s:283    .text._mmcsd_unpack_sdc_cid:00000000 $t
C:\Users\DEVELO~1\AppData\Local\Temp\ccJ56Rgi.s:289    .text._mmcsd_unpack_sdc_cid:00000000 _mmcsd_unpack_sdc_cid
C:\Users\DEVELO~1\AppData\Local\Temp\ccJ56Rgi.s:465    .text._mmcsd_unpack_mmc_cid:00000000 $t
C:\Users\DEVELO~1\AppData\Local\Temp\ccJ56Rgi.s:471    .text._mmcsd_unpack_mmc_cid:00000000 _mmcsd_unpack_mmc_cid
C:\Users\DEVELO~1\AppData\Local\Temp\ccJ56Rgi.s:658    .text._mmcsd_unpack_csd_mmc:00000000 $t
C:\Users\DEVELO~1\AppData\Local\Temp\ccJ56Rgi.s:664    .text._mmcsd_unpack_csd_mmc:00000000 _mmcsd_unpack_csd_mmc
C:\Users\DEVELO~1\AppData\Local\Temp\ccJ56Rgi.s:1037   .text._mmcsd_unpack_csd_v10:00000000 $t
C:\Users\DEVELO~1\AppData\Local\Temp\ccJ56Rgi.s:1043   .text._mmcsd_unpack_csd_v10:00000000 _mmcsd_unpack_csd_v10
C:\Users\DEVELO~1\AppData\Local\Temp\ccJ56Rgi.s:1350   .text._mmcsd_unpack_csd_v20:00000000 $t
C:\Users\DEVELO~1\AppData\Local\Temp\ccJ56Rgi.s:1356   .text._mmcsd_unpack_csd_v20:00000000 _mmcsd_unpack_csd_v20

NO UNDEFINED SYMBOLS
