ARM GAS  C:\Users\DEVELO~1\AppData\Local\Temp\ccW4vRdT.s 			page 1


   1              		.cpu cortex-m7
   2              		.arch armv7e-m
   3              		.fpu softvfp
   4              		.eabi_attribute 20, 1
   5              		.eabi_attribute 21, 1
   6              		.eabi_attribute 23, 3
   7              		.eabi_attribute 24, 1
   8              		.eabi_attribute 25, 1
   9              		.eabi_attribute 26, 1
  10              		.eabi_attribute 30, 6
  11              		.eabi_attribute 34, 1
  12              		.eabi_attribute 18, 4
  13              		.file	"hal_gpt.c"
  14              		.text
  15              	.Ltext0:
  16              		.cfi_sections	.debug_frame
  17              		.section	.text.chSysLock,"ax",%progbits
  18              		.align	1
  19              		.syntax unified
  20              		.thumb
  21              		.thumb_func
  22              		.type	chSysLock, %function
  23              	chSysLock:
  24              	.LFB202:
  25              		.file 1 "../../../os/rt/include/chsys.h"
  26              		.loc 1 407 36
  27              		.cfi_startproc
  28              		@ args = 0, pretend = 0, frame = 8
  29              		@ frame_needed = 1, uses_anonymous_args = 0
  30              		@ link register save eliminated.
  31 0000 80B4     		push	{r7}
  32              		.cfi_def_cfa_offset 4
  33              		.cfi_offset 7, -4
  34 0002 83B0     		sub	sp, sp, #12
  35              		.cfi_def_cfa_offset 16
  36 0004 00AF     		add	r7, sp, #0
  37              		.cfi_def_cfa_register 7
  38 0006 3023     		movs	r3, #48
  39 0008 7B60     		str	r3, [r7, #4]
  40              	.LBB14:
  41              	.LBB15:
  42              	.LBB16:
  43              	.LBB17:
  44              		.file 2 "../../../os/common/ext/ARM/CMSIS/Core/Include/cmsis_gcc.h"
  45              		.loc 2 493 3
  46 000a 7B68     		ldr	r3, [r7, #4]
  47              		.syntax unified
  48              	@ 493 "../../../os/common/ext/ARM/CMSIS/Core/Include/cmsis_gcc.h" 1
  49 000c 83F31188 		MSR basepri, r3
  50              	@ 0 "" 2
  51              		.loc 2 494 1
  52              		.thumb
  53              		.syntax unified
  54 0010 00BF     		nop
  55              	.LBE17:
  56              	.LBE16:
  57              		.file 3 "../../../os/common/ports/ARMv7-M/chcore.h"
ARM GAS  C:\Users\DEVELO~1\AppData\Local\Temp\ccW4vRdT.s 			page 2


  58              		.loc 3 840 1
  59 0012 00BF     		nop
  60              	.LBE15:
  61              	.LBE14:
  62              		.loc 1 412 1
  63 0014 00BF     		nop
  64 0016 0C37     		adds	r7, r7, #12
  65              		.cfi_def_cfa_offset 4
  66 0018 BD46     		mov	sp, r7
  67              		.cfi_def_cfa_register 13
  68              		@ sp needed
  69 001a 80BC     		pop	{r7}
  70              		.cfi_restore 7
  71              		.cfi_def_cfa_offset 0
  72 001c 7047     		bx	lr
  73              		.cfi_endproc
  74              	.LFE202:
  75              		.size	chSysLock, .-chSysLock
  76              		.section	.text.chSysUnlock,"ax",%progbits
  77              		.align	1
  78              		.syntax unified
  79              		.thumb
  80              		.thumb_func
  81              		.type	chSysUnlock, %function
  82              	chSysUnlock:
  83              	.LFB203:
  84              		.loc 1 421 38
  85              		.cfi_startproc
  86              		@ args = 0, pretend = 0, frame = 8
  87              		@ frame_needed = 1, uses_anonymous_args = 0
  88              		@ link register save eliminated.
  89 0000 80B4     		push	{r7}
  90              		.cfi_def_cfa_offset 4
  91              		.cfi_offset 7, -4
  92 0002 83B0     		sub	sp, sp, #12
  93              		.cfi_def_cfa_offset 16
  94 0004 00AF     		add	r7, sp, #0
  95              		.cfi_def_cfa_register 7
  96 0006 0023     		movs	r3, #0
  97 0008 7B60     		str	r3, [r7, #4]
  98              	.LBB18:
  99              	.LBB19:
 100              	.LBB20:
 101              	.LBB21:
 102              		.loc 2 493 3
 103 000a 7B68     		ldr	r3, [r7, #4]
 104              		.syntax unified
 105              	@ 493 "../../../os/common/ext/ARM/CMSIS/Core/Include/cmsis_gcc.h" 1
 106 000c 83F31188 		MSR basepri, r3
 107              	@ 0 "" 2
 108              		.loc 2 494 1
 109              		.thumb
 110              		.syntax unified
 111 0010 00BF     		nop
 112              	.LBE21:
 113              	.LBE20:
 114              		.loc 3 854 1
ARM GAS  C:\Users\DEVELO~1\AppData\Local\Temp\ccW4vRdT.s 			page 3


 115 0012 00BF     		nop
 116              	.LBE19:
 117              	.LBE18:
 118              		.loc 1 435 1
 119 0014 00BF     		nop
 120 0016 0C37     		adds	r7, r7, #12
 121              		.cfi_def_cfa_offset 4
 122 0018 BD46     		mov	sp, r7
 123              		.cfi_def_cfa_register 13
 124              		@ sp needed
 125 001a 80BC     		pop	{r7}
 126              		.cfi_restore 7
 127              		.cfi_def_cfa_offset 0
 128 001c 7047     		bx	lr
 129              		.cfi_endproc
 130              	.LFE203:
 131              		.size	chSysUnlock, .-chSysUnlock
 132              		.section	.text.osalSysLock,"ax",%progbits
 133              		.align	1
 134              		.syntax unified
 135              		.thumb
 136              		.thumb_func
 137              		.type	osalSysLock, %function
 138              	osalSysLock:
 139              	.LFB350:
 140              		.file 4 "../../../os/hal/osal/rt-nil/osal.h"
 141              		.loc 4 573 38
 142              		.cfi_startproc
 143              		@ args = 0, pretend = 0, frame = 0
 144              		@ frame_needed = 1, uses_anonymous_args = 0
 145 0000 80B5     		push	{r7, lr}
 146              		.cfi_def_cfa_offset 8
 147              		.cfi_offset 7, -8
 148              		.cfi_offset 14, -4
 149 0002 00AF     		add	r7, sp, #0
 150              		.cfi_def_cfa_register 7
 151              		.loc 4 575 3
 152 0004 FFF7FEFF 		bl	chSysLock
 153              		.loc 4 576 1
 154 0008 00BF     		nop
 155 000a 80BD     		pop	{r7, pc}
 156              		.cfi_endproc
 157              	.LFE350:
 158              		.size	osalSysLock, .-osalSysLock
 159              		.section	.text.osalSysUnlock,"ax",%progbits
 160              		.align	1
 161              		.syntax unified
 162              		.thumb
 163              		.thumb_func
 164              		.type	osalSysUnlock, %function
 165              	osalSysUnlock:
 166              	.LFB351:
 167              		.loc 4 584 40
 168              		.cfi_startproc
 169              		@ args = 0, pretend = 0, frame = 0
 170              		@ frame_needed = 1, uses_anonymous_args = 0
 171 0000 80B5     		push	{r7, lr}
ARM GAS  C:\Users\DEVELO~1\AppData\Local\Temp\ccW4vRdT.s 			page 4


 172              		.cfi_def_cfa_offset 8
 173              		.cfi_offset 7, -8
 174              		.cfi_offset 14, -4
 175 0002 00AF     		add	r7, sp, #0
 176              		.cfi_def_cfa_register 7
 177              		.loc 4 586 3
 178 0004 FFF7FEFF 		bl	chSysUnlock
 179              		.loc 4 587 1
 180 0008 00BF     		nop
 181 000a 80BD     		pop	{r7, pc}
 182              		.cfi_endproc
 183              	.LFE351:
 184              		.size	osalSysUnlock, .-osalSysUnlock
 185              		.section	.text.gptInit,"ax",%progbits
 186              		.align	1
 187              		.global	gptInit
 188              		.syntax unified
 189              		.thumb
 190              		.thumb_func
 191              		.type	gptInit, %function
 192              	gptInit:
 193              	.LFB432:
 194              		.file 5 "../../../os/hal/src/hal_gpt.c"
 195              		.loc 5 56 20
 196              		.cfi_startproc
 197              		@ args = 0, pretend = 0, frame = 0
 198              		@ frame_needed = 1, uses_anonymous_args = 0
 199 0000 80B5     		push	{r7, lr}
 200              		.cfi_def_cfa_offset 8
 201              		.cfi_offset 7, -8
 202              		.cfi_offset 14, -4
 203 0002 00AF     		add	r7, sp, #0
 204              		.cfi_def_cfa_register 7
 205              		.loc 5 58 3
 206 0004 FFF7FEFF 		bl	gpt_lld_init
 207              		.loc 5 59 1
 208 0008 00BF     		nop
 209 000a 80BD     		pop	{r7, pc}
 210              		.cfi_endproc
 211              	.LFE432:
 212              		.size	gptInit, .-gptInit
 213              		.section	.text.gptObjectInit,"ax",%progbits
 214              		.align	1
 215              		.global	gptObjectInit
 216              		.syntax unified
 217              		.thumb
 218              		.thumb_func
 219              		.type	gptObjectInit, %function
 220              	gptObjectInit:
 221              	.LFB433:
 222              		.loc 5 68 37
 223              		.cfi_startproc
 224              		@ args = 0, pretend = 0, frame = 8
 225              		@ frame_needed = 1, uses_anonymous_args = 0
 226              		@ link register save eliminated.
 227 0000 80B4     		push	{r7}
 228              		.cfi_def_cfa_offset 4
ARM GAS  C:\Users\DEVELO~1\AppData\Local\Temp\ccW4vRdT.s 			page 5


 229              		.cfi_offset 7, -4
 230 0002 83B0     		sub	sp, sp, #12
 231              		.cfi_def_cfa_offset 16
 232 0004 00AF     		add	r7, sp, #0
 233              		.cfi_def_cfa_register 7
 234 0006 7860     		str	r0, [r7, #4]
 235              		.loc 5 70 16
 236 0008 7B68     		ldr	r3, [r7, #4]
 237 000a 0122     		movs	r2, #1
 238 000c 1A70     		strb	r2, [r3]
 239              		.loc 5 71 16
 240 000e 7B68     		ldr	r3, [r7, #4]
 241 0010 0022     		movs	r2, #0
 242 0012 5A60     		str	r2, [r3, #4]
 243              		.loc 5 72 1
 244 0014 00BF     		nop
 245 0016 0C37     		adds	r7, r7, #12
 246              		.cfi_def_cfa_offset 4
 247 0018 BD46     		mov	sp, r7
 248              		.cfi_def_cfa_register 13
 249              		@ sp needed
 250 001a 80BC     		pop	{r7}
 251              		.cfi_restore 7
 252              		.cfi_def_cfa_offset 0
 253 001c 7047     		bx	lr
 254              		.cfi_endproc
 255              	.LFE433:
 256              		.size	gptObjectInit, .-gptObjectInit
 257              		.section	.text.gptStart,"ax",%progbits
 258              		.align	1
 259              		.global	gptStart
 260              		.syntax unified
 261              		.thumb
 262              		.thumb_func
 263              		.type	gptStart, %function
 264              	gptStart:
 265              	.LFB434:
 266              		.loc 5 83 58
 267              		.cfi_startproc
 268              		@ args = 0, pretend = 0, frame = 16
 269              		@ frame_needed = 1, uses_anonymous_args = 0
 270 0000 80B5     		push	{r7, lr}
 271              		.cfi_def_cfa_offset 8
 272              		.cfi_offset 7, -8
 273              		.cfi_offset 14, -4
 274 0002 84B0     		sub	sp, sp, #16
 275              		.cfi_def_cfa_offset 24
 276 0004 00AF     		add	r7, sp, #0
 277              		.cfi_def_cfa_register 7
 278 0006 7860     		str	r0, [r7, #4]
 279 0008 3960     		str	r1, [r7]
 280              		.loc 5 88 3
 281 000a FFF7FEFF 		bl	osalSysLock
 282              		.loc 5 93 16
 283 000e 7B68     		ldr	r3, [r7, #4]
 284 0010 3A68     		ldr	r2, [r7]
 285 0012 5A60     		str	r2, [r3, #4]
ARM GAS  C:\Users\DEVELO~1\AppData\Local\Temp\ccW4vRdT.s 			page 6


 286              		.loc 5 104 3
 287 0014 7868     		ldr	r0, [r7, #4]
 288 0016 FFF7FEFF 		bl	gpt_lld_start
 289              		.loc 5 105 15
 290 001a 7B68     		ldr	r3, [r7, #4]
 291 001c 0222     		movs	r2, #2
 292 001e 1A70     		strb	r2, [r3]
 293              		.loc 5 106 7
 294 0020 0023     		movs	r3, #0
 295 0022 FB60     		str	r3, [r7, #12]
 296              		.loc 5 109 3
 297 0024 FFF7FEFF 		bl	osalSysUnlock
 298              		.loc 5 111 10
 299 0028 FB68     		ldr	r3, [r7, #12]
 300              		.loc 5 112 1
 301 002a 1846     		mov	r0, r3
 302 002c 1037     		adds	r7, r7, #16
 303              		.cfi_def_cfa_offset 8
 304 002e BD46     		mov	sp, r7
 305              		.cfi_def_cfa_register 13
 306              		@ sp needed
 307 0030 80BD     		pop	{r7, pc}
 308              		.cfi_endproc
 309              	.LFE434:
 310              		.size	gptStart, .-gptStart
 311              		.section	.text.gptStop,"ax",%progbits
 312              		.align	1
 313              		.global	gptStop
 314              		.syntax unified
 315              		.thumb
 316              		.thumb_func
 317              		.type	gptStop, %function
 318              	gptStop:
 319              	.LFB435:
 320              		.loc 5 121 31
 321              		.cfi_startproc
 322              		@ args = 0, pretend = 0, frame = 8
 323              		@ frame_needed = 1, uses_anonymous_args = 0
 324 0000 80B5     		push	{r7, lr}
 325              		.cfi_def_cfa_offset 8
 326              		.cfi_offset 7, -8
 327              		.cfi_offset 14, -4
 328 0002 82B0     		sub	sp, sp, #8
 329              		.cfi_def_cfa_offset 16
 330 0004 00AF     		add	r7, sp, #0
 331              		.cfi_def_cfa_register 7
 332 0006 7860     		str	r0, [r7, #4]
 333              		.loc 5 125 3
 334 0008 FFF7FEFF 		bl	osalSysLock
 335              		.loc 5 130 3
 336 000c 7868     		ldr	r0, [r7, #4]
 337 000e FFF7FEFF 		bl	gpt_lld_stop
 338              		.loc 5 131 16
 339 0012 7B68     		ldr	r3, [r7, #4]
 340 0014 0022     		movs	r2, #0
 341 0016 5A60     		str	r2, [r3, #4]
 342              		.loc 5 132 16
ARM GAS  C:\Users\DEVELO~1\AppData\Local\Temp\ccW4vRdT.s 			page 7


 343 0018 7B68     		ldr	r3, [r7, #4]
 344 001a 0122     		movs	r2, #1
 345 001c 1A70     		strb	r2, [r3]
 346              		.loc 5 134 3
 347 001e FFF7FEFF 		bl	osalSysUnlock
 348              		.loc 5 135 1
 349 0022 00BF     		nop
 350 0024 0837     		adds	r7, r7, #8
 351              		.cfi_def_cfa_offset 8
 352 0026 BD46     		mov	sp, r7
 353              		.cfi_def_cfa_register 13
 354              		@ sp needed
 355 0028 80BD     		pop	{r7, pc}
 356              		.cfi_endproc
 357              	.LFE435:
 358              		.size	gptStop, .-gptStop
 359              		.section	.text.gptChangeInterval,"ax",%progbits
 360              		.align	1
 361              		.global	gptChangeInterval
 362              		.syntax unified
 363              		.thumb
 364              		.thumb_func
 365              		.type	gptChangeInterval, %function
 366              	gptChangeInterval:
 367              	.LFB436:
 368              		.loc 5 148 60
 369              		.cfi_startproc
 370              		@ args = 0, pretend = 0, frame = 8
 371              		@ frame_needed = 1, uses_anonymous_args = 0
 372 0000 80B5     		push	{r7, lr}
 373              		.cfi_def_cfa_offset 8
 374              		.cfi_offset 7, -8
 375              		.cfi_offset 14, -4
 376 0002 82B0     		sub	sp, sp, #8
 377              		.cfi_def_cfa_offset 16
 378 0004 00AF     		add	r7, sp, #0
 379              		.cfi_def_cfa_register 7
 380 0006 7860     		str	r0, [r7, #4]
 381 0008 3960     		str	r1, [r7]
 382              		.loc 5 152 3
 383 000a FFF7FEFF 		bl	osalSysLock
 384              		.loc 5 155 3
 385 000e 7B68     		ldr	r3, [r7, #4]
 386 0010 DB68     		ldr	r3, [r3, #12]
 387 0012 3A68     		ldr	r2, [r7]
 388 0014 013A     		subs	r2, r2, #1
 389 0016 DA62     		str	r2, [r3, #44]
 390              		.loc 5 156 3
 391 0018 FFF7FEFF 		bl	osalSysUnlock
 392              		.loc 5 157 1
 393 001c 00BF     		nop
 394 001e 0837     		adds	r7, r7, #8
 395              		.cfi_def_cfa_offset 8
 396 0020 BD46     		mov	sp, r7
 397              		.cfi_def_cfa_register 13
 398              		@ sp needed
 399 0022 80BD     		pop	{r7, pc}
ARM GAS  C:\Users\DEVELO~1\AppData\Local\Temp\ccW4vRdT.s 			page 8


 400              		.cfi_endproc
 401              	.LFE436:
 402              		.size	gptChangeInterval, .-gptChangeInterval
 403              		.section	.text.gptStartContinuous,"ax",%progbits
 404              		.align	1
 405              		.global	gptStartContinuous
 406              		.syntax unified
 407              		.thumb
 408              		.thumb_func
 409              		.type	gptStartContinuous, %function
 410              	gptStartContinuous:
 411              	.LFB437:
 412              		.loc 5 167 61
 413              		.cfi_startproc
 414              		@ args = 0, pretend = 0, frame = 8
 415              		@ frame_needed = 1, uses_anonymous_args = 0
 416 0000 80B5     		push	{r7, lr}
 417              		.cfi_def_cfa_offset 8
 418              		.cfi_offset 7, -8
 419              		.cfi_offset 14, -4
 420 0002 82B0     		sub	sp, sp, #8
 421              		.cfi_def_cfa_offset 16
 422 0004 00AF     		add	r7, sp, #0
 423              		.cfi_def_cfa_register 7
 424 0006 7860     		str	r0, [r7, #4]
 425 0008 3960     		str	r1, [r7]
 426              		.loc 5 169 3
 427 000a FFF7FEFF 		bl	osalSysLock
 428              		.loc 5 170 3
 429 000e 3968     		ldr	r1, [r7]
 430 0010 7868     		ldr	r0, [r7, #4]
 431 0012 FFF7FEFF 		bl	gptStartContinuousI
 432              		.loc 5 171 3
 433 0016 FFF7FEFF 		bl	osalSysUnlock
 434              		.loc 5 172 1
 435 001a 00BF     		nop
 436 001c 0837     		adds	r7, r7, #8
 437              		.cfi_def_cfa_offset 8
 438 001e BD46     		mov	sp, r7
 439              		.cfi_def_cfa_register 13
 440              		@ sp needed
 441 0020 80BD     		pop	{r7, pc}
 442              		.cfi_endproc
 443              	.LFE437:
 444              		.size	gptStartContinuous, .-gptStartContinuous
 445              		.section	.text.gptStartContinuousI,"ax",%progbits
 446              		.align	1
 447              		.global	gptStartContinuousI
 448              		.syntax unified
 449              		.thumb
 450              		.thumb_func
 451              		.type	gptStartContinuousI, %function
 452              	gptStartContinuousI:
 453              	.LFB438:
 454              		.loc 5 182 62
 455              		.cfi_startproc
 456              		@ args = 0, pretend = 0, frame = 8
ARM GAS  C:\Users\DEVELO~1\AppData\Local\Temp\ccW4vRdT.s 			page 9


 457              		@ frame_needed = 1, uses_anonymous_args = 0
 458 0000 80B5     		push	{r7, lr}
 459              		.cfi_def_cfa_offset 8
 460              		.cfi_offset 7, -8
 461              		.cfi_offset 14, -4
 462 0002 82B0     		sub	sp, sp, #8
 463              		.cfi_def_cfa_offset 16
 464 0004 00AF     		add	r7, sp, #0
 465              		.cfi_def_cfa_register 7
 466 0006 7860     		str	r0, [r7, #4]
 467 0008 3960     		str	r1, [r7]
 468              		.loc 5 189 15
 469 000a 7B68     		ldr	r3, [r7, #4]
 470 000c 0322     		movs	r2, #3
 471 000e 1A70     		strb	r2, [r3]
 472              		.loc 5 190 3
 473 0010 3968     		ldr	r1, [r7]
 474 0012 7868     		ldr	r0, [r7, #4]
 475 0014 FFF7FEFF 		bl	gpt_lld_start_timer
 476              		.loc 5 191 1
 477 0018 00BF     		nop
 478 001a 0837     		adds	r7, r7, #8
 479              		.cfi_def_cfa_offset 8
 480 001c BD46     		mov	sp, r7
 481              		.cfi_def_cfa_register 13
 482              		@ sp needed
 483 001e 80BD     		pop	{r7, pc}
 484              		.cfi_endproc
 485              	.LFE438:
 486              		.size	gptStartContinuousI, .-gptStartContinuousI
 487              		.section	.text.gptStartOneShot,"ax",%progbits
 488              		.align	1
 489              		.global	gptStartOneShot
 490              		.syntax unified
 491              		.thumb
 492              		.thumb_func
 493              		.type	gptStartOneShot, %function
 494              	gptStartOneShot:
 495              	.LFB439:
 496              		.loc 5 201 58
 497              		.cfi_startproc
 498              		@ args = 0, pretend = 0, frame = 8
 499              		@ frame_needed = 1, uses_anonymous_args = 0
 500 0000 80B5     		push	{r7, lr}
 501              		.cfi_def_cfa_offset 8
 502              		.cfi_offset 7, -8
 503              		.cfi_offset 14, -4
 504 0002 82B0     		sub	sp, sp, #8
 505              		.cfi_def_cfa_offset 16
 506 0004 00AF     		add	r7, sp, #0
 507              		.cfi_def_cfa_register 7
 508 0006 7860     		str	r0, [r7, #4]
 509 0008 3960     		str	r1, [r7]
 510              		.loc 5 203 3
 511 000a FFF7FEFF 		bl	osalSysLock
 512              		.loc 5 204 3
 513 000e 3968     		ldr	r1, [r7]
ARM GAS  C:\Users\DEVELO~1\AppData\Local\Temp\ccW4vRdT.s 			page 10


 514 0010 7868     		ldr	r0, [r7, #4]
 515 0012 FFF7FEFF 		bl	gptStartOneShotI
 516              		.loc 5 205 3
 517 0016 FFF7FEFF 		bl	osalSysUnlock
 518              		.loc 5 206 1
 519 001a 00BF     		nop
 520 001c 0837     		adds	r7, r7, #8
 521              		.cfi_def_cfa_offset 8
 522 001e BD46     		mov	sp, r7
 523              		.cfi_def_cfa_register 13
 524              		@ sp needed
 525 0020 80BD     		pop	{r7, pc}
 526              		.cfi_endproc
 527              	.LFE439:
 528              		.size	gptStartOneShot, .-gptStartOneShot
 529              		.section	.text.gptStartOneShotI,"ax",%progbits
 530              		.align	1
 531              		.global	gptStartOneShotI
 532              		.syntax unified
 533              		.thumb
 534              		.thumb_func
 535              		.type	gptStartOneShotI, %function
 536              	gptStartOneShotI:
 537              	.LFB440:
 538              		.loc 5 216 59
 539              		.cfi_startproc
 540              		@ args = 0, pretend = 0, frame = 8
 541              		@ frame_needed = 1, uses_anonymous_args = 0
 542 0000 80B5     		push	{r7, lr}
 543              		.cfi_def_cfa_offset 8
 544              		.cfi_offset 7, -8
 545              		.cfi_offset 14, -4
 546 0002 82B0     		sub	sp, sp, #8
 547              		.cfi_def_cfa_offset 16
 548 0004 00AF     		add	r7, sp, #0
 549              		.cfi_def_cfa_register 7
 550 0006 7860     		str	r0, [r7, #4]
 551 0008 3960     		str	r1, [r7]
 552              		.loc 5 224 15
 553 000a 7B68     		ldr	r3, [r7, #4]
 554 000c 0422     		movs	r2, #4
 555 000e 1A70     		strb	r2, [r3]
 556              		.loc 5 225 3
 557 0010 3968     		ldr	r1, [r7]
 558 0012 7868     		ldr	r0, [r7, #4]
 559 0014 FFF7FEFF 		bl	gpt_lld_start_timer
 560              		.loc 5 226 1
 561 0018 00BF     		nop
 562 001a 0837     		adds	r7, r7, #8
 563              		.cfi_def_cfa_offset 8
 564 001c BD46     		mov	sp, r7
 565              		.cfi_def_cfa_register 13
 566              		@ sp needed
 567 001e 80BD     		pop	{r7, pc}
 568              		.cfi_endproc
 569              	.LFE440:
 570              		.size	gptStartOneShotI, .-gptStartOneShotI
ARM GAS  C:\Users\DEVELO~1\AppData\Local\Temp\ccW4vRdT.s 			page 11


 571              		.section	.text.gptStopTimer,"ax",%progbits
 572              		.align	1
 573              		.global	gptStopTimer
 574              		.syntax unified
 575              		.thumb
 576              		.thumb_func
 577              		.type	gptStopTimer, %function
 578              	gptStopTimer:
 579              	.LFB441:
 580              		.loc 5 235 36
 581              		.cfi_startproc
 582              		@ args = 0, pretend = 0, frame = 8
 583              		@ frame_needed = 1, uses_anonymous_args = 0
 584 0000 80B5     		push	{r7, lr}
 585              		.cfi_def_cfa_offset 8
 586              		.cfi_offset 7, -8
 587              		.cfi_offset 14, -4
 588 0002 82B0     		sub	sp, sp, #8
 589              		.cfi_def_cfa_offset 16
 590 0004 00AF     		add	r7, sp, #0
 591              		.cfi_def_cfa_register 7
 592 0006 7860     		str	r0, [r7, #4]
 593              		.loc 5 237 3
 594 0008 FFF7FEFF 		bl	osalSysLock
 595              		.loc 5 238 3
 596 000c 7868     		ldr	r0, [r7, #4]
 597 000e FFF7FEFF 		bl	gptStopTimerI
 598              		.loc 5 239 3
 599 0012 FFF7FEFF 		bl	osalSysUnlock
 600              		.loc 5 240 1
 601 0016 00BF     		nop
 602 0018 0837     		adds	r7, r7, #8
 603              		.cfi_def_cfa_offset 8
 604 001a BD46     		mov	sp, r7
 605              		.cfi_def_cfa_register 13
 606              		@ sp needed
 607 001c 80BD     		pop	{r7, pc}
 608              		.cfi_endproc
 609              	.LFE441:
 610              		.size	gptStopTimer, .-gptStopTimer
 611              		.section	.text.gptStopTimerI,"ax",%progbits
 612              		.align	1
 613              		.global	gptStopTimerI
 614              		.syntax unified
 615              		.thumb
 616              		.thumb_func
 617              		.type	gptStopTimerI, %function
 618              	gptStopTimerI:
 619              	.LFB442:
 620              		.loc 5 249 37
 621              		.cfi_startproc
 622              		@ args = 0, pretend = 0, frame = 8
 623              		@ frame_needed = 1, uses_anonymous_args = 0
 624 0000 80B5     		push	{r7, lr}
 625              		.cfi_def_cfa_offset 8
 626              		.cfi_offset 7, -8
 627              		.cfi_offset 14, -4
ARM GAS  C:\Users\DEVELO~1\AppData\Local\Temp\ccW4vRdT.s 			page 12


 628 0002 82B0     		sub	sp, sp, #8
 629              		.cfi_def_cfa_offset 16
 630 0004 00AF     		add	r7, sp, #0
 631              		.cfi_def_cfa_register 7
 632 0006 7860     		str	r0, [r7, #4]
 633              		.loc 5 257 15
 634 0008 7B68     		ldr	r3, [r7, #4]
 635 000a 0222     		movs	r2, #2
 636 000c 1A70     		strb	r2, [r3]
 637              		.loc 5 258 3
 638 000e 7868     		ldr	r0, [r7, #4]
 639 0010 FFF7FEFF 		bl	gpt_lld_stop_timer
 640              		.loc 5 259 1
 641 0014 00BF     		nop
 642 0016 0837     		adds	r7, r7, #8
 643              		.cfi_def_cfa_offset 8
 644 0018 BD46     		mov	sp, r7
 645              		.cfi_def_cfa_register 13
 646              		@ sp needed
 647 001a 80BD     		pop	{r7, pc}
 648              		.cfi_endproc
 649              	.LFE442:
 650              		.size	gptStopTimerI, .-gptStopTimerI
 651              		.section	.text.gptPolledDelay,"ax",%progbits
 652              		.align	1
 653              		.global	gptPolledDelay
 654              		.syntax unified
 655              		.thumb
 656              		.thumb_func
 657              		.type	gptPolledDelay, %function
 658              	gptPolledDelay:
 659              	.LFB443:
 660              		.loc 5 273 57
 661              		.cfi_startproc
 662              		@ args = 0, pretend = 0, frame = 8
 663              		@ frame_needed = 1, uses_anonymous_args = 0
 664 0000 80B5     		push	{r7, lr}
 665              		.cfi_def_cfa_offset 8
 666              		.cfi_offset 7, -8
 667              		.cfi_offset 14, -4
 668 0002 82B0     		sub	sp, sp, #8
 669              		.cfi_def_cfa_offset 16
 670 0004 00AF     		add	r7, sp, #0
 671              		.cfi_def_cfa_register 7
 672 0006 7860     		str	r0, [r7, #4]
 673 0008 3960     		str	r1, [r7]
 674              		.loc 5 278 15
 675 000a 7B68     		ldr	r3, [r7, #4]
 676 000c 0422     		movs	r2, #4
 677 000e 1A70     		strb	r2, [r3]
 678              		.loc 5 279 3
 679 0010 3968     		ldr	r1, [r7]
 680 0012 7868     		ldr	r0, [r7, #4]
 681 0014 FFF7FEFF 		bl	gpt_lld_polled_delay
 682              		.loc 5 280 15
 683 0018 7B68     		ldr	r3, [r7, #4]
 684 001a 0222     		movs	r2, #2
ARM GAS  C:\Users\DEVELO~1\AppData\Local\Temp\ccW4vRdT.s 			page 13


 685 001c 1A70     		strb	r2, [r3]
 686              		.loc 5 281 1
 687 001e 00BF     		nop
 688 0020 0837     		adds	r7, r7, #8
 689              		.cfi_def_cfa_offset 8
 690 0022 BD46     		mov	sp, r7
 691              		.cfi_def_cfa_register 13
 692              		@ sp needed
 693 0024 80BD     		pop	{r7, pc}
 694              		.cfi_endproc
 695              	.LFE443:
 696              		.size	gptPolledDelay, .-gptPolledDelay
 697              		.text
 698              	.Letext0:
 699              		.file 6 "c:\\chibistudio\\tools\\gnu tools arm embedded\\11.3 2022.08\\arm-none-eabi\\include\\mac
 700              		.file 7 "c:\\chibistudio\\tools\\gnu tools arm embedded\\11.3 2022.08\\arm-none-eabi\\include\\sys
 701              		.file 8 "../../../os/rt/include/chearly.h"
 702              		.file 9 "../../../os/hal/ports/STM32/LLD/TIMv1/stm32_tim.h"
 703              		.file 10 "../../../os/hal/include/hal_gpt.h"
 704              		.file 11 "../../../os/hal/ports/STM32/LLD/TIMv1/hal_gpt_lld.h"
 705              		.section	.debug_info,"",%progbits
 706              	.Ldebug_info0:
 707 0000 6D070000 		.4byte	0x76d
 708 0004 0500     		.2byte	0x5
 709 0006 01       		.byte	0x1
 710 0007 04       		.byte	0x4
 711 0008 00000000 		.4byte	.Ldebug_abbrev0
 712 000c 18       		.uleb128 0x18
 713 000d 21000000 		.4byte	.LASF68
 714 0011 1D       		.byte	0x1d
 715 0012 8C010000 		.4byte	.LASF69
 716 0016 E3000000 		.4byte	.LASF70
 717 001a 0C000000 		.4byte	.LLRL0
 718 001e 00000000 		.4byte	0
 719 0022 00000000 		.4byte	.Ldebug_line0
 720 0026 19       		.uleb128 0x19
 721 0027 04       		.byte	0x4
 722 0028 05       		.byte	0x5
 723 0029 696E7400 		.ascii	"int\000"
 724 002d 04       		.uleb128 0x4
 725 002e 04       		.byte	0x4
 726 002f 07       		.byte	0x7
 727 0030 CE020000 		.4byte	.LASF0
 728 0034 04       		.uleb128 0x4
 729 0035 08       		.byte	0x8
 730 0036 05       		.byte	0x5
 731 0037 F1010000 		.4byte	.LASF1
 732 003b 04       		.uleb128 0x4
 733 003c 08       		.byte	0x8
 734 003d 04       		.byte	0x4
 735 003e 00000000 		.4byte	.LASF2
 736 0042 04       		.uleb128 0x4
 737 0043 01       		.byte	0x1
 738 0044 06       		.byte	0x6
 739 0045 A2020000 		.4byte	.LASF3
 740 0049 04       		.uleb128 0x4
 741 004a 01       		.byte	0x1
ARM GAS  C:\Users\DEVELO~1\AppData\Local\Temp\ccW4vRdT.s 			page 14


 742 004b 08       		.byte	0x8
 743 004c 6B020000 		.4byte	.LASF4
 744 0050 04       		.uleb128 0x4
 745 0051 02       		.byte	0x2
 746 0052 05       		.byte	0x5
 747 0053 7B010000 		.4byte	.LASF5
 748 0057 04       		.uleb128 0x4
 749 0058 02       		.byte	0x2
 750 0059 07       		.byte	0x7
 751 005a EE020000 		.4byte	.LASF6
 752 005e 08       		.uleb128 0x8
 753 005f A5030000 		.4byte	.LASF8
 754 0063 06       		.byte	0x6
 755 0064 4D       		.byte	0x4d
 756 0065 18       		.byte	0x18
 757 0066 6A000000 		.4byte	0x6a
 758 006a 04       		.uleb128 0x4
 759 006b 04       		.byte	0x4
 760 006c 05       		.byte	0x5
 761 006d 28020000 		.4byte	.LASF7
 762 0071 08       		.uleb128 0x8
 763 0072 54020000 		.4byte	.LASF9
 764 0076 06       		.byte	0x6
 765 0077 4F       		.byte	0x4f
 766 0078 19       		.byte	0x19
 767 0079 7D000000 		.4byte	0x7d
 768 007d 04       		.uleb128 0x4
 769 007e 04       		.byte	0x4
 770 007f 07       		.byte	0x7
 771 0080 57030000 		.4byte	.LASF10
 772 0084 04       		.uleb128 0x4
 773 0085 08       		.byte	0x8
 774 0086 07       		.byte	0x7
 775 0087 AE020000 		.4byte	.LASF11
 776 008b 08       		.uleb128 0x8
 777 008c 1A030000 		.4byte	.LASF12
 778 0090 07       		.byte	0x7
 779 0091 2C       		.byte	0x2c
 780 0092 13       		.byte	0x13
 781 0093 5E000000 		.4byte	0x5e
 782 0097 08       		.uleb128 0x8
 783 0098 C5020000 		.4byte	.LASF13
 784 009c 07       		.byte	0x7
 785 009d 30       		.byte	0x30
 786 009e 14       		.byte	0x14
 787 009f 71000000 		.4byte	0x71
 788 00a3 11       		.uleb128 0x11
 789 00a4 97000000 		.4byte	0x97
 790 00a8 08       		.uleb128 0x8
 791 00a9 1A040000 		.4byte	.LASF14
 792 00ad 08       		.byte	0x8
 793 00ae 58       		.byte	0x58
 794 00af 19       		.byte	0x19
 795 00b0 8B000000 		.4byte	0x8b
 796 00b4 04       		.uleb128 0x4
 797 00b5 01       		.byte	0x1
 798 00b6 08       		.byte	0x8
ARM GAS  C:\Users\DEVELO~1\AppData\Local\Temp\ccW4vRdT.s 			page 15


 799 00b7 0F020000 		.4byte	.LASF15
 800 00bb 05       		.uleb128 0x5
 801 00bc B4000000 		.4byte	0xb4
 802 00c0 06       		.uleb128 0x6
 803 00c1 A3000000 		.4byte	0xa3
 804 00c5 D0000000 		.4byte	0xd0
 805 00c9 07       		.uleb128 0x7
 806 00ca 2D000000 		.4byte	0x2d
 807 00ce 03       		.byte	0x3
 808 00cf 00       		.byte	0
 809 00d0 11       		.uleb128 0x11
 810 00d1 C0000000 		.4byte	0xc0
 811 00d5 06       		.uleb128 0x6
 812 00d6 A3000000 		.4byte	0xa3
 813 00da E5000000 		.4byte	0xe5
 814 00de 07       		.uleb128 0x7
 815 00df 2D000000 		.4byte	0x2d
 816 00e3 01       		.byte	0x1
 817 00e4 00       		.byte	0
 818 00e5 11       		.uleb128 0x11
 819 00e6 D5000000 		.4byte	0xd5
 820 00ea 04       		.uleb128 0x4
 821 00eb 01       		.byte	0x1
 822 00ec 02       		.byte	0x2
 823 00ed 22030000 		.4byte	.LASF16
 824 00f1 12       		.uleb128 0x12
 825 00f2 60       		.byte	0x60
 826 00f3 09       		.byte	0x9
 827 00f4 F601     		.2byte	0x1f6
 828 00f6 11020000 		.4byte	0x211
 829 00fa 03       		.uleb128 0x3
 830 00fb 43523100 		.ascii	"CR1\000"
 831 00ff 09       		.byte	0x9
 832 0100 F701     		.2byte	0x1f7
 833 0102 19       		.byte	0x19
 834 0103 A3000000 		.4byte	0xa3
 835 0107 00       		.byte	0
 836 0108 03       		.uleb128 0x3
 837 0109 43523200 		.ascii	"CR2\000"
 838 010d 09       		.byte	0x9
 839 010e F801     		.2byte	0x1f8
 840 0110 19       		.byte	0x19
 841 0111 A3000000 		.4byte	0xa3
 842 0115 04       		.byte	0x4
 843 0116 02       		.uleb128 0x2
 844 0117 79020000 		.4byte	.LASF17
 845 011b 09       		.byte	0x9
 846 011c F901     		.2byte	0x1f9
 847 011e 19       		.byte	0x19
 848 011f A3000000 		.4byte	0xa3
 849 0123 08       		.byte	0x8
 850 0124 02       		.uleb128 0x2
 851 0125 E9020000 		.4byte	.LASF18
 852 0129 09       		.byte	0x9
 853 012a FA01     		.2byte	0x1fa
 854 012c 19       		.byte	0x19
 855 012d A3000000 		.4byte	0xa3
ARM GAS  C:\Users\DEVELO~1\AppData\Local\Temp\ccW4vRdT.s 			page 16


 856 0131 0C       		.byte	0xc
 857 0132 03       		.uleb128 0x3
 858 0133 535200   		.ascii	"SR\000"
 859 0136 09       		.byte	0x9
 860 0137 FB01     		.2byte	0x1fb
 861 0139 19       		.byte	0x19
 862 013a A3000000 		.4byte	0xa3
 863 013e 10       		.byte	0x10
 864 013f 03       		.uleb128 0x3
 865 0140 45475200 		.ascii	"EGR\000"
 866 0144 09       		.byte	0x9
 867 0145 FC01     		.2byte	0x1fc
 868 0147 19       		.byte	0x19
 869 0148 A3000000 		.4byte	0xa3
 870 014c 14       		.byte	0x14
 871 014d 02       		.uleb128 0x2
 872 014e 4E020000 		.4byte	.LASF19
 873 0152 09       		.byte	0x9
 874 0153 FD01     		.2byte	0x1fd
 875 0155 19       		.byte	0x19
 876 0156 A3000000 		.4byte	0xa3
 877 015a 18       		.byte	0x18
 878 015b 02       		.uleb128 0x2
 879 015c B2000000 		.4byte	.LASF20
 880 0160 09       		.byte	0x9
 881 0161 FE01     		.2byte	0x1fe
 882 0163 19       		.byte	0x19
 883 0164 A3000000 		.4byte	0xa3
 884 0168 1C       		.byte	0x1c
 885 0169 02       		.uleb128 0x2
 886 016a 0C000000 		.4byte	.LASF21
 887 016e 09       		.byte	0x9
 888 016f FF01     		.2byte	0x1ff
 889 0171 19       		.byte	0x19
 890 0172 A3000000 		.4byte	0xa3
 891 0176 20       		.byte	0x20
 892 0177 03       		.uleb128 0x3
 893 0178 434E5400 		.ascii	"CNT\000"
 894 017c 09       		.byte	0x9
 895 017d 0002     		.2byte	0x200
 896 017f 19       		.byte	0x19
 897 0180 A3000000 		.4byte	0xa3
 898 0184 24       		.byte	0x24
 899 0185 03       		.uleb128 0x3
 900 0186 50534300 		.ascii	"PSC\000"
 901 018a 09       		.byte	0x9
 902 018b 0102     		.2byte	0x201
 903 018d 19       		.byte	0x19
 904 018e A3000000 		.4byte	0xa3
 905 0192 28       		.byte	0x28
 906 0193 03       		.uleb128 0x3
 907 0194 41525200 		.ascii	"ARR\000"
 908 0198 09       		.byte	0x9
 909 0199 0202     		.2byte	0x202
 910 019b 19       		.byte	0x19
 911 019c A3000000 		.4byte	0xa3
 912 01a0 2C       		.byte	0x2c
ARM GAS  C:\Users\DEVELO~1\AppData\Local\Temp\ccW4vRdT.s 			page 17


 913 01a1 03       		.uleb128 0x3
 914 01a2 52435200 		.ascii	"RCR\000"
 915 01a6 09       		.byte	0x9
 916 01a7 0302     		.2byte	0x203
 917 01a9 19       		.byte	0x19
 918 01aa A3000000 		.4byte	0xa3
 919 01ae 30       		.byte	0x30
 920 01af 03       		.uleb128 0x3
 921 01b0 43435200 		.ascii	"CCR\000"
 922 01b4 09       		.byte	0x9
 923 01b5 0402     		.2byte	0x204
 924 01b7 19       		.byte	0x19
 925 01b8 D0000000 		.4byte	0xd0
 926 01bc 34       		.byte	0x34
 927 01bd 02       		.uleb128 0x2
 928 01be 15030000 		.4byte	.LASF22
 929 01c2 09       		.byte	0x9
 930 01c3 0502     		.2byte	0x205
 931 01c5 19       		.byte	0x19
 932 01c6 A3000000 		.4byte	0xa3
 933 01ca 44       		.byte	0x44
 934 01cb 03       		.uleb128 0x3
 935 01cc 44435200 		.ascii	"DCR\000"
 936 01d0 09       		.byte	0x9
 937 01d1 1302     		.2byte	0x213
 938 01d3 19       		.byte	0x19
 939 01d4 A3000000 		.4byte	0xa3
 940 01d8 48       		.byte	0x48
 941 01d9 02       		.uleb128 0x2
 942 01da 1C000000 		.4byte	.LASF23
 943 01de 09       		.byte	0x9
 944 01df 1402     		.2byte	0x214
 945 01e1 19       		.byte	0x19
 946 01e2 A3000000 		.4byte	0xa3
 947 01e6 4C       		.byte	0x4c
 948 01e7 03       		.uleb128 0x3
 949 01e8 4F5200   		.ascii	"OR\000"
 950 01eb 09       		.byte	0x9
 951 01ec 1502     		.2byte	0x215
 952 01ee 19       		.byte	0x19
 953 01ef A3000000 		.4byte	0xa3
 954 01f3 50       		.byte	0x50
 955 01f4 02       		.uleb128 0x2
 956 01f5 B8000000 		.4byte	.LASF24
 957 01f9 09       		.byte	0x9
 958 01fa 1602     		.2byte	0x216
 959 01fc 19       		.byte	0x19
 960 01fd A3000000 		.4byte	0xa3
 961 0201 54       		.byte	0x54
 962 0202 02       		.uleb128 0x2
 963 0203 BE000000 		.4byte	.LASF25
 964 0207 09       		.byte	0x9
 965 0208 1702     		.2byte	0x217
 966 020a 19       		.byte	0x19
 967 020b E5000000 		.4byte	0xe5
 968 020f 58       		.byte	0x58
 969 0210 00       		.byte	0
ARM GAS  C:\Users\DEVELO~1\AppData\Local\Temp\ccW4vRdT.s 			page 18


 970 0211 0E       		.uleb128 0xe
 971 0212 09030000 		.4byte	.LASF26
 972 0216 09       		.byte	0x9
 973 0217 1902     		.2byte	0x219
 974 0219 03       		.byte	0x3
 975 021a F1000000 		.4byte	0xf1
 976 021e 1A       		.uleb128 0x1a
 977 021f 07       		.byte	0x7
 978 0220 01       		.byte	0x1
 979 0221 49000000 		.4byte	0x49
 980 0225 0A       		.byte	0xa
 981 0226 31       		.byte	0x31
 982 0227 0E       		.byte	0xe
 983 0228 4B020000 		.4byte	0x24b
 984 022c 0C       		.uleb128 0xc
 985 022d 11000000 		.4byte	.LASF27
 986 0231 00       		.byte	0
 987 0232 0C       		.uleb128 0xc
 988 0233 07040000 		.4byte	.LASF28
 989 0237 01       		.byte	0x1
 990 0238 0C       		.uleb128 0xc
 991 0239 43030000 		.4byte	.LASF29
 992 023d 02       		.byte	0x2
 993 023e 0C       		.uleb128 0xc
 994 023f 34030000 		.4byte	.LASF30
 995 0243 03       		.byte	0x3
 996 0244 0C       		.uleb128 0xc
 997 0245 AA010000 		.4byte	.LASF31
 998 0249 04       		.byte	0x4
 999 024a 00       		.byte	0
 1000 024b 08       		.uleb128 0x8
 1001 024c D9010000 		.4byte	.LASF32
 1002 0250 0A       		.byte	0xa
 1003 0251 37       		.byte	0x37
 1004 0252 03       		.byte	0x3
 1005 0253 1E020000 		.4byte	0x21e
 1006 0257 08       		.uleb128 0x8
 1007 0258 4D030000 		.4byte	.LASF33
 1008 025c 0A       		.byte	0xa
 1009 025d 3C       		.byte	0x3c
 1010 025e 1A       		.byte	0x1a
 1011 025f 63020000 		.4byte	0x263
 1012 0263 1B       		.uleb128 0x1b
 1013 0264 4D030000 		.4byte	.LASF33
 1014 0268 10       		.byte	0x10
 1015 0269 0B       		.byte	0xb
 1016 026a 3003     		.2byte	0x330
 1017 026c 08       		.byte	0x8
 1018 026d AA020000 		.4byte	0x2aa
 1019 0271 02       		.uleb128 0x2
 1020 0272 AC000000 		.4byte	.LASF34
 1021 0276 0B       		.byte	0xb
 1022 0277 3403     		.2byte	0x334
 1023 0279 1D       		.byte	0x1d
 1024 027a 4B020000 		.4byte	0x24b
 1025 027e 00       		.byte	0
 1026 027f 02       		.uleb128 0x2
ARM GAS  C:\Users\DEVELO~1\AppData\Local\Temp\ccW4vRdT.s 			page 19


 1027 0280 85010000 		.4byte	.LASF35
 1028 0284 0B       		.byte	0xb
 1029 0285 3803     		.2byte	0x338
 1030 0287 1E       		.byte	0x1e
 1031 0288 39030000 		.4byte	0x339
 1032 028c 04       		.byte	0x4
 1033 028d 02       		.uleb128 0x2
 1034 028e 69030000 		.4byte	.LASF36
 1035 0292 0B       		.byte	0xb
 1036 0293 4003     		.2byte	0x340
 1037 0295 1D       		.byte	0x1d
 1038 0296 97000000 		.4byte	0x97
 1039 029a 08       		.byte	0x8
 1040 029b 03       		.uleb128 0x3
 1041 029c 74696D00 		.ascii	"tim\000"
 1042 02a0 0B       		.byte	0xb
 1043 02a1 4403     		.2byte	0x344
 1044 02a3 1E       		.byte	0x1e
 1045 02a4 3E030000 		.4byte	0x33e
 1046 02a8 0C       		.byte	0xc
 1047 02a9 00       		.byte	0
 1048 02aa 08       		.uleb128 0x8
 1049 02ab 42010000 		.4byte	.LASF37
 1050 02af 0A       		.byte	0xa
 1051 02b0 43       		.byte	0x43
 1052 02b1 10       		.byte	0x10
 1053 02b2 B6020000 		.4byte	0x2b6
 1054 02b6 0F       		.uleb128 0xf
 1055 02b7 BB020000 		.4byte	0x2bb
 1056 02bb 1C       		.uleb128 0x1c
 1057 02bc C6020000 		.4byte	0x2c6
 1058 02c0 09       		.uleb128 0x9
 1059 02c1 C6020000 		.4byte	0x2c6
 1060 02c5 00       		.byte	0
 1061 02c6 0F       		.uleb128 0xf
 1062 02c7 57020000 		.4byte	0x257
 1063 02cb 0E       		.uleb128 0xe
 1064 02cc 10040000 		.4byte	.LASF38
 1065 02d0 0B       		.byte	0xb
 1066 02d1 0603     		.2byte	0x306
 1067 02d3 12       		.byte	0x12
 1068 02d4 97000000 		.4byte	0x97
 1069 02d8 0E       		.uleb128 0xe
 1070 02d9 64010000 		.4byte	.LASF39
 1071 02dd 0B       		.byte	0xb
 1072 02de 0B03     		.2byte	0x30b
 1073 02e0 12       		.byte	0x12
 1074 02e1 97000000 		.4byte	0x97
 1075 02e5 12       		.uleb128 0x12
 1076 02e6 10       		.byte	0x10
 1077 02e7 0B       		.byte	0xb
 1078 02e8 1103     		.2byte	0x311
 1079 02ea 27030000 		.4byte	0x327
 1080 02ee 02       		.uleb128 0x2
 1081 02ef DC030000 		.4byte	.LASF40
 1082 02f3 0B       		.byte	0xb
 1083 02f4 1703     		.2byte	0x317
ARM GAS  C:\Users\DEVELO~1\AppData\Local\Temp\ccW4vRdT.s 			page 20


 1084 02f6 1D       		.byte	0x1d
 1085 02f7 CB020000 		.4byte	0x2cb
 1086 02fb 00       		.byte	0
 1087 02fc 02       		.uleb128 0x2
 1088 02fd 28040000 		.4byte	.LASF41
 1089 0301 0B       		.byte	0xb
 1090 0302 1E03     		.2byte	0x31e
 1091 0304 1D       		.byte	0x1d
 1092 0305 AA020000 		.4byte	0x2aa
 1093 0309 04       		.byte	0x4
 1094 030a 03       		.uleb128 0x3
 1095 030b 63723200 		.ascii	"cr2\000"
 1096 030f 0B       		.byte	0xb
 1097 0310 2403     		.2byte	0x324
 1098 0312 1D       		.byte	0x1d
 1099 0313 97000000 		.4byte	0x97
 1100 0317 08       		.byte	0x8
 1101 0318 02       		.uleb128 0x2
 1102 0319 CA030000 		.4byte	.LASF42
 1103 031d 0B       		.byte	0xb
 1104 031e 2A03     		.2byte	0x32a
 1105 0320 1D       		.byte	0x1d
 1106 0321 97000000 		.4byte	0x97
 1107 0325 0C       		.byte	0xc
 1108 0326 00       		.byte	0
 1109 0327 0E       		.uleb128 0xe
 1110 0328 AF030000 		.4byte	.LASF43
 1111 032c 0B       		.byte	0xb
 1112 032d 2B03     		.2byte	0x32b
 1113 032f 03       		.byte	0x3
 1114 0330 E5020000 		.4byte	0x2e5
 1115 0334 05       		.uleb128 0x5
 1116 0335 27030000 		.4byte	0x327
 1117 0339 0F       		.uleb128 0xf
 1118 033a 34030000 		.4byte	0x334
 1119 033e 0F       		.uleb128 0xf
 1120 033f 11020000 		.4byte	0x211
 1121 0343 0D       		.uleb128 0xd
 1122 0344 B6010000 		.4byte	.LASF44
 1123 0348 CA03     		.2byte	0x3ca
 1124 034a 59030000 		.4byte	0x359
 1125 034e 09       		.uleb128 0x9
 1126 034f C6020000 		.4byte	0x2c6
 1127 0353 09       		.uleb128 0x9
 1128 0354 D8020000 		.4byte	0x2d8
 1129 0358 00       		.byte	0
 1130 0359 0D       		.uleb128 0xd
 1131 035a E6030000 		.4byte	.LASF45
 1132 035e C903     		.2byte	0x3c9
 1133 0360 6A030000 		.4byte	0x36a
 1134 0364 09       		.uleb128 0x9
 1135 0365 C6020000 		.4byte	0x2c6
 1136 0369 00       		.byte	0
 1137 036a 0D       		.uleb128 0xd
 1138 036b 3A020000 		.4byte	.LASF46
 1139 036f C803     		.2byte	0x3c8
 1140 0371 80030000 		.4byte	0x380
ARM GAS  C:\Users\DEVELO~1\AppData\Local\Temp\ccW4vRdT.s 			page 21


 1141 0375 09       		.uleb128 0x9
 1142 0376 C6020000 		.4byte	0x2c6
 1143 037a 09       		.uleb128 0x9
 1144 037b D8020000 		.4byte	0x2d8
 1145 037f 00       		.byte	0
 1146 0380 0D       		.uleb128 0xd
 1147 0381 78030000 		.4byte	.LASF47
 1148 0385 C703     		.2byte	0x3c7
 1149 0387 91030000 		.4byte	0x391
 1150 038b 09       		.uleb128 0x9
 1151 038c C6020000 		.4byte	0x2c6
 1152 0390 00       		.byte	0
 1153 0391 0D       		.uleb128 0xd
 1154 0392 DB020000 		.4byte	.LASF48
 1155 0396 C603     		.2byte	0x3c6
 1156 0398 A2030000 		.4byte	0x3a2
 1157 039c 09       		.uleb128 0x9
 1158 039d C6020000 		.4byte	0x2c6
 1159 03a1 00       		.byte	0
 1160 03a2 1D       		.uleb128 0x1d
 1161 03a3 E4010000 		.4byte	.LASF71
 1162 03a7 0B       		.byte	0xb
 1163 03a8 C503     		.2byte	0x3c5
 1164 03aa 08       		.byte	0x8
 1165 03ab 1E       		.uleb128 0x1e
 1166 03ac 85030000 		.4byte	.LASF51
 1167 03b0 05       		.byte	0x5
 1168 03b1 1101     		.2byte	0x111
 1169 03b3 06       		.byte	0x6
 1170 03b4 00000000 		.4byte	.LFB443
 1171 03b8 26000000 		.4byte	.LFE443-.LFB443
 1172 03bc 01       		.uleb128 0x1
 1173 03bd 9C       		.byte	0x9c
 1174 03be E6030000 		.4byte	0x3e6
 1175 03c2 13       		.uleb128 0x13
 1176 03c3 A0030000 		.4byte	.LASF49
 1177 03c7 20       		.byte	0x20
 1178 03c8 C6020000 		.4byte	0x2c6
 1179 03cc 02       		.uleb128 0x2
 1180 03cd 91       		.byte	0x91
 1181 03ce 74       		.sleb128 -12
 1182 03cf 13       		.uleb128 0x13
 1183 03d0 6F030000 		.4byte	.LASF50
 1184 03d4 2F       		.byte	0x2f
 1185 03d5 D8020000 		.4byte	0x2d8
 1186 03d9 02       		.uleb128 0x2
 1187 03da 91       		.byte	0x91
 1188 03db 70       		.sleb128 -16
 1189 03dc 0A       		.uleb128 0xa
 1190 03dd 7E020000 		.4byte	.LASF53
 1191 03e1 F6030000 		.4byte	0x3f6
 1192 03e5 00       		.byte	0
 1193 03e6 06       		.uleb128 0x6
 1194 03e7 BB000000 		.4byte	0xbb
 1195 03eb F6030000 		.4byte	0x3f6
 1196 03ef 07       		.uleb128 0x7
 1197 03f0 2D000000 		.4byte	0x2d
ARM GAS  C:\Users\DEVELO~1\AppData\Local\Temp\ccW4vRdT.s 			page 22


 1198 03f4 0E       		.byte	0xe
 1199 03f5 00       		.byte	0
 1200 03f6 05       		.uleb128 0x5
 1201 03f7 E6030000 		.4byte	0x3e6
 1202 03fb 0B       		.uleb128 0xb
 1203 03fc 6D010000 		.4byte	.LASF52
 1204 0400 F9       		.byte	0xf9
 1205 0401 00000000 		.4byte	.LFB442
 1206 0405 1C000000 		.4byte	.LFE442-.LFB442
 1207 0409 01       		.uleb128 0x1
 1208 040a 9C       		.byte	0x9c
 1209 040b 27040000 		.4byte	0x427
 1210 040f 01       		.uleb128 0x1
 1211 0410 A0030000 		.4byte	.LASF49
 1212 0414 F9       		.byte	0xf9
 1213 0415 1F       		.byte	0x1f
 1214 0416 C6020000 		.4byte	0x2c6
 1215 041a 02       		.uleb128 0x2
 1216 041b 91       		.byte	0x91
 1217 041c 74       		.sleb128 -12
 1218 041d 0A       		.uleb128 0xa
 1219 041e 7E020000 		.4byte	.LASF53
 1220 0422 37040000 		.4byte	0x437
 1221 0426 00       		.byte	0
 1222 0427 06       		.uleb128 0x6
 1223 0428 BB000000 		.4byte	0xbb
 1224 042c 37040000 		.4byte	0x437
 1225 0430 07       		.uleb128 0x7
 1226 0431 2D000000 		.4byte	0x2d
 1227 0435 0D       		.byte	0xd
 1228 0436 00       		.byte	0
 1229 0437 05       		.uleb128 0x5
 1230 0438 27040000 		.4byte	0x427
 1231 043c 0B       		.uleb128 0xb
 1232 043d CF030000 		.4byte	.LASF54
 1233 0441 EB       		.byte	0xeb
 1234 0442 00000000 		.4byte	.LFB441
 1235 0446 1E000000 		.4byte	.LFE441-.LFB441
 1236 044a 01       		.uleb128 0x1
 1237 044b 9C       		.byte	0x9c
 1238 044c 5F040000 		.4byte	0x45f
 1239 0450 01       		.uleb128 0x1
 1240 0451 A0030000 		.4byte	.LASF49
 1241 0455 EB       		.byte	0xeb
 1242 0456 1E       		.byte	0x1e
 1243 0457 C6020000 		.4byte	0x2c6
 1244 045b 02       		.uleb128 0x2
 1245 045c 91       		.byte	0x91
 1246 045d 74       		.sleb128 -12
 1247 045e 00       		.byte	0
 1248 045f 0B       		.uleb128 0xb
 1249 0460 B9030000 		.4byte	.LASF55
 1250 0464 D8       		.byte	0xd8
 1251 0465 00000000 		.4byte	.LFB440
 1252 0469 20000000 		.4byte	.LFE440-.LFB440
 1253 046d 01       		.uleb128 0x1
 1254 046e 9C       		.byte	0x9c
ARM GAS  C:\Users\DEVELO~1\AppData\Local\Temp\ccW4vRdT.s 			page 23


 1255 046f 99040000 		.4byte	0x499
 1256 0473 01       		.uleb128 0x1
 1257 0474 A0030000 		.4byte	.LASF49
 1258 0478 D8       		.byte	0xd8
 1259 0479 22       		.byte	0x22
 1260 047a C6020000 		.4byte	0x2c6
 1261 047e 02       		.uleb128 0x2
 1262 047f 91       		.byte	0x91
 1263 0480 74       		.sleb128 -12
 1264 0481 01       		.uleb128 0x1
 1265 0482 6F030000 		.4byte	.LASF50
 1266 0486 D8       		.byte	0xd8
 1267 0487 31       		.byte	0x31
 1268 0488 D8020000 		.4byte	0x2d8
 1269 048c 02       		.uleb128 0x2
 1270 048d 91       		.byte	0x91
 1271 048e 70       		.sleb128 -16
 1272 048f 0A       		.uleb128 0xa
 1273 0490 7E020000 		.4byte	.LASF53
 1274 0494 A9040000 		.4byte	0x4a9
 1275 0498 00       		.byte	0
 1276 0499 06       		.uleb128 0x6
 1277 049a BB000000 		.4byte	0xbb
 1278 049e A9040000 		.4byte	0x4a9
 1279 04a2 07       		.uleb128 0x7
 1280 04a3 2D000000 		.4byte	0x2d
 1281 04a7 10       		.byte	0x10
 1282 04a8 00       		.byte	0
 1283 04a9 05       		.uleb128 0x5
 1284 04aa 99040000 		.4byte	0x499
 1285 04ae 0B       		.uleb128 0xb
 1286 04af FF010000 		.4byte	.LASF56
 1287 04b3 C9       		.byte	0xc9
 1288 04b4 00000000 		.4byte	.LFB439
 1289 04b8 22000000 		.4byte	.LFE439-.LFB439
 1290 04bc 01       		.uleb128 0x1
 1291 04bd 9C       		.byte	0x9c
 1292 04be DF040000 		.4byte	0x4df
 1293 04c2 01       		.uleb128 0x1
 1294 04c3 A0030000 		.4byte	.LASF49
 1295 04c7 C9       		.byte	0xc9
 1296 04c8 21       		.byte	0x21
 1297 04c9 C6020000 		.4byte	0x2c6
 1298 04cd 02       		.uleb128 0x2
 1299 04ce 91       		.byte	0x91
 1300 04cf 74       		.sleb128 -12
 1301 04d0 01       		.uleb128 0x1
 1302 04d1 6F030000 		.4byte	.LASF50
 1303 04d5 C9       		.byte	0xc9
 1304 04d6 30       		.byte	0x30
 1305 04d7 D8020000 		.4byte	0x2d8
 1306 04db 02       		.uleb128 0x2
 1307 04dc 91       		.byte	0x91
 1308 04dd 70       		.sleb128 -16
 1309 04de 00       		.byte	0
 1310 04df 0B       		.uleb128 0xb
 1311 04e0 14020000 		.4byte	.LASF57
ARM GAS  C:\Users\DEVELO~1\AppData\Local\Temp\ccW4vRdT.s 			page 24


 1312 04e4 B6       		.byte	0xb6
 1313 04e5 00000000 		.4byte	.LFB438
 1314 04e9 20000000 		.4byte	.LFE438-.LFB438
 1315 04ed 01       		.uleb128 0x1
 1316 04ee 9C       		.byte	0x9c
 1317 04ef 19050000 		.4byte	0x519
 1318 04f3 01       		.uleb128 0x1
 1319 04f4 A0030000 		.4byte	.LASF49
 1320 04f8 B6       		.byte	0xb6
 1321 04f9 25       		.byte	0x25
 1322 04fa C6020000 		.4byte	0x2c6
 1323 04fe 02       		.uleb128 0x2
 1324 04ff 91       		.byte	0x91
 1325 0500 74       		.sleb128 -12
 1326 0501 01       		.uleb128 0x1
 1327 0502 6F030000 		.4byte	.LASF50
 1328 0506 B6       		.byte	0xb6
 1329 0507 34       		.byte	0x34
 1330 0508 D8020000 		.4byte	0x2d8
 1331 050c 02       		.uleb128 0x2
 1332 050d 91       		.byte	0x91
 1333 050e 70       		.sleb128 -16
 1334 050f 0A       		.uleb128 0xa
 1335 0510 7E020000 		.4byte	.LASF53
 1336 0514 29050000 		.4byte	0x529
 1337 0518 00       		.byte	0
 1338 0519 06       		.uleb128 0x6
 1339 051a BB000000 		.4byte	0xbb
 1340 051e 29050000 		.4byte	0x529
 1341 0522 07       		.uleb128 0x7
 1342 0523 2D000000 		.4byte	0x2d
 1343 0527 13       		.byte	0x13
 1344 0528 00       		.byte	0
 1345 0529 05       		.uleb128 0x5
 1346 052a 19050000 		.4byte	0x519
 1347 052e 0B       		.uleb128 0xb
 1348 052f 8F020000 		.4byte	.LASF58
 1349 0533 A7       		.byte	0xa7
 1350 0534 00000000 		.4byte	.LFB437
 1351 0538 22000000 		.4byte	.LFE437-.LFB437
 1352 053c 01       		.uleb128 0x1
 1353 053d 9C       		.byte	0x9c
 1354 053e 5F050000 		.4byte	0x55f
 1355 0542 01       		.uleb128 0x1
 1356 0543 A0030000 		.4byte	.LASF49
 1357 0547 A7       		.byte	0xa7
 1358 0548 24       		.byte	0x24
 1359 0549 C6020000 		.4byte	0x2c6
 1360 054d 02       		.uleb128 0x2
 1361 054e 91       		.byte	0x91
 1362 054f 74       		.sleb128 -12
 1363 0550 01       		.uleb128 0x1
 1364 0551 6F030000 		.4byte	.LASF50
 1365 0555 A7       		.byte	0xa7
 1366 0556 33       		.byte	0x33
 1367 0557 D8020000 		.4byte	0x2d8
 1368 055b 02       		.uleb128 0x2
ARM GAS  C:\Users\DEVELO~1\AppData\Local\Temp\ccW4vRdT.s 			page 25


 1369 055c 91       		.byte	0x91
 1370 055d 70       		.sleb128 -16
 1371 055e 00       		.byte	0
 1372 055f 0B       		.uleb128 0xb
 1373 0560 C3000000 		.4byte	.LASF59
 1374 0564 94       		.byte	0x94
 1375 0565 00000000 		.4byte	.LFB436
 1376 0569 24000000 		.4byte	.LFE436-.LFB436
 1377 056d 01       		.uleb128 0x1
 1378 056e 9C       		.byte	0x9c
 1379 056f 99050000 		.4byte	0x599
 1380 0573 01       		.uleb128 0x1
 1381 0574 A0030000 		.4byte	.LASF49
 1382 0578 94       		.byte	0x94
 1383 0579 23       		.byte	0x23
 1384 057a C6020000 		.4byte	0x2c6
 1385 057e 02       		.uleb128 0x2
 1386 057f 91       		.byte	0x91
 1387 0580 74       		.sleb128 -12
 1388 0581 01       		.uleb128 0x1
 1389 0582 6F030000 		.4byte	.LASF50
 1390 0586 94       		.byte	0x94
 1391 0587 32       		.byte	0x32
 1392 0588 D8020000 		.4byte	0x2d8
 1393 058c 02       		.uleb128 0x2
 1394 058d 91       		.byte	0x91
 1395 058e 70       		.sleb128 -16
 1396 058f 0A       		.uleb128 0xa
 1397 0590 7E020000 		.4byte	.LASF53
 1398 0594 A9050000 		.4byte	0x5a9
 1399 0598 00       		.byte	0
 1400 0599 06       		.uleb128 0x6
 1401 059a BB000000 		.4byte	0xbb
 1402 059e A9050000 		.4byte	0x5a9
 1403 05a2 07       		.uleb128 0x7
 1404 05a3 2D000000 		.4byte	0x2d
 1405 05a7 11       		.byte	0x11
 1406 05a8 00       		.byte	0
 1407 05a9 05       		.uleb128 0x5
 1408 05aa 99050000 		.4byte	0x599
 1409 05ae 0B       		.uleb128 0xb
 1410 05af 20040000 		.4byte	.LASF60
 1411 05b3 79       		.byte	0x79
 1412 05b4 00000000 		.4byte	.LFB435
 1413 05b8 2A000000 		.4byte	.LFE435-.LFB435
 1414 05bc 01       		.uleb128 0x1
 1415 05bd 9C       		.byte	0x9c
 1416 05be DA050000 		.4byte	0x5da
 1417 05c2 01       		.uleb128 0x1
 1418 05c3 A0030000 		.4byte	.LASF49
 1419 05c7 79       		.byte	0x79
 1420 05c8 19       		.byte	0x19
 1421 05c9 C6020000 		.4byte	0x2c6
 1422 05cd 02       		.uleb128 0x2
 1423 05ce 91       		.byte	0x91
 1424 05cf 74       		.sleb128 -12
 1425 05d0 0A       		.uleb128 0xa
ARM GAS  C:\Users\DEVELO~1\AppData\Local\Temp\ccW4vRdT.s 			page 26


 1426 05d1 7E020000 		.4byte	.LASF53
 1427 05d5 EA050000 		.4byte	0x5ea
 1428 05d9 00       		.byte	0
 1429 05da 06       		.uleb128 0x6
 1430 05db BB000000 		.4byte	0xbb
 1431 05df EA050000 		.4byte	0x5ea
 1432 05e3 07       		.uleb128 0x7
 1433 05e4 2D000000 		.4byte	0x2d
 1434 05e8 07       		.byte	0x7
 1435 05e9 00       		.byte	0
 1436 05ea 05       		.uleb128 0x5
 1437 05eb DA050000 		.4byte	0x5da
 1438 05ef 1F       		.uleb128 0x1f
 1439 05f0 31020000 		.4byte	.LASF72
 1440 05f4 05       		.byte	0x5
 1441 05f5 53       		.byte	0x53
 1442 05f6 07       		.byte	0x7
 1443 05f7 A8000000 		.4byte	0xa8
 1444 05fb 00000000 		.4byte	.LFB434
 1445 05ff 32000000 		.4byte	.LFE434-.LFB434
 1446 0603 01       		.uleb128 0x1
 1447 0604 9C       		.byte	0x9c
 1448 0605 3E060000 		.4byte	0x63e
 1449 0609 01       		.uleb128 0x1
 1450 060a A0030000 		.4byte	.LASF49
 1451 060e 53       		.byte	0x53
 1452 060f 1B       		.byte	0x1b
 1453 0610 C6020000 		.4byte	0x2c6
 1454 0614 02       		.uleb128 0x2
 1455 0615 91       		.byte	0x91
 1456 0616 6C       		.sleb128 -20
 1457 0617 01       		.uleb128 0x1
 1458 0618 85010000 		.4byte	.LASF35
 1459 061c 53       		.byte	0x53
 1460 061d 32       		.byte	0x32
 1461 061e 39030000 		.4byte	0x339
 1462 0622 02       		.uleb128 0x2
 1463 0623 91       		.byte	0x91
 1464 0624 68       		.sleb128 -24
 1465 0625 20       		.uleb128 0x20
 1466 0626 6D736700 		.ascii	"msg\000"
 1467 062a 05       		.byte	0x5
 1468 062b 54       		.byte	0x54
 1469 062c 09       		.byte	0x9
 1470 062d A8000000 		.4byte	0xa8
 1471 0631 02       		.uleb128 0x2
 1472 0632 91       		.byte	0x91
 1473 0633 74       		.sleb128 -12
 1474 0634 0A       		.uleb128 0xa
 1475 0635 7E020000 		.4byte	.LASF53
 1476 0639 4E060000 		.4byte	0x64e
 1477 063d 00       		.byte	0
 1478 063e 06       		.uleb128 0x6
 1479 063f BB000000 		.4byte	0xbb
 1480 0643 4E060000 		.4byte	0x64e
 1481 0647 07       		.uleb128 0x7
 1482 0648 2D000000 		.4byte	0x2d
ARM GAS  C:\Users\DEVELO~1\AppData\Local\Temp\ccW4vRdT.s 			page 27


 1483 064c 08       		.byte	0x8
 1484 064d 00       		.byte	0
 1485 064e 05       		.uleb128 0x5
 1486 064f 3E060000 		.4byte	0x63e
 1487 0653 21       		.uleb128 0x21
 1488 0654 CB010000 		.4byte	.LASF61
 1489 0658 05       		.byte	0x5
 1490 0659 44       		.byte	0x44
 1491 065a 06       		.byte	0x6
 1492 065b 00000000 		.4byte	.LFB433
 1493 065f 1E000000 		.4byte	.LFE433-.LFB433
 1494 0663 01       		.uleb128 0x1
 1495 0664 9C       		.byte	0x9c
 1496 0665 78060000 		.4byte	0x678
 1497 0669 01       		.uleb128 0x1
 1498 066a A0030000 		.4byte	.LASF49
 1499 066e 44       		.byte	0x44
 1500 066f 1F       		.byte	0x1f
 1501 0670 C6020000 		.4byte	0x2c6
 1502 0674 02       		.uleb128 0x2
 1503 0675 91       		.byte	0x91
 1504 0676 74       		.sleb128 -12
 1505 0677 00       		.byte	0
 1506 0678 22       		.uleb128 0x22
 1507 0679 87020000 		.4byte	.LASF73
 1508 067d 05       		.byte	0x5
 1509 067e 38       		.byte	0x38
 1510 067f 06       		.byte	0x6
 1511 0680 00000000 		.4byte	.LFB432
 1512 0684 0C000000 		.4byte	.LFE432-.LFB432
 1513 0688 01       		.uleb128 0x1
 1514 0689 9C       		.byte	0x9c
 1515 068a 14       		.uleb128 0x14
 1516 068b D5000000 		.4byte	.LASF62
 1517 068f 4802     		.2byte	0x248
 1518 0691 00000000 		.4byte	.LFB351
 1519 0695 0C000000 		.4byte	.LFE351-.LFB351
 1520 0699 01       		.uleb128 0x1
 1521 069a 9C       		.byte	0x9c
 1522 069b 14       		.uleb128 0x14
 1523 069c 5F020000 		.4byte	.LASF63
 1524 06a0 3D02     		.2byte	0x23d
 1525 06a2 00000000 		.4byte	.LFB350
 1526 06a6 0C000000 		.4byte	.LFE350-.LFB350
 1527 06aa 01       		.uleb128 0x1
 1528 06ab 9C       		.byte	0x9c
 1529 06ac 15       		.uleb128 0x15
 1530 06ad 94030000 		.4byte	.LASF64
 1531 06b1 A501     		.2byte	0x1a5
 1532 06b3 00000000 		.4byte	.LFB203
 1533 06b7 1E000000 		.4byte	.LFE203-.LFB203
 1534 06bb 01       		.uleb128 0x1
 1535 06bc 9C       		.byte	0x9c
 1536 06bd F5060000 		.4byte	0x6f5
 1537 06c1 0A       		.uleb128 0xa
 1538 06c2 7E020000 		.4byte	.LASF53
 1539 06c6 05070000 		.4byte	0x705
ARM GAS  C:\Users\DEVELO~1\AppData\Local\Temp\ccW4vRdT.s 			page 28


 1540 06ca 10       		.uleb128 0x10
 1541 06cb 4A070000 		.4byte	0x74a
 1542 06cf 0A000000 		.4byte	.LBB18
 1543 06d3 0A000000 		.4byte	.LBE18-.LBB18
 1544 06d7 01       		.byte	0x1
 1545 06d8 B201     		.2byte	0x1b2
 1546 06da 10       		.uleb128 0x10
 1547 06db 58070000 		.4byte	0x758
 1548 06df 0A000000 		.4byte	.LBB20
 1549 06e3 08000000 		.4byte	.LBE20-.LBB20
 1550 06e7 03       		.byte	0x3
 1551 06e8 5203     		.2byte	0x352
 1552 06ea 16       		.uleb128 0x16
 1553 06eb 62070000 		.4byte	0x762
 1554 06ef 02       		.uleb128 0x2
 1555 06f0 91       		.byte	0x91
 1556 06f1 74       		.sleb128 -12
 1557 06f2 00       		.byte	0
 1558 06f3 00       		.byte	0
 1559 06f4 00       		.byte	0
 1560 06f5 06       		.uleb128 0x6
 1561 06f6 BB000000 		.4byte	0xbb
 1562 06fa 05070000 		.4byte	0x705
 1563 06fe 07       		.uleb128 0x7
 1564 06ff 2D000000 		.4byte	0x2d
 1565 0703 0B       		.byte	0xb
 1566 0704 00       		.byte	0
 1567 0705 05       		.uleb128 0x5
 1568 0706 F5060000 		.4byte	0x6f5
 1569 070a 15       		.uleb128 0x15
 1570 070b 5A010000 		.4byte	.LASF65
 1571 070f 9701     		.2byte	0x197
 1572 0711 00000000 		.4byte	.LFB202
 1573 0715 1E000000 		.4byte	.LFE202-.LFB202
 1574 0719 01       		.uleb128 0x1
 1575 071a 9C       		.byte	0x9c
 1576 071b 4A070000 		.4byte	0x74a
 1577 071f 10       		.uleb128 0x10
 1578 0720 51070000 		.4byte	0x751
 1579 0724 0A000000 		.4byte	.LBB14
 1580 0728 0A000000 		.4byte	.LBE14-.LBB14
 1581 072c 01       		.byte	0x1
 1582 072d 9901     		.2byte	0x199
 1583 072f 10       		.uleb128 0x10
 1584 0730 58070000 		.4byte	0x758
 1585 0734 0A000000 		.4byte	.LBB16
 1586 0738 08000000 		.4byte	.LBE16-.LBB16
 1587 073c 03       		.byte	0x3
 1588 073d 3F03     		.2byte	0x33f
 1589 073f 16       		.uleb128 0x16
 1590 0740 62070000 		.4byte	0x762
 1591 0744 02       		.uleb128 0x2
 1592 0745 91       		.byte	0x91
 1593 0746 74       		.sleb128 -12
 1594 0747 00       		.byte	0
 1595 0748 00       		.byte	0
 1596 0749 00       		.byte	0
ARM GAS  C:\Users\DEVELO~1\AppData\Local\Temp\ccW4vRdT.s 			page 29


 1597 074a 17       		.uleb128 0x17
 1598 074b 28030000 		.4byte	.LASF66
 1599 074f 4F03     		.2byte	0x34f
 1600 0751 17       		.uleb128 0x17
 1601 0752 50010000 		.4byte	.LASF67
 1602 0756 3703     		.2byte	0x337
 1603 0758 23       		.uleb128 0x23
 1604 0759 F9030000 		.4byte	.LASF74
 1605 075d 02       		.byte	0x2
 1606 075e EB01     		.2byte	0x1eb
 1607 0760 1B       		.byte	0x1b
 1608 0761 03       		.byte	0x3
 1609 0762 24       		.uleb128 0x24
 1610 0763 01030000 		.4byte	.LASF75
 1611 0767 02       		.byte	0x2
 1612 0768 EB01     		.2byte	0x1eb
 1613 076a 32       		.byte	0x32
 1614 076b 97000000 		.4byte	0x97
 1615 076f 00       		.byte	0
 1616 0770 00       		.byte	0
 1617              		.section	.debug_abbrev,"",%progbits
 1618              	.Ldebug_abbrev0:
 1619 0000 01       		.uleb128 0x1
 1620 0001 05       		.uleb128 0x5
 1621 0002 00       		.byte	0
 1622 0003 03       		.uleb128 0x3
 1623 0004 0E       		.uleb128 0xe
 1624 0005 3A       		.uleb128 0x3a
 1625 0006 21       		.uleb128 0x21
 1626 0007 05       		.sleb128 5
 1627 0008 3B       		.uleb128 0x3b
 1628 0009 0B       		.uleb128 0xb
 1629 000a 39       		.uleb128 0x39
 1630 000b 0B       		.uleb128 0xb
 1631 000c 49       		.uleb128 0x49
 1632 000d 13       		.uleb128 0x13
 1633 000e 02       		.uleb128 0x2
 1634 000f 18       		.uleb128 0x18
 1635 0010 00       		.byte	0
 1636 0011 00       		.byte	0
 1637 0012 02       		.uleb128 0x2
 1638 0013 0D       		.uleb128 0xd
 1639 0014 00       		.byte	0
 1640 0015 03       		.uleb128 0x3
 1641 0016 0E       		.uleb128 0xe
 1642 0017 3A       		.uleb128 0x3a
 1643 0018 0B       		.uleb128 0xb
 1644 0019 3B       		.uleb128 0x3b
 1645 001a 05       		.uleb128 0x5
 1646 001b 39       		.uleb128 0x39
 1647 001c 0B       		.uleb128 0xb
 1648 001d 49       		.uleb128 0x49
 1649 001e 13       		.uleb128 0x13
 1650 001f 38       		.uleb128 0x38
 1651 0020 0B       		.uleb128 0xb
 1652 0021 00       		.byte	0
 1653 0022 00       		.byte	0
ARM GAS  C:\Users\DEVELO~1\AppData\Local\Temp\ccW4vRdT.s 			page 30


 1654 0023 03       		.uleb128 0x3
 1655 0024 0D       		.uleb128 0xd
 1656 0025 00       		.byte	0
 1657 0026 03       		.uleb128 0x3
 1658 0027 08       		.uleb128 0x8
 1659 0028 3A       		.uleb128 0x3a
 1660 0029 0B       		.uleb128 0xb
 1661 002a 3B       		.uleb128 0x3b
 1662 002b 05       		.uleb128 0x5
 1663 002c 39       		.uleb128 0x39
 1664 002d 0B       		.uleb128 0xb
 1665 002e 49       		.uleb128 0x49
 1666 002f 13       		.uleb128 0x13
 1667 0030 38       		.uleb128 0x38
 1668 0031 0B       		.uleb128 0xb
 1669 0032 00       		.byte	0
 1670 0033 00       		.byte	0
 1671 0034 04       		.uleb128 0x4
 1672 0035 24       		.uleb128 0x24
 1673 0036 00       		.byte	0
 1674 0037 0B       		.uleb128 0xb
 1675 0038 0B       		.uleb128 0xb
 1676 0039 3E       		.uleb128 0x3e
 1677 003a 0B       		.uleb128 0xb
 1678 003b 03       		.uleb128 0x3
 1679 003c 0E       		.uleb128 0xe
 1680 003d 00       		.byte	0
 1681 003e 00       		.byte	0
 1682 003f 05       		.uleb128 0x5
 1683 0040 26       		.uleb128 0x26
 1684 0041 00       		.byte	0
 1685 0042 49       		.uleb128 0x49
 1686 0043 13       		.uleb128 0x13
 1687 0044 00       		.byte	0
 1688 0045 00       		.byte	0
 1689 0046 06       		.uleb128 0x6
 1690 0047 01       		.uleb128 0x1
 1691 0048 01       		.byte	0x1
 1692 0049 49       		.uleb128 0x49
 1693 004a 13       		.uleb128 0x13
 1694 004b 01       		.uleb128 0x1
 1695 004c 13       		.uleb128 0x13
 1696 004d 00       		.byte	0
 1697 004e 00       		.byte	0
 1698 004f 07       		.uleb128 0x7
 1699 0050 21       		.uleb128 0x21
 1700 0051 00       		.byte	0
 1701 0052 49       		.uleb128 0x49
 1702 0053 13       		.uleb128 0x13
 1703 0054 2F       		.uleb128 0x2f
 1704 0055 0B       		.uleb128 0xb
 1705 0056 00       		.byte	0
 1706 0057 00       		.byte	0
 1707 0058 08       		.uleb128 0x8
 1708 0059 16       		.uleb128 0x16
 1709 005a 00       		.byte	0
 1710 005b 03       		.uleb128 0x3
ARM GAS  C:\Users\DEVELO~1\AppData\Local\Temp\ccW4vRdT.s 			page 31


 1711 005c 0E       		.uleb128 0xe
 1712 005d 3A       		.uleb128 0x3a
 1713 005e 0B       		.uleb128 0xb
 1714 005f 3B       		.uleb128 0x3b
 1715 0060 0B       		.uleb128 0xb
 1716 0061 39       		.uleb128 0x39
 1717 0062 0B       		.uleb128 0xb
 1718 0063 49       		.uleb128 0x49
 1719 0064 13       		.uleb128 0x13
 1720 0065 00       		.byte	0
 1721 0066 00       		.byte	0
 1722 0067 09       		.uleb128 0x9
 1723 0068 05       		.uleb128 0x5
 1724 0069 00       		.byte	0
 1725 006a 49       		.uleb128 0x49
 1726 006b 13       		.uleb128 0x13
 1727 006c 00       		.byte	0
 1728 006d 00       		.byte	0
 1729 006e 0A       		.uleb128 0xa
 1730 006f 34       		.uleb128 0x34
 1731 0070 00       		.byte	0
 1732 0071 03       		.uleb128 0x3
 1733 0072 0E       		.uleb128 0xe
 1734 0073 49       		.uleb128 0x49
 1735 0074 13       		.uleb128 0x13
 1736 0075 34       		.uleb128 0x34
 1737 0076 19       		.uleb128 0x19
 1738 0077 00       		.byte	0
 1739 0078 00       		.byte	0
 1740 0079 0B       		.uleb128 0xb
 1741 007a 2E       		.uleb128 0x2e
 1742 007b 01       		.byte	0x1
 1743 007c 3F       		.uleb128 0x3f
 1744 007d 19       		.uleb128 0x19
 1745 007e 03       		.uleb128 0x3
 1746 007f 0E       		.uleb128 0xe
 1747 0080 3A       		.uleb128 0x3a
 1748 0081 21       		.uleb128 0x21
 1749 0082 05       		.sleb128 5
 1750 0083 3B       		.uleb128 0x3b
 1751 0084 0B       		.uleb128 0xb
 1752 0085 39       		.uleb128 0x39
 1753 0086 21       		.uleb128 0x21
 1754 0087 06       		.sleb128 6
 1755 0088 27       		.uleb128 0x27
 1756 0089 19       		.uleb128 0x19
 1757 008a 11       		.uleb128 0x11
 1758 008b 01       		.uleb128 0x1
 1759 008c 12       		.uleb128 0x12
 1760 008d 06       		.uleb128 0x6
 1761 008e 40       		.uleb128 0x40
 1762 008f 18       		.uleb128 0x18
 1763 0090 7C       		.uleb128 0x7c
 1764 0091 19       		.uleb128 0x19
 1765 0092 01       		.uleb128 0x1
 1766 0093 13       		.uleb128 0x13
 1767 0094 00       		.byte	0
ARM GAS  C:\Users\DEVELO~1\AppData\Local\Temp\ccW4vRdT.s 			page 32


 1768 0095 00       		.byte	0
 1769 0096 0C       		.uleb128 0xc
 1770 0097 28       		.uleb128 0x28
 1771 0098 00       		.byte	0
 1772 0099 03       		.uleb128 0x3
 1773 009a 0E       		.uleb128 0xe
 1774 009b 1C       		.uleb128 0x1c
 1775 009c 0B       		.uleb128 0xb
 1776 009d 00       		.byte	0
 1777 009e 00       		.byte	0
 1778 009f 0D       		.uleb128 0xd
 1779 00a0 2E       		.uleb128 0x2e
 1780 00a1 01       		.byte	0x1
 1781 00a2 3F       		.uleb128 0x3f
 1782 00a3 19       		.uleb128 0x19
 1783 00a4 03       		.uleb128 0x3
 1784 00a5 0E       		.uleb128 0xe
 1785 00a6 3A       		.uleb128 0x3a
 1786 00a7 21       		.uleb128 0x21
 1787 00a8 0B       		.sleb128 11
 1788 00a9 3B       		.uleb128 0x3b
 1789 00aa 05       		.uleb128 0x5
 1790 00ab 39       		.uleb128 0x39
 1791 00ac 21       		.uleb128 0x21
 1792 00ad 08       		.sleb128 8
 1793 00ae 27       		.uleb128 0x27
 1794 00af 19       		.uleb128 0x19
 1795 00b0 3C       		.uleb128 0x3c
 1796 00b1 19       		.uleb128 0x19
 1797 00b2 01       		.uleb128 0x1
 1798 00b3 13       		.uleb128 0x13
 1799 00b4 00       		.byte	0
 1800 00b5 00       		.byte	0
 1801 00b6 0E       		.uleb128 0xe
 1802 00b7 16       		.uleb128 0x16
 1803 00b8 00       		.byte	0
 1804 00b9 03       		.uleb128 0x3
 1805 00ba 0E       		.uleb128 0xe
 1806 00bb 3A       		.uleb128 0x3a
 1807 00bc 0B       		.uleb128 0xb
 1808 00bd 3B       		.uleb128 0x3b
 1809 00be 05       		.uleb128 0x5
 1810 00bf 39       		.uleb128 0x39
 1811 00c0 0B       		.uleb128 0xb
 1812 00c1 49       		.uleb128 0x49
 1813 00c2 13       		.uleb128 0x13
 1814 00c3 00       		.byte	0
 1815 00c4 00       		.byte	0
 1816 00c5 0F       		.uleb128 0xf
 1817 00c6 0F       		.uleb128 0xf
 1818 00c7 00       		.byte	0
 1819 00c8 0B       		.uleb128 0xb
 1820 00c9 21       		.uleb128 0x21
 1821 00ca 04       		.sleb128 4
 1822 00cb 49       		.uleb128 0x49
 1823 00cc 13       		.uleb128 0x13
 1824 00cd 00       		.byte	0
ARM GAS  C:\Users\DEVELO~1\AppData\Local\Temp\ccW4vRdT.s 			page 33


 1825 00ce 00       		.byte	0
 1826 00cf 10       		.uleb128 0x10
 1827 00d0 1D       		.uleb128 0x1d
 1828 00d1 01       		.byte	0x1
 1829 00d2 31       		.uleb128 0x31
 1830 00d3 13       		.uleb128 0x13
 1831 00d4 11       		.uleb128 0x11
 1832 00d5 01       		.uleb128 0x1
 1833 00d6 12       		.uleb128 0x12
 1834 00d7 06       		.uleb128 0x6
 1835 00d8 58       		.uleb128 0x58
 1836 00d9 0B       		.uleb128 0xb
 1837 00da 59       		.uleb128 0x59
 1838 00db 05       		.uleb128 0x5
 1839 00dc 57       		.uleb128 0x57
 1840 00dd 21       		.uleb128 0x21
 1841 00de 03       		.sleb128 3
 1842 00df 00       		.byte	0
 1843 00e0 00       		.byte	0
 1844 00e1 11       		.uleb128 0x11
 1845 00e2 35       		.uleb128 0x35
 1846 00e3 00       		.byte	0
 1847 00e4 49       		.uleb128 0x49
 1848 00e5 13       		.uleb128 0x13
 1849 00e6 00       		.byte	0
 1850 00e7 00       		.byte	0
 1851 00e8 12       		.uleb128 0x12
 1852 00e9 13       		.uleb128 0x13
 1853 00ea 01       		.byte	0x1
 1854 00eb 0B       		.uleb128 0xb
 1855 00ec 0B       		.uleb128 0xb
 1856 00ed 3A       		.uleb128 0x3a
 1857 00ee 0B       		.uleb128 0xb
 1858 00ef 3B       		.uleb128 0x3b
 1859 00f0 05       		.uleb128 0x5
 1860 00f1 39       		.uleb128 0x39
 1861 00f2 21       		.uleb128 0x21
 1862 00f3 09       		.sleb128 9
 1863 00f4 01       		.uleb128 0x1
 1864 00f5 13       		.uleb128 0x13
 1865 00f6 00       		.byte	0
 1866 00f7 00       		.byte	0
 1867 00f8 13       		.uleb128 0x13
 1868 00f9 05       		.uleb128 0x5
 1869 00fa 00       		.byte	0
 1870 00fb 03       		.uleb128 0x3
 1871 00fc 0E       		.uleb128 0xe
 1872 00fd 3A       		.uleb128 0x3a
 1873 00fe 21       		.uleb128 0x21
 1874 00ff 05       		.sleb128 5
 1875 0100 3B       		.uleb128 0x3b
 1876 0101 21       		.uleb128 0x21
 1877 0102 9102     		.sleb128 273
 1878 0104 39       		.uleb128 0x39
 1879 0105 0B       		.uleb128 0xb
 1880 0106 49       		.uleb128 0x49
 1881 0107 13       		.uleb128 0x13
ARM GAS  C:\Users\DEVELO~1\AppData\Local\Temp\ccW4vRdT.s 			page 34


 1882 0108 02       		.uleb128 0x2
 1883 0109 18       		.uleb128 0x18
 1884 010a 00       		.byte	0
 1885 010b 00       		.byte	0
 1886 010c 14       		.uleb128 0x14
 1887 010d 2E       		.uleb128 0x2e
 1888 010e 00       		.byte	0
 1889 010f 03       		.uleb128 0x3
 1890 0110 0E       		.uleb128 0xe
 1891 0111 3A       		.uleb128 0x3a
 1892 0112 21       		.uleb128 0x21
 1893 0113 04       		.sleb128 4
 1894 0114 3B       		.uleb128 0x3b
 1895 0115 05       		.uleb128 0x5
 1896 0116 39       		.uleb128 0x39
 1897 0117 21       		.uleb128 0x21
 1898 0118 14       		.sleb128 20
 1899 0119 27       		.uleb128 0x27
 1900 011a 19       		.uleb128 0x19
 1901 011b 11       		.uleb128 0x11
 1902 011c 01       		.uleb128 0x1
 1903 011d 12       		.uleb128 0x12
 1904 011e 06       		.uleb128 0x6
 1905 011f 40       		.uleb128 0x40
 1906 0120 18       		.uleb128 0x18
 1907 0121 7C       		.uleb128 0x7c
 1908 0122 19       		.uleb128 0x19
 1909 0123 00       		.byte	0
 1910 0124 00       		.byte	0
 1911 0125 15       		.uleb128 0x15
 1912 0126 2E       		.uleb128 0x2e
 1913 0127 01       		.byte	0x1
 1914 0128 03       		.uleb128 0x3
 1915 0129 0E       		.uleb128 0xe
 1916 012a 3A       		.uleb128 0x3a
 1917 012b 21       		.uleb128 0x21
 1918 012c 01       		.sleb128 1
 1919 012d 3B       		.uleb128 0x3b
 1920 012e 05       		.uleb128 0x5
 1921 012f 39       		.uleb128 0x39
 1922 0130 21       		.uleb128 0x21
 1923 0131 14       		.sleb128 20
 1924 0132 27       		.uleb128 0x27
 1925 0133 19       		.uleb128 0x19
 1926 0134 11       		.uleb128 0x11
 1927 0135 01       		.uleb128 0x1
 1928 0136 12       		.uleb128 0x12
 1929 0137 06       		.uleb128 0x6
 1930 0138 40       		.uleb128 0x40
 1931 0139 18       		.uleb128 0x18
 1932 013a 7A       		.uleb128 0x7a
 1933 013b 19       		.uleb128 0x19
 1934 013c 01       		.uleb128 0x1
 1935 013d 13       		.uleb128 0x13
 1936 013e 00       		.byte	0
 1937 013f 00       		.byte	0
 1938 0140 16       		.uleb128 0x16
ARM GAS  C:\Users\DEVELO~1\AppData\Local\Temp\ccW4vRdT.s 			page 35


 1939 0141 05       		.uleb128 0x5
 1940 0142 00       		.byte	0
 1941 0143 31       		.uleb128 0x31
 1942 0144 13       		.uleb128 0x13
 1943 0145 02       		.uleb128 0x2
 1944 0146 18       		.uleb128 0x18
 1945 0147 00       		.byte	0
 1946 0148 00       		.byte	0
 1947 0149 17       		.uleb128 0x17
 1948 014a 2E       		.uleb128 0x2e
 1949 014b 00       		.byte	0
 1950 014c 03       		.uleb128 0x3
 1951 014d 0E       		.uleb128 0xe
 1952 014e 3A       		.uleb128 0x3a
 1953 014f 21       		.uleb128 0x21
 1954 0150 03       		.sleb128 3
 1955 0151 3B       		.uleb128 0x3b
 1956 0152 05       		.uleb128 0x5
 1957 0153 39       		.uleb128 0x39
 1958 0154 21       		.uleb128 0x21
 1959 0155 1B       		.sleb128 27
 1960 0156 27       		.uleb128 0x27
 1961 0157 19       		.uleb128 0x19
 1962 0158 20       		.uleb128 0x20
 1963 0159 21       		.uleb128 0x21
 1964 015a 03       		.sleb128 3
 1965 015b 00       		.byte	0
 1966 015c 00       		.byte	0
 1967 015d 18       		.uleb128 0x18
 1968 015e 11       		.uleb128 0x11
 1969 015f 01       		.byte	0x1
 1970 0160 25       		.uleb128 0x25
 1971 0161 0E       		.uleb128 0xe
 1972 0162 13       		.uleb128 0x13
 1973 0163 0B       		.uleb128 0xb
 1974 0164 03       		.uleb128 0x3
 1975 0165 0E       		.uleb128 0xe
 1976 0166 1B       		.uleb128 0x1b
 1977 0167 0E       		.uleb128 0xe
 1978 0168 55       		.uleb128 0x55
 1979 0169 17       		.uleb128 0x17
 1980 016a 11       		.uleb128 0x11
 1981 016b 01       		.uleb128 0x1
 1982 016c 10       		.uleb128 0x10
 1983 016d 17       		.uleb128 0x17
 1984 016e 00       		.byte	0
 1985 016f 00       		.byte	0
 1986 0170 19       		.uleb128 0x19
 1987 0171 24       		.uleb128 0x24
 1988 0172 00       		.byte	0
 1989 0173 0B       		.uleb128 0xb
 1990 0174 0B       		.uleb128 0xb
 1991 0175 3E       		.uleb128 0x3e
 1992 0176 0B       		.uleb128 0xb
 1993 0177 03       		.uleb128 0x3
 1994 0178 08       		.uleb128 0x8
 1995 0179 00       		.byte	0
ARM GAS  C:\Users\DEVELO~1\AppData\Local\Temp\ccW4vRdT.s 			page 36


 1996 017a 00       		.byte	0
 1997 017b 1A       		.uleb128 0x1a
 1998 017c 04       		.uleb128 0x4
 1999 017d 01       		.byte	0x1
 2000 017e 3E       		.uleb128 0x3e
 2001 017f 0B       		.uleb128 0xb
 2002 0180 0B       		.uleb128 0xb
 2003 0181 0B       		.uleb128 0xb
 2004 0182 49       		.uleb128 0x49
 2005 0183 13       		.uleb128 0x13
 2006 0184 3A       		.uleb128 0x3a
 2007 0185 0B       		.uleb128 0xb
 2008 0186 3B       		.uleb128 0x3b
 2009 0187 0B       		.uleb128 0xb
 2010 0188 39       		.uleb128 0x39
 2011 0189 0B       		.uleb128 0xb
 2012 018a 01       		.uleb128 0x1
 2013 018b 13       		.uleb128 0x13
 2014 018c 00       		.byte	0
 2015 018d 00       		.byte	0
 2016 018e 1B       		.uleb128 0x1b
 2017 018f 13       		.uleb128 0x13
 2018 0190 01       		.byte	0x1
 2019 0191 03       		.uleb128 0x3
 2020 0192 0E       		.uleb128 0xe
 2021 0193 0B       		.uleb128 0xb
 2022 0194 0B       		.uleb128 0xb
 2023 0195 3A       		.uleb128 0x3a
 2024 0196 0B       		.uleb128 0xb
 2025 0197 3B       		.uleb128 0x3b
 2026 0198 05       		.uleb128 0x5
 2027 0199 39       		.uleb128 0x39
 2028 019a 0B       		.uleb128 0xb
 2029 019b 01       		.uleb128 0x1
 2030 019c 13       		.uleb128 0x13
 2031 019d 00       		.byte	0
 2032 019e 00       		.byte	0
 2033 019f 1C       		.uleb128 0x1c
 2034 01a0 15       		.uleb128 0x15
 2035 01a1 01       		.byte	0x1
 2036 01a2 27       		.uleb128 0x27
 2037 01a3 19       		.uleb128 0x19
 2038 01a4 01       		.uleb128 0x1
 2039 01a5 13       		.uleb128 0x13
 2040 01a6 00       		.byte	0
 2041 01a7 00       		.byte	0
 2042 01a8 1D       		.uleb128 0x1d
 2043 01a9 2E       		.uleb128 0x2e
 2044 01aa 00       		.byte	0
 2045 01ab 3F       		.uleb128 0x3f
 2046 01ac 19       		.uleb128 0x19
 2047 01ad 03       		.uleb128 0x3
 2048 01ae 0E       		.uleb128 0xe
 2049 01af 3A       		.uleb128 0x3a
 2050 01b0 0B       		.uleb128 0xb
 2051 01b1 3B       		.uleb128 0x3b
 2052 01b2 05       		.uleb128 0x5
ARM GAS  C:\Users\DEVELO~1\AppData\Local\Temp\ccW4vRdT.s 			page 37


 2053 01b3 39       		.uleb128 0x39
 2054 01b4 0B       		.uleb128 0xb
 2055 01b5 27       		.uleb128 0x27
 2056 01b6 19       		.uleb128 0x19
 2057 01b7 3C       		.uleb128 0x3c
 2058 01b8 19       		.uleb128 0x19
 2059 01b9 00       		.byte	0
 2060 01ba 00       		.byte	0
 2061 01bb 1E       		.uleb128 0x1e
 2062 01bc 2E       		.uleb128 0x2e
 2063 01bd 01       		.byte	0x1
 2064 01be 3F       		.uleb128 0x3f
 2065 01bf 19       		.uleb128 0x19
 2066 01c0 03       		.uleb128 0x3
 2067 01c1 0E       		.uleb128 0xe
 2068 01c2 3A       		.uleb128 0x3a
 2069 01c3 0B       		.uleb128 0xb
 2070 01c4 3B       		.uleb128 0x3b
 2071 01c5 05       		.uleb128 0x5
 2072 01c6 39       		.uleb128 0x39
 2073 01c7 0B       		.uleb128 0xb
 2074 01c8 27       		.uleb128 0x27
 2075 01c9 19       		.uleb128 0x19
 2076 01ca 11       		.uleb128 0x11
 2077 01cb 01       		.uleb128 0x1
 2078 01cc 12       		.uleb128 0x12
 2079 01cd 06       		.uleb128 0x6
 2080 01ce 40       		.uleb128 0x40
 2081 01cf 18       		.uleb128 0x18
 2082 01d0 7C       		.uleb128 0x7c
 2083 01d1 19       		.uleb128 0x19
 2084 01d2 01       		.uleb128 0x1
 2085 01d3 13       		.uleb128 0x13
 2086 01d4 00       		.byte	0
 2087 01d5 00       		.byte	0
 2088 01d6 1F       		.uleb128 0x1f
 2089 01d7 2E       		.uleb128 0x2e
 2090 01d8 01       		.byte	0x1
 2091 01d9 3F       		.uleb128 0x3f
 2092 01da 19       		.uleb128 0x19
 2093 01db 03       		.uleb128 0x3
 2094 01dc 0E       		.uleb128 0xe
 2095 01dd 3A       		.uleb128 0x3a
 2096 01de 0B       		.uleb128 0xb
 2097 01df 3B       		.uleb128 0x3b
 2098 01e0 0B       		.uleb128 0xb
 2099 01e1 39       		.uleb128 0x39
 2100 01e2 0B       		.uleb128 0xb
 2101 01e3 27       		.uleb128 0x27
 2102 01e4 19       		.uleb128 0x19
 2103 01e5 49       		.uleb128 0x49
 2104 01e6 13       		.uleb128 0x13
 2105 01e7 11       		.uleb128 0x11
 2106 01e8 01       		.uleb128 0x1
 2107 01e9 12       		.uleb128 0x12
 2108 01ea 06       		.uleb128 0x6
 2109 01eb 40       		.uleb128 0x40
ARM GAS  C:\Users\DEVELO~1\AppData\Local\Temp\ccW4vRdT.s 			page 38


 2110 01ec 18       		.uleb128 0x18
 2111 01ed 7C       		.uleb128 0x7c
 2112 01ee 19       		.uleb128 0x19
 2113 01ef 01       		.uleb128 0x1
 2114 01f0 13       		.uleb128 0x13
 2115 01f1 00       		.byte	0
 2116 01f2 00       		.byte	0
 2117 01f3 20       		.uleb128 0x20
 2118 01f4 34       		.uleb128 0x34
 2119 01f5 00       		.byte	0
 2120 01f6 03       		.uleb128 0x3
 2121 01f7 08       		.uleb128 0x8
 2122 01f8 3A       		.uleb128 0x3a
 2123 01f9 0B       		.uleb128 0xb
 2124 01fa 3B       		.uleb128 0x3b
 2125 01fb 0B       		.uleb128 0xb
 2126 01fc 39       		.uleb128 0x39
 2127 01fd 0B       		.uleb128 0xb
 2128 01fe 49       		.uleb128 0x49
 2129 01ff 13       		.uleb128 0x13
 2130 0200 02       		.uleb128 0x2
 2131 0201 18       		.uleb128 0x18
 2132 0202 00       		.byte	0
 2133 0203 00       		.byte	0
 2134 0204 21       		.uleb128 0x21
 2135 0205 2E       		.uleb128 0x2e
 2136 0206 01       		.byte	0x1
 2137 0207 3F       		.uleb128 0x3f
 2138 0208 19       		.uleb128 0x19
 2139 0209 03       		.uleb128 0x3
 2140 020a 0E       		.uleb128 0xe
 2141 020b 3A       		.uleb128 0x3a
 2142 020c 0B       		.uleb128 0xb
 2143 020d 3B       		.uleb128 0x3b
 2144 020e 0B       		.uleb128 0xb
 2145 020f 39       		.uleb128 0x39
 2146 0210 0B       		.uleb128 0xb
 2147 0211 27       		.uleb128 0x27
 2148 0212 19       		.uleb128 0x19
 2149 0213 11       		.uleb128 0x11
 2150 0214 01       		.uleb128 0x1
 2151 0215 12       		.uleb128 0x12
 2152 0216 06       		.uleb128 0x6
 2153 0217 40       		.uleb128 0x40
 2154 0218 18       		.uleb128 0x18
 2155 0219 7A       		.uleb128 0x7a
 2156 021a 19       		.uleb128 0x19
 2157 021b 01       		.uleb128 0x1
 2158 021c 13       		.uleb128 0x13
 2159 021d 00       		.byte	0
 2160 021e 00       		.byte	0
 2161 021f 22       		.uleb128 0x22
 2162 0220 2E       		.uleb128 0x2e
 2163 0221 00       		.byte	0
 2164 0222 3F       		.uleb128 0x3f
 2165 0223 19       		.uleb128 0x19
 2166 0224 03       		.uleb128 0x3
ARM GAS  C:\Users\DEVELO~1\AppData\Local\Temp\ccW4vRdT.s 			page 39


 2167 0225 0E       		.uleb128 0xe
 2168 0226 3A       		.uleb128 0x3a
 2169 0227 0B       		.uleb128 0xb
 2170 0228 3B       		.uleb128 0x3b
 2171 0229 0B       		.uleb128 0xb
 2172 022a 39       		.uleb128 0x39
 2173 022b 0B       		.uleb128 0xb
 2174 022c 27       		.uleb128 0x27
 2175 022d 19       		.uleb128 0x19
 2176 022e 11       		.uleb128 0x11
 2177 022f 01       		.uleb128 0x1
 2178 0230 12       		.uleb128 0x12
 2179 0231 06       		.uleb128 0x6
 2180 0232 40       		.uleb128 0x40
 2181 0233 18       		.uleb128 0x18
 2182 0234 7C       		.uleb128 0x7c
 2183 0235 19       		.uleb128 0x19
 2184 0236 00       		.byte	0
 2185 0237 00       		.byte	0
 2186 0238 23       		.uleb128 0x23
 2187 0239 2E       		.uleb128 0x2e
 2188 023a 01       		.byte	0x1
 2189 023b 03       		.uleb128 0x3
 2190 023c 0E       		.uleb128 0xe
 2191 023d 3A       		.uleb128 0x3a
 2192 023e 0B       		.uleb128 0xb
 2193 023f 3B       		.uleb128 0x3b
 2194 0240 05       		.uleb128 0x5
 2195 0241 39       		.uleb128 0x39
 2196 0242 0B       		.uleb128 0xb
 2197 0243 27       		.uleb128 0x27
 2198 0244 19       		.uleb128 0x19
 2199 0245 20       		.uleb128 0x20
 2200 0246 0B       		.uleb128 0xb
 2201 0247 00       		.byte	0
 2202 0248 00       		.byte	0
 2203 0249 24       		.uleb128 0x24
 2204 024a 05       		.uleb128 0x5
 2205 024b 00       		.byte	0
 2206 024c 03       		.uleb128 0x3
 2207 024d 0E       		.uleb128 0xe
 2208 024e 3A       		.uleb128 0x3a
 2209 024f 0B       		.uleb128 0xb
 2210 0250 3B       		.uleb128 0x3b
 2211 0251 05       		.uleb128 0x5
 2212 0252 39       		.uleb128 0x39
 2213 0253 0B       		.uleb128 0xb
 2214 0254 49       		.uleb128 0x49
 2215 0255 13       		.uleb128 0x13
 2216 0256 00       		.byte	0
 2217 0257 00       		.byte	0
 2218 0258 00       		.byte	0
 2219              		.section	.debug_aranges,"",%progbits
 2220 0000 94000000 		.4byte	0x94
 2221 0004 0200     		.2byte	0x2
 2222 0006 00000000 		.4byte	.Ldebug_info0
 2223 000a 04       		.byte	0x4
ARM GAS  C:\Users\DEVELO~1\AppData\Local\Temp\ccW4vRdT.s 			page 40


 2224 000b 00       		.byte	0
 2225 000c 0000     		.2byte	0
 2226 000e 0000     		.2byte	0
 2227 0010 00000000 		.4byte	.LFB202
 2228 0014 1E000000 		.4byte	.LFE202-.LFB202
 2229 0018 00000000 		.4byte	.LFB203
 2230 001c 1E000000 		.4byte	.LFE203-.LFB203
 2231 0020 00000000 		.4byte	.LFB350
 2232 0024 0C000000 		.4byte	.LFE350-.LFB350
 2233 0028 00000000 		.4byte	.LFB351
 2234 002c 0C000000 		.4byte	.LFE351-.LFB351
 2235 0030 00000000 		.4byte	.LFB432
 2236 0034 0C000000 		.4byte	.LFE432-.LFB432
 2237 0038 00000000 		.4byte	.LFB433
 2238 003c 1E000000 		.4byte	.LFE433-.LFB433
 2239 0040 00000000 		.4byte	.LFB434
 2240 0044 32000000 		.4byte	.LFE434-.LFB434
 2241 0048 00000000 		.4byte	.LFB435
 2242 004c 2A000000 		.4byte	.LFE435-.LFB435
 2243 0050 00000000 		.4byte	.LFB436
 2244 0054 24000000 		.4byte	.LFE436-.LFB436
 2245 0058 00000000 		.4byte	.LFB437
 2246 005c 22000000 		.4byte	.LFE437-.LFB437
 2247 0060 00000000 		.4byte	.LFB438
 2248 0064 20000000 		.4byte	.LFE438-.LFB438
 2249 0068 00000000 		.4byte	.LFB439
 2250 006c 22000000 		.4byte	.LFE439-.LFB439
 2251 0070 00000000 		.4byte	.LFB440
 2252 0074 20000000 		.4byte	.LFE440-.LFB440
 2253 0078 00000000 		.4byte	.LFB441
 2254 007c 1E000000 		.4byte	.LFE441-.LFB441
 2255 0080 00000000 		.4byte	.LFB442
 2256 0084 1C000000 		.4byte	.LFE442-.LFB442
 2257 0088 00000000 		.4byte	.LFB443
 2258 008c 26000000 		.4byte	.LFE443-.LFB443
 2259 0090 00000000 		.4byte	0
 2260 0094 00000000 		.4byte	0
 2261              		.section	.debug_rnglists,"",%progbits
 2262              	.Ldebug_ranges0:
 2263 0000 69000000 		.4byte	.Ldebug_ranges3-.Ldebug_ranges2
 2264              	.Ldebug_ranges2:
 2265 0004 0500     		.2byte	0x5
 2266 0006 04       		.byte	0x4
 2267 0007 00       		.byte	0
 2268 0008 00000000 		.4byte	0
 2269              	.LLRL0:
 2270 000c 07       		.byte	0x7
 2271 000d 00000000 		.4byte	.LFB202
 2272 0011 1E       		.uleb128 .LFE202-.LFB202
 2273 0012 07       		.byte	0x7
 2274 0013 00000000 		.4byte	.LFB203
 2275 0017 1E       		.uleb128 .LFE203-.LFB203
 2276 0018 07       		.byte	0x7
 2277 0019 00000000 		.4byte	.LFB350
 2278 001d 0C       		.uleb128 .LFE350-.LFB350
 2279 001e 07       		.byte	0x7
 2280 001f 00000000 		.4byte	.LFB351
ARM GAS  C:\Users\DEVELO~1\AppData\Local\Temp\ccW4vRdT.s 			page 41


 2281 0023 0C       		.uleb128 .LFE351-.LFB351
 2282 0024 07       		.byte	0x7
 2283 0025 00000000 		.4byte	.LFB432
 2284 0029 0C       		.uleb128 .LFE432-.LFB432
 2285 002a 07       		.byte	0x7
 2286 002b 00000000 		.4byte	.LFB433
 2287 002f 1E       		.uleb128 .LFE433-.LFB433
 2288 0030 07       		.byte	0x7
 2289 0031 00000000 		.4byte	.LFB434
 2290 0035 32       		.uleb128 .LFE434-.LFB434
 2291 0036 07       		.byte	0x7
 2292 0037 00000000 		.4byte	.LFB435
 2293 003b 2A       		.uleb128 .LFE435-.LFB435
 2294 003c 07       		.byte	0x7
 2295 003d 00000000 		.4byte	.LFB436
 2296 0041 24       		.uleb128 .LFE436-.LFB436
 2297 0042 07       		.byte	0x7
 2298 0043 00000000 		.4byte	.LFB437
 2299 0047 22       		.uleb128 .LFE437-.LFB437
 2300 0048 07       		.byte	0x7
 2301 0049 00000000 		.4byte	.LFB438
 2302 004d 20       		.uleb128 .LFE438-.LFB438
 2303 004e 07       		.byte	0x7
 2304 004f 00000000 		.4byte	.LFB439
 2305 0053 22       		.uleb128 .LFE439-.LFB439
 2306 0054 07       		.byte	0x7
 2307 0055 00000000 		.4byte	.LFB440
 2308 0059 20       		.uleb128 .LFE440-.LFB440
 2309 005a 07       		.byte	0x7
 2310 005b 00000000 		.4byte	.LFB441
 2311 005f 1E       		.uleb128 .LFE441-.LFB441
 2312 0060 07       		.byte	0x7
 2313 0061 00000000 		.4byte	.LFB442
 2314 0065 1C       		.uleb128 .LFE442-.LFB442
 2315 0066 07       		.byte	0x7
 2316 0067 00000000 		.4byte	.LFB443
 2317 006b 26       		.uleb128 .LFE443-.LFB443
 2318 006c 00       		.byte	0
 2319              	.Ldebug_ranges3:
 2320              		.section	.debug_line,"",%progbits
 2321              	.Ldebug_line0:
 2322 0000 20040000 		.section	.debug_str,"MS",%progbits,1
 2322      03002902 
 2322      00000201 
 2322      FB0E0D00 
 2322      01010101 
 2323              	.LASF2:
 2324 0000 6C6F6E67 		.ascii	"long double\000"
 2324      20646F75 
 2324      626C6500 
 2325              	.LASF21:
 2326 000c 43434552 		.ascii	"CCER\000"
 2326      00
 2327              	.LASF27:
 2328 0011 4750545F 		.ascii	"GPT_UNINIT\000"
 2328      554E494E 
 2328      495400
ARM GAS  C:\Users\DEVELO~1\AppData\Local\Temp\ccW4vRdT.s 			page 42


 2329              	.LASF23:
 2330 001c 444D4152 		.ascii	"DMAR\000"
 2330      00
 2331              	.LASF68:
 2332 0021 474E5520 		.ascii	"GNU C17 11.3.1 20220712 -mcpu=cortex-m7 -mthumb -mf"
 2332      43313720 
 2332      31312E33 
 2332      2E312032 
 2332      30323230 
 2333 0054 6C6F6174 		.ascii	"loat-abi=soft -march=armv7e-m -ggdb -O0 -ffunction-"
 2333      2D616269 
 2333      3D736F66 
 2333      74202D6D 
 2333      61726368 
 2334 0087 73656374 		.ascii	"sections -fdata-sections -fno-common\000"
 2334      696F6E73 
 2334      202D6664 
 2334      6174612D 
 2334      73656374 
 2335              	.LASF34:
 2336 00ac 73746174 		.ascii	"state\000"
 2336      6500
 2337              	.LASF20:
 2338 00b2 43434D52 		.ascii	"CCMR2\000"
 2338      3200
 2339              	.LASF24:
 2340 00b8 43434D52 		.ascii	"CCMR3\000"
 2340      3300
 2341              	.LASF25:
 2342 00be 43435852 		.ascii	"CCXR\000"
 2342      00
 2343              	.LASF59:
 2344 00c3 67707443 		.ascii	"gptChangeInterval\000"
 2344      68616E67 
 2344      65496E74 
 2344      65727661 
 2344      6C00
 2345              	.LASF62:
 2346 00d5 6F73616C 		.ascii	"osalSysUnlock\000"
 2346      53797355 
 2346      6E6C6F63 
 2346      6B00
 2347              	.LASF70:
 2348 00e3 433A5C50 		.ascii	"C:\\PROJET\\ChibiOS project\\ChibiOS_21.11.4\\demos"
 2348      524F4A45 
 2348      545C4368 
 2348      6962694F 
 2348      53207072 
 2349 0112 5C53544D 		.ascii	"\\STM32\\RT-STM32H743ZI_REV_XY-NUCLEO144_Quartz8M\000"
 2349      33325C52 
 2349      542D5354 
 2349      4D333248 
 2349      3734335A 
 2350              	.LASF37:
 2351 0142 67707463 		.ascii	"gptcallback_t\000"
 2351      616C6C62 
 2351      61636B5F 
ARM GAS  C:\Users\DEVELO~1\AppData\Local\Temp\ccW4vRdT.s 			page 43


 2351      7400
 2352              	.LASF67:
 2353 0150 706F7274 		.ascii	"port_lock\000"
 2353      5F6C6F63 
 2353      6B00
 2354              	.LASF65:
 2355 015a 63685379 		.ascii	"chSysLock\000"
 2355      734C6F63 
 2355      6B00
 2356              	.LASF39:
 2357 0164 67707463 		.ascii	"gptcnt_t\000"
 2357      6E745F74 
 2357      00
 2358              	.LASF52:
 2359 016d 67707453 		.ascii	"gptStopTimerI\000"
 2359      746F7054 
 2359      696D6572 
 2359      4900
 2360              	.LASF5:
 2361 017b 73686F72 		.ascii	"short int\000"
 2361      7420696E 
 2361      7400
 2362              	.LASF35:
 2363 0185 636F6E66 		.ascii	"config\000"
 2363      696700
 2364              	.LASF69:
 2365 018c 2E2E2F2E 		.ascii	"../../../os/hal/src/hal_gpt.c\000"
 2365      2E2F2E2E 
 2365      2F6F732F 
 2365      68616C2F 
 2365      7372632F 
 2366              	.LASF31:
 2367 01aa 4750545F 		.ascii	"GPT_ONESHOT\000"
 2367      4F4E4553 
 2367      484F5400 
 2368              	.LASF44:
 2369 01b6 6770745F 		.ascii	"gpt_lld_polled_delay\000"
 2369      6C6C645F 
 2369      706F6C6C 
 2369      65645F64 
 2369      656C6179 
 2370              	.LASF61:
 2371 01cb 6770744F 		.ascii	"gptObjectInit\000"
 2371      626A6563 
 2371      74496E69 
 2371      7400
 2372              	.LASF32:
 2373 01d9 67707473 		.ascii	"gptstate_t\000"
 2373      74617465 
 2373      5F7400
 2374              	.LASF71:
 2375 01e4 6770745F 		.ascii	"gpt_lld_init\000"
 2375      6C6C645F 
 2375      696E6974 
 2375      00
 2376              	.LASF1:
 2377 01f1 6C6F6E67 		.ascii	"long long int\000"
ARM GAS  C:\Users\DEVELO~1\AppData\Local\Temp\ccW4vRdT.s 			page 44


 2377      206C6F6E 
 2377      6720696E 
 2377      7400
 2378              	.LASF56:
 2379 01ff 67707453 		.ascii	"gptStartOneShot\000"
 2379      74617274 
 2379      4F6E6553 
 2379      686F7400 
 2380              	.LASF15:
 2381 020f 63686172 		.ascii	"char\000"
 2381      00
 2382              	.LASF57:
 2383 0214 67707453 		.ascii	"gptStartContinuousI\000"
 2383      74617274 
 2383      436F6E74 
 2383      696E756F 
 2383      75734900 
 2384              	.LASF7:
 2385 0228 6C6F6E67 		.ascii	"long int\000"
 2385      20696E74 
 2385      00
 2386              	.LASF72:
 2387 0231 67707453 		.ascii	"gptStart\000"
 2387      74617274 
 2387      00
 2388              	.LASF46:
 2389 023a 6770745F 		.ascii	"gpt_lld_start_timer\000"
 2389      6C6C645F 
 2389      73746172 
 2389      745F7469 
 2389      6D657200 
 2390              	.LASF19:
 2391 024e 43434D52 		.ascii	"CCMR1\000"
 2391      3100
 2392              	.LASF9:
 2393 0254 5F5F7569 		.ascii	"__uint32_t\000"
 2393      6E743332 
 2393      5F7400
 2394              	.LASF63:
 2395 025f 6F73616C 		.ascii	"osalSysLock\000"
 2395      5379734C 
 2395      6F636B00 
 2396              	.LASF4:
 2397 026b 756E7369 		.ascii	"unsigned char\000"
 2397      676E6564 
 2397      20636861 
 2397      7200
 2398              	.LASF17:
 2399 0279 534D4352 		.ascii	"SMCR\000"
 2399      00
 2400              	.LASF53:
 2401 027e 5F5F6675 		.ascii	"__func__\000"
 2401      6E635F5F 
 2401      00
 2402              	.LASF73:
 2403 0287 67707449 		.ascii	"gptInit\000"
 2403      6E697400 
ARM GAS  C:\Users\DEVELO~1\AppData\Local\Temp\ccW4vRdT.s 			page 45


 2404              	.LASF58:
 2405 028f 67707453 		.ascii	"gptStartContinuous\000"
 2405      74617274 
 2405      436F6E74 
 2405      696E756F 
 2405      757300
 2406              	.LASF3:
 2407 02a2 7369676E 		.ascii	"signed char\000"
 2407      65642063 
 2407      68617200 
 2408              	.LASF11:
 2409 02ae 6C6F6E67 		.ascii	"long long unsigned int\000"
 2409      206C6F6E 
 2409      6720756E 
 2409      7369676E 
 2409      65642069 
 2410              	.LASF13:
 2411 02c5 75696E74 		.ascii	"uint32_t\000"
 2411      33325F74 
 2411      00
 2412              	.LASF0:
 2413 02ce 756E7369 		.ascii	"unsigned int\000"
 2413      676E6564 
 2413      20696E74 
 2413      00
 2414              	.LASF48:
 2415 02db 6770745F 		.ascii	"gpt_lld_start\000"
 2415      6C6C645F 
 2415      73746172 
 2415      7400
 2416              	.LASF18:
 2417 02e9 44494552 		.ascii	"DIER\000"
 2417      00
 2418              	.LASF6:
 2419 02ee 73686F72 		.ascii	"short unsigned int\000"
 2419      7420756E 
 2419      7369676E 
 2419      65642069 
 2419      6E7400
 2420              	.LASF75:
 2421 0301 62617365 		.ascii	"basePri\000"
 2421      50726900 
 2422              	.LASF26:
 2423 0309 73746D33 		.ascii	"stm32_tim_t\000"
 2423      325F7469 
 2423      6D5F7400 
 2424              	.LASF22:
 2425 0315 42445452 		.ascii	"BDTR\000"
 2425      00
 2426              	.LASF12:
 2427 031a 696E7433 		.ascii	"int32_t\000"
 2427      325F7400 
 2428              	.LASF16:
 2429 0322 5F426F6F 		.ascii	"_Bool\000"
 2429      6C00
 2430              	.LASF66:
 2431 0328 706F7274 		.ascii	"port_unlock\000"
ARM GAS  C:\Users\DEVELO~1\AppData\Local\Temp\ccW4vRdT.s 			page 46


 2431      5F756E6C 
 2431      6F636B00 
 2432              	.LASF30:
 2433 0334 4750545F 		.ascii	"GPT_CONTINUOUS\000"
 2433      434F4E54 
 2433      494E554F 
 2433      555300
 2434              	.LASF29:
 2435 0343 4750545F 		.ascii	"GPT_READY\000"
 2435      52454144 
 2435      5900
 2436              	.LASF33:
 2437 034d 47505444 		.ascii	"GPTDriver\000"
 2437      72697665 
 2437      7200
 2438              	.LASF10:
 2439 0357 6C6F6E67 		.ascii	"long unsigned int\000"
 2439      20756E73 
 2439      69676E65 
 2439      6420696E 
 2439      7400
 2440              	.LASF36:
 2441 0369 636C6F63 		.ascii	"clock\000"
 2441      6B00
 2442              	.LASF50:
 2443 036f 696E7465 		.ascii	"interval\000"
 2443      7276616C 
 2443      00
 2444              	.LASF47:
 2445 0378 6770745F 		.ascii	"gpt_lld_stop\000"
 2445      6C6C645F 
 2445      73746F70 
 2445      00
 2446              	.LASF51:
 2447 0385 67707450 		.ascii	"gptPolledDelay\000"
 2447      6F6C6C65 
 2447      6444656C 
 2447      617900
 2448              	.LASF64:
 2449 0394 63685379 		.ascii	"chSysUnlock\000"
 2449      73556E6C 
 2449      6F636B00 
 2450              	.LASF49:
 2451 03a0 67707470 		.ascii	"gptp\000"
 2451      00
 2452              	.LASF8:
 2453 03a5 5F5F696E 		.ascii	"__int32_t\000"
 2453      7433325F 
 2453      7400
 2454              	.LASF43:
 2455 03af 47505443 		.ascii	"GPTConfig\000"
 2455      6F6E6669 
 2455      6700
 2456              	.LASF55:
 2457 03b9 67707453 		.ascii	"gptStartOneShotI\000"
 2457      74617274 
 2457      4F6E6553 
ARM GAS  C:\Users\DEVELO~1\AppData\Local\Temp\ccW4vRdT.s 			page 47


 2457      686F7449 
 2457      00
 2458              	.LASF42:
 2459 03ca 64696572 		.ascii	"dier\000"
 2459      00
 2460              	.LASF54:
 2461 03cf 67707453 		.ascii	"gptStopTimer\000"
 2461      746F7054 
 2461      696D6572 
 2461      00
 2462              	.LASF40:
 2463 03dc 66726571 		.ascii	"frequency\000"
 2463      75656E63 
 2463      7900
 2464              	.LASF45:
 2465 03e6 6770745F 		.ascii	"gpt_lld_stop_timer\000"
 2465      6C6C645F 
 2465      73746F70 
 2465      5F74696D 
 2465      657200
 2466              	.LASF74:
 2467 03f9 5F5F7365 		.ascii	"__set_BASEPRI\000"
 2467      745F4241 
 2467      53455052 
 2467      4900
 2468              	.LASF28:
 2469 0407 4750545F 		.ascii	"GPT_STOP\000"
 2469      53544F50 
 2469      00
 2470              	.LASF38:
 2471 0410 67707466 		.ascii	"gptfreq_t\000"
 2471      7265715F 
 2471      7400
 2472              	.LASF14:
 2473 041a 6D73675F 		.ascii	"msg_t\000"
 2473      7400
 2474              	.LASF60:
 2475 0420 67707453 		.ascii	"gptStop\000"
 2475      746F7000 
 2476              	.LASF41:
 2477 0428 63616C6C 		.ascii	"callback\000"
 2477      6261636B 
 2477      00
 2478              		.ident	"GCC: (Arm GNU Toolchain 11.3.Rel1) 11.3.1 20220712"
ARM GAS  C:\Users\DEVELO~1\AppData\Local\Temp\ccW4vRdT.s 			page 48


DEFINED SYMBOLS
                            *ABS*:00000000 hal_gpt.c
C:\Users\DEVELO~1\AppData\Local\Temp\ccW4vRdT.s:18     .text.chSysLock:00000000 $t
C:\Users\DEVELO~1\AppData\Local\Temp\ccW4vRdT.s:23     .text.chSysLock:00000000 chSysLock
C:\Users\DEVELO~1\AppData\Local\Temp\ccW4vRdT.s:77     .text.chSysUnlock:00000000 $t
C:\Users\DEVELO~1\AppData\Local\Temp\ccW4vRdT.s:82     .text.chSysUnlock:00000000 chSysUnlock
C:\Users\DEVELO~1\AppData\Local\Temp\ccW4vRdT.s:133    .text.osalSysLock:00000000 $t
C:\Users\DEVELO~1\AppData\Local\Temp\ccW4vRdT.s:138    .text.osalSysLock:00000000 osalSysLock
C:\Users\DEVELO~1\AppData\Local\Temp\ccW4vRdT.s:160    .text.osalSysUnlock:00000000 $t
C:\Users\DEVELO~1\AppData\Local\Temp\ccW4vRdT.s:165    .text.osalSysUnlock:00000000 osalSysUnlock
C:\Users\DEVELO~1\AppData\Local\Temp\ccW4vRdT.s:186    .text.gptInit:00000000 $t
C:\Users\DEVELO~1\AppData\Local\Temp\ccW4vRdT.s:192    .text.gptInit:00000000 gptInit
C:\Users\DEVELO~1\AppData\Local\Temp\ccW4vRdT.s:214    .text.gptObjectInit:00000000 $t
C:\Users\DEVELO~1\AppData\Local\Temp\ccW4vRdT.s:220    .text.gptObjectInit:00000000 gptObjectInit
C:\Users\DEVELO~1\AppData\Local\Temp\ccW4vRdT.s:258    .text.gptStart:00000000 $t
C:\Users\DEVELO~1\AppData\Local\Temp\ccW4vRdT.s:264    .text.gptStart:00000000 gptStart
C:\Users\DEVELO~1\AppData\Local\Temp\ccW4vRdT.s:312    .text.gptStop:00000000 $t
C:\Users\DEVELO~1\AppData\Local\Temp\ccW4vRdT.s:318    .text.gptStop:00000000 gptStop
C:\Users\DEVELO~1\AppData\Local\Temp\ccW4vRdT.s:360    .text.gptChangeInterval:00000000 $t
C:\Users\DEVELO~1\AppData\Local\Temp\ccW4vRdT.s:366    .text.gptChangeInterval:00000000 gptChangeInterval
C:\Users\DEVELO~1\AppData\Local\Temp\ccW4vRdT.s:404    .text.gptStartContinuous:00000000 $t
C:\Users\DEVELO~1\AppData\Local\Temp\ccW4vRdT.s:410    .text.gptStartContinuous:00000000 gptStartContinuous
C:\Users\DEVELO~1\AppData\Local\Temp\ccW4vRdT.s:452    .text.gptStartContinuousI:00000000 gptStartContinuousI
C:\Users\DEVELO~1\AppData\Local\Temp\ccW4vRdT.s:446    .text.gptStartContinuousI:00000000 $t
C:\Users\DEVELO~1\AppData\Local\Temp\ccW4vRdT.s:488    .text.gptStartOneShot:00000000 $t
C:\Users\DEVELO~1\AppData\Local\Temp\ccW4vRdT.s:494    .text.gptStartOneShot:00000000 gptStartOneShot
C:\Users\DEVELO~1\AppData\Local\Temp\ccW4vRdT.s:536    .text.gptStartOneShotI:00000000 gptStartOneShotI
C:\Users\DEVELO~1\AppData\Local\Temp\ccW4vRdT.s:530    .text.gptStartOneShotI:00000000 $t
C:\Users\DEVELO~1\AppData\Local\Temp\ccW4vRdT.s:572    .text.gptStopTimer:00000000 $t
C:\Users\DEVELO~1\AppData\Local\Temp\ccW4vRdT.s:578    .text.gptStopTimer:00000000 gptStopTimer
C:\Users\DEVELO~1\AppData\Local\Temp\ccW4vRdT.s:618    .text.gptStopTimerI:00000000 gptStopTimerI
C:\Users\DEVELO~1\AppData\Local\Temp\ccW4vRdT.s:612    .text.gptStopTimerI:00000000 $t
C:\Users\DEVELO~1\AppData\Local\Temp\ccW4vRdT.s:652    .text.gptPolledDelay:00000000 $t
C:\Users\DEVELO~1\AppData\Local\Temp\ccW4vRdT.s:658    .text.gptPolledDelay:00000000 gptPolledDelay

UNDEFINED SYMBOLS
gpt_lld_init
gpt_lld_start
gpt_lld_stop
gpt_lld_start_timer
gpt_lld_stop_timer
gpt_lld_polled_delay
