ARM GAS  C:\Users\DEVELO~1\AppData\Local\Temp\ccw0nPn3.s 			page 1


   1              		.cpu cortex-m7
   2              		.arch armv7e-m
   3              		.fpu softvfp
   4              		.eabi_attribute 20, 1
   5              		.eabi_attribute 21, 1
   6              		.eabi_attribute 23, 3
   7              		.eabi_attribute 24, 1
   8              		.eabi_attribute 25, 1
   9              		.eabi_attribute 26, 1
  10              		.eabi_attribute 30, 6
  11              		.eabi_attribute 34, 1
  12              		.eabi_attribute 18, 4
  13              		.file	"hal_spi.c"
  14              		.text
  15              	.Ltext0:
  16              		.cfi_sections	.debug_frame
  17              		.section	.text.chSysLock,"ax",%progbits
  18              		.align	1
  19              		.syntax unified
  20              		.thumb
  21              		.thumb_func
  22              		.type	chSysLock, %function
  23              	chSysLock:
  24              	.LFB202:
  25              		.file 1 "../../../os/rt/include/chsys.h"
  26              		.loc 1 407 36
  27              		.cfi_startproc
  28              		@ args = 0, pretend = 0, frame = 8
  29              		@ frame_needed = 1, uses_anonymous_args = 0
  30              		@ link register save eliminated.
  31 0000 80B4     		push	{r7}
  32              		.cfi_def_cfa_offset 4
  33              		.cfi_offset 7, -4
  34 0002 83B0     		sub	sp, sp, #12
  35              		.cfi_def_cfa_offset 16
  36 0004 00AF     		add	r7, sp, #0
  37              		.cfi_def_cfa_register 7
  38 0006 3023     		movs	r3, #48
  39 0008 7B60     		str	r3, [r7, #4]
  40              	.LBB14:
  41              	.LBB15:
  42              	.LBB16:
  43              	.LBB17:
  44              		.file 2 "../../../os/common/ext/ARM/CMSIS/Core/Include/cmsis_gcc.h"
  45              		.loc 2 493 3
  46 000a 7B68     		ldr	r3, [r7, #4]
  47              		.syntax unified
  48              	@ 493 "../../../os/common/ext/ARM/CMSIS/Core/Include/cmsis_gcc.h" 1
  49 000c 83F31188 		MSR basepri, r3
  50              	@ 0 "" 2
  51              		.loc 2 494 1
  52              		.thumb
  53              		.syntax unified
  54 0010 00BF     		nop
  55              	.LBE17:
  56              	.LBE16:
  57              		.file 3 "../../../os/common/ports/ARMv7-M/chcore.h"
ARM GAS  C:\Users\DEVELO~1\AppData\Local\Temp\ccw0nPn3.s 			page 2


  58              		.loc 3 840 1
  59 0012 00BF     		nop
  60              	.LBE15:
  61              	.LBE14:
  62              		.loc 1 412 1
  63 0014 00BF     		nop
  64 0016 0C37     		adds	r7, r7, #12
  65              		.cfi_def_cfa_offset 4
  66 0018 BD46     		mov	sp, r7
  67              		.cfi_def_cfa_register 13
  68              		@ sp needed
  69 001a 80BC     		pop	{r7}
  70              		.cfi_restore 7
  71              		.cfi_def_cfa_offset 0
  72 001c 7047     		bx	lr
  73              		.cfi_endproc
  74              	.LFE202:
  75              		.size	chSysLock, .-chSysLock
  76              		.section	.text.chSysUnlock,"ax",%progbits
  77              		.align	1
  78              		.syntax unified
  79              		.thumb
  80              		.thumb_func
  81              		.type	chSysUnlock, %function
  82              	chSysUnlock:
  83              	.LFB203:
  84              		.loc 1 421 38
  85              		.cfi_startproc
  86              		@ args = 0, pretend = 0, frame = 8
  87              		@ frame_needed = 1, uses_anonymous_args = 0
  88              		@ link register save eliminated.
  89 0000 80B4     		push	{r7}
  90              		.cfi_def_cfa_offset 4
  91              		.cfi_offset 7, -4
  92 0002 83B0     		sub	sp, sp, #12
  93              		.cfi_def_cfa_offset 16
  94 0004 00AF     		add	r7, sp, #0
  95              		.cfi_def_cfa_register 7
  96 0006 0023     		movs	r3, #0
  97 0008 7B60     		str	r3, [r7, #4]
  98              	.LBB18:
  99              	.LBB19:
 100              	.LBB20:
 101              	.LBB21:
 102              		.loc 2 493 3
 103 000a 7B68     		ldr	r3, [r7, #4]
 104              		.syntax unified
 105              	@ 493 "../../../os/common/ext/ARM/CMSIS/Core/Include/cmsis_gcc.h" 1
 106 000c 83F31188 		MSR basepri, r3
 107              	@ 0 "" 2
 108              		.loc 2 494 1
 109              		.thumb
 110              		.syntax unified
 111 0010 00BF     		nop
 112              	.LBE21:
 113              	.LBE20:
 114              		.loc 3 854 1
ARM GAS  C:\Users\DEVELO~1\AppData\Local\Temp\ccw0nPn3.s 			page 3


 115 0012 00BF     		nop
 116              	.LBE19:
 117              	.LBE18:
 118              		.loc 1 435 1
 119 0014 00BF     		nop
 120 0016 0C37     		adds	r7, r7, #12
 121              		.cfi_def_cfa_offset 4
 122 0018 BD46     		mov	sp, r7
 123              		.cfi_def_cfa_register 13
 124              		@ sp needed
 125 001a 80BC     		pop	{r7}
 126              		.cfi_restore 7
 127              		.cfi_def_cfa_offset 0
 128 001c 7047     		bx	lr
 129              		.cfi_endproc
 130              	.LFE203:
 131              		.size	chSysUnlock, .-chSysUnlock
 132              		.section	.text.osalSysLock,"ax",%progbits
 133              		.align	1
 134              		.syntax unified
 135              		.thumb
 136              		.thumb_func
 137              		.type	osalSysLock, %function
 138              	osalSysLock:
 139              	.LFB350:
 140              		.file 4 "../../../os/hal/osal/rt-nil/osal.h"
 141              		.loc 4 573 38
 142              		.cfi_startproc
 143              		@ args = 0, pretend = 0, frame = 0
 144              		@ frame_needed = 1, uses_anonymous_args = 0
 145 0000 80B5     		push	{r7, lr}
 146              		.cfi_def_cfa_offset 8
 147              		.cfi_offset 7, -8
 148              		.cfi_offset 14, -4
 149 0002 00AF     		add	r7, sp, #0
 150              		.cfi_def_cfa_register 7
 151              		.loc 4 575 3
 152 0004 FFF7FEFF 		bl	chSysLock
 153              		.loc 4 576 1
 154 0008 00BF     		nop
 155 000a 80BD     		pop	{r7, pc}
 156              		.cfi_endproc
 157              	.LFE350:
 158              		.size	osalSysLock, .-osalSysLock
 159              		.section	.text.osalSysUnlock,"ax",%progbits
 160              		.align	1
 161              		.syntax unified
 162              		.thumb
 163              		.thumb_func
 164              		.type	osalSysUnlock, %function
 165              	osalSysUnlock:
 166              	.LFB351:
 167              		.loc 4 584 40
 168              		.cfi_startproc
 169              		@ args = 0, pretend = 0, frame = 0
 170              		@ frame_needed = 1, uses_anonymous_args = 0
 171 0000 80B5     		push	{r7, lr}
ARM GAS  C:\Users\DEVELO~1\AppData\Local\Temp\ccw0nPn3.s 			page 4


 172              		.cfi_def_cfa_offset 8
 173              		.cfi_offset 7, -8
 174              		.cfi_offset 14, -4
 175 0002 00AF     		add	r7, sp, #0
 176              		.cfi_def_cfa_register 7
 177              		.loc 4 586 3
 178 0004 FFF7FEFF 		bl	chSysUnlock
 179              		.loc 4 587 1
 180 0008 00BF     		nop
 181 000a 80BD     		pop	{r7, pc}
 182              		.cfi_endproc
 183              	.LFE351:
 184              		.size	osalSysUnlock, .-osalSysUnlock
 185              		.section	.text.osalOsRescheduleS,"ax",%progbits
 186              		.align	1
 187              		.syntax unified
 188              		.thumb
 189              		.thumb_func
 190              		.type	osalOsRescheduleS, %function
 191              	osalOsRescheduleS:
 192              	.LFB358:
 193              		.loc 4 680 44
 194              		.cfi_startproc
 195              		@ args = 0, pretend = 0, frame = 0
 196              		@ frame_needed = 1, uses_anonymous_args = 0
 197 0000 80B5     		push	{r7, lr}
 198              		.cfi_def_cfa_offset 8
 199              		.cfi_offset 7, -8
 200              		.cfi_offset 14, -4
 201 0002 00AF     		add	r7, sp, #0
 202              		.cfi_def_cfa_register 7
 203              		.loc 4 682 3
 204 0004 FFF7FEFF 		bl	chSchRescheduleS
 205              		.loc 4 683 1
 206 0008 00BF     		nop
 207 000a 80BD     		pop	{r7, pc}
 208              		.cfi_endproc
 209              	.LFE358:
 210              		.size	osalOsRescheduleS, .-osalOsRescheduleS
 211              		.section	.text.osalThreadSuspendTimeoutS,"ax",%progbits
 212              		.align	1
 213              		.syntax unified
 214              		.thumb
 215              		.thumb_func
 216              		.type	osalThreadSuspendTimeoutS, %function
 217              	osalThreadSuspendTimeoutS:
 218              	.LFB366:
 219              		.loc 4 822 70
 220              		.cfi_startproc
 221              		@ args = 0, pretend = 0, frame = 8
 222              		@ frame_needed = 1, uses_anonymous_args = 0
 223 0000 80B5     		push	{r7, lr}
 224              		.cfi_def_cfa_offset 8
 225              		.cfi_offset 7, -8
 226              		.cfi_offset 14, -4
 227 0002 82B0     		sub	sp, sp, #8
 228              		.cfi_def_cfa_offset 16
ARM GAS  C:\Users\DEVELO~1\AppData\Local\Temp\ccw0nPn3.s 			page 5


 229 0004 00AF     		add	r7, sp, #0
 230              		.cfi_def_cfa_register 7
 231 0006 7860     		str	r0, [r7, #4]
 232 0008 3960     		str	r1, [r7]
 233              		.loc 4 824 10
 234 000a 3968     		ldr	r1, [r7]
 235 000c 7868     		ldr	r0, [r7, #4]
 236 000e FFF7FEFF 		bl	chThdSuspendTimeoutS
 237 0012 0346     		mov	r3, r0
 238              		.loc 4 825 1
 239 0014 1846     		mov	r0, r3
 240 0016 0837     		adds	r7, r7, #8
 241              		.cfi_def_cfa_offset 8
 242 0018 BD46     		mov	sp, r7
 243              		.cfi_def_cfa_register 13
 244              		@ sp needed
 245 001a 80BD     		pop	{r7, pc}
 246              		.cfi_endproc
 247              	.LFE366:
 248              		.size	osalThreadSuspendTimeoutS, .-osalThreadSuspendTimeoutS
 249              		.section	.text.osalThreadResumeI,"ax",%progbits
 250              		.align	1
 251              		.syntax unified
 252              		.thumb
 253              		.thumb_func
 254              		.type	osalThreadResumeI, %function
 255              	osalThreadResumeI:
 256              	.LFB367:
 257              		.loc 4 837 74
 258              		.cfi_startproc
 259              		@ args = 0, pretend = 0, frame = 8
 260              		@ frame_needed = 1, uses_anonymous_args = 0
 261 0000 80B5     		push	{r7, lr}
 262              		.cfi_def_cfa_offset 8
 263              		.cfi_offset 7, -8
 264              		.cfi_offset 14, -4
 265 0002 82B0     		sub	sp, sp, #8
 266              		.cfi_def_cfa_offset 16
 267 0004 00AF     		add	r7, sp, #0
 268              		.cfi_def_cfa_register 7
 269 0006 7860     		str	r0, [r7, #4]
 270 0008 3960     		str	r1, [r7]
 271              		.loc 4 839 3
 272 000a 3968     		ldr	r1, [r7]
 273 000c 7868     		ldr	r0, [r7, #4]
 274 000e FFF7FEFF 		bl	chThdResumeI
 275              		.loc 4 840 1
 276 0012 00BF     		nop
 277 0014 0837     		adds	r7, r7, #8
 278              		.cfi_def_cfa_offset 8
 279 0016 BD46     		mov	sp, r7
 280              		.cfi_def_cfa_register 13
 281              		@ sp needed
 282 0018 80BD     		pop	{r7, pc}
 283              		.cfi_endproc
 284              	.LFE367:
 285              		.size	osalThreadResumeI, .-osalThreadResumeI
ARM GAS  C:\Users\DEVELO~1\AppData\Local\Temp\ccw0nPn3.s 			page 6


 286              		.section	.text.osalMutexObjectInit,"ax",%progbits
 287              		.align	1
 288              		.syntax unified
 289              		.thumb
 290              		.thumb_func
 291              		.type	osalMutexObjectInit, %function
 292              	osalMutexObjectInit:
 293              	.LFB376:
 294              		.loc 4 1035 53
 295              		.cfi_startproc
 296              		@ args = 0, pretend = 0, frame = 8
 297              		@ frame_needed = 1, uses_anonymous_args = 0
 298 0000 80B5     		push	{r7, lr}
 299              		.cfi_def_cfa_offset 8
 300              		.cfi_offset 7, -8
 301              		.cfi_offset 14, -4
 302 0002 82B0     		sub	sp, sp, #8
 303              		.cfi_def_cfa_offset 16
 304 0004 00AF     		add	r7, sp, #0
 305              		.cfi_def_cfa_register 7
 306 0006 7860     		str	r0, [r7, #4]
 307              		.loc 4 1038 3
 308 0008 7868     		ldr	r0, [r7, #4]
 309 000a FFF7FEFF 		bl	chMtxObjectInit
 310              		.loc 4 1044 1
 311 000e 00BF     		nop
 312 0010 0837     		adds	r7, r7, #8
 313              		.cfi_def_cfa_offset 8
 314 0012 BD46     		mov	sp, r7
 315              		.cfi_def_cfa_register 13
 316              		@ sp needed
 317 0014 80BD     		pop	{r7, pc}
 318              		.cfi_endproc
 319              	.LFE376:
 320              		.size	osalMutexObjectInit, .-osalMutexObjectInit
 321              		.section	.text.osalMutexLock,"ax",%progbits
 322              		.align	1
 323              		.syntax unified
 324              		.thumb
 325              		.thumb_func
 326              		.type	osalMutexLock, %function
 327              	osalMutexLock:
 328              	.LFB377:
 329              		.loc 4 1055 47
 330              		.cfi_startproc
 331              		@ args = 0, pretend = 0, frame = 8
 332              		@ frame_needed = 1, uses_anonymous_args = 0
 333 0000 80B5     		push	{r7, lr}
 334              		.cfi_def_cfa_offset 8
 335              		.cfi_offset 7, -8
 336              		.cfi_offset 14, -4
 337 0002 82B0     		sub	sp, sp, #8
 338              		.cfi_def_cfa_offset 16
 339 0004 00AF     		add	r7, sp, #0
 340              		.cfi_def_cfa_register 7
 341 0006 7860     		str	r0, [r7, #4]
 342              		.loc 4 1058 3
ARM GAS  C:\Users\DEVELO~1\AppData\Local\Temp\ccw0nPn3.s 			page 7


 343 0008 7868     		ldr	r0, [r7, #4]
 344 000a FFF7FEFF 		bl	chMtxLock
 345              		.loc 4 1064 1
 346 000e 00BF     		nop
 347 0010 0837     		adds	r7, r7, #8
 348              		.cfi_def_cfa_offset 8
 349 0012 BD46     		mov	sp, r7
 350              		.cfi_def_cfa_register 13
 351              		@ sp needed
 352 0014 80BD     		pop	{r7, pc}
 353              		.cfi_endproc
 354              	.LFE377:
 355              		.size	osalMutexLock, .-osalMutexLock
 356              		.section	.text.osalMutexUnlock,"ax",%progbits
 357              		.align	1
 358              		.syntax unified
 359              		.thumb
 360              		.thumb_func
 361              		.type	osalMutexUnlock, %function
 362              	osalMutexUnlock:
 363              	.LFB378:
 364              		.loc 4 1079 49
 365              		.cfi_startproc
 366              		@ args = 0, pretend = 0, frame = 8
 367              		@ frame_needed = 1, uses_anonymous_args = 0
 368 0000 80B5     		push	{r7, lr}
 369              		.cfi_def_cfa_offset 8
 370              		.cfi_offset 7, -8
 371              		.cfi_offset 14, -4
 372 0002 82B0     		sub	sp, sp, #8
 373              		.cfi_def_cfa_offset 16
 374 0004 00AF     		add	r7, sp, #0
 375              		.cfi_def_cfa_register 7
 376 0006 7860     		str	r0, [r7, #4]
 377              		.loc 4 1082 3
 378 0008 7868     		ldr	r0, [r7, #4]
 379 000a FFF7FEFF 		bl	chMtxUnlock
 380              		.loc 4 1088 1
 381 000e 00BF     		nop
 382 0010 0837     		adds	r7, r7, #8
 383              		.cfi_def_cfa_offset 8
 384 0012 BD46     		mov	sp, r7
 385              		.cfi_def_cfa_register 13
 386              		@ sp needed
 387 0014 80BD     		pop	{r7, pc}
 388              		.cfi_endproc
 389              	.LFE378:
 390              		.size	osalMutexUnlock, .-osalMutexUnlock
 391              		.section	.text.spiInit,"ax",%progbits
 392              		.align	1
 393              		.global	spiInit
 394              		.syntax unified
 395              		.thumb
 396              		.thumb_func
 397              		.type	spiInit, %function
 398              	spiInit:
 399              	.LFB432:
ARM GAS  C:\Users\DEVELO~1\AppData\Local\Temp\ccw0nPn3.s 			page 8


 400              		.file 5 "../../../os/hal/src/hal_spi_v2.inc"
 401              		.loc 5 54 20
 402              		.cfi_startproc
 403              		@ args = 0, pretend = 0, frame = 0
 404              		@ frame_needed = 1, uses_anonymous_args = 0
 405 0000 80B5     		push	{r7, lr}
 406              		.cfi_def_cfa_offset 8
 407              		.cfi_offset 7, -8
 408              		.cfi_offset 14, -4
 409 0002 00AF     		add	r7, sp, #0
 410              		.cfi_def_cfa_register 7
 411              		.loc 5 56 3
 412 0004 FFF7FEFF 		bl	spi_lld_init
 413              		.loc 5 57 1
 414 0008 00BF     		nop
 415 000a 80BD     		pop	{r7, pc}
 416              		.cfi_endproc
 417              	.LFE432:
 418              		.size	spiInit, .-spiInit
 419              		.section	.text.spiObjectInit,"ax",%progbits
 420              		.align	1
 421              		.global	spiObjectInit
 422              		.syntax unified
 423              		.thumb
 424              		.thumb_func
 425              		.type	spiObjectInit, %function
 426              	spiObjectInit:
 427              	.LFB433:
 428              		.loc 5 66 37
 429              		.cfi_startproc
 430              		@ args = 0, pretend = 0, frame = 8
 431              		@ frame_needed = 1, uses_anonymous_args = 0
 432 0000 80B5     		push	{r7, lr}
 433              		.cfi_def_cfa_offset 8
 434              		.cfi_offset 7, -8
 435              		.cfi_offset 14, -4
 436 0002 82B0     		sub	sp, sp, #8
 437              		.cfi_def_cfa_offset 16
 438 0004 00AF     		add	r7, sp, #0
 439              		.cfi_def_cfa_register 7
 440 0006 7860     		str	r0, [r7, #4]
 441              		.loc 5 68 25
 442 0008 7B68     		ldr	r3, [r7, #4]
 443 000a 0122     		movs	r2, #1
 444 000c 1A70     		strb	r2, [r3]
 445              		.loc 5 69 25
 446 000e 7B68     		ldr	r3, [r7, #4]
 447 0010 0022     		movs	r2, #0
 448 0012 5A60     		str	r2, [r3, #4]
 449              		.loc 5 71 25
 450 0014 7B68     		ldr	r3, [r7, #4]
 451 0016 0022     		movs	r2, #0
 452 0018 9A60     		str	r2, [r3, #8]
 453              		.loc 5 74 3
 454 001a 7B68     		ldr	r3, [r7, #4]
 455 001c 0C33     		adds	r3, r3, #12
 456 001e 1846     		mov	r0, r3
ARM GAS  C:\Users\DEVELO~1\AppData\Local\Temp\ccw0nPn3.s 			page 9


 457 0020 FFF7FEFF 		bl	osalMutexObjectInit
 458              		.loc 5 79 1
 459 0024 00BF     		nop
 460 0026 0837     		adds	r7, r7, #8
 461              		.cfi_def_cfa_offset 8
 462 0028 BD46     		mov	sp, r7
 463              		.cfi_def_cfa_register 13
 464              		@ sp needed
 465 002a 80BD     		pop	{r7, pc}
 466              		.cfi_endproc
 467              	.LFE433:
 468              		.size	spiObjectInit, .-spiObjectInit
 469              		.section	.text.spiStart,"ax",%progbits
 470              		.align	1
 471              		.global	spiStart
 472              		.syntax unified
 473              		.thumb
 474              		.thumb_func
 475              		.type	spiStart, %function
 476              	spiStart:
 477              	.LFB434:
 478              		.loc 5 90 58
 479              		.cfi_startproc
 480              		@ args = 0, pretend = 0, frame = 16
 481              		@ frame_needed = 1, uses_anonymous_args = 0
 482 0000 80B5     		push	{r7, lr}
 483              		.cfi_def_cfa_offset 8
 484              		.cfi_offset 7, -8
 485              		.cfi_offset 14, -4
 486 0002 84B0     		sub	sp, sp, #16
 487              		.cfi_def_cfa_offset 24
 488 0004 00AF     		add	r7, sp, #0
 489              		.cfi_def_cfa_register 7
 490 0006 7860     		str	r0, [r7, #4]
 491 0008 3960     		str	r1, [r7]
 492              		.loc 5 95 3
 493 000a FFF7FEFF 		bl	osalSysLock
 494              		.loc 5 99 16
 495 000e 7B68     		ldr	r3, [r7, #4]
 496 0010 3A68     		ldr	r2, [r7]
 497 0012 5A60     		str	r2, [r3, #4]
 498              		.loc 5 101 9
 499 0014 7868     		ldr	r0, [r7, #4]
 500 0016 FFF7FEFF 		bl	spi_lld_start
 501 001a F860     		str	r0, [r7, #12]
 502              		.loc 5 102 6
 503 001c FB68     		ldr	r3, [r7, #12]
 504 001e 002B     		cmp	r3, #0
 505 0020 03D1     		bne	.L15
 506              		.loc 5 103 17
 507 0022 7B68     		ldr	r3, [r7, #4]
 508 0024 0222     		movs	r2, #2
 509 0026 1A70     		strb	r2, [r3]
 510 0028 02E0     		b	.L16
 511              	.L15:
 512              		.loc 5 106 17
 513 002a 7B68     		ldr	r3, [r7, #4]
ARM GAS  C:\Users\DEVELO~1\AppData\Local\Temp\ccw0nPn3.s 			page 10


 514 002c 0122     		movs	r2, #1
 515 002e 1A70     		strb	r2, [r3]
 516              	.L16:
 517              		.loc 5 109 3
 518 0030 FFF7FEFF 		bl	osalSysUnlock
 519              		.loc 5 115 10
 520 0034 FB68     		ldr	r3, [r7, #12]
 521              		.loc 5 116 1
 522 0036 1846     		mov	r0, r3
 523 0038 1037     		adds	r7, r7, #16
 524              		.cfi_def_cfa_offset 8
 525 003a BD46     		mov	sp, r7
 526              		.cfi_def_cfa_register 13
 527              		@ sp needed
 528 003c 80BD     		pop	{r7, pc}
 529              		.cfi_endproc
 530              	.LFE434:
 531              		.size	spiStart, .-spiStart
 532              		.section	.text.spiStop,"ax",%progbits
 533              		.align	1
 534              		.global	spiStop
 535              		.syntax unified
 536              		.thumb
 537              		.thumb_func
 538              		.type	spiStop, %function
 539              	spiStop:
 540              	.LFB435:
 541              		.loc 5 125 31
 542              		.cfi_startproc
 543              		@ args = 0, pretend = 0, frame = 8
 544              		@ frame_needed = 1, uses_anonymous_args = 0
 545 0000 80B5     		push	{r7, lr}
 546              		.cfi_def_cfa_offset 8
 547              		.cfi_offset 7, -8
 548              		.cfi_offset 14, -4
 549 0002 82B0     		sub	sp, sp, #8
 550              		.cfi_def_cfa_offset 16
 551 0004 00AF     		add	r7, sp, #0
 552              		.cfi_def_cfa_register 7
 553 0006 7860     		str	r0, [r7, #4]
 554              		.loc 5 129 3
 555 0008 FFF7FEFF 		bl	osalSysLock
 556              		.loc 5 134 3
 557 000c 7868     		ldr	r0, [r7, #4]
 558 000e FFF7FEFF 		bl	spi_lld_stop
 559              		.loc 5 135 16
 560 0012 7B68     		ldr	r3, [r7, #4]
 561 0014 0022     		movs	r2, #0
 562 0016 5A60     		str	r2, [r3, #4]
 563              		.loc 5 136 16
 564 0018 7B68     		ldr	r3, [r7, #4]
 565 001a 0122     		movs	r2, #1
 566 001c 1A70     		strb	r2, [r3]
 567              		.loc 5 138 3
 568 001e FFF7FEFF 		bl	osalSysUnlock
 569              		.loc 5 139 1
 570 0022 00BF     		nop
ARM GAS  C:\Users\DEVELO~1\AppData\Local\Temp\ccw0nPn3.s 			page 11


 571 0024 0837     		adds	r7, r7, #8
 572              		.cfi_def_cfa_offset 8
 573 0026 BD46     		mov	sp, r7
 574              		.cfi_def_cfa_register 13
 575              		@ sp needed
 576 0028 80BD     		pop	{r7, pc}
 577              		.cfi_endproc
 578              	.LFE435:
 579              		.size	spiStop, .-spiStop
 580              		.section	.text.spiSelect,"ax",%progbits
 581              		.align	1
 582              		.global	spiSelect
 583              		.syntax unified
 584              		.thumb
 585              		.thumb_func
 586              		.type	spiSelect, %function
 587              	spiSelect:
 588              	.LFB436:
 589              		.loc 5 148 33
 590              		.cfi_startproc
 591              		@ args = 0, pretend = 0, frame = 8
 592              		@ frame_needed = 1, uses_anonymous_args = 0
 593 0000 80B5     		push	{r7, lr}
 594              		.cfi_def_cfa_offset 8
 595              		.cfi_offset 7, -8
 596              		.cfi_offset 14, -4
 597 0002 82B0     		sub	sp, sp, #8
 598              		.cfi_def_cfa_offset 16
 599 0004 00AF     		add	r7, sp, #0
 600              		.cfi_def_cfa_register 7
 601 0006 7860     		str	r0, [r7, #4]
 602              		.loc 5 152 3
 603 0008 FFF7FEFF 		bl	osalSysLock
 604              		.loc 5 154 3
 605 000c 7B68     		ldr	r3, [r7, #4]
 606 000e 5B68     		ldr	r3, [r3, #4]
 607 0010 1B69     		ldr	r3, [r3, #16]
 608 0012 0122     		movs	r2, #1
 609 0014 9A40     		lsls	r2, r2, r3
 610 0016 7B68     		ldr	r3, [r7, #4]
 611 0018 5B68     		ldr	r3, [r3, #4]
 612 001a DB68     		ldr	r3, [r3, #12]
 613 001c 92B2     		uxth	r2, r2
 614 001e 5A83     		strh	r2, [r3, #26]	@ movhi
 615              		.loc 5 155 3
 616 0020 FFF7FEFF 		bl	osalSysUnlock
 617              		.loc 5 156 1
 618 0024 00BF     		nop
 619 0026 0837     		adds	r7, r7, #8
 620              		.cfi_def_cfa_offset 8
 621 0028 BD46     		mov	sp, r7
 622              		.cfi_def_cfa_register 13
 623              		@ sp needed
 624 002a 80BD     		pop	{r7, pc}
 625              		.cfi_endproc
 626              	.LFE436:
 627              		.size	spiSelect, .-spiSelect
ARM GAS  C:\Users\DEVELO~1\AppData\Local\Temp\ccw0nPn3.s 			page 12


 628              		.section	.text.spiUnselect,"ax",%progbits
 629              		.align	1
 630              		.global	spiUnselect
 631              		.syntax unified
 632              		.thumb
 633              		.thumb_func
 634              		.type	spiUnselect, %function
 635              	spiUnselect:
 636              	.LFB437:
 637              		.loc 5 166 35
 638              		.cfi_startproc
 639              		@ args = 0, pretend = 0, frame = 8
 640              		@ frame_needed = 1, uses_anonymous_args = 0
 641 0000 80B5     		push	{r7, lr}
 642              		.cfi_def_cfa_offset 8
 643              		.cfi_offset 7, -8
 644              		.cfi_offset 14, -4
 645 0002 82B0     		sub	sp, sp, #8
 646              		.cfi_def_cfa_offset 16
 647 0004 00AF     		add	r7, sp, #0
 648              		.cfi_def_cfa_register 7
 649 0006 7860     		str	r0, [r7, #4]
 650              		.loc 5 170 3
 651 0008 FFF7FEFF 		bl	osalSysLock
 652              		.loc 5 172 3
 653 000c 7B68     		ldr	r3, [r7, #4]
 654 000e 5B68     		ldr	r3, [r3, #4]
 655 0010 1B69     		ldr	r3, [r3, #16]
 656 0012 0122     		movs	r2, #1
 657 0014 9A40     		lsls	r2, r2, r3
 658 0016 7B68     		ldr	r3, [r7, #4]
 659 0018 5B68     		ldr	r3, [r3, #4]
 660 001a DB68     		ldr	r3, [r3, #12]
 661 001c 92B2     		uxth	r2, r2
 662 001e 1A83     		strh	r2, [r3, #24]	@ movhi
 663              		.loc 5 173 3
 664 0020 FFF7FEFF 		bl	osalSysUnlock
 665              		.loc 5 174 1
 666 0024 00BF     		nop
 667 0026 0837     		adds	r7, r7, #8
 668              		.cfi_def_cfa_offset 8
 669 0028 BD46     		mov	sp, r7
 670              		.cfi_def_cfa_register 13
 671              		@ sp needed
 672 002a 80BD     		pop	{r7, pc}
 673              		.cfi_endproc
 674              	.LFE437:
 675              		.size	spiUnselect, .-spiUnselect
 676              		.section	.text.spiStartIgnoreI,"ax",%progbits
 677              		.align	1
 678              		.global	spiStartIgnoreI
 679              		.syntax unified
 680              		.thumb
 681              		.thumb_func
 682              		.type	spiStartIgnoreI, %function
 683              	spiStartIgnoreI:
 684              	.LFB438:
ARM GAS  C:\Users\DEVELO~1\AppData\Local\Temp\ccw0nPn3.s 			page 13


 685              		.loc 5 190 50
 686              		.cfi_startproc
 687              		@ args = 0, pretend = 0, frame = 16
 688              		@ frame_needed = 1, uses_anonymous_args = 0
 689 0000 80B5     		push	{r7, lr}
 690              		.cfi_def_cfa_offset 8
 691              		.cfi_offset 7, -8
 692              		.cfi_offset 14, -4
 693 0002 84B0     		sub	sp, sp, #16
 694              		.cfi_def_cfa_offset 24
 695 0004 00AF     		add	r7, sp, #0
 696              		.cfi_def_cfa_register 7
 697 0006 7860     		str	r0, [r7, #4]
 698 0008 3960     		str	r1, [r7]
 699              		.loc 5 202 15
 700 000a 7B68     		ldr	r3, [r7, #4]
 701 000c 0322     		movs	r2, #3
 702 000e 1A70     		strb	r2, [r3]
 703              		.loc 5 203 9
 704 0010 3968     		ldr	r1, [r7]
 705 0012 7868     		ldr	r0, [r7, #4]
 706 0014 FFF7FEFF 		bl	spi_lld_ignore
 707 0018 F860     		str	r0, [r7, #12]
 708              		.loc 5 209 10
 709 001a FB68     		ldr	r3, [r7, #12]
 710              		.loc 5 210 1
 711 001c 1846     		mov	r0, r3
 712 001e 1037     		adds	r7, r7, #16
 713              		.cfi_def_cfa_offset 8
 714 0020 BD46     		mov	sp, r7
 715              		.cfi_def_cfa_register 13
 716              		@ sp needed
 717 0022 80BD     		pop	{r7, pc}
 718              		.cfi_endproc
 719              	.LFE438:
 720              		.size	spiStartIgnoreI, .-spiStartIgnoreI
 721              		.section	.text.spiStartIgnore,"ax",%progbits
 722              		.align	1
 723              		.global	spiStartIgnore
 724              		.syntax unified
 725              		.thumb
 726              		.thumb_func
 727              		.type	spiStartIgnore, %function
 728              	spiStartIgnore:
 729              	.LFB439:
 730              		.loc 5 226 49
 731              		.cfi_startproc
 732              		@ args = 0, pretend = 0, frame = 16
 733              		@ frame_needed = 1, uses_anonymous_args = 0
 734 0000 80B5     		push	{r7, lr}
 735              		.cfi_def_cfa_offset 8
 736              		.cfi_offset 7, -8
 737              		.cfi_offset 14, -4
 738 0002 84B0     		sub	sp, sp, #16
 739              		.cfi_def_cfa_offset 24
 740 0004 00AF     		add	r7, sp, #0
 741              		.cfi_def_cfa_register 7
ARM GAS  C:\Users\DEVELO~1\AppData\Local\Temp\ccw0nPn3.s 			page 14


 742 0006 7860     		str	r0, [r7, #4]
 743 0008 3960     		str	r1, [r7]
 744              		.loc 5 229 3
 745 000a FFF7FEFF 		bl	osalSysLock
 746              		.loc 5 230 9
 747 000e 3968     		ldr	r1, [r7]
 748 0010 7868     		ldr	r0, [r7, #4]
 749 0012 FFF7FEFF 		bl	spiStartIgnoreI
 750 0016 F860     		str	r0, [r7, #12]
 751              		.loc 5 231 3
 752 0018 FFF7FEFF 		bl	osalSysUnlock
 753              		.loc 5 233 10
 754 001c FB68     		ldr	r3, [r7, #12]
 755              		.loc 5 234 1
 756 001e 1846     		mov	r0, r3
 757 0020 1037     		adds	r7, r7, #16
 758              		.cfi_def_cfa_offset 8
 759 0022 BD46     		mov	sp, r7
 760              		.cfi_def_cfa_register 13
 761              		@ sp needed
 762 0024 80BD     		pop	{r7, pc}
 763              		.cfi_endproc
 764              	.LFE439:
 765              		.size	spiStartIgnore, .-spiStartIgnore
 766              		.section	.text.spiStartExchangeI,"ax",%progbits
 767              		.align	1
 768              		.global	spiStartExchangeI
 769              		.syntax unified
 770              		.thumb
 771              		.thumb_func
 772              		.type	spiStartExchangeI, %function
 773              	spiStartExchangeI:
 774              	.LFB440:
 775              		.loc 5 255 56
 776              		.cfi_startproc
 777              		@ args = 0, pretend = 0, frame = 24
 778              		@ frame_needed = 1, uses_anonymous_args = 0
 779 0000 80B5     		push	{r7, lr}
 780              		.cfi_def_cfa_offset 8
 781              		.cfi_offset 7, -8
 782              		.cfi_offset 14, -4
 783 0002 86B0     		sub	sp, sp, #24
 784              		.cfi_def_cfa_offset 32
 785 0004 00AF     		add	r7, sp, #0
 786              		.cfi_def_cfa_register 7
 787 0006 F860     		str	r0, [r7, #12]
 788 0008 B960     		str	r1, [r7, #8]
 789 000a 7A60     		str	r2, [r7, #4]
 790 000c 3B60     		str	r3, [r7]
 791              		.loc 5 268 15
 792 000e FB68     		ldr	r3, [r7, #12]
 793 0010 0322     		movs	r2, #3
 794 0012 1A70     		strb	r2, [r3]
 795              		.loc 5 269 9
 796 0014 3B68     		ldr	r3, [r7]
 797 0016 7A68     		ldr	r2, [r7, #4]
 798 0018 B968     		ldr	r1, [r7, #8]
ARM GAS  C:\Users\DEVELO~1\AppData\Local\Temp\ccw0nPn3.s 			page 15


 799 001a F868     		ldr	r0, [r7, #12]
 800 001c FFF7FEFF 		bl	spi_lld_exchange
 801 0020 7861     		str	r0, [r7, #20]
 802              		.loc 5 275 10
 803 0022 7B69     		ldr	r3, [r7, #20]
 804              		.loc 5 276 1
 805 0024 1846     		mov	r0, r3
 806 0026 1837     		adds	r7, r7, #24
 807              		.cfi_def_cfa_offset 8
 808 0028 BD46     		mov	sp, r7
 809              		.cfi_def_cfa_register 13
 810              		@ sp needed
 811 002a 80BD     		pop	{r7, pc}
 812              		.cfi_endproc
 813              	.LFE440:
 814              		.size	spiStartExchangeI, .-spiStartExchangeI
 815              		.section	.text.spiStartExchange,"ax",%progbits
 816              		.align	1
 817              		.global	spiStartExchange
 818              		.syntax unified
 819              		.thumb
 820              		.thumb_func
 821              		.type	spiStartExchange, %function
 822              	spiStartExchange:
 823              	.LFB441:
 824              		.loc 5 297 55
 825              		.cfi_startproc
 826              		@ args = 0, pretend = 0, frame = 24
 827              		@ frame_needed = 1, uses_anonymous_args = 0
 828 0000 80B5     		push	{r7, lr}
 829              		.cfi_def_cfa_offset 8
 830              		.cfi_offset 7, -8
 831              		.cfi_offset 14, -4
 832 0002 86B0     		sub	sp, sp, #24
 833              		.cfi_def_cfa_offset 32
 834 0004 00AF     		add	r7, sp, #0
 835              		.cfi_def_cfa_register 7
 836 0006 F860     		str	r0, [r7, #12]
 837 0008 B960     		str	r1, [r7, #8]
 838 000a 7A60     		str	r2, [r7, #4]
 839 000c 3B60     		str	r3, [r7]
 840              		.loc 5 300 3
 841 000e FFF7FEFF 		bl	osalSysLock
 842              		.loc 5 301 9
 843 0012 3B68     		ldr	r3, [r7]
 844 0014 7A68     		ldr	r2, [r7, #4]
 845 0016 B968     		ldr	r1, [r7, #8]
 846 0018 F868     		ldr	r0, [r7, #12]
 847 001a FFF7FEFF 		bl	spiStartExchangeI
 848 001e 7861     		str	r0, [r7, #20]
 849              		.loc 5 302 3
 850 0020 FFF7FEFF 		bl	osalSysUnlock
 851              		.loc 5 304 10
 852 0024 7B69     		ldr	r3, [r7, #20]
 853              		.loc 5 305 1
 854 0026 1846     		mov	r0, r3
 855 0028 1837     		adds	r7, r7, #24
ARM GAS  C:\Users\DEVELO~1\AppData\Local\Temp\ccw0nPn3.s 			page 16


 856              		.cfi_def_cfa_offset 8
 857 002a BD46     		mov	sp, r7
 858              		.cfi_def_cfa_register 13
 859              		@ sp needed
 860 002c 80BD     		pop	{r7, pc}
 861              		.cfi_endproc
 862              	.LFE441:
 863              		.size	spiStartExchange, .-spiStartExchange
 864              		.section	.text.spiStartSendI,"ax",%progbits
 865              		.align	1
 866              		.global	spiStartSendI
 867              		.syntax unified
 868              		.thumb
 869              		.thumb_func
 870              		.type	spiStartSendI, %function
 871              	spiStartSendI:
 872              	.LFB442:
 873              		.loc 5 323 67
 874              		.cfi_startproc
 875              		@ args = 0, pretend = 0, frame = 24
 876              		@ frame_needed = 1, uses_anonymous_args = 0
 877 0000 80B5     		push	{r7, lr}
 878              		.cfi_def_cfa_offset 8
 879              		.cfi_offset 7, -8
 880              		.cfi_offset 14, -4
 881 0002 86B0     		sub	sp, sp, #24
 882              		.cfi_def_cfa_offset 32
 883 0004 00AF     		add	r7, sp, #0
 884              		.cfi_def_cfa_register 7
 885 0006 F860     		str	r0, [r7, #12]
 886 0008 B960     		str	r1, [r7, #8]
 887 000a 7A60     		str	r2, [r7, #4]
 888              		.loc 5 335 15
 889 000c FB68     		ldr	r3, [r7, #12]
 890 000e 0322     		movs	r2, #3
 891 0010 1A70     		strb	r2, [r3]
 892              		.loc 5 336 9
 893 0012 7A68     		ldr	r2, [r7, #4]
 894 0014 B968     		ldr	r1, [r7, #8]
 895 0016 F868     		ldr	r0, [r7, #12]
 896 0018 FFF7FEFF 		bl	spi_lld_send
 897 001c 7861     		str	r0, [r7, #20]
 898              		.loc 5 342 10
 899 001e 7B69     		ldr	r3, [r7, #20]
 900              		.loc 5 343 1
 901 0020 1846     		mov	r0, r3
 902 0022 1837     		adds	r7, r7, #24
 903              		.cfi_def_cfa_offset 8
 904 0024 BD46     		mov	sp, r7
 905              		.cfi_def_cfa_register 13
 906              		@ sp needed
 907 0026 80BD     		pop	{r7, pc}
 908              		.cfi_endproc
 909              	.LFE442:
 910              		.size	spiStartSendI, .-spiStartSendI
 911              		.section	.text.spiStartSend,"ax",%progbits
 912              		.align	1
ARM GAS  C:\Users\DEVELO~1\AppData\Local\Temp\ccw0nPn3.s 			page 17


 913              		.global	spiStartSend
 914              		.syntax unified
 915              		.thumb
 916              		.thumb_func
 917              		.type	spiStartSend, %function
 918              	spiStartSend:
 919              	.LFB443:
 920              		.loc 5 361 66
 921              		.cfi_startproc
 922              		@ args = 0, pretend = 0, frame = 24
 923              		@ frame_needed = 1, uses_anonymous_args = 0
 924 0000 80B5     		push	{r7, lr}
 925              		.cfi_def_cfa_offset 8
 926              		.cfi_offset 7, -8
 927              		.cfi_offset 14, -4
 928 0002 86B0     		sub	sp, sp, #24
 929              		.cfi_def_cfa_offset 32
 930 0004 00AF     		add	r7, sp, #0
 931              		.cfi_def_cfa_register 7
 932 0006 F860     		str	r0, [r7, #12]
 933 0008 B960     		str	r1, [r7, #8]
 934 000a 7A60     		str	r2, [r7, #4]
 935              		.loc 5 364 3
 936 000c FFF7FEFF 		bl	osalSysLock
 937              		.loc 5 365 9
 938 0010 7A68     		ldr	r2, [r7, #4]
 939 0012 B968     		ldr	r1, [r7, #8]
 940 0014 F868     		ldr	r0, [r7, #12]
 941 0016 FFF7FEFF 		bl	spiStartSendI
 942 001a 7861     		str	r0, [r7, #20]
 943              		.loc 5 366 3
 944 001c FFF7FEFF 		bl	osalSysUnlock
 945              		.loc 5 368 10
 946 0020 7B69     		ldr	r3, [r7, #20]
 947              		.loc 5 369 1
 948 0022 1846     		mov	r0, r3
 949 0024 1837     		adds	r7, r7, #24
 950              		.cfi_def_cfa_offset 8
 951 0026 BD46     		mov	sp, r7
 952              		.cfi_def_cfa_register 13
 953              		@ sp needed
 954 0028 80BD     		pop	{r7, pc}
 955              		.cfi_endproc
 956              	.LFE443:
 957              		.size	spiStartSend, .-spiStartSend
 958              		.section	.text.spiStartReceiveI,"ax",%progbits
 959              		.align	1
 960              		.global	spiStartReceiveI
 961              		.syntax unified
 962              		.thumb
 963              		.thumb_func
 964              		.type	spiStartReceiveI, %function
 965              	spiStartReceiveI:
 966              	.LFB444:
 967              		.loc 5 387 64
 968              		.cfi_startproc
 969              		@ args = 0, pretend = 0, frame = 24
ARM GAS  C:\Users\DEVELO~1\AppData\Local\Temp\ccw0nPn3.s 			page 18


 970              		@ frame_needed = 1, uses_anonymous_args = 0
 971 0000 80B5     		push	{r7, lr}
 972              		.cfi_def_cfa_offset 8
 973              		.cfi_offset 7, -8
 974              		.cfi_offset 14, -4
 975 0002 86B0     		sub	sp, sp, #24
 976              		.cfi_def_cfa_offset 32
 977 0004 00AF     		add	r7, sp, #0
 978              		.cfi_def_cfa_register 7
 979 0006 F860     		str	r0, [r7, #12]
 980 0008 B960     		str	r1, [r7, #8]
 981 000a 7A60     		str	r2, [r7, #4]
 982              		.loc 5 399 15
 983 000c FB68     		ldr	r3, [r7, #12]
 984 000e 0322     		movs	r2, #3
 985 0010 1A70     		strb	r2, [r3]
 986              		.loc 5 400 9
 987 0012 7A68     		ldr	r2, [r7, #4]
 988 0014 B968     		ldr	r1, [r7, #8]
 989 0016 F868     		ldr	r0, [r7, #12]
 990 0018 FFF7FEFF 		bl	spi_lld_receive
 991 001c 7861     		str	r0, [r7, #20]
 992              		.loc 5 406 10
 993 001e 7B69     		ldr	r3, [r7, #20]
 994              		.loc 5 407 1
 995 0020 1846     		mov	r0, r3
 996 0022 1837     		adds	r7, r7, #24
 997              		.cfi_def_cfa_offset 8
 998 0024 BD46     		mov	sp, r7
 999              		.cfi_def_cfa_register 13
 1000              		@ sp needed
 1001 0026 80BD     		pop	{r7, pc}
 1002              		.cfi_endproc
 1003              	.LFE444:
 1004              		.size	spiStartReceiveI, .-spiStartReceiveI
 1005              		.section	.text.spiStartReceive,"ax",%progbits
 1006              		.align	1
 1007              		.global	spiStartReceive
 1008              		.syntax unified
 1009              		.thumb
 1010              		.thumb_func
 1011              		.type	spiStartReceive, %function
 1012              	spiStartReceive:
 1013              	.LFB445:
 1014              		.loc 5 425 63
 1015              		.cfi_startproc
 1016              		@ args = 0, pretend = 0, frame = 24
 1017              		@ frame_needed = 1, uses_anonymous_args = 0
 1018 0000 80B5     		push	{r7, lr}
 1019              		.cfi_def_cfa_offset 8
 1020              		.cfi_offset 7, -8
 1021              		.cfi_offset 14, -4
 1022 0002 86B0     		sub	sp, sp, #24
 1023              		.cfi_def_cfa_offset 32
 1024 0004 00AF     		add	r7, sp, #0
 1025              		.cfi_def_cfa_register 7
 1026 0006 F860     		str	r0, [r7, #12]
ARM GAS  C:\Users\DEVELO~1\AppData\Local\Temp\ccw0nPn3.s 			page 19


 1027 0008 B960     		str	r1, [r7, #8]
 1028 000a 7A60     		str	r2, [r7, #4]
 1029              		.loc 5 428 3
 1030 000c FFF7FEFF 		bl	osalSysLock
 1031              		.loc 5 429 9
 1032 0010 7A68     		ldr	r2, [r7, #4]
 1033 0012 B968     		ldr	r1, [r7, #8]
 1034 0014 F868     		ldr	r0, [r7, #12]
 1035 0016 FFF7FEFF 		bl	spiStartReceiveI
 1036 001a 7861     		str	r0, [r7, #20]
 1037              		.loc 5 430 3
 1038 001c FFF7FEFF 		bl	osalSysUnlock
 1039              		.loc 5 432 10
 1040 0020 7B69     		ldr	r3, [r7, #20]
 1041              		.loc 5 433 1
 1042 0022 1846     		mov	r0, r3
 1043 0024 1837     		adds	r7, r7, #24
 1044              		.cfi_def_cfa_offset 8
 1045 0026 BD46     		mov	sp, r7
 1046              		.cfi_def_cfa_register 13
 1047              		@ sp needed
 1048 0028 80BD     		pop	{r7, pc}
 1049              		.cfi_endproc
 1050              	.LFE445:
 1051              		.size	spiStartReceive, .-spiStartReceive
 1052              		.section	.text.spiStopTransferI,"ax",%progbits
 1053              		.align	1
 1054              		.global	spiStopTransferI
 1055              		.syntax unified
 1056              		.thumb
 1057              		.thumb_func
 1058              		.type	spiStopTransferI, %function
 1059              	spiStopTransferI:
 1060              	.LFB446:
 1061              		.loc 5 445 56
 1062              		.cfi_startproc
 1063              		@ args = 0, pretend = 0, frame = 16
 1064              		@ frame_needed = 1, uses_anonymous_args = 0
 1065 0000 80B5     		push	{r7, lr}
 1066              		.cfi_def_cfa_offset 8
 1067              		.cfi_offset 7, -8
 1068              		.cfi_offset 14, -4
 1069 0002 84B0     		sub	sp, sp, #16
 1070              		.cfi_def_cfa_offset 24
 1071 0004 00AF     		add	r7, sp, #0
 1072              		.cfi_def_cfa_register 7
 1073 0006 7860     		str	r0, [r7, #4]
 1074 0008 3960     		str	r1, [r7]
 1075              		.loc 5 457 12
 1076 000a 7B68     		ldr	r3, [r7, #4]
 1077 000c 1B78     		ldrb	r3, [r3]	@ zero_extendqisi2
 1078              		.loc 5 457 6
 1079 000e 032B     		cmp	r3, #3
 1080 0010 03D0     		beq	.L38
 1081              		.loc 5 457 43 discriminator 1
 1082 0012 7B68     		ldr	r3, [r7, #4]
 1083 0014 1B78     		ldrb	r3, [r3]	@ zero_extendqisi2
ARM GAS  C:\Users\DEVELO~1\AppData\Local\Temp\ccw0nPn3.s 			page 20


 1084              		.loc 5 457 35 discriminator 1
 1085 0016 042B     		cmp	r3, #4
 1086 0018 0FD1     		bne	.L39
 1087              	.L38:
 1088              		.loc 5 460 11
 1089 001a 3968     		ldr	r1, [r7]
 1090 001c 7868     		ldr	r0, [r7, #4]
 1091 001e FFF7FEFF 		bl	spi_lld_stop_transfer
 1092 0022 F860     		str	r0, [r7, #12]
 1093              		.loc 5 461 17
 1094 0024 7B68     		ldr	r3, [r7, #4]
 1095 0026 0222     		movs	r2, #2
 1096 0028 1A70     		strb	r2, [r3]
 1097              		.loc 5 464 5
 1098 002a 7B68     		ldr	r3, [r7, #4]
 1099 002c 0833     		adds	r3, r3, #8
 1100 002e 6FF00101 		mvn	r1, #1
 1101 0032 1846     		mov	r0, r3
 1102 0034 FFF7FEFF 		bl	osalThreadResumeI
 1103 0038 01E0     		b	.L40
 1104              	.L39:
 1105              		.loc 5 468 9
 1106 003a 0023     		movs	r3, #0
 1107 003c FB60     		str	r3, [r7, #12]
 1108              	.L40:
 1109              		.loc 5 471 10
 1110 003e FB68     		ldr	r3, [r7, #12]
 1111              		.loc 5 472 1
 1112 0040 1846     		mov	r0, r3
 1113 0042 1037     		adds	r7, r7, #16
 1114              		.cfi_def_cfa_offset 8
 1115 0044 BD46     		mov	sp, r7
 1116              		.cfi_def_cfa_register 13
 1117              		@ sp needed
 1118 0046 80BD     		pop	{r7, pc}
 1119              		.cfi_endproc
 1120              	.LFE446:
 1121              		.size	spiStopTransferI, .-spiStopTransferI
 1122              		.section	.text.spiStopTransfer,"ax",%progbits
 1123              		.align	1
 1124              		.global	spiStopTransfer
 1125              		.syntax unified
 1126              		.thumb
 1127              		.thumb_func
 1128              		.type	spiStopTransfer, %function
 1129              	spiStopTransfer:
 1130              	.LFB447:
 1131              		.loc 5 484 55
 1132              		.cfi_startproc
 1133              		@ args = 0, pretend = 0, frame = 16
 1134              		@ frame_needed = 1, uses_anonymous_args = 0
 1135 0000 80B5     		push	{r7, lr}
 1136              		.cfi_def_cfa_offset 8
 1137              		.cfi_offset 7, -8
 1138              		.cfi_offset 14, -4
 1139 0002 84B0     		sub	sp, sp, #16
 1140              		.cfi_def_cfa_offset 24
ARM GAS  C:\Users\DEVELO~1\AppData\Local\Temp\ccw0nPn3.s 			page 21


 1141 0004 00AF     		add	r7, sp, #0
 1142              		.cfi_def_cfa_register 7
 1143 0006 7860     		str	r0, [r7, #4]
 1144 0008 3960     		str	r1, [r7]
 1145              		.loc 5 487 3
 1146 000a FFF7FEFF 		bl	osalSysLock
 1147              		.loc 5 489 9
 1148 000e 3968     		ldr	r1, [r7]
 1149 0010 7868     		ldr	r0, [r7, #4]
 1150 0012 FFF7FEFF 		bl	spiStopTransferI
 1151 0016 F860     		str	r0, [r7, #12]
 1152              		.loc 5 490 3
 1153 0018 FFF7FEFF 		bl	osalOsRescheduleS
 1154              		.loc 5 492 3
 1155 001c FFF7FEFF 		bl	osalSysUnlock
 1156              		.loc 5 494 10
 1157 0020 FB68     		ldr	r3, [r7, #12]
 1158              		.loc 5 495 1
 1159 0022 1846     		mov	r0, r3
 1160 0024 1037     		adds	r7, r7, #16
 1161              		.cfi_def_cfa_offset 8
 1162 0026 BD46     		mov	sp, r7
 1163              		.cfi_def_cfa_register 13
 1164              		@ sp needed
 1165 0028 80BD     		pop	{r7, pc}
 1166              		.cfi_endproc
 1167              	.LFE447:
 1168              		.size	spiStopTransfer, .-spiStopTransfer
 1169              		.section	.text.spiSynchronizeS,"ax",%progbits
 1170              		.align	1
 1171              		.global	spiSynchronizeS
 1172              		.syntax unified
 1173              		.thumb
 1174              		.thumb_func
 1175              		.type	spiSynchronizeS, %function
 1176              	spiSynchronizeS:
 1177              	.LFB448:
 1178              		.loc 5 511 63
 1179              		.cfi_startproc
 1180              		@ args = 0, pretend = 0, frame = 16
 1181              		@ frame_needed = 1, uses_anonymous_args = 0
 1182 0000 80B5     		push	{r7, lr}
 1183              		.cfi_def_cfa_offset 8
 1184              		.cfi_offset 7, -8
 1185              		.cfi_offset 14, -4
 1186 0002 84B0     		sub	sp, sp, #16
 1187              		.cfi_def_cfa_offset 24
 1188 0004 00AF     		add	r7, sp, #0
 1189              		.cfi_def_cfa_register 7
 1190 0006 7860     		str	r0, [r7, #4]
 1191 0008 3960     		str	r1, [r7]
 1192              		.loc 5 518 11
 1193 000a 7B68     		ldr	r3, [r7, #4]
 1194 000c 1B78     		ldrb	r3, [r3]	@ zero_extendqisi2
 1195              		.loc 5 518 6
 1196 000e 032B     		cmp	r3, #3
 1197 0010 07D1     		bne	.L45
ARM GAS  C:\Users\DEVELO~1\AppData\Local\Temp\ccw0nPn3.s 			page 22


 1198              		.loc 5 519 11
 1199 0012 7B68     		ldr	r3, [r7, #4]
 1200 0014 0833     		adds	r3, r3, #8
 1201 0016 3968     		ldr	r1, [r7]
 1202 0018 1846     		mov	r0, r3
 1203 001a FFF7FEFF 		bl	osalThreadSuspendTimeoutS
 1204 001e F860     		str	r0, [r7, #12]
 1205 0020 01E0     		b	.L46
 1206              	.L45:
 1207              		.loc 5 522 9
 1208 0022 0023     		movs	r3, #0
 1209 0024 FB60     		str	r3, [r7, #12]
 1210              	.L46:
 1211              		.loc 5 525 10
 1212 0026 FB68     		ldr	r3, [r7, #12]
 1213              		.loc 5 526 1
 1214 0028 1846     		mov	r0, r3
 1215 002a 1037     		adds	r7, r7, #16
 1216              		.cfi_def_cfa_offset 8
 1217 002c BD46     		mov	sp, r7
 1218              		.cfi_def_cfa_register 13
 1219              		@ sp needed
 1220 002e 80BD     		pop	{r7, pc}
 1221              		.cfi_endproc
 1222              	.LFE448:
 1223              		.size	spiSynchronizeS, .-spiSynchronizeS
 1224              		.section	.text.spiSynchronize,"ax",%progbits
 1225              		.align	1
 1226              		.global	spiSynchronize
 1227              		.syntax unified
 1228              		.thumb
 1229              		.thumb_func
 1230              		.type	spiSynchronize, %function
 1231              	spiSynchronize:
 1232              	.LFB449:
 1233              		.loc 5 541 62
 1234              		.cfi_startproc
 1235              		@ args = 0, pretend = 0, frame = 16
 1236              		@ frame_needed = 1, uses_anonymous_args = 0
 1237 0000 80B5     		push	{r7, lr}
 1238              		.cfi_def_cfa_offset 8
 1239              		.cfi_offset 7, -8
 1240              		.cfi_offset 14, -4
 1241 0002 84B0     		sub	sp, sp, #16
 1242              		.cfi_def_cfa_offset 24
 1243 0004 00AF     		add	r7, sp, #0
 1244              		.cfi_def_cfa_register 7
 1245 0006 7860     		str	r0, [r7, #4]
 1246 0008 3960     		str	r1, [r7]
 1247              		.loc 5 544 3
 1248 000a FFF7FEFF 		bl	osalSysLock
 1249              		.loc 5 545 9
 1250 000e 3968     		ldr	r1, [r7]
 1251 0010 7868     		ldr	r0, [r7, #4]
 1252 0012 FFF7FEFF 		bl	spiSynchronizeS
 1253 0016 F860     		str	r0, [r7, #12]
 1254              		.loc 5 546 3
ARM GAS  C:\Users\DEVELO~1\AppData\Local\Temp\ccw0nPn3.s 			page 23


 1255 0018 FFF7FEFF 		bl	osalSysUnlock
 1256              		.loc 5 548 10
 1257 001c FB68     		ldr	r3, [r7, #12]
 1258              		.loc 5 549 1
 1259 001e 1846     		mov	r0, r3
 1260 0020 1037     		adds	r7, r7, #16
 1261              		.cfi_def_cfa_offset 8
 1262 0022 BD46     		mov	sp, r7
 1263              		.cfi_def_cfa_register 13
 1264              		@ sp needed
 1265 0024 80BD     		pop	{r7, pc}
 1266              		.cfi_endproc
 1267              	.LFE449:
 1268              		.size	spiSynchronize, .-spiSynchronize
 1269              		.section	.text.spiIgnore,"ax",%progbits
 1270              		.align	1
 1271              		.global	spiIgnore
 1272              		.syntax unified
 1273              		.thumb
 1274              		.thumb_func
 1275              		.type	spiIgnore, %function
 1276              	spiIgnore:
 1277              	.LFB450:
 1278              		.loc 5 567 44
 1279              		.cfi_startproc
 1280              		@ args = 0, pretend = 0, frame = 16
 1281              		@ frame_needed = 1, uses_anonymous_args = 0
 1282 0000 80B5     		push	{r7, lr}
 1283              		.cfi_def_cfa_offset 8
 1284              		.cfi_offset 7, -8
 1285              		.cfi_offset 14, -4
 1286 0002 84B0     		sub	sp, sp, #16
 1287              		.cfi_def_cfa_offset 24
 1288 0004 00AF     		add	r7, sp, #0
 1289              		.cfi_def_cfa_register 7
 1290 0006 7860     		str	r0, [r7, #4]
 1291 0008 3960     		str	r1, [r7]
 1292              		.loc 5 570 3
 1293 000a FFF7FEFF 		bl	osalSysLock
 1294              		.loc 5 572 9
 1295 000e 3968     		ldr	r1, [r7]
 1296 0010 7868     		ldr	r0, [r7, #4]
 1297 0012 FFF7FEFF 		bl	spiStartIgnoreI
 1298 0016 F860     		str	r0, [r7, #12]
 1299              		.loc 5 573 6
 1300 0018 FB68     		ldr	r3, [r7, #12]
 1301 001a 002B     		cmp	r3, #0
 1302 001c 05D1     		bne	.L51
 1303              		.loc 5 574 11
 1304 001e 4FF0FF31 		mov	r1, #-1
 1305 0022 7868     		ldr	r0, [r7, #4]
 1306 0024 FFF7FEFF 		bl	spiSynchronizeS
 1307 0028 F860     		str	r0, [r7, #12]
 1308              	.L51:
 1309              		.loc 5 577 3
 1310 002a FFF7FEFF 		bl	osalSysUnlock
 1311              		.loc 5 579 10
ARM GAS  C:\Users\DEVELO~1\AppData\Local\Temp\ccw0nPn3.s 			page 24


 1312 002e FB68     		ldr	r3, [r7, #12]
 1313              		.loc 5 580 1
 1314 0030 1846     		mov	r0, r3
 1315 0032 1037     		adds	r7, r7, #16
 1316              		.cfi_def_cfa_offset 8
 1317 0034 BD46     		mov	sp, r7
 1318              		.cfi_def_cfa_register 13
 1319              		@ sp needed
 1320 0036 80BD     		pop	{r7, pc}
 1321              		.cfi_endproc
 1322              	.LFE450:
 1323              		.size	spiIgnore, .-spiIgnore
 1324              		.section	.text.spiExchange,"ax",%progbits
 1325              		.align	1
 1326              		.global	spiExchange
 1327              		.syntax unified
 1328              		.thumb
 1329              		.thumb_func
 1330              		.type	spiExchange, %function
 1331              	spiExchange:
 1332              	.LFB451:
 1333              		.loc 5 603 50
 1334              		.cfi_startproc
 1335              		@ args = 0, pretend = 0, frame = 24
 1336              		@ frame_needed = 1, uses_anonymous_args = 0
 1337 0000 80B5     		push	{r7, lr}
 1338              		.cfi_def_cfa_offset 8
 1339              		.cfi_offset 7, -8
 1340              		.cfi_offset 14, -4
 1341 0002 86B0     		sub	sp, sp, #24
 1342              		.cfi_def_cfa_offset 32
 1343 0004 00AF     		add	r7, sp, #0
 1344              		.cfi_def_cfa_register 7
 1345 0006 F860     		str	r0, [r7, #12]
 1346 0008 B960     		str	r1, [r7, #8]
 1347 000a 7A60     		str	r2, [r7, #4]
 1348 000c 3B60     		str	r3, [r7]
 1349              		.loc 5 606 3
 1350 000e FFF7FEFF 		bl	osalSysLock
 1351              		.loc 5 608 9
 1352 0012 3B68     		ldr	r3, [r7]
 1353 0014 7A68     		ldr	r2, [r7, #4]
 1354 0016 B968     		ldr	r1, [r7, #8]
 1355 0018 F868     		ldr	r0, [r7, #12]
 1356 001a FFF7FEFF 		bl	spiStartExchangeI
 1357 001e 7861     		str	r0, [r7, #20]
 1358              		.loc 5 609 6
 1359 0020 7B69     		ldr	r3, [r7, #20]
 1360 0022 002B     		cmp	r3, #0
 1361 0024 05D1     		bne	.L54
 1362              		.loc 5 610 11
 1363 0026 4FF0FF31 		mov	r1, #-1
 1364 002a F868     		ldr	r0, [r7, #12]
 1365 002c FFF7FEFF 		bl	spiSynchronizeS
 1366 0030 7861     		str	r0, [r7, #20]
 1367              	.L54:
 1368              		.loc 5 613 3
ARM GAS  C:\Users\DEVELO~1\AppData\Local\Temp\ccw0nPn3.s 			page 25


 1369 0032 FFF7FEFF 		bl	osalSysUnlock
 1370              		.loc 5 615 10
 1371 0036 7B69     		ldr	r3, [r7, #20]
 1372              		.loc 5 616 1
 1373 0038 1846     		mov	r0, r3
 1374 003a 1837     		adds	r7, r7, #24
 1375              		.cfi_def_cfa_offset 8
 1376 003c BD46     		mov	sp, r7
 1377              		.cfi_def_cfa_register 13
 1378              		@ sp needed
 1379 003e 80BD     		pop	{r7, pc}
 1380              		.cfi_endproc
 1381              	.LFE451:
 1382              		.size	spiExchange, .-spiExchange
 1383              		.section	.text.spiSend,"ax",%progbits
 1384              		.align	1
 1385              		.global	spiSend
 1386              		.syntax unified
 1387              		.thumb
 1388              		.thumb_func
 1389              		.type	spiSend, %function
 1390              	spiSend:
 1391              	.LFB452:
 1392              		.loc 5 636 61
 1393              		.cfi_startproc
 1394              		@ args = 0, pretend = 0, frame = 24
 1395              		@ frame_needed = 1, uses_anonymous_args = 0
 1396 0000 80B5     		push	{r7, lr}
 1397              		.cfi_def_cfa_offset 8
 1398              		.cfi_offset 7, -8
 1399              		.cfi_offset 14, -4
 1400 0002 86B0     		sub	sp, sp, #24
 1401              		.cfi_def_cfa_offset 32
 1402 0004 00AF     		add	r7, sp, #0
 1403              		.cfi_def_cfa_register 7
 1404 0006 F860     		str	r0, [r7, #12]
 1405 0008 B960     		str	r1, [r7, #8]
 1406 000a 7A60     		str	r2, [r7, #4]
 1407              		.loc 5 639 3
 1408 000c FFF7FEFF 		bl	osalSysLock
 1409              		.loc 5 641 9
 1410 0010 7A68     		ldr	r2, [r7, #4]
 1411 0012 B968     		ldr	r1, [r7, #8]
 1412 0014 F868     		ldr	r0, [r7, #12]
 1413 0016 FFF7FEFF 		bl	spiStartSendI
 1414 001a 7861     		str	r0, [r7, #20]
 1415              		.loc 5 642 6
 1416 001c 7B69     		ldr	r3, [r7, #20]
 1417 001e 002B     		cmp	r3, #0
 1418 0020 05D1     		bne	.L57
 1419              		.loc 5 643 11
 1420 0022 4FF0FF31 		mov	r1, #-1
 1421 0026 F868     		ldr	r0, [r7, #12]
 1422 0028 FFF7FEFF 		bl	spiSynchronizeS
 1423 002c 7861     		str	r0, [r7, #20]
 1424              	.L57:
 1425              		.loc 5 646 3
ARM GAS  C:\Users\DEVELO~1\AppData\Local\Temp\ccw0nPn3.s 			page 26


 1426 002e FFF7FEFF 		bl	osalSysUnlock
 1427              		.loc 5 648 10
 1428 0032 7B69     		ldr	r3, [r7, #20]
 1429              		.loc 5 649 1
 1430 0034 1846     		mov	r0, r3
 1431 0036 1837     		adds	r7, r7, #24
 1432              		.cfi_def_cfa_offset 8
 1433 0038 BD46     		mov	sp, r7
 1434              		.cfi_def_cfa_register 13
 1435              		@ sp needed
 1436 003a 80BD     		pop	{r7, pc}
 1437              		.cfi_endproc
 1438              	.LFE452:
 1439              		.size	spiSend, .-spiSend
 1440              		.section	.text.spiReceive,"ax",%progbits
 1441              		.align	1
 1442              		.global	spiReceive
 1443              		.syntax unified
 1444              		.thumb
 1445              		.thumb_func
 1446              		.type	spiReceive, %function
 1447              	spiReceive:
 1448              	.LFB453:
 1449              		.loc 5 669 58
 1450              		.cfi_startproc
 1451              		@ args = 0, pretend = 0, frame = 24
 1452              		@ frame_needed = 1, uses_anonymous_args = 0
 1453 0000 80B5     		push	{r7, lr}
 1454              		.cfi_def_cfa_offset 8
 1455              		.cfi_offset 7, -8
 1456              		.cfi_offset 14, -4
 1457 0002 86B0     		sub	sp, sp, #24
 1458              		.cfi_def_cfa_offset 32
 1459 0004 00AF     		add	r7, sp, #0
 1460              		.cfi_def_cfa_register 7
 1461 0006 F860     		str	r0, [r7, #12]
 1462 0008 B960     		str	r1, [r7, #8]
 1463 000a 7A60     		str	r2, [r7, #4]
 1464              		.loc 5 672 3
 1465 000c FFF7FEFF 		bl	osalSysLock
 1466              		.loc 5 674 9
 1467 0010 7A68     		ldr	r2, [r7, #4]
 1468 0012 B968     		ldr	r1, [r7, #8]
 1469 0014 F868     		ldr	r0, [r7, #12]
 1470 0016 FFF7FEFF 		bl	spiStartReceiveI
 1471 001a 7861     		str	r0, [r7, #20]
 1472              		.loc 5 675 6
 1473 001c 7B69     		ldr	r3, [r7, #20]
 1474 001e 002B     		cmp	r3, #0
 1475 0020 05D1     		bne	.L60
 1476              		.loc 5 676 11
 1477 0022 4FF0FF31 		mov	r1, #-1
 1478 0026 F868     		ldr	r0, [r7, #12]
 1479 0028 FFF7FEFF 		bl	spiSynchronizeS
 1480 002c 7861     		str	r0, [r7, #20]
 1481              	.L60:
 1482              		.loc 5 679 3
ARM GAS  C:\Users\DEVELO~1\AppData\Local\Temp\ccw0nPn3.s 			page 27


 1483 002e FFF7FEFF 		bl	osalSysUnlock
 1484              		.loc 5 681 10
 1485 0032 7B69     		ldr	r3, [r7, #20]
 1486              		.loc 5 682 1
 1487 0034 1846     		mov	r0, r3
 1488 0036 1837     		adds	r7, r7, #24
 1489              		.cfi_def_cfa_offset 8
 1490 0038 BD46     		mov	sp, r7
 1491              		.cfi_def_cfa_register 13
 1492              		@ sp needed
 1493 003a 80BD     		pop	{r7, pc}
 1494              		.cfi_endproc
 1495              	.LFE453:
 1496              		.size	spiReceive, .-spiReceive
 1497              		.section	.text.spiAcquireBus,"ax",%progbits
 1498              		.align	1
 1499              		.global	spiAcquireBus
 1500              		.syntax unified
 1501              		.thumb
 1502              		.thumb_func
 1503              		.type	spiAcquireBus, %function
 1504              	spiAcquireBus:
 1505              	.LFB454:
 1506              		.loc 5 697 37
 1507              		.cfi_startproc
 1508              		@ args = 0, pretend = 0, frame = 8
 1509              		@ frame_needed = 1, uses_anonymous_args = 0
 1510 0000 80B5     		push	{r7, lr}
 1511              		.cfi_def_cfa_offset 8
 1512              		.cfi_offset 7, -8
 1513              		.cfi_offset 14, -4
 1514 0002 82B0     		sub	sp, sp, #8
 1515              		.cfi_def_cfa_offset 16
 1516 0004 00AF     		add	r7, sp, #0
 1517              		.cfi_def_cfa_register 7
 1518 0006 7860     		str	r0, [r7, #4]
 1519              		.loc 5 701 3
 1520 0008 7B68     		ldr	r3, [r7, #4]
 1521 000a 0C33     		adds	r3, r3, #12
 1522 000c 1846     		mov	r0, r3
 1523 000e FFF7FEFF 		bl	osalMutexLock
 1524              		.loc 5 702 1
 1525 0012 00BF     		nop
 1526 0014 0837     		adds	r7, r7, #8
 1527              		.cfi_def_cfa_offset 8
 1528 0016 BD46     		mov	sp, r7
 1529              		.cfi_def_cfa_register 13
 1530              		@ sp needed
 1531 0018 80BD     		pop	{r7, pc}
 1532              		.cfi_endproc
 1533              	.LFE454:
 1534              		.size	spiAcquireBus, .-spiAcquireBus
 1535              		.section	.text.spiReleaseBus,"ax",%progbits
 1536              		.align	1
 1537              		.global	spiReleaseBus
 1538              		.syntax unified
 1539              		.thumb
ARM GAS  C:\Users\DEVELO~1\AppData\Local\Temp\ccw0nPn3.s 			page 28


 1540              		.thumb_func
 1541              		.type	spiReleaseBus, %function
 1542              	spiReleaseBus:
 1543              	.LFB455:
 1544              		.loc 5 713 37
 1545              		.cfi_startproc
 1546              		@ args = 0, pretend = 0, frame = 8
 1547              		@ frame_needed = 1, uses_anonymous_args = 0
 1548 0000 80B5     		push	{r7, lr}
 1549              		.cfi_def_cfa_offset 8
 1550              		.cfi_offset 7, -8
 1551              		.cfi_offset 14, -4
 1552 0002 82B0     		sub	sp, sp, #8
 1553              		.cfi_def_cfa_offset 16
 1554 0004 00AF     		add	r7, sp, #0
 1555              		.cfi_def_cfa_register 7
 1556 0006 7860     		str	r0, [r7, #4]
 1557              		.loc 5 717 3
 1558 0008 7B68     		ldr	r3, [r7, #4]
 1559 000a 0C33     		adds	r3, r3, #12
 1560 000c 1846     		mov	r0, r3
 1561 000e FFF7FEFF 		bl	osalMutexUnlock
 1562              		.loc 5 718 1
 1563 0012 00BF     		nop
 1564 0014 0837     		adds	r7, r7, #8
 1565              		.cfi_def_cfa_offset 8
 1566 0016 BD46     		mov	sp, r7
 1567              		.cfi_def_cfa_register 13
 1568              		@ sp needed
 1569 0018 80BD     		pop	{r7, pc}
 1570              		.cfi_endproc
 1571              	.LFE455:
 1572              		.size	spiReleaseBus, .-spiReleaseBus
 1573              		.text
 1574              	.Letext0:
 1575              		.file 6 "c:\\chibistudio\\tools\\gnu tools arm embedded\\11.3 2022.08\\lib\\gcc\\arm-none-eabi\\11
 1576              		.file 7 "c:\\chibistudio\\tools\\gnu tools arm embedded\\11.3 2022.08\\arm-none-eabi\\include\\mac
 1577              		.file 8 "c:\\chibistudio\\tools\\gnu tools arm embedded\\11.3 2022.08\\arm-none-eabi\\include\\sys
 1578              		.file 9 "c:\\chibistudio\\tools\\gnu tools arm embedded\\11.3 2022.08\\arm-none-eabi\\include\\std
 1579              		.file 10 "../../../os/common/ports/ARM-common/chtypes.h"
 1580              		.file 11 "../../../os/rt/include/chearly.h"
 1581              		.file 12 "../../../os/rt/include/chobjects.h"
 1582              		.file 13 "../../../os/rt/include/chrfcu.h"
 1583              		.file 14 "../../../os/rt/include/chdebug.h"
 1584              		.file 15 "../../../os/rt/include/chtime.h"
 1585              		.file 16 "../../../os/rt/include/chlists.h"
 1586              		.file 17 "../../../os/rt/include/chtrace.h"
 1587              		.file 18 "../../../os/common/ext/ST/STM32H7xx/stm32h743xx.h"
 1588              		.file 19 "../../../os/rt/include/chsem.h"
 1589              		.file 20 "../../../os/rt/include/chmtx.h"
 1590              		.file 21 "../../../os/hal/ports/STM32/LLD/DMAv2/stm32_dma.h"
 1591              		.file 22 "../../../os/hal/ports/STM32/LLD/GPIOv2/stm32_gpio.h"
 1592              		.file 23 "../../../os/hal/ports/STM32/LLD/GPIOv2/hal_pal_lld.h"
 1593              		.file 24 "../../../os/hal/include/hal_spi_v2.h"
 1594              		.file 25 "../../../os/rt/include/chthreads.h"
 1595              		.file 26 "../../../os/hal/ports/STM32/LLD/SPIv3/hal_spi_v2_lld.h"
 1596              		.file 27 "../../../os/rt/include/chschd.h"
ARM GAS  C:\Users\DEVELO~1\AppData\Local\Temp\ccw0nPn3.s 			page 29

