ARM GAS  C:\Users\DEVELO~1\AppData\Local\Temp\ccJs2sHK.s 			page 1


   1              		.cpu cortex-m7
   2              		.arch armv7e-m
   3              		.fpu softvfp
   4              		.eabi_attribute 20, 1
   5              		.eabi_attribute 21, 1
   6              		.eabi_attribute 23, 3
   7              		.eabi_attribute 24, 1
   8              		.eabi_attribute 25, 1
   9              		.eabi_attribute 26, 1
  10              		.eabi_attribute 30, 6
  11              		.eabi_attribute 34, 1
  12              		.eabi_attribute 18, 4
  13              		.file	"hal_queues.c"
  14              		.text
  15              	.Ltext0:
  16              		.cfi_sections	.debug_frame
  17              		.section	.text.ch_queue_init,"ax",%progbits
  18              		.align	1
  19              		.syntax unified
  20              		.thumb
  21              		.thumb_func
  22              		.type	ch_queue_init, %function
  23              	ch_queue_init:
  24              	.LFB19:
  25              		.file 1 "../../../os/rt/include/chlists.h"
  26              		.loc 1 222 50
  27              		.cfi_startproc
  28              		@ args = 0, pretend = 0, frame = 8
  29              		@ frame_needed = 1, uses_anonymous_args = 0
  30              		@ link register save eliminated.
  31 0000 80B4     		push	{r7}
  32              		.cfi_def_cfa_offset 4
  33              		.cfi_offset 7, -4
  34 0002 83B0     		sub	sp, sp, #12
  35              		.cfi_def_cfa_offset 16
  36 0004 00AF     		add	r7, sp, #0
  37              		.cfi_def_cfa_register 7
  38 0006 7860     		str	r0, [r7, #4]
  39              		.loc 1 224 12
  40 0008 7B68     		ldr	r3, [r7, #4]
  41 000a 7A68     		ldr	r2, [r7, #4]
  42 000c 1A60     		str	r2, [r3]
  43              		.loc 1 225 12
  44 000e 7B68     		ldr	r3, [r7, #4]
  45 0010 7A68     		ldr	r2, [r7, #4]
  46 0012 5A60     		str	r2, [r3, #4]
  47              		.loc 1 226 1
  48 0014 00BF     		nop
  49 0016 0C37     		adds	r7, r7, #12
  50              		.cfi_def_cfa_offset 4
  51 0018 BD46     		mov	sp, r7
  52              		.cfi_def_cfa_register 13
  53              		@ sp needed
  54 001a 80BC     		pop	{r7}
  55              		.cfi_restore 7
  56              		.cfi_def_cfa_offset 0
  57 001c 7047     		bx	lr
ARM GAS  C:\Users\DEVELO~1\AppData\Local\Temp\ccJs2sHK.s 			page 2


  58              		.cfi_endproc
  59              	.LFE19:
  60              		.size	ch_queue_init, .-ch_queue_init
  61              		.section	.text.chSysLock,"ax",%progbits
  62              		.align	1
  63              		.syntax unified
  64              		.thumb
  65              		.thumb_func
  66              		.type	chSysLock, %function
  67              	chSysLock:
  68              	.LFB202:
  69              		.file 2 "../../../os/rt/include/chsys.h"
  70              		.loc 2 407 36
  71              		.cfi_startproc
  72              		@ args = 0, pretend = 0, frame = 8
  73              		@ frame_needed = 1, uses_anonymous_args = 0
  74              		@ link register save eliminated.
  75 0000 80B4     		push	{r7}
  76              		.cfi_def_cfa_offset 4
  77              		.cfi_offset 7, -4
  78 0002 83B0     		sub	sp, sp, #12
  79              		.cfi_def_cfa_offset 16
  80 0004 00AF     		add	r7, sp, #0
  81              		.cfi_def_cfa_register 7
  82 0006 3023     		movs	r3, #48
  83 0008 7B60     		str	r3, [r7, #4]
  84              	.LBB14:
  85              	.LBB15:
  86              	.LBB16:
  87              	.LBB17:
  88              		.file 3 "../../../os/common/ext/ARM/CMSIS/Core/Include/cmsis_gcc.h"
  89              		.loc 3 493 3
  90 000a 7B68     		ldr	r3, [r7, #4]
  91              		.syntax unified
  92              	@ 493 "../../../os/common/ext/ARM/CMSIS/Core/Include/cmsis_gcc.h" 1
  93 000c 83F31188 		MSR basepri, r3
  94              	@ 0 "" 2
  95              		.loc 3 494 1
  96              		.thumb
  97              		.syntax unified
  98 0010 00BF     		nop
  99              	.LBE17:
 100              	.LBE16:
 101              		.file 4 "../../../os/common/ports/ARMv7-M/chcore.h"
 102              		.loc 4 840 1
 103 0012 00BF     		nop
 104              	.LBE15:
 105              	.LBE14:
 106              		.loc 2 412 1
 107 0014 00BF     		nop
 108 0016 0C37     		adds	r7, r7, #12
 109              		.cfi_def_cfa_offset 4
 110 0018 BD46     		mov	sp, r7
 111              		.cfi_def_cfa_register 13
 112              		@ sp needed
 113 001a 80BC     		pop	{r7}
 114              		.cfi_restore 7
ARM GAS  C:\Users\DEVELO~1\AppData\Local\Temp\ccJs2sHK.s 			page 3


 115              		.cfi_def_cfa_offset 0
 116 001c 7047     		bx	lr
 117              		.cfi_endproc
 118              	.LFE202:
 119              		.size	chSysLock, .-chSysLock
 120              		.section	.text.chSysUnlock,"ax",%progbits
 121              		.align	1
 122              		.syntax unified
 123              		.thumb
 124              		.thumb_func
 125              		.type	chSysUnlock, %function
 126              	chSysUnlock:
 127              	.LFB203:
 128              		.loc 2 421 38
 129              		.cfi_startproc
 130              		@ args = 0, pretend = 0, frame = 8
 131              		@ frame_needed = 1, uses_anonymous_args = 0
 132              		@ link register save eliminated.
 133 0000 80B4     		push	{r7}
 134              		.cfi_def_cfa_offset 4
 135              		.cfi_offset 7, -4
 136 0002 83B0     		sub	sp, sp, #12
 137              		.cfi_def_cfa_offset 16
 138 0004 00AF     		add	r7, sp, #0
 139              		.cfi_def_cfa_register 7
 140 0006 0023     		movs	r3, #0
 141 0008 7B60     		str	r3, [r7, #4]
 142              	.LBB18:
 143              	.LBB19:
 144              	.LBB20:
 145              	.LBB21:
 146              		.loc 3 493 3
 147 000a 7B68     		ldr	r3, [r7, #4]
 148              		.syntax unified
 149              	@ 493 "../../../os/common/ext/ARM/CMSIS/Core/Include/cmsis_gcc.h" 1
 150 000c 83F31188 		MSR basepri, r3
 151              	@ 0 "" 2
 152              		.loc 3 494 1
 153              		.thumb
 154              		.syntax unified
 155 0010 00BF     		nop
 156              	.LBE21:
 157              	.LBE20:
 158              		.loc 4 854 1
 159 0012 00BF     		nop
 160              	.LBE19:
 161              	.LBE18:
 162              		.loc 2 435 1
 163 0014 00BF     		nop
 164 0016 0C37     		adds	r7, r7, #12
 165              		.cfi_def_cfa_offset 4
 166 0018 BD46     		mov	sp, r7
 167              		.cfi_def_cfa_register 13
 168              		@ sp needed
 169 001a 80BC     		pop	{r7}
 170              		.cfi_restore 7
 171              		.cfi_def_cfa_offset 0
ARM GAS  C:\Users\DEVELO~1\AppData\Local\Temp\ccJs2sHK.s 			page 4


 172 001c 7047     		bx	lr
 173              		.cfi_endproc
 174              	.LFE203:
 175              		.size	chSysUnlock, .-chSysUnlock
 176              		.section	.text.chThdQueueObjectInit,"ax",%progbits
 177              		.align	1
 178              		.syntax unified
 179              		.thumb
 180              		.thumb_func
 181              		.type	chThdQueueObjectInit, %function
 182              	chThdQueueObjectInit:
 183              	.LFB236:
 184              		.file 5 "../../../os/rt/include/chthreads.h"
 185              		.loc 5 461 63
 186              		.cfi_startproc
 187              		@ args = 0, pretend = 0, frame = 8
 188              		@ frame_needed = 1, uses_anonymous_args = 0
 189 0000 80B5     		push	{r7, lr}
 190              		.cfi_def_cfa_offset 8
 191              		.cfi_offset 7, -8
 192              		.cfi_offset 14, -4
 193 0002 82B0     		sub	sp, sp, #8
 194              		.cfi_def_cfa_offset 16
 195 0004 00AF     		add	r7, sp, #0
 196              		.cfi_def_cfa_register 7
 197 0006 7860     		str	r0, [r7, #4]
 198              		.loc 5 463 3
 199 0008 7B68     		ldr	r3, [r7, #4]
 200 000a 1846     		mov	r0, r3
 201 000c FFF7FEFF 		bl	ch_queue_init
 202              		.loc 5 464 1
 203 0010 00BF     		nop
 204 0012 0837     		adds	r7, r7, #8
 205              		.cfi_def_cfa_offset 8
 206 0014 BD46     		mov	sp, r7
 207              		.cfi_def_cfa_register 13
 208              		@ sp needed
 209 0016 80BD     		pop	{r7, pc}
 210              		.cfi_endproc
 211              	.LFE236:
 212              		.size	chThdQueueObjectInit, .-chThdQueueObjectInit
 213              		.section	.text.osalSysLock,"ax",%progbits
 214              		.align	1
 215              		.syntax unified
 216              		.thumb
 217              		.thumb_func
 218              		.type	osalSysLock, %function
 219              	osalSysLock:
 220              	.LFB350:
 221              		.file 6 "../../../os/hal/osal/rt-nil/osal.h"
 222              		.loc 6 573 38
 223              		.cfi_startproc
 224              		@ args = 0, pretend = 0, frame = 0
 225              		@ frame_needed = 1, uses_anonymous_args = 0
 226 0000 80B5     		push	{r7, lr}
 227              		.cfi_def_cfa_offset 8
 228              		.cfi_offset 7, -8
ARM GAS  C:\Users\DEVELO~1\AppData\Local\Temp\ccJs2sHK.s 			page 5


 229              		.cfi_offset 14, -4
 230 0002 00AF     		add	r7, sp, #0
 231              		.cfi_def_cfa_register 7
 232              		.loc 6 575 3
 233 0004 FFF7FEFF 		bl	chSysLock
 234              		.loc 6 576 1
 235 0008 00BF     		nop
 236 000a 80BD     		pop	{r7, pc}
 237              		.cfi_endproc
 238              	.LFE350:
 239              		.size	osalSysLock, .-osalSysLock
 240              		.section	.text.osalSysUnlock,"ax",%progbits
 241              		.align	1
 242              		.syntax unified
 243              		.thumb
 244              		.thumb_func
 245              		.type	osalSysUnlock, %function
 246              	osalSysUnlock:
 247              	.LFB351:
 248              		.loc 6 584 40
 249              		.cfi_startproc
 250              		@ args = 0, pretend = 0, frame = 0
 251              		@ frame_needed = 1, uses_anonymous_args = 0
 252 0000 80B5     		push	{r7, lr}
 253              		.cfi_def_cfa_offset 8
 254              		.cfi_offset 7, -8
 255              		.cfi_offset 14, -4
 256 0002 00AF     		add	r7, sp, #0
 257              		.cfi_def_cfa_register 7
 258              		.loc 6 586 3
 259 0004 FFF7FEFF 		bl	chSysUnlock
 260              		.loc 6 587 1
 261 0008 00BF     		nop
 262 000a 80BD     		pop	{r7, pc}
 263              		.cfi_endproc
 264              	.LFE351:
 265              		.size	osalSysUnlock, .-osalSysUnlock
 266              		.section	.text.osalThreadQueueObjectInit,"ax",%progbits
 267              		.align	1
 268              		.syntax unified
 269              		.thumb
 270              		.thumb_func
 271              		.type	osalThreadQueueObjectInit, %function
 272              	osalThreadQueueObjectInit:
 273              	.LFB369:
 274              		.loc 6 864 68
 275              		.cfi_startproc
 276              		@ args = 0, pretend = 0, frame = 8
 277              		@ frame_needed = 1, uses_anonymous_args = 0
 278 0000 80B5     		push	{r7, lr}
 279              		.cfi_def_cfa_offset 8
 280              		.cfi_offset 7, -8
 281              		.cfi_offset 14, -4
 282 0002 82B0     		sub	sp, sp, #8
 283              		.cfi_def_cfa_offset 16
 284 0004 00AF     		add	r7, sp, #0
 285              		.cfi_def_cfa_register 7
ARM GAS  C:\Users\DEVELO~1\AppData\Local\Temp\ccJs2sHK.s 			page 6


 286 0006 7860     		str	r0, [r7, #4]
 287              		.loc 6 866 3
 288 0008 7868     		ldr	r0, [r7, #4]
 289 000a FFF7FEFF 		bl	chThdQueueObjectInit
 290              		.loc 6 867 1
 291 000e 00BF     		nop
 292 0010 0837     		adds	r7, r7, #8
 293              		.cfi_def_cfa_offset 8
 294 0012 BD46     		mov	sp, r7
 295              		.cfi_def_cfa_register 13
 296              		@ sp needed
 297 0014 80BD     		pop	{r7, pc}
 298              		.cfi_endproc
 299              	.LFE369:
 300              		.size	osalThreadQueueObjectInit, .-osalThreadQueueObjectInit
 301              		.section	.text.osalThreadEnqueueTimeoutS,"ax",%progbits
 302              		.align	1
 303              		.syntax unified
 304              		.thumb
 305              		.thumb_func
 306              		.type	osalThreadEnqueueTimeoutS, %function
 307              	osalThreadEnqueueTimeoutS:
 308              	.LFB370:
 309              		.loc 6 893 70
 310              		.cfi_startproc
 311              		@ args = 0, pretend = 0, frame = 8
 312              		@ frame_needed = 1, uses_anonymous_args = 0
 313 0000 80B5     		push	{r7, lr}
 314              		.cfi_def_cfa_offset 8
 315              		.cfi_offset 7, -8
 316              		.cfi_offset 14, -4
 317 0002 82B0     		sub	sp, sp, #8
 318              		.cfi_def_cfa_offset 16
 319 0004 00AF     		add	r7, sp, #0
 320              		.cfi_def_cfa_register 7
 321 0006 7860     		str	r0, [r7, #4]
 322 0008 3960     		str	r1, [r7]
 323              		.loc 6 895 10
 324 000a 3968     		ldr	r1, [r7]
 325 000c 7868     		ldr	r0, [r7, #4]
 326 000e FFF7FEFF 		bl	chThdEnqueueTimeoutS
 327 0012 0346     		mov	r3, r0
 328              		.loc 6 896 1
 329 0014 1846     		mov	r0, r3
 330 0016 0837     		adds	r7, r7, #8
 331              		.cfi_def_cfa_offset 8
 332 0018 BD46     		mov	sp, r7
 333              		.cfi_def_cfa_register 13
 334              		@ sp needed
 335 001a 80BD     		pop	{r7, pc}
 336              		.cfi_endproc
 337              	.LFE370:
 338              		.size	osalThreadEnqueueTimeoutS, .-osalThreadEnqueueTimeoutS
 339              		.section	.text.osalThreadDequeueNextI,"ax",%progbits
 340              		.align	1
 341              		.syntax unified
 342              		.thumb
ARM GAS  C:\Users\DEVELO~1\AppData\Local\Temp\ccJs2sHK.s 			page 7


 343              		.thumb_func
 344              		.type	osalThreadDequeueNextI, %function
 345              	osalThreadDequeueNextI:
 346              	.LFB371:
 347              		.loc 6 906 76
 348              		.cfi_startproc
 349              		@ args = 0, pretend = 0, frame = 8
 350              		@ frame_needed = 1, uses_anonymous_args = 0
 351 0000 80B5     		push	{r7, lr}
 352              		.cfi_def_cfa_offset 8
 353              		.cfi_offset 7, -8
 354              		.cfi_offset 14, -4
 355 0002 82B0     		sub	sp, sp, #8
 356              		.cfi_def_cfa_offset 16
 357 0004 00AF     		add	r7, sp, #0
 358              		.cfi_def_cfa_register 7
 359 0006 7860     		str	r0, [r7, #4]
 360 0008 3960     		str	r1, [r7]
 361              		.loc 6 908 3
 362 000a 3968     		ldr	r1, [r7]
 363 000c 7868     		ldr	r0, [r7, #4]
 364 000e FFF7FEFF 		bl	chThdDequeueNextI
 365              		.loc 6 909 1
 366 0012 00BF     		nop
 367 0014 0837     		adds	r7, r7, #8
 368              		.cfi_def_cfa_offset 8
 369 0016 BD46     		mov	sp, r7
 370              		.cfi_def_cfa_register 13
 371              		@ sp needed
 372 0018 80BD     		pop	{r7, pc}
 373              		.cfi_endproc
 374              	.LFE371:
 375              		.size	osalThreadDequeueNextI, .-osalThreadDequeueNextI
 376              		.section	.text.osalThreadDequeueAllI,"ax",%progbits
 377              		.align	1
 378              		.syntax unified
 379              		.thumb
 380              		.thumb_func
 381              		.type	osalThreadDequeueAllI, %function
 382              	osalThreadDequeueAllI:
 383              	.LFB372:
 384              		.loc 6 919 75
 385              		.cfi_startproc
 386              		@ args = 0, pretend = 0, frame = 8
 387              		@ frame_needed = 1, uses_anonymous_args = 0
 388 0000 80B5     		push	{r7, lr}
 389              		.cfi_def_cfa_offset 8
 390              		.cfi_offset 7, -8
 391              		.cfi_offset 14, -4
 392 0002 82B0     		sub	sp, sp, #8
 393              		.cfi_def_cfa_offset 16
 394 0004 00AF     		add	r7, sp, #0
 395              		.cfi_def_cfa_register 7
 396 0006 7860     		str	r0, [r7, #4]
 397 0008 3960     		str	r1, [r7]
 398              		.loc 6 921 3
 399 000a 3968     		ldr	r1, [r7]
ARM GAS  C:\Users\DEVELO~1\AppData\Local\Temp\ccJs2sHK.s 			page 8


 400 000c 7868     		ldr	r0, [r7, #4]
 401 000e FFF7FEFF 		bl	chThdDequeueAllI
 402              		.loc 6 922 1
 403 0012 00BF     		nop
 404 0014 0837     		adds	r7, r7, #8
 405              		.cfi_def_cfa_offset 8
 406 0016 BD46     		mov	sp, r7
 407              		.cfi_def_cfa_register 13
 408              		@ sp needed
 409 0018 80BD     		pop	{r7, pc}
 410              		.cfi_endproc
 411              	.LFE372:
 412              		.size	osalThreadDequeueAllI, .-osalThreadDequeueAllI
 413              		.section	.text.iq_read,"ax",%progbits
 414              		.align	1
 415              		.syntax unified
 416              		.thumb
 417              		.thumb_func
 418              		.type	iq_read, %function
 419              	iq_read:
 420              	.LFB432:
 421              		.file 7 "../../../os/hal/src/hal_queues.c"
 422              		.loc 7 60 66
 423              		.cfi_startproc
 424              		@ args = 0, pretend = 0, frame = 24
 425              		@ frame_needed = 1, uses_anonymous_args = 0
 426 0000 80B5     		push	{r7, lr}
 427              		.cfi_def_cfa_offset 8
 428              		.cfi_offset 7, -8
 429              		.cfi_offset 14, -4
 430 0002 86B0     		sub	sp, sp, #24
 431              		.cfi_def_cfa_offset 32
 432 0004 00AF     		add	r7, sp, #0
 433              		.cfi_def_cfa_register 7
 434 0006 F860     		str	r0, [r7, #12]
 435 0008 B960     		str	r1, [r7, #8]
 436 000a 7A60     		str	r2, [r7, #4]
 437              		.loc 7 66 11
 438 000c FB68     		ldr	r3, [r7, #12]
 439 000e 9B68     		ldr	r3, [r3, #8]
 440              		.loc 7 66 6
 441 0010 7A68     		ldr	r2, [r7, #4]
 442 0012 9A42     		cmp	r2, r3
 443 0014 02D9     		bls	.L13
 444              		.loc 7 67 7
 445 0016 FB68     		ldr	r3, [r7, #12]
 446 0018 9B68     		ldr	r3, [r3, #8]
 447 001a 7B60     		str	r3, [r7, #4]
 448              	.L13:
 449              		.loc 7 72 20
 450 001c FB68     		ldr	r3, [r7, #12]
 451 001e 1A69     		ldr	r2, [r3, #16]
 452              		.loc 7 72 33
 453 0020 FB68     		ldr	r3, [r7, #12]
 454 0022 9B69     		ldr	r3, [r3, #24]
 455              		.loc 7 72 28
 456 0024 D31A     		subs	r3, r2, r3
ARM GAS  C:\Users\DEVELO~1\AppData\Local\Temp\ccJs2sHK.s 			page 9


 457              		.loc 7 72 6
 458 0026 7B61     		str	r3, [r7, #20]
 459              		.loc 7 74 6
 460 0028 7A68     		ldr	r2, [r7, #4]
 461 002a 7B69     		ldr	r3, [r7, #20]
 462 002c 9A42     		cmp	r2, r3
 463 002e 0DD2     		bcs	.L14
 464              		.loc 7 75 35
 465 0030 FB68     		ldr	r3, [r7, #12]
 466 0032 9B69     		ldr	r3, [r3, #24]
 467              		.loc 7 75 5
 468 0034 7A68     		ldr	r2, [r7, #4]
 469 0036 1946     		mov	r1, r3
 470 0038 B868     		ldr	r0, [r7, #8]
 471 003a FFF7FEFF 		bl	memcpy
 472              		.loc 7 76 18
 473 003e FB68     		ldr	r3, [r7, #12]
 474 0040 9A69     		ldr	r2, [r3, #24]
 475 0042 7B68     		ldr	r3, [r7, #4]
 476 0044 1A44     		add	r2, r2, r3
 477 0046 FB68     		ldr	r3, [r7, #12]
 478 0048 9A61     		str	r2, [r3, #24]
 479 004a 2BE0     		b	.L15
 480              	.L14:
 481              		.loc 7 78 11
 482 004c 7A68     		ldr	r2, [r7, #4]
 483 004e 7B69     		ldr	r3, [r7, #20]
 484 0050 9A42     		cmp	r2, r3
 485 0052 1CD9     		bls	.L16
 486              		.loc 7 79 35
 487 0054 FB68     		ldr	r3, [r7, #12]
 488 0056 9B69     		ldr	r3, [r3, #24]
 489              		.loc 7 79 5
 490 0058 7A69     		ldr	r2, [r7, #20]
 491 005a 1946     		mov	r1, r3
 492 005c B868     		ldr	r0, [r7, #8]
 493 005e FFF7FEFF 		bl	memcpy
 494              		.loc 7 80 8
 495 0062 BA68     		ldr	r2, [r7, #8]
 496 0064 7B69     		ldr	r3, [r7, #20]
 497 0066 1344     		add	r3, r3, r2
 498 0068 BB60     		str	r3, [r7, #8]
 499              		.loc 7 81 8
 500 006a 7A68     		ldr	r2, [r7, #4]
 501 006c 7B69     		ldr	r3, [r7, #20]
 502 006e D31A     		subs	r3, r2, r3
 503 0070 3B61     		str	r3, [r7, #16]
 504              		.loc 7 82 35
 505 0072 FB68     		ldr	r3, [r7, #12]
 506 0074 DB68     		ldr	r3, [r3, #12]
 507              		.loc 7 82 5
 508 0076 3A69     		ldr	r2, [r7, #16]
 509 0078 1946     		mov	r1, r3
 510 007a B868     		ldr	r0, [r7, #8]
 511 007c FFF7FEFF 		bl	memcpy
 512              		.loc 7 83 23
 513 0080 FB68     		ldr	r3, [r7, #12]
ARM GAS  C:\Users\DEVELO~1\AppData\Local\Temp\ccJs2sHK.s 			page 10


 514 0082 DA68     		ldr	r2, [r3, #12]
 515              		.loc 7 83 34
 516 0084 3B69     		ldr	r3, [r7, #16]
 517 0086 1A44     		add	r2, r2, r3
 518              		.loc 7 83 18
 519 0088 FB68     		ldr	r3, [r7, #12]
 520 008a 9A61     		str	r2, [r3, #24]
 521 008c 0AE0     		b	.L15
 522              	.L16:
 523              		.loc 7 86 35
 524 008e FB68     		ldr	r3, [r7, #12]
 525 0090 9B69     		ldr	r3, [r3, #24]
 526              		.loc 7 86 5
 527 0092 7A68     		ldr	r2, [r7, #4]
 528 0094 1946     		mov	r1, r3
 529 0096 B868     		ldr	r0, [r7, #8]
 530 0098 FFF7FEFF 		bl	memcpy
 531              		.loc 7 87 23
 532 009c FB68     		ldr	r3, [r7, #12]
 533 009e DA68     		ldr	r2, [r3, #12]
 534              		.loc 7 87 18
 535 00a0 FB68     		ldr	r3, [r7, #12]
 536 00a2 9A61     		str	r2, [r3, #24]
 537              	.L15:
 538              		.loc 7 90 18
 539 00a4 FB68     		ldr	r3, [r7, #12]
 540 00a6 9A68     		ldr	r2, [r3, #8]
 541 00a8 7B68     		ldr	r3, [r7, #4]
 542 00aa D21A     		subs	r2, r2, r3
 543 00ac FB68     		ldr	r3, [r7, #12]
 544 00ae 9A60     		str	r2, [r3, #8]
 545              		.loc 7 91 10
 546 00b0 7B68     		ldr	r3, [r7, #4]
 547              		.loc 7 92 1
 548 00b2 1846     		mov	r0, r3
 549 00b4 1837     		adds	r7, r7, #24
 550              		.cfi_def_cfa_offset 8
 551 00b6 BD46     		mov	sp, r7
 552              		.cfi_def_cfa_register 13
 553              		@ sp needed
 554 00b8 80BD     		pop	{r7, pc}
 555              		.cfi_endproc
 556              	.LFE432:
 557              		.size	iq_read, .-iq_read
 558              		.section	.text.oq_write,"ax",%progbits
 559              		.align	1
 560              		.syntax unified
 561              		.thumb
 562              		.thumb_func
 563              		.type	oq_write, %function
 564              	oq_write:
 565              	.LFB433:
 566              		.loc 7 108 74
 567              		.cfi_startproc
 568              		@ args = 0, pretend = 0, frame = 24
 569              		@ frame_needed = 1, uses_anonymous_args = 0
 570 0000 80B5     		push	{r7, lr}
ARM GAS  C:\Users\DEVELO~1\AppData\Local\Temp\ccJs2sHK.s 			page 11


 571              		.cfi_def_cfa_offset 8
 572              		.cfi_offset 7, -8
 573              		.cfi_offset 14, -4
 574 0002 86B0     		sub	sp, sp, #24
 575              		.cfi_def_cfa_offset 32
 576 0004 00AF     		add	r7, sp, #0
 577              		.cfi_def_cfa_register 7
 578 0006 F860     		str	r0, [r7, #12]
 579 0008 B960     		str	r1, [r7, #8]
 580 000a 7A60     		str	r2, [r7, #4]
 581              		.loc 7 114 11
 582 000c FB68     		ldr	r3, [r7, #12]
 583 000e 9B68     		ldr	r3, [r3, #8]
 584              		.loc 7 114 6
 585 0010 7A68     		ldr	r2, [r7, #4]
 586 0012 9A42     		cmp	r2, r3
 587 0014 02D9     		bls	.L19
 588              		.loc 7 115 7
 589 0016 FB68     		ldr	r3, [r7, #12]
 590 0018 9B68     		ldr	r3, [r3, #8]
 591 001a 7B60     		str	r3, [r7, #4]
 592              	.L19:
 593              		.loc 7 120 20
 594 001c FB68     		ldr	r3, [r7, #12]
 595 001e 1A69     		ldr	r2, [r3, #16]
 596              		.loc 7 120 33
 597 0020 FB68     		ldr	r3, [r7, #12]
 598 0022 5B69     		ldr	r3, [r3, #20]
 599              		.loc 7 120 28
 600 0024 D31A     		subs	r3, r2, r3
 601              		.loc 7 120 6
 602 0026 7B61     		str	r3, [r7, #20]
 603              		.loc 7 122 6
 604 0028 7A68     		ldr	r2, [r7, #4]
 605 002a 7B69     		ldr	r3, [r7, #20]
 606 002c 9A42     		cmp	r2, r3
 607 002e 0DD2     		bcs	.L20
 608              		.loc 7 123 23
 609 0030 FB68     		ldr	r3, [r7, #12]
 610 0032 5B69     		ldr	r3, [r3, #20]
 611              		.loc 7 123 5
 612 0034 7A68     		ldr	r2, [r7, #4]
 613 0036 B968     		ldr	r1, [r7, #8]
 614 0038 1846     		mov	r0, r3
 615 003a FFF7FEFF 		bl	memcpy
 616              		.loc 7 124 18
 617 003e FB68     		ldr	r3, [r7, #12]
 618 0040 5A69     		ldr	r2, [r3, #20]
 619 0042 7B68     		ldr	r3, [r7, #4]
 620 0044 1A44     		add	r2, r2, r3
 621 0046 FB68     		ldr	r3, [r7, #12]
 622 0048 5A61     		str	r2, [r3, #20]
 623 004a 2BE0     		b	.L21
 624              	.L20:
 625              		.loc 7 126 11
 626 004c 7A68     		ldr	r2, [r7, #4]
 627 004e 7B69     		ldr	r3, [r7, #20]
ARM GAS  C:\Users\DEVELO~1\AppData\Local\Temp\ccJs2sHK.s 			page 12


 628 0050 9A42     		cmp	r2, r3
 629 0052 1CD9     		bls	.L22
 630              		.loc 7 127 23
 631 0054 FB68     		ldr	r3, [r7, #12]
 632 0056 5B69     		ldr	r3, [r3, #20]
 633              		.loc 7 127 5
 634 0058 7A69     		ldr	r2, [r7, #20]
 635 005a B968     		ldr	r1, [r7, #8]
 636 005c 1846     		mov	r0, r3
 637 005e FFF7FEFF 		bl	memcpy
 638              		.loc 7 128 8
 639 0062 BA68     		ldr	r2, [r7, #8]
 640 0064 7B69     		ldr	r3, [r7, #20]
 641 0066 1344     		add	r3, r3, r2
 642 0068 BB60     		str	r3, [r7, #8]
 643              		.loc 7 129 8
 644 006a 7A68     		ldr	r2, [r7, #4]
 645 006c 7B69     		ldr	r3, [r7, #20]
 646 006e D31A     		subs	r3, r2, r3
 647 0070 3B61     		str	r3, [r7, #16]
 648              		.loc 7 130 23
 649 0072 FB68     		ldr	r3, [r7, #12]
 650 0074 DB68     		ldr	r3, [r3, #12]
 651              		.loc 7 130 5
 652 0076 3A69     		ldr	r2, [r7, #16]
 653 0078 B968     		ldr	r1, [r7, #8]
 654 007a 1846     		mov	r0, r3
 655 007c FFF7FEFF 		bl	memcpy
 656              		.loc 7 131 23
 657 0080 FB68     		ldr	r3, [r7, #12]
 658 0082 DA68     		ldr	r2, [r3, #12]
 659              		.loc 7 131 34
 660 0084 3B69     		ldr	r3, [r7, #16]
 661 0086 1A44     		add	r2, r2, r3
 662              		.loc 7 131 18
 663 0088 FB68     		ldr	r3, [r7, #12]
 664 008a 5A61     		str	r2, [r3, #20]
 665 008c 0AE0     		b	.L21
 666              	.L22:
 667              		.loc 7 134 23
 668 008e FB68     		ldr	r3, [r7, #12]
 669 0090 5B69     		ldr	r3, [r3, #20]
 670              		.loc 7 134 5
 671 0092 7A68     		ldr	r2, [r7, #4]
 672 0094 B968     		ldr	r1, [r7, #8]
 673 0096 1846     		mov	r0, r3
 674 0098 FFF7FEFF 		bl	memcpy
 675              		.loc 7 135 23
 676 009c FB68     		ldr	r3, [r7, #12]
 677 009e DA68     		ldr	r2, [r3, #12]
 678              		.loc 7 135 18
 679 00a0 FB68     		ldr	r3, [r7, #12]
 680 00a2 5A61     		str	r2, [r3, #20]
 681              	.L21:
 682              		.loc 7 138 18
 683 00a4 FB68     		ldr	r3, [r7, #12]
 684 00a6 9A68     		ldr	r2, [r3, #8]
ARM GAS  C:\Users\DEVELO~1\AppData\Local\Temp\ccJs2sHK.s 			page 13


 685 00a8 7B68     		ldr	r3, [r7, #4]
 686 00aa D21A     		subs	r2, r2, r3
 687 00ac FB68     		ldr	r3, [r7, #12]
 688 00ae 9A60     		str	r2, [r3, #8]
 689              		.loc 7 139 10
 690 00b0 7B68     		ldr	r3, [r7, #4]
 691              		.loc 7 140 1
 692 00b2 1846     		mov	r0, r3
 693 00b4 1837     		adds	r7, r7, #24
 694              		.cfi_def_cfa_offset 8
 695 00b6 BD46     		mov	sp, r7
 696              		.cfi_def_cfa_register 13
 697              		@ sp needed
 698 00b8 80BD     		pop	{r7, pc}
 699              		.cfi_endproc
 700              	.LFE433:
 701              		.size	oq_write, .-oq_write
 702              		.section	.text.iqObjectInit,"ax",%progbits
 703              		.align	1
 704              		.global	iqObjectInit
 705              		.syntax unified
 706              		.thumb
 707              		.thumb_func
 708              		.type	iqObjectInit, %function
 709              	iqObjectInit:
 710              	.LFB434:
 711              		.loc 7 178 47
 712              		.cfi_startproc
 713              		@ args = 4, pretend = 0, frame = 16
 714              		@ frame_needed = 1, uses_anonymous_args = 0
 715 0000 80B5     		push	{r7, lr}
 716              		.cfi_def_cfa_offset 8
 717              		.cfi_offset 7, -8
 718              		.cfi_offset 14, -4
 719 0002 84B0     		sub	sp, sp, #16
 720              		.cfi_def_cfa_offset 24
 721 0004 00AF     		add	r7, sp, #0
 722              		.cfi_def_cfa_register 7
 723 0006 F860     		str	r0, [r7, #12]
 724 0008 B960     		str	r1, [r7, #8]
 725 000a 7A60     		str	r2, [r7, #4]
 726 000c 3B60     		str	r3, [r7]
 727              		.loc 7 180 3
 728 000e FB68     		ldr	r3, [r7, #12]
 729 0010 1846     		mov	r0, r3
 730 0012 FFF7FEFF 		bl	osalThreadQueueObjectInit
 731              		.loc 7 181 18
 732 0016 FB68     		ldr	r3, [r7, #12]
 733 0018 0022     		movs	r2, #0
 734 001a 9A60     		str	r2, [r3, #8]
 735              		.loc 7 182 18
 736 001c FB68     		ldr	r3, [r7, #12]
 737 001e BA68     		ldr	r2, [r7, #8]
 738 0020 DA60     		str	r2, [r3, #12]
 739              		.loc 7 183 18
 740 0022 FB68     		ldr	r3, [r7, #12]
 741 0024 BA68     		ldr	r2, [r7, #8]
ARM GAS  C:\Users\DEVELO~1\AppData\Local\Temp\ccJs2sHK.s 			page 14


 742 0026 9A61     		str	r2, [r3, #24]
 743              		.loc 7 184 18
 744 0028 FB68     		ldr	r3, [r7, #12]
 745 002a BA68     		ldr	r2, [r7, #8]
 746 002c 5A61     		str	r2, [r3, #20]
 747              		.loc 7 185 23
 748 002e BA68     		ldr	r2, [r7, #8]
 749 0030 7B68     		ldr	r3, [r7, #4]
 750 0032 1A44     		add	r2, r2, r3
 751              		.loc 7 185 18
 752 0034 FB68     		ldr	r3, [r7, #12]
 753 0036 1A61     		str	r2, [r3, #16]
 754              		.loc 7 186 18
 755 0038 FB68     		ldr	r3, [r7, #12]
 756 003a 3A68     		ldr	r2, [r7]
 757 003c DA61     		str	r2, [r3, #28]
 758              		.loc 7 187 18
 759 003e FB68     		ldr	r3, [r7, #12]
 760 0040 BA69     		ldr	r2, [r7, #24]
 761 0042 1A62     		str	r2, [r3, #32]
 762              		.loc 7 188 1
 763 0044 00BF     		nop
 764 0046 1037     		adds	r7, r7, #16
 765              		.cfi_def_cfa_offset 8
 766 0048 BD46     		mov	sp, r7
 767              		.cfi_def_cfa_register 13
 768              		@ sp needed
 769 004a 80BD     		pop	{r7, pc}
 770              		.cfi_endproc
 771              	.LFE434:
 772              		.size	iqObjectInit, .-iqObjectInit
 773              		.section	.text.iqResetI,"ax",%progbits
 774              		.align	1
 775              		.global	iqResetI
 776              		.syntax unified
 777              		.thumb
 778              		.thumb_func
 779              		.type	iqResetI, %function
 780              	iqResetI:
 781              	.LFB435:
 782              		.loc 7 201 35
 783              		.cfi_startproc
 784              		@ args = 0, pretend = 0, frame = 8
 785              		@ frame_needed = 1, uses_anonymous_args = 0
 786 0000 80B5     		push	{r7, lr}
 787              		.cfi_def_cfa_offset 8
 788              		.cfi_offset 7, -8
 789              		.cfi_offset 14, -4
 790 0002 82B0     		sub	sp, sp, #8
 791              		.cfi_def_cfa_offset 16
 792 0004 00AF     		add	r7, sp, #0
 793              		.cfi_def_cfa_register 7
 794 0006 7860     		str	r0, [r7, #4]
 795              		.loc 7 205 21
 796 0008 7B68     		ldr	r3, [r7, #4]
 797 000a DA68     		ldr	r2, [r3, #12]
 798              		.loc 7 205 16
ARM GAS  C:\Users\DEVELO~1\AppData\Local\Temp\ccJs2sHK.s 			page 15


 799 000c 7B68     		ldr	r3, [r7, #4]
 800 000e 9A61     		str	r2, [r3, #24]
 801              		.loc 7 206 21
 802 0010 7B68     		ldr	r3, [r7, #4]
 803 0012 DA68     		ldr	r2, [r3, #12]
 804              		.loc 7 206 16
 805 0014 7B68     		ldr	r3, [r7, #4]
 806 0016 5A61     		str	r2, [r3, #20]
 807              		.loc 7 207 18
 808 0018 7B68     		ldr	r3, [r7, #4]
 809 001a 0022     		movs	r2, #0
 810 001c 9A60     		str	r2, [r3, #8]
 811              		.loc 7 208 3
 812 001e 7B68     		ldr	r3, [r7, #4]
 813 0020 6FF00101 		mvn	r1, #1
 814 0024 1846     		mov	r0, r3
 815 0026 FFF7FEFF 		bl	osalThreadDequeueAllI
 816              		.loc 7 209 1
 817 002a 00BF     		nop
 818 002c 0837     		adds	r7, r7, #8
 819              		.cfi_def_cfa_offset 8
 820 002e BD46     		mov	sp, r7
 821              		.cfi_def_cfa_register 13
 822              		@ sp needed
 823 0030 80BD     		pop	{r7, pc}
 824              		.cfi_endproc
 825              	.LFE435:
 826              		.size	iqResetI, .-iqResetI
 827              		.section	.text.iqPutI,"ax",%progbits
 828              		.align	1
 829              		.global	iqPutI
 830              		.syntax unified
 831              		.thumb
 832              		.thumb_func
 833              		.type	iqPutI, %function
 834              	iqPutI:
 835              	.LFB436:
 836              		.loc 7 224 45
 837              		.cfi_startproc
 838              		@ args = 0, pretend = 0, frame = 8
 839              		@ frame_needed = 1, uses_anonymous_args = 0
 840 0000 80B5     		push	{r7, lr}
 841              		.cfi_def_cfa_offset 8
 842              		.cfi_offset 7, -8
 843              		.cfi_offset 14, -4
 844 0002 82B0     		sub	sp, sp, #8
 845              		.cfi_def_cfa_offset 16
 846 0004 00AF     		add	r7, sp, #0
 847              		.cfi_def_cfa_register 7
 848 0006 7860     		str	r0, [r7, #4]
 849 0008 0B46     		mov	r3, r1
 850 000a FB70     		strb	r3, [r7, #3]
 851              		.loc 7 229 8
 852 000c 7B68     		ldr	r3, [r7, #4]
 853 000e 5A69     		ldr	r2, [r3, #20]
 854 0010 7B68     		ldr	r3, [r7, #4]
 855 0012 9B69     		ldr	r3, [r3, #24]
ARM GAS  C:\Users\DEVELO~1\AppData\Local\Temp\ccJs2sHK.s 			page 16


 856 0014 9A42     		cmp	r2, r3
 857 0016 05D1     		bne	.L27
 858              		.loc 7 229 8 is_stmt 0 discriminator 1
 859 0018 7B68     		ldr	r3, [r7, #4]
 860 001a 9B68     		ldr	r3, [r3, #8]
 861 001c 002B     		cmp	r3, #0
 862 001e 01D0     		beq	.L27
 863              		.loc 7 229 8 discriminator 3
 864 0020 0123     		movs	r3, #1
 865 0022 00E0     		b	.L28
 866              	.L27:
 867              		.loc 7 229 8 discriminator 4
 868 0024 0023     		movs	r3, #0
 869              	.L28:
 870              		.loc 7 229 8 discriminator 6
 871 0026 03F00103 		and	r3, r3, #1
 872 002a DBB2     		uxtb	r3, r3
 873              		.loc 7 229 7 is_stmt 1 discriminator 6
 874 002c 83F00103 		eor	r3, r3, #1
 875 0030 DBB2     		uxtb	r3, r3
 876              		.loc 7 229 6 discriminator 6
 877 0032 002B     		cmp	r3, #0
 878 0034 1CD0     		beq	.L29
 879              		.loc 7 230 8
 880 0036 7B68     		ldr	r3, [r7, #4]
 881 0038 9B68     		ldr	r3, [r3, #8]
 882              		.loc 7 230 19
 883 003a 5A1C     		adds	r2, r3, #1
 884 003c 7B68     		ldr	r3, [r7, #4]
 885 003e 9A60     		str	r2, [r3, #8]
 886              		.loc 7 231 9
 887 0040 7B68     		ldr	r3, [r7, #4]
 888 0042 5B69     		ldr	r3, [r3, #20]
 889              		.loc 7 231 18
 890 0044 591C     		adds	r1, r3, #1
 891 0046 7A68     		ldr	r2, [r7, #4]
 892 0048 5161     		str	r1, [r2, #20]
 893              		.loc 7 231 21
 894 004a FA78     		ldrb	r2, [r7, #3]
 895 004c 1A70     		strb	r2, [r3]
 896              		.loc 7 232 12
 897 004e 7B68     		ldr	r3, [r7, #4]
 898 0050 5A69     		ldr	r2, [r3, #20]
 899              		.loc 7 232 28
 900 0052 7B68     		ldr	r3, [r7, #4]
 901 0054 1B69     		ldr	r3, [r3, #16]
 902              		.loc 7 232 8
 903 0056 9A42     		cmp	r2, r3
 904 0058 03D3     		bcc	.L30
 905              		.loc 7 233 25
 906 005a 7B68     		ldr	r3, [r7, #4]
 907 005c DA68     		ldr	r2, [r3, #12]
 908              		.loc 7 233 20
 909 005e 7B68     		ldr	r3, [r7, #4]
 910 0060 5A61     		str	r2, [r3, #20]
 911              	.L30:
 912              		.loc 7 236 5
ARM GAS  C:\Users\DEVELO~1\AppData\Local\Temp\ccJs2sHK.s 			page 17


 913 0062 7B68     		ldr	r3, [r7, #4]
 914 0064 0021     		movs	r1, #0
 915 0066 1846     		mov	r0, r3
 916 0068 FFF7FEFF 		bl	osalThreadDequeueNextI
 917              		.loc 7 238 12
 918 006c 0023     		movs	r3, #0
 919 006e 01E0     		b	.L31
 920              	.L29:
 921              		.loc 7 241 10
 922 0070 4FF0FF33 		mov	r3, #-1
 923              	.L31:
 924              		.loc 7 242 1
 925 0074 1846     		mov	r0, r3
 926 0076 0837     		adds	r7, r7, #8
 927              		.cfi_def_cfa_offset 8
 928 0078 BD46     		mov	sp, r7
 929              		.cfi_def_cfa_register 13
 930              		@ sp needed
 931 007a 80BD     		pop	{r7, pc}
 932              		.cfi_endproc
 933              	.LFE436:
 934              		.size	iqPutI, .-iqPutI
 935              		.section	.text.iqGetI,"ax",%progbits
 936              		.align	1
 937              		.global	iqGetI
 938              		.syntax unified
 939              		.thumb
 940              		.thumb_func
 941              		.type	iqGetI, %function
 942              	iqGetI:
 943              	.LFB437:
 944              		.loc 7 257 34
 945              		.cfi_startproc
 946              		@ args = 0, pretend = 0, frame = 16
 947              		@ frame_needed = 1, uses_anonymous_args = 0
 948 0000 80B5     		push	{r7, lr}
 949              		.cfi_def_cfa_offset 8
 950              		.cfi_offset 7, -8
 951              		.cfi_offset 14, -4
 952 0002 84B0     		sub	sp, sp, #16
 953              		.cfi_def_cfa_offset 24
 954 0004 00AF     		add	r7, sp, #0
 955              		.cfi_def_cfa_register 7
 956 0006 7860     		str	r0, [r7, #4]
 957              		.loc 7 262 8
 958 0008 7B68     		ldr	r3, [r7, #4]
 959 000a 9B68     		ldr	r3, [r3, #8]
 960              		.loc 7 262 6
 961 000c 002B     		cmp	r3, #0
 962 000e 1FD0     		beq	.L33
 963              	.LBB22:
 964              		.loc 7 266 8
 965 0010 7B68     		ldr	r3, [r7, #4]
 966 0012 9B68     		ldr	r3, [r3, #8]
 967              		.loc 7 266 19
 968 0014 5A1E     		subs	r2, r3, #1
 969 0016 7B68     		ldr	r3, [r7, #4]
ARM GAS  C:\Users\DEVELO~1\AppData\Local\Temp\ccJs2sHK.s 			page 18


 970 0018 9A60     		str	r2, [r3, #8]
 971              		.loc 7 267 13
 972 001a 7B68     		ldr	r3, [r7, #4]
 973 001c 9B69     		ldr	r3, [r3, #24]
 974              		.loc 7 267 22
 975 001e 591C     		adds	r1, r3, #1
 976 0020 7A68     		ldr	r2, [r7, #4]
 977 0022 9161     		str	r1, [r2, #24]
 978              		.loc 7 267 7
 979 0024 1B78     		ldrb	r3, [r3]
 980 0026 FB73     		strb	r3, [r7, #15]
 981              		.loc 7 268 12
 982 0028 7B68     		ldr	r3, [r7, #4]
 983 002a 9A69     		ldr	r2, [r3, #24]
 984              		.loc 7 268 28
 985 002c 7B68     		ldr	r3, [r7, #4]
 986 002e 1B69     		ldr	r3, [r3, #16]
 987              		.loc 7 268 8
 988 0030 9A42     		cmp	r2, r3
 989 0032 03D3     		bcc	.L34
 990              		.loc 7 269 25
 991 0034 7B68     		ldr	r3, [r7, #4]
 992 0036 DA68     		ldr	r2, [r3, #12]
 993              		.loc 7 269 20
 994 0038 7B68     		ldr	r3, [r7, #4]
 995 003a 9A61     		str	r2, [r3, #24]
 996              	.L34:
 997              		.loc 7 273 12
 998 003c 7B68     		ldr	r3, [r7, #4]
 999 003e DB69     		ldr	r3, [r3, #28]
 1000              		.loc 7 273 8
 1001 0040 002B     		cmp	r3, #0
 1002 0042 03D0     		beq	.L35
 1003              		.loc 7 274 10
 1004 0044 7B68     		ldr	r3, [r7, #4]
 1005 0046 DB69     		ldr	r3, [r3, #28]
 1006              		.loc 7 274 7
 1007 0048 7868     		ldr	r0, [r7, #4]
 1008 004a 9847     		blx	r3
 1009              	.LVL0:
 1010              	.L35:
 1011              		.loc 7 277 12
 1012 004c FB7B     		ldrb	r3, [r7, #15]	@ zero_extendqisi2
 1013 004e 01E0     		b	.L36
 1014              	.L33:
 1015              	.LBE22:
 1016              		.loc 7 280 10
 1017 0050 4FF0FF33 		mov	r3, #-1
 1018              	.L36:
 1019              		.loc 7 281 1
 1020 0054 1846     		mov	r0, r3
 1021 0056 1037     		adds	r7, r7, #16
 1022              		.cfi_def_cfa_offset 8
 1023 0058 BD46     		mov	sp, r7
 1024              		.cfi_def_cfa_register 13
 1025              		@ sp needed
 1026 005a 80BD     		pop	{r7, pc}
ARM GAS  C:\Users\DEVELO~1\AppData\Local\Temp\ccJs2sHK.s 			page 19


 1027              		.cfi_endproc
 1028              	.LFE437:
 1029              		.size	iqGetI, .-iqGetI
 1030              		.section	.text.iqGetTimeout,"ax",%progbits
 1031              		.align	1
 1032              		.global	iqGetTimeout
 1033              		.syntax unified
 1034              		.thumb
 1035              		.thumb_func
 1036              		.type	iqGetTimeout, %function
 1037              	iqGetTimeout:
 1038              	.LFB438:
 1039              		.loc 7 302 63
 1040              		.cfi_startproc
 1041              		@ args = 0, pretend = 0, frame = 16
 1042              		@ frame_needed = 1, uses_anonymous_args = 0
 1043 0000 80B5     		push	{r7, lr}
 1044              		.cfi_def_cfa_offset 8
 1045              		.cfi_offset 7, -8
 1046              		.cfi_offset 14, -4
 1047 0002 84B0     		sub	sp, sp, #16
 1048              		.cfi_def_cfa_offset 24
 1049 0004 00AF     		add	r7, sp, #0
 1050              		.cfi_def_cfa_register 7
 1051 0006 7860     		str	r0, [r7, #4]
 1052 0008 3960     		str	r1, [r7]
 1053              		.loc 7 305 3
 1054 000a FFF7FEFF 		bl	osalSysLock
 1055              		.loc 7 308 9
 1056 000e 0CE0     		b	.L38
 1057              	.L40:
 1058              	.LBB23:
 1059              		.loc 7 309 17
 1060 0010 7B68     		ldr	r3, [r7, #4]
 1061 0012 3968     		ldr	r1, [r7]
 1062 0014 1846     		mov	r0, r3
 1063 0016 FFF7FEFF 		bl	osalThreadEnqueueTimeoutS
 1064 001a B860     		str	r0, [r7, #8]
 1065              		.loc 7 310 8
 1066 001c BB68     		ldr	r3, [r7, #8]
 1067 001e 002B     		cmp	r3, #0
 1068 0020 03DA     		bge	.L38
 1069              		.loc 7 311 7
 1070 0022 FFF7FEFF 		bl	osalSysUnlock
 1071              		.loc 7 312 14
 1072 0026 BB68     		ldr	r3, [r7, #8]
 1073 0028 24E0     		b	.L39
 1074              	.L38:
 1075              	.LBE23:
 1076              		.loc 7 308 10
 1077 002a 7B68     		ldr	r3, [r7, #4]
 1078 002c 9B68     		ldr	r3, [r3, #8]
 1079 002e 002B     		cmp	r3, #0
 1080 0030 EED0     		beq	.L40
 1081              		.loc 7 317 6
 1082 0032 7B68     		ldr	r3, [r7, #4]
 1083 0034 9B68     		ldr	r3, [r3, #8]
ARM GAS  C:\Users\DEVELO~1\AppData\Local\Temp\ccJs2sHK.s 			page 20


 1084              		.loc 7 317 17
 1085 0036 5A1E     		subs	r2, r3, #1
 1086 0038 7B68     		ldr	r3, [r7, #4]
 1087 003a 9A60     		str	r2, [r3, #8]
 1088              		.loc 7 318 11
 1089 003c 7B68     		ldr	r3, [r7, #4]
 1090 003e 9B69     		ldr	r3, [r3, #24]
 1091              		.loc 7 318 20
 1092 0040 591C     		adds	r1, r3, #1
 1093 0042 7A68     		ldr	r2, [r7, #4]
 1094 0044 9161     		str	r1, [r2, #24]
 1095              		.loc 7 318 5
 1096 0046 1B78     		ldrb	r3, [r3]
 1097 0048 FB73     		strb	r3, [r7, #15]
 1098              		.loc 7 319 10
 1099 004a 7B68     		ldr	r3, [r7, #4]
 1100 004c 9A69     		ldr	r2, [r3, #24]
 1101              		.loc 7 319 26
 1102 004e 7B68     		ldr	r3, [r7, #4]
 1103 0050 1B69     		ldr	r3, [r3, #16]
 1104              		.loc 7 319 6
 1105 0052 9A42     		cmp	r2, r3
 1106 0054 03D3     		bcc	.L41
 1107              		.loc 7 320 23
 1108 0056 7B68     		ldr	r3, [r7, #4]
 1109 0058 DA68     		ldr	r2, [r3, #12]
 1110              		.loc 7 320 18
 1111 005a 7B68     		ldr	r3, [r7, #4]
 1112 005c 9A61     		str	r2, [r3, #24]
 1113              	.L41:
 1114              		.loc 7 324 10
 1115 005e 7B68     		ldr	r3, [r7, #4]
 1116 0060 DB69     		ldr	r3, [r3, #28]
 1117              		.loc 7 324 6
 1118 0062 002B     		cmp	r3, #0
 1119 0064 03D0     		beq	.L42
 1120              		.loc 7 325 8
 1121 0066 7B68     		ldr	r3, [r7, #4]
 1122 0068 DB69     		ldr	r3, [r3, #28]
 1123              		.loc 7 325 5
 1124 006a 7868     		ldr	r0, [r7, #4]
 1125 006c 9847     		blx	r3
 1126              	.LVL1:
 1127              	.L42:
 1128              		.loc 7 328 3
 1129 006e FFF7FEFF 		bl	osalSysUnlock
 1130              		.loc 7 330 10
 1131 0072 FB7B     		ldrb	r3, [r7, #15]	@ zero_extendqisi2
 1132              	.L39:
 1133              		.loc 7 331 1
 1134 0074 1846     		mov	r0, r3
 1135 0076 1037     		adds	r7, r7, #16
 1136              		.cfi_def_cfa_offset 8
 1137 0078 BD46     		mov	sp, r7
 1138              		.cfi_def_cfa_register 13
 1139              		@ sp needed
 1140 007a 80BD     		pop	{r7, pc}
ARM GAS  C:\Users\DEVELO~1\AppData\Local\Temp\ccJs2sHK.s 			page 21


 1141              		.cfi_endproc
 1142              	.LFE438:
 1143              		.size	iqGetTimeout, .-iqGetTimeout
 1144              		.section	.text.iqReadI,"ax",%progbits
 1145              		.align	1
 1146              		.global	iqReadI
 1147              		.syntax unified
 1148              		.thumb
 1149              		.thumb_func
 1150              		.type	iqReadI, %function
 1151              	iqReadI:
 1152              	.LFB439:
 1153              		.loc 7 346 59
 1154              		.cfi_startproc
 1155              		@ args = 0, pretend = 0, frame = 24
 1156              		@ frame_needed = 1, uses_anonymous_args = 0
 1157 0000 80B5     		push	{r7, lr}
 1158              		.cfi_def_cfa_offset 8
 1159              		.cfi_offset 7, -8
 1160              		.cfi_offset 14, -4
 1161 0002 86B0     		sub	sp, sp, #24
 1162              		.cfi_def_cfa_offset 32
 1163 0004 00AF     		add	r7, sp, #0
 1164              		.cfi_def_cfa_register 7
 1165 0006 F860     		str	r0, [r7, #12]
 1166 0008 B960     		str	r1, [r7, #8]
 1167 000a 7A60     		str	r2, [r7, #4]
 1168              		.loc 7 347 13
 1169 000c FB68     		ldr	r3, [r7, #12]
 1170 000e DB69     		ldr	r3, [r3, #28]
 1171 0010 7B61     		str	r3, [r7, #20]
 1172              		.loc 7 352 8
 1173 0012 7A68     		ldr	r2, [r7, #4]
 1174 0014 B968     		ldr	r1, [r7, #8]
 1175 0016 F868     		ldr	r0, [r7, #12]
 1176 0018 FFF7FEFF 		bl	iq_read
 1177 001c 3861     		str	r0, [r7, #16]
 1178              		.loc 7 356 6
 1179 001e 3B69     		ldr	r3, [r7, #16]
 1180 0020 002B     		cmp	r3, #0
 1181 0022 05D0     		beq	.L44
 1182              		.loc 7 356 24 discriminator 1
 1183 0024 7B69     		ldr	r3, [r7, #20]
 1184 0026 002B     		cmp	r3, #0
 1185 0028 02D0     		beq	.L44
 1186              		.loc 7 357 5
 1187 002a 7B69     		ldr	r3, [r7, #20]
 1188 002c F868     		ldr	r0, [r7, #12]
 1189 002e 9847     		blx	r3
 1190              	.LVL2:
 1191              	.L44:
 1192              		.loc 7 360 10
 1193 0030 3B69     		ldr	r3, [r7, #16]
 1194              		.loc 7 361 1
 1195 0032 1846     		mov	r0, r3
 1196 0034 1837     		adds	r7, r7, #24
 1197              		.cfi_def_cfa_offset 8
ARM GAS  C:\Users\DEVELO~1\AppData\Local\Temp\ccJs2sHK.s 			page 22


 1198 0036 BD46     		mov	sp, r7
 1199              		.cfi_def_cfa_register 13
 1200              		@ sp needed
 1201 0038 80BD     		pop	{r7, pc}
 1202              		.cfi_endproc
 1203              	.LFE439:
 1204              		.size	iqReadI, .-iqReadI
 1205              		.section	.text.iqReadTimeout,"ax",%progbits
 1206              		.align	1
 1207              		.global	iqReadTimeout
 1208              		.syntax unified
 1209              		.thumb
 1210              		.thumb_func
 1211              		.type	iqReadTimeout, %function
 1212              	iqReadTimeout:
 1213              	.LFB440:
 1214              		.loc 7 387 55
 1215              		.cfi_startproc
 1216              		@ args = 0, pretend = 0, frame = 32
 1217              		@ frame_needed = 1, uses_anonymous_args = 0
 1218 0000 80B5     		push	{r7, lr}
 1219              		.cfi_def_cfa_offset 8
 1220              		.cfi_offset 7, -8
 1221              		.cfi_offset 14, -4
 1222 0002 88B0     		sub	sp, sp, #32
 1223              		.cfi_def_cfa_offset 40
 1224 0004 00AF     		add	r7, sp, #0
 1225              		.cfi_def_cfa_register 7
 1226 0006 F860     		str	r0, [r7, #12]
 1227 0008 B960     		str	r1, [r7, #8]
 1228 000a 7A60     		str	r2, [r7, #4]
 1229 000c 3B60     		str	r3, [r7]
 1230              		.loc 7 388 13
 1231 000e FB68     		ldr	r3, [r7, #12]
 1232 0010 DB69     		ldr	r3, [r3, #28]
 1233 0012 FB61     		str	r3, [r7, #28]
 1234              		.loc 7 389 10
 1235 0014 7B68     		ldr	r3, [r7, #4]
 1236 0016 BB61     		str	r3, [r7, #24]
 1237              		.loc 7 393 3
 1238 0018 FFF7FEFF 		bl	osalSysLock
 1239              		.loc 7 395 9
 1240 001c 24E0     		b	.L47
 1241              	.L51:
 1242              	.LBB24:
 1243              		.loc 7 398 12
 1244 001e 7A68     		ldr	r2, [r7, #4]
 1245 0020 B968     		ldr	r1, [r7, #8]
 1246 0022 F868     		ldr	r0, [r7, #12]
 1247 0024 FFF7FEFF 		bl	iq_read
 1248 0028 7861     		str	r0, [r7, #20]
 1249              		.loc 7 399 8
 1250 002a 7B69     		ldr	r3, [r7, #20]
 1251 002c 002B     		cmp	r3, #0
 1252 002e 09D1     		bne	.L48
 1253              	.LBB25:
 1254              		.loc 7 400 19
ARM GAS  C:\Users\DEVELO~1\AppData\Local\Temp\ccJs2sHK.s 			page 23


 1255 0030 FB68     		ldr	r3, [r7, #12]
 1256 0032 3968     		ldr	r1, [r7]
 1257 0034 1846     		mov	r0, r3
 1258 0036 FFF7FEFF 		bl	osalThreadEnqueueTimeoutS
 1259 003a 3861     		str	r0, [r7, #16]
 1260              		.loc 7 403 10
 1261 003c 3B69     		ldr	r3, [r7, #16]
 1262 003e 002B     		cmp	r3, #0
 1263 0040 12D0     		beq	.L47
 1264              		.loc 7 404 9
 1265 0042 14E0     		b	.L49
 1266              	.L48:
 1267              	.LBE25:
 1268              		.loc 7 410 10
 1269 0044 FB69     		ldr	r3, [r7, #28]
 1270 0046 002B     		cmp	r3, #0
 1271 0048 02D0     		beq	.L50
 1272              		.loc 7 411 9
 1273 004a FB69     		ldr	r3, [r7, #28]
 1274 004c F868     		ldr	r0, [r7, #12]
 1275 004e 9847     		blx	r3
 1276              	.LVL3:
 1277              	.L50:
 1278              		.loc 7 415 7
 1279 0050 FFF7FEFF 		bl	osalSysUnlock
 1280              		.loc 7 417 10
 1281 0054 7A68     		ldr	r2, [r7, #4]
 1282 0056 7B69     		ldr	r3, [r7, #20]
 1283 0058 D31A     		subs	r3, r2, r3
 1284 005a 7B60     		str	r3, [r7, #4]
 1285              		.loc 7 418 10
 1286 005c BA68     		ldr	r2, [r7, #8]
 1287 005e 7B69     		ldr	r3, [r7, #20]
 1288 0060 1344     		add	r3, r3, r2
 1289 0062 BB60     		str	r3, [r7, #8]
 1290              		.loc 7 420 7
 1291 0064 FFF7FEFF 		bl	osalSysLock
 1292              	.L47:
 1293              	.LBE24:
 1294              		.loc 7 395 12
 1295 0068 7B68     		ldr	r3, [r7, #4]
 1296 006a 002B     		cmp	r3, #0
 1297 006c D7D1     		bne	.L51
 1298              	.L49:
 1299              		.loc 7 424 3
 1300 006e FFF7FEFF 		bl	osalSysUnlock
 1301              		.loc 7 425 14
 1302 0072 BA69     		ldr	r2, [r7, #24]
 1303 0074 7B68     		ldr	r3, [r7, #4]
 1304 0076 D31A     		subs	r3, r2, r3
 1305              		.loc 7 426 1
 1306 0078 1846     		mov	r0, r3
 1307 007a 2037     		adds	r7, r7, #32
 1308              		.cfi_def_cfa_offset 8
 1309 007c BD46     		mov	sp, r7
 1310              		.cfi_def_cfa_register 13
 1311              		@ sp needed
ARM GAS  C:\Users\DEVELO~1\AppData\Local\Temp\ccJs2sHK.s 			page 24


 1312 007e 80BD     		pop	{r7, pc}
 1313              		.cfi_endproc
 1314              	.LFE440:
 1315              		.size	iqReadTimeout, .-iqReadTimeout
 1316              		.section	.text.oqObjectInit,"ax",%progbits
 1317              		.align	1
 1318              		.global	oqObjectInit
 1319              		.syntax unified
 1320              		.thumb
 1321              		.thumb_func
 1322              		.type	oqObjectInit, %function
 1323              	oqObjectInit:
 1324              	.LFB441:
 1325              		.loc 7 444 47
 1326              		.cfi_startproc
 1327              		@ args = 4, pretend = 0, frame = 16
 1328              		@ frame_needed = 1, uses_anonymous_args = 0
 1329 0000 80B5     		push	{r7, lr}
 1330              		.cfi_def_cfa_offset 8
 1331              		.cfi_offset 7, -8
 1332              		.cfi_offset 14, -4
 1333 0002 84B0     		sub	sp, sp, #16
 1334              		.cfi_def_cfa_offset 24
 1335 0004 00AF     		add	r7, sp, #0
 1336              		.cfi_def_cfa_register 7
 1337 0006 F860     		str	r0, [r7, #12]
 1338 0008 B960     		str	r1, [r7, #8]
 1339 000a 7A60     		str	r2, [r7, #4]
 1340 000c 3B60     		str	r3, [r7]
 1341              		.loc 7 446 3
 1342 000e FB68     		ldr	r3, [r7, #12]
 1343 0010 1846     		mov	r0, r3
 1344 0012 FFF7FEFF 		bl	osalThreadQueueObjectInit
 1345              		.loc 7 447 18
 1346 0016 FB68     		ldr	r3, [r7, #12]
 1347 0018 7A68     		ldr	r2, [r7, #4]
 1348 001a 9A60     		str	r2, [r3, #8]
 1349              		.loc 7 448 18
 1350 001c FB68     		ldr	r3, [r7, #12]
 1351 001e BA68     		ldr	r2, [r7, #8]
 1352 0020 DA60     		str	r2, [r3, #12]
 1353              		.loc 7 449 18
 1354 0022 FB68     		ldr	r3, [r7, #12]
 1355 0024 BA68     		ldr	r2, [r7, #8]
 1356 0026 9A61     		str	r2, [r3, #24]
 1357              		.loc 7 450 18
 1358 0028 FB68     		ldr	r3, [r7, #12]
 1359 002a BA68     		ldr	r2, [r7, #8]
 1360 002c 5A61     		str	r2, [r3, #20]
 1361              		.loc 7 451 23
 1362 002e BA68     		ldr	r2, [r7, #8]
 1363 0030 7B68     		ldr	r3, [r7, #4]
 1364 0032 1A44     		add	r2, r2, r3
 1365              		.loc 7 451 18
 1366 0034 FB68     		ldr	r3, [r7, #12]
 1367 0036 1A61     		str	r2, [r3, #16]
 1368              		.loc 7 452 18
ARM GAS  C:\Users\DEVELO~1\AppData\Local\Temp\ccJs2sHK.s 			page 25


 1369 0038 FB68     		ldr	r3, [r7, #12]
 1370 003a 3A68     		ldr	r2, [r7]
 1371 003c DA61     		str	r2, [r3, #28]
 1372              		.loc 7 453 18
 1373 003e FB68     		ldr	r3, [r7, #12]
 1374 0040 BA69     		ldr	r2, [r7, #24]
 1375 0042 1A62     		str	r2, [r3, #32]
 1376              		.loc 7 454 1
 1377 0044 00BF     		nop
 1378 0046 1037     		adds	r7, r7, #16
 1379              		.cfi_def_cfa_offset 8
 1380 0048 BD46     		mov	sp, r7
 1381              		.cfi_def_cfa_register 13
 1382              		@ sp needed
 1383 004a 80BD     		pop	{r7, pc}
 1384              		.cfi_endproc
 1385              	.LFE441:
 1386              		.size	oqObjectInit, .-oqObjectInit
 1387              		.section	.text.oqResetI,"ax",%progbits
 1388              		.align	1
 1389              		.global	oqResetI
 1390              		.syntax unified
 1391              		.thumb
 1392              		.thumb_func
 1393              		.type	oqResetI, %function
 1394              	oqResetI:
 1395              	.LFB442:
 1396              		.loc 7 467 36
 1397              		.cfi_startproc
 1398              		@ args = 0, pretend = 0, frame = 8
 1399              		@ frame_needed = 1, uses_anonymous_args = 0
 1400 0000 80B5     		push	{r7, lr}
 1401              		.cfi_def_cfa_offset 8
 1402              		.cfi_offset 7, -8
 1403              		.cfi_offset 14, -4
 1404 0002 82B0     		sub	sp, sp, #8
 1405              		.cfi_def_cfa_offset 16
 1406 0004 00AF     		add	r7, sp, #0
 1407              		.cfi_def_cfa_register 7
 1408 0006 7860     		str	r0, [r7, #4]
 1409              		.loc 7 471 21
 1410 0008 7B68     		ldr	r3, [r7, #4]
 1411 000a DA68     		ldr	r2, [r3, #12]
 1412              		.loc 7 471 16
 1413 000c 7B68     		ldr	r3, [r7, #4]
 1414 000e 9A61     		str	r2, [r3, #24]
 1415              		.loc 7 472 21
 1416 0010 7B68     		ldr	r3, [r7, #4]
 1417 0012 DA68     		ldr	r2, [r3, #12]
 1418              		.loc 7 472 16
 1419 0014 7B68     		ldr	r3, [r7, #4]
 1420 0016 5A61     		str	r2, [r3, #20]
 1421              		.loc 7 473 20
 1422 0018 7B68     		ldr	r3, [r7, #4]
 1423 001a 1A69     		ldr	r2, [r3, #16]
 1424 001c 7B68     		ldr	r3, [r7, #4]
 1425 001e DB68     		ldr	r3, [r3, #12]
ARM GAS  C:\Users\DEVELO~1\AppData\Local\Temp\ccJs2sHK.s 			page 26


 1426 0020 D31A     		subs	r3, r2, r3
 1427 0022 1A46     		mov	r2, r3
 1428              		.loc 7 473 18
 1429 0024 7B68     		ldr	r3, [r7, #4]
 1430 0026 9A60     		str	r2, [r3, #8]
 1431              		.loc 7 474 3
 1432 0028 7B68     		ldr	r3, [r7, #4]
 1433 002a 6FF00101 		mvn	r1, #1
 1434 002e 1846     		mov	r0, r3
 1435 0030 FFF7FEFF 		bl	osalThreadDequeueAllI
 1436              		.loc 7 475 1
 1437 0034 00BF     		nop
 1438 0036 0837     		adds	r7, r7, #8
 1439              		.cfi_def_cfa_offset 8
 1440 0038 BD46     		mov	sp, r7
 1441              		.cfi_def_cfa_register 13
 1442              		@ sp needed
 1443 003a 80BD     		pop	{r7, pc}
 1444              		.cfi_endproc
 1445              	.LFE442:
 1446              		.size	oqResetI, .-oqResetI
 1447              		.section	.text.oqPutI,"ax",%progbits
 1448              		.align	1
 1449              		.global	oqPutI
 1450              		.syntax unified
 1451              		.thumb
 1452              		.thumb_func
 1453              		.type	oqPutI, %function
 1454              	oqPutI:
 1455              	.LFB443:
 1456              		.loc 7 490 46
 1457              		.cfi_startproc
 1458              		@ args = 0, pretend = 0, frame = 8
 1459              		@ frame_needed = 1, uses_anonymous_args = 0
 1460 0000 80B5     		push	{r7, lr}
 1461              		.cfi_def_cfa_offset 8
 1462              		.cfi_offset 7, -8
 1463              		.cfi_offset 14, -4
 1464 0002 82B0     		sub	sp, sp, #8
 1465              		.cfi_def_cfa_offset 16
 1466 0004 00AF     		add	r7, sp, #0
 1467              		.cfi_def_cfa_register 7
 1468 0006 7860     		str	r0, [r7, #4]
 1469 0008 0B46     		mov	r3, r1
 1470 000a FB70     		strb	r3, [r7, #3]
 1471              		.loc 7 495 9
 1472 000c 00BF     		nop
 1473              		.loc 7 495 11
 1474 000e 7B68     		ldr	r3, [r7, #4]
 1475 0010 9B68     		ldr	r3, [r3, #8]
 1476              		.loc 7 495 10
 1477 0012 002B     		cmp	r3, #0
 1478 0014 1FD0     		beq	.L61
 1479              		.loc 7 497 8
 1480 0016 7B68     		ldr	r3, [r7, #4]
 1481 0018 9B68     		ldr	r3, [r3, #8]
 1482              		.loc 7 497 19
ARM GAS  C:\Users\DEVELO~1\AppData\Local\Temp\ccJs2sHK.s 			page 27


 1483 001a 5A1E     		subs	r2, r3, #1
 1484 001c 7B68     		ldr	r3, [r7, #4]
 1485 001e 9A60     		str	r2, [r3, #8]
 1486              		.loc 7 498 9
 1487 0020 7B68     		ldr	r3, [r7, #4]
 1488 0022 5B69     		ldr	r3, [r3, #20]
 1489              		.loc 7 498 18
 1490 0024 591C     		adds	r1, r3, #1
 1491 0026 7A68     		ldr	r2, [r7, #4]
 1492 0028 5161     		str	r1, [r2, #20]
 1493              		.loc 7 498 21
 1494 002a FA78     		ldrb	r2, [r7, #3]
 1495 002c 1A70     		strb	r2, [r3]
 1496              		.loc 7 499 12
 1497 002e 7B68     		ldr	r3, [r7, #4]
 1498 0030 5A69     		ldr	r2, [r3, #20]
 1499              		.loc 7 499 28
 1500 0032 7B68     		ldr	r3, [r7, #4]
 1501 0034 1B69     		ldr	r3, [r3, #16]
 1502              		.loc 7 499 8
 1503 0036 9A42     		cmp	r2, r3
 1504 0038 03D3     		bcc	.L57
 1505              		.loc 7 500 25
 1506 003a 7B68     		ldr	r3, [r7, #4]
 1507 003c DA68     		ldr	r2, [r3, #12]
 1508              		.loc 7 500 20
 1509 003e 7B68     		ldr	r3, [r7, #4]
 1510 0040 5A61     		str	r2, [r3, #20]
 1511              	.L57:
 1512              		.loc 7 504 12
 1513 0042 7B68     		ldr	r3, [r7, #4]
 1514 0044 DB69     		ldr	r3, [r3, #28]
 1515              		.loc 7 504 8
 1516 0046 002B     		cmp	r3, #0
 1517 0048 03D0     		beq	.L58
 1518              		.loc 7 505 10
 1519 004a 7B68     		ldr	r3, [r7, #4]
 1520 004c DB69     		ldr	r3, [r3, #28]
 1521              		.loc 7 505 7
 1522 004e 7868     		ldr	r0, [r7, #4]
 1523 0050 9847     		blx	r3
 1524              	.LVL4:
 1525              	.L58:
 1526              		.loc 7 508 12
 1527 0052 0023     		movs	r3, #0
 1528 0054 01E0     		b	.L59
 1529              	.L61:
 1530              		.loc 7 511 10
 1531 0056 4FF0FF33 		mov	r3, #-1
 1532              	.L59:
 1533              		.loc 7 512 1
 1534 005a 1846     		mov	r0, r3
 1535 005c 0837     		adds	r7, r7, #8
 1536              		.cfi_def_cfa_offset 8
 1537 005e BD46     		mov	sp, r7
 1538              		.cfi_def_cfa_register 13
 1539              		@ sp needed
ARM GAS  C:\Users\DEVELO~1\AppData\Local\Temp\ccJs2sHK.s 			page 28


 1540 0060 80BD     		pop	{r7, pc}
 1541              		.cfi_endproc
 1542              	.LFE443:
 1543              		.size	oqPutI, .-oqPutI
 1544              		.section	.text.oqPutTimeout,"ax",%progbits
 1545              		.align	1
 1546              		.global	oqPutTimeout
 1547              		.syntax unified
 1548              		.thumb
 1549              		.thumb_func
 1550              		.type	oqPutTimeout, %function
 1551              	oqPutTimeout:
 1552              	.LFB444:
 1553              		.loc 7 535 75
 1554              		.cfi_startproc
 1555              		@ args = 0, pretend = 0, frame = 24
 1556              		@ frame_needed = 1, uses_anonymous_args = 0
 1557 0000 80B5     		push	{r7, lr}
 1558              		.cfi_def_cfa_offset 8
 1559              		.cfi_offset 7, -8
 1560              		.cfi_offset 14, -4
 1561 0002 86B0     		sub	sp, sp, #24
 1562              		.cfi_def_cfa_offset 32
 1563 0004 00AF     		add	r7, sp, #0
 1564              		.cfi_def_cfa_register 7
 1565 0006 F860     		str	r0, [r7, #12]
 1566 0008 0B46     		mov	r3, r1
 1567 000a 7A60     		str	r2, [r7, #4]
 1568 000c FB72     		strb	r3, [r7, #11]
 1569              		.loc 7 537 3
 1570 000e FFF7FEFF 		bl	osalSysLock
 1571              		.loc 7 540 9
 1572 0012 0CE0     		b	.L63
 1573              	.L65:
 1574              	.LBB26:
 1575              		.loc 7 541 17
 1576 0014 FB68     		ldr	r3, [r7, #12]
 1577 0016 7968     		ldr	r1, [r7, #4]
 1578 0018 1846     		mov	r0, r3
 1579 001a FFF7FEFF 		bl	osalThreadEnqueueTimeoutS
 1580 001e 7861     		str	r0, [r7, #20]
 1581              		.loc 7 542 8
 1582 0020 7B69     		ldr	r3, [r7, #20]
 1583 0022 002B     		cmp	r3, #0
 1584 0024 03DA     		bge	.L63
 1585              		.loc 7 543 7
 1586 0026 FFF7FEFF 		bl	osalSysUnlock
 1587              		.loc 7 544 14
 1588 002a 7B69     		ldr	r3, [r7, #20]
 1589 002c 24E0     		b	.L64
 1590              	.L63:
 1591              	.LBE26:
 1592              		.loc 7 540 10
 1593 002e FB68     		ldr	r3, [r7, #12]
 1594 0030 9B68     		ldr	r3, [r3, #8]
 1595 0032 002B     		cmp	r3, #0
 1596 0034 EED0     		beq	.L65
ARM GAS  C:\Users\DEVELO~1\AppData\Local\Temp\ccJs2sHK.s 			page 29


 1597              		.loc 7 549 6
 1598 0036 FB68     		ldr	r3, [r7, #12]
 1599 0038 9B68     		ldr	r3, [r3, #8]
 1600              		.loc 7 549 17
 1601 003a 5A1E     		subs	r2, r3, #1
 1602 003c FB68     		ldr	r3, [r7, #12]
 1603 003e 9A60     		str	r2, [r3, #8]
 1604              		.loc 7 550 7
 1605 0040 FB68     		ldr	r3, [r7, #12]
 1606 0042 5B69     		ldr	r3, [r3, #20]
 1607              		.loc 7 550 16
 1608 0044 591C     		adds	r1, r3, #1
 1609 0046 FA68     		ldr	r2, [r7, #12]
 1610 0048 5161     		str	r1, [r2, #20]
 1611              		.loc 7 550 19
 1612 004a FA7A     		ldrb	r2, [r7, #11]
 1613 004c 1A70     		strb	r2, [r3]
 1614              		.loc 7 551 10
 1615 004e FB68     		ldr	r3, [r7, #12]
 1616 0050 5A69     		ldr	r2, [r3, #20]
 1617              		.loc 7 551 26
 1618 0052 FB68     		ldr	r3, [r7, #12]
 1619 0054 1B69     		ldr	r3, [r3, #16]
 1620              		.loc 7 551 6
 1621 0056 9A42     		cmp	r2, r3
 1622 0058 03D3     		bcc	.L66
 1623              		.loc 7 552 23
 1624 005a FB68     		ldr	r3, [r7, #12]
 1625 005c DA68     		ldr	r2, [r3, #12]
 1626              		.loc 7 552 18
 1627 005e FB68     		ldr	r3, [r7, #12]
 1628 0060 5A61     		str	r2, [r3, #20]
 1629              	.L66:
 1630              		.loc 7 556 10
 1631 0062 FB68     		ldr	r3, [r7, #12]
 1632 0064 DB69     		ldr	r3, [r3, #28]
 1633              		.loc 7 556 6
 1634 0066 002B     		cmp	r3, #0
 1635 0068 03D0     		beq	.L67
 1636              		.loc 7 557 8
 1637 006a FB68     		ldr	r3, [r7, #12]
 1638 006c DB69     		ldr	r3, [r3, #28]
 1639              		.loc 7 557 5
 1640 006e F868     		ldr	r0, [r7, #12]
 1641 0070 9847     		blx	r3
 1642              	.LVL5:
 1643              	.L67:
 1644              		.loc 7 560 3
 1645 0072 FFF7FEFF 		bl	osalSysUnlock
 1646              		.loc 7 562 10
 1647 0076 0023     		movs	r3, #0
 1648              	.L64:
 1649              		.loc 7 563 1
 1650 0078 1846     		mov	r0, r3
 1651 007a 1837     		adds	r7, r7, #24
 1652              		.cfi_def_cfa_offset 8
 1653 007c BD46     		mov	sp, r7
ARM GAS  C:\Users\DEVELO~1\AppData\Local\Temp\ccJs2sHK.s 			page 30


 1654              		.cfi_def_cfa_register 13
 1655              		@ sp needed
 1656 007e 80BD     		pop	{r7, pc}
 1657              		.cfi_endproc
 1658              	.LFE444:
 1659              		.size	oqPutTimeout, .-oqPutTimeout
 1660              		.section	.text.oqGetI,"ax",%progbits
 1661              		.align	1
 1662              		.global	oqGetI
 1663              		.syntax unified
 1664              		.thumb
 1665              		.thumb_func
 1666              		.type	oqGetI, %function
 1667              	oqGetI:
 1668              	.LFB445:
 1669              		.loc 7 576 35
 1670              		.cfi_startproc
 1671              		@ args = 0, pretend = 0, frame = 16
 1672              		@ frame_needed = 1, uses_anonymous_args = 0
 1673 0000 80B5     		push	{r7, lr}
 1674              		.cfi_def_cfa_offset 8
 1675              		.cfi_offset 7, -8
 1676              		.cfi_offset 14, -4
 1677 0002 84B0     		sub	sp, sp, #16
 1678              		.cfi_def_cfa_offset 24
 1679 0004 00AF     		add	r7, sp, #0
 1680              		.cfi_def_cfa_register 7
 1681 0006 7860     		str	r0, [r7, #4]
 1682              		.loc 7 581 8
 1683 0008 7B68     		ldr	r3, [r7, #4]
 1684 000a 5A69     		ldr	r2, [r3, #20]
 1685 000c 7B68     		ldr	r3, [r7, #4]
 1686 000e 9B69     		ldr	r3, [r3, #24]
 1687 0010 9A42     		cmp	r2, r3
 1688 0012 05D1     		bne	.L69
 1689              		.loc 7 581 8 is_stmt 0 discriminator 1
 1690 0014 7B68     		ldr	r3, [r7, #4]
 1691 0016 9B68     		ldr	r3, [r3, #8]
 1692 0018 002B     		cmp	r3, #0
 1693 001a 01D0     		beq	.L69
 1694              		.loc 7 581 8 discriminator 3
 1695 001c 0123     		movs	r3, #1
 1696 001e 00E0     		b	.L70
 1697              	.L69:
 1698              		.loc 7 581 8 discriminator 4
 1699 0020 0023     		movs	r3, #0
 1700              	.L70:
 1701              		.loc 7 581 8 discriminator 6
 1702 0022 03F00103 		and	r3, r3, #1
 1703 0026 DBB2     		uxtb	r3, r3
 1704              		.loc 7 581 7 is_stmt 1 discriminator 6
 1705 0028 83F00103 		eor	r3, r3, #1
 1706 002c DBB2     		uxtb	r3, r3
 1707              		.loc 7 581 6 discriminator 6
 1708 002e 002B     		cmp	r3, #0
 1709 0030 1CD0     		beq	.L71
 1710              	.LBB27:
ARM GAS  C:\Users\DEVELO~1\AppData\Local\Temp\ccJs2sHK.s 			page 31


 1711              		.loc 7 584 8
 1712 0032 7B68     		ldr	r3, [r7, #4]
 1713 0034 9B68     		ldr	r3, [r3, #8]
 1714              		.loc 7 584 19
 1715 0036 5A1C     		adds	r2, r3, #1
 1716 0038 7B68     		ldr	r3, [r7, #4]
 1717 003a 9A60     		str	r2, [r3, #8]
 1718              		.loc 7 585 13
 1719 003c 7B68     		ldr	r3, [r7, #4]
 1720 003e 9B69     		ldr	r3, [r3, #24]
 1721              		.loc 7 585 22
 1722 0040 591C     		adds	r1, r3, #1
 1723 0042 7A68     		ldr	r2, [r7, #4]
 1724 0044 9161     		str	r1, [r2, #24]
 1725              		.loc 7 585 7
 1726 0046 1B78     		ldrb	r3, [r3]
 1727 0048 FB73     		strb	r3, [r7, #15]
 1728              		.loc 7 586 12
 1729 004a 7B68     		ldr	r3, [r7, #4]
 1730 004c 9A69     		ldr	r2, [r3, #24]
 1731              		.loc 7 586 28
 1732 004e 7B68     		ldr	r3, [r7, #4]
 1733 0050 1B69     		ldr	r3, [r3, #16]
 1734              		.loc 7 586 8
 1735 0052 9A42     		cmp	r2, r3
 1736 0054 03D3     		bcc	.L72
 1737              		.loc 7 587 25
 1738 0056 7B68     		ldr	r3, [r7, #4]
 1739 0058 DA68     		ldr	r2, [r3, #12]
 1740              		.loc 7 587 20
 1741 005a 7B68     		ldr	r3, [r7, #4]
 1742 005c 9A61     		str	r2, [r3, #24]
 1743              	.L72:
 1744              		.loc 7 590 5
 1745 005e 7B68     		ldr	r3, [r7, #4]
 1746 0060 0021     		movs	r1, #0
 1747 0062 1846     		mov	r0, r3
 1748 0064 FFF7FEFF 		bl	osalThreadDequeueNextI
 1749              		.loc 7 592 12
 1750 0068 FB7B     		ldrb	r3, [r7, #15]	@ zero_extendqisi2
 1751 006a 01E0     		b	.L73
 1752              	.L71:
 1753              	.LBE27:
 1754              		.loc 7 595 10
 1755 006c 4FF0FF33 		mov	r3, #-1
 1756              	.L73:
 1757              		.loc 7 596 1
 1758 0070 1846     		mov	r0, r3
 1759 0072 1037     		adds	r7, r7, #16
 1760              		.cfi_def_cfa_offset 8
 1761 0074 BD46     		mov	sp, r7
 1762              		.cfi_def_cfa_register 13
 1763              		@ sp needed
 1764 0076 80BD     		pop	{r7, pc}
 1765              		.cfi_endproc
 1766              	.LFE445:
 1767              		.size	oqGetI, .-oqGetI
ARM GAS  C:\Users\DEVELO~1\AppData\Local\Temp\ccJs2sHK.s 			page 32


 1768              		.section	.text.oqWriteI,"ax",%progbits
 1769              		.align	1
 1770              		.global	oqWriteI
 1771              		.syntax unified
 1772              		.thumb
 1773              		.thumb_func
 1774              		.type	oqWriteI, %function
 1775              	oqWriteI:
 1776              	.LFB446:
 1777              		.loc 7 611 67
 1778              		.cfi_startproc
 1779              		@ args = 0, pretend = 0, frame = 24
 1780              		@ frame_needed = 1, uses_anonymous_args = 0
 1781 0000 80B5     		push	{r7, lr}
 1782              		.cfi_def_cfa_offset 8
 1783              		.cfi_offset 7, -8
 1784              		.cfi_offset 14, -4
 1785 0002 86B0     		sub	sp, sp, #24
 1786              		.cfi_def_cfa_offset 32
 1787 0004 00AF     		add	r7, sp, #0
 1788              		.cfi_def_cfa_register 7
 1789 0006 F860     		str	r0, [r7, #12]
 1790 0008 B960     		str	r1, [r7, #8]
 1791 000a 7A60     		str	r2, [r7, #4]
 1792              		.loc 7 612 13
 1793 000c FB68     		ldr	r3, [r7, #12]
 1794 000e DB69     		ldr	r3, [r3, #28]
 1795 0010 7B61     		str	r3, [r7, #20]
 1796              		.loc 7 617 8
 1797 0012 7A68     		ldr	r2, [r7, #4]
 1798 0014 B968     		ldr	r1, [r7, #8]
 1799 0016 F868     		ldr	r0, [r7, #12]
 1800 0018 FFF7FEFF 		bl	oq_write
 1801 001c 3861     		str	r0, [r7, #16]
 1802              		.loc 7 621 6
 1803 001e 3B69     		ldr	r3, [r7, #16]
 1804 0020 002B     		cmp	r3, #0
 1805 0022 05D0     		beq	.L75
 1806              		.loc 7 621 24 discriminator 1
 1807 0024 7B69     		ldr	r3, [r7, #20]
 1808 0026 002B     		cmp	r3, #0
 1809 0028 02D0     		beq	.L75
 1810              		.loc 7 622 5
 1811 002a 7B69     		ldr	r3, [r7, #20]
 1812 002c F868     		ldr	r0, [r7, #12]
 1813 002e 9847     		blx	r3
 1814              	.LVL6:
 1815              	.L75:
 1816              		.loc 7 625 10
 1817 0030 3B69     		ldr	r3, [r7, #16]
 1818              		.loc 7 626 1
 1819 0032 1846     		mov	r0, r3
 1820 0034 1837     		adds	r7, r7, #24
 1821              		.cfi_def_cfa_offset 8
 1822 0036 BD46     		mov	sp, r7
 1823              		.cfi_def_cfa_register 13
 1824              		@ sp needed
ARM GAS  C:\Users\DEVELO~1\AppData\Local\Temp\ccJs2sHK.s 			page 33


 1825 0038 80BD     		pop	{r7, pc}
 1826              		.cfi_endproc
 1827              	.LFE446:
 1828              		.size	oqWriteI, .-oqWriteI
 1829              		.section	.text.oqWriteTimeout,"ax",%progbits
 1830              		.align	1
 1831              		.global	oqWriteTimeout
 1832              		.syntax unified
 1833              		.thumb
 1834              		.thumb_func
 1835              		.type	oqWriteTimeout, %function
 1836              	oqWriteTimeout:
 1837              	.LFB447:
 1838              		.loc 7 652 56
 1839              		.cfi_startproc
 1840              		@ args = 0, pretend = 0, frame = 32
 1841              		@ frame_needed = 1, uses_anonymous_args = 0
 1842 0000 80B5     		push	{r7, lr}
 1843              		.cfi_def_cfa_offset 8
 1844              		.cfi_offset 7, -8
 1845              		.cfi_offset 14, -4
 1846 0002 88B0     		sub	sp, sp, #32
 1847              		.cfi_def_cfa_offset 40
 1848 0004 00AF     		add	r7, sp, #0
 1849              		.cfi_def_cfa_register 7
 1850 0006 F860     		str	r0, [r7, #12]
 1851 0008 B960     		str	r1, [r7, #8]
 1852 000a 7A60     		str	r2, [r7, #4]
 1853 000c 3B60     		str	r3, [r7]
 1854              		.loc 7 653 13
 1855 000e FB68     		ldr	r3, [r7, #12]
 1856 0010 DB69     		ldr	r3, [r3, #28]
 1857 0012 FB61     		str	r3, [r7, #28]
 1858              		.loc 7 654 10
 1859 0014 7B68     		ldr	r3, [r7, #4]
 1860 0016 BB61     		str	r3, [r7, #24]
 1861              		.loc 7 658 3
 1862 0018 FFF7FEFF 		bl	osalSysLock
 1863              		.loc 7 660 9
 1864 001c 24E0     		b	.L78
 1865              	.L82:
 1866              	.LBB28:
 1867              		.loc 7 663 12
 1868 001e 7A68     		ldr	r2, [r7, #4]
 1869 0020 B968     		ldr	r1, [r7, #8]
 1870 0022 F868     		ldr	r0, [r7, #12]
 1871 0024 FFF7FEFF 		bl	oq_write
 1872 0028 7861     		str	r0, [r7, #20]
 1873              		.loc 7 664 8
 1874 002a 7B69     		ldr	r3, [r7, #20]
 1875 002c 002B     		cmp	r3, #0
 1876 002e 09D1     		bne	.L79
 1877              	.LBB29:
 1878              		.loc 7 665 19
 1879 0030 FB68     		ldr	r3, [r7, #12]
 1880 0032 3968     		ldr	r1, [r7]
 1881 0034 1846     		mov	r0, r3
ARM GAS  C:\Users\DEVELO~1\AppData\Local\Temp\ccJs2sHK.s 			page 34


 1882 0036 FFF7FEFF 		bl	osalThreadEnqueueTimeoutS
 1883 003a 3861     		str	r0, [r7, #16]
 1884              		.loc 7 668 10
 1885 003c 3B69     		ldr	r3, [r7, #16]
 1886 003e 002B     		cmp	r3, #0
 1887 0040 12D0     		beq	.L78
 1888              		.loc 7 669 9
 1889 0042 14E0     		b	.L80
 1890              	.L79:
 1891              	.LBE29:
 1892              		.loc 7 675 10
 1893 0044 FB69     		ldr	r3, [r7, #28]
 1894 0046 002B     		cmp	r3, #0
 1895 0048 02D0     		beq	.L81
 1896              		.loc 7 676 9
 1897 004a FB69     		ldr	r3, [r7, #28]
 1898 004c F868     		ldr	r0, [r7, #12]
 1899 004e 9847     		blx	r3
 1900              	.LVL7:
 1901              	.L81:
 1902              		.loc 7 680 7
 1903 0050 FFF7FEFF 		bl	osalSysUnlock
 1904              		.loc 7 682 10
 1905 0054 7A68     		ldr	r2, [r7, #4]
 1906 0056 7B69     		ldr	r3, [r7, #20]
 1907 0058 D31A     		subs	r3, r2, r3
 1908 005a 7B60     		str	r3, [r7, #4]
 1909              		.loc 7 683 10
 1910 005c BA68     		ldr	r2, [r7, #8]
 1911 005e 7B69     		ldr	r3, [r7, #20]
 1912 0060 1344     		add	r3, r3, r2
 1913 0062 BB60     		str	r3, [r7, #8]
 1914              		.loc 7 685 7
 1915 0064 FFF7FEFF 		bl	osalSysLock
 1916              	.L78:
 1917              	.LBE28:
 1918              		.loc 7 660 12
 1919 0068 7B68     		ldr	r3, [r7, #4]
 1920 006a 002B     		cmp	r3, #0
 1921 006c D7D1     		bne	.L82
 1922              	.L80:
 1923              		.loc 7 689 3
 1924 006e FFF7FEFF 		bl	osalSysUnlock
 1925              		.loc 7 690 14
 1926 0072 BA69     		ldr	r2, [r7, #24]
 1927 0074 7B68     		ldr	r3, [r7, #4]
 1928 0076 D31A     		subs	r3, r2, r3
 1929              		.loc 7 691 1
 1930 0078 1846     		mov	r0, r3
 1931 007a 2037     		adds	r7, r7, #32
 1932              		.cfi_def_cfa_offset 8
 1933 007c BD46     		mov	sp, r7
 1934              		.cfi_def_cfa_register 13
 1935              		@ sp needed
 1936 007e 80BD     		pop	{r7, pc}
 1937              		.cfi_endproc
 1938              	.LFE447:
ARM GAS  C:\Users\DEVELO~1\AppData\Local\Temp\ccJs2sHK.s 			page 35


 1939              		.size	oqWriteTimeout, .-oqWriteTimeout
 1940              		.text
 1941              	.Letext0:
 1942              		.file 8 "c:\\chibistudio\\tools\\gnu tools arm embedded\\11.3 2022.08\\lib\\gcc\\arm-none-eabi\\11
 1943              		.file 9 "c:\\chibistudio\\tools\\gnu tools arm embedded\\11.3 2022.08\\arm-none-eabi\\include\\mac
 1944              		.file 10 "c:\\chibistudio\\tools\\gnu tools arm embedded\\11.3 2022.08\\arm-none-eabi\\include\\sy
 1945              		.file 11 "../../../os/rt/include/chearly.h"
 1946              		.file 12 "../../../os/rt/include/chtime.h"
 1947              		.file 13 "../../../os/rt/include/chobjects.h"
 1948              		.file 14 "../../../os/hal/include/hal_queues.h"
 1949              		.file 15 "c:\\chibistudio\\tools\\gnu tools arm embedded\\11.3 2022.08\\arm-none-eabi\\include\\st