ARM GAS  C:\Users\DEVELO~1\AppData\Local\Temp\ccuIUkPb.s 			page 1


   1              		.cpu cortex-m7
   2              		.arch armv7e-m
   3              		.fpu softvfp
   4              		.eabi_attribute 20, 1
   5              		.eabi_attribute 21, 1
   6              		.eabi_attribute 23, 3
   7              		.eabi_attribute 24, 1
   8              		.eabi_attribute 25, 1
   9              		.eabi_attribute 26, 1
  10              		.eabi_attribute 30, 6
  11              		.eabi_attribute 34, 1
  12              		.eabi_attribute 18, 4
  13              		.file	"hal_fsmc.c"
  14              		.text
  15              	.Ltext0:
  16              		.cfi_sections	.debug_frame
  17              		.section	.text.__rccResetAHB3,"ax",%progbits
  18              		.align	1
  19              		.syntax unified
  20              		.thumb
  21              		.thumb_func
  22              		.type	__rccResetAHB3, %function
  23              	__rccResetAHB3:
  24              	.LFB386:
  25              		.file 1 "../../../os/hal/ports/STM32/STM32H7xx/stm32_rcc.h"
  26              		.loc 1 113 52
  27              		.cfi_startproc
  28              		@ args = 0, pretend = 0, frame = 8
  29              		@ frame_needed = 1, uses_anonymous_args = 0
  30              		@ link register save eliminated.
  31 0000 80B4     		push	{r7}
  32              		.cfi_def_cfa_offset 4
  33              		.cfi_offset 7, -4
  34 0002 83B0     		sub	sp, sp, #12
  35              		.cfi_def_cfa_offset 16
  36 0004 00AF     		add	r7, sp, #0
  37              		.cfi_def_cfa_register 7
  38 0006 7860     		str	r0, [r7, #4]
  39              		.loc 1 116 17
  40 0008 094B     		ldr	r3, .L2
  41 000a DA6F     		ldr	r2, [r3, #124]
  42 000c 0849     		ldr	r1, .L2
  43 000e 7B68     		ldr	r3, [r7, #4]
  44 0010 1343     		orrs	r3, r3, r2
  45 0012 CB67     		str	r3, [r1, #124]
  46              		.loc 1 117 17
  47 0014 064B     		ldr	r3, .L2
  48 0016 DA6F     		ldr	r2, [r3, #124]
  49              		.loc 1 117 20
  50 0018 7B68     		ldr	r3, [r7, #4]
  51 001a DB43     		mvns	r3, r3
  52              		.loc 1 117 17
  53 001c 0449     		ldr	r1, .L2
  54 001e 1340     		ands	r3, r3, r2
  55 0020 CB67     		str	r3, [r1, #124]
  56              		.loc 1 118 12
  57 0022 034B     		ldr	r3, .L2
ARM GAS  C:\Users\DEVELO~1\AppData\Local\Temp\ccuIUkPb.s 			page 2


  58              		.loc 1 118 3
  59 0024 DB6F     		ldr	r3, [r3, #124]
  60              		.loc 1 119 1
  61 0026 00BF     		nop
  62 0028 0C37     		adds	r7, r7, #12
  63              		.cfi_def_cfa_offset 4
  64 002a BD46     		mov	sp, r7
  65              		.cfi_def_cfa_register 13
  66              		@ sp needed
  67 002c 80BC     		pop	{r7}
  68              		.cfi_restore 7
  69              		.cfi_def_cfa_offset 0
  70 002e 7047     		bx	lr
  71              	.L3:
  72              		.align	2
  73              	.L2:
  74 0030 00440258 		.word	1476543488
  75              		.cfi_endproc
  76              	.LFE386:
  77              		.size	__rccResetAHB3, .-__rccResetAHB3
  78              		.section	.text.rccEnableAHB3,"ax",%progbits
  79              		.align	1
  80              		.syntax unified
  81              		.thumb
  82              		.thumb_func
  83              		.type	rccEnableAHB3, %function
  84              	rccEnableAHB3:
  85              	.LFB409:
  86              		.loc 1 764 60
  87              		.cfi_startproc
  88              		@ args = 0, pretend = 0, frame = 8
  89              		@ frame_needed = 1, uses_anonymous_args = 0
  90              		@ link register save eliminated.
  91 0000 80B4     		push	{r7}
  92              		.cfi_def_cfa_offset 4
  93              		.cfi_offset 7, -4
  94 0002 83B0     		sub	sp, sp, #12
  95              		.cfi_def_cfa_offset 16
  96 0004 00AF     		add	r7, sp, #0
  97              		.cfi_def_cfa_register 7
  98 0006 7860     		str	r0, [r7, #4]
  99 0008 0B46     		mov	r3, r1
 100 000a FB70     		strb	r3, [r7, #3]
 101              		.loc 1 768 19
 102 000c 124B     		ldr	r3, .L7
 103 000e D3F8D420 		ldr	r2, [r3, #212]
 104 0012 1149     		ldr	r1, .L7
 105 0014 7B68     		ldr	r3, [r7, #4]
 106 0016 1343     		orrs	r3, r3, r2
 107 0018 C1F8D430 		str	r3, [r1, #212]
 108              		.loc 1 769 6
 109 001c FB78     		ldrb	r3, [r7, #3]	@ zero_extendqisi2
 110 001e 002B     		cmp	r3, #0
 111 0020 08D0     		beq	.L5
 112              		.loc 1 770 23
 113 0022 0D4B     		ldr	r3, .L7
 114 0024 D3F8FC20 		ldr	r2, [r3, #252]
ARM GAS  C:\Users\DEVELO~1\AppData\Local\Temp\ccuIUkPb.s 			page 3


 115 0028 0B49     		ldr	r1, .L7
 116 002a 7B68     		ldr	r3, [r7, #4]
 117 002c 1343     		orrs	r3, r3, r2
 118 002e C1F8FC30 		str	r3, [r1, #252]
 119 0032 08E0     		b	.L6
 120              	.L5:
 121              		.loc 1 773 23
 122 0034 084B     		ldr	r3, .L7
 123 0036 D3F8FC20 		ldr	r2, [r3, #252]
 124              		.loc 1 773 26
 125 003a 7B68     		ldr	r3, [r7, #4]
 126 003c DB43     		mvns	r3, r3
 127              		.loc 1 773 23
 128 003e 0649     		ldr	r1, .L7
 129 0040 1340     		ands	r3, r3, r2
 130 0042 C1F8FC30 		str	r3, [r1, #252]
 131              	.L6:
 132              		.loc 1 775 15
 133 0046 044B     		ldr	r3, .L7
 134              		.loc 1 775 3
 135 0048 D3F8FC30 		ldr	r3, [r3, #252]
 136              		.loc 1 787 1
 137 004c 00BF     		nop
 138 004e 0C37     		adds	r7, r7, #12
 139              		.cfi_def_cfa_offset 4
 140 0050 BD46     		mov	sp, r7
 141              		.cfi_def_cfa_register 13
 142              		@ sp needed
 143 0052 80BC     		pop	{r7}
 144              		.cfi_restore 7
 145              		.cfi_def_cfa_offset 0
 146 0054 7047     		bx	lr
 147              	.L8:
 148 0056 00BF     		.align	2
 149              	.L7:
 150 0058 00440258 		.word	1476543488
 151              		.cfi_endproc
 152              	.LFE409:
 153              		.size	rccEnableAHB3, .-rccEnableAHB3
 154              		.section	.text.rccDisableAHB3,"ax",%progbits
 155              		.align	1
 156              		.syntax unified
 157              		.thumb
 158              		.thumb_func
 159              		.type	rccDisableAHB3, %function
 160              	rccDisableAHB3:
 161              	.LFB410:
 162              		.loc 1 796 52
 163              		.cfi_startproc
 164              		@ args = 0, pretend = 0, frame = 8
 165              		@ frame_needed = 1, uses_anonymous_args = 0
 166              		@ link register save eliminated.
 167 0000 80B4     		push	{r7}
 168              		.cfi_def_cfa_offset 4
 169              		.cfi_offset 7, -4
 170 0002 83B0     		sub	sp, sp, #12
 171              		.cfi_def_cfa_offset 16
ARM GAS  C:\Users\DEVELO~1\AppData\Local\Temp\ccuIUkPb.s 			page 4


 172 0004 00AF     		add	r7, sp, #0
 173              		.cfi_def_cfa_register 7
 174 0006 7860     		str	r0, [r7, #4]
 175              		.loc 1 806 19
 176 0008 0C4B     		ldr	r3, .L10
 177 000a D3F8D420 		ldr	r2, [r3, #212]
 178              		.loc 1 806 22
 179 000e 7B68     		ldr	r3, [r7, #4]
 180 0010 DB43     		mvns	r3, r3
 181              		.loc 1 806 19
 182 0012 0A49     		ldr	r1, .L10
 183 0014 1340     		ands	r3, r3, r2
 184 0016 C1F8D430 		str	r3, [r1, #212]
 185              		.loc 1 807 21
 186 001a 084B     		ldr	r3, .L10
 187 001c D3F8FC20 		ldr	r2, [r3, #252]
 188              		.loc 1 807 24
 189 0020 7B68     		ldr	r3, [r7, #4]
 190 0022 DB43     		mvns	r3, r3
 191              		.loc 1 807 21
 192 0024 0549     		ldr	r1, .L10
 193 0026 1340     		ands	r3, r3, r2
 194 0028 C1F8FC30 		str	r3, [r1, #252]
 195              		.loc 1 808 15
 196 002c 034B     		ldr	r3, .L10
 197              		.loc 1 808 3
 198 002e D3F8FC30 		ldr	r3, [r3, #252]
 199              		.loc 1 821 1
 200 0032 00BF     		nop
 201 0034 0C37     		adds	r7, r7, #12
 202              		.cfi_def_cfa_offset 4
 203 0036 BD46     		mov	sp, r7
 204              		.cfi_def_cfa_register 13
 205              		@ sp needed
 206 0038 80BC     		pop	{r7}
 207              		.cfi_restore 7
 208              		.cfi_def_cfa_offset 0
 209 003a 7047     		bx	lr
 210              	.L11:
 211              		.align	2
 212              	.L10:
 213 003c 00440258 		.word	1476543488
 214              		.cfi_endproc
 215              	.LFE410:
 216              		.size	rccDisableAHB3, .-rccDisableAHB3
 217              		.section	.text.rccResetAHB3,"ax",%progbits
 218              		.align	1
 219              		.syntax unified
 220              		.thumb
 221              		.thumb_func
 222              		.type	rccResetAHB3, %function
 223              	rccResetAHB3:
 224              	.LFB411:
 225              		.loc 1 830 50
 226              		.cfi_startproc
 227              		@ args = 0, pretend = 0, frame = 8
 228              		@ frame_needed = 1, uses_anonymous_args = 0
ARM GAS  C:\Users\DEVELO~1\AppData\Local\Temp\ccuIUkPb.s 			page 5


 229 0000 80B5     		push	{r7, lr}
 230              		.cfi_def_cfa_offset 8
 231              		.cfi_offset 7, -8
 232              		.cfi_offset 14, -4
 233 0002 82B0     		sub	sp, sp, #8
 234              		.cfi_def_cfa_offset 16
 235 0004 00AF     		add	r7, sp, #0
 236              		.cfi_def_cfa_register 7
 237 0006 7860     		str	r0, [r7, #4]
 238              		.loc 1 842 3
 239 0008 7868     		ldr	r0, [r7, #4]
 240 000a FFF7FEFF 		bl	__rccResetAHB3
 241              		.loc 1 843 1
 242 000e 00BF     		nop
 243 0010 0837     		adds	r7, r7, #8
 244              		.cfi_def_cfa_offset 8
 245 0012 BD46     		mov	sp, r7
 246              		.cfi_def_cfa_register 13
 247              		@ sp needed
 248 0014 80BD     		pop	{r7, pc}
 249              		.cfi_endproc
 250              	.LFE411:
 251              		.size	rccResetAHB3, .-rccResetAHB3
 252              		.global	FSMCD1
 253              		.section	.bss.FSMCD1,"aw",%nobits
 254              		.align	2
 255              		.type	FSMCD1, %object
 256              		.size	FSMCD1, 8
 257              	FSMCD1:
 258 0000 00000000 		.space	8
 258      00000000 
 259              		.section	.text.fsmcInit,"ax",%progbits
 260              		.align	1
 261              		.global	fsmcInit
 262              		.syntax unified
 263              		.thumb
 264              		.thumb_func
 265              		.type	fsmcInit, %function
 266              	fsmcInit:
 267              	.LFB432:
 268              		.file 2 "../../../ChibiOS-Contrib-chibios-21.11.x/os/hal/src/hal_fsmc.c"
 269              		.loc 2 70 21
 270              		.cfi_startproc
 271              		@ args = 0, pretend = 0, frame = 0
 272              		@ frame_needed = 1, uses_anonymous_args = 0
 273              		@ link register save eliminated.
 274 0000 80B4     		push	{r7}
 275              		.cfi_def_cfa_offset 4
 276              		.cfi_offset 7, -4
 277 0002 00AF     		add	r7, sp, #0
 278              		.cfi_def_cfa_register 7
 279              		.loc 2 72 13
 280 0004 064B     		ldr	r3, .L16
 281 0006 1B78     		ldrb	r3, [r3]	@ zero_extendqisi2
 282              		.loc 2 72 6
 283 0008 002B     		cmp	r3, #0
 284 000a 05D1     		bne	.L15
ARM GAS  C:\Users\DEVELO~1\AppData\Local\Temp\ccuIUkPb.s 			page 6


 285              		.loc 2 73 19
 286 000c 044B     		ldr	r3, .L16
 287 000e 0122     		movs	r2, #1
 288 0010 1A70     		strb	r2, [r3]
 289              		.loc 2 110 18
 290 0012 034B     		ldr	r3, .L16
 291 0014 034A     		ldr	r2, .L16+4
 292 0016 5A60     		str	r2, [r3, #4]
 293              	.L15:
 294              		.loc 2 115 1
 295 0018 00BF     		nop
 296 001a BD46     		mov	sp, r7
 297              		.cfi_def_cfa_register 13
 298              		@ sp needed
 299 001c 80BC     		pop	{r7}
 300              		.cfi_restore 7
 301              		.cfi_def_cfa_offset 0
 302 001e 7047     		bx	lr
 303              	.L17:
 304              		.align	2
 305              	.L16:
 306 0020 00000000 		.word	FSMCD1
 307 0024 40410052 		.word	1375748416
 308              		.cfi_endproc
 309              	.LFE432:
 310              		.size	fsmcInit, .-fsmcInit
 311              		.section	.text.fsmcStart,"ax",%progbits
 312              		.align	1
 313              		.global	fsmcStart
 314              		.syntax unified
 315              		.thumb
 316              		.thumb_func
 317              		.type	fsmcStart, %function
 318              	fsmcStart:
 319              	.LFB433:
 320              		.loc 2 124 35
 321              		.cfi_startproc
 322              		@ args = 0, pretend = 0, frame = 8
 323              		@ frame_needed = 1, uses_anonymous_args = 0
 324 0000 80B5     		push	{r7, lr}
 325              		.cfi_def_cfa_offset 8
 326              		.cfi_offset 7, -8
 327              		.cfi_offset 14, -4
 328 0002 82B0     		sub	sp, sp, #8
 329              		.cfi_def_cfa_offset 16
 330 0004 00AF     		add	r7, sp, #0
 331              		.cfi_def_cfa_register 7
 332 0006 7860     		str	r0, [r7, #4]
 333              		.loc 2 129 12
 334 0008 7B68     		ldr	r3, [r7, #4]
 335 000a 1B78     		ldrb	r3, [r3]	@ zero_extendqisi2
 336              		.loc 2 129 6
 337 000c 012B     		cmp	r3, #1
 338 000e 0FD1     		bne	.L21
 339              		.loc 2 132 8
 340 0010 7B68     		ldr	r3, [r7, #4]
 341 0012 094A     		ldr	r2, .L22
ARM GAS  C:\Users\DEVELO~1\AppData\Local\Temp\ccuIUkPb.s 			page 7


 342 0014 9342     		cmp	r3, r2
 343 0016 08D1     		bne	.L20
 344              		.loc 2 134 7
 345 0018 4FF48050 		mov	r0, #4096
 346 001c FFF7FEFF 		bl	rccResetAHB3
 347              		.loc 2 136 7
 348 0020 0021     		movs	r1, #0
 349 0022 4FF48050 		mov	r0, #4096
 350 0026 FFF7FEFF 		bl	rccEnableAHB3
 351              	.L20:
 352              		.loc 2 143 18
 353 002a 7B68     		ldr	r3, [r7, #4]
 354 002c 0222     		movs	r2, #2
 355 002e 1A70     		strb	r2, [r3]
 356              	.L21:
 357              		.loc 2 145 1
 358 0030 00BF     		nop
 359 0032 0837     		adds	r7, r7, #8
 360              		.cfi_def_cfa_offset 8
 361 0034 BD46     		mov	sp, r7
 362              		.cfi_def_cfa_register 13
 363              		@ sp needed
 364 0036 80BD     		pop	{r7, pc}
 365              	.L23:
 366              		.align	2
 367              	.L22:
 368 0038 00000000 		.word	FSMCD1
 369              		.cfi_endproc
 370              	.LFE433:
 371              		.size	fsmcStart, .-fsmcStart
 372              		.section	.text.fsmcStop,"ax",%progbits
 373              		.align	1
 374              		.global	fsmcStop
 375              		.syntax unified
 376              		.thumb
 377              		.thumb_func
 378              		.type	fsmcStop, %function
 379              	fsmcStop:
 380              	.LFB434:
 381              		.loc 2 154 34
 382              		.cfi_startproc
 383              		@ args = 0, pretend = 0, frame = 8
 384              		@ frame_needed = 1, uses_anonymous_args = 0
 385 0000 80B5     		push	{r7, lr}
 386              		.cfi_def_cfa_offset 8
 387              		.cfi_offset 7, -8
 388              		.cfi_offset 14, -4
 389 0002 82B0     		sub	sp, sp, #8
 390              		.cfi_def_cfa_offset 16
 391 0004 00AF     		add	r7, sp, #0
 392              		.cfi_def_cfa_register 7
 393 0006 7860     		str	r0, [r7, #4]
 394              		.loc 2 156 12
 395 0008 7B68     		ldr	r3, [r7, #4]
 396 000a 1B78     		ldrb	r3, [r3]	@ zero_extendqisi2
 397              		.loc 2 156 6
 398 000c 022B     		cmp	r3, #2
ARM GAS  C:\Users\DEVELO~1\AppData\Local\Temp\ccuIUkPb.s 			page 8


 399 000e 0ED1     		bne	.L27
 400              		.loc 2 159 5
 401 0010 4FF48050 		mov	r0, #4096
 402 0014 FFF7FEFF 		bl	rccResetAHB3
 403              		.loc 2 164 8
 404 0018 7B68     		ldr	r3, [r7, #4]
 405 001a 074A     		ldr	r2, .L28
 406 001c 9342     		cmp	r3, r2
 407 001e 03D1     		bne	.L26
 408              		.loc 2 168 7
 409 0020 4FF48050 		mov	r0, #4096
 410 0024 FFF7FEFF 		bl	rccDisableAHB3
 411              	.L26:
 412              		.loc 2 172 18
 413 0028 7B68     		ldr	r3, [r7, #4]
 414 002a 0122     		movs	r2, #1
 415 002c 1A70     		strb	r2, [r3]
 416              	.L27:
 417              		.loc 2 174 1
 418 002e 00BF     		nop
 419 0030 0837     		adds	r7, r7, #8
 420              		.cfi_def_cfa_offset 8
 421 0032 BD46     		mov	sp, r7
 422              		.cfi_def_cfa_register 13
 423              		@ sp needed
 424 0034 80BD     		pop	{r7, pc}
 425              	.L29:
 426 0036 00BF     		.align	2
 427              	.L28:
 428 0038 00000000 		.word	FSMCD1
 429              		.cfi_endproc
 430              	.LFE434:
 431              		.size	fsmcStop, .-fsmcStop
 432              		.section	.text.Vector100,"ax",%progbits
 433              		.align	1
 434              		.global	Vector100
 435              		.syntax unified
 436              		.thumb
 437              		.thumb_func
 438              		.type	Vector100, %function
 439              	Vector100:
 440              	.LFB435:
 441              		.loc 2 181 36
 442              		.cfi_startproc
 443              		@ args = 0, pretend = 0, frame = 0
 444              		@ frame_needed = 1, uses_anonymous_args = 0
 445 0000 80B5     		push	{r7, lr}
 446              		.cfi_def_cfa_offset 8
 447              		.cfi_offset 7, -8
 448              		.cfi_offset 14, -4
 449 0002 00AF     		add	r7, sp, #0
 450              		.cfi_def_cfa_register 7
 451              		.loc 2 183 3
 452 0004 0448     		ldr	r0, .L31
 453 0006 FFF7FEFF 		bl	__trace_isr_enter
 454              		.loc 2 196 3
 455 000a 0348     		ldr	r0, .L31
ARM GAS  C:\Users\DEVELO~1\AppData\Local\Temp\ccuIUkPb.s 			page 9


 456 000c FFF7FEFF 		bl	__trace_isr_leave
 457 0010 FFF7FEFF 		bl	__port_irq_epilogue
 458              		.loc 2 197 1
 459 0014 00BF     		nop
 460 0016 80BD     		pop	{r7, pc}
 461              	.L32:
 462              		.align	2
 463              	.L31:
 464 0018 00000000 		.word	__func__.0
 465              		.cfi_endproc
 466              	.LFE435:
 467              		.size	Vector100, .-Vector100
 468              		.section	.rodata.__func__.0,"a"
 469              		.align	2
 470              		.type	__func__.0, %object
 471              		.size	__func__.0, 10
 472              	__func__.0:
 473 0000 56656374 		.ascii	"Vector100\000"
 473      6F723130 
 473      3000
 474              		.text
 475              	.Letext0:
 476              		.file 3 "c:\\chibistudio\\tools\\gnu tools arm embedded\\11.3 2022.08\\arm-none-eabi\\include\\mac
 477              		.file 4 "c:\\chibistudio\\tools\\gnu tools arm embedded\\11.3 2022.08\\arm-none-eabi\\include\\sys
 478              		.file 5 "../../../os/common/ext/ST/STM32H7xx/stm32h743xx.h"
 479              		.file 6 "../../../ChibiOS-Contrib-chibios-21.11.x/os/hal/include/hal_fsmc.h"
 480              		.file 7 "../../../os/rt/include/chtrace.h"
 481              		.file 8 "../../../os/common/ports/ARMv7-M/chcore.h"