ARM GAS  C:\Users\DEVELO~1\AppData\Local\Temp\ccPsZvP6.s 			page 1


   1              		.cpu cortex-m7
   2              		.arch armv7e-m
   3              		.fpu softvfp
   4              		.eabi_attribute 20, 1
   5              		.eabi_attribute 21, 1
   6              		.eabi_attribute 23, 3
   7              		.eabi_attribute 24, 1
   8              		.eabi_attribute 25, 1
   9              		.eabi_attribute 26, 1
  10              		.eabi_attribute 30, 6
  11              		.eabi_attribute 34, 1
  12              		.eabi_attribute 18, 4
  13              		.file	"hal_sai.c"
  14              		.text
  15              	.Ltext0:
  16              		.cfi_sections	.debug_frame
  17              		.section	.text.chSysLock,"ax",%progbits
  18              		.align	1
  19              		.syntax unified
  20              		.thumb
  21              		.thumb_func
  22              		.type	chSysLock, %function
  23              	chSysLock:
  24              	.LFB202:
  25              		.file 1 "../../../os/rt/include/chsys.h"
  26              		.loc 1 407 36
  27              		.cfi_startproc
  28              		@ args = 0, pretend = 0, frame = 8
  29              		@ frame_needed = 1, uses_anonymous_args = 0
  30              		@ link register save eliminated.
  31 0000 80B4     		push	{r7}
  32              		.cfi_def_cfa_offset 4
  33              		.cfi_offset 7, -4
  34 0002 83B0     		sub	sp, sp, #12
  35              		.cfi_def_cfa_offset 16
  36 0004 00AF     		add	r7, sp, #0
  37              		.cfi_def_cfa_register 7
  38 0006 3023     		movs	r3, #48
  39 0008 7B60     		str	r3, [r7, #4]
  40              	.LBB14:
  41              	.LBB15:
  42              	.LBB16:
  43              	.LBB17:
  44              		.file 2 "../../../os/common/ext/ARM/CMSIS/Core/Include/cmsis_gcc.h"
  45              		.loc 2 493 3
  46 000a 7B68     		ldr	r3, [r7, #4]
  47              		.syntax unified
  48              	@ 493 "../../../os/common/ext/ARM/CMSIS/Core/Include/cmsis_gcc.h" 1
  49 000c 83F31188 		MSR basepri, r3
  50              	@ 0 "" 2
  51              		.loc 2 494 1
  52              		.thumb
  53              		.syntax unified
  54 0010 00BF     		nop
  55              	.LBE17:
  56              	.LBE16:
  57              		.file 3 "../../../os/common/ports/ARMv7-M/chcore.h"
ARM GAS  C:\Users\DEVELO~1\AppData\Local\Temp\ccPsZvP6.s 			page 2


  58              		.loc 3 840 1
  59 0012 00BF     		nop
  60              	.LBE15:
  61              	.LBE14:
  62              		.loc 1 412 1
  63 0014 00BF     		nop
  64 0016 0C37     		adds	r7, r7, #12
  65              		.cfi_def_cfa_offset 4
  66 0018 BD46     		mov	sp, r7
  67              		.cfi_def_cfa_register 13
  68              		@ sp needed
  69 001a 80BC     		pop	{r7}
  70              		.cfi_restore 7
  71              		.cfi_def_cfa_offset 0
  72 001c 7047     		bx	lr
  73              		.cfi_endproc
  74              	.LFE202:
  75              		.size	chSysLock, .-chSysLock
  76              		.section	.text.chSysUnlock,"ax",%progbits
  77              		.align	1
  78              		.syntax unified
  79              		.thumb
  80              		.thumb_func
  81              		.type	chSysUnlock, %function
  82              	chSysUnlock:
  83              	.LFB203:
  84              		.loc 1 421 38
  85              		.cfi_startproc
  86              		@ args = 0, pretend = 0, frame = 8
  87              		@ frame_needed = 1, uses_anonymous_args = 0
  88              		@ link register save eliminated.
  89 0000 80B4     		push	{r7}
  90              		.cfi_def_cfa_offset 4
  91              		.cfi_offset 7, -4
  92 0002 83B0     		sub	sp, sp, #12
  93              		.cfi_def_cfa_offset 16
  94 0004 00AF     		add	r7, sp, #0
  95              		.cfi_def_cfa_register 7
  96 0006 0023     		movs	r3, #0
  97 0008 7B60     		str	r3, [r7, #4]
  98              	.LBB18:
  99              	.LBB19:
 100              	.LBB20:
 101              	.LBB21:
 102              		.loc 2 493 3
 103 000a 7B68     		ldr	r3, [r7, #4]
 104              		.syntax unified
 105              	@ 493 "../../../os/common/ext/ARM/CMSIS/Core/Include/cmsis_gcc.h" 1
 106 000c 83F31188 		MSR basepri, r3
 107              	@ 0 "" 2
 108              		.loc 2 494 1
 109              		.thumb
 110              		.syntax unified
 111 0010 00BF     		nop
 112              	.LBE21:
 113              	.LBE20:
 114              		.loc 3 854 1
ARM GAS  C:\Users\DEVELO~1\AppData\Local\Temp\ccPsZvP6.s 			page 3


 115 0012 00BF     		nop
 116              	.LBE19:
 117              	.LBE18:
 118              		.loc 1 435 1
 119 0014 00BF     		nop
 120 0016 0C37     		adds	r7, r7, #12
 121              		.cfi_def_cfa_offset 4
 122 0018 BD46     		mov	sp, r7
 123              		.cfi_def_cfa_register 13
 124              		@ sp needed
 125 001a 80BC     		pop	{r7}
 126              		.cfi_restore 7
 127              		.cfi_def_cfa_offset 0
 128 001c 7047     		bx	lr
 129              		.cfi_endproc
 130              	.LFE203:
 131              		.size	chSysUnlock, .-chSysUnlock
 132              		.section	.text.osalSysLock,"ax",%progbits
 133              		.align	1
 134              		.syntax unified
 135              		.thumb
 136              		.thumb_func
 137              		.type	osalSysLock, %function
 138              	osalSysLock:
 139              	.LFB350:
 140              		.file 4 "../../../os/hal/osal/rt-nil/osal.h"
 141              		.loc 4 573 38
 142              		.cfi_startproc
 143              		@ args = 0, pretend = 0, frame = 0
 144              		@ frame_needed = 1, uses_anonymous_args = 0
 145 0000 80B5     		push	{r7, lr}
 146              		.cfi_def_cfa_offset 8
 147              		.cfi_offset 7, -8
 148              		.cfi_offset 14, -4
 149 0002 00AF     		add	r7, sp, #0
 150              		.cfi_def_cfa_register 7
 151              		.loc 4 575 3
 152 0004 FFF7FEFF 		bl	chSysLock
 153              		.loc 4 576 1
 154 0008 00BF     		nop
 155 000a 80BD     		pop	{r7, pc}
 156              		.cfi_endproc
 157              	.LFE350:
 158              		.size	osalSysLock, .-osalSysLock
 159              		.section	.text.osalSysUnlock,"ax",%progbits
 160              		.align	1
 161              		.syntax unified
 162              		.thumb
 163              		.thumb_func
 164              		.type	osalSysUnlock, %function
 165              	osalSysUnlock:
 166              	.LFB351:
 167              		.loc 4 584 40
 168              		.cfi_startproc
 169              		@ args = 0, pretend = 0, frame = 0
 170              		@ frame_needed = 1, uses_anonymous_args = 0
 171 0000 80B5     		push	{r7, lr}
ARM GAS  C:\Users\DEVELO~1\AppData\Local\Temp\ccPsZvP6.s 			page 4


 172              		.cfi_def_cfa_offset 8
 173              		.cfi_offset 7, -8
 174              		.cfi_offset 14, -4
 175 0002 00AF     		add	r7, sp, #0
 176              		.cfi_def_cfa_register 7
 177              		.loc 4 586 3
 178 0004 FFF7FEFF 		bl	chSysUnlock
 179              		.loc 4 587 1
 180 0008 00BF     		nop
 181 000a 80BD     		pop	{r7, pc}
 182              		.cfi_endproc
 183              	.LFE351:
 184              		.size	osalSysUnlock, .-osalSysUnlock
 185              		.section	.text.saiInit,"ax",%progbits
 186              		.align	1
 187              		.global	saiInit
 188              		.syntax unified
 189              		.thumb
 190              		.thumb_func
 191              		.type	saiInit, %function
 192              	saiInit:
 193              	.LFB432:
 194              		.file 5 "../../../os/hal/src/hal_sai.c"
 195              		.loc 5 39 20
 196              		.cfi_startproc
 197              		@ args = 0, pretend = 0, frame = 0
 198              		@ frame_needed = 1, uses_anonymous_args = 0
 199 0000 80B5     		push	{r7, lr}
 200              		.cfi_def_cfa_offset 8
 201              		.cfi_offset 7, -8
 202              		.cfi_offset 14, -4
 203 0002 00AF     		add	r7, sp, #0
 204              		.cfi_def_cfa_register 7
 205              		.loc 5 41 3
 206 0004 FFF7FEFF 		bl	sai_lld_init
 207              		.loc 5 42 1
 208 0008 00BF     		nop
 209 000a 80BD     		pop	{r7, pc}
 210              		.cfi_endproc
 211              	.LFE432:
 212              		.size	saiInit, .-saiInit
 213              		.section	.text.saiObjectInit,"ax",%progbits
 214              		.align	1
 215              		.global	saiObjectInit
 216              		.syntax unified
 217              		.thumb
 218              		.thumb_func
 219              		.type	saiObjectInit, %function
 220              	saiObjectInit:
 221              	.LFB433:
 222              		.loc 5 51 37
 223              		.cfi_startproc
 224              		@ args = 0, pretend = 0, frame = 8
 225              		@ frame_needed = 1, uses_anonymous_args = 0
 226              		@ link register save eliminated.
 227 0000 80B4     		push	{r7}
 228              		.cfi_def_cfa_offset 4
ARM GAS  C:\Users\DEVELO~1\AppData\Local\Temp\ccPsZvP6.s 			page 5


 229              		.cfi_offset 7, -4
 230 0002 83B0     		sub	sp, sp, #12
 231              		.cfi_def_cfa_offset 16
 232 0004 00AF     		add	r7, sp, #0
 233              		.cfi_def_cfa_register 7
 234 0006 7860     		str	r0, [r7, #4]
 235              		.loc 5 53 16
 236 0008 7B68     		ldr	r3, [r7, #4]
 237 000a 0122     		movs	r2, #1
 238 000c 1A70     		strb	r2, [r3]
 239              		.loc 5 54 16
 240 000e 7B68     		ldr	r3, [r7, #4]
 241 0010 0022     		movs	r2, #0
 242 0012 5A60     		str	r2, [r3, #4]
 243              		.loc 5 58 21
 244 0014 7B68     		ldr	r3, [r7, #4]
 245 0016 0022     		movs	r2, #0
 246 0018 1A63     		str	r2, [r3, #48]
 247              		.loc 5 59 23
 248 001a 7B68     		ldr	r3, [r7, #4]
 249 001c 0022     		movs	r2, #0
 250 001e 5A63     		str	r2, [r3, #52]
 251              		.loc 5 60 1
 252 0020 00BF     		nop
 253 0022 0C37     		adds	r7, r7, #12
 254              		.cfi_def_cfa_offset 4
 255 0024 BD46     		mov	sp, r7
 256              		.cfi_def_cfa_register 13
 257              		@ sp needed
 258 0026 80BC     		pop	{r7}
 259              		.cfi_restore 7
 260              		.cfi_def_cfa_offset 0
 261 0028 7047     		bx	lr
 262              		.cfi_endproc
 263              	.LFE433:
 264              		.size	saiObjectInit, .-saiObjectInit
 265              		.section	.text.saiStart,"ax",%progbits
 266              		.align	1
 267              		.global	saiStart
 268              		.syntax unified
 269              		.thumb
 270              		.thumb_func
 271              		.type	saiStart, %function
 272              	saiStart:
 273              	.LFB434:
 274              		.loc 5 71 58
 275              		.cfi_startproc
 276              		@ args = 0, pretend = 0, frame = 16
 277              		@ frame_needed = 1, uses_anonymous_args = 0
 278 0000 80B5     		push	{r7, lr}
 279              		.cfi_def_cfa_offset 8
 280              		.cfi_offset 7, -8
 281              		.cfi_offset 14, -4
 282 0002 84B0     		sub	sp, sp, #16
 283              		.cfi_def_cfa_offset 24
 284 0004 00AF     		add	r7, sp, #0
 285              		.cfi_def_cfa_register 7
ARM GAS  C:\Users\DEVELO~1\AppData\Local\Temp\ccPsZvP6.s 			page 6


 286 0006 7860     		str	r0, [r7, #4]
 287 0008 3960     		str	r1, [r7]
 288              		.loc 5 76 3
 289 000a FFF7FEFF 		bl	osalSysLock
 290              		.loc 5 80 16
 291 000e 7B68     		ldr	r3, [r7, #4]
 292 0010 3A68     		ldr	r2, [r7]
 293 0012 5A60     		str	r2, [r3, #4]
 294              		.loc 5 95 3
 295 0014 7868     		ldr	r0, [r7, #4]
 296 0016 FFF7FEFF 		bl	sai_lld_start
 297              		.loc 5 96 15
 298 001a 7B68     		ldr	r3, [r7, #4]
 299 001c 0222     		movs	r2, #2
 300 001e 1A70     		strb	r2, [r3]
 301              		.loc 5 97 7
 302 0020 0023     		movs	r3, #0
 303 0022 FB60     		str	r3, [r7, #12]
 304              		.loc 5 100 3
 305 0024 FFF7FEFF 		bl	osalSysUnlock
 306              		.loc 5 102 10
 307 0028 FB68     		ldr	r3, [r7, #12]
 308              		.loc 5 103 1
 309 002a 1846     		mov	r0, r3
 310 002c 1037     		adds	r7, r7, #16
 311              		.cfi_def_cfa_offset 8
 312 002e BD46     		mov	sp, r7
 313              		.cfi_def_cfa_register 13
 314              		@ sp needed
 315 0030 80BD     		pop	{r7, pc}
 316              		.cfi_endproc
 317              	.LFE434:
 318              		.size	saiStart, .-saiStart
 319              		.section	.text.saiStop,"ax",%progbits
 320              		.align	1
 321              		.global	saiStop
 322              		.syntax unified
 323              		.thumb
 324              		.thumb_func
 325              		.type	saiStop, %function
 326              	saiStop:
 327              	.LFB435:
 328              		.loc 5 112 31
 329              		.cfi_startproc
 330              		@ args = 0, pretend = 0, frame = 8
 331              		@ frame_needed = 1, uses_anonymous_args = 0
 332 0000 80B5     		push	{r7, lr}
 333              		.cfi_def_cfa_offset 8
 334              		.cfi_offset 7, -8
 335              		.cfi_offset 14, -4
 336 0002 82B0     		sub	sp, sp, #8
 337              		.cfi_def_cfa_offset 16
 338 0004 00AF     		add	r7, sp, #0
 339              		.cfi_def_cfa_register 7
 340 0006 7860     		str	r0, [r7, #4]
 341              		.loc 5 116 3
 342 0008 FFF7FEFF 		bl	osalSysLock
ARM GAS  C:\Users\DEVELO~1\AppData\Local\Temp\ccPsZvP6.s 			page 7


 343              		.loc 5 120 3
 344 000c 7868     		ldr	r0, [r7, #4]
 345 000e FFF7FEFF 		bl	sai_lld_stop
 346              		.loc 5 121 16
 347 0012 7B68     		ldr	r3, [r7, #4]
 348 0014 0022     		movs	r2, #0
 349 0016 5A60     		str	r2, [r3, #4]
 350              		.loc 5 122 16
 351 0018 7B68     		ldr	r3, [r7, #4]
 352 001a 0122     		movs	r2, #1
 353 001c 1A70     		strb	r2, [r3]
 354              		.loc 5 127 3
 355 001e FFF7FEFF 		bl	osalSysUnlock
 356              		.loc 5 128 1
 357 0022 00BF     		nop
 358 0024 0837     		adds	r7, r7, #8
 359              		.cfi_def_cfa_offset 8
 360 0026 BD46     		mov	sp, r7
 361              		.cfi_def_cfa_register 13
 362              		@ sp needed
 363 0028 80BD     		pop	{r7, pc}
 364              		.cfi_endproc
 365              	.LFE435:
 366              		.size	saiStop, .-saiStop
 367              		.section	.text.saiSetBuffers,"ax",%progbits
 368              		.align	1
 369              		.global	saiSetBuffers
 370              		.syntax unified
 371              		.thumb
 372              		.thumb_func
 373              		.type	saiSetBuffers, %function
 374              	saiSetBuffers:
 375              	.LFB436:
 376              		.loc 5 143 33
 377              		.cfi_startproc
 378              		@ args = 0, pretend = 0, frame = 16
 379              		@ frame_needed = 1, uses_anonymous_args = 0
 380 0000 80B5     		push	{r7, lr}
 381              		.cfi_def_cfa_offset 8
 382              		.cfi_offset 7, -8
 383              		.cfi_offset 14, -4
 384 0002 84B0     		sub	sp, sp, #16
 385              		.cfi_def_cfa_offset 24
 386 0004 00AF     		add	r7, sp, #0
 387              		.cfi_def_cfa_register 7
 388 0006 F860     		str	r0, [r7, #12]
 389 0008 B960     		str	r1, [r7, #8]
 390 000a 7A60     		str	r2, [r7, #4]
 391 000c 3B60     		str	r3, [r7]
 392              		.loc 5 147 3
 393 000e FFF7FEFF 		bl	osalSysLock
 394              		.loc 5 150 3
 395 0012 3B68     		ldr	r3, [r7]
 396 0014 7A68     		ldr	r2, [r7, #4]
 397 0016 B968     		ldr	r1, [r7, #8]
 398 0018 F868     		ldr	r0, [r7, #12]
 399 001a FFF7FEFF 		bl	sai_lld_set_buffers
ARM GAS  C:\Users\DEVELO~1\AppData\Local\Temp\ccPsZvP6.s 			page 8


 400              		.loc 5 152 3
 401 001e FFF7FEFF 		bl	osalSysUnlock
 402              		.loc 5 153 1
 403 0022 00BF     		nop
 404 0024 1037     		adds	r7, r7, #16
 405              		.cfi_def_cfa_offset 8
 406 0026 BD46     		mov	sp, r7
 407              		.cfi_def_cfa_register 13
 408              		@ sp needed
 409 0028 80BD     		pop	{r7, pc}
 410              		.cfi_endproc
 411              	.LFE436:
 412              		.size	saiSetBuffers, .-saiSetBuffers
 413              		.section	.text.saiStartExchange,"ax",%progbits
 414              		.align	1
 415              		.global	saiStartExchange
 416              		.syntax unified
 417              		.thumb
 418              		.thumb_func
 419              		.type	saiStartExchange, %function
 420              	saiStartExchange:
 421              	.LFB437:
 422              		.loc 5 162 40
 423              		.cfi_startproc
 424              		@ args = 0, pretend = 0, frame = 16
 425              		@ frame_needed = 1, uses_anonymous_args = 0
 426 0000 80B5     		push	{r7, lr}
 427              		.cfi_def_cfa_offset 8
 428              		.cfi_offset 7, -8
 429              		.cfi_offset 14, -4
 430 0002 84B0     		sub	sp, sp, #16
 431              		.cfi_def_cfa_offset 24
 432 0004 00AF     		add	r7, sp, #0
 433              		.cfi_def_cfa_register 7
 434 0006 7860     		str	r0, [r7, #4]
 435              		.loc 5 166 3
 436 0008 FFF7FEFF 		bl	osalSysLock
 437              	.LBB22:
 438              		.loc 5 168 3
 439 000c 7868     		ldr	r0, [r7, #4]
 440 000e FFF7FEFF 		bl	sai_lld_start_exchange
 441 0012 7B68     		ldr	r3, [r7, #4]
 442 0014 DB68     		ldr	r3, [r3, #12]
 443 0016 1B68     		ldr	r3, [r3]
 444 0018 FB60     		str	r3, [r7, #12]
 445 001a 7B68     		ldr	r3, [r7, #4]
 446 001c DB68     		ldr	r3, [r3, #12]
 447 001e 5B69     		ldr	r3, [r3, #20]
 448 0020 BB60     		str	r3, [r7, #8]
 449 0022 FB68     		ldr	r3, [r7, #12]
 450 0024 03F48033 		and	r3, r3, #65536
 451 0028 002B     		cmp	r3, #0
 452 002a 03D0     		beq	.L12
 453              		.loc 5 168 3 is_stmt 0 discriminator 1
 454 002c 7B68     		ldr	r3, [r7, #4]
 455 002e 0322     		movs	r2, #3
 456 0030 1A70     		strb	r2, [r3]
ARM GAS  C:\Users\DEVELO~1\AppData\Local\Temp\ccPsZvP6.s 			page 9


 457 0032 02E0     		b	.L13
 458              	.L12:
 459              		.loc 5 168 3 discriminator 2
 460 0034 7B68     		ldr	r3, [r7, #4]
 461 0036 0222     		movs	r2, #2
 462 0038 1A70     		strb	r2, [r3]
 463              	.L13:
 464              	.LBE22:
 465              		.loc 5 169 3 is_stmt 1
 466 003a FFF7FEFF 		bl	osalSysUnlock
 467              		.loc 5 170 1
 468 003e 00BF     		nop
 469 0040 1037     		adds	r7, r7, #16
 470              		.cfi_def_cfa_offset 8
 471 0042 BD46     		mov	sp, r7
 472              		.cfi_def_cfa_register 13
 473              		@ sp needed
 474 0044 80BD     		pop	{r7, pc}
 475              		.cfi_endproc
 476              	.LFE437:
 477              		.size	saiStartExchange, .-saiStartExchange
 478              		.section	.text.saiStopExchange,"ax",%progbits
 479              		.align	1
 480              		.global	saiStopExchange
 481              		.syntax unified
 482              		.thumb
 483              		.thumb_func
 484              		.type	saiStopExchange, %function
 485              	saiStopExchange:
 486              	.LFB438:
 487              		.loc 5 179 39
 488              		.cfi_startproc
 489              		@ args = 0, pretend = 0, frame = 8
 490              		@ frame_needed = 1, uses_anonymous_args = 0
 491 0000 80B5     		push	{r7, lr}
 492              		.cfi_def_cfa_offset 8
 493              		.cfi_offset 7, -8
 494              		.cfi_offset 14, -4
 495 0002 82B0     		sub	sp, sp, #8
 496              		.cfi_def_cfa_offset 16
 497 0004 00AF     		add	r7, sp, #0
 498              		.cfi_def_cfa_register 7
 499 0006 7860     		str	r0, [r7, #4]
 500              		.loc 5 183 3
 501 0008 FFF7FEFF 		bl	osalSysLock
 502              		.loc 5 185 3
 503 000c 7868     		ldr	r0, [r7, #4]
 504 000e FFF7FEFF 		bl	sai_lld_stop_exchange
 505 0012 7B68     		ldr	r3, [r7, #4]
 506 0014 0222     		movs	r2, #2
 507 0016 1A70     		strb	r2, [r3]
 508              		.loc 5 186 3
 509 0018 FFF7FEFF 		bl	osalSysUnlock
 510              		.loc 5 187 1
 511 001c 00BF     		nop
 512 001e 0837     		adds	r7, r7, #8
 513              		.cfi_def_cfa_offset 8
ARM GAS  C:\Users\DEVELO~1\AppData\Local\Temp\ccPsZvP6.s 			page 10


 514 0020 BD46     		mov	sp, r7
 515              		.cfi_def_cfa_register 13
 516              		@ sp needed
 517 0022 80BD     		pop	{r7, pc}
 518              		.cfi_endproc
 519              	.LFE438:
 520              		.size	saiStopExchange, .-saiStopExchange
 521              		.text
 522              	.Letext0:
 523              		.file 6 "c:\\chibistudio\\tools\\gnu tools arm embedded\\11.3 2022.08\\lib\\gcc\\arm-none-eabi\\11
 524              		.file 7 "c:\\chibistudio\\tools\\gnu tools arm embedded\\11.3 2022.08\\arm-none-eabi\\include\\mac
 525              		.file 8 "c:\\chibistudio\\tools\\gnu tools arm embedded\\11.3 2022.08\\arm-none-eabi\\include\\sys
 526              		.file 9 "../../../os/rt/include/chearly.h"
 527              		.file 10 "../../../os/common/ext/ST/STM32H7xx/stm32h743xx.h"
 528              		.file 11 "../../../os/hal/ports/STM32/LLD/DMAv2/stm32_dma.h"
 529              		.file 12 "../../../os/hal/include/hal_sai.h"
 530              		.file 13 "../../../os/hal/ports/STM32/LLD/SAIv1/hal_sai_lld.h"