ARM GAS  C:\Users\DEVELO~1\AppData\Local\Temp\ccSM2v4h.s 			page 1


   1              		.cpu cortex-m7
   2              		.arch armv7e-m
   3              		.fpu softvfp
   4              		.eabi_attribute 20, 1
   5              		.eabi_attribute 21, 1
   6              		.eabi_attribute 23, 3
   7              		.eabi_attribute 24, 1
   8              		.eabi_attribute 25, 1
   9              		.eabi_attribute 26, 1
  10              		.eabi_attribute 30, 6
  11              		.eabi_attribute 34, 1
  12              		.eabi_attribute 18, 4
  13              		.file	"hal_gpt_lld.c"
  14              		.text
  15              	.Ltext0:
  16              		.cfi_sections	.debug_frame
  17              		.section	.text.__rccResetAPB1L,"ax",%progbits
  18              		.align	1
  19              		.syntax unified
  20              		.thumb
  21              		.thumb_func
  22              		.type	__rccResetAPB1L, %function
  23              	__rccResetAPB1L:
  24              	.LFB379:
  25              		.file 1 "../../../os/hal/ports/STM32/STM32H7xx/stm32_rcc.h"
  26              		.loc 1 57 53
  27              		.cfi_startproc
  28              		@ args = 0, pretend = 0, frame = 8
  29              		@ frame_needed = 1, uses_anonymous_args = 0
  30              		@ link register save eliminated.
  31 0000 80B4     		push	{r7}
  32              		.cfi_def_cfa_offset 4
  33              		.cfi_offset 7, -4
  34 0002 83B0     		sub	sp, sp, #12
  35              		.cfi_def_cfa_offset 16
  36 0004 00AF     		add	r7, sp, #0
  37              		.cfi_def_cfa_register 7
  38 0006 7860     		str	r0, [r7, #4]
  39              		.loc 1 60 18
  40 0008 0C4B     		ldr	r3, .L2
  41 000a D3F89020 		ldr	r2, [r3, #144]
  42 000e 0B49     		ldr	r1, .L2
  43 0010 7B68     		ldr	r3, [r7, #4]
  44 0012 1343     		orrs	r3, r3, r2
  45 0014 C1F89030 		str	r3, [r1, #144]
  46              		.loc 1 61 18
  47 0018 084B     		ldr	r3, .L2
  48 001a D3F89020 		ldr	r2, [r3, #144]
  49              		.loc 1 61 21
  50 001e 7B68     		ldr	r3, [r7, #4]
  51 0020 DB43     		mvns	r3, r3
  52              		.loc 1 61 18
  53 0022 0649     		ldr	r1, .L2
  54 0024 1340     		ands	r3, r3, r2
  55 0026 C1F89030 		str	r3, [r1, #144]
  56              		.loc 1 62 12
  57 002a 044B     		ldr	r3, .L2
ARM GAS  C:\Users\DEVELO~1\AppData\Local\Temp\ccSM2v4h.s 			page 2


  58              		.loc 1 62 3
  59 002c D3F89030 		ldr	r3, [r3, #144]
  60              		.loc 1 63 1
  61 0030 00BF     		nop
  62 0032 0C37     		adds	r7, r7, #12
  63              		.cfi_def_cfa_offset 4
  64 0034 BD46     		mov	sp, r7
  65              		.cfi_def_cfa_register 13
  66              		@ sp needed
  67 0036 80BC     		pop	{r7}
  68              		.cfi_restore 7
  69              		.cfi_def_cfa_offset 0
  70 0038 7047     		bx	lr
  71              	.L3:
  72 003a 00BF     		.align	2
  73              	.L2:
  74 003c 00440258 		.word	1476543488
  75              		.cfi_endproc
  76              	.LFE379:
  77              		.size	__rccResetAPB1L, .-__rccResetAPB1L
  78              		.section	.text.rccEnableAPB1L,"ax",%progbits
  79              		.align	1
  80              		.syntax unified
  81              		.thumb
  82              		.thumb_func
  83              		.type	rccEnableAPB1L, %function
  84              	rccEnableAPB1L:
  85              	.LFB388:
  86              		.loc 1 141 61
  87              		.cfi_startproc
  88              		@ args = 0, pretend = 0, frame = 8
  89              		@ frame_needed = 1, uses_anonymous_args = 0
  90              		@ link register save eliminated.
  91 0000 80B4     		push	{r7}
  92              		.cfi_def_cfa_offset 4
  93              		.cfi_offset 7, -4
  94 0002 83B0     		sub	sp, sp, #12
  95              		.cfi_def_cfa_offset 16
  96 0004 00AF     		add	r7, sp, #0
  97              		.cfi_def_cfa_register 7
  98 0006 7860     		str	r0, [r7, #4]
  99 0008 0B46     		mov	r3, r1
 100 000a FB70     		strb	r3, [r7, #3]
 101              		.loc 1 145 20
 102 000c 124B     		ldr	r3, .L7
 103 000e D3F8E820 		ldr	r2, [r3, #232]
 104 0012 1149     		ldr	r1, .L7
 105 0014 7B68     		ldr	r3, [r7, #4]
 106 0016 1343     		orrs	r3, r3, r2
 107 0018 C1F8E830 		str	r3, [r1, #232]
 108              		.loc 1 146 6
 109 001c FB78     		ldrb	r3, [r7, #3]	@ zero_extendqisi2
 110 001e 002B     		cmp	r3, #0
 111 0020 08D0     		beq	.L5
 112              		.loc 1 147 24
 113 0022 0D4B     		ldr	r3, .L7
 114 0024 D3F81021 		ldr	r2, [r3, #272]
ARM GAS  C:\Users\DEVELO~1\AppData\Local\Temp\ccSM2v4h.s 			page 3


 115 0028 0B49     		ldr	r1, .L7
 116 002a 7B68     		ldr	r3, [r7, #4]
 117 002c 1343     		orrs	r3, r3, r2
 118 002e C1F81031 		str	r3, [r1, #272]
 119 0032 08E0     		b	.L6
 120              	.L5:
 121              		.loc 1 150 24
 122 0034 084B     		ldr	r3, .L7
 123 0036 D3F81021 		ldr	r2, [r3, #272]
 124              		.loc 1 150 27
 125 003a 7B68     		ldr	r3, [r7, #4]
 126 003c DB43     		mvns	r3, r3
 127              		.loc 1 150 24
 128 003e 0649     		ldr	r1, .L7
 129 0040 1340     		ands	r3, r3, r2
 130 0042 C1F81031 		str	r3, [r1, #272]
 131              	.L6:
 132              		.loc 1 152 15
 133 0046 044B     		ldr	r3, .L7
 134              		.loc 1 152 3
 135 0048 D3F81031 		ldr	r3, [r3, #272]
 136              		.loc 1 164 1
 137 004c 00BF     		nop
 138 004e 0C37     		adds	r7, r7, #12
 139              		.cfi_def_cfa_offset 4
 140 0050 BD46     		mov	sp, r7
 141              		.cfi_def_cfa_register 13
 142              		@ sp needed
 143 0052 80BC     		pop	{r7}
 144              		.cfi_restore 7
 145              		.cfi_def_cfa_offset 0
 146 0054 7047     		bx	lr
 147              	.L8:
 148 0056 00BF     		.align	2
 149              	.L7:
 150 0058 00440258 		.word	1476543488
 151              		.cfi_endproc
 152              	.LFE388:
 153              		.size	rccEnableAPB1L, .-rccEnableAPB1L
 154              		.section	.text.rccDisableAPB1L,"ax",%progbits
 155              		.align	1
 156              		.syntax unified
 157              		.thumb
 158              		.thumb_func
 159              		.type	rccDisableAPB1L, %function
 160              	rccDisableAPB1L:
 161              	.LFB389:
 162              		.loc 1 173 53
 163              		.cfi_startproc
 164              		@ args = 0, pretend = 0, frame = 8
 165              		@ frame_needed = 1, uses_anonymous_args = 0
 166              		@ link register save eliminated.
 167 0000 80B4     		push	{r7}
 168              		.cfi_def_cfa_offset 4
 169              		.cfi_offset 7, -4
 170 0002 83B0     		sub	sp, sp, #12
 171              		.cfi_def_cfa_offset 16
ARM GAS  C:\Users\DEVELO~1\AppData\Local\Temp\ccSM2v4h.s 			page 4


 172 0004 00AF     		add	r7, sp, #0
 173              		.cfi_def_cfa_register 7
 174 0006 7860     		str	r0, [r7, #4]
 175              		.loc 1 183 20
 176 0008 0C4B     		ldr	r3, .L10
 177 000a D3F8E820 		ldr	r2, [r3, #232]
 178              		.loc 1 183 23
 179 000e 7B68     		ldr	r3, [r7, #4]
 180 0010 DB43     		mvns	r3, r3
 181              		.loc 1 183 20
 182 0012 0A49     		ldr	r1, .L10
 183 0014 1340     		ands	r3, r3, r2
 184 0016 C1F8E830 		str	r3, [r1, #232]
 185              		.loc 1 184 22
 186 001a 084B     		ldr	r3, .L10
 187 001c D3F81021 		ldr	r2, [r3, #272]
 188              		.loc 1 184 25
 189 0020 7B68     		ldr	r3, [r7, #4]
 190 0022 DB43     		mvns	r3, r3
 191              		.loc 1 184 22
 192 0024 0549     		ldr	r1, .L10
 193 0026 1340     		ands	r3, r3, r2
 194 0028 C1F81031 		str	r3, [r1, #272]
 195              		.loc 1 185 15
 196 002c 034B     		ldr	r3, .L10
 197              		.loc 1 185 3
 198 002e D3F81031 		ldr	r3, [r3, #272]
 199              		.loc 1 198 1
 200 0032 00BF     		nop
 201 0034 0C37     		adds	r7, r7, #12
 202              		.cfi_def_cfa_offset 4
 203 0036 BD46     		mov	sp, r7
 204              		.cfi_def_cfa_register 13
 205              		@ sp needed
 206 0038 80BC     		pop	{r7}
 207              		.cfi_restore 7
 208              		.cfi_def_cfa_offset 0
 209 003a 7047     		bx	lr
 210              	.L11:
 211              		.align	2
 212              	.L10:
 213 003c 00440258 		.word	1476543488
 214              		.cfi_endproc
 215              	.LFE389:
 216              		.size	rccDisableAPB1L, .-rccDisableAPB1L
 217              		.section	.text.rccResetAPB1L,"ax",%progbits
 218              		.align	1
 219              		.syntax unified
 220              		.thumb
 221              		.thumb_func
 222              		.type	rccResetAPB1L, %function
 223              	rccResetAPB1L:
 224              	.LFB390:
 225              		.loc 1 207 51
 226              		.cfi_startproc
 227              		@ args = 0, pretend = 0, frame = 8
 228              		@ frame_needed = 1, uses_anonymous_args = 0
ARM GAS  C:\Users\DEVELO~1\AppData\Local\Temp\ccSM2v4h.s 			page 5


 229 0000 80B5     		push	{r7, lr}
 230              		.cfi_def_cfa_offset 8
 231              		.cfi_offset 7, -8
 232              		.cfi_offset 14, -4
 233 0002 82B0     		sub	sp, sp, #8
 234              		.cfi_def_cfa_offset 16
 235 0004 00AF     		add	r7, sp, #0
 236              		.cfi_def_cfa_register 7
 237 0006 7860     		str	r0, [r7, #4]
 238              		.loc 1 219 3
 239 0008 7868     		ldr	r0, [r7, #4]
 240 000a FFF7FEFF 		bl	__rccResetAPB1L
 241              		.loc 1 220 1
 242 000e 00BF     		nop
 243 0010 0837     		adds	r7, r7, #8
 244              		.cfi_def_cfa_offset 8
 245 0012 BD46     		mov	sp, r7
 246              		.cfi_def_cfa_register 13
 247              		@ sp needed
 248 0014 80BD     		pop	{r7, pc}
 249              		.cfi_endproc
 250              	.LFE390:
 251              		.size	rccResetAPB1L, .-rccResetAPB1L
 252              		.global	GPTD4
 253              		.section	.bss.GPTD4,"aw",%nobits
 254              		.align	2
 255              		.type	GPTD4, %object
 256              		.size	GPTD4, 16
 257              	GPTD4:
 258 0000 00000000 		.space	16
 258      00000000 
 258      00000000 
 258      00000000 
 259              		.section	.text.gpt_lld_init,"ax",%progbits
 260              		.align	1
 261              		.global	gpt_lld_init
 262              		.syntax unified
 263              		.thumb
 264              		.thumb_func
 265              		.type	gpt_lld_init, %function
 266              	gpt_lld_init:
 267              	.LFB432:
 268              		.file 2 "../../../os/hal/ports/STM32/LLD/TIMv1/hal_gpt_lld.c"
 269              		.loc 2 474 25
 270              		.cfi_startproc
 271              		@ args = 0, pretend = 0, frame = 0
 272              		@ frame_needed = 1, uses_anonymous_args = 0
 273 0000 80B5     		push	{r7, lr}
 274              		.cfi_def_cfa_offset 8
 275              		.cfi_offset 7, -8
 276              		.cfi_offset 14, -4
 277 0002 00AF     		add	r7, sp, #0
 278              		.cfi_def_cfa_register 7
 279              		.loc 2 496 13
 280 0004 034B     		ldr	r3, .L14
 281 0006 044A     		ldr	r2, .L14+4
 282 0008 DA60     		str	r2, [r3, #12]
ARM GAS  C:\Users\DEVELO~1\AppData\Local\Temp\ccSM2v4h.s 			page 6


 283              		.loc 2 497 3
 284 000a 0248     		ldr	r0, .L14
 285 000c FFF7FEFF 		bl	gptObjectInit
 286              		.loc 2 589 1
 287 0010 00BF     		nop
 288 0012 80BD     		pop	{r7, pc}
 289              	.L15:
 290              		.align	2
 291              	.L14:
 292 0014 00000000 		.word	GPTD4
 293 0018 00080040 		.word	1073743872
 294              		.cfi_endproc
 295              	.LFE432:
 296              		.size	gpt_lld_init, .-gpt_lld_init
 297              		.section	.text.gpt_lld_start,"ax",%progbits
 298              		.align	1
 299              		.global	gpt_lld_start
 300              		.syntax unified
 301              		.thumb
 302              		.thumb_func
 303              		.type	gpt_lld_start, %function
 304              	gpt_lld_start:
 305              	.LFB433:
 306              		.loc 2 598 37
 307              		.cfi_startproc
 308              		@ args = 0, pretend = 0, frame = 16
 309              		@ frame_needed = 1, uses_anonymous_args = 0
 310 0000 80B5     		push	{r7, lr}
 311              		.cfi_def_cfa_offset 8
 312              		.cfi_offset 7, -8
 313              		.cfi_offset 14, -4
 314 0002 84B0     		sub	sp, sp, #16
 315              		.cfi_def_cfa_offset 24
 316 0004 00AF     		add	r7, sp, #0
 317              		.cfi_def_cfa_register 7
 318 0006 7860     		str	r0, [r7, #4]
 319              		.loc 2 601 11
 320 0008 7B68     		ldr	r3, [r7, #4]
 321 000a 1B78     		ldrb	r3, [r3]	@ zero_extendqisi2
 322              		.loc 2 601 6
 323 000c 012B     		cmp	r3, #1
 324 000e 0DD1     		bne	.L17
 325              		.loc 2 649 8
 326 0010 7B68     		ldr	r3, [r7, #4]
 327 0012 1A4A     		ldr	r2, .L18
 328 0014 9342     		cmp	r3, r2
 329 0016 09D1     		bne	.L17
 330              		.loc 2 650 7
 331 0018 0121     		movs	r1, #1
 332 001a 0420     		movs	r0, #4
 333 001c FFF7FEFF 		bl	rccEnableAPB1L
 334              		.loc 2 651 7
 335 0020 0420     		movs	r0, #4
 336 0022 FFF7FEFF 		bl	rccResetAPB1L
 337              		.loc 2 658 19
 338 0026 7B68     		ldr	r3, [r7, #4]
 339 0028 154A     		ldr	r2, .L18+4
ARM GAS  C:\Users\DEVELO~1\AppData\Local\Temp\ccSM2v4h.s 			page 7


 340 002a 9A60     		str	r2, [r3, #8]
 341              	.L17:
 342              		.loc 2 881 25
 343 002c 7B68     		ldr	r3, [r7, #4]
 344 002e 9A68     		ldr	r2, [r3, #8]
 345              		.loc 2 881 39
 346 0030 7B68     		ldr	r3, [r7, #4]
 347 0032 5B68     		ldr	r3, [r3, #4]
 348              		.loc 2 881 47
 349 0034 1B68     		ldr	r3, [r3]
 350              		.loc 2 881 33
 351 0036 B2FBF3F3 		udiv	r3, r2, r3
 352              		.loc 2 881 9
 353 003a 9BB2     		uxth	r3, r3
 354              		.loc 2 881 7
 355 003c 013B     		subs	r3, r3, #1
 356 003e FB81     		strh	r3, [r7, #14]	@ movhi
 357              		.loc 2 886 7
 358 0040 7B68     		ldr	r3, [r7, #4]
 359 0042 DB68     		ldr	r3, [r3, #12]
 360              		.loc 2 886 19
 361 0044 0022     		movs	r2, #0
 362 0046 1A60     		str	r2, [r3]
 363              		.loc 2 887 25
 364 0048 7B68     		ldr	r3, [r7, #4]
 365 004a 5A68     		ldr	r2, [r3, #4]
 366              		.loc 2 887 7
 367 004c 7B68     		ldr	r3, [r7, #4]
 368 004e DB68     		ldr	r3, [r3, #12]
 369              		.loc 2 887 33
 370 0050 9268     		ldr	r2, [r2, #8]
 371              		.loc 2 887 19
 372 0052 5A60     		str	r2, [r3, #4]
 373              		.loc 2 888 7
 374 0054 7B68     		ldr	r3, [r7, #4]
 375 0056 DB68     		ldr	r3, [r3, #12]
 376              		.loc 2 888 19
 377 0058 FA89     		ldrh	r2, [r7, #14]
 378 005a 9A62     		str	r2, [r3, #40]
 379              		.loc 2 889 7
 380 005c 7B68     		ldr	r3, [r7, #4]
 381 005e DB68     		ldr	r3, [r3, #12]
 382              		.loc 2 889 19
 383 0060 0022     		movs	r2, #0
 384 0062 1A61     		str	r2, [r3, #16]
 385              		.loc 2 890 25
 386 0064 7B68     		ldr	r3, [r7, #4]
 387 0066 5B68     		ldr	r3, [r3, #4]
 388              		.loc 2 890 33
 389 0068 DA68     		ldr	r2, [r3, #12]
 390              		.loc 2 890 7
 391 006a 7B68     		ldr	r3, [r7, #4]
 392 006c DB68     		ldr	r3, [r3, #12]
 393              		.loc 2 890 40
 394 006e 22F0FF02 		bic	r2, r2, #255
 395              		.loc 2 890 19
 396 0072 DA60     		str	r2, [r3, #12]
ARM GAS  C:\Users\DEVELO~1\AppData\Local\Temp\ccSM2v4h.s 			page 8


 397              		.loc 2 892 1
 398 0074 00BF     		nop
 399 0076 1037     		adds	r7, r7, #16
 400              		.cfi_def_cfa_offset 8
 401 0078 BD46     		mov	sp, r7
 402              		.cfi_def_cfa_register 13
 403              		@ sp needed
 404 007a 80BD     		pop	{r7, pc}
 405              	.L19:
 406              		.align	2
 407              	.L18:
 408 007c 00000000 		.word	GPTD4
 409 0080 00C2EB0B 		.word	200000000
 410              		.cfi_endproc
 411              	.LFE433:
 412              		.size	gpt_lld_start, .-gpt_lld_start
 413              		.section	.text.gpt_lld_stop,"ax",%progbits
 414              		.align	1
 415              		.global	gpt_lld_stop
 416              		.syntax unified
 417              		.thumb
 418              		.thumb_func
 419              		.type	gpt_lld_stop, %function
 420              	gpt_lld_stop:
 421              	.LFB434:
 422              		.loc 2 901 36
 423              		.cfi_startproc
 424              		@ args = 0, pretend = 0, frame = 8
 425              		@ frame_needed = 1, uses_anonymous_args = 0
 426 0000 80B5     		push	{r7, lr}
 427              		.cfi_def_cfa_offset 8
 428              		.cfi_offset 7, -8
 429              		.cfi_offset 14, -4
 430 0002 82B0     		sub	sp, sp, #8
 431              		.cfi_def_cfa_offset 16
 432 0004 00AF     		add	r7, sp, #0
 433              		.cfi_def_cfa_register 7
 434 0006 7860     		str	r0, [r7, #4]
 435              		.loc 2 903 11
 436 0008 7B68     		ldr	r3, [r7, #4]
 437 000a 1B78     		ldrb	r3, [r3]	@ zero_extendqisi2
 438              		.loc 2 903 6
 439 000c 022B     		cmp	r3, #2
 440 000e 12D1     		bne	.L22
 441              		.loc 2 904 9
 442 0010 7B68     		ldr	r3, [r7, #4]
 443 0012 DB68     		ldr	r3, [r3, #12]
 444              		.loc 2 904 21
 445 0014 0022     		movs	r2, #0
 446 0016 1A60     		str	r2, [r3]
 447              		.loc 2 905 9
 448 0018 7B68     		ldr	r3, [r7, #4]
 449 001a DB68     		ldr	r3, [r3, #12]
 450              		.loc 2 905 21
 451 001c 0022     		movs	r2, #0
 452 001e DA60     		str	r2, [r3, #12]
 453              		.loc 2 906 9
ARM GAS  C:\Users\DEVELO~1\AppData\Local\Temp\ccSM2v4h.s 			page 9


 454 0020 7B68     		ldr	r3, [r7, #4]
 455 0022 DB68     		ldr	r3, [r3, #12]
 456              		.loc 2 906 21
 457 0024 0022     		movs	r2, #0
 458 0026 1A61     		str	r2, [r3, #16]
 459              		.loc 2 936 8
 460 0028 7B68     		ldr	r3, [r7, #4]
 461 002a 054A     		ldr	r2, .L23
 462 002c 9342     		cmp	r3, r2
 463 002e 02D1     		bne	.L22
 464              		.loc 2 940 7
 465 0030 0420     		movs	r0, #4
 466 0032 FFF7FEFF 		bl	rccDisableAPB1L
 467              	.L22:
 468              		.loc 2 1070 1
 469 0036 00BF     		nop
 470 0038 0837     		adds	r7, r7, #8
 471              		.cfi_def_cfa_offset 8
 472 003a BD46     		mov	sp, r7
 473              		.cfi_def_cfa_register 13
 474              		@ sp needed
 475 003c 80BD     		pop	{r7, pc}
 476              	.L24:
 477 003e 00BF     		.align	2
 478              	.L23:
 479 0040 00000000 		.word	GPTD4
 480              		.cfi_endproc
 481              	.LFE434:
 482              		.size	gpt_lld_stop, .-gpt_lld_stop
 483              		.section	.text.gpt_lld_start_timer,"ax",%progbits
 484              		.align	1
 485              		.global	gpt_lld_start_timer
 486              		.syntax unified
 487              		.thumb
 488              		.thumb_func
 489              		.type	gpt_lld_start_timer, %function
 490              	gpt_lld_start_timer:
 491              	.LFB435:
 492              		.loc 2 1081 62
 493              		.cfi_startproc
 494              		@ args = 0, pretend = 0, frame = 8
 495              		@ frame_needed = 1, uses_anonymous_args = 0
 496              		@ link register save eliminated.
 497 0000 80B4     		push	{r7}
 498              		.cfi_def_cfa_offset 4
 499              		.cfi_offset 7, -4
 500 0002 83B0     		sub	sp, sp, #12
 501              		.cfi_def_cfa_offset 16
 502 0004 00AF     		add	r7, sp, #0
 503              		.cfi_def_cfa_register 7
 504 0006 7860     		str	r0, [r7, #4]
 505 0008 3960     		str	r1, [r7]
 506              		.loc 2 1085 7
 507 000a 7B68     		ldr	r3, [r7, #4]
 508 000c DB68     		ldr	r3, [r3, #12]
 509              		.loc 2 1085 20
 510 000e 3A68     		ldr	r2, [r7]
ARM GAS  C:\Users\DEVELO~1\AppData\Local\Temp\ccSM2v4h.s 			page 10


 511 0010 013A     		subs	r2, r2, #1
 512              		.loc 2 1085 18
 513 0012 DA62     		str	r2, [r3, #44]
 514              		.loc 2 1086 7
 515 0014 7B68     		ldr	r3, [r7, #4]
 516 0016 DB68     		ldr	r3, [r3, #12]
 517              		.loc 2 1086 18
 518 0018 0122     		movs	r2, #1
 519 001a 5A61     		str	r2, [r3, #20]
 520              		.loc 2 1087 7
 521 001c 7B68     		ldr	r3, [r7, #4]
 522 001e DB68     		ldr	r3, [r3, #12]
 523              		.loc 2 1087 18
 524 0020 0022     		movs	r2, #0
 525 0022 5A62     		str	r2, [r3, #36]
 526              		.loc 2 1092 7
 527 0024 7B68     		ldr	r3, [r7, #4]
 528 0026 DB68     		ldr	r3, [r3, #12]
 529              		.loc 2 1092 18
 530 0028 0022     		movs	r2, #0
 531 002a 1A61     		str	r2, [r3, #16]
 532              		.loc 2 1093 19
 533 002c 7B68     		ldr	r3, [r7, #4]
 534 002e 5B68     		ldr	r3, [r3, #4]
 535              		.loc 2 1093 27
 536 0030 5B68     		ldr	r3, [r3, #4]
 537              		.loc 2 1093 6
 538 0032 002B     		cmp	r3, #0
 539 0034 07D0     		beq	.L26
 540              		.loc 2 1094 9
 541 0036 7B68     		ldr	r3, [r7, #4]
 542 0038 DB68     		ldr	r3, [r3, #12]
 543              		.loc 2 1094 21
 544 003a DA68     		ldr	r2, [r3, #12]
 545              		.loc 2 1094 9
 546 003c 7B68     		ldr	r3, [r7, #4]
 547 003e DB68     		ldr	r3, [r3, #12]
 548              		.loc 2 1094 21
 549 0040 42F00102 		orr	r2, r2, #1
 550 0044 DA60     		str	r2, [r3, #12]
 551              	.L26:
 552              		.loc 2 1095 7
 553 0046 7B68     		ldr	r3, [r7, #4]
 554 0048 DB68     		ldr	r3, [r3, #12]
 555              		.loc 2 1095 18
 556 004a 8522     		movs	r2, #133
 557 004c 1A60     		str	r2, [r3]
 558              		.loc 2 1096 1
 559 004e 00BF     		nop
 560 0050 0C37     		adds	r7, r7, #12
 561              		.cfi_def_cfa_offset 4
 562 0052 BD46     		mov	sp, r7
 563              		.cfi_def_cfa_register 13
 564              		@ sp needed
 565 0054 80BC     		pop	{r7}
 566              		.cfi_restore 7
 567              		.cfi_def_cfa_offset 0
ARM GAS  C:\Users\DEVELO~1\AppData\Local\Temp\ccSM2v4h.s 			page 11


 568 0056 7047     		bx	lr
 569              		.cfi_endproc
 570              	.LFE435:
 571              		.size	gpt_lld_start_timer, .-gpt_lld_start_timer
 572              		.section	.text.gpt_lld_stop_timer,"ax",%progbits
 573              		.align	1
 574              		.global	gpt_lld_stop_timer
 575              		.syntax unified
 576              		.thumb
 577              		.thumb_func
 578              		.type	gpt_lld_stop_timer, %function
 579              	gpt_lld_stop_timer:
 580              	.LFB436:
 581              		.loc 2 1105 42
 582              		.cfi_startproc
 583              		@ args = 0, pretend = 0, frame = 8
 584              		@ frame_needed = 1, uses_anonymous_args = 0
 585              		@ link register save eliminated.
 586 0000 80B4     		push	{r7}
 587              		.cfi_def_cfa_offset 4
 588              		.cfi_offset 7, -4
 589 0002 83B0     		sub	sp, sp, #12
 590              		.cfi_def_cfa_offset 16
 591 0004 00AF     		add	r7, sp, #0
 592              		.cfi_def_cfa_register 7
 593 0006 7860     		str	r0, [r7, #4]
 594              		.loc 2 1107 7
 595 0008 7B68     		ldr	r3, [r7, #4]
 596 000a DB68     		ldr	r3, [r3, #12]
 597              		.loc 2 1107 18
 598 000c 0022     		movs	r2, #0
 599 000e 1A60     		str	r2, [r3]
 600              		.loc 2 1108 7
 601 0010 7B68     		ldr	r3, [r7, #4]
 602 0012 DB68     		ldr	r3, [r3, #12]
 603              		.loc 2 1108 18
 604 0014 0022     		movs	r2, #0
 605 0016 1A61     		str	r2, [r3, #16]
 606              		.loc 2 1111 7
 607 0018 7B68     		ldr	r3, [r7, #4]
 608 001a DB68     		ldr	r3, [r3, #12]
 609              		.loc 2 1111 19
 610 001c DA68     		ldr	r2, [r3, #12]
 611              		.loc 2 1111 7
 612 001e 7B68     		ldr	r3, [r7, #4]
 613 0020 DB68     		ldr	r3, [r3, #12]
 614              		.loc 2 1111 19
 615 0022 22F0FF02 		bic	r2, r2, #255
 616 0026 DA60     		str	r2, [r3, #12]
 617              		.loc 2 1112 1
 618 0028 00BF     		nop
 619 002a 0C37     		adds	r7, r7, #12
 620              		.cfi_def_cfa_offset 4
 621 002c BD46     		mov	sp, r7
 622              		.cfi_def_cfa_register 13
 623              		@ sp needed
 624 002e 80BC     		pop	{r7}
ARM GAS  C:\Users\DEVELO~1\AppData\Local\Temp\ccSM2v4h.s 			page 12


 625              		.cfi_restore 7
 626              		.cfi_def_cfa_offset 0
 627 0030 7047     		bx	lr
 628              		.cfi_endproc
 629              	.LFE436:
 630              		.size	gpt_lld_stop_timer, .-gpt_lld_stop_timer
 631              		.section	.text.gpt_lld_polled_delay,"ax",%progbits
 632              		.align	1
 633              		.global	gpt_lld_polled_delay
 634              		.syntax unified
 635              		.thumb
 636              		.thumb_func
 637              		.type	gpt_lld_polled_delay, %function
 638              	gpt_lld_polled_delay:
 639              	.LFB437:
 640              		.loc 2 1126 63
 641              		.cfi_startproc
 642              		@ args = 0, pretend = 0, frame = 8
 643              		@ frame_needed = 1, uses_anonymous_args = 0
 644              		@ link register save eliminated.
 645 0000 80B4     		push	{r7}
 646              		.cfi_def_cfa_offset 4
 647              		.cfi_offset 7, -4
 648 0002 83B0     		sub	sp, sp, #12
 649              		.cfi_def_cfa_offset 16
 650 0004 00AF     		add	r7, sp, #0
 651              		.cfi_def_cfa_register 7
 652 0006 7860     		str	r0, [r7, #4]
 653 0008 3960     		str	r1, [r7]
 654              		.loc 2 1130 7
 655 000a 7B68     		ldr	r3, [r7, #4]
 656 000c DB68     		ldr	r3, [r3, #12]
 657              		.loc 2 1130 18
 658 000e 0222     		movs	r2, #2
 659 0010 1A60     		str	r2, [r3]
 660              		.loc 2 1131 7
 661 0012 7B68     		ldr	r3, [r7, #4]
 662 0014 DB68     		ldr	r3, [r3, #12]
 663              		.loc 2 1131 20
 664 0016 3A68     		ldr	r2, [r7]
 665 0018 013A     		subs	r2, r2, #1
 666              		.loc 2 1131 18
 667 001a DA62     		str	r2, [r3, #44]
 668              		.loc 2 1132 7
 669 001c 7B68     		ldr	r3, [r7, #4]
 670 001e DB68     		ldr	r3, [r3, #12]
 671              		.loc 2 1132 18
 672 0020 0122     		movs	r2, #1
 673 0022 5A61     		str	r2, [r3, #20]
 674              		.loc 2 1133 7
 675 0024 7B68     		ldr	r3, [r7, #4]
 676 0026 DB68     		ldr	r3, [r3, #12]
 677              		.loc 2 1133 18
 678 0028 0022     		movs	r2, #0
 679 002a 1A61     		str	r2, [r3, #16]
 680              		.loc 2 1134 7
 681 002c 7B68     		ldr	r3, [r7, #4]
ARM GAS  C:\Users\DEVELO~1\AppData\Local\Temp\ccSM2v4h.s 			page 13


 682 002e DB68     		ldr	r3, [r3, #12]
 683              		.loc 2 1134 18
 684 0030 0D22     		movs	r2, #13
 685 0032 1A60     		str	r2, [r3]
 686              		.loc 2 1135 9
 687 0034 00BF     		nop
 688              	.L29:
 689              		.loc 2 1135 16 discriminator 1
 690 0036 7B68     		ldr	r3, [r7, #4]
 691 0038 DB68     		ldr	r3, [r3, #12]
 692              		.loc 2 1135 21 discriminator 1
 693 003a 1B69     		ldr	r3, [r3, #16]
 694              		.loc 2 1135 26 discriminator 1
 695 003c 03F00103 		and	r3, r3, #1
 696              		.loc 2 1135 10 discriminator 1
 697 0040 002B     		cmp	r3, #0
 698 0042 F8D0     		beq	.L29
 699              		.loc 2 1137 7
 700 0044 7B68     		ldr	r3, [r7, #4]
 701 0046 DB68     		ldr	r3, [r3, #12]
 702              		.loc 2 1137 17
 703 0048 0022     		movs	r2, #0
 704 004a 1A61     		str	r2, [r3, #16]
 705              		.loc 2 1138 1
 706 004c 00BF     		nop
 707 004e 0C37     		adds	r7, r7, #12
 708              		.cfi_def_cfa_offset 4
 709 0050 BD46     		mov	sp, r7
 710              		.cfi_def_cfa_register 13
 711              		@ sp needed
 712 0052 80BC     		pop	{r7}
 713              		.cfi_restore 7
 714              		.cfi_def_cfa_offset 0
 715 0054 7047     		bx	lr
 716              		.cfi_endproc
 717              	.LFE437:
 718              		.size	gpt_lld_polled_delay, .-gpt_lld_polled_delay
 719              		.section	.text.gpt_lld_serve_interrupt,"ax",%progbits
 720              		.align	1
 721              		.global	gpt_lld_serve_interrupt
 722              		.syntax unified
 723              		.thumb
 724              		.thumb_func
 725              		.type	gpt_lld_serve_interrupt, %function
 726              	gpt_lld_serve_interrupt:
 727              	.LFB438:
 728              		.loc 2 1147 47
 729              		.cfi_startproc
 730              		@ args = 0, pretend = 0, frame = 16
 731              		@ frame_needed = 1, uses_anonymous_args = 0
 732 0000 80B5     		push	{r7, lr}
 733              		.cfi_def_cfa_offset 8
 734              		.cfi_offset 7, -8
 735              		.cfi_offset 14, -4
 736 0002 84B0     		sub	sp, sp, #16
 737              		.cfi_def_cfa_offset 24
 738 0004 00AF     		add	r7, sp, #0
ARM GAS  C:\Users\DEVELO~1\AppData\Local\Temp\ccSM2v4h.s 			page 14


 739              		.cfi_def_cfa_register 7
 740 0006 7860     		str	r0, [r7, #4]
 741              		.loc 2 1150 13
 742 0008 7B68     		ldr	r3, [r7, #4]
 743 000a DB68     		ldr	r3, [r3, #12]
 744              		.loc 2 1150 7
 745 000c 1B69     		ldr	r3, [r3, #16]
 746 000e FB60     		str	r3, [r7, #12]
 747              		.loc 2 1151 13
 748 0010 7B68     		ldr	r3, [r7, #4]
 749 0012 DB68     		ldr	r3, [r3, #12]
 750              		.loc 2 1151 18
 751 0014 DB68     		ldr	r3, [r3, #12]
 752              		.loc 2 1151 25
 753 0016 DBB2     		uxtb	r3, r3
 754              		.loc 2 1151 6
 755 0018 FA68     		ldr	r2, [r7, #12]
 756 001a 1340     		ands	r3, r3, r2
 757 001c FB60     		str	r3, [r7, #12]
 758              		.loc 2 1152 7
 759 001e 7B68     		ldr	r3, [r7, #4]
 760 0020 DB68     		ldr	r3, [r3, #12]
 761              		.loc 2 1152 19
 762 0022 FA68     		ldr	r2, [r7, #12]
 763 0024 D243     		mvns	r2, r2
 764              		.loc 2 1152 17
 765 0026 1A61     		str	r2, [r3, #16]
 766              		.loc 2 1153 11
 767 0028 FB68     		ldr	r3, [r7, #12]
 768 002a 03F00103 		and	r3, r3, #1
 769              		.loc 2 1153 6
 770 002e 002B     		cmp	r3, #0
 771 0030 13D0     		beq	.L33
 772              		.loc 2 1154 5
 773 0032 7B68     		ldr	r3, [r7, #4]
 774 0034 1B78     		ldrb	r3, [r3]	@ zero_extendqisi2
 775 0036 042B     		cmp	r3, #4
 776 0038 05D1     		bne	.L32
 777              		.loc 2 1154 5 is_stmt 0 discriminator 1
 778 003a 7B68     		ldr	r3, [r7, #4]
 779 003c 0222     		movs	r2, #2
 780 003e 1A70     		strb	r2, [r3]
 781 0040 7868     		ldr	r0, [r7, #4]
 782 0042 FFF7FEFF 		bl	gpt_lld_stop_timer
 783              	.L32:
 784              		.loc 2 1154 5 discriminator 3
 785 0046 7B68     		ldr	r3, [r7, #4]
 786 0048 5B68     		ldr	r3, [r3, #4]
 787 004a 5B68     		ldr	r3, [r3, #4]
 788 004c 002B     		cmp	r3, #0
 789 004e 04D0     		beq	.L33
 790              		.loc 2 1154 5 discriminator 4
 791 0050 7B68     		ldr	r3, [r7, #4]
 792 0052 5B68     		ldr	r3, [r3, #4]
 793 0054 5B68     		ldr	r3, [r3, #4]
 794 0056 7868     		ldr	r0, [r7, #4]
 795 0058 9847     		blx	r3
ARM GAS  C:\Users\DEVELO~1\AppData\Local\Temp\ccSM2v4h.s 			page 15


 796              	.LVL0:
 797              	.L33:
 798              		.loc 2 1156 1 is_stmt 1
 799 005a 00BF     		nop
 800 005c 1037     		adds	r7, r7, #16
 801              		.cfi_def_cfa_offset 8
 802 005e BD46     		mov	sp, r7
 803              		.cfi_def_cfa_register 13
 804              		@ sp needed
 805 0060 80BD     		pop	{r7, pc}
 806              		.cfi_endproc
 807              	.LFE438:
 808              		.size	gpt_lld_serve_interrupt, .-gpt_lld_serve_interrupt
 809              		.text
 810              	.Letext0:
 811              		.file 3 "c:\\chibistudio\\tools\\gnu tools arm embedded\\11.3 2022.08\\arm-none-eabi\\include\\mac
 812              		.file 4 "c:\\chibistudio\\tools\\gnu tools arm embedded\\11.3 2022.08\\arm-none-eabi\\include\\sys
 813              		.file 5 "../../../os/common/ext/ST/STM32H7xx/stm32h743xx.h"
 814              		.file 6 "../../../os/hal/ports/STM32/LLD/TIMv1/stm32_tim.h"
 815              		.file 7 "../../../os/hal/include/hal_gpt.h"
 816              		.file 8 "../../../os/hal/ports/STM32/LLD/TIMv1/hal_gpt_lld.h"