ARM GAS  C:\Users\DEVELO~1\AppData\Local\Temp\ccX8mAEU.s 			page 1


   1              		.cpu cortex-m7
   2              		.arch armv7e-m
   3              		.fpu softvfp
   4              		.eabi_attribute 20, 1
   5              		.eabi_attribute 21, 1
   6              		.eabi_attribute 23, 3
   7              		.eabi_attribute 24, 1
   8              		.eabi_attribute 25, 1
   9              		.eabi_attribute 26, 1
  10              		.eabi_attribute 30, 6
  11              		.eabi_attribute 34, 1
  12              		.eabi_attribute 18, 4
  13              		.file	"hal_adc_lld.c"
  14              		.text
  15              	.Ltext0:
  16              		.cfi_sections	.debug_frame
  17              		.section	.text.chSysLockFromISR,"ax",%progbits
  18              		.align	1
  19              		.syntax unified
  20              		.thumb
  21              		.thumb_func
  22              		.type	chSysLockFromISR, %function
  23              	chSysLockFromISR:
  24              	.LFB204:
  25              		.file 1 "../../../os/rt/include/chsys.h"
  26              		.loc 1 451 43
  27              		.cfi_startproc
  28              		@ args = 0, pretend = 0, frame = 8
  29              		@ frame_needed = 1, uses_anonymous_args = 0
  30              		@ link register save eliminated.
  31 0000 80B4     		push	{r7}
  32              		.cfi_def_cfa_offset 4
  33              		.cfi_offset 7, -4
  34 0002 83B0     		sub	sp, sp, #12
  35              		.cfi_def_cfa_offset 16
  36 0004 00AF     		add	r7, sp, #0
  37              		.cfi_def_cfa_register 7
  38 0006 3023     		movs	r3, #48
  39 0008 7B60     		str	r3, [r7, #4]
  40              	.LBB26:
  41              	.LBB27:
  42              	.LBB28:
  43              	.LBB29:
  44              	.LBB30:
  45              	.LBB31:
  46              		.file 2 "../../../os/common/ext/ARM/CMSIS/Core/Include/cmsis_gcc.h"
  47              		.loc 2 493 3
  48 000a 7B68     		ldr	r3, [r7, #4]
  49              		.syntax unified
  50              	@ 493 "../../../os/common/ext/ARM/CMSIS/Core/Include/cmsis_gcc.h" 1
  51 000c 83F31188 		MSR basepri, r3
  52              	@ 0 "" 2
  53              		.loc 2 494 1
  54              		.thumb
  55              		.syntax unified
  56 0010 00BF     		nop
  57              	.LBE31:
ARM GAS  C:\Users\DEVELO~1\AppData\Local\Temp\ccX8mAEU.s 			page 2


  58              	.LBE30:
  59              		.file 3 "../../../os/common/ports/ARMv7-M/chcore.h"
  60              		.loc 3 840 1
  61 0012 00BF     		nop
  62              	.LBE29:
  63              	.LBE28:
  64              		.loc 3 865 1
  65 0014 00BF     		nop
  66              	.LBE27:
  67              	.LBE26:
  68              		.loc 1 456 1
  69 0016 00BF     		nop
  70 0018 0C37     		adds	r7, r7, #12
  71              		.cfi_def_cfa_offset 4
  72 001a BD46     		mov	sp, r7
  73              		.cfi_def_cfa_register 13
  74              		@ sp needed
  75 001c 80BC     		pop	{r7}
  76              		.cfi_restore 7
  77              		.cfi_def_cfa_offset 0
  78 001e 7047     		bx	lr
  79              		.cfi_endproc
  80              	.LFE204:
  81              		.size	chSysLockFromISR, .-chSysLockFromISR
  82              		.section	.text.chSysUnlockFromISR,"ax",%progbits
  83              		.align	1
  84              		.syntax unified
  85              		.thumb
  86              		.thumb_func
  87              		.type	chSysUnlockFromISR, %function
  88              	chSysUnlockFromISR:
  89              	.LFB205:
  90              		.loc 1 473 45
  91              		.cfi_startproc
  92              		@ args = 0, pretend = 0, frame = 8
  93              		@ frame_needed = 1, uses_anonymous_args = 0
  94              		@ link register save eliminated.
  95 0000 80B4     		push	{r7}
  96              		.cfi_def_cfa_offset 4
  97              		.cfi_offset 7, -4
  98 0002 83B0     		sub	sp, sp, #12
  99              		.cfi_def_cfa_offset 16
 100 0004 00AF     		add	r7, sp, #0
 101              		.cfi_def_cfa_register 7
 102 0006 0023     		movs	r3, #0
 103 0008 7B60     		str	r3, [r7, #4]
 104              	.LBB32:
 105              	.LBB33:
 106              	.LBB34:
 107              	.LBB35:
 108              	.LBB36:
 109              	.LBB37:
 110              		.loc 2 493 3
 111 000a 7B68     		ldr	r3, [r7, #4]
 112              		.syntax unified
 113              	@ 493 "../../../os/common/ext/ARM/CMSIS/Core/Include/cmsis_gcc.h" 1
 114 000c 83F31188 		MSR basepri, r3
ARM GAS  C:\Users\DEVELO~1\AppData\Local\Temp\ccX8mAEU.s 			page 3


 115              	@ 0 "" 2
 116              		.loc 2 494 1
 117              		.thumb
 118              		.syntax unified
 119 0010 00BF     		nop
 120              	.LBE37:
 121              	.LBE36:
 122              		.loc 3 854 1
 123 0012 00BF     		nop
 124              	.LBE35:
 125              	.LBE34:
 126              		.loc 3 876 1
 127 0014 00BF     		nop
 128              	.LBE33:
 129              	.LBE32:
 130              		.loc 1 478 1
 131 0016 00BF     		nop
 132 0018 0C37     		adds	r7, r7, #12
 133              		.cfi_def_cfa_offset 4
 134 001a BD46     		mov	sp, r7
 135              		.cfi_def_cfa_register 13
 136              		@ sp needed
 137 001c 80BC     		pop	{r7}
 138              		.cfi_restore 7
 139              		.cfi_def_cfa_offset 0
 140 001e 7047     		bx	lr
 141              		.cfi_endproc
 142              	.LFE205:
 143              		.size	chSysUnlockFromISR, .-chSysUnlockFromISR
 144              		.section	.text.osalSysLockFromISR,"ax",%progbits
 145              		.align	1
 146              		.syntax unified
 147              		.thumb
 148              		.thumb_func
 149              		.type	osalSysLockFromISR, %function
 150              	osalSysLockFromISR:
 151              	.LFB352:
 152              		.file 4 "../../../os/hal/osal/rt-nil/osal.h"
 153              		.loc 4 595 45
 154              		.cfi_startproc
 155              		@ args = 0, pretend = 0, frame = 0
 156              		@ frame_needed = 1, uses_anonymous_args = 0
 157 0000 80B5     		push	{r7, lr}
 158              		.cfi_def_cfa_offset 8
 159              		.cfi_offset 7, -8
 160              		.cfi_offset 14, -4
 161 0002 00AF     		add	r7, sp, #0
 162              		.cfi_def_cfa_register 7
 163              		.loc 4 597 3
 164 0004 FFF7FEFF 		bl	chSysLockFromISR
 165              		.loc 4 598 1
 166 0008 00BF     		nop
 167 000a 80BD     		pop	{r7, pc}
 168              		.cfi_endproc
 169              	.LFE352:
 170              		.size	osalSysLockFromISR, .-osalSysLockFromISR
 171              		.section	.text.osalSysUnlockFromISR,"ax",%progbits
ARM GAS  C:\Users\DEVELO~1\AppData\Local\Temp\ccX8mAEU.s 			page 4


 172              		.align	1
 173              		.syntax unified
 174              		.thumb
 175              		.thumb_func
 176              		.type	osalSysUnlockFromISR, %function
 177              	osalSysUnlockFromISR:
 178              	.LFB353:
 179              		.loc 4 606 47
 180              		.cfi_startproc
 181              		@ args = 0, pretend = 0, frame = 0
 182              		@ frame_needed = 1, uses_anonymous_args = 0
 183 0000 80B5     		push	{r7, lr}
 184              		.cfi_def_cfa_offset 8
 185              		.cfi_offset 7, -8
 186              		.cfi_offset 14, -4
 187 0002 00AF     		add	r7, sp, #0
 188              		.cfi_def_cfa_register 7
 189              		.loc 4 608 3
 190 0004 FFF7FEFF 		bl	chSysUnlockFromISR
 191              		.loc 4 609 1
 192 0008 00BF     		nop
 193 000a 80BD     		pop	{r7, pc}
 194              		.cfi_endproc
 195              	.LFE353:
 196              		.size	osalSysUnlockFromISR, .-osalSysUnlockFromISR
 197              		.section	.text.osalSysPolledDelayX,"ax",%progbits
 198              		.align	1
 199              		.syntax unified
 200              		.thumb
 201              		.thumb_func
 202              		.type	osalSysPolledDelayX, %function
 203              	osalSysPolledDelayX:
 204              	.LFB356:
 205              		.loc 4 653 56
 206              		.cfi_startproc
 207              		@ args = 0, pretend = 0, frame = 8
 208              		@ frame_needed = 1, uses_anonymous_args = 0
 209 0000 80B5     		push	{r7, lr}
 210              		.cfi_def_cfa_offset 8
 211              		.cfi_offset 7, -8
 212              		.cfi_offset 14, -4
 213 0002 82B0     		sub	sp, sp, #8
 214              		.cfi_def_cfa_offset 16
 215 0004 00AF     		add	r7, sp, #0
 216              		.cfi_def_cfa_register 7
 217 0006 7860     		str	r0, [r7, #4]
 218              		.loc 4 655 3
 219 0008 7868     		ldr	r0, [r7, #4]
 220 000a FFF7FEFF 		bl	chSysPolledDelayX
 221              		.loc 4 656 1
 222 000e 00BF     		nop
 223 0010 0837     		adds	r7, r7, #8
 224              		.cfi_def_cfa_offset 8
 225 0012 BD46     		mov	sp, r7
 226              		.cfi_def_cfa_register 13
 227              		@ sp needed
 228 0014 80BD     		pop	{r7, pc}
ARM GAS  C:\Users\DEVELO~1\AppData\Local\Temp\ccX8mAEU.s 			page 5


 229              		.cfi_endproc
 230              	.LFE356:
 231              		.size	osalSysPolledDelayX, .-osalSysPolledDelayX
 232              		.section	.text.osalThreadResumeI,"ax",%progbits
 233              		.align	1
 234              		.syntax unified
 235              		.thumb
 236              		.thumb_func
 237              		.type	osalThreadResumeI, %function
 238              	osalThreadResumeI:
 239              	.LFB367:
 240              		.loc 4 837 74
 241              		.cfi_startproc
 242              		@ args = 0, pretend = 0, frame = 8
 243              		@ frame_needed = 1, uses_anonymous_args = 0
 244 0000 80B5     		push	{r7, lr}
 245              		.cfi_def_cfa_offset 8
 246              		.cfi_offset 7, -8
 247              		.cfi_offset 14, -4
 248 0002 82B0     		sub	sp, sp, #8
 249              		.cfi_def_cfa_offset 16
 250 0004 00AF     		add	r7, sp, #0
 251              		.cfi_def_cfa_register 7
 252 0006 7860     		str	r0, [r7, #4]
 253 0008 3960     		str	r1, [r7]
 254              		.loc 4 839 3
 255 000a 3968     		ldr	r1, [r7]
 256 000c 7868     		ldr	r0, [r7, #4]
 257 000e FFF7FEFF 		bl	chThdResumeI
 258              		.loc 4 840 1
 259 0012 00BF     		nop
 260 0014 0837     		adds	r7, r7, #8
 261              		.cfi_def_cfa_offset 8
 262 0016 BD46     		mov	sp, r7
 263              		.cfi_def_cfa_register 13
 264              		@ sp needed
 265 0018 80BD     		pop	{r7, pc}
 266              		.cfi_endproc
 267              	.LFE367:
 268              		.size	osalThreadResumeI, .-osalThreadResumeI
 269              		.section	.text.__rccResetAHB1,"ax",%progbits
 270              		.align	1
 271              		.syntax unified
 272              		.thumb
 273              		.thumb_func
 274              		.type	__rccResetAHB1, %function
 275              	__rccResetAHB1:
 276              	.LFB384:
 277              		.file 5 "../../../os/hal/ports/STM32/STM32H7xx/stm32_rcc.h"
 278              		.loc 5 97 52
 279              		.cfi_startproc
 280              		@ args = 0, pretend = 0, frame = 8
 281              		@ frame_needed = 1, uses_anonymous_args = 0
 282              		@ link register save eliminated.
 283 0000 80B4     		push	{r7}
 284              		.cfi_def_cfa_offset 4
 285              		.cfi_offset 7, -4
ARM GAS  C:\Users\DEVELO~1\AppData\Local\Temp\ccX8mAEU.s 			page 6


 286 0002 83B0     		sub	sp, sp, #12
 287              		.cfi_def_cfa_offset 16
 288 0004 00AF     		add	r7, sp, #0
 289              		.cfi_def_cfa_register 7
 290 0006 7860     		str	r0, [r7, #4]
 291              		.loc 5 100 17
 292 0008 0C4B     		ldr	r3, .L8
 293 000a D3F88020 		ldr	r2, [r3, #128]
 294 000e 0B49     		ldr	r1, .L8
 295 0010 7B68     		ldr	r3, [r7, #4]
 296 0012 1343     		orrs	r3, r3, r2
 297 0014 C1F88030 		str	r3, [r1, #128]
 298              		.loc 5 101 17
 299 0018 084B     		ldr	r3, .L8
 300 001a D3F88020 		ldr	r2, [r3, #128]
 301              		.loc 5 101 20
 302 001e 7B68     		ldr	r3, [r7, #4]
 303 0020 DB43     		mvns	r3, r3
 304              		.loc 5 101 17
 305 0022 0649     		ldr	r1, .L8
 306 0024 1340     		ands	r3, r3, r2
 307 0026 C1F88030 		str	r3, [r1, #128]
 308              		.loc 5 102 12
 309 002a 044B     		ldr	r3, .L8
 310              		.loc 5 102 3
 311 002c D3F88030 		ldr	r3, [r3, #128]
 312              		.loc 5 103 1
 313 0030 00BF     		nop
 314 0032 0C37     		adds	r7, r7, #12
 315              		.cfi_def_cfa_offset 4
 316 0034 BD46     		mov	sp, r7
 317              		.cfi_def_cfa_register 13
 318              		@ sp needed
 319 0036 80BC     		pop	{r7}
 320              		.cfi_restore 7
 321              		.cfi_def_cfa_offset 0
 322 0038 7047     		bx	lr
 323              	.L9:
 324 003a 00BF     		.align	2
 325              	.L8:
 326 003c 00440258 		.word	1476543488
 327              		.cfi_endproc
 328              	.LFE384:
 329              		.size	__rccResetAHB1, .-__rccResetAHB1
 330              		.section	.text.__rccResetAHB4,"ax",%progbits
 331              		.align	1
 332              		.syntax unified
 333              		.thumb
 334              		.thumb_func
 335              		.type	__rccResetAHB4, %function
 336              	__rccResetAHB4:
 337              	.LFB387:
 338              		.loc 5 121 52
 339              		.cfi_startproc
 340              		@ args = 0, pretend = 0, frame = 8
 341              		@ frame_needed = 1, uses_anonymous_args = 0
 342              		@ link register save eliminated.
ARM GAS  C:\Users\DEVELO~1\AppData\Local\Temp\ccX8mAEU.s 			page 7


 343 0000 80B4     		push	{r7}
 344              		.cfi_def_cfa_offset 4
 345              		.cfi_offset 7, -4
 346 0002 83B0     		sub	sp, sp, #12
 347              		.cfi_def_cfa_offset 16
 348 0004 00AF     		add	r7, sp, #0
 349              		.cfi_def_cfa_register 7
 350 0006 7860     		str	r0, [r7, #4]
 351              		.loc 5 124 17
 352 0008 0C4B     		ldr	r3, .L11
 353 000a D3F88820 		ldr	r2, [r3, #136]
 354 000e 0B49     		ldr	r1, .L11
 355 0010 7B68     		ldr	r3, [r7, #4]
 356 0012 1343     		orrs	r3, r3, r2
 357 0014 C1F88830 		str	r3, [r1, #136]
 358              		.loc 5 125 17
 359 0018 084B     		ldr	r3, .L11
 360 001a D3F88820 		ldr	r2, [r3, #136]
 361              		.loc 5 125 20
 362 001e 7B68     		ldr	r3, [r7, #4]
 363 0020 DB43     		mvns	r3, r3
 364              		.loc 5 125 17
 365 0022 0649     		ldr	r1, .L11
 366 0024 1340     		ands	r3, r3, r2
 367 0026 C1F88830 		str	r3, [r1, #136]
 368              		.loc 5 126 12
 369 002a 044B     		ldr	r3, .L11
 370              		.loc 5 126 3
 371 002c D3F88830 		ldr	r3, [r3, #136]
 372              		.loc 5 127 1
 373 0030 00BF     		nop
 374 0032 0C37     		adds	r7, r7, #12
 375              		.cfi_def_cfa_offset 4
 376 0034 BD46     		mov	sp, r7
 377              		.cfi_def_cfa_register 13
 378              		@ sp needed
 379 0036 80BC     		pop	{r7}
 380              		.cfi_restore 7
 381              		.cfi_def_cfa_offset 0
 382 0038 7047     		bx	lr
 383              	.L12:
 384 003a 00BF     		.align	2
 385              	.L11:
 386 003c 00440258 		.word	1476543488
 387              		.cfi_endproc
 388              	.LFE387:
 389              		.size	__rccResetAHB4, .-__rccResetAHB4
 390              		.section	.text.rccEnableAHB1,"ax",%progbits
 391              		.align	1
 392              		.syntax unified
 393              		.thumb
 394              		.thumb_func
 395              		.type	rccEnableAHB1, %function
 396              	rccEnableAHB1:
 397              	.LFB403:
 398              		.loc 5 586 60
 399              		.cfi_startproc
ARM GAS  C:\Users\DEVELO~1\AppData\Local\Temp\ccX8mAEU.s 			page 8


 400              		@ args = 0, pretend = 0, frame = 8
 401              		@ frame_needed = 1, uses_anonymous_args = 0
 402              		@ link register save eliminated.
 403 0000 80B4     		push	{r7}
 404              		.cfi_def_cfa_offset 4
 405              		.cfi_offset 7, -4
 406 0002 83B0     		sub	sp, sp, #12
 407              		.cfi_def_cfa_offset 16
 408 0004 00AF     		add	r7, sp, #0
 409              		.cfi_def_cfa_register 7
 410 0006 7860     		str	r0, [r7, #4]
 411 0008 0B46     		mov	r3, r1
 412 000a FB70     		strb	r3, [r7, #3]
 413              		.loc 5 590 19
 414 000c 124B     		ldr	r3, .L16
 415 000e D3F8D820 		ldr	r2, [r3, #216]
 416 0012 1149     		ldr	r1, .L16
 417 0014 7B68     		ldr	r3, [r7, #4]
 418 0016 1343     		orrs	r3, r3, r2
 419 0018 C1F8D830 		str	r3, [r1, #216]
 420              		.loc 5 591 6
 421 001c FB78     		ldrb	r3, [r7, #3]	@ zero_extendqisi2
 422 001e 002B     		cmp	r3, #0
 423 0020 08D0     		beq	.L14
 424              		.loc 5 592 23
 425 0022 0D4B     		ldr	r3, .L16
 426 0024 D3F80021 		ldr	r2, [r3, #256]
 427 0028 0B49     		ldr	r1, .L16
 428 002a 7B68     		ldr	r3, [r7, #4]
 429 002c 1343     		orrs	r3, r3, r2
 430 002e C1F80031 		str	r3, [r1, #256]
 431 0032 08E0     		b	.L15
 432              	.L14:
 433              		.loc 5 595 23
 434 0034 084B     		ldr	r3, .L16
 435 0036 D3F80021 		ldr	r2, [r3, #256]
 436              		.loc 5 595 26
 437 003a 7B68     		ldr	r3, [r7, #4]
 438 003c DB43     		mvns	r3, r3
 439              		.loc 5 595 23
 440 003e 0649     		ldr	r1, .L16
 441 0040 1340     		ands	r3, r3, r2
 442 0042 C1F80031 		str	r3, [r1, #256]
 443              	.L15:
 444              		.loc 5 597 15
 445 0046 044B     		ldr	r3, .L16
 446              		.loc 5 597 3
 447 0048 D3F80031 		ldr	r3, [r3, #256]
 448              		.loc 5 609 1
 449 004c 00BF     		nop
 450 004e 0C37     		adds	r7, r7, #12
 451              		.cfi_def_cfa_offset 4
 452 0050 BD46     		mov	sp, r7
 453              		.cfi_def_cfa_register 13
 454              		@ sp needed
 455 0052 80BC     		pop	{r7}
 456              		.cfi_restore 7
ARM GAS  C:\Users\DEVELO~1\AppData\Local\Temp\ccX8mAEU.s 			page 9


 457              		.cfi_def_cfa_offset 0
 458 0054 7047     		bx	lr
 459              	.L17:
 460 0056 00BF     		.align	2
 461              	.L16:
 462 0058 00440258 		.word	1476543488
 463              		.cfi_endproc
 464              	.LFE403:
 465              		.size	rccEnableAHB1, .-rccEnableAHB1
 466              		.section	.text.rccDisableAHB1,"ax",%progbits
 467              		.align	1
 468              		.syntax unified
 469              		.thumb
 470              		.thumb_func
 471              		.type	rccDisableAHB1, %function
 472              	rccDisableAHB1:
 473              	.LFB404:
 474              		.loc 5 618 52
 475              		.cfi_startproc
 476              		@ args = 0, pretend = 0, frame = 8
 477              		@ frame_needed = 1, uses_anonymous_args = 0
 478              		@ link register save eliminated.
 479 0000 80B4     		push	{r7}
 480              		.cfi_def_cfa_offset 4
 481              		.cfi_offset 7, -4
 482 0002 83B0     		sub	sp, sp, #12
 483              		.cfi_def_cfa_offset 16
 484 0004 00AF     		add	r7, sp, #0
 485              		.cfi_def_cfa_register 7
 486 0006 7860     		str	r0, [r7, #4]
 487              		.loc 5 628 19
 488 0008 0C4B     		ldr	r3, .L19
 489 000a D3F8D820 		ldr	r2, [r3, #216]
 490              		.loc 5 628 22
 491 000e 7B68     		ldr	r3, [r7, #4]
 492 0010 DB43     		mvns	r3, r3
 493              		.loc 5 628 19
 494 0012 0A49     		ldr	r1, .L19
 495 0014 1340     		ands	r3, r3, r2
 496 0016 C1F8D830 		str	r3, [r1, #216]
 497              		.loc 5 629 21
 498 001a 084B     		ldr	r3, .L19
 499 001c D3F80021 		ldr	r2, [r3, #256]
 500              		.loc 5 629 24
 501 0020 7B68     		ldr	r3, [r7, #4]
 502 0022 DB43     		mvns	r3, r3
 503              		.loc 5 629 21
 504 0024 0549     		ldr	r1, .L19
 505 0026 1340     		ands	r3, r3, r2
 506 0028 C1F80031 		str	r3, [r1, #256]
 507              		.loc 5 630 15
 508 002c 034B     		ldr	r3, .L19
 509              		.loc 5 630 3
 510 002e D3F80031 		ldr	r3, [r3, #256]
 511              		.loc 5 643 1
 512 0032 00BF     		nop
 513 0034 0C37     		adds	r7, r7, #12
ARM GAS  C:\Users\DEVELO~1\AppData\Local\Temp\ccX8mAEU.s 			page 10


 514              		.cfi_def_cfa_offset 4
 515 0036 BD46     		mov	sp, r7
 516              		.cfi_def_cfa_register 13
 517              		@ sp needed
 518 0038 80BC     		pop	{r7}
 519              		.cfi_restore 7
 520              		.cfi_def_cfa_offset 0
 521 003a 7047     		bx	lr
 522              	.L20:
 523              		.align	2
 524              	.L19:
 525 003c 00440258 		.word	1476543488
 526              		.cfi_endproc
 527              	.LFE404:
 528              		.size	rccDisableAHB1, .-rccDisableAHB1
 529              		.section	.text.rccResetAHB1,"ax",%progbits
 530              		.align	1
 531              		.syntax unified
 532              		.thumb
 533              		.thumb_func
 534              		.type	rccResetAHB1, %function
 535              	rccResetAHB1:
 536              	.LFB405:
 537              		.loc 5 652 50
 538              		.cfi_startproc
 539              		@ args = 0, pretend = 0, frame = 8
 540              		@ frame_needed = 1, uses_anonymous_args = 0
 541 0000 80B5     		push	{r7, lr}
 542              		.cfi_def_cfa_offset 8
 543              		.cfi_offset 7, -8
 544              		.cfi_offset 14, -4
 545 0002 82B0     		sub	sp, sp, #8
 546              		.cfi_def_cfa_offset 16
 547 0004 00AF     		add	r7, sp, #0
 548              		.cfi_def_cfa_register 7
 549 0006 7860     		str	r0, [r7, #4]
 550              		.loc 5 664 3
 551 0008 7868     		ldr	r0, [r7, #4]
 552 000a FFF7FEFF 		bl	__rccResetAHB1
 553              		.loc 5 665 1
 554 000e 00BF     		nop
 555 0010 0837     		adds	r7, r7, #8
 556              		.cfi_def_cfa_offset 8
 557 0012 BD46     		mov	sp, r7
 558              		.cfi_def_cfa_register 13
 559              		@ sp needed
 560 0014 80BD     		pop	{r7, pc}
 561              		.cfi_endproc
 562              	.LFE405:
 563              		.size	rccResetAHB1, .-rccResetAHB1
 564              		.section	.text.rccEnableAHB4,"ax",%progbits
 565              		.align	1
 566              		.syntax unified
 567              		.thumb
 568              		.thumb_func
 569              		.type	rccEnableAHB4, %function
 570              	rccEnableAHB4:
ARM GAS  C:\Users\DEVELO~1\AppData\Local\Temp\ccX8mAEU.s 			page 11


 571              	.LFB412:
 572              		.loc 5 853 60
 573              		.cfi_startproc
 574              		@ args = 0, pretend = 0, frame = 8
 575              		@ frame_needed = 1, uses_anonymous_args = 0
 576              		@ link register save eliminated.
 577 0000 80B4     		push	{r7}
 578              		.cfi_def_cfa_offset 4
 579              		.cfi_offset 7, -4
 580 0002 83B0     		sub	sp, sp, #12
 581              		.cfi_def_cfa_offset 16
 582 0004 00AF     		add	r7, sp, #0
 583              		.cfi_def_cfa_register 7
 584 0006 7860     		str	r0, [r7, #4]
 585 0008 0B46     		mov	r3, r1
 586 000a FB70     		strb	r3, [r7, #3]
 587              		.loc 5 857 19
 588 000c 124B     		ldr	r3, .L25
 589 000e D3F8E020 		ldr	r2, [r3, #224]
 590 0012 1149     		ldr	r1, .L25
 591 0014 7B68     		ldr	r3, [r7, #4]
 592 0016 1343     		orrs	r3, r3, r2
 593 0018 C1F8E030 		str	r3, [r1, #224]
 594              		.loc 5 858 6
 595 001c FB78     		ldrb	r3, [r7, #3]	@ zero_extendqisi2
 596 001e 002B     		cmp	r3, #0
 597 0020 08D0     		beq	.L23
 598              		.loc 5 859 23
 599 0022 0D4B     		ldr	r3, .L25
 600 0024 D3F80821 		ldr	r2, [r3, #264]
 601 0028 0B49     		ldr	r1, .L25
 602 002a 7B68     		ldr	r3, [r7, #4]
 603 002c 1343     		orrs	r3, r3, r2
 604 002e C1F80831 		str	r3, [r1, #264]
 605 0032 08E0     		b	.L24
 606              	.L23:
 607              		.loc 5 862 23
 608 0034 084B     		ldr	r3, .L25
 609 0036 D3F80821 		ldr	r2, [r3, #264]
 610              		.loc 5 862 26
 611 003a 7B68     		ldr	r3, [r7, #4]
 612 003c DB43     		mvns	r3, r3
 613              		.loc 5 862 23
 614 003e 0649     		ldr	r1, .L25
 615 0040 1340     		ands	r3, r3, r2
 616 0042 C1F80831 		str	r3, [r1, #264]
 617              	.L24:
 618              		.loc 5 864 15
 619 0046 044B     		ldr	r3, .L25
 620              		.loc 5 864 3
 621 0048 D3F80831 		ldr	r3, [r3, #264]
 622              		.loc 5 876 1
 623 004c 00BF     		nop
 624 004e 0C37     		adds	r7, r7, #12
 625              		.cfi_def_cfa_offset 4
 626 0050 BD46     		mov	sp, r7
 627              		.cfi_def_cfa_register 13
ARM GAS  C:\Users\DEVELO~1\AppData\Local\Temp\ccX8mAEU.s 			page 12


 628              		@ sp needed
 629 0052 80BC     		pop	{r7}
 630              		.cfi_restore 7
 631              		.cfi_def_cfa_offset 0
 632 0054 7047     		bx	lr
 633              	.L26:
 634 0056 00BF     		.align	2
 635              	.L25:
 636 0058 00440258 		.word	1476543488
 637              		.cfi_endproc
 638              	.LFE412:
 639              		.size	rccEnableAHB4, .-rccEnableAHB4
 640              		.section	.text.rccDisableAHB4,"ax",%progbits
 641              		.align	1
 642              		.syntax unified
 643              		.thumb
 644              		.thumb_func
 645              		.type	rccDisableAHB4, %function
 646              	rccDisableAHB4:
 647              	.LFB413:
 648              		.loc 5 885 52
 649              		.cfi_startproc
 650              		@ args = 0, pretend = 0, frame = 8
 651              		@ frame_needed = 1, uses_anonymous_args = 0
 652              		@ link register save eliminated.
 653 0000 80B4     		push	{r7}
 654              		.cfi_def_cfa_offset 4
 655              		.cfi_offset 7, -4
 656 0002 83B0     		sub	sp, sp, #12
 657              		.cfi_def_cfa_offset 16
 658 0004 00AF     		add	r7, sp, #0
 659              		.cfi_def_cfa_register 7
 660 0006 7860     		str	r0, [r7, #4]
 661              		.loc 5 895 19
 662 0008 0C4B     		ldr	r3, .L28
 663 000a D3F8E020 		ldr	r2, [r3, #224]
 664              		.loc 5 895 22
 665 000e 7B68     		ldr	r3, [r7, #4]
 666 0010 DB43     		mvns	r3, r3
 667              		.loc 5 895 19
 668 0012 0A49     		ldr	r1, .L28
 669 0014 1340     		ands	r3, r3, r2
 670 0016 C1F8E030 		str	r3, [r1, #224]
 671              		.loc 5 896 21
 672 001a 084B     		ldr	r3, .L28
 673 001c D3F80821 		ldr	r2, [r3, #264]
 674              		.loc 5 896 24
 675 0020 7B68     		ldr	r3, [r7, #4]
 676 0022 DB43     		mvns	r3, r3
 677              		.loc 5 896 21
 678 0024 0549     		ldr	r1, .L28
 679 0026 1340     		ands	r3, r3, r2
 680 0028 C1F80831 		str	r3, [r1, #264]
 681              		.loc 5 897 15
 682 002c 034B     		ldr	r3, .L28
 683              		.loc 5 897 3
 684 002e D3F80831 		ldr	r3, [r3, #264]
ARM GAS  C:\Users\DEVELO~1\AppData\Local\Temp\ccX8mAEU.s 			page 13


 685              		.loc 5 910 1
 686 0032 00BF     		nop
 687 0034 0C37     		adds	r7, r7, #12
 688              		.cfi_def_cfa_offset 4
 689 0036 BD46     		mov	sp, r7
 690              		.cfi_def_cfa_register 13
 691              		@ sp needed
 692 0038 80BC     		pop	{r7}
 693              		.cfi_restore 7
 694              		.cfi_def_cfa_offset 0
 695 003a 7047     		bx	lr
 696              	.L29:
 697              		.align	2
 698              	.L28:
 699 003c 00440258 		.word	1476543488
 700              		.cfi_endproc
 701              	.LFE413:
 702              		.size	rccDisableAHB4, .-rccDisableAHB4
 703              		.section	.text.rccResetAHB4,"ax",%progbits
 704              		.align	1
 705              		.syntax unified
 706              		.thumb
 707              		.thumb_func
 708              		.type	rccResetAHB4, %function
 709              	rccResetAHB4:
 710              	.LFB414:
 711              		.loc 5 919 50
 712              		.cfi_startproc
 713              		@ args = 0, pretend = 0, frame = 8
 714              		@ frame_needed = 1, uses_anonymous_args = 0
 715 0000 80B5     		push	{r7, lr}
 716              		.cfi_def_cfa_offset 8
 717              		.cfi_offset 7, -8
 718              		.cfi_offset 14, -4
 719 0002 82B0     		sub	sp, sp, #8
 720              		.cfi_def_cfa_offset 16
 721 0004 00AF     		add	r7, sp, #0
 722              		.cfi_def_cfa_register 7
 723 0006 7860     		str	r0, [r7, #4]
 724              		.loc 5 931 3
 725 0008 7868     		ldr	r0, [r7, #4]
 726 000a FFF7FEFF 		bl	__rccResetAHB4
 727              		.loc 5 932 1
 728 000e 00BF     		nop
 729 0010 0837     		adds	r7, r7, #8
 730              		.cfi_def_cfa_offset 8
 731 0012 BD46     		mov	sp, r7
 732              		.cfi_def_cfa_register 13
 733              		@ sp needed
 734 0014 80BD     		pop	{r7, pc}
 735              		.cfi_endproc
 736              	.LFE414:
 737              		.size	rccResetAHB4, .-rccResetAHB4
 738              		.global	ADCD1
 739              		.section	.bss.ADCD1,"aw",%nobits
 740              		.align	2
 741              		.type	ADCD1, %object
ARM GAS  C:\Users\DEVELO~1\AppData\Local\Temp\ccX8mAEU.s 			page 14


 742              		.size	ADCD1, 56
 743              	ADCD1:
 744 0000 00000000 		.space	56
 744      00000000 
 744      00000000 
 744      00000000 
 744      00000000 
 745              		.global	ADCD3
 746              		.section	.bss.ADCD3,"aw",%nobits
 747              		.align	2
 748              		.type	ADCD3, %object
 749              		.size	ADCD3, 56
 750              	ADCD3:
 751 0000 00000000 		.space	56
 751      00000000 
 751      00000000 
 751      00000000 
 751      00000000 
 752              		.section	.rodata.default_config,"a"
 753              		.align	2
 754              		.type	default_config, %object
 755              		.size	default_config, 8
 756              	default_config:
 757 0000 00000000 		.space	8
 757      00000000 
 758              		.section	.text.adc_lld_vreg_on,"ax",%progbits
 759              		.align	1
 760              		.syntax unified
 761              		.thumb
 762              		.thumb_func
 763              		.type	adc_lld_vreg_on, %function
 764              	adc_lld_vreg_on:
 765              	.LFB432:
 766              		.file 6 "../../../os/hal/ports/STM32/LLD/ADCv4/hal_adc_lld.c"
 767              		.loc 6 115 46
 768              		.cfi_startproc
 769              		@ args = 0, pretend = 0, frame = 8
 770              		@ frame_needed = 1, uses_anonymous_args = 0
 771 0000 80B5     		push	{r7, lr}
 772              		.cfi_def_cfa_offset 8
 773              		.cfi_offset 7, -8
 774              		.cfi_offset 14, -4
 775 0002 82B0     		sub	sp, sp, #8
 776              		.cfi_def_cfa_offset 16
 777 0004 00AF     		add	r7, sp, #0
 778              		.cfi_def_cfa_register 7
 779 0006 7860     		str	r0, [r7, #4]
 780              		.loc 6 117 7
 781 0008 7B68     		ldr	r3, [r7, #4]
 782 000a 9B6A     		ldr	r3, [r3, #40]
 783              		.loc 6 117 18
 784 000c 4FF08052 		mov	r2, #268435456
 785 0010 9A60     		str	r2, [r3, #8]
 786              		.loc 6 123 3
 787 0012 4FF47A60 		mov	r0, #4000
 788 0016 FFF7FEFF 		bl	osalSysPolledDelayX
 789              		.loc 6 124 1
ARM GAS  C:\Users\DEVELO~1\AppData\Local\Temp\ccX8mAEU.s 			page 15


 790 001a 00BF     		nop
 791 001c 0837     		adds	r7, r7, #8
 792              		.cfi_def_cfa_offset 8
 793 001e BD46     		mov	sp, r7
 794              		.cfi_def_cfa_register 13
 795              		@ sp needed
 796 0020 80BD     		pop	{r7, pc}
 797              		.cfi_endproc
 798              	.LFE432:
 799              		.size	adc_lld_vreg_on, .-adc_lld_vreg_on
 800              		.section	.text.adc_lld_vreg_off,"ax",%progbits
 801              		.align	1
 802              		.syntax unified
 803              		.thumb
 804              		.thumb_func
 805              		.type	adc_lld_vreg_off, %function
 806              	adc_lld_vreg_off:
 807              	.LFB433:
 808              		.loc 6 131 47
 809              		.cfi_startproc
 810              		@ args = 0, pretend = 0, frame = 8
 811              		@ frame_needed = 1, uses_anonymous_args = 0
 812              		@ link register save eliminated.
 813 0000 80B4     		push	{r7}
 814              		.cfi_def_cfa_offset 4
 815              		.cfi_offset 7, -4
 816 0002 83B0     		sub	sp, sp, #12
 817              		.cfi_def_cfa_offset 16
 818 0004 00AF     		add	r7, sp, #0
 819              		.cfi_def_cfa_register 7
 820 0006 7860     		str	r0, [r7, #4]
 821              		.loc 6 133 7
 822 0008 7B68     		ldr	r3, [r7, #4]
 823 000a 9B6A     		ldr	r3, [r3, #40]
 824              		.loc 6 133 18
 825 000c 4FF00052 		mov	r2, #536870912
 826 0010 9A60     		str	r2, [r3, #8]
 827              		.loc 6 139 1
 828 0012 00BF     		nop
 829 0014 0C37     		adds	r7, r7, #12
 830              		.cfi_def_cfa_offset 4
 831 0016 BD46     		mov	sp, r7
 832              		.cfi_def_cfa_register 13
 833              		@ sp needed
 834 0018 80BC     		pop	{r7}
 835              		.cfi_restore 7
 836              		.cfi_def_cfa_offset 0
 837 001a 7047     		bx	lr
 838              		.cfi_endproc
 839              	.LFE433:
 840              		.size	adc_lld_vreg_off, .-adc_lld_vreg_off
 841              		.section	.text.adc_lld_analog_on,"ax",%progbits
 842              		.align	1
 843              		.syntax unified
 844              		.thumb
 845              		.thumb_func
 846              		.type	adc_lld_analog_on, %function
ARM GAS  C:\Users\DEVELO~1\AppData\Local\Temp\ccX8mAEU.s 			page 16


 847              	adc_lld_analog_on:
 848              	.LFB434:
 849              		.loc 6 146 48
 850              		.cfi_startproc
 851              		@ args = 0, pretend = 0, frame = 8
 852              		@ frame_needed = 1, uses_anonymous_args = 0
 853              		@ link register save eliminated.
 854 0000 80B4     		push	{r7}
 855              		.cfi_def_cfa_offset 4
 856              		.cfi_offset 7, -4
 857 0002 83B0     		sub	sp, sp, #12
 858              		.cfi_def_cfa_offset 16
 859 0004 00AF     		add	r7, sp, #0
 860              		.cfi_def_cfa_register 7
 861 0006 7860     		str	r0, [r7, #4]
 862              		.loc 6 148 7
 863 0008 7B68     		ldr	r3, [r7, #4]
 864 000a 9B6A     		ldr	r3, [r3, #40]
 865              		.loc 6 148 19
 866 000c 0122     		movs	r2, #1
 867 000e 1A60     		str	r2, [r3]
 868              		.loc 6 149 7
 869 0010 7B68     		ldr	r3, [r7, #4]
 870 0012 9B6A     		ldr	r3, [r3, #40]
 871              		.loc 6 149 18
 872 0014 9A68     		ldr	r2, [r3, #8]
 873              		.loc 6 149 7
 874 0016 7B68     		ldr	r3, [r7, #4]
 875 0018 9B6A     		ldr	r3, [r3, #40]
 876              		.loc 6 149 18
 877 001a 42F00102 		orr	r2, r2, #1
 878 001e 9A60     		str	r2, [r3, #8]
 879              		.loc 6 150 9
 880 0020 00BF     		nop
 881              	.L34:
 882              		.loc 6 150 15 discriminator 1
 883 0022 7B68     		ldr	r3, [r7, #4]
 884 0024 9B6A     		ldr	r3, [r3, #40]
 885              		.loc 6 150 21 discriminator 1
 886 0026 1B68     		ldr	r3, [r3]
 887              		.loc 6 150 27 discriminator 1
 888 0028 03F00103 		and	r3, r3, #1
 889              		.loc 6 150 44 discriminator 1
 890 002c 002B     		cmp	r3, #0
 891 002e F8D0     		beq	.L34
 892              		.loc 6 160 1
 893 0030 00BF     		nop
 894 0032 00BF     		nop
 895 0034 0C37     		adds	r7, r7, #12
 896              		.cfi_def_cfa_offset 4
 897 0036 BD46     		mov	sp, r7
 898              		.cfi_def_cfa_register 13
 899              		@ sp needed
 900 0038 80BC     		pop	{r7}
 901              		.cfi_restore 7
 902              		.cfi_def_cfa_offset 0
 903 003a 7047     		bx	lr
ARM GAS  C:\Users\DEVELO~1\AppData\Local\Temp\ccX8mAEU.s 			page 17


 904              		.cfi_endproc
 905              	.LFE434:
 906              		.size	adc_lld_analog_on, .-adc_lld_analog_on
 907              		.section	.text.adc_lld_analog_off,"ax",%progbits
 908              		.align	1
 909              		.syntax unified
 910              		.thumb
 911              		.thumb_func
 912              		.type	adc_lld_analog_off, %function
 913              	adc_lld_analog_off:
 914              	.LFB435:
 915              		.loc 6 167 49
 916              		.cfi_startproc
 917              		@ args = 0, pretend = 0, frame = 8
 918              		@ frame_needed = 1, uses_anonymous_args = 0
 919              		@ link register save eliminated.
 920 0000 80B4     		push	{r7}
 921              		.cfi_def_cfa_offset 4
 922              		.cfi_offset 7, -4
 923 0002 83B0     		sub	sp, sp, #12
 924              		.cfi_def_cfa_offset 16
 925 0004 00AF     		add	r7, sp, #0
 926              		.cfi_def_cfa_register 7
 927 0006 7860     		str	r0, [r7, #4]
 928              		.loc 6 169 7
 929 0008 7B68     		ldr	r3, [r7, #4]
 930 000a 9B6A     		ldr	r3, [r3, #40]
 931              		.loc 6 169 18
 932 000c 9A68     		ldr	r2, [r3, #8]
 933              		.loc 6 169 7
 934 000e 7B68     		ldr	r3, [r7, #4]
 935 0010 9B6A     		ldr	r3, [r3, #40]
 936              		.loc 6 169 18
 937 0012 42F00202 		orr	r2, r2, #2
 938 0016 9A60     		str	r2, [r3, #8]
 939              		.loc 6 170 9
 940 0018 00BF     		nop
 941              	.L36:
 942              		.loc 6 170 15 discriminator 1
 943 001a 7B68     		ldr	r3, [r7, #4]
 944 001c 9B6A     		ldr	r3, [r3, #40]
 945              		.loc 6 170 21 discriminator 1
 946 001e 9B68     		ldr	r3, [r3, #8]
 947              		.loc 6 170 26 discriminator 1
 948 0020 03F00203 		and	r3, r3, #2
 949              		.loc 6 170 42 discriminator 1
 950 0024 002B     		cmp	r3, #0
 951 0026 F8D1     		bne	.L36
 952              		.loc 6 179 1
 953 0028 00BF     		nop
 954 002a 00BF     		nop
 955 002c 0C37     		adds	r7, r7, #12
 956              		.cfi_def_cfa_offset 4
 957 002e BD46     		mov	sp, r7
 958              		.cfi_def_cfa_register 13
 959              		@ sp needed
 960 0030 80BC     		pop	{r7}
ARM GAS  C:\Users\DEVELO~1\AppData\Local\Temp\ccX8mAEU.s 			page 18


 961              		.cfi_restore 7
 962              		.cfi_def_cfa_offset 0
 963 0032 7047     		bx	lr
 964              		.cfi_endproc
 965              	.LFE435:
 966              		.size	adc_lld_analog_off, .-adc_lld_analog_off
 967              		.section	.text.adc_lld_calibrate,"ax",%progbits
 968              		.align	1
 969              		.syntax unified
 970              		.thumb
 971              		.thumb_func
 972              		.type	adc_lld_calibrate, %function
 973              	adc_lld_calibrate:
 974              	.LFB436:
 975              		.loc 6 186 48
 976              		.cfi_startproc
 977              		@ args = 0, pretend = 0, frame = 8
 978              		@ frame_needed = 1, uses_anonymous_args = 0
 979              		@ link register save eliminated.
 980 0000 80B4     		push	{r7}
 981              		.cfi_def_cfa_offset 4
 982              		.cfi_offset 7, -4
 983 0002 83B0     		sub	sp, sp, #12
 984              		.cfi_def_cfa_offset 16
 985 0004 00AF     		add	r7, sp, #0
 986              		.cfi_def_cfa_register 7
 987 0006 7860     		str	r0, [r7, #4]
 988              		.loc 6 190 7
 989 0008 7B68     		ldr	r3, [r7, #4]
 990 000a 9B6A     		ldr	r3, [r3, #40]
 991              		.loc 6 190 18
 992 000c 9968     		ldr	r1, [r3, #8]
 993              		.loc 6 190 7
 994 000e 7B68     		ldr	r3, [r7, #4]
 995 0010 9A6A     		ldr	r2, [r3, #40]
 996              		.loc 6 190 18
 997 0012 114B     		ldr	r3, .L39
 998 0014 0B40     		ands	r3, r3, r1
 999 0016 9360     		str	r3, [r2, #8]
 1000              		.loc 6 191 7
 1001 0018 7B68     		ldr	r3, [r7, #4]
 1002 001a 9B6A     		ldr	r3, [r3, #40]
 1003              		.loc 6 191 18
 1004 001c 9968     		ldr	r1, [r3, #8]
 1005              		.loc 6 191 25
 1006 001e 7B68     		ldr	r3, [r7, #4]
 1007 0020 5B68     		ldr	r3, [r3, #4]
 1008              		.loc 6 191 33
 1009 0022 5A68     		ldr	r2, [r3, #4]
 1010              		.loc 6 191 47
 1011 0024 0D4B     		ldr	r3, .L39+4
 1012 0026 1340     		ands	r3, r3, r2
 1013              		.loc 6 191 7
 1014 0028 7A68     		ldr	r2, [r7, #4]
 1015 002a 926A     		ldr	r2, [r2, #40]
 1016              		.loc 6 191 18
 1017 002c 0B43     		orrs	r3, r3, r1
ARM GAS  C:\Users\DEVELO~1\AppData\Local\Temp\ccX8mAEU.s 			page 19


 1018 002e 9360     		str	r3, [r2, #8]
 1019              		.loc 6 193 7
 1020 0030 7B68     		ldr	r3, [r7, #4]
 1021 0032 9B6A     		ldr	r3, [r3, #40]
 1022              		.loc 6 193 18
 1023 0034 9A68     		ldr	r2, [r3, #8]
 1024              		.loc 6 193 7
 1025 0036 7B68     		ldr	r3, [r7, #4]
 1026 0038 9B6A     		ldr	r3, [r3, #40]
 1027              		.loc 6 193 18
 1028 003a 42F00042 		orr	r2, r2, #-2147483648
 1029 003e 9A60     		str	r2, [r3, #8]
 1030              		.loc 6 194 9
 1031 0040 00BF     		nop
 1032              	.L38:
 1033              		.loc 6 194 15 discriminator 1
 1034 0042 7B68     		ldr	r3, [r7, #4]
 1035 0044 9B6A     		ldr	r3, [r3, #40]
 1036              		.loc 6 194 21 discriminator 1
 1037 0046 9B68     		ldr	r3, [r3, #8]
 1038              		.loc 6 194 42 discriminator 1
 1039 0048 002B     		cmp	r3, #0
 1040 004a FADB     		blt	.L38
 1041              		.loc 6 208 1
 1042 004c 00BF     		nop
 1043 004e 00BF     		nop
 1044 0050 0C37     		adds	r7, r7, #12
 1045              		.cfi_def_cfa_offset 4
 1046 0052 BD46     		mov	sp, r7
 1047              		.cfi_def_cfa_register 13
 1048              		@ sp needed
 1049 0054 80BC     		pop	{r7}
 1050              		.cfi_restore 7
 1051              		.cfi_def_cfa_offset 0
 1052 0056 7047     		bx	lr
 1053              	.L40:
 1054              		.align	2
 1055              	.L39:
 1056 0058 FFFFFEBF 		.word	-1073807361
 1057 005c 00000140 		.word	1073807360
 1058              		.cfi_endproc
 1059              	.LFE436:
 1060              		.size	adc_lld_calibrate, .-adc_lld_calibrate
 1061              		.section	.text.adc_lld_stop_adc,"ax",%progbits
 1062              		.align	1
 1063              		.syntax unified
 1064              		.thumb
 1065              		.thumb_func
 1066              		.type	adc_lld_stop_adc, %function
 1067              	adc_lld_stop_adc:
 1068              	.LFB437:
 1069              		.loc 6 215 47
 1070              		.cfi_startproc
 1071              		@ args = 0, pretend = 0, frame = 8
 1072              		@ frame_needed = 1, uses_anonymous_args = 0
 1073              		@ link register save eliminated.
 1074 0000 80B4     		push	{r7}
ARM GAS  C:\Users\DEVELO~1\AppData\Local\Temp\ccX8mAEU.s 			page 20


 1075              		.cfi_def_cfa_offset 4
 1076              		.cfi_offset 7, -4
 1077 0002 83B0     		sub	sp, sp, #12
 1078              		.cfi_def_cfa_offset 16
 1079 0004 00AF     		add	r7, sp, #0
 1080              		.cfi_def_cfa_register 7
 1081 0006 7860     		str	r0, [r7, #4]
 1082              		.loc 6 217 11
 1083 0008 7B68     		ldr	r3, [r7, #4]
 1084 000a 9B6A     		ldr	r3, [r3, #40]
 1085              		.loc 6 217 17
 1086 000c 9B68     		ldr	r3, [r3, #8]
 1087              		.loc 6 217 22
 1088 000e 03F00403 		and	r3, r3, #4
 1089              		.loc 6 217 6
 1090 0012 002B     		cmp	r3, #0
 1091 0014 0FD0     		beq	.L42
 1092              		.loc 6 218 9
 1093 0016 7B68     		ldr	r3, [r7, #4]
 1094 0018 9B6A     		ldr	r3, [r3, #40]
 1095              		.loc 6 218 20
 1096 001a 9A68     		ldr	r2, [r3, #8]
 1097              		.loc 6 218 9
 1098 001c 7B68     		ldr	r3, [r7, #4]
 1099 001e 9B6A     		ldr	r3, [r3, #40]
 1100              		.loc 6 218 20
 1101 0020 42F01002 		orr	r2, r2, #16
 1102 0024 9A60     		str	r2, [r3, #8]
 1103              		.loc 6 219 11
 1104 0026 00BF     		nop
 1105              	.L43:
 1106              		.loc 6 219 16 discriminator 1
 1107 0028 7B68     		ldr	r3, [r7, #4]
 1108 002a 9B6A     		ldr	r3, [r3, #40]
 1109              		.loc 6 219 22 discriminator 1
 1110 002c 9B68     		ldr	r3, [r3, #8]
 1111              		.loc 6 219 27 discriminator 1
 1112 002e 03F01003 		and	r3, r3, #16
 1113              		.loc 6 219 12 discriminator 1
 1114 0032 002B     		cmp	r3, #0
 1115 0034 F8D1     		bne	.L43
 1116              	.L42:
 1117              		.loc 6 222 7
 1118 0036 7B68     		ldr	r3, [r7, #4]
 1119 0038 9B6A     		ldr	r3, [r3, #40]
 1120              		.loc 6 222 21
 1121 003a 0022     		movs	r2, #0
 1122 003c DA61     		str	r2, [r3, #28]
 1123              		.loc 6 223 1
 1124 003e 00BF     		nop
 1125 0040 0C37     		adds	r7, r7, #12
 1126              		.cfi_def_cfa_offset 4
 1127 0042 BD46     		mov	sp, r7
 1128              		.cfi_def_cfa_register 13
 1129              		@ sp needed
 1130 0044 80BC     		pop	{r7}
 1131              		.cfi_restore 7
ARM GAS  C:\Users\DEVELO~1\AppData\Local\Temp\ccX8mAEU.s 			page 21


 1132              		.cfi_def_cfa_offset 0
 1133 0046 7047     		bx	lr
 1134              		.cfi_endproc
 1135              	.LFE437:
 1136              		.size	adc_lld_stop_adc, .-adc_lld_stop_adc
 1137              		.section	.text.adc_lld_serve_dma_interrupt,"ax",%progbits
 1138              		.align	1
 1139              		.syntax unified
 1140              		.thumb
 1141              		.thumb_func
 1142              		.type	adc_lld_serve_dma_interrupt, %function
 1143              	adc_lld_serve_dma_interrupt:
 1144              	.LFB438:
 1145              		.loc 6 232 74
 1146              		.cfi_startproc
 1147              		@ args = 0, pretend = 0, frame = 8
 1148              		@ frame_needed = 1, uses_anonymous_args = 0
 1149 0000 80B5     		push	{r7, lr}
 1150              		.cfi_def_cfa_offset 8
 1151              		.cfi_offset 7, -8
 1152              		.cfi_offset 14, -4
 1153 0002 82B0     		sub	sp, sp, #8
 1154              		.cfi_def_cfa_offset 16
 1155 0004 00AF     		add	r7, sp, #0
 1156              		.cfi_def_cfa_register 7
 1157 0006 7860     		str	r0, [r7, #4]
 1158 0008 3960     		str	r1, [r7]
 1159              		.loc 6 235 14
 1160 000a 3B68     		ldr	r3, [r7]
 1161 000c 03F00C03 		and	r3, r3, #12
 1162              		.loc 6 235 6
 1163 0010 002B     		cmp	r3, #0
 1164 0012 2DD0     		beq	.L45
 1165              		.loc 6 238 5
 1166 0014 7868     		ldr	r0, [r7, #4]
 1167 0016 FFF7FEFF 		bl	adc_lld_stop_conversion
 1168 001a 7B68     		ldr	r3, [r7, #4]
 1169 001c 1B69     		ldr	r3, [r3, #16]
 1170 001e DB68     		ldr	r3, [r3, #12]
 1171 0020 002B     		cmp	r3, #0
 1172 0022 13D0     		beq	.L46
 1173              		.loc 6 238 5 is_stmt 0 discriminator 1
 1174 0024 7B68     		ldr	r3, [r7, #4]
 1175 0026 0522     		movs	r2, #5
 1176 0028 1A70     		strb	r2, [r3]
 1177 002a 7B68     		ldr	r3, [r7, #4]
 1178 002c 1B69     		ldr	r3, [r3, #16]
 1179 002e DB68     		ldr	r3, [r3, #12]
 1180 0030 0121     		movs	r1, #1
 1181 0032 7868     		ldr	r0, [r7, #4]
 1182 0034 9847     		blx	r3
 1183              	.LVL0:
 1184 0036 7B68     		ldr	r3, [r7, #4]
 1185 0038 1B78     		ldrb	r3, [r3]	@ zero_extendqisi2
 1186 003a 052B     		cmp	r3, #5
 1187 003c 0CD1     		bne	.L47
 1188              		.loc 6 238 5 discriminator 3
ARM GAS  C:\Users\DEVELO~1\AppData\Local\Temp\ccX8mAEU.s 			page 22


 1189 003e 7B68     		ldr	r3, [r7, #4]
 1190 0040 0222     		movs	r2, #2
 1191 0042 1A70     		strb	r2, [r3]
 1192 0044 7B68     		ldr	r3, [r7, #4]
 1193 0046 0022     		movs	r2, #0
 1194 0048 1A61     		str	r2, [r3, #16]
 1195 004a 05E0     		b	.L47
 1196              	.L46:
 1197              		.loc 6 238 5 discriminator 2
 1198 004c 7B68     		ldr	r3, [r7, #4]
 1199 004e 0222     		movs	r2, #2
 1200 0050 1A70     		strb	r2, [r3]
 1201 0052 7B68     		ldr	r3, [r7, #4]
 1202 0054 0022     		movs	r2, #0
 1203 0056 1A61     		str	r2, [r3, #16]
 1204              	.L47:
 1205              		.loc 6 238 5 discriminator 4
 1206 0058 FFF7FEFF 		bl	osalSysLockFromISR
 1207 005c 7B68     		ldr	r3, [r7, #4]
 1208 005e 1433     		adds	r3, r3, #20
 1209 0060 4FF0FF31 		mov	r1, #-1
 1210 0064 1846     		mov	r0, r3
 1211 0066 FFF7FEFF 		bl	osalThreadResumeI
 1212 006a FFF7FEFF 		bl	osalSysUnlockFromISR
 1213              		.loc 6 254 1 is_stmt 1 discriminator 4
 1214 006e 5DE0     		b	.L53
 1215              	.L45:
 1216              		.loc 6 243 13
 1217 0070 7B68     		ldr	r3, [r7, #4]
 1218 0072 1B69     		ldr	r3, [r3, #16]
 1219              		.loc 6 243 8
 1220 0074 002B     		cmp	r3, #0
 1221 0076 59D0     		beq	.L53
 1222              		.loc 6 244 18
 1223 0078 3B68     		ldr	r3, [r7]
 1224 007a 03F02003 		and	r3, r3, #32
 1225              		.loc 6 244 10
 1226 007e 002B     		cmp	r3, #0
 1227 0080 45D0     		beq	.L49
 1228              		.loc 6 246 9
 1229 0082 7B68     		ldr	r3, [r7, #4]
 1230 0084 1B69     		ldr	r3, [r3, #16]
 1231 0086 1B78     		ldrb	r3, [r3]	@ zero_extendqisi2
 1232 0088 002B     		cmp	r3, #0
 1233 008a 14D0     		beq	.L50
 1234              		.loc 6 246 9 is_stmt 0 discriminator 1
 1235 008c 7B68     		ldr	r3, [r7, #4]
 1236 008e 1B69     		ldr	r3, [r3, #16]
 1237 0090 9B68     		ldr	r3, [r3, #8]
 1238 0092 002B     		cmp	r3, #0
 1239 0094 4AD0     		beq	.L53
 1240              		.loc 6 246 9 discriminator 3
 1241 0096 7B68     		ldr	r3, [r7, #4]
 1242 0098 0422     		movs	r2, #4
 1243 009a 1A70     		strb	r2, [r3]
 1244 009c 7B68     		ldr	r3, [r7, #4]
 1245 009e 1B69     		ldr	r3, [r3, #16]
ARM GAS  C:\Users\DEVELO~1\AppData\Local\Temp\ccX8mAEU.s 			page 23


 1246 00a0 9B68     		ldr	r3, [r3, #8]
 1247 00a2 7868     		ldr	r0, [r7, #4]
 1248 00a4 9847     		blx	r3
 1249              	.LVL1:
 1250 00a6 7B68     		ldr	r3, [r7, #4]
 1251 00a8 1B78     		ldrb	r3, [r3]	@ zero_extendqisi2
 1252 00aa 042B     		cmp	r3, #4
 1253 00ac 3ED1     		bne	.L53
 1254              		.loc 6 246 9 discriminator 4
 1255 00ae 7B68     		ldr	r3, [r7, #4]
 1256 00b0 0322     		movs	r2, #3
 1257 00b2 1A70     		strb	r2, [r3]
 1258              		.loc 6 254 1 is_stmt 1 discriminator 4
 1259 00b4 3AE0     		b	.L53
 1260              	.L50:
 1261              		.loc 6 246 9 discriminator 2
 1262 00b6 7868     		ldr	r0, [r7, #4]
 1263 00b8 FFF7FEFF 		bl	adc_lld_stop_conversion
 1264 00bc 7B68     		ldr	r3, [r7, #4]
 1265 00be 1B69     		ldr	r3, [r3, #16]
 1266 00c0 9B68     		ldr	r3, [r3, #8]
 1267 00c2 002B     		cmp	r3, #0
 1268 00c4 12D0     		beq	.L51
 1269              		.loc 6 246 9 is_stmt 0 discriminator 5
 1270 00c6 7B68     		ldr	r3, [r7, #4]
 1271 00c8 0422     		movs	r2, #4
 1272 00ca 1A70     		strb	r2, [r3]
 1273 00cc 7B68     		ldr	r3, [r7, #4]
 1274 00ce 1B69     		ldr	r3, [r3, #16]
 1275 00d0 9B68     		ldr	r3, [r3, #8]
 1276 00d2 7868     		ldr	r0, [r7, #4]
 1277 00d4 9847     		blx	r3
 1278              	.LVL2:
 1279 00d6 7B68     		ldr	r3, [r7, #4]
 1280 00d8 1B78     		ldrb	r3, [r3]	@ zero_extendqisi2
 1281 00da 042B     		cmp	r3, #4
 1282 00dc 0CD1     		bne	.L52
 1283              		.loc 6 246 9 discriminator 7
 1284 00de 7B68     		ldr	r3, [r7, #4]
 1285 00e0 0222     		movs	r2, #2
 1286 00e2 1A70     		strb	r2, [r3]
 1287 00e4 7B68     		ldr	r3, [r7, #4]
 1288 00e6 0022     		movs	r2, #0
 1289 00e8 1A61     		str	r2, [r3, #16]
 1290 00ea 05E0     		b	.L52
 1291              	.L51:
 1292              		.loc 6 246 9 discriminator 6
 1293 00ec 7B68     		ldr	r3, [r7, #4]
 1294 00ee 0222     		movs	r2, #2
 1295 00f0 1A70     		strb	r2, [r3]
 1296 00f2 7B68     		ldr	r3, [r7, #4]
 1297 00f4 0022     		movs	r2, #0
 1298 00f6 1A61     		str	r2, [r3, #16]
 1299              	.L52:
 1300              		.loc 6 246 9 discriminator 8
 1301 00f8 FFF7FEFF 		bl	osalSysLockFromISR
 1302 00fc 7B68     		ldr	r3, [r7, #4]
ARM GAS  C:\Users\DEVELO~1\AppData\Local\Temp\ccX8mAEU.s 			page 24


 1303 00fe 1433     		adds	r3, r3, #20
 1304 0100 0021     		movs	r1, #0
 1305 0102 1846     		mov	r0, r3
 1306 0104 FFF7FEFF 		bl	osalThreadResumeI
 1307 0108 FFF7FEFF 		bl	osalSysUnlockFromISR
 1308              		.loc 6 254 1 is_stmt 1 discriminator 8
 1309 010c 0EE0     		b	.L53
 1310              	.L49:
 1311              		.loc 6 248 23
 1312 010e 3B68     		ldr	r3, [r7]
 1313 0110 03F01003 		and	r3, r3, #16
 1314              		.loc 6 248 15
 1315 0114 002B     		cmp	r3, #0
 1316 0116 09D0     		beq	.L53
 1317              		.loc 6 250 9
 1318 0118 7B68     		ldr	r3, [r7, #4]
 1319 011a 1B69     		ldr	r3, [r3, #16]
 1320 011c 9B68     		ldr	r3, [r3, #8]
 1321 011e 002B     		cmp	r3, #0
 1322 0120 04D0     		beq	.L53
 1323              		.loc 6 250 9 is_stmt 0 discriminator 1
 1324 0122 7B68     		ldr	r3, [r7, #4]
 1325 0124 1B69     		ldr	r3, [r3, #16]
 1326 0126 9B68     		ldr	r3, [r3, #8]
 1327 0128 7868     		ldr	r0, [r7, #4]
 1328 012a 9847     		blx	r3
 1329              	.LVL3:
 1330              	.L53:
 1331              		.loc 6 254 1 is_stmt 1
 1332 012c 00BF     		nop
 1333 012e 0837     		adds	r7, r7, #8
 1334              		.cfi_def_cfa_offset 8
 1335 0130 BD46     		mov	sp, r7
 1336              		.cfi_def_cfa_register 13
 1337              		@ sp needed
 1338 0132 80BD     		pop	{r7, pc}
 1339              		.cfi_endproc
 1340              	.LFE438:
 1341              		.size	adc_lld_serve_dma_interrupt, .-adc_lld_serve_dma_interrupt
 1342              		.section	.text.adc_lld_serve_interrupt,"ax",%progbits
 1343              		.align	1
 1344              		.syntax unified
 1345              		.thumb
 1346              		.thumb_func
 1347              		.type	adc_lld_serve_interrupt, %function
 1348              	adc_lld_serve_interrupt:
 1349              	.LFB439:
 1350              		.loc 6 296 68
 1351              		.cfi_startproc
 1352              		@ args = 0, pretend = 0, frame = 16
 1353              		@ frame_needed = 1, uses_anonymous_args = 0
 1354 0000 80B5     		push	{r7, lr}
 1355              		.cfi_def_cfa_offset 8
 1356              		.cfi_offset 7, -8
 1357              		.cfi_offset 14, -4
 1358 0002 84B0     		sub	sp, sp, #16
 1359              		.cfi_def_cfa_offset 24
ARM GAS  C:\Users\DEVELO~1\AppData\Local\Temp\ccX8mAEU.s 			page 25


 1360 0004 00AF     		add	r7, sp, #0
 1361              		.cfi_def_cfa_register 7
 1362 0006 7860     		str	r0, [r7, #4]
 1363 0008 3960     		str	r1, [r7]
 1364              		.loc 6 300 11
 1365 000a 7B68     		ldr	r3, [r7, #4]
 1366 000c 1B69     		ldr	r3, [r3, #16]
 1367              		.loc 6 300 6
 1368 000e 002B     		cmp	r3, #0
 1369 0010 59D0     		beq	.L62
 1370              	.LBB38:
 1371              		.loc 6 301 16
 1372 0012 0023     		movs	r3, #0
 1373 0014 FB60     		str	r3, [r7, #12]
 1374              		.loc 6 305 14
 1375 0016 3B68     		ldr	r3, [r7]
 1376 0018 03F01003 		and	r3, r3, #16
 1377              		.loc 6 305 8
 1378 001c 002B     		cmp	r3, #0
 1379 001e 07D0     		beq	.L56
 1380              		.loc 6 305 37 discriminator 1
 1381 0020 7B68     		ldr	r3, [r7, #4]
 1382 0022 1B78     		ldrb	r3, [r3]	@ zero_extendqisi2
 1383              		.loc 6 305 29 discriminator 1
 1384 0024 032B     		cmp	r3, #3
 1385 0026 03D1     		bne	.L56
 1386              		.loc 6 308 13
 1387 0028 FB68     		ldr	r3, [r7, #12]
 1388 002a 43F00203 		orr	r3, r3, #2
 1389 002e FB60     		str	r3, [r7, #12]
 1390              	.L56:
 1391              		.loc 6 310 13
 1392 0030 3B68     		ldr	r3, [r7]
 1393 0032 03F08003 		and	r3, r3, #128
 1394              		.loc 6 310 8
 1395 0036 002B     		cmp	r3, #0
 1396 0038 03D0     		beq	.L57
 1397              		.loc 6 312 13
 1398 003a FB68     		ldr	r3, [r7, #12]
 1399 003c 43F00403 		orr	r3, r3, #4
 1400 0040 FB60     		str	r3, [r7, #12]
 1401              	.L57:
 1402              		.loc 6 314 13
 1403 0042 3B68     		ldr	r3, [r7]
 1404 0044 03F48073 		and	r3, r3, #256
 1405              		.loc 6 314 8
 1406 0048 002B     		cmp	r3, #0
 1407 004a 03D0     		beq	.L58
 1408              		.loc 6 316 13
 1409 004c FB68     		ldr	r3, [r7, #12]
 1410 004e 43F00803 		orr	r3, r3, #8
 1411 0052 FB60     		str	r3, [r7, #12]
 1412              	.L58:
 1413              		.loc 6 318 13
 1414 0054 3B68     		ldr	r3, [r7]
 1415 0056 03F40073 		and	r3, r3, #512
 1416              		.loc 6 318 8
ARM GAS  C:\Users\DEVELO~1\AppData\Local\Temp\ccX8mAEU.s 			page 26


 1417 005a 002B     		cmp	r3, #0
 1418 005c 03D0     		beq	.L59
 1419              		.loc 6 320 13
 1420 005e FB68     		ldr	r3, [r7, #12]
 1421 0060 43F01003 		orr	r3, r3, #16
 1422 0064 FB60     		str	r3, [r7, #12]
 1423              	.L59:
 1424              		.loc 6 322 8
 1425 0066 FB68     		ldr	r3, [r7, #12]
 1426 0068 002B     		cmp	r3, #0
 1427 006a 2CD0     		beq	.L62
 1428              		.loc 6 323 7
 1429 006c 7868     		ldr	r0, [r7, #4]
 1430 006e FFF7FEFF 		bl	adc_lld_stop_conversion
 1431 0072 7B68     		ldr	r3, [r7, #4]
 1432 0074 1B69     		ldr	r3, [r3, #16]
 1433 0076 DB68     		ldr	r3, [r3, #12]
 1434 0078 002B     		cmp	r3, #0
 1435 007a 13D0     		beq	.L60
 1436              		.loc 6 323 7 is_stmt 0 discriminator 1
 1437 007c 7B68     		ldr	r3, [r7, #4]
 1438 007e 0522     		movs	r2, #5
 1439 0080 1A70     		strb	r2, [r3]
 1440 0082 7B68     		ldr	r3, [r7, #4]
 1441 0084 1B69     		ldr	r3, [r3, #16]
 1442 0086 DB68     		ldr	r3, [r3, #12]
 1443 0088 F968     		ldr	r1, [r7, #12]
 1444 008a 7868     		ldr	r0, [r7, #4]
 1445 008c 9847     		blx	r3
 1446              	.LVL4:
 1447 008e 7B68     		ldr	r3, [r7, #4]
 1448 0090 1B78     		ldrb	r3, [r3]	@ zero_extendqisi2
 1449 0092 052B     		cmp	r3, #5
 1450 0094 0CD1     		bne	.L61
 1451              		.loc 6 323 7 discriminator 3
 1452 0096 7B68     		ldr	r3, [r7, #4]
 1453 0098 0222     		movs	r2, #2
 1454 009a 1A70     		strb	r2, [r3]
 1455 009c 7B68     		ldr	r3, [r7, #4]
 1456 009e 0022     		movs	r2, #0
 1457 00a0 1A61     		str	r2, [r3, #16]
 1458 00a2 05E0     		b	.L61
 1459              	.L60:
 1460              		.loc 6 323 7 discriminator 2
 1461 00a4 7B68     		ldr	r3, [r7, #4]
 1462 00a6 0222     		movs	r2, #2
 1463 00a8 1A70     		strb	r2, [r3]
 1464 00aa 7B68     		ldr	r3, [r7, #4]
 1465 00ac 0022     		movs	r2, #0
 1466 00ae 1A61     		str	r2, [r3, #16]
 1467              	.L61:
 1468              		.loc 6 323 7 discriminator 4
 1469 00b0 FFF7FEFF 		bl	osalSysLockFromISR
 1470 00b4 7B68     		ldr	r3, [r7, #4]
 1471 00b6 1433     		adds	r3, r3, #20
 1472 00b8 4FF0FF31 		mov	r1, #-1
 1473 00bc 1846     		mov	r0, r3
ARM GAS  C:\Users\DEVELO~1\AppData\Local\Temp\ccX8mAEU.s 			page 27


 1474 00be FFF7FEFF 		bl	osalThreadResumeI
 1475 00c2 FFF7FEFF 		bl	osalSysUnlockFromISR
 1476              	.L62:
 1477              	.LBE38:
 1478              		.loc 6 326 1 is_stmt 1
 1479 00c6 00BF     		nop
 1480 00c8 1037     		adds	r7, r7, #16
 1481              		.cfi_def_cfa_offset 8
 1482 00ca BD46     		mov	sp, r7
 1483              		.cfi_def_cfa_register 13
 1484              		@ sp needed
 1485 00cc 80BD     		pop	{r7, pc}
 1486              		.cfi_endproc
 1487              	.LFE439:
 1488              		.size	adc_lld_serve_interrupt, .-adc_lld_serve_interrupt
 1489              		.section	.text.Vector88,"ax",%progbits
 1490              		.align	1
 1491              		.global	Vector88
 1492              		.syntax unified
 1493              		.thumb
 1494              		.thumb_func
 1495              		.type	Vector88, %function
 1496              	Vector88:
 1497              	.LFB440:
 1498              		.loc 6 338 39
 1499              		.cfi_startproc
 1500              		@ args = 0, pretend = 0, frame = 8
 1501              		@ frame_needed = 1, uses_anonymous_args = 0
 1502 0000 80B5     		push	{r7, lr}
 1503              		.cfi_def_cfa_offset 8
 1504              		.cfi_offset 7, -8
 1505              		.cfi_offset 14, -4
 1506 0002 82B0     		sub	sp, sp, #8
 1507              		.cfi_def_cfa_offset 16
 1508 0004 00AF     		add	r7, sp, #0
 1509              		.cfi_def_cfa_register 7
 1510              		.loc 6 341 3
 1511 0006 0B48     		ldr	r0, .L64
 1512 0008 FFF7FEFF 		bl	__trace_isr_enter
 1513              		.loc 6 344 14
 1514 000c 0A4B     		ldr	r3, .L64+4
 1515              		.loc 6 344 8
 1516 000e 1B68     		ldr	r3, [r3]
 1517 0010 7B60     		str	r3, [r7, #4]
 1518              		.loc 6 345 7
 1519 0012 094A     		ldr	r2, .L64+4
 1520              		.loc 6 345 13
 1521 0014 7B68     		ldr	r3, [r7, #4]
 1522 0016 1360     		str	r3, [r2]
 1523              		.loc 6 349 3
 1524 0018 7968     		ldr	r1, [r7, #4]
 1525 001a 0848     		ldr	r0, .L64+8
 1526 001c FFF7FEFF 		bl	adc_lld_serve_interrupt
 1527              		.loc 6 361 3
 1528 0020 0448     		ldr	r0, .L64
 1529 0022 FFF7FEFF 		bl	__trace_isr_leave
 1530 0026 FFF7FEFF 		bl	__port_irq_epilogue
ARM GAS  C:\Users\DEVELO~1\AppData\Local\Temp\ccX8mAEU.s 			page 28


 1531              		.loc 6 362 1
 1532 002a 00BF     		nop
 1533 002c 0837     		adds	r7, r7, #8
 1534              		.cfi_def_cfa_offset 8
 1535 002e BD46     		mov	sp, r7
 1536              		.cfi_def_cfa_register 13
 1537              		@ sp needed
 1538 0030 80BD     		pop	{r7, pc}
 1539              	.L65:
 1540 0032 00BF     		.align	2
 1541              	.L64:
 1542 0034 00000000 		.word	__func__.1
 1543 0038 00200240 		.word	1073881088
 1544 003c 00000000 		.word	ADCD1
 1545              		.cfi_endproc
 1546              	.LFE440:
 1547              		.size	Vector88, .-Vector88
 1548              		.section	.text.Vector23C,"ax",%progbits
 1549              		.align	1
 1550              		.global	Vector23C
 1551              		.syntax unified
 1552              		.thumb
 1553              		.thumb_func
 1554              		.type	Vector23C, %function
 1555              	Vector23C:
 1556              	.LFB441:
 1557              		.loc 6 371 38
 1558              		.cfi_startproc
 1559              		@ args = 0, pretend = 0, frame = 8
 1560              		@ frame_needed = 1, uses_anonymous_args = 0
 1561 0000 80B5     		push	{r7, lr}
 1562              		.cfi_def_cfa_offset 8
 1563              		.cfi_offset 7, -8
 1564              		.cfi_offset 14, -4
 1565 0002 82B0     		sub	sp, sp, #8
 1566              		.cfi_def_cfa_offset 16
 1567 0004 00AF     		add	r7, sp, #0
 1568              		.cfi_def_cfa_register 7
 1569              		.loc 6 374 3
 1570 0006 0B48     		ldr	r0, .L67
 1571 0008 FFF7FEFF 		bl	__trace_isr_enter
 1572              		.loc 6 376 14
 1573 000c 0A4B     		ldr	r3, .L67+4
 1574              		.loc 6 376 8
 1575 000e 1B68     		ldr	r3, [r3]
 1576 0010 7B60     		str	r3, [r7, #4]
 1577              		.loc 6 377 7
 1578 0012 094A     		ldr	r2, .L67+4
 1579              		.loc 6 377 13
 1580 0014 7B68     		ldr	r3, [r7, #4]
 1581 0016 1360     		str	r3, [r2]
 1582              		.loc 6 381 3
 1583 0018 7968     		ldr	r1, [r7, #4]
 1584 001a 0848     		ldr	r0, .L67+8
 1585 001c FFF7FEFF 		bl	adc_lld_serve_interrupt
 1586              		.loc 6 383 3
 1587 0020 0448     		ldr	r0, .L67
ARM GAS  C:\Users\DEVELO~1\AppData\Local\Temp\ccX8mAEU.s 			page 29


 1588 0022 FFF7FEFF 		bl	__trace_isr_leave
 1589 0026 FFF7FEFF 		bl	__port_irq_epilogue
 1590              		.loc 6 384 1
 1591 002a 00BF     		nop
 1592 002c 0837     		adds	r7, r7, #8
 1593              		.cfi_def_cfa_offset 8
 1594 002e BD46     		mov	sp, r7
 1595              		.cfi_def_cfa_register 13
 1596              		@ sp needed
 1597 0030 80BD     		pop	{r7, pc}
 1598              	.L68:
 1599 0032 00BF     		.align	2
 1600              	.L67:
 1601 0034 00000000 		.word	__func__.0
 1602 0038 00600258 		.word	1476550656
 1603 003c 00000000 		.word	ADCD3
 1604              		.cfi_endproc
 1605              	.LFE441:
 1606              		.size	Vector23C, .-Vector23C
 1607              		.section	.text.adc_lld_init,"ax",%progbits
 1608              		.align	1
 1609              		.global	adc_lld_init
 1610              		.syntax unified
 1611              		.thumb
 1612              		.thumb_func
 1613              		.type	adc_lld_init, %function
 1614              	adc_lld_init:
 1615              	.LFB442:
 1616              		.loc 6 396 25
 1617              		.cfi_startproc
 1618              		@ args = 0, pretend = 0, frame = 0
 1619              		@ frame_needed = 1, uses_anonymous_args = 0
 1620 0000 80B5     		push	{r7, lr}
 1621              		.cfi_def_cfa_offset 8
 1622              		.cfi_offset 7, -8
 1623              		.cfi_offset 14, -4
 1624 0002 00AF     		add	r7, sp, #0
 1625              		.cfi_def_cfa_register 7
 1626              		.loc 6 400 3
 1627 0004 2248     		ldr	r0, .L70
 1628 0006 FFF7FEFF 		bl	adcObjectInit
 1629              		.loc 6 401 21
 1630 000a 214B     		ldr	r3, .L70
 1631 000c 214A     		ldr	r2, .L70+4
 1632 000e DA62     		str	r2, [r3, #44]
 1633              		.loc 6 402 21
 1634 0010 1F4B     		ldr	r3, .L70
 1635 0012 214A     		ldr	r2, .L70+8
 1636 0014 9A62     		str	r2, [r3, #40]
 1637              		.loc 6 406 21
 1638 0016 1E4B     		ldr	r3, .L70
 1639 0018 0022     		movs	r2, #0
 1640 001a 1A63     		str	r2, [r3, #48]
 1641              		.loc 6 407 21
 1642 001c 1C4B     		ldr	r3, .L70
 1643 001e 1F4A     		ldr	r2, .L70+12
 1644 0020 5A63     		str	r2, [r3, #52]
ARM GAS  C:\Users\DEVELO~1\AppData\Local\Temp\ccX8mAEU.s 			page 30


 1645              		.loc 6 412 3
 1646 0022 0521     		movs	r1, #5
 1647 0024 1220     		movs	r0, #18
 1648 0026 FFF7FEFF 		bl	nvicEnableVector
 1649              		.loc 6 417 3
 1650 002a 1D48     		ldr	r0, .L70+16
 1651 002c FFF7FEFF 		bl	adcObjectInit
 1652              		.loc 6 418 21
 1653 0030 1B4B     		ldr	r3, .L70+16
 1654 0032 1C4A     		ldr	r2, .L70+20
 1655 0034 DA62     		str	r2, [r3, #44]
 1656              		.loc 6 419 21
 1657 0036 1A4B     		ldr	r3, .L70+16
 1658 0038 1B4A     		ldr	r2, .L70+24
 1659 003a 9A62     		str	r2, [r3, #40]
 1660              		.loc 6 429 21
 1661 003c 184B     		ldr	r3, .L70+16
 1662 003e 0022     		movs	r2, #0
 1663 0040 1A63     		str	r2, [r3, #48]
 1664              		.loc 6 430 21
 1665 0042 174B     		ldr	r3, .L70+16
 1666 0044 154A     		ldr	r2, .L70+12
 1667 0046 5A63     		str	r2, [r3, #52]
 1668              		.loc 6 435 3
 1669 0048 0521     		movs	r1, #5
 1670 004a 7F20     		movs	r0, #127
 1671 004c FFF7FEFF 		bl	nvicEnableVector
 1672              		.loc 6 442 3
 1673 0050 0121     		movs	r1, #1
 1674 0052 2020     		movs	r0, #32
 1675 0054 FFF7FEFF 		bl	rccEnableAHB1
 1676              		.loc 6 443 3
 1677 0058 2020     		movs	r0, #32
 1678 005a FFF7FEFF 		bl	rccResetAHB1
 1679              		.loc 6 444 15
 1680 005e 0D4B     		ldr	r3, .L70+4
 1681              		.loc 6 444 21
 1682 0060 0022     		movs	r2, #0
 1683 0062 9A60     		str	r2, [r3, #8]
 1684              		.loc 6 445 3
 1685 0064 2020     		movs	r0, #32
 1686 0066 FFF7FEFF 		bl	rccDisableAHB1
 1687              		.loc 6 448 3
 1688 006a 0121     		movs	r1, #1
 1689 006c 4FF08070 		mov	r0, #16777216
 1690 0070 FFF7FEFF 		bl	rccEnableAHB4
 1691              		.loc 6 449 3
 1692 0074 4FF08070 		mov	r0, #16777216
 1693 0078 FFF7FEFF 		bl	rccResetAHB4
 1694              		.loc 6 450 14
 1695 007c 094B     		ldr	r3, .L70+20
 1696              		.loc 6 450 20
 1697 007e 0022     		movs	r2, #0
 1698 0080 9A60     		str	r2, [r3, #8]
 1699              		.loc 6 451 3
 1700 0082 4FF08070 		mov	r0, #16777216
 1701 0086 FFF7FEFF 		bl	rccDisableAHB4
ARM GAS  C:\Users\DEVELO~1\AppData\Local\Temp\ccX8mAEU.s 			page 31


 1702              		.loc 6 454 1
 1703 008a 00BF     		nop
 1704 008c 80BD     		pop	{r7, pc}
 1705              	.L71:
 1706 008e 00BF     		.align	2
 1707              	.L70:
 1708 0090 00000000 		.word	ADCD1
 1709 0094 00230240 		.word	1073881856
 1710 0098 00200240 		.word	1073881088
 1711 009c 162C0200 		.word	142358
 1712 00a0 00000000 		.word	ADCD3
 1713 00a4 00630258 		.word	1476551424
 1714 00a8 00600258 		.word	1476550656
 1715              		.cfi_endproc
 1716              	.LFE442:
 1717              		.size	adc_lld_init, .-adc_lld_init
 1718              		.section	.text.adc_lld_start,"ax",%progbits
 1719              		.align	1
 1720              		.global	adc_lld_start
 1721              		.syntax unified
 1722              		.thumb
 1723              		.thumb_func
 1724              		.type	adc_lld_start, %function
 1725              	adc_lld_start:
 1726              	.LFB443:
 1727              		.loc 6 464 38
 1728              		.cfi_startproc
 1729              		@ args = 0, pretend = 0, frame = 8
 1730              		@ frame_needed = 1, uses_anonymous_args = 0
 1731 0000 80B5     		push	{r7, lr}
 1732              		.cfi_def_cfa_offset 8
 1733              		.cfi_offset 7, -8
 1734              		.cfi_offset 14, -4
 1735 0002 82B0     		sub	sp, sp, #8
 1736              		.cfi_def_cfa_offset 16
 1737 0004 00AF     		add	r7, sp, #0
 1738              		.cfi_def_cfa_register 7
 1739 0006 7860     		str	r0, [r7, #4]
 1740              		.loc 6 467 11
 1741 0008 7B68     		ldr	r3, [r7, #4]
 1742 000a 5B68     		ldr	r3, [r3, #4]
 1743              		.loc 6 467 6
 1744 000c 002B     		cmp	r3, #0
 1745 000e 02D1     		bne	.L73
 1746              		.loc 6 468 18
 1747 0010 7B68     		ldr	r3, [r7, #4]
 1748 0012 454A     		ldr	r2, .L82
 1749 0014 5A60     		str	r2, [r3, #4]
 1750              	.L73:
 1751              		.loc 6 472 11
 1752 0016 7B68     		ldr	r3, [r7, #4]
 1753 0018 1B78     		ldrb	r3, [r3]	@ zero_extendqisi2
 1754              		.loc 6 472 6
 1755 001a 012B     		cmp	r3, #1
 1756 001c 7FD1     		bne	.L74
 1757              		.loc 6 474 8
 1758 001e 7B68     		ldr	r3, [r7, #4]
ARM GAS  C:\Users\DEVELO~1\AppData\Local\Temp\ccX8mAEU.s 			page 32


 1759 0020 424A     		ldr	r2, .L82+4
 1760 0022 9342     		cmp	r3, r2
 1761 0024 28D1     		bne	.L75
 1762              		.loc 6 475 24
 1763 0026 7B68     		ldr	r3, [r7, #4]
 1764 0028 414A     		ldr	r2, .L82+8
 1765 002a 0521     		movs	r1, #5
 1766 002c 1020     		movs	r0, #16
 1767 002e FFF7FEFF 		bl	dmaStreamAllocI
 1768 0032 0246     		mov	r2, r0
 1769              		.loc 6 475 22
 1770 0034 7B68     		ldr	r3, [r7, #4]
 1771 0036 1A63     		str	r2, [r3, #48]
 1772              		.loc 6 479 21
 1773 0038 7B68     		ldr	r3, [r7, #4]
 1774 003a 1B6B     		ldr	r3, [r3, #48]
 1775              		.loc 6 479 10
 1776 003c 002B     		cmp	r3, #0
 1777 003e 02D1     		bne	.L76
 1778              		.loc 6 480 16
 1779 0040 6FF01003 		mvn	r3, #16
 1780 0044 6CE0     		b	.L77
 1781              	.L76:
 1782              		.loc 6 483 7
 1783 0046 0121     		movs	r1, #1
 1784 0048 2020     		movs	r0, #32
 1785 004a FFF7FEFF 		bl	rccEnableAHB1
 1786              		.loc 6 485 7
 1787 004e 7B68     		ldr	r3, [r7, #4]
 1788 0050 1B6B     		ldr	r3, [r3, #48]
 1789 0052 0921     		movs	r1, #9
 1790 0054 1846     		mov	r0, r3
 1791 0056 FFF7FEFF 		bl	dmaSetRequestSource
 1792              		.loc 6 491 7
 1793 005a 7B68     		ldr	r3, [r7, #4]
 1794 005c 9B6A     		ldr	r3, [r3, #40]
 1795 005e 03F14002 		add	r2, r3, #64
 1796 0062 7B68     		ldr	r3, [r7, #4]
 1797 0064 1B6B     		ldr	r3, [r3, #48]
 1798 0066 1B68     		ldr	r3, [r3]
 1799 0068 9A60     		str	r2, [r3, #8]
 1800              		.loc 6 499 32
 1801 006a 7B68     		ldr	r3, [r7, #4]
 1802 006c 5A68     		ldr	r2, [r3, #4]
 1803              		.loc 6 499 11
 1804 006e 7B68     		ldr	r3, [r7, #4]
 1805 0070 9B6A     		ldr	r3, [r3, #40]
 1806              		.loc 6 499 40
 1807 0072 1268     		ldr	r2, [r2]
 1808              		.loc 6 499 26
 1809 0074 C3F8C020 		str	r2, [r3, #192]
 1810              	.L75:
 1811              		.loc 6 505 8
 1812 0078 7B68     		ldr	r3, [r7, #4]
 1813 007a 2E4A     		ldr	r2, .L82+12
 1814 007c 9342     		cmp	r3, r2
 1815 007e 2DD1     		bne	.L78
ARM GAS  C:\Users\DEVELO~1\AppData\Local\Temp\ccX8mAEU.s 			page 33


 1816              		.loc 6 525 24
 1817 0080 7B68     		ldr	r3, [r7, #4]
 1818 0082 2B4A     		ldr	r2, .L82+8
 1819 0084 0521     		movs	r1, #5
 1820 0086 1020     		movs	r0, #16
 1821 0088 FFF7FEFF 		bl	dmaStreamAllocI
 1822 008c 0246     		mov	r2, r0
 1823              		.loc 6 525 22
 1824 008e 7B68     		ldr	r3, [r7, #4]
 1825 0090 1A63     		str	r2, [r3, #48]
 1826              		.loc 6 529 21
 1827 0092 7B68     		ldr	r3, [r7, #4]
 1828 0094 1B6B     		ldr	r3, [r3, #48]
 1829              		.loc 6 529 10
 1830 0096 002B     		cmp	r3, #0
 1831 0098 02D1     		bne	.L79
 1832              		.loc 6 530 16
 1833 009a 6FF01003 		mvn	r3, #16
 1834 009e 3FE0     		b	.L77
 1835              	.L79:
 1836              		.loc 6 533 7
 1837 00a0 0121     		movs	r1, #1
 1838 00a2 4FF08070 		mov	r0, #16777216
 1839 00a6 FFF7FEFF 		bl	rccEnableAHB4
 1840              		.loc 6 534 7
 1841 00aa 4FF08070 		mov	r0, #16777216
 1842 00ae FFF7FEFF 		bl	rccResetAHB4
 1843              		.loc 6 536 7
 1844 00b2 7B68     		ldr	r3, [r7, #4]
 1845 00b4 1B6B     		ldr	r3, [r3, #48]
 1846 00b6 7321     		movs	r1, #115
 1847 00b8 1846     		mov	r0, r3
 1848 00ba FFF7FEFF 		bl	dmaSetRequestSource
 1849              		.loc 6 540 7
 1850 00be 7B68     		ldr	r3, [r7, #4]
 1851 00c0 9B6A     		ldr	r3, [r3, #40]
 1852 00c2 03F14002 		add	r2, r3, #64
 1853 00c6 7B68     		ldr	r3, [r7, #4]
 1854 00c8 1B6B     		ldr	r3, [r3, #48]
 1855 00ca 1B68     		ldr	r3, [r3]
 1856 00cc 9A60     		str	r2, [r3, #8]
 1857              		.loc 6 544 32
 1858 00ce 7B68     		ldr	r3, [r7, #4]
 1859 00d0 5A68     		ldr	r2, [r3, #4]
 1860              		.loc 6 544 11
 1861 00d2 7B68     		ldr	r3, [r7, #4]
 1862 00d4 9B6A     		ldr	r3, [r3, #40]
 1863              		.loc 6 544 40
 1864 00d6 1268     		ldr	r2, [r2]
 1865              		.loc 6 544 26
 1866 00d8 C3F8C020 		str	r2, [r3, #192]
 1867              	.L78:
 1868              		.loc 6 550 5
 1869 00dc 7868     		ldr	r0, [r7, #4]
 1870 00de FFF7FEFF 		bl	adc_lld_vreg_on
 1871              		.loc 6 551 5
 1872 00e2 7868     		ldr	r0, [r7, #4]
ARM GAS  C:\Users\DEVELO~1\AppData\Local\Temp\ccX8mAEU.s 			page 34


 1873 00e4 FFF7FEFF 		bl	adc_lld_calibrate
 1874              		.loc 6 559 8
 1875 00e8 7B68     		ldr	r3, [r7, #4]
 1876 00ea 104A     		ldr	r2, .L82+4
 1877 00ec 9342     		cmp	r3, r2
 1878 00ee 07D1     		bne	.L80
 1879              		.loc 6 560 11
 1880 00f0 7B68     		ldr	r3, [r7, #4]
 1881 00f2 9B6A     		ldr	r3, [r3, #40]
 1882              		.loc 6 560 22
 1883 00f4 9A68     		ldr	r2, [r3, #8]
 1884              		.loc 6 560 11
 1885 00f6 7B68     		ldr	r3, [r7, #4]
 1886 00f8 9B6A     		ldr	r3, [r3, #40]
 1887              		.loc 6 560 22
 1888 00fa 42F48072 		orr	r2, r2, #256
 1889 00fe 9A60     		str	r2, [r3, #8]
 1890              	.L80:
 1891              		.loc 6 568 8
 1892 0100 7B68     		ldr	r3, [r7, #4]
 1893 0102 0C4A     		ldr	r2, .L82+12
 1894 0104 9342     		cmp	r3, r2
 1895 0106 07D1     		bne	.L81
 1896              		.loc 6 569 11
 1897 0108 7B68     		ldr	r3, [r7, #4]
 1898 010a 9B6A     		ldr	r3, [r3, #40]
 1899              		.loc 6 569 22
 1900 010c 9A68     		ldr	r2, [r3, #8]
 1901              		.loc 6 569 11
 1902 010e 7B68     		ldr	r3, [r7, #4]
 1903 0110 9B6A     		ldr	r3, [r3, #40]
 1904              		.loc 6 569 22
 1905 0112 42F48072 		orr	r2, r2, #256
 1906 0116 9A60     		str	r2, [r3, #8]
 1907              	.L81:
 1908              		.loc 6 574 5
 1909 0118 7868     		ldr	r0, [r7, #4]
 1910 011a FFF7FEFF 		bl	adc_lld_analog_on
 1911              	.L74:
 1912              		.loc 6 577 10
 1913 011e 0023     		movs	r3, #0
 1914              	.L77:
 1915              		.loc 6 578 1
 1916 0120 1846     		mov	r0, r3
 1917 0122 0837     		adds	r7, r7, #8
 1918              		.cfi_def_cfa_offset 8
 1919 0124 BD46     		mov	sp, r7
 1920              		.cfi_def_cfa_register 13
 1921              		@ sp needed
 1922 0126 80BD     		pop	{r7, pc}
 1923              	.L83:
 1924              		.align	2
 1925              	.L82:
 1926 0128 00000000 		.word	default_config
 1927 012c 00000000 		.word	ADCD1
 1928 0130 00000000 		.word	adc_lld_serve_dma_interrupt
 1929 0134 00000000 		.word	ADCD3
ARM GAS  C:\Users\DEVELO~1\AppData\Local\Temp\ccX8mAEU.s 			page 35


 1930              		.cfi_endproc
 1931              	.LFE443:
 1932              		.size	adc_lld_start, .-adc_lld_start
 1933              		.section	.text.adc_lld_stop,"ax",%progbits
 1934              		.align	1
 1935              		.global	adc_lld_stop
 1936              		.syntax unified
 1937              		.thumb
 1938              		.thumb_func
 1939              		.type	adc_lld_stop, %function
 1940              	adc_lld_stop:
 1941              	.LFB444:
 1942              		.loc 6 587 36
 1943              		.cfi_startproc
 1944              		@ args = 0, pretend = 0, frame = 8
 1945              		@ frame_needed = 1, uses_anonymous_args = 0
 1946 0000 80B5     		push	{r7, lr}
 1947              		.cfi_def_cfa_offset 8
 1948              		.cfi_offset 7, -8
 1949              		.cfi_offset 14, -4
 1950 0002 82B0     		sub	sp, sp, #8
 1951              		.cfi_def_cfa_offset 16
 1952 0004 00AF     		add	r7, sp, #0
 1953              		.cfi_def_cfa_register 7
 1954 0006 7860     		str	r0, [r7, #4]
 1955              		.loc 6 590 11
 1956 0008 7B68     		ldr	r3, [r7, #4]
 1957 000a 1B78     		ldrb	r3, [r3]	@ zero_extendqisi2
 1958              		.loc 6 590 6
 1959 000c 022B     		cmp	r3, #2
 1960 000e 2FD1     		bne	.L87
 1961              		.loc 6 593 5
 1962 0010 7868     		ldr	r0, [r7, #4]
 1963 0012 FFF7FEFF 		bl	adc_lld_stop_adc
 1964              		.loc 6 596 5
 1965 0016 7868     		ldr	r0, [r7, #4]
 1966 0018 FFF7FEFF 		bl	adc_lld_analog_off
 1967              		.loc 6 597 5
 1968 001c 7868     		ldr	r0, [r7, #4]
 1969 001e FFF7FEFF 		bl	adc_lld_vreg_off
 1970              		.loc 6 600 8
 1971 0022 7B68     		ldr	r3, [r7, #4]
 1972 0024 144A     		ldr	r2, .L88
 1973 0026 9342     		cmp	r3, r2
 1974 0028 0ED1     		bne	.L86
 1975              		.loc 6 603 7
 1976 002a 7B68     		ldr	r3, [r7, #4]
 1977 002c 1B6B     		ldr	r3, [r3, #48]
 1978 002e 1846     		mov	r0, r3
 1979 0030 FFF7FEFF 		bl	dmaStreamFreeI
 1980              		.loc 6 604 22
 1981 0034 7B68     		ldr	r3, [r7, #4]
 1982 0036 0022     		movs	r2, #0
 1983 0038 1A63     		str	r2, [r3, #48]
 1984              		.loc 6 607 11
 1985 003a 7B68     		ldr	r3, [r7, #4]
 1986 003c DB6A     		ldr	r3, [r3, #44]
ARM GAS  C:\Users\DEVELO~1\AppData\Local\Temp\ccX8mAEU.s 			page 36


 1987              		.loc 6 607 23
 1988 003e 0022     		movs	r2, #0
 1989 0040 9A60     		str	r2, [r3, #8]
 1990              		.loc 6 608 7
 1991 0042 2020     		movs	r0, #32
 1992 0044 FFF7FEFF 		bl	rccDisableAHB1
 1993              	.L86:
 1994              		.loc 6 613 8
 1995 0048 7B68     		ldr	r3, [r7, #4]
 1996 004a 0C4A     		ldr	r2, .L88+4
 1997 004c 9342     		cmp	r3, r2
 1998 004e 0FD1     		bne	.L87
 1999              		.loc 6 627 5
 2000 0050 7B68     		ldr	r3, [r7, #4]
 2001 0052 1B6B     		ldr	r3, [r3, #48]
 2002 0054 1846     		mov	r0, r3
 2003 0056 FFF7FEFF 		bl	dmaStreamFreeI
 2004              		.loc 6 628 20
 2005 005a 7B68     		ldr	r3, [r7, #4]
 2006 005c 0022     		movs	r2, #0
 2007 005e 1A63     		str	r2, [r3, #48]
 2008              		.loc 6 631 9
 2009 0060 7B68     		ldr	r3, [r7, #4]
 2010 0062 DB6A     		ldr	r3, [r3, #44]
 2011              		.loc 6 631 21
 2012 0064 0022     		movs	r2, #0
 2013 0066 9A60     		str	r2, [r3, #8]
 2014              		.loc 6 632 5
 2015 0068 4FF08070 		mov	r0, #16777216
 2016 006c FFF7FEFF 		bl	rccDisableAHB4
 2017              	.L87:
 2018              		.loc 6 637 1
 2019 0070 00BF     		nop
 2020 0072 0837     		adds	r7, r7, #8
 2021              		.cfi_def_cfa_offset 8
 2022 0074 BD46     		mov	sp, r7
 2023              		.cfi_def_cfa_register 13
 2024              		@ sp needed
 2025 0076 80BD     		pop	{r7, pc}
 2026              	.L89:
 2027              		.align	2
 2028              	.L88:
 2029 0078 00000000 		.word	ADCD1
 2030 007c 00000000 		.word	ADCD3
 2031              		.cfi_endproc
 2032              	.LFE444:
 2033              		.size	adc_lld_stop, .-adc_lld_stop
 2034              		.section	.text.adc_lld_start_conversion,"ax",%progbits
 2035              		.align	1
 2036              		.global	adc_lld_start_conversion
 2037              		.syntax unified
 2038              		.thumb
 2039              		.thumb_func
 2040              		.type	adc_lld_start_conversion, %function
 2041              	adc_lld_start_conversion:
 2042              	.LFB445:
 2043              		.loc 6 646 48
ARM GAS  C:\Users\DEVELO~1\AppData\Local\Temp\ccX8mAEU.s 			page 37


 2044              		.cfi_startproc
 2045              		@ args = 0, pretend = 0, frame = 24
 2046              		@ frame_needed = 1, uses_anonymous_args = 0
 2047              		@ link register save eliminated.
 2048 0000 80B4     		push	{r7}
 2049              		.cfi_def_cfa_offset 4
 2050              		.cfi_offset 7, -4
 2051 0002 87B0     		sub	sp, sp, #28
 2052              		.cfi_def_cfa_offset 32
 2053 0004 00AF     		add	r7, sp, #0
 2054              		.cfi_def_cfa_register 7
 2055 0006 7860     		str	r0, [r7, #4]
 2056              		.loc 6 647 21
 2057 0008 0023     		movs	r3, #0
 2058 000a 3B61     		str	r3, [r7, #16]
 2059              		.loc 6 648 29
 2060 000c 7B68     		ldr	r3, [r7, #4]
 2061 000e 1B69     		ldr	r3, [r3, #16]
 2062 0010 FB60     		str	r3, [r7, #12]
 2063              		.loc 6 654 6
 2064 0012 7B68     		ldr	r3, [r7, #4]
 2065 0014 7D4A     		ldr	r2, .L98
 2066 0016 9342     		cmp	r3, r2
 2067 0018 3CD1     		bne	.L91
 2068              		.loc 6 662 13
 2069 001a 7B68     		ldr	r3, [r7, #4]
 2070 001c 5B6B     		ldr	r3, [r3, #52]
 2071 001e 7B61     		str	r3, [r7, #20]
 2072              		.loc 6 663 13
 2073 0020 FB68     		ldr	r3, [r7, #12]
 2074 0022 1B78     		ldrb	r3, [r3]	@ zero_extendqisi2
 2075              		.loc 6 663 8
 2076 0024 002B     		cmp	r3, #0
 2077 0026 11D0     		beq	.L92
 2078              		.loc 6 664 15
 2079 0028 7B69     		ldr	r3, [r7, #20]
 2080 002a 43F48073 		orr	r3, r3, #256
 2081 002e 7B61     		str	r3, [r7, #20]
 2082              		.loc 6 665 18
 2083 0030 FB68     		ldr	r3, [r7, #12]
 2084 0032 1B69     		ldr	r3, [r3, #16]
 2085              		.loc 6 665 12
 2086 0034 43F00303 		orr	r3, r3, #3
 2087 0038 3B61     		str	r3, [r7, #16]
 2088              		.loc 6 666 15
 2089 003a 7B68     		ldr	r3, [r7, #4]
 2090 003c DB68     		ldr	r3, [r3, #12]
 2091              		.loc 6 666 10
 2092 003e 012B     		cmp	r3, #1
 2093 0040 09D9     		bls	.L93
 2094              		.loc 6 669 17
 2095 0042 7B69     		ldr	r3, [r7, #20]
 2096 0044 43F00803 		orr	r3, r3, #8
 2097 0048 7B61     		str	r3, [r7, #20]
 2098 004a 04E0     		b	.L93
 2099              	.L92:
 2100              		.loc 6 673 18
ARM GAS  C:\Users\DEVELO~1\AppData\Local\Temp\ccX8mAEU.s 			page 38


 2101 004c FB68     		ldr	r3, [r7, #12]
 2102 004e 1B69     		ldr	r3, [r3, #16]
 2103              		.loc 6 673 12
 2104 0050 43F00103 		orr	r3, r3, #1
 2105 0054 3B61     		str	r3, [r7, #16]
 2106              	.L93:
 2107              		.loc 6 677 5
 2108 0056 7B68     		ldr	r3, [r7, #4]
 2109 0058 9A68     		ldr	r2, [r3, #8]
 2110 005a 7B68     		ldr	r3, [r7, #4]
 2111 005c 1B6B     		ldr	r3, [r3, #48]
 2112 005e 1B68     		ldr	r3, [r3]
 2113 0060 DA60     		str	r2, [r3, #12]
 2114              		.loc 6 682 5
 2115 0062 FB68     		ldr	r3, [r7, #12]
 2116 0064 5A68     		ldr	r2, [r3, #4]
 2117 0066 7B68     		ldr	r3, [r7, #4]
 2118 0068 D968     		ldr	r1, [r3, #12]
 2119 006a 7B68     		ldr	r3, [r7, #4]
 2120 006c 1B6B     		ldr	r3, [r3, #48]
 2121 006e 1B68     		ldr	r3, [r3]
 2122 0070 01FB02F2 		mul	r2, r1, r2
 2123 0074 5A60     		str	r2, [r3, #4]
 2124              		.loc 6 685 5
 2125 0076 7B68     		ldr	r3, [r7, #4]
 2126 0078 1B6B     		ldr	r3, [r3, #48]
 2127 007a 1B68     		ldr	r3, [r3]
 2128 007c 7A69     		ldr	r2, [r7, #20]
 2129 007e 1A60     		str	r2, [r3]
 2130              		.loc 6 686 5
 2131 0080 7B68     		ldr	r3, [r7, #4]
 2132 0082 1B6B     		ldr	r3, [r3, #48]
 2133 0084 1B68     		ldr	r3, [r3]
 2134 0086 1A68     		ldr	r2, [r3]
 2135 0088 7B68     		ldr	r3, [r7, #4]
 2136 008a 1B6B     		ldr	r3, [r3, #48]
 2137 008c 1B68     		ldr	r3, [r3]
 2138 008e 42F00102 		orr	r2, r2, #1
 2139 0092 1A60     		str	r2, [r3]
 2140              	.L91:
 2141              		.loc 6 691 6
 2142 0094 7B68     		ldr	r3, [r7, #4]
 2143 0096 5E4A     		ldr	r2, .L98+4
 2144 0098 9342     		cmp	r3, r2
 2145 009a 3CD1     		bne	.L94
 2146              		.loc 6 692 13
 2147 009c 7B68     		ldr	r3, [r7, #4]
 2148 009e 5B6B     		ldr	r3, [r3, #52]
 2149 00a0 7B61     		str	r3, [r7, #20]
 2150              		.loc 6 716 13
 2151 00a2 FB68     		ldr	r3, [r7, #12]
 2152 00a4 1B78     		ldrb	r3, [r3]	@ zero_extendqisi2
 2153              		.loc 6 716 8
 2154 00a6 002B     		cmp	r3, #0
 2155 00a8 11D0     		beq	.L95
 2156              		.loc 6 717 15
 2157 00aa 7B69     		ldr	r3, [r7, #20]
ARM GAS  C:\Users\DEVELO~1\AppData\Local\Temp\ccX8mAEU.s 			page 39


 2158 00ac 43F48073 		orr	r3, r3, #256
 2159 00b0 7B61     		str	r3, [r7, #20]
 2160              		.loc 6 718 18
 2161 00b2 FB68     		ldr	r3, [r7, #12]
 2162 00b4 1B69     		ldr	r3, [r3, #16]
 2163              		.loc 6 718 12
 2164 00b6 43F00303 		orr	r3, r3, #3
 2165 00ba 3B61     		str	r3, [r7, #16]
 2166              		.loc 6 719 15
 2167 00bc 7B68     		ldr	r3, [r7, #4]
 2168 00be DB68     		ldr	r3, [r3, #12]
 2169              		.loc 6 719 10
 2170 00c0 012B     		cmp	r3, #1
 2171 00c2 09D9     		bls	.L96
 2172              		.loc 6 722 17
 2173 00c4 7B69     		ldr	r3, [r7, #20]
 2174 00c6 43F00803 		orr	r3, r3, #8
 2175 00ca 7B61     		str	r3, [r7, #20]
 2176 00cc 04E0     		b	.L96
 2177              	.L95:
 2178              		.loc 6 726 18
 2179 00ce FB68     		ldr	r3, [r7, #12]
 2180 00d0 1B69     		ldr	r3, [r3, #16]
 2181              		.loc 6 726 12
 2182 00d2 43F00103 		orr	r3, r3, #1
 2183 00d6 3B61     		str	r3, [r7, #16]
 2184              	.L96:
 2185              		.loc 6 729 5
 2186 00d8 7B68     		ldr	r3, [r7, #4]
 2187 00da 9A68     		ldr	r2, [r3, #8]
 2188 00dc 7B68     		ldr	r3, [r7, #4]
 2189 00de 1B6B     		ldr	r3, [r3, #48]
 2190 00e0 1B68     		ldr	r3, [r3]
 2191 00e2 DA60     		str	r2, [r3, #12]
 2192              		.loc 6 730 5
 2193 00e4 FB68     		ldr	r3, [r7, #12]
 2194 00e6 5A68     		ldr	r2, [r3, #4]
 2195 00e8 7B68     		ldr	r3, [r7, #4]
 2196 00ea D968     		ldr	r1, [r3, #12]
 2197 00ec 7B68     		ldr	r3, [r7, #4]
 2198 00ee 1B6B     		ldr	r3, [r3, #48]
 2199 00f0 1B68     		ldr	r3, [r3]
 2200 00f2 01FB02F2 		mul	r2, r1, r2
 2201 00f6 5A60     		str	r2, [r3, #4]
 2202              		.loc 6 732 5
 2203 00f8 7B68     		ldr	r3, [r7, #4]
 2204 00fa 1B6B     		ldr	r3, [r3, #48]
 2205 00fc 1B68     		ldr	r3, [r3]
 2206 00fe 7A69     		ldr	r2, [r7, #20]
 2207 0100 1A60     		str	r2, [r3]
 2208              		.loc 6 733 5
 2209 0102 7B68     		ldr	r3, [r7, #4]
 2210 0104 1B6B     		ldr	r3, [r3, #48]
 2211 0106 1B68     		ldr	r3, [r3]
 2212 0108 1A68     		ldr	r2, [r3]
 2213 010a 7B68     		ldr	r3, [r7, #4]
 2214 010c 1B6B     		ldr	r3, [r3, #48]
ARM GAS  C:\Users\DEVELO~1\AppData\Local\Temp\ccX8mAEU.s 			page 40


 2215 010e 1B68     		ldr	r3, [r3]
 2216 0110 42F00102 		orr	r2, r2, #1
 2217 0114 1A60     		str	r2, [r3]
 2218              	.L94:
 2219              		.loc 6 741 27
 2220 0116 7B68     		ldr	r3, [r7, #4]
 2221 0118 9A6A     		ldr	r2, [r3, #40]
 2222              		.loc 6 741 7
 2223 011a 7B68     		ldr	r3, [r7, #4]
 2224 011c 9B6A     		ldr	r3, [r3, #40]
 2225              		.loc 6 741 33
 2226 011e 1268     		ldr	r2, [r2]
 2227              		.loc 6 741 21
 2228 0120 1A60     		str	r2, [r3]
 2229              		.loc 6 743 11
 2230 0122 FB68     		ldr	r3, [r7, #12]
 2231 0124 DB68     		ldr	r3, [r3, #12]
 2232              		.loc 6 743 6
 2233 0126 002B     		cmp	r3, #0
 2234 0128 04D0     		beq	.L97
 2235              		.loc 6 744 9
 2236 012a 7B68     		ldr	r3, [r7, #4]
 2237 012c 9B6A     		ldr	r3, [r3, #40]
 2238              		.loc 6 744 23
 2239 012e 4FF46472 		mov	r2, #912
 2240 0132 5A60     		str	r2, [r3, #4]
 2241              	.L97:
 2242              		.loc 6 807 9
 2243 0134 7B68     		ldr	r3, [r7, #4]
 2244 0136 9B6A     		ldr	r3, [r3, #40]
 2245              		.loc 6 807 31
 2246 0138 FA68     		ldr	r2, [r7, #12]
 2247 013a 5269     		ldr	r2, [r2, #20]
 2248              		.loc 6 807 25
 2249 013c 1A61     		str	r2, [r3, #16]
 2250              		.loc 6 808 9
 2251 013e 7B68     		ldr	r3, [r7, #4]
 2252 0140 9B6A     		ldr	r3, [r3, #40]
 2253              		.loc 6 808 31
 2254 0142 FA68     		ldr	r2, [r7, #12]
 2255 0144 D269     		ldr	r2, [r2, #28]
 2256              		.loc 6 808 25
 2257 0146 DA61     		str	r2, [r3, #28]
 2258              		.loc 6 809 9
 2259 0148 7B68     		ldr	r3, [r7, #4]
 2260 014a 9B6A     		ldr	r3, [r3, #40]
 2261              		.loc 6 809 31
 2262 014c FA68     		ldr	r2, [r7, #12]
 2263 014e 126A     		ldr	r2, [r2, #32]
 2264              		.loc 6 809 25
 2265 0150 1A62     		str	r2, [r3, #32]
 2266              		.loc 6 810 9
 2267 0152 7B68     		ldr	r3, [r7, #4]
 2268 0154 9B6A     		ldr	r3, [r3, #40]
 2269              		.loc 6 810 31
 2270 0156 FA68     		ldr	r2, [r7, #12]
 2271 0158 526A     		ldr	r2, [r2, #36]
ARM GAS  C:\Users\DEVELO~1\AppData\Local\Temp\ccX8mAEU.s 			page 41


 2272              		.loc 6 810 25
 2273 015a 5A62     		str	r2, [r3, #36]
 2274              		.loc 6 811 9
 2275 015c 7B68     		ldr	r3, [r7, #4]
 2276 015e 9B6A     		ldr	r3, [r3, #40]
 2277              		.loc 6 811 31
 2278 0160 FA68     		ldr	r2, [r7, #12]
 2279 0162 926A     		ldr	r2, [r2, #40]
 2280              		.loc 6 811 25
 2281 0164 C3F8B020 		str	r2, [r3, #176]
 2282              		.loc 6 812 9
 2283 0168 7B68     		ldr	r3, [r7, #4]
 2284 016a 9B6A     		ldr	r3, [r3, #40]
 2285              		.loc 6 812 31
 2286 016c FA68     		ldr	r2, [r7, #12]
 2287 016e D26A     		ldr	r2, [r2, #44]
 2288              		.loc 6 812 25
 2289 0170 C3F8B420 		str	r2, [r3, #180]
 2290              		.loc 6 813 9
 2291 0174 7B68     		ldr	r3, [r7, #4]
 2292 0176 9B6A     		ldr	r3, [r3, #40]
 2293              		.loc 6 813 31
 2294 0178 FA68     		ldr	r2, [r7, #12]
 2295 017a 126B     		ldr	r2, [r2, #48]
 2296              		.loc 6 813 25
 2297 017c C3F8B820 		str	r2, [r3, #184]
 2298              		.loc 6 814 9
 2299 0180 7B68     		ldr	r3, [r7, #4]
 2300 0182 9B6A     		ldr	r3, [r3, #40]
 2301              		.loc 6 814 31
 2302 0184 FA68     		ldr	r2, [r7, #12]
 2303 0186 526B     		ldr	r2, [r2, #52]
 2304              		.loc 6 814 25
 2305 0188 C3F8BC20 		str	r2, [r3, #188]
 2306              		.loc 6 815 9
 2307 018c 7B68     		ldr	r3, [r7, #4]
 2308 018e 9B6A     		ldr	r3, [r3, #40]
 2309              		.loc 6 815 31
 2310 0190 FA68     		ldr	r2, [r7, #12]
 2311 0192 926B     		ldr	r2, [r2, #56]
 2312              		.loc 6 815 25
 2313 0194 C3F8A020 		str	r2, [r3, #160]
 2314              		.loc 6 816 9
 2315 0198 7B68     		ldr	r3, [r7, #4]
 2316 019a 9B6A     		ldr	r3, [r3, #40]
 2317              		.loc 6 816 31
 2318 019c FA68     		ldr	r2, [r7, #12]
 2319 019e D26B     		ldr	r2, [r2, #60]
 2320              		.loc 6 816 25
 2321 01a0 C3F8A420 		str	r2, [r3, #164]
 2322              		.loc 6 817 9
 2323 01a4 7B68     		ldr	r3, [r7, #4]
 2324 01a6 9B6A     		ldr	r3, [r3, #40]
 2325              		.loc 6 817 37
 2326 01a8 FA68     		ldr	r2, [r7, #12]
 2327 01aa 126C     		ldr	r2, [r2, #64]
 2328              		.loc 6 817 25
ARM GAS  C:\Users\DEVELO~1\AppData\Local\Temp\ccX8mAEU.s 			page 42


 2329 01ac 5A61     		str	r2, [r3, #20]
 2330              		.loc 6 818 9
 2331 01ae 7B68     		ldr	r3, [r7, #4]
 2332 01b0 9B6A     		ldr	r3, [r3, #40]
 2333              		.loc 6 818 37
 2334 01b2 FA68     		ldr	r2, [r7, #12]
 2335 01b4 526C     		ldr	r2, [r2, #68]
 2336              		.loc 6 818 25
 2337 01b6 9A61     		str	r2, [r3, #24]
 2338              		.loc 6 819 36
 2339 01b8 FB68     		ldr	r3, [r7, #12]
 2340 01ba 996C     		ldr	r1, [r3, #72]
 2341              		.loc 6 819 42
 2342 01bc FB68     		ldr	r3, [r7, #12]
 2343 01be 5B68     		ldr	r3, [r3, #4]
 2344 01c0 5A1E     		subs	r2, r3, #1
 2345              		.loc 6 819 9
 2346 01c2 7B68     		ldr	r3, [r7, #4]
 2347 01c4 9B6A     		ldr	r3, [r3, #40]
 2348              		.loc 6 819 40
 2349 01c6 0A43     		orrs	r2, r2, r1
 2350              		.loc 6 819 25
 2351 01c8 1A63     		str	r2, [r3, #48]
 2352              		.loc 6 820 9
 2353 01ca 7B68     		ldr	r3, [r7, #4]
 2354 01cc 9B6A     		ldr	r3, [r3, #40]
 2355              		.loc 6 820 36
 2356 01ce FA68     		ldr	r2, [r7, #12]
 2357 01d0 D26C     		ldr	r2, [r2, #76]
 2358              		.loc 6 820 25
 2359 01d2 5A63     		str	r2, [r3, #52]
 2360              		.loc 6 821 9
 2361 01d4 7B68     		ldr	r3, [r7, #4]
 2362 01d6 9B6A     		ldr	r3, [r3, #40]
 2363              		.loc 6 821 36
 2364 01d8 FA68     		ldr	r2, [r7, #12]
 2365 01da 126D     		ldr	r2, [r2, #80]
 2366              		.loc 6 821 25
 2367 01dc 9A63     		str	r2, [r3, #56]
 2368              		.loc 6 822 9
 2369 01de 7B68     		ldr	r3, [r7, #4]
 2370 01e0 9B6A     		ldr	r3, [r3, #40]
 2371              		.loc 6 822 36
 2372 01e2 FA68     		ldr	r2, [r7, #12]
 2373 01e4 526D     		ldr	r2, [r2, #84]
 2374              		.loc 6 822 25
 2375 01e6 DA63     		str	r2, [r3, #60]
 2376              		.loc 6 825 9
 2377 01e8 7B68     		ldr	r3, [r7, #4]
 2378 01ea 9B6A     		ldr	r3, [r3, #40]
 2379              		.loc 6 825 23
 2380 01ec 3A69     		ldr	r2, [r7, #16]
 2381 01ee DA60     		str	r2, [r3, #12]
 2382              		.loc 6 829 7
 2383 01f0 7B68     		ldr	r3, [r7, #4]
 2384 01f2 9B6A     		ldr	r3, [r3, #40]
 2385              		.loc 6 829 20
ARM GAS  C:\Users\DEVELO~1\AppData\Local\Temp\ccX8mAEU.s 			page 43


 2386 01f4 9A68     		ldr	r2, [r3, #8]
 2387              		.loc 6 829 7
 2388 01f6 7B68     		ldr	r3, [r7, #4]
 2389 01f8 9B6A     		ldr	r3, [r3, #40]
 2390              		.loc 6 829 20
 2391 01fa 42F00402 		orr	r2, r2, #4
 2392 01fe 9A60     		str	r2, [r3, #8]
 2393              		.loc 6 830 1
 2394 0200 00BF     		nop
 2395 0202 1C37     		adds	r7, r7, #28
 2396              		.cfi_def_cfa_offset 4
 2397 0204 BD46     		mov	sp, r7
 2398              		.cfi_def_cfa_register 13
 2399              		@ sp needed
 2400 0206 80BC     		pop	{r7}
 2401              		.cfi_restore 7
 2402              		.cfi_def_cfa_offset 0
 2403 0208 7047     		bx	lr
 2404              	.L99:
 2405 020a 00BF     		.align	2
 2406              	.L98:
 2407 020c 00000000 		.word	ADCD1
 2408 0210 00000000 		.word	ADCD3
 2409              		.cfi_endproc
 2410              	.LFE445:
 2411              		.size	adc_lld_start_conversion, .-adc_lld_start_conversion
 2412              		.section	.text.adc_lld_stop_conversion,"ax",%progbits
 2413              		.align	1
 2414              		.global	adc_lld_stop_conversion
 2415              		.syntax unified
 2416              		.thumb
 2417              		.thumb_func
 2418              		.type	adc_lld_stop_conversion, %function
 2419              	adc_lld_stop_conversion:
 2420              	.LFB446:
 2421              		.loc 6 839 47
 2422              		.cfi_startproc
 2423              		@ args = 0, pretend = 0, frame = 8
 2424              		@ frame_needed = 1, uses_anonymous_args = 0
 2425 0000 80B5     		push	{r7, lr}
 2426              		.cfi_def_cfa_offset 8
 2427              		.cfi_offset 7, -8
 2428              		.cfi_offset 14, -4
 2429 0002 82B0     		sub	sp, sp, #8
 2430              		.cfi_def_cfa_offset 16
 2431 0004 00AF     		add	r7, sp, #0
 2432              		.cfi_def_cfa_register 7
 2433 0006 7860     		str	r0, [r7, #4]
 2434              		.loc 6 842 6
 2435 0008 7B68     		ldr	r3, [r7, #4]
 2436 000a 234A     		ldr	r2, .L105
 2437 000c 9342     		cmp	r3, r2
 2438 000e 1BD1     		bne	.L101
 2439              		.loc 6 843 5
 2440 0010 7B68     		ldr	r3, [r7, #4]
 2441 0012 1B6B     		ldr	r3, [r3, #48]
 2442 0014 1B68     		ldr	r3, [r3]
ARM GAS  C:\Users\DEVELO~1\AppData\Local\Temp\ccX8mAEU.s 			page 44


 2443 0016 1A68     		ldr	r2, [r3]
 2444 0018 7B68     		ldr	r3, [r7, #4]
 2445 001a 1B6B     		ldr	r3, [r3, #48]
 2446 001c 1B68     		ldr	r3, [r3]
 2447 001e 22F01F02 		bic	r2, r2, #31
 2448 0022 1A60     		str	r2, [r3]
 2449              	.L102:
 2450              		.loc 6 843 5 is_stmt 0 discriminator 2
 2451 0024 7B68     		ldr	r3, [r7, #4]
 2452 0026 1B6B     		ldr	r3, [r3, #48]
 2453 0028 1B68     		ldr	r3, [r3]
 2454 002a 1B68     		ldr	r3, [r3]
 2455 002c 03F00103 		and	r3, r3, #1
 2456 0030 002B     		cmp	r3, #0
 2457 0032 F7D1     		bne	.L102
 2458              		.loc 6 843 5 discriminator 3
 2459 0034 7B68     		ldr	r3, [r7, #4]
 2460 0036 1B6B     		ldr	r3, [r3, #48]
 2461 0038 1B7B     		ldrb	r3, [r3, #12]	@ zero_extendqisi2
 2462 003a 1946     		mov	r1, r3
 2463 003c 7B68     		ldr	r3, [r7, #4]
 2464 003e 1B6B     		ldr	r3, [r3, #48]
 2465 0040 5B68     		ldr	r3, [r3, #4]
 2466 0042 3D22     		movs	r2, #61
 2467 0044 8A40     		lsls	r2, r2, r1
 2468 0046 1A60     		str	r2, [r3]
 2469              	.L101:
 2470              		.loc 6 848 6 is_stmt 1
 2471 0048 7B68     		ldr	r3, [r7, #4]
 2472 004a 144A     		ldr	r2, .L105+4
 2473 004c 9342     		cmp	r3, r2
 2474 004e 1BD1     		bne	.L103
 2475              		.loc 6 852 5
 2476 0050 7B68     		ldr	r3, [r7, #4]
 2477 0052 1B6B     		ldr	r3, [r3, #48]
 2478 0054 1B68     		ldr	r3, [r3]
 2479 0056 1A68     		ldr	r2, [r3]
 2480 0058 7B68     		ldr	r3, [r7, #4]
 2481 005a 1B6B     		ldr	r3, [r3, #48]
 2482 005c 1B68     		ldr	r3, [r3]
 2483 005e 22F01F02 		bic	r2, r2, #31
 2484 0062 1A60     		str	r2, [r3]
 2485              	.L104:
 2486              		.loc 6 852 5 is_stmt 0 discriminator 2
 2487 0064 7B68     		ldr	r3, [r7, #4]
 2488 0066 1B6B     		ldr	r3, [r3, #48]
 2489 0068 1B68     		ldr	r3, [r3]
 2490 006a 1B68     		ldr	r3, [r3]
 2491 006c 03F00103 		and	r3, r3, #1
 2492 0070 002B     		cmp	r3, #0
 2493 0072 F7D1     		bne	.L104
 2494              		.loc 6 852 5 discriminator 3
 2495 0074 7B68     		ldr	r3, [r7, #4]
 2496 0076 1B6B     		ldr	r3, [r3, #48]
 2497 0078 1B7B     		ldrb	r3, [r3, #12]	@ zero_extendqisi2
 2498 007a 1946     		mov	r1, r3
 2499 007c 7B68     		ldr	r3, [r7, #4]
ARM GAS  C:\Users\DEVELO~1\AppData\Local\Temp\ccX8mAEU.s 			page 45


 2500 007e 1B6B     		ldr	r3, [r3, #48]
 2501 0080 5B68     		ldr	r3, [r3, #4]
 2502 0082 3D22     		movs	r2, #61
 2503 0084 8A40     		lsls	r2, r2, r1
 2504 0086 1A60     		str	r2, [r3]
 2505              	.L103:
 2506              		.loc 6 857 3 is_stmt 1
 2507 0088 7868     		ldr	r0, [r7, #4]
 2508 008a FFF7FEFF 		bl	adc_lld_stop_adc
 2509              		.loc 6 858 1
 2510 008e 00BF     		nop
 2511 0090 0837     		adds	r7, r7, #8
 2512              		.cfi_def_cfa_offset 8
 2513 0092 BD46     		mov	sp, r7
 2514              		.cfi_def_cfa_register 13
 2515              		@ sp needed
 2516 0094 80BD     		pop	{r7, pc}
 2517              	.L106:
 2518 0096 00BF     		.align	2
 2519              	.L105:
 2520 0098 00000000 		.word	ADCD1
 2521 009c 00000000 		.word	ADCD3
 2522              		.cfi_endproc
 2523              	.LFE446:
 2524              		.size	adc_lld_stop_conversion, .-adc_lld_stop_conversion
 2525              		.section	.text.adcSTM32EnableVREF,"ax",%progbits
 2526              		.align	1
 2527              		.global	adcSTM32EnableVREF
 2528              		.syntax unified
 2529              		.thumb
 2530              		.thumb_func
 2531              		.type	adcSTM32EnableVREF, %function
 2532              	adcSTM32EnableVREF:
 2533              	.LFB447:
 2534              		.loc 6 870 42
 2535              		.cfi_startproc
 2536              		@ args = 0, pretend = 0, frame = 8
 2537              		@ frame_needed = 1, uses_anonymous_args = 0
 2538              		@ link register save eliminated.
 2539 0000 80B4     		push	{r7}
 2540              		.cfi_def_cfa_offset 4
 2541              		.cfi_offset 7, -4
 2542 0002 83B0     		sub	sp, sp, #12
 2543              		.cfi_def_cfa_offset 16
 2544 0004 00AF     		add	r7, sp, #0
 2545              		.cfi_def_cfa_register 7
 2546 0006 7860     		str	r0, [r7, #4]
 2547              		.loc 6 872 7
 2548 0008 7B68     		ldr	r3, [r7, #4]
 2549 000a DB6A     		ldr	r3, [r3, #44]
 2550              		.loc 6 872 19
 2551 000c 9A68     		ldr	r2, [r3, #8]
 2552              		.loc 6 872 7
 2553 000e 7B68     		ldr	r3, [r7, #4]
 2554 0010 DB6A     		ldr	r3, [r3, #44]
 2555              		.loc 6 872 19
 2556 0012 42F48002 		orr	r2, r2, #4194304
ARM GAS  C:\Users\DEVELO~1\AppData\Local\Temp\ccX8mAEU.s 			page 46


 2557 0016 9A60     		str	r2, [r3, #8]
 2558              		.loc 6 873 1
 2559 0018 00BF     		nop
 2560 001a 0C37     		adds	r7, r7, #12
 2561              		.cfi_def_cfa_offset 4
 2562 001c BD46     		mov	sp, r7
 2563              		.cfi_def_cfa_register 13
 2564              		@ sp needed
 2565 001e 80BC     		pop	{r7}
 2566              		.cfi_restore 7
 2567              		.cfi_def_cfa_offset 0
 2568 0020 7047     		bx	lr
 2569              		.cfi_endproc
 2570              	.LFE447:
 2571              		.size	adcSTM32EnableVREF, .-adcSTM32EnableVREF
 2572              		.section	.text.adcSTM32DisableVREF,"ax",%progbits
 2573              		.align	1
 2574              		.global	adcSTM32DisableVREF
 2575              		.syntax unified
 2576              		.thumb
 2577              		.thumb_func
 2578              		.type	adcSTM32DisableVREF, %function
 2579              	adcSTM32DisableVREF:
 2580              	.LFB448:
 2581              		.loc 6 885 43
 2582              		.cfi_startproc
 2583              		@ args = 0, pretend = 0, frame = 8
 2584              		@ frame_needed = 1, uses_anonymous_args = 0
 2585              		@ link register save eliminated.
 2586 0000 80B4     		push	{r7}
 2587              		.cfi_def_cfa_offset 4
 2588              		.cfi_offset 7, -4
 2589 0002 83B0     		sub	sp, sp, #12
 2590              		.cfi_def_cfa_offset 16
 2591 0004 00AF     		add	r7, sp, #0
 2592              		.cfi_def_cfa_register 7
 2593 0006 7860     		str	r0, [r7, #4]
 2594              		.loc 6 887 7
 2595 0008 7B68     		ldr	r3, [r7, #4]
 2596 000a DB6A     		ldr	r3, [r3, #44]
 2597              		.loc 6 887 19
 2598 000c 9A68     		ldr	r2, [r3, #8]
 2599              		.loc 6 887 7
 2600 000e 7B68     		ldr	r3, [r7, #4]
 2601 0010 DB6A     		ldr	r3, [r3, #44]
 2602              		.loc 6 887 19
 2603 0012 22F48002 		bic	r2, r2, #4194304
 2604 0016 9A60     		str	r2, [r3, #8]
 2605              		.loc 6 888 1
 2606 0018 00BF     		nop
 2607 001a 0C37     		adds	r7, r7, #12
 2608              		.cfi_def_cfa_offset 4
 2609 001c BD46     		mov	sp, r7
 2610              		.cfi_def_cfa_register 13
 2611              		@ sp needed
 2612 001e 80BC     		pop	{r7}
 2613              		.cfi_restore 7
ARM GAS  C:\Users\DEVELO~1\AppData\Local\Temp\ccX8mAEU.s 			page 47


 2614              		.cfi_def_cfa_offset 0
 2615 0020 7047     		bx	lr
 2616              		.cfi_endproc
 2617              	.LFE448:
 2618              		.size	adcSTM32DisableVREF, .-adcSTM32DisableVREF
 2619              		.section	.text.adcSTM32EnableTS,"ax",%progbits
 2620              		.align	1
 2621              		.global	adcSTM32EnableTS
 2622              		.syntax unified
 2623              		.thumb
 2624              		.thumb_func
 2625              		.type	adcSTM32EnableTS, %function
 2626              	adcSTM32EnableTS:
 2627              	.LFB449:
 2628              		.loc 6 900 40
 2629              		.cfi_startproc
 2630              		@ args = 0, pretend = 0, frame = 8
 2631              		@ frame_needed = 1, uses_anonymous_args = 0
 2632              		@ link register save eliminated.
 2633 0000 80B4     		push	{r7}
 2634              		.cfi_def_cfa_offset 4
 2635              		.cfi_offset 7, -4
 2636 0002 83B0     		sub	sp, sp, #12
 2637              		.cfi_def_cfa_offset 16
 2638 0004 00AF     		add	r7, sp, #0
 2639              		.cfi_def_cfa_register 7
 2640 0006 7860     		str	r0, [r7, #4]
 2641              		.loc 6 902 7
 2642 0008 7B68     		ldr	r3, [r7, #4]
 2643 000a DB6A     		ldr	r3, [r3, #44]
 2644              		.loc 6 902 19
 2645 000c 9A68     		ldr	r2, [r3, #8]
 2646              		.loc 6 902 7
 2647 000e 7B68     		ldr	r3, [r7, #4]
 2648 0010 DB6A     		ldr	r3, [r3, #44]
 2649              		.loc 6 902 19
 2650 0012 42F40002 		orr	r2, r2, #8388608
 2651 0016 9A60     		str	r2, [r3, #8]
 2652              		.loc 6 903 1
 2653 0018 00BF     		nop
 2654 001a 0C37     		adds	r7, r7, #12
 2655              		.cfi_def_cfa_offset 4
 2656 001c BD46     		mov	sp, r7
 2657              		.cfi_def_cfa_register 13
 2658              		@ sp needed
 2659 001e 80BC     		pop	{r7}
 2660              		.cfi_restore 7
 2661              		.cfi_def_cfa_offset 0
 2662 0020 7047     		bx	lr
 2663              		.cfi_endproc
 2664              	.LFE449:
 2665              		.size	adcSTM32EnableTS, .-adcSTM32EnableTS
 2666              		.section	.text.adcSTM32DisableTS,"ax",%progbits
 2667              		.align	1
 2668              		.global	adcSTM32DisableTS
 2669              		.syntax unified
 2670              		.thumb
ARM GAS  C:\Users\DEVELO~1\AppData\Local\Temp\ccX8mAEU.s 			page 48


 2671              		.thumb_func
 2672              		.type	adcSTM32DisableTS, %function
 2673              	adcSTM32DisableTS:
 2674              	.LFB450:
 2675              		.loc 6 915 41
 2676              		.cfi_startproc
 2677              		@ args = 0, pretend = 0, frame = 8
 2678              		@ frame_needed = 1, uses_anonymous_args = 0
 2679              		@ link register save eliminated.
 2680 0000 80B4     		push	{r7}
 2681              		.cfi_def_cfa_offset 4
 2682              		.cfi_offset 7, -4
 2683 0002 83B0     		sub	sp, sp, #12
 2684              		.cfi_def_cfa_offset 16
 2685 0004 00AF     		add	r7, sp, #0
 2686              		.cfi_def_cfa_register 7
 2687 0006 7860     		str	r0, [r7, #4]
 2688              		.loc 6 917 7
 2689 0008 7B68     		ldr	r3, [r7, #4]
 2690 000a DB6A     		ldr	r3, [r3, #44]
 2691              		.loc 6 917 19
 2692 000c 9A68     		ldr	r2, [r3, #8]
 2693              		.loc 6 917 7
 2694 000e 7B68     		ldr	r3, [r7, #4]
 2695 0010 DB6A     		ldr	r3, [r3, #44]
 2696              		.loc 6 917 19
 2697 0012 22F40002 		bic	r2, r2, #8388608
 2698 0016 9A60     		str	r2, [r3, #8]
 2699              		.loc 6 918 1
 2700 0018 00BF     		nop
 2701 001a 0C37     		adds	r7, r7, #12
 2702              		.cfi_def_cfa_offset 4
 2703 001c BD46     		mov	sp, r7
 2704              		.cfi_def_cfa_register 13
 2705              		@ sp needed
 2706 001e 80BC     		pop	{r7}
 2707              		.cfi_restore 7
 2708              		.cfi_def_cfa_offset 0
 2709 0020 7047     		bx	lr
 2710              		.cfi_endproc
 2711              	.LFE450:
 2712              		.size	adcSTM32DisableTS, .-adcSTM32DisableTS
 2713              		.section	.text.adcSTM32EnableVBAT,"ax",%progbits
 2714              		.align	1
 2715              		.global	adcSTM32EnableVBAT
 2716              		.syntax unified
 2717              		.thumb
 2718              		.thumb_func
 2719              		.type	adcSTM32EnableVBAT, %function
 2720              	adcSTM32EnableVBAT:
 2721              	.LFB451:
 2722              		.loc 6 930 42
 2723              		.cfi_startproc
 2724              		@ args = 0, pretend = 0, frame = 8
 2725              		@ frame_needed = 1, uses_anonymous_args = 0
 2726              		@ link register save eliminated.
 2727 0000 80B4     		push	{r7}
ARM GAS  C:\Users\DEVELO~1\AppData\Local\Temp\ccX8mAEU.s 			page 49


 2728              		.cfi_def_cfa_offset 4
 2729              		.cfi_offset 7, -4
 2730 0002 83B0     		sub	sp, sp, #12
 2731              		.cfi_def_cfa_offset 16
 2732 0004 00AF     		add	r7, sp, #0
 2733              		.cfi_def_cfa_register 7
 2734 0006 7860     		str	r0, [r7, #4]
 2735              		.loc 6 932 7
 2736 0008 7B68     		ldr	r3, [r7, #4]
 2737 000a DB6A     		ldr	r3, [r3, #44]
 2738              		.loc 6 932 19
 2739 000c 9A68     		ldr	r2, [r3, #8]
 2740              		.loc 6 932 7
 2741 000e 7B68     		ldr	r3, [r7, #4]
 2742 0010 DB6A     		ldr	r3, [r3, #44]
 2743              		.loc 6 932 19
 2744 0012 42F08072 		orr	r2, r2, #16777216
 2745 0016 9A60     		str	r2, [r3, #8]
 2746              		.loc 6 933 1
 2747 0018 00BF     		nop
 2748 001a 0C37     		adds	r7, r7, #12
 2749              		.cfi_def_cfa_offset 4
 2750 001c BD46     		mov	sp, r7
 2751              		.cfi_def_cfa_register 13
 2752              		@ sp needed
 2753 001e 80BC     		pop	{r7}
 2754              		.cfi_restore 7
 2755              		.cfi_def_cfa_offset 0
 2756 0020 7047     		bx	lr
 2757              		.cfi_endproc
 2758              	.LFE451:
 2759              		.size	adcSTM32EnableVBAT, .-adcSTM32EnableVBAT
 2760              		.section	.text.adcSTM32DisableVBAT,"ax",%progbits
 2761              		.align	1
 2762              		.global	adcSTM32DisableVBAT
 2763              		.syntax unified
 2764              		.thumb
 2765              		.thumb_func
 2766              		.type	adcSTM32DisableVBAT, %function
 2767              	adcSTM32DisableVBAT:
 2768              	.LFB452:
 2769              		.loc 6 945 43
 2770              		.cfi_startproc
 2771              		@ args = 0, pretend = 0, frame = 8
 2772              		@ frame_needed = 1, uses_anonymous_args = 0
 2773              		@ link register save eliminated.
 2774 0000 80B4     		push	{r7}
 2775              		.cfi_def_cfa_offset 4
 2776              		.cfi_offset 7, -4
 2777 0002 83B0     		sub	sp, sp, #12
 2778              		.cfi_def_cfa_offset 16
 2779 0004 00AF     		add	r7, sp, #0
 2780              		.cfi_def_cfa_register 7
 2781 0006 7860     		str	r0, [r7, #4]
 2782              		.loc 6 947 7
 2783 0008 7B68     		ldr	r3, [r7, #4]
 2784 000a DB6A     		ldr	r3, [r3, #44]
ARM GAS  C:\Users\DEVELO~1\AppData\Local\Temp\ccX8mAEU.s 			page 50


 2785              		.loc 6 947 19
 2786 000c 9A68     		ldr	r2, [r3, #8]
 2787              		.loc 6 947 7
 2788 000e 7B68     		ldr	r3, [r7, #4]
 2789 0010 DB6A     		ldr	r3, [r3, #44]
 2790              		.loc 6 947 19
 2791 0012 22F08072 		bic	r2, r2, #16777216
 2792 0016 9A60     		str	r2, [r3, #8]
 2793              		.loc 6 948 1
 2794 0018 00BF     		nop
 2795 001a 0C37     		adds	r7, r7, #12
 2796              		.cfi_def_cfa_offset 4
 2797 001c BD46     		mov	sp, r7
 2798              		.cfi_def_cfa_register 13
 2799              		@ sp needed
 2800 001e 80BC     		pop	{r7}
 2801              		.cfi_restore 7
 2802              		.cfi_def_cfa_offset 0
 2803 0020 7047     		bx	lr
 2804              		.cfi_endproc
 2805              	.LFE452:
 2806              		.size	adcSTM32DisableVBAT, .-adcSTM32DisableVBAT
 2807              		.section	.rodata.__func__.1,"a"
 2808              		.align	2
 2809              		.type	__func__.1, %object
 2810              		.size	__func__.1, 9
 2811              	__func__.1:
 2812 0000 56656374 		.ascii	"Vector88\000"
 2812      6F723838 
 2812      00
 2813              		.section	.rodata.__func__.0,"a"
 2814              		.align	2
 2815              		.type	__func__.0, %object
 2816              		.size	__func__.0, 10
 2817              	__func__.0:
 2818 0000 56656374 		.ascii	"Vector23C\000"
 2818      6F723233 
 2818      4300
 2819              		.text
 2820              	.Letext0:
 2821              		.file 7 "c:\\chibistudio\\tools\\gnu tools arm embedded\\11.3 2022.08\\lib\\gcc\\arm-none-eabi\\11
 2822              		.file 8 "c:\\chibistudio\\tools\\gnu tools arm embedded\\11.3 2022.08\\arm-none-eabi\\include\\mac
 2823              		.file 9 "c:\\chibistudio\\tools\\gnu tools arm embedded\\11.3 2022.08\\arm-none-eabi\\include\\sys
 2824              		.file 10 "../../../os/common/ports/ARM-common/chtypes.h"
 2825              		.file 11 "../../../os/rt/include/chearly.h"
 2826              		.file 12 "../../../os/rt/include/chobjects.h"
 2827              		.file 13 "../../../os/rt/include/chrfcu.h"
 2828              		.file 14 "../../../os/rt/include/chdebug.h"
 2829              		.file 15 "../../../os/rt/include/chtime.h"
 2830              		.file 16 "../../../os/rt/include/chlists.h"
 2831              		.file 17 "../../../os/rt/include/chtrace.h"
 2832              		.file 18 "../../../os/common/ext/ST/STM32H7xx/stm32h743xx.h"
 2833              		.file 19 "../../../os/rt/include/chsem.h"
 2834              		.file 20 "../../../os/rt/include/chmtx.h"
 2835              		.file 21 "../../../os/hal/ports/STM32/LLD/DMAv2/stm32_dma.h"
 2836              		.file 22 "../../../os/hal/include/hal_adc.h"
 2837              		.file 23 "../../../os/hal/ports/STM32/LLD/ADCv4/hal_adc_lld.h"
ARM GAS  C:\Users\DEVELO~1\AppData\Local\Temp\ccX8mAEU.s 			page 51


 2838              		.file 24 "../../../os/hal/ports/common/ARMCMx/nvic.h"
 2839              		.file 25 "../../../os/rt/include/chthreads.h"
 2840              		.section	.debug_info,"",%progbits
 2841              	.Ldebug_info0:
 2842 0000 2D1B0000 		.4byte	0x1b2d
 2843 0004 0500     		.2byte	0x5
 2844 0006 01       		.byte	0x1
 2845 0007 04       		.byte	0x4
 2846 0008 00000000 		.4byte	.Ldebug_abbrev0
 2847 000c 2E       		.uleb128 0x2e
 2848 000d C3030000 		.4byte	.LASF331
 2849 0011 1D       		.byte	0x1d
 2850 0012 18050000 		.4byte	.LASF332
 2851 0016 90040000 		.4byte	.LASF333
 2852 001a 0C000000 		.4byte	.LLRL0
 2853 001e 00000000 		.4byte	0
 2854 0022 00000000 		.4byte	.Ldebug_line0
 2855 0026 2F       		.uleb128 0x2f
 2856 0027 04       		.byte	0x4
 2857 0028 05       		.byte	0x5
 2858 0029 696E7400 		.ascii	"int\000"
 2859 002d 03       		.uleb128 0x3
 2860 002e 64050000 		.4byte	.LASF4
 2861 0032 07       		.byte	0x7
 2862 0033 D1       		.byte	0xd1
 2863 0034 17       		.byte	0x17
 2864 0035 39000000 		.4byte	0x39
 2865 0039 0B       		.uleb128 0xb
 2866 003a 04       		.byte	0x4
 2867 003b 07       		.byte	0x7
 2868 003c ED000000 		.4byte	.LASF0
 2869 0040 0B       		.uleb128 0xb
 2870 0041 08       		.byte	0x8
 2871 0042 05       		.byte	0x5
 2872 0043 CC070000 		.4byte	.LASF1
 2873 0047 0B       		.uleb128 0xb
 2874 0048 08       		.byte	0x8
 2875 0049 04       		.byte	0x4
 2876 004a 13090000 		.4byte	.LASF2
 2877 004e 0B       		.uleb128 0xb
 2878 004f 01       		.byte	0x1
 2879 0050 06       		.byte	0x6
 2880 0051 B00D0000 		.4byte	.LASF3
 2881 0055 03       		.uleb128 0x3
 2882 0056 2A0B0000 		.4byte	.LASF5
 2883 005a 08       		.byte	0x8
 2884 005b 2B       		.byte	0x2b
 2885 005c 18       		.byte	0x18
 2886 005d 61000000 		.4byte	0x61
 2887 0061 0B       		.uleb128 0xb
 2888 0062 01       		.byte	0x1
 2889 0063 08       		.byte	0x8
 2890 0064 A90C0000 		.4byte	.LASF6
 2891 0068 0B       		.uleb128 0xb
 2892 0069 02       		.byte	0x2
 2893 006a 05       		.byte	0x5
 2894 006b 6D080000 		.4byte	.LASF7
ARM GAS  C:\Users\DEVELO~1\AppData\Local\Temp\ccX8mAEU.s 			page 52


 2895 006f 03       		.uleb128 0x3
 2896 0070 B2030000 		.4byte	.LASF8
 2897 0074 08       		.byte	0x8
 2898 0075 39       		.byte	0x39
 2899 0076 19       		.byte	0x19
 2900 0077 7B000000 		.4byte	0x7b
 2901 007b 0B       		.uleb128 0xb
 2902 007c 02       		.byte	0x2
 2903 007d 07       		.byte	0x7
 2904 007e C80D0000 		.4byte	.LASF9
 2905 0082 03       		.uleb128 0x3
 2906 0083 70010000 		.4byte	.LASF10
 2907 0087 08       		.byte	0x8
 2908 0088 4D       		.byte	0x4d
 2909 0089 18       		.byte	0x18
 2910 008a 8E000000 		.4byte	0x8e
 2911 008e 0B       		.uleb128 0xb
 2912 008f 04       		.byte	0x4
 2913 0090 05       		.byte	0x5
 2914 0091 0A000000 		.4byte	.LASF11
 2915 0095 03       		.uleb128 0x3
 2916 0096 BF0C0000 		.4byte	.LASF12
 2917 009a 08       		.byte	0x8
 2918 009b 4F       		.byte	0x4f
 2919 009c 19       		.byte	0x19
 2920 009d A1000000 		.4byte	0xa1
 2921 00a1 0B       		.uleb128 0xb
 2922 00a2 04       		.byte	0x4
 2923 00a3 07       		.byte	0x7
 2924 00a4 C00B0000 		.4byte	.LASF13
 2925 00a8 03       		.uleb128 0x3
 2926 00a9 13070000 		.4byte	.LASF14
 2927 00ad 08       		.byte	0x8
 2928 00ae 69       		.byte	0x69
 2929 00af 19       		.byte	0x19
 2930 00b0 B4000000 		.4byte	0xb4
 2931 00b4 0B       		.uleb128 0xb
 2932 00b5 08       		.byte	0x8
 2933 00b6 07       		.byte	0x7
 2934 00b7 70030000 		.4byte	.LASF15
 2935 00bb 03       		.uleb128 0x3
 2936 00bc 45070000 		.4byte	.LASF16
 2937 00c0 09       		.byte	0x9
 2938 00c1 18       		.byte	0x18
 2939 00c2 13       		.byte	0x13
 2940 00c3 55000000 		.4byte	0x55
 2941 00c7 03       		.uleb128 0x3
 2942 00c8 1F090000 		.4byte	.LASF17
 2943 00cc 09       		.byte	0x9
 2944 00cd 24       		.byte	0x24
 2945 00ce 14       		.byte	0x14
 2946 00cf 6F000000 		.4byte	0x6f
 2947 00d3 03       		.uleb128 0x3
 2948 00d4 2C0C0000 		.4byte	.LASF18
 2949 00d8 09       		.byte	0x9
 2950 00d9 2C       		.byte	0x2c
 2951 00da 13       		.byte	0x13
ARM GAS  C:\Users\DEVELO~1\AppData\Local\Temp\ccX8mAEU.s 			page 53


 2952 00db 82000000 		.4byte	0x82
 2953 00df 03       		.uleb128 0x3
 2954 00e0 0A010000 		.4byte	.LASF19
 2955 00e4 09       		.byte	0x9
 2956 00e5 30       		.byte	0x30
 2957 00e6 14       		.byte	0x14
 2958 00e7 95000000 		.4byte	0x95
 2959 00eb 21       		.uleb128 0x21
 2960 00ec DF000000 		.4byte	0xdf
 2961 00f0 03       		.uleb128 0x3
 2962 00f1 E10A0000 		.4byte	.LASF20
 2963 00f5 09       		.byte	0x9
 2964 00f6 3C       		.byte	0x3c
 2965 00f7 14       		.byte	0x14
 2966 00f8 A8000000 		.4byte	0xa8
 2967 00fc 21       		.uleb128 0x21
 2968 00fd F0000000 		.4byte	0xf0
 2969 0101 03       		.uleb128 0x3
 2970 0102 3B020000 		.4byte	.LASF21
 2971 0106 0A       		.byte	0xa
 2972 0107 36       		.byte	0x36
 2973 0108 1D       		.byte	0x1d
 2974 0109 DF000000 		.4byte	0xdf
 2975 010d 03       		.uleb128 0x3
 2976 010e 880A0000 		.4byte	.LASF22
 2977 0112 0A       		.byte	0xa
 2978 0113 48       		.byte	0x48
 2979 0114 1D       		.byte	0x1d
 2980 0115 F0000000 		.4byte	0xf0
 2981 0119 03       		.uleb128 0x3
 2982 011a 4D090000 		.4byte	.LASF23
 2983 011e 0B       		.byte	0xb
 2984 011f 4D       		.byte	0x4d
 2985 0120 19       		.byte	0x19
 2986 0121 01010000 		.4byte	0x101
 2987 0125 03       		.uleb128 0x3
 2988 0126 E20D0000 		.4byte	.LASF24
 2989 012a 0B       		.byte	0xb
 2990 012b 50       		.byte	0x50
 2991 012c 19       		.byte	0x19
 2992 012d 0D010000 		.4byte	0x10d
 2993 0131 03       		.uleb128 0x3
 2994 0132 C6080000 		.4byte	.LASF25
 2995 0136 0B       		.byte	0xb
 2996 0137 53       		.byte	0x53
 2997 0138 19       		.byte	0x19
 2998 0139 BB000000 		.4byte	0xbb
 2999 013d 03       		.uleb128 0x3
 3000 013e D5060000 		.4byte	.LASF26
 3001 0142 0B       		.byte	0xb
 3002 0143 54       		.byte	0x54
 3003 0144 19       		.byte	0x19
 3004 0145 BB000000 		.4byte	0xbb
 3005 0149 03       		.uleb128 0x3
 3006 014a 9F0B0000 		.4byte	.LASF27
 3007 014e 0B       		.byte	0xb
 3008 014f 55       		.byte	0x55
ARM GAS  C:\Users\DEVELO~1\AppData\Local\Temp\ccX8mAEU.s 			page 54


 3009 0150 19       		.byte	0x19
 3010 0151 BB000000 		.4byte	0xbb
 3011 0155 03       		.uleb128 0x3
 3012 0156 42030000 		.4byte	.LASF28
 3013 015a 0B       		.byte	0xb
 3014 015b 57       		.byte	0x57
 3015 015c 19       		.byte	0x19
 3016 015d DF000000 		.4byte	0xdf
 3017 0161 03       		.uleb128 0x3
 3018 0162 06080000 		.4byte	.LASF29
 3019 0166 0B       		.byte	0xb
 3020 0167 58       		.byte	0x58
 3021 0168 19       		.byte	0x19
 3022 0169 D3000000 		.4byte	0xd3
 3023 016d 03       		.uleb128 0x3
 3024 016e F5020000 		.4byte	.LASF30
 3025 0172 0B       		.byte	0xb
 3026 0173 5A       		.byte	0x5a
 3027 0174 19       		.byte	0x19
 3028 0175 DF000000 		.4byte	0xdf
 3029 0179 03       		.uleb128 0x3
 3030 017a BD030000 		.4byte	.LASF31
 3031 017e 0B       		.byte	0xb
 3032 017f 5C       		.byte	0x5c
 3033 0180 19       		.byte	0x19
 3034 0181 D3000000 		.4byte	0xd3
 3035 0185 03       		.uleb128 0x3
 3036 0186 BB0E0000 		.4byte	.LASF32
 3037 018a 0B       		.byte	0xb
 3038 018b 80       		.byte	0x80
 3039 018c 12       		.byte	0x12
 3040 018d 39000000 		.4byte	0x39
 3041 0191 03       		.uleb128 0x3
 3042 0192 FC040000 		.4byte	.LASF33
 3043 0196 0B       		.byte	0xb
 3044 0197 85       		.byte	0x85
 3045 0198 1A       		.byte	0x1a
 3046 0199 9D010000 		.4byte	0x19d
 3047 019d 09       		.uleb128 0x9
 3048 019e 7C070000 		.4byte	.LASF48
 3049 01a2 48       		.byte	0x48
 3050 01a3 0C       		.byte	0xc
 3051 01a4 9C       		.byte	0x9c
 3052 01a5 08       		.byte	0x8
 3053 01a6 80020000 		.4byte	0x280
 3054 01aa 08       		.uleb128 0x8
 3055 01ab 68647200 		.ascii	"hdr\000"
 3056 01af 0C       		.byte	0xc
 3057 01b0 AD       		.byte	0xad
 3058 01b1 05       		.byte	0x5
 3059 01b2 560E0000 		.4byte	0xe56
 3060 01b6 00       		.byte	0
 3061 01b7 08       		.uleb128 0x8
 3062 01b8 63747800 		.ascii	"ctx\000"
 3063 01bc 0C       		.byte	0xc
 3064 01bd B1       		.byte	0xb1
 3065 01be 21       		.byte	0x21
ARM GAS  C:\Users\DEVELO~1\AppData\Local\Temp\ccX8mAEU.s 			page 55


 3066 01bf C10D0000 		.4byte	0xdc1
 3067 01c3 0C       		.byte	0xc
 3068 01c4 02       		.uleb128 0x2
 3069 01c5 9A070000 		.4byte	.LASF34
 3070 01c9 0C       		.byte	0xc
 3071 01ca B6       		.byte	0xb6
 3072 01cb 21       		.byte	0x21
 3073 01cc CE030000 		.4byte	0x3ce
 3074 01d0 10       		.byte	0x10
 3075 01d1 02       		.uleb128 0x2
 3076 01d2 53040000 		.4byte	.LASF35
 3077 01d6 0C       		.byte	0xc
 3078 01d7 BB       		.byte	0xbb
 3079 01d8 22       		.byte	0x22
 3080 01d9 580F0000 		.4byte	0xf58
 3081 01dd 18       		.byte	0x18
 3082 01de 02       		.uleb128 0x2
 3083 01df 3F0B0000 		.4byte	.LASF36
 3084 01e3 0C       		.byte	0xc
 3085 01e4 C0       		.byte	0xc0
 3086 01e5 22       		.byte	0x22
 3087 01e6 68030000 		.4byte	0x368
 3088 01ea 1C       		.byte	0x1c
 3089 01eb 02       		.uleb128 0x2
 3090 01ec C1060000 		.4byte	.LASF37
 3091 01f0 0C       		.byte	0xc
 3092 01f1 C9       		.byte	0xc9
 3093 01f2 22       		.byte	0x22
 3094 01f3 5D0F0000 		.4byte	0xf5d
 3095 01f7 20       		.byte	0x20
 3096 01f8 02       		.uleb128 0x2
 3097 01f9 1D0D0000 		.4byte	.LASF38
 3098 01fd 0C       		.byte	0xc
 3099 01fe CE       		.byte	0xce
 3100 01ff 21       		.byte	0x21
 3101 0200 3D010000 		.4byte	0x13d
 3102 0204 24       		.byte	0x24
 3103 0205 02       		.uleb128 0x2
 3104 0206 BA000000 		.4byte	.LASF39
 3105 020a 0C       		.byte	0xc
 3106 020b D2       		.byte	0xd2
 3107 020c 21       		.byte	0x21
 3108 020d 31010000 		.4byte	0x131
 3109 0211 25       		.byte	0x25
 3110 0212 02       		.uleb128 0x2
 3111 0213 7A010000 		.4byte	.LASF40
 3112 0217 0C       		.byte	0xc
 3113 0218 D7       		.byte	0xd7
 3114 0219 21       		.byte	0x21
 3115 021a 49010000 		.4byte	0x149
 3116 021e 26       		.byte	0x26
 3117 021f 05       		.uleb128 0x5
 3118 0220 7500     		.ascii	"u\000"
 3119 0222 0C       		.byte	0xc
 3120 0223 2801     		.2byte	0x128
 3121 0225 21       		.byte	0x21
 3122 0226 830E0000 		.4byte	0xe83
ARM GAS  C:\Users\DEVELO~1\AppData\Local\Temp\ccX8mAEU.s 			page 56


 3123 022a 28       		.byte	0x28
 3124 022b 01       		.uleb128 0x1
 3125 022c CA0C0000 		.4byte	.LASF41
 3126 0230 0C       		.byte	0xc
 3127 0231 2D01     		.2byte	0x12d
 3128 0233 21       		.byte	0x21
 3129 0234 A2030000 		.4byte	0x3a2
 3130 0238 2C       		.byte	0x2c
 3131 0239 01       		.uleb128 0x1
 3132 023a 63070000 		.4byte	.LASF42
 3133 023e 0C       		.byte	0xc
 3134 023f 3301     		.2byte	0x133
 3135 0241 21       		.byte	0x21
 3136 0242 CE030000 		.4byte	0x3ce
 3137 0246 30       		.byte	0x30
 3138 0247 01       		.uleb128 0x1
 3139 0248 E4000000 		.4byte	.LASF43
 3140 024c 0C       		.byte	0xc
 3141 024d 3901     		.2byte	0x139
 3142 024f 21       		.byte	0x21
 3143 0250 6D010000 		.4byte	0x16d
 3144 0254 38       		.byte	0x38
 3145 0255 01       		.uleb128 0x1
 3146 0256 71040000 		.4byte	.LASF44
 3147 025a 0C       		.byte	0xc
 3148 025b 4001     		.2byte	0x140
 3149 025d 22       		.byte	0x22
 3150 025e 530F0000 		.4byte	0xf53
 3151 0262 3C       		.byte	0x3c
 3152 0263 01       		.uleb128 0x1
 3153 0264 CA000000 		.4byte	.LASF45
 3154 0268 0C       		.byte	0xc
 3155 0269 4401     		.2byte	0x144
 3156 026b 21       		.byte	0x21
 3157 026c 55010000 		.4byte	0x155
 3158 0270 40       		.byte	0x40
 3159 0271 01       		.uleb128 0x1
 3160 0272 C50E0000 		.4byte	.LASF46
 3161 0276 0C       		.byte	0xc
 3162 0277 4B01     		.2byte	0x14b
 3163 0279 22       		.byte	0x22
 3164 027a BC040000 		.4byte	0x4bc
 3165 027e 44       		.byte	0x44
 3166 027f 00       		.byte	0
 3167 0280 03       		.uleb128 0x3
 3168 0281 280D0000 		.4byte	.LASF47
 3169 0285 0B       		.byte	0xb
 3170 0286 8A       		.byte	0x8a
 3171 0287 1F       		.byte	0x1f
 3172 0288 8C020000 		.4byte	0x28c
 3173 028c 30       		.uleb128 0x30
 3174 028d E0050000 		.4byte	.LASF49
 3175 0291 9008     		.2byte	0x890
 3176 0293 0C       		.byte	0xc
 3177 0294 8A01     		.2byte	0x18a
 3178 0296 08       		.byte	0x8
 3179 0297 1A030000 		.4byte	0x31a
ARM GAS  C:\Users\DEVELO~1\AppData\Local\Temp\ccX8mAEU.s 			page 57


 3180 029b 01       		.uleb128 0x1
 3181 029c F70A0000 		.4byte	.LASF50
 3182 02a0 0C       		.byte	0xc
 3183 02a1 8E01     		.2byte	0x18e
 3184 02a3 21       		.byte	0x21
 3185 02a4 8D0F0000 		.4byte	0xf8d
 3186 02a8 00       		.byte	0
 3187 02a9 01       		.uleb128 0x1
 3188 02aa B9010000 		.4byte	.LASF51
 3189 02ae 0C       		.byte	0xc
 3190 02af 9201     		.2byte	0x192
 3191 02b1 21       		.byte	0x21
 3192 02b2 170E0000 		.4byte	0xe17
 3193 02b6 10       		.byte	0x10
 3194 02b7 01       		.uleb128 0x1
 3195 02b8 490D0000 		.4byte	.LASF52
 3196 02bc 0C       		.byte	0xc
 3197 02bd 9901     		.2byte	0x199
 3198 02bf 21       		.byte	0x21
 3199 02c0 3E0E0000 		.4byte	0xe3e
 3200 02c4 28       		.byte	0x28
 3201 02c5 01       		.uleb128 0x1
 3202 02c6 31010000 		.4byte	.LASF53
 3203 02ca 0C       		.byte	0xc
 3204 02cb 9E01     		.2byte	0x19e
 3205 02cd 21       		.byte	0x21
 3206 02ce 85010000 		.4byte	0x185
 3207 02d2 30       		.byte	0x30
 3208 02d3 01       		.uleb128 0x1
 3209 02d4 EF040000 		.4byte	.LASF54
 3210 02d8 0C       		.byte	0xc
 3211 02d9 A401     		.2byte	0x1a4
 3212 02db 21       		.byte	0x21
 3213 02dc 41030000 		.4byte	0x341
 3214 02e0 34       		.byte	0x34
 3215 02e1 01       		.uleb128 0x1
 3216 02e2 7E090000 		.4byte	.LASF55
 3217 02e6 0C       		.byte	0xc
 3218 02e7 A901     		.2byte	0x1a9
 3219 02e9 22       		.byte	0x22
 3220 02ea 01100000 		.4byte	0x1001
 3221 02ee 38       		.byte	0x38
 3222 02ef 01       		.uleb128 0x1
 3223 02f0 EB080000 		.4byte	.LASF56
 3224 02f4 0C       		.byte	0xc
 3225 02f5 AD01     		.2byte	0x1ad
 3226 02f7 21       		.byte	0x21
 3227 02f8 91010000 		.4byte	0x191
 3228 02fc 3C       		.byte	0x3c
 3229 02fd 05       		.uleb128 0x5
 3230 02fe 64626700 		.ascii	"dbg\000"
 3231 0302 0C       		.byte	0xc
 3232 0303 B101     		.2byte	0x1b1
 3233 0305 21       		.byte	0x21
 3234 0306 7E030000 		.4byte	0x37e
 3235 030a 84       		.byte	0x84
 3236 030b 01       		.uleb128 0x1
ARM GAS  C:\Users\DEVELO~1\AppData\Local\Temp\ccX8mAEU.s 			page 58


 3237 030c 97030000 		.4byte	.LASF57
 3238 0310 0C       		.byte	0xc
 3239 0311 B601     		.2byte	0x1b6
 3240 0313 21       		.byte	0x21
 3241 0314 17060000 		.4byte	0x617
 3242 0318 88       		.byte	0x88
 3243 0319 00       		.byte	0
 3244 031a 03       		.uleb128 0x3
 3245 031b 92060000 		.4byte	.LASF58
 3246 031f 0D       		.byte	0xd
 3247 0320 3F       		.byte	0x3f
 3248 0321 12       		.byte	0x12
 3249 0322 DF000000 		.4byte	0xdf
 3250 0326 09       		.uleb128 0x9
 3251 0327 CA050000 		.4byte	.LASF59
 3252 032b 04       		.byte	0x4
 3253 032c 0D       		.byte	0xd
 3254 032d 44       		.byte	0x44
 3255 032e 10       		.byte	0x10
 3256 032f 41030000 		.4byte	0x341
 3257 0333 02       		.uleb128 0x2
 3258 0334 77080000 		.4byte	.LASF60
 3259 0338 0D       		.byte	0xd
 3260 0339 48       		.byte	0x48
 3261 033a 21       		.byte	0x21
 3262 033b 1A030000 		.4byte	0x31a
 3263 033f 00       		.byte	0
 3264 0340 00       		.byte	0
 3265 0341 03       		.uleb128 0x3
 3266 0342 340C0000 		.4byte	.LASF61
 3267 0346 0D       		.byte	0xd
 3268 0347 49       		.byte	0x49
 3269 0348 03       		.byte	0x3
 3270 0349 26030000 		.4byte	0x326
 3271 034d 09       		.uleb128 0x9
 3272 034e AA020000 		.4byte	.LASF62
 3273 0352 04       		.byte	0x4
 3274 0353 0E       		.byte	0xe
 3275 0354 3E       		.byte	0x3e
 3276 0355 10       		.byte	0x10
 3277 0356 68030000 		.4byte	0x368
 3278 035a 02       		.uleb128 0x2
 3279 035b 9D080000 		.4byte	.LASF63
 3280 035f 0E       		.byte	0xe
 3281 0360 46       		.byte	0x46
 3282 0361 24       		.byte	0x24
 3283 0362 6D030000 		.4byte	0x36d
 3284 0366 00       		.byte	0
 3285 0367 00       		.byte	0
 3286 0368 04       		.uleb128 0x4
 3287 0369 79030000 		.4byte	0x379
 3288 036d 21       		.uleb128 0x21
 3289 036e 68030000 		.4byte	0x368
 3290 0372 0B       		.uleb128 0xb
 3291 0373 01       		.byte	0x1
 3292 0374 08       		.byte	0x8
 3293 0375 7D060000 		.4byte	.LASF64
ARM GAS  C:\Users\DEVELO~1\AppData\Local\Temp\ccX8mAEU.s 			page 59


 3294 0379 0E       		.uleb128 0xe
 3295 037a 72030000 		.4byte	0x372
 3296 037e 03       		.uleb128 0x3
 3297 037f A1070000 		.4byte	.LASF65
 3298 0383 0E       		.byte	0xe
 3299 0384 51       		.byte	0x51
 3300 0385 03       		.byte	0x3
 3301 0386 4D030000 		.4byte	0x34d
 3302 038a 03       		.uleb128 0x3
 3303 038b C0000000 		.4byte	.LASF66
 3304 038f 0F       		.byte	0xf
 3305 0390 6D       		.byte	0x6d
 3306 0391 12       		.byte	0x12
 3307 0392 DF000000 		.4byte	0xdf
 3308 0396 03       		.uleb128 0x3
 3309 0397 82080000 		.4byte	.LASF67
 3310 039b 0F       		.byte	0xf
 3311 039c 79       		.byte	0x79
 3312 039d 12       		.byte	0x12
 3313 039e DF000000 		.4byte	0xdf
 3314 03a2 03       		.uleb128 0x3
 3315 03a3 28090000 		.4byte	.LASF68
 3316 03a7 10       		.byte	0x10
 3317 03a8 32       		.byte	0x32
 3318 03a9 18       		.byte	0x18
 3319 03aa AE030000 		.4byte	0x3ae
 3320 03ae 09       		.uleb128 0x9
 3321 03af 84020000 		.4byte	.LASF69
 3322 03b3 04       		.byte	0x4
 3323 03b4 10       		.byte	0x10
 3324 03b5 38       		.byte	0x38
 3325 03b6 08       		.byte	0x8
 3326 03b7 C9030000 		.4byte	0x3c9
 3327 03bb 02       		.uleb128 0x2
 3328 03bc 05010000 		.4byte	.LASF70
 3329 03c0 10       		.byte	0x10
 3330 03c1 39       		.byte	0x39
 3331 03c2 1A       		.byte	0x1a
 3332 03c3 C9030000 		.4byte	0x3c9
 3333 03c7 00       		.byte	0
 3334 03c8 00       		.byte	0
 3335 03c9 04       		.uleb128 0x4
 3336 03ca A2030000 		.4byte	0x3a2
 3337 03ce 03       		.uleb128 0x3
 3338 03cf 3B060000 		.4byte	.LASF71
 3339 03d3 10       		.byte	0x10
 3340 03d4 3F       		.byte	0x3f
 3341 03d5 19       		.byte	0x19
 3342 03d6 DA030000 		.4byte	0x3da
 3343 03da 09       		.uleb128 0x9
 3344 03db 7E0C0000 		.4byte	.LASF72
 3345 03df 08       		.byte	0x8
 3346 03e0 10       		.byte	0x10
 3347 03e1 45       		.byte	0x45
 3348 03e2 08       		.byte	0x8
 3349 03e3 02040000 		.4byte	0x402
 3350 03e7 02       		.uleb128 0x2
ARM GAS  C:\Users\DEVELO~1\AppData\Local\Temp\ccX8mAEU.s 			page 60


 3351 03e8 05010000 		.4byte	.LASF70
 3352 03ec 10       		.byte	0x10
 3353 03ed 46       		.byte	0x46
 3354 03ee 1A       		.byte	0x1a
 3355 03ef 02040000 		.4byte	0x402
 3356 03f3 00       		.byte	0
 3357 03f4 02       		.uleb128 0x2
 3358 03f5 7F010000 		.4byte	.LASF73
 3359 03f9 10       		.byte	0x10
 3360 03fa 47       		.byte	0x47
 3361 03fb 1A       		.byte	0x1a
 3362 03fc 02040000 		.4byte	0x402
 3363 0400 04       		.byte	0x4
 3364 0401 00       		.byte	0
 3365 0402 04       		.uleb128 0x4
 3366 0403 CE030000 		.4byte	0x3ce
 3367 0407 03       		.uleb128 0x3
 3368 0408 8F050000 		.4byte	.LASF74
 3369 040c 10       		.byte	0x10
 3370 040d 4E       		.byte	0x4e
 3371 040e 22       		.byte	0x22
 3372 040f 13040000 		.4byte	0x413
 3373 0413 09       		.uleb128 0x9
 3374 0414 4F0C0000 		.4byte	.LASF75
 3375 0418 0C       		.byte	0xc
 3376 0419 10       		.byte	0x10
 3377 041a 55       		.byte	0x55
 3378 041b 08       		.byte	0x8
 3379 041c 48040000 		.4byte	0x448
 3380 0420 02       		.uleb128 0x2
 3381 0421 05010000 		.4byte	.LASF70
 3382 0425 10       		.byte	0x10
 3383 0426 56       		.byte	0x56
 3384 0427 1A       		.byte	0x1a
 3385 0428 48040000 		.4byte	0x448
 3386 042c 00       		.byte	0
 3387 042d 02       		.uleb128 0x2
 3388 042e 7F010000 		.4byte	.LASF73
 3389 0432 10       		.byte	0x10
 3390 0433 57       		.byte	0x57
 3391 0434 1A       		.byte	0x1a
 3392 0435 48040000 		.4byte	0x448
 3393 0439 04       		.byte	0x4
 3394 043a 02       		.uleb128 0x2
 3395 043b 64060000 		.4byte	.LASF76
 3396 043f 10       		.byte	0x10
 3397 0440 58       		.byte	0x58
 3398 0441 19       		.byte	0x19
 3399 0442 55010000 		.4byte	0x155
 3400 0446 08       		.byte	0x8
 3401 0447 00       		.byte	0
 3402 0448 04       		.uleb128 0x4
 3403 0449 07040000 		.4byte	0x407
 3404 044d 03       		.uleb128 0x3
 3405 044e 82060000 		.4byte	.LASF77
 3406 0452 10       		.byte	0x10
 3407 0453 5F       		.byte	0x5f
ARM GAS  C:\Users\DEVELO~1\AppData\Local\Temp\ccX8mAEU.s 			page 61


 3408 0454 1E       		.byte	0x1e
 3409 0455 59040000 		.4byte	0x459
 3410 0459 09       		.uleb128 0x9
 3411 045a CC020000 		.4byte	.LASF78
 3412 045e 0C       		.byte	0xc
 3413 045f 10       		.byte	0x10
 3414 0460 64       		.byte	0x64
 3415 0461 08       		.byte	0x8
 3416 0462 8E040000 		.4byte	0x48e
 3417 0466 02       		.uleb128 0x2
 3418 0467 05010000 		.4byte	.LASF70
 3419 046b 10       		.byte	0x10
 3420 046c 65       		.byte	0x65
 3421 046d 1A       		.byte	0x1a
 3422 046e 8E040000 		.4byte	0x48e
 3423 0472 00       		.byte	0
 3424 0473 02       		.uleb128 0x2
 3425 0474 7F010000 		.4byte	.LASF73
 3426 0478 10       		.byte	0x10
 3427 0479 66       		.byte	0x66
 3428 047a 1A       		.byte	0x1a
 3429 047b 8E040000 		.4byte	0x48e
 3430 047f 04       		.byte	0x4
 3431 0480 02       		.uleb128 0x2
 3432 0481 BC0D0000 		.4byte	.LASF79
 3433 0485 10       		.byte	0x10
 3434 0486 67       		.byte	0x67
 3435 0487 19       		.byte	0x19
 3436 0488 96030000 		.4byte	0x396
 3437 048c 08       		.byte	0x8
 3438 048d 00       		.byte	0
 3439 048e 04       		.uleb128 0x4
 3440 048f 4D040000 		.4byte	0x44d
 3441 0493 0F       		.uleb128 0xf
 3442 0494 08       		.byte	0x8
 3443 0495 11       		.byte	0x11
 3444 0496 83       		.byte	0x83
 3445 0497 05       		.byte	0x5
 3446 0498 B7040000 		.4byte	0x4b7
 3447 049c 08       		.uleb128 0x8
 3448 049d 6E747000 		.ascii	"ntp\000"
 3449 04a1 11       		.byte	0x11
 3450 04a2 87       		.byte	0x87
 3451 04a3 1E       		.byte	0x1e
 3452 04a4 B7040000 		.4byte	0x4b7
 3453 04a8 00       		.byte	0
 3454 04a9 02       		.uleb128 0x2
 3455 04aa A8010000 		.4byte	.LASF80
 3456 04ae 11       		.byte	0x11
 3457 04af 8B       		.byte	0x8b
 3458 04b0 1E       		.byte	0x1e
 3459 04b1 BC040000 		.4byte	0x4bc
 3460 04b5 04       		.byte	0x4
 3461 04b6 00       		.byte	0
 3462 04b7 04       		.uleb128 0x4
 3463 04b8 91010000 		.4byte	0x191
 3464 04bc 31       		.uleb128 0x31
ARM GAS  C:\Users\DEVELO~1\AppData\Local\Temp\ccX8mAEU.s 			page 62


 3465 04bd 04       		.byte	0x4
 3466 04be 0F       		.uleb128 0xf
 3467 04bf 08       		.byte	0x8
 3468 04c0 11       		.byte	0x11
 3469 04c1 90       		.byte	0x90
 3470 04c2 05       		.byte	0x5
 3471 04c3 E1040000 		.4byte	0x4e1
 3472 04c7 08       		.uleb128 0x8
 3473 04c8 747000   		.ascii	"tp\000"
 3474 04cb 11       		.byte	0x11
 3475 04cc 94       		.byte	0x94
 3476 04cd 1E       		.byte	0x1e
 3477 04ce B7040000 		.4byte	0x4b7
 3478 04d2 00       		.byte	0
 3479 04d3 08       		.uleb128 0x8
 3480 04d4 6D736700 		.ascii	"msg\000"
 3481 04d8 11       		.byte	0x11
 3482 04d9 98       		.byte	0x98
 3483 04da 1D       		.byte	0x1d
 3484 04db 61010000 		.4byte	0x161
 3485 04df 04       		.byte	0x4
 3486 04e0 00       		.byte	0
 3487 04e1 0F       		.uleb128 0xf
 3488 04e2 04       		.byte	0x4
 3489 04e3 11       		.byte	0x11
 3490 04e4 9D       		.byte	0x9d
 3491 04e5 05       		.byte	0x5
 3492 04e6 F8040000 		.4byte	0x4f8
 3493 04ea 02       		.uleb128 0x2
 3494 04eb 3F0B0000 		.4byte	.LASF36
 3495 04ef 11       		.byte	0x11
 3496 04f0 A1       		.byte	0xa1
 3497 04f1 1E       		.byte	0x1e
 3498 04f2 68030000 		.4byte	0x368
 3499 04f6 00       		.byte	0
 3500 04f7 00       		.byte	0
 3501 04f8 0F       		.uleb128 0xf
 3502 04f9 04       		.byte	0x4
 3503 04fa 11       		.byte	0x11
 3504 04fb A6       		.byte	0xa6
 3505 04fc 05       		.byte	0x5
 3506 04fd 0F050000 		.4byte	0x50f
 3507 0501 02       		.uleb128 0x2
 3508 0502 2D0E0000 		.4byte	.LASF81
 3509 0506 11       		.byte	0x11
 3510 0507 AA       		.byte	0xaa
 3511 0508 1E       		.byte	0x1e
 3512 0509 68030000 		.4byte	0x368
 3513 050d 00       		.byte	0
 3514 050e 00       		.byte	0
 3515 050f 0F       		.uleb128 0xf
 3516 0510 08       		.byte	0x8
 3517 0511 11       		.byte	0x11
 3518 0512 AF       		.byte	0xaf
 3519 0513 05       		.byte	0x5
 3520 0514 33050000 		.4byte	0x533
 3521 0518 08       		.uleb128 0x8
ARM GAS  C:\Users\DEVELO~1\AppData\Local\Temp\ccX8mAEU.s 			page 63


 3522 0519 75703100 		.ascii	"up1\000"
 3523 051d 11       		.byte	0x11
 3524 051e B3       		.byte	0xb3
 3525 051f 1E       		.byte	0x1e
 3526 0520 BC040000 		.4byte	0x4bc
 3527 0524 00       		.byte	0
 3528 0525 08       		.uleb128 0x8
 3529 0526 75703200 		.ascii	"up2\000"
 3530 052a 11       		.byte	0x11
 3531 052b B7       		.byte	0xb7
 3532 052c 1E       		.byte	0x1e
 3533 052d BC040000 		.4byte	0x4bc
 3534 0531 04       		.byte	0x4
 3535 0532 00       		.byte	0
 3536 0533 22       		.uleb128 0x22
 3537 0534 08       		.byte	0x8
 3538 0535 11       		.byte	0x11
 3539 0536 7F       		.byte	0x7f
 3540 0537 71050000 		.4byte	0x571
 3541 053b 23       		.uleb128 0x23
 3542 053c 737700   		.ascii	"sw\000"
 3543 053f 8C       		.byte	0x8c
 3544 0540 93040000 		.4byte	0x493
 3545 0544 23       		.uleb128 0x23
 3546 0545 72647900 		.ascii	"rdy\000"
 3547 0549 99       		.byte	0x99
 3548 054a BE040000 		.4byte	0x4be
 3549 054e 23       		.uleb128 0x23
 3550 054f 69737200 		.ascii	"isr\000"
 3551 0553 A2       		.byte	0xa2
 3552 0554 E1040000 		.4byte	0x4e1
 3553 0558 10       		.uleb128 0x10
 3554 0559 6B030000 		.4byte	.LASF82
 3555 055d 11       		.byte	0x11
 3556 055e AB       		.byte	0xab
 3557 055f 07       		.byte	0x7
 3558 0560 F8040000 		.4byte	0x4f8
 3559 0564 10       		.uleb128 0x10
 3560 0565 55050000 		.4byte	.LASF83
 3561 0569 11       		.byte	0x11
 3562 056a B8       		.byte	0xb8
 3563 056b 07       		.byte	0x7
 3564 056c 0F050000 		.4byte	0x50f
 3565 0570 00       		.byte	0
 3566 0571 0F       		.uleb128 0xf
 3567 0572 10       		.byte	0x10
 3568 0573 11       		.byte	0x11
 3569 0574 6C       		.byte	0x6c
 3570 0575 09       		.byte	0x9
 3571 0576 B7050000 		.4byte	0x5b7
 3572 057a 24       		.uleb128 0x24
 3573 057b 8F0C0000 		.4byte	.LASF84
 3574 057f 70       		.byte	0x70
 3575 0580 DF000000 		.4byte	0xdf
 3576 0584 03       		.byte	0x3
 3577 0585 00       		.byte	0
 3578 0586 24       		.uleb128 0x24
ARM GAS  C:\Users\DEVELO~1\AppData\Local\Temp\ccX8mAEU.s 			page 64


 3579 0587 1D0D0000 		.4byte	.LASF38
 3580 058b 74       		.byte	0x74
 3581 058c DF000000 		.4byte	0xdf
 3582 0590 05       		.byte	0x5
 3583 0591 03       		.byte	0x3
 3584 0592 24       		.uleb128 0x24
 3585 0593 060C0000 		.4byte	.LASF85
 3586 0597 7A       		.byte	0x7a
 3587 0598 DF000000 		.4byte	0xdf
 3588 059c 18       		.byte	0x18
 3589 059d 08       		.byte	0x8
 3590 059e 02       		.uleb128 0x2
 3591 059f 4E040000 		.4byte	.LASF86
 3592 05a3 11       		.byte	0x11
 3593 05a4 7E       		.byte	0x7e
 3594 05a5 19       		.byte	0x19
 3595 05a6 8A030000 		.4byte	0x38a
 3596 05aa 04       		.byte	0x4
 3597 05ab 08       		.uleb128 0x8
 3598 05ac 7500     		.ascii	"u\000"
 3599 05ae 11       		.byte	0x11
 3600 05af B9       		.byte	0xb9
 3601 05b0 05       		.byte	0x5
 3602 05b1 33050000 		.4byte	0x533
 3603 05b5 08       		.byte	0x8
 3604 05b6 00       		.byte	0
 3605 05b7 03       		.uleb128 0x3
 3606 05b8 06030000 		.4byte	.LASF87
 3607 05bc 11       		.byte	0x11
 3608 05bd BA       		.byte	0xba
 3609 05be 03       		.byte	0x3
 3610 05bf 71050000 		.4byte	0x571
 3611 05c3 32       		.uleb128 0x32
 3612 05c4 0808     		.2byte	0x808
 3613 05c6 11       		.byte	0x11
 3614 05c7 C0       		.byte	0xc0
 3615 05c8 09       		.byte	0x9
 3616 05c9 02060000 		.4byte	0x602
 3617 05cd 02       		.uleb128 0x2
 3618 05ce 13010000 		.4byte	.LASF88
 3619 05d2 11       		.byte	0x11
 3620 05d3 C4       		.byte	0xc4
 3621 05d4 19       		.byte	0x19
 3622 05d5 C7000000 		.4byte	0xc7
 3623 05d9 00       		.byte	0
 3624 05da 02       		.uleb128 0x2
 3625 05db 68080000 		.4byte	.LASF89
 3626 05df 11       		.byte	0x11
 3627 05e0 C8       		.byte	0xc8
 3628 05e1 19       		.byte	0x19
 3629 05e2 C7000000 		.4byte	0xc7
 3630 05e6 02       		.byte	0x2
 3631 05e7 08       		.uleb128 0x8
 3632 05e8 70747200 		.ascii	"ptr\000"
 3633 05ec 11       		.byte	0x11
 3634 05ed CC       		.byte	0xcc
 3635 05ee 1A       		.byte	0x1a
ARM GAS  C:\Users\DEVELO~1\AppData\Local\Temp\ccX8mAEU.s 			page 65


 3636 05ef 02060000 		.4byte	0x602
 3637 05f3 04       		.byte	0x4
 3638 05f4 02       		.uleb128 0x2
 3639 05f5 D3000000 		.4byte	.LASF90
 3640 05f9 11       		.byte	0x11
 3641 05fa D0       		.byte	0xd0
 3642 05fb 19       		.byte	0x19
 3643 05fc 07060000 		.4byte	0x607
 3644 0600 08       		.byte	0x8
 3645 0601 00       		.byte	0
 3646 0602 04       		.uleb128 0x4
 3647 0603 B7050000 		.4byte	0x5b7
 3648 0607 11       		.uleb128 0x11
 3649 0608 B7050000 		.4byte	0x5b7
 3650 060c 17060000 		.4byte	0x617
 3651 0610 12       		.uleb128 0x12
 3652 0611 39000000 		.4byte	0x39
 3653 0615 7F       		.byte	0x7f
 3654 0616 00       		.byte	0
 3655 0617 03       		.uleb128 0x3
 3656 0618 AD080000 		.4byte	.LASF91
 3657 061c 11       		.byte	0x11
 3658 061d D1       		.byte	0xd1
 3659 061e 03       		.byte	0x3
 3660 061f C3050000 		.4byte	0x5c3
 3661 0623 11       		.uleb128 0x11
 3662 0624 DF000000 		.4byte	0xdf
 3663 0628 33060000 		.4byte	0x633
 3664 062c 12       		.uleb128 0x12
 3665 062d 39000000 		.4byte	0x39
 3666 0631 01       		.byte	0x1
 3667 0632 00       		.byte	0
 3668 0633 0F       		.uleb128 0xf
 3669 0634 CC       		.byte	0xcc
 3670 0635 12       		.byte	0x12
 3671 0636 F3       		.byte	0xf3
 3672 0637 09       		.byte	0x9
 3673 0638 7C080000 		.4byte	0x87c
 3674 063c 08       		.uleb128 0x8
 3675 063d 49535200 		.ascii	"ISR\000"
 3676 0641 12       		.byte	0x12
 3677 0642 F5       		.byte	0xf5
 3678 0643 11       		.byte	0x11
 3679 0644 EB000000 		.4byte	0xeb
 3680 0648 00       		.byte	0
 3681 0649 08       		.uleb128 0x8
 3682 064a 49455200 		.ascii	"IER\000"
 3683 064e 12       		.byte	0x12
 3684 064f F6       		.byte	0xf6
 3685 0650 11       		.byte	0x11
 3686 0651 EB000000 		.4byte	0xeb
 3687 0655 04       		.byte	0x4
 3688 0656 08       		.uleb128 0x8
 3689 0657 435200   		.ascii	"CR\000"
 3690 065a 12       		.byte	0x12
 3691 065b F7       		.byte	0xf7
 3692 065c 11       		.byte	0x11
ARM GAS  C:\Users\DEVELO~1\AppData\Local\Temp\ccX8mAEU.s 			page 66


 3693 065d EB000000 		.4byte	0xeb
 3694 0661 08       		.byte	0x8
 3695 0662 02       		.uleb128 0x2
 3696 0663 F20A0000 		.4byte	.LASF92
 3697 0667 12       		.byte	0x12
 3698 0668 F8       		.byte	0xf8
 3699 0669 11       		.byte	0x11
 3700 066a EB000000 		.4byte	0xeb
 3701 066e 0C       		.byte	0xc
 3702 066f 02       		.uleb128 0x2
 3703 0670 7C080000 		.4byte	.LASF93
 3704 0674 12       		.byte	0x12
 3705 0675 F9       		.byte	0xf9
 3706 0676 11       		.byte	0x11
 3707 0677 EB000000 		.4byte	0xeb
 3708 067b 10       		.byte	0x10
 3709 067c 02       		.uleb128 0x2
 3710 067d DA080000 		.4byte	.LASF94
 3711 0681 12       		.byte	0x12
 3712 0682 FA       		.byte	0xfa
 3713 0683 11       		.byte	0x11
 3714 0684 EB000000 		.4byte	0xeb
 3715 0688 14       		.byte	0x14
 3716 0689 02       		.uleb128 0x2
 3717 068a E0080000 		.4byte	.LASF95
 3718 068e 12       		.byte	0x12
 3719 068f FB       		.byte	0xfb
 3720 0690 11       		.byte	0x11
 3721 0691 EB000000 		.4byte	0xeb
 3722 0695 18       		.byte	0x18
 3723 0696 02       		.uleb128 0x2
 3724 0697 91030000 		.4byte	.LASF96
 3725 069b 12       		.byte	0x12
 3726 069c FC       		.byte	0xfc
 3727 069d 11       		.byte	0x11
 3728 069e EB000000 		.4byte	0xeb
 3729 06a2 1C       		.byte	0x1c
 3730 06a3 02       		.uleb128 0x2
 3731 06a4 8C020000 		.4byte	.LASF97
 3732 06a8 12       		.byte	0x12
 3733 06a9 FD       		.byte	0xfd
 3734 06aa 11       		.byte	0x11
 3735 06ab EB000000 		.4byte	0xeb
 3736 06af 20       		.byte	0x20
 3737 06b0 02       		.uleb128 0x2
 3738 06b1 ED0C0000 		.4byte	.LASF98
 3739 06b5 12       		.byte	0x12
 3740 06b6 FE       		.byte	0xfe
 3741 06b7 11       		.byte	0x11
 3742 06b8 EB000000 		.4byte	0xeb
 3743 06bc 24       		.byte	0x24
 3744 06bd 02       		.uleb128 0x2
 3745 06be B0090000 		.4byte	.LASF99
 3746 06c2 12       		.byte	0x12
 3747 06c3 FF       		.byte	0xff
 3748 06c4 11       		.byte	0x11
 3749 06c5 DF000000 		.4byte	0xdf
ARM GAS  C:\Users\DEVELO~1\AppData\Local\Temp\ccX8mAEU.s 			page 67


 3750 06c9 28       		.byte	0x28
 3751 06ca 01       		.uleb128 0x1
 3752 06cb BA090000 		.4byte	.LASF100
 3753 06cf 12       		.byte	0x12
 3754 06d0 0001     		.2byte	0x100
 3755 06d2 11       		.byte	0x11
 3756 06d3 DF000000 		.4byte	0xdf
 3757 06d7 2C       		.byte	0x2c
 3758 06d8 01       		.uleb128 0x1
 3759 06d9 7C0B0000 		.4byte	.LASF101
 3760 06dd 12       		.byte	0x12
 3761 06de 0101     		.2byte	0x101
 3762 06e0 11       		.byte	0x11
 3763 06e1 EB000000 		.4byte	0xeb
 3764 06e5 30       		.byte	0x30
 3765 06e6 01       		.uleb128 0x1
 3766 06e7 810B0000 		.4byte	.LASF102
 3767 06eb 12       		.byte	0x12
 3768 06ec 0201     		.2byte	0x102
 3769 06ee 11       		.byte	0x11
 3770 06ef EB000000 		.4byte	0xeb
 3771 06f3 34       		.byte	0x34
 3772 06f4 01       		.uleb128 0x1
 3773 06f5 860B0000 		.4byte	.LASF103
 3774 06f9 12       		.byte	0x12
 3775 06fa 0301     		.2byte	0x103
 3776 06fc 11       		.byte	0x11
 3777 06fd EB000000 		.4byte	0xeb
 3778 0701 38       		.byte	0x38
 3779 0702 01       		.uleb128 0x1
 3780 0703 13000000 		.4byte	.LASF104
 3781 0707 12       		.byte	0x12
 3782 0708 0401     		.2byte	0x104
 3783 070a 11       		.byte	0x11
 3784 070b EB000000 		.4byte	0xeb
 3785 070f 3C       		.byte	0x3c
 3786 0710 05       		.uleb128 0x5
 3787 0711 445200   		.ascii	"DR\000"
 3788 0714 12       		.byte	0x12
 3789 0715 0501     		.2byte	0x105
 3790 0717 11       		.byte	0x11
 3791 0718 EB000000 		.4byte	0xeb
 3792 071c 40       		.byte	0x40
 3793 071d 01       		.uleb128 0x1
 3794 071e C4090000 		.4byte	.LASF105
 3795 0722 12       		.byte	0x12
 3796 0723 0601     		.2byte	0x106
 3797 0725 11       		.byte	0x11
 3798 0726 DF000000 		.4byte	0xdf
 3799 072a 44       		.byte	0x44
 3800 072b 01       		.uleb128 0x1
 3801 072c CE090000 		.4byte	.LASF106
 3802 0730 12       		.byte	0x12
 3803 0731 0701     		.2byte	0x107
 3804 0733 11       		.byte	0x11
 3805 0734 DF000000 		.4byte	0xdf
 3806 0738 48       		.byte	0x48
ARM GAS  C:\Users\DEVELO~1\AppData\Local\Temp\ccX8mAEU.s 			page 68


 3807 0739 01       		.uleb128 0x1
 3808 073a 230D0000 		.4byte	.LASF107
 3809 073e 12       		.byte	0x12
 3810 073f 0801     		.2byte	0x108
 3811 0741 11       		.byte	0x11
 3812 0742 EB000000 		.4byte	0xeb
 3813 0746 4C       		.byte	0x4c
 3814 0747 01       		.uleb128 0x1
 3815 0748 230E0000 		.4byte	.LASF108
 3816 074c 12       		.byte	0x12
 3817 074d 0901     		.2byte	0x109
 3818 074f 11       		.byte	0x11
 3819 0750 7C080000 		.4byte	0x87c
 3820 0754 50       		.byte	0x50
 3821 0755 01       		.uleb128 0x1
 3822 0756 A3050000 		.4byte	.LASF109
 3823 075a 12       		.byte	0x12
 3824 075b 0A01     		.2byte	0x10a
 3825 075d 11       		.byte	0x11
 3826 075e EB000000 		.4byte	0xeb
 3827 0762 60       		.byte	0x60
 3828 0763 01       		.uleb128 0x1
 3829 0764 65000000 		.4byte	.LASF110
 3830 0768 12       		.byte	0x12
 3831 0769 0B01     		.2byte	0x10b
 3832 076b 11       		.byte	0x11
 3833 076c EB000000 		.4byte	0xeb
 3834 0770 64       		.byte	0x64
 3835 0771 01       		.uleb128 0x1
 3836 0772 AE050000 		.4byte	.LASF111
 3837 0776 12       		.byte	0x12
 3838 0777 0C01     		.2byte	0x10c
 3839 0779 11       		.byte	0x11
 3840 077a EB000000 		.4byte	0xeb
 3841 077e 68       		.byte	0x68
 3842 077f 01       		.uleb128 0x1
 3843 0780 B3050000 		.4byte	.LASF112
 3844 0784 12       		.byte	0x12
 3845 0785 0D01     		.2byte	0x10d
 3846 0787 11       		.byte	0x11
 3847 0788 EB000000 		.4byte	0xeb
 3848 078c 6C       		.byte	0x6c
 3849 078d 01       		.uleb128 0x1
 3850 078e 87030000 		.4byte	.LASF113
 3851 0792 12       		.byte	0x12
 3852 0793 0E01     		.2byte	0x10e
 3853 0795 11       		.byte	0x11
 3854 0796 7C080000 		.4byte	0x87c
 3855 079a 70       		.byte	0x70
 3856 079b 01       		.uleb128 0x1
 3857 079c 85090000 		.4byte	.LASF114
 3858 07a0 12       		.byte	0x12
 3859 07a1 0F01     		.2byte	0x10f
 3860 07a3 11       		.byte	0x11
 3861 07a4 EB000000 		.4byte	0xeb
 3862 07a8 80       		.byte	0x80
 3863 07a9 01       		.uleb128 0x1
ARM GAS  C:\Users\DEVELO~1\AppData\Local\Temp\ccX8mAEU.s 			page 69


 3864 07aa 8A090000 		.4byte	.LASF115
 3865 07ae 12       		.byte	0x12
 3866 07af 1001     		.2byte	0x110
 3867 07b1 11       		.byte	0x11
 3868 07b2 EB000000 		.4byte	0xeb
 3869 07b6 84       		.byte	0x84
 3870 07b7 01       		.uleb128 0x1
 3871 07b8 8F090000 		.4byte	.LASF116
 3872 07bc 12       		.byte	0x12
 3873 07bd 1101     		.2byte	0x111
 3874 07bf 11       		.byte	0x11
 3875 07c0 EB000000 		.4byte	0xeb
 3876 07c4 88       		.byte	0x88
 3877 07c5 01       		.uleb128 0x1
 3878 07c6 94090000 		.4byte	.LASF117
 3879 07ca 12       		.byte	0x12
 3880 07cb 1201     		.2byte	0x112
 3881 07cd 11       		.byte	0x11
 3882 07ce EB000000 		.4byte	0xeb
 3883 07d2 8C       		.byte	0x8c
 3884 07d3 01       		.uleb128 0x1
 3885 07d4 DF090000 		.4byte	.LASF118
 3886 07d8 12       		.byte	0x12
 3887 07d9 1301     		.2byte	0x113
 3888 07db 11       		.byte	0x11
 3889 07dc 7C080000 		.4byte	0x87c
 3890 07e0 90       		.byte	0x90
 3891 07e1 01       		.uleb128 0x1
 3892 07e2 DA070000 		.4byte	.LASF119
 3893 07e6 12       		.byte	0x12
 3894 07e7 1401     		.2byte	0x114
 3895 07e9 11       		.byte	0x11
 3896 07ea EB000000 		.4byte	0xeb
 3897 07ee A0       		.byte	0xa0
 3898 07ef 01       		.uleb128 0x1
 3899 07f0 F9070000 		.4byte	.LASF120
 3900 07f4 12       		.byte	0x12
 3901 07f5 1501     		.2byte	0x115
 3902 07f7 11       		.byte	0x11
 3903 07f8 EB000000 		.4byte	0xeb
 3904 07fc A4       		.byte	0xa4
 3905 07fd 01       		.uleb128 0x1
 3906 07fe 460E0000 		.4byte	.LASF121
 3907 0802 12       		.byte	0x12
 3908 0803 1601     		.2byte	0x116
 3909 0805 11       		.byte	0x11
 3910 0806 DF000000 		.4byte	0xdf
 3911 080a A8       		.byte	0xa8
 3912 080b 01       		.uleb128 0x1
 3913 080c 500E0000 		.4byte	.LASF122
 3914 0810 12       		.byte	0x12
 3915 0811 1701     		.2byte	0x117
 3916 0813 11       		.byte	0x11
 3917 0814 DF000000 		.4byte	0xdf
 3918 0818 AC       		.byte	0xac
 3919 0819 01       		.uleb128 0x1
 3920 081a 91020000 		.4byte	.LASF123
ARM GAS  C:\Users\DEVELO~1\AppData\Local\Temp\ccX8mAEU.s 			page 70


 3921 081e 12       		.byte	0x12
 3922 081f 1801     		.2byte	0x118
 3923 0821 11       		.byte	0x11
 3924 0822 EB000000 		.4byte	0xeb
 3925 0826 B0       		.byte	0xb0
 3926 0827 01       		.uleb128 0x1
 3927 0828 F20C0000 		.4byte	.LASF124
 3928 082c 12       		.byte	0x12
 3929 082d 1901     		.2byte	0x119
 3930 082f 11       		.byte	0x11
 3931 0830 EB000000 		.4byte	0xeb
 3932 0834 B4       		.byte	0xb4
 3933 0835 01       		.uleb128 0x1
 3934 0836 96020000 		.4byte	.LASF125
 3935 083a 12       		.byte	0x12
 3936 083b 1A01     		.2byte	0x11a
 3937 083d 11       		.byte	0x11
 3938 083e EB000000 		.4byte	0xeb
 3939 0842 B8       		.byte	0xb8
 3940 0843 01       		.uleb128 0x1
 3941 0844 F70C0000 		.4byte	.LASF126
 3942 0848 12       		.byte	0x12
 3943 0849 1B01     		.2byte	0x11b
 3944 084b 11       		.byte	0x11
 3945 084c EB000000 		.4byte	0xeb
 3946 0850 BC       		.byte	0xbc
 3947 0851 01       		.uleb128 0x1
 3948 0852 9B020000 		.4byte	.LASF127
 3949 0856 12       		.byte	0x12
 3950 0857 1C01     		.2byte	0x11c
 3951 0859 11       		.byte	0x11
 3952 085a EB000000 		.4byte	0xeb
 3953 085e C0       		.byte	0xc0
 3954 085f 01       		.uleb128 0x1
 3955 0860 4D070000 		.4byte	.LASF128
 3956 0864 12       		.byte	0x12
 3957 0865 1D01     		.2byte	0x11d
 3958 0867 11       		.byte	0x11
 3959 0868 EB000000 		.4byte	0xeb
 3960 086c C4       		.byte	0xc4
 3961 086d 01       		.uleb128 0x1
 3962 086e C1050000 		.4byte	.LASF129
 3963 0872 12       		.byte	0x12
 3964 0873 1E01     		.2byte	0x11e
 3965 0875 11       		.byte	0x11
 3966 0876 EB000000 		.4byte	0xeb
 3967 087a C8       		.byte	0xc8
 3968 087b 00       		.byte	0
 3969 087c 11       		.uleb128 0x11
 3970 087d DF000000 		.4byte	0xdf
 3971 0881 8C080000 		.4byte	0x88c
 3972 0885 12       		.uleb128 0x12
 3973 0886 39000000 		.4byte	0x39
 3974 088a 03       		.byte	0x3
 3975 088b 00       		.byte	0
 3976 088c 0A       		.uleb128 0xa
 3977 088d C0070000 		.4byte	.LASF130
ARM GAS  C:\Users\DEVELO~1\AppData\Local\Temp\ccX8mAEU.s 			page 71


 3978 0891 12       		.byte	0x12
 3979 0892 1F01     		.2byte	0x11f
 3980 0894 03       		.byte	0x3
 3981 0895 33060000 		.4byte	0x633
 3982 0899 1C       		.uleb128 0x1c
 3983 089a 14       		.byte	0x14
 3984 089b 12       		.byte	0x12
 3985 089c 2201     		.2byte	0x122
 3986 089e E9080000 		.4byte	0x8e9
 3987 08a2 05       		.uleb128 0x5
 3988 08a3 43535200 		.ascii	"CSR\000"
 3989 08a7 12       		.byte	0x12
 3990 08a8 2401     		.2byte	0x124
 3991 08aa 0F       		.byte	0xf
 3992 08ab EB000000 		.4byte	0xeb
 3993 08af 00       		.byte	0
 3994 08b0 01       		.uleb128 0x1
 3995 08b1 4C050000 		.4byte	.LASF131
 3996 08b5 12       		.byte	0x12
 3997 08b6 2501     		.2byte	0x125
 3998 08b8 0A       		.byte	0xa
 3999 08b9 DF000000 		.4byte	0xdf
 4000 08bd 04       		.byte	0x4
 4001 08be 05       		.uleb128 0x5
 4002 08bf 43435200 		.ascii	"CCR\000"
 4003 08c3 12       		.byte	0x12
 4004 08c4 2601     		.2byte	0x126
 4005 08c6 0F       		.byte	0xf
 4006 08c7 EB000000 		.4byte	0xeb
 4007 08cb 08       		.byte	0x8
 4008 08cc 05       		.uleb128 0x5
 4009 08cd 43445200 		.ascii	"CDR\000"
 4010 08d1 12       		.byte	0x12
 4011 08d2 2701     		.2byte	0x127
 4012 08d4 0F       		.byte	0xf
 4013 08d5 EB000000 		.4byte	0xeb
 4014 08d9 0C       		.byte	0xc
 4015 08da 01       		.uleb128 0x1
 4016 08db 0E090000 		.4byte	.LASF132
 4017 08df 12       		.byte	0x12
 4018 08e0 2801     		.2byte	0x128
 4019 08e2 0F       		.byte	0xf
 4020 08e3 EB000000 		.4byte	0xeb
 4021 08e7 10       		.byte	0x10
 4022 08e8 00       		.byte	0
 4023 08e9 0A       		.uleb128 0xa
 4024 08ea E9090000 		.4byte	.LASF133
 4025 08ee 12       		.byte	0x12
 4026 08ef 2A01     		.2byte	0x12a
 4027 08f1 03       		.byte	0x3
 4028 08f2 99080000 		.4byte	0x899
 4029 08f6 1C       		.uleb128 0x1c
 4030 08f7 18       		.byte	0x18
 4031 08f8 12       		.byte	0x12
 4032 08f9 3002     		.2byte	0x230
 4033 08fb 53090000 		.4byte	0x953
 4034 08ff 05       		.uleb128 0x5
ARM GAS  C:\Users\DEVELO~1\AppData\Local\Temp\ccX8mAEU.s 			page 72


 4035 0900 435200   		.ascii	"CR\000"
 4036 0903 12       		.byte	0x12
 4037 0904 3202     		.2byte	0x232
 4038 0906 11       		.byte	0x11
 4039 0907 EB000000 		.4byte	0xeb
 4040 090b 00       		.byte	0
 4041 090c 01       		.uleb128 0x1
 4042 090d 25020000 		.4byte	.LASF134
 4043 0911 12       		.byte	0x12
 4044 0912 3302     		.2byte	0x233
 4045 0914 11       		.byte	0x11
 4046 0915 EB000000 		.4byte	0xeb
 4047 0919 04       		.byte	0x4
 4048 091a 05       		.uleb128 0x5
 4049 091b 50415200 		.ascii	"PAR\000"
 4050 091f 12       		.byte	0x12
 4051 0920 3402     		.2byte	0x234
 4052 0922 11       		.byte	0x11
 4053 0923 EB000000 		.4byte	0xeb
 4054 0927 08       		.byte	0x8
 4055 0928 01       		.uleb128 0x1
 4056 0929 DB050000 		.4byte	.LASF135
 4057 092d 12       		.byte	0x12
 4058 092e 3502     		.2byte	0x235
 4059 0930 11       		.byte	0x11
 4060 0931 EB000000 		.4byte	0xeb
 4061 0935 0C       		.byte	0xc
 4062 0936 01       		.uleb128 0x1
 4063 0937 650B0000 		.4byte	.LASF136
 4064 093b 12       		.byte	0x12
 4065 093c 3602     		.2byte	0x236
 4066 093e 11       		.byte	0x11
 4067 093f EB000000 		.4byte	0xeb
 4068 0943 10       		.byte	0x10
 4069 0944 05       		.uleb128 0x5
 4070 0945 46435200 		.ascii	"FCR\000"
 4071 0949 12       		.byte	0x12
 4072 094a 3702     		.2byte	0x237
 4073 094c 11       		.byte	0x11
 4074 094d EB000000 		.4byte	0xeb
 4075 0951 14       		.byte	0x14
 4076 0952 00       		.byte	0
 4077 0953 0A       		.uleb128 0xa
 4078 0954 55080000 		.4byte	.LASF137
 4079 0958 12       		.byte	0x12
 4080 0959 3802     		.2byte	0x238
 4081 095b 03       		.byte	0x3
 4082 095c F6080000 		.4byte	0x8f6
 4083 0960 1C       		.uleb128 0x1c
 4084 0961 04       		.byte	0x4
 4085 0962 12       		.byte	0x12
 4086 0963 5102     		.2byte	0x251
 4087 0965 78090000 		.4byte	0x978
 4088 0969 05       		.uleb128 0x5
 4089 096a 43435200 		.ascii	"CCR\000"
 4090 096e 12       		.byte	0x12
 4091 096f 5302     		.2byte	0x253
ARM GAS  C:\Users\DEVELO~1\AppData\Local\Temp\ccX8mAEU.s 			page 73


 4092 0971 12       		.byte	0x12
 4093 0972 EB000000 		.4byte	0xeb
 4094 0976 00       		.byte	0
 4095 0977 00       		.byte	0
 4096 0978 0A       		.uleb128 0xa
 4097 0979 99090000 		.4byte	.LASF138
 4098 097d 12       		.byte	0x12
 4099 097e 5402     		.2byte	0x254
 4100 0980 02       		.byte	0x2
 4101 0981 60090000 		.4byte	0x960
 4102 0985 11       		.uleb128 0x11
 4103 0986 DF000000 		.4byte	0xdf
 4104 098a 95090000 		.4byte	0x995
 4105 098e 12       		.uleb128 0x12
 4106 098f 39000000 		.4byte	0x39
 4107 0993 08       		.byte	0x8
 4108 0994 00       		.byte	0
 4109 0995 33       		.uleb128 0x33
 4110 0996 3001     		.2byte	0x130
 4111 0998 12       		.byte	0x12
 4112 0999 CE04     		.2byte	0x4ce
 4113 099b 09       		.byte	0x9
 4114 099c 2E0D0000 		.4byte	0xd2e
 4115 09a0 05       		.uleb128 0x5
 4116 09a1 435200   		.ascii	"CR\000"
 4117 09a4 12       		.byte	0x12
 4118 09a5 D004     		.2byte	0x4d0
 4119 09a7 10       		.byte	0x10
 4120 09a8 EB000000 		.4byte	0xeb
 4121 09ac 00       		.byte	0
 4122 09ad 01       		.uleb128 0x1
 4123 09ae 76090000 		.4byte	.LASF139
 4124 09b2 12       		.byte	0x12
 4125 09b3 D104     		.2byte	0x4d1
 4126 09b5 10       		.byte	0x10
 4127 09b6 EB000000 		.4byte	0xeb
 4128 09ba 04       		.byte	0x4
 4129 09bb 01       		.uleb128 0x1
 4130 09bc C20D0000 		.4byte	.LASF140
 4131 09c0 12       		.byte	0x12
 4132 09c1 D204     		.2byte	0x4d2
 4133 09c3 10       		.byte	0x10
 4134 09c4 EB000000 		.4byte	0xeb
 4135 09c8 08       		.byte	0x8
 4136 09c9 01       		.uleb128 0x1
 4137 09ca B70C0000 		.4byte	.LASF141
 4138 09ce 12       		.byte	0x12
 4139 09cf D304     		.2byte	0x4d3
 4140 09d1 10       		.byte	0x10
 4141 09d2 EB000000 		.4byte	0xeb
 4142 09d6 0C       		.byte	0xc
 4143 09d7 01       		.uleb128 0x1
 4144 09d8 F20A0000 		.4byte	.LASF92
 4145 09dc 12       		.byte	0x12
 4146 09dd D404     		.2byte	0x4d4
 4147 09df 10       		.byte	0x10
 4148 09e0 EB000000 		.4byte	0xeb
ARM GAS  C:\Users\DEVELO~1\AppData\Local\Temp\ccX8mAEU.s 			page 74


 4149 09e4 10       		.byte	0x10
 4150 09e5 01       		.uleb128 0x1
 4151 09e6 B0090000 		.4byte	.LASF99
 4152 09ea 12       		.byte	0x12
 4153 09eb D504     		.2byte	0x4d5
 4154 09ed 0F       		.byte	0xf
 4155 09ee DF000000 		.4byte	0xdf
 4156 09f2 14       		.byte	0x14
 4157 09f3 01       		.uleb128 0x1
 4158 09f4 A70B0000 		.4byte	.LASF142
 4159 09f8 12       		.byte	0x12
 4160 09f9 D604     		.2byte	0x4d6
 4161 09fb 10       		.byte	0x10
 4162 09fc EB000000 		.4byte	0xeb
 4163 0a00 18       		.byte	0x18
 4164 0a01 01       		.uleb128 0x1
 4165 0a02 DE060000 		.4byte	.LASF143
 4166 0a06 12       		.byte	0x12
 4167 0a07 D704     		.2byte	0x4d7
 4168 0a09 10       		.byte	0x10
 4169 0a0a EB000000 		.4byte	0xeb
 4170 0a0e 1C       		.byte	0x1c
 4171 0a0f 01       		.uleb128 0x1
 4172 0a10 39010000 		.4byte	.LASF144
 4173 0a14 12       		.byte	0x12
 4174 0a15 D804     		.2byte	0x4d8
 4175 0a17 10       		.byte	0x10
 4176 0a18 EB000000 		.4byte	0xeb
 4177 0a1c 20       		.byte	0x20
 4178 0a1d 01       		.uleb128 0x1
 4179 0a1e BA090000 		.4byte	.LASF100
 4180 0a22 12       		.byte	0x12
 4181 0a23 D904     		.2byte	0x4d9
 4182 0a25 0F       		.byte	0xf
 4183 0a26 DF000000 		.4byte	0xdf
 4184 0a2a 24       		.byte	0x24
 4185 0a2b 01       		.uleb128 0x1
 4186 0a2c 4C0B0000 		.4byte	.LASF145
 4187 0a30 12       		.byte	0x12
 4188 0a31 DA04     		.2byte	0x4da
 4189 0a33 10       		.byte	0x10
 4190 0a34 EB000000 		.4byte	0xeb
 4191 0a38 28       		.byte	0x28
 4192 0a39 01       		.uleb128 0x1
 4193 0a3a 440B0000 		.4byte	.LASF146
 4194 0a3e 12       		.byte	0x12
 4195 0a3f DB04     		.2byte	0x4db
 4196 0a41 10       		.byte	0x10
 4197 0a42 EB000000 		.4byte	0xeb
 4198 0a46 2C       		.byte	0x2c
 4199 0a47 01       		.uleb128 0x1
 4200 0a48 610C0000 		.4byte	.LASF147
 4201 0a4c 12       		.byte	0x12
 4202 0a4d DC04     		.2byte	0x4dc
 4203 0a4f 10       		.byte	0x10
 4204 0a50 EB000000 		.4byte	0xeb
 4205 0a54 30       		.byte	0x30
ARM GAS  C:\Users\DEVELO~1\AppData\Local\Temp\ccX8mAEU.s 			page 75


 4206 0a55 01       		.uleb128 0x1
 4207 0a56 950B0000 		.4byte	.LASF148
 4208 0a5a 12       		.byte	0x12
 4209 0a5b DD04     		.2byte	0x4dd
 4210 0a5d 10       		.byte	0x10
 4211 0a5e EB000000 		.4byte	0xeb
 4212 0a62 34       		.byte	0x34
 4213 0a63 01       		.uleb128 0x1
 4214 0a64 6C070000 		.4byte	.LASF149
 4215 0a68 12       		.byte	0x12
 4216 0a69 DE04     		.2byte	0x4de
 4217 0a6b 10       		.byte	0x10
 4218 0a6c EB000000 		.4byte	0xeb
 4219 0a70 38       		.byte	0x38
 4220 0a71 01       		.uleb128 0x1
 4221 0a72 B7060000 		.4byte	.LASF150
 4222 0a76 12       		.byte	0x12
 4223 0a77 DF04     		.2byte	0x4df
 4224 0a79 10       		.byte	0x10
 4225 0a7a EB000000 		.4byte	0xeb
 4226 0a7e 3C       		.byte	0x3c
 4227 0a7f 01       		.uleb128 0x1
 4228 0a80 C0010000 		.4byte	.LASF151
 4229 0a84 12       		.byte	0x12
 4230 0a85 E004     		.2byte	0x4e0
 4231 0a87 10       		.byte	0x10
 4232 0a88 EB000000 		.4byte	0xeb
 4233 0a8c 40       		.byte	0x40
 4234 0a8d 01       		.uleb128 0x1
 4235 0a8e DA000000 		.4byte	.LASF152
 4236 0a92 12       		.byte	0x12
 4237 0a93 E104     		.2byte	0x4e1
 4238 0a95 10       		.byte	0x10
 4239 0a96 EB000000 		.4byte	0xeb
 4240 0a9a 44       		.byte	0x44
 4241 0a9b 01       		.uleb128 0x1
 4242 0a9c C4090000 		.4byte	.LASF105
 4243 0aa0 12       		.byte	0x12
 4244 0aa1 E204     		.2byte	0x4e2
 4245 0aa3 10       		.byte	0x10
 4246 0aa4 DF000000 		.4byte	0xdf
 4247 0aa8 48       		.byte	0x48
 4248 0aa9 01       		.uleb128 0x1
 4249 0aaa EA0A0000 		.4byte	.LASF153
 4250 0aae 12       		.byte	0x12
 4251 0aaf E304     		.2byte	0x4e3
 4252 0ab1 11       		.byte	0x11
 4253 0ab2 EB000000 		.4byte	0xeb
 4254 0ab6 4C       		.byte	0x4c
 4255 0ab7 01       		.uleb128 0x1
 4256 0ab8 0A060000 		.4byte	.LASF154
 4257 0abc 12       		.byte	0x12
 4258 0abd E404     		.2byte	0x4e4
 4259 0abf 11       		.byte	0x11
 4260 0ac0 EB000000 		.4byte	0xeb
 4261 0ac4 50       		.byte	0x50
 4262 0ac5 01       		.uleb128 0x1
ARM GAS  C:\Users\DEVELO~1\AppData\Local\Temp\ccX8mAEU.s 			page 76


 4263 0ac6 3C070000 		.4byte	.LASF155
 4264 0aca 12       		.byte	0x12
 4265 0acb E504     		.2byte	0x4e5
 4266 0acd 11       		.byte	0x11
 4267 0ace EB000000 		.4byte	0xeb
 4268 0ad2 54       		.byte	0x54
 4269 0ad3 01       		.uleb128 0x1
 4270 0ad4 510D0000 		.4byte	.LASF156
 4271 0ad8 12       		.byte	0x12
 4272 0ad9 E604     		.2byte	0x4e6
 4273 0adb 11       		.byte	0x11
 4274 0adc EB000000 		.4byte	0xeb
 4275 0ae0 58       		.byte	0x58
 4276 0ae1 01       		.uleb128 0x1
 4277 0ae2 CE090000 		.4byte	.LASF106
 4278 0ae6 12       		.byte	0x12
 4279 0ae7 E704     		.2byte	0x4e7
 4280 0ae9 10       		.byte	0x10
 4281 0aea DF000000 		.4byte	0xdf
 4282 0aee 5C       		.byte	0x5c
 4283 0aef 01       		.uleb128 0x1
 4284 0af0 4A030000 		.4byte	.LASF157
 4285 0af4 12       		.byte	0x12
 4286 0af5 E804     		.2byte	0x4e8
 4287 0af7 11       		.byte	0x11
 4288 0af8 EB000000 		.4byte	0xeb
 4289 0afc 60       		.byte	0x60
 4290 0afd 01       		.uleb128 0x1
 4291 0afe E80C0000 		.4byte	.LASF158
 4292 0b02 12       		.byte	0x12
 4293 0b03 E904     		.2byte	0x4e9
 4294 0b05 11       		.byte	0x11
 4295 0b06 EB000000 		.4byte	0xeb
 4296 0b0a 64       		.byte	0x64
 4297 0b0b 01       		.uleb128 0x1
 4298 0b0c 71090000 		.4byte	.LASF159
 4299 0b10 12       		.byte	0x12
 4300 0b11 EA04     		.2byte	0x4ea
 4301 0b13 11       		.byte	0x11
 4302 0b14 EB000000 		.4byte	0xeb
 4303 0b18 68       		.byte	0x68
 4304 0b19 01       		.uleb128 0x1
 4305 0b1a 230E0000 		.4byte	.LASF108
 4306 0b1e 12       		.byte	0x12
 4307 0b1f EB04     		.2byte	0x4eb
 4308 0b21 0F       		.byte	0xf
 4309 0b22 DF000000 		.4byte	0xdf
 4310 0b26 6C       		.byte	0x6c
 4311 0b27 01       		.uleb128 0x1
 4312 0b28 58010000 		.4byte	.LASF160
 4313 0b2c 12       		.byte	0x12
 4314 0b2d EC04     		.2byte	0x4ec
 4315 0b2f 11       		.byte	0x11
 4316 0b30 EB000000 		.4byte	0xeb
 4317 0b34 70       		.byte	0x70
 4318 0b35 05       		.uleb128 0x5
 4319 0b36 43535200 		.ascii	"CSR\000"
ARM GAS  C:\Users\DEVELO~1\AppData\Local\Temp\ccX8mAEU.s 			page 77


 4320 0b3a 12       		.byte	0x12
 4321 0b3b ED04     		.2byte	0x4ed
 4322 0b3d 11       		.byte	0x11
 4323 0b3e EB000000 		.4byte	0xeb
 4324 0b42 74       		.byte	0x74
 4325 0b43 01       		.uleb128 0x1
 4326 0b44 87030000 		.4byte	.LASF113
 4327 0b48 12       		.byte	0x12
 4328 0b49 EE04     		.2byte	0x4ee
 4329 0b4b 0F       		.byte	0xf
 4330 0b4c DF000000 		.4byte	0xdf
 4331 0b50 78       		.byte	0x78
 4332 0b51 01       		.uleb128 0x1
 4333 0b52 59040000 		.4byte	.LASF161
 4334 0b56 12       		.byte	0x12
 4335 0b57 EF04     		.2byte	0x4ef
 4336 0b59 10       		.byte	0x10
 4337 0b5a EB000000 		.4byte	0xeb
 4338 0b5e 7C       		.byte	0x7c
 4339 0b5f 01       		.uleb128 0x1
 4340 0b60 B20E0000 		.4byte	.LASF162
 4341 0b64 12       		.byte	0x12
 4342 0b65 F004     		.2byte	0x4f0
 4343 0b67 10       		.byte	0x10
 4344 0b68 EB000000 		.4byte	0xeb
 4345 0b6c 80       		.byte	0x80
 4346 0b6d 01       		.uleb128 0x1
 4347 0b6e 44090000 		.4byte	.LASF163
 4348 0b72 12       		.byte	0x12
 4349 0b73 F104     		.2byte	0x4f1
 4350 0b75 10       		.byte	0x10
 4351 0b76 EB000000 		.4byte	0xeb
 4352 0b7a 84       		.byte	0x84
 4353 0b7b 01       		.uleb128 0x1
 4354 0b7c A50A0000 		.4byte	.LASF164
 4355 0b80 12       		.byte	0x12
 4356 0b81 F204     		.2byte	0x4f2
 4357 0b83 10       		.byte	0x10
 4358 0b84 EB000000 		.4byte	0xeb
 4359 0b88 88       		.byte	0x88
 4360 0b89 01       		.uleb128 0x1
 4361 0b8a 7F0A0000 		.4byte	.LASF165
 4362 0b8e 12       		.byte	0x12
 4363 0b8f F304     		.2byte	0x4f3
 4364 0b91 10       		.byte	0x10
 4365 0b92 EB000000 		.4byte	0xeb
 4366 0b96 8C       		.byte	0x8c
 4367 0b97 01       		.uleb128 0x1
 4368 0b98 BC080000 		.4byte	.LASF166
 4369 0b9c 12       		.byte	0x12
 4370 0b9d F404     		.2byte	0x4f4
 4371 0b9f 10       		.byte	0x10
 4372 0ba0 EB000000 		.4byte	0xeb
 4373 0ba4 90       		.byte	0x90
 4374 0ba5 01       		.uleb128 0x1
 4375 0ba6 00000000 		.4byte	.LASF167
 4376 0baa 12       		.byte	0x12
ARM GAS  C:\Users\DEVELO~1\AppData\Local\Temp\ccX8mAEU.s 			page 78


 4377 0bab F504     		.2byte	0x4f5
 4378 0bad 10       		.byte	0x10
 4379 0bae EB000000 		.4byte	0xeb
 4380 0bb2 94       		.byte	0x94
 4381 0bb3 01       		.uleb128 0x1
 4382 0bb4 B1000000 		.4byte	.LASF168
 4383 0bb8 12       		.byte	0x12
 4384 0bb9 F604     		.2byte	0x4f6
 4385 0bbb 10       		.byte	0x10
 4386 0bbc EB000000 		.4byte	0xeb
 4387 0bc0 98       		.byte	0x98
 4388 0bc1 01       		.uleb128 0x1
 4389 0bc2 B8050000 		.4byte	.LASF169
 4390 0bc6 12       		.byte	0x12
 4391 0bc7 F704     		.2byte	0x4f7
 4392 0bc9 10       		.byte	0x10
 4393 0bca EB000000 		.4byte	0xeb
 4394 0bce 9C       		.byte	0x9c
 4395 0bcf 05       		.uleb128 0x5
 4396 0bd0 47435200 		.ascii	"GCR\000"
 4397 0bd4 12       		.byte	0x12
 4398 0bd5 F804     		.2byte	0x4f8
 4399 0bd7 10       		.byte	0x10
 4400 0bd8 EB000000 		.4byte	0xeb
 4401 0bdc A0       		.byte	0xa0
 4402 0bdd 01       		.uleb128 0x1
 4403 0bde 460E0000 		.4byte	.LASF121
 4404 0be2 12       		.byte	0x12
 4405 0be3 F904     		.2byte	0x4f9
 4406 0be5 0F       		.byte	0xf
 4407 0be6 DF000000 		.4byte	0xdf
 4408 0bea A4       		.byte	0xa4
 4409 0beb 01       		.uleb128 0x1
 4410 0bec A7080000 		.4byte	.LASF170
 4411 0bf0 12       		.byte	0x12
 4412 0bf1 FA04     		.2byte	0x4fa
 4413 0bf3 10       		.byte	0x10
 4414 0bf4 EB000000 		.4byte	0xeb
 4415 0bf8 A8       		.byte	0xa8
 4416 0bf9 01       		.uleb128 0x1
 4417 0bfa FC0C0000 		.4byte	.LASF171
 4418 0bfe 12       		.byte	0x12
 4419 0bff FB04     		.2byte	0x4fb
 4420 0c01 0F       		.byte	0xf
 4421 0c02 85090000 		.4byte	0x985
 4422 0c06 AC       		.byte	0xac
 4423 0c07 05       		.uleb128 0x5
 4424 0c08 52535200 		.ascii	"RSR\000"
 4425 0c0c 12       		.byte	0x12
 4426 0c0d FC04     		.2byte	0x4fc
 4427 0c0f 10       		.byte	0x10
 4428 0c10 EB000000 		.4byte	0xeb
 4429 0c14 D0       		.byte	0xd0
 4430 0c15 01       		.uleb128 0x1
 4431 0c16 EF050000 		.4byte	.LASF172
 4432 0c1a 12       		.byte	0x12
 4433 0c1b FD04     		.2byte	0x4fd
ARM GAS  C:\Users\DEVELO~1\AppData\Local\Temp\ccX8mAEU.s 			page 79


 4434 0c1d 10       		.byte	0x10
 4435 0c1e EB000000 		.4byte	0xeb
 4436 0c22 D4       		.byte	0xd4
 4437 0c23 01       		.uleb128 0x1
 4438 0c24 B8070000 		.4byte	.LASF173
 4439 0c28 12       		.byte	0x12
 4440 0c29 FE04     		.2byte	0x4fe
 4441 0c2b 10       		.byte	0x10
 4442 0c2c EB000000 		.4byte	0xeb
 4443 0c30 D8       		.byte	0xd8
 4444 0c31 01       		.uleb128 0x1
 4445 0c32 240C0000 		.4byte	.LASF174
 4446 0c36 12       		.byte	0x12
 4447 0c37 FF04     		.2byte	0x4ff
 4448 0c39 10       		.byte	0x10
 4449 0c3a EB000000 		.4byte	0xeb
 4450 0c3e DC       		.byte	0xdc
 4451 0c3f 01       		.uleb128 0x1
 4452 0c40 63020000 		.4byte	.LASF175
 4453 0c44 12       		.byte	0x12
 4454 0c45 0005     		.2byte	0x500
 4455 0c47 10       		.byte	0x10
 4456 0c48 EB000000 		.4byte	0xeb
 4457 0c4c E0       		.byte	0xe0
 4458 0c4d 01       		.uleb128 0x1
 4459 0c4e A2020000 		.4byte	.LASF176
 4460 0c52 12       		.byte	0x12
 4461 0c53 0105     		.2byte	0x501
 4462 0c55 10       		.byte	0x10
 4463 0c56 EB000000 		.4byte	0xeb
 4464 0c5a E4       		.byte	0xe4
 4465 0c5b 01       		.uleb128 0x1
 4466 0c5c A90E0000 		.4byte	.LASF177
 4467 0c60 12       		.byte	0x12
 4468 0c61 0205     		.2byte	0x502
 4469 0c63 10       		.byte	0x10
 4470 0c64 EB000000 		.4byte	0xeb
 4471 0c68 E8       		.byte	0xe8
 4472 0c69 01       		.uleb128 0x1
 4473 0c6a 5C0B0000 		.4byte	.LASF178
 4474 0c6e 12       		.byte	0x12
 4475 0c6f 0305     		.2byte	0x503
 4476 0c71 10       		.byte	0x10
 4477 0c72 EB000000 		.4byte	0xeb
 4478 0c76 EC       		.byte	0xec
 4479 0c77 01       		.uleb128 0x1
 4480 0c78 90080000 		.4byte	.LASF179
 4481 0c7c 12       		.byte	0x12
 4482 0c7d 0405     		.2byte	0x504
 4483 0c7f 10       		.byte	0x10
 4484 0c80 EB000000 		.4byte	0xeb
 4485 0c84 F0       		.byte	0xf0
 4486 0c85 01       		.uleb128 0x1
 4487 0c86 220B0000 		.4byte	.LASF180
 4488 0c8a 12       		.byte	0x12
 4489 0c8b 0505     		.2byte	0x505
 4490 0c8d 10       		.byte	0x10
ARM GAS  C:\Users\DEVELO~1\AppData\Local\Temp\ccX8mAEU.s 			page 80


 4491 0c8e EB000000 		.4byte	0xeb
 4492 0c92 F4       		.byte	0xf4
 4493 0c93 01       		.uleb128 0x1
 4494 0c94 070D0000 		.4byte	.LASF181
 4495 0c98 12       		.byte	0x12
 4496 0c99 0605     		.2byte	0x506
 4497 0c9b 10       		.byte	0x10
 4498 0c9c DF000000 		.4byte	0xdf
 4499 0ca0 F8       		.byte	0xf8
 4500 0ca1 01       		.uleb128 0x1
 4501 0ca2 8B0B0000 		.4byte	.LASF182
 4502 0ca6 12       		.byte	0x12
 4503 0ca7 0705     		.2byte	0x507
 4504 0ca9 10       		.byte	0x10
 4505 0caa EB000000 		.4byte	0xeb
 4506 0cae FC       		.byte	0xfc
 4507 0caf 0D       		.uleb128 0xd
 4508 0cb0 590D0000 		.4byte	.LASF183
 4509 0cb4 0805     		.2byte	0x508
 4510 0cb6 10       		.byte	0x10
 4511 0cb7 EB000000 		.4byte	0xeb
 4512 0cbb 0001     		.2byte	0x100
 4513 0cbd 0D       		.uleb128 0xd
 4514 0cbe 48020000 		.4byte	.LASF184
 4515 0cc2 0905     		.2byte	0x509
 4516 0cc4 10       		.byte	0x10
 4517 0cc5 EB000000 		.4byte	0xeb
 4518 0cc9 0401     		.2byte	0x104
 4519 0ccb 0D       		.uleb128 0xd
 4520 0ccc AD060000 		.4byte	.LASF185
 4521 0cd0 0A05     		.2byte	0x50a
 4522 0cd2 10       		.byte	0x10
 4523 0cd3 EB000000 		.4byte	0xeb
 4524 0cd7 0801     		.2byte	0x108
 4525 0cd9 0D       		.uleb128 0xd
 4526 0cda 1D0A0000 		.4byte	.LASF186
 4527 0cde 0B05     		.2byte	0x50b
 4528 0ce0 10       		.byte	0x10
 4529 0ce1 EB000000 		.4byte	0xeb
 4530 0ce5 0C01     		.2byte	0x10c
 4531 0ce7 0D       		.uleb128 0xd
 4532 0ce8 FA000000 		.4byte	.LASF187
 4533 0cec 0C05     		.2byte	0x50c
 4534 0cee 10       		.byte	0x10
 4535 0cef EB000000 		.4byte	0xeb
 4536 0cf3 1001     		.2byte	0x110
 4537 0cf5 0D       		.uleb128 0xd
 4538 0cf6 760E0000 		.4byte	.LASF188
 4539 0cfa 0D05     		.2byte	0x50d
 4540 0cfc 10       		.byte	0x10
 4541 0cfd EB000000 		.4byte	0xeb
 4542 0d01 1401     		.2byte	0x114
 4543 0d03 0D       		.uleb128 0xd
 4544 0d04 8E000000 		.4byte	.LASF189
 4545 0d08 0E05     		.2byte	0x50e
 4546 0d0a 10       		.byte	0x10
 4547 0d0b EB000000 		.4byte	0xeb
ARM GAS  C:\Users\DEVELO~1\AppData\Local\Temp\ccX8mAEU.s 			page 81


 4548 0d0f 1801     		.2byte	0x118
 4549 0d11 0D       		.uleb128 0xd
 4550 0d12 5A050000 		.4byte	.LASF190
 4551 0d16 0F05     		.2byte	0x50f
 4552 0d18 10       		.byte	0x10
 4553 0d19 EB000000 		.4byte	0xeb
 4554 0d1d 1C01     		.2byte	0x11c
 4555 0d1f 0D       		.uleb128 0xd
 4556 0d20 120D0000 		.4byte	.LASF191
 4557 0d24 1005     		.2byte	0x510
 4558 0d26 0F       		.byte	0xf
 4559 0d27 7C080000 		.4byte	0x87c
 4560 0d2b 2001     		.2byte	0x120
 4561 0d2d 00       		.byte	0
 4562 0d2e 0A       		.uleb128 0xa
 4563 0d2f 93010000 		.4byte	.LASF192
 4564 0d33 12       		.byte	0x12
 4565 0d34 1205     		.2byte	0x512
 4566 0d36 03       		.byte	0x3
 4567 0d37 95090000 		.4byte	0x995
 4568 0d3b 1D       		.uleb128 0x1d
 4569 0d3c 350A0000 		.4byte	.LASF193
 4570 0d40 24       		.byte	0x24
 4571 0d41 03       		.byte	0x3
 4572 0d42 E001     		.2byte	0x1e0
 4573 0d44 08       		.byte	0x8
 4574 0d45 C10D0000 		.4byte	0xdc1
 4575 0d49 05       		.uleb128 0x5
 4576 0d4a 723400   		.ascii	"r4\000"
 4577 0d4d 03       		.byte	0x3
 4578 0d4e F901     		.2byte	0x1f9
 4579 0d50 11       		.byte	0x11
 4580 0d51 DF000000 		.4byte	0xdf
 4581 0d55 00       		.byte	0
 4582 0d56 05       		.uleb128 0x5
 4583 0d57 723500   		.ascii	"r5\000"
 4584 0d5a 03       		.byte	0x3
 4585 0d5b FA01     		.2byte	0x1fa
 4586 0d5d 11       		.byte	0x11
 4587 0d5e DF000000 		.4byte	0xdf
 4588 0d62 04       		.byte	0x4
 4589 0d63 05       		.uleb128 0x5
 4590 0d64 723600   		.ascii	"r6\000"
 4591 0d67 03       		.byte	0x3
 4592 0d68 FB01     		.2byte	0x1fb
 4593 0d6a 11       		.byte	0x11
 4594 0d6b DF000000 		.4byte	0xdf
 4595 0d6f 08       		.byte	0x8
 4596 0d70 05       		.uleb128 0x5
 4597 0d71 723700   		.ascii	"r7\000"
 4598 0d74 03       		.byte	0x3
 4599 0d75 FC01     		.2byte	0x1fc
 4600 0d77 11       		.byte	0x11
 4601 0d78 DF000000 		.4byte	0xdf
 4602 0d7c 0C       		.byte	0xc
 4603 0d7d 05       		.uleb128 0x5
 4604 0d7e 723800   		.ascii	"r8\000"
ARM GAS  C:\Users\DEVELO~1\AppData\Local\Temp\ccX8mAEU.s 			page 82


 4605 0d81 03       		.byte	0x3
 4606 0d82 FD01     		.2byte	0x1fd
 4607 0d84 11       		.byte	0x11
 4608 0d85 DF000000 		.4byte	0xdf
 4609 0d89 10       		.byte	0x10
 4610 0d8a 05       		.uleb128 0x5
 4611 0d8b 723900   		.ascii	"r9\000"
 4612 0d8e 03       		.byte	0x3
 4613 0d8f FE01     		.2byte	0x1fe
 4614 0d91 11       		.byte	0x11
 4615 0d92 DF000000 		.4byte	0xdf
 4616 0d96 14       		.byte	0x14
 4617 0d97 05       		.uleb128 0x5
 4618 0d98 72313000 		.ascii	"r10\000"
 4619 0d9c 03       		.byte	0x3
 4620 0d9d FF01     		.2byte	0x1ff
 4621 0d9f 11       		.byte	0x11
 4622 0da0 DF000000 		.4byte	0xdf
 4623 0da4 18       		.byte	0x18
 4624 0da5 05       		.uleb128 0x5
 4625 0da6 72313100 		.ascii	"r11\000"
 4626 0daa 03       		.byte	0x3
 4627 0dab 0002     		.2byte	0x200
 4628 0dad 11       		.byte	0x11
 4629 0dae DF000000 		.4byte	0xdf
 4630 0db2 1C       		.byte	0x1c
 4631 0db3 05       		.uleb128 0x5
 4632 0db4 6C7200   		.ascii	"lr\000"
 4633 0db7 03       		.byte	0x3
 4634 0db8 0102     		.2byte	0x201
 4635 0dba 11       		.byte	0x11
 4636 0dbb DF000000 		.4byte	0xdf
 4637 0dbf 20       		.byte	0x20
 4638 0dc0 00       		.byte	0
 4639 0dc1 1D       		.uleb128 0x1d
 4640 0dc2 D7010000 		.4byte	.LASF194
 4641 0dc6 04       		.byte	0x4
 4642 0dc7 03       		.byte	0x3
 4643 0dc8 0A02     		.2byte	0x20a
 4644 0dca 08       		.byte	0x8
 4645 0dcb DD0D0000 		.4byte	0xddd
 4646 0dcf 05       		.uleb128 0x5
 4647 0dd0 737000   		.ascii	"sp\000"
 4648 0dd3 03       		.byte	0x3
 4649 0dd4 0B02     		.2byte	0x20b
 4650 0dd6 1A       		.byte	0x1a
 4651 0dd7 DD0D0000 		.4byte	0xddd
 4652 0ddb 00       		.byte	0
 4653 0ddc 00       		.byte	0
 4654 0ddd 04       		.uleb128 0x4
 4655 0dde 3B0D0000 		.4byte	0xd3b
 4656 0de2 09       		.uleb128 0x9
 4657 0de3 79040000 		.4byte	.LASF195
 4658 0de7 18       		.byte	0x18
 4659 0de8 0C       		.byte	0xc
 4660 0de9 64       		.byte	0x64
 4661 0dea 10       		.byte	0x10
ARM GAS  C:\Users\DEVELO~1\AppData\Local\Temp\ccX8mAEU.s 			page 83


 4662 0deb 170E0000 		.4byte	0xe17
 4663 0def 02       		.uleb128 0x2
 4664 0df0 D20A0000 		.4byte	.LASF196
 4665 0df4 0C       		.byte	0xc
 4666 0df5 68       		.byte	0x68
 4667 0df6 21       		.byte	0x21
 4668 0df7 4D040000 		.4byte	0x44d
 4669 0dfb 00       		.byte	0
 4670 0dfc 02       		.uleb128 0x2
 4671 0dfd D80A0000 		.4byte	.LASF197
 4672 0e01 0C       		.byte	0xc
 4673 0e02 73       		.byte	0x73
 4674 0e03 21       		.byte	0x21
 4675 0e04 8A030000 		.4byte	0x38a
 4676 0e08 0C       		.byte	0xc
 4677 0e09 02       		.uleb128 0x2
 4678 0e0a 2A020000 		.4byte	.LASF198
 4679 0e0e 0C       		.byte	0xc
 4680 0e0f 79       		.byte	0x79
 4681 0e10 21       		.byte	0x21
 4682 0e11 FC000000 		.4byte	0xfc
 4683 0e15 10       		.byte	0x10
 4684 0e16 00       		.byte	0
 4685 0e17 03       		.uleb128 0x3
 4686 0e18 D20C0000 		.4byte	.LASF199
 4687 0e1c 0C       		.byte	0xc
 4688 0e1d 7B       		.byte	0x7b
 4689 0e1e 03       		.byte	0x3
 4690 0e1f E20D0000 		.4byte	0xde2
 4691 0e23 09       		.uleb128 0x9
 4692 0e24 6A000000 		.4byte	.LASF200
 4693 0e28 08       		.byte	0x8
 4694 0e29 0C       		.byte	0xc
 4695 0e2a 80       		.byte	0x80
 4696 0e2b 10       		.byte	0x10
 4697 0e2c 3E0E0000 		.4byte	0xe3e
 4698 0e30 02       		.uleb128 0x2
 4699 0e31 3B0C0000 		.4byte	.LASF201
 4700 0e35 0C       		.byte	0xc
 4701 0e36 84       		.byte	0x84
 4702 0e37 21       		.byte	0x21
 4703 0e38 CE030000 		.4byte	0x3ce
 4704 0e3c 00       		.byte	0
 4705 0e3d 00       		.byte	0
 4706 0e3e 03       		.uleb128 0x3
 4707 0e3f 4A080000 		.4byte	.LASF202
 4708 0e43 0C       		.byte	0xc
 4709 0e44 85       		.byte	0x85
 4710 0e45 03       		.byte	0x3
 4711 0e46 230E0000 		.4byte	0xe23
 4712 0e4a 03       		.uleb128 0x3
 4713 0e4b 39000000 		.4byte	.LASF203
 4714 0e4f 0C       		.byte	0xc
 4715 0e50 8A       		.byte	0x8a
 4716 0e51 14       		.byte	0x14
 4717 0e52 B7040000 		.4byte	0x4b7
 4718 0e56 22       		.uleb128 0x22
ARM GAS  C:\Users\DEVELO~1\AppData\Local\Temp\ccX8mAEU.s 			page 84


 4719 0e57 0C       		.byte	0xc
 4720 0e58 0C       		.byte	0xc
 4721 0e59 A0       		.byte	0xa0
 4722 0e5a 830E0000 		.4byte	0xe83
 4723 0e5e 10       		.uleb128 0x10
 4724 0e5f BA020000 		.4byte	.LASF204
 4725 0e63 0C       		.byte	0xc
 4726 0e64 A4       		.byte	0xa4
 4727 0e65 21       		.byte	0x21
 4728 0e66 A2030000 		.4byte	0x3a2
 4729 0e6a 10       		.uleb128 0x10
 4730 0e6b 3B0C0000 		.4byte	.LASF201
 4731 0e6f 0C       		.byte	0xc
 4732 0e70 A8       		.byte	0xa8
 4733 0e71 21       		.byte	0x21
 4734 0e72 CE030000 		.4byte	0x3ce
 4735 0e76 10       		.uleb128 0x10
 4736 0e77 AB030000 		.4byte	.LASF205
 4737 0e7b 0C       		.byte	0xc
 4738 0e7c AC       		.byte	0xac
 4739 0e7d 21       		.byte	0x21
 4740 0e7e 07040000 		.4byte	0x407
 4741 0e82 00       		.byte	0
 4742 0e83 22       		.uleb128 0x22
 4743 0e84 04       		.byte	0x4
 4744 0e85 0C       		.byte	0xc
 4745 0e86 EB       		.byte	0xeb
 4746 0e87 EC0E0000 		.4byte	0xeec
 4747 0e8b 10       		.uleb128 0x10
 4748 0e8c 6B050000 		.4byte	.LASF206
 4749 0e90 0C       		.byte	0xc
 4750 0e91 F2       		.byte	0xf2
 4751 0e92 21       		.byte	0x21
 4752 0e93 61010000 		.4byte	0x161
 4753 0e97 10       		.uleb128 0x10
 4754 0e98 960E0000 		.4byte	.LASF207
 4755 0e9c 0C       		.byte	0xc
 4756 0e9d F9       		.byte	0xf9
 4757 0e9e 21       		.byte	0x21
 4758 0e9f 61010000 		.4byte	0x161
 4759 0ea3 15       		.uleb128 0x15
 4760 0ea4 A8010000 		.4byte	.LASF80
 4761 0ea8 0001     		.2byte	0x100
 4762 0eaa 22       		.byte	0x22
 4763 0eab BC040000 		.4byte	0x4bc
 4764 0eaf 15       		.uleb128 0x15
 4765 0eb0 810E0000 		.4byte	.LASF208
 4766 0eb4 0701     		.2byte	0x107
 4767 0eb6 22       		.byte	0x22
 4768 0eb7 EC0E0000 		.4byte	0xeec
 4769 0ebb 15       		.uleb128 0x15
 4770 0ebc ED020000 		.4byte	.LASF209
 4771 0ec0 0C01     		.2byte	0x10c
 4772 0ec2 21       		.byte	0x21
 4773 0ec3 61010000 		.4byte	0x161
 4774 0ec7 15       		.uleb128 0x15
 4775 0ec8 480C0000 		.4byte	.LASF210
ARM GAS  C:\Users\DEVELO~1\AppData\Local\Temp\ccX8mAEU.s 			page 85


 4776 0ecc 1501     		.2byte	0x115
 4777 0ece 22       		.byte	0x22
 4778 0ecf 190F0000 		.4byte	0xf19
 4779 0ed3 15       		.uleb128 0x15
 4780 0ed4 29000000 		.4byte	.LASF211
 4781 0ed8 1E01     		.2byte	0x11e
 4782 0eda 22       		.byte	0x22
 4783 0edb 530F0000 		.4byte	0xf53
 4784 0edf 15       		.uleb128 0x15
 4785 0ee0 34020000 		.4byte	.LASF212
 4786 0ee4 2601     		.2byte	0x126
 4787 0ee6 21       		.byte	0x21
 4788 0ee7 6D010000 		.4byte	0x16d
 4789 0eeb 00       		.byte	0
 4790 0eec 04       		.uleb128 0x4
 4791 0eed 4A0E0000 		.4byte	0xe4a
 4792 0ef1 09       		.uleb128 0x9
 4793 0ef2 25030000 		.4byte	.LASF213
 4794 0ef6 0C       		.byte	0xc
 4795 0ef7 13       		.byte	0x13
 4796 0ef8 34       		.byte	0x34
 4797 0ef9 10       		.byte	0x10
 4798 0efa 190F0000 		.4byte	0xf19
 4799 0efe 02       		.uleb128 0x2
 4800 0eff 3B0C0000 		.4byte	.LASF201
 4801 0f03 13       		.byte	0x13
 4802 0f04 35       		.byte	0x35
 4803 0f05 19       		.byte	0x19
 4804 0f06 CE030000 		.4byte	0x3ce
 4805 0f0a 00       		.byte	0
 4806 0f0b 08       		.uleb128 0x8
 4807 0f0c 636E7400 		.ascii	"cnt\000"
 4808 0f10 13       		.byte	0x13
 4809 0f11 37       		.byte	0x37
 4810 0f12 19       		.byte	0x19
 4811 0f13 79010000 		.4byte	0x179
 4812 0f17 08       		.byte	0x8
 4813 0f18 00       		.byte	0
 4814 0f19 04       		.uleb128 0x4
 4815 0f1a F10E0000 		.4byte	0xef1
 4816 0f1e 09       		.uleb128 0x9
 4817 0f1f D2050000 		.4byte	.LASF214
 4818 0f23 10       		.byte	0x10
 4819 0f24 14       		.byte	0x14
 4820 0f25 39       		.byte	0x39
 4821 0f26 08       		.byte	0x8
 4822 0f27 530F0000 		.4byte	0xf53
 4823 0f2b 02       		.uleb128 0x2
 4824 0f2c 3B0C0000 		.4byte	.LASF201
 4825 0f30 14       		.byte	0x14
 4826 0f31 3A       		.byte	0x3a
 4827 0f32 19       		.byte	0x19
 4828 0f33 CE030000 		.4byte	0x3ce
 4829 0f37 00       		.byte	0
 4830 0f38 02       		.uleb128 0x2
 4831 0f39 53040000 		.4byte	.LASF35
 4832 0f3d 14       		.byte	0x14
ARM GAS  C:\Users\DEVELO~1\AppData\Local\Temp\ccX8mAEU.s 			page 86


 4833 0f3e 3C       		.byte	0x3c
 4834 0f3f 1A       		.byte	0x1a
 4835 0f40 B7040000 		.4byte	0x4b7
 4836 0f44 08       		.byte	0x8
 4837 0f45 02       		.uleb128 0x2
 4838 0f46 05010000 		.4byte	.LASF70
 4839 0f4a 14       		.byte	0x14
 4840 0f4b 3E       		.byte	0x3e
 4841 0f4c 1A       		.byte	0x1a
 4842 0f4d 12100000 		.4byte	0x1012
 4843 0f51 0C       		.byte	0xc
 4844 0f52 00       		.byte	0
 4845 0f53 04       		.uleb128 0x4
 4846 0f54 1E0F0000 		.4byte	0xf1e
 4847 0f58 04       		.uleb128 0x4
 4848 0f59 80020000 		.4byte	0x280
 4849 0f5d 04       		.uleb128 0x4
 4850 0f5e 25010000 		.4byte	0x125
 4851 0f62 1D       		.uleb128 0x1d
 4852 0f63 17020000 		.4byte	.LASF215
 4853 0f67 10       		.byte	0x10
 4854 0f68 0C       		.byte	0xc
 4855 0f69 5C01     		.2byte	0x15c
 4856 0f6b 10       		.byte	0x10
 4857 0f6c 8D0F0000 		.4byte	0xf8d
 4858 0f70 01       		.uleb128 0x1
 4859 0f71 AB030000 		.4byte	.LASF205
 4860 0f75 0C       		.byte	0xc
 4861 0f76 6101     		.2byte	0x161
 4862 0f78 21       		.byte	0x21
 4863 0f79 07040000 		.4byte	0x407
 4864 0f7d 00       		.byte	0
 4865 0f7e 01       		.uleb128 0x1
 4866 0f7f F40D0000 		.4byte	.LASF216
 4867 0f83 0C       		.byte	0xc
 4868 0f84 6501     		.2byte	0x165
 4869 0f86 22       		.byte	0x22
 4870 0f87 B7040000 		.4byte	0x4b7
 4871 0f8b 0C       		.byte	0xc
 4872 0f8c 00       		.byte	0
 4873 0f8d 0A       		.uleb128 0xa
 4874 0f8e DC0B0000 		.4byte	.LASF217
 4875 0f92 0C       		.byte	0xc
 4876 0f93 6601     		.2byte	0x166
 4877 0f95 03       		.byte	0x3
 4878 0f96 620F0000 		.4byte	0xf62
 4879 0f9a 1D       		.uleb128 0x1d
 4880 0f9b BC0A0000 		.4byte	.LASF218
 4881 0f9f 14       		.byte	0x14
 4882 0fa0 0C       		.byte	0xc
 4883 0fa1 6B01     		.2byte	0x16b
 4884 0fa3 10       		.byte	0x10
 4885 0fa4 EF0F0000 		.4byte	0xfef
 4886 0fa8 01       		.uleb128 0x1
 4887 0fa9 3F0B0000 		.4byte	.LASF36
 4888 0fad 0C       		.byte	0xc
 4889 0fae 6F01     		.2byte	0x16f
ARM GAS  C:\Users\DEVELO~1\AppData\Local\Temp\ccX8mAEU.s 			page 87


 4890 0fb0 22       		.byte	0x22
 4891 0fb1 68030000 		.4byte	0x368
 4892 0fb5 00       		.byte	0
 4893 0fb6 01       		.uleb128 0x1
 4894 0fb7 E5060000 		.4byte	.LASF219
 4895 0fbb 0C       		.byte	0xc
 4896 0fbc 7501     		.2byte	0x175
 4897 0fbe 22       		.byte	0x22
 4898 0fbf 5D0F0000 		.4byte	0xf5d
 4899 0fc3 04       		.byte	0x4
 4900 0fc4 01       		.uleb128 0x1
 4901 0fc5 62040000 		.4byte	.LASF220
 4902 0fc9 0C       		.byte	0xc
 4903 0fca 7901     		.2byte	0x179
 4904 0fcc 22       		.byte	0x22
 4905 0fcd 5D0F0000 		.4byte	0xf5d
 4906 0fd1 08       		.byte	0x8
 4907 0fd2 01       		.uleb128 0x1
 4908 0fd3 910D0000 		.4byte	.LASF221
 4909 0fd7 0C       		.byte	0xc
 4910 0fd8 7F01     		.2byte	0x17f
 4911 0fda 22       		.byte	0x22
 4912 0fdb 5D0F0000 		.4byte	0xf5d
 4913 0fdf 0C       		.byte	0xc
 4914 0fe0 01       		.uleb128 0x1
 4915 0fe1 46060000 		.4byte	.LASF222
 4916 0fe5 0C       		.byte	0xc
 4917 0fe6 8301     		.2byte	0x183
 4918 0fe8 22       		.byte	0x22
 4919 0fe9 5D0F0000 		.4byte	0xf5d
 4920 0fed 10       		.byte	0x10
 4921 0fee 00       		.byte	0
 4922 0fef 0A       		.uleb128 0xa
 4923 0ff0 4F030000 		.4byte	.LASF223
 4924 0ff4 0C       		.byte	0xc
 4925 0ff5 8501     		.2byte	0x185
 4926 0ff7 03       		.byte	0x3
 4927 0ff8 9A0F0000 		.4byte	0xf9a
 4928 0ffc 0E       		.uleb128 0xe
 4929 0ffd EF0F0000 		.4byte	0xfef
 4930 1001 04       		.uleb128 0x4
 4931 1002 FC0F0000 		.4byte	0xffc
 4932 1006 03       		.uleb128 0x3
 4933 1007 870C0000 		.4byte	.LASF224
 4934 100b 14       		.byte	0x14
 4935 100c 34       		.byte	0x34
 4936 100d 19       		.byte	0x19
 4937 100e 1E0F0000 		.4byte	0xf1e
 4938 1012 04       		.uleb128 0x4
 4939 1013 06100000 		.4byte	0x1006
 4940 1017 0B       		.uleb128 0xb
 4941 1018 01       		.byte	0x1
 4942 1019 02       		.byte	0x2
 4943 101a A8050000 		.4byte	.LASF225
 4944 101e 04       		.uleb128 0x4
 4945 101f 23100000 		.4byte	0x1023
 4946 1023 25       		.uleb128 0x25
ARM GAS  C:\Users\DEVELO~1\AppData\Local\Temp\ccX8mAEU.s 			page 88


 4947 1024 33100000 		.4byte	0x1033
 4948 1028 06       		.uleb128 0x6
 4949 1029 BC040000 		.4byte	0x4bc
 4950 102d 06       		.uleb128 0x6
 4951 102e DF000000 		.4byte	0xdf
 4952 1032 00       		.byte	0
 4953 1033 0A       		.uleb128 0xa
 4954 1034 1D060000 		.4byte	.LASF226
 4955 1038 15       		.byte	0x15
 4956 1039 A201     		.2byte	0x1a2
 4957 103b 10       		.byte	0x10
 4958 103c 1E100000 		.4byte	0x101e
 4959 1040 1C       		.uleb128 0x1c
 4960 1041 10       		.byte	0x10
 4961 1042 15       		.byte	0x15
 4962 1043 A701     		.2byte	0x1a7
 4963 1045 9E100000 		.4byte	0x109e
 4964 1049 01       		.uleb128 0x1
 4965 104a 75070000 		.4byte	.LASF227
 4966 104e 15       		.byte	0x15
 4967 104f A801     		.2byte	0x1a8
 4968 1051 1A       		.byte	0x1a
 4969 1052 9E100000 		.4byte	0x109e
 4970 1056 00       		.byte	0
 4971 1057 01       		.uleb128 0x1
 4972 1058 01030000 		.4byte	.LASF228
 4973 105c 15       		.byte	0x15
 4974 105d A901     		.2byte	0x1a9
 4975 105f 1A       		.byte	0x1a
 4976 1060 A3100000 		.4byte	0x10a3
 4977 1064 04       		.byte	0x4
 4978 1065 05       		.uleb128 0x5
 4979 1066 6D757800 		.ascii	"mux\000"
 4980 106a 15       		.byte	0x15
 4981 106b AB01     		.2byte	0x1ab
 4982 106d 1B       		.byte	0x1b
 4983 106e A8100000 		.4byte	0x10a8
 4984 1072 08       		.byte	0x8
 4985 1073 01       		.uleb128 0x1
 4986 1074 1F030000 		.4byte	.LASF229
 4987 1078 15       		.byte	0x15
 4988 1079 AF01     		.2byte	0x1af
 4989 107b 19       		.byte	0x19
 4990 107c BB000000 		.4byte	0xbb
 4991 1080 0C       		.byte	0xc
 4992 1081 01       		.uleb128 0x1
 4993 1082 9F0E0000 		.4byte	.LASF230
 4994 1086 15       		.byte	0x15
 4995 1087 B101     		.2byte	0x1b1
 4996 1089 19       		.byte	0x19
 4997 108a BB000000 		.4byte	0xbb
 4998 108e 0D       		.byte	0xd
 4999 108f 01       		.uleb128 0x1
 5000 1090 A4030000 		.4byte	.LASF231
 5001 1094 15       		.byte	0x15
 5002 1095 B201     		.2byte	0x1b2
 5003 1097 19       		.byte	0x19
ARM GAS  C:\Users\DEVELO~1\AppData\Local\Temp\ccX8mAEU.s 			page 89


 5004 1098 BB000000 		.4byte	0xbb
 5005 109c 0E       		.byte	0xe
 5006 109d 00       		.byte	0
 5007 109e 04       		.uleb128 0x4
 5008 109f 53090000 		.4byte	0x953
 5009 10a3 04       		.uleb128 0x4
 5010 10a4 EB000000 		.4byte	0xeb
 5011 10a8 04       		.uleb128 0x4
 5012 10a9 78090000 		.4byte	0x978
 5013 10ad 0A       		.uleb128 0xa
 5014 10ae 00070000 		.4byte	.LASF232
 5015 10b2 15       		.byte	0x15
 5016 10b3 B301     		.2byte	0x1b3
 5017 10b5 03       		.byte	0x3
 5018 10b6 40100000 		.4byte	0x1040
 5019 10ba 0E       		.uleb128 0xe
 5020 10bb AD100000 		.4byte	0x10ad
 5021 10bf 34       		.uleb128 0x34
 5022 10c0 07       		.byte	0x7
 5023 10c1 01       		.byte	0x1
 5024 10c2 61000000 		.4byte	0x61
 5025 10c6 16       		.byte	0x16
 5026 10c7 46       		.byte	0x46
 5027 10c8 0E       		.byte	0xe
 5028 10c9 F2100000 		.4byte	0x10f2
 5029 10cd 16       		.uleb128 0x16
 5030 10ce 340B0000 		.4byte	.LASF233
 5031 10d2 00       		.byte	0
 5032 10d3 16       		.uleb128 0x16
 5033 10d4 870E0000 		.4byte	.LASF234
 5034 10d8 01       		.byte	0x1
 5035 10d9 16       		.uleb128 0x16
 5036 10da D20B0000 		.4byte	.LASF235
 5037 10de 02       		.byte	0x2
 5038 10df 16       		.uleb128 0x16
 5039 10e0 55090000 		.4byte	.LASF236
 5040 10e4 03       		.byte	0x3
 5041 10e5 16       		.uleb128 0x16
 5042 10e6 FD050000 		.4byte	.LASF237
 5043 10ea 04       		.byte	0x4
 5044 10eb 16       		.uleb128 0x16
 5045 10ec 13060000 		.4byte	.LASF238
 5046 10f0 05       		.byte	0x5
 5047 10f1 00       		.byte	0
 5048 10f2 03       		.uleb128 0x3
 5049 10f3 F5060000 		.4byte	.LASF239
 5050 10f7 16       		.byte	0x16
 5051 10f8 4D       		.byte	0x4d
 5052 10f9 03       		.byte	0x3
 5053 10fa BF100000 		.4byte	0x10bf
 5054 10fe 03       		.uleb128 0x3
 5055 10ff 72050000 		.4byte	.LASF240
 5056 1103 16       		.byte	0x16
 5057 1104 52       		.byte	0x52
 5058 1105 1F       		.byte	0x1f
 5059 1106 0A110000 		.4byte	0x110a
 5060 110a 09       		.uleb128 0x9
ARM GAS  C:\Users\DEVELO~1\AppData\Local\Temp\ccX8mAEU.s 			page 90


 5061 110b 2C060000 		.4byte	.LASF241
 5062 110f 38       		.byte	0x38
 5063 1110 16       		.byte	0x16
 5064 1111 A0       		.byte	0xa0
 5065 1112 08       		.byte	0x8
 5066 1113 A7110000 		.4byte	0x11a7
 5067 1117 02       		.uleb128 0x2
 5068 1118 1D0D0000 		.4byte	.LASF38
 5069 111c 16       		.byte	0x16
 5070 111d A4       		.byte	0xa4
 5071 111e 1D       		.byte	0x1d
 5072 111f F2100000 		.4byte	0x10f2
 5073 1123 00       		.byte	0
 5074 1124 02       		.uleb128 0x2
 5075 1125 7E090000 		.4byte	.LASF55
 5076 1129 16       		.byte	0x16
 5077 112a A8       		.byte	0xa8
 5078 112b 1E       		.byte	0x1e
 5079 112c 92130000 		.4byte	0x1392
 5080 1130 04       		.byte	0x4
 5081 1131 02       		.uleb128 0x2
 5082 1132 B0070000 		.4byte	.LASF242
 5083 1136 16       		.byte	0x16
 5084 1137 AC       		.byte	0xac
 5085 1138 1E       		.byte	0x1e
 5086 1139 97130000 		.4byte	0x1397
 5087 113d 08       		.byte	0x8
 5088 113e 02       		.uleb128 0x2
 5089 113f 00080000 		.4byte	.LASF243
 5090 1143 16       		.byte	0x16
 5091 1144 B0       		.byte	0xb0
 5092 1145 1D       		.byte	0x1d
 5093 1146 2D000000 		.4byte	0x2d
 5094 114a 0C       		.byte	0xc
 5095 114b 02       		.uleb128 0x2
 5096 114c 170E0000 		.4byte	.LASF244
 5097 1150 16       		.byte	0x16
 5098 1151 B4       		.byte	0xb4
 5099 1152 1E       		.byte	0x1e
 5100 1153 9C130000 		.4byte	0x139c
 5101 1157 10       		.byte	0x10
 5102 1158 02       		.uleb128 0x2
 5103 1159 410C0000 		.4byte	.LASF245
 5104 115d 16       		.byte	0x16
 5105 115e B9       		.byte	0xb9
 5106 115f 1D       		.byte	0x1d
 5107 1160 4A0E0000 		.4byte	0xe4a
 5108 1164 14       		.byte	0x14
 5109 1165 02       		.uleb128 0x2
 5110 1166 19030000 		.4byte	.LASF246
 5111 116a 16       		.byte	0x16
 5112 116b BF       		.byte	0xbf
 5113 116c 1D       		.byte	0x1d
 5114 116d 06100000 		.4byte	0x1006
 5115 1171 18       		.byte	0x18
 5116 1172 02       		.uleb128 0x2
 5117 1173 010C0000 		.4byte	.LASF247
ARM GAS  C:\Users\DEVELO~1\AppData\Local\Temp\ccX8mAEU.s 			page 91


 5118 1177 16       		.byte	0x16
 5119 1178 C5       		.byte	0xc5
 5120 1179 03       		.byte	0x3
 5121 117a A1130000 		.4byte	0x13a1
 5122 117e 28       		.byte	0x28
 5123 117f 02       		.uleb128 0x2
 5124 1180 98080000 		.4byte	.LASF248
 5125 1184 16       		.byte	0x16
 5126 1185 C5       		.byte	0xc5
 5127 1186 03       		.byte	0x3
 5128 1187 A6130000 		.4byte	0x13a6
 5129 118b 2C       		.byte	0x2c
 5130 118c 02       		.uleb128 0x2
 5131 118d E6080000 		.4byte	.LASF249
 5132 1191 16       		.byte	0x16
 5133 1192 C5       		.byte	0xc5
 5134 1193 03       		.byte	0x3
 5135 1194 2D130000 		.4byte	0x132d
 5136 1198 30       		.byte	0x30
 5137 1199 02       		.uleb128 0x2
 5138 119a 98000000 		.4byte	.LASF250
 5139 119e 16       		.byte	0x16
 5140 119f C5       		.byte	0xc5
 5141 11a0 03       		.byte	0x3
 5142 11a1 DF000000 		.4byte	0xdf
 5143 11a5 34       		.byte	0x34
 5144 11a6 00       		.byte	0
 5145 11a7 03       		.uleb128 0x3
 5146 11a8 20080000 		.4byte	.LASF251
 5147 11ac 16       		.byte	0x16
 5148 11ad 57       		.byte	0x57
 5149 11ae 1F       		.byte	0x1f
 5150 11af B8110000 		.4byte	0x11b8
 5151 11b3 0E       		.uleb128 0xe
 5152 11b4 A7110000 		.4byte	0x11a7
 5153 11b8 09       		.uleb128 0x9
 5154 11b9 700A0000 		.4byte	.LASF252
 5155 11bd 08       		.byte	0x8
 5156 11be 16       		.byte	0x16
 5157 11bf 98       		.byte	0x98
 5158 11c0 08       		.byte	0x8
 5159 11c1 E0110000 		.4byte	0x11e0
 5160 11c5 02       		.uleb128 0x2
 5161 11c6 D8090000 		.4byte	.LASF253
 5162 11ca 16       		.byte	0x16
 5163 11cb 9A       		.byte	0x9a
 5164 11cc 03       		.byte	0x3
 5165 11cd DF000000 		.4byte	0xdf
 5166 11d1 00       		.byte	0
 5167 11d2 02       		.uleb128 0x2
 5168 11d3 CE080000 		.4byte	.LASF254
 5169 11d7 16       		.byte	0x16
 5170 11d8 9A       		.byte	0x9a
 5171 11d9 03       		.byte	0x3
 5172 11da DF000000 		.4byte	0xdf
 5173 11de 04       		.byte	0x4
 5174 11df 00       		.byte	0
ARM GAS  C:\Users\DEVELO~1\AppData\Local\Temp\ccX8mAEU.s 			page 92


 5175 11e0 03       		.uleb128 0x3
 5176 11e1 500A0000 		.4byte	.LASF255
 5177 11e5 16       		.byte	0x16
 5178 11e6 61       		.byte	0x61
 5179 11e7 2C       		.byte	0x2c
 5180 11e8 F1110000 		.4byte	0x11f1
 5181 11ec 0E       		.uleb128 0xe
 5182 11ed E0110000 		.4byte	0x11e0
 5183 11f1 09       		.uleb128 0x9
 5184 11f2 5A0E0000 		.4byte	.LASF256
 5185 11f6 58       		.byte	0x58
 5186 11f7 16       		.byte	0x16
 5187 11f8 80       		.byte	0x80
 5188 11f9 08       		.byte	0x8
 5189 11fa E9120000 		.4byte	0x12e9
 5190 11fe 02       		.uleb128 0x2
 5191 11ff 30000000 		.4byte	.LASF257
 5192 1203 16       		.byte	0x16
 5193 1204 84       		.byte	0x84
 5194 1205 1D       		.byte	0x1d
 5195 1206 17100000 		.4byte	0x1017
 5196 120a 00       		.byte	0
 5197 120b 02       		.uleb128 0x2
 5198 120c 630A0000 		.4byte	.LASF258
 5199 1210 16       		.byte	0x16
 5200 1211 88       		.byte	0x88
 5201 1212 1D       		.byte	0x1d
 5202 1213 F6120000 		.4byte	0x12f6
 5203 1217 04       		.byte	0x4
 5204 1218 02       		.uleb128 0x2
 5205 1219 64030000 		.4byte	.LASF259
 5206 121d 16       		.byte	0x16
 5207 121e 8C       		.byte	0x8c
 5208 121f 1D       		.byte	0x1d
 5209 1220 50130000 		.4byte	0x1350
 5210 1224 08       		.byte	0x8
 5211 1225 02       		.uleb128 0x2
 5212 1226 9F010000 		.4byte	.LASF260
 5213 122a 16       		.byte	0x16
 5214 122b 90       		.byte	0x90
 5215 122c 1D       		.byte	0x1d
 5216 122d 71130000 		.4byte	0x1371
 5217 1231 0C       		.byte	0xc
 5218 1232 02       		.uleb128 0x2
 5219 1233 14030000 		.4byte	.LASF261
 5220 1237 16       		.byte	0x16
 5221 1238 92       		.byte	0x92
 5222 1239 03       		.byte	0x3
 5223 123a DF000000 		.4byte	0xdf
 5224 123e 10       		.byte	0x10
 5225 123f 02       		.uleb128 0x2
 5226 1240 900E0000 		.4byte	.LASF262
 5227 1244 16       		.byte	0x16
 5228 1245 92       		.byte	0x92
 5229 1246 03       		.byte	0x3
 5230 1247 DF000000 		.4byte	0xdf
 5231 124b 14       		.byte	0x14
ARM GAS  C:\Users\DEVELO~1\AppData\Local\Temp\ccX8mAEU.s 			page 93


 5232 124c 08       		.uleb128 0x8
 5233 124d 63637200 		.ascii	"ccr\000"
 5234 1251 16       		.byte	0x16
 5235 1252 92       		.byte	0x92
 5236 1253 03       		.byte	0x3
 5237 1254 DF000000 		.4byte	0xdf
 5238 1258 18       		.byte	0x18
 5239 1259 02       		.uleb128 0x2
 5240 125a F7050000 		.4byte	.LASF263
 5241 125e 16       		.byte	0x16
 5242 125f 92       		.byte	0x92
 5243 1260 03       		.byte	0x3
 5244 1261 DF000000 		.4byte	0xdf
 5245 1265 1C       		.byte	0x1c
 5246 1266 02       		.uleb128 0x2
 5247 1267 9E060000 		.4byte	.LASF264
 5248 126b 16       		.byte	0x16
 5249 126c 92       		.byte	0x92
 5250 126d 03       		.byte	0x3
 5251 126e DF000000 		.4byte	0xdf
 5252 1272 20       		.byte	0x20
 5253 1273 02       		.uleb128 0x2
 5254 1274 84010000 		.4byte	.LASF265
 5255 1278 16       		.byte	0x16
 5256 1279 92       		.byte	0x92
 5257 127a 03       		.byte	0x3
 5258 127b DF000000 		.4byte	0xdf
 5259 127f 24       		.byte	0x24
 5260 1280 02       		.uleb128 0x2
 5261 1281 A3060000 		.4byte	.LASF266
 5262 1285 16       		.byte	0x16
 5263 1286 92       		.byte	0x92
 5264 1287 03       		.byte	0x3
 5265 1288 DF000000 		.4byte	0xdf
 5266 128c 28       		.byte	0x28
 5267 128d 02       		.uleb128 0x2
 5268 128e 89010000 		.4byte	.LASF267
 5269 1292 16       		.byte	0x16
 5270 1293 92       		.byte	0x92
 5271 1294 03       		.byte	0x3
 5272 1295 DF000000 		.4byte	0xdf
 5273 1299 2C       		.byte	0x2c
 5274 129a 02       		.uleb128 0x2
 5275 129b A8060000 		.4byte	.LASF268
 5276 129f 16       		.byte	0x16
 5277 12a0 92       		.byte	0x92
 5278 12a1 03       		.byte	0x3
 5279 12a2 DF000000 		.4byte	0xdf
 5280 12a6 30       		.byte	0x30
 5281 12a7 02       		.uleb128 0x2
 5282 12a8 8E010000 		.4byte	.LASF269
 5283 12ac 16       		.byte	0x16
 5284 12ad 92       		.byte	0x92
 5285 12ae 03       		.byte	0x3
 5286 12af DF000000 		.4byte	0xdf
 5287 12b3 34       		.byte	0x34
 5288 12b4 02       		.uleb128 0x2
ARM GAS  C:\Users\DEVELO~1\AppData\Local\Temp\ccX8mAEU.s 			page 94


 5289 12b5 DB0D0000 		.4byte	.LASF270
 5290 12b9 16       		.byte	0x16
 5291 12ba 92       		.byte	0x92
 5292 12bb 03       		.byte	0x3
 5293 12bc DF000000 		.4byte	0xdf
 5294 12c0 38       		.byte	0x38
 5295 12c1 02       		.uleb128 0x2
 5296 12c2 ED0D0000 		.4byte	.LASF271
 5297 12c6 16       		.byte	0x16
 5298 12c7 92       		.byte	0x92
 5299 12c8 03       		.byte	0x3
 5300 12c9 DF000000 		.4byte	0xdf
 5301 12cd 3C       		.byte	0x3c
 5302 12ce 02       		.uleb128 0x2
 5303 12cf F4070000 		.4byte	.LASF272
 5304 12d3 16       		.byte	0x16
 5305 12d4 92       		.byte	0x92
 5306 12d5 03       		.byte	0x3
 5307 12d6 23060000 		.4byte	0x623
 5308 12da 40       		.byte	0x40
 5309 12db 08       		.uleb128 0x8
 5310 12dc 73717200 		.ascii	"sqr\000"
 5311 12e0 16       		.byte	0x16
 5312 12e1 92       		.byte	0x92
 5313 12e2 03       		.byte	0x3
 5314 12e3 7C080000 		.4byte	0x87c
 5315 12e7 48       		.byte	0x48
 5316 12e8 00       		.byte	0
 5317 12e9 0A       		.uleb128 0xa
 5318 12ea F6080000 		.4byte	.LASF273
 5319 12ee 17       		.byte	0x17
 5320 12ef 2402     		.2byte	0x224
 5321 12f1 12       		.byte	0x12
 5322 12f2 C7000000 		.4byte	0xc7
 5323 12f6 0A       		.uleb128 0xa
 5324 12f7 FC090000 		.4byte	.LASF274
 5325 12fb 17       		.byte	0x17
 5326 12fc 2E02     		.2byte	0x22e
 5327 12fe 12       		.byte	0x12
 5328 12ff DF000000 		.4byte	0xdf
 5329 1303 0A       		.uleb128 0xa
 5330 1304 0C080000 		.4byte	.LASF275
 5331 1308 17       		.byte	0x17
 5332 1309 3302     		.2byte	0x233
 5333 130b 12       		.byte	0x12
 5334 130c DF000000 		.4byte	0xdf
 5335 1310 35       		.uleb128 0x35
 5336 1311 04       		.byte	0x4
 5337 1312 17       		.byte	0x17
 5338 1313 3802     		.2byte	0x238
 5339 1315 09       		.byte	0x9
 5340 1316 28130000 		.4byte	0x1328
 5341 131a 36       		.uleb128 0x36
 5342 131b 646D6100 		.ascii	"dma\000"
 5343 131f 17       		.byte	0x17
 5344 1320 3D02     		.2byte	0x23d
 5345 1322 20       		.byte	0x20
ARM GAS  C:\Users\DEVELO~1\AppData\Local\Temp\ccX8mAEU.s 			page 95


 5346 1323 28130000 		.4byte	0x1328
 5347 1327 00       		.byte	0
 5348 1328 04       		.uleb128 0x4
 5349 1329 BA100000 		.4byte	0x10ba
 5350 132d 0A       		.uleb128 0xa
 5351 132e 40010000 		.4byte	.LASF276
 5352 1332 17       		.byte	0x17
 5353 1333 4502     		.2byte	0x245
 5354 1335 03       		.byte	0x3
 5355 1336 10130000 		.4byte	0x1310
 5356 133a 27       		.uleb128 0x27
 5357 133b 02090000 		.4byte	.LASF277
 5358 133f 0703     		.2byte	0x307
 5359 1341 FE100000 		.4byte	0x10fe
 5360 1345 27       		.uleb128 0x27
 5361 1346 08090000 		.4byte	.LASF278
 5362 134a 0B03     		.2byte	0x30b
 5363 134c FE100000 		.4byte	0x10fe
 5364 1350 03       		.uleb128 0x3
 5365 1351 2A080000 		.4byte	.LASF279
 5366 1355 16       		.byte	0x16
 5367 1356 6D       		.byte	0x6d
 5368 1357 10       		.byte	0x10
 5369 1358 5C130000 		.4byte	0x135c
 5370 135c 04       		.uleb128 0x4
 5371 135d 61130000 		.4byte	0x1361
 5372 1361 25       		.uleb128 0x25
 5373 1362 6C130000 		.4byte	0x136c
 5374 1366 06       		.uleb128 0x6
 5375 1367 6C130000 		.4byte	0x136c
 5376 136b 00       		.byte	0
 5377 136c 04       		.uleb128 0x4
 5378 136d FE100000 		.4byte	0x10fe
 5379 1371 03       		.uleb128 0x3
 5380 1372 DA020000 		.4byte	.LASF280
 5381 1376 16       		.byte	0x16
 5382 1377 76       		.byte	0x76
 5383 1378 10       		.byte	0x10
 5384 1379 7D130000 		.4byte	0x137d
 5385 137d 04       		.uleb128 0x4
 5386 137e 82130000 		.4byte	0x1382
 5387 1382 25       		.uleb128 0x25
 5388 1383 92130000 		.4byte	0x1392
 5389 1387 06       		.uleb128 0x6
 5390 1388 6C130000 		.4byte	0x136c
 5391 138c 06       		.uleb128 0x6
 5392 138d 03130000 		.4byte	0x1303
 5393 1391 00       		.byte	0
 5394 1392 04       		.uleb128 0x4
 5395 1393 B3110000 		.4byte	0x11b3
 5396 1397 04       		.uleb128 0x4
 5397 1398 E9120000 		.4byte	0x12e9
 5398 139c 04       		.uleb128 0x4
 5399 139d EC110000 		.4byte	0x11ec
 5400 13a1 04       		.uleb128 0x4
 5401 13a2 8C080000 		.4byte	0x88c
 5402 13a6 04       		.uleb128 0x4
ARM GAS  C:\Users\DEVELO~1\AppData\Local\Temp\ccX8mAEU.s 			page 96


 5403 13a7 E9080000 		.4byte	0x8e9
 5404 13ab 28       		.uleb128 0x28
 5405 13ac 3A130000 		.4byte	0x133a
 5406 13b0 5A       		.byte	0x5a
 5407 13b1 05       		.uleb128 0x5
 5408 13b2 03       		.byte	0x3
 5409 13b3 00000000 		.4byte	ADCD1
 5410 13b7 28       		.uleb128 0x28
 5411 13b8 45130000 		.4byte	0x1345
 5412 13bc 5F       		.byte	0x5f
 5413 13bd 05       		.uleb128 0x5
 5414 13be 03       		.byte	0x3
 5415 13bf 00000000 		.4byte	ADCD3
 5416 13c3 37       		.uleb128 0x37
 5417 13c4 55060000 		.4byte	.LASF298
 5418 13c8 06       		.byte	0x6
 5419 13c9 66       		.byte	0x66
 5420 13ca 18       		.byte	0x18
 5421 13cb B3110000 		.4byte	0x11b3
 5422 13cf 05       		.uleb128 0x5
 5423 13d0 03       		.byte	0x3
 5424 13d1 00000000 		.4byte	default_config
 5425 13d5 19       		.uleb128 0x19
 5426 13d6 75020000 		.4byte	.LASF281
 5427 13da 15       		.byte	0x15
 5428 13db A402     		.2byte	0x2a4
 5429 13dd E7130000 		.4byte	0x13e7
 5430 13e1 06       		.uleb128 0x6
 5431 13e2 28130000 		.4byte	0x1328
 5432 13e6 00       		.byte	0
 5433 13e7 19       		.uleb128 0x19
 5434 13e8 6A0C0000 		.4byte	.LASF282
 5435 13ec 15       		.byte	0x15
 5436 13ed A702     		.2byte	0x2a7
 5437 13ef FE130000 		.4byte	0x13fe
 5438 13f3 06       		.uleb128 0x6
 5439 13f4 28130000 		.4byte	0x1328
 5440 13f8 06       		.uleb128 0x6
 5441 13f9 DF000000 		.4byte	0xdf
 5442 13fd 00       		.byte	0
 5443 13fe 38       		.uleb128 0x38
 5444 13ff 120B0000 		.4byte	.LASF334
 5445 1403 15       		.byte	0x15
 5446 1404 9C02     		.2byte	0x29c
 5447 1406 1D       		.byte	0x1d
 5448 1407 28130000 		.4byte	0x1328
 5449 140b 24140000 		.4byte	0x1424
 5450 140f 06       		.uleb128 0x6
 5451 1410 DF000000 		.4byte	0xdf
 5452 1414 06       		.uleb128 0x6
 5453 1415 DF000000 		.4byte	0xdf
 5454 1419 06       		.uleb128 0x6
 5455 141a 33100000 		.4byte	0x1033
 5456 141e 06       		.uleb128 0x6
 5457 141f BC040000 		.4byte	0x4bc
 5458 1423 00       		.byte	0
 5459 1424 26       		.uleb128 0x26
ARM GAS  C:\Users\DEVELO~1\AppData\Local\Temp\ccX8mAEU.s 			page 97


 5460 1425 60090000 		.4byte	.LASF283
 5461 1429 18       		.byte	0x18
 5462 142a 4F       		.byte	0x4f
 5463 142b 3A140000 		.4byte	0x143a
 5464 142f 06       		.uleb128 0x6
 5465 1430 DF000000 		.4byte	0xdf
 5466 1434 06       		.uleb128 0x6
 5467 1435 DF000000 		.4byte	0xdf
 5468 1439 00       		.byte	0
 5469 143a 19       		.uleb128 0x19
 5470 143b 55070000 		.4byte	.LASF284
 5471 143f 16       		.byte	0x16
 5472 1440 8101     		.2byte	0x181
 5473 1442 4C140000 		.4byte	0x144c
 5474 1446 06       		.uleb128 0x6
 5475 1447 6C130000 		.4byte	0x136c
 5476 144b 00       		.byte	0
 5477 144c 39       		.uleb128 0x39
 5478 144d 86070000 		.4byte	.LASF335
 5479 1451 03       		.byte	0x3
 5480 1452 F402     		.2byte	0x2f4
 5481 1454 08       		.byte	0x8
 5482 1455 26       		.uleb128 0x26
 5483 1456 AE0B0000 		.4byte	.LASF285
 5484 145a 11       		.byte	0x11
 5485 145b FF       		.byte	0xff
 5486 145c 66140000 		.4byte	0x1466
 5487 1460 06       		.uleb128 0x6
 5488 1461 68030000 		.4byte	0x368
 5489 1465 00       		.byte	0
 5490 1466 26       		.uleb128 0x26
 5491 1467 340E0000 		.4byte	.LASF286
 5492 146b 11       		.byte	0x11
 5493 146c FE       		.byte	0xfe
 5494 146d 77140000 		.4byte	0x1477
 5495 1471 06       		.uleb128 0x6
 5496 1472 68030000 		.4byte	0x368
 5497 1476 00       		.byte	0
 5498 1477 19       		.uleb128 0x19
 5499 1478 BF020000 		.4byte	.LASF287
 5500 147c 19       		.byte	0x19
 5501 147d 3C01     		.2byte	0x13c
 5502 147f 8E140000 		.4byte	0x148e
 5503 1483 06       		.uleb128 0x6
 5504 1484 EC0E0000 		.4byte	0xeec
 5505 1488 06       		.uleb128 0x6
 5506 1489 61010000 		.4byte	0x161
 5507 148d 00       		.byte	0
 5508 148e 19       		.uleb128 0x19
 5509 148f 32090000 		.4byte	.LASF288
 5510 1493 01       		.byte	0x1
 5511 1494 5601     		.2byte	0x156
 5512 1496 A0140000 		.4byte	0x14a0
 5513 149a 06       		.uleb128 0x6
 5514 149b 19010000 		.4byte	0x119
 5515 149f 00       		.byte	0
 5516 14a0 13       		.uleb128 0x13
ARM GAS  C:\Users\DEVELO~1\AppData\Local\Temp\ccX8mAEU.s 			page 98


 5517 14a1 03020000 		.4byte	.LASF289
 5518 14a5 B103     		.2byte	0x3b1
 5519 14a7 00000000 		.4byte	.LFB452
 5520 14ab 22000000 		.4byte	.LFE452-.LFB452
 5521 14af 01       		.uleb128 0x1
 5522 14b0 9C       		.byte	0x9c
 5523 14b1 C6140000 		.4byte	0x14c6
 5524 14b5 07       		.uleb128 0x7
 5525 14b6 1F0C0000 		.4byte	.LASF291
 5526 14ba 06       		.byte	0x6
 5527 14bb B103     		.2byte	0x3b1
 5528 14bd 25       		.byte	0x25
 5529 14be 6C130000 		.4byte	0x136c
 5530 14c2 02       		.uleb128 0x2
 5531 14c3 91       		.byte	0x91
 5532 14c4 74       		.sleb128 -12
 5533 14c5 00       		.byte	0
 5534 14c6 13       		.uleb128 0x13
 5535 14c7 E1070000 		.4byte	.LASF290
 5536 14cb A203     		.2byte	0x3a2
 5537 14cd 00000000 		.4byte	.LFB451
 5538 14d1 22000000 		.4byte	.LFE451-.LFB451
 5539 14d5 01       		.uleb128 0x1
 5540 14d6 9C       		.byte	0x9c
 5541 14d7 EC140000 		.4byte	0x14ec
 5542 14db 07       		.uleb128 0x7
 5543 14dc 1F0C0000 		.4byte	.LASF291
 5544 14e0 06       		.byte	0x6
 5545 14e1 A203     		.2byte	0x3a2
 5546 14e3 24       		.byte	0x24
 5547 14e4 6C130000 		.4byte	0x136c
 5548 14e8 02       		.uleb128 0x2
 5549 14e9 91       		.byte	0x91
 5550 14ea 74       		.sleb128 -12
 5551 14eb 00       		.byte	0
 5552 14ec 13       		.uleb128 0x13
 5553 14ed 6A0B0000 		.4byte	.LASF292
 5554 14f1 9303     		.2byte	0x393
 5555 14f3 00000000 		.4byte	.LFB450
 5556 14f7 22000000 		.4byte	.LFE450-.LFB450
 5557 14fb 01       		.uleb128 0x1
 5558 14fc 9C       		.byte	0x9c
 5559 14fd 12150000 		.4byte	0x1512
 5560 1501 07       		.uleb128 0x7
 5561 1502 1F0C0000 		.4byte	.LASF291
 5562 1506 06       		.byte	0x6
 5563 1507 9303     		.2byte	0x393
 5564 1509 23       		.byte	0x23
 5565 150a 6C130000 		.4byte	0x136c
 5566 150e 02       		.uleb128 0x2
 5567 150f 91       		.byte	0x91
 5568 1510 74       		.sleb128 -12
 5569 1511 00       		.byte	0
 5570 1512 13       		.uleb128 0x13
 5571 1513 18000000 		.4byte	.LASF293
 5572 1517 8403     		.2byte	0x384
 5573 1519 00000000 		.4byte	.LFB449
ARM GAS  C:\Users\DEVELO~1\AppData\Local\Temp\ccX8mAEU.s 			page 99


 5574 151d 22000000 		.4byte	.LFE449-.LFB449
 5575 1521 01       		.uleb128 0x1
 5576 1522 9C       		.byte	0x9c
 5577 1523 38150000 		.4byte	0x1538
 5578 1527 07       		.uleb128 0x7
 5579 1528 1F0C0000 		.4byte	.LASF291
 5580 152c 06       		.byte	0x6
 5581 152d 8403     		.2byte	0x384
 5582 152f 22       		.byte	0x22
 5583 1530 6C130000 		.4byte	0x136c
 5584 1534 02       		.uleb128 0x2
 5585 1535 91       		.byte	0x91
 5586 1536 74       		.sleb128 -12
 5587 1537 00       		.byte	0
 5588 1538 13       		.uleb128 0x13
 5589 1539 69060000 		.4byte	.LASF294
 5590 153d 7503     		.2byte	0x375
 5591 153f 00000000 		.4byte	.LFB448
 5592 1543 22000000 		.4byte	.LFE448-.LFB448
 5593 1547 01       		.uleb128 0x1
 5594 1548 9C       		.byte	0x9c
 5595 1549 5E150000 		.4byte	0x155e
 5596 154d 07       		.uleb128 0x7
 5597 154e 1F0C0000 		.4byte	.LASF291
 5598 1552 06       		.byte	0x6
 5599 1553 7503     		.2byte	0x375
 5600 1555 25       		.byte	0x25
 5601 1556 6C130000 		.4byte	0x136c
 5602 155a 02       		.uleb128 0x2
 5603 155b 91       		.byte	0x91
 5604 155c 74       		.sleb128 -12
 5605 155d 00       		.byte	0
 5606 155e 13       		.uleb128 0x13
 5607 155f 5D010000 		.4byte	.LASF295
 5608 1563 6603     		.2byte	0x366
 5609 1565 00000000 		.4byte	.LFB447
 5610 1569 22000000 		.4byte	.LFE447-.LFB447
 5611 156d 01       		.uleb128 0x1
 5612 156e 9C       		.byte	0x9c
 5613 156f 84150000 		.4byte	0x1584
 5614 1573 07       		.uleb128 0x7
 5615 1574 1F0C0000 		.4byte	.LASF291
 5616 1578 06       		.byte	0x6
 5617 1579 6603     		.2byte	0x366
 5618 157b 24       		.byte	0x24
 5619 157c 6C130000 		.4byte	0x136c
 5620 1580 02       		.uleb128 0x2
 5621 1581 91       		.byte	0x91
 5622 1582 74       		.sleb128 -12
 5623 1583 00       		.byte	0
 5624 1584 1E       		.uleb128 0x1e
 5625 1585 E90B0000 		.4byte	.LASF296
 5626 1589 4703     		.2byte	0x347
 5627 158b 06       		.byte	0x6
 5628 158c 00000000 		.4byte	.LFB446
 5629 1590 A0000000 		.4byte	.LFE446-.LFB446
 5630 1594 01       		.uleb128 0x1
ARM GAS  C:\Users\DEVELO~1\AppData\Local\Temp\ccX8mAEU.s 			page 100


 5631 1595 9C       		.byte	0x9c
 5632 1596 AB150000 		.4byte	0x15ab
 5633 159a 07       		.uleb128 0x7
 5634 159b 1F0C0000 		.4byte	.LASF291
 5635 159f 06       		.byte	0x6
 5636 15a0 4703     		.2byte	0x347
 5637 15a2 29       		.byte	0x29
 5638 15a3 6C130000 		.4byte	0x136c
 5639 15a7 02       		.uleb128 0x2
 5640 15a8 91       		.byte	0x91
 5641 15a9 74       		.sleb128 -12
 5642 15aa 00       		.byte	0
 5643 15ab 13       		.uleb128 0x13
 5644 15ac 4C000000 		.4byte	.LASF297
 5645 15b0 8602     		.2byte	0x286
 5646 15b2 00000000 		.4byte	.LFB445
 5647 15b6 14020000 		.4byte	.LFE445-.LFB445
 5648 15ba 01       		.uleb128 0x1
 5649 15bb 9C       		.byte	0x9c
 5650 15bc FE150000 		.4byte	0x15fe
 5651 15c0 07       		.uleb128 0x7
 5652 15c1 1F0C0000 		.4byte	.LASF291
 5653 15c5 06       		.byte	0x6
 5654 15c6 8602     		.2byte	0x286
 5655 15c8 2A       		.byte	0x2a
 5656 15c9 6C130000 		.4byte	0x136c
 5657 15cd 02       		.uleb128 0x2
 5658 15ce 91       		.byte	0x91
 5659 15cf 64       		.sleb128 -28
 5660 15d0 1F       		.uleb128 0x1f
 5661 15d1 98000000 		.4byte	.LASF250
 5662 15d5 8702     		.2byte	0x287
 5663 15d7 0C       		.byte	0xc
 5664 15d8 DF000000 		.4byte	0xdf
 5665 15dc 02       		.uleb128 0x2
 5666 15dd 91       		.byte	0x91
 5667 15de 74       		.sleb128 -12
 5668 15df 1F       		.uleb128 0x1f
 5669 15e0 14030000 		.4byte	.LASF261
 5670 15e4 8702     		.2byte	0x287
 5671 15e6 15       		.byte	0x15
 5672 15e7 DF000000 		.4byte	0xdf
 5673 15eb 02       		.uleb128 0x2
 5674 15ec 91       		.byte	0x91
 5675 15ed 70       		.sleb128 -16
 5676 15ee 1F       		.uleb128 0x1f
 5677 15ef 170E0000 		.4byte	.LASF244
 5678 15f3 8802     		.2byte	0x288
 5679 15f5 1D       		.byte	0x1d
 5680 15f6 9C130000 		.4byte	0x139c
 5681 15fa 02       		.uleb128 0x2
 5682 15fb 91       		.byte	0x91
 5683 15fc 6C       		.sleb128 -20
 5684 15fd 00       		.byte	0
 5685 15fe 1E       		.uleb128 0x1e
 5686 15ff C8060000 		.4byte	.LASF299
 5687 1603 4B02     		.2byte	0x24b
ARM GAS  C:\Users\DEVELO~1\AppData\Local\Temp\ccX8mAEU.s 			page 101


 5688 1605 06       		.byte	0x6
 5689 1606 00000000 		.4byte	.LFB444
 5690 160a 80000000 		.4byte	.LFE444-.LFB444
 5691 160e 01       		.uleb128 0x1
 5692 160f 9C       		.byte	0x9c
 5693 1610 25160000 		.4byte	0x1625
 5694 1614 07       		.uleb128 0x7
 5695 1615 1F0C0000 		.4byte	.LASF291
 5696 1619 06       		.byte	0x6
 5697 161a 4B02     		.2byte	0x24b
 5698 161c 1E       		.byte	0x1e
 5699 161d 6C130000 		.4byte	0x136c
 5700 1621 02       		.uleb128 0x2
 5701 1622 91       		.byte	0x91
 5702 1623 74       		.sleb128 -12
 5703 1624 00       		.byte	0
 5704 1625 3A       		.uleb128 0x3a
 5705 1626 C9010000 		.4byte	.LASF336
 5706 162a 06       		.byte	0x6
 5707 162b D001     		.2byte	0x1d0
 5708 162d 07       		.byte	0x7
 5709 162e 61010000 		.4byte	0x161
 5710 1632 00000000 		.4byte	.LFB443
 5711 1636 38010000 		.4byte	.LFE443-.LFB443
 5712 163a 01       		.uleb128 0x1
 5713 163b 9C       		.byte	0x9c
 5714 163c 51160000 		.4byte	0x1651
 5715 1640 07       		.uleb128 0x7
 5716 1641 1F0C0000 		.4byte	.LASF291
 5717 1645 06       		.byte	0x6
 5718 1646 D001     		.2byte	0x1d0
 5719 1648 20       		.byte	0x20
 5720 1649 6C130000 		.4byte	0x136c
 5721 164d 02       		.uleb128 0x2
 5722 164e 91       		.byte	0x91
 5723 164f 74       		.sleb128 -12
 5724 1650 00       		.byte	0
 5725 1651 3B       		.uleb128 0x3b
 5726 1652 980A0000 		.4byte	.LASF337
 5727 1656 06       		.byte	0x6
 5728 1657 8C01     		.2byte	0x18c
 5729 1659 06       		.byte	0x6
 5730 165a 00000000 		.4byte	.LFB442
 5731 165e AC000000 		.4byte	.LFE442-.LFB442
 5732 1662 01       		.uleb128 0x1
 5733 1663 9C       		.byte	0x9c
 5734 1664 1E       		.uleb128 0x1e
 5735 1665 6B020000 		.4byte	.LASF300
 5736 1669 7301     		.2byte	0x173
 5737 166b 01       		.byte	0x1
 5738 166c 00000000 		.4byte	.LFB441
 5739 1670 40000000 		.4byte	.LFE441-.LFB441
 5740 1674 01       		.uleb128 0x1
 5741 1675 9C       		.byte	0x9c
 5742 1676 98160000 		.4byte	0x1698
 5743 167a 29       		.uleb128 0x29
 5744 167b 69737200 		.ascii	"isr\000"
ARM GAS  C:\Users\DEVELO~1\AppData\Local\Temp\ccX8mAEU.s 			page 102


 5745 167f 7401     		.2byte	0x174
 5746 1681 DF000000 		.4byte	0xdf
 5747 1685 02       		.uleb128 0x2
 5748 1686 91       		.byte	0x91
 5749 1687 74       		.sleb128 -12
 5750 1688 2A       		.uleb128 0x2a
 5751 1689 FC0D0000 		.4byte	.LASF302
 5752 168d A8160000 		.4byte	0x16a8
 5753 1691 05       		.uleb128 0x5
 5754 1692 03       		.byte	0x3
 5755 1693 00000000 		.4byte	__func__.0
 5756 1697 00       		.byte	0
 5757 1698 11       		.uleb128 0x11
 5758 1699 79030000 		.4byte	0x379
 5759 169d A8160000 		.4byte	0x16a8
 5760 16a1 12       		.uleb128 0x12
 5761 16a2 39000000 		.4byte	0x39
 5762 16a6 09       		.byte	0x9
 5763 16a7 00       		.byte	0
 5764 16a8 0E       		.uleb128 0xe
 5765 16a9 98160000 		.4byte	0x1698
 5766 16ad 1E       		.uleb128 0x1e
 5767 16ae 17080000 		.4byte	.LASF301
 5768 16b2 5201     		.2byte	0x152
 5769 16b4 01       		.byte	0x1
 5770 16b5 00000000 		.4byte	.LFB440
 5771 16b9 40000000 		.4byte	.LFE440-.LFB440
 5772 16bd 01       		.uleb128 0x1
 5773 16be 9C       		.byte	0x9c
 5774 16bf E1160000 		.4byte	0x16e1
 5775 16c3 29       		.uleb128 0x29
 5776 16c4 69737200 		.ascii	"isr\000"
 5777 16c8 5301     		.2byte	0x153
 5778 16ca DF000000 		.4byte	0xdf
 5779 16ce 02       		.uleb128 0x2
 5780 16cf 91       		.byte	0x91
 5781 16d0 74       		.sleb128 -12
 5782 16d1 2A       		.uleb128 0x2a
 5783 16d2 FC0D0000 		.4byte	.LASF302
 5784 16d6 F1160000 		.4byte	0x16f1
 5785 16da 05       		.uleb128 0x5
 5786 16db 03       		.byte	0x3
 5787 16dc 00000000 		.4byte	__func__.1
 5788 16e0 00       		.byte	0
 5789 16e1 11       		.uleb128 0x11
 5790 16e2 79030000 		.4byte	0x379
 5791 16e6 F1160000 		.4byte	0x16f1
 5792 16ea 12       		.uleb128 0x12
 5793 16eb 39000000 		.4byte	0x39
 5794 16ef 08       		.byte	0x8
 5795 16f0 00       		.byte	0
 5796 16f1 0E       		.uleb128 0xe
 5797 16f2 E1160000 		.4byte	0x16e1
 5798 16f6 1A       		.uleb128 0x1a
 5799 16f7 76000000 		.4byte	.LASF304
 5800 16fb 06       		.byte	0x6
 5801 16fc 2801     		.2byte	0x128
ARM GAS  C:\Users\DEVELO~1\AppData\Local\Temp\ccX8mAEU.s 			page 103


 5802 16fe 0D       		.byte	0xd
 5803 16ff 00000000 		.4byte	.LFB439
 5804 1703 CE000000 		.4byte	.LFE439-.LFB439
 5805 1707 01       		.uleb128 0x1
 5806 1708 9C       		.byte	0x9c
 5807 1709 47170000 		.4byte	0x1747
 5808 170d 07       		.uleb128 0x7
 5809 170e 1F0C0000 		.4byte	.LASF291
 5810 1712 06       		.byte	0x6
 5811 1713 2801     		.2byte	0x128
 5812 1715 30       		.byte	0x30
 5813 1716 6C130000 		.4byte	0x136c
 5814 171a 02       		.uleb128 0x2
 5815 171b 91       		.byte	0x91
 5816 171c 6C       		.sleb128 -20
 5817 171d 1B       		.uleb128 0x1b
 5818 171e 69737200 		.ascii	"isr\000"
 5819 1722 06       		.byte	0x6
 5820 1723 2801     		.2byte	0x128
 5821 1725 3F       		.byte	0x3f
 5822 1726 DF000000 		.4byte	0xdf
 5823 172a 02       		.uleb128 0x2
 5824 172b 91       		.byte	0x91
 5825 172c 68       		.sleb128 -24
 5826 172d 3C       		.uleb128 0x3c
 5827 172e 12000000 		.4byte	.LBB38
 5828 1732 B4000000 		.4byte	.LBE38-.LBB38
 5829 1736 1F       		.uleb128 0x1f
 5830 1737 560B0000 		.4byte	.LASF303
 5831 173b 2D01     		.2byte	0x12d
 5832 173d 10       		.byte	0x10
 5833 173e 03130000 		.4byte	0x1303
 5834 1742 02       		.uleb128 0x2
 5835 1743 91       		.byte	0x91
 5836 1744 74       		.sleb128 -12
 5837 1745 00       		.byte	0
 5838 1746 00       		.byte	0
 5839 1747 2B       		.uleb128 0x2b
 5840 1748 630D0000 		.4byte	.LASF305
 5841 174c E8       		.byte	0xe8
 5842 174d 00000000 		.4byte	.LFB438
 5843 1751 34010000 		.4byte	.LFE438-.LFB438
 5844 1755 01       		.uleb128 0x1
 5845 1756 9C       		.byte	0x9c
 5846 1757 7A170000 		.4byte	0x177a
 5847 175b 0C       		.uleb128 0xc
 5848 175c 1F0C0000 		.4byte	.LASF291
 5849 1760 06       		.byte	0x6
 5850 1761 E8       		.byte	0xe8
 5851 1762 34       		.byte	0x34
 5852 1763 6C130000 		.4byte	0x136c
 5853 1767 02       		.uleb128 0x2
 5854 1768 91       		.byte	0x91
 5855 1769 74       		.sleb128 -12
 5856 176a 0C       		.uleb128 0xc
 5857 176b BA000000 		.4byte	.LASF39
 5858 176f 06       		.byte	0x6
ARM GAS  C:\Users\DEVELO~1\AppData\Local\Temp\ccX8mAEU.s 			page 104


 5859 1770 E8       		.byte	0xe8
 5860 1771 43       		.byte	0x43
 5861 1772 DF000000 		.4byte	0xdf
 5862 1776 02       		.uleb128 0x2
 5863 1777 91       		.byte	0x91
 5864 1778 70       		.sleb128 -16
 5865 1779 00       		.byte	0
 5866 177a 14       		.uleb128 0x14
 5867 177b A0000000 		.4byte	.LASF306
 5868 177f 06       		.byte	0x6
 5869 1780 D7       		.byte	0xd7
 5870 1781 0D       		.byte	0xd
 5871 1782 00000000 		.4byte	.LFB437
 5872 1786 48000000 		.4byte	.LFE437-.LFB437
 5873 178a 01       		.uleb128 0x1
 5874 178b 9C       		.byte	0x9c
 5875 178c A0170000 		.4byte	0x17a0
 5876 1790 0C       		.uleb128 0xc
 5877 1791 1F0C0000 		.4byte	.LASF291
 5878 1795 06       		.byte	0x6
 5879 1796 D7       		.byte	0xd7
 5880 1797 29       		.byte	0x29
 5881 1798 6C130000 		.4byte	0x136c
 5882 179c 02       		.uleb128 0x2
 5883 179d 91       		.byte	0x91
 5884 179e 74       		.sleb128 -12
 5885 179f 00       		.byte	0
 5886 17a0 14       		.uleb128 0x14
 5887 17a1 7F0D0000 		.4byte	.LASF307
 5888 17a5 06       		.byte	0x6
 5889 17a6 BA       		.byte	0xba
 5890 17a7 0D       		.byte	0xd
 5891 17a8 00000000 		.4byte	.LFB436
 5892 17ac 60000000 		.4byte	.LFE436-.LFB436
 5893 17b0 01       		.uleb128 0x1
 5894 17b1 9C       		.byte	0x9c
 5895 17b2 CF170000 		.4byte	0x17cf
 5896 17b6 0C       		.uleb128 0xc
 5897 17b7 1F0C0000 		.4byte	.LASF291
 5898 17bb 06       		.byte	0x6
 5899 17bc BA       		.byte	0xba
 5900 17bd 2A       		.byte	0x2a
 5901 17be 6C130000 		.4byte	0x136c
 5902 17c2 02       		.uleb128 0x2
 5903 17c3 91       		.byte	0x91
 5904 17c4 74       		.sleb128 -12
 5905 17c5 3D       		.uleb128 0x3d
 5906 17c6 FC0D0000 		.4byte	.LASF302
 5907 17ca DF170000 		.4byte	0x17df
 5908 17ce 00       		.byte	0
 5909 17cf 11       		.uleb128 0x11
 5910 17d0 79030000 		.4byte	0x379
 5911 17d4 DF170000 		.4byte	0x17df
 5912 17d8 12       		.uleb128 0x12
 5913 17d9 39000000 		.4byte	0x39
 5914 17dd 11       		.byte	0x11
 5915 17de 00       		.byte	0
ARM GAS  C:\Users\DEVELO~1\AppData\Local\Temp\ccX8mAEU.s 			page 105


 5916 17df 0E       		.uleb128 0xe
 5917 17e0 CF170000 		.4byte	0x17cf
 5918 17e4 14       		.uleb128 0x14
 5919 17e5 360D0000 		.4byte	.LASF308
 5920 17e9 06       		.byte	0x6
 5921 17ea A7       		.byte	0xa7
 5922 17eb 0D       		.byte	0xd
 5923 17ec 00000000 		.4byte	.LFB435
 5924 17f0 34000000 		.4byte	.LFE435-.LFB435
 5925 17f4 01       		.uleb128 0x1
 5926 17f5 9C       		.byte	0x9c
 5927 17f6 0A180000 		.4byte	0x180a
 5928 17fa 0C       		.uleb128 0xc
 5929 17fb 1F0C0000 		.4byte	.LASF291
 5930 17ff 06       		.byte	0x6
 5931 1800 A7       		.byte	0xa7
 5932 1801 2B       		.byte	0x2b
 5933 1802 6C130000 		.4byte	0x136c
 5934 1806 02       		.uleb128 0x2
 5935 1807 91       		.byte	0x91
 5936 1808 74       		.sleb128 -12
 5937 1809 00       		.byte	0
 5938 180a 14       		.uleb128 0x14
 5939 180b 38080000 		.4byte	.LASF309
 5940 180f 06       		.byte	0x6
 5941 1810 92       		.byte	0x92
 5942 1811 0D       		.byte	0xd
 5943 1812 00000000 		.4byte	.LFB434
 5944 1816 3C000000 		.4byte	.LFE434-.LFB434
 5945 181a 01       		.uleb128 0x1
 5946 181b 9C       		.byte	0x9c
 5947 181c 30180000 		.4byte	0x1830
 5948 1820 0C       		.uleb128 0xc
 5949 1821 1F0C0000 		.4byte	.LASF291
 5950 1825 06       		.byte	0x6
 5951 1826 92       		.byte	0x92
 5952 1827 2A       		.byte	0x2a
 5953 1828 6C130000 		.4byte	0x136c
 5954 182c 02       		.uleb128 0x2
 5955 182d 91       		.byte	0x91
 5956 182e 74       		.sleb128 -12
 5957 182f 00       		.byte	0
 5958 1830 14       		.uleb128 0x14
 5959 1831 0E0C0000 		.4byte	.LASF310
 5960 1835 06       		.byte	0x6
 5961 1836 83       		.byte	0x83
 5962 1837 0D       		.byte	0xd
 5963 1838 00000000 		.4byte	.LFB433
 5964 183c 1C000000 		.4byte	.LFE433-.LFB433
 5965 1840 01       		.uleb128 0x1
 5966 1841 9C       		.byte	0x9c
 5967 1842 56180000 		.4byte	0x1856
 5968 1846 0C       		.uleb128 0xc
 5969 1847 1F0C0000 		.4byte	.LASF291
 5970 184b 06       		.byte	0x6
 5971 184c 83       		.byte	0x83
 5972 184d 29       		.byte	0x29
ARM GAS  C:\Users\DEVELO~1\AppData\Local\Temp\ccX8mAEU.s 			page 106


 5973 184e 6C130000 		.4byte	0x136c
 5974 1852 02       		.uleb128 0x2
 5975 1853 91       		.byte	0x91
 5976 1854 74       		.sleb128 -12
 5977 1855 00       		.byte	0
 5978 1856 2B       		.uleb128 0x2b
 5979 1857 32030000 		.4byte	.LASF311
 5980 185b 73       		.byte	0x73
 5981 185c 00000000 		.4byte	.LFB432
 5982 1860 22000000 		.4byte	.LFE432-.LFB432
 5983 1864 01       		.uleb128 0x1
 5984 1865 9C       		.byte	0x9c
 5985 1866 7A180000 		.4byte	0x187a
 5986 186a 0C       		.uleb128 0xc
 5987 186b 1F0C0000 		.4byte	.LASF291
 5988 186f 06       		.byte	0x6
 5989 1870 73       		.byte	0x73
 5990 1871 28       		.byte	0x28
 5991 1872 6C130000 		.4byte	0x136c
 5992 1876 02       		.uleb128 0x2
 5993 1877 91       		.byte	0x91
 5994 1878 74       		.sleb128 -12
 5995 1879 00       		.byte	0
 5996 187a 1A       		.uleb128 0x1a
 5997 187b D80E0000 		.4byte	.LASF312
 5998 187f 05       		.byte	0x5
 5999 1880 9703     		.2byte	0x397
 6000 1882 16       		.byte	0x16
 6001 1883 00000000 		.4byte	.LFB414
 6002 1887 16000000 		.4byte	.LFE414-.LFB414
 6003 188b 01       		.uleb128 0x1
 6004 188c 9C       		.byte	0x9c
 6005 188d A2180000 		.4byte	0x18a2
 6006 1891 07       		.uleb128 0x7
 6007 1892 77080000 		.4byte	.LASF60
 6008 1896 05       		.byte	0x5
 6009 1897 9703     		.2byte	0x397
 6010 1899 2C       		.byte	0x2c
 6011 189a DF000000 		.4byte	0xdf
 6012 189e 02       		.uleb128 0x2
 6013 189f 91       		.byte	0x91
 6014 18a0 74       		.sleb128 -12
 6015 18a1 00       		.byte	0
 6016 18a2 17       		.uleb128 0x17
 6017 18a3 A10D0000 		.4byte	.LASF313
 6018 18a7 05       		.byte	0x5
 6019 18a8 7503     		.2byte	0x375
 6020 18aa 16       		.byte	0x16
 6021 18ab 00000000 		.4byte	.LFB413
 6022 18af 40000000 		.4byte	.LFE413-.LFB413
 6023 18b3 01       		.uleb128 0x1
 6024 18b4 9C       		.byte	0x9c
 6025 18b5 CA180000 		.4byte	0x18ca
 6026 18b9 07       		.uleb128 0x7
 6027 18ba 77080000 		.4byte	.LASF60
 6028 18be 05       		.byte	0x5
 6029 18bf 7503     		.2byte	0x375
ARM GAS  C:\Users\DEVELO~1\AppData\Local\Temp\ccX8mAEU.s 			page 107


 6030 18c1 2E       		.byte	0x2e
 6031 18c2 DF000000 		.4byte	0xdf
 6032 18c6 02       		.uleb128 0x2
 6033 18c7 91       		.byte	0x91
 6034 18c8 74       		.sleb128 -12
 6035 18c9 00       		.byte	0
 6036 18ca 17       		.uleb128 0x17
 6037 18cb 270A0000 		.4byte	.LASF314
 6038 18cf 05       		.byte	0x5
 6039 18d0 5503     		.2byte	0x355
 6040 18d2 16       		.byte	0x16
 6041 18d3 00000000 		.4byte	.LFB412
 6042 18d7 5C000000 		.4byte	.LFE412-.LFB412
 6043 18db 01       		.uleb128 0x1
 6044 18dc 9C       		.byte	0x9c
 6045 18dd 01190000 		.4byte	0x1901
 6046 18e1 07       		.uleb128 0x7
 6047 18e2 77080000 		.4byte	.LASF60
 6048 18e6 05       		.byte	0x5
 6049 18e7 5503     		.2byte	0x355
 6050 18e9 2D       		.byte	0x2d
 6051 18ea DF000000 		.4byte	0xdf
 6052 18ee 02       		.uleb128 0x2
 6053 18ef 91       		.byte	0x91
 6054 18f0 74       		.sleb128 -12
 6055 18f1 1B       		.uleb128 0x1b
 6056 18f2 6C7000   		.ascii	"lp\000"
 6057 18f5 05       		.byte	0x5
 6058 18f6 5503     		.2byte	0x355
 6059 18f8 38       		.byte	0x38
 6060 18f9 17100000 		.4byte	0x1017
 6061 18fd 02       		.uleb128 0x2
 6062 18fe 91       		.byte	0x91
 6063 18ff 73       		.sleb128 -13
 6064 1900 00       		.byte	0
 6065 1901 1A       		.uleb128 0x1a
 6066 1902 CB0E0000 		.4byte	.LASF315
 6067 1906 05       		.byte	0x5
 6068 1907 8C02     		.2byte	0x28c
 6069 1909 16       		.byte	0x16
 6070 190a 00000000 		.4byte	.LFB405
 6071 190e 16000000 		.4byte	.LFE405-.LFB405
 6072 1912 01       		.uleb128 0x1
 6073 1913 9C       		.byte	0x9c
 6074 1914 29190000 		.4byte	0x1929
 6075 1918 07       		.uleb128 0x7
 6076 1919 77080000 		.4byte	.LASF60
 6077 191d 05       		.byte	0x5
 6078 191e 8C02     		.2byte	0x28c
 6079 1920 2C       		.byte	0x2c
 6080 1921 DF000000 		.4byte	0xdf
 6081 1925 02       		.uleb128 0x2
 6082 1926 91       		.byte	0x91
 6083 1927 74       		.sleb128 -12
 6084 1928 00       		.byte	0
 6085 1929 17       		.uleb128 0x17
 6086 192a 410A0000 		.4byte	.LASF316
ARM GAS  C:\Users\DEVELO~1\AppData\Local\Temp\ccX8mAEU.s 			page 108


 6087 192e 05       		.byte	0x5
 6088 192f 6A02     		.2byte	0x26a
 6089 1931 16       		.byte	0x16
 6090 1932 00000000 		.4byte	.LFB404
 6091 1936 40000000 		.4byte	.LFE404-.LFB404
 6092 193a 01       		.uleb128 0x1
 6093 193b 9C       		.byte	0x9c
 6094 193c 51190000 		.4byte	0x1951
 6095 1940 07       		.uleb128 0x7
 6096 1941 77080000 		.4byte	.LASF60
 6097 1945 05       		.byte	0x5
 6098 1946 6A02     		.2byte	0x26a
 6099 1948 2E       		.byte	0x2e
 6100 1949 DF000000 		.4byte	0xdf
 6101 194d 02       		.uleb128 0x2
 6102 194e 91       		.byte	0x91
 6103 194f 74       		.sleb128 -12
 6104 1950 00       		.byte	0
 6105 1951 17       		.uleb128 0x17
 6106 1952 0F0A0000 		.4byte	.LASF317
 6107 1956 05       		.byte	0x5
 6108 1957 4A02     		.2byte	0x24a
 6109 1959 16       		.byte	0x16
 6110 195a 00000000 		.4byte	.LFB403
 6111 195e 5C000000 		.4byte	.LFE403-.LFB403
 6112 1962 01       		.uleb128 0x1
 6113 1963 9C       		.byte	0x9c
 6114 1964 88190000 		.4byte	0x1988
 6115 1968 07       		.uleb128 0x7
 6116 1969 77080000 		.4byte	.LASF60
 6117 196d 05       		.byte	0x5
 6118 196e 4A02     		.2byte	0x24a
 6119 1970 2D       		.byte	0x2d
 6120 1971 DF000000 		.4byte	0xdf
 6121 1975 02       		.uleb128 0x2
 6122 1976 91       		.byte	0x91
 6123 1977 74       		.sleb128 -12
 6124 1978 1B       		.uleb128 0x1b
 6125 1979 6C7000   		.ascii	"lp\000"
 6126 197c 05       		.byte	0x5
 6127 197d 4A02     		.2byte	0x24a
 6128 197f 38       		.byte	0x38
 6129 1980 17100000 		.4byte	0x1017
 6130 1984 02       		.uleb128 0x2
 6131 1985 91       		.byte	0x91
 6132 1986 73       		.sleb128 -13
 6133 1987 00       		.byte	0
 6134 1988 14       		.uleb128 0x14
 6135 1989 2D070000 		.4byte	.LASF318
 6136 198d 05       		.byte	0x5
 6137 198e 79       		.byte	0x79
 6138 198f 16       		.byte	0x16
 6139 1990 00000000 		.4byte	.LFB387
 6140 1994 40000000 		.4byte	.LFE387-.LFB387
 6141 1998 01       		.uleb128 0x1
 6142 1999 9C       		.byte	0x9c
 6143 199a AE190000 		.4byte	0x19ae
ARM GAS  C:\Users\DEVELO~1\AppData\Local\Temp\ccX8mAEU.s 			page 109


 6144 199e 0C       		.uleb128 0xc
 6145 199f 77080000 		.4byte	.LASF60
 6146 19a3 05       		.byte	0x5
 6147 19a4 79       		.byte	0x79
 6148 19a5 2E       		.byte	0x2e
 6149 19a6 DF000000 		.4byte	0xdf
 6150 19aa 02       		.uleb128 0x2
 6151 19ab 91       		.byte	0x91
 6152 19ac 74       		.sleb128 -12
 6153 19ad 00       		.byte	0
 6154 19ae 14       		.uleb128 0x14
 6155 19af 1E070000 		.4byte	.LASF319
 6156 19b3 05       		.byte	0x5
 6157 19b4 61       		.byte	0x61
 6158 19b5 16       		.byte	0x16
 6159 19b6 00000000 		.4byte	.LFB384
 6160 19ba 40000000 		.4byte	.LFE384-.LFB384
 6161 19be 01       		.uleb128 0x1
 6162 19bf 9C       		.byte	0x9c
 6163 19c0 D4190000 		.4byte	0x19d4
 6164 19c4 0C       		.uleb128 0xc
 6165 19c5 77080000 		.4byte	.LASF60
 6166 19c9 05       		.byte	0x5
 6167 19ca 61       		.byte	0x61
 6168 19cb 2E       		.byte	0x2e
 6169 19cc DF000000 		.4byte	0xdf
 6170 19d0 02       		.uleb128 0x2
 6171 19d1 91       		.byte	0x91
 6172 19d2 74       		.sleb128 -12
 6173 19d3 00       		.byte	0
 6174 19d4 1A       		.uleb128 0x1a
 6175 19d5 050E0000 		.4byte	.LASF320
 6176 19d9 04       		.byte	0x4
 6177 19da 4503     		.2byte	0x345
 6178 19dc 14       		.byte	0x14
 6179 19dd 00000000 		.4byte	.LFB367
 6180 19e1 1A000000 		.4byte	.LFE367-.LFB367
 6181 19e5 01       		.uleb128 0x1
 6182 19e6 9C       		.byte	0x9c
 6183 19e7 0C1A0000 		.4byte	0x1a0c
 6184 19eb 1B       		.uleb128 0x1b
 6185 19ec 74727000 		.ascii	"trp\000"
 6186 19f0 04       		.byte	0x4
 6187 19f1 4503     		.2byte	0x345
 6188 19f3 3A       		.byte	0x3a
 6189 19f4 EC0E0000 		.4byte	0xeec
 6190 19f8 02       		.uleb128 0x2
 6191 19f9 91       		.byte	0x91
 6192 19fa 74       		.sleb128 -12
 6193 19fb 1B       		.uleb128 0x1b
 6194 19fc 6D736700 		.ascii	"msg\000"
 6195 1a00 04       		.byte	0x4
 6196 1a01 4503     		.2byte	0x345
 6197 1a03 45       		.byte	0x45
 6198 1a04 61010000 		.4byte	0x161
 6199 1a08 02       		.uleb128 0x2
 6200 1a09 91       		.byte	0x91
ARM GAS  C:\Users\DEVELO~1\AppData\Local\Temp\ccX8mAEU.s 			page 110


 6201 1a0a 70       		.sleb128 -16
 6202 1a0b 00       		.byte	0
 6203 1a0c 1A       		.uleb128 0x1a
 6204 1a0d 1D010000 		.4byte	.LASF321
 6205 1a11 04       		.byte	0x4
 6206 1a12 8D02     		.2byte	0x28d
 6207 1a14 14       		.byte	0x14
 6208 1a15 00000000 		.4byte	.LFB356
 6209 1a19 16000000 		.4byte	.LFE356-.LFB356
 6210 1a1d 01       		.uleb128 0x1
 6211 1a1e 9C       		.byte	0x9c
 6212 1a1f 341A0000 		.4byte	0x1a34
 6213 1a23 07       		.uleb128 0x7
 6214 1a24 1C0E0000 		.4byte	.LASF322
 6215 1a28 04       		.byte	0x4
 6216 1a29 8D02     		.2byte	0x28d
 6217 1a2b 30       		.byte	0x30
 6218 1a2c 19010000 		.4byte	0x119
 6219 1a30 02       		.uleb128 0x2
 6220 1a31 91       		.byte	0x91
 6221 1a32 74       		.sleb128 -12
 6222 1a33 00       		.byte	0
 6223 1a34 2C       		.uleb128 0x2c
 6224 1a35 FD0A0000 		.4byte	.LASF323
 6225 1a39 5E02     		.2byte	0x25e
 6226 1a3b 00000000 		.4byte	.LFB353
 6227 1a3f 0C000000 		.4byte	.LFE353-.LFB353
 6228 1a43 01       		.uleb128 0x1
 6229 1a44 9C       		.byte	0x9c
 6230 1a45 2C       		.uleb128 0x2c
 6231 1a46 7C050000 		.4byte	.LASF324
 6232 1a4a 5302     		.2byte	0x253
 6233 1a4c 00000000 		.4byte	.LFB352
 6234 1a50 0C000000 		.4byte	.LFE352-.LFB352
 6235 1a54 01       		.uleb128 0x1
 6236 1a55 9C       		.byte	0x9c
 6237 1a56 17       		.uleb128 0x17
 6238 1a57 05050000 		.4byte	.LASF325
 6239 1a5b 01       		.byte	0x1
 6240 1a5c D901     		.2byte	0x1d9
 6241 1a5e 14       		.byte	0x14
 6242 1a5f 00000000 		.4byte	.LFB205
 6243 1a63 20000000 		.4byte	.LFE205-.LFB205
 6244 1a67 01       		.uleb128 0x1
 6245 1a68 9C       		.byte	0x9c
 6246 1a69 A91A0000 		.4byte	0x1aa9
 6247 1a6d 18       		.uleb128 0x18
 6248 1a6e FC1A0000 		.4byte	0x1afc
 6249 1a72 0A000000 		.4byte	.LBB32
 6250 1a76 0C000000 		.4byte	.LBE32-.LBB32
 6251 1a7a 01       		.byte	0x1
 6252 1a7b DD01     		.2byte	0x1dd
 6253 1a7d 18       		.uleb128 0x18
 6254 1a7e 0A1B0000 		.4byte	0x1b0a
 6255 1a82 0A000000 		.4byte	.LBB34
 6256 1a86 0A000000 		.4byte	.LBE34-.LBB34
 6257 1a8a 03       		.byte	0x3
ARM GAS  C:\Users\DEVELO~1\AppData\Local\Temp\ccX8mAEU.s 			page 111


 6258 1a8b 6B03     		.2byte	0x36b
 6259 1a8d 18       		.uleb128 0x18
 6260 1a8e 181B0000 		.4byte	0x1b18
 6261 1a92 0A000000 		.4byte	.LBB36
 6262 1a96 08000000 		.4byte	.LBE36-.LBB36
 6263 1a9a 03       		.byte	0x3
 6264 1a9b 5203     		.2byte	0x352
 6265 1a9d 2D       		.uleb128 0x2d
 6266 1a9e 221B0000 		.4byte	0x1b22
 6267 1aa2 02       		.uleb128 0x2
 6268 1aa3 91       		.byte	0x91
 6269 1aa4 74       		.sleb128 -12
 6270 1aa5 00       		.byte	0
 6271 1aa6 00       		.byte	0
 6272 1aa7 00       		.byte	0
 6273 1aa8 00       		.byte	0
 6274 1aa9 17       		.uleb128 0x17
 6275 1aaa 52020000 		.4byte	.LASF326
 6276 1aae 01       		.byte	0x1
 6277 1aaf C301     		.2byte	0x1c3
 6278 1ab1 14       		.byte	0x14
 6279 1ab2 00000000 		.4byte	.LFB204
 6280 1ab6 20000000 		.4byte	.LFE204-.LFB204
 6281 1aba 01       		.uleb128 0x1
 6282 1abb 9C       		.byte	0x9c
 6283 1abc FC1A0000 		.4byte	0x1afc
 6284 1ac0 18       		.uleb128 0x18
 6285 1ac1 031B0000 		.4byte	0x1b03
 6286 1ac5 0A000000 		.4byte	.LBB26
 6287 1ac9 0C000000 		.4byte	.LBE26-.LBB26
 6288 1acd 01       		.byte	0x1
 6289 1ace C501     		.2byte	0x1c5
 6290 1ad0 18       		.uleb128 0x18
 6291 1ad1 111B0000 		.4byte	0x1b11
 6292 1ad5 0A000000 		.4byte	.LBB28
 6293 1ad9 0A000000 		.4byte	.LBE28-.LBB28
 6294 1add 03       		.byte	0x3
 6295 1ade 6003     		.2byte	0x360
 6296 1ae0 18       		.uleb128 0x18
 6297 1ae1 181B0000 		.4byte	0x1b18
 6298 1ae5 0A000000 		.4byte	.LBB30
 6299 1ae9 08000000 		.4byte	.LBE30-.LBB30
 6300 1aed 03       		.byte	0x3
 6301 1aee 3F03     		.2byte	0x33f
 6302 1af0 2D       		.uleb128 0x2d
 6303 1af1 221B0000 		.4byte	0x1b22
 6304 1af5 02       		.uleb128 0x2
 6305 1af6 91       		.byte	0x91
 6306 1af7 74       		.sleb128 -12
 6307 1af8 00       		.byte	0
 6308 1af9 00       		.byte	0
 6309 1afa 00       		.byte	0
 6310 1afb 00       		.byte	0
 6311 1afc 20       		.uleb128 0x20
 6312 1afd 940C0000 		.4byte	.LASF327
 6313 1b01 6903     		.2byte	0x369
 6314 1b03 20       		.uleb128 0x20
ARM GAS  C:\Users\DEVELO~1\AppData\Local\Temp\ccX8mAEU.s 			page 112


 6315 1b04 E4010000 		.4byte	.LASF328
 6316 1b08 5E03     		.2byte	0x35e
 6317 1b0a 20       		.uleb128 0x20
 6318 1b0b F7010000 		.4byte	.LASF329
 6319 1b0f 4F03     		.2byte	0x34f
 6320 1b11 20       		.uleb128 0x20
 6321 1b12 AF010000 		.4byte	.LASF330
 6322 1b16 3703     		.2byte	0x337
 6323 1b18 3E       		.uleb128 0x3e
 6324 1b19 AE0A0000 		.4byte	.LASF338
 6325 1b1d 02       		.byte	0x2
 6326 1b1e EB01     		.2byte	0x1eb
 6327 1b20 1B       		.byte	0x1b
 6328 1b21 03       		.byte	0x3
 6329 1b22 3F       		.uleb128 0x3f
 6330 1b23 F4040000 		.4byte	.LASF339
 6331 1b27 02       		.byte	0x2
 6332 1b28 EB01     		.2byte	0x1eb
 6333 1b2a 32       		.byte	0x32
 6334 1b2b DF000000 		.4byte	0xdf
 6335 1b2f 00       		.byte	0
 6336 1b30 00       		.byte	0
 6337              		.section	.debug_abbrev,"",%progbits
 6338              	.Ldebug_abbrev0:
 6339 0000 01       		.uleb128 0x1
 6340 0001 0D       		.uleb128 0xd
 6341 0002 00       		.byte	0
 6342 0003 03       		.uleb128 0x3
 6343 0004 0E       		.uleb128 0xe
 6344 0005 3A       		.uleb128 0x3a
 6345 0006 0B       		.uleb128 0xb
 6346 0007 3B       		.uleb128 0x3b
 6347 0008 05       		.uleb128 0x5
 6348 0009 39       		.uleb128 0x39
 6349 000a 0B       		.uleb128 0xb
 6350 000b 49       		.uleb128 0x49
 6351 000c 13       		.uleb128 0x13
 6352 000d 38       		.uleb128 0x38
 6353 000e 0B       		.uleb128 0xb
 6354 000f 00       		.byte	0
 6355 0010 00       		.byte	0
 6356 0011 02       		.uleb128 0x2
 6357 0012 0D       		.uleb128 0xd
 6358 0013 00       		.byte	0
 6359 0014 03       		.uleb128 0x3
 6360 0015 0E       		.uleb128 0xe
 6361 0016 3A       		.uleb128 0x3a
 6362 0017 0B       		.uleb128 0xb
 6363 0018 3B       		.uleb128 0x3b
 6364 0019 0B       		.uleb128 0xb
 6365 001a 39       		.uleb128 0x39
 6366 001b 0B       		.uleb128 0xb
 6367 001c 49       		.uleb128 0x49
 6368 001d 13       		.uleb128 0x13
 6369 001e 38       		.uleb128 0x38
 6370 001f 0B       		.uleb128 0xb
 6371 0020 00       		.byte	0
ARM GAS  C:\Users\DEVELO~1\AppData\Local\Temp\ccX8mAEU.s 			page 113


 6372 0021 00       		.byte	0
 6373 0022 03       		.uleb128 0x3
 6374 0023 16       		.uleb128 0x16
 6375 0024 00       		.byte	0
 6376 0025 03       		.uleb128 0x3
 6377 0026 0E       		.uleb128 0xe
 6378 0027 3A       		.uleb128 0x3a
 6379 0028 0B       		.uleb128 0xb
 6380 0029 3B       		.uleb128 0x3b
 6381 002a 0B       		.uleb128 0xb
 6382 002b 39       		.uleb128 0x39
 6383 002c 0B       		.uleb128 0xb
 6384 002d 49       		.uleb128 0x49
 6385 002e 13       		.uleb128 0x13
 6386 002f 00       		.byte	0
 6387 0030 00       		.byte	0
 6388 0031 04       		.uleb128 0x4
 6389 0032 0F       		.uleb128 0xf
 6390 0033 00       		.byte	0
 6391 0034 0B       		.uleb128 0xb
 6392 0035 21       		.uleb128 0x21
 6393 0036 04       		.sleb128 4
 6394 0037 49       		.uleb128 0x49
 6395 0038 13       		.uleb128 0x13
 6396 0039 00       		.byte	0
 6397 003a 00       		.byte	0
 6398 003b 05       		.uleb128 0x5
 6399 003c 0D       		.uleb128 0xd
 6400 003d 00       		.byte	0
 6401 003e 03       		.uleb128 0x3
 6402 003f 08       		.uleb128 0x8
 6403 0040 3A       		.uleb128 0x3a
 6404 0041 0B       		.uleb128 0xb
 6405 0042 3B       		.uleb128 0x3b
 6406 0043 05       		.uleb128 0x5
 6407 0044 39       		.uleb128 0x39
 6408 0045 0B       		.uleb128 0xb
 6409 0046 49       		.uleb128 0x49
 6410 0047 13       		.uleb128 0x13
 6411 0048 38       		.uleb128 0x38
 6412 0049 0B       		.uleb128 0xb
 6413 004a 00       		.byte	0
 6414 004b 00       		.byte	0
 6415 004c 06       		.uleb128 0x6
 6416 004d 05       		.uleb128 0x5
 6417 004e 00       		.byte	0
 6418 004f 49       		.uleb128 0x49
 6419 0050 13       		.uleb128 0x13
 6420 0051 00       		.byte	0
 6421 0052 00       		.byte	0
 6422 0053 07       		.uleb128 0x7
 6423 0054 05       		.uleb128 0x5
 6424 0055 00       		.byte	0
 6425 0056 03       		.uleb128 0x3
 6426 0057 0E       		.uleb128 0xe
 6427 0058 3A       		.uleb128 0x3a
 6428 0059 0B       		.uleb128 0xb
ARM GAS  C:\Users\DEVELO~1\AppData\Local\Temp\ccX8mAEU.s 			page 114


 6429 005a 3B       		.uleb128 0x3b
 6430 005b 05       		.uleb128 0x5
 6431 005c 39       		.uleb128 0x39
 6432 005d 0B       		.uleb128 0xb
 6433 005e 49       		.uleb128 0x49
 6434 005f 13       		.uleb128 0x13
 6435 0060 02       		.uleb128 0x2
 6436 0061 18       		.uleb128 0x18
 6437 0062 00       		.byte	0
 6438 0063 00       		.byte	0
 6439 0064 08       		.uleb128 0x8
 6440 0065 0D       		.uleb128 0xd
 6441 0066 00       		.byte	0
 6442 0067 03       		.uleb128 0x3
 6443 0068 08       		.uleb128 0x8
 6444 0069 3A       		.uleb128 0x3a
 6445 006a 0B       		.uleb128 0xb
 6446 006b 3B       		.uleb128 0x3b
 6447 006c 0B       		.uleb128 0xb
 6448 006d 39       		.uleb128 0x39
 6449 006e 0B       		.uleb128 0xb
 6450 006f 49       		.uleb128 0x49
 6451 0070 13       		.uleb128 0x13
 6452 0071 38       		.uleb128 0x38
 6453 0072 0B       		.uleb128 0xb
 6454 0073 00       		.byte	0
 6455 0074 00       		.byte	0
 6456 0075 09       		.uleb128 0x9
 6457 0076 13       		.uleb128 0x13
 6458 0077 01       		.byte	0x1
 6459 0078 03       		.uleb128 0x3
 6460 0079 0E       		.uleb128 0xe
 6461 007a 0B       		.uleb128 0xb
 6462 007b 0B       		.uleb128 0xb
 6463 007c 3A       		.uleb128 0x3a
 6464 007d 0B       		.uleb128 0xb
 6465 007e 3B       		.uleb128 0x3b
 6466 007f 0B       		.uleb128 0xb
 6467 0080 39       		.uleb128 0x39
 6468 0081 0B       		.uleb128 0xb
 6469 0082 01       		.uleb128 0x1
 6470 0083 13       		.uleb128 0x13
 6471 0084 00       		.byte	0
 6472 0085 00       		.byte	0
 6473 0086 0A       		.uleb128 0xa
 6474 0087 16       		.uleb128 0x16
 6475 0088 00       		.byte	0
 6476 0089 03       		.uleb128 0x3
 6477 008a 0E       		.uleb128 0xe
 6478 008b 3A       		.uleb128 0x3a
 6479 008c 0B       		.uleb128 0xb
 6480 008d 3B       		.uleb128 0x3b
 6481 008e 05       		.uleb128 0x5
 6482 008f 39       		.uleb128 0x39
 6483 0090 0B       		.uleb128 0xb
 6484 0091 49       		.uleb128 0x49
 6485 0092 13       		.uleb128 0x13
ARM GAS  C:\Users\DEVELO~1\AppData\Local\Temp\ccX8mAEU.s 			page 115


 6486 0093 00       		.byte	0
 6487 0094 00       		.byte	0
 6488 0095 0B       		.uleb128 0xb
 6489 0096 24       		.uleb128 0x24
 6490 0097 00       		.byte	0
 6491 0098 0B       		.uleb128 0xb
 6492 0099 0B       		.uleb128 0xb
 6493 009a 3E       		.uleb128 0x3e
 6494 009b 0B       		.uleb128 0xb
 6495 009c 03       		.uleb128 0x3
 6496 009d 0E       		.uleb128 0xe
 6497 009e 00       		.byte	0
 6498 009f 00       		.byte	0
 6499 00a0 0C       		.uleb128 0xc
 6500 00a1 05       		.uleb128 0x5
 6501 00a2 00       		.byte	0
 6502 00a3 03       		.uleb128 0x3
 6503 00a4 0E       		.uleb128 0xe
 6504 00a5 3A       		.uleb128 0x3a
 6505 00a6 0B       		.uleb128 0xb
 6506 00a7 3B       		.uleb128 0x3b
 6507 00a8 0B       		.uleb128 0xb
 6508 00a9 39       		.uleb128 0x39
 6509 00aa 0B       		.uleb128 0xb
 6510 00ab 49       		.uleb128 0x49
 6511 00ac 13       		.uleb128 0x13
 6512 00ad 02       		.uleb128 0x2
 6513 00ae 18       		.uleb128 0x18
 6514 00af 00       		.byte	0
 6515 00b0 00       		.byte	0
 6516 00b1 0D       		.uleb128 0xd
 6517 00b2 0D       		.uleb128 0xd
 6518 00b3 00       		.byte	0
 6519 00b4 03       		.uleb128 0x3
 6520 00b5 0E       		.uleb128 0xe
 6521 00b6 3A       		.uleb128 0x3a
 6522 00b7 21       		.uleb128 0x21
 6523 00b8 12       		.sleb128 18
 6524 00b9 3B       		.uleb128 0x3b
 6525 00ba 05       		.uleb128 0x5
 6526 00bb 39       		.uleb128 0x39
 6527 00bc 0B       		.uleb128 0xb
 6528 00bd 49       		.uleb128 0x49
 6529 00be 13       		.uleb128 0x13
 6530 00bf 38       		.uleb128 0x38
 6531 00c0 05       		.uleb128 0x5
 6532 00c1 00       		.byte	0
 6533 00c2 00       		.byte	0
 6534 00c3 0E       		.uleb128 0xe
 6535 00c4 26       		.uleb128 0x26
 6536 00c5 00       		.byte	0
 6537 00c6 49       		.uleb128 0x49
 6538 00c7 13       		.uleb128 0x13
 6539 00c8 00       		.byte	0
 6540 00c9 00       		.byte	0
 6541 00ca 0F       		.uleb128 0xf
 6542 00cb 13       		.uleb128 0x13
ARM GAS  C:\Users\DEVELO~1\AppData\Local\Temp\ccX8mAEU.s 			page 116


 6543 00cc 01       		.byte	0x1
 6544 00cd 0B       		.uleb128 0xb
 6545 00ce 0B       		.uleb128 0xb
 6546 00cf 3A       		.uleb128 0x3a
 6547 00d0 0B       		.uleb128 0xb
 6548 00d1 3B       		.uleb128 0x3b
 6549 00d2 0B       		.uleb128 0xb
 6550 00d3 39       		.uleb128 0x39
 6551 00d4 0B       		.uleb128 0xb
 6552 00d5 01       		.uleb128 0x1
 6553 00d6 13       		.uleb128 0x13
 6554 00d7 00       		.byte	0
 6555 00d8 00       		.byte	0
 6556 00d9 10       		.uleb128 0x10
 6557 00da 0D       		.uleb128 0xd
 6558 00db 00       		.byte	0
 6559 00dc 03       		.uleb128 0x3
 6560 00dd 0E       		.uleb128 0xe
 6561 00de 3A       		.uleb128 0x3a
 6562 00df 0B       		.uleb128 0xb
 6563 00e0 3B       		.uleb128 0x3b
 6564 00e1 0B       		.uleb128 0xb
 6565 00e2 39       		.uleb128 0x39
 6566 00e3 0B       		.uleb128 0xb
 6567 00e4 49       		.uleb128 0x49
 6568 00e5 13       		.uleb128 0x13
 6569 00e6 00       		.byte	0
 6570 00e7 00       		.byte	0
 6571 00e8 11       		.uleb128 0x11
 6572 00e9 01       		.uleb128 0x1
 6573 00ea 01       		.byte	0x1
 6574 00eb 49       		.uleb128 0x49
 6575 00ec 13       		.uleb128 0x13
 6576 00ed 01       		.uleb128 0x1
 6577 00ee 13       		.uleb128 0x13
 6578 00ef 00       		.byte	0
 6579 00f0 00       		.byte	0
 6580 00f1 12       		.uleb128 0x12
 6581 00f2 21       		.uleb128 0x21
 6582 00f3 00       		.byte	0
 6583 00f4 49       		.uleb128 0x49
 6584 00f5 13       		.uleb128 0x13
 6585 00f6 2F       		.uleb128 0x2f
 6586 00f7 0B       		.uleb128 0xb
 6587 00f8 00       		.byte	0
 6588 00f9 00       		.byte	0
 6589 00fa 13       		.uleb128 0x13
 6590 00fb 2E       		.uleb128 0x2e
 6591 00fc 01       		.byte	0x1
 6592 00fd 3F       		.uleb128 0x3f
 6593 00fe 19       		.uleb128 0x19
 6594 00ff 03       		.uleb128 0x3
 6595 0100 0E       		.uleb128 0xe
 6596 0101 3A       		.uleb128 0x3a
 6597 0102 21       		.uleb128 0x21
 6598 0103 06       		.sleb128 6
 6599 0104 3B       		.uleb128 0x3b
ARM GAS  C:\Users\DEVELO~1\AppData\Local\Temp\ccX8mAEU.s 			page 117


 6600 0105 05       		.uleb128 0x5
 6601 0106 39       		.uleb128 0x39
 6602 0107 21       		.uleb128 0x21
 6603 0108 06       		.sleb128 6
 6604 0109 27       		.uleb128 0x27
 6605 010a 19       		.uleb128 0x19
 6606 010b 11       		.uleb128 0x11
 6607 010c 01       		.uleb128 0x1
 6608 010d 12       		.uleb128 0x12
 6609 010e 06       		.uleb128 0x6
 6610 010f 40       		.uleb128 0x40
 6611 0110 18       		.uleb128 0x18
 6612 0111 7A       		.uleb128 0x7a
 6613 0112 19       		.uleb128 0x19
 6614 0113 01       		.uleb128 0x1
 6615 0114 13       		.uleb128 0x13
 6616 0115 00       		.byte	0
 6617 0116 00       		.byte	0
 6618 0117 14       		.uleb128 0x14
 6619 0118 2E       		.uleb128 0x2e
 6620 0119 01       		.byte	0x1
 6621 011a 03       		.uleb128 0x3
 6622 011b 0E       		.uleb128 0xe
 6623 011c 3A       		.uleb128 0x3a
 6624 011d 0B       		.uleb128 0xb
 6625 011e 3B       		.uleb128 0x3b
 6626 011f 0B       		.uleb128 0xb
 6627 0120 39       		.uleb128 0x39
 6628 0121 0B       		.uleb128 0xb
 6629 0122 27       		.uleb128 0x27
 6630 0123 19       		.uleb128 0x19
 6631 0124 11       		.uleb128 0x11
 6632 0125 01       		.uleb128 0x1
 6633 0126 12       		.uleb128 0x12
 6634 0127 06       		.uleb128 0x6
 6635 0128 40       		.uleb128 0x40
 6636 0129 18       		.uleb128 0x18
 6637 012a 7A       		.uleb128 0x7a
 6638 012b 19       		.uleb128 0x19
 6639 012c 01       		.uleb128 0x1
 6640 012d 13       		.uleb128 0x13
 6641 012e 00       		.byte	0
 6642 012f 00       		.byte	0
 6643 0130 15       		.uleb128 0x15
 6644 0131 0D       		.uleb128 0xd
 6645 0132 00       		.byte	0
 6646 0133 03       		.uleb128 0x3
 6647 0134 0E       		.uleb128 0xe
 6648 0135 3A       		.uleb128 0x3a
 6649 0136 21       		.uleb128 0x21
 6650 0137 0C       		.sleb128 12
 6651 0138 3B       		.uleb128 0x3b
 6652 0139 05       		.uleb128 0x5
 6653 013a 39       		.uleb128 0x39
 6654 013b 0B       		.uleb128 0xb
 6655 013c 49       		.uleb128 0x49
 6656 013d 13       		.uleb128 0x13
ARM GAS  C:\Users\DEVELO~1\AppData\Local\Temp\ccX8mAEU.s 			page 118


 6657 013e 00       		.byte	0
 6658 013f 00       		.byte	0
 6659 0140 16       		.uleb128 0x16
 6660 0141 28       		.uleb128 0x28
 6661 0142 00       		.byte	0
 6662 0143 03       		.uleb128 0x3
 6663 0144 0E       		.uleb128 0xe
 6664 0145 1C       		.uleb128 0x1c
 6665 0146 0B       		.uleb128 0xb
 6666 0147 00       		.byte	0
 6667 0148 00       		.byte	0
 6668 0149 17       		.uleb128 0x17
 6669 014a 2E       		.uleb128 0x2e
 6670 014b 01       		.byte	0x1
 6671 014c 03       		.uleb128 0x3
 6672 014d 0E       		.uleb128 0xe
 6673 014e 3A       		.uleb128 0x3a
 6674 014f 0B       		.uleb128 0xb
 6675 0150 3B       		.uleb128 0x3b
 6676 0151 05       		.uleb128 0x5
 6677 0152 39       		.uleb128 0x39
 6678 0153 0B       		.uleb128 0xb
 6679 0154 27       		.uleb128 0x27
 6680 0155 19       		.uleb128 0x19
 6681 0156 11       		.uleb128 0x11
 6682 0157 01       		.uleb128 0x1
 6683 0158 12       		.uleb128 0x12
 6684 0159 06       		.uleb128 0x6
 6685 015a 40       		.uleb128 0x40
 6686 015b 18       		.uleb128 0x18
 6687 015c 7A       		.uleb128 0x7a
 6688 015d 19       		.uleb128 0x19
 6689 015e 01       		.uleb128 0x1
 6690 015f 13       		.uleb128 0x13
 6691 0160 00       		.byte	0
 6692 0161 00       		.byte	0
 6693 0162 18       		.uleb128 0x18
 6694 0163 1D       		.uleb128 0x1d
 6695 0164 01       		.byte	0x1
 6696 0165 31       		.uleb128 0x31
 6697 0166 13       		.uleb128 0x13
 6698 0167 11       		.uleb128 0x11
 6699 0168 01       		.uleb128 0x1
 6700 0169 12       		.uleb128 0x12
 6701 016a 06       		.uleb128 0x6
 6702 016b 58       		.uleb128 0x58
 6703 016c 0B       		.uleb128 0xb
 6704 016d 59       		.uleb128 0x59
 6705 016e 05       		.uleb128 0x5
 6706 016f 57       		.uleb128 0x57
 6707 0170 21       		.uleb128 0x21
 6708 0171 03       		.sleb128 3
 6709 0172 00       		.byte	0
 6710 0173 00       		.byte	0
 6711 0174 19       		.uleb128 0x19
 6712 0175 2E       		.uleb128 0x2e
 6713 0176 01       		.byte	0x1
ARM GAS  C:\Users\DEVELO~1\AppData\Local\Temp\ccX8mAEU.s 			page 119


 6714 0177 3F       		.uleb128 0x3f
 6715 0178 19       		.uleb128 0x19
 6716 0179 03       		.uleb128 0x3
 6717 017a 0E       		.uleb128 0xe
 6718 017b 3A       		.uleb128 0x3a
 6719 017c 0B       		.uleb128 0xb
 6720 017d 3B       		.uleb128 0x3b
 6721 017e 05       		.uleb128 0x5
 6722 017f 39       		.uleb128 0x39
 6723 0180 21       		.uleb128 0x21
 6724 0181 08       		.sleb128 8
 6725 0182 27       		.uleb128 0x27
 6726 0183 19       		.uleb128 0x19
 6727 0184 3C       		.uleb128 0x3c
 6728 0185 19       		.uleb128 0x19
 6729 0186 01       		.uleb128 0x1
 6730 0187 13       		.uleb128 0x13
 6731 0188 00       		.byte	0
 6732 0189 00       		.byte	0
 6733 018a 1A       		.uleb128 0x1a
 6734 018b 2E       		.uleb128 0x2e
 6735 018c 01       		.byte	0x1
 6736 018d 03       		.uleb128 0x3
 6737 018e 0E       		.uleb128 0xe
 6738 018f 3A       		.uleb128 0x3a
 6739 0190 0B       		.uleb128 0xb
 6740 0191 3B       		.uleb128 0x3b
 6741 0192 05       		.uleb128 0x5
 6742 0193 39       		.uleb128 0x39
 6743 0194 0B       		.uleb128 0xb
 6744 0195 27       		.uleb128 0x27
 6745 0196 19       		.uleb128 0x19
 6746 0197 11       		.uleb128 0x11
 6747 0198 01       		.uleb128 0x1
 6748 0199 12       		.uleb128 0x12
 6749 019a 06       		.uleb128 0x6
 6750 019b 40       		.uleb128 0x40
 6751 019c 18       		.uleb128 0x18
 6752 019d 7C       		.uleb128 0x7c
 6753 019e 19       		.uleb128 0x19
 6754 019f 01       		.uleb128 0x1
 6755 01a0 13       		.uleb128 0x13
 6756 01a1 00       		.byte	0
 6757 01a2 00       		.byte	0
 6758 01a3 1B       		.uleb128 0x1b
 6759 01a4 05       		.uleb128 0x5
 6760 01a5 00       		.byte	0
 6761 01a6 03       		.uleb128 0x3
 6762 01a7 08       		.uleb128 0x8
 6763 01a8 3A       		.uleb128 0x3a
 6764 01a9 0B       		.uleb128 0xb
 6765 01aa 3B       		.uleb128 0x3b
 6766 01ab 05       		.uleb128 0x5
 6767 01ac 39       		.uleb128 0x39
 6768 01ad 0B       		.uleb128 0xb
 6769 01ae 49       		.uleb128 0x49
 6770 01af 13       		.uleb128 0x13
ARM GAS  C:\Users\DEVELO~1\AppData\Local\Temp\ccX8mAEU.s 			page 120


 6771 01b0 02       		.uleb128 0x2
 6772 01b1 18       		.uleb128 0x18
 6773 01b2 00       		.byte	0
 6774 01b3 00       		.byte	0
 6775 01b4 1C       		.uleb128 0x1c
 6776 01b5 13       		.uleb128 0x13
 6777 01b6 01       		.byte	0x1
 6778 01b7 0B       		.uleb128 0xb
 6779 01b8 0B       		.uleb128 0xb
 6780 01b9 3A       		.uleb128 0x3a
 6781 01ba 0B       		.uleb128 0xb
 6782 01bb 3B       		.uleb128 0x3b
 6783 01bc 05       		.uleb128 0x5
 6784 01bd 39       		.uleb128 0x39
 6785 01be 21       		.uleb128 0x21
 6786 01bf 09       		.sleb128 9
 6787 01c0 01       		.uleb128 0x1
 6788 01c1 13       		.uleb128 0x13
 6789 01c2 00       		.byte	0
 6790 01c3 00       		.byte	0
 6791 01c4 1D       		.uleb128 0x1d
 6792 01c5 13       		.uleb128 0x13
 6793 01c6 01       		.byte	0x1
 6794 01c7 03       		.uleb128 0x3
 6795 01c8 0E       		.uleb128 0xe
 6796 01c9 0B       		.uleb128 0xb
 6797 01ca 0B       		.uleb128 0xb
 6798 01cb 3A       		.uleb128 0x3a
 6799 01cc 0B       		.uleb128 0xb
 6800 01cd 3B       		.uleb128 0x3b
 6801 01ce 05       		.uleb128 0x5
 6802 01cf 39       		.uleb128 0x39
 6803 01d0 0B       		.uleb128 0xb
 6804 01d1 01       		.uleb128 0x1
 6805 01d2 13       		.uleb128 0x13
 6806 01d3 00       		.byte	0
 6807 01d4 00       		.byte	0
 6808 01d5 1E       		.uleb128 0x1e
 6809 01d6 2E       		.uleb128 0x2e
 6810 01d7 01       		.byte	0x1
 6811 01d8 3F       		.uleb128 0x3f
 6812 01d9 19       		.uleb128 0x19
 6813 01da 03       		.uleb128 0x3
 6814 01db 0E       		.uleb128 0xe
 6815 01dc 3A       		.uleb128 0x3a
 6816 01dd 21       		.uleb128 0x21
 6817 01de 06       		.sleb128 6
 6818 01df 3B       		.uleb128 0x3b
 6819 01e0 05       		.uleb128 0x5
 6820 01e1 39       		.uleb128 0x39
 6821 01e2 0B       		.uleb128 0xb
 6822 01e3 27       		.uleb128 0x27
 6823 01e4 19       		.uleb128 0x19
 6824 01e5 11       		.uleb128 0x11
 6825 01e6 01       		.uleb128 0x1
 6826 01e7 12       		.uleb128 0x12
 6827 01e8 06       		.uleb128 0x6
ARM GAS  C:\Users\DEVELO~1\AppData\Local\Temp\ccX8mAEU.s 			page 121


 6828 01e9 40       		.uleb128 0x40
 6829 01ea 18       		.uleb128 0x18
 6830 01eb 7C       		.uleb128 0x7c
 6831 01ec 19       		.uleb128 0x19
 6832 01ed 01       		.uleb128 0x1
 6833 01ee 13       		.uleb128 0x13
 6834 01ef 00       		.byte	0
 6835 01f0 00       		.byte	0
 6836 01f1 1F       		.uleb128 0x1f
 6837 01f2 34       		.uleb128 0x34
 6838 01f3 00       		.byte	0
 6839 01f4 03       		.uleb128 0x3
 6840 01f5 0E       		.uleb128 0xe
 6841 01f6 3A       		.uleb128 0x3a
 6842 01f7 21       		.uleb128 0x21
 6843 01f8 06       		.sleb128 6
 6844 01f9 3B       		.uleb128 0x3b
 6845 01fa 05       		.uleb128 0x5
 6846 01fb 39       		.uleb128 0x39
 6847 01fc 0B       		.uleb128 0xb
 6848 01fd 49       		.uleb128 0x49
 6849 01fe 13       		.uleb128 0x13
 6850 01ff 02       		.uleb128 0x2
 6851 0200 18       		.uleb128 0x18
 6852 0201 00       		.byte	0
 6853 0202 00       		.byte	0
 6854 0203 20       		.uleb128 0x20
 6855 0204 2E       		.uleb128 0x2e
 6856 0205 00       		.byte	0
 6857 0206 03       		.uleb128 0x3
 6858 0207 0E       		.uleb128 0xe
 6859 0208 3A       		.uleb128 0x3a
 6860 0209 21       		.uleb128 0x21
 6861 020a 03       		.sleb128 3
 6862 020b 3B       		.uleb128 0x3b
 6863 020c 05       		.uleb128 0x5
 6864 020d 39       		.uleb128 0x39
 6865 020e 21       		.uleb128 0x21
 6866 020f 1B       		.sleb128 27
 6867 0210 27       		.uleb128 0x27
 6868 0211 19       		.uleb128 0x19
 6869 0212 20       		.uleb128 0x20
 6870 0213 21       		.uleb128 0x21
 6871 0214 03       		.sleb128 3
 6872 0215 00       		.byte	0
 6873 0216 00       		.byte	0
 6874 0217 21       		.uleb128 0x21
 6875 0218 35       		.uleb128 0x35
 6876 0219 00       		.byte	0
 6877 021a 49       		.uleb128 0x49
 6878 021b 13       		.uleb128 0x13
 6879 021c 00       		.byte	0
 6880 021d 00       		.byte	0
 6881 021e 22       		.uleb128 0x22
 6882 021f 17       		.uleb128 0x17
 6883 0220 01       		.byte	0x1
 6884 0221 0B       		.uleb128 0xb
ARM GAS  C:\Users\DEVELO~1\AppData\Local\Temp\ccX8mAEU.s 			page 122


 6885 0222 0B       		.uleb128 0xb
 6886 0223 3A       		.uleb128 0x3a
 6887 0224 0B       		.uleb128 0xb
 6888 0225 3B       		.uleb128 0x3b
 6889 0226 0B       		.uleb128 0xb
 6890 0227 39       		.uleb128 0x39
 6891 0228 21       		.uleb128 0x21
 6892 0229 03       		.sleb128 3
 6893 022a 01       		.uleb128 0x1
 6894 022b 13       		.uleb128 0x13
 6895 022c 00       		.byte	0
 6896 022d 00       		.byte	0
 6897 022e 23       		.uleb128 0x23
 6898 022f 0D       		.uleb128 0xd
 6899 0230 00       		.byte	0
 6900 0231 03       		.uleb128 0x3
 6901 0232 08       		.uleb128 0x8
 6902 0233 3A       		.uleb128 0x3a
 6903 0234 21       		.uleb128 0x21
 6904 0235 11       		.sleb128 17
 6905 0236 3B       		.uleb128 0x3b
 6906 0237 0B       		.uleb128 0xb
 6907 0238 39       		.uleb128 0x39
 6908 0239 21       		.uleb128 0x21
 6909 023a 07       		.sleb128 7
 6910 023b 49       		.uleb128 0x49
 6911 023c 13       		.uleb128 0x13
 6912 023d 00       		.byte	0
 6913 023e 00       		.byte	0
 6914 023f 24       		.uleb128 0x24
 6915 0240 0D       		.uleb128 0xd
 6916 0241 00       		.byte	0
 6917 0242 03       		.uleb128 0x3
 6918 0243 0E       		.uleb128 0xe
 6919 0244 3A       		.uleb128 0x3a
 6920 0245 21       		.uleb128 0x21
 6921 0246 11       		.sleb128 17
 6922 0247 3B       		.uleb128 0x3b
 6923 0248 0B       		.uleb128 0xb
 6924 0249 39       		.uleb128 0x39
 6925 024a 21       		.uleb128 0x21
 6926 024b 19       		.sleb128 25
 6927 024c 49       		.uleb128 0x49
 6928 024d 13       		.uleb128 0x13
 6929 024e 0D       		.uleb128 0xd
 6930 024f 0B       		.uleb128 0xb
 6931 0250 6B       		.uleb128 0x6b
 6932 0251 0B       		.uleb128 0xb
 6933 0252 00       		.byte	0
 6934 0253 00       		.byte	0
 6935 0254 25       		.uleb128 0x25
 6936 0255 15       		.uleb128 0x15
 6937 0256 01       		.byte	0x1
 6938 0257 27       		.uleb128 0x27
 6939 0258 19       		.uleb128 0x19
 6940 0259 01       		.uleb128 0x1
 6941 025a 13       		.uleb128 0x13
ARM GAS  C:\Users\DEVELO~1\AppData\Local\Temp\ccX8mAEU.s 			page 123


 6942 025b 00       		.byte	0
 6943 025c 00       		.byte	0
 6944 025d 26       		.uleb128 0x26
 6945 025e 2E       		.uleb128 0x2e
 6946 025f 01       		.byte	0x1
 6947 0260 3F       		.uleb128 0x3f
 6948 0261 19       		.uleb128 0x19
 6949 0262 03       		.uleb128 0x3
 6950 0263 0E       		.uleb128 0xe
 6951 0264 3A       		.uleb128 0x3a
 6952 0265 0B       		.uleb128 0xb
 6953 0266 3B       		.uleb128 0x3b
 6954 0267 0B       		.uleb128 0xb
 6955 0268 39       		.uleb128 0x39
 6956 0269 21       		.uleb128 0x21
 6957 026a 08       		.sleb128 8
 6958 026b 27       		.uleb128 0x27
 6959 026c 19       		.uleb128 0x19
 6960 026d 3C       		.uleb128 0x3c
 6961 026e 19       		.uleb128 0x19
 6962 026f 01       		.uleb128 0x1
 6963 0270 13       		.uleb128 0x13
 6964 0271 00       		.byte	0
 6965 0272 00       		.byte	0
 6966 0273 27       		.uleb128 0x27
 6967 0274 34       		.uleb128 0x34
 6968 0275 00       		.byte	0
 6969 0276 03       		.uleb128 0x3
 6970 0277 0E       		.uleb128 0xe
 6971 0278 3A       		.uleb128 0x3a
 6972 0279 21       		.uleb128 0x21
 6973 027a 17       		.sleb128 23
 6974 027b 3B       		.uleb128 0x3b
 6975 027c 05       		.uleb128 0x5
 6976 027d 39       		.uleb128 0x39
 6977 027e 21       		.uleb128 0x21
 6978 027f 12       		.sleb128 18
 6979 0280 49       		.uleb128 0x49
 6980 0281 13       		.uleb128 0x13
 6981 0282 3F       		.uleb128 0x3f
 6982 0283 19       		.uleb128 0x19
 6983 0284 3C       		.uleb128 0x3c
 6984 0285 19       		.uleb128 0x19
 6985 0286 00       		.byte	0
 6986 0287 00       		.byte	0
 6987 0288 28       		.uleb128 0x28
 6988 0289 34       		.uleb128 0x34
 6989 028a 00       		.byte	0
 6990 028b 47       		.uleb128 0x47
 6991 028c 13       		.uleb128 0x13
 6992 028d 3A       		.uleb128 0x3a
 6993 028e 21       		.uleb128 0x21
 6994 028f 06       		.sleb128 6
 6995 0290 3B       		.uleb128 0x3b
 6996 0291 0B       		.uleb128 0xb
 6997 0292 39       		.uleb128 0x39
 6998 0293 21       		.uleb128 0x21
ARM GAS  C:\Users\DEVELO~1\AppData\Local\Temp\ccX8mAEU.s 			page 124


 6999 0294 0B       		.sleb128 11
 7000 0295 02       		.uleb128 0x2
 7001 0296 18       		.uleb128 0x18
 7002 0297 00       		.byte	0
 7003 0298 00       		.byte	0
 7004 0299 29       		.uleb128 0x29
 7005 029a 34       		.uleb128 0x34
 7006 029b 00       		.byte	0
 7007 029c 03       		.uleb128 0x3
 7008 029d 08       		.uleb128 0x8
 7009 029e 3A       		.uleb128 0x3a
 7010 029f 21       		.uleb128 0x21
 7011 02a0 06       		.sleb128 6
 7012 02a1 3B       		.uleb128 0x3b
 7013 02a2 05       		.uleb128 0x5
 7014 02a3 39       		.uleb128 0x39
 7015 02a4 21       		.uleb128 0x21
 7016 02a5 0C       		.sleb128 12
 7017 02a6 49       		.uleb128 0x49
 7018 02a7 13       		.uleb128 0x13
 7019 02a8 02       		.uleb128 0x2
 7020 02a9 18       		.uleb128 0x18
 7021 02aa 00       		.byte	0
 7022 02ab 00       		.byte	0
 7023 02ac 2A       		.uleb128 0x2a
 7024 02ad 34       		.uleb128 0x34
 7025 02ae 00       		.byte	0
 7026 02af 03       		.uleb128 0x3
 7027 02b0 0E       		.uleb128 0xe
 7028 02b1 49       		.uleb128 0x49
 7029 02b2 13       		.uleb128 0x13
 7030 02b3 34       		.uleb128 0x34
 7031 02b4 19       		.uleb128 0x19
 7032 02b5 02       		.uleb128 0x2
 7033 02b6 18       		.uleb128 0x18
 7034 02b7 00       		.byte	0
 7035 02b8 00       		.byte	0
 7036 02b9 2B       		.uleb128 0x2b
 7037 02ba 2E       		.uleb128 0x2e
 7038 02bb 01       		.byte	0x1
 7039 02bc 03       		.uleb128 0x3
 7040 02bd 0E       		.uleb128 0xe
 7041 02be 3A       		.uleb128 0x3a
 7042 02bf 21       		.uleb128 0x21
 7043 02c0 06       		.sleb128 6
 7044 02c1 3B       		.uleb128 0x3b
 7045 02c2 0B       		.uleb128 0xb
 7046 02c3 39       		.uleb128 0x39
 7047 02c4 21       		.uleb128 0x21
 7048 02c5 0D       		.sleb128 13
 7049 02c6 27       		.uleb128 0x27
 7050 02c7 19       		.uleb128 0x19
 7051 02c8 11       		.uleb128 0x11
 7052 02c9 01       		.uleb128 0x1
 7053 02ca 12       		.uleb128 0x12
 7054 02cb 06       		.uleb128 0x6
 7055 02cc 40       		.uleb128 0x40
ARM GAS  C:\Users\DEVELO~1\AppData\Local\Temp\ccX8mAEU.s 			page 125


 7056 02cd 18       		.uleb128 0x18
 7057 02ce 7C       		.uleb128 0x7c
 7058 02cf 19       		.uleb128 0x19
 7059 02d0 01       		.uleb128 0x1
 7060 02d1 13       		.uleb128 0x13
 7061 02d2 00       		.byte	0
 7062 02d3 00       		.byte	0
 7063 02d4 2C       		.uleb128 0x2c
 7064 02d5 2E       		.uleb128 0x2e
 7065 02d6 00       		.byte	0
 7066 02d7 03       		.uleb128 0x3
 7067 02d8 0E       		.uleb128 0xe
 7068 02d9 3A       		.uleb128 0x3a
 7069 02da 21       		.uleb128 0x21
 7070 02db 04       		.sleb128 4
 7071 02dc 3B       		.uleb128 0x3b
 7072 02dd 05       		.uleb128 0x5
 7073 02de 39       		.uleb128 0x39
 7074 02df 21       		.uleb128 0x21
 7075 02e0 14       		.sleb128 20
 7076 02e1 27       		.uleb128 0x27
 7077 02e2 19       		.uleb128 0x19
 7078 02e3 11       		.uleb128 0x11
 7079 02e4 01       		.uleb128 0x1
 7080 02e5 12       		.uleb128 0x12
 7081 02e6 06       		.uleb128 0x6
 7082 02e7 40       		.uleb128 0x40
 7083 02e8 18       		.uleb128 0x18
 7084 02e9 7C       		.uleb128 0x7c
 7085 02ea 19       		.uleb128 0x19
 7086 02eb 00       		.byte	0
 7087 02ec 00       		.byte	0
 7088 02ed 2D       		.uleb128 0x2d
 7089 02ee 05       		.uleb128 0x5
 7090 02ef 00       		.byte	0
 7091 02f0 31       		.uleb128 0x31
 7092 02f1 13       		.uleb128 0x13
 7093 02f2 02       		.uleb128 0x2
 7094 02f3 18       		.uleb128 0x18
 7095 02f4 00       		.byte	0
 7096 02f5 00       		.byte	0
 7097 02f6 2E       		.uleb128 0x2e
 7098 02f7 11       		.uleb128 0x11
 7099 02f8 01       		.byte	0x1
 7100 02f9 25       		.uleb128 0x25
 7101 02fa 0E       		.uleb128 0xe
 7102 02fb 13       		.uleb128 0x13
 7103 02fc 0B       		.uleb128 0xb
 7104 02fd 03       		.uleb128 0x3
 7105 02fe 0E       		.uleb128 0xe
 7106 02ff 1B       		.uleb128 0x1b
 7107 0300 0E       		.uleb128 0xe
 7108 0301 55       		.uleb128 0x55
 7109 0302 17       		.uleb128 0x17
 7110 0303 11       		.uleb128 0x11
 7111 0304 01       		.uleb128 0x1
 7112 0305 10       		.uleb128 0x10
ARM GAS  C:\Users\DEVELO~1\AppData\Local\Temp\ccX8mAEU.s 			page 126


 7113 0306 17       		.uleb128 0x17
 7114 0307 00       		.byte	0
 7115 0308 00       		.byte	0
 7116 0309 2F       		.uleb128 0x2f
 7117 030a 24       		.uleb128 0x24
 7118 030b 00       		.byte	0
 7119 030c 0B       		.uleb128 0xb
 7120 030d 0B       		.uleb128 0xb
 7121 030e 3E       		.uleb128 0x3e
 7122 030f 0B       		.uleb128 0xb
 7123 0310 03       		.uleb128 0x3
 7124 0311 08       		.uleb128 0x8
 7125 0312 00       		.byte	0
 7126 0313 00       		.byte	0
 7127 0314 30       		.uleb128 0x30
 7128 0315 13       		.uleb128 0x13
 7129 0316 01       		.byte	0x1
 7130 0317 03       		.uleb128 0x3
 7131 0318 0E       		.uleb128 0xe
 7132 0319 0B       		.uleb128 0xb
 7133 031a 05       		.uleb128 0x5
 7134 031b 3A       		.uleb128 0x3a
 7135 031c 0B       		.uleb128 0xb
 7136 031d 3B       		.uleb128 0x3b
 7137 031e 05       		.uleb128 0x5
 7138 031f 39       		.uleb128 0x39
 7139 0320 0B       		.uleb128 0xb
 7140 0321 01       		.uleb128 0x1
 7141 0322 13       		.uleb128 0x13
 7142 0323 00       		.byte	0
 7143 0324 00       		.byte	0
 7144 0325 31       		.uleb128 0x31
 7145 0326 0F       		.uleb128 0xf
 7146 0327 00       		.byte	0
 7147 0328 0B       		.uleb128 0xb
 7148 0329 0B       		.uleb128 0xb
 7149 032a 00       		.byte	0
 7150 032b 00       		.byte	0
 7151 032c 32       		.uleb128 0x32
 7152 032d 13       		.uleb128 0x13
 7153 032e 01       		.byte	0x1
 7154 032f 0B       		.uleb128 0xb
 7155 0330 05       		.uleb128 0x5
 7156 0331 3A       		.uleb128 0x3a
 7157 0332 0B       		.uleb128 0xb
 7158 0333 3B       		.uleb128 0x3b
 7159 0334 0B       		.uleb128 0xb
 7160 0335 39       		.uleb128 0x39
 7161 0336 0B       		.uleb128 0xb
 7162 0337 01       		.uleb128 0x1
 7163 0338 13       		.uleb128 0x13
 7164 0339 00       		.byte	0
 7165 033a 00       		.byte	0
 7166 033b 33       		.uleb128 0x33
 7167 033c 13       		.uleb128 0x13
 7168 033d 01       		.byte	0x1
 7169 033e 0B       		.uleb128 0xb
ARM GAS  C:\Users\DEVELO~1\AppData\Local\Temp\ccX8mAEU.s 			page 127


 7170 033f 05       		.uleb128 0x5
 7171 0340 3A       		.uleb128 0x3a
 7172 0341 0B       		.uleb128 0xb
 7173 0342 3B       		.uleb128 0x3b
 7174 0343 05       		.uleb128 0x5
 7175 0344 39       		.uleb128 0x39
 7176 0345 0B       		.uleb128 0xb
 7177 0346 01       		.uleb128 0x1
 7178 0347 13       		.uleb128 0x13
 7179 0348 00       		.byte	0
 7180 0349 00       		.byte	0
 7181 034a 34       		.uleb128 0x34
 7182 034b 04       		.uleb128 0x4
 7183 034c 01       		.byte	0x1
 7184 034d 3E       		.uleb128 0x3e
 7185 034e 0B       		.uleb128 0xb
 7186 034f 0B       		.uleb128 0xb
 7187 0350 0B       		.uleb128 0xb
 7188 0351 49       		.uleb128 0x49
 7189 0352 13       		.uleb128 0x13
 7190 0353 3A       		.uleb128 0x3a
 7191 0354 0B       		.uleb128 0xb
 7192 0355 3B       		.uleb128 0x3b
 7193 0356 0B       		.uleb128 0xb
 7194 0357 39       		.uleb128 0x39
 7195 0358 0B       		.uleb128 0xb
 7196 0359 01       		.uleb128 0x1
 7197 035a 13       		.uleb128 0x13
 7198 035b 00       		.byte	0
 7199 035c 00       		.byte	0
 7200 035d 35       		.uleb128 0x35
 7201 035e 17       		.uleb128 0x17
 7202 035f 01       		.byte	0x1
 7203 0360 0B       		.uleb128 0xb
 7204 0361 0B       		.uleb128 0xb
 7205 0362 3A       		.uleb128 0x3a
 7206 0363 0B       		.uleb128 0xb
 7207 0364 3B       		.uleb128 0x3b
 7208 0365 05       		.uleb128 0x5
 7209 0366 39       		.uleb128 0x39
 7210 0367 0B       		.uleb128 0xb
 7211 0368 01       		.uleb128 0x1
 7212 0369 13       		.uleb128 0x13
 7213 036a 00       		.byte	0
 7214 036b 00       		.byte	0
 7215 036c 36       		.uleb128 0x36
 7216 036d 0D       		.uleb128 0xd
 7217 036e 00       		.byte	0
 7218 036f 03       		.uleb128 0x3
 7219 0370 08       		.uleb128 0x8
 7220 0371 3A       		.uleb128 0x3a
 7221 0372 0B       		.uleb128 0xb
 7222 0373 3B       		.uleb128 0x3b
 7223 0374 05       		.uleb128 0x5
 7224 0375 39       		.uleb128 0x39
 7225 0376 0B       		.uleb128 0xb
 7226 0377 49       		.uleb128 0x49
ARM GAS  C:\Users\DEVELO~1\AppData\Local\Temp\ccX8mAEU.s 			page 128


 7227 0378 13       		.uleb128 0x13
 7228 0379 00       		.byte	0
 7229 037a 00       		.byte	0
 7230 037b 37       		.uleb128 0x37
 7231 037c 34       		.uleb128 0x34
 7232 037d 00       		.byte	0
 7233 037e 03       		.uleb128 0x3
 7234 037f 0E       		.uleb128 0xe
 7235 0380 3A       		.uleb128 0x3a
 7236 0381 0B       		.uleb128 0xb
 7237 0382 3B       		.uleb128 0x3b
 7238 0383 0B       		.uleb128 0xb
 7239 0384 39       		.uleb128 0x39
 7240 0385 0B       		.uleb128 0xb
 7241 0386 49       		.uleb128 0x49
 7242 0387 13       		.uleb128 0x13
 7243 0388 02       		.uleb128 0x2
 7244 0389 18       		.uleb128 0x18
 7245 038a 00       		.byte	0
 7246 038b 00       		.byte	0
 7247 038c 38       		.uleb128 0x38
 7248 038d 2E       		.uleb128 0x2e
 7249 038e 01       		.byte	0x1
 7250 038f 3F       		.uleb128 0x3f
 7251 0390 19       		.uleb128 0x19
 7252 0391 03       		.uleb128 0x3
 7253 0392 0E       		.uleb128 0xe
 7254 0393 3A       		.uleb128 0x3a
 7255 0394 0B       		.uleb128 0xb
 7256 0395 3B       		.uleb128 0x3b
 7257 0396 05       		.uleb128 0x5
 7258 0397 39       		.uleb128 0x39
 7259 0398 0B       		.uleb128 0xb
 7260 0399 27       		.uleb128 0x27
 7261 039a 19       		.uleb128 0x19
 7262 039b 49       		.uleb128 0x49
 7263 039c 13       		.uleb128 0x13
 7264 039d 3C       		.uleb128 0x3c
 7265 039e 19       		.uleb128 0x19
 7266 039f 01       		.uleb128 0x1
 7267 03a0 13       		.uleb128 0x13
 7268 03a1 00       		.byte	0
 7269 03a2 00       		.byte	0
 7270 03a3 39       		.uleb128 0x39
 7271 03a4 2E       		.uleb128 0x2e
 7272 03a5 00       		.byte	0
 7273 03a6 3F       		.uleb128 0x3f
 7274 03a7 19       		.uleb128 0x19
 7275 03a8 03       		.uleb128 0x3
 7276 03a9 0E       		.uleb128 0xe
 7277 03aa 3A       		.uleb128 0x3a
 7278 03ab 0B       		.uleb128 0xb
 7279 03ac 3B       		.uleb128 0x3b
 7280 03ad 05       		.uleb128 0x5
 7281 03ae 39       		.uleb128 0x39
 7282 03af 0B       		.uleb128 0xb
 7283 03b0 27       		.uleb128 0x27
ARM GAS  C:\Users\DEVELO~1\AppData\Local\Temp\ccX8mAEU.s 			page 129


 7284 03b1 19       		.uleb128 0x19
 7285 03b2 3C       		.uleb128 0x3c
 7286 03b3 19       		.uleb128 0x19
 7287 03b4 00       		.byte	0
 7288 03b5 00       		.byte	0
 7289 03b6 3A       		.uleb128 0x3a
 7290 03b7 2E       		.uleb128 0x2e
 7291 03b8 01       		.byte	0x1
 7292 03b9 3F       		.uleb128 0x3f
 7293 03ba 19       		.uleb128 0x19
 7294 03bb 03       		.uleb128 0x3
 7295 03bc 0E       		.uleb128 0xe
 7296 03bd 3A       		.uleb128 0x3a
 7297 03be 0B       		.uleb128 0xb
 7298 03bf 3B       		.uleb128 0x3b
 7299 03c0 05       		.uleb128 0x5
 7300 03c1 39       		.uleb128 0x39
 7301 03c2 0B       		.uleb128 0xb
 7302 03c3 27       		.uleb128 0x27
 7303 03c4 19       		.uleb128 0x19
 7304 03c5 49       		.uleb128 0x49
 7305 03c6 13       		.uleb128 0x13
 7306 03c7 11       		.uleb128 0x11
 7307 03c8 01       		.uleb128 0x1
 7308 03c9 12       		.uleb128 0x12
 7309 03ca 06       		.uleb128 0x6
 7310 03cb 40       		.uleb128 0x40
 7311 03cc 18       		.uleb128 0x18
 7312 03cd 7C       		.uleb128 0x7c
 7313 03ce 19       		.uleb128 0x19
 7314 03cf 01       		.uleb128 0x1
 7315 03d0 13       		.uleb128 0x13
 7316 03d1 00       		.byte	0
 7317 03d2 00       		.byte	0
 7318 03d3 3B       		.uleb128 0x3b
 7319 03d4 2E       		.uleb128 0x2e
 7320 03d5 00       		.byte	0
 7321 03d6 3F       		.uleb128 0x3f
 7322 03d7 19       		.uleb128 0x19
 7323 03d8 03       		.uleb128 0x3
 7324 03d9 0E       		.uleb128 0xe
 7325 03da 3A       		.uleb128 0x3a
 7326 03db 0B       		.uleb128 0xb
 7327 03dc 3B       		.uleb128 0x3b
 7328 03dd 05       		.uleb128 0x5
 7329 03de 39       		.uleb128 0x39
 7330 03df 0B       		.uleb128 0xb
 7331 03e0 27       		.uleb128 0x27
 7332 03e1 19       		.uleb128 0x19
 7333 03e2 11       		.uleb128 0x11
 7334 03e3 01       		.uleb128 0x1
 7335 03e4 12       		.uleb128 0x12
 7336 03e5 06       		.uleb128 0x6
 7337 03e6 40       		.uleb128 0x40
 7338 03e7 18       		.uleb128 0x18
 7339 03e8 7C       		.uleb128 0x7c
 7340 03e9 19       		.uleb128 0x19
ARM GAS  C:\Users\DEVELO~1\AppData\Local\Temp\ccX8mAEU.s 			page 130


 7341 03ea 00       		.byte	0
 7342 03eb 00       		.byte	0
 7343 03ec 3C       		.uleb128 0x3c
 7344 03ed 0B       		.uleb128 0xb
 7345 03ee 01       		.byte	0x1
 7346 03ef 11       		.uleb128 0x11
 7347 03f0 01       		.uleb128 0x1
 7348 03f1 12       		.uleb128 0x12
 7349 03f2 06       		.uleb128 0x6
 7350 03f3 00       		.byte	0
 7351 03f4 00       		.byte	0
 7352 03f5 3D       		.uleb128 0x3d
 7353 03f6 34       		.uleb128 0x34
 7354 03f7 00       		.byte	0
 7355 03f8 03       		.uleb128 0x3
 7356 03f9 0E       		.uleb128 0xe
 7357 03fa 49       		.uleb128 0x49
 7358 03fb 13       		.uleb128 0x13
 7359 03fc 34       		.uleb128 0x34
 7360 03fd 19       		.uleb128 0x19
 7361 03fe 00       		.byte	0
 7362 03ff 00       		.byte	0
 7363 0400 3E       		.uleb128 0x3e
 7364 0401 2E       		.uleb128 0x2e
 7365 0402 01       		.byte	0x1
 7366 0403 03       		.uleb128 0x3
 7367 0404 0E       		.uleb128 0xe
 7368 0405 3A       		.uleb128 0x3a
 7369 0406 0B       		.uleb128 0xb
 7370 0407 3B       		.uleb128 0x3b
 7371 0408 05       		.uleb128 0x5
 7372 0409 39       		.uleb128 0x39
 7373 040a 0B       		.uleb128 0xb
 7374 040b 27       		.uleb128 0x27
 7375 040c 19       		.uleb128 0x19
 7376 040d 20       		.uleb128 0x20
 7377 040e 0B       		.uleb128 0xb
 7378 040f 00       		.byte	0
 7379 0410 00       		.byte	0
 7380 0411 3F       		.uleb128 0x3f
 7381 0412 05       		.uleb128 0x5
 7382 0413 00       		.byte	0
 7383 0414 03       		.uleb128 0x3
 7384 0415 0E       		.uleb128 0xe
 7385 0416 3A       		.uleb128 0x3a
 7386 0417 0B       		.uleb128 0xb
 7387 0418 3B       		.uleb128 0x3b
 7388 0419 05       		.uleb128 0x5
 7389 041a 39       		.uleb128 0x39
 7390 041b 0B       		.uleb128 0xb
 7391 041c 49       		.uleb128 0x49
 7392 041d 13       		.uleb128 0x13
 7393 041e 00       		.byte	0
 7394 041f 00       		.byte	0
 7395 0420 00       		.byte	0
 7396              		.section	.debug_aranges,"",%progbits
 7397 0000 2C010000 		.4byte	0x12c
ARM GAS  C:\Users\DEVELO~1\AppData\Local\Temp\ccX8mAEU.s 			page 131


 7398 0004 0200     		.2byte	0x2
 7399 0006 00000000 		.4byte	.Ldebug_info0
 7400 000a 04       		.byte	0x4
 7401 000b 00       		.byte	0
 7402 000c 0000     		.2byte	0
 7403 000e 0000     		.2byte	0
 7404 0010 00000000 		.4byte	.LFB204
 7405 0014 20000000 		.4byte	.LFE204-.LFB204
 7406 0018 00000000 		.4byte	.LFB205
 7407 001c 20000000 		.4byte	.LFE205-.LFB205
 7408 0020 00000000 		.4byte	.LFB352
 7409 0024 0C000000 		.4byte	.LFE352-.LFB352
 7410 0028 00000000 		.4byte	.LFB353
 7411 002c 0C000000 		.4byte	.LFE353-.LFB353
 7412 0030 00000000 		.4byte	.LFB356
 7413 0034 16000000 		.4byte	.LFE356-.LFB356
 7414 0038 00000000 		.4byte	.LFB367
 7415 003c 1A000000 		.4byte	.LFE367-.LFB367
 7416 0040 00000000 		.4byte	.LFB384
 7417 0044 40000000 		.4byte	.LFE384-.LFB384
 7418 0048 00000000 		.4byte	.LFB387
 7419 004c 40000000 		.4byte	.LFE387-.LFB387
 7420 0050 00000000 		.4byte	.LFB403
 7421 0054 5C000000 		.4byte	.LFE403-.LFB403
 7422 0058 00000000 		.4byte	.LFB404
 7423 005c 40000000 		.4byte	.LFE404-.LFB404
 7424 0060 00000000 		.4byte	.LFB405
 7425 0064 16000000 		.4byte	.LFE405-.LFB405
 7426 0068 00000000 		.4byte	.LFB412
 7427 006c 5C000000 		.4byte	.LFE412-.LFB412
 7428 0070 00000000 		.4byte	.LFB413
 7429 0074 40000000 		.4byte	.LFE413-.LFB413
 7430 0078 00000000 		.4byte	.LFB414
 7431 007c 16000000 		.4byte	.LFE414-.LFB414
 7432 0080 00000000 		.4byte	.LFB432
 7433 0084 22000000 		.4byte	.LFE432-.LFB432
 7434 0088 00000000 		.4byte	.LFB433
 7435 008c 1C000000 		.4byte	.LFE433-.LFB433
 7436 0090 00000000 		.4byte	.LFB434
 7437 0094 3C000000 		.4byte	.LFE434-.LFB434
 7438 0098 00000000 		.4byte	.LFB435
 7439 009c 34000000 		.4byte	.LFE435-.LFB435
 7440 00a0 00000000 		.4byte	.LFB436
 7441 00a4 60000000 		.4byte	.LFE436-.LFB436
 7442 00a8 00000000 		.4byte	.LFB437
 7443 00ac 48000000 		.4byte	.LFE437-.LFB437
 7444 00b0 00000000 		.4byte	.LFB438
 7445 00b4 34010000 		.4byte	.LFE438-.LFB438
 7446 00b8 00000000 		.4byte	.LFB439
 7447 00bc CE000000 		.4byte	.LFE439-.LFB439
 7448 00c0 00000000 		.4byte	.LFB440
 7449 00c4 40000000 		.4byte	.LFE440-.LFB440
 7450 00c8 00000000 		.4byte	.LFB441
 7451 00cc 40000000 		.4byte	.LFE441-.LFB441
 7452 00d0 00000000 		.4byte	.LFB442
 7453 00d4 AC000000 		.4byte	.LFE442-.LFB442
 7454 00d8 00000000 		.4byte	.LFB443
ARM GAS  C:\Users\DEVELO~1\AppData\Local\Temp\ccX8mAEU.s 			page 132


 7455 00dc 38010000 		.4byte	.LFE443-.LFB443
 7456 00e0 00000000 		.4byte	.LFB444
 7457 00e4 80000000 		.4byte	.LFE444-.LFB444
 7458 00e8 00000000 		.4byte	.LFB445
 7459 00ec 14020000 		.4byte	.LFE445-.LFB445
 7460 00f0 00000000 		.4byte	.LFB446
 7461 00f4 A0000000 		.4byte	.LFE446-.LFB446
 7462 00f8 00000000 		.4byte	.LFB447
 7463 00fc 22000000 		.4byte	.LFE447-.LFB447
 7464 0100 00000000 		.4byte	.LFB448
 7465 0104 22000000 		.4byte	.LFE448-.LFB448
 7466 0108 00000000 		.4byte	.LFB449
 7467 010c 22000000 		.4byte	.LFE449-.LFB449
 7468 0110 00000000 		.4byte	.LFB450
 7469 0114 22000000 		.4byte	.LFE450-.LFB450
 7470 0118 00000000 		.4byte	.LFB451
 7471 011c 22000000 		.4byte	.LFE451-.LFB451
 7472 0120 00000000 		.4byte	.LFB452
 7473 0124 22000000 		.4byte	.LFE452-.LFB452
 7474 0128 00000000 		.4byte	0
 7475 012c 00000000 		.4byte	0
 7476              		.section	.debug_rnglists,"",%progbits
 7477              	.Ldebug_ranges0:
 7478 0000 E2000000 		.4byte	.Ldebug_ranges3-.Ldebug_ranges2
 7479              	.Ldebug_ranges2:
 7480 0004 0500     		.2byte	0x5
 7481 0006 04       		.byte	0x4
 7482 0007 00       		.byte	0
 7483 0008 00000000 		.4byte	0
 7484              	.LLRL0:
 7485 000c 07       		.byte	0x7
 7486 000d 00000000 		.4byte	.LFB204
 7487 0011 20       		.uleb128 .LFE204-.LFB204
 7488 0012 07       		.byte	0x7
 7489 0013 00000000 		.4byte	.LFB205
 7490 0017 20       		.uleb128 .LFE205-.LFB205
 7491 0018 07       		.byte	0x7
 7492 0019 00000000 		.4byte	.LFB352
 7493 001d 0C       		.uleb128 .LFE352-.LFB352
 7494 001e 07       		.byte	0x7
 7495 001f 00000000 		.4byte	.LFB353
 7496 0023 0C       		.uleb128 .LFE353-.LFB353
 7497 0024 07       		.byte	0x7
 7498 0025 00000000 		.4byte	.LFB356
 7499 0029 16       		.uleb128 .LFE356-.LFB356
 7500 002a 07       		.byte	0x7
 7501 002b 00000000 		.4byte	.LFB367
 7502 002f 1A       		.uleb128 .LFE367-.LFB367
 7503 0030 07       		.byte	0x7
 7504 0031 00000000 		.4byte	.LFB384
 7505 0035 40       		.uleb128 .LFE384-.LFB384
 7506 0036 07       		.byte	0x7
 7507 0037 00000000 		.4byte	.LFB387
 7508 003b 40       		.uleb128 .LFE387-.LFB387
 7509 003c 07       		.byte	0x7
 7510 003d 00000000 		.4byte	.LFB403
 7511 0041 5C       		.uleb128 .LFE403-.LFB403
ARM GAS  C:\Users\DEVELO~1\AppData\Local\Temp\ccX8mAEU.s 			page 133


 7512 0042 07       		.byte	0x7
 7513 0043 00000000 		.4byte	.LFB404
 7514 0047 40       		.uleb128 .LFE404-.LFB404
 7515 0048 07       		.byte	0x7
 7516 0049 00000000 		.4byte	.LFB405
 7517 004d 16       		.uleb128 .LFE405-.LFB405
 7518 004e 07       		.byte	0x7
 7519 004f 00000000 		.4byte	.LFB412
 7520 0053 5C       		.uleb128 .LFE412-.LFB412
 7521 0054 07       		.byte	0x7
 7522 0055 00000000 		.4byte	.LFB413
 7523 0059 40       		.uleb128 .LFE413-.LFB413
 7524 005a 07       		.byte	0x7
 7525 005b 00000000 		.4byte	.LFB414
 7526 005f 16       		.uleb128 .LFE414-.LFB414
 7527 0060 07       		.byte	0x7
 7528 0061 00000000 		.4byte	.LFB432
 7529 0065 22       		.uleb128 .LFE432-.LFB432
 7530 0066 07       		.byte	0x7
 7531 0067 00000000 		.4byte	.LFB433
 7532 006b 1C       		.uleb128 .LFE433-.LFB433
 7533 006c 07       		.byte	0x7
 7534 006d 00000000 		.4byte	.LFB434
 7535 0071 3C       		.uleb128 .LFE434-.LFB434
 7536 0072 07       		.byte	0x7
 7537 0073 00000000 		.4byte	.LFB435
 7538 0077 34       		.uleb128 .LFE435-.LFB435
 7539 0078 07       		.byte	0x7
 7540 0079 00000000 		.4byte	.LFB436
 7541 007d 60       		.uleb128 .LFE436-.LFB436
 7542 007e 07       		.byte	0x7
 7543 007f 00000000 		.4byte	.LFB437
 7544 0083 48       		.uleb128 .LFE437-.LFB437
 7545 0084 07       		.byte	0x7
 7546 0085 00000000 		.4byte	.LFB438
 7547 0089 B402     		.uleb128 .LFE438-.LFB438
 7548 008b 07       		.byte	0x7
 7549 008c 00000000 		.4byte	.LFB439
 7550 0090 CE01     		.uleb128 .LFE439-.LFB439
 7551 0092 07       		.byte	0x7
 7552 0093 00000000 		.4byte	.LFB440
 7553 0097 40       		.uleb128 .LFE440-.LFB440
 7554 0098 07       		.byte	0x7
 7555 0099 00000000 		.4byte	.LFB441
 7556 009d 40       		.uleb128 .LFE441-.LFB441
 7557 009e 07       		.byte	0x7
 7558 009f 00000000 		.4byte	.LFB442
 7559 00a3 AC01     		.uleb128 .LFE442-.LFB442
 7560 00a5 07       		.byte	0x7
 7561 00a6 00000000 		.4byte	.LFB443
 7562 00aa B802     		.uleb128 .LFE443-.LFB443
 7563 00ac 07       		.byte	0x7
 7564 00ad 00000000 		.4byte	.LFB444
 7565 00b1 8001     		.uleb128 .LFE444-.LFB444
 7566 00b3 07       		.byte	0x7
 7567 00b4 00000000 		.4byte	.LFB445
 7568 00b8 9404     		.uleb128 .LFE445-.LFB445
ARM GAS  C:\Users\DEVELO~1\AppData\Local\Temp\ccX8mAEU.s 			page 134


 7569 00ba 07       		.byte	0x7
 7570 00bb 00000000 		.4byte	.LFB446
 7571 00bf A001     		.uleb128 .LFE446-.LFB446
 7572 00c1 07       		.byte	0x7
 7573 00c2 00000000 		.4byte	.LFB447
 7574 00c6 22       		.uleb128 .LFE447-.LFB447
 7575 00c7 07       		.byte	0x7
 7576 00c8 00000000 		.4byte	.LFB448
 7577 00cc 22       		.uleb128 .LFE448-.LFB448
 7578 00cd 07       		.byte	0x7
 7579 00ce 00000000 		.4byte	.LFB449
 7580 00d2 22       		.uleb128 .LFE449-.LFB449
 7581 00d3 07       		.byte	0x7
 7582 00d4 00000000 		.4byte	.LFB450
 7583 00d8 22       		.uleb128 .LFE450-.LFB450
 7584 00d9 07       		.byte	0x7
 7585 00da 00000000 		.4byte	.LFB451
 7586 00de 22       		.uleb128 .LFE451-.LFB451
 7587 00df 07       		.byte	0x7
 7588 00e0 00000000 		.4byte	.LFB452
 7589 00e4 22       		.uleb128 .LFE452-.LFB452
 7590 00e5 00       		.byte	0
 7591              	.Ldebug_ranges3:
 7592              		.section	.debug_line,"",%progbits
 7593              	.Ldebug_line0:
 7594 0000 320C0000 		.section	.debug_str,"MS",%progbits,1
 7594      0300E503 
 7594      00000201 
 7594      FB0E0D00 
 7594      01010101 
 7595              	.LASF167:
 7596 0000 41504231 		.ascii	"APB1HRSTR\000"
 7596      48525354 
 7596      5200
 7597              	.LASF11:
 7598 000a 6C6F6E67 		.ascii	"long int\000"
 7598      20696E74 
 7598      00
 7599              	.LASF104:
 7600 0013 53515234 		.ascii	"SQR4\000"
 7600      00
 7601              	.LASF293:
 7602 0018 61646353 		.ascii	"adcSTM32EnableTS\000"
 7602      544D3332 
 7602      456E6162 
 7602      6C655453 
 7602      00
 7603              	.LASF211:
 7604 0029 77746D74 		.ascii	"wtmtxp\000"
 7604      787000
 7605              	.LASF257:
 7606 0030 63697263 		.ascii	"circular\000"
 7606      756C6172 
 7606      00
 7607              	.LASF203:
 7608 0039 74687265 		.ascii	"thread_reference_t\000"
 7608      61645F72 
ARM GAS  C:\Users\DEVELO~1\AppData\Local\Temp\ccX8mAEU.s 			page 135


 7608      65666572 
 7608      656E6365 
 7608      5F7400
 7609              	.LASF297:
 7610 004c 6164635F 		.ascii	"adc_lld_start_conversion\000"
 7610      6C6C645F 
 7610      73746172 
 7610      745F636F 
 7610      6E766572 
 7611              	.LASF110:
 7612 0065 4F465232 		.ascii	"OFR2\000"
 7612      00
 7613              	.LASF200:
 7614 006a 63685F72 		.ascii	"ch_registry\000"
 7614      65676973 
 7614      74727900 
 7615              	.LASF304:
 7616 0076 6164635F 		.ascii	"adc_lld_serve_interrupt\000"
 7616      6C6C645F 
 7616      73657276 
 7616      655F696E 
 7616      74657272 
 7617              	.LASF189:
 7618 008e 41504232 		.ascii	"APB2LPENR\000"
 7618      4C50454E 
 7618      5200
 7619              	.LASF250:
 7620 0098 646D616D 		.ascii	"dmamode\000"
 7620      6F646500 
 7621              	.LASF306:
 7622 00a0 6164635F 		.ascii	"adc_lld_stop_adc\000"
 7622      6C6C645F 
 7622      73746F70 
 7622      5F616463 
 7622      00
 7623              	.LASF168:
 7624 00b1 41504232 		.ascii	"APB2RSTR\000"
 7624      52535452 
 7624      00
 7625              	.LASF39:
 7626 00ba 666C6167 		.ascii	"flags\000"
 7626      7300
 7627              	.LASF66:
 7628 00c0 73797374 		.ascii	"systime_t\000"
 7628      696D655F 
 7628      7400
 7629              	.LASF45:
 7630 00ca 7265616C 		.ascii	"realprio\000"
 7630      7072696F 
 7630      00
 7631              	.LASF90:
 7632 00d3 62756666 		.ascii	"buffer\000"
 7632      657200
 7633              	.LASF152:
 7634 00da 504C4C33 		.ascii	"PLL3FRACR\000"
 7634      46524143 
 7634      5200
ARM GAS  C:\Users\DEVELO~1\AppData\Local\Temp\ccX8mAEU.s 			page 136


 7635              	.LASF43:
 7636 00e4 6570656E 		.ascii	"epending\000"
 7636      64696E67 
 7636      00
 7637              	.LASF0:
 7638 00ed 756E7369 		.ascii	"unsigned int\000"
 7638      676E6564 
 7638      20696E74 
 7638      00
 7639              	.LASF187:
 7640 00fa 41504231 		.ascii	"APB1LLPENR\000"
 7640      4C4C5045 
 7640      4E5200
 7641              	.LASF70:
 7642 0105 6E657874 		.ascii	"next\000"
 7642      00
 7643              	.LASF19:
 7644 010a 75696E74 		.ascii	"uint32_t\000"
 7644      33325F74 
 7644      00
 7645              	.LASF88:
 7646 0113 73757370 		.ascii	"suspended\000"
 7646      656E6465 
 7646      6400
 7647              	.LASF321:
 7648 011d 6F73616C 		.ascii	"osalSysPolledDelayX\000"
 7648      53797350 
 7648      6F6C6C65 
 7648      6444656C 
 7648      61795800 
 7649              	.LASF53:
 7650 0131 636F7265 		.ascii	"core_id\000"
 7650      5F696400 
 7651              	.LASF144:
 7652 0139 44334346 		.ascii	"D3CFGR\000"
 7652      475200
 7653              	.LASF276:
 7654 0140 6164635F 		.ascii	"adc_ldd_dma_reference_t\000"
 7654      6C64645F 
 7654      646D615F 
 7654      72656665 
 7654      72656E63 
 7655              	.LASF160:
 7656 0158 42444352 		.ascii	"BDCR\000"
 7656      00
 7657              	.LASF295:
 7658 015d 61646353 		.ascii	"adcSTM32EnableVREF\000"
 7658      544D3332 
 7658      456E6162 
 7658      6C655652 
 7658      454600
 7659              	.LASF10:
 7660 0170 5F5F696E 		.ascii	"__int32_t\000"
 7660      7433325F 
 7660      7400
 7661              	.LASF40:
 7662 017a 72656673 		.ascii	"refs\000"
ARM GAS  C:\Users\DEVELO~1\AppData\Local\Temp\ccX8mAEU.s 			page 137


 7662      00
 7663              	.LASF73:
 7664 017f 70726576 		.ascii	"prev\000"
 7664      00
 7665              	.LASF265:
 7666 0184 68747231 		.ascii	"htr1\000"
 7666      00
 7667              	.LASF267:
 7668 0189 68747232 		.ascii	"htr2\000"
 7668      00
 7669              	.LASF269:
 7670 018e 68747233 		.ascii	"htr3\000"
 7670      00
 7671              	.LASF192:
 7672 0193 5243435F 		.ascii	"RCC_TypeDef\000"
 7672      54797065 
 7672      44656600 
 7673              	.LASF260:
 7674 019f 6572726F 		.ascii	"error_cb\000"
 7674      725F6362 
 7674      00
 7675              	.LASF80:
 7676 01a8 77746F62 		.ascii	"wtobjp\000"
 7676      6A7000
 7677              	.LASF330:
 7678 01af 706F7274 		.ascii	"port_lock\000"
 7678      5F6C6F63 
 7678      6B00
 7679              	.LASF51:
 7680 01b9 76746C69 		.ascii	"vtlist\000"
 7680      737400
 7681              	.LASF151:
 7682 01c0 504C4C33 		.ascii	"PLL3DIVR\000"
 7682      44495652 
 7682      00
 7683              	.LASF336:
 7684 01c9 6164635F 		.ascii	"adc_lld_start\000"
 7684      6C6C645F 
 7684      73746172 
 7684      7400
 7685              	.LASF194:
 7686 01d7 706F7274 		.ascii	"port_context\000"
 7686      5F636F6E 
 7686      74657874 
 7686      00
 7687              	.LASF328:
 7688 01e4 706F7274 		.ascii	"port_lock_from_isr\000"
 7688      5F6C6F63 
 7688      6B5F6672 
 7688      6F6D5F69 
 7688      737200
 7689              	.LASF329:
 7690 01f7 706F7274 		.ascii	"port_unlock\000"
 7690      5F756E6C 
 7690      6F636B00 
 7691              	.LASF289:
 7692 0203 61646353 		.ascii	"adcSTM32DisableVBAT\000"
ARM GAS  C:\Users\DEVELO~1\AppData\Local\Temp\ccX8mAEU.s 			page 138


 7692      544D3332 
 7692      44697361 
 7692      626C6556 
 7692      42415400 
 7693              	.LASF215:
 7694 0217 63685F72 		.ascii	"ch_ready_list\000"
 7694      65616479 
 7694      5F6C6973 
 7694      7400
 7695              	.LASF134:
 7696 0225 4E445452 		.ascii	"NDTR\000"
 7696      00
 7697              	.LASF198:
 7698 022a 6C617374 		.ascii	"laststamp\000"
 7698      7374616D 
 7698      7000
 7699              	.LASF212:
 7700 0234 65776D61 		.ascii	"ewmask\000"
 7700      736B00
 7701              	.LASF21:
 7702 023b 706F7274 		.ascii	"port_rtcnt_t\000"
 7702      5F727463 
 7702      6E745F74 
 7702      00
 7703              	.LASF184:
 7704 0248 41484232 		.ascii	"AHB2LPENR\000"
 7704      4C50454E 
 7704      5200
 7705              	.LASF326:
 7706 0252 63685379 		.ascii	"chSysLockFromISR\000"
 7706      734C6F63 
 7706      6B46726F 
 7706      6D495352 
 7706      00
 7707              	.LASF175:
 7708 0263 41484234 		.ascii	"AHB4ENR\000"
 7708      454E5200 
 7709              	.LASF300:
 7710 026b 56656374 		.ascii	"Vector23C\000"
 7710      6F723233 
 7710      4300
 7711              	.LASF281:
 7712 0275 646D6153 		.ascii	"dmaStreamFreeI\000"
 7712      74726561 
 7712      6D467265 
 7712      654900
 7713              	.LASF69:
 7714 0284 63685F6C 		.ascii	"ch_list\000"
 7714      69737400 
 7715              	.LASF97:
 7716 028c 4C545231 		.ascii	"LTR1\000"
 7716      00
 7717              	.LASF123:
 7718 0291 4C545232 		.ascii	"LTR2\000"
 7718      00
 7719              	.LASF125:
 7720 0296 4C545233 		.ascii	"LTR3\000"
ARM GAS  C:\Users\DEVELO~1\AppData\Local\Temp\ccX8mAEU.s 			page 139


 7720      00
 7721              	.LASF127:
 7722 029b 44494653 		.ascii	"DIFSEL\000"
 7722      454C00
 7723              	.LASF176:
 7724 02a2 41504233 		.ascii	"APB3ENR\000"
 7724      454E5200 
 7725              	.LASF62:
 7726 02aa 63685F73 		.ascii	"ch_system_debug\000"
 7726      79737465 
 7726      6D5F6465 
 7726      62756700 
 7727              	.LASF204:
 7728 02ba 6C697374 		.ascii	"list\000"
 7728      00
 7729              	.LASF287:
 7730 02bf 63685468 		.ascii	"chThdResumeI\000"
 7730      64526573 
 7730      756D6549 
 7730      00
 7731              	.LASF78:
 7732 02cc 63685F64 		.ascii	"ch_delta_list\000"
 7732      656C7461 
 7732      5F6C6973 
 7732      7400
 7733              	.LASF280:
 7734 02da 61646365 		.ascii	"adcerrorcallback_t\000"
 7734      72726F72 
 7734      63616C6C 
 7734      6261636B 
 7734      5F7400
 7735              	.LASF209:
 7736 02ed 73656E74 		.ascii	"sentmsg\000"
 7736      6D736700 
 7737              	.LASF30:
 7738 02f5 6576656E 		.ascii	"eventmask_t\000"
 7738      746D6173 
 7738      6B5F7400 
 7739              	.LASF228:
 7740 0301 69666372 		.ascii	"ifcr\000"
 7740      00
 7741              	.LASF87:
 7742 0306 74726163 		.ascii	"trace_event_t\000"
 7742      655F6576 
 7742      656E745F 
 7742      7400
 7743              	.LASF261:
 7744 0314 63666772 		.ascii	"cfgr\000"
 7744      00
 7745              	.LASF246:
 7746 0319 6D757465 		.ascii	"mutex\000"
 7746      7800
 7747              	.LASF229:
 7748 031f 73686966 		.ascii	"shift\000"
 7748      7400
 7749              	.LASF213:
 7750 0325 63685F73 		.ascii	"ch_semaphore\000"
ARM GAS  C:\Users\DEVELO~1\AppData\Local\Temp\ccX8mAEU.s 			page 140


 7750      656D6170 
 7750      686F7265 
 7750      00
 7751              	.LASF311:
 7752 0332 6164635F 		.ascii	"adc_lld_vreg_on\000"
 7752      6C6C645F 
 7752      76726567 
 7752      5F6F6E00 
 7753              	.LASF28:
 7754 0342 74707269 		.ascii	"tprio_t\000"
 7754      6F5F7400 
 7755              	.LASF157:
 7756 034a 43494552 		.ascii	"CIER\000"
 7756      00
 7757              	.LASF223:
 7758 034f 6F735F69 		.ascii	"os_instance_config_t\000"
 7758      6E737461 
 7758      6E63655F 
 7758      636F6E66 
 7758      69675F74 
 7759              	.LASF259:
 7760 0364 656E645F 		.ascii	"end_cb\000"
 7760      636200
 7761              	.LASF82:
 7762 036b 68616C74 		.ascii	"halt\000"
 7762      00
 7763              	.LASF15:
 7764 0370 6C6F6E67 		.ascii	"long long unsigned int\000"
 7764      206C6F6E 
 7764      6720756E 
 7764      7369676E 
 7764      65642069 
 7765              	.LASF113:
 7766 0387 52455345 		.ascii	"RESERVED6\000"
 7766      52564544 
 7766      3600
 7767              	.LASF96:
 7768 0391 50435345 		.ascii	"PCSEL\000"
 7768      4C00
 7769              	.LASF57:
 7770 0397 74726163 		.ascii	"trace_buffer\000"
 7770      655F6275 
 7770      66666572 
 7770      00
 7771              	.LASF231:
 7772 03a4 76656374 		.ascii	"vector\000"
 7772      6F7200
 7773              	.LASF205:
 7774 03ab 70717565 		.ascii	"pqueue\000"
 7774      756500
 7775              	.LASF8:
 7776 03b2 5F5F7569 		.ascii	"__uint16_t\000"
 7776      6E743136 
 7776      5F7400
 7777              	.LASF31:
 7778 03bd 636E745F 		.ascii	"cnt_t\000"
 7778      7400
ARM GAS  C:\Users\DEVELO~1\AppData\Local\Temp\ccX8mAEU.s 			page 141


 7779              	.LASF331:
 7780 03c3 474E5520 		.ascii	"GNU C17 11.3.1 20220712 -mcpu=cortex-m7 -mthumb -mf"
 7780      43313720 
 7780      31312E33 
 7780      2E312032 
 7780      30323230 
 7781 03f6 6C6F6174 		.ascii	"loat-abi=soft -march=armv7e-m -ggdb -O0 -ffunction-"
 7781      2D616269 
 7781      3D736F66 
 7781      74202D6D 
 7781      61726368 
 7782 0429 73656374 		.ascii	"sections -fdata-sections -fno-common\000"
 7782      696F6E73 
 7782      202D6664 
 7782      6174612D 
 7782      73656374 
 7783              	.LASF86:
 7784 044e 74696D65 		.ascii	"time\000"
 7784      00
 7785              	.LASF35:
 7786 0453 6F776E65 		.ascii	"owner\000"
 7786      7200
 7787              	.LASF161:
 7788 0459 41484233 		.ascii	"AHB3RSTR\000"
 7788      52535452 
 7788      00
 7789              	.LASF220:
 7790 0462 6D61696E 		.ascii	"mainthread_end\000"
 7790      74687265 
 7790      61645F65 
 7790      6E6400
 7791              	.LASF44:
 7792 0471 6D74786C 		.ascii	"mtxlist\000"
 7792      69737400 
 7793              	.LASF195:
 7794 0479 63685F76 		.ascii	"ch_virtual_timers_list\000"
 7794      69727475 
 7794      616C5F74 
 7794      696D6572 
 7794      735F6C69 
 7795              	.LASF333:
 7796 0490 433A5C50 		.ascii	"C:\\PROJET\\ChibiOS project\\ChibiOS_21.11.4\\demos"
 7796      524F4A45 
 7796      545C4368 
 7796      6962694F 
 7796      53207072 
 7797 04bf 5C53544D 		.ascii	"\\STM32\\RT-STM32H743ZI_REV_XY-NUCLEO144_Quartz8M\000"
 7797      33325C52 
 7797      542D5354 
 7797      4D333248 
 7797      3734335A 
 7798              	.LASF54:
 7799 04ef 72666375 		.ascii	"rfcu\000"
 7799      00
 7800              	.LASF339:
 7801 04f4 62617365 		.ascii	"basePri\000"
 7801      50726900 
ARM GAS  C:\Users\DEVELO~1\AppData\Local\Temp\ccX8mAEU.s 			page 142


 7802              	.LASF33:
 7803 04fc 74687265 		.ascii	"thread_t\000"
 7803      61645F74 
 7803      00
 7804              	.LASF325:
 7805 0505 63685379 		.ascii	"chSysUnlockFromISR\000"
 7805      73556E6C 
 7805      6F636B46 
 7805      726F6D49 
 7805      535200
 7806              	.LASF332:
 7807 0518 2E2E2F2E 		.ascii	"../../../os/hal/ports/STM32/LLD/ADCv4/hal_adc_lld.c"
 7807      2E2F2E2E 
 7807      2F6F732F 
 7807      68616C2F 
 7807      706F7274 
 7808 054b 00       		.ascii	"\000"
 7809              	.LASF131:
 7810 054c 52455345 		.ascii	"RESERVED\000"
 7810      52564544 
 7810      00
 7811              	.LASF83:
 7812 0555 75736572 		.ascii	"user\000"
 7812      00
 7813              	.LASF190:
 7814 055a 41504234 		.ascii	"APB4LPENR\000"
 7814      4C50454E 
 7814      5200
 7815              	.LASF4:
 7816 0564 73697A65 		.ascii	"size_t\000"
 7816      5F7400
 7817              	.LASF206:
 7818 056b 7264796D 		.ascii	"rdymsg\000"
 7818      736700
 7819              	.LASF240:
 7820 0572 41444344 		.ascii	"ADCDriver\000"
 7820      72697665 
 7820      7200
 7821              	.LASF324:
 7822 057c 6F73616C 		.ascii	"osalSysLockFromISR\000"
 7822      5379734C 
 7822      6F636B46 
 7822      726F6D49 
 7822      535200
 7823              	.LASF74:
 7824 058f 63685F70 		.ascii	"ch_priority_queue_t\000"
 7824      72696F72 
 7824      6974795F 
 7824      71756575 
 7824      655F7400 
 7825              	.LASF109:
 7826 05a3 4F465231 		.ascii	"OFR1\000"
 7826      00
 7827              	.LASF225:
 7828 05a8 5F426F6F 		.ascii	"_Bool\000"
 7828      6C00
 7829              	.LASF111:
ARM GAS  C:\Users\DEVELO~1\AppData\Local\Temp\ccX8mAEU.s 			page 143


 7830 05ae 4F465233 		.ascii	"OFR3\000"
 7830      00
 7831              	.LASF112:
 7832 05b3 4F465234 		.ascii	"OFR4\000"
 7832      00
 7833              	.LASF169:
 7834 05b8 41504234 		.ascii	"APB4RSTR\000"
 7834      52535452 
 7834      00
 7835              	.LASF129:
 7836 05c1 43414C46 		.ascii	"CALFACT2\000"
 7836      41435432 
 7836      00
 7837              	.LASF59:
 7838 05ca 63685F72 		.ascii	"ch_rfcu\000"
 7838      66637500 
 7839              	.LASF214:
 7840 05d2 63685F6D 		.ascii	"ch_mutex\000"
 7840      75746578 
 7840      00
 7841              	.LASF135:
 7842 05db 4D304152 		.ascii	"M0AR\000"
 7842      00
 7843              	.LASF49:
 7844 05e0 63685F6F 		.ascii	"ch_os_instance\000"
 7844      735F696E 
 7844      7374616E 
 7844      636500
 7845              	.LASF172:
 7846 05ef 41484233 		.ascii	"AHB3ENR\000"
 7846      454E5200 
 7847              	.LASF263:
 7848 05f7 70637365 		.ascii	"pcsel\000"
 7848      6C00
 7849              	.LASF237:
 7850 05fd 4144435F 		.ascii	"ADC_COMPLETE\000"
 7850      434F4D50 
 7850      4C455445 
 7850      00
 7851              	.LASF154:
 7852 060a 44324343 		.ascii	"D2CCIP1R\000"
 7852      49503152 
 7852      00
 7853              	.LASF238:
 7854 0613 4144435F 		.ascii	"ADC_ERROR\000"
 7854      4552524F 
 7854      5200
 7855              	.LASF226:
 7856 061d 73746D33 		.ascii	"stm32_dmaisr_t\000"
 7856      325F646D 
 7856      61697372 
 7856      5F7400
 7857              	.LASF241:
 7858 062c 68616C5F 		.ascii	"hal_adc_driver\000"
 7858      6164635F 
 7858      64726976 
 7858      657200
ARM GAS  C:\Users\DEVELO~1\AppData\Local\Temp\ccX8mAEU.s 			page 144


 7859              	.LASF71:
 7860 063b 63685F71 		.ascii	"ch_queue_t\000"
 7860      75657565 
 7860      5F7400
 7861              	.LASF222:
 7862 0646 69646C65 		.ascii	"idlethread_end\000"
 7862      74687265 
 7862      61645F65 
 7862      6E6400
 7863              	.LASF298:
 7864 0655 64656661 		.ascii	"default_config\000"
 7864      756C745F 
 7864      636F6E66 
 7864      696700
 7865              	.LASF76:
 7866 0664 7072696F 		.ascii	"prio\000"
 7866      00
 7867              	.LASF294:
 7868 0669 61646353 		.ascii	"adcSTM32DisableVREF\000"
 7868      544D3332 
 7868      44697361 
 7868      626C6556 
 7868      52454600 
 7869              	.LASF64:
 7870 067d 63686172 		.ascii	"char\000"
 7870      00
 7871              	.LASF77:
 7872 0682 63685F64 		.ascii	"ch_delta_list_t\000"
 7872      656C7461 
 7872      5F6C6973 
 7872      745F7400 
 7873              	.LASF58:
 7874 0692 72666375 		.ascii	"rfcu_mask_t\000"
 7874      5F6D6173 
 7874      6B5F7400 
 7875              	.LASF264:
 7876 069e 6C747231 		.ascii	"ltr1\000"
 7876      00
 7877              	.LASF266:
 7878 06a3 6C747232 		.ascii	"ltr2\000"
 7878      00
 7879              	.LASF268:
 7880 06a8 6C747233 		.ascii	"ltr3\000"
 7880      00
 7881              	.LASF185:
 7882 06ad 41484234 		.ascii	"AHB4LPENR\000"
 7882      4C50454E 
 7882      5200
 7883              	.LASF150:
 7884 06b7 504C4C32 		.ascii	"PLL2FRACR\000"
 7884      46524143 
 7884      5200
 7885              	.LASF37:
 7886 06c1 77616261 		.ascii	"wabase\000"
 7886      736500
 7887              	.LASF299:
 7888 06c8 6164635F 		.ascii	"adc_lld_stop\000"
ARM GAS  C:\Users\DEVELO~1\AppData\Local\Temp\ccX8mAEU.s 			page 145


 7888      6C6C645F 
 7888      73746F70 
 7888      00
 7889              	.LASF26:
 7890 06d5 74737461 		.ascii	"tstate_t\000"
 7890      74655F74 
 7890      00
 7891              	.LASF143:
 7892 06de 44324346 		.ascii	"D2CFGR\000"
 7892      475200
 7893              	.LASF219:
 7894 06e5 6D61696E 		.ascii	"mainthread_base\000"
 7894      74687265 
 7894      61645F62 
 7894      61736500 
 7895              	.LASF239:
 7896 06f5 61646373 		.ascii	"adcstate_t\000"
 7896      74617465 
 7896      5F7400
 7897              	.LASF232:
 7898 0700 73746D33 		.ascii	"stm32_dma_stream_t\000"
 7898      325F646D 
 7898      615F7374 
 7898      7265616D 
 7898      5F7400
 7899              	.LASF14:
 7900 0713 5F5F7569 		.ascii	"__uint64_t\000"
 7900      6E743634 
 7900      5F7400
 7901              	.LASF319:
 7902 071e 5F5F7263 		.ascii	"__rccResetAHB1\000"
 7902      63526573 
 7902      65744148 
 7902      423100
 7903              	.LASF318:
 7904 072d 5F5F7263 		.ascii	"__rccResetAHB4\000"
 7904      63526573 
 7904      65744148 
 7904      423400
 7905              	.LASF155:
 7906 073c 44324343 		.ascii	"D2CCIP2R\000"
 7906      49503252 
 7906      00
 7907              	.LASF16:
 7908 0745 75696E74 		.ascii	"uint8_t\000"
 7908      385F7400 
 7909              	.LASF128:
 7910 074d 43414C46 		.ascii	"CALFACT\000"
 7910      41435400 
 7911              	.LASF284:
 7912 0755 6164634F 		.ascii	"adcObjectInit\000"
 7912      626A6563 
 7912      74496E69 
 7912      7400
 7913              	.LASF42:
 7914 0763 6D736771 		.ascii	"msgqueue\000"
 7914      75657565 
ARM GAS  C:\Users\DEVELO~1\AppData\Local\Temp\ccX8mAEU.s 			page 146


 7914      00
 7915              	.LASF149:
 7916 076c 504C4C32 		.ascii	"PLL2DIVR\000"
 7916      44495652 
 7916      00
 7917              	.LASF227:
 7918 0775 73747265 		.ascii	"stream\000"
 7918      616D00
 7919              	.LASF48:
 7920 077c 63685F74 		.ascii	"ch_thread\000"
 7920      68726561 
 7920      6400
 7921              	.LASF335:
 7922 0786 5F5F706F 		.ascii	"__port_irq_epilogue\000"
 7922      72745F69 
 7922      72715F65 
 7922      70696C6F 
 7922      67756500 
 7923              	.LASF34:
 7924 079a 72717565 		.ascii	"rqueue\000"
 7924      756500
 7925              	.LASF65:
 7926 07a1 73797374 		.ascii	"system_debug_t\000"
 7926      656D5F64 
 7926      65627567 
 7926      5F7400
 7927              	.LASF242:
 7928 07b0 73616D70 		.ascii	"samples\000"
 7928      6C657300 
 7929              	.LASF173:
 7930 07b8 41484231 		.ascii	"AHB1ENR\000"
 7930      454E5200 
 7931              	.LASF130:
 7932 07c0 4144435F 		.ascii	"ADC_TypeDef\000"
 7932      54797065 
 7932      44656600 
 7933              	.LASF1:
 7934 07cc 6C6F6E67 		.ascii	"long long int\000"
 7934      206C6F6E 
 7934      6720696E 
 7934      7400
 7935              	.LASF119:
 7936 07da 41574432 		.ascii	"AWD2CR\000"
 7936      435200
 7937              	.LASF290:
 7938 07e1 61646353 		.ascii	"adcSTM32EnableVBAT\000"
 7938      544D3332 
 7938      456E6162 
 7938      6C655642 
 7938      415400
 7939              	.LASF272:
 7940 07f4 736D7072 		.ascii	"smpr\000"
 7940      00
 7941              	.LASF120:
 7942 07f9 41574433 		.ascii	"AWD3CR\000"
 7942      435200
 7943              	.LASF243:
ARM GAS  C:\Users\DEVELO~1\AppData\Local\Temp\ccX8mAEU.s 			page 147


 7944 0800 64657074 		.ascii	"depth\000"
 7944      6800
 7945              	.LASF29:
 7946 0806 6D73675F 		.ascii	"msg_t\000"
 7946      7400
 7947              	.LASF275:
 7948 080c 61646365 		.ascii	"adcerror_t\000"
 7948      72726F72 
 7948      5F7400
 7949              	.LASF301:
 7950 0817 56656374 		.ascii	"Vector88\000"
 7950      6F723838 
 7950      00
 7951              	.LASF251:
 7952 0820 41444343 		.ascii	"ADCConfig\000"
 7952      6F6E6669 
 7952      6700
 7953              	.LASF279:
 7954 082a 61646363 		.ascii	"adccallback_t\000"
 7954      616C6C62 
 7954      61636B5F 
 7954      7400
 7955              	.LASF309:
 7956 0838 6164635F 		.ascii	"adc_lld_analog_on\000"
 7956      6C6C645F 
 7956      616E616C 
 7956      6F675F6F 
 7956      6E00
 7957              	.LASF202:
 7958 084a 72656769 		.ascii	"registry_t\000"
 7958      73747279 
 7958      5F7400
 7959              	.LASF137:
 7960 0855 444D415F 		.ascii	"DMA_Stream_TypeDef\000"
 7960      53747265 
 7960      616D5F54 
 7960      79706544 
 7960      656600
 7961              	.LASF89:
 7962 0868 73697A65 		.ascii	"size\000"
 7962      00
 7963              	.LASF7:
 7964 086d 73686F72 		.ascii	"short int\000"
 7964      7420696E 
 7964      7400
 7965              	.LASF60:
 7966 0877 6D61736B 		.ascii	"mask\000"
 7966      00
 7967              	.LASF93:
 7968 087c 43464752 		.ascii	"CFGR2\000"
 7968      3200
 7969              	.LASF67:
 7970 0882 73797369 		.ascii	"sysinterval_t\000"
 7970      6E746572 
 7970      76616C5F 
 7970      7400
 7971              	.LASF179:
ARM GAS  C:\Users\DEVELO~1\AppData\Local\Temp\ccX8mAEU.s 			page 148


 7972 0890 41504232 		.ascii	"APB2ENR\000"
 7972      454E5200 
 7973              	.LASF248:
 7974 0898 61646363 		.ascii	"adcc\000"
 7974      00
 7975              	.LASF63:
 7976 089d 70616E69 		.ascii	"panic_msg\000"
 7976      635F6D73 
 7976      6700
 7977              	.LASF170:
 7978 08a7 4433414D 		.ascii	"D3AMR\000"
 7978      5200
 7979              	.LASF91:
 7980 08ad 74726163 		.ascii	"trace_buffer_t\000"
 7980      655F6275 
 7980      66666572 
 7980      5F7400
 7981              	.LASF166:
 7982 08bc 41504231 		.ascii	"APB1LRSTR\000"
 7982      4C525354 
 7982      5200
 7983              	.LASF25:
 7984 08c6 746D6F64 		.ascii	"tmode_t\000"
 7984      655F7400 
 7985              	.LASF254:
 7986 08ce 63616C69 		.ascii	"calibration\000"
 7986      62726174 
 7986      696F6E00 
 7987              	.LASF94:
 7988 08da 534D5052 		.ascii	"SMPR1\000"
 7988      3100
 7989              	.LASF95:
 7990 08e0 534D5052 		.ascii	"SMPR2\000"
 7990      3200
 7991              	.LASF249:
 7992 08e6 64617461 		.ascii	"data\000"
 7992      00
 7993              	.LASF56:
 7994 08eb 6D61696E 		.ascii	"mainthread\000"
 7994      74687265 
 7994      616400
 7995              	.LASF273:
 7996 08f6 61646373 		.ascii	"adcsample_t\000"
 7996      616D706C 
 7996      655F7400 
 7997              	.LASF277:
 7998 0902 41444344 		.ascii	"ADCD1\000"
 7998      3100
 7999              	.LASF278:
 8000 0908 41444344 		.ascii	"ADCD3\000"
 8000      3300
 8001              	.LASF132:
 8002 090e 43445232 		.ascii	"CDR2\000"
 8002      00
 8003              	.LASF2:
 8004 0913 6C6F6E67 		.ascii	"long double\000"
 8004      20646F75 
ARM GAS  C:\Users\DEVELO~1\AppData\Local\Temp\ccX8mAEU.s 			page 149


 8004      626C6500 
 8005              	.LASF17:
 8006 091f 75696E74 		.ascii	"uint16_t\000"
 8006      31365F74 
 8006      00
 8007              	.LASF68:
 8008 0928 63685F6C 		.ascii	"ch_list_t\000"
 8008      6973745F 
 8008      7400
 8009              	.LASF288:
 8010 0932 63685379 		.ascii	"chSysPolledDelayX\000"
 8010      73506F6C 
 8010      6C656444 
 8010      656C6179 
 8010      5800
 8011              	.LASF163:
 8012 0944 41484232 		.ascii	"AHB2RSTR\000"
 8012      52535452 
 8012      00
 8013              	.LASF23:
 8014 094d 7274636E 		.ascii	"rtcnt_t\000"
 8014      745F7400 
 8015              	.LASF236:
 8016 0955 4144435F 		.ascii	"ADC_ACTIVE\000"
 8016      41435449 
 8016      564500
 8017              	.LASF283:
 8018 0960 6E766963 		.ascii	"nvicEnableVector\000"
 8018      456E6162 
 8018      6C655665 
 8018      63746F72 
 8018      00
 8019              	.LASF159:
 8020 0971 43494352 		.ascii	"CICR\000"
 8020      00
 8021              	.LASF139:
 8022 0976 48534943 		.ascii	"HSICFGR\000"
 8022      46475200 
 8023              	.LASF55:
 8024 097e 636F6E66 		.ascii	"config\000"
 8024      696700
 8025              	.LASF114:
 8026 0985 4A445231 		.ascii	"JDR1\000"
 8026      00
 8027              	.LASF115:
 8028 098a 4A445232 		.ascii	"JDR2\000"
 8028      00
 8029              	.LASF116:
 8030 098f 4A445233 		.ascii	"JDR3\000"
 8030      00
 8031              	.LASF117:
 8032 0994 4A445234 		.ascii	"JDR4\000"
 8032      00
 8033              	.LASF138:
 8034 0999 444D414D 		.ascii	"DMAMUX_Channel_TypeDef\000"
 8034      55585F43 
 8034      68616E6E 
ARM GAS  C:\Users\DEVELO~1\AppData\Local\Temp\ccX8mAEU.s 			page 150


 8034      656C5F54 
 8034      79706544 
 8035              	.LASF99:
 8036 09b0 52455345 		.ascii	"RESERVED1\000"
 8036      52564544 
 8036      3100
 8037              	.LASF100:
 8038 09ba 52455345 		.ascii	"RESERVED2\000"
 8038      52564544 
 8038      3200
 8039              	.LASF105:
 8040 09c4 52455345 		.ascii	"RESERVED3\000"
 8040      52564544 
 8040      3300
 8041              	.LASF106:
 8042 09ce 52455345 		.ascii	"RESERVED4\000"
 8042      52564544 
 8042      3400
 8043              	.LASF253:
 8044 09d8 64696673 		.ascii	"difsel\000"
 8044      656C00
 8045              	.LASF118:
 8046 09df 52455345 		.ascii	"RESERVED7\000"
 8046      52564544 
 8046      3700
 8047              	.LASF133:
 8048 09e9 4144435F 		.ascii	"ADC_Common_TypeDef\000"
 8048      436F6D6D 
 8048      6F6E5F54 
 8048      79706544 
 8048      656600
 8049              	.LASF274:
 8050 09fc 6164635F 		.ascii	"adc_channels_num_t\000"
 8050      6368616E 
 8050      6E656C73 
 8050      5F6E756D 
 8050      5F7400
 8051              	.LASF317:
 8052 0a0f 72636345 		.ascii	"rccEnableAHB1\000"
 8052      6E61626C 
 8052      65414842 
 8052      3100
 8053              	.LASF186:
 8054 0a1d 41504233 		.ascii	"APB3LPENR\000"
 8054      4C50454E 
 8054      5200
 8055              	.LASF314:
 8056 0a27 72636345 		.ascii	"rccEnableAHB4\000"
 8056      6E61626C 
 8056      65414842 
 8056      3400
 8057              	.LASF193:
 8058 0a35 706F7274 		.ascii	"port_intctx\000"
 8058      5F696E74 
 8058      63747800 
 8059              	.LASF316:
 8060 0a41 72636344 		.ascii	"rccDisableAHB1\000"
ARM GAS  C:\Users\DEVELO~1\AppData\Local\Temp\ccX8mAEU.s 			page 151


 8060      69736162 
 8060      6C654148 
 8060      423100
 8061              	.LASF255:
 8062 0a50 41444343 		.ascii	"ADCConversionGroup\000"
 8062      6F6E7665 
 8062      7273696F 
 8062      6E47726F 
 8062      757000
 8063              	.LASF258:
 8064 0a63 6E756D5F 		.ascii	"num_channels\000"
 8064      6368616E 
 8064      6E656C73 
 8064      00
 8065              	.LASF252:
 8066 0a70 68616C5F 		.ascii	"hal_adc_config\000"
 8066      6164635F 
 8066      636F6E66 
 8066      696700
 8067              	.LASF165:
 8068 0a7f 41504233 		.ascii	"APB3RSTR\000"
 8068      52535452 
 8068      00
 8069              	.LASF22:
 8070 0a88 706F7274 		.ascii	"port_stkalign_t\000"
 8070      5F73746B 
 8070      616C6967 
 8070      6E5F7400 
 8071              	.LASF337:
 8072 0a98 6164635F 		.ascii	"adc_lld_init\000"
 8072      6C6C645F 
 8072      696E6974 
 8072      00
 8073              	.LASF164:
 8074 0aa5 41484234 		.ascii	"AHB4RSTR\000"
 8074      52535452 
 8074      00
 8075              	.LASF338:
 8076 0aae 5F5F7365 		.ascii	"__set_BASEPRI\000"
 8076      745F4241 
 8076      53455052 
 8076      4900
 8077              	.LASF218:
 8078 0abc 63685F6F 		.ascii	"ch_os_instance_config\000"
 8078      735F696E 
 8078      7374616E 
 8078      63655F63 
 8078      6F6E6669 
 8079              	.LASF196:
 8080 0ad2 646C6973 		.ascii	"dlist\000"
 8080      7400
 8081              	.LASF197:
 8082 0ad8 6C617374 		.ascii	"lasttime\000"
 8082      74696D65 
 8082      00
 8083              	.LASF20:
 8084 0ae1 75696E74 		.ascii	"uint64_t\000"
ARM GAS  C:\Users\DEVELO~1\AppData\Local\Temp\ccX8mAEU.s 			page 152


 8084      36345F74 
 8084      00
 8085              	.LASF153:
 8086 0aea 44314343 		.ascii	"D1CCIPR\000"
 8086      49505200 
 8087              	.LASF92:
 8088 0af2 43464752 		.ascii	"CFGR\000"
 8088      00
 8089              	.LASF50:
 8090 0af7 726C6973 		.ascii	"rlist\000"
 8090      7400
 8091              	.LASF323:
 8092 0afd 6F73616C 		.ascii	"osalSysUnlockFromISR\000"
 8092      53797355 
 8092      6E6C6F63 
 8092      6B46726F 
 8092      6D495352 
 8093              	.LASF334:
 8094 0b12 646D6153 		.ascii	"dmaStreamAllocI\000"
 8094      74726561 
 8094      6D416C6C 
 8094      6F634900 
 8095              	.LASF180:
 8096 0b22 41504234 		.ascii	"APB4ENR\000"
 8096      454E5200 
 8097              	.LASF5:
 8098 0b2a 5F5F7569 		.ascii	"__uint8_t\000"
 8098      6E74385F 
 8098      7400
 8099              	.LASF233:
 8100 0b34 4144435F 		.ascii	"ADC_UNINIT\000"
 8100      554E494E 
 8100      495400
 8101              	.LASF36:
 8102 0b3f 6E616D65 		.ascii	"name\000"
 8102      00
 8103              	.LASF146:
 8104 0b44 504C4C43 		.ascii	"PLLCFGR\000"
 8104      46475200 
 8105              	.LASF145:
 8106 0b4c 504C4C43 		.ascii	"PLLCKSELR\000"
 8106      4B53454C 
 8106      5200
 8107              	.LASF303:
 8108 0b56 656D6173 		.ascii	"emask\000"
 8108      6B00
 8109              	.LASF178:
 8110 0b5c 41504231 		.ascii	"APB1HENR\000"
 8110      48454E52 
 8110      00
 8111              	.LASF136:
 8112 0b65 4D314152 		.ascii	"M1AR\000"
 8112      00
 8113              	.LASF292:
 8114 0b6a 61646353 		.ascii	"adcSTM32DisableTS\000"
 8114      544D3332 
 8114      44697361 
ARM GAS  C:\Users\DEVELO~1\AppData\Local\Temp\ccX8mAEU.s 			page 153


 8114      626C6554 
 8114      5300
 8115              	.LASF101:
 8116 0b7c 53515231 		.ascii	"SQR1\000"
 8116      00
 8117              	.LASF102:
 8118 0b81 53515232 		.ascii	"SQR2\000"
 8118      00
 8119              	.LASF103:
 8120 0b86 53515233 		.ascii	"SQR3\000"
 8120      00
 8121              	.LASF182:
 8122 0b8b 41484233 		.ascii	"AHB3LPENR\000"
 8122      4C50454E 
 8122      5200
 8123              	.LASF148:
 8124 0b95 504C4C31 		.ascii	"PLL1FRACR\000"
 8124      46524143 
 8124      5200
 8125              	.LASF27:
 8126 0b9f 74726566 		.ascii	"trefs_t\000"
 8126      735F7400 
 8127              	.LASF142:
 8128 0ba7 44314346 		.ascii	"D1CFGR\000"
 8128      475200
 8129              	.LASF285:
 8130 0bae 5F5F7472 		.ascii	"__trace_isr_leave\000"
 8130      6163655F 
 8130      6973725F 
 8130      6C656176 
 8130      6500
 8131              	.LASF13:
 8132 0bc0 6C6F6E67 		.ascii	"long unsigned int\000"
 8132      20756E73 
 8132      69676E65 
 8132      6420696E 
 8132      7400
 8133              	.LASF235:
 8134 0bd2 4144435F 		.ascii	"ADC_READY\000"
 8134      52454144 
 8134      5900
 8135              	.LASF217:
 8136 0bdc 72656164 		.ascii	"ready_list_t\000"
 8136      795F6C69 
 8136      73745F74 
 8136      00
 8137              	.LASF296:
 8138 0be9 6164635F 		.ascii	"adc_lld_stop_conversion\000"
 8138      6C6C645F 
 8138      73746F70 
 8138      5F636F6E 
 8138      76657273 
 8139              	.LASF247:
 8140 0c01 6164636D 		.ascii	"adcm\000"
 8140      00
 8141              	.LASF85:
 8142 0c06 72747374 		.ascii	"rtstamp\000"
ARM GAS  C:\Users\DEVELO~1\AppData\Local\Temp\ccX8mAEU.s 			page 154


 8142      616D7000 
 8143              	.LASF310:
 8144 0c0e 6164635F 		.ascii	"adc_lld_vreg_off\000"
 8144      6C6C645F 
 8144      76726567 
 8144      5F6F6666 
 8144      00
 8145              	.LASF291:
 8146 0c1f 61646370 		.ascii	"adcp\000"
 8146      00
 8147              	.LASF174:
 8148 0c24 41484232 		.ascii	"AHB2ENR\000"
 8148      454E5200 
 8149              	.LASF18:
 8150 0c2c 696E7433 		.ascii	"int32_t\000"
 8150      325F7400 
 8151              	.LASF61:
 8152 0c34 72666375 		.ascii	"rfcu_t\000"
 8152      5F7400
 8153              	.LASF201:
 8154 0c3b 71756575 		.ascii	"queue\000"
 8154      6500
 8155              	.LASF245:
 8156 0c41 74687265 		.ascii	"thread\000"
 8156      616400
 8157              	.LASF210:
 8158 0c48 77747365 		.ascii	"wtsemp\000"
 8158      6D7000
 8159              	.LASF75:
 8160 0c4f 63685F70 		.ascii	"ch_priority_queue\000"
 8160      72696F72 
 8160      6974795F 
 8160      71756575 
 8160      6500
 8161              	.LASF147:
 8162 0c61 504C4C31 		.ascii	"PLL1DIVR\000"
 8162      44495652 
 8162      00
 8163              	.LASF282:
 8164 0c6a 646D6153 		.ascii	"dmaSetRequestSource\000"
 8164      65745265 
 8164      71756573 
 8164      74536F75 
 8164      72636500 
 8165              	.LASF72:
 8166 0c7e 63685F71 		.ascii	"ch_queue\000"
 8166      75657565 
 8166      00
 8167              	.LASF224:
 8168 0c87 6D757465 		.ascii	"mutex_t\000"
 8168      785F7400 
 8169              	.LASF84:
 8170 0c8f 74797065 		.ascii	"type\000"
 8170      00
 8171              	.LASF327:
 8172 0c94 706F7274 		.ascii	"port_unlock_from_isr\000"
 8172      5F756E6C 
ARM GAS  C:\Users\DEVELO~1\AppData\Local\Temp\ccX8mAEU.s 			page 155


 8172      6F636B5F 
 8172      66726F6D 
 8172      5F697372 
 8173              	.LASF6:
 8174 0ca9 756E7369 		.ascii	"unsigned char\000"
 8174      676E6564 
 8174      20636861 
 8174      7200
 8175              	.LASF141:
 8176 0cb7 43534943 		.ascii	"CSICFGR\000"
 8176      46475200 
 8177              	.LASF12:
 8178 0cbf 5F5F7569 		.ascii	"__uint32_t\000"
 8178      6E743332 
 8178      5F7400
 8179              	.LASF41:
 8180 0cca 77616974 		.ascii	"waiting\000"
 8180      696E6700 
 8181              	.LASF199:
 8182 0cd2 76697274 		.ascii	"virtual_timers_list_t\000"
 8182      75616C5F 
 8182      74696D65 
 8182      72735F6C 
 8182      6973745F 
 8183              	.LASF158:
 8184 0ce8 43494652 		.ascii	"CIFR\000"
 8184      00
 8185              	.LASF98:
 8186 0ced 48545231 		.ascii	"HTR1\000"
 8186      00
 8187              	.LASF124:
 8188 0cf2 48545232 		.ascii	"HTR2\000"
 8188      00
 8189              	.LASF126:
 8190 0cf7 48545233 		.ascii	"HTR3\000"
 8190      00
 8191              	.LASF171:
 8192 0cfc 52455345 		.ascii	"RESERVED11\000"
 8192      52564544 
 8192      313100
 8193              	.LASF181:
 8194 0d07 52455345 		.ascii	"RESERVED12\000"
 8194      52564544 
 8194      313200
 8195              	.LASF191:
 8196 0d12 52455345 		.ascii	"RESERVED13\000"
 8196      52564544 
 8196      313300
 8197              	.LASF38:
 8198 0d1d 73746174 		.ascii	"state\000"
 8198      6500
 8199              	.LASF107:
 8200 0d23 4A535152 		.ascii	"JSQR\000"
 8200      00
 8201              	.LASF47:
 8202 0d28 6F735F69 		.ascii	"os_instance_t\000"
 8202      6E737461 
ARM GAS  C:\Users\DEVELO~1\AppData\Local\Temp\ccX8mAEU.s 			page 156


 8202      6E63655F 
 8202      7400
 8203              	.LASF308:
 8204 0d36 6164635F 		.ascii	"adc_lld_analog_off\000"
 8204      6C6C645F 
 8204      616E616C 
 8204      6F675F6F 
 8204      666600
 8205              	.LASF52:
 8206 0d49 7265676C 		.ascii	"reglist\000"
 8206      69737400 
 8207              	.LASF156:
 8208 0d51 44334343 		.ascii	"D3CCIPR\000"
 8208      49505200 
 8209              	.LASF183:
 8210 0d59 41484231 		.ascii	"AHB1LPENR\000"
 8210      4C50454E 
 8210      5200
 8211              	.LASF305:
 8212 0d63 6164635F 		.ascii	"adc_lld_serve_dma_interrupt\000"
 8212      6C6C645F 
 8212      73657276 
 8212      655F646D 
 8212      615F696E 
 8213              	.LASF307:
 8214 0d7f 6164635F 		.ascii	"adc_lld_calibrate\000"
 8214      6C6C645F 
 8214      63616C69 
 8214      62726174 
 8214      6500
 8215              	.LASF221:
 8216 0d91 69646C65 		.ascii	"idlethread_base\000"
 8216      74687265 
 8216      61645F62 
 8216      61736500 
 8217              	.LASF313:
 8218 0da1 72636344 		.ascii	"rccDisableAHB4\000"
 8218      69736162 
 8218      6C654148 
 8218      423400
 8219              	.LASF3:
 8220 0db0 7369676E 		.ascii	"signed char\000"
 8220      65642063 
 8220      68617200 
 8221              	.LASF79:
 8222 0dbc 64656C74 		.ascii	"delta\000"
 8222      6100
 8223              	.LASF140:
 8224 0dc2 43525243 		.ascii	"CRRCR\000"
 8224      5200
 8225              	.LASF9:
 8226 0dc8 73686F72 		.ascii	"short unsigned int\000"
 8226      7420756E 
 8226      7369676E 
 8226      65642069 
 8226      6E7400
 8227              	.LASF270:
ARM GAS  C:\Users\DEVELO~1\AppData\Local\Temp\ccX8mAEU.s 			page 157


 8228 0ddb 61776432 		.ascii	"awd2cr\000"
 8228      637200
 8229              	.LASF24:
 8230 0de2 73746B61 		.ascii	"stkalign_t\000"
 8230      6C69676E 
 8230      5F7400
 8231              	.LASF271:
 8232 0ded 61776433 		.ascii	"awd3cr\000"
 8232      637200
 8233              	.LASF216:
 8234 0df4 63757272 		.ascii	"current\000"
 8234      656E7400 
 8235              	.LASF302:
 8236 0dfc 5F5F6675 		.ascii	"__func__\000"
 8236      6E635F5F 
 8236      00
 8237              	.LASF320:
 8238 0e05 6F73616C 		.ascii	"osalThreadResumeI\000"
 8238      54687265 
 8238      61645265 
 8238      73756D65 
 8238      4900
 8239              	.LASF244:
 8240 0e17 67727070 		.ascii	"grpp\000"
 8240      00
 8241              	.LASF322:
 8242 0e1c 6379636C 		.ascii	"cycles\000"
 8242      657300
 8243              	.LASF108:
 8244 0e23 52455345 		.ascii	"RESERVED5\000"
 8244      52564544 
 8244      3500
 8245              	.LASF81:
 8246 0e2d 72656173 		.ascii	"reason\000"
 8246      6F6E00
 8247              	.LASF286:
 8248 0e34 5F5F7472 		.ascii	"__trace_isr_enter\000"
 8248      6163655F 
 8248      6973725F 
 8248      656E7465 
 8248      7200
 8249              	.LASF121:
 8250 0e46 52455345 		.ascii	"RESERVED8\000"
 8250      52564544 
 8250      3800
 8251              	.LASF122:
 8252 0e50 52455345 		.ascii	"RESERVED9\000"
 8252      52564544 
 8252      3900
 8253              	.LASF256:
 8254 0e5a 68616C5F 		.ascii	"hal_adc_configuration_group\000"
 8254      6164635F 
 8254      636F6E66 
 8254      69677572 
 8254      6174696F 
 8255              	.LASF188:
 8256 0e76 41504231 		.ascii	"APB1HLPENR\000"
ARM GAS  C:\Users\DEVELO~1\AppData\Local\Temp\ccX8mAEU.s 			page 158


 8256      484C5045 
 8256      4E5200
 8257              	.LASF208:
 8258 0e81 77747472 		.ascii	"wttrp\000"
 8258      7000
 8259              	.LASF234:
 8260 0e87 4144435F 		.ascii	"ADC_STOP\000"
 8260      53544F50 
 8260      00
 8261              	.LASF262:
 8262 0e90 63666772 		.ascii	"cfgr2\000"
 8262      3200
 8263              	.LASF207:
 8264 0e96 65786974 		.ascii	"exitcode\000"
 8264      636F6465 
 8264      00
 8265              	.LASF230:
 8266 0e9f 73656C66 		.ascii	"selfindex\000"
 8266      696E6465 
 8266      7800
 8267              	.LASF177:
 8268 0ea9 41504231 		.ascii	"APB1LENR\000"
 8268      4C454E52 
 8268      00
 8269              	.LASF162:
 8270 0eb2 41484231 		.ascii	"AHB1RSTR\000"
 8270      52535452 
 8270      00
 8271              	.LASF32:
 8272 0ebb 636F7265 		.ascii	"core_id_t\000"
 8272      5F69645F 
 8272      7400
 8273              	.LASF46:
 8274 0ec5 6D706F6F 		.ascii	"mpool\000"
 8274      6C00
 8275              	.LASF315:
 8276 0ecb 72636352 		.ascii	"rccResetAHB1\000"
 8276      65736574 
 8276      41484231 
 8276      00
 8277              	.LASF312:
 8278 0ed8 72636352 		.ascii	"rccResetAHB4\000"
 8278      65736574 
 8278      41484234 
 8278      00
 8279              		.ident	"GCC: (Arm GNU Toolchain 11.3.Rel1) 11.3.1 20220712"
ARM GAS  C:\Users\DEVELO~1\AppData\Local\Temp\ccX8mAEU.s 			page 159


DEFINED SYMBOLS
                            *ABS*:00000000 hal_adc_lld.c
C:\Users\DEVELO~1\AppData\Local\Temp\ccX8mAEU.s:18     .text.chSysLockFromISR:00000000 $t
C:\Users\DEVELO~1\AppData\Local\Temp\ccX8mAEU.s:23     .text.chSysLockFromISR:00000000 chSysLockFromISR
C:\Users\DEVELO~1\AppData\Local\Temp\ccX8mAEU.s:83     .text.chSysUnlockFromISR:00000000 $t
C:\Users\DEVELO~1\AppData\Local\Temp\ccX8mAEU.s:88     .text.chSysUnlockFromISR:00000000 chSysUnlockFromISR
C:\Users\DEVELO~1\AppData\Local\Temp\ccX8mAEU.s:145    .text.osalSysLockFromISR:00000000 $t
C:\Users\DEVELO~1\AppData\Local\Temp\ccX8mAEU.s:150    .text.osalSysLockFromISR:00000000 osalSysLockFromISR
C:\Users\DEVELO~1\AppData\Local\Temp\ccX8mAEU.s:172    .text.osalSysUnlockFromISR:00000000 $t
C:\Users\DEVELO~1\AppData\Local\Temp\ccX8mAEU.s:177    .text.osalSysUnlockFromISR:00000000 osalSysUnlockFromISR
C:\Users\DEVELO~1\AppData\Local\Temp\ccX8mAEU.s:198    .text.osalSysPolledDelayX:00000000 $t
C:\Users\DEVELO~1\AppData\Local\Temp\ccX8mAEU.s:203    .text.osalSysPolledDelayX:00000000 osalSysPolledDelayX
C:\Users\DEVELO~1\AppData\Local\Temp\ccX8mAEU.s:233    .text.osalThreadResumeI:00000000 $t
C:\Users\DEVELO~1\AppData\Local\Temp\ccX8mAEU.s:238    .text.osalThreadResumeI:00000000 osalThreadResumeI
C:\Users\DEVELO~1\AppData\Local\Temp\ccX8mAEU.s:270    .text.__rccResetAHB1:00000000 $t
C:\Users\DEVELO~1\AppData\Local\Temp\ccX8mAEU.s:275    .text.__rccResetAHB1:00000000 __rccResetAHB1
C:\Users\DEVELO~1\AppData\Local\Temp\ccX8mAEU.s:326    .text.__rccResetAHB1:0000003c $d
C:\Users\DEVELO~1\AppData\Local\Temp\ccX8mAEU.s:331    .text.__rccResetAHB4:00000000 $t
C:\Users\DEVELO~1\AppData\Local\Temp\ccX8mAEU.s:336    .text.__rccResetAHB4:00000000 __rccResetAHB4
C:\Users\DEVELO~1\AppData\Local\Temp\ccX8mAEU.s:386    .text.__rccResetAHB4:0000003c $d
C:\Users\DEVELO~1\AppData\Local\Temp\ccX8mAEU.s:391    .text.rccEnableAHB1:00000000 $t
C:\Users\DEVELO~1\AppData\Local\Temp\ccX8mAEU.s:396    .text.rccEnableAHB1:00000000 rccEnableAHB1
C:\Users\DEVELO~1\AppData\Local\Temp\ccX8mAEU.s:462    .text.rccEnableAHB1:00000058 $d
C:\Users\DEVELO~1\AppData\Local\Temp\ccX8mAEU.s:467    .text.rccDisableAHB1:00000000 $t
C:\Users\DEVELO~1\AppData\Local\Temp\ccX8mAEU.s:472    .text.rccDisableAHB1:00000000 rccDisableAHB1
C:\Users\DEVELO~1\AppData\Local\Temp\ccX8mAEU.s:525    .text.rccDisableAHB1:0000003c $d
C:\Users\DEVELO~1\AppData\Local\Temp\ccX8mAEU.s:530    .text.rccResetAHB1:00000000 $t
C:\Users\DEVELO~1\AppData\Local\Temp\ccX8mAEU.s:535    .text.rccResetAHB1:00000000 rccResetAHB1
C:\Users\DEVELO~1\AppData\Local\Temp\ccX8mAEU.s:565    .text.rccEnableAHB4:00000000 $t
C:\Users\DEVELO~1\AppData\Local\Temp\ccX8mAEU.s:570    .text.rccEnableAHB4:00000000 rccEnableAHB4
C:\Users\DEVELO~1\AppData\Local\Temp\ccX8mAEU.s:636    .text.rccEnableAHB4:00000058 $d
C:\Users\DEVELO~1\AppData\Local\Temp\ccX8mAEU.s:641    .text.rccDisableAHB4:00000000 $t
C:\Users\DEVELO~1\AppData\Local\Temp\ccX8mAEU.s:646    .text.rccDisableAHB4:00000000 rccDisableAHB4
C:\Users\DEVELO~1\AppData\Local\Temp\ccX8mAEU.s:699    .text.rccDisableAHB4:0000003c $d
C:\Users\DEVELO~1\AppData\Local\Temp\ccX8mAEU.s:704    .text.rccResetAHB4:00000000 $t
C:\Users\DEVELO~1\AppData\Local\Temp\ccX8mAEU.s:709    .text.rccResetAHB4:00000000 rccResetAHB4
C:\Users\DEVELO~1\AppData\Local\Temp\ccX8mAEU.s:743    .bss.ADCD1:00000000 ADCD1
C:\Users\DEVELO~1\AppData\Local\Temp\ccX8mAEU.s:740    .bss.ADCD1:00000000 $d
C:\Users\DEVELO~1\AppData\Local\Temp\ccX8mAEU.s:750    .bss.ADCD3:00000000 ADCD3
C:\Users\DEVELO~1\AppData\Local\Temp\ccX8mAEU.s:747    .bss.ADCD3:00000000 $d
C:\Users\DEVELO~1\AppData\Local\Temp\ccX8mAEU.s:753    .rodata.default_config:00000000 $d
C:\Users\DEVELO~1\AppData\Local\Temp\ccX8mAEU.s:756    .rodata.default_config:00000000 default_config
C:\Users\DEVELO~1\AppData\Local\Temp\ccX8mAEU.s:759    .text.adc_lld_vreg_on:00000000 $t
C:\Users\DEVELO~1\AppData\Local\Temp\ccX8mAEU.s:764    .text.adc_lld_vreg_on:00000000 adc_lld_vreg_on
C:\Users\DEVELO~1\AppData\Local\Temp\ccX8mAEU.s:801    .text.adc_lld_vreg_off:00000000 $t
C:\Users\DEVELO~1\AppData\Local\Temp\ccX8mAEU.s:806    .text.adc_lld_vreg_off:00000000 adc_lld_vreg_off
C:\Users\DEVELO~1\AppData\Local\Temp\ccX8mAEU.s:842    .text.adc_lld_analog_on:00000000 $t
C:\Users\DEVELO~1\AppData\Local\Temp\ccX8mAEU.s:847    .text.adc_lld_analog_on:00000000 adc_lld_analog_on
C:\Users\DEVELO~1\AppData\Local\Temp\ccX8mAEU.s:908    .text.adc_lld_analog_off:00000000 $t
C:\Users\DEVELO~1\AppData\Local\Temp\ccX8mAEU.s:913    .text.adc_lld_analog_off:00000000 adc_lld_analog_off
C:\Users\DEVELO~1\AppData\Local\Temp\ccX8mAEU.s:968    .text.adc_lld_calibrate:00000000 $t
C:\Users\DEVELO~1\AppData\Local\Temp\ccX8mAEU.s:973    .text.adc_lld_calibrate:00000000 adc_lld_calibrate
C:\Users\DEVELO~1\AppData\Local\Temp\ccX8mAEU.s:1056   .text.adc_lld_calibrate:00000058 $d
C:\Users\DEVELO~1\AppData\Local\Temp\ccX8mAEU.s:1062   .text.adc_lld_stop_adc:00000000 $t
C:\Users\DEVELO~1\AppData\Local\Temp\ccX8mAEU.s:1067   .text.adc_lld_stop_adc:00000000 adc_lld_stop_adc
C:\Users\DEVELO~1\AppData\Local\Temp\ccX8mAEU.s:1138   .text.adc_lld_serve_dma_interrupt:00000000 $t
C:\Users\DEVELO~1\AppData\Local\Temp\ccX8mAEU.s:1143   .text.adc_lld_serve_dma_interrupt:00000000 adc_lld_serve_dma_interrupt
ARM GAS  C:\Users\DEVELO~1\AppData\Local\Temp\ccX8mAEU.s 			page 160


C:\Users\DEVELO~1\AppData\Local\Temp\ccX8mAEU.s:2419   .text.adc_lld_stop_conversion:00000000 adc_lld_stop_conversion
C:\Users\DEVELO~1\AppData\Local\Temp\ccX8mAEU.s:1343   .text.adc_lld_serve_interrupt:00000000 $t
C:\Users\DEVELO~1\AppData\Local\Temp\ccX8mAEU.s:1348   .text.adc_lld_serve_interrupt:00000000 adc_lld_serve_interrupt
C:\Users\DEVELO~1\AppData\Local\Temp\ccX8mAEU.s:1490   .text.Vector88:00000000 $t
C:\Users\DEVELO~1\AppData\Local\Temp\ccX8mAEU.s:1496   .text.Vector88:00000000 Vector88
C:\Users\DEVELO~1\AppData\Local\Temp\ccX8mAEU.s:1542   .text.Vector88:00000034 $d
C:\Users\DEVELO~1\AppData\Local\Temp\ccX8mAEU.s:2811   .rodata.__func__.1:00000000 __func__.1
C:\Users\DEVELO~1\AppData\Local\Temp\ccX8mAEU.s:1549   .text.Vector23C:00000000 $t
C:\Users\DEVELO~1\AppData\Local\Temp\ccX8mAEU.s:1555   .text.Vector23C:00000000 Vector23C
C:\Users\DEVELO~1\AppData\Local\Temp\ccX8mAEU.s:1601   .text.Vector23C:00000034 $d
C:\Users\DEVELO~1\AppData\Local\Temp\ccX8mAEU.s:2817   .rodata.__func__.0:00000000 __func__.0
C:\Users\DEVELO~1\AppData\Local\Temp\ccX8mAEU.s:1608   .text.adc_lld_init:00000000 $t
C:\Users\DEVELO~1\AppData\Local\Temp\ccX8mAEU.s:1614   .text.adc_lld_init:00000000 adc_lld_init
C:\Users\DEVELO~1\AppData\Local\Temp\ccX8mAEU.s:1708   .text.adc_lld_init:00000090 $d
C:\Users\DEVELO~1\AppData\Local\Temp\ccX8mAEU.s:1719   .text.adc_lld_start:00000000 $t
C:\Users\DEVELO~1\AppData\Local\Temp\ccX8mAEU.s:1725   .text.adc_lld_start:00000000 adc_lld_start
C:\Users\DEVELO~1\AppData\Local\Temp\ccX8mAEU.s:1926   .text.adc_lld_start:00000128 $d
C:\Users\DEVELO~1\AppData\Local\Temp\ccX8mAEU.s:1934   .text.adc_lld_stop:00000000 $t
C:\Users\DEVELO~1\AppData\Local\Temp\ccX8mAEU.s:1940   .text.adc_lld_stop:00000000 adc_lld_stop
C:\Users\DEVELO~1\AppData\Local\Temp\ccX8mAEU.s:2029   .text.adc_lld_stop:00000078 $d
C:\Users\DEVELO~1\AppData\Local\Temp\ccX8mAEU.s:2035   .text.adc_lld_start_conversion:00000000 $t
C:\Users\DEVELO~1\AppData\Local\Temp\ccX8mAEU.s:2041   .text.adc_lld_start_conversion:00000000 adc_lld_start_conversion
C:\Users\DEVELO~1\AppData\Local\Temp\ccX8mAEU.s:2407   .text.adc_lld_start_conversion:0000020c $d
C:\Users\DEVELO~1\AppData\Local\Temp\ccX8mAEU.s:2413   .text.adc_lld_stop_conversion:00000000 $t
C:\Users\DEVELO~1\AppData\Local\Temp\ccX8mAEU.s:2520   .text.adc_lld_stop_conversion:00000098 $d
C:\Users\DEVELO~1\AppData\Local\Temp\ccX8mAEU.s:2526   .text.adcSTM32EnableVREF:00000000 $t
C:\Users\DEVELO~1\AppData\Local\Temp\ccX8mAEU.s:2532   .text.adcSTM32EnableVREF:00000000 adcSTM32EnableVREF
C:\Users\DEVELO~1\AppData\Local\Temp\ccX8mAEU.s:2573   .text.adcSTM32DisableVREF:00000000 $t
C:\Users\DEVELO~1\AppData\Local\Temp\ccX8mAEU.s:2579   .text.adcSTM32DisableVREF:00000000 adcSTM32DisableVREF
C:\Users\DEVELO~1\AppData\Local\Temp\ccX8mAEU.s:2620   .text.adcSTM32EnableTS:00000000 $t
C:\Users\DEVELO~1\AppData\Local\Temp\ccX8mAEU.s:2626   .text.adcSTM32EnableTS:00000000 adcSTM32EnableTS
C:\Users\DEVELO~1\AppData\Local\Temp\ccX8mAEU.s:2667   .text.adcSTM32DisableTS:00000000 $t
C:\Users\DEVELO~1\AppData\Local\Temp\ccX8mAEU.s:2673   .text.adcSTM32DisableTS:00000000 adcSTM32DisableTS
C:\Users\DEVELO~1\AppData\Local\Temp\ccX8mAEU.s:2714   .text.adcSTM32EnableVBAT:00000000 $t
C:\Users\DEVELO~1\AppData\Local\Temp\ccX8mAEU.s:2720   .text.adcSTM32EnableVBAT:00000000 adcSTM32EnableVBAT
C:\Users\DEVELO~1\AppData\Local\Temp\ccX8mAEU.s:2761   .text.adcSTM32DisableVBAT:00000000 $t
C:\Users\DEVELO~1\AppData\Local\Temp\ccX8mAEU.s:2767   .text.adcSTM32DisableVBAT:00000000 adcSTM32DisableVBAT
C:\Users\DEVELO~1\AppData\Local\Temp\ccX8mAEU.s:2808   .rodata.__func__.1:00000000 $d
C:\Users\DEVELO~1\AppData\Local\Temp\ccX8mAEU.s:2814   .rodata.__func__.0:00000000 $d

UNDEFINED SYMBOLS
chSysPolledDelayX
chThdResumeI
__trace_isr_enter
__trace_isr_leave
__port_irq_epilogue
adcObjectInit
nvicEnableVector
dmaStreamAllocI
dmaSetRequestSource
dmaStreamFreeI
