ARM GAS  C:\Users\DEVELO~1\AppData\Local\Temp\ccJs2sHK.s 			page 1


   1              		.cpu cortex-m7
   2              		.arch armv7e-m
   3              		.fpu softvfp
   4              		.eabi_attribute 20, 1
   5              		.eabi_attribute 21, 1
   6              		.eabi_attribute 23, 3
   7              		.eabi_attribute 24, 1
   8              		.eabi_attribute 25, 1
   9              		.eabi_attribute 26, 1
  10              		.eabi_attribute 30, 6
  11              		.eabi_attribute 34, 1
  12              		.eabi_attribute 18, 4
  13              		.file	"hal_queues.c"
  14              		.text
  15              	.Ltext0:
  16              		.cfi_sections	.debug_frame
  17              		.section	.text.ch_queue_init,"ax",%progbits
  18              		.align	1
  19              		.syntax unified
  20              		.thumb
  21              		.thumb_func
  22              		.type	ch_queue_init, %function
  23              	ch_queue_init:
  24              	.LFB19:
  25              		.file 1 "../../../os/rt/include/chlists.h"
  26              		.loc 1 222 50
  27              		.cfi_startproc
  28              		@ args = 0, pretend = 0, frame = 8
  29              		@ frame_needed = 1, uses_anonymous_args = 0
  30              		@ link register save eliminated.
  31 0000 80B4     		push	{r7}
  32              		.cfi_def_cfa_offset 4
  33              		.cfi_offset 7, -4
  34 0002 83B0     		sub	sp, sp, #12
  35              		.cfi_def_cfa_offset 16
  36 0004 00AF     		add	r7, sp, #0
  37              		.cfi_def_cfa_register 7
  38 0006 7860     		str	r0, [r7, #4]
  39              		.loc 1 224 12
  40 0008 7B68     		ldr	r3, [r7, #4]
  41 000a 7A68     		ldr	r2, [r7, #4]
  42 000c 1A60     		str	r2, [r3]
  43              		.loc 1 225 12
  44 000e 7B68     		ldr	r3, [r7, #4]
  45 0010 7A68     		ldr	r2, [r7, #4]
  46 0012 5A60     		str	r2, [r3, #4]
  47              		.loc 1 226 1
  48 0014 00BF     		nop
  49 0016 0C37     		adds	r7, r7, #12
  50              		.cfi_def_cfa_offset 4
  51 0018 BD46     		mov	sp, r7
  52              		.cfi_def_cfa_register 13
  53              		@ sp needed
  54 001a 80BC     		pop	{r7}
  55              		.cfi_restore 7
  56              		.cfi_def_cfa_offset 0
  57 001c 7047     		bx	lr
ARM GAS  C:\Users\DEVELO~1\AppData\Local\Temp\ccJs2sHK.s 			page 2


  58              		.cfi_endproc
  59              	.LFE19:
  60              		.size	ch_queue_init, .-ch_queue_init
  61              		.section	.text.chSysLock,"ax",%progbits
  62              		.align	1
  63              		.syntax unified
  64              		.thumb
  65              		.thumb_func
  66              		.type	chSysLock, %function
  67              	chSysLock:
  68              	.LFB202:
  69              		.file 2 "../../../os/rt/include/chsys.h"
  70              		.loc 2 407 36
  71              		.cfi_startproc
  72              		@ args = 0, pretend = 0, frame = 8
  73              		@ frame_needed = 1, uses_anonymous_args = 0
  74              		@ link register save eliminated.
  75 0000 80B4     		push	{r7}
  76              		.cfi_def_cfa_offset 4
  77              		.cfi_offset 7, -4
  78 0002 83B0     		sub	sp, sp, #12
  79              		.cfi_def_cfa_offset 16
  80 0004 00AF     		add	r7, sp, #0
  81              		.cfi_def_cfa_register 7
  82 0006 3023     		movs	r3, #48
  83 0008 7B60     		str	r3, [r7, #4]
  84              	.LBB14:
  85              	.LBB15:
  86              	.LBB16:
  87              	.LBB17:
  88              		.file 3 "../../../os/common/ext/ARM/CMSIS/Core/Include/cmsis_gcc.h"
  89              		.loc 3 493 3
  90 000a 7B68     		ldr	r3, [r7, #4]
  91              		.syntax unified
  92              	@ 493 "../../../os/common/ext/ARM/CMSIS/Core/Include/cmsis_gcc.h" 1
  93 000c 83F31188 		MSR basepri, r3
  94              	@ 0 "" 2
  95              		.loc 3 494 1
  96              		.thumb
  97              		.syntax unified
  98 0010 00BF     		nop
  99              	.LBE17:
 100              	.LBE16:
 101              		.file 4 "../../../os/common/ports/ARMv7-M/chcore.h"
 102              		.loc 4 840 1
 103 0012 00BF     		nop
 104              	.LBE15:
 105              	.LBE14:
 106              		.loc 2 412 1
 107 0014 00BF     		nop
 108 0016 0C37     		adds	r7, r7, #12
 109              		.cfi_def_cfa_offset 4
 110 0018 BD46     		mov	sp, r7
 111              		.cfi_def_cfa_register 13
 112              		@ sp needed
 113 001a 80BC     		pop	{r7}
 114              		.cfi_restore 7
ARM GAS  C:\Users\DEVELO~1\AppData\Local\Temp\ccJs2sHK.s 			page 3


 115              		.cfi_def_cfa_offset 0
 116 001c 7047     		bx	lr
 117              		.cfi_endproc
 118              	.LFE202:
 119              		.size	chSysLock, .-chSysLock
 120              		.section	.text.chSysUnlock,"ax",%progbits
 121              		.align	1
 122              		.syntax unified
 123              		.thumb
 124              		.thumb_func
 125              		.type	chSysUnlock, %function
 126              	chSysUnlock:
 127              	.LFB203:
 128              		.loc 2 421 38
 129              		.cfi_startproc
 130              		@ args = 0, pretend = 0, frame = 8
 131              		@ frame_needed = 1, uses_anonymous_args = 0
 132              		@ link register save eliminated.
 133 0000 80B4     		push	{r7}
 134              		.cfi_def_cfa_offset 4
 135              		.cfi_offset 7, -4
 136 0002 83B0     		sub	sp, sp, #12
 137              		.cfi_def_cfa_offset 16
 138 0004 00AF     		add	r7, sp, #0
 139              		.cfi_def_cfa_register 7
 140 0006 0023     		movs	r3, #0
 141 0008 7B60     		str	r3, [r7, #4]
 142              	.LBB18:
 143              	.LBB19:
 144              	.LBB20:
 145              	.LBB21:
 146              		.loc 3 493 3
 147 000a 7B68     		ldr	r3, [r7, #4]
 148              		.syntax unified
 149              	@ 493 "../../../os/common/ext/ARM/CMSIS/Core/Include/cmsis_gcc.h" 1
 150 000c 83F31188 		MSR basepri, r3
 151              	@ 0 "" 2
 152              		.loc 3 494 1
 153              		.thumb
 154              		.syntax unified
 155 0010 00BF     		nop
 156              	.LBE21:
 157              	.LBE20:
 158              		.loc 4 854 1
 159 0012 00BF     		nop
 160              	.LBE19:
 161              	.LBE18:
 162              		.loc 2 435 1
 163 0014 00BF     		nop
 164 0016 0C37     		adds	r7, r7, #12
 165              		.cfi_def_cfa_offset 4
 166 0018 BD46     		mov	sp, r7
 167              		.cfi_def_cfa_register 13
 168              		@ sp needed
 169 001a 80BC     		pop	{r7}
 170              		.cfi_restore 7
 171              		.cfi_def_cfa_offset 0
ARM GAS  C:\Users\DEVELO~1\AppData\Local\Temp\ccJs2sHK.s 			page 4


 172 001c 7047     		bx	lr
 173              		.cfi_endproc
 174              	.LFE203:
 175              		.size	chSysUnlock, .-chSysUnlock
 176              		.section	.text.chThdQueueObjectInit,"ax",%progbits
 177              		.align	1
 178              		.syntax unified
 179              		.thumb
 180              		.thumb_func
 181              		.type	chThdQueueObjectInit, %function
 182              	chThdQueueObjectInit:
 183              	.LFB236:
 184              		.file 5 "../../../os/rt/include/chthreads.h"
 185              		.loc 5 461 63
 186              		.cfi_startproc
 187              		@ args = 0, pretend = 0, frame = 8
 188              		@ frame_needed = 1, uses_anonymous_args = 0
 189 0000 80B5     		push	{r7, lr}
 190              		.cfi_def_cfa_offset 8
 191              		.cfi_offset 7, -8
 192              		.cfi_offset 14, -4
 193 0002 82B0     		sub	sp, sp, #8
 194              		.cfi_def_cfa_offset 16
 195 0004 00AF     		add	r7, sp, #0
 196              		.cfi_def_cfa_register 7
 197 0006 7860     		str	r0, [r7, #4]
 198              		.loc 5 463 3
 199 0008 7B68     		ldr	r3, [r7, #4]
 200 000a 1846     		mov	r0, r3
 201 000c FFF7FEFF 		bl	ch_queue_init
 202              		.loc 5 464 1
 203 0010 00BF     		nop
 204 0012 0837     		adds	r7, r7, #8
 205              		.cfi_def_cfa_offset 8
 206 0014 BD46     		mov	sp, r7
 207              		.cfi_def_cfa_register 13
 208              		@ sp needed
 209 0016 80BD     		pop	{r7, pc}
 210              		.cfi_endproc
 211              	.LFE236:
 212              		.size	chThdQueueObjectInit, .-chThdQueueObjectInit
 213              		.section	.text.osalSysLock,"ax",%progbits
 214              		.align	1
 215              		.syntax unified
 216              		.thumb
 217              		.thumb_func
 218              		.type	osalSysLock, %function
 219              	osalSysLock:
 220              	.LFB350:
 221              		.file 6 "../../../os/hal/osal/rt-nil/osal.h"
 222              		.loc 6 573 38
 223              		.cfi_startproc
 224              		@ args = 0, pretend = 0, frame = 0
 225              		@ frame_needed = 1, uses_anonymous_args = 0
 226 0000 80B5     		push	{r7, lr}
 227              		.cfi_def_cfa_offset 8
 228              		.cfi_offset 7, -8
ARM GAS  C:\Users\DEVELO~1\AppData\Local\Temp\ccJs2sHK.s 			page 5


 229              		.cfi_offset 14, -4
 230 0002 00AF     		add	r7, sp, #0
 231              		.cfi_def_cfa_register 7
 232              		.loc 6 575 3
 233 0004 FFF7FEFF 		bl	chSysLock
 234              		.loc 6 576 1
 235 0008 00BF     		nop
 236 000a 80BD     		pop	{r7, pc}
 237              		.cfi_endproc
 238              	.LFE350:
 239              		.size	osalSysLock, .-osalSysLock
 240              		.section	.text.osalSysUnlock,"ax",%progbits
 241              		.align	1
 242              		.syntax unified
 243              		.thumb
 244              		.thumb_func
 245              		.type	osalSysUnlock, %function
 246              	osalSysUnlock:
 247              	.LFB351:
 248              		.loc 6 584 40
 249              		.cfi_startproc
 250              		@ args = 0, pretend = 0, frame = 0
 251              		@ frame_needed = 1, uses_anonymous_args = 0
 252 0000 80B5     		push	{r7, lr}
 253              		.cfi_def_cfa_offset 8
 254              		.cfi_offset 7, -8
 255              		.cfi_offset 14, -4
 256 0002 00AF     		add	r7, sp, #0
 257              		.cfi_def_cfa_register 7
 258              		.loc 6 586 3
 259 0004 FFF7FEFF 		bl	chSysUnlock
 260              		.loc 6 587 1
 261 0008 00BF     		nop
 262 000a 80BD     		pop	{r7, pc}
 263              		.cfi_endproc
 264              	.LFE351:
 265              		.size	osalSysUnlock, .-osalSysUnlock
 266              		.section	.text.osalThreadQueueObjectInit,"ax",%progbits
 267              		.align	1
 268              		.syntax unified
 269              		.thumb
 270              		.thumb_func
 271              		.type	osalThreadQueueObjectInit, %function
 272              	osalThreadQueueObjectInit:
 273              	.LFB369:
 274              		.loc 6 864 68
 275              		.cfi_startproc
 276              		@ args = 0, pretend = 0, frame = 8
 277              		@ frame_needed = 1, uses_anonymous_args = 0
 278 0000 80B5     		push	{r7, lr}
 279              		.cfi_def_cfa_offset 8
 280              		.cfi_offset 7, -8
 281              		.cfi_offset 14, -4
 282 0002 82B0     		sub	sp, sp, #8
 283              		.cfi_def_cfa_offset 16
 284 0004 00AF     		add	r7, sp, #0
 285              		.cfi_def_cfa_register 7
ARM GAS  C:\Users\DEVELO~1\AppData\Local\Temp\ccJs2sHK.s 			page 6


 286 0006 7860     		str	r0, [r7, #4]
 287              		.loc 6 866 3
 288 0008 7868     		ldr	r0, [r7, #4]
 289 000a FFF7FEFF 		bl	chThdQueueObjectInit
 290              		.loc 6 867 1
 291 000e 00BF     		nop
 292 0010 0837     		adds	r7, r7, #8
 293              		.cfi_def_cfa_offset 8
 294 0012 BD46     		mov	sp, r7
 295              		.cfi_def_cfa_register 13
 296              		@ sp needed
 297 0014 80BD     		pop	{r7, pc}
 298              		.cfi_endproc
 299              	.LFE369:
 300              		.size	osalThreadQueueObjectInit, .-osalThreadQueueObjectInit
 301              		.section	.text.osalThreadEnqueueTimeoutS,"ax",%progbits
 302              		.align	1
 303              		.syntax unified
 304              		.thumb
 305              		.thumb_func
 306              		.type	osalThreadEnqueueTimeoutS, %function
 307              	osalThreadEnqueueTimeoutS:
 308              	.LFB370:
 309              		.loc 6 893 70
 310              		.cfi_startproc
 311              		@ args = 0, pretend = 0, frame = 8
 312              		@ frame_needed = 1, uses_anonymous_args = 0
 313 0000 80B5     		push	{r7, lr}
 314              		.cfi_def_cfa_offset 8
 315              		.cfi_offset 7, -8
 316              		.cfi_offset 14, -4
 317 0002 82B0     		sub	sp, sp, #8
 318              		.cfi_def_cfa_offset 16
 319 0004 00AF     		add	r7, sp, #0
 320              		.cfi_def_cfa_register 7
 321 0006 7860     		str	r0, [r7, #4]
 322 0008 3960     		str	r1, [r7]
 323              		.loc 6 895 10
 324 000a 3968     		ldr	r1, [r7]
 325 000c 7868     		ldr	r0, [r7, #4]
 326 000e FFF7FEFF 		bl	chThdEnqueueTimeoutS
 327 0012 0346     		mov	r3, r0
 328              		.loc 6 896 1
 329 0014 1846     		mov	r0, r3
 330 0016 0837     		adds	r7, r7, #8
 331              		.cfi_def_cfa_offset 8
 332 0018 BD46     		mov	sp, r7
 333              		.cfi_def_cfa_register 13
 334              		@ sp needed
 335 001a 80BD     		pop	{r7, pc}
 336              		.cfi_endproc
 337              	.LFE370:
 338              		.size	osalThreadEnqueueTimeoutS, .-osalThreadEnqueueTimeoutS
 339              		.section	.text.osalThreadDequeueNextI,"ax",%progbits
 340              		.align	1
 341              		.syntax unified
 342              		.thumb
ARM GAS  C:\Users\DEVELO~1\AppData\Local\Temp\ccJs2sHK.s 			page 7


 343              		.thumb_func
 344              		.type	osalThreadDequeueNextI, %function
 345              	osalThreadDequeueNextI:
 346              	.LFB371:
 347              		.loc 6 906 76
 348              		.cfi_startproc
 349              		@ args = 0, pretend = 0, frame = 8
 350              		@ frame_needed = 1, uses_anonymous_args = 0
 351 0000 80B5     		push	{r7, lr}
 352              		.cfi_def_cfa_offset 8
 353              		.cfi_offset 7, -8
 354              		.cfi_offset 14, -4
 355 0002 82B0     		sub	sp, sp, #8
 356              		.cfi_def_cfa_offset 16
 357 0004 00AF     		add	r7, sp, #0
 358              		.cfi_def_cfa_register 7
 359 0006 7860     		str	r0, [r7, #4]
 360 0008 3960     		str	r1, [r7]
 361              		.loc 6 908 3
 362 000a 3968     		ldr	r1, [r7]
 363 000c 7868     		ldr	r0, [r7, #4]
 364 000e FFF7FEFF 		bl	chThdDequeueNextI
 365              		.loc 6 909 1
 366 0012 00BF     		nop
 367 0014 0837     		adds	r7, r7, #8
 368              		.cfi_def_cfa_offset 8
 369 0016 BD46     		mov	sp, r7
 370              		.cfi_def_cfa_register 13
 371              		@ sp needed
 372 0018 80BD     		pop	{r7, pc}
 373              		.cfi_endproc
 374              	.LFE371:
 375              		.size	osalThreadDequeueNextI, .-osalThreadDequeueNextI
 376              		.section	.text.osalThreadDequeueAllI,"ax",%progbits
 377              		.align	1
 378              		.syntax unified
 379              		.thumb
 380              		.thumb_func
 381              		.type	osalThreadDequeueAllI, %function
 382              	osalThreadDequeueAllI:
 383              	.LFB372:
 384              		.loc 6 919 75
 385              		.cfi_startproc
 386              		@ args = 0, pretend = 0, frame = 8
 387              		@ frame_needed = 1, uses_anonymous_args = 0
 388 0000 80B5     		push	{r7, lr}
 389              		.cfi_def_cfa_offset 8
 390              		.cfi_offset 7, -8
 391              		.cfi_offset 14, -4
 392 0002 82B0     		sub	sp, sp, #8
 393              		.cfi_def_cfa_offset 16
 394 0004 00AF     		add	r7, sp, #0
 395              		.cfi_def_cfa_register 7
 396 0006 7860     		str	r0, [r7, #4]
 397 0008 3960     		str	r1, [r7]
 398              		.loc 6 921 3
 399 000a 3968     		ldr	r1, [r7]
ARM GAS  C:\Users\DEVELO~1\AppData\Local\Temp\ccJs2sHK.s 			page 8


 400 000c 7868     		ldr	r0, [r7, #4]
 401 000e FFF7FEFF 		bl	chThdDequeueAllI
 402              		.loc 6 922 1
 403 0012 00BF     		nop
 404 0014 0837     		adds	r7, r7, #8
 405              		.cfi_def_cfa_offset 8
 406 0016 BD46     		mov	sp, r7
 407              		.cfi_def_cfa_register 13
 408              		@ sp needed
 409 0018 80BD     		pop	{r7, pc}
 410              		.cfi_endproc
 411              	.LFE372:
 412              		.size	osalThreadDequeueAllI, .-osalThreadDequeueAllI
 413              		.section	.text.iq_read,"ax",%progbits
 414              		.align	1
 415              		.syntax unified
 416              		.thumb
 417              		.thumb_func
 418              		.type	iq_read, %function
 419              	iq_read:
 420              	.LFB432:
 421              		.file 7 "../../../os/hal/src/hal_queues.c"
 422              		.loc 7 60 66
 423              		.cfi_startproc
 424              		@ args = 0, pretend = 0, frame = 24
 425              		@ frame_needed = 1, uses_anonymous_args = 0
 426 0000 80B5     		push	{r7, lr}
 427              		.cfi_def_cfa_offset 8
 428              		.cfi_offset 7, -8
 429              		.cfi_offset 14, -4
 430 0002 86B0     		sub	sp, sp, #24
 431              		.cfi_def_cfa_offset 32
 432 0004 00AF     		add	r7, sp, #0
 433              		.cfi_def_cfa_register 7
 434 0006 F860     		str	r0, [r7, #12]
 435 0008 B960     		str	r1, [r7, #8]
 436 000a 7A60     		str	r2, [r7, #4]
 437              		.loc 7 66 11
 438 000c FB68     		ldr	r3, [r7, #12]
 439 000e 9B68     		ldr	r3, [r3, #8]
 440              		.loc 7 66 6
 441 0010 7A68     		ldr	r2, [r7, #4]
 442 0012 9A42     		cmp	r2, r3
 443 0014 02D9     		bls	.L13
 444              		.loc 7 67 7
 445 0016 FB68     		ldr	r3, [r7, #12]
 446 0018 9B68     		ldr	r3, [r3, #8]
 447 001a 7B60     		str	r3, [r7, #4]
 448              	.L13:
 449              		.loc 7 72 20
 450 001c FB68     		ldr	r3, [r7, #12]
 451 001e 1A69     		ldr	r2, [r3, #16]
 452              		.loc 7 72 33
 453 0020 FB68     		ldr	r3, [r7, #12]
 454 0022 9B69     		ldr	r3, [r3, #24]
 455              		.loc 7 72 28
 456 0024 D31A     		subs	r3, r2, r3
ARM GAS  C:\Users\DEVELO~1\AppData\Local\Temp\ccJs2sHK.s 			page 9


 457              		.loc 7 72 6
 458 0026 7B61     		str	r3, [r7, #20]
 459              		.loc 7 74 6
 460 0028 7A68     		ldr	r2, [r7, #4]
 461 002a 7B69     		ldr	r3, [r7, #20]
 462 002c 9A42     		cmp	r2, r3
 463 002e 0DD2     		bcs	.L14
 464              		.loc 7 75 35
 465 0030 FB68     		ldr	r3, [r7, #12]
 466 0032 9B69     		ldr	r3, [r3, #24]
 467              		.loc 7 75 5
 468 0034 7A68     		ldr	r2, [r7, #4]
 469 0036 1946     		mov	r1, r3
 470 0038 B868     		ldr	r0, [r7, #8]
 471 003a FFF7FEFF 		bl	memcpy
 472              		.loc 7 76 18
 473 003e FB68     		ldr	r3, [r7, #12]
 474 0040 9A69     		ldr	r2, [r3, #24]
 475 0042 7B68     		ldr	r3, [r7, #4]
 476 0044 1A44     		add	r2, r2, r3
 477 0046 FB68     		ldr	r3, [r7, #12]
 478 0048 9A61     		str	r2, [r3, #24]
 479 004a 2BE0     		b	.L15
 480              	.L14:
 481              		.loc 7 78 11
 482 004c 7A68     		ldr	r2, [r7, #4]
 483 004e 7B69     		ldr	r3, [r7, #20]
 484 0050 9A42     		cmp	r2, r3
 485 0052 1CD9     		bls	.L16
 486              		.loc 7 79 35
 487 0054 FB68     		ldr	r3, [r7, #12]
 488 0056 9B69     		ldr	r3, [r3, #24]
 489              		.loc 7 79 5
 490 0058 7A69     		ldr	r2, [r7, #20]
 491 005a 1946     		mov	r1, r3
 492 005c B868     		ldr	r0, [r7, #8]
 493 005e FFF7FEFF 		bl	memcpy
 494              		.loc 7 80 8
 495 0062 BA68     		ldr	r2, [r7, #8]
 496 0064 7B69     		ldr	r3, [r7, #20]
 497 0066 1344     		add	r3, r3, r2
 498 0068 BB60     		str	r3, [r7, #8]
 499              		.loc 7 81 8
 500 006a 7A68     		ldr	r2, [r7, #4]
 501 006c 7B69     		ldr	r3, [r7, #20]
 502 006e D31A     		subs	r3, r2, r3
 503 0070 3B61     		str	r3, [r7, #16]
 504              		.loc 7 82 35
 505 0072 FB68     		ldr	r3, [r7, #12]
 506 0074 DB68     		ldr	r3, [r3, #12]
 507              		.loc 7 82 5
 508 0076 3A69     		ldr	r2, [r7, #16]
 509 0078 1946     		mov	r1, r3
 510 007a B868     		ldr	r0, [r7, #8]
 511 007c FFF7FEFF 		bl	memcpy
 512              		.loc 7 83 23
 513 0080 FB68     		ldr	r3, [r7, #12]
ARM GAS  C:\Users\DEVELO~1\AppData\Local\Temp\ccJs2sHK.s 			page 10


 514 0082 DA68     		ldr	r2, [r3, #12]
 515              		.loc 7 83 34
 516 0084 3B69     		ldr	r3, [r7, #16]
 517 0086 1A44     		add	r2, r2, r3
 518              		.loc 7 83 18
 519 0088 FB68     		ldr	r3, [r7, #12]
 520 008a 9A61     		str	r2, [r3, #24]
 521 008c 0AE0     		b	.L15
 522              	.L16:
 523              		.loc 7 86 35
 524 008e FB68     		ldr	r3, [r7, #12]
 525 0090 9B69     		ldr	r3, [r3, #24]
 526              		.loc 7 86 5
 527 0092 7A68     		ldr	r2, [r7, #4]
 528 0094 1946     		mov	r1, r3
 529 0096 B868     		ldr	r0, [r7, #8]
 530 0098 FFF7FEFF 		bl	memcpy
 531              		.loc 7 87 23
 532 009c FB68     		ldr	r3, [r7, #12]
 533 009e DA68     		ldr	r2, [r3, #12]
 534              		.loc 7 87 18
 535 00a0 FB68     		ldr	r3, [r7, #12]
 536 00a2 9A61     		str	r2, [r3, #24]
 537              	.L15:
 538              		.loc 7 90 18
 539 00a4 FB68     		ldr	r3, [r7, #12]
 540 00a6 9A68     		ldr	r2, [r3, #8]
 541 00a8 7B68     		ldr	r3, [r7, #4]
 542 00aa D21A     		subs	r2, r2, r3
 543 00ac FB68     		ldr	r3, [r7, #12]
 544 00ae 9A60     		str	r2, [r3, #8]
 545              		.loc 7 91 10
 546 00b0 7B68     		ldr	r3, [r7, #4]
 547              		.loc 7 92 1
 548 00b2 1846     		mov	r0, r3
 549 00b4 1837     		adds	r7, r7, #24
 550              		.cfi_def_cfa_offset 8
 551 00b6 BD46     		mov	sp, r7
 552              		.cfi_def_cfa_register 13
 553              		@ sp needed
 554 00b8 80BD     		pop	{r7, pc}
 555              		.cfi_endproc
 556              	.LFE432:
 557              		.size	iq_read, .-iq_read
 558              		.section	.text.oq_write,"ax",%progbits
 559              		.align	1
 560              		.syntax unified
 561              		.thumb
 562              		.thumb_func
 563              		.type	oq_write, %function
 564              	oq_write:
 565              	.LFB433:
 566              		.loc 7 108 74
 567              		.cfi_startproc
 568              		@ args = 0, pretend = 0, frame = 24
 569              		@ frame_needed = 1, uses_anonymous_args = 0
 570 0000 80B5     		push	{r7, lr}
ARM GAS  C:\Users\DEVELO~1\AppData\Local\Temp\ccJs2sHK.s 			page 11


 571              		.cfi_def_cfa_offset 8
 572              		.cfi_offset 7, -8
 573              		.cfi_offset 14, -4
 574 0002 86B0     		sub	sp, sp, #24
 575              		.cfi_def_cfa_offset 32
 576 0004 00AF     		add	r7, sp, #0
 577              		.cfi_def_cfa_register 7
 578 0006 F860     		str	r0, [r7, #12]
 579 0008 B960     		str	r1, [r7, #8]
 580 000a 7A60     		str	r2, [r7, #4]
 581              		.loc 7 114 11
 582 000c FB68     		ldr	r3, [r7, #12]
 583 000e 9B68     		ldr	r3, [r3, #8]
 584              		.loc 7 114 6
 585 0010 7A68     		ldr	r2, [r7, #4]
 586 0012 9A42     		cmp	r2, r3
 587 0014 02D9     		bls	.L19
 588              		.loc 7 115 7
 589 0016 FB68     		ldr	r3, [r7, #12]
 590 0018 9B68     		ldr	r3, [r3, #8]
 591 001a 7B60     		str	r3, [r7, #4]
 592              	.L19:
 593              		.loc 7 120 20
 594 001c FB68     		ldr	r3, [r7, #12]
 595 001e 1A69     		ldr	r2, [r3, #16]
 596              		.loc 7 120 33
 597 0020 FB68     		ldr	r3, [r7, #12]
 598 0022 5B69     		ldr	r3, [r3, #20]
 599              		.loc 7 120 28
 600 0024 D31A     		subs	r3, r2, r3
 601              		.loc 7 120 6
 602 0026 7B61     		str	r3, [r7, #20]
 603              		.loc 7 122 6
 604 0028 7A68     		ldr	r2, [r7, #4]
 605 002a 7B69     		ldr	r3, [r7, #20]
 606 002c 9A42     		cmp	r2, r3
 607 002e 0DD2     		bcs	.L20
 608              		.loc 7 123 23
 609 0030 FB68     		ldr	r3, [r7, #12]
 610 0032 5B69     		ldr	r3, [r3, #20]
 611              		.loc 7 123 5
 612 0034 7A68     		ldr	r2, [r7, #4]
 613 0036 B968     		ldr	r1, [r7, #8]
 614 0038 1846     		mov	r0, r3
 615 003a FFF7FEFF 		bl	memcpy
 616              		.loc 7 124 18
 617 003e FB68     		ldr	r3, [r7, #12]
 618 0040 5A69     		ldr	r2, [r3, #20]
 619 0042 7B68     		ldr	r3, [r7, #4]
 620 0044 1A44     		add	r2, r2, r3
 621 0046 FB68     		ldr	r3, [r7, #12]
 622 0048 5A61     		str	r2, [r3, #20]
 623 004a 2BE0     		b	.L21
 624              	.L20:
 625              		.loc 7 126 11
 626 004c 7A68     		ldr	r2, [r7, #4]
 627 004e 7B69     		ldr	r3, [r7, #20]
ARM GAS  C:\Users\DEVELO~1\AppData\Local\Temp\ccJs2sHK.s 			page 12


 628 0050 9A42     		cmp	r2, r3
 629 0052 1CD9     		bls	.L22
 630              		.loc 7 127 23
 631 0054 FB68     		ldr	r3, [r7, #12]
 632 0056 5B69     		ldr	r3, [r3, #20]
 633              		.loc 7 127 5
 634 0058 7A69     		ldr	r2, [r7, #20]
 635 005a B968     		ldr	r1, [r7, #8]
 636 005c 1846     		mov	r0, r3
 637 005e FFF7FEFF 		bl	memcpy
 638              		.loc 7 128 8
 639 0062 BA68     		ldr	r2, [r7, #8]
 640 0064 7B69     		ldr	r3, [r7, #20]
 641 0066 1344     		add	r3, r3, r2
 642 0068 BB60     		str	r3, [r7, #8]
 643              		.loc 7 129 8
 644 006a 7A68     		ldr	r2, [r7, #4]
 645 006c 7B69     		ldr	r3, [r7, #20]
 646 006e D31A     		subs	r3, r2, r3
 647 0070 3B61     		str	r3, [r7, #16]
 648              		.loc 7 130 23
 649 0072 FB68     		ldr	r3, [r7, #12]
 650 0074 DB68     		ldr	r3, [r3, #12]
 651              		.loc 7 130 5
 652 0076 3A69     		ldr	r2, [r7, #16]
 653 0078 B968     		ldr	r1, [r7, #8]
 654 007a 1846     		mov	r0, r3
 655 007c FFF7FEFF 		bl	memcpy
 656              		.loc 7 131 23
 657 0080 FB68     		ldr	r3, [r7, #12]
 658 0082 DA68     		ldr	r2, [r3, #12]
 659              		.loc 7 131 34
 660 0084 3B69     		ldr	r3, [r7, #16]
 661 0086 1A44     		add	r2, r2, r3
 662              		.loc 7 131 18
 663 0088 FB68     		ldr	r3, [r7, #12]
 664 008a 5A61     		str	r2, [r3, #20]
 665 008c 0AE0     		b	.L21
 666              	.L22:
 667              		.loc 7 134 23
 668 008e FB68     		ldr	r3, [r7, #12]
 669 0090 5B69     		ldr	r3, [r3, #20]
 670              		.loc 7 134 5
 671 0092 7A68     		ldr	r2, [r7, #4]
 672 0094 B968     		ldr	r1, [r7, #8]
 673 0096 1846     		mov	r0, r3
 674 0098 FFF7FEFF 		bl	memcpy
 675              		.loc 7 135 23
 676 009c FB68     		ldr	r3, [r7, #12]
 677 009e DA68     		ldr	r2, [r3, #12]
 678              		.loc 7 135 18
 679 00a0 FB68     		ldr	r3, [r7, #12]
 680 00a2 5A61     		str	r2, [r3, #20]
 681              	.L21:
 682              		.loc 7 138 18
 683 00a4 FB68     		ldr	r3, [r7, #12]
 684 00a6 9A68     		ldr	r2, [r3, #8]
ARM GAS  C:\Users\DEVELO~1\AppData\Local\Temp\ccJs2sHK.s 			page 13


 685 00a8 7B68     		ldr	r3, [r7, #4]
 686 00aa D21A     		subs	r2, r2, r3
 687 00ac FB68     		ldr	r3, [r7, #12]
 688 00ae 9A60     		str	r2, [r3, #8]
 689              		.loc 7 139 10
 690 00b0 7B68     		ldr	r3, [r7, #4]
 691              		.loc 7 140 1
 692 00b2 1846     		mov	r0, r3
 693 00b4 1837     		adds	r7, r7, #24
 694              		.cfi_def_cfa_offset 8
 695 00b6 BD46     		mov	sp, r7
 696              		.cfi_def_cfa_register 13
 697              		@ sp needed
 698 00b8 80BD     		pop	{r7, pc}
 699              		.cfi_endproc
 700              	.LFE433:
 701              		.size	oq_write, .-oq_write
 702              		.section	.text.iqObjectInit,"ax",%progbits
 703              		.align	1
 704              		.global	iqObjectInit
 705              		.syntax unified
 706              		.thumb
 707              		.thumb_func
 708              		.type	iqObjectInit, %function
 709              	iqObjectInit:
 710              	.LFB434:
 711              		.loc 7 178 47
 712              		.cfi_startproc
 713              		@ args = 4, pretend = 0, frame = 16
 714              		@ frame_needed = 1, uses_anonymous_args = 0
 715 0000 80B5     		push	{r7, lr}
 716              		.cfi_def_cfa_offset 8
 717              		.cfi_offset 7, -8
 718              		.cfi_offset 14, -4
 719 0002 84B0     		sub	sp, sp, #16
 720              		.cfi_def_cfa_offset 24
 721 0004 00AF     		add	r7, sp, #0
 722              		.cfi_def_cfa_register 7
 723 0006 F860     		str	r0, [r7, #12]
 724 0008 B960     		str	r1, [r7, #8]
 725 000a 7A60     		str	r2, [r7, #4]
 726 000c 3B60     		str	r3, [r7]
 727              		.loc 7 180 3
 728 000e FB68     		ldr	r3, [r7, #12]
 729 0010 1846     		mov	r0, r3
 730 0012 FFF7FEFF 		bl	osalThreadQueueObjectInit
 731              		.loc 7 181 18
 732 0016 FB68     		ldr	r3, [r7, #12]
 733 0018 0022     		movs	r2, #0
 734 001a 9A60     		str	r2, [r3, #8]
 735              		.loc 7 182 18
 736 001c FB68     		ldr	r3, [r7, #12]
 737 001e BA68     		ldr	r2, [r7, #8]
 738 0020 DA60     		str	r2, [r3, #12]
 739              		.loc 7 183 18
 740 0022 FB68     		ldr	r3, [r7, #12]
 741 0024 BA68     		ldr	r2, [r7, #8]
ARM GAS  C:\Users\DEVELO~1\AppData\Local\Temp\ccJs2sHK.s 			page 14


 742 0026 9A61     		str	r2, [r3, #24]
 743              		.loc 7 184 18
 744 0028 FB68     		ldr	r3, [r7, #12]
 745 002a BA68     		ldr	r2, [r7, #8]
 746 002c 5A61     		str	r2, [r3, #20]
 747              		.loc 7 185 23
 748 002e BA68     		ldr	r2, [r7, #8]
 749 0030 7B68     		ldr	r3, [r7, #4]
 750 0032 1A44     		add	r2, r2, r3
 751              		.loc 7 185 18
 752 0034 FB68     		ldr	r3, [r7, #12]
 753 0036 1A61     		str	r2, [r3, #16]
 754              		.loc 7 186 18
 755 0038 FB68     		ldr	r3, [r7, #12]
 756 003a 3A68     		ldr	r2, [r7]
 757 003c DA61     		str	r2, [r3, #28]
 758              		.loc 7 187 18
 759 003e FB68     		ldr	r3, [r7, #12]
 760 0040 BA69     		ldr	r2, [r7, #24]
 761 0042 1A62     		str	r2, [r3, #32]
 762              		.loc 7 188 1
 763 0044 00BF     		nop
 764 0046 1037     		adds	r7, r7, #16
 765              		.cfi_def_cfa_offset 8
 766 0048 BD46     		mov	sp, r7
 767              		.cfi_def_cfa_register 13
 768              		@ sp needed
 769 004a 80BD     		pop	{r7, pc}
 770              		.cfi_endproc
 771              	.LFE434:
 772              		.size	iqObjectInit, .-iqObjectInit
 773              		.section	.text.iqResetI,"ax",%progbits
 774              		.align	1
 775              		.global	iqResetI
 776              		.syntax unified
 777              		.thumb
 778              		.thumb_func
 779              		.type	iqResetI, %function
 780              	iqResetI:
 781              	.LFB435:
 782              		.loc 7 201 35
 783              		.cfi_startproc
 784              		@ args = 0, pretend = 0, frame = 8
 785              		@ frame_needed = 1, uses_anonymous_args = 0
 786 0000 80B5     		push	{r7, lr}
 787              		.cfi_def_cfa_offset 8
 788              		.cfi_offset 7, -8
 789              		.cfi_offset 14, -4
 790 0002 82B0     		sub	sp, sp, #8
 791              		.cfi_def_cfa_offset 16
 792 0004 00AF     		add	r7, sp, #0
 793              		.cfi_def_cfa_register 7
 794 0006 7860     		str	r0, [r7, #4]
 795              		.loc 7 205 21
 796 0008 7B68     		ldr	r3, [r7, #4]
 797 000a DA68     		ldr	r2, [r3, #12]
 798              		.loc 7 205 16
ARM GAS  C:\Users\DEVELO~1\AppData\Local\Temp\ccJs2sHK.s 			page 15


 799 000c 7B68     		ldr	r3, [r7, #4]
 800 000e 9A61     		str	r2, [r3, #24]
 801              		.loc 7 206 21
 802 0010 7B68     		ldr	r3, [r7, #4]
 803 0012 DA68     		ldr	r2, [r3, #12]
 804              		.loc 7 206 16
 805 0014 7B68     		ldr	r3, [r7, #4]
 806 0016 5A61     		str	r2, [r3, #20]
 807              		.loc 7 207 18
 808 0018 7B68     		ldr	r3, [r7, #4]
 809 001a 0022     		movs	r2, #0
 810 001c 9A60     		str	r2, [r3, #8]
 811              		.loc 7 208 3
 812 001e 7B68     		ldr	r3, [r7, #4]
 813 0020 6FF00101 		mvn	r1, #1
 814 0024 1846     		mov	r0, r3
 815 0026 FFF7FEFF 		bl	osalThreadDequeueAllI
 816              		.loc 7 209 1
 817 002a 00BF     		nop
 818 002c 0837     		adds	r7, r7, #8
 819              		.cfi_def_cfa_offset 8
 820 002e BD46     		mov	sp, r7
 821              		.cfi_def_cfa_register 13
 822              		@ sp needed
 823 0030 80BD     		pop	{r7, pc}
 824              		.cfi_endproc
 825              	.LFE435:
 826              		.size	iqResetI, .-iqResetI
 827              		.section	.text.iqPutI,"ax",%progbits
 828              		.align	1
 829              		.global	iqPutI
 830              		.syntax unified
 831              		.thumb
 832              		.thumb_func
 833              		.type	iqPutI, %function
 834              	iqPutI:
 835              	.LFB436:
 836              		.loc 7 224 45
 837              		.cfi_startproc
 838              		@ args = 0, pretend = 0, frame = 8
 839              		@ frame_needed = 1, uses_anonymous_args = 0
 840 0000 80B5     		push	{r7, lr}
 841              		.cfi_def_cfa_offset 8
 842              		.cfi_offset 7, -8
 843              		.cfi_offset 14, -4
 844 0002 82B0     		sub	sp, sp, #8
 845              		.cfi_def_cfa_offset 16
 846 0004 00AF     		add	r7, sp, #0
 847              		.cfi_def_cfa_register 7
 848 0006 7860     		str	r0, [r7, #4]
 849 0008 0B46     		mov	r3, r1
 850 000a FB70     		strb	r3, [r7, #3]
 851              		.loc 7 229 8
 852 000c 7B68     		ldr	r3, [r7, #4]
 853 000e 5A69     		ldr	r2, [r3, #20]
 854 0010 7B68     		ldr	r3, [r7, #4]
 855 0012 9B69     		ldr	r3, [r3, #24]
ARM GAS  C:\Users\DEVELO~1\AppData\Local\Temp\ccJs2sHK.s 			page 16


 856 0014 9A42     		cmp	r2, r3
 857 0016 05D1     		bne	.L27
 858              		.loc 7 229 8 is_stmt 0 discriminator 1
 859 0018 7B68     		ldr	r3, [r7, #4]
 860 001a 9B68     		ldr	r3, [r3, #8]
 861 001c 002B     		cmp	r3, #0
 862 001e 01D0     		beq	.L27
 863              		.loc 7 229 8 discriminator 3
 864 0020 0123     		movs	r3, #1
 865 0022 00E0     		b	.L28
 866              	.L27:
 867              		.loc 7 229 8 discriminator 4
 868 0024 0023     		movs	r3, #0
 869              	.L28:
 870              		.loc 7 229 8 discriminator 6
 871 0026 03F00103 		and	r3, r3, #1
 872 002a DBB2     		uxtb	r3, r3
 873              		.loc 7 229 7 is_stmt 1 discriminator 6
 874 002c 83F00103 		eor	r3, r3, #1
 875 0030 DBB2     		uxtb	r3, r3
 876              		.loc 7 229 6 discriminator 6
 877 0032 002B     		cmp	r3, #0
 878 0034 1CD0     		beq	.L29
 879              		.loc 7 230 8
 880 0036 7B68     		ldr	r3, [r7, #4]
 881 0038 9B68     		ldr	r3, [r3, #8]
 882              		.loc 7 230 19
 883 003a 5A1C     		adds	r2, r3, #1
 884 003c 7B68     		ldr	r3, [r7, #4]
 885 003e 9A60     		str	r2, [r3, #8]
 886              		.loc 7 231 9
 887 0040 7B68     		ldr	r3, [r7, #4]
 888 0042 5B69     		ldr	r3, [r3, #20]
 889              		.loc 7 231 18
 890 0044 591C     		adds	r1, r3, #1
 891 0046 7A68     		ldr	r2, [r7, #4]
 892 0048 5161     		str	r1, [r2, #20]
 893              		.loc 7 231 21
 894 004a FA78     		ldrb	r2, [r7, #3]
 895 004c 1A70     		strb	r2, [r3]
 896              		.loc 7 232 12
 897 004e 7B68     		ldr	r3, [r7, #4]
 898 0050 5A69     		ldr	r2, [r3, #20]
 899              		.loc 7 232 28
 900 0052 7B68     		ldr	r3, [r7, #4]
 901 0054 1B69     		ldr	r3, [r3, #16]
 902              		.loc 7 232 8
 903 0056 9A42     		cmp	r2, r3
 904 0058 03D3     		bcc	.L30
 905              		.loc 7 233 25
 906 005a 7B68     		ldr	r3, [r7, #4]
 907 005c DA68     		ldr	r2, [r3, #12]
 908              		.loc 7 233 20
 909 005e 7B68     		ldr	r3, [r7, #4]
 910 0060 5A61     		str	r2, [r3, #20]
 911              	.L30:
 912              		.loc 7 236 5
ARM GAS  C:\Users\DEVELO~1\AppData\Local\Temp\ccJs2sHK.s 			page 17


 913 0062 7B68     		ldr	r3, [r7, #4]
 914 0064 0021     		movs	r1, #0
 915 0066 1846     		mov	r0, r3
 916 0068 FFF7FEFF 		bl	osalThreadDequeueNextI
 917              		.loc 7 238 12
 918 006c 0023     		movs	r3, #0
 919 006e 01E0     		b	.L31
 920              	.L29:
 921              		.loc 7 241 10
 922 0070 4FF0FF33 		mov	r3, #-1
 923              	.L31:
 924              		.loc 7 242 1
 925 0074 1846     		mov	r0, r3
 926 0076 0837     		adds	r7, r7, #8
 927              		.cfi_def_cfa_offset 8
 928 0078 BD46     		mov	sp, r7
 929              		.cfi_def_cfa_register 13
 930              		@ sp needed
 931 007a 80BD     		pop	{r7, pc}
 932              		.cfi_endproc
 933              	.LFE436:
 934              		.size	iqPutI, .-iqPutI
 935              		.section	.text.iqGetI,"ax",%progbits
 936              		.align	1
 937              		.global	iqGetI
 938              		.syntax unified
 939              		.thumb
 940              		.thumb_func
 941              		.type	iqGetI, %function
 942              	iqGetI:
 943              	.LFB437:
 944              		.loc 7 257 34
 945              		.cfi_startproc
 946              		@ args = 0, pretend = 0, frame = 16
 947              		@ frame_needed = 1, uses_anonymous_args = 0
 948 0000 80B5     		push	{r7, lr}
 949              		.cfi_def_cfa_offset 8
 950              		.cfi_offset 7, -8
 951              		.cfi_offset 14, -4
 952 0002 84B0     		sub	sp, sp, #16
 953              		.cfi_def_cfa_offset 24
 954 0004 00AF     		add	r7, sp, #0
 955              		.cfi_def_cfa_register 7
 956 0006 7860     		str	r0, [r7, #4]
 957              		.loc 7 262 8
 958 0008 7B68     		ldr	r3, [r7, #4]
 959 000a 9B68     		ldr	r3, [r3, #8]
 960              		.loc 7 262 6
 961 000c 002B     		cmp	r3, #0
 962 000e 1FD0     		beq	.L33
 963              	.LBB22:
 964              		.loc 7 266 8
 965 0010 7B68     		ldr	r3, [r7, #4]
 966 0012 9B68     		ldr	r3, [r3, #8]
 967              		.loc 7 266 19
 968 0014 5A1E     		subs	r2, r3, #1
 969 0016 7B68     		ldr	r3, [r7, #4]
ARM GAS  C:\Users\DEVELO~1\AppData\Local\Temp\ccJs2sHK.s 			page 18


 970 0018 9A60     		str	r2, [r3, #8]
 971              		.loc 7 267 13
 972 001a 7B68     		ldr	r3, [r7, #4]
 973 001c 9B69     		ldr	r3, [r3, #24]
 974              		.loc 7 267 22
 975 001e 591C     		adds	r1, r3, #1
 976 0020 7A68     		ldr	r2, [r7, #4]
 977 0022 9161     		str	r1, [r2, #24]
 978              		.loc 7 267 7
 979 0024 1B78     		ldrb	r3, [r3]
 980 0026 FB73     		strb	r3, [r7, #15]
 981              		.loc 7 268 12
 982 0028 7B68     		ldr	r3, [r7, #4]
 983 002a 9A69     		ldr	r2, [r3, #24]
 984              		.loc 7 268 28
 985 002c 7B68     		ldr	r3, [r7, #4]
 986 002e 1B69     		ldr	r3, [r3, #16]
 987              		.loc 7 268 8
 988 0030 9A42     		cmp	r2, r3
 989 0032 03D3     		bcc	.L34
 990              		.loc 7 269 25
 991 0034 7B68     		ldr	r3, [r7, #4]
 992 0036 DA68     		ldr	r2, [r3, #12]
 993              		.loc 7 269 20
 994 0038 7B68     		ldr	r3, [r7, #4]
 995 003a 9A61     		str	r2, [r3, #24]
 996              	.L34:
 997              		.loc 7 273 12
 998 003c 7B68     		ldr	r3, [r7, #4]
 999 003e DB69     		ldr	r3, [r3, #28]
 1000              		.loc 7 273 8
 1001 0040 002B     		cmp	r3, #0
 1002 0042 03D0     		beq	.L35
 1003              		.loc 7 274 10
 1004 0044 7B68     		ldr	r3, [r7, #4]
 1005 0046 DB69     		ldr	r3, [r3, #28]
 1006              		.loc 7 274 7
 1007 0048 7868     		ldr	r0, [r7, #4]
 1008 004a 9847     		blx	r3
 1009              	.LVL0:
 1010              	.L35:
 1011              		.loc 7 277 12
 1012 004c FB7B     		ldrb	r3, [r7, #15]	@ zero_extendqisi2
 1013 004e 01E0     		b	.L36
 1014              	.L33:
 1015              	.LBE22:
 1016              		.loc 7 280 10
 1017 0050 4FF0FF33 		mov	r3, #-1
 1018              	.L36:
 1019              		.loc 7 281 1
 1020 0054 1846     		mov	r0, r3
 1021 0056 1037     		adds	r7, r7, #16
 1022              		.cfi_def_cfa_offset 8
 1023 0058 BD46     		mov	sp, r7
 1024              		.cfi_def_cfa_register 13
 1025              		@ sp needed
 1026 005a 80BD     		pop	{r7, pc}
ARM GAS  C:\Users\DEVELO~1\AppData\Local\Temp\ccJs2sHK.s 			page 19


 1027              		.cfi_endproc
 1028              	.LFE437:
 1029              		.size	iqGetI, .-iqGetI
 1030              		.section	.text.iqGetTimeout,"ax",%progbits
 1031              		.align	1
 1032              		.global	iqGetTimeout
 1033              		.syntax unified
 1034              		.thumb
 1035              		.thumb_func
 1036              		.type	iqGetTimeout, %function
 1037              	iqGetTimeout:
 1038              	.LFB438:
 1039              		.loc 7 302 63
 1040              		.cfi_startproc
 1041              		@ args = 0, pretend = 0, frame = 16
 1042              		@ frame_needed = 1, uses_anonymous_args = 0
 1043 0000 80B5     		push	{r7, lr}
 1044              		.cfi_def_cfa_offset 8
 1045              		.cfi_offset 7, -8
 1046              		.cfi_offset 14, -4
 1047 0002 84B0     		sub	sp, sp, #16
 1048              		.cfi_def_cfa_offset 24
 1049 0004 00AF     		add	r7, sp, #0
 1050              		.cfi_def_cfa_register 7
 1051 0006 7860     		str	r0, [r7, #4]
 1052 0008 3960     		str	r1, [r7]
 1053              		.loc 7 305 3
 1054 000a FFF7FEFF 		bl	osalSysLock
 1055              		.loc 7 308 9
 1056 000e 0CE0     		b	.L38
 1057              	.L40:
 1058              	.LBB23:
 1059              		.loc 7 309 17
 1060 0010 7B68     		ldr	r3, [r7, #4]
 1061 0012 3968     		ldr	r1, [r7]
 1062 0014 1846     		mov	r0, r3
 1063 0016 FFF7FEFF 		bl	osalThreadEnqueueTimeoutS
 1064 001a B860     		str	r0, [r7, #8]
 1065              		.loc 7 310 8
 1066 001c BB68     		ldr	r3, [r7, #8]
 1067 001e 002B     		cmp	r3, #0
 1068 0020 03DA     		bge	.L38
 1069              		.loc 7 311 7
 1070 0022 FFF7FEFF 		bl	osalSysUnlock
 1071              		.loc 7 312 14
 1072 0026 BB68     		ldr	r3, [r7, #8]
 1073 0028 24E0     		b	.L39
 1074              	.L38:
 1075              	.LBE23:
 1076              		.loc 7 308 10
 1077 002a 7B68     		ldr	r3, [r7, #4]
 1078 002c 9B68     		ldr	r3, [r3, #8]
 1079 002e 002B     		cmp	r3, #0
 1080 0030 EED0     		beq	.L40
 1081              		.loc 7 317 6
 1082 0032 7B68     		ldr	r3, [r7, #4]
 1083 0034 9B68     		ldr	r3, [r3, #8]
ARM GAS  C:\Users\DEVELO~1\AppData\Local\Temp\ccJs2sHK.s 			page 20


 1084              		.loc 7 317 17
 1085 0036 5A1E     		subs	r2, r3, #1
 1086 0038 7B68     		ldr	r3, [r7, #4]
 1087 003a 9A60     		str	r2, [r3, #8]
 1088              		.loc 7 318 11
 1089 003c 7B68     		ldr	r3, [r7, #4]
 1090 003e 9B69     		ldr	r3, [r3, #24]
 1091              		.loc 7 318 20
 1092 0040 591C     		adds	r1, r3, #1
 1093 0042 7A68     		ldr	r2, [r7, #4]
 1094 0044 9161     		str	r1, [r2, #24]
 1095              		.loc 7 318 5
 1096 0046 1B78     		ldrb	r3, [r3]
 1097 0048 FB73     		strb	r3, [r7, #15]
 1098              		.loc 7 319 10
 1099 004a 7B68     		ldr	r3, [r7, #4]
 1100 004c 9A69     		ldr	r2, [r3, #24]
 1101              		.loc 7 319 26
 1102 004e 7B68     		ldr	r3, [r7, #4]
 1103 0050 1B69     		ldr	r3, [r3, #16]
 1104              		.loc 7 319 6
 1105 0052 9A42     		cmp	r2, r3
 1106 0054 03D3     		bcc	.L41
 1107              		.loc 7 320 23
 1108 0056 7B68     		ldr	r3, [r7, #4]
 1109 0058 DA68     		ldr	r2, [r3, #12]
 1110              		.loc 7 320 18
 1111 005a 7B68     		ldr	r3, [r7, #4]
 1112 005c 9A61     		str	r2, [r3, #24]
 1113              	.L41:
 1114              		.loc 7 324 10
 1115 005e 7B68     		ldr	r3, [r7, #4]
 1116 0060 DB69     		ldr	r3, [r3, #28]
 1117              		.loc 7 324 6
 1118 0062 002B     		cmp	r3, #0
 1119 0064 03D0     		beq	.L42
 1120              		.loc 7 325 8
 1121 0066 7B68     		ldr	r3, [r7, #4]
 1122 0068 DB69     		ldr	r3, [r3, #28]
 1123              		.loc 7 325 5
 1124 006a 7868     		ldr	r0, [r7, #4]
 1125 006c 9847     		blx	r3
 1126              	.LVL1:
 1127              	.L42:
 1128              		.loc 7 328 3
 1129 006e FFF7FEFF 		bl	osalSysUnlock
 1130              		.loc 7 330 10
 1131 0072 FB7B     		ldrb	r3, [r7, #15]	@ zero_extendqisi2
 1132              	.L39:
 1133              		.loc 7 331 1
 1134 0074 1846     		mov	r0, r3
 1135 0076 1037     		adds	r7, r7, #16
 1136              		.cfi_def_cfa_offset 8
 1137 0078 BD46     		mov	sp, r7
 1138              		.cfi_def_cfa_register 13
 1139              		@ sp needed
 1140 007a 80BD     		pop	{r7, pc}
ARM GAS  C:\Users\DEVELO~1\AppData\Local\Temp\ccJs2sHK.s 			page 21


 1141              		.cfi_endproc
 1142              	.LFE438:
 1143              		.size	iqGetTimeout, .-iqGetTimeout
 1144              		.section	.text.iqReadI,"ax",%progbits
 1145              		.align	1
 1146              		.global	iqReadI
 1147              		.syntax unified
 1148              		.thumb
 1149              		.thumb_func
 1150              		.type	iqReadI, %function
 1151              	iqReadI:
 1152              	.LFB439:
 1153              		.loc 7 346 59
 1154              		.cfi_startproc
 1155              		@ args = 0, pretend = 0, frame = 24
 1156              		@ frame_needed = 1, uses_anonymous_args = 0
 1157 0000 80B5     		push	{r7, lr}
 1158              		.cfi_def_cfa_offset 8
 1159              		.cfi_offset 7, -8
 1160              		.cfi_offset 14, -4
 1161 0002 86B0     		sub	sp, sp, #24
 1162              		.cfi_def_cfa_offset 32
 1163 0004 00AF     		add	r7, sp, #0
 1164              		.cfi_def_cfa_register 7
 1165 0006 F860     		str	r0, [r7, #12]
 1166 0008 B960     		str	r1, [r7, #8]
 1167 000a 7A60     		str	r2, [r7, #4]
 1168              		.loc 7 347 13
 1169 000c FB68     		ldr	r3, [r7, #12]
 1170 000e DB69     		ldr	r3, [r3, #28]
 1171 0010 7B61     		str	r3, [r7, #20]
 1172              		.loc 7 352 8
 1173 0012 7A68     		ldr	r2, [r7, #4]
 1174 0014 B968     		ldr	r1, [r7, #8]
 1175 0016 F868     		ldr	r0, [r7, #12]
 1176 0018 FFF7FEFF 		bl	iq_read
 1177 001c 3861     		str	r0, [r7, #16]
 1178              		.loc 7 356 6
 1179 001e 3B69     		ldr	r3, [r7, #16]
 1180 0020 002B     		cmp	r3, #0
 1181 0022 05D0     		beq	.L44
 1182              		.loc 7 356 24 discriminator 1
 1183 0024 7B69     		ldr	r3, [r7, #20]
 1184 0026 002B     		cmp	r3, #0
 1185 0028 02D0     		beq	.L44
 1186              		.loc 7 357 5
 1187 002a 7B69     		ldr	r3, [r7, #20]
 1188 002c F868     		ldr	r0, [r7, #12]
 1189 002e 9847     		blx	r3
 1190              	.LVL2:
 1191              	.L44:
 1192              		.loc 7 360 10
 1193 0030 3B69     		ldr	r3, [r7, #16]
 1194              		.loc 7 361 1
 1195 0032 1846     		mov	r0, r3
 1196 0034 1837     		adds	r7, r7, #24
 1197              		.cfi_def_cfa_offset 8
ARM GAS  C:\Users\DEVELO~1\AppData\Local\Temp\ccJs2sHK.s 			page 22


 1198 0036 BD46     		mov	sp, r7
 1199              		.cfi_def_cfa_register 13
 1200              		@ sp needed
 1201 0038 80BD     		pop	{r7, pc}
 1202              		.cfi_endproc
 1203              	.LFE439:
 1204              		.size	iqReadI, .-iqReadI
 1205              		.section	.text.iqReadTimeout,"ax",%progbits
 1206              		.align	1
 1207              		.global	iqReadTimeout
 1208              		.syntax unified
 1209              		.thumb
 1210              		.thumb_func
 1211              		.type	iqReadTimeout, %function
 1212              	iqReadTimeout:
 1213              	.LFB440:
 1214              		.loc 7 387 55
 1215              		.cfi_startproc
 1216              		@ args = 0, pretend = 0, frame = 32
 1217              		@ frame_needed = 1, uses_anonymous_args = 0
 1218 0000 80B5     		push	{r7, lr}
 1219              		.cfi_def_cfa_offset 8
 1220              		.cfi_offset 7, -8
 1221              		.cfi_offset 14, -4
 1222 0002 88B0     		sub	sp, sp, #32
 1223              		.cfi_def_cfa_offset 40
 1224 0004 00AF     		add	r7, sp, #0
 1225              		.cfi_def_cfa_register 7
 1226 0006 F860     		str	r0, [r7, #12]
 1227 0008 B960     		str	r1, [r7, #8]
 1228 000a 7A60     		str	r2, [r7, #4]
 1229 000c 3B60     		str	r3, [r7]
 1230              		.loc 7 388 13
 1231 000e FB68     		ldr	r3, [r7, #12]
 1232 0010 DB69     		ldr	r3, [r3, #28]
 1233 0012 FB61     		str	r3, [r7, #28]
 1234              		.loc 7 389 10
 1235 0014 7B68     		ldr	r3, [r7, #4]
 1236 0016 BB61     		str	r3, [r7, #24]
 1237              		.loc 7 393 3
 1238 0018 FFF7FEFF 		bl	osalSysLock
 1239              		.loc 7 395 9
 1240 001c 24E0     		b	.L47
 1241              	.L51:
 1242              	.LBB24:
 1243              		.loc 7 398 12
 1244 001e 7A68     		ldr	r2, [r7, #4]
 1245 0020 B968     		ldr	r1, [r7, #8]
 1246 0022 F868     		ldr	r0, [r7, #12]
 1247 0024 FFF7FEFF 		bl	iq_read
 1248 0028 7861     		str	r0, [r7, #20]
 1249              		.loc 7 399 8
 1250 002a 7B69     		ldr	r3, [r7, #20]
 1251 002c 002B     		cmp	r3, #0
 1252 002e 09D1     		bne	.L48
 1253              	.LBB25:
 1254              		.loc 7 400 19
ARM GAS  C:\Users\DEVELO~1\AppData\Local\Temp\ccJs2sHK.s 			page 23


 1255 0030 FB68     		ldr	r3, [r7, #12]
 1256 0032 3968     		ldr	r1, [r7]
 1257 0034 1846     		mov	r0, r3
 1258 0036 FFF7FEFF 		bl	osalThreadEnqueueTimeoutS
 1259 003a 3861     		str	r0, [r7, #16]
 1260              		.loc 7 403 10
 1261 003c 3B69     		ldr	r3, [r7, #16]
 1262 003e 002B     		cmp	r3, #0
 1263 0040 12D0     		beq	.L47
 1264              		.loc 7 404 9
 1265 0042 14E0     		b	.L49
 1266              	.L48:
 1267              	.LBE25:
 1268              		.loc 7 410 10
 1269 0044 FB69     		ldr	r3, [r7, #28]
 1270 0046 002B     		cmp	r3, #0
 1271 0048 02D0     		beq	.L50
 1272              		.loc 7 411 9
 1273 004a FB69     		ldr	r3, [r7, #28]
 1274 004c F868     		ldr	r0, [r7, #12]
 1275 004e 9847     		blx	r3
 1276              	.LVL3:
 1277              	.L50:
 1278              		.loc 7 415 7
 1279 0050 FFF7FEFF 		bl	osalSysUnlock
 1280              		.loc 7 417 10
 1281 0054 7A68     		ldr	r2, [r7, #4]
 1282 0056 7B69     		ldr	r3, [r7, #20]
 1283 0058 D31A     		subs	r3, r2, r3
 1284 005a 7B60     		str	r3, [r7, #4]
 1285              		.loc 7 418 10
 1286 005c BA68     		ldr	r2, [r7, #8]
 1287 005e 7B69     		ldr	r3, [r7, #20]
 1288 0060 1344     		add	r3, r3, r2
 1289 0062 BB60     		str	r3, [r7, #8]
 1290              		.loc 7 420 7
 1291 0064 FFF7FEFF 		bl	osalSysLock
 1292              	.L47:
 1293              	.LBE24:
 1294              		.loc 7 395 12
 1295 0068 7B68     		ldr	r3, [r7, #4]
 1296 006a 002B     		cmp	r3, #0
 1297 006c D7D1     		bne	.L51
 1298              	.L49:
 1299              		.loc 7 424 3
 1300 006e FFF7FEFF 		bl	osalSysUnlock
 1301              		.loc 7 425 14
 1302 0072 BA69     		ldr	r2, [r7, #24]
 1303 0074 7B68     		ldr	r3, [r7, #4]
 1304 0076 D31A     		subs	r3, r2, r3
 1305              		.loc 7 426 1
 1306 0078 1846     		mov	r0, r3
 1307 007a 2037     		adds	r7, r7, #32
 1308              		.cfi_def_cfa_offset 8
 1309 007c BD46     		mov	sp, r7
 1310              		.cfi_def_cfa_register 13
 1311              		@ sp needed
ARM GAS  C:\Users\DEVELO~1\AppData\Local\Temp\ccJs2sHK.s 			page 24


 1312 007e 80BD     		pop	{r7, pc}
 1313              		.cfi_endproc
 1314              	.LFE440:
 1315              		.size	iqReadTimeout, .-iqReadTimeout
 1316              		.section	.text.oqObjectInit,"ax",%progbits
 1317              		.align	1
 1318              		.global	oqObjectInit
 1319              		.syntax unified
 1320              		.thumb
 1321              		.thumb_func
 1322              		.type	oqObjectInit, %function
 1323              	oqObjectInit:
 1324              	.LFB441:
 1325              		.loc 7 444 47
 1326              		.cfi_startproc
 1327              		@ args = 4, pretend = 0, frame = 16
 1328              		@ frame_needed = 1, uses_anonymous_args = 0
 1329 0000 80B5     		push	{r7, lr}
 1330              		.cfi_def_cfa_offset 8
 1331              		.cfi_offset 7, -8
 1332              		.cfi_offset 14, -4
 1333 0002 84B0     		sub	sp, sp, #16
 1334              		.cfi_def_cfa_offset 24
 1335 0004 00AF     		add	r7, sp, #0
 1336              		.cfi_def_cfa_register 7
 1337 0006 F860     		str	r0, [r7, #12]
 1338 0008 B960     		str	r1, [r7, #8]
 1339 000a 7A60     		str	r2, [r7, #4]
 1340 000c 3B60     		str	r3, [r7]
 1341              		.loc 7 446 3
 1342 000e FB68     		ldr	r3, [r7, #12]
 1343 0010 1846     		mov	r0, r3
 1344 0012 FFF7FEFF 		bl	osalThreadQueueObjectInit
 1345              		.loc 7 447 18
 1346 0016 FB68     		ldr	r3, [r7, #12]
 1347 0018 7A68     		ldr	r2, [r7, #4]
 1348 001a 9A60     		str	r2, [r3, #8]
 1349              		.loc 7 448 18
 1350 001c FB68     		ldr	r3, [r7, #12]
 1351 001e BA68     		ldr	r2, [r7, #8]
 1352 0020 DA60     		str	r2, [r3, #12]
 1353              		.loc 7 449 18
 1354 0022 FB68     		ldr	r3, [r7, #12]
 1355 0024 BA68     		ldr	r2, [r7, #8]
 1356 0026 9A61     		str	r2, [r3, #24]
 1357              		.loc 7 450 18
 1358 0028 FB68     		ldr	r3, [r7, #12]
 1359 002a BA68     		ldr	r2, [r7, #8]
 1360 002c 5A61     		str	r2, [r3, #20]
 1361              		.loc 7 451 23
 1362 002e BA68     		ldr	r2, [r7, #8]
 1363 0030 7B68     		ldr	r3, [r7, #4]
 1364 0032 1A44     		add	r2, r2, r3
 1365              		.loc 7 451 18
 1366 0034 FB68     		ldr	r3, [r7, #12]
 1367 0036 1A61     		str	r2, [r3, #16]
 1368              		.loc 7 452 18
ARM GAS  C:\Users\DEVELO~1\AppData\Local\Temp\ccJs2sHK.s 			page 25


 1369 0038 FB68     		ldr	r3, [r7, #12]
 1370 003a 3A68     		ldr	r2, [r7]
 1371 003c DA61     		str	r2, [r3, #28]
 1372              		.loc 7 453 18
 1373 003e FB68     		ldr	r3, [r7, #12]
 1374 0040 BA69     		ldr	r2, [r7, #24]
 1375 0042 1A62     		str	r2, [r3, #32]
 1376              		.loc 7 454 1
 1377 0044 00BF     		nop
 1378 0046 1037     		adds	r7, r7, #16
 1379              		.cfi_def_cfa_offset 8
 1380 0048 BD46     		mov	sp, r7
 1381              		.cfi_def_cfa_register 13
 1382              		@ sp needed
 1383 004a 80BD     		pop	{r7, pc}
 1384              		.cfi_endproc
 1385              	.LFE441:
 1386              		.size	oqObjectInit, .-oqObjectInit
 1387              		.section	.text.oqResetI,"ax",%progbits
 1388              		.align	1
 1389              		.global	oqResetI
 1390              		.syntax unified
 1391              		.thumb
 1392              		.thumb_func
 1393              		.type	oqResetI, %function
 1394              	oqResetI:
 1395              	.LFB442:
 1396              		.loc 7 467 36
 1397              		.cfi_startproc
 1398              		@ args = 0, pretend = 0, frame = 8
 1399              		@ frame_needed = 1, uses_anonymous_args = 0
 1400 0000 80B5     		push	{r7, lr}
 1401              		.cfi_def_cfa_offset 8
 1402              		.cfi_offset 7, -8
 1403              		.cfi_offset 14, -4
 1404 0002 82B0     		sub	sp, sp, #8
 1405              		.cfi_def_cfa_offset 16
 1406 0004 00AF     		add	r7, sp, #0
 1407              		.cfi_def_cfa_register 7
 1408 0006 7860     		str	r0, [r7, #4]
 1409              		.loc 7 471 21
 1410 0008 7B68     		ldr	r3, [r7, #4]
 1411 000a DA68     		ldr	r2, [r3, #12]
 1412              		.loc 7 471 16
 1413 000c 7B68     		ldr	r3, [r7, #4]
 1414 000e 9A61     		str	r2, [r3, #24]
 1415              		.loc 7 472 21
 1416 0010 7B68     		ldr	r3, [r7, #4]
 1417 0012 DA68     		ldr	r2, [r3, #12]
 1418              		.loc 7 472 16
 1419 0014 7B68     		ldr	r3, [r7, #4]
 1420 0016 5A61     		str	r2, [r3, #20]
 1421              		.loc 7 473 20
 1422 0018 7B68     		ldr	r3, [r7, #4]
 1423 001a 1A69     		ldr	r2, [r3, #16]
 1424 001c 7B68     		ldr	r3, [r7, #4]
 1425 001e DB68     		ldr	r3, [r3, #12]
ARM GAS  C:\Users\DEVELO~1\AppData\Local\Temp\ccJs2sHK.s 			page 26


 1426 0020 D31A     		subs	r3, r2, r3
 1427 0022 1A46     		mov	r2, r3
 1428              		.loc 7 473 18
 1429 0024 7B68     		ldr	r3, [r7, #4]
 1430 0026 9A60     		str	r2, [r3, #8]
 1431              		.loc 7 474 3
 1432 0028 7B68     		ldr	r3, [r7, #4]
 1433 002a 6FF00101 		mvn	r1, #1
 1434 002e 1846     		mov	r0, r3
 1435 0030 FFF7FEFF 		bl	osalThreadDequeueAllI
 1436              		.loc 7 475 1
 1437 0034 00BF     		nop
 1438 0036 0837     		adds	r7, r7, #8
 1439              		.cfi_def_cfa_offset 8
 1440 0038 BD46     		mov	sp, r7
 1441              		.cfi_def_cfa_register 13
 1442              		@ sp needed
 1443 003a 80BD     		pop	{r7, pc}
 1444              		.cfi_endproc
 1445              	.LFE442:
 1446              		.size	oqResetI, .-oqResetI
 1447              		.section	.text.oqPutI,"ax",%progbits
 1448              		.align	1
 1449              		.global	oqPutI
 1450              		.syntax unified
 1451              		.thumb
 1452              		.thumb_func
 1453              		.type	oqPutI, %function
 1454              	oqPutI:
 1455              	.LFB443:
 1456              		.loc 7 490 46
 1457              		.cfi_startproc
 1458              		@ args = 0, pretend = 0, frame = 8
 1459              		@ frame_needed = 1, uses_anonymous_args = 0
 1460 0000 80B5     		push	{r7, lr}
 1461              		.cfi_def_cfa_offset 8
 1462              		.cfi_offset 7, -8
 1463              		.cfi_offset 14, -4
 1464 0002 82B0     		sub	sp, sp, #8
 1465              		.cfi_def_cfa_offset 16
 1466 0004 00AF     		add	r7, sp, #0
 1467              		.cfi_def_cfa_register 7
 1468 0006 7860     		str	r0, [r7, #4]
 1469 0008 0B46     		mov	r3, r1
 1470 000a FB70     		strb	r3, [r7, #3]
 1471              		.loc 7 495 9
 1472 000c 00BF     		nop
 1473              		.loc 7 495 11
 1474 000e 7B68     		ldr	r3, [r7, #4]
 1475 0010 9B68     		ldr	r3, [r3, #8]
 1476              		.loc 7 495 10
 1477 0012 002B     		cmp	r3, #0
 1478 0014 1FD0     		beq	.L61
 1479              		.loc 7 497 8
 1480 0016 7B68     		ldr	r3, [r7, #4]
 1481 0018 9B68     		ldr	r3, [r3, #8]
 1482              		.loc 7 497 19
ARM GAS  C:\Users\DEVELO~1\AppData\Local\Temp\ccJs2sHK.s 			page 27


 1483 001a 5A1E     		subs	r2, r3, #1
 1484 001c 7B68     		ldr	r3, [r7, #4]
 1485 001e 9A60     		str	r2, [r3, #8]
 1486              		.loc 7 498 9
 1487 0020 7B68     		ldr	r3, [r7, #4]
 1488 0022 5B69     		ldr	r3, [r3, #20]
 1489              		.loc 7 498 18
 1490 0024 591C     		adds	r1, r3, #1
 1491 0026 7A68     		ldr	r2, [r7, #4]
 1492 0028 5161     		str	r1, [r2, #20]
 1493              		.loc 7 498 21
 1494 002a FA78     		ldrb	r2, [r7, #3]
 1495 002c 1A70     		strb	r2, [r3]
 1496              		.loc 7 499 12
 1497 002e 7B68     		ldr	r3, [r7, #4]
 1498 0030 5A69     		ldr	r2, [r3, #20]
 1499              		.loc 7 499 28
 1500 0032 7B68     		ldr	r3, [r7, #4]
 1501 0034 1B69     		ldr	r3, [r3, #16]
 1502              		.loc 7 499 8
 1503 0036 9A42     		cmp	r2, r3
 1504 0038 03D3     		bcc	.L57
 1505              		.loc 7 500 25
 1506 003a 7B68     		ldr	r3, [r7, #4]
 1507 003c DA68     		ldr	r2, [r3, #12]
 1508              		.loc 7 500 20
 1509 003e 7B68     		ldr	r3, [r7, #4]
 1510 0040 5A61     		str	r2, [r3, #20]
 1511              	.L57:
 1512              		.loc 7 504 12
 1513 0042 7B68     		ldr	r3, [r7, #4]
 1514 0044 DB69     		ldr	r3, [r3, #28]
 1515              		.loc 7 504 8
 1516 0046 002B     		cmp	r3, #0
 1517 0048 03D0     		beq	.L58
 1518              		.loc 7 505 10
 1519 004a 7B68     		ldr	r3, [r7, #4]
 1520 004c DB69     		ldr	r3, [r3, #28]
 1521              		.loc 7 505 7
 1522 004e 7868     		ldr	r0, [r7, #4]
 1523 0050 9847     		blx	r3
 1524              	.LVL4:
 1525              	.L58:
 1526              		.loc 7 508 12
 1527 0052 0023     		movs	r3, #0
 1528 0054 01E0     		b	.L59
 1529              	.L61:
 1530              		.loc 7 511 10
 1531 0056 4FF0FF33 		mov	r3, #-1
 1532              	.L59:
 1533              		.loc 7 512 1
 1534 005a 1846     		mov	r0, r3
 1535 005c 0837     		adds	r7, r7, #8
 1536              		.cfi_def_cfa_offset 8
 1537 005e BD46     		mov	sp, r7
 1538              		.cfi_def_cfa_register 13
 1539              		@ sp needed
ARM GAS  C:\Users\DEVELO~1\AppData\Local\Temp\ccJs2sHK.s 			page 28


 1540 0060 80BD     		pop	{r7, pc}
 1541              		.cfi_endproc
 1542              	.LFE443:
 1543              		.size	oqPutI, .-oqPutI
 1544              		.section	.text.oqPutTimeout,"ax",%progbits
 1545              		.align	1
 1546              		.global	oqPutTimeout
 1547              		.syntax unified
 1548              		.thumb
 1549              		.thumb_func
 1550              		.type	oqPutTimeout, %function
 1551              	oqPutTimeout:
 1552              	.LFB444:
 1553              		.loc 7 535 75
 1554              		.cfi_startproc
 1555              		@ args = 0, pretend = 0, frame = 24
 1556              		@ frame_needed = 1, uses_anonymous_args = 0
 1557 0000 80B5     		push	{r7, lr}
 1558              		.cfi_def_cfa_offset 8
 1559              		.cfi_offset 7, -8
 1560              		.cfi_offset 14, -4
 1561 0002 86B0     		sub	sp, sp, #24
 1562              		.cfi_def_cfa_offset 32
 1563 0004 00AF     		add	r7, sp, #0
 1564              		.cfi_def_cfa_register 7
 1565 0006 F860     		str	r0, [r7, #12]
 1566 0008 0B46     		mov	r3, r1
 1567 000a 7A60     		str	r2, [r7, #4]
 1568 000c FB72     		strb	r3, [r7, #11]
 1569              		.loc 7 537 3
 1570 000e FFF7FEFF 		bl	osalSysLock
 1571              		.loc 7 540 9
 1572 0012 0CE0     		b	.L63
 1573              	.L65:
 1574              	.LBB26:
 1575              		.loc 7 541 17
 1576 0014 FB68     		ldr	r3, [r7, #12]
 1577 0016 7968     		ldr	r1, [r7, #4]
 1578 0018 1846     		mov	r0, r3
 1579 001a FFF7FEFF 		bl	osalThreadEnqueueTimeoutS
 1580 001e 7861     		str	r0, [r7, #20]
 1581              		.loc 7 542 8
 1582 0020 7B69     		ldr	r3, [r7, #20]
 1583 0022 002B     		cmp	r3, #0
 1584 0024 03DA     		bge	.L63
 1585              		.loc 7 543 7
 1586 0026 FFF7FEFF 		bl	osalSysUnlock
 1587              		.loc 7 544 14
 1588 002a 7B69     		ldr	r3, [r7, #20]
 1589 002c 24E0     		b	.L64
 1590              	.L63:
 1591              	.LBE26:
 1592              		.loc 7 540 10
 1593 002e FB68     		ldr	r3, [r7, #12]
 1594 0030 9B68     		ldr	r3, [r3, #8]
 1595 0032 002B     		cmp	r3, #0
 1596 0034 EED0     		beq	.L65
ARM GAS  C:\Users\DEVELO~1\AppData\Local\Temp\ccJs2sHK.s 			page 29


 1597              		.loc 7 549 6
 1598 0036 FB68     		ldr	r3, [r7, #12]
 1599 0038 9B68     		ldr	r3, [r3, #8]
 1600              		.loc 7 549 17
 1601 003a 5A1E     		subs	r2, r3, #1
 1602 003c FB68     		ldr	r3, [r7, #12]
 1603 003e 9A60     		str	r2, [r3, #8]
 1604              		.loc 7 550 7
 1605 0040 FB68     		ldr	r3, [r7, #12]
 1606 0042 5B69     		ldr	r3, [r3, #20]
 1607              		.loc 7 550 16
 1608 0044 591C     		adds	r1, r3, #1
 1609 0046 FA68     		ldr	r2, [r7, #12]
 1610 0048 5161     		str	r1, [r2, #20]
 1611              		.loc 7 550 19
 1612 004a FA7A     		ldrb	r2, [r7, #11]
 1613 004c 1A70     		strb	r2, [r3]
 1614              		.loc 7 551 10
 1615 004e FB68     		ldr	r3, [r7, #12]
 1616 0050 5A69     		ldr	r2, [r3, #20]
 1617              		.loc 7 551 26
 1618 0052 FB68     		ldr	r3, [r7, #12]
 1619 0054 1B69     		ldr	r3, [r3, #16]
 1620              		.loc 7 551 6
 1621 0056 9A42     		cmp	r2, r3
 1622 0058 03D3     		bcc	.L66
 1623              		.loc 7 552 23
 1624 005a FB68     		ldr	r3, [r7, #12]
 1625 005c DA68     		ldr	r2, [r3, #12]
 1626              		.loc 7 552 18
 1627 005e FB68     		ldr	r3, [r7, #12]
 1628 0060 5A61     		str	r2, [r3, #20]
 1629              	.L66:
 1630              		.loc 7 556 10
 1631 0062 FB68     		ldr	r3, [r7, #12]
 1632 0064 DB69     		ldr	r3, [r3, #28]
 1633              		.loc 7 556 6
 1634 0066 002B     		cmp	r3, #0
 1635 0068 03D0     		beq	.L67
 1636              		.loc 7 557 8
 1637 006a FB68     		ldr	r3, [r7, #12]
 1638 006c DB69     		ldr	r3, [r3, #28]
 1639              		.loc 7 557 5
 1640 006e F868     		ldr	r0, [r7, #12]
 1641 0070 9847     		blx	r3
 1642              	.LVL5:
 1643              	.L67:
 1644              		.loc 7 560 3
 1645 0072 FFF7FEFF 		bl	osalSysUnlock
 1646              		.loc 7 562 10
 1647 0076 0023     		movs	r3, #0
 1648              	.L64:
 1649              		.loc 7 563 1
 1650 0078 1846     		mov	r0, r3
 1651 007a 1837     		adds	r7, r7, #24
 1652              		.cfi_def_cfa_offset 8
 1653 007c BD46     		mov	sp, r7
ARM GAS  C:\Users\DEVELO~1\AppData\Local\Temp\ccJs2sHK.s 			page 30


 1654              		.cfi_def_cfa_register 13
 1655              		@ sp needed
 1656 007e 80BD     		pop	{r7, pc}
 1657              		.cfi_endproc
 1658              	.LFE444:
 1659              		.size	oqPutTimeout, .-oqPutTimeout
 1660              		.section	.text.oqGetI,"ax",%progbits
 1661              		.align	1
 1662              		.global	oqGetI
 1663              		.syntax unified
 1664              		.thumb
 1665              		.thumb_func
 1666              		.type	oqGetI, %function
 1667              	oqGetI:
 1668              	.LFB445:
 1669              		.loc 7 576 35
 1670              		.cfi_startproc
 1671              		@ args = 0, pretend = 0, frame = 16
 1672              		@ frame_needed = 1, uses_anonymous_args = 0
 1673 0000 80B5     		push	{r7, lr}
 1674              		.cfi_def_cfa_offset 8
 1675              		.cfi_offset 7, -8
 1676              		.cfi_offset 14, -4
 1677 0002 84B0     		sub	sp, sp, #16
 1678              		.cfi_def_cfa_offset 24
 1679 0004 00AF     		add	r7, sp, #0
 1680              		.cfi_def_cfa_register 7
 1681 0006 7860     		str	r0, [r7, #4]
 1682              		.loc 7 581 8
 1683 0008 7B68     		ldr	r3, [r7, #4]
 1684 000a 5A69     		ldr	r2, [r3, #20]
 1685 000c 7B68     		ldr	r3, [r7, #4]
 1686 000e 9B69     		ldr	r3, [r3, #24]
 1687 0010 9A42     		cmp	r2, r3
 1688 0012 05D1     		bne	.L69
 1689              		.loc 7 581 8 is_stmt 0 discriminator 1
 1690 0014 7B68     		ldr	r3, [r7, #4]
 1691 0016 9B68     		ldr	r3, [r3, #8]
 1692 0018 002B     		cmp	r3, #0
 1693 001a 01D0     		beq	.L69
 1694              		.loc 7 581 8 discriminator 3
 1695 001c 0123     		movs	r3, #1
 1696 001e 00E0     		b	.L70
 1697              	.L69:
 1698              		.loc 7 581 8 discriminator 4
 1699 0020 0023     		movs	r3, #0
 1700              	.L70:
 1701              		.loc 7 581 8 discriminator 6
 1702 0022 03F00103 		and	r3, r3, #1
 1703 0026 DBB2     		uxtb	r3, r3
 1704              		.loc 7 581 7 is_stmt 1 discriminator 6
 1705 0028 83F00103 		eor	r3, r3, #1
 1706 002c DBB2     		uxtb	r3, r3
 1707              		.loc 7 581 6 discriminator 6
 1708 002e 002B     		cmp	r3, #0
 1709 0030 1CD0     		beq	.L71
 1710              	.LBB27:
ARM GAS  C:\Users\DEVELO~1\AppData\Local\Temp\ccJs2sHK.s 			page 31


 1711              		.loc 7 584 8
 1712 0032 7B68     		ldr	r3, [r7, #4]
 1713 0034 9B68     		ldr	r3, [r3, #8]
 1714              		.loc 7 584 19
 1715 0036 5A1C     		adds	r2, r3, #1
 1716 0038 7B68     		ldr	r3, [r7, #4]
 1717 003a 9A60     		str	r2, [r3, #8]
 1718              		.loc 7 585 13
 1719 003c 7B68     		ldr	r3, [r7, #4]
 1720 003e 9B69     		ldr	r3, [r3, #24]
 1721              		.loc 7 585 22
 1722 0040 591C     		adds	r1, r3, #1
 1723 0042 7A68     		ldr	r2, [r7, #4]
 1724 0044 9161     		str	r1, [r2, #24]
 1725              		.loc 7 585 7
 1726 0046 1B78     		ldrb	r3, [r3]
 1727 0048 FB73     		strb	r3, [r7, #15]
 1728              		.loc 7 586 12
 1729 004a 7B68     		ldr	r3, [r7, #4]
 1730 004c 9A69     		ldr	r2, [r3, #24]
 1731              		.loc 7 586 28
 1732 004e 7B68     		ldr	r3, [r7, #4]
 1733 0050 1B69     		ldr	r3, [r3, #16]
 1734              		.loc 7 586 8
 1735 0052 9A42     		cmp	r2, r3
 1736 0054 03D3     		bcc	.L72
 1737              		.loc 7 587 25
 1738 0056 7B68     		ldr	r3, [r7, #4]
 1739 0058 DA68     		ldr	r2, [r3, #12]
 1740              		.loc 7 587 20
 1741 005a 7B68     		ldr	r3, [r7, #4]
 1742 005c 9A61     		str	r2, [r3, #24]
 1743              	.L72:
 1744              		.loc 7 590 5
 1745 005e 7B68     		ldr	r3, [r7, #4]
 1746 0060 0021     		movs	r1, #0
 1747 0062 1846     		mov	r0, r3
 1748 0064 FFF7FEFF 		bl	osalThreadDequeueNextI
 1749              		.loc 7 592 12
 1750 0068 FB7B     		ldrb	r3, [r7, #15]	@ zero_extendqisi2
 1751 006a 01E0     		b	.L73
 1752              	.L71:
 1753              	.LBE27:
 1754              		.loc 7 595 10
 1755 006c 4FF0FF33 		mov	r3, #-1
 1756              	.L73:
 1757              		.loc 7 596 1
 1758 0070 1846     		mov	r0, r3
 1759 0072 1037     		adds	r7, r7, #16
 1760              		.cfi_def_cfa_offset 8
 1761 0074 BD46     		mov	sp, r7
 1762              		.cfi_def_cfa_register 13
 1763              		@ sp needed
 1764 0076 80BD     		pop	{r7, pc}
 1765              		.cfi_endproc
 1766              	.LFE445:
 1767              		.size	oqGetI, .-oqGetI
ARM GAS  C:\Users\DEVELO~1\AppData\Local\Temp\ccJs2sHK.s 			page 32


 1768              		.section	.text.oqWriteI,"ax",%progbits
 1769              		.align	1
 1770              		.global	oqWriteI
 1771              		.syntax unified
 1772              		.thumb
 1773              		.thumb_func
 1774              		.type	oqWriteI, %function
 1775              	oqWriteI:
 1776              	.LFB446:
 1777              		.loc 7 611 67
 1778              		.cfi_startproc
 1779              		@ args = 0, pretend = 0, frame = 24
 1780              		@ frame_needed = 1, uses_anonymous_args = 0
 1781 0000 80B5     		push	{r7, lr}
 1782              		.cfi_def_cfa_offset 8
 1783              		.cfi_offset 7, -8
 1784              		.cfi_offset 14, -4
 1785 0002 86B0     		sub	sp, sp, #24
 1786              		.cfi_def_cfa_offset 32
 1787 0004 00AF     		add	r7, sp, #0
 1788              		.cfi_def_cfa_register 7
 1789 0006 F860     		str	r0, [r7, #12]
 1790 0008 B960     		str	r1, [r7, #8]
 1791 000a 7A60     		str	r2, [r7, #4]
 1792              		.loc 7 612 13
 1793 000c FB68     		ldr	r3, [r7, #12]
 1794 000e DB69     		ldr	r3, [r3, #28]
 1795 0010 7B61     		str	r3, [r7, #20]
 1796              		.loc 7 617 8
 1797 0012 7A68     		ldr	r2, [r7, #4]
 1798 0014 B968     		ldr	r1, [r7, #8]
 1799 0016 F868     		ldr	r0, [r7, #12]
 1800 0018 FFF7FEFF 		bl	oq_write
 1801 001c 3861     		str	r0, [r7, #16]
 1802              		.loc 7 621 6
 1803 001e 3B69     		ldr	r3, [r7, #16]
 1804 0020 002B     		cmp	r3, #0
 1805 0022 05D0     		beq	.L75
 1806              		.loc 7 621 24 discriminator 1
 1807 0024 7B69     		ldr	r3, [r7, #20]
 1808 0026 002B     		cmp	r3, #0
 1809 0028 02D0     		beq	.L75
 1810              		.loc 7 622 5
 1811 002a 7B69     		ldr	r3, [r7, #20]
 1812 002c F868     		ldr	r0, [r7, #12]
 1813 002e 9847     		blx	r3
 1814              	.LVL6:
 1815              	.L75:
 1816              		.loc 7 625 10
 1817 0030 3B69     		ldr	r3, [r7, #16]
 1818              		.loc 7 626 1
 1819 0032 1846     		mov	r0, r3
 1820 0034 1837     		adds	r7, r7, #24
 1821              		.cfi_def_cfa_offset 8
 1822 0036 BD46     		mov	sp, r7
 1823              		.cfi_def_cfa_register 13
 1824              		@ sp needed
ARM GAS  C:\Users\DEVELO~1\AppData\Local\Temp\ccJs2sHK.s 			page 33


 1825 0038 80BD     		pop	{r7, pc}
 1826              		.cfi_endproc
 1827              	.LFE446:
 1828              		.size	oqWriteI, .-oqWriteI
 1829              		.section	.text.oqWriteTimeout,"ax",%progbits
 1830              		.align	1
 1831              		.global	oqWriteTimeout
 1832              		.syntax unified
 1833              		.thumb
 1834              		.thumb_func
 1835              		.type	oqWriteTimeout, %function
 1836              	oqWriteTimeout:
 1837              	.LFB447:
 1838              		.loc 7 652 56
 1839              		.cfi_startproc
 1840              		@ args = 0, pretend = 0, frame = 32
 1841              		@ frame_needed = 1, uses_anonymous_args = 0
 1842 0000 80B5     		push	{r7, lr}
 1843              		.cfi_def_cfa_offset 8
 1844              		.cfi_offset 7, -8
 1845              		.cfi_offset 14, -4
 1846 0002 88B0     		sub	sp, sp, #32
 1847              		.cfi_def_cfa_offset 40
 1848 0004 00AF     		add	r7, sp, #0
 1849              		.cfi_def_cfa_register 7
 1850 0006 F860     		str	r0, [r7, #12]
 1851 0008 B960     		str	r1, [r7, #8]
 1852 000a 7A60     		str	r2, [r7, #4]
 1853 000c 3B60     		str	r3, [r7]
 1854              		.loc 7 653 13
 1855 000e FB68     		ldr	r3, [r7, #12]
 1856 0010 DB69     		ldr	r3, [r3, #28]
 1857 0012 FB61     		str	r3, [r7, #28]
 1858              		.loc 7 654 10
 1859 0014 7B68     		ldr	r3, [r7, #4]
 1860 0016 BB61     		str	r3, [r7, #24]
 1861              		.loc 7 658 3
 1862 0018 FFF7FEFF 		bl	osalSysLock
 1863              		.loc 7 660 9
 1864 001c 24E0     		b	.L78
 1865              	.L82:
 1866              	.LBB28:
 1867              		.loc 7 663 12
 1868 001e 7A68     		ldr	r2, [r7, #4]
 1869 0020 B968     		ldr	r1, [r7, #8]
 1870 0022 F868     		ldr	r0, [r7, #12]
 1871 0024 FFF7FEFF 		bl	oq_write
 1872 0028 7861     		str	r0, [r7, #20]
 1873              		.loc 7 664 8
 1874 002a 7B69     		ldr	r3, [r7, #20]
 1875 002c 002B     		cmp	r3, #0
 1876 002e 09D1     		bne	.L79
 1877              	.LBB29:
 1878              		.loc 7 665 19
 1879 0030 FB68     		ldr	r3, [r7, #12]
 1880 0032 3968     		ldr	r1, [r7]
 1881 0034 1846     		mov	r0, r3
ARM GAS  C:\Users\DEVELO~1\AppData\Local\Temp\ccJs2sHK.s 			page 34


 1882 0036 FFF7FEFF 		bl	osalThreadEnqueueTimeoutS
 1883 003a 3861     		str	r0, [r7, #16]
 1884              		.loc 7 668 10
 1885 003c 3B69     		ldr	r3, [r7, #16]
 1886 003e 002B     		cmp	r3, #0
 1887 0040 12D0     		beq	.L78
 1888              		.loc 7 669 9
 1889 0042 14E0     		b	.L80
 1890              	.L79:
 1891              	.LBE29:
 1892              		.loc 7 675 10
 1893 0044 FB69     		ldr	r3, [r7, #28]
 1894 0046 002B     		cmp	r3, #0
 1895 0048 02D0     		beq	.L81
 1896              		.loc 7 676 9
 1897 004a FB69     		ldr	r3, [r7, #28]
 1898 004c F868     		ldr	r0, [r7, #12]
 1899 004e 9847     		blx	r3
 1900              	.LVL7:
 1901              	.L81:
 1902              		.loc 7 680 7
 1903 0050 FFF7FEFF 		bl	osalSysUnlock
 1904              		.loc 7 682 10
 1905 0054 7A68     		ldr	r2, [r7, #4]
 1906 0056 7B69     		ldr	r3, [r7, #20]
 1907 0058 D31A     		subs	r3, r2, r3
 1908 005a 7B60     		str	r3, [r7, #4]
 1909              		.loc 7 683 10
 1910 005c BA68     		ldr	r2, [r7, #8]
 1911 005e 7B69     		ldr	r3, [r7, #20]
 1912 0060 1344     		add	r3, r3, r2
 1913 0062 BB60     		str	r3, [r7, #8]
 1914              		.loc 7 685 7
 1915 0064 FFF7FEFF 		bl	osalSysLock
 1916              	.L78:
 1917              	.LBE28:
 1918              		.loc 7 660 12
 1919 0068 7B68     		ldr	r3, [r7, #4]
 1920 006a 002B     		cmp	r3, #0
 1921 006c D7D1     		bne	.L82
 1922              	.L80:
 1923              		.loc 7 689 3
 1924 006e FFF7FEFF 		bl	osalSysUnlock
 1925              		.loc 7 690 14
 1926 0072 BA69     		ldr	r2, [r7, #24]
 1927 0074 7B68     		ldr	r3, [r7, #4]
 1928 0076 D31A     		subs	r3, r2, r3
 1929              		.loc 7 691 1
 1930 0078 1846     		mov	r0, r3
 1931 007a 2037     		adds	r7, r7, #32
 1932              		.cfi_def_cfa_offset 8
 1933 007c BD46     		mov	sp, r7
 1934              		.cfi_def_cfa_register 13
 1935              		@ sp needed
 1936 007e 80BD     		pop	{r7, pc}
 1937              		.cfi_endproc
 1938              	.LFE447:
ARM GAS  C:\Users\DEVELO~1\AppData\Local\Temp\ccJs2sHK.s 			page 35


 1939              		.size	oqWriteTimeout, .-oqWriteTimeout
 1940              		.text
 1941              	.Letext0:
 1942              		.file 8 "c:\\chibistudio\\tools\\gnu tools arm embedded\\11.3 2022.08\\lib\\gcc\\arm-none-eabi\\11
 1943              		.file 9 "c:\\chibistudio\\tools\\gnu tools arm embedded\\11.3 2022.08\\arm-none-eabi\\include\\mac
 1944              		.file 10 "c:\\chibistudio\\tools\\gnu tools arm embedded\\11.3 2022.08\\arm-none-eabi\\include\\sy
 1945              		.file 11 "../../../os/rt/include/chearly.h"
 1946              		.file 12 "../../../os/rt/include/chtime.h"
 1947              		.file 13 "../../../os/rt/include/chobjects.h"
 1948              		.file 14 "../../../os/hal/include/hal_queues.h"
 1949              		.file 15 "c:\\chibistudio\\tools\\gnu tools arm embedded\\11.3 2022.08\\arm-none-eabi\\include\\st
 1950              		.section	.debug_info,"",%progbits
 1951              	.Ldebug_info0:
 1952 0000 AC0A0000 		.4byte	0xaac
 1953 0004 0500     		.2byte	0x5
 1954 0006 01       		.byte	0x1
 1955 0007 04       		.byte	0x4
 1956 0008 00000000 		.4byte	.Ldebug_abbrev0
 1957 000c 1E       		.uleb128 0x1e
 1958 000d 32000000 		.4byte	.LASF79
 1959 0011 1D       		.byte	0x1d
 1960 0012 9F010000 		.4byte	.LASF80
 1961 0016 FB030000 		.4byte	.LASF81
 1962 001a 0C000000 		.4byte	.LLRL0
 1963 001e 00000000 		.4byte	0
 1964 0022 00000000 		.4byte	.Ldebug_line0
 1965 0026 1F       		.uleb128 0x1f
 1966 0027 04       		.byte	0x4
 1967 0028 05       		.byte	0x5
 1968 0029 696E7400 		.ascii	"int\000"
 1969 002d 02       		.uleb128 0x2
 1970 002e D4000000 		.4byte	.LASF4
 1971 0032 08       		.byte	0x8
 1972 0033 D1       		.byte	0xd1
 1973 0034 17       		.byte	0x17
 1974 0035 3E000000 		.4byte	0x3e
 1975 0039 20       		.uleb128 0x20
 1976 003a 2D000000 		.4byte	0x2d
 1977 003e 04       		.uleb128 0x4
 1978 003f 04       		.byte	0x4
 1979 0040 07       		.byte	0x7
 1980 0041 CA020000 		.4byte	.LASF0
 1981 0045 04       		.uleb128 0x4
 1982 0046 08       		.byte	0x8
 1983 0047 05       		.byte	0x5
 1984 0048 E0010000 		.4byte	.LASF1
 1985 004c 04       		.uleb128 0x4
 1986 004d 08       		.byte	0x8
 1987 004e 04       		.byte	0x4
 1988 004f D4010000 		.4byte	.LASF2
 1989 0053 04       		.uleb128 0x4
 1990 0054 01       		.byte	0x1
 1991 0055 06       		.byte	0x6
 1992 0056 9E020000 		.4byte	.LASF3
 1993 005a 02       		.uleb128 0x2
 1994 005b 40020000 		.4byte	.LASF5
 1995 005f 09       		.byte	0x9
ARM GAS  C:\Users\DEVELO~1\AppData\Local\Temp\ccJs2sHK.s 			page 36


 1996 0060 2B       		.byte	0x2b
 1997 0061 18       		.byte	0x18
 1998 0062 66000000 		.4byte	0x66
 1999 0066 04       		.uleb128 0x4
 2000 0067 01       		.byte	0x1
 2001 0068 08       		.byte	0x8
 2002 0069 74020000 		.4byte	.LASF6
 2003 006d 04       		.uleb128 0x4
 2004 006e 02       		.byte	0x2
 2005 006f 05       		.byte	0x5
 2006 0070 CA000000 		.4byte	.LASF7
 2007 0074 04       		.uleb128 0x4
 2008 0075 02       		.byte	0x2
 2009 0076 07       		.byte	0x7
 2010 0077 E0020000 		.4byte	.LASF8
 2011 007b 02       		.uleb128 0x2
 2012 007c D1030000 		.4byte	.LASF9
 2013 0080 09       		.byte	0x9
 2014 0081 4D       		.byte	0x4d
 2015 0082 18       		.byte	0x18
 2016 0083 87000000 		.4byte	0x87
 2017 0087 04       		.uleb128 0x4
 2018 0088 04       		.byte	0x4
 2019 0089 05       		.byte	0x5
 2020 008a 0D030000 		.4byte	.LASF10
 2021 008e 02       		.uleb128 0x2
 2022 008f A7030000 		.4byte	.LASF11
 2023 0093 09       		.byte	0x9
 2024 0094 4F       		.byte	0x4f
 2025 0095 19       		.byte	0x19
 2026 0096 9A000000 		.4byte	0x9a
 2027 009a 04       		.uleb128 0x4
 2028 009b 04       		.byte	0x4
 2029 009c 07       		.byte	0x7
 2030 009d 6B030000 		.4byte	.LASF12
 2031 00a1 04       		.uleb128 0x4
 2032 00a2 08       		.byte	0x8
 2033 00a3 07       		.byte	0x7
 2034 00a4 AA020000 		.4byte	.LASF13
 2035 00a8 21       		.uleb128 0x21
 2036 00a9 04       		.byte	0x4
 2037 00aa 04       		.uleb128 0x4
 2038 00ab 01       		.byte	0x1
 2039 00ac 08       		.byte	0x8
 2040 00ad 19020000 		.4byte	.LASF14
 2041 00b1 0C       		.uleb128 0xc
 2042 00b2 AA000000 		.4byte	0xaa
 2043 00b6 02       		.uleb128 0x2
 2044 00b7 7B010000 		.4byte	.LASF15
 2045 00bb 0A       		.byte	0xa
 2046 00bc 18       		.byte	0x18
 2047 00bd 13       		.byte	0x13
 2048 00be 5A000000 		.4byte	0x5a
 2049 00c2 0C       		.uleb128 0xc
 2050 00c3 B6000000 		.4byte	0xb6
 2051 00c7 02       		.uleb128 0x2
 2052 00c8 16030000 		.4byte	.LASF16
ARM GAS  C:\Users\DEVELO~1\AppData\Local\Temp\ccJs2sHK.s 			page 37


 2053 00cc 0A       		.byte	0xa
 2054 00cd 2C       		.byte	0x2c
 2055 00ce 13       		.byte	0x13
 2056 00cf 7B000000 		.4byte	0x7b
 2057 00d3 02       		.uleb128 0x2
 2058 00d4 C1020000 		.4byte	.LASF17
 2059 00d8 0A       		.byte	0xa
 2060 00d9 30       		.byte	0x30
 2061 00da 14       		.byte	0x14
 2062 00db 8E000000 		.4byte	0x8e
 2063 00df 02       		.uleb128 0x2
 2064 00e0 82040000 		.4byte	.LASF18
 2065 00e4 0B       		.byte	0xb
 2066 00e5 58       		.byte	0x58
 2067 00e6 19       		.byte	0x19
 2068 00e7 C7000000 		.4byte	0xc7
 2069 00eb 02       		.uleb128 0x2
 2070 00ec 37030000 		.4byte	.LASF19
 2071 00f0 0C       		.byte	0xc
 2072 00f1 79       		.byte	0x79
 2073 00f2 12       		.byte	0x12
 2074 00f3 D3000000 		.4byte	0xd3
 2075 00f7 02       		.uleb128 0x2
 2076 00f8 94010000 		.4byte	.LASF20
 2077 00fc 01       		.byte	0x1
 2078 00fd 3F       		.byte	0x3f
 2079 00fe 19       		.byte	0x19
 2080 00ff 03010000 		.4byte	0x103
 2081 0103 13       		.uleb128 0x13
 2082 0104 F2030000 		.4byte	.LASF23
 2083 0108 08       		.byte	0x8
 2084 0109 01       		.byte	0x1
 2085 010a 45       		.byte	0x45
 2086 010b 08       		.byte	0x8
 2087 010c 2B010000 		.4byte	0x12b
 2088 0110 06       		.uleb128 0x6
 2089 0111 90040000 		.4byte	.LASF21
 2090 0115 01       		.byte	0x1
 2091 0116 46       		.byte	0x46
 2092 0117 1A       		.byte	0x1a
 2093 0118 2B010000 		.4byte	0x12b
 2094 011c 00       		.byte	0
 2095 011d 06       		.uleb128 0x6
 2096 011e 99020000 		.4byte	.LASF22
 2097 0122 01       		.byte	0x1
 2098 0123 47       		.byte	0x47
 2099 0124 1A       		.byte	0x1a
 2100 0125 2B010000 		.4byte	0x12b
 2101 0129 04       		.byte	0x4
 2102 012a 00       		.byte	0
 2103 012b 08       		.uleb128 0x8
 2104 012c F7000000 		.4byte	0xf7
 2105 0130 13       		.uleb128 0x13
 2106 0131 83010000 		.4byte	.LASF24
 2107 0135 08       		.byte	0x8
 2108 0136 0D       		.byte	0xd
 2109 0137 8F       		.byte	0x8f
ARM GAS  C:\Users\DEVELO~1\AppData\Local\Temp\ccJs2sHK.s 			page 38


 2110 0138 10       		.byte	0x10
 2111 0139 4B010000 		.4byte	0x14b
 2112 013d 06       		.uleb128 0x6
 2113 013e 65020000 		.4byte	.LASF25
 2114 0142 0D       		.byte	0xd
 2115 0143 93       		.byte	0x93
 2116 0144 21       		.byte	0x21
 2117 0145 F7000000 		.4byte	0xf7
 2118 0149 00       		.byte	0
 2119 014a 00       		.byte	0
 2120 014b 02       		.uleb128 0x2
 2121 014c 22000000 		.4byte	.LASF26
 2122 0150 0D       		.byte	0xd
 2123 0151 94       		.byte	0x94
 2124 0152 03       		.byte	0x3
 2125 0153 30010000 		.4byte	0x130
 2126 0157 04       		.uleb128 0x4
 2127 0158 01       		.byte	0x1
 2128 0159 02       		.byte	0x2
 2129 015a 25030000 		.4byte	.LASF27
 2130 015e 08       		.uleb128 0x8
 2131 015f B6000000 		.4byte	0xb6
 2132 0163 08       		.uleb128 0x8
 2133 0164 C2000000 		.4byte	0xc2
 2134 0168 02       		.uleb128 0x2
 2135 0169 DB000000 		.4byte	.LASF28
 2136 016d 0E       		.byte	0xe
 2137 016e 3A       		.byte	0x3a
 2138 016f 19       		.byte	0x19
 2139 0170 74010000 		.4byte	0x174
 2140 0174 13       		.uleb128 0x13
 2141 0175 72010000 		.4byte	.LASF29
 2142 0179 24       		.byte	0x24
 2143 017a 0E       		.byte	0xe
 2144 017b 4B       		.byte	0x4b
 2145 017c 08       		.byte	0x8
 2146 017d EA010000 		.4byte	0x1ea
 2147 0181 06       		.uleb128 0x6
 2148 0182 61030000 		.4byte	.LASF30
 2149 0186 0E       		.byte	0xe
 2150 0187 4C       		.byte	0x4c
 2151 0188 19       		.byte	0x19
 2152 0189 4B010000 		.4byte	0x14b
 2153 018d 00       		.byte	0
 2154 018e 06       		.uleb128 0x6
 2155 018f CA010000 		.4byte	.LASF31
 2156 0193 0E       		.byte	0xe
 2157 0194 4D       		.byte	0x4d
 2158 0195 19       		.byte	0x19
 2159 0196 39000000 		.4byte	0x39
 2160 019a 08       		.byte	0x8
 2161 019b 06       		.uleb128 0x6
 2162 019c 6B020000 		.4byte	.LASF32
 2163 01a0 0E       		.byte	0xe
 2164 01a1 4E       		.byte	0x4e
 2165 01a2 1A       		.byte	0x1a
 2166 01a3 5E010000 		.4byte	0x15e
ARM GAS  C:\Users\DEVELO~1\AppData\Local\Temp\ccJs2sHK.s 			page 39


 2167 01a7 0C       		.byte	0xc
 2168 01a8 06       		.uleb128 0x6
 2169 01a9 70040000 		.4byte	.LASF33
 2170 01ad 0E       		.byte	0xe
 2171 01ae 4F       		.byte	0x4f
 2172 01af 1A       		.byte	0x1a
 2173 01b0 5E010000 		.4byte	0x15e
 2174 01b4 10       		.byte	0x10
 2175 01b5 06       		.uleb128 0x6
 2176 01b6 68040000 		.4byte	.LASF34
 2177 01ba 0E       		.byte	0xe
 2178 01bb 51       		.byte	0x51
 2179 01bc 1A       		.byte	0x1a
 2180 01bd 5E010000 		.4byte	0x15e
 2181 01c1 14       		.byte	0x14
 2182 01c2 06       		.uleb128 0x6
 2183 01c3 1A000000 		.4byte	.LASF35
 2184 01c7 0E       		.byte	0xe
 2185 01c8 52       		.byte	0x52
 2186 01c9 1A       		.byte	0x1a
 2187 01ca 5E010000 		.4byte	0x15e
 2188 01ce 18       		.byte	0x18
 2189 01cf 06       		.uleb128 0x6
 2190 01d0 10020000 		.4byte	.LASF36
 2191 01d4 0E       		.byte	0xe
 2192 01d5 53       		.byte	0x53
 2193 01d6 19       		.byte	0x19
 2194 01d7 EA010000 		.4byte	0x1ea
 2195 01db 1C       		.byte	0x1c
 2196 01dc 06       		.uleb128 0x6
 2197 01dd 95040000 		.4byte	.LASF37
 2198 01e1 0E       		.byte	0xe
 2199 01e2 54       		.byte	0x54
 2200 01e3 1A       		.byte	0x1a
 2201 01e4 A8000000 		.4byte	0xa8
 2202 01e8 20       		.byte	0x20
 2203 01e9 00       		.byte	0
 2204 01ea 02       		.uleb128 0x2
 2205 01eb 9C040000 		.4byte	.LASF38
 2206 01ef 0E       		.byte	0xe
 2207 01f0 41       		.byte	0x41
 2208 01f1 10       		.byte	0x10
 2209 01f2 F6010000 		.4byte	0x1f6
 2210 01f6 08       		.uleb128 0x8
 2211 01f7 FB010000 		.4byte	0x1fb
 2212 01fb 22       		.uleb128 0x22
 2213 01fc 06020000 		.4byte	0x206
 2214 0200 07       		.uleb128 0x7
 2215 0201 06020000 		.4byte	0x206
 2216 0205 00       		.byte	0
 2217 0206 08       		.uleb128 0x8
 2218 0207 68010000 		.4byte	0x168
 2219 020b 02       		.uleb128 0x2
 2220 020c 99030000 		.4byte	.LASF39
 2221 0210 0E       		.byte	0xe
 2222 0211 61       		.byte	0x61
 2223 0212 14       		.byte	0x14
ARM GAS  C:\Users\DEVELO~1\AppData\Local\Temp\ccJs2sHK.s 			page 40


 2224 0213 68010000 		.4byte	0x168
 2225 0217 02       		.uleb128 0x2
 2226 0218 8A030000 		.4byte	.LASF40
 2227 021c 0E       		.byte	0xe
 2228 021d 6D       		.byte	0x6d
 2229 021e 14       		.byte	0x14
 2230 021f 68010000 		.4byte	0x168
 2231 0223 23       		.uleb128 0x23
 2232 0224 FB010000 		.4byte	.LASF43
 2233 0228 05       		.byte	0x5
 2234 0229 3F01     		.2byte	0x13f
 2235 022b 09       		.byte	0x9
 2236 022c DF000000 		.4byte	0xdf
 2237 0230 3F020000 		.4byte	0x23f
 2238 0234 07       		.uleb128 0x7
 2239 0235 3F020000 		.4byte	0x23f
 2240 0239 07       		.uleb128 0x7
 2241 023a EB000000 		.4byte	0xeb
 2242 023e 00       		.byte	0
 2243 023f 08       		.uleb128 0x8
 2244 0240 4B010000 		.4byte	0x14b
 2245 0244 15       		.uleb128 0x15
 2246 0245 4A010000 		.4byte	.LASF41
 2247 0249 4001     		.2byte	0x140
 2248 024b 5A020000 		.4byte	0x25a
 2249 024f 07       		.uleb128 0x7
 2250 0250 3F020000 		.4byte	0x23f
 2251 0254 07       		.uleb128 0x7
 2252 0255 DF000000 		.4byte	0xdf
 2253 0259 00       		.byte	0
 2254 025a 15       		.uleb128 0x15
 2255 025b F4000000 		.4byte	.LASF42
 2256 025f 4101     		.2byte	0x141
 2257 0261 70020000 		.4byte	0x270
 2258 0265 07       		.uleb128 0x7
 2259 0266 3F020000 		.4byte	0x23f
 2260 026a 07       		.uleb128 0x7
 2261 026b DF000000 		.4byte	0xdf
 2262 026f 00       		.byte	0
 2263 0270 24       		.uleb128 0x24
 2264 0271 24010000 		.4byte	.LASF44
 2265 0275 0F       		.byte	0xf
 2266 0276 1F       		.byte	0x1f
 2267 0277 09       		.byte	0x9
 2268 0278 A8000000 		.4byte	0xa8
 2269 027c 90020000 		.4byte	0x290
 2270 0280 07       		.uleb128 0x7
 2271 0281 A8000000 		.4byte	0xa8
 2272 0285 07       		.uleb128 0x7
 2273 0286 90020000 		.4byte	0x290
 2274 028a 07       		.uleb128 0x7
 2275 028b 2D000000 		.4byte	0x2d
 2276 028f 00       		.byte	0
 2277 0290 08       		.uleb128 0x8
 2278 0291 95020000 		.4byte	0x295
 2279 0295 25       		.uleb128 0x25
 2280 0296 09       		.uleb128 0x9
ARM GAS  C:\Users\DEVELO~1\AppData\Local\Temp\ccJs2sHK.s 			page 41


 2281 0297 63010000 		.4byte	.LASF47
 2282 029b 8B02     		.2byte	0x28b
 2283 029d 08       		.byte	0x8
 2284 029e 2D000000 		.4byte	0x2d
 2285 02a2 00000000 		.4byte	.LFB447
 2286 02a6 80000000 		.4byte	.LFE447-.LFB447
 2287 02aa 01       		.uleb128 0x1
 2288 02ab 9C       		.byte	0x9c
 2289 02ac 46030000 		.4byte	0x346
 2290 02b0 01       		.uleb128 0x1
 2291 02b1 6F717000 		.ascii	"oqp\000"
 2292 02b5 07       		.byte	0x7
 2293 02b6 8B02     		.2byte	0x28b
 2294 02b8 27       		.byte	0x27
 2295 02b9 46030000 		.4byte	0x346
 2296 02bd 02       		.uleb128 0x2
 2297 02be 91       		.byte	0x91
 2298 02bf 64       		.sleb128 -28
 2299 02c0 01       		.uleb128 0x1
 2300 02c1 627000   		.ascii	"bp\000"
 2301 02c4 07       		.byte	0x7
 2302 02c5 8B02     		.2byte	0x28b
 2303 02c7 3B       		.byte	0x3b
 2304 02c8 63010000 		.4byte	0x163
 2305 02cc 02       		.uleb128 0x2
 2306 02cd 91       		.byte	0x91
 2307 02ce 60       		.sleb128 -32
 2308 02cf 01       		.uleb128 0x1
 2309 02d0 6E00     		.ascii	"n\000"
 2310 02d2 07       		.byte	0x7
 2311 02d3 8C02     		.2byte	0x28c
 2312 02d5 1E       		.byte	0x1e
 2313 02d6 2D000000 		.4byte	0x2d
 2314 02da 02       		.uleb128 0x2
 2315 02db 91       		.byte	0x91
 2316 02dc 5C       		.sleb128 -36
 2317 02dd 0A       		.uleb128 0xa
 2318 02de 88040000 		.4byte	.LASF45
 2319 02e2 07       		.byte	0x7
 2320 02e3 8C02     		.2byte	0x28c
 2321 02e5 2F       		.byte	0x2f
 2322 02e6 EB000000 		.4byte	0xeb
 2323 02ea 02       		.uleb128 0x2
 2324 02eb 91       		.byte	0x91
 2325 02ec 58       		.sleb128 -40
 2326 02ed 03       		.uleb128 0x3
 2327 02ee 6E667900 		.ascii	"nfy\000"
 2328 02f2 8D02     		.2byte	0x28d
 2329 02f4 0D       		.byte	0xd
 2330 02f5 EA010000 		.4byte	0x1ea
 2331 02f9 02       		.uleb128 0x2
 2332 02fa 91       		.byte	0x91
 2333 02fb 74       		.sleb128 -12
 2334 02fc 03       		.uleb128 0x3
 2335 02fd 6D617800 		.ascii	"max\000"
 2336 0301 8E02     		.2byte	0x28e
 2337 0303 0A       		.byte	0xa
ARM GAS  C:\Users\DEVELO~1\AppData\Local\Temp\ccJs2sHK.s 			page 42


 2338 0304 2D000000 		.4byte	0x2d
 2339 0308 02       		.uleb128 0x2
 2340 0309 91       		.byte	0x91
 2341 030a 70       		.sleb128 -16
 2342 030b 0D       		.uleb128 0xd
 2343 030c 8B020000 		.4byte	.LASF58
 2344 0310 5B030000 		.4byte	0x35b
 2345 0314 0B       		.uleb128 0xb
 2346 0315 1E000000 		.4byte	.LBB28
 2347 0319 4A000000 		.4byte	.LBE28-.LBB28
 2348 031d 16       		.uleb128 0x16
 2349 031e 94020000 		.4byte	.LASF46
 2350 0322 9502     		.2byte	0x295
 2351 0324 2D000000 		.4byte	0x2d
 2352 0328 02       		.uleb128 0x2
 2353 0329 91       		.byte	0x91
 2354 032a 6C       		.sleb128 -20
 2355 032b 0B       		.uleb128 0xb
 2356 032c 30000000 		.4byte	.LBB29
 2357 0330 14000000 		.4byte	.LBE29-.LBB29
 2358 0334 03       		.uleb128 0x3
 2359 0335 6D736700 		.ascii	"msg\000"
 2360 0339 9902     		.2byte	0x299
 2361 033b 0D       		.byte	0xd
 2362 033c DF000000 		.4byte	0xdf
 2363 0340 02       		.uleb128 0x2
 2364 0341 91       		.byte	0x91
 2365 0342 68       		.sleb128 -24
 2366 0343 00       		.byte	0
 2367 0344 00       		.byte	0
 2368 0345 00       		.byte	0
 2369 0346 08       		.uleb128 0x8
 2370 0347 17020000 		.4byte	0x217
 2371 034b 0E       		.uleb128 0xe
 2372 034c B1000000 		.4byte	0xb1
 2373 0350 5B030000 		.4byte	0x35b
 2374 0354 0F       		.uleb128 0xf
 2375 0355 3E000000 		.4byte	0x3e
 2376 0359 0E       		.byte	0xe
 2377 035a 00       		.byte	0
 2378 035b 0C       		.uleb128 0xc
 2379 035c 4B030000 		.4byte	0x34b
 2380 0360 09       		.uleb128 0x9
 2381 0361 D7020000 		.4byte	.LASF48
 2382 0365 6302     		.2byte	0x263
 2383 0367 08       		.byte	0x8
 2384 0368 2D000000 		.4byte	0x2d
 2385 036c 00000000 		.4byte	.LFB446
 2386 0370 3A000000 		.4byte	.LFE446-.LFB446
 2387 0374 01       		.uleb128 0x1
 2388 0375 9C       		.byte	0x9c
 2389 0376 C5030000 		.4byte	0x3c5
 2390 037a 01       		.uleb128 0x1
 2391 037b 6F717000 		.ascii	"oqp\000"
 2392 037f 07       		.byte	0x7
 2393 0380 6302     		.2byte	0x263
 2394 0382 21       		.byte	0x21
ARM GAS  C:\Users\DEVELO~1\AppData\Local\Temp\ccJs2sHK.s 			page 43


 2395 0383 46030000 		.4byte	0x346
 2396 0387 02       		.uleb128 0x2
 2397 0388 91       		.byte	0x91
 2398 0389 6C       		.sleb128 -20
 2399 038a 01       		.uleb128 0x1
 2400 038b 627000   		.ascii	"bp\000"
 2401 038e 07       		.byte	0x7
 2402 038f 6302     		.2byte	0x263
 2403 0391 35       		.byte	0x35
 2404 0392 63010000 		.4byte	0x163
 2405 0396 02       		.uleb128 0x2
 2406 0397 91       		.byte	0x91
 2407 0398 68       		.sleb128 -24
 2408 0399 01       		.uleb128 0x1
 2409 039a 6E00     		.ascii	"n\000"
 2410 039c 07       		.byte	0x7
 2411 039d 6302     		.2byte	0x263
 2412 039f 40       		.byte	0x40
 2413 03a0 2D000000 		.4byte	0x2d
 2414 03a4 02       		.uleb128 0x2
 2415 03a5 91       		.byte	0x91
 2416 03a6 64       		.sleb128 -28
 2417 03a7 03       		.uleb128 0x3
 2418 03a8 6E667900 		.ascii	"nfy\000"
 2419 03ac 6402     		.2byte	0x264
 2420 03ae 0D       		.byte	0xd
 2421 03af EA010000 		.4byte	0x1ea
 2422 03b3 02       		.uleb128 0x2
 2423 03b4 91       		.byte	0x91
 2424 03b5 74       		.sleb128 -12
 2425 03b6 03       		.uleb128 0x3
 2426 03b7 777200   		.ascii	"wr\000"
 2427 03ba 6502     		.2byte	0x265
 2428 03bc 0A       		.byte	0xa
 2429 03bd 2D000000 		.4byte	0x2d
 2430 03c1 02       		.uleb128 0x2
 2431 03c2 91       		.byte	0x91
 2432 03c3 70       		.sleb128 -16
 2433 03c4 00       		.byte	0
 2434 03c5 09       		.uleb128 0x9
 2435 03c6 1E030000 		.4byte	.LASF49
 2436 03ca 4002     		.2byte	0x240
 2437 03cc 07       		.byte	0x7
 2438 03cd DF000000 		.4byte	0xdf
 2439 03d1 00000000 		.4byte	.LFB445
 2440 03d5 78000000 		.4byte	.LFE445-.LFB445
 2441 03d9 01       		.uleb128 0x1
 2442 03da 9C       		.byte	0x9c
 2443 03db 07040000 		.4byte	0x407
 2444 03df 01       		.uleb128 0x1
 2445 03e0 6F717000 		.ascii	"oqp\000"
 2446 03e4 07       		.byte	0x7
 2447 03e5 4002     		.2byte	0x240
 2448 03e7 1E       		.byte	0x1e
 2449 03e8 46030000 		.4byte	0x346
 2450 03ec 02       		.uleb128 0x2
 2451 03ed 91       		.byte	0x91
ARM GAS  C:\Users\DEVELO~1\AppData\Local\Temp\ccJs2sHK.s 			page 44


 2452 03ee 6C       		.sleb128 -20
 2453 03ef 0B       		.uleb128 0xb
 2454 03f0 32000000 		.4byte	.LBB27
 2455 03f4 3A000000 		.4byte	.LBE27-.LBB27
 2456 03f8 03       		.uleb128 0x3
 2457 03f9 6200     		.ascii	"b\000"
 2458 03fb 4602     		.2byte	0x246
 2459 03fd 0D       		.byte	0xd
 2460 03fe B6000000 		.4byte	0xb6
 2461 0402 02       		.uleb128 0x2
 2462 0403 91       		.byte	0x91
 2463 0404 77       		.sleb128 -9
 2464 0405 00       		.byte	0
 2465 0406 00       		.byte	0
 2466 0407 09       		.uleb128 0x9
 2467 0408 7D030000 		.4byte	.LASF50
 2468 040c 1702     		.2byte	0x217
 2469 040e 07       		.byte	0x7
 2470 040f DF000000 		.4byte	0xdf
 2471 0413 00000000 		.4byte	.LFB444
 2472 0417 80000000 		.4byte	.LFE444-.LFB444
 2473 041b 01       		.uleb128 0x1
 2474 041c 9C       		.byte	0x9c
 2475 041d 69040000 		.4byte	0x469
 2476 0421 01       		.uleb128 0x1
 2477 0422 6F717000 		.ascii	"oqp\000"
 2478 0426 07       		.byte	0x7
 2479 0427 1702     		.2byte	0x217
 2480 0429 24       		.byte	0x24
 2481 042a 46030000 		.4byte	0x346
 2482 042e 02       		.uleb128 0x2
 2483 042f 91       		.byte	0x91
 2484 0430 6C       		.sleb128 -20
 2485 0431 01       		.uleb128 0x1
 2486 0432 6200     		.ascii	"b\000"
 2487 0434 07       		.byte	0x7
 2488 0435 1702     		.2byte	0x217
 2489 0437 31       		.byte	0x31
 2490 0438 B6000000 		.4byte	0xb6
 2491 043c 02       		.uleb128 0x2
 2492 043d 91       		.byte	0x91
 2493 043e 6B       		.sleb128 -21
 2494 043f 0A       		.uleb128 0xa
 2495 0440 88040000 		.4byte	.LASF45
 2496 0444 07       		.byte	0x7
 2497 0445 1702     		.2byte	0x217
 2498 0447 42       		.byte	0x42
 2499 0448 EB000000 		.4byte	0xeb
 2500 044c 02       		.uleb128 0x2
 2501 044d 91       		.byte	0x91
 2502 044e 64       		.sleb128 -28
 2503 044f 0B       		.uleb128 0xb
 2504 0450 14000000 		.4byte	.LBB26
 2505 0454 1A000000 		.4byte	.LBE26-.LBB26
 2506 0458 03       		.uleb128 0x3
 2507 0459 6D736700 		.ascii	"msg\000"
 2508 045d 1D02     		.2byte	0x21d
ARM GAS  C:\Users\DEVELO~1\AppData\Local\Temp\ccJs2sHK.s 			page 45


 2509 045f 0B       		.byte	0xb
 2510 0460 DF000000 		.4byte	0xdf
 2511 0464 02       		.uleb128 0x2
 2512 0465 91       		.byte	0x91
 2513 0466 74       		.sleb128 -12
 2514 0467 00       		.byte	0
 2515 0468 00       		.byte	0
 2516 0469 09       		.uleb128 0x9
 2517 046a 13010000 		.4byte	.LASF51
 2518 046e EA01     		.2byte	0x1ea
 2519 0470 07       		.byte	0x7
 2520 0471 DF000000 		.4byte	0xdf
 2521 0475 00000000 		.4byte	.LFB443
 2522 0479 62000000 		.4byte	.LFE443-.LFB443
 2523 047d 01       		.uleb128 0x1
 2524 047e 9C       		.byte	0x9c
 2525 047f A2040000 		.4byte	0x4a2
 2526 0483 01       		.uleb128 0x1
 2527 0484 6F717000 		.ascii	"oqp\000"
 2528 0488 07       		.byte	0x7
 2529 0489 EA01     		.2byte	0x1ea
 2530 048b 1E       		.byte	0x1e
 2531 048c 46030000 		.4byte	0x346
 2532 0490 02       		.uleb128 0x2
 2533 0491 91       		.byte	0x91
 2534 0492 74       		.sleb128 -12
 2535 0493 01       		.uleb128 0x1
 2536 0494 6200     		.ascii	"b\000"
 2537 0496 07       		.byte	0x7
 2538 0497 EA01     		.2byte	0x1ea
 2539 0499 2B       		.byte	0x2b
 2540 049a B6000000 		.4byte	0xb6
 2541 049e 02       		.uleb128 0x2
 2542 049f 91       		.byte	0x91
 2543 04a0 73       		.sleb128 -13
 2544 04a1 00       		.byte	0
 2545 04a2 17       		.uleb128 0x17
 2546 04a3 E4030000 		.4byte	.LASF52
 2547 04a7 D301     		.2byte	0x1d3
 2548 04a9 00000000 		.4byte	.LFB442
 2549 04ad 3C000000 		.4byte	.LFE442-.LFB442
 2550 04b1 01       		.uleb128 0x1
 2551 04b2 9C       		.byte	0x9c
 2552 04b3 C8040000 		.4byte	0x4c8
 2553 04b7 01       		.uleb128 0x1
 2554 04b8 6F717000 		.ascii	"oqp\000"
 2555 04bc 07       		.byte	0x7
 2556 04bd D301     		.2byte	0x1d3
 2557 04bf 1F       		.byte	0x1f
 2558 04c0 46030000 		.4byte	0x346
 2559 04c4 02       		.uleb128 0x2
 2560 04c5 91       		.byte	0x91
 2561 04c6 74       		.sleb128 -12
 2562 04c7 00       		.byte	0
 2563 04c8 17       		.uleb128 0x17
 2564 04c9 EE010000 		.4byte	.LASF53
 2565 04cd BB01     		.2byte	0x1bb
ARM GAS  C:\Users\DEVELO~1\AppData\Local\Temp\ccJs2sHK.s 			page 46


 2566 04cf 00000000 		.4byte	.LFB441
 2567 04d3 4C000000 		.4byte	.LFE441-.LFB441
 2568 04d7 01       		.uleb128 0x1
 2569 04d8 9C       		.byte	0x9c
 2570 04d9 2D050000 		.4byte	0x52d
 2571 04dd 01       		.uleb128 0x1
 2572 04de 6F717000 		.ascii	"oqp\000"
 2573 04e2 07       		.byte	0x7
 2574 04e3 BB01     		.2byte	0x1bb
 2575 04e5 23       		.byte	0x23
 2576 04e6 46030000 		.4byte	0x346
 2577 04ea 02       		.uleb128 0x2
 2578 04eb 91       		.byte	0x91
 2579 04ec 74       		.sleb128 -12
 2580 04ed 01       		.uleb128 0x1
 2581 04ee 627000   		.ascii	"bp\000"
 2582 04f1 07       		.byte	0x7
 2583 04f2 BB01     		.2byte	0x1bb
 2584 04f4 31       		.byte	0x31
 2585 04f5 5E010000 		.4byte	0x15e
 2586 04f9 02       		.uleb128 0x2
 2587 04fa 91       		.byte	0x91
 2588 04fb 70       		.sleb128 -16
 2589 04fc 0A       		.uleb128 0xa
 2590 04fd B2030000 		.4byte	.LASF54
 2591 0501 07       		.byte	0x7
 2592 0502 BB01     		.2byte	0x1bb
 2593 0504 3C       		.byte	0x3c
 2594 0505 2D000000 		.4byte	0x2d
 2595 0509 02       		.uleb128 0x2
 2596 050a 91       		.byte	0x91
 2597 050b 6C       		.sleb128 -20
 2598 050c 0A       		.uleb128 0xa
 2599 050d 4A020000 		.4byte	.LASF55
 2600 0511 07       		.byte	0x7
 2601 0512 BC01     		.2byte	0x1bc
 2602 0514 1D       		.byte	0x1d
 2603 0515 EA010000 		.4byte	0x1ea
 2604 0519 02       		.uleb128 0x2
 2605 051a 91       		.byte	0x91
 2606 051b 68       		.sleb128 -24
 2607 051c 0A       		.uleb128 0xa
 2608 051d 08030000 		.4byte	.LASF56
 2609 0521 07       		.byte	0x7
 2610 0522 BC01     		.2byte	0x1bc
 2611 0524 29       		.byte	0x29
 2612 0525 A8000000 		.4byte	0xa8
 2613 0529 02       		.uleb128 0x2
 2614 052a 91       		.byte	0x91
 2615 052b 00       		.sleb128 0
 2616 052c 00       		.byte	0
 2617 052d 09       		.uleb128 0x9
 2618 052e E6000000 		.4byte	.LASF57
 2619 0532 8201     		.2byte	0x182
 2620 0534 08       		.byte	0x8
 2621 0535 2D000000 		.4byte	0x2d
 2622 0539 00000000 		.4byte	.LFB440
ARM GAS  C:\Users\DEVELO~1\AppData\Local\Temp\ccJs2sHK.s 			page 47


 2623 053d 80000000 		.4byte	.LFE440-.LFB440
 2624 0541 01       		.uleb128 0x1
 2625 0542 9C       		.byte	0x9c
 2626 0543 DD050000 		.4byte	0x5dd
 2627 0547 01       		.uleb128 0x1
 2628 0548 69717000 		.ascii	"iqp\000"
 2629 054c 07       		.byte	0x7
 2630 054d 8201     		.2byte	0x182
 2631 054f 25       		.byte	0x25
 2632 0550 DD050000 		.4byte	0x5dd
 2633 0554 02       		.uleb128 0x2
 2634 0555 91       		.byte	0x91
 2635 0556 64       		.sleb128 -28
 2636 0557 01       		.uleb128 0x1
 2637 0558 627000   		.ascii	"bp\000"
 2638 055b 07       		.byte	0x7
 2639 055c 8201     		.2byte	0x182
 2640 055e 33       		.byte	0x33
 2641 055f 5E010000 		.4byte	0x15e
 2642 0563 02       		.uleb128 0x2
 2643 0564 91       		.byte	0x91
 2644 0565 60       		.sleb128 -32
 2645 0566 01       		.uleb128 0x1
 2646 0567 6E00     		.ascii	"n\000"
 2647 0569 07       		.byte	0x7
 2648 056a 8301     		.2byte	0x183
 2649 056c 1D       		.byte	0x1d
 2650 056d 2D000000 		.4byte	0x2d
 2651 0571 02       		.uleb128 0x2
 2652 0572 91       		.byte	0x91
 2653 0573 5C       		.sleb128 -36
 2654 0574 0A       		.uleb128 0xa
 2655 0575 88040000 		.4byte	.LASF45
 2656 0579 07       		.byte	0x7
 2657 057a 8301     		.2byte	0x183
 2658 057c 2E       		.byte	0x2e
 2659 057d EB000000 		.4byte	0xeb
 2660 0581 02       		.uleb128 0x2
 2661 0582 91       		.byte	0x91
 2662 0583 58       		.sleb128 -40
 2663 0584 03       		.uleb128 0x3
 2664 0585 6E667900 		.ascii	"nfy\000"
 2665 0589 8401     		.2byte	0x184
 2666 058b 0D       		.byte	0xd
 2667 058c EA010000 		.4byte	0x1ea
 2668 0590 02       		.uleb128 0x2
 2669 0591 91       		.byte	0x91
 2670 0592 74       		.sleb128 -12
 2671 0593 03       		.uleb128 0x3
 2672 0594 6D617800 		.ascii	"max\000"
 2673 0598 8501     		.2byte	0x185
 2674 059a 0A       		.byte	0xa
 2675 059b 2D000000 		.4byte	0x2d
 2676 059f 02       		.uleb128 0x2
 2677 05a0 91       		.byte	0x91
 2678 05a1 70       		.sleb128 -16
 2679 05a2 0D       		.uleb128 0xd
ARM GAS  C:\Users\DEVELO~1\AppData\Local\Temp\ccJs2sHK.s 			page 48


 2680 05a3 8B020000 		.4byte	.LASF58
 2681 05a7 F2050000 		.4byte	0x5f2
 2682 05ab 0B       		.uleb128 0xb
 2683 05ac 1E000000 		.4byte	.LBB24
 2684 05b0 4A000000 		.4byte	.LBE24-.LBB24
 2685 05b4 16       		.uleb128 0x16
 2686 05b5 94020000 		.4byte	.LASF46
 2687 05b9 8C01     		.2byte	0x18c
 2688 05bb 2D000000 		.4byte	0x2d
 2689 05bf 02       		.uleb128 0x2
 2690 05c0 91       		.byte	0x91
 2691 05c1 6C       		.sleb128 -20
 2692 05c2 0B       		.uleb128 0xb
 2693 05c3 30000000 		.4byte	.LBB25
 2694 05c7 14000000 		.4byte	.LBE25-.LBB25
 2695 05cb 03       		.uleb128 0x3
 2696 05cc 6D736700 		.ascii	"msg\000"
 2697 05d0 9001     		.2byte	0x190
 2698 05d2 0D       		.byte	0xd
 2699 05d3 DF000000 		.4byte	0xdf
 2700 05d7 02       		.uleb128 0x2
 2701 05d8 91       		.byte	0x91
 2702 05d9 68       		.sleb128 -24
 2703 05da 00       		.byte	0
 2704 05db 00       		.byte	0
 2705 05dc 00       		.byte	0
 2706 05dd 08       		.uleb128 0x8
 2707 05de 0B020000 		.4byte	0x20b
 2708 05e2 0E       		.uleb128 0xe
 2709 05e3 B1000000 		.4byte	0xb1
 2710 05e7 F2050000 		.4byte	0x5f2
 2711 05eb 0F       		.uleb128 0xf
 2712 05ec 3E000000 		.4byte	0x3e
 2713 05f0 0D       		.byte	0xd
 2714 05f1 00       		.byte	0
 2715 05f2 0C       		.uleb128 0xc
 2716 05f3 E2050000 		.4byte	0x5e2
 2717 05f7 09       		.uleb128 0x9
 2718 05f8 38020000 		.4byte	.LASF59
 2719 05fc 5A01     		.2byte	0x15a
 2720 05fe 08       		.byte	0x8
 2721 05ff 2D000000 		.4byte	0x2d
 2722 0603 00000000 		.4byte	.LFB439
 2723 0607 3A000000 		.4byte	.LFE439-.LFB439
 2724 060b 01       		.uleb128 0x1
 2725 060c 9C       		.byte	0x9c
 2726 060d 5C060000 		.4byte	0x65c
 2727 0611 01       		.uleb128 0x1
 2728 0612 69717000 		.ascii	"iqp\000"
 2729 0616 07       		.byte	0x7
 2730 0617 5A01     		.2byte	0x15a
 2731 0619 1F       		.byte	0x1f
 2732 061a DD050000 		.4byte	0x5dd
 2733 061e 02       		.uleb128 0x2
 2734 061f 91       		.byte	0x91
 2735 0620 6C       		.sleb128 -20
 2736 0621 01       		.uleb128 0x1
ARM GAS  C:\Users\DEVELO~1\AppData\Local\Temp\ccJs2sHK.s 			page 49


 2737 0622 627000   		.ascii	"bp\000"
 2738 0625 07       		.byte	0x7
 2739 0626 5A01     		.2byte	0x15a
 2740 0628 2D       		.byte	0x2d
 2741 0629 5E010000 		.4byte	0x15e
 2742 062d 02       		.uleb128 0x2
 2743 062e 91       		.byte	0x91
 2744 062f 68       		.sleb128 -24
 2745 0630 01       		.uleb128 0x1
 2746 0631 6E00     		.ascii	"n\000"
 2747 0633 07       		.byte	0x7
 2748 0634 5A01     		.2byte	0x15a
 2749 0636 38       		.byte	0x38
 2750 0637 2D000000 		.4byte	0x2d
 2751 063b 02       		.uleb128 0x2
 2752 063c 91       		.byte	0x91
 2753 063d 64       		.sleb128 -28
 2754 063e 03       		.uleb128 0x3
 2755 063f 6E667900 		.ascii	"nfy\000"
 2756 0643 5B01     		.2byte	0x15b
 2757 0645 0D       		.byte	0xd
 2758 0646 EA010000 		.4byte	0x1ea
 2759 064a 02       		.uleb128 0x2
 2760 064b 91       		.byte	0x91
 2761 064c 74       		.sleb128 -12
 2762 064d 03       		.uleb128 0x3
 2763 064e 726400   		.ascii	"rd\000"
 2764 0651 5C01     		.2byte	0x15c
 2765 0653 0A       		.byte	0xa
 2766 0654 2D000000 		.4byte	0x2d
 2767 0658 02       		.uleb128 0x2
 2768 0659 91       		.byte	0x91
 2769 065a 70       		.sleb128 -16
 2770 065b 00       		.byte	0
 2771 065c 09       		.uleb128 0x9
 2772 065d BD000000 		.4byte	.LASF60
 2773 0661 2E01     		.2byte	0x12e
 2774 0663 07       		.byte	0x7
 2775 0664 DF000000 		.4byte	0xdf
 2776 0668 00000000 		.4byte	.LFB438
 2777 066c 7C000000 		.4byte	.LFE438-.LFB438
 2778 0670 01       		.uleb128 0x1
 2779 0671 9C       		.byte	0x9c
 2780 0672 BD060000 		.4byte	0x6bd
 2781 0676 01       		.uleb128 0x1
 2782 0677 69717000 		.ascii	"iqp\000"
 2783 067b 07       		.byte	0x7
 2784 067c 2E01     		.2byte	0x12e
 2785 067e 23       		.byte	0x23
 2786 067f DD050000 		.4byte	0x5dd
 2787 0683 02       		.uleb128 0x2
 2788 0684 91       		.byte	0x91
 2789 0685 6C       		.sleb128 -20
 2790 0686 0A       		.uleb128 0xa
 2791 0687 88040000 		.4byte	.LASF45
 2792 068b 07       		.byte	0x7
 2793 068c 2E01     		.2byte	0x12e
ARM GAS  C:\Users\DEVELO~1\AppData\Local\Temp\ccJs2sHK.s 			page 50


 2794 068e 36       		.byte	0x36
 2795 068f EB000000 		.4byte	0xeb
 2796 0693 02       		.uleb128 0x2
 2797 0694 91       		.byte	0x91
 2798 0695 68       		.sleb128 -24
 2799 0696 03       		.uleb128 0x3
 2800 0697 6200     		.ascii	"b\000"
 2801 0699 2F01     		.2byte	0x12f
 2802 069b 0B       		.byte	0xb
 2803 069c B6000000 		.4byte	0xb6
 2804 06a0 02       		.uleb128 0x2
 2805 06a1 91       		.byte	0x91
 2806 06a2 77       		.sleb128 -9
 2807 06a3 0B       		.uleb128 0xb
 2808 06a4 10000000 		.4byte	.LBB23
 2809 06a8 1A000000 		.4byte	.LBE23-.LBB23
 2810 06ac 03       		.uleb128 0x3
 2811 06ad 6D736700 		.ascii	"msg\000"
 2812 06b1 3501     		.2byte	0x135
 2813 06b3 0B       		.byte	0xb
 2814 06b4 DF000000 		.4byte	0xdf
 2815 06b8 02       		.uleb128 0x2
 2816 06b9 91       		.byte	0x91
 2817 06ba 70       		.sleb128 -16
 2818 06bb 00       		.byte	0
 2819 06bc 00       		.byte	0
 2820 06bd 09       		.uleb128 0x9
 2821 06be 45030000 		.4byte	.LASF61
 2822 06c2 0101     		.2byte	0x101
 2823 06c4 07       		.byte	0x7
 2824 06c5 DF000000 		.4byte	0xdf
 2825 06c9 00000000 		.4byte	.LFB437
 2826 06cd 5C000000 		.4byte	.LFE437-.LFB437
 2827 06d1 01       		.uleb128 0x1
 2828 06d2 9C       		.byte	0x9c
 2829 06d3 FF060000 		.4byte	0x6ff
 2830 06d7 01       		.uleb128 0x1
 2831 06d8 69717000 		.ascii	"iqp\000"
 2832 06dc 07       		.byte	0x7
 2833 06dd 0101     		.2byte	0x101
 2834 06df 1D       		.byte	0x1d
 2835 06e0 DD050000 		.4byte	0x5dd
 2836 06e4 02       		.uleb128 0x2
 2837 06e5 91       		.byte	0x91
 2838 06e6 6C       		.sleb128 -20
 2839 06e7 0B       		.uleb128 0xb
 2840 06e8 10000000 		.4byte	.LBB22
 2841 06ec 40000000 		.4byte	.LBE22-.LBB22
 2842 06f0 03       		.uleb128 0x3
 2843 06f1 6200     		.ascii	"b\000"
 2844 06f3 0701     		.2byte	0x107
 2845 06f5 0D       		.byte	0xd
 2846 06f6 B6000000 		.4byte	0xb6
 2847 06fa 02       		.uleb128 0x2
 2848 06fb 91       		.byte	0x91
 2849 06fc 77       		.sleb128 -9
 2850 06fd 00       		.byte	0
ARM GAS  C:\Users\DEVELO~1\AppData\Local\Temp\ccJs2sHK.s 			page 51


 2851 06fe 00       		.byte	0
 2852 06ff 26       		.uleb128 0x26
 2853 0700 5C010000 		.4byte	.LASF62
 2854 0704 07       		.byte	0x7
 2855 0705 E0       		.byte	0xe0
 2856 0706 07       		.byte	0x7
 2857 0707 DF000000 		.4byte	0xdf
 2858 070b 00000000 		.4byte	.LFB436
 2859 070f 7C000000 		.4byte	.LFE436-.LFB436
 2860 0713 01       		.uleb128 0x1
 2861 0714 9C       		.byte	0x9c
 2862 0715 36070000 		.4byte	0x736
 2863 0719 05       		.uleb128 0x5
 2864 071a 69717000 		.ascii	"iqp\000"
 2865 071e 07       		.byte	0x7
 2866 071f E0       		.byte	0xe0
 2867 0720 1D       		.byte	0x1d
 2868 0721 DD050000 		.4byte	0x5dd
 2869 0725 02       		.uleb128 0x2
 2870 0726 91       		.byte	0x91
 2871 0727 74       		.sleb128 -12
 2872 0728 05       		.uleb128 0x5
 2873 0729 6200     		.ascii	"b\000"
 2874 072b 07       		.byte	0x7
 2875 072c E0       		.byte	0xe0
 2876 072d 2A       		.byte	0x2a
 2877 072e B6000000 		.4byte	0xb6
 2878 0732 02       		.uleb128 0x2
 2879 0733 91       		.byte	0x91
 2880 0734 73       		.sleb128 -13
 2881 0735 00       		.byte	0
 2882 0736 18       		.uleb128 0x18
 2883 0737 DB030000 		.4byte	.LASF63
 2884 073b C9       		.byte	0xc9
 2885 073c 00000000 		.4byte	.LFB435
 2886 0740 32000000 		.4byte	.LFE435-.LFB435
 2887 0744 01       		.uleb128 0x1
 2888 0745 9C       		.byte	0x9c
 2889 0746 5A070000 		.4byte	0x75a
 2890 074a 05       		.uleb128 0x5
 2891 074b 69717000 		.ascii	"iqp\000"
 2892 074f 07       		.byte	0x7
 2893 0750 C9       		.byte	0xc9
 2894 0751 1E       		.byte	0x1e
 2895 0752 DD050000 		.4byte	0x5dd
 2896 0756 02       		.uleb128 0x2
 2897 0757 91       		.byte	0x91
 2898 0758 74       		.sleb128 -12
 2899 0759 00       		.byte	0
 2900 075a 18       		.uleb128 0x18
 2901 075b FB020000 		.4byte	.LASF64
 2902 075f B1       		.byte	0xb1
 2903 0760 00000000 		.4byte	.LFB434
 2904 0764 4C000000 		.4byte	.LFE434-.LFB434
 2905 0768 01       		.uleb128 0x1
 2906 0769 9C       		.byte	0x9c
 2907 076a B6070000 		.4byte	0x7b6
ARM GAS  C:\Users\DEVELO~1\AppData\Local\Temp\ccJs2sHK.s 			page 52


 2908 076e 05       		.uleb128 0x5
 2909 076f 69717000 		.ascii	"iqp\000"
 2910 0773 07       		.byte	0x7
 2911 0774 B1       		.byte	0xb1
 2912 0775 22       		.byte	0x22
 2913 0776 DD050000 		.4byte	0x5dd
 2914 077a 02       		.uleb128 0x2
 2915 077b 91       		.byte	0x91
 2916 077c 74       		.sleb128 -12
 2917 077d 05       		.uleb128 0x5
 2918 077e 627000   		.ascii	"bp\000"
 2919 0781 07       		.byte	0x7
 2920 0782 B1       		.byte	0xb1
 2921 0783 30       		.byte	0x30
 2922 0784 5E010000 		.4byte	0x15e
 2923 0788 02       		.uleb128 0x2
 2924 0789 91       		.byte	0x91
 2925 078a 70       		.sleb128 -16
 2926 078b 14       		.uleb128 0x14
 2927 078c B2030000 		.4byte	.LASF54
 2928 0790 B1       		.byte	0xb1
 2929 0791 3B       		.byte	0x3b
 2930 0792 2D000000 		.4byte	0x2d
 2931 0796 02       		.uleb128 0x2
 2932 0797 91       		.byte	0x91
 2933 0798 6C       		.sleb128 -20
 2934 0799 14       		.uleb128 0x14
 2935 079a ED030000 		.4byte	.LASF65
 2936 079e B2       		.byte	0xb2
 2937 079f 1D       		.byte	0x1d
 2938 07a0 EA010000 		.4byte	0x1ea
 2939 07a4 02       		.uleb128 0x2
 2940 07a5 91       		.byte	0x91
 2941 07a6 68       		.sleb128 -24
 2942 07a7 14       		.uleb128 0x14
 2943 07a8 08030000 		.4byte	.LASF56
 2944 07ac B2       		.byte	0xb2
 2945 07ad 29       		.byte	0x29
 2946 07ae A8000000 		.4byte	0xa8
 2947 07b2 02       		.uleb128 0x2
 2948 07b3 91       		.byte	0x91
 2949 07b4 00       		.sleb128 0
 2950 07b5 00       		.byte	0
 2951 07b6 19       		.uleb128 0x19
 2952 07b7 82020000 		.4byte	.LASF66
 2953 07bb 6C       		.byte	0x6c
 2954 07bc 2D000000 		.4byte	0x2d
 2955 07c0 00000000 		.4byte	.LFB433
 2956 07c4 BA000000 		.4byte	.LFE433-.LFB433
 2957 07c8 01       		.uleb128 0x1
 2958 07c9 9C       		.byte	0x9c
 2959 07ca 1C080000 		.4byte	0x81c
 2960 07ce 05       		.uleb128 0x5
 2961 07cf 6F717000 		.ascii	"oqp\000"
 2962 07d3 07       		.byte	0x7
 2963 07d4 6C       		.byte	0x6c
 2964 07d5 28       		.byte	0x28
ARM GAS  C:\Users\DEVELO~1\AppData\Local\Temp\ccJs2sHK.s 			page 53


 2965 07d6 46030000 		.4byte	0x346
 2966 07da 02       		.uleb128 0x2
 2967 07db 91       		.byte	0x91
 2968 07dc 6C       		.sleb128 -20
 2969 07dd 05       		.uleb128 0x5
 2970 07de 627000   		.ascii	"bp\000"
 2971 07e1 07       		.byte	0x7
 2972 07e2 6C       		.byte	0x6c
 2973 07e3 3C       		.byte	0x3c
 2974 07e4 63010000 		.4byte	0x163
 2975 07e8 02       		.uleb128 0x2
 2976 07e9 91       		.byte	0x91
 2977 07ea 68       		.sleb128 -24
 2978 07eb 05       		.uleb128 0x5
 2979 07ec 6E00     		.ascii	"n\000"
 2980 07ee 07       		.byte	0x7
 2981 07ef 6C       		.byte	0x6c
 2982 07f0 47       		.byte	0x47
 2983 07f1 2D000000 		.4byte	0x2d
 2984 07f5 02       		.uleb128 0x2
 2985 07f6 91       		.byte	0x91
 2986 07f7 64       		.sleb128 -28
 2987 07f8 10       		.uleb128 0x10
 2988 07f9 733100   		.ascii	"s1\000"
 2989 07fc 6D       		.byte	0x6d
 2990 07fd 0A       		.byte	0xa
 2991 07fe 2D000000 		.4byte	0x2d
 2992 0802 02       		.uleb128 0x2
 2993 0803 91       		.byte	0x91
 2994 0804 74       		.sleb128 -12
 2995 0805 10       		.uleb128 0x10
 2996 0806 733200   		.ascii	"s2\000"
 2997 0809 6D       		.byte	0x6d
 2998 080a 0E       		.byte	0xe
 2999 080b 2D000000 		.4byte	0x2d
 3000 080f 02       		.uleb128 0x2
 3001 0810 91       		.byte	0x91
 3002 0811 70       		.sleb128 -16
 3003 0812 0D       		.uleb128 0xd
 3004 0813 8B020000 		.4byte	.LASF58
 3005 0817 2C080000 		.4byte	0x82c
 3006 081b 00       		.byte	0
 3007 081c 0E       		.uleb128 0xe
 3008 081d B1000000 		.4byte	0xb1
 3009 0821 2C080000 		.4byte	0x82c
 3010 0825 0F       		.uleb128 0xf
 3011 0826 3E000000 		.4byte	0x3e
 3012 082a 08       		.byte	0x8
 3013 082b 00       		.byte	0
 3014 082c 0C       		.uleb128 0xc
 3015 082d 1C080000 		.4byte	0x81c
 3016 0831 19       		.uleb128 0x19
 3017 0832 2B010000 		.4byte	.LASF67
 3018 0836 3C       		.byte	0x3c
 3019 0837 2D000000 		.4byte	0x2d
 3020 083b 00000000 		.4byte	.LFB432
 3021 083f BA000000 		.4byte	.LFE432-.LFB432
ARM GAS  C:\Users\DEVELO~1\AppData\Local\Temp\ccJs2sHK.s 			page 54


 3022 0843 01       		.uleb128 0x1
 3023 0844 9C       		.byte	0x9c
 3024 0845 97080000 		.4byte	0x897
 3025 0849 05       		.uleb128 0x5
 3026 084a 69717000 		.ascii	"iqp\000"
 3027 084e 07       		.byte	0x7
 3028 084f 3C       		.byte	0x3c
 3029 0850 26       		.byte	0x26
 3030 0851 DD050000 		.4byte	0x5dd
 3031 0855 02       		.uleb128 0x2
 3032 0856 91       		.byte	0x91
 3033 0857 6C       		.sleb128 -20
 3034 0858 05       		.uleb128 0x5
 3035 0859 627000   		.ascii	"bp\000"
 3036 085c 07       		.byte	0x7
 3037 085d 3C       		.byte	0x3c
 3038 085e 34       		.byte	0x34
 3039 085f 5E010000 		.4byte	0x15e
 3040 0863 02       		.uleb128 0x2
 3041 0864 91       		.byte	0x91
 3042 0865 68       		.sleb128 -24
 3043 0866 05       		.uleb128 0x5
 3044 0867 6E00     		.ascii	"n\000"
 3045 0869 07       		.byte	0x7
 3046 086a 3C       		.byte	0x3c
 3047 086b 3F       		.byte	0x3f
 3048 086c 2D000000 		.4byte	0x2d
 3049 0870 02       		.uleb128 0x2
 3050 0871 91       		.byte	0x91
 3051 0872 64       		.sleb128 -28
 3052 0873 10       		.uleb128 0x10
 3053 0874 733100   		.ascii	"s1\000"
 3054 0877 3D       		.byte	0x3d
 3055 0878 0A       		.byte	0xa
 3056 0879 2D000000 		.4byte	0x2d
 3057 087d 02       		.uleb128 0x2
 3058 087e 91       		.byte	0x91
 3059 087f 74       		.sleb128 -12
 3060 0880 10       		.uleb128 0x10
 3061 0881 733200   		.ascii	"s2\000"
 3062 0884 3D       		.byte	0x3d
 3063 0885 0E       		.byte	0xe
 3064 0886 2D000000 		.4byte	0x2d
 3065 088a 02       		.uleb128 0x2
 3066 088b 91       		.byte	0x91
 3067 088c 70       		.sleb128 -16
 3068 088d 0D       		.uleb128 0xd
 3069 088e 8B020000 		.4byte	.LASF58
 3070 0892 A7080000 		.4byte	0x8a7
 3071 0896 00       		.byte	0
 3072 0897 0E       		.uleb128 0xe
 3073 0898 B1000000 		.4byte	0xb1
 3074 089c A7080000 		.4byte	0x8a7
 3075 08a0 0F       		.uleb128 0xf
 3076 08a1 3E000000 		.4byte	0x3e
 3077 08a5 07       		.byte	0x7
 3078 08a6 00       		.byte	0
ARM GAS  C:\Users\DEVELO~1\AppData\Local\Temp\ccJs2sHK.s 			page 55


 3079 08a7 0C       		.uleb128 0xc
 3080 08a8 97080000 		.4byte	0x897
 3081 08ac 11       		.uleb128 0x11
 3082 08ad 4F020000 		.4byte	.LASF68
 3083 08b1 06       		.byte	0x6
 3084 08b2 9703     		.2byte	0x397
 3085 08b4 00000000 		.4byte	.LFB372
 3086 08b8 1A000000 		.4byte	.LFE372-.LFB372
 3087 08bc 01       		.uleb128 0x1
 3088 08bd 9C       		.byte	0x9c
 3089 08be E3080000 		.4byte	0x8e3
 3090 08c2 01       		.uleb128 0x1
 3091 08c3 74717000 		.ascii	"tqp\000"
 3092 08c7 06       		.byte	0x6
 3093 08c8 9703     		.2byte	0x397
 3094 08ca 3B       		.byte	0x3b
 3095 08cb 3F020000 		.4byte	0x23f
 3096 08cf 02       		.uleb128 0x2
 3097 08d0 91       		.byte	0x91
 3098 08d1 74       		.sleb128 -12
 3099 08d2 01       		.uleb128 0x1
 3100 08d3 6D736700 		.ascii	"msg\000"
 3101 08d7 06       		.byte	0x6
 3102 08d8 9703     		.2byte	0x397
 3103 08da 46       		.byte	0x46
 3104 08db DF000000 		.4byte	0xdf
 3105 08df 02       		.uleb128 0x2
 3106 08e0 91       		.byte	0x91
 3107 08e1 70       		.sleb128 -16
 3108 08e2 00       		.byte	0
 3109 08e3 11       		.uleb128 0x11
 3110 08e4 33010000 		.4byte	.LASF69
 3111 08e8 06       		.byte	0x6
 3112 08e9 8A03     		.2byte	0x38a
 3113 08eb 00000000 		.4byte	.LFB371
 3114 08ef 1A000000 		.4byte	.LFE371-.LFB371
 3115 08f3 01       		.uleb128 0x1
 3116 08f4 9C       		.byte	0x9c
 3117 08f5 1A090000 		.4byte	0x91a
 3118 08f9 01       		.uleb128 0x1
 3119 08fa 74717000 		.ascii	"tqp\000"
 3120 08fe 06       		.byte	0x6
 3121 08ff 8A03     		.2byte	0x38a
 3122 0901 3C       		.byte	0x3c
 3123 0902 3F020000 		.4byte	0x23f
 3124 0906 02       		.uleb128 0x2
 3125 0907 91       		.byte	0x91
 3126 0908 74       		.sleb128 -12
 3127 0909 01       		.uleb128 0x1
 3128 090a 6D736700 		.ascii	"msg\000"
 3129 090e 06       		.byte	0x6
 3130 090f 8A03     		.2byte	0x38a
 3131 0911 47       		.byte	0x47
 3132 0912 DF000000 		.4byte	0xdf
 3133 0916 02       		.uleb128 0x2
 3134 0917 91       		.byte	0x91
 3135 0918 70       		.sleb128 -16
ARM GAS  C:\Users\DEVELO~1\AppData\Local\Temp\ccJs2sHK.s 			page 56


 3136 0919 00       		.byte	0
 3137 091a 27       		.uleb128 0x27
 3138 091b 00000000 		.4byte	.LASF70
 3139 091f 06       		.byte	0x6
 3140 0920 7C03     		.2byte	0x37c
 3141 0922 15       		.byte	0x15
 3142 0923 DF000000 		.4byte	0xdf
 3143 0927 00000000 		.4byte	.LFB370
 3144 092b 1C000000 		.4byte	.LFE370-.LFB370
 3145 092f 01       		.uleb128 0x1
 3146 0930 9C       		.byte	0x9c
 3147 0931 56090000 		.4byte	0x956
 3148 0935 01       		.uleb128 0x1
 3149 0936 74717000 		.ascii	"tqp\000"
 3150 093a 06       		.byte	0x6
 3151 093b 7C03     		.2byte	0x37c
 3152 093d 40       		.byte	0x40
 3153 093e 3F020000 		.4byte	0x23f
 3154 0942 02       		.uleb128 0x2
 3155 0943 91       		.byte	0x91
 3156 0944 74       		.sleb128 -12
 3157 0945 0A       		.uleb128 0xa
 3158 0946 88040000 		.4byte	.LASF45
 3159 094a 06       		.byte	0x6
 3160 094b 7D03     		.2byte	0x37d
 3161 094d 3D       		.byte	0x3d
 3162 094e EB000000 		.4byte	0xeb
 3163 0952 02       		.uleb128 0x2
 3164 0953 91       		.byte	0x91
 3165 0954 70       		.sleb128 -16
 3166 0955 00       		.byte	0
 3167 0956 11       		.uleb128 0x11
 3168 0957 1E020000 		.4byte	.LASF71
 3169 095b 06       		.byte	0x6
 3170 095c 6003     		.2byte	0x360
 3171 095e 00000000 		.4byte	.LFB369
 3172 0962 16000000 		.4byte	.LFE369-.LFB369
 3173 0966 01       		.uleb128 0x1
 3174 0967 9C       		.byte	0x9c
 3175 0968 7D090000 		.4byte	0x97d
 3176 096c 01       		.uleb128 0x1
 3177 096d 74717000 		.ascii	"tqp\000"
 3178 0971 06       		.byte	0x6
 3179 0972 6003     		.2byte	0x360
 3180 0974 3F       		.byte	0x3f
 3181 0975 3F020000 		.4byte	0x23f
 3182 0979 02       		.uleb128 0x2
 3183 097a 91       		.byte	0x91
 3184 097b 74       		.sleb128 -12
 3185 097c 00       		.byte	0
 3186 097d 1A       		.uleb128 0x1a
 3187 097e 05010000 		.4byte	.LASF72
 3188 0982 4802     		.2byte	0x248
 3189 0984 00000000 		.4byte	.LFB351
 3190 0988 0C000000 		.4byte	.LFE351-.LFB351
 3191 098c 01       		.uleb128 0x1
 3192 098d 9C       		.byte	0x9c
ARM GAS  C:\Users\DEVELO~1\AppData\Local\Temp\ccJs2sHK.s 			page 57


 3193 098e 1A       		.uleb128 0x1a
 3194 098f 76040000 		.4byte	.LASF73
 3195 0993 3D02     		.2byte	0x23d
 3196 0995 00000000 		.4byte	.LFB350
 3197 0999 0C000000 		.4byte	.LFE350-.LFB350
 3198 099d 01       		.uleb128 0x1
 3199 099e 9C       		.byte	0x9c
 3200 099f 11       		.uleb128 0x11
 3201 09a0 4C030000 		.4byte	.LASF74
 3202 09a4 05       		.byte	0x5
 3203 09a5 CD01     		.2byte	0x1cd
 3204 09a7 00000000 		.4byte	.LFB236
 3205 09ab 18000000 		.4byte	.LFE236-.LFB236
 3206 09af 01       		.uleb128 0x1
 3207 09b0 9C       		.byte	0x9c
 3208 09b1 C6090000 		.4byte	0x9c6
 3209 09b5 01       		.uleb128 0x1
 3210 09b6 74717000 		.ascii	"tqp\000"
 3211 09ba 05       		.byte	0x5
 3212 09bb CD01     		.2byte	0x1cd
 3213 09bd 3A       		.byte	0x3a
 3214 09be 3F020000 		.4byte	0x23f
 3215 09c2 02       		.uleb128 0x2
 3216 09c3 91       		.byte	0x91
 3217 09c4 74       		.sleb128 -12
 3218 09c5 00       		.byte	0
 3219 09c6 1B       		.uleb128 0x1b
 3220 09c7 B7030000 		.4byte	.LASF75
 3221 09cb A501     		.2byte	0x1a5
 3222 09cd 00000000 		.4byte	.LFB203
 3223 09d1 1E000000 		.4byte	.LFE203-.LFB203
 3224 09d5 01       		.uleb128 0x1
 3225 09d6 9C       		.byte	0x9c
 3226 09d7 0F0A0000 		.4byte	0xa0f
 3227 09db 0D       		.uleb128 0xd
 3228 09dc 8B020000 		.4byte	.LASF58
 3229 09e0 1F0A0000 		.4byte	0xa1f
 3230 09e4 12       		.uleb128 0x12
 3231 09e5 640A0000 		.4byte	0xa64
 3232 09e9 0A000000 		.4byte	.LBB18
 3233 09ed 0A000000 		.4byte	.LBE18-.LBB18
 3234 09f1 02       		.byte	0x2
 3235 09f2 B201     		.2byte	0x1b2
 3236 09f4 12       		.uleb128 0x12
 3237 09f5 720A0000 		.4byte	0xa72
 3238 09f9 0A000000 		.4byte	.LBB20
 3239 09fd 08000000 		.4byte	.LBE20-.LBB20
 3240 0a01 04       		.byte	0x4
 3241 0a02 5203     		.2byte	0x352
 3242 0a04 1C       		.uleb128 0x1c
 3243 0a05 800A0000 		.4byte	0xa80
 3244 0a09 02       		.uleb128 0x2
 3245 0a0a 91       		.byte	0x91
 3246 0a0b 74       		.sleb128 -12
 3247 0a0c 00       		.byte	0
 3248 0a0d 00       		.byte	0
 3249 0a0e 00       		.byte	0
ARM GAS  C:\Users\DEVELO~1\AppData\Local\Temp\ccJs2sHK.s 			page 58


 3250 0a0f 0E       		.uleb128 0xe
 3251 0a10 B1000000 		.4byte	0xb1
 3252 0a14 1F0A0000 		.4byte	0xa1f
 3253 0a18 0F       		.uleb128 0xf
 3254 0a19 3E000000 		.4byte	0x3e
 3255 0a1d 0B       		.byte	0xb
 3256 0a1e 00       		.byte	0
 3257 0a1f 0C       		.uleb128 0xc
 3258 0a20 0F0A0000 		.4byte	0xa0f
 3259 0a24 1B       		.uleb128 0x1b
 3260 0a25 C0010000 		.4byte	.LASF76
 3261 0a29 9701     		.2byte	0x197
 3262 0a2b 00000000 		.4byte	.LFB202
 3263 0a2f 1E000000 		.4byte	.LFE202-.LFB202
 3264 0a33 01       		.uleb128 0x1
 3265 0a34 9C       		.byte	0x9c
 3266 0a35 640A0000 		.4byte	0xa64
 3267 0a39 12       		.uleb128 0x12
 3268 0a3a 6B0A0000 		.4byte	0xa6b
 3269 0a3e 0A000000 		.4byte	.LBB14
 3270 0a42 0A000000 		.4byte	.LBE14-.LBB14
 3271 0a46 02       		.byte	0x2
 3272 0a47 9901     		.2byte	0x199
 3273 0a49 12       		.uleb128 0x12
 3274 0a4a 720A0000 		.4byte	0xa72
 3275 0a4e 0A000000 		.4byte	.LBB16
 3276 0a52 08000000 		.4byte	.LBE16-.LBB16
 3277 0a56 04       		.byte	0x4
 3278 0a57 3F03     		.2byte	0x33f
 3279 0a59 1C       		.uleb128 0x1c
 3280 0a5a 800A0000 		.4byte	0xa80
 3281 0a5e 02       		.uleb128 0x2
 3282 0a5f 91       		.byte	0x91
 3283 0a60 74       		.sleb128 -12
 3284 0a61 00       		.byte	0
 3285 0a62 00       		.byte	0
 3286 0a63 00       		.byte	0
 3287 0a64 1D       		.uleb128 0x1d
 3288 0a65 2B030000 		.4byte	.LASF77
 3289 0a69 4F03     		.2byte	0x34f
 3290 0a6b 1D       		.uleb128 0x1d
 3291 0a6c 1A010000 		.4byte	.LASF78
 3292 0a70 3703     		.2byte	0x337
 3293 0a72 28       		.uleb128 0x28
 3294 0a73 5A040000 		.4byte	.LASF82
 3295 0a77 03       		.byte	0x3
 3296 0a78 EB01     		.2byte	0x1eb
 3297 0a7a 1B       		.byte	0x1b
 3298 0a7b 03       		.byte	0x3
 3299 0a7c 8E0A0000 		.4byte	0xa8e
 3300 0a80 29       		.uleb128 0x29
 3301 0a81 F3020000 		.4byte	.LASF83
 3302 0a85 03       		.byte	0x3
 3303 0a86 EB01     		.2byte	0x1eb
 3304 0a88 32       		.byte	0x32
 3305 0a89 D3000000 		.4byte	0xd3
 3306 0a8d 00       		.byte	0
ARM GAS  C:\Users\DEVELO~1\AppData\Local\Temp\ccJs2sHK.s 			page 59


 3307 0a8e 2A       		.uleb128 0x2a
 3308 0a8f C3030000 		.4byte	.LASF84
 3309 0a93 01       		.byte	0x1
 3310 0a94 DE       		.byte	0xde
 3311 0a95 14       		.byte	0x14
 3312 0a96 00000000 		.4byte	.LFB19
 3313 0a9a 1E000000 		.4byte	.LFE19-.LFB19
 3314 0a9e 01       		.uleb128 0x1
 3315 0a9f 9C       		.byte	0x9c
 3316 0aa0 05       		.uleb128 0x5
 3317 0aa1 717000   		.ascii	"qp\000"
 3318 0aa4 01       		.byte	0x1
 3319 0aa5 DE       		.byte	0xde
 3320 0aa6 2E       		.byte	0x2e
 3321 0aa7 2B010000 		.4byte	0x12b
 3322 0aab 02       		.uleb128 0x2
 3323 0aac 91       		.byte	0x91
 3324 0aad 74       		.sleb128 -12
 3325 0aae 00       		.byte	0
 3326 0aaf 00       		.byte	0
 3327              		.section	.debug_abbrev,"",%progbits
 3328              	.Ldebug_abbrev0:
 3329 0000 01       		.uleb128 0x1
 3330 0001 05       		.uleb128 0x5
 3331 0002 00       		.byte	0
 3332 0003 03       		.uleb128 0x3
 3333 0004 08       		.uleb128 0x8
 3334 0005 3A       		.uleb128 0x3a
 3335 0006 0B       		.uleb128 0xb
 3336 0007 3B       		.uleb128 0x3b
 3337 0008 05       		.uleb128 0x5
 3338 0009 39       		.uleb128 0x39
 3339 000a 0B       		.uleb128 0xb
 3340 000b 49       		.uleb128 0x49
 3341 000c 13       		.uleb128 0x13
 3342 000d 02       		.uleb128 0x2
 3343 000e 18       		.uleb128 0x18
 3344 000f 00       		.byte	0
 3345 0010 00       		.byte	0
 3346 0011 02       		.uleb128 0x2
 3347 0012 16       		.uleb128 0x16
 3348 0013 00       		.byte	0
 3349 0014 03       		.uleb128 0x3
 3350 0015 0E       		.uleb128 0xe
 3351 0016 3A       		.uleb128 0x3a
 3352 0017 0B       		.uleb128 0xb
 3353 0018 3B       		.uleb128 0x3b
 3354 0019 0B       		.uleb128 0xb
 3355 001a 39       		.uleb128 0x39
 3356 001b 0B       		.uleb128 0xb
 3357 001c 49       		.uleb128 0x49
 3358 001d 13       		.uleb128 0x13
 3359 001e 00       		.byte	0
 3360 001f 00       		.byte	0
 3361 0020 03       		.uleb128 0x3
 3362 0021 34       		.uleb128 0x34
 3363 0022 00       		.byte	0
ARM GAS  C:\Users\DEVELO~1\AppData\Local\Temp\ccJs2sHK.s 			page 60


 3364 0023 03       		.uleb128 0x3
 3365 0024 08       		.uleb128 0x8
 3366 0025 3A       		.uleb128 0x3a
 3367 0026 21       		.uleb128 0x21
 3368 0027 07       		.sleb128 7
 3369 0028 3B       		.uleb128 0x3b
 3370 0029 05       		.uleb128 0x5
 3371 002a 39       		.uleb128 0x39
 3372 002b 0B       		.uleb128 0xb
 3373 002c 49       		.uleb128 0x49
 3374 002d 13       		.uleb128 0x13
 3375 002e 02       		.uleb128 0x2
 3376 002f 18       		.uleb128 0x18
 3377 0030 00       		.byte	0
 3378 0031 00       		.byte	0
 3379 0032 04       		.uleb128 0x4
 3380 0033 24       		.uleb128 0x24
 3381 0034 00       		.byte	0
 3382 0035 0B       		.uleb128 0xb
 3383 0036 0B       		.uleb128 0xb
 3384 0037 3E       		.uleb128 0x3e
 3385 0038 0B       		.uleb128 0xb
 3386 0039 03       		.uleb128 0x3
 3387 003a 0E       		.uleb128 0xe
 3388 003b 00       		.byte	0
 3389 003c 00       		.byte	0
 3390 003d 05       		.uleb128 0x5
 3391 003e 05       		.uleb128 0x5
 3392 003f 00       		.byte	0
 3393 0040 03       		.uleb128 0x3
 3394 0041 08       		.uleb128 0x8
 3395 0042 3A       		.uleb128 0x3a
 3396 0043 0B       		.uleb128 0xb
 3397 0044 3B       		.uleb128 0x3b
 3398 0045 0B       		.uleb128 0xb
 3399 0046 39       		.uleb128 0x39
 3400 0047 0B       		.uleb128 0xb
 3401 0048 49       		.uleb128 0x49
 3402 0049 13       		.uleb128 0x13
 3403 004a 02       		.uleb128 0x2
 3404 004b 18       		.uleb128 0x18
 3405 004c 00       		.byte	0
 3406 004d 00       		.byte	0
 3407 004e 06       		.uleb128 0x6
 3408 004f 0D       		.uleb128 0xd
 3409 0050 00       		.byte	0
 3410 0051 03       		.uleb128 0x3
 3411 0052 0E       		.uleb128 0xe
 3412 0053 3A       		.uleb128 0x3a
 3413 0054 0B       		.uleb128 0xb
 3414 0055 3B       		.uleb128 0x3b
 3415 0056 0B       		.uleb128 0xb
 3416 0057 39       		.uleb128 0x39
 3417 0058 0B       		.uleb128 0xb
 3418 0059 49       		.uleb128 0x49
 3419 005a 13       		.uleb128 0x13
 3420 005b 38       		.uleb128 0x38
ARM GAS  C:\Users\DEVELO~1\AppData\Local\Temp\ccJs2sHK.s 			page 61


 3421 005c 0B       		.uleb128 0xb
 3422 005d 00       		.byte	0
 3423 005e 00       		.byte	0
 3424 005f 07       		.uleb128 0x7
 3425 0060 05       		.uleb128 0x5
 3426 0061 00       		.byte	0
 3427 0062 49       		.uleb128 0x49
 3428 0063 13       		.uleb128 0x13
 3429 0064 00       		.byte	0
 3430 0065 00       		.byte	0
 3431 0066 08       		.uleb128 0x8
 3432 0067 0F       		.uleb128 0xf
 3433 0068 00       		.byte	0
 3434 0069 0B       		.uleb128 0xb
 3435 006a 21       		.uleb128 0x21
 3436 006b 04       		.sleb128 4
 3437 006c 49       		.uleb128 0x49
 3438 006d 13       		.uleb128 0x13
 3439 006e 00       		.byte	0
 3440 006f 00       		.byte	0
 3441 0070 09       		.uleb128 0x9
 3442 0071 2E       		.uleb128 0x2e
 3443 0072 01       		.byte	0x1
 3444 0073 3F       		.uleb128 0x3f
 3445 0074 19       		.uleb128 0x19
 3446 0075 03       		.uleb128 0x3
 3447 0076 0E       		.uleb128 0xe
 3448 0077 3A       		.uleb128 0x3a
 3449 0078 21       		.uleb128 0x21
 3450 0079 07       		.sleb128 7
 3451 007a 3B       		.uleb128 0x3b
 3452 007b 05       		.uleb128 0x5
 3453 007c 39       		.uleb128 0x39
 3454 007d 0B       		.uleb128 0xb
 3455 007e 27       		.uleb128 0x27
 3456 007f 19       		.uleb128 0x19
 3457 0080 49       		.uleb128 0x49
 3458 0081 13       		.uleb128 0x13
 3459 0082 11       		.uleb128 0x11
 3460 0083 01       		.uleb128 0x1
 3461 0084 12       		.uleb128 0x12
 3462 0085 06       		.uleb128 0x6
 3463 0086 40       		.uleb128 0x40
 3464 0087 18       		.uleb128 0x18
 3465 0088 7C       		.uleb128 0x7c
 3466 0089 19       		.uleb128 0x19
 3467 008a 01       		.uleb128 0x1
 3468 008b 13       		.uleb128 0x13
 3469 008c 00       		.byte	0
 3470 008d 00       		.byte	0
 3471 008e 0A       		.uleb128 0xa
 3472 008f 05       		.uleb128 0x5
 3473 0090 00       		.byte	0
 3474 0091 03       		.uleb128 0x3
 3475 0092 0E       		.uleb128 0xe
 3476 0093 3A       		.uleb128 0x3a
 3477 0094 0B       		.uleb128 0xb
ARM GAS  C:\Users\DEVELO~1\AppData\Local\Temp\ccJs2sHK.s 			page 62


 3478 0095 3B       		.uleb128 0x3b
 3479 0096 05       		.uleb128 0x5
 3480 0097 39       		.uleb128 0x39
 3481 0098 0B       		.uleb128 0xb
 3482 0099 49       		.uleb128 0x49
 3483 009a 13       		.uleb128 0x13
 3484 009b 02       		.uleb128 0x2
 3485 009c 18       		.uleb128 0x18
 3486 009d 00       		.byte	0
 3487 009e 00       		.byte	0
 3488 009f 0B       		.uleb128 0xb
 3489 00a0 0B       		.uleb128 0xb
 3490 00a1 01       		.byte	0x1
 3491 00a2 11       		.uleb128 0x11
 3492 00a3 01       		.uleb128 0x1
 3493 00a4 12       		.uleb128 0x12
 3494 00a5 06       		.uleb128 0x6
 3495 00a6 00       		.byte	0
 3496 00a7 00       		.byte	0
 3497 00a8 0C       		.uleb128 0xc
 3498 00a9 26       		.uleb128 0x26
 3499 00aa 00       		.byte	0
 3500 00ab 49       		.uleb128 0x49
 3501 00ac 13       		.uleb128 0x13
 3502 00ad 00       		.byte	0
 3503 00ae 00       		.byte	0
 3504 00af 0D       		.uleb128 0xd
 3505 00b0 34       		.uleb128 0x34
 3506 00b1 00       		.byte	0
 3507 00b2 03       		.uleb128 0x3
 3508 00b3 0E       		.uleb128 0xe
 3509 00b4 49       		.uleb128 0x49
 3510 00b5 13       		.uleb128 0x13
 3511 00b6 34       		.uleb128 0x34
 3512 00b7 19       		.uleb128 0x19
 3513 00b8 00       		.byte	0
 3514 00b9 00       		.byte	0
 3515 00ba 0E       		.uleb128 0xe
 3516 00bb 01       		.uleb128 0x1
 3517 00bc 01       		.byte	0x1
 3518 00bd 49       		.uleb128 0x49
 3519 00be 13       		.uleb128 0x13
 3520 00bf 01       		.uleb128 0x1
 3521 00c0 13       		.uleb128 0x13
 3522 00c1 00       		.byte	0
 3523 00c2 00       		.byte	0
 3524 00c3 0F       		.uleb128 0xf
 3525 00c4 21       		.uleb128 0x21
 3526 00c5 00       		.byte	0
 3527 00c6 49       		.uleb128 0x49
 3528 00c7 13       		.uleb128 0x13
 3529 00c8 2F       		.uleb128 0x2f
 3530 00c9 0B       		.uleb128 0xb
 3531 00ca 00       		.byte	0
 3532 00cb 00       		.byte	0
 3533 00cc 10       		.uleb128 0x10
 3534 00cd 34       		.uleb128 0x34
ARM GAS  C:\Users\DEVELO~1\AppData\Local\Temp\ccJs2sHK.s 			page 63


 3535 00ce 00       		.byte	0
 3536 00cf 03       		.uleb128 0x3
 3537 00d0 08       		.uleb128 0x8
 3538 00d1 3A       		.uleb128 0x3a
 3539 00d2 21       		.uleb128 0x21
 3540 00d3 07       		.sleb128 7
 3541 00d4 3B       		.uleb128 0x3b
 3542 00d5 0B       		.uleb128 0xb
 3543 00d6 39       		.uleb128 0x39
 3544 00d7 0B       		.uleb128 0xb
 3545 00d8 49       		.uleb128 0x49
 3546 00d9 13       		.uleb128 0x13
 3547 00da 02       		.uleb128 0x2
 3548 00db 18       		.uleb128 0x18
 3549 00dc 00       		.byte	0
 3550 00dd 00       		.byte	0
 3551 00de 11       		.uleb128 0x11
 3552 00df 2E       		.uleb128 0x2e
 3553 00e0 01       		.byte	0x1
 3554 00e1 03       		.uleb128 0x3
 3555 00e2 0E       		.uleb128 0xe
 3556 00e3 3A       		.uleb128 0x3a
 3557 00e4 0B       		.uleb128 0xb
 3558 00e5 3B       		.uleb128 0x3b
 3559 00e6 05       		.uleb128 0x5
 3560 00e7 39       		.uleb128 0x39
 3561 00e8 21       		.uleb128 0x21
 3562 00e9 14       		.sleb128 20
 3563 00ea 27       		.uleb128 0x27
 3564 00eb 19       		.uleb128 0x19
 3565 00ec 11       		.uleb128 0x11
 3566 00ed 01       		.uleb128 0x1
 3567 00ee 12       		.uleb128 0x12
 3568 00ef 06       		.uleb128 0x6
 3569 00f0 40       		.uleb128 0x40
 3570 00f1 18       		.uleb128 0x18
 3571 00f2 7C       		.uleb128 0x7c
 3572 00f3 19       		.uleb128 0x19
 3573 00f4 01       		.uleb128 0x1
 3574 00f5 13       		.uleb128 0x13
 3575 00f6 00       		.byte	0
 3576 00f7 00       		.byte	0
 3577 00f8 12       		.uleb128 0x12
 3578 00f9 1D       		.uleb128 0x1d
 3579 00fa 01       		.byte	0x1
 3580 00fb 31       		.uleb128 0x31
 3581 00fc 13       		.uleb128 0x13
 3582 00fd 11       		.uleb128 0x11
 3583 00fe 01       		.uleb128 0x1
 3584 00ff 12       		.uleb128 0x12
 3585 0100 06       		.uleb128 0x6
 3586 0101 58       		.uleb128 0x58
 3587 0102 0B       		.uleb128 0xb
 3588 0103 59       		.uleb128 0x59
 3589 0104 05       		.uleb128 0x5
 3590 0105 57       		.uleb128 0x57
 3591 0106 21       		.uleb128 0x21
ARM GAS  C:\Users\DEVELO~1\AppData\Local\Temp\ccJs2sHK.s 			page 64


 3592 0107 03       		.sleb128 3
 3593 0108 00       		.byte	0
 3594 0109 00       		.byte	0
 3595 010a 13       		.uleb128 0x13
 3596 010b 13       		.uleb128 0x13
 3597 010c 01       		.byte	0x1
 3598 010d 03       		.uleb128 0x3
 3599 010e 0E       		.uleb128 0xe
 3600 010f 0B       		.uleb128 0xb
 3601 0110 0B       		.uleb128 0xb
 3602 0111 3A       		.uleb128 0x3a
 3603 0112 0B       		.uleb128 0xb
 3604 0113 3B       		.uleb128 0x3b
 3605 0114 0B       		.uleb128 0xb
 3606 0115 39       		.uleb128 0x39
 3607 0116 0B       		.uleb128 0xb
 3608 0117 01       		.uleb128 0x1
 3609 0118 13       		.uleb128 0x13
 3610 0119 00       		.byte	0
 3611 011a 00       		.byte	0
 3612 011b 14       		.uleb128 0x14
 3613 011c 05       		.uleb128 0x5
 3614 011d 00       		.byte	0
 3615 011e 03       		.uleb128 0x3
 3616 011f 0E       		.uleb128 0xe
 3617 0120 3A       		.uleb128 0x3a
 3618 0121 21       		.uleb128 0x21
 3619 0122 07       		.sleb128 7
 3620 0123 3B       		.uleb128 0x3b
 3621 0124 0B       		.uleb128 0xb
 3622 0125 39       		.uleb128 0x39
 3623 0126 0B       		.uleb128 0xb
 3624 0127 49       		.uleb128 0x49
 3625 0128 13       		.uleb128 0x13
 3626 0129 02       		.uleb128 0x2
 3627 012a 18       		.uleb128 0x18
 3628 012b 00       		.byte	0
 3629 012c 00       		.byte	0
 3630 012d 15       		.uleb128 0x15
 3631 012e 2E       		.uleb128 0x2e
 3632 012f 01       		.byte	0x1
 3633 0130 3F       		.uleb128 0x3f
 3634 0131 19       		.uleb128 0x19
 3635 0132 03       		.uleb128 0x3
 3636 0133 0E       		.uleb128 0xe
 3637 0134 3A       		.uleb128 0x3a
 3638 0135 21       		.uleb128 0x21
 3639 0136 05       		.sleb128 5
 3640 0137 3B       		.uleb128 0x3b
 3641 0138 05       		.uleb128 0x5
 3642 0139 39       		.uleb128 0x39
 3643 013a 21       		.uleb128 0x21
 3644 013b 08       		.sleb128 8
 3645 013c 27       		.uleb128 0x27
 3646 013d 19       		.uleb128 0x19
 3647 013e 3C       		.uleb128 0x3c
 3648 013f 19       		.uleb128 0x19
ARM GAS  C:\Users\DEVELO~1\AppData\Local\Temp\ccJs2sHK.s 			page 65


 3649 0140 01       		.uleb128 0x1
 3650 0141 13       		.uleb128 0x13
 3651 0142 00       		.byte	0
 3652 0143 00       		.byte	0
 3653 0144 16       		.uleb128 0x16
 3654 0145 34       		.uleb128 0x34
 3655 0146 00       		.byte	0
 3656 0147 03       		.uleb128 0x3
 3657 0148 0E       		.uleb128 0xe
 3658 0149 3A       		.uleb128 0x3a
 3659 014a 21       		.uleb128 0x21
 3660 014b 07       		.sleb128 7
 3661 014c 3B       		.uleb128 0x3b
 3662 014d 05       		.uleb128 0x5
 3663 014e 39       		.uleb128 0x39
 3664 014f 21       		.uleb128 0x21
 3665 0150 0C       		.sleb128 12
 3666 0151 49       		.uleb128 0x49
 3667 0152 13       		.uleb128 0x13
 3668 0153 02       		.uleb128 0x2
 3669 0154 18       		.uleb128 0x18
 3670 0155 00       		.byte	0
 3671 0156 00       		.byte	0
 3672 0157 17       		.uleb128 0x17
 3673 0158 2E       		.uleb128 0x2e
 3674 0159 01       		.byte	0x1
 3675 015a 3F       		.uleb128 0x3f
 3676 015b 19       		.uleb128 0x19
 3677 015c 03       		.uleb128 0x3
 3678 015d 0E       		.uleb128 0xe
 3679 015e 3A       		.uleb128 0x3a
 3680 015f 21       		.uleb128 0x21
 3681 0160 07       		.sleb128 7
 3682 0161 3B       		.uleb128 0x3b
 3683 0162 05       		.uleb128 0x5
 3684 0163 39       		.uleb128 0x39
 3685 0164 21       		.uleb128 0x21
 3686 0165 06       		.sleb128 6
 3687 0166 27       		.uleb128 0x27
 3688 0167 19       		.uleb128 0x19
 3689 0168 11       		.uleb128 0x11
 3690 0169 01       		.uleb128 0x1
 3691 016a 12       		.uleb128 0x12
 3692 016b 06       		.uleb128 0x6
 3693 016c 40       		.uleb128 0x40
 3694 016d 18       		.uleb128 0x18
 3695 016e 7C       		.uleb128 0x7c
 3696 016f 19       		.uleb128 0x19
 3697 0170 01       		.uleb128 0x1
 3698 0171 13       		.uleb128 0x13
 3699 0172 00       		.byte	0
 3700 0173 00       		.byte	0
 3701 0174 18       		.uleb128 0x18
 3702 0175 2E       		.uleb128 0x2e
 3703 0176 01       		.byte	0x1
 3704 0177 3F       		.uleb128 0x3f
 3705 0178 19       		.uleb128 0x19
ARM GAS  C:\Users\DEVELO~1\AppData\Local\Temp\ccJs2sHK.s 			page 66


 3706 0179 03       		.uleb128 0x3
 3707 017a 0E       		.uleb128 0xe
 3708 017b 3A       		.uleb128 0x3a
 3709 017c 21       		.uleb128 0x21
 3710 017d 07       		.sleb128 7
 3711 017e 3B       		.uleb128 0x3b
 3712 017f 0B       		.uleb128 0xb
 3713 0180 39       		.uleb128 0x39
 3714 0181 21       		.uleb128 0x21
 3715 0182 06       		.sleb128 6
 3716 0183 27       		.uleb128 0x27
 3717 0184 19       		.uleb128 0x19
 3718 0185 11       		.uleb128 0x11
 3719 0186 01       		.uleb128 0x1
 3720 0187 12       		.uleb128 0x12
 3721 0188 06       		.uleb128 0x6
 3722 0189 40       		.uleb128 0x40
 3723 018a 18       		.uleb128 0x18
 3724 018b 7C       		.uleb128 0x7c
 3725 018c 19       		.uleb128 0x19
 3726 018d 01       		.uleb128 0x1
 3727 018e 13       		.uleb128 0x13
 3728 018f 00       		.byte	0
 3729 0190 00       		.byte	0
 3730 0191 19       		.uleb128 0x19
 3731 0192 2E       		.uleb128 0x2e
 3732 0193 01       		.byte	0x1
 3733 0194 03       		.uleb128 0x3
 3734 0195 0E       		.uleb128 0xe
 3735 0196 3A       		.uleb128 0x3a
 3736 0197 21       		.uleb128 0x21
 3737 0198 07       		.sleb128 7
 3738 0199 3B       		.uleb128 0x3b
 3739 019a 0B       		.uleb128 0xb
 3740 019b 39       		.uleb128 0x39
 3741 019c 21       		.uleb128 0x21
 3742 019d 0F       		.sleb128 15
 3743 019e 27       		.uleb128 0x27
 3744 019f 19       		.uleb128 0x19
 3745 01a0 49       		.uleb128 0x49
 3746 01a1 13       		.uleb128 0x13
 3747 01a2 11       		.uleb128 0x11
 3748 01a3 01       		.uleb128 0x1
 3749 01a4 12       		.uleb128 0x12
 3750 01a5 06       		.uleb128 0x6
 3751 01a6 40       		.uleb128 0x40
 3752 01a7 18       		.uleb128 0x18
 3753 01a8 7C       		.uleb128 0x7c
 3754 01a9 19       		.uleb128 0x19
 3755 01aa 01       		.uleb128 0x1
 3756 01ab 13       		.uleb128 0x13
 3757 01ac 00       		.byte	0
 3758 01ad 00       		.byte	0
 3759 01ae 1A       		.uleb128 0x1a
 3760 01af 2E       		.uleb128 0x2e
 3761 01b0 00       		.byte	0
 3762 01b1 03       		.uleb128 0x3
ARM GAS  C:\Users\DEVELO~1\AppData\Local\Temp\ccJs2sHK.s 			page 67


 3763 01b2 0E       		.uleb128 0xe
 3764 01b3 3A       		.uleb128 0x3a
 3765 01b4 21       		.uleb128 0x21
 3766 01b5 06       		.sleb128 6
 3767 01b6 3B       		.uleb128 0x3b
 3768 01b7 05       		.uleb128 0x5
 3769 01b8 39       		.uleb128 0x39
 3770 01b9 21       		.uleb128 0x21
 3771 01ba 14       		.sleb128 20
 3772 01bb 27       		.uleb128 0x27
 3773 01bc 19       		.uleb128 0x19
 3774 01bd 11       		.uleb128 0x11
 3775 01be 01       		.uleb128 0x1
 3776 01bf 12       		.uleb128 0x12
 3777 01c0 06       		.uleb128 0x6
 3778 01c1 40       		.uleb128 0x40
 3779 01c2 18       		.uleb128 0x18
 3780 01c3 7C       		.uleb128 0x7c
 3781 01c4 19       		.uleb128 0x19
 3782 01c5 00       		.byte	0
 3783 01c6 00       		.byte	0
 3784 01c7 1B       		.uleb128 0x1b
 3785 01c8 2E       		.uleb128 0x2e
 3786 01c9 01       		.byte	0x1
 3787 01ca 03       		.uleb128 0x3
 3788 01cb 0E       		.uleb128 0xe
 3789 01cc 3A       		.uleb128 0x3a
 3790 01cd 21       		.uleb128 0x21
 3791 01ce 02       		.sleb128 2
 3792 01cf 3B       		.uleb128 0x3b
 3793 01d0 05       		.uleb128 0x5
 3794 01d1 39       		.uleb128 0x39
 3795 01d2 21       		.uleb128 0x21
 3796 01d3 14       		.sleb128 20
 3797 01d4 27       		.uleb128 0x27
 3798 01d5 19       		.uleb128 0x19
 3799 01d6 11       		.uleb128 0x11
 3800 01d7 01       		.uleb128 0x1
 3801 01d8 12       		.uleb128 0x12
 3802 01d9 06       		.uleb128 0x6
 3803 01da 40       		.uleb128 0x40
 3804 01db 18       		.uleb128 0x18
 3805 01dc 7A       		.uleb128 0x7a
 3806 01dd 19       		.uleb128 0x19
 3807 01de 01       		.uleb128 0x1
 3808 01df 13       		.uleb128 0x13
 3809 01e0 00       		.byte	0
 3810 01e1 00       		.byte	0
 3811 01e2 1C       		.uleb128 0x1c
 3812 01e3 05       		.uleb128 0x5
 3813 01e4 00       		.byte	0
 3814 01e5 31       		.uleb128 0x31
 3815 01e6 13       		.uleb128 0x13
 3816 01e7 02       		.uleb128 0x2
 3817 01e8 18       		.uleb128 0x18
 3818 01e9 00       		.byte	0
 3819 01ea 00       		.byte	0
ARM GAS  C:\Users\DEVELO~1\AppData\Local\Temp\ccJs2sHK.s 			page 68


 3820 01eb 1D       		.uleb128 0x1d
 3821 01ec 2E       		.uleb128 0x2e
 3822 01ed 00       		.byte	0
 3823 01ee 03       		.uleb128 0x3
 3824 01ef 0E       		.uleb128 0xe
 3825 01f0 3A       		.uleb128 0x3a
 3826 01f1 21       		.uleb128 0x21
 3827 01f2 04       		.sleb128 4
 3828 01f3 3B       		.uleb128 0x3b
 3829 01f4 05       		.uleb128 0x5
 3830 01f5 39       		.uleb128 0x39
 3831 01f6 21       		.uleb128 0x21
 3832 01f7 1B       		.sleb128 27
 3833 01f8 27       		.uleb128 0x27
 3834 01f9 19       		.uleb128 0x19
 3835 01fa 20       		.uleb128 0x20
 3836 01fb 21       		.uleb128 0x21
 3837 01fc 03       		.sleb128 3
 3838 01fd 00       		.byte	0
 3839 01fe 00       		.byte	0
 3840 01ff 1E       		.uleb128 0x1e
 3841 0200 11       		.uleb128 0x11
 3842 0201 01       		.byte	0x1
 3843 0202 25       		.uleb128 0x25
 3844 0203 0E       		.uleb128 0xe
 3845 0204 13       		.uleb128 0x13
 3846 0205 0B       		.uleb128 0xb
 3847 0206 03       		.uleb128 0x3
 3848 0207 0E       		.uleb128 0xe
 3849 0208 1B       		.uleb128 0x1b
 3850 0209 0E       		.uleb128 0xe
 3851 020a 55       		.uleb128 0x55
 3852 020b 17       		.uleb128 0x17
 3853 020c 11       		.uleb128 0x11
 3854 020d 01       		.uleb128 0x1
 3855 020e 10       		.uleb128 0x10
 3856 020f 17       		.uleb128 0x17
 3857 0210 00       		.byte	0
 3858 0211 00       		.byte	0
 3859 0212 1F       		.uleb128 0x1f
 3860 0213 24       		.uleb128 0x24
 3861 0214 00       		.byte	0
 3862 0215 0B       		.uleb128 0xb
 3863 0216 0B       		.uleb128 0xb
 3864 0217 3E       		.uleb128 0x3e
 3865 0218 0B       		.uleb128 0xb
 3866 0219 03       		.uleb128 0x3
 3867 021a 08       		.uleb128 0x8
 3868 021b 00       		.byte	0
 3869 021c 00       		.byte	0
 3870 021d 20       		.uleb128 0x20
 3871 021e 35       		.uleb128 0x35
 3872 021f 00       		.byte	0
 3873 0220 49       		.uleb128 0x49
 3874 0221 13       		.uleb128 0x13
 3875 0222 00       		.byte	0
 3876 0223 00       		.byte	0
ARM GAS  C:\Users\DEVELO~1\AppData\Local\Temp\ccJs2sHK.s 			page 69


 3877 0224 21       		.uleb128 0x21
 3878 0225 0F       		.uleb128 0xf
 3879 0226 00       		.byte	0
 3880 0227 0B       		.uleb128 0xb
 3881 0228 0B       		.uleb128 0xb
 3882 0229 00       		.byte	0
 3883 022a 00       		.byte	0
 3884 022b 22       		.uleb128 0x22
 3885 022c 15       		.uleb128 0x15
 3886 022d 01       		.byte	0x1
 3887 022e 27       		.uleb128 0x27
 3888 022f 19       		.uleb128 0x19
 3889 0230 01       		.uleb128 0x1
 3890 0231 13       		.uleb128 0x13
 3891 0232 00       		.byte	0
 3892 0233 00       		.byte	0
 3893 0234 23       		.uleb128 0x23
 3894 0235 2E       		.uleb128 0x2e
 3895 0236 01       		.byte	0x1
 3896 0237 3F       		.uleb128 0x3f
 3897 0238 19       		.uleb128 0x19
 3898 0239 03       		.uleb128 0x3
 3899 023a 0E       		.uleb128 0xe
 3900 023b 3A       		.uleb128 0x3a
 3901 023c 0B       		.uleb128 0xb
 3902 023d 3B       		.uleb128 0x3b
 3903 023e 05       		.uleb128 0x5
 3904 023f 39       		.uleb128 0x39
 3905 0240 0B       		.uleb128 0xb
 3906 0241 27       		.uleb128 0x27
 3907 0242 19       		.uleb128 0x19
 3908 0243 49       		.uleb128 0x49
 3909 0244 13       		.uleb128 0x13
 3910 0245 3C       		.uleb128 0x3c
 3911 0246 19       		.uleb128 0x19
 3912 0247 01       		.uleb128 0x1
 3913 0248 13       		.uleb128 0x13
 3914 0249 00       		.byte	0
 3915 024a 00       		.byte	0
 3916 024b 24       		.uleb128 0x24
 3917 024c 2E       		.uleb128 0x2e
 3918 024d 01       		.byte	0x1
 3919 024e 3F       		.uleb128 0x3f
 3920 024f 19       		.uleb128 0x19
 3921 0250 03       		.uleb128 0x3
 3922 0251 0E       		.uleb128 0xe
 3923 0252 3A       		.uleb128 0x3a
 3924 0253 0B       		.uleb128 0xb
 3925 0254 3B       		.uleb128 0x3b
 3926 0255 0B       		.uleb128 0xb
 3927 0256 39       		.uleb128 0x39
 3928 0257 0B       		.uleb128 0xb
 3929 0258 27       		.uleb128 0x27
 3930 0259 19       		.uleb128 0x19
 3931 025a 49       		.uleb128 0x49
 3932 025b 13       		.uleb128 0x13
 3933 025c 3C       		.uleb128 0x3c
ARM GAS  C:\Users\DEVELO~1\AppData\Local\Temp\ccJs2sHK.s 			page 70


 3934 025d 19       		.uleb128 0x19
 3935 025e 01       		.uleb128 0x1
 3936 025f 13       		.uleb128 0x13
 3937 0260 00       		.byte	0
 3938 0261 00       		.byte	0
 3939 0262 25       		.uleb128 0x25
 3940 0263 26       		.uleb128 0x26
 3941 0264 00       		.byte	0
 3942 0265 00       		.byte	0
 3943 0266 00       		.byte	0
 3944 0267 26       		.uleb128 0x26
 3945 0268 2E       		.uleb128 0x2e
 3946 0269 01       		.byte	0x1
 3947 026a 3F       		.uleb128 0x3f
 3948 026b 19       		.uleb128 0x19
 3949 026c 03       		.uleb128 0x3
 3950 026d 0E       		.uleb128 0xe
 3951 026e 3A       		.uleb128 0x3a
 3952 026f 0B       		.uleb128 0xb
 3953 0270 3B       		.uleb128 0x3b
 3954 0271 0B       		.uleb128 0xb
 3955 0272 39       		.uleb128 0x39
 3956 0273 0B       		.uleb128 0xb
 3957 0274 27       		.uleb128 0x27
 3958 0275 19       		.uleb128 0x19
 3959 0276 49       		.uleb128 0x49
 3960 0277 13       		.uleb128 0x13
 3961 0278 11       		.uleb128 0x11
 3962 0279 01       		.uleb128 0x1
 3963 027a 12       		.uleb128 0x12
 3964 027b 06       		.uleb128 0x6
 3965 027c 40       		.uleb128 0x40
 3966 027d 18       		.uleb128 0x18
 3967 027e 7C       		.uleb128 0x7c
 3968 027f 19       		.uleb128 0x19
 3969 0280 01       		.uleb128 0x1
 3970 0281 13       		.uleb128 0x13
 3971 0282 00       		.byte	0
 3972 0283 00       		.byte	0
 3973 0284 27       		.uleb128 0x27
 3974 0285 2E       		.uleb128 0x2e
 3975 0286 01       		.byte	0x1
 3976 0287 03       		.uleb128 0x3
 3977 0288 0E       		.uleb128 0xe
 3978 0289 3A       		.uleb128 0x3a
 3979 028a 0B       		.uleb128 0xb
 3980 028b 3B       		.uleb128 0x3b
 3981 028c 05       		.uleb128 0x5
 3982 028d 39       		.uleb128 0x39
 3983 028e 0B       		.uleb128 0xb
 3984 028f 27       		.uleb128 0x27
 3985 0290 19       		.uleb128 0x19
 3986 0291 49       		.uleb128 0x49
 3987 0292 13       		.uleb128 0x13
 3988 0293 11       		.uleb128 0x11
 3989 0294 01       		.uleb128 0x1
 3990 0295 12       		.uleb128 0x12
ARM GAS  C:\Users\DEVELO~1\AppData\Local\Temp\ccJs2sHK.s 			page 71


 3991 0296 06       		.uleb128 0x6
 3992 0297 40       		.uleb128 0x40
 3993 0298 18       		.uleb128 0x18
 3994 0299 7C       		.uleb128 0x7c
 3995 029a 19       		.uleb128 0x19
 3996 029b 01       		.uleb128 0x1
 3997 029c 13       		.uleb128 0x13
 3998 029d 00       		.byte	0
 3999 029e 00       		.byte	0
 4000 029f 28       		.uleb128 0x28
 4001 02a0 2E       		.uleb128 0x2e
 4002 02a1 01       		.byte	0x1
 4003 02a2 03       		.uleb128 0x3
 4004 02a3 0E       		.uleb128 0xe
 4005 02a4 3A       		.uleb128 0x3a
 4006 02a5 0B       		.uleb128 0xb
 4007 02a6 3B       		.uleb128 0x3b
 4008 02a7 05       		.uleb128 0x5
 4009 02a8 39       		.uleb128 0x39
 4010 02a9 0B       		.uleb128 0xb
 4011 02aa 27       		.uleb128 0x27
 4012 02ab 19       		.uleb128 0x19
 4013 02ac 20       		.uleb128 0x20
 4014 02ad 0B       		.uleb128 0xb
 4015 02ae 01       		.uleb128 0x1
 4016 02af 13       		.uleb128 0x13
 4017 02b0 00       		.byte	0
 4018 02b1 00       		.byte	0
 4019 02b2 29       		.uleb128 0x29
 4020 02b3 05       		.uleb128 0x5
 4021 02b4 00       		.byte	0
 4022 02b5 03       		.uleb128 0x3
 4023 02b6 0E       		.uleb128 0xe
 4024 02b7 3A       		.uleb128 0x3a
 4025 02b8 0B       		.uleb128 0xb
 4026 02b9 3B       		.uleb128 0x3b
 4027 02ba 05       		.uleb128 0x5
 4028 02bb 39       		.uleb128 0x39
 4029 02bc 0B       		.uleb128 0xb
 4030 02bd 49       		.uleb128 0x49
 4031 02be 13       		.uleb128 0x13
 4032 02bf 00       		.byte	0
 4033 02c0 00       		.byte	0
 4034 02c1 2A       		.uleb128 0x2a
 4035 02c2 2E       		.uleb128 0x2e
 4036 02c3 01       		.byte	0x1
 4037 02c4 03       		.uleb128 0x3
 4038 02c5 0E       		.uleb128 0xe
 4039 02c6 3A       		.uleb128 0x3a
 4040 02c7 0B       		.uleb128 0xb
 4041 02c8 3B       		.uleb128 0x3b
 4042 02c9 0B       		.uleb128 0xb
 4043 02ca 39       		.uleb128 0x39
 4044 02cb 0B       		.uleb128 0xb
 4045 02cc 27       		.uleb128 0x27
 4046 02cd 19       		.uleb128 0x19
 4047 02ce 11       		.uleb128 0x11
ARM GAS  C:\Users\DEVELO~1\AppData\Local\Temp\ccJs2sHK.s 			page 72


 4048 02cf 01       		.uleb128 0x1
 4049 02d0 12       		.uleb128 0x12
 4050 02d1 06       		.uleb128 0x6
 4051 02d2 40       		.uleb128 0x40
 4052 02d3 18       		.uleb128 0x18
 4053 02d4 7A       		.uleb128 0x7a
 4054 02d5 19       		.uleb128 0x19
 4055 02d6 00       		.byte	0
 4056 02d7 00       		.byte	0
 4057 02d8 00       		.byte	0
 4058              		.section	.debug_aranges,"",%progbits
 4059 0000 E4000000 		.4byte	0xe4
 4060 0004 0200     		.2byte	0x2
 4061 0006 00000000 		.4byte	.Ldebug_info0
 4062 000a 04       		.byte	0x4
 4063 000b 00       		.byte	0
 4064 000c 0000     		.2byte	0
 4065 000e 0000     		.2byte	0
 4066 0010 00000000 		.4byte	.LFB19
 4067 0014 1E000000 		.4byte	.LFE19-.LFB19
 4068 0018 00000000 		.4byte	.LFB202
 4069 001c 1E000000 		.4byte	.LFE202-.LFB202
 4070 0020 00000000 		.4byte	.LFB203
 4071 0024 1E000000 		.4byte	.LFE203-.LFB203
 4072 0028 00000000 		.4byte	.LFB236
 4073 002c 18000000 		.4byte	.LFE236-.LFB236
 4074 0030 00000000 		.4byte	.LFB350
 4075 0034 0C000000 		.4byte	.LFE350-.LFB350
 4076 0038 00000000 		.4byte	.LFB351
 4077 003c 0C000000 		.4byte	.LFE351-.LFB351
 4078 0040 00000000 		.4byte	.LFB369
 4079 0044 16000000 		.4byte	.LFE369-.LFB369
 4080 0048 00000000 		.4byte	.LFB370
 4081 004c 1C000000 		.4byte	.LFE370-.LFB370
 4082 0050 00000000 		.4byte	.LFB371
 4083 0054 1A000000 		.4byte	.LFE371-.LFB371
 4084 0058 00000000 		.4byte	.LFB372
 4085 005c 1A000000 		.4byte	.LFE372-.LFB372
 4086 0060 00000000 		.4byte	.LFB432
 4087 0064 BA000000 		.4byte	.LFE432-.LFB432
 4088 0068 00000000 		.4byte	.LFB433
 4089 006c BA000000 		.4byte	.LFE433-.LFB433
 4090 0070 00000000 		.4byte	.LFB434
 4091 0074 4C000000 		.4byte	.LFE434-.LFB434
 4092 0078 00000000 		.4byte	.LFB435
 4093 007c 32000000 		.4byte	.LFE435-.LFB435
 4094 0080 00000000 		.4byte	.LFB436
 4095 0084 7C000000 		.4byte	.LFE436-.LFB436
 4096 0088 00000000 		.4byte	.LFB437
 4097 008c 5C000000 		.4byte	.LFE437-.LFB437
 4098 0090 00000000 		.4byte	.LFB438
 4099 0094 7C000000 		.4byte	.LFE438-.LFB438
 4100 0098 00000000 		.4byte	.LFB439
 4101 009c 3A000000 		.4byte	.LFE439-.LFB439
 4102 00a0 00000000 		.4byte	.LFB440
 4103 00a4 80000000 		.4byte	.LFE440-.LFB440
 4104 00a8 00000000 		.4byte	.LFB441
ARM GAS  C:\Users\DEVELO~1\AppData\Local\Temp\ccJs2sHK.s 			page 73


 4105 00ac 4C000000 		.4byte	.LFE441-.LFB441
 4106 00b0 00000000 		.4byte	.LFB442
 4107 00b4 3C000000 		.4byte	.LFE442-.LFB442
 4108 00b8 00000000 		.4byte	.LFB443
 4109 00bc 62000000 		.4byte	.LFE443-.LFB443
 4110 00c0 00000000 		.4byte	.LFB444
 4111 00c4 80000000 		.4byte	.LFE444-.LFB444
 4112 00c8 00000000 		.4byte	.LFB445
 4113 00cc 78000000 		.4byte	.LFE445-.LFB445
 4114 00d0 00000000 		.4byte	.LFB446
 4115 00d4 3A000000 		.4byte	.LFE446-.LFB446
 4116 00d8 00000000 		.4byte	.LFB447
 4117 00dc 80000000 		.4byte	.LFE447-.LFB447
 4118 00e0 00000000 		.4byte	0
 4119 00e4 00000000 		.4byte	0
 4120              		.section	.debug_rnglists,"",%progbits
 4121              	.Ldebug_ranges0:
 4122 0000 AA000000 		.4byte	.Ldebug_ranges3-.Ldebug_ranges2
 4123              	.Ldebug_ranges2:
 4124 0004 0500     		.2byte	0x5
 4125 0006 04       		.byte	0x4
 4126 0007 00       		.byte	0
 4127 0008 00000000 		.4byte	0
 4128              	.LLRL0:
 4129 000c 07       		.byte	0x7
 4130 000d 00000000 		.4byte	.LFB19
 4131 0011 1E       		.uleb128 .LFE19-.LFB19
 4132 0012 07       		.byte	0x7
 4133 0013 00000000 		.4byte	.LFB202
 4134 0017 1E       		.uleb128 .LFE202-.LFB202
 4135 0018 07       		.byte	0x7
 4136 0019 00000000 		.4byte	.LFB203
 4137 001d 1E       		.uleb128 .LFE203-.LFB203
 4138 001e 07       		.byte	0x7
 4139 001f 00000000 		.4byte	.LFB236
 4140 0023 18       		.uleb128 .LFE236-.LFB236
 4141 0024 07       		.byte	0x7
 4142 0025 00000000 		.4byte	.LFB350
 4143 0029 0C       		.uleb128 .LFE350-.LFB350
 4144 002a 07       		.byte	0x7
 4145 002b 00000000 		.4byte	.LFB351
 4146 002f 0C       		.uleb128 .LFE351-.LFB351
 4147 0030 07       		.byte	0x7
 4148 0031 00000000 		.4byte	.LFB369
 4149 0035 16       		.uleb128 .LFE369-.LFB369
 4150 0036 07       		.byte	0x7
 4151 0037 00000000 		.4byte	.LFB370
 4152 003b 1C       		.uleb128 .LFE370-.LFB370
 4153 003c 07       		.byte	0x7
 4154 003d 00000000 		.4byte	.LFB371
 4155 0041 1A       		.uleb128 .LFE371-.LFB371
 4156 0042 07       		.byte	0x7
 4157 0043 00000000 		.4byte	.LFB372
 4158 0047 1A       		.uleb128 .LFE372-.LFB372
 4159 0048 07       		.byte	0x7
 4160 0049 00000000 		.4byte	.LFB432
 4161 004d BA01     		.uleb128 .LFE432-.LFB432
ARM GAS  C:\Users\DEVELO~1\AppData\Local\Temp\ccJs2sHK.s 			page 74


 4162 004f 07       		.byte	0x7
 4163 0050 00000000 		.4byte	.LFB433
 4164 0054 BA01     		.uleb128 .LFE433-.LFB433
 4165 0056 07       		.byte	0x7
 4166 0057 00000000 		.4byte	.LFB434
 4167 005b 4C       		.uleb128 .LFE434-.LFB434
 4168 005c 07       		.byte	0x7
 4169 005d 00000000 		.4byte	.LFB435
 4170 0061 32       		.uleb128 .LFE435-.LFB435
 4171 0062 07       		.byte	0x7
 4172 0063 00000000 		.4byte	.LFB436
 4173 0067 7C       		.uleb128 .LFE436-.LFB436
 4174 0068 07       		.byte	0x7
 4175 0069 00000000 		.4byte	.LFB437
 4176 006d 5C       		.uleb128 .LFE437-.LFB437
 4177 006e 07       		.byte	0x7
 4178 006f 00000000 		.4byte	.LFB438
 4179 0073 7C       		.uleb128 .LFE438-.LFB438
 4180 0074 07       		.byte	0x7
 4181 0075 00000000 		.4byte	.LFB439
 4182 0079 3A       		.uleb128 .LFE439-.LFB439
 4183 007a 07       		.byte	0x7
 4184 007b 00000000 		.4byte	.LFB440
 4185 007f 8001     		.uleb128 .LFE440-.LFB440
 4186 0081 07       		.byte	0x7
 4187 0082 00000000 		.4byte	.LFB441
 4188 0086 4C       		.uleb128 .LFE441-.LFB441
 4189 0087 07       		.byte	0x7
 4190 0088 00000000 		.4byte	.LFB442
 4191 008c 3C       		.uleb128 .LFE442-.LFB442
 4192 008d 07       		.byte	0x7
 4193 008e 00000000 		.4byte	.LFB443
 4194 0092 62       		.uleb128 .LFE443-.LFB443
 4195 0093 07       		.byte	0x7
 4196 0094 00000000 		.4byte	.LFB444
 4197 0098 8001     		.uleb128 .LFE444-.LFB444
 4198 009a 07       		.byte	0x7
 4199 009b 00000000 		.4byte	.LFB445
 4200 009f 78       		.uleb128 .LFE445-.LFB445
 4201 00a0 07       		.byte	0x7
 4202 00a1 00000000 		.4byte	.LFB446
 4203 00a5 3A       		.uleb128 .LFE446-.LFB446
 4204 00a6 07       		.byte	0x7
 4205 00a7 00000000 		.4byte	.LFB447
 4206 00ab 8001     		.uleb128 .LFE447-.LFB447
 4207 00ad 00       		.byte	0
 4208              	.Ldebug_ranges3:
 4209              		.section	.debug_line,"",%progbits
 4210              	.Ldebug_line0:
 4211 0000 93080000 		.section	.debug_str,"MS",%progbits,1
 4211      0300E502 
 4211      00000201 
 4211      FB0E0D00 
 4211      01010101 
 4212              	.LASF70:
 4213 0000 6F73616C 		.ascii	"osalThreadEnqueueTimeoutS\000"
 4213      54687265 
ARM GAS  C:\Users\DEVELO~1\AppData\Local\Temp\ccJs2sHK.s 			page 75


 4213      6164456E 
 4213      71756575 
 4213      6554696D 
 4214              	.LASF35:
 4215 001a 715F7264 		.ascii	"q_rdptr\000"
 4215      70747200 
 4216              	.LASF26:
 4217 0022 74687265 		.ascii	"threads_queue_t\000"
 4217      6164735F 
 4217      71756575 
 4217      655F7400 
 4218              	.LASF79:
 4219 0032 474E5520 		.ascii	"GNU C17 11.3.1 20220712 -mcpu=cortex-m7 -mthumb -mf"
 4219      43313720 
 4219      31312E33 
 4219      2E312032 
 4219      30323230 
 4220 0065 6C6F6174 		.ascii	"loat-abi=soft -march=armv7e-m -ggdb -O0 -ffunction-"
 4220      2D616269 
 4220      3D736F66 
 4220      74202D6D 
 4220      61726368 
 4221 0098 73656374 		.ascii	"sections -fdata-sections -fno-common\000"
 4221      696F6E73 
 4221      202D6664 
 4221      6174612D 
 4221      73656374 
 4222              	.LASF60:
 4223 00bd 69714765 		.ascii	"iqGetTimeout\000"
 4223      7454696D 
 4223      656F7574 
 4223      00
 4224              	.LASF7:
 4225 00ca 73686F72 		.ascii	"short int\000"
 4225      7420696E 
 4225      7400
 4226              	.LASF4:
 4227 00d4 73697A65 		.ascii	"size_t\000"
 4227      5F7400
 4228              	.LASF28:
 4229 00db 696F5F71 		.ascii	"io_queue_t\000"
 4229      75657565 
 4229      5F7400
 4230              	.LASF57:
 4231 00e6 69715265 		.ascii	"iqReadTimeout\000"
 4231      61645469 
 4231      6D656F75 
 4231      7400
 4232              	.LASF42:
 4233 00f4 63685468 		.ascii	"chThdDequeueAllI\000"
 4233      64446571 
 4233      75657565 
 4233      416C6C49 
 4233      00
 4234              	.LASF72:
 4235 0105 6F73616C 		.ascii	"osalSysUnlock\000"
 4235      53797355 
ARM GAS  C:\Users\DEVELO~1\AppData\Local\Temp\ccJs2sHK.s 			page 76


 4235      6E6C6F63 
 4235      6B00
 4236              	.LASF51:
 4237 0113 6F715075 		.ascii	"oqPutI\000"
 4237      744900
 4238              	.LASF78:
 4239 011a 706F7274 		.ascii	"port_lock\000"
 4239      5F6C6F63 
 4239      6B00
 4240              	.LASF44:
 4241 0124 6D656D63 		.ascii	"memcpy\000"
 4241      707900
 4242              	.LASF67:
 4243 012b 69715F72 		.ascii	"iq_read\000"
 4243      65616400 
 4244              	.LASF69:
 4245 0133 6F73616C 		.ascii	"osalThreadDequeueNextI\000"
 4245      54687265 
 4245      61644465 
 4245      71756575 
 4245      654E6578 
 4246              	.LASF41:
 4247 014a 63685468 		.ascii	"chThdDequeueNextI\000"
 4247      64446571 
 4247      75657565 
 4247      4E657874 
 4247      4900
 4248              	.LASF62:
 4249 015c 69715075 		.ascii	"iqPutI\000"
 4249      744900
 4250              	.LASF47:
 4251 0163 6F715772 		.ascii	"oqWriteTimeout\000"
 4251      69746554 
 4251      696D656F 
 4251      757400
 4252              	.LASF29:
 4253 0172 696F5F71 		.ascii	"io_queue\000"
 4253      75657565 
 4253      00
 4254              	.LASF15:
 4255 017b 75696E74 		.ascii	"uint8_t\000"
 4255      385F7400 
 4256              	.LASF24:
 4257 0183 63685F74 		.ascii	"ch_threads_queue\000"
 4257      68726561 
 4257      64735F71 
 4257      75657565 
 4257      00
 4258              	.LASF20:
 4259 0194 63685F71 		.ascii	"ch_queue_t\000"
 4259      75657565 
 4259      5F7400
 4260              	.LASF80:
 4261 019f 2E2E2F2E 		.ascii	"../../../os/hal/src/hal_queues.c\000"
 4261      2E2F2E2E 
 4261      2F6F732F 
 4261      68616C2F 
ARM GAS  C:\Users\DEVELO~1\AppData\Local\Temp\ccJs2sHK.s 			page 77


 4261      7372632F 
 4262              	.LASF76:
 4263 01c0 63685379 		.ascii	"chSysLock\000"
 4263      734C6F63 
 4263      6B00
 4264              	.LASF31:
 4265 01ca 715F636F 		.ascii	"q_counter\000"
 4265      756E7465 
 4265      7200
 4266              	.LASF2:
 4267 01d4 6C6F6E67 		.ascii	"long double\000"
 4267      20646F75 
 4267      626C6500 
 4268              	.LASF1:
 4269 01e0 6C6F6E67 		.ascii	"long long int\000"
 4269      206C6F6E 
 4269      6720696E 
 4269      7400
 4270              	.LASF53:
 4271 01ee 6F714F62 		.ascii	"oqObjectInit\000"
 4271      6A656374 
 4271      496E6974 
 4271      00
 4272              	.LASF43:
 4273 01fb 63685468 		.ascii	"chThdEnqueueTimeoutS\000"
 4273      64456E71 
 4273      75657565 
 4273      54696D65 
 4273      6F757453 
 4274              	.LASF36:
 4275 0210 715F6E6F 		.ascii	"q_notify\000"
 4275      74696679 
 4275      00
 4276              	.LASF14:
 4277 0219 63686172 		.ascii	"char\000"
 4277      00
 4278              	.LASF71:
 4279 021e 6F73616C 		.ascii	"osalThreadQueueObjectInit\000"
 4279      54687265 
 4279      61645175 
 4279      6575654F 
 4279      626A6563 
 4280              	.LASF59:
 4281 0238 69715265 		.ascii	"iqReadI\000"
 4281      61644900 
 4282              	.LASF5:
 4283 0240 5F5F7569 		.ascii	"__uint8_t\000"
 4283      6E74385F 
 4283      7400
 4284              	.LASF55:
 4285 024a 6F6E6679 		.ascii	"onfy\000"
 4285      00
 4286              	.LASF68:
 4287 024f 6F73616C 		.ascii	"osalThreadDequeueAllI\000"
 4287      54687265 
 4287      61644465 
 4287      71756575 
ARM GAS  C:\Users\DEVELO~1\AppData\Local\Temp\ccJs2sHK.s 			page 78


 4287      65416C6C 
 4288              	.LASF25:
 4289 0265 71756575 		.ascii	"queue\000"
 4289      6500
 4290              	.LASF32:
 4291 026b 715F6275 		.ascii	"q_buffer\000"
 4291      66666572 
 4291      00
 4292              	.LASF6:
 4293 0274 756E7369 		.ascii	"unsigned char\000"
 4293      676E6564 
 4293      20636861 
 4293      7200
 4294              	.LASF66:
 4295 0282 6F715F77 		.ascii	"oq_write\000"
 4295      72697465 
 4295      00
 4296              	.LASF58:
 4297 028b 5F5F6675 		.ascii	"__func__\000"
 4297      6E635F5F 
 4297      00
 4298              	.LASF46:
 4299 0294 646F6E65 		.ascii	"done\000"
 4299      00
 4300              	.LASF22:
 4301 0299 70726576 		.ascii	"prev\000"
 4301      00
 4302              	.LASF3:
 4303 029e 7369676E 		.ascii	"signed char\000"
 4303      65642063 
 4303      68617200 
 4304              	.LASF13:
 4305 02aa 6C6F6E67 		.ascii	"long long unsigned int\000"
 4305      206C6F6E 
 4305      6720756E 
 4305      7369676E 
 4305      65642069 
 4306              	.LASF17:
 4307 02c1 75696E74 		.ascii	"uint32_t\000"
 4307      33325F74 
 4307      00
 4308              	.LASF0:
 4309 02ca 756E7369 		.ascii	"unsigned int\000"
 4309      676E6564 
 4309      20696E74 
 4309      00
 4310              	.LASF48:
 4311 02d7 6F715772 		.ascii	"oqWriteI\000"
 4311      69746549 
 4311      00
 4312              	.LASF8:
 4313 02e0 73686F72 		.ascii	"short unsigned int\000"
 4313      7420756E 
 4313      7369676E 
 4313      65642069 
 4313      6E7400
 4314              	.LASF83:
ARM GAS  C:\Users\DEVELO~1\AppData\Local\Temp\ccJs2sHK.s 			page 79


 4315 02f3 62617365 		.ascii	"basePri\000"
 4315      50726900 
 4316              	.LASF64:
 4317 02fb 69714F62 		.ascii	"iqObjectInit\000"
 4317      6A656374 
 4317      496E6974 
 4317      00
 4318              	.LASF56:
 4319 0308 6C696E6B 		.ascii	"link\000"
 4319      00
 4320              	.LASF10:
 4321 030d 6C6F6E67 		.ascii	"long int\000"
 4321      20696E74 
 4321      00
 4322              	.LASF16:
 4323 0316 696E7433 		.ascii	"int32_t\000"
 4323      325F7400 
 4324              	.LASF49:
 4325 031e 6F714765 		.ascii	"oqGetI\000"
 4325      744900
 4326              	.LASF27:
 4327 0325 5F426F6F 		.ascii	"_Bool\000"
 4327      6C00
 4328              	.LASF77:
 4329 032b 706F7274 		.ascii	"port_unlock\000"
 4329      5F756E6C 
 4329      6F636B00 
 4330              	.LASF19:
 4331 0337 73797369 		.ascii	"sysinterval_t\000"
 4331      6E746572 
 4331      76616C5F 
 4331      7400
 4332              	.LASF61:
 4333 0345 69714765 		.ascii	"iqGetI\000"
 4333      744900
 4334              	.LASF74:
 4335 034c 63685468 		.ascii	"chThdQueueObjectInit\000"
 4335      64517565 
 4335      75654F62 
 4335      6A656374 
 4335      496E6974 
 4336              	.LASF30:
 4337 0361 715F7761 		.ascii	"q_waiting\000"
 4337      6974696E 
 4337      6700
 4338              	.LASF12:
 4339 036b 6C6F6E67 		.ascii	"long unsigned int\000"
 4339      20756E73 
 4339      69676E65 
 4339      6420696E 
 4339      7400
 4340              	.LASF50:
 4341 037d 6F715075 		.ascii	"oqPutTimeout\000"
 4341      7454696D 
 4341      656F7574 
 4341      00
 4342              	.LASF40:
ARM GAS  C:\Users\DEVELO~1\AppData\Local\Temp\ccJs2sHK.s 			page 80


 4343 038a 6F757470 		.ascii	"output_queue_t\000"
 4343      75745F71 
 4343      75657565 
 4343      5F7400
 4344              	.LASF39:
 4345 0399 696E7075 		.ascii	"input_queue_t\000"
 4345      745F7175 
 4345      6575655F 
 4345      7400
 4346              	.LASF11:
 4347 03a7 5F5F7569 		.ascii	"__uint32_t\000"
 4347      6E743332 
 4347      5F7400
 4348              	.LASF54:
 4349 03b2 73697A65 		.ascii	"size\000"
 4349      00
 4350              	.LASF75:
 4351 03b7 63685379 		.ascii	"chSysUnlock\000"
 4351      73556E6C 
 4351      6F636B00 
 4352              	.LASF84:
 4353 03c3 63685F71 		.ascii	"ch_queue_init\000"
 4353      75657565 
 4353      5F696E69 
 4353      7400
 4354              	.LASF9:
 4355 03d1 5F5F696E 		.ascii	"__int32_t\000"
 4355      7433325F 
 4355      7400
 4356              	.LASF63:
 4357 03db 69715265 		.ascii	"iqResetI\000"
 4357      73657449 
 4357      00
 4358              	.LASF52:
 4359 03e4 6F715265 		.ascii	"oqResetI\000"
 4359      73657449 
 4359      00
 4360              	.LASF65:
 4361 03ed 696E6679 		.ascii	"infy\000"
 4361      00
 4362              	.LASF23:
 4363 03f2 63685F71 		.ascii	"ch_queue\000"
 4363      75657565 
 4363      00
 4364              	.LASF81:
 4365 03fb 433A5C50 		.ascii	"C:\\PROJET\\ChibiOS project\\ChibiOS_21.11.4\\demos"
 4365      524F4A45 
 4365      545C4368 
 4365      6962694F 
 4365      53207072 
 4366 042a 5C53544D 		.ascii	"\\STM32\\RT-STM32H743ZI_REV_XY-NUCLEO144_Quartz8M\000"
 4366      33325C52 
 4366      542D5354 
 4366      4D333248 
 4366      3734335A 
 4367              	.LASF82:
 4368 045a 5F5F7365 		.ascii	"__set_BASEPRI\000"
ARM GAS  C:\Users\DEVELO~1\AppData\Local\Temp\ccJs2sHK.s 			page 81


 4368      745F4241 
 4368      53455052 
 4368      4900
 4369              	.LASF34:
 4370 0468 715F7772 		.ascii	"q_wrptr\000"
 4370      70747200 
 4371              	.LASF33:
 4372 0470 715F746F 		.ascii	"q_top\000"
 4372      7000
 4373              	.LASF73:
 4374 0476 6F73616C 		.ascii	"osalSysLock\000"
 4374      5379734C 
 4374      6F636B00 
 4375              	.LASF18:
 4376 0482 6D73675F 		.ascii	"msg_t\000"
 4376      7400
 4377              	.LASF45:
 4378 0488 74696D65 		.ascii	"timeout\000"
 4378      6F757400 
 4379              	.LASF21:
 4380 0490 6E657874 		.ascii	"next\000"
 4380      00
 4381              	.LASF37:
 4382 0495 715F6C69 		.ascii	"q_link\000"
 4382      6E6B00
 4383              	.LASF38:
 4384 049c 716E6F74 		.ascii	"qnotify_t\000"
 4384      6966795F 
 4384      7400
 4385              		.ident	"GCC: (Arm GNU Toolchain 11.3.Rel1) 11.3.1 20220712"
ARM GAS  C:\Users\DEVELO~1\AppData\Local\Temp\ccJs2sHK.s 			page 82


DEFINED SYMBOLS
                            *ABS*:00000000 hal_queues.c
C:\Users\DEVELO~1\AppData\Local\Temp\ccJs2sHK.s:18     .text.ch_queue_init:00000000 $t
C:\Users\DEVELO~1\AppData\Local\Temp\ccJs2sHK.s:23     .text.ch_queue_init:00000000 ch_queue_init
C:\Users\DEVELO~1\AppData\Local\Temp\ccJs2sHK.s:62     .text.chSysLock:00000000 $t
C:\Users\DEVELO~1\AppData\Local\Temp\ccJs2sHK.s:67     .text.chSysLock:00000000 chSysLock
C:\Users\DEVELO~1\AppData\Local\Temp\ccJs2sHK.s:121    .text.chSysUnlock:00000000 $t
C:\Users\DEVELO~1\AppData\Local\Temp\ccJs2sHK.s:126    .text.chSysUnlock:00000000 chSysUnlock
C:\Users\DEVELO~1\AppData\Local\Temp\ccJs2sHK.s:177    .text.chThdQueueObjectInit:00000000 $t
C:\Users\DEVELO~1\AppData\Local\Temp\ccJs2sHK.s:182    .text.chThdQueueObjectInit:00000000 chThdQueueObjectInit
C:\Users\DEVELO~1\AppData\Local\Temp\ccJs2sHK.s:214    .text.osalSysLock:00000000 $t
C:\Users\DEVELO~1\AppData\Local\Temp\ccJs2sHK.s:219    .text.osalSysLock:00000000 osalSysLock
C:\Users\DEVELO~1\AppData\Local\Temp\ccJs2sHK.s:241    .text.osalSysUnlock:00000000 $t
C:\Users\DEVELO~1\AppData\Local\Temp\ccJs2sHK.s:246    .text.osalSysUnlock:00000000 osalSysUnlock
C:\Users\DEVELO~1\AppData\Local\Temp\ccJs2sHK.s:267    .text.osalThreadQueueObjectInit:00000000 $t
C:\Users\DEVELO~1\AppData\Local\Temp\ccJs2sHK.s:272    .text.osalThreadQueueObjectInit:00000000 osalThreadQueueObjectInit
C:\Users\DEVELO~1\AppData\Local\Temp\ccJs2sHK.s:302    .text.osalThreadEnqueueTimeoutS:00000000 $t
C:\Users\DEVELO~1\AppData\Local\Temp\ccJs2sHK.s:307    .text.osalThreadEnqueueTimeoutS:00000000 osalThreadEnqueueTimeoutS
C:\Users\DEVELO~1\AppData\Local\Temp\ccJs2sHK.s:340    .text.osalThreadDequeueNextI:00000000 $t
C:\Users\DEVELO~1\AppData\Local\Temp\ccJs2sHK.s:345    .text.osalThreadDequeueNextI:00000000 osalThreadDequeueNextI
C:\Users\DEVELO~1\AppData\Local\Temp\ccJs2sHK.s:377    .text.osalThreadDequeueAllI:00000000 $t
C:\Users\DEVELO~1\AppData\Local\Temp\ccJs2sHK.s:382    .text.osalThreadDequeueAllI:00000000 osalThreadDequeueAllI
C:\Users\DEVELO~1\AppData\Local\Temp\ccJs2sHK.s:414    .text.iq_read:00000000 $t
C:\Users\DEVELO~1\AppData\Local\Temp\ccJs2sHK.s:419    .text.iq_read:00000000 iq_read
C:\Users\DEVELO~1\AppData\Local\Temp\ccJs2sHK.s:559    .text.oq_write:00000000 $t
C:\Users\DEVELO~1\AppData\Local\Temp\ccJs2sHK.s:564    .text.oq_write:00000000 oq_write
C:\Users\DEVELO~1\AppData\Local\Temp\ccJs2sHK.s:703    .text.iqObjectInit:00000000 $t
C:\Users\DEVELO~1\AppData\Local\Temp\ccJs2sHK.s:709    .text.iqObjectInit:00000000 iqObjectInit
C:\Users\DEVELO~1\AppData\Local\Temp\ccJs2sHK.s:774    .text.iqResetI:00000000 $t
C:\Users\DEVELO~1\AppData\Local\Temp\ccJs2sHK.s:780    .text.iqResetI:00000000 iqResetI
C:\Users\DEVELO~1\AppData\Local\Temp\ccJs2sHK.s:828    .text.iqPutI:00000000 $t
C:\Users\DEVELO~1\AppData\Local\Temp\ccJs2sHK.s:834    .text.iqPutI:00000000 iqPutI
C:\Users\DEVELO~1\AppData\Local\Temp\ccJs2sHK.s:936    .text.iqGetI:00000000 $t
C:\Users\DEVELO~1\AppData\Local\Temp\ccJs2sHK.s:942    .text.iqGetI:00000000 iqGetI
C:\Users\DEVELO~1\AppData\Local\Temp\ccJs2sHK.s:1031   .text.iqGetTimeout:00000000 $t
C:\Users\DEVELO~1\AppData\Local\Temp\ccJs2sHK.s:1037   .text.iqGetTimeout:00000000 iqGetTimeout
C:\Users\DEVELO~1\AppData\Local\Temp\ccJs2sHK.s:1145   .text.iqReadI:00000000 $t
C:\Users\DEVELO~1\AppData\Local\Temp\ccJs2sHK.s:1151   .text.iqReadI:00000000 iqReadI
C:\Users\DEVELO~1\AppData\Local\Temp\ccJs2sHK.s:1206   .text.iqReadTimeout:00000000 $t
C:\Users\DEVELO~1\AppData\Local\Temp\ccJs2sHK.s:1212   .text.iqReadTimeout:00000000 iqReadTimeout
C:\Users\DEVELO~1\AppData\Local\Temp\ccJs2sHK.s:1317   .text.oqObjectInit:00000000 $t
C:\Users\DEVELO~1\AppData\Local\Temp\ccJs2sHK.s:1323   .text.oqObjectInit:00000000 oqObjectInit
C:\Users\DEVELO~1\AppData\Local\Temp\ccJs2sHK.s:1388   .text.oqResetI:00000000 $t
C:\Users\DEVELO~1\AppData\Local\Temp\ccJs2sHK.s:1394   .text.oqResetI:00000000 oqResetI
C:\Users\DEVELO~1\AppData\Local\Temp\ccJs2sHK.s:1448   .text.oqPutI:00000000 $t
C:\Users\DEVELO~1\AppData\Local\Temp\ccJs2sHK.s:1454   .text.oqPutI:00000000 oqPutI
C:\Users\DEVELO~1\AppData\Local\Temp\ccJs2sHK.s:1545   .text.oqPutTimeout:00000000 $t
C:\Users\DEVELO~1\AppData\Local\Temp\ccJs2sHK.s:1551   .text.oqPutTimeout:00000000 oqPutTimeout
C:\Users\DEVELO~1\AppData\Local\Temp\ccJs2sHK.s:1661   .text.oqGetI:00000000 $t
C:\Users\DEVELO~1\AppData\Local\Temp\ccJs2sHK.s:1667   .text.oqGetI:00000000 oqGetI
C:\Users\DEVELO~1\AppData\Local\Temp\ccJs2sHK.s:1769   .text.oqWriteI:00000000 $t
C:\Users\DEVELO~1\AppData\Local\Temp\ccJs2sHK.s:1775   .text.oqWriteI:00000000 oqWriteI
C:\Users\DEVELO~1\AppData\Local\Temp\ccJs2sHK.s:1830   .text.oqWriteTimeout:00000000 $t
C:\Users\DEVELO~1\AppData\Local\Temp\ccJs2sHK.s:1836   .text.oqWriteTimeout:00000000 oqWriteTimeout

UNDEFINED SYMBOLS
chThdEnqueueTimeoutS
ARM GAS  C:\Users\DEVELO~1\AppData\Local\Temp\ccJs2sHK.s 			page 83


chThdDequeueNextI
chThdDequeueAllI
memcpy
