ARM GAS  C:\Users\DEVELO~1\AppData\Local\Temp\ccSYtStj.s 			page 1


   1              		.cpu cortex-m7
   2              		.arch armv7e-m
   3              		.fpu softvfp
   4              		.eabi_attribute 20, 1
   5              		.eabi_attribute 21, 1
   6              		.eabi_attribute 23, 3
   7              		.eabi_attribute 24, 1
   8              		.eabi_attribute 25, 1
   9              		.eabi_attribute 26, 1
  10              		.eabi_attribute 30, 6
  11              		.eabi_attribute 34, 1
  12              		.eabi_attribute 18, 4
  13              		.file	"hal_sdram_lld.c"
  14              		.text
  15              	.Ltext0:
  16              		.cfi_sections	.debug_frame
  17              		.section	.text.osalSysPolledDelayX,"ax",%progbits
  18              		.align	1
  19              		.syntax unified
  20              		.thumb
  21              		.thumb_func
  22              		.type	osalSysPolledDelayX, %function
  23              	osalSysPolledDelayX:
  24              	.LFB356:
  25              		.file 1 "../../../os/hal/osal/rt-nil/osal.h"
  26              		.loc 1 653 56
  27              		.cfi_startproc
  28              		@ args = 0, pretend = 0, frame = 8
  29              		@ frame_needed = 1, uses_anonymous_args = 0
  30 0000 80B5     		push	{r7, lr}
  31              		.cfi_def_cfa_offset 8
  32              		.cfi_offset 7, -8
  33              		.cfi_offset 14, -4
  34 0002 82B0     		sub	sp, sp, #8
  35              		.cfi_def_cfa_offset 16
  36 0004 00AF     		add	r7, sp, #0
  37              		.cfi_def_cfa_register 7
  38 0006 7860     		str	r0, [r7, #4]
  39              		.loc 1 655 3
  40 0008 7868     		ldr	r0, [r7, #4]
  41 000a FFF7FEFF 		bl	chSysPolledDelayX
  42              		.loc 1 656 1
  43 000e 00BF     		nop
  44 0010 0837     		adds	r7, r7, #8
  45              		.cfi_def_cfa_offset 8
  46 0012 BD46     		mov	sp, r7
  47              		.cfi_def_cfa_register 13
  48              		@ sp needed
  49 0014 80BD     		pop	{r7, pc}
  50              		.cfi_endproc
  51              	.LFE356:
  52              		.size	osalSysPolledDelayX, .-osalSysPolledDelayX
  53              		.global	SDRAMD1
  54              		.section	.bss.SDRAMD1,"aw",%nobits
  55              		.align	2
  56              		.type	SDRAMD1, %object
  57              		.size	SDRAMD1, 8
ARM GAS  C:\Users\DEVELO~1\AppData\Local\Temp\ccSYtStj.s 			page 2


  58              	SDRAMD1:
  59 0000 00000000 		.space	8
  59      00000000 
  60              		.section	.text.sdram_lld_init_sequence,"ax",%progbits
  61              		.align	1
  62              		.syntax unified
  63              		.thumb
  64              		.thumb_func
  65              		.type	sdram_lld_init_sequence, %function
  66              	sdram_lld_init_sequence:
  67              	.LFB432:
  68              		.file 2 "../../../ChibiOS-Contrib-chibios-21.11.x/os/hal/ports/STM32/LLD/FSMCv1/hal_sdram_lld.c"
  69              		.loc 2 95 62
  70              		.cfi_startproc
  71              		@ args = 0, pretend = 0, frame = 16
  72              		@ frame_needed = 1, uses_anonymous_args = 0
  73 0000 80B5     		push	{r7, lr}
  74              		.cfi_def_cfa_offset 8
  75              		.cfi_offset 7, -8
  76              		.cfi_offset 14, -4
  77 0002 84B0     		sub	sp, sp, #16
  78              		.cfi_def_cfa_offset 24
  79 0004 00AF     		add	r7, sp, #0
  80              		.cfi_def_cfa_register 7
  81 0006 7860     		str	r0, [r7, #4]
  82              		.loc 2 97 12
  83 0008 0023     		movs	r3, #0
  84 000a FB60     		str	r3, [r7, #12]
  85              		.loc 2 100 18
  86 000c FB68     		ldr	r3, [r7, #12]
  87 000e 43F01003 		orr	r3, r3, #16
  88 0012 FB60     		str	r3, [r7, #12]
  89              		.loc 2 110 10
  90 0014 1E4B     		ldr	r3, .L3
  91 0016 5B68     		ldr	r3, [r3, #4]
  92              		.loc 2 110 44
  93 0018 FA68     		ldr	r2, [r7, #12]
  94 001a 42F00102 		orr	r2, r2, #1
  95              		.loc 2 110 24
  96 001e 1A61     		str	r2, [r3, #16]
  97              		.loc 2 113 3
  98 0020 44F62060 		movw	r0, #20000
  99 0024 FFF7FEFF 		bl	osalSysPolledDelayX
 100              		.loc 2 119 10
 101 0028 194B     		ldr	r3, .L3
 102 002a 5B68     		ldr	r3, [r3, #4]
 103              		.loc 2 119 37
 104 002c FA68     		ldr	r2, [r7, #12]
 105 002e 42F00202 		orr	r2, r2, #2
 106              		.loc 2 119 24
 107 0032 1A61     		str	r2, [r3, #16]
 108              		.loc 2 126 12
 109 0034 7B68     		ldr	r3, [r7, #4]
 110 0036 9B68     		ldr	r3, [r3, #8]
 111              		.loc 2 126 20
 112 0038 03F4F072 		and	r2, r3, #480
 113              		.loc 2 125 62
ARM GAS  C:\Users\DEVELO~1\AppData\Local\Temp\ccSYtStj.s 			page 3


 114 003c FB68     		ldr	r3, [r7, #12]
 115 003e 1A43     		orrs	r2, r2, r3
 116              		.loc 2 125 10
 117 0040 134B     		ldr	r3, .L3
 118 0042 5B68     		ldr	r3, [r3, #4]
 119              		.loc 2 125 62
 120 0044 42F00302 		orr	r2, r2, #3
 121              		.loc 2 125 24
 122 0048 1A61     		str	r2, [r3, #16]
 123              		.loc 2 133 12
 124 004a 7B68     		ldr	r3, [r7, #4]
 125 004c 9B68     		ldr	r3, [r3, #8]
 126              		.loc 2 133 20
 127 004e 03F4F072 		and	r2, r3, #480
 128              		.loc 2 132 62
 129 0052 FB68     		ldr	r3, [r7, #12]
 130 0054 1A43     		orrs	r2, r2, r3
 131              		.loc 2 132 10
 132 0056 0E4B     		ldr	r3, .L3
 133 0058 5B68     		ldr	r3, [r3, #4]
 134              		.loc 2 132 62
 135 005a 42F00302 		orr	r2, r2, #3
 136              		.loc 2 132 24
 137 005e 1A61     		str	r2, [r3, #16]
 138              		.loc 2 140 12
 139 0060 7B68     		ldr	r3, [r7, #4]
 140 0062 9A68     		ldr	r2, [r3, #8]
 141              		.loc 2 140 20
 142 0064 0B4B     		ldr	r3, .L3+4
 143 0066 1340     		ands	r3, r3, r2
 144              		.loc 2 139 59
 145 0068 FA68     		ldr	r2, [r7, #12]
 146 006a 1A43     		orrs	r2, r2, r3
 147              		.loc 2 139 10
 148 006c 084B     		ldr	r3, .L3
 149 006e 5B68     		ldr	r3, [r3, #4]
 150              		.loc 2 139 59
 151 0070 42F00402 		orr	r2, r2, #4
 152              		.loc 2 139 24
 153 0074 1A61     		str	r2, [r3, #16]
 154              		.loc 2 146 30
 155 0076 7B68     		ldr	r3, [r7, #4]
 156 0078 D968     		ldr	r1, [r3, #12]
 157              		.loc 2 146 10
 158 007a 054B     		ldr	r3, .L3
 159 007c 5A68     		ldr	r2, [r3, #4]
 160              		.loc 2 146 38
 161 007e 43F6FE73 		movw	r3, #16382
 162 0082 0B40     		ands	r3, r3, r1
 163              		.loc 2 146 24
 164 0084 5361     		str	r3, [r2, #20]
 165              		.loc 2 151 1
 166 0086 00BF     		nop
 167 0088 1037     		adds	r7, r7, #16
 168              		.cfi_def_cfa_offset 8
 169 008a BD46     		mov	sp, r7
 170              		.cfi_def_cfa_register 13
ARM GAS  C:\Users\DEVELO~1\AppData\Local\Temp\ccSYtStj.s 			page 4


 171              		@ sp needed
 172 008c 80BD     		pop	{r7, pc}
 173              	.L4:
 174 008e 00BF     		.align	2
 175              	.L3:
 176 0090 00000000 		.word	SDRAMD1
 177 0094 00FE3F00 		.word	4193792
 178              		.cfi_endproc
 179              	.LFE432:
 180              		.size	sdram_lld_init_sequence, .-sdram_lld_init_sequence
 181              		.section	.text.sdram_lld_start,"ax",%progbits
 182              		.align	1
 183              		.global	sdram_lld_start
 184              		.syntax unified
 185              		.thumb
 186              		.thumb_func
 187              		.type	sdram_lld_start, %function
 188              	sdram_lld_start:
 189              	.LFB433:
 190              		.loc 2 162 1
 191              		.cfi_startproc
 192              		@ args = 0, pretend = 0, frame = 8
 193              		@ frame_needed = 1, uses_anonymous_args = 0
 194 0000 80B5     		push	{r7, lr}
 195              		.cfi_def_cfa_offset 8
 196              		.cfi_offset 7, -8
 197              		.cfi_offset 14, -4
 198 0002 82B0     		sub	sp, sp, #8
 199              		.cfi_def_cfa_offset 16
 200 0004 00AF     		add	r7, sp, #0
 201              		.cfi_def_cfa_register 7
 202 0006 7860     		str	r0, [r7, #4]
 203 0008 3960     		str	r1, [r7]
 204              		.loc 2 163 9
 205 000a 7B68     		ldr	r3, [r7, #4]
 206 000c 5B68     		ldr	r3, [r3, #4]
 207              		.loc 2 163 30
 208 000e 3A68     		ldr	r2, [r7]
 209 0010 1268     		ldr	r2, [r2]
 210              		.loc 2 163 24
 211 0012 1A60     		str	r2, [r3]
 212              		.loc 2 164 9
 213 0014 7B68     		ldr	r3, [r7, #4]
 214 0016 5B68     		ldr	r3, [r3, #4]
 215              		.loc 2 164 30
 216 0018 3A68     		ldr	r2, [r7]
 217 001a 5268     		ldr	r2, [r2, #4]
 218              		.loc 2 164 24
 219 001c 9A60     		str	r2, [r3, #8]
 220              		.loc 2 165 9
 221 001e 7B68     		ldr	r3, [r7, #4]
 222 0020 5B68     		ldr	r3, [r3, #4]
 223              		.loc 2 165 30
 224 0022 3A68     		ldr	r2, [r7]
 225 0024 1268     		ldr	r2, [r2]
 226              		.loc 2 165 24
 227 0026 5A60     		str	r2, [r3, #4]
ARM GAS  C:\Users\DEVELO~1\AppData\Local\Temp\ccSYtStj.s 			page 5


 228              		.loc 2 166 9
 229 0028 7B68     		ldr	r3, [r7, #4]
 230 002a 5B68     		ldr	r3, [r3, #4]
 231              		.loc 2 166 30
 232 002c 3A68     		ldr	r2, [r7]
 233 002e 5268     		ldr	r2, [r2, #4]
 234              		.loc 2 166 24
 235 0030 DA60     		str	r2, [r3, #12]
 236              		.loc 2 169 24
 237 0032 064B     		ldr	r3, .L6
 238 0034 1B68     		ldr	r3, [r3]
 239 0036 054A     		ldr	r2, .L6
 240 0038 43F00043 		orr	r3, r3, #-2147483648
 241 003c 1360     		str	r3, [r2]
 242              		.loc 2 172 3
 243 003e 3868     		ldr	r0, [r7]
 244 0040 FFF7FEFF 		bl	sdram_lld_init_sequence
 245              		.loc 2 173 1
 246 0044 00BF     		nop
 247 0046 0837     		adds	r7, r7, #8
 248              		.cfi_def_cfa_offset 8
 249 0048 BD46     		mov	sp, r7
 250              		.cfi_def_cfa_register 13
 251              		@ sp needed
 252 004a 80BD     		pop	{r7, pc}
 253              	.L7:
 254              		.align	2
 255              	.L6:
 256 004c 00400052 		.word	1375748096
 257              		.cfi_endproc
 258              	.LFE433:
 259              		.size	sdram_lld_start, .-sdram_lld_start
 260              		.section	.text.sdram_lld_stop,"ax",%progbits
 261              		.align	1
 262              		.global	sdram_lld_stop
 263              		.syntax unified
 264              		.thumb
 265              		.thumb_func
 266              		.type	sdram_lld_stop, %function
 267              	sdram_lld_stop:
 268              	.LFB434:
 269              		.loc 2 175 42
 270              		.cfi_startproc
 271              		@ args = 0, pretend = 0, frame = 16
 272              		@ frame_needed = 1, uses_anonymous_args = 0
 273              		@ link register save eliminated.
 274 0000 80B4     		push	{r7}
 275              		.cfi_def_cfa_offset 4
 276              		.cfi_offset 7, -4
 277 0002 85B0     		sub	sp, sp, #20
 278              		.cfi_def_cfa_offset 24
 279 0004 00AF     		add	r7, sp, #0
 280              		.cfi_def_cfa_register 7
 281 0006 7860     		str	r0, [r7, #4]
 282              		.loc 2 176 12
 283 0008 0023     		movs	r3, #0
 284 000a FB60     		str	r3, [r7, #12]
ARM GAS  C:\Users\DEVELO~1\AppData\Local\Temp\ccSYtStj.s 			page 6


 285              		.loc 2 179 18
 286 000c FB68     		ldr	r3, [r7, #12]
 287 000e 43F01003 		orr	r3, r3, #16
 288 0012 FB60     		str	r3, [r7, #12]
 289              		.loc 2 185 9
 290 0014 7B68     		ldr	r3, [r7, #4]
 291 0016 5B68     		ldr	r3, [r3, #4]
 292              		.loc 2 185 43
 293 0018 FA68     		ldr	r2, [r7, #12]
 294 001a 42F00602 		orr	r2, r2, #6
 295              		.loc 2 185 24
 296 001e 1A61     		str	r2, [r3, #16]
 297              		.loc 2 186 1
 298 0020 00BF     		nop
 299 0022 1437     		adds	r7, r7, #20
 300              		.cfi_def_cfa_offset 4
 301 0024 BD46     		mov	sp, r7
 302              		.cfi_def_cfa_register 13
 303              		@ sp needed
 304 0026 80BC     		pop	{r7}
 305              		.cfi_restore 7
 306              		.cfi_def_cfa_offset 0
 307 0028 7047     		bx	lr
 308              		.cfi_endproc
 309              	.LFE434:
 310              		.size	sdram_lld_stop, .-sdram_lld_stop
 311              		.text
 312              	.Letext0:
 313              		.file 3 "c:\\chibistudio\\tools\\gnu tools arm embedded\\11.3 2022.08\\arm-none-eabi\\include\\mac
 314              		.file 4 "c:\\chibistudio\\tools\\gnu tools arm embedded\\11.3 2022.08\\arm-none-eabi\\include\\sys
 315              		.file 5 "../../../os/common/ports/ARM-common/chtypes.h"
 316              		.file 6 "../../../os/rt/include/chearly.h"
 317              		.file 7 "../../../os/common/ext/ST/STM32H7xx/stm32h743xx.h"
 318              		.file 8 "../../../ChibiOS-Contrib-chibios-21.11.x/os/hal/include/hal_fsmc.h"
 319              		.file 9 "../../../ChibiOS-Contrib-chibios-21.11.x/os/hal/include/hal_sdram.h"
 320              		.file 10 "../../../os/rt/include/chsys.h"
 321              		.section	.debug_info,"",%progbits
 322              	.Ldebug_info0:
 323 0000 04030000 		.4byte	0x304
 324 0004 0500     		.2byte	0x5
 325 0006 01       		.byte	0x1
 326 0007 04       		.byte	0x4
 327 0008 00000000 		.4byte	.Ldebug_abbrev0
 328 000c 0A       		.uleb128 0xa
 329 000d 90010000 		.4byte	.LASF44
 330 0011 1D       		.byte	0x1d
 331 0012 70020000 		.4byte	.LASF45
 332 0016 14010000 		.4byte	.LASF46
 333 001a 0C000000 		.4byte	.LLRL0
 334 001e 00000000 		.4byte	0
 335 0022 00000000 		.4byte	.Ldebug_line0
 336 0026 0B       		.uleb128 0xb
 337 0027 04       		.byte	0x4
 338 0028 05       		.byte	0x5
 339 0029 696E7400 		.ascii	"int\000"
 340 002d 02       		.uleb128 0x2
 341 002e 04       		.byte	0x4
ARM GAS  C:\Users\DEVELO~1\AppData\Local\Temp\ccSYtStj.s 			page 7


 342 002f 07       		.byte	0x7
 343 0030 3A020000 		.4byte	.LASF0
 344 0034 02       		.uleb128 0x2
 345 0035 08       		.byte	0x8
 346 0036 05       		.byte	0x5
 347 0037 D3020000 		.4byte	.LASF1
 348 003b 02       		.uleb128 0x2
 349 003c 08       		.byte	0x8
 350 003d 04       		.byte	0x4
 351 003e 2C030000 		.4byte	.LASF2
 352 0042 02       		.uleb128 0x2
 353 0043 01       		.byte	0x1
 354 0044 06       		.byte	0x6
 355 0045 38030000 		.4byte	.LASF3
 356 0049 02       		.uleb128 0x2
 357 004a 01       		.byte	0x1
 358 004b 08       		.byte	0x8
 359 004c 92000000 		.4byte	.LASF4
 360 0050 02       		.uleb128 0x2
 361 0051 02       		.byte	0x2
 362 0052 05       		.byte	0x5
 363 0053 FC020000 		.4byte	.LASF5
 364 0057 02       		.uleb128 0x2
 365 0058 02       		.byte	0x2
 366 0059 07       		.byte	0x7
 367 005a D6000000 		.4byte	.LASF6
 368 005e 02       		.uleb128 0x2
 369 005f 04       		.byte	0x4
 370 0060 05       		.byte	0x5
 371 0061 23030000 		.4byte	.LASF7
 372 0065 03       		.uleb128 0x3
 373 0066 85010000 		.4byte	.LASF10
 374 006a 03       		.byte	0x3
 375 006b 4F       		.byte	0x4f
 376 006c 19       		.byte	0x19
 377 006d 71000000 		.4byte	0x71
 378 0071 02       		.uleb128 0x2
 379 0072 04       		.byte	0x4
 380 0073 07       		.byte	0x7
 381 0074 AC000000 		.4byte	.LASF8
 382 0078 02       		.uleb128 0x2
 383 0079 08       		.byte	0x8
 384 007a 07       		.byte	0x7
 385 007b 7B000000 		.4byte	.LASF9
 386 007f 03       		.uleb128 0x3
 387 0080 1A030000 		.4byte	.LASF11
 388 0084 04       		.byte	0x4
 389 0085 30       		.byte	0x30
 390 0086 14       		.byte	0x14
 391 0087 65000000 		.4byte	0x65
 392 008b 07       		.uleb128 0x7
 393 008c 7F000000 		.4byte	0x7f
 394 0090 03       		.uleb128 0x3
 395 0091 4A000000 		.4byte	.LASF12
 396 0095 05       		.byte	0x5
 397 0096 36       		.byte	0x36
 398 0097 1D       		.byte	0x1d
ARM GAS  C:\Users\DEVELO~1\AppData\Local\Temp\ccSYtStj.s 			page 8


 399 0098 7F000000 		.4byte	0x7f
 400 009c 03       		.uleb128 0x3
 401 009d 68020000 		.4byte	.LASF13
 402 00a1 06       		.byte	0x6
 403 00a2 4D       		.byte	0x4d
 404 00a3 19       		.byte	0x19
 405 00a4 90000000 		.4byte	0x90
 406 00a8 02       		.uleb128 0x2
 407 00a9 01       		.byte	0x1
 408 00aa 08       		.byte	0x8
 409 00ab F1020000 		.4byte	.LASF14
 410 00af 0C       		.uleb128 0xc
 411 00b0 8B000000 		.4byte	0x8b
 412 00b4 BF000000 		.4byte	0xbf
 413 00b8 0D       		.uleb128 0xd
 414 00b9 2D000000 		.4byte	0x2d
 415 00bd 07       		.byte	0x7
 416 00be 00       		.byte	0
 417 00bf 07       		.uleb128 0x7
 418 00c0 AF000000 		.4byte	0xaf
 419 00c4 0E       		.uleb128 0xe
 420 00c5 20       		.byte	0x20
 421 00c6 07       		.byte	0x7
 422 00c7 C603     		.2byte	0x3c6
 423 00c9 09       		.byte	0x9
 424 00ca DD000000 		.4byte	0xdd
 425 00ce 0F       		.uleb128 0xf
 426 00cf 47020000 		.4byte	.LASF17
 427 00d3 07       		.byte	0x7
 428 00d4 C803     		.2byte	0x3c8
 429 00d6 11       		.byte	0x11
 430 00d7 BF000000 		.4byte	0xbf
 431 00db 00       		.byte	0
 432 00dc 00       		.byte	0
 433 00dd 10       		.uleb128 0x10
 434 00de 38000000 		.4byte	.LASF15
 435 00e2 07       		.byte	0x7
 436 00e3 C903     		.2byte	0x3c9
 437 00e5 03       		.byte	0x3
 438 00e6 C4000000 		.4byte	0xc4
 439 00ea 02       		.uleb128 0x2
 440 00eb 01       		.byte	0x1
 441 00ec 02       		.byte	0x2
 442 00ed 44030000 		.4byte	.LASF16
 443 00f1 08       		.uleb128 0x8
 444 00f2 1C       		.byte	0x1c
 445 00f3 08       		.byte	0x8
 446 00f4 AC       		.byte	0xac
 447 00f5 55010000 		.4byte	0x155
 448 00f9 01       		.uleb128 0x1
 449 00fa 73010000 		.4byte	.LASF18
 450 00fe 08       		.byte	0x8
 451 00ff AD       		.byte	0xad
 452 0100 11       		.byte	0x11
 453 0101 8B000000 		.4byte	0x8b
 454 0105 00       		.byte	0
 455 0106 01       		.uleb128 0x1
ARM GAS  C:\Users\DEVELO~1\AppData\Local\Temp\ccSYtStj.s 			page 9


 456 0107 79010000 		.4byte	.LASF19
 457 010b 08       		.byte	0x8
 458 010c AE       		.byte	0xae
 459 010d 11       		.byte	0x11
 460 010e 8B000000 		.4byte	0x8b
 461 0112 04       		.byte	0x4
 462 0113 01       		.uleb128 0x1
 463 0114 A0000000 		.4byte	.LASF20
 464 0118 08       		.byte	0x8
 465 0119 AF       		.byte	0xaf
 466 011a 11       		.byte	0x11
 467 011b 8B000000 		.4byte	0x8b
 468 011f 08       		.byte	0x8
 469 0120 01       		.uleb128 0x1
 470 0121 A6000000 		.4byte	.LASF21
 471 0125 08       		.byte	0x8
 472 0126 B0       		.byte	0xb0
 473 0127 11       		.byte	0x11
 474 0128 8B000000 		.4byte	0x8b
 475 012c 0C       		.byte	0xc
 476 012d 01       		.uleb128 0x1
 477 012e 14000000 		.4byte	.LASF22
 478 0132 08       		.byte	0x8
 479 0133 B1       		.byte	0xb1
 480 0134 11       		.byte	0x11
 481 0135 8B000000 		.4byte	0x8b
 482 0139 10       		.byte	0x10
 483 013a 01       		.uleb128 0x1
 484 013b 20020000 		.4byte	.LASF23
 485 013f 08       		.byte	0x8
 486 0140 B2       		.byte	0xb2
 487 0141 11       		.byte	0x11
 488 0142 8B000000 		.4byte	0x8b
 489 0146 14       		.byte	0x14
 490 0147 01       		.uleb128 0x1
 491 0148 20000000 		.4byte	.LASF24
 492 014c 08       		.byte	0x8
 493 014d B3       		.byte	0xb3
 494 014e 11       		.byte	0x11
 495 014f 8B000000 		.4byte	0x8b
 496 0153 18       		.byte	0x18
 497 0154 00       		.byte	0
 498 0155 03       		.uleb128 0x3
 499 0156 25000000 		.4byte	.LASF25
 500 015a 08       		.byte	0x8
 501 015b B4       		.byte	0xb4
 502 015c 03       		.byte	0x3
 503 015d F1000000 		.4byte	0xf1
 504 0161 05       		.uleb128 0x5
 505 0162 55010000 		.4byte	0x155
 506 0166 11       		.uleb128 0x11
 507 0167 07       		.byte	0x7
 508 0168 01       		.byte	0x1
 509 0169 49000000 		.4byte	0x49
 510 016d 09       		.byte	0x9
 511 016e A4       		.byte	0xa4
 512 016f 0E       		.byte	0xe
ARM GAS  C:\Users\DEVELO~1\AppData\Local\Temp\ccSYtStj.s 			page 10


 513 0170 87010000 		.4byte	0x187
 514 0174 06       		.uleb128 0x6
 515 0175 6E000000 		.4byte	.LASF26
 516 0179 00       		.byte	0
 517 017a 06       		.uleb128 0x6
 518 017b 57000000 		.4byte	.LASF27
 519 017f 01       		.byte	0x1
 520 0180 06       		.uleb128 0x6
 521 0181 E9000000 		.4byte	.LASF28
 522 0185 02       		.byte	0x2
 523 0186 00       		.byte	0
 524 0187 03       		.uleb128 0x3
 525 0188 26020000 		.4byte	.LASF29
 526 018c 09       		.byte	0x9
 527 018d A8       		.byte	0xa8
 528 018e 03       		.byte	0x3
 529 018f 66010000 		.4byte	0x166
 530 0193 03       		.uleb128 0x3
 531 0194 62000000 		.4byte	.LASF30
 532 0198 09       		.byte	0x9
 533 0199 AD       		.byte	0xad
 534 019a 1C       		.byte	0x1c
 535 019b 9F010000 		.4byte	0x19f
 536 019f 12       		.uleb128 0x12
 537 01a0 62000000 		.4byte	.LASF30
 538 01a4 08       		.byte	0x8
 539 01a5 09       		.byte	0x9
 540 01a6 D0       		.byte	0xd0
 541 01a7 08       		.byte	0x8
 542 01a8 C7010000 		.4byte	0x1c7
 543 01ac 01       		.uleb128 0x1
 544 01ad 1A000000 		.4byte	.LASF31
 545 01b1 09       		.byte	0x9
 546 01b2 D4       		.byte	0xd4
 547 01b3 1D       		.byte	0x1d
 548 01b4 87010000 		.4byte	0x187
 549 01b8 00       		.byte	0
 550 01b9 01       		.uleb128 0x1
 551 01ba 7F010000 		.4byte	.LASF32
 552 01be 09       		.byte	0x9
 553 01bf D8       		.byte	0xd8
 554 01c0 1E       		.byte	0x1e
 555 01c1 61010000 		.4byte	0x161
 556 01c5 04       		.byte	0x4
 557 01c6 00       		.byte	0
 558 01c7 08       		.uleb128 0x8
 559 01c8 10       		.byte	0x10
 560 01c9 09       		.byte	0x9
 561 01ca B3       		.byte	0xb3
 562 01cb 04020000 		.4byte	0x204
 563 01cf 01       		.uleb128 0x1
 564 01d0 F5000000 		.4byte	.LASF33
 565 01d4 09       		.byte	0x9
 566 01d5 B8       		.byte	0xb8
 567 01d6 11       		.byte	0x11
 568 01d7 7F000000 		.4byte	0x7f
 569 01db 00       		.byte	0
ARM GAS  C:\Users\DEVELO~1\AppData\Local\Temp\ccSYtStj.s 			page 11


 570 01dc 01       		.uleb128 0x1
 571 01dd 1B020000 		.4byte	.LASF34
 572 01e1 09       		.byte	0x9
 573 01e2 BE       		.byte	0xbe
 574 01e3 11       		.byte	0x11
 575 01e4 7F000000 		.4byte	0x7f
 576 01e8 04       		.byte	0x4
 577 01e9 01       		.uleb128 0x1
 578 01ea F6020000 		.4byte	.LASF35
 579 01ee 09       		.byte	0x9
 580 01ef C4       		.byte	0xc4
 581 01f0 11       		.byte	0x11
 582 01f1 7F000000 		.4byte	0x7f
 583 01f5 08       		.byte	0x8
 584 01f6 01       		.uleb128 0x1
 585 01f7 62020000 		.4byte	.LASF36
 586 01fb 09       		.byte	0x9
 587 01fc CA       		.byte	0xca
 588 01fd 11       		.byte	0x11
 589 01fe 7F000000 		.4byte	0x7f
 590 0202 0C       		.byte	0xc
 591 0203 00       		.byte	0
 592 0204 03       		.uleb128 0x3
 593 0205 C7020000 		.4byte	.LASF37
 594 0209 09       		.byte	0x9
 595 020a CB       		.byte	0xcb
 596 020b 03       		.byte	0x3
 597 020c C7010000 		.4byte	0x1c7
 598 0210 13       		.uleb128 0x13
 599 0211 04020000 		.4byte	0x204
 600 0215 14       		.uleb128 0x14
 601 0216 0C010000 		.4byte	.LASF47
 602 021a 09       		.byte	0x9
 603 021b E3       		.byte	0xe3
 604 021c 14       		.byte	0x14
 605 021d 93010000 		.4byte	0x193
 606 0221 15       		.uleb128 0x15
 607 0222 15020000 		.4byte	0x215
 608 0226 02       		.byte	0x2
 609 0227 3E       		.byte	0x3e
 610 0228 0D       		.byte	0xd
 611 0229 05       		.uleb128 0x5
 612 022a 03       		.byte	0x3
 613 022b 00000000 		.4byte	SDRAMD1
 614 022f 16       		.uleb128 0x16
 615 0230 FA000000 		.4byte	.LASF48
 616 0234 0A       		.byte	0xa
 617 0235 5601     		.2byte	0x156
 618 0237 08       		.byte	0x8
 619 0238 42020000 		.4byte	0x242
 620 023c 17       		.uleb128 0x17
 621 023d 9C000000 		.4byte	0x9c
 622 0241 00       		.byte	0
 623 0242 18       		.uleb128 0x18
 624 0243 53020000 		.4byte	.LASF38
 625 0247 02       		.byte	0x2
 626 0248 AF       		.byte	0xaf
ARM GAS  C:\Users\DEVELO~1\AppData\Local\Temp\ccSYtStj.s 			page 12


 627 0249 06       		.byte	0x6
 628 024a 00000000 		.4byte	.LFB434
 629 024e 2A000000 		.4byte	.LFE434-.LFB434
 630 0252 01       		.uleb128 0x1
 631 0253 9C       		.byte	0x9c
 632 0254 74020000 		.4byte	0x274
 633 0258 04       		.uleb128 0x4
 634 0259 33020000 		.4byte	.LASF40
 635 025d AF       		.byte	0xaf
 636 025e 22       		.byte	0x22
 637 025f 74020000 		.4byte	0x274
 638 0263 02       		.uleb128 0x2
 639 0264 91       		.byte	0x91
 640 0265 6C       		.sleb128 -20
 641 0266 09       		.uleb128 0x9
 642 0267 00000000 		.4byte	.LASF42
 643 026b B0       		.byte	0xb0
 644 026c 7F000000 		.4byte	0x7f
 645 0270 02       		.uleb128 0x2
 646 0271 91       		.byte	0x91
 647 0272 74       		.sleb128 -12
 648 0273 00       		.byte	0
 649 0274 05       		.uleb128 0x5
 650 0275 93010000 		.4byte	0x193
 651 0279 19       		.uleb128 0x19
 652 027a E1020000 		.4byte	.LASF39
 653 027e 02       		.byte	0x2
 654 027f A1       		.byte	0xa1
 655 0280 06       		.byte	0x6
 656 0281 00000000 		.4byte	.LFB433
 657 0285 50000000 		.4byte	.LFE433-.LFB433
 658 0289 01       		.uleb128 0x1
 659 028a 9C       		.byte	0x9c
 660 028b AC020000 		.4byte	0x2ac
 661 028f 04       		.uleb128 0x4
 662 0290 33020000 		.4byte	.LASF40
 663 0294 A1       		.byte	0xa1
 664 0295 23       		.byte	0x23
 665 0296 74020000 		.4byte	0x274
 666 029a 02       		.uleb128 0x2
 667 029b 91       		.byte	0x91
 668 029c 74       		.sleb128 -12
 669 029d 04       		.uleb128 0x4
 670 029e 0F000000 		.4byte	.LASF41
 671 02a2 A1       		.byte	0xa1
 672 02a3 3E       		.byte	0x3e
 673 02a4 AC020000 		.4byte	0x2ac
 674 02a8 02       		.uleb128 0x2
 675 02a9 91       		.byte	0x91
 676 02aa 70       		.sleb128 -16
 677 02ab 00       		.byte	0
 678 02ac 05       		.uleb128 0x5
 679 02ad 10020000 		.4byte	0x210
 680 02b1 1A       		.uleb128 0x1a
 681 02b2 BE000000 		.4byte	.LASF49
 682 02b6 02       		.byte	0x2
 683 02b7 5F       		.byte	0x5f
ARM GAS  C:\Users\DEVELO~1\AppData\Local\Temp\ccSYtStj.s 			page 13


 684 02b8 0D       		.byte	0xd
 685 02b9 00000000 		.4byte	.LFB432
 686 02bd 98000000 		.4byte	.LFE432-.LFB432
 687 02c1 01       		.uleb128 0x1
 688 02c2 9C       		.byte	0x9c
 689 02c3 E3020000 		.4byte	0x2e3
 690 02c7 04       		.uleb128 0x4
 691 02c8 0F000000 		.4byte	.LASF41
 692 02cc 5F       		.byte	0x5f
 693 02cd 38       		.byte	0x38
 694 02ce AC020000 		.4byte	0x2ac
 695 02d2 02       		.uleb128 0x2
 696 02d3 91       		.byte	0x91
 697 02d4 6C       		.sleb128 -20
 698 02d5 09       		.uleb128 0x9
 699 02d6 00000000 		.4byte	.LASF42
 700 02da 61       		.byte	0x61
 701 02db 7F000000 		.4byte	0x7f
 702 02df 02       		.uleb128 0x2
 703 02e0 91       		.byte	0x91
 704 02e1 74       		.sleb128 -12
 705 02e2 00       		.byte	0
 706 02e3 1B       		.uleb128 0x1b
 707 02e4 06030000 		.4byte	.LASF50
 708 02e8 01       		.byte	0x1
 709 02e9 8D02     		.2byte	0x28d
 710 02eb 14       		.byte	0x14
 711 02ec 00000000 		.4byte	.LFB356
 712 02f0 16000000 		.4byte	.LFE356-.LFB356
 713 02f4 01       		.uleb128 0x1
 714 02f5 9C       		.byte	0x9c
 715 02f6 1C       		.uleb128 0x1c
 716 02f7 4C020000 		.4byte	.LASF43
 717 02fb 01       		.byte	0x1
 718 02fc 8D02     		.2byte	0x28d
 719 02fe 30       		.byte	0x30
 720 02ff 9C000000 		.4byte	0x9c
 721 0303 02       		.uleb128 0x2
 722 0304 91       		.byte	0x91
 723 0305 74       		.sleb128 -12
 724 0306 00       		.byte	0
 725 0307 00       		.byte	0
 726              		.section	.debug_abbrev,"",%progbits
 727              	.Ldebug_abbrev0:
 728 0000 01       		.uleb128 0x1
 729 0001 0D       		.uleb128 0xd
 730 0002 00       		.byte	0
 731 0003 03       		.uleb128 0x3
 732 0004 0E       		.uleb128 0xe
 733 0005 3A       		.uleb128 0x3a
 734 0006 0B       		.uleb128 0xb
 735 0007 3B       		.uleb128 0x3b
 736 0008 0B       		.uleb128 0xb
 737 0009 39       		.uleb128 0x39
 738 000a 0B       		.uleb128 0xb
 739 000b 49       		.uleb128 0x49
 740 000c 13       		.uleb128 0x13
ARM GAS  C:\Users\DEVELO~1\AppData\Local\Temp\ccSYtStj.s 			page 14


 741 000d 38       		.uleb128 0x38
 742 000e 0B       		.uleb128 0xb
 743 000f 00       		.byte	0
 744 0010 00       		.byte	0
 745 0011 02       		.uleb128 0x2
 746 0012 24       		.uleb128 0x24
 747 0013 00       		.byte	0
 748 0014 0B       		.uleb128 0xb
 749 0015 0B       		.uleb128 0xb
 750 0016 3E       		.uleb128 0x3e
 751 0017 0B       		.uleb128 0xb
 752 0018 03       		.uleb128 0x3
 753 0019 0E       		.uleb128 0xe
 754 001a 00       		.byte	0
 755 001b 00       		.byte	0
 756 001c 03       		.uleb128 0x3
 757 001d 16       		.uleb128 0x16
 758 001e 00       		.byte	0
 759 001f 03       		.uleb128 0x3
 760 0020 0E       		.uleb128 0xe
 761 0021 3A       		.uleb128 0x3a
 762 0022 0B       		.uleb128 0xb
 763 0023 3B       		.uleb128 0x3b
 764 0024 0B       		.uleb128 0xb
 765 0025 39       		.uleb128 0x39
 766 0026 0B       		.uleb128 0xb
 767 0027 49       		.uleb128 0x49
 768 0028 13       		.uleb128 0x13
 769 0029 00       		.byte	0
 770 002a 00       		.byte	0
 771 002b 04       		.uleb128 0x4
 772 002c 05       		.uleb128 0x5
 773 002d 00       		.byte	0
 774 002e 03       		.uleb128 0x3
 775 002f 0E       		.uleb128 0xe
 776 0030 3A       		.uleb128 0x3a
 777 0031 21       		.uleb128 0x21
 778 0032 02       		.sleb128 2
 779 0033 3B       		.uleb128 0x3b
 780 0034 0B       		.uleb128 0xb
 781 0035 39       		.uleb128 0x39
 782 0036 0B       		.uleb128 0xb
 783 0037 49       		.uleb128 0x49
 784 0038 13       		.uleb128 0x13
 785 0039 02       		.uleb128 0x2
 786 003a 18       		.uleb128 0x18
 787 003b 00       		.byte	0
 788 003c 00       		.byte	0
 789 003d 05       		.uleb128 0x5
 790 003e 0F       		.uleb128 0xf
 791 003f 00       		.byte	0
 792 0040 0B       		.uleb128 0xb
 793 0041 21       		.uleb128 0x21
 794 0042 04       		.sleb128 4
 795 0043 49       		.uleb128 0x49
 796 0044 13       		.uleb128 0x13
 797 0045 00       		.byte	0
ARM GAS  C:\Users\DEVELO~1\AppData\Local\Temp\ccSYtStj.s 			page 15


 798 0046 00       		.byte	0
 799 0047 06       		.uleb128 0x6
 800 0048 28       		.uleb128 0x28
 801 0049 00       		.byte	0
 802 004a 03       		.uleb128 0x3
 803 004b 0E       		.uleb128 0xe
 804 004c 1C       		.uleb128 0x1c
 805 004d 0B       		.uleb128 0xb
 806 004e 00       		.byte	0
 807 004f 00       		.byte	0
 808 0050 07       		.uleb128 0x7
 809 0051 35       		.uleb128 0x35
 810 0052 00       		.byte	0
 811 0053 49       		.uleb128 0x49
 812 0054 13       		.uleb128 0x13
 813 0055 00       		.byte	0
 814 0056 00       		.byte	0
 815 0057 08       		.uleb128 0x8
 816 0058 13       		.uleb128 0x13
 817 0059 01       		.byte	0x1
 818 005a 0B       		.uleb128 0xb
 819 005b 0B       		.uleb128 0xb
 820 005c 3A       		.uleb128 0x3a
 821 005d 0B       		.uleb128 0xb
 822 005e 3B       		.uleb128 0x3b
 823 005f 0B       		.uleb128 0xb
 824 0060 39       		.uleb128 0x39
 825 0061 21       		.uleb128 0x21
 826 0062 09       		.sleb128 9
 827 0063 01       		.uleb128 0x1
 828 0064 13       		.uleb128 0x13
 829 0065 00       		.byte	0
 830 0066 00       		.byte	0
 831 0067 09       		.uleb128 0x9
 832 0068 34       		.uleb128 0x34
 833 0069 00       		.byte	0
 834 006a 03       		.uleb128 0x3
 835 006b 0E       		.uleb128 0xe
 836 006c 3A       		.uleb128 0x3a
 837 006d 21       		.uleb128 0x21
 838 006e 02       		.sleb128 2
 839 006f 3B       		.uleb128 0x3b
 840 0070 0B       		.uleb128 0xb
 841 0071 39       		.uleb128 0x39
 842 0072 21       		.uleb128 0x21
 843 0073 0C       		.sleb128 12
 844 0074 49       		.uleb128 0x49
 845 0075 13       		.uleb128 0x13
 846 0076 02       		.uleb128 0x2
 847 0077 18       		.uleb128 0x18
 848 0078 00       		.byte	0
 849 0079 00       		.byte	0
 850 007a 0A       		.uleb128 0xa
 851 007b 11       		.uleb128 0x11
 852 007c 01       		.byte	0x1
 853 007d 25       		.uleb128 0x25
 854 007e 0E       		.uleb128 0xe
ARM GAS  C:\Users\DEVELO~1\AppData\Local\Temp\ccSYtStj.s 			page 16


 855 007f 13       		.uleb128 0x13
 856 0080 0B       		.uleb128 0xb
 857 0081 03       		.uleb128 0x3
 858 0082 0E       		.uleb128 0xe
 859 0083 1B       		.uleb128 0x1b
 860 0084 0E       		.uleb128 0xe
 861 0085 55       		.uleb128 0x55
 862 0086 17       		.uleb128 0x17
 863 0087 11       		.uleb128 0x11
 864 0088 01       		.uleb128 0x1
 865 0089 10       		.uleb128 0x10
 866 008a 17       		.uleb128 0x17
 867 008b 00       		.byte	0
 868 008c 00       		.byte	0
 869 008d 0B       		.uleb128 0xb
 870 008e 24       		.uleb128 0x24
 871 008f 00       		.byte	0
 872 0090 0B       		.uleb128 0xb
 873 0091 0B       		.uleb128 0xb
 874 0092 3E       		.uleb128 0x3e
 875 0093 0B       		.uleb128 0xb
 876 0094 03       		.uleb128 0x3
 877 0095 08       		.uleb128 0x8
 878 0096 00       		.byte	0
 879 0097 00       		.byte	0
 880 0098 0C       		.uleb128 0xc
 881 0099 01       		.uleb128 0x1
 882 009a 01       		.byte	0x1
 883 009b 49       		.uleb128 0x49
 884 009c 13       		.uleb128 0x13
 885 009d 01       		.uleb128 0x1
 886 009e 13       		.uleb128 0x13
 887 009f 00       		.byte	0
 888 00a0 00       		.byte	0
 889 00a1 0D       		.uleb128 0xd
 890 00a2 21       		.uleb128 0x21
 891 00a3 00       		.byte	0
 892 00a4 49       		.uleb128 0x49
 893 00a5 13       		.uleb128 0x13
 894 00a6 2F       		.uleb128 0x2f
 895 00a7 0B       		.uleb128 0xb
 896 00a8 00       		.byte	0
 897 00a9 00       		.byte	0
 898 00aa 0E       		.uleb128 0xe
 899 00ab 13       		.uleb128 0x13
 900 00ac 01       		.byte	0x1
 901 00ad 0B       		.uleb128 0xb
 902 00ae 0B       		.uleb128 0xb
 903 00af 3A       		.uleb128 0x3a
 904 00b0 0B       		.uleb128 0xb
 905 00b1 3B       		.uleb128 0x3b
 906 00b2 05       		.uleb128 0x5
 907 00b3 39       		.uleb128 0x39
 908 00b4 0B       		.uleb128 0xb
 909 00b5 01       		.uleb128 0x1
 910 00b6 13       		.uleb128 0x13
 911 00b7 00       		.byte	0
ARM GAS  C:\Users\DEVELO~1\AppData\Local\Temp\ccSYtStj.s 			page 17


 912 00b8 00       		.byte	0
 913 00b9 0F       		.uleb128 0xf
 914 00ba 0D       		.uleb128 0xd
 915 00bb 00       		.byte	0
 916 00bc 03       		.uleb128 0x3
 917 00bd 0E       		.uleb128 0xe
 918 00be 3A       		.uleb128 0x3a
 919 00bf 0B       		.uleb128 0xb
 920 00c0 3B       		.uleb128 0x3b
 921 00c1 05       		.uleb128 0x5
 922 00c2 39       		.uleb128 0x39
 923 00c3 0B       		.uleb128 0xb
 924 00c4 49       		.uleb128 0x49
 925 00c5 13       		.uleb128 0x13
 926 00c6 38       		.uleb128 0x38
 927 00c7 0B       		.uleb128 0xb
 928 00c8 00       		.byte	0
 929 00c9 00       		.byte	0
 930 00ca 10       		.uleb128 0x10
 931 00cb 16       		.uleb128 0x16
 932 00cc 00       		.byte	0
 933 00cd 03       		.uleb128 0x3
 934 00ce 0E       		.uleb128 0xe
 935 00cf 3A       		.uleb128 0x3a
 936 00d0 0B       		.uleb128 0xb
 937 00d1 3B       		.uleb128 0x3b
 938 00d2 05       		.uleb128 0x5
 939 00d3 39       		.uleb128 0x39
 940 00d4 0B       		.uleb128 0xb
 941 00d5 49       		.uleb128 0x49
 942 00d6 13       		.uleb128 0x13
 943 00d7 00       		.byte	0
 944 00d8 00       		.byte	0
 945 00d9 11       		.uleb128 0x11
 946 00da 04       		.uleb128 0x4
 947 00db 01       		.byte	0x1
 948 00dc 3E       		.uleb128 0x3e
 949 00dd 0B       		.uleb128 0xb
 950 00de 0B       		.uleb128 0xb
 951 00df 0B       		.uleb128 0xb
 952 00e0 49       		.uleb128 0x49
 953 00e1 13       		.uleb128 0x13
 954 00e2 3A       		.uleb128 0x3a
 955 00e3 0B       		.uleb128 0xb
 956 00e4 3B       		.uleb128 0x3b
 957 00e5 0B       		.uleb128 0xb
 958 00e6 39       		.uleb128 0x39
 959 00e7 0B       		.uleb128 0xb
 960 00e8 01       		.uleb128 0x1
 961 00e9 13       		.uleb128 0x13
 962 00ea 00       		.byte	0
 963 00eb 00       		.byte	0
 964 00ec 12       		.uleb128 0x12
 965 00ed 13       		.uleb128 0x13
 966 00ee 01       		.byte	0x1
 967 00ef 03       		.uleb128 0x3
 968 00f0 0E       		.uleb128 0xe
ARM GAS  C:\Users\DEVELO~1\AppData\Local\Temp\ccSYtStj.s 			page 18


 969 00f1 0B       		.uleb128 0xb
 970 00f2 0B       		.uleb128 0xb
 971 00f3 3A       		.uleb128 0x3a
 972 00f4 0B       		.uleb128 0xb
 973 00f5 3B       		.uleb128 0x3b
 974 00f6 0B       		.uleb128 0xb
 975 00f7 39       		.uleb128 0x39
 976 00f8 0B       		.uleb128 0xb
 977 00f9 01       		.uleb128 0x1
 978 00fa 13       		.uleb128 0x13
 979 00fb 00       		.byte	0
 980 00fc 00       		.byte	0
 981 00fd 13       		.uleb128 0x13
 982 00fe 26       		.uleb128 0x26
 983 00ff 00       		.byte	0
 984 0100 49       		.uleb128 0x49
 985 0101 13       		.uleb128 0x13
 986 0102 00       		.byte	0
 987 0103 00       		.byte	0
 988 0104 14       		.uleb128 0x14
 989 0105 34       		.uleb128 0x34
 990 0106 00       		.byte	0
 991 0107 03       		.uleb128 0x3
 992 0108 0E       		.uleb128 0xe
 993 0109 3A       		.uleb128 0x3a
 994 010a 0B       		.uleb128 0xb
 995 010b 3B       		.uleb128 0x3b
 996 010c 0B       		.uleb128 0xb
 997 010d 39       		.uleb128 0x39
 998 010e 0B       		.uleb128 0xb
 999 010f 49       		.uleb128 0x49
 1000 0110 13       		.uleb128 0x13
 1001 0111 3F       		.uleb128 0x3f
 1002 0112 19       		.uleb128 0x19
 1003 0113 3C       		.uleb128 0x3c
 1004 0114 19       		.uleb128 0x19
 1005 0115 00       		.byte	0
 1006 0116 00       		.byte	0
 1007 0117 15       		.uleb128 0x15
 1008 0118 34       		.uleb128 0x34
 1009 0119 00       		.byte	0
 1010 011a 47       		.uleb128 0x47
 1011 011b 13       		.uleb128 0x13
 1012 011c 3A       		.uleb128 0x3a
 1013 011d 0B       		.uleb128 0xb
 1014 011e 3B       		.uleb128 0x3b
 1015 011f 0B       		.uleb128 0xb
 1016 0120 39       		.uleb128 0x39
 1017 0121 0B       		.uleb128 0xb
 1018 0122 02       		.uleb128 0x2
 1019 0123 18       		.uleb128 0x18
 1020 0124 00       		.byte	0
 1021 0125 00       		.byte	0
 1022 0126 16       		.uleb128 0x16
 1023 0127 2E       		.uleb128 0x2e
 1024 0128 01       		.byte	0x1
 1025 0129 3F       		.uleb128 0x3f
ARM GAS  C:\Users\DEVELO~1\AppData\Local\Temp\ccSYtStj.s 			page 19


 1026 012a 19       		.uleb128 0x19
 1027 012b 03       		.uleb128 0x3
 1028 012c 0E       		.uleb128 0xe
 1029 012d 3A       		.uleb128 0x3a
 1030 012e 0B       		.uleb128 0xb
 1031 012f 3B       		.uleb128 0x3b
 1032 0130 05       		.uleb128 0x5
 1033 0131 39       		.uleb128 0x39
 1034 0132 0B       		.uleb128 0xb
 1035 0133 27       		.uleb128 0x27
 1036 0134 19       		.uleb128 0x19
 1037 0135 3C       		.uleb128 0x3c
 1038 0136 19       		.uleb128 0x19
 1039 0137 01       		.uleb128 0x1
 1040 0138 13       		.uleb128 0x13
 1041 0139 00       		.byte	0
 1042 013a 00       		.byte	0
 1043 013b 17       		.uleb128 0x17
 1044 013c 05       		.uleb128 0x5
 1045 013d 00       		.byte	0
 1046 013e 49       		.uleb128 0x49
 1047 013f 13       		.uleb128 0x13
 1048 0140 00       		.byte	0
 1049 0141 00       		.byte	0
 1050 0142 18       		.uleb128 0x18
 1051 0143 2E       		.uleb128 0x2e
 1052 0144 01       		.byte	0x1
 1053 0145 3F       		.uleb128 0x3f
 1054 0146 19       		.uleb128 0x19
 1055 0147 03       		.uleb128 0x3
 1056 0148 0E       		.uleb128 0xe
 1057 0149 3A       		.uleb128 0x3a
 1058 014a 0B       		.uleb128 0xb
 1059 014b 3B       		.uleb128 0x3b
 1060 014c 0B       		.uleb128 0xb
 1061 014d 39       		.uleb128 0x39
 1062 014e 0B       		.uleb128 0xb
 1063 014f 27       		.uleb128 0x27
 1064 0150 19       		.uleb128 0x19
 1065 0151 11       		.uleb128 0x11
 1066 0152 01       		.uleb128 0x1
 1067 0153 12       		.uleb128 0x12
 1068 0154 06       		.uleb128 0x6
 1069 0155 40       		.uleb128 0x40
 1070 0156 18       		.uleb128 0x18
 1071 0157 7A       		.uleb128 0x7a
 1072 0158 19       		.uleb128 0x19
 1073 0159 01       		.uleb128 0x1
 1074 015a 13       		.uleb128 0x13
 1075 015b 00       		.byte	0
 1076 015c 00       		.byte	0
 1077 015d 19       		.uleb128 0x19
 1078 015e 2E       		.uleb128 0x2e
 1079 015f 01       		.byte	0x1
 1080 0160 3F       		.uleb128 0x3f
 1081 0161 19       		.uleb128 0x19
 1082 0162 03       		.uleb128 0x3
ARM GAS  C:\Users\DEVELO~1\AppData\Local\Temp\ccSYtStj.s 			page 20


 1083 0163 0E       		.uleb128 0xe
 1084 0164 3A       		.uleb128 0x3a
 1085 0165 0B       		.uleb128 0xb
 1086 0166 3B       		.uleb128 0x3b
 1087 0167 0B       		.uleb128 0xb
 1088 0168 39       		.uleb128 0x39
 1089 0169 0B       		.uleb128 0xb
 1090 016a 27       		.uleb128 0x27
 1091 016b 19       		.uleb128 0x19
 1092 016c 11       		.uleb128 0x11
 1093 016d 01       		.uleb128 0x1
 1094 016e 12       		.uleb128 0x12
 1095 016f 06       		.uleb128 0x6
 1096 0170 40       		.uleb128 0x40
 1097 0171 18       		.uleb128 0x18
 1098 0172 7C       		.uleb128 0x7c
 1099 0173 19       		.uleb128 0x19
 1100 0174 01       		.uleb128 0x1
 1101 0175 13       		.uleb128 0x13
 1102 0176 00       		.byte	0
 1103 0177 00       		.byte	0
 1104 0178 1A       		.uleb128 0x1a
 1105 0179 2E       		.uleb128 0x2e
 1106 017a 01       		.byte	0x1
 1107 017b 03       		.uleb128 0x3
 1108 017c 0E       		.uleb128 0xe
 1109 017d 3A       		.uleb128 0x3a
 1110 017e 0B       		.uleb128 0xb
 1111 017f 3B       		.uleb128 0x3b
 1112 0180 0B       		.uleb128 0xb
 1113 0181 39       		.uleb128 0x39
 1114 0182 0B       		.uleb128 0xb
 1115 0183 27       		.uleb128 0x27
 1116 0184 19       		.uleb128 0x19
 1117 0185 11       		.uleb128 0x11
 1118 0186 01       		.uleb128 0x1
 1119 0187 12       		.uleb128 0x12
 1120 0188 06       		.uleb128 0x6
 1121 0189 40       		.uleb128 0x40
 1122 018a 18       		.uleb128 0x18
 1123 018b 7C       		.uleb128 0x7c
 1124 018c 19       		.uleb128 0x19
 1125 018d 01       		.uleb128 0x1
 1126 018e 13       		.uleb128 0x13
 1127 018f 00       		.byte	0
 1128 0190 00       		.byte	0
 1129 0191 1B       		.uleb128 0x1b
 1130 0192 2E       		.uleb128 0x2e
 1131 0193 01       		.byte	0x1
 1132 0194 03       		.uleb128 0x3
 1133 0195 0E       		.uleb128 0xe
 1134 0196 3A       		.uleb128 0x3a
 1135 0197 0B       		.uleb128 0xb
 1136 0198 3B       		.uleb128 0x3b
 1137 0199 05       		.uleb128 0x5
 1138 019a 39       		.uleb128 0x39
 1139 019b 0B       		.uleb128 0xb
ARM GAS  C:\Users\DEVELO~1\AppData\Local\Temp\ccSYtStj.s 			page 21


 1140 019c 27       		.uleb128 0x27
 1141 019d 19       		.uleb128 0x19
 1142 019e 11       		.uleb128 0x11
 1143 019f 01       		.uleb128 0x1
 1144 01a0 12       		.uleb128 0x12
 1145 01a1 06       		.uleb128 0x6
 1146 01a2 40       		.uleb128 0x40
 1147 01a3 18       		.uleb128 0x18
 1148 01a4 7C       		.uleb128 0x7c
 1149 01a5 19       		.uleb128 0x19
 1150 01a6 00       		.byte	0
 1151 01a7 00       		.byte	0
 1152 01a8 1C       		.uleb128 0x1c
 1153 01a9 05       		.uleb128 0x5
 1154 01aa 00       		.byte	0
 1155 01ab 03       		.uleb128 0x3
 1156 01ac 0E       		.uleb128 0xe
 1157 01ad 3A       		.uleb128 0x3a
 1158 01ae 0B       		.uleb128 0xb
 1159 01af 3B       		.uleb128 0x3b
 1160 01b0 05       		.uleb128 0x5
 1161 01b1 39       		.uleb128 0x39
 1162 01b2 0B       		.uleb128 0xb
 1163 01b3 49       		.uleb128 0x49
 1164 01b4 13       		.uleb128 0x13
 1165 01b5 02       		.uleb128 0x2
 1166 01b6 18       		.uleb128 0x18
 1167 01b7 00       		.byte	0
 1168 01b8 00       		.byte	0
 1169 01b9 00       		.byte	0
 1170              		.section	.debug_aranges,"",%progbits
 1171 0000 34000000 		.4byte	0x34
 1172 0004 0200     		.2byte	0x2
 1173 0006 00000000 		.4byte	.Ldebug_info0
 1174 000a 04       		.byte	0x4
 1175 000b 00       		.byte	0
 1176 000c 0000     		.2byte	0
 1177 000e 0000     		.2byte	0
 1178 0010 00000000 		.4byte	.LFB356
 1179 0014 16000000 		.4byte	.LFE356-.LFB356
 1180 0018 00000000 		.4byte	.LFB432
 1181 001c 98000000 		.4byte	.LFE432-.LFB432
 1182 0020 00000000 		.4byte	.LFB433
 1183 0024 50000000 		.4byte	.LFE433-.LFB433
 1184 0028 00000000 		.4byte	.LFB434
 1185 002c 2A000000 		.4byte	.LFE434-.LFB434
 1186 0030 00000000 		.4byte	0
 1187 0034 00000000 		.4byte	0
 1188              		.section	.debug_rnglists,"",%progbits
 1189              	.Ldebug_ranges0:
 1190 0000 22000000 		.4byte	.Ldebug_ranges3-.Ldebug_ranges2
 1191              	.Ldebug_ranges2:
 1192 0004 0500     		.2byte	0x5
 1193 0006 04       		.byte	0x4
 1194 0007 00       		.byte	0
 1195 0008 00000000 		.4byte	0
 1196              	.LLRL0:
ARM GAS  C:\Users\DEVELO~1\AppData\Local\Temp\ccSYtStj.s 			page 22


 1197 000c 07       		.byte	0x7
 1198 000d 00000000 		.4byte	.LFB356
 1199 0011 16       		.uleb128 .LFE356-.LFB356
 1200 0012 07       		.byte	0x7
 1201 0013 00000000 		.4byte	.LFB432
 1202 0017 9801     		.uleb128 .LFE432-.LFB432
 1203 0019 07       		.byte	0x7
 1204 001a 00000000 		.4byte	.LFB433
 1205 001e 50       		.uleb128 .LFE433-.LFB433
 1206 001f 07       		.byte	0x7
 1207 0020 00000000 		.4byte	.LFB434
 1208 0024 2A       		.uleb128 .LFE434-.LFB434
 1209 0025 00       		.byte	0
 1210              	.Ldebug_ranges3:
 1211              		.section	.debug_line,"",%progbits
 1212              	.Ldebug_line0:
 1213 0000 41030000 		.section	.debug_str,"MS",%progbits,1
 1213      03004802 
 1213      00000201 
 1213      FB0E0D00 
 1213      01010101 
 1214              	.LASF42:
 1215 0000 636F6D6D 		.ascii	"command_target\000"
 1215      616E645F 
 1215      74617267 
 1215      657400
 1216              	.LASF41:
 1217 000f 63666770 		.ascii	"cfgp\000"
 1217      00
 1218              	.LASF22:
 1219 0014 5344434D 		.ascii	"SDCMR\000"
 1219      5200
 1220              	.LASF31:
 1221 001a 73746174 		.ascii	"state\000"
 1221      6500
 1222              	.LASF24:
 1223 0020 53445352 		.ascii	"SDSR\000"
 1223      00
 1224              	.LASF25:
 1225 0025 46534D43 		.ascii	"FSMC_SDRAM_TypeDef\000"
 1225      5F534452 
 1225      414D5F54 
 1225      79706544 
 1225      656600
 1226              	.LASF15:
 1227 0038 464D435F 		.ascii	"FMC_Bank1_TypeDef\000"
 1227      42616E6B 
 1227      315F5479 
 1227      70654465 
 1227      6600
 1228              	.LASF12:
 1229 004a 706F7274 		.ascii	"port_rtcnt_t\000"
 1229      5F727463 
 1229      6E745F74 
 1229      00
 1230              	.LASF27:
 1231 0057 53445241 		.ascii	"SDRAM_STOP\000"
ARM GAS  C:\Users\DEVELO~1\AppData\Local\Temp\ccSYtStj.s 			page 23


 1231      4D5F5354 
 1231      4F5000
 1232              	.LASF30:
 1233 0062 53445241 		.ascii	"SDRAMDriver\000"
 1233      4D447269 
 1233      76657200 
 1234              	.LASF26:
 1235 006e 53445241 		.ascii	"SDRAM_UNINIT\000"
 1235      4D5F554E 
 1235      494E4954 
 1235      00
 1236              	.LASF9:
 1237 007b 6C6F6E67 		.ascii	"long long unsigned int\000"
 1237      206C6F6E 
 1237      6720756E 
 1237      7369676E 
 1237      65642069 
 1238              	.LASF4:
 1239 0092 756E7369 		.ascii	"unsigned char\000"
 1239      676E6564 
 1239      20636861 
 1239      7200
 1240              	.LASF20:
 1241 00a0 53445452 		.ascii	"SDTR1\000"
 1241      3100
 1242              	.LASF21:
 1243 00a6 53445452 		.ascii	"SDTR2\000"
 1243      3200
 1244              	.LASF8:
 1245 00ac 6C6F6E67 		.ascii	"long unsigned int\000"
 1245      20756E73 
 1245      69676E65 
 1245      6420696E 
 1245      7400
 1246              	.LASF49:
 1247 00be 73647261 		.ascii	"sdram_lld_init_sequence\000"
 1247      6D5F6C6C 
 1247      645F696E 
 1247      69745F73 
 1247      65717565 
 1248              	.LASF6:
 1249 00d6 73686F72 		.ascii	"short unsigned int\000"
 1249      7420756E 
 1249      7369676E 
 1249      65642069 
 1249      6E7400
 1250              	.LASF28:
 1251 00e9 53445241 		.ascii	"SDRAM_READY\000"
 1251      4D5F5245 
 1251      41445900 
 1252              	.LASF33:
 1253 00f5 73646372 		.ascii	"sdcr\000"
 1253      00
 1254              	.LASF48:
 1255 00fa 63685379 		.ascii	"chSysPolledDelayX\000"
 1255      73506F6C 
 1255      6C656444 
ARM GAS  C:\Users\DEVELO~1\AppData\Local\Temp\ccSYtStj.s 			page 24


 1255      656C6179 
 1255      5800
 1256              	.LASF47:
 1257 010c 53445241 		.ascii	"SDRAMD1\000"
 1257      4D443100 
 1258              	.LASF46:
 1259 0114 433A5C50 		.ascii	"C:\\PROJET\\ChibiOS project\\ChibiOS_21.11.4\\demos"
 1259      524F4A45 
 1259      545C4368 
 1259      6962694F 
 1259      53207072 
 1260 0143 5C53544D 		.ascii	"\\STM32\\RT-STM32H743ZI_REV_XY-NUCLEO144_Quartz8M\000"
 1260      33325C52 
 1260      542D5354 
 1260      4D333248 
 1260      3734335A 
 1261              	.LASF18:
 1262 0173 53444352 		.ascii	"SDCR1\000"
 1262      3100
 1263              	.LASF19:
 1264 0179 53444352 		.ascii	"SDCR2\000"
 1264      3200
 1265              	.LASF32:
 1266 017f 73647261 		.ascii	"sdram\000"
 1266      6D00
 1267              	.LASF10:
 1268 0185 5F5F7569 		.ascii	"__uint32_t\000"
 1268      6E743332 
 1268      5F7400
 1269              	.LASF44:
 1270 0190 474E5520 		.ascii	"GNU C17 11.3.1 20220712 -mcpu=cortex-m7 -mthumb -mf"
 1270      43313720 
 1270      31312E33 
 1270      2E312032 
 1270      30323230 
 1271 01c3 6C6F6174 		.ascii	"loat-abi=soft -march=armv7e-m -ggdb -O0 -ffunction-"
 1271      2D616269 
 1271      3D736F66 
 1271      74202D6D 
 1271      61726368 
 1272 01f6 73656374 		.ascii	"sections -fdata-sections -fno-common\000"
 1272      696F6E73 
 1272      202D6664 
 1272      6174612D 
 1272      73656374 
 1273              	.LASF34:
 1274 021b 73647472 		.ascii	"sdtr\000"
 1274      00
 1275              	.LASF23:
 1276 0220 53445254 		.ascii	"SDRTR\000"
 1276      5200
 1277              	.LASF29:
 1278 0226 73647261 		.ascii	"sdramstate_t\000"
 1278      6D737461 
 1278      74655F74 
 1278      00
 1279              	.LASF40:
ARM GAS  C:\Users\DEVELO~1\AppData\Local\Temp\ccSYtStj.s 			page 25


 1280 0233 73647261 		.ascii	"sdramp\000"
 1280      6D7000
 1281              	.LASF0:
 1282 023a 756E7369 		.ascii	"unsigned int\000"
 1282      676E6564 
 1282      20696E74 
 1282      00
 1283              	.LASF17:
 1284 0247 42544352 		.ascii	"BTCR\000"
 1284      00
 1285              	.LASF43:
 1286 024c 6379636C 		.ascii	"cycles\000"
 1286      657300
 1287              	.LASF38:
 1288 0253 73647261 		.ascii	"sdram_lld_stop\000"
 1288      6D5F6C6C 
 1288      645F7374 
 1288      6F7000
 1289              	.LASF36:
 1290 0262 73647274 		.ascii	"sdrtr\000"
 1290      7200
 1291              	.LASF13:
 1292 0268 7274636E 		.ascii	"rtcnt_t\000"
 1292      745F7400 
 1293              	.LASF45:
 1294 0270 2E2E2F2E 		.ascii	"../../../ChibiOS-Contrib-chibios-21.11.x/os/hal/por"
 1294      2E2F2E2E 
 1294      2F436869 
 1294      62694F53 
 1294      2D436F6E 
 1295 02a3 74732F53 		.ascii	"ts/STM32/LLD/FSMCv1/hal_sdram_lld.c\000"
 1295      544D3332 
 1295      2F4C4C44 
 1295      2F46534D 
 1295      4376312F 
 1296              	.LASF37:
 1297 02c7 53445241 		.ascii	"SDRAMConfig\000"
 1297      4D436F6E 
 1297      66696700 
 1298              	.LASF1:
 1299 02d3 6C6F6E67 		.ascii	"long long int\000"
 1299      206C6F6E 
 1299      6720696E 
 1299      7400
 1300              	.LASF39:
 1301 02e1 73647261 		.ascii	"sdram_lld_start\000"
 1301      6D5F6C6C 
 1301      645F7374 
 1301      61727400 
 1302              	.LASF14:
 1303 02f1 63686172 		.ascii	"char\000"
 1303      00
 1304              	.LASF35:
 1305 02f6 7364636D 		.ascii	"sdcmr\000"
 1305      7200
 1306              	.LASF5:
 1307 02fc 73686F72 		.ascii	"short int\000"
ARM GAS  C:\Users\DEVELO~1\AppData\Local\Temp\ccSYtStj.s 			page 26


 1307      7420696E 
 1307      7400
 1308              	.LASF50:
 1309 0306 6F73616C 		.ascii	"osalSysPolledDelayX\000"
 1309      53797350 
 1309      6F6C6C65 
 1309      6444656C 
 1309      61795800 
 1310              	.LASF11:
 1311 031a 75696E74 		.ascii	"uint32_t\000"
 1311      33325F74 
 1311      00
 1312              	.LASF7:
 1313 0323 6C6F6E67 		.ascii	"long int\000"
 1313      20696E74 
 1313      00
 1314              	.LASF2:
 1315 032c 6C6F6E67 		.ascii	"long double\000"
 1315      20646F75 
 1315      626C6500 
 1316              	.LASF3:
 1317 0338 7369676E 		.ascii	"signed char\000"
 1317      65642063 
 1317      68617200 
 1318              	.LASF16:
 1319 0344 5F426F6F 		.ascii	"_Bool\000"
 1319      6C00
 1320              		.ident	"GCC: (Arm GNU Toolchain 11.3.Rel1) 11.3.1 20220712"
ARM GAS  C:\Users\DEVELO~1\AppData\Local\Temp\ccSYtStj.s 			page 27


DEFINED SYMBOLS
                            *ABS*:00000000 hal_sdram_lld.c
C:\Users\DEVELO~1\AppData\Local\Temp\ccSYtStj.s:18     .text.osalSysPolledDelayX:00000000 $t
C:\Users\DEVELO~1\AppData\Local\Temp\ccSYtStj.s:23     .text.osalSysPolledDelayX:00000000 osalSysPolledDelayX
C:\Users\DEVELO~1\AppData\Local\Temp\ccSYtStj.s:58     .bss.SDRAMD1:00000000 SDRAMD1
C:\Users\DEVELO~1\AppData\Local\Temp\ccSYtStj.s:55     .bss.SDRAMD1:00000000 $d
C:\Users\DEVELO~1\AppData\Local\Temp\ccSYtStj.s:61     .text.sdram_lld_init_sequence:00000000 $t
C:\Users\DEVELO~1\AppData\Local\Temp\ccSYtStj.s:66     .text.sdram_lld_init_sequence:00000000 sdram_lld_init_sequence
C:\Users\DEVELO~1\AppData\Local\Temp\ccSYtStj.s:176    .text.sdram_lld_init_sequence:00000090 $d
C:\Users\DEVELO~1\AppData\Local\Temp\ccSYtStj.s:182    .text.sdram_lld_start:00000000 $t
C:\Users\DEVELO~1\AppData\Local\Temp\ccSYtStj.s:188    .text.sdram_lld_start:00000000 sdram_lld_start
C:\Users\DEVELO~1\AppData\Local\Temp\ccSYtStj.s:256    .text.sdram_lld_start:0000004c $d
C:\Users\DEVELO~1\AppData\Local\Temp\ccSYtStj.s:261    .text.sdram_lld_stop:00000000 $t
C:\Users\DEVELO~1\AppData\Local\Temp\ccSYtStj.s:267    .text.sdram_lld_stop:00000000 sdram_lld_stop

UNDEFINED SYMBOLS
chSysPolledDelayX
