ARM GAS  C:\Users\DEVELO~1\AppData\Local\Temp\cc4r91NU.s 			page 1


   1              		.cpu cortex-m7
   2              		.arch armv7e-m
   3              		.fpu softvfp
   4              		.eabi_attribute 20, 1
   5              		.eabi_attribute 21, 1
   6              		.eabi_attribute 23, 3
   7              		.eabi_attribute 24, 1
   8              		.eabi_attribute 25, 1
   9              		.eabi_attribute 26, 1
  10              		.eabi_attribute 30, 6
  11              		.eabi_attribute 34, 1
  12              		.eabi_attribute 18, 4
  13              		.file	"hal_usb_lld.c"
  14              		.text
  15              	.Ltext0:
  16              		.cfi_sections	.debug_frame
  17              		.section	.text.chSysLockFromISR,"ax",%progbits
  18              		.align	1
  19              		.syntax unified
  20              		.thumb
  21              		.thumb_func
  22              		.type	chSysLockFromISR, %function
  23              	chSysLockFromISR:
  24              	.LFB204:
  25              		.file 1 "../../../os/rt/include/chsys.h"
  26              		.loc 1 451 43
  27              		.cfi_startproc
  28              		@ args = 0, pretend = 0, frame = 8
  29              		@ frame_needed = 1, uses_anonymous_args = 0
  30              		@ link register save eliminated.
  31 0000 80B4     		push	{r7}
  32              		.cfi_def_cfa_offset 4
  33              		.cfi_offset 7, -4
  34 0002 83B0     		sub	sp, sp, #12
  35              		.cfi_def_cfa_offset 16
  36 0004 00AF     		add	r7, sp, #0
  37              		.cfi_def_cfa_register 7
  38 0006 3023     		movs	r3, #48
  39 0008 7B60     		str	r3, [r7, #4]
  40              	.LBB26:
  41              	.LBB27:
  42              	.LBB28:
  43              	.LBB29:
  44              	.LBB30:
  45              	.LBB31:
  46              		.file 2 "../../../os/common/ext/ARM/CMSIS/Core/Include/cmsis_gcc.h"
  47              		.loc 2 493 3
  48 000a 7B68     		ldr	r3, [r7, #4]
  49              		.syntax unified
  50              	@ 493 "../../../os/common/ext/ARM/CMSIS/Core/Include/cmsis_gcc.h" 1
  51 000c 83F31188 		MSR basepri, r3
  52              	@ 0 "" 2
  53              		.loc 2 494 1
  54              		.thumb
  55              		.syntax unified
  56 0010 00BF     		nop
  57              	.LBE31:
ARM GAS  C:\Users\DEVELO~1\AppData\Local\Temp\cc4r91NU.s 			page 2


  58              	.LBE30:
  59              		.file 3 "../../../os/common/ports/ARMv7-M/chcore.h"
  60              		.loc 3 840 1
  61 0012 00BF     		nop
  62              	.LBE29:
  63              	.LBE28:
  64              		.loc 3 865 1
  65 0014 00BF     		nop
  66              	.LBE27:
  67              	.LBE26:
  68              		.loc 1 456 1
  69 0016 00BF     		nop
  70 0018 0C37     		adds	r7, r7, #12
  71              		.cfi_def_cfa_offset 4
  72 001a BD46     		mov	sp, r7
  73              		.cfi_def_cfa_register 13
  74              		@ sp needed
  75 001c 80BC     		pop	{r7}
  76              		.cfi_restore 7
  77              		.cfi_def_cfa_offset 0
  78 001e 7047     		bx	lr
  79              		.cfi_endproc
  80              	.LFE204:
  81              		.size	chSysLockFromISR, .-chSysLockFromISR
  82              		.section	.text.chSysUnlockFromISR,"ax",%progbits
  83              		.align	1
  84              		.syntax unified
  85              		.thumb
  86              		.thumb_func
  87              		.type	chSysUnlockFromISR, %function
  88              	chSysUnlockFromISR:
  89              	.LFB205:
  90              		.loc 1 473 45
  91              		.cfi_startproc
  92              		@ args = 0, pretend = 0, frame = 8
  93              		@ frame_needed = 1, uses_anonymous_args = 0
  94              		@ link register save eliminated.
  95 0000 80B4     		push	{r7}
  96              		.cfi_def_cfa_offset 4
  97              		.cfi_offset 7, -4
  98 0002 83B0     		sub	sp, sp, #12
  99              		.cfi_def_cfa_offset 16
 100 0004 00AF     		add	r7, sp, #0
 101              		.cfi_def_cfa_register 7
 102 0006 0023     		movs	r3, #0
 103 0008 7B60     		str	r3, [r7, #4]
 104              	.LBB32:
 105              	.LBB33:
 106              	.LBB34:
 107              	.LBB35:
 108              	.LBB36:
 109              	.LBB37:
 110              		.loc 2 493 3
 111 000a 7B68     		ldr	r3, [r7, #4]
 112              		.syntax unified
 113              	@ 493 "../../../os/common/ext/ARM/CMSIS/Core/Include/cmsis_gcc.h" 1
 114 000c 83F31188 		MSR basepri, r3
ARM GAS  C:\Users\DEVELO~1\AppData\Local\Temp\cc4r91NU.s 			page 3


 115              	@ 0 "" 2
 116              		.loc 2 494 1
 117              		.thumb
 118              		.syntax unified
 119 0010 00BF     		nop
 120              	.LBE37:
 121              	.LBE36:
 122              		.loc 3 854 1
 123 0012 00BF     		nop
 124              	.LBE35:
 125              	.LBE34:
 126              		.loc 3 876 1
 127 0014 00BF     		nop
 128              	.LBE33:
 129              	.LBE32:
 130              		.loc 1 478 1
 131 0016 00BF     		nop
 132 0018 0C37     		adds	r7, r7, #12
 133              		.cfi_def_cfa_offset 4
 134 001a BD46     		mov	sp, r7
 135              		.cfi_def_cfa_register 13
 136              		@ sp needed
 137 001c 80BC     		pop	{r7}
 138              		.cfi_restore 7
 139              		.cfi_def_cfa_offset 0
 140 001e 7047     		bx	lr
 141              		.cfi_endproc
 142              	.LFE205:
 143              		.size	chSysUnlockFromISR, .-chSysUnlockFromISR
 144              		.section	.text.osalSysLockFromISR,"ax",%progbits
 145              		.align	1
 146              		.syntax unified
 147              		.thumb
 148              		.thumb_func
 149              		.type	osalSysLockFromISR, %function
 150              	osalSysLockFromISR:
 151              	.LFB352:
 152              		.file 4 "../../../os/hal/osal/rt-nil/osal.h"
 153              		.loc 4 595 45
 154              		.cfi_startproc
 155              		@ args = 0, pretend = 0, frame = 0
 156              		@ frame_needed = 1, uses_anonymous_args = 0
 157 0000 80B5     		push	{r7, lr}
 158              		.cfi_def_cfa_offset 8
 159              		.cfi_offset 7, -8
 160              		.cfi_offset 14, -4
 161 0002 00AF     		add	r7, sp, #0
 162              		.cfi_def_cfa_register 7
 163              		.loc 4 597 3
 164 0004 FFF7FEFF 		bl	chSysLockFromISR
 165              		.loc 4 598 1
 166 0008 00BF     		nop
 167 000a 80BD     		pop	{r7, pc}
 168              		.cfi_endproc
 169              	.LFE352:
 170              		.size	osalSysLockFromISR, .-osalSysLockFromISR
 171              		.section	.text.osalSysUnlockFromISR,"ax",%progbits
ARM GAS  C:\Users\DEVELO~1\AppData\Local\Temp\cc4r91NU.s 			page 4


 172              		.align	1
 173              		.syntax unified
 174              		.thumb
 175              		.thumb_func
 176              		.type	osalSysUnlockFromISR, %function
 177              	osalSysUnlockFromISR:
 178              	.LFB353:
 179              		.loc 4 606 47
 180              		.cfi_startproc
 181              		@ args = 0, pretend = 0, frame = 0
 182              		@ frame_needed = 1, uses_anonymous_args = 0
 183 0000 80B5     		push	{r7, lr}
 184              		.cfi_def_cfa_offset 8
 185              		.cfi_offset 7, -8
 186              		.cfi_offset 14, -4
 187 0002 00AF     		add	r7, sp, #0
 188              		.cfi_def_cfa_register 7
 189              		.loc 4 608 3
 190 0004 FFF7FEFF 		bl	chSysUnlockFromISR
 191              		.loc 4 609 1
 192 0008 00BF     		nop
 193 000a 80BD     		pop	{r7, pc}
 194              		.cfi_endproc
 195              	.LFE353:
 196              		.size	osalSysUnlockFromISR, .-osalSysUnlockFromISR
 197              		.section	.text.osalSysPolledDelayX,"ax",%progbits
 198              		.align	1
 199              		.syntax unified
 200              		.thumb
 201              		.thumb_func
 202              		.type	osalSysPolledDelayX, %function
 203              	osalSysPolledDelayX:
 204              	.LFB356:
 205              		.loc 4 653 56
 206              		.cfi_startproc
 207              		@ args = 0, pretend = 0, frame = 8
 208              		@ frame_needed = 1, uses_anonymous_args = 0
 209 0000 80B5     		push	{r7, lr}
 210              		.cfi_def_cfa_offset 8
 211              		.cfi_offset 7, -8
 212              		.cfi_offset 14, -4
 213 0002 82B0     		sub	sp, sp, #8
 214              		.cfi_def_cfa_offset 16
 215 0004 00AF     		add	r7, sp, #0
 216              		.cfi_def_cfa_register 7
 217 0006 7860     		str	r0, [r7, #4]
 218              		.loc 4 655 3
 219 0008 7868     		ldr	r0, [r7, #4]
 220 000a FFF7FEFF 		bl	chSysPolledDelayX
 221              		.loc 4 656 1
 222 000e 00BF     		nop
 223 0010 0837     		adds	r7, r7, #8
 224              		.cfi_def_cfa_offset 8
 225 0012 BD46     		mov	sp, r7
 226              		.cfi_def_cfa_register 13
 227              		@ sp needed
 228 0014 80BD     		pop	{r7, pc}
ARM GAS  C:\Users\DEVELO~1\AppData\Local\Temp\cc4r91NU.s 			page 5


 229              		.cfi_endproc
 230              	.LFE356:
 231              		.size	osalSysPolledDelayX, .-osalSysPolledDelayX
 232              		.section	.text.__rccResetAHB1,"ax",%progbits
 233              		.align	1
 234              		.syntax unified
 235              		.thumb
 236              		.thumb_func
 237              		.type	__rccResetAHB1, %function
 238              	__rccResetAHB1:
 239              	.LFB384:
 240              		.file 5 "../../../os/hal/ports/STM32/STM32H7xx/stm32_rcc.h"
 241              		.loc 5 97 52
 242              		.cfi_startproc
 243              		@ args = 0, pretend = 0, frame = 8
 244              		@ frame_needed = 1, uses_anonymous_args = 0
 245              		@ link register save eliminated.
 246 0000 80B4     		push	{r7}
 247              		.cfi_def_cfa_offset 4
 248              		.cfi_offset 7, -4
 249 0002 83B0     		sub	sp, sp, #12
 250              		.cfi_def_cfa_offset 16
 251 0004 00AF     		add	r7, sp, #0
 252              		.cfi_def_cfa_register 7
 253 0006 7860     		str	r0, [r7, #4]
 254              		.loc 5 100 17
 255 0008 0C4B     		ldr	r3, .L7
 256 000a D3F88020 		ldr	r2, [r3, #128]
 257 000e 0B49     		ldr	r1, .L7
 258 0010 7B68     		ldr	r3, [r7, #4]
 259 0012 1343     		orrs	r3, r3, r2
 260 0014 C1F88030 		str	r3, [r1, #128]
 261              		.loc 5 101 17
 262 0018 084B     		ldr	r3, .L7
 263 001a D3F88020 		ldr	r2, [r3, #128]
 264              		.loc 5 101 20
 265 001e 7B68     		ldr	r3, [r7, #4]
 266 0020 DB43     		mvns	r3, r3
 267              		.loc 5 101 17
 268 0022 0649     		ldr	r1, .L7
 269 0024 1340     		ands	r3, r3, r2
 270 0026 C1F88030 		str	r3, [r1, #128]
 271              		.loc 5 102 12
 272 002a 044B     		ldr	r3, .L7
 273              		.loc 5 102 3
 274 002c D3F88030 		ldr	r3, [r3, #128]
 275              		.loc 5 103 1
 276 0030 00BF     		nop
 277 0032 0C37     		adds	r7, r7, #12
 278              		.cfi_def_cfa_offset 4
 279 0034 BD46     		mov	sp, r7
 280              		.cfi_def_cfa_register 13
 281              		@ sp needed
 282 0036 80BC     		pop	{r7}
 283              		.cfi_restore 7
 284              		.cfi_def_cfa_offset 0
 285 0038 7047     		bx	lr
ARM GAS  C:\Users\DEVELO~1\AppData\Local\Temp\cc4r91NU.s 			page 6


 286              	.L8:
 287 003a 00BF     		.align	2
 288              	.L7:
 289 003c 00440258 		.word	1476543488
 290              		.cfi_endproc
 291              	.LFE384:
 292              		.size	__rccResetAHB1, .-__rccResetAHB1
 293              		.section	.text.rccEnableAHB1,"ax",%progbits
 294              		.align	1
 295              		.syntax unified
 296              		.thumb
 297              		.thumb_func
 298              		.type	rccEnableAHB1, %function
 299              	rccEnableAHB1:
 300              	.LFB403:
 301              		.loc 5 586 60
 302              		.cfi_startproc
 303              		@ args = 0, pretend = 0, frame = 8
 304              		@ frame_needed = 1, uses_anonymous_args = 0
 305              		@ link register save eliminated.
 306 0000 80B4     		push	{r7}
 307              		.cfi_def_cfa_offset 4
 308              		.cfi_offset 7, -4
 309 0002 83B0     		sub	sp, sp, #12
 310              		.cfi_def_cfa_offset 16
 311 0004 00AF     		add	r7, sp, #0
 312              		.cfi_def_cfa_register 7
 313 0006 7860     		str	r0, [r7, #4]
 314 0008 0B46     		mov	r3, r1
 315 000a FB70     		strb	r3, [r7, #3]
 316              		.loc 5 590 19
 317 000c 124B     		ldr	r3, .L12
 318 000e D3F8D820 		ldr	r2, [r3, #216]
 319 0012 1149     		ldr	r1, .L12
 320 0014 7B68     		ldr	r3, [r7, #4]
 321 0016 1343     		orrs	r3, r3, r2
 322 0018 C1F8D830 		str	r3, [r1, #216]
 323              		.loc 5 591 6
 324 001c FB78     		ldrb	r3, [r7, #3]	@ zero_extendqisi2
 325 001e 002B     		cmp	r3, #0
 326 0020 08D0     		beq	.L10
 327              		.loc 5 592 23
 328 0022 0D4B     		ldr	r3, .L12
 329 0024 D3F80021 		ldr	r2, [r3, #256]
 330 0028 0B49     		ldr	r1, .L12
 331 002a 7B68     		ldr	r3, [r7, #4]
 332 002c 1343     		orrs	r3, r3, r2
 333 002e C1F80031 		str	r3, [r1, #256]
 334 0032 08E0     		b	.L11
 335              	.L10:
 336              		.loc 5 595 23
 337 0034 084B     		ldr	r3, .L12
 338 0036 D3F80021 		ldr	r2, [r3, #256]
 339              		.loc 5 595 26
 340 003a 7B68     		ldr	r3, [r7, #4]
 341 003c DB43     		mvns	r3, r3
 342              		.loc 5 595 23
ARM GAS  C:\Users\DEVELO~1\AppData\Local\Temp\cc4r91NU.s 			page 7


 343 003e 0649     		ldr	r1, .L12
 344 0040 1340     		ands	r3, r3, r2
 345 0042 C1F80031 		str	r3, [r1, #256]
 346              	.L11:
 347              		.loc 5 597 15
 348 0046 044B     		ldr	r3, .L12
 349              		.loc 5 597 3
 350 0048 D3F80031 		ldr	r3, [r3, #256]
 351              		.loc 5 609 1
 352 004c 00BF     		nop
 353 004e 0C37     		adds	r7, r7, #12
 354              		.cfi_def_cfa_offset 4
 355 0050 BD46     		mov	sp, r7
 356              		.cfi_def_cfa_register 13
 357              		@ sp needed
 358 0052 80BC     		pop	{r7}
 359              		.cfi_restore 7
 360              		.cfi_def_cfa_offset 0
 361 0054 7047     		bx	lr
 362              	.L13:
 363 0056 00BF     		.align	2
 364              	.L12:
 365 0058 00440258 		.word	1476543488
 366              		.cfi_endproc
 367              	.LFE403:
 368              		.size	rccEnableAHB1, .-rccEnableAHB1
 369              		.section	.text.rccDisableAHB1,"ax",%progbits
 370              		.align	1
 371              		.syntax unified
 372              		.thumb
 373              		.thumb_func
 374              		.type	rccDisableAHB1, %function
 375              	rccDisableAHB1:
 376              	.LFB404:
 377              		.loc 5 618 52
 378              		.cfi_startproc
 379              		@ args = 0, pretend = 0, frame = 8
 380              		@ frame_needed = 1, uses_anonymous_args = 0
 381              		@ link register save eliminated.
 382 0000 80B4     		push	{r7}
 383              		.cfi_def_cfa_offset 4
 384              		.cfi_offset 7, -4
 385 0002 83B0     		sub	sp, sp, #12
 386              		.cfi_def_cfa_offset 16
 387 0004 00AF     		add	r7, sp, #0
 388              		.cfi_def_cfa_register 7
 389 0006 7860     		str	r0, [r7, #4]
 390              		.loc 5 628 19
 391 0008 0C4B     		ldr	r3, .L15
 392 000a D3F8D820 		ldr	r2, [r3, #216]
 393              		.loc 5 628 22
 394 000e 7B68     		ldr	r3, [r7, #4]
 395 0010 DB43     		mvns	r3, r3
 396              		.loc 5 628 19
 397 0012 0A49     		ldr	r1, .L15
 398 0014 1340     		ands	r3, r3, r2
 399 0016 C1F8D830 		str	r3, [r1, #216]
ARM GAS  C:\Users\DEVELO~1\AppData\Local\Temp\cc4r91NU.s 			page 8


 400              		.loc 5 629 21
 401 001a 084B     		ldr	r3, .L15
 402 001c D3F80021 		ldr	r2, [r3, #256]
 403              		.loc 5 629 24
 404 0020 7B68     		ldr	r3, [r7, #4]
 405 0022 DB43     		mvns	r3, r3
 406              		.loc 5 629 21
 407 0024 0549     		ldr	r1, .L15
 408 0026 1340     		ands	r3, r3, r2
 409 0028 C1F80031 		str	r3, [r1, #256]
 410              		.loc 5 630 15
 411 002c 034B     		ldr	r3, .L15
 412              		.loc 5 630 3
 413 002e D3F80031 		ldr	r3, [r3, #256]
 414              		.loc 5 643 1
 415 0032 00BF     		nop
 416 0034 0C37     		adds	r7, r7, #12
 417              		.cfi_def_cfa_offset 4
 418 0036 BD46     		mov	sp, r7
 419              		.cfi_def_cfa_register 13
 420              		@ sp needed
 421 0038 80BC     		pop	{r7}
 422              		.cfi_restore 7
 423              		.cfi_def_cfa_offset 0
 424 003a 7047     		bx	lr
 425              	.L16:
 426              		.align	2
 427              	.L15:
 428 003c 00440258 		.word	1476543488
 429              		.cfi_endproc
 430              	.LFE404:
 431              		.size	rccDisableAHB1, .-rccDisableAHB1
 432              		.section	.text.rccResetAHB1,"ax",%progbits
 433              		.align	1
 434              		.syntax unified
 435              		.thumb
 436              		.thumb_func
 437              		.type	rccResetAHB1, %function
 438              	rccResetAHB1:
 439              	.LFB405:
 440              		.loc 5 652 50
 441              		.cfi_startproc
 442              		@ args = 0, pretend = 0, frame = 8
 443              		@ frame_needed = 1, uses_anonymous_args = 0
 444 0000 80B5     		push	{r7, lr}
 445              		.cfi_def_cfa_offset 8
 446              		.cfi_offset 7, -8
 447              		.cfi_offset 14, -4
 448 0002 82B0     		sub	sp, sp, #8
 449              		.cfi_def_cfa_offset 16
 450 0004 00AF     		add	r7, sp, #0
 451              		.cfi_def_cfa_register 7
 452 0006 7860     		str	r0, [r7, #4]
 453              		.loc 5 664 3
 454 0008 7868     		ldr	r0, [r7, #4]
 455 000a FFF7FEFF 		bl	__rccResetAHB1
 456              		.loc 5 665 1
ARM GAS  C:\Users\DEVELO~1\AppData\Local\Temp\cc4r91NU.s 			page 9


 457 000e 00BF     		nop
 458 0010 0837     		adds	r7, r7, #8
 459              		.cfi_def_cfa_offset 8
 460 0012 BD46     		mov	sp, r7
 461              		.cfi_def_cfa_register 13
 462              		@ sp needed
 463 0014 80BD     		pop	{r7, pc}
 464              		.cfi_endproc
 465              	.LFE405:
 466              		.size	rccResetAHB1, .-rccResetAHB1
 467              		.global	USBD1
 468              		.section	.bss.USBD1,"aw",%nobits
 469              		.align	2
 470              		.type	USBD1, %object
 471              		.size	USBD1, 156
 472              	USBD1:
 473 0000 00000000 		.space	156
 473      00000000 
 473      00000000 
 473      00000000 
 473      00000000 
 474              		.section	.bss.ep0_state,"aw",%nobits
 475              		.align	2
 476              		.type	ep0_state, %object
 477              		.size	ep0_state, 16
 478              	ep0_state:
 479 0000 00000000 		.space	16
 479      00000000 
 479      00000000 
 479      00000000 
 480              		.section	.bss.ep0setup_buffer,"aw",%nobits
 481              		.align	2
 482              		.type	ep0setup_buffer, %object
 483              		.size	ep0setup_buffer, 8
 484              	ep0setup_buffer:
 485 0000 00000000 		.space	8
 485      00000000 
 486              		.section	.rodata.ep0config,"a"
 487              		.align	2
 488              		.type	ep0config, %object
 489              		.size	ep0config, 36
 490              	ep0config:
 491 0000 00000000 		.word	0
 492 0004 00000000 		.word	_usb_ep0setup
 493 0008 00000000 		.word	_usb_ep0in
 494 000c 00000000 		.word	_usb_ep0out
 495 0010 4000     		.short	64
 496 0012 4000     		.short	64
 497 0014 00000000 		.word	ep0_state
 498 0018 00000000 		.word	ep0_state
 499 001c 0100     		.short	1
 500 001e 0000     		.space	2
 501 0020 00000000 		.word	ep0setup_buffer
 502              		.section	.rodata.fsparams,"a"
 503              		.align	2
 504              		.type	fsparams, %object
 505              		.size	fsparams, 12
ARM GAS  C:\Users\DEVELO~1\AppData\Local\Temp\cc4r91NU.s 			page 10


 506              	fsparams:
 507 0000 80000000 		.word	128
 508 0004 40010000 		.word	320
 509 0008 08000000 		.word	8
 510              		.section	.text.otg_core_reset,"ax",%progbits
 511              		.align	1
 512              		.syntax unified
 513              		.thumb
 514              		.thumb_func
 515              		.type	otg_core_reset, %function
 516              	otg_core_reset:
 517              	.LFB432:
 518              		.file 6 "../../../os/hal/ports/STM32/LLD/OTGv1/hal_usb_lld.c"
 519              		.loc 6 148 45
 520              		.cfi_startproc
 521              		@ args = 0, pretend = 0, frame = 16
 522              		@ frame_needed = 1, uses_anonymous_args = 0
 523 0000 80B5     		push	{r7, lr}
 524              		.cfi_def_cfa_offset 8
 525              		.cfi_offset 7, -8
 526              		.cfi_offset 14, -4
 527 0002 84B0     		sub	sp, sp, #16
 528              		.cfi_def_cfa_offset 24
 529 0004 00AF     		add	r7, sp, #0
 530              		.cfi_def_cfa_register 7
 531 0006 7860     		str	r0, [r7, #4]
 532              		.loc 6 149 16
 533 0008 7B68     		ldr	r3, [r7, #4]
 534 000a D3F89030 		ldr	r3, [r3, #144]
 535 000e FB60     		str	r3, [r7, #12]
 536              		.loc 6 152 9
 537 0010 00BF     		nop
 538              	.L19:
 539              		.loc 6 152 15 discriminator 1
 540 0012 FB68     		ldr	r3, [r7, #12]
 541 0014 1B69     		ldr	r3, [r3, #16]
 542              		.loc 6 152 43 discriminator 1
 543 0016 002B     		cmp	r3, #0
 544 0018 FBDA     		bge	.L19
 545              		.loc 6 156 17
 546 001a FB68     		ldr	r3, [r7, #12]
 547 001c 0122     		movs	r2, #1
 548 001e 1A61     		str	r2, [r3, #16]
 549              		.loc 6 157 3
 550 0020 0C20     		movs	r0, #12
 551 0022 FFF7FEFF 		bl	osalSysPolledDelayX
 552              		.loc 6 158 9
 553 0026 00BF     		nop
 554              	.L20:
 555              		.loc 6 158 15 discriminator 1
 556 0028 FB68     		ldr	r3, [r7, #12]
 557 002a 1B69     		ldr	r3, [r3, #16]
 558              		.loc 6 158 25 discriminator 1
 559 002c 03F00103 		and	r3, r3, #1
 560              		.loc 6 158 42 discriminator 1
 561 0030 002B     		cmp	r3, #0
 562 0032 F9D1     		bne	.L20
ARM GAS  C:\Users\DEVELO~1\AppData\Local\Temp\cc4r91NU.s 			page 11


 563              		.loc 6 161 3
 564 0034 1220     		movs	r0, #18
 565 0036 FFF7FEFF 		bl	osalSysPolledDelayX
 566              		.loc 6 164 9
 567 003a 00BF     		nop
 568              	.L21:
 569              		.loc 6 164 15 discriminator 1
 570 003c FB68     		ldr	r3, [r7, #12]
 571 003e 1B69     		ldr	r3, [r3, #16]
 572              		.loc 6 164 43 discriminator 1
 573 0040 002B     		cmp	r3, #0
 574 0042 FBDA     		bge	.L21
 575              		.loc 6 166 1
 576 0044 00BF     		nop
 577 0046 00BF     		nop
 578 0048 1037     		adds	r7, r7, #16
 579              		.cfi_def_cfa_offset 8
 580 004a BD46     		mov	sp, r7
 581              		.cfi_def_cfa_register 13
 582              		@ sp needed
 583 004c 80BD     		pop	{r7, pc}
 584              		.cfi_endproc
 585              	.LFE432:
 586              		.size	otg_core_reset, .-otg_core_reset
 587              		.section	.text.otg_disable_ep,"ax",%progbits
 588              		.align	1
 589              		.syntax unified
 590              		.thumb
 591              		.thumb_func
 592              		.type	otg_disable_ep, %function
 593              	otg_disable_ep:
 594              	.LFB433:
 595              		.loc 6 168 45
 596              		.cfi_startproc
 597              		@ args = 0, pretend = 0, frame = 16
 598              		@ frame_needed = 1, uses_anonymous_args = 0
 599              		@ link register save eliminated.
 600 0000 80B4     		push	{r7}
 601              		.cfi_def_cfa_offset 4
 602              		.cfi_offset 7, -4
 603 0002 85B0     		sub	sp, sp, #20
 604              		.cfi_def_cfa_offset 24
 605 0004 00AF     		add	r7, sp, #0
 606              		.cfi_def_cfa_register 7
 607 0006 7860     		str	r0, [r7, #4]
 608              		.loc 6 169 16
 609 0008 7B68     		ldr	r3, [r7, #4]
 610 000a D3F89030 		ldr	r3, [r3, #144]
 611 000e BB60     		str	r3, [r7, #8]
 612              		.loc 6 172 10
 613 0010 0023     		movs	r3, #0
 614 0012 FB60     		str	r3, [r7, #12]
 615              		.loc 6 172 3
 616 0014 40E0     		b	.L23
 617              	.L26:
 618              		.loc 6 174 21
 619 0016 BA68     		ldr	r2, [r7, #8]
ARM GAS  C:\Users\DEVELO~1\AppData\Local\Temp\cc4r91NU.s 			page 12


 620 0018 FB68     		ldr	r3, [r7, #12]
 621 001a 4833     		adds	r3, r3, #72
 622 001c 5B01     		lsls	r3, r3, #5
 623 001e 1344     		add	r3, r3, r2
 624 0020 1B68     		ldr	r3, [r3]
 625              		.loc 6 174 8
 626 0022 002B     		cmp	r3, #0
 627 0024 0DDA     		bge	.L24
 628              		.loc 6 175 27
 629 0026 BA68     		ldr	r2, [r7, #8]
 630 0028 FB68     		ldr	r3, [r7, #12]
 631 002a 4833     		adds	r3, r3, #72
 632 002c 5B01     		lsls	r3, r3, #5
 633 002e 1344     		add	r3, r3, r2
 634 0030 1B68     		ldr	r3, [r3]
 635 0032 43F08042 		orr	r2, r3, #1073741824
 636 0036 B968     		ldr	r1, [r7, #8]
 637 0038 FB68     		ldr	r3, [r7, #12]
 638 003a 4833     		adds	r3, r3, #72
 639 003c 5B01     		lsls	r3, r3, #5
 640 003e 0B44     		add	r3, r3, r1
 641 0040 1A60     		str	r2, [r3]
 642              	.L24:
 643              		.loc 6 178 21
 644 0042 BA68     		ldr	r2, [r7, #8]
 645 0044 FB68     		ldr	r3, [r7, #12]
 646 0046 5833     		adds	r3, r3, #88
 647 0048 5B01     		lsls	r3, r3, #5
 648 004a 1344     		add	r3, r3, r2
 649 004c 1B68     		ldr	r3, [r3]
 650              		.loc 6 178 8
 651 004e 002B     		cmp	r3, #0
 652 0050 0DDA     		bge	.L25
 653              		.loc 6 179 27
 654 0052 BA68     		ldr	r2, [r7, #8]
 655 0054 FB68     		ldr	r3, [r7, #12]
 656 0056 5833     		adds	r3, r3, #88
 657 0058 5B01     		lsls	r3, r3, #5
 658 005a 1344     		add	r3, r3, r2
 659 005c 1B68     		ldr	r3, [r3]
 660 005e 43F08042 		orr	r2, r3, #1073741824
 661 0062 B968     		ldr	r1, [r7, #8]
 662 0064 FB68     		ldr	r3, [r7, #12]
 663 0066 5833     		adds	r3, r3, #88
 664 0068 5B01     		lsls	r3, r3, #5
 665 006a 0B44     		add	r3, r3, r1
 666 006c 1A60     		str	r2, [r3]
 667              	.L25:
 668              		.loc 6 182 25 discriminator 2
 669 006e BA68     		ldr	r2, [r7, #8]
 670 0070 FB68     		ldr	r3, [r7, #12]
 671 0072 5B01     		lsls	r3, r3, #5
 672 0074 1344     		add	r3, r3, r2
 673 0076 03F60813 		addw	r3, r3, #2312
 674 007a 4FF0FF32 		mov	r2, #-1
 675 007e 1A60     		str	r2, [r3]
 676              		.loc 6 183 25 discriminator 2
ARM GAS  C:\Users\DEVELO~1\AppData\Local\Temp\cc4r91NU.s 			page 13


 677 0080 BA68     		ldr	r2, [r7, #8]
 678 0082 FB68     		ldr	r3, [r7, #12]
 679 0084 5B01     		lsls	r3, r3, #5
 680 0086 1344     		add	r3, r3, r2
 681 0088 03F60833 		addw	r3, r3, #2824
 682 008c 4FF0FF32 		mov	r2, #-1
 683 0090 1A60     		str	r2, [r3]
 684              		.loc 6 172 53 discriminator 2
 685 0092 FB68     		ldr	r3, [r7, #12]
 686 0094 0133     		adds	r3, r3, #1
 687 0096 FB60     		str	r3, [r7, #12]
 688              	.L23:
 689              		.loc 6 172 24 discriminator 1
 690 0098 7B68     		ldr	r3, [r7, #4]
 691 009a D3F89430 		ldr	r3, [r3, #148]
 692              		.loc 6 172 35 discriminator 1
 693 009e 9B68     		ldr	r3, [r3, #8]
 694              		.loc 6 172 17 discriminator 1
 695 00a0 FA68     		ldr	r2, [r7, #12]
 696 00a2 9A42     		cmp	r2, r3
 697 00a4 B7D9     		bls	.L26
 698              		.loc 6 185 18
 699 00a6 BB68     		ldr	r3, [r7, #8]
 700 00a8 4FF00112 		mov	r2, #65537
 701 00ac C3F81C28 		str	r2, [r3, #2076]
 702              		.loc 6 186 1
 703 00b0 00BF     		nop
 704 00b2 1437     		adds	r7, r7, #20
 705              		.cfi_def_cfa_offset 4
 706 00b4 BD46     		mov	sp, r7
 707              		.cfi_def_cfa_register 13
 708              		@ sp needed
 709 00b6 80BC     		pop	{r7}
 710              		.cfi_restore 7
 711              		.cfi_def_cfa_offset 0
 712 00b8 7047     		bx	lr
 713              		.cfi_endproc
 714              	.LFE433:
 715              		.size	otg_disable_ep, .-otg_disable_ep
 716              		.section	.text.otg_enable_ep,"ax",%progbits
 717              		.align	1
 718              		.syntax unified
 719              		.thumb
 720              		.thumb_func
 721              		.type	otg_enable_ep, %function
 722              	otg_enable_ep:
 723              	.LFB434:
 724              		.loc 6 188 44
 725              		.cfi_startproc
 726              		@ args = 0, pretend = 0, frame = 16
 727              		@ frame_needed = 1, uses_anonymous_args = 0
 728              		@ link register save eliminated.
 729 0000 80B4     		push	{r7}
 730              		.cfi_def_cfa_offset 4
 731              		.cfi_offset 7, -4
 732 0002 85B0     		sub	sp, sp, #20
 733              		.cfi_def_cfa_offset 24
ARM GAS  C:\Users\DEVELO~1\AppData\Local\Temp\cc4r91NU.s 			page 14


 734 0004 00AF     		add	r7, sp, #0
 735              		.cfi_def_cfa_register 7
 736 0006 7860     		str	r0, [r7, #4]
 737              		.loc 6 189 16
 738 0008 7B68     		ldr	r3, [r7, #4]
 739 000a D3F89030 		ldr	r3, [r3, #144]
 740 000e BB60     		str	r3, [r7, #8]
 741              		.loc 6 192 10
 742 0010 0023     		movs	r3, #0
 743 0012 FB60     		str	r3, [r7, #12]
 744              		.loc 6 192 3
 745 0014 2BE0     		b	.L28
 746              	.L31:
 747              		.loc 6 193 18
 748 0016 7A68     		ldr	r2, [r7, #4]
 749 0018 FB68     		ldr	r3, [r7, #12]
 750 001a 0233     		adds	r3, r3, #2
 751 001c 9B00     		lsls	r3, r3, #2
 752 001e 1344     		add	r3, r3, r2
 753 0020 5B68     		ldr	r3, [r3, #4]
 754              		.loc 6 193 21
 755 0022 9B69     		ldr	r3, [r3, #24]
 756              		.loc 6 193 8
 757 0024 002B     		cmp	r3, #0
 758 0026 0BD0     		beq	.L29
 759              		.loc 6 194 22
 760 0028 BB68     		ldr	r3, [r7, #8]
 761 002a D3F81C28 		ldr	r2, [r3, #2076]
 762              		.loc 6 194 25
 763 002e FB68     		ldr	r3, [r7, #12]
 764 0030 1033     		adds	r3, r3, #16
 765 0032 0121     		movs	r1, #1
 766 0034 01FA03F3 		lsl	r3, r1, r3
 767              		.loc 6 194 22
 768 0038 1A43     		orrs	r2, r2, r3
 769 003a BB68     		ldr	r3, [r7, #8]
 770 003c C3F81C28 		str	r2, [r3, #2076]
 771              	.L29:
 772              		.loc 6 196 18
 773 0040 7A68     		ldr	r2, [r7, #4]
 774 0042 FB68     		ldr	r3, [r7, #12]
 775 0044 0233     		adds	r3, r3, #2
 776 0046 9B00     		lsls	r3, r3, #2
 777 0048 1344     		add	r3, r3, r2
 778 004a 5B68     		ldr	r3, [r3, #4]
 779              		.loc 6 196 21
 780 004c 5B69     		ldr	r3, [r3, #20]
 781              		.loc 6 196 8
 782 004e 002B     		cmp	r3, #0
 783 0050 0AD0     		beq	.L30
 784              		.loc 6 197 22
 785 0052 BB68     		ldr	r3, [r7, #8]
 786 0054 D3F81C28 		ldr	r2, [r3, #2076]
 787              		.loc 6 197 25
 788 0058 0121     		movs	r1, #1
 789 005a FB68     		ldr	r3, [r7, #12]
 790 005c 01FA03F3 		lsl	r3, r1, r3
ARM GAS  C:\Users\DEVELO~1\AppData\Local\Temp\cc4r91NU.s 			page 15


 791              		.loc 6 197 22
 792 0060 1A43     		orrs	r2, r2, r3
 793 0062 BB68     		ldr	r3, [r7, #8]
 794 0064 C3F81C28 		str	r2, [r3, #2076]
 795              	.L30:
 796              		.loc 6 192 53 discriminator 2
 797 0068 FB68     		ldr	r3, [r7, #12]
 798 006a 0133     		adds	r3, r3, #1
 799 006c FB60     		str	r3, [r7, #12]
 800              	.L28:
 801              		.loc 6 192 24 discriminator 1
 802 006e 7B68     		ldr	r3, [r7, #4]
 803 0070 D3F89430 		ldr	r3, [r3, #148]
 804              		.loc 6 192 35 discriminator 1
 805 0074 9B68     		ldr	r3, [r3, #8]
 806              		.loc 6 192 17 discriminator 1
 807 0076 FA68     		ldr	r2, [r7, #12]
 808 0078 9A42     		cmp	r2, r3
 809 007a CCD9     		bls	.L31
 810              		.loc 6 200 1
 811 007c 00BF     		nop
 812 007e 00BF     		nop
 813 0080 1437     		adds	r7, r7, #20
 814              		.cfi_def_cfa_offset 4
 815 0082 BD46     		mov	sp, r7
 816              		.cfi_def_cfa_register 13
 817              		@ sp needed
 818 0084 80BC     		pop	{r7}
 819              		.cfi_restore 7
 820              		.cfi_def_cfa_offset 0
 821 0086 7047     		bx	lr
 822              		.cfi_endproc
 823              	.LFE434:
 824              		.size	otg_enable_ep, .-otg_enable_ep
 825              		.section	.text.otg_rxfifo_flush,"ax",%progbits
 826              		.align	1
 827              		.syntax unified
 828              		.thumb
 829              		.thumb_func
 830              		.type	otg_rxfifo_flush, %function
 831              	otg_rxfifo_flush:
 832              	.LFB435:
 833              		.loc 6 202 47
 834              		.cfi_startproc
 835              		@ args = 0, pretend = 0, frame = 16
 836              		@ frame_needed = 1, uses_anonymous_args = 0
 837 0000 80B5     		push	{r7, lr}
 838              		.cfi_def_cfa_offset 8
 839              		.cfi_offset 7, -8
 840              		.cfi_offset 14, -4
 841 0002 84B0     		sub	sp, sp, #16
 842              		.cfi_def_cfa_offset 24
 843 0004 00AF     		add	r7, sp, #0
 844              		.cfi_def_cfa_register 7
 845 0006 7860     		str	r0, [r7, #4]
 846              		.loc 6 203 16
 847 0008 7B68     		ldr	r3, [r7, #4]
ARM GAS  C:\Users\DEVELO~1\AppData\Local\Temp\cc4r91NU.s 			page 16


 848 000a D3F89030 		ldr	r3, [r3, #144]
 849 000e FB60     		str	r3, [r7, #12]
 850              		.loc 6 205 17
 851 0010 FB68     		ldr	r3, [r7, #12]
 852 0012 1022     		movs	r2, #16
 853 0014 1A61     		str	r2, [r3, #16]
 854              		.loc 6 206 9
 855 0016 00BF     		nop
 856              	.L33:
 857              		.loc 6 206 15 discriminator 1
 858 0018 FB68     		ldr	r3, [r7, #12]
 859 001a 1B69     		ldr	r3, [r3, #16]
 860              		.loc 6 206 25 discriminator 1
 861 001c 03F01003 		and	r3, r3, #16
 862              		.loc 6 206 44 discriminator 1
 863 0020 002B     		cmp	r3, #0
 864 0022 F9D1     		bne	.L33
 865              		.loc 6 209 3
 866 0024 1220     		movs	r0, #18
 867 0026 FFF7FEFF 		bl	osalSysPolledDelayX
 868              		.loc 6 210 1
 869 002a 00BF     		nop
 870 002c 1037     		adds	r7, r7, #16
 871              		.cfi_def_cfa_offset 8
 872 002e BD46     		mov	sp, r7
 873              		.cfi_def_cfa_register 13
 874              		@ sp needed
 875 0030 80BD     		pop	{r7, pc}
 876              		.cfi_endproc
 877              	.LFE435:
 878              		.size	otg_rxfifo_flush, .-otg_rxfifo_flush
 879              		.section	.text.otg_txfifo_flush,"ax",%progbits
 880              		.align	1
 881              		.syntax unified
 882              		.thumb
 883              		.thumb_func
 884              		.type	otg_txfifo_flush, %function
 885              	otg_txfifo_flush:
 886              	.LFB436:
 887              		.loc 6 212 62
 888              		.cfi_startproc
 889              		@ args = 0, pretend = 0, frame = 16
 890              		@ frame_needed = 1, uses_anonymous_args = 0
 891 0000 80B5     		push	{r7, lr}
 892              		.cfi_def_cfa_offset 8
 893              		.cfi_offset 7, -8
 894              		.cfi_offset 14, -4
 895 0002 84B0     		sub	sp, sp, #16
 896              		.cfi_def_cfa_offset 24
 897 0004 00AF     		add	r7, sp, #0
 898              		.cfi_def_cfa_register 7
 899 0006 7860     		str	r0, [r7, #4]
 900 0008 3960     		str	r1, [r7]
 901              		.loc 6 213 16
 902 000a 7B68     		ldr	r3, [r7, #4]
 903 000c D3F89030 		ldr	r3, [r3, #144]
 904 0010 FB60     		str	r3, [r7, #12]
ARM GAS  C:\Users\DEVELO~1\AppData\Local\Temp\cc4r91NU.s 			page 17


 905              		.loc 6 215 19
 906 0012 3B68     		ldr	r3, [r7]
 907 0014 9B01     		lsls	r3, r3, #6
 908              		.loc 6 215 40
 909 0016 43F02002 		orr	r2, r3, #32
 910              		.loc 6 215 17
 911 001a FB68     		ldr	r3, [r7, #12]
 912 001c 1A61     		str	r2, [r3, #16]
 913              		.loc 6 216 9
 914 001e 00BF     		nop
 915              	.L35:
 916              		.loc 6 216 15 discriminator 1
 917 0020 FB68     		ldr	r3, [r7, #12]
 918 0022 1B69     		ldr	r3, [r3, #16]
 919              		.loc 6 216 25 discriminator 1
 920 0024 03F02003 		and	r3, r3, #32
 921              		.loc 6 216 44 discriminator 1
 922 0028 002B     		cmp	r3, #0
 923 002a F9D1     		bne	.L35
 924              		.loc 6 219 3
 925 002c 1220     		movs	r0, #18
 926 002e FFF7FEFF 		bl	osalSysPolledDelayX
 927              		.loc 6 220 1
 928 0032 00BF     		nop
 929 0034 1037     		adds	r7, r7, #16
 930              		.cfi_def_cfa_offset 8
 931 0036 BD46     		mov	sp, r7
 932              		.cfi_def_cfa_register 13
 933              		@ sp needed
 934 0038 80BD     		pop	{r7, pc}
 935              		.cfi_endproc
 936              	.LFE436:
 937              		.size	otg_txfifo_flush, .-otg_txfifo_flush
 938              		.section	.text.otg_ram_reset,"ax",%progbits
 939              		.align	1
 940              		.syntax unified
 941              		.thumb
 942              		.thumb_func
 943              		.type	otg_ram_reset, %function
 944              	otg_ram_reset:
 945              	.LFB437:
 946              		.loc 6 229 44
 947              		.cfi_startproc
 948              		@ args = 0, pretend = 0, frame = 8
 949              		@ frame_needed = 1, uses_anonymous_args = 0
 950              		@ link register save eliminated.
 951 0000 80B4     		push	{r7}
 952              		.cfi_def_cfa_offset 4
 953              		.cfi_offset 7, -4
 954 0002 83B0     		sub	sp, sp, #12
 955              		.cfi_def_cfa_offset 16
 956 0004 00AF     		add	r7, sp, #0
 957              		.cfi_def_cfa_register 7
 958 0006 7860     		str	r0, [r7, #4]
 959              		.loc 6 231 22
 960 0008 7B68     		ldr	r3, [r7, #4]
 961 000a D3F89430 		ldr	r3, [r3, #148]
ARM GAS  C:\Users\DEVELO~1\AppData\Local\Temp\cc4r91NU.s 			page 18


 962              		.loc 6 231 33
 963 000e 1A68     		ldr	r2, [r3]
 964              		.loc 6 231 16
 965 0010 7B68     		ldr	r3, [r7, #4]
 966 0012 C3F89820 		str	r2, [r3, #152]
 967              		.loc 6 232 1
 968 0016 00BF     		nop
 969 0018 0C37     		adds	r7, r7, #12
 970              		.cfi_def_cfa_offset 4
 971 001a BD46     		mov	sp, r7
 972              		.cfi_def_cfa_register 13
 973              		@ sp needed
 974 001c 80BC     		pop	{r7}
 975              		.cfi_restore 7
 976              		.cfi_def_cfa_offset 0
 977 001e 7047     		bx	lr
 978              		.cfi_endproc
 979              	.LFE437:
 980              		.size	otg_ram_reset, .-otg_ram_reset
 981              		.section	.text.otg_ram_alloc,"ax",%progbits
 982              		.align	1
 983              		.syntax unified
 984              		.thumb
 985              		.thumb_func
 986              		.type	otg_ram_alloc, %function
 987              	otg_ram_alloc:
 988              	.LFB438:
 989              		.loc 6 242 61
 990              		.cfi_startproc
 991              		@ args = 0, pretend = 0, frame = 16
 992              		@ frame_needed = 1, uses_anonymous_args = 0
 993              		@ link register save eliminated.
 994 0000 80B4     		push	{r7}
 995              		.cfi_def_cfa_offset 4
 996              		.cfi_offset 7, -4
 997 0002 85B0     		sub	sp, sp, #20
 998              		.cfi_def_cfa_offset 24
 999 0004 00AF     		add	r7, sp, #0
 1000              		.cfi_def_cfa_register 7
 1001 0006 7860     		str	r0, [r7, #4]
 1002 0008 3960     		str	r1, [r7]
 1003              		.loc 6 245 8
 1004 000a 7B68     		ldr	r3, [r7, #4]
 1005 000c D3F89830 		ldr	r3, [r3, #152]
 1006 0010 FB60     		str	r3, [r7, #12]
 1007              		.loc 6 246 16
 1008 0012 7B68     		ldr	r3, [r7, #4]
 1009 0014 D3F89820 		ldr	r2, [r3, #152]
 1010 0018 3B68     		ldr	r3, [r7]
 1011 001a 1A44     		add	r2, r2, r3
 1012 001c 7B68     		ldr	r3, [r7, #4]
 1013 001e C3F89820 		str	r2, [r3, #152]
 1014              		.loc 6 249 10
 1015 0022 FB68     		ldr	r3, [r7, #12]
 1016              		.loc 6 250 1
 1017 0024 1846     		mov	r0, r3
 1018 0026 1437     		adds	r7, r7, #20
ARM GAS  C:\Users\DEVELO~1\AppData\Local\Temp\cc4r91NU.s 			page 19


 1019              		.cfi_def_cfa_offset 4
 1020 0028 BD46     		mov	sp, r7
 1021              		.cfi_def_cfa_register 13
 1022              		@ sp needed
 1023 002a 80BC     		pop	{r7}
 1024              		.cfi_restore 7
 1025              		.cfi_def_cfa_offset 0
 1026 002c 7047     		bx	lr
 1027              		.cfi_endproc
 1028              	.LFE438:
 1029              		.size	otg_ram_alloc, .-otg_ram_alloc
 1030              		.section	.text.otg_fifo_write_from_buffer,"ax",%progbits
 1031              		.align	1
 1032              		.syntax unified
 1033              		.thumb
 1034              		.thumb_func
 1035              		.type	otg_fifo_write_from_buffer, %function
 1036              	otg_fifo_write_from_buffer:
 1037              	.LFB439:
 1038              		.loc 6 263 50
 1039              		.cfi_startproc
 1040              		@ args = 0, pretend = 0, frame = 16
 1041              		@ frame_needed = 1, uses_anonymous_args = 0
 1042              		@ link register save eliminated.
 1043 0000 80B4     		push	{r7}
 1044              		.cfi_def_cfa_offset 4
 1045              		.cfi_offset 7, -4
 1046 0002 85B0     		sub	sp, sp, #20
 1047              		.cfi_def_cfa_offset 24
 1048 0004 00AF     		add	r7, sp, #0
 1049              		.cfi_def_cfa_register 7
 1050 0006 F860     		str	r0, [r7, #12]
 1051 0008 B960     		str	r1, [r7, #8]
 1052 000a 7A60     		str	r2, [r7, #4]
 1053              	.L42:
 1054              		.loc 6 268 14
 1055 000c BB68     		ldr	r3, [r7, #8]
 1056 000e 1A68     		ldr	r2, [r3]
 1057              		.loc 6 268 12
 1058 0010 FB68     		ldr	r3, [r7, #12]
 1059 0012 1A60     		str	r2, [r3]
 1060              		.loc 6 269 8
 1061 0014 7B68     		ldr	r3, [r7, #4]
 1062 0016 042B     		cmp	r3, #4
 1063 0018 06D9     		bls	.L44
 1064              		.loc 6 272 7
 1065 001a 7B68     		ldr	r3, [r7, #4]
 1066 001c 043B     		subs	r3, r3, #4
 1067 001e 7B60     		str	r3, [r7, #4]
 1068              		.loc 6 273 9
 1069 0020 BB68     		ldr	r3, [r7, #8]
 1070 0022 0433     		adds	r3, r3, #4
 1071 0024 BB60     		str	r3, [r7, #8]
 1072              		.loc 6 268 12
 1073 0026 F1E7     		b	.L42
 1074              	.L44:
 1075              		.loc 6 270 7
ARM GAS  C:\Users\DEVELO~1\AppData\Local\Temp\cc4r91NU.s 			page 20


 1076 0028 00BF     		nop
 1077              		.loc 6 275 1
 1078 002a 00BF     		nop
 1079 002c 1437     		adds	r7, r7, #20
 1080              		.cfi_def_cfa_offset 4
 1081 002e BD46     		mov	sp, r7
 1082              		.cfi_def_cfa_register 13
 1083              		@ sp needed
 1084 0030 80BC     		pop	{r7}
 1085              		.cfi_restore 7
 1086              		.cfi_def_cfa_offset 0
 1087 0032 7047     		bx	lr
 1088              		.cfi_endproc
 1089              	.LFE439:
 1090              		.size	otg_fifo_write_from_buffer, .-otg_fifo_write_from_buffer
 1091              		.section	.text.otg_fifo_read_to_buffer,"ax",%progbits
 1092              		.align	1
 1093              		.syntax unified
 1094              		.thumb
 1095              		.thumb_func
 1096              		.type	otg_fifo_read_to_buffer, %function
 1097              	otg_fifo_read_to_buffer:
 1098              	.LFB440:
 1099              		.loc 6 290 49
 1100              		.cfi_startproc
 1101              		@ args = 0, pretend = 0, frame = 24
 1102              		@ frame_needed = 1, uses_anonymous_args = 0
 1103              		@ link register save eliminated.
 1104 0000 80B4     		push	{r7}
 1105              		.cfi_def_cfa_offset 4
 1106              		.cfi_offset 7, -4
 1107 0002 87B0     		sub	sp, sp, #28
 1108              		.cfi_def_cfa_offset 32
 1109 0004 00AF     		add	r7, sp, #0
 1110              		.cfi_def_cfa_register 7
 1111 0006 F860     		str	r0, [r7, #12]
 1112 0008 B960     		str	r1, [r7, #8]
 1113 000a 7A60     		str	r2, [r7, #4]
 1114 000c 3B60     		str	r3, [r7]
 1115              		.loc 6 291 12
 1116 000e 0023     		movs	r3, #0
 1117 0010 7B61     		str	r3, [r7, #20]
 1118              		.loc 6 292 10
 1119 0012 0023     		movs	r3, #0
 1120 0014 3B61     		str	r3, [r7, #16]
 1121              		.loc 6 294 9
 1122 0016 17E0     		b	.L46
 1123              	.L49:
 1124              		.loc 6 295 12
 1125 0018 3B69     		ldr	r3, [r7, #16]
 1126 001a 03F00303 		and	r3, r3, #3
 1127              		.loc 6 295 8
 1128 001e 002B     		cmp	r3, #0
 1129 0020 02D1     		bne	.L47
 1130              		.loc 6 296 9
 1131 0022 FB68     		ldr	r3, [r7, #12]
 1132 0024 1B68     		ldr	r3, [r3]
ARM GAS  C:\Users\DEVELO~1\AppData\Local\Temp\cc4r91NU.s 			page 21


 1133 0026 7B61     		str	r3, [r7, #20]
 1134              	.L47:
 1135              		.loc 6 298 8
 1136 0028 3A69     		ldr	r2, [r7, #16]
 1137 002a 3B68     		ldr	r3, [r7]
 1138 002c 9A42     		cmp	r2, r3
 1139 002e 08D2     		bcs	.L48
 1140              		.loc 6 299 11
 1141 0030 BB68     		ldr	r3, [r7, #8]
 1142 0032 5A1C     		adds	r2, r3, #1
 1143 0034 BA60     		str	r2, [r7, #8]
 1144              		.loc 6 299 16
 1145 0036 7A69     		ldr	r2, [r7, #20]
 1146 0038 D2B2     		uxtb	r2, r2
 1147              		.loc 6 299 14
 1148 003a 1A70     		strb	r2, [r3]
 1149              		.loc 6 300 9
 1150 003c 7B69     		ldr	r3, [r7, #20]
 1151 003e 1B0A     		lsrs	r3, r3, #8
 1152 0040 7B61     		str	r3, [r7, #20]
 1153              	.L48:
 1154              		.loc 6 302 6
 1155 0042 3B69     		ldr	r3, [r7, #16]
 1156 0044 0133     		adds	r3, r3, #1
 1157 0046 3B61     		str	r3, [r7, #16]
 1158              	.L46:
 1159              		.loc 6 294 12
 1160 0048 3A69     		ldr	r2, [r7, #16]
 1161 004a 7B68     		ldr	r3, [r7, #4]
 1162 004c 9A42     		cmp	r2, r3
 1163 004e E3D3     		bcc	.L49
 1164              		.loc 6 304 1
 1165 0050 00BF     		nop
 1166 0052 00BF     		nop
 1167 0054 1C37     		adds	r7, r7, #28
 1168              		.cfi_def_cfa_offset 4
 1169 0056 BD46     		mov	sp, r7
 1170              		.cfi_def_cfa_register 13
 1171              		@ sp needed
 1172 0058 80BC     		pop	{r7}
 1173              		.cfi_restore 7
 1174              		.cfi_def_cfa_offset 0
 1175 005a 7047     		bx	lr
 1176              		.cfi_endproc
 1177              	.LFE440:
 1178              		.size	otg_fifo_read_to_buffer, .-otg_fifo_read_to_buffer
 1179              		.section	.text.otg_rxfifo_handler,"ax",%progbits
 1180              		.align	1
 1181              		.syntax unified
 1182              		.thumb
 1183              		.thumb_func
 1184              		.type	otg_rxfifo_handler, %function
 1185              	otg_rxfifo_handler:
 1186              	.LFB441:
 1187              		.loc 6 313 49
 1188              		.cfi_startproc
 1189              		@ args = 0, pretend = 0, frame = 24
ARM GAS  C:\Users\DEVELO~1\AppData\Local\Temp\cc4r91NU.s 			page 22


 1190              		@ frame_needed = 1, uses_anonymous_args = 0
 1191 0000 80B5     		push	{r7, lr}
 1192              		.cfi_def_cfa_offset 8
 1193              		.cfi_offset 7, -8
 1194              		.cfi_offset 14, -4
 1195 0002 86B0     		sub	sp, sp, #24
 1196              		.cfi_def_cfa_offset 32
 1197 0004 00AF     		add	r7, sp, #0
 1198              		.cfi_def_cfa_register 7
 1199 0006 7860     		str	r0, [r7, #4]
 1200              		.loc 6 318 13
 1201 0008 7B68     		ldr	r3, [r7, #4]
 1202 000a D3F89030 		ldr	r3, [r3, #144]
 1203              		.loc 6 318 7
 1204 000e 1B6A     		ldr	r3, [r3, #32]
 1205 0010 7B61     		str	r3, [r7, #20]
 1206              		.loc 6 321 43
 1207 0012 7B69     		ldr	r3, [r7, #20]
 1208 0014 1B09     		lsrs	r3, r3, #4
 1209              		.loc 6 321 6
 1210 0016 C3F30A03 		ubfx	r3, r3, #0, #11
 1211 001a 3B61     		str	r3, [r7, #16]
 1212              		.loc 6 322 6
 1213 001c 7B69     		ldr	r3, [r7, #20]
 1214 001e 03F00F03 		and	r3, r3, #15
 1215 0022 FB60     		str	r3, [r7, #12]
 1216              		.loc 6 324 15
 1217 0024 7B69     		ldr	r3, [r7, #20]
 1218 0026 03F4F013 		and	r3, r3, #1966080
 1219              		.loc 6 324 3
 1220 002a B3F5402F 		cmp	r3, #786432
 1221 002e 1BD0     		beq	.L51
 1222 0030 B3F5402F 		cmp	r3, #786432
 1223 0034 00F29A80 		bhi	.L60
 1224 0038 B3F5002F 		cmp	r3, #524288
 1225 003c 00F09880 		beq	.L61
 1226 0040 B3F5002F 		cmp	r3, #524288
 1227 0044 00F29280 		bhi	.L60
 1228 0048 B3F5C02F 		cmp	r3, #393216
 1229 004c 00F09280 		beq	.L62
 1230 0050 B3F5C02F 		cmp	r3, #393216
 1231 0054 00F28A80 		bhi	.L60
 1232 0058 B3F5003F 		cmp	r3, #131072
 1233 005c 00F08C80 		beq	.L63
 1234 0060 B3F5802F 		cmp	r3, #262144
 1235 0064 11D0     		beq	.L56
 1236              		.loc 6 350 5
 1237 0066 81E0     		b	.L60
 1238              	.L51:
 1239              		.loc 6 326 33
 1240 0068 7B68     		ldr	r3, [r7, #4]
 1241 006a D3F89030 		ldr	r3, [r3, #144]
 1242              		.loc 6 326 44
 1243 006e 03F58050 		add	r0, r3, #4096
 1244              		.loc 6 326 58
 1245 0072 7A68     		ldr	r2, [r7, #4]
 1246 0074 FB68     		ldr	r3, [r7, #12]
ARM GAS  C:\Users\DEVELO~1\AppData\Local\Temp\cc4r91NU.s 			page 23


 1247 0076 0233     		adds	r3, r3, #2
 1248 0078 9B00     		lsls	r3, r3, #2
 1249 007a 1344     		add	r3, r3, r2
 1250 007c 5B68     		ldr	r3, [r3, #4]
 1251              		.loc 6 326 62
 1252 007e 196A     		ldr	r1, [r3, #32]
 1253              		.loc 6 326 5
 1254 0080 0823     		movs	r3, #8
 1255 0082 3A69     		ldr	r2, [r7, #16]
 1256 0084 FFF7FEFF 		bl	otg_fifo_read_to_buffer
 1257              		.loc 6 328 5
 1258 0088 77E0     		b	.L57
 1259              	.L56:
 1260              		.loc 6 332 20
 1261 008a 7A68     		ldr	r2, [r7, #4]
 1262 008c FB68     		ldr	r3, [r7, #12]
 1263 008e 0233     		adds	r3, r3, #2
 1264 0090 9B00     		lsls	r3, r3, #2
 1265 0092 1344     		add	r3, r3, r2
 1266 0094 5B68     		ldr	r3, [r3, #4]
 1267              		.loc 6 332 24
 1268 0096 9B69     		ldr	r3, [r3, #24]
 1269              		.loc 6 332 35
 1270 0098 1A68     		ldr	r2, [r3]
 1271              		.loc 6 332 55
 1272 009a 7968     		ldr	r1, [r7, #4]
 1273 009c FB68     		ldr	r3, [r7, #12]
 1274 009e 0233     		adds	r3, r3, #2
 1275 00a0 9B00     		lsls	r3, r3, #2
 1276 00a2 0B44     		add	r3, r3, r1
 1277 00a4 5B68     		ldr	r3, [r3, #4]
 1278              		.loc 6 332 59
 1279 00a6 9B69     		ldr	r3, [r3, #24]
 1280              		.loc 6 332 70
 1281 00a8 5B68     		ldr	r3, [r3, #4]
 1282              		.loc 6 332 9
 1283 00aa D31A     		subs	r3, r2, r3
 1284 00ac BB60     		str	r3, [r7, #8]
 1285              		.loc 6 333 33
 1286 00ae 7B68     		ldr	r3, [r7, #4]
 1287 00b0 D3F89030 		ldr	r3, [r3, #144]
 1288              		.loc 6 333 44
 1289 00b4 03F58050 		add	r0, r3, #4096
 1290              		.loc 6 334 38
 1291 00b8 7A68     		ldr	r2, [r7, #4]
 1292 00ba FB68     		ldr	r3, [r7, #12]
 1293 00bc 0233     		adds	r3, r3, #2
 1294 00be 9B00     		lsls	r3, r3, #2
 1295 00c0 1344     		add	r3, r3, r2
 1296 00c2 5B68     		ldr	r3, [r3, #4]
 1297              		.loc 6 334 42
 1298 00c4 9B69     		ldr	r3, [r3, #24]
 1299              		.loc 6 333 5
 1300 00c6 9968     		ldr	r1, [r3, #8]
 1301 00c8 BB68     		ldr	r3, [r7, #8]
 1302 00ca 3A69     		ldr	r2, [r7, #16]
 1303 00cc FFF7FEFF 		bl	otg_fifo_read_to_buffer
ARM GAS  C:\Users\DEVELO~1\AppData\Local\Temp\cc4r91NU.s 			page 24


 1304              		.loc 6 336 8
 1305 00d0 3A69     		ldr	r2, [r7, #16]
 1306 00d2 BB68     		ldr	r3, [r7, #8]
 1307 00d4 9A42     		cmp	r2, r3
 1308 00d6 24D2     		bcs	.L58
 1309              		.loc 6 337 16
 1310 00d8 7A68     		ldr	r2, [r7, #4]
 1311 00da FB68     		ldr	r3, [r7, #12]
 1312 00dc 0233     		adds	r3, r3, #2
 1313 00de 9B00     		lsls	r3, r3, #2
 1314 00e0 1344     		add	r3, r3, r2
 1315 00e2 5B68     		ldr	r3, [r3, #4]
 1316              		.loc 6 337 20
 1317 00e4 9B69     		ldr	r3, [r3, #24]
 1318              		.loc 6 337 39
 1319 00e6 9968     		ldr	r1, [r3, #8]
 1320              		.loc 6 337 16
 1321 00e8 7A68     		ldr	r2, [r7, #4]
 1322 00ea FB68     		ldr	r3, [r7, #12]
 1323 00ec 0233     		adds	r3, r3, #2
 1324 00ee 9B00     		lsls	r3, r3, #2
 1325 00f0 1344     		add	r3, r3, r2
 1326 00f2 5B68     		ldr	r3, [r3, #4]
 1327              		.loc 6 337 20
 1328 00f4 9B69     		ldr	r3, [r3, #24]
 1329              		.loc 6 337 39
 1330 00f6 3A69     		ldr	r2, [r7, #16]
 1331 00f8 0A44     		add	r2, r2, r1
 1332 00fa 9A60     		str	r2, [r3, #8]
 1333              		.loc 6 338 16
 1334 00fc 7A68     		ldr	r2, [r7, #4]
 1335 00fe FB68     		ldr	r3, [r7, #12]
 1336 0100 0233     		adds	r3, r3, #2
 1337 0102 9B00     		lsls	r3, r3, #2
 1338 0104 1344     		add	r3, r3, r2
 1339 0106 5B68     		ldr	r3, [r3, #4]
 1340              		.loc 6 338 20
 1341 0108 9B69     		ldr	r3, [r3, #24]
 1342              		.loc 6 338 39
 1343 010a 5968     		ldr	r1, [r3, #4]
 1344              		.loc 6 338 16
 1345 010c 7A68     		ldr	r2, [r7, #4]
 1346 010e FB68     		ldr	r3, [r7, #12]
 1347 0110 0233     		adds	r3, r3, #2
 1348 0112 9B00     		lsls	r3, r3, #2
 1349 0114 1344     		add	r3, r3, r2
 1350 0116 5B68     		ldr	r3, [r3, #4]
 1351              		.loc 6 338 20
 1352 0118 9B69     		ldr	r3, [r3, #24]
 1353              		.loc 6 338 39
 1354 011a 3A69     		ldr	r2, [r7, #16]
 1355 011c 0A44     		add	r2, r2, r1
 1356 011e 5A60     		str	r2, [r3, #4]
 1357              		.loc 6 344 5
 1358 0120 2BE0     		b	.L57
 1359              	.L58:
 1360              		.loc 6 341 16
ARM GAS  C:\Users\DEVELO~1\AppData\Local\Temp\cc4r91NU.s 			page 25


 1361 0122 7A68     		ldr	r2, [r7, #4]
 1362 0124 FB68     		ldr	r3, [r7, #12]
 1363 0126 0233     		adds	r3, r3, #2
 1364 0128 9B00     		lsls	r3, r3, #2
 1365 012a 1344     		add	r3, r3, r2
 1366 012c 5B68     		ldr	r3, [r3, #4]
 1367              		.loc 6 341 20
 1368 012e 9B69     		ldr	r3, [r3, #24]
 1369              		.loc 6 341 39
 1370 0130 9968     		ldr	r1, [r3, #8]
 1371              		.loc 6 341 16
 1372 0132 7A68     		ldr	r2, [r7, #4]
 1373 0134 FB68     		ldr	r3, [r7, #12]
 1374 0136 0233     		adds	r3, r3, #2
 1375 0138 9B00     		lsls	r3, r3, #2
 1376 013a 1344     		add	r3, r3, r2
 1377 013c 5B68     		ldr	r3, [r3, #4]
 1378              		.loc 6 341 20
 1379 013e 9B69     		ldr	r3, [r3, #24]
 1380              		.loc 6 341 39
 1381 0140 BA68     		ldr	r2, [r7, #8]
 1382 0142 0A44     		add	r2, r2, r1
 1383 0144 9A60     		str	r2, [r3, #8]
 1384              		.loc 6 342 16
 1385 0146 7A68     		ldr	r2, [r7, #4]
 1386 0148 FB68     		ldr	r3, [r7, #12]
 1387 014a 0233     		adds	r3, r3, #2
 1388 014c 9B00     		lsls	r3, r3, #2
 1389 014e 1344     		add	r3, r3, r2
 1390 0150 5B68     		ldr	r3, [r3, #4]
 1391              		.loc 6 342 20
 1392 0152 9B69     		ldr	r3, [r3, #24]
 1393              		.loc 6 342 39
 1394 0154 5968     		ldr	r1, [r3, #4]
 1395              		.loc 6 342 16
 1396 0156 7A68     		ldr	r2, [r7, #4]
 1397 0158 FB68     		ldr	r3, [r7, #12]
 1398 015a 0233     		adds	r3, r3, #2
 1399 015c 9B00     		lsls	r3, r3, #2
 1400 015e 1344     		add	r3, r3, r2
 1401 0160 5B68     		ldr	r3, [r3, #4]
 1402              		.loc 6 342 20
 1403 0162 9B69     		ldr	r3, [r3, #24]
 1404              		.loc 6 342 39
 1405 0164 BA68     		ldr	r2, [r7, #8]
 1406 0166 0A44     		add	r2, r2, r1
 1407 0168 5A60     		str	r2, [r3, #4]
 1408              		.loc 6 344 5
 1409 016a 06E0     		b	.L57
 1410              	.L60:
 1411              		.loc 6 350 5
 1412 016c 00BF     		nop
 1413 016e 04E0     		b	.L64
 1414              	.L61:
 1415              		.loc 6 330 5
 1416 0170 00BF     		nop
 1417 0172 02E0     		b	.L64
ARM GAS  C:\Users\DEVELO~1\AppData\Local\Temp\cc4r91NU.s 			page 26


 1418              	.L62:
 1419              		.loc 6 346 5
 1420 0174 00BF     		nop
 1421 0176 00E0     		b	.L64
 1422              	.L63:
 1423              		.loc 6 348 5
 1424 0178 00BF     		nop
 1425              	.L57:
 1426              	.L64:
 1427              		.loc 6 352 1
 1428 017a 00BF     		nop
 1429 017c 1837     		adds	r7, r7, #24
 1430              		.cfi_def_cfa_offset 8
 1431 017e BD46     		mov	sp, r7
 1432              		.cfi_def_cfa_register 13
 1433              		@ sp needed
 1434 0180 80BD     		pop	{r7, pc}
 1435              		.cfi_endproc
 1436              	.LFE441:
 1437              		.size	otg_rxfifo_handler, .-otg_rxfifo_handler
 1438              		.section	.text.otg_txfifo_handler,"ax",%progbits
 1439              		.align	1
 1440              		.syntax unified
 1441              		.thumb
 1442              		.thumb_func
 1443              		.type	otg_txfifo_handler, %function
 1444              	otg_txfifo_handler:
 1445              	.LFB442:
 1446              		.loc 6 362 61
 1447              		.cfi_startproc
 1448              		@ args = 0, pretend = 0, frame = 16
 1449              		@ frame_needed = 1, uses_anonymous_args = 0
 1450 0000 80B5     		push	{r7, lr}
 1451              		.cfi_def_cfa_offset 8
 1452              		.cfi_offset 7, -8
 1453              		.cfi_offset 14, -4
 1454 0002 84B0     		sub	sp, sp, #16
 1455              		.cfi_def_cfa_offset 24
 1456 0004 00AF     		add	r7, sp, #0
 1457              		.cfi_def_cfa_register 7
 1458 0006 7860     		str	r0, [r7, #4]
 1459 0008 0B46     		mov	r3, r1
 1460 000a FB70     		strb	r3, [r7, #3]
 1461              	.L70:
 1462              	.LBB38:
 1463              		.loc 6 369 18
 1464 000c FB78     		ldrb	r3, [r7, #3]	@ zero_extendqisi2
 1465 000e 7A68     		ldr	r2, [r7, #4]
 1466 0010 0233     		adds	r3, r3, #2
 1467 0012 9B00     		lsls	r3, r3, #2
 1468 0014 1344     		add	r3, r3, r2
 1469 0016 5B68     		ldr	r3, [r3, #4]
 1470              		.loc 6 369 22
 1471 0018 5B69     		ldr	r3, [r3, #20]
 1472              		.loc 6 369 32
 1473 001a 5A68     		ldr	r2, [r3, #4]
 1474              		.loc 6 369 52
ARM GAS  C:\Users\DEVELO~1\AppData\Local\Temp\cc4r91NU.s 			page 27


 1475 001c FB78     		ldrb	r3, [r7, #3]	@ zero_extendqisi2
 1476 001e 7968     		ldr	r1, [r7, #4]
 1477 0020 0233     		adds	r3, r3, #2
 1478 0022 9B00     		lsls	r3, r3, #2
 1479 0024 0B44     		add	r3, r3, r1
 1480 0026 5B68     		ldr	r3, [r3, #4]
 1481              		.loc 6 369 56
 1482 0028 5B69     		ldr	r3, [r3, #20]
 1483              		.loc 6 369 66
 1484 002a 1B68     		ldr	r3, [r3]
 1485              		.loc 6 369 8
 1486 002c 9A42     		cmp	r2, r3
 1487 002e 11D3     		bcc	.L66
 1488              		.loc 6 371 11
 1489 0030 7B68     		ldr	r3, [r7, #4]
 1490 0032 D3F89030 		ldr	r3, [r3, #144]
 1491              		.loc 6 371 29
 1492 0036 D3F83418 		ldr	r1, [r3, #2100]
 1493              		.loc 6 371 33
 1494 003a FB78     		ldrb	r3, [r7, #3]	@ zero_extendqisi2
 1495 003c 0122     		movs	r2, #1
 1496 003e 02FA03F3 		lsl	r3, r2, r3
 1497              		.loc 6 371 32
 1498 0042 DA43     		mvns	r2, r3
 1499              		.loc 6 371 11
 1500 0044 7B68     		ldr	r3, [r7, #4]
 1501 0046 D3F89030 		ldr	r3, [r3, #144]
 1502              		.loc 6 371 29
 1503 004a 0A40     		ands	r2, r2, r1
 1504 004c C3F83428 		str	r2, [r3, #2100]
 1505              		.loc 6 373 14
 1506 0050 0123     		movs	r3, #1
 1507 0052 6CE0     		b	.L67
 1508              	.L66:
 1509              		.loc 6 377 18
 1510 0054 FB78     		ldrb	r3, [r7, #3]	@ zero_extendqisi2
 1511 0056 7A68     		ldr	r2, [r7, #4]
 1512 0058 0233     		adds	r3, r3, #2
 1513 005a 9B00     		lsls	r3, r3, #2
 1514 005c 1344     		add	r3, r3, r2
 1515 005e 5B68     		ldr	r3, [r3, #4]
 1516              		.loc 6 377 22
 1517 0060 5B69     		ldr	r3, [r3, #20]
 1518              		.loc 6 377 32
 1519 0062 1A68     		ldr	r2, [r3]
 1520              		.loc 6 377 52
 1521 0064 FB78     		ldrb	r3, [r7, #3]	@ zero_extendqisi2
 1522 0066 7968     		ldr	r1, [r7, #4]
 1523 0068 0233     		adds	r3, r3, #2
 1524 006a 9B00     		lsls	r3, r3, #2
 1525 006c 0B44     		add	r3, r3, r1
 1526 006e 5B68     		ldr	r3, [r3, #4]
 1527              		.loc 6 377 56
 1528 0070 5B69     		ldr	r3, [r3, #20]
 1529              		.loc 6 377 66
 1530 0072 5B68     		ldr	r3, [r3, #4]
 1531              		.loc 6 377 7
ARM GAS  C:\Users\DEVELO~1\AppData\Local\Temp\cc4r91NU.s 			page 28


 1532 0074 D31A     		subs	r3, r2, r3
 1533 0076 FB60     		str	r3, [r7, #12]
 1534              		.loc 6 378 22
 1535 0078 FB78     		ldrb	r3, [r7, #3]	@ zero_extendqisi2
 1536 007a 7A68     		ldr	r2, [r7, #4]
 1537 007c 0233     		adds	r3, r3, #2
 1538 007e 9B00     		lsls	r3, r3, #2
 1539 0080 1344     		add	r3, r3, r2
 1540 0082 5B68     		ldr	r3, [r3, #4]
 1541              		.loc 6 378 26
 1542 0084 1B8A     		ldrh	r3, [r3, #16]
 1543 0086 1A46     		mov	r2, r3
 1544              		.loc 6 378 8
 1545 0088 FB68     		ldr	r3, [r7, #12]
 1546 008a 9342     		cmp	r3, r2
 1547 008c 07D9     		bls	.L68
 1548              		.loc 6 379 20
 1549 008e FB78     		ldrb	r3, [r7, #3]	@ zero_extendqisi2
 1550 0090 7A68     		ldr	r2, [r7, #4]
 1551 0092 0233     		adds	r3, r3, #2
 1552 0094 9B00     		lsls	r3, r3, #2
 1553 0096 1344     		add	r3, r3, r2
 1554 0098 5B68     		ldr	r3, [r3, #4]
 1555              		.loc 6 379 24
 1556 009a 1B8A     		ldrh	r3, [r3, #16]
 1557              		.loc 6 379 9
 1558 009c FB60     		str	r3, [r7, #12]
 1559              	.L68:
 1560              		.loc 6 383 15
 1561 009e 7B68     		ldr	r3, [r7, #4]
 1562 00a0 D3F89020 		ldr	r2, [r3, #144]
 1563              		.loc 6 383 28
 1564 00a4 FB78     		ldrb	r3, [r7, #3]	@ zero_extendqisi2
 1565 00a6 5B01     		lsls	r3, r3, #5
 1566 00a8 1344     		add	r3, r3, r2
 1567 00aa 03F61813 		addw	r3, r3, #2328
 1568 00ae 1B68     		ldr	r3, [r3]
 1569              		.loc 6 383 37
 1570 00b0 9BB2     		uxth	r3, r3
 1571              		.loc 6 383 63
 1572 00b2 9B00     		lsls	r3, r3, #2
 1573              		.loc 6 383 8
 1574 00b4 FA68     		ldr	r2, [r7, #12]
 1575 00b6 9A42     		cmp	r2, r3
 1576 00b8 01D9     		bls	.L69
 1577              		.loc 6 384 14
 1578 00ba 0023     		movs	r3, #0
 1579 00bc 37E0     		b	.L67
 1580              	.L69:
 1581              		.loc 6 389 36
 1582 00be 7B68     		ldr	r3, [r7, #4]
 1583 00c0 D3F89020 		ldr	r2, [r3, #144]
 1584              		.loc 6 389 47
 1585 00c4 FB78     		ldrb	r3, [r7, #3]	@ zero_extendqisi2
 1586 00c6 0133     		adds	r3, r3, #1
 1587 00c8 1B03     		lsls	r3, r3, #12
 1588 00ca D018     		adds	r0, r2, r3
ARM GAS  C:\Users\DEVELO~1\AppData\Local\Temp\cc4r91NU.s 			page 29


 1589              		.loc 6 390 41
 1590 00cc FB78     		ldrb	r3, [r7, #3]	@ zero_extendqisi2
 1591 00ce 7A68     		ldr	r2, [r7, #4]
 1592 00d0 0233     		adds	r3, r3, #2
 1593 00d2 9B00     		lsls	r3, r3, #2
 1594 00d4 1344     		add	r3, r3, r2
 1595 00d6 5B68     		ldr	r3, [r3, #4]
 1596              		.loc 6 390 45
 1597 00d8 5B69     		ldr	r3, [r3, #20]
 1598              		.loc 6 389 5
 1599 00da 9B68     		ldr	r3, [r3, #8]
 1600 00dc FA68     		ldr	r2, [r7, #12]
 1601 00de 1946     		mov	r1, r3
 1602 00e0 FFF7FEFF 		bl	otg_fifo_write_from_buffer
 1603              		.loc 6 392 14
 1604 00e4 FB78     		ldrb	r3, [r7, #3]	@ zero_extendqisi2
 1605 00e6 7A68     		ldr	r2, [r7, #4]
 1606 00e8 0233     		adds	r3, r3, #2
 1607 00ea 9B00     		lsls	r3, r3, #2
 1608 00ec 1344     		add	r3, r3, r2
 1609 00ee 5B68     		ldr	r3, [r3, #4]
 1610              		.loc 6 392 18
 1611 00f0 5B69     		ldr	r3, [r3, #20]
 1612              		.loc 6 392 36
 1613 00f2 9968     		ldr	r1, [r3, #8]
 1614              		.loc 6 392 14
 1615 00f4 FB78     		ldrb	r3, [r7, #3]	@ zero_extendqisi2
 1616 00f6 7A68     		ldr	r2, [r7, #4]
 1617 00f8 0233     		adds	r3, r3, #2
 1618 00fa 9B00     		lsls	r3, r3, #2
 1619 00fc 1344     		add	r3, r3, r2
 1620 00fe 5B68     		ldr	r3, [r3, #4]
 1621              		.loc 6 392 18
 1622 0100 5B69     		ldr	r3, [r3, #20]
 1623              		.loc 6 392 36
 1624 0102 FA68     		ldr	r2, [r7, #12]
 1625 0104 0A44     		add	r2, r2, r1
 1626 0106 9A60     		str	r2, [r3, #8]
 1627              		.loc 6 393 14
 1628 0108 FB78     		ldrb	r3, [r7, #3]	@ zero_extendqisi2
 1629 010a 7A68     		ldr	r2, [r7, #4]
 1630 010c 0233     		adds	r3, r3, #2
 1631 010e 9B00     		lsls	r3, r3, #2
 1632 0110 1344     		add	r3, r3, r2
 1633 0112 5B68     		ldr	r3, [r3, #4]
 1634              		.loc 6 393 18
 1635 0114 5B69     		ldr	r3, [r3, #20]
 1636              		.loc 6 393 36
 1637 0116 5968     		ldr	r1, [r3, #4]
 1638              		.loc 6 393 14
 1639 0118 FB78     		ldrb	r3, [r7, #3]	@ zero_extendqisi2
 1640 011a 7A68     		ldr	r2, [r7, #4]
 1641 011c 0233     		adds	r3, r3, #2
 1642 011e 9B00     		lsls	r3, r3, #2
 1643 0120 1344     		add	r3, r3, r2
 1644 0122 5B68     		ldr	r3, [r3, #4]
 1645              		.loc 6 393 18
ARM GAS  C:\Users\DEVELO~1\AppData\Local\Temp\cc4r91NU.s 			page 30


 1646 0124 5B69     		ldr	r3, [r3, #20]
 1647              		.loc 6 393 36
 1648 0126 FA68     		ldr	r2, [r7, #12]
 1649 0128 0A44     		add	r2, r2, r1
 1650 012a 5A60     		str	r2, [r3, #4]
 1651              	.LBE38:
 1652              		.loc 6 365 16
 1653 012c 6EE7     		b	.L70
 1654              	.L67:
 1655              		.loc 6 398 1
 1656 012e 1846     		mov	r0, r3
 1657 0130 1037     		adds	r7, r7, #16
 1658              		.cfi_def_cfa_offset 8
 1659 0132 BD46     		mov	sp, r7
 1660              		.cfi_def_cfa_register 13
 1661              		@ sp needed
 1662 0134 80BD     		pop	{r7, pc}
 1663              		.cfi_endproc
 1664              	.LFE442:
 1665              		.size	otg_txfifo_handler, .-otg_txfifo_handler
 1666              		.section	.text.otg_epin_handler,"ax",%progbits
 1667              		.align	1
 1668              		.syntax unified
 1669              		.thumb
 1670              		.thumb_func
 1671              		.type	otg_epin_handler, %function
 1672              	otg_epin_handler:
 1673              	.LFB443:
 1674              		.loc 6 408 59
 1675              		.cfi_startproc
 1676              		@ args = 0, pretend = 0, frame = 24
 1677              		@ frame_needed = 1, uses_anonymous_args = 0
 1678 0000 80B5     		push	{r7, lr}
 1679              		.cfi_def_cfa_offset 8
 1680              		.cfi_offset 7, -8
 1681              		.cfi_offset 14, -4
 1682 0002 86B0     		sub	sp, sp, #24
 1683              		.cfi_def_cfa_offset 32
 1684 0004 00AF     		add	r7, sp, #0
 1685              		.cfi_def_cfa_register 7
 1686 0006 7860     		str	r0, [r7, #4]
 1687 0008 0B46     		mov	r3, r1
 1688 000a FB70     		strb	r3, [r7, #3]
 1689              		.loc 6 409 16
 1690 000c 7B68     		ldr	r3, [r7, #4]
 1691 000e D3F89030 		ldr	r3, [r3, #144]
 1692 0012 7B61     		str	r3, [r7, #20]
 1693              		.loc 6 410 32
 1694 0014 FB78     		ldrb	r3, [r7, #3]	@ zero_extendqisi2
 1695              		.loc 6 410 12
 1696 0016 7A69     		ldr	r2, [r7, #20]
 1697 0018 5B01     		lsls	r3, r3, #5
 1698 001a 1344     		add	r3, r3, r2
 1699 001c 03F60813 		addw	r3, r3, #2312
 1700 0020 1B68     		ldr	r3, [r3]
 1701 0022 3B61     		str	r3, [r7, #16]
 1702              		.loc 6 412 15
ARM GAS  C:\Users\DEVELO~1\AppData\Local\Temp\cc4r91NU.s 			page 31


 1703 0024 FB78     		ldrb	r3, [r7, #3]	@ zero_extendqisi2
 1704              		.loc 6 412 24
 1705 0026 7A69     		ldr	r2, [r7, #20]
 1706 0028 5B01     		lsls	r3, r3, #5
 1707 002a 1344     		add	r3, r3, r2
 1708 002c 03F60813 		addw	r3, r3, #2312
 1709 0030 3A69     		ldr	r2, [r7, #16]
 1710 0032 1A60     		str	r2, [r3]
 1711              		.loc 6 417 14
 1712 0034 3B69     		ldr	r3, [r7, #16]
 1713 0036 03F00103 		and	r3, r3, #1
 1714              		.loc 6 417 6
 1715 003a 002B     		cmp	r3, #0
 1716 003c 4BD0     		beq	.L72
 1717              		.loc 6 417 38 discriminator 1
 1718 003e 7B69     		ldr	r3, [r7, #20]
 1719 0040 D3F81038 		ldr	r3, [r3, #2064]
 1720              		.loc 6 417 48 discriminator 1
 1721 0044 03F00103 		and	r3, r3, #1
 1722              		.loc 6 417 30 discriminator 1
 1723 0048 002B     		cmp	r3, #0
 1724 004a 44D0     		beq	.L72
 1725              	.LBB39:
 1726              		.loc 6 419 40
 1727 004c FB78     		ldrb	r3, [r7, #3]	@ zero_extendqisi2
 1728 004e 7A68     		ldr	r2, [r7, #4]
 1729 0050 0233     		adds	r3, r3, #2
 1730 0052 9B00     		lsls	r3, r3, #2
 1731 0054 1344     		add	r3, r3, r2
 1732 0056 5B68     		ldr	r3, [r3, #4]
 1733              		.loc 6 419 25
 1734 0058 5B69     		ldr	r3, [r3, #20]
 1735 005a FB60     		str	r3, [r7, #12]
 1736              		.loc 6 421 12
 1737 005c FB68     		ldr	r3, [r7, #12]
 1738 005e 1A68     		ldr	r2, [r3]
 1739              		.loc 6 421 26
 1740 0060 FB68     		ldr	r3, [r7, #12]
 1741 0062 DB68     		ldr	r3, [r3, #12]
 1742              		.loc 6 421 8
 1743 0064 9A42     		cmp	r2, r3
 1744 0066 13D2     		bcs	.L73
 1745              		.loc 6 425 24
 1746 0068 FB68     		ldr	r3, [r7, #12]
 1747 006a DA68     		ldr	r2, [r3, #12]
 1748              		.loc 6 425 39
 1749 006c FB68     		ldr	r3, [r7, #12]
 1750 006e 1B68     		ldr	r3, [r3]
 1751              		.loc 6 425 34
 1752 0070 D21A     		subs	r2, r2, r3
 1753              		.loc 6 425 19
 1754 0072 FB68     		ldr	r3, [r7, #12]
 1755 0074 1A60     		str	r2, [r3]
 1756              		.loc 6 426 19
 1757 0076 FB68     		ldr	r3, [r7, #12]
 1758 0078 0022     		movs	r2, #0
 1759 007a 5A60     		str	r2, [r3, #4]
ARM GAS  C:\Users\DEVELO~1\AppData\Local\Temp\cc4r91NU.s 			page 32


 1760              		.loc 6 427 7
 1761 007c FFF7FEFF 		bl	osalSysLockFromISR
 1762              		.loc 6 428 7
 1763 0080 FB78     		ldrb	r3, [r7, #3]	@ zero_extendqisi2
 1764 0082 1946     		mov	r1, r3
 1765 0084 7868     		ldr	r0, [r7, #4]
 1766 0086 FFF7FEFF 		bl	usb_lld_start_in
 1767              		.loc 6 429 7
 1768 008a FFF7FEFF 		bl	osalSysUnlockFromISR
 1769 008e 22E0     		b	.L72
 1770              	.L73:
 1771              		.loc 6 433 7
 1772 0090 7B68     		ldr	r3, [r7, #4]
 1773 0092 1B89     		ldrh	r3, [r3, #8]
 1774 0094 1AB2     		sxth	r2, r3
 1775 0096 FB78     		ldrb	r3, [r7, #3]	@ zero_extendqisi2
 1776 0098 0121     		movs	r1, #1
 1777 009a 01FA03F3 		lsl	r3, r1, r3
 1778 009e 1BB2     		sxth	r3, r3
 1779 00a0 DB43     		mvns	r3, r3
 1780 00a2 1BB2     		sxth	r3, r3
 1781 00a4 1340     		ands	r3, r3, r2
 1782 00a6 1BB2     		sxth	r3, r3
 1783 00a8 9AB2     		uxth	r2, r3
 1784 00aa 7B68     		ldr	r3, [r7, #4]
 1785 00ac 1A81     		strh	r2, [r3, #8]	@ movhi
 1786 00ae FB78     		ldrb	r3, [r7, #3]	@ zero_extendqisi2
 1787 00b0 7A68     		ldr	r2, [r7, #4]
 1788 00b2 0233     		adds	r3, r3, #2
 1789 00b4 9B00     		lsls	r3, r3, #2
 1790 00b6 1344     		add	r3, r3, r2
 1791 00b8 5B68     		ldr	r3, [r3, #4]
 1792 00ba 9B68     		ldr	r3, [r3, #8]
 1793 00bc 002B     		cmp	r3, #0
 1794 00be 0AD0     		beq	.L72
 1795              		.loc 6 433 7 is_stmt 0 discriminator 1
 1796 00c0 FB78     		ldrb	r3, [r7, #3]	@ zero_extendqisi2
 1797 00c2 7A68     		ldr	r2, [r7, #4]
 1798 00c4 0233     		adds	r3, r3, #2
 1799 00c6 9B00     		lsls	r3, r3, #2
 1800 00c8 1344     		add	r3, r3, r2
 1801 00ca 5B68     		ldr	r3, [r3, #4]
 1802 00cc 9B68     		ldr	r3, [r3, #8]
 1803 00ce FA78     		ldrb	r2, [r7, #3]	@ zero_extendqisi2
 1804 00d0 1146     		mov	r1, r2
 1805 00d2 7868     		ldr	r0, [r7, #4]
 1806 00d4 9847     		blx	r3
 1807              	.LVL0:
 1808              	.L72:
 1809              	.LBE39:
 1810              		.loc 6 436 14 is_stmt 1
 1811 00d6 3B69     		ldr	r3, [r7, #16]
 1812 00d8 03F08003 		and	r3, r3, #128
 1813              		.loc 6 436 6
 1814 00dc 002B     		cmp	r3, #0
 1815 00de 0ED0     		beq	.L75
 1816              		.loc 6 437 12 discriminator 1
ARM GAS  C:\Users\DEVELO~1\AppData\Local\Temp\cc4r91NU.s 			page 33


 1817 00e0 7B69     		ldr	r3, [r7, #20]
 1818 00e2 D3F83428 		ldr	r2, [r3, #2100]
 1819              		.loc 6 437 27 discriminator 1
 1820 00e6 FB78     		ldrb	r3, [r7, #3]	@ zero_extendqisi2
 1821 00e8 0121     		movs	r1, #1
 1822 00ea 01FA03F3 		lsl	r3, r1, r3
 1823              		.loc 6 437 25 discriminator 1
 1824 00ee 1340     		ands	r3, r3, r2
 1825              		.loc 6 436 30 discriminator 1
 1826 00f0 002B     		cmp	r3, #0
 1827 00f2 04D0     		beq	.L75
 1828              		.loc 6 439 5
 1829 00f4 FB78     		ldrb	r3, [r7, #3]	@ zero_extendqisi2
 1830 00f6 1946     		mov	r1, r3
 1831 00f8 7868     		ldr	r0, [r7, #4]
 1832 00fa FFF7FEFF 		bl	otg_txfifo_handler
 1833              	.L75:
 1834              		.loc 6 441 1
 1835 00fe 00BF     		nop
 1836 0100 1837     		adds	r7, r7, #24
 1837              		.cfi_def_cfa_offset 8
 1838 0102 BD46     		mov	sp, r7
 1839              		.cfi_def_cfa_register 13
 1840              		@ sp needed
 1841 0104 80BD     		pop	{r7, pc}
 1842              		.cfi_endproc
 1843              	.LFE443:
 1844              		.size	otg_epin_handler, .-otg_epin_handler
 1845              		.section	.text.otg_epout_handler,"ax",%progbits
 1846              		.align	1
 1847              		.syntax unified
 1848              		.thumb
 1849              		.thumb_func
 1850              		.type	otg_epout_handler, %function
 1851              	otg_epout_handler:
 1852              	.LFB444:
 1853              		.loc 6 451 60
 1854              		.cfi_startproc
 1855              		@ args = 0, pretend = 0, frame = 24
 1856              		@ frame_needed = 1, uses_anonymous_args = 0
 1857 0000 80B5     		push	{r7, lr}
 1858              		.cfi_def_cfa_offset 8
 1859              		.cfi_offset 7, -8
 1860              		.cfi_offset 14, -4
 1861 0002 86B0     		sub	sp, sp, #24
 1862              		.cfi_def_cfa_offset 32
 1863 0004 00AF     		add	r7, sp, #0
 1864              		.cfi_def_cfa_register 7
 1865 0006 7860     		str	r0, [r7, #4]
 1866 0008 0B46     		mov	r3, r1
 1867 000a FB70     		strb	r3, [r7, #3]
 1868              		.loc 6 452 16
 1869 000c 7B68     		ldr	r3, [r7, #4]
 1870 000e D3F89030 		ldr	r3, [r3, #144]
 1871 0012 7B61     		str	r3, [r7, #20]
 1872              		.loc 6 453 32
 1873 0014 FB78     		ldrb	r3, [r7, #3]	@ zero_extendqisi2
ARM GAS  C:\Users\DEVELO~1\AppData\Local\Temp\cc4r91NU.s 			page 34


 1874              		.loc 6 453 12
 1875 0016 7A69     		ldr	r2, [r7, #20]
 1876 0018 5B01     		lsls	r3, r3, #5
 1877 001a 1344     		add	r3, r3, r2
 1878 001c 03F60833 		addw	r3, r3, #2824
 1879 0020 1B68     		ldr	r3, [r3]
 1880 0022 3B61     		str	r3, [r7, #16]
 1881              		.loc 6 456 15
 1882 0024 FB78     		ldrb	r3, [r7, #3]	@ zero_extendqisi2
 1883              		.loc 6 456 24
 1884 0026 7A69     		ldr	r2, [r7, #20]
 1885 0028 5B01     		lsls	r3, r3, #5
 1886 002a 1344     		add	r3, r3, r2
 1887 002c 03F60833 		addw	r3, r3, #2824
 1888 0030 3A69     		ldr	r2, [r7, #16]
 1889 0032 1A60     		str	r2, [r3]
 1890              		.loc 6 458 14
 1891 0034 3B69     		ldr	r3, [r7, #16]
 1892 0036 03F00803 		and	r3, r3, #8
 1893              		.loc 6 458 6
 1894 003a 002B     		cmp	r3, #0
 1895 003c 11D0     		beq	.L77
 1896              		.loc 6 458 38 discriminator 1
 1897 003e 7B69     		ldr	r3, [r7, #20]
 1898 0040 D3F81438 		ldr	r3, [r3, #2068]
 1899              		.loc 6 458 48 discriminator 1
 1900 0044 03F00803 		and	r3, r3, #8
 1901              		.loc 6 458 30 discriminator 1
 1902 0048 002B     		cmp	r3, #0
 1903 004a 0AD0     		beq	.L77
 1904              		.loc 6 461 5
 1905 004c FB78     		ldrb	r3, [r7, #3]	@ zero_extendqisi2
 1906 004e 7A68     		ldr	r2, [r7, #4]
 1907 0050 0233     		adds	r3, r3, #2
 1908 0052 9B00     		lsls	r3, r3, #2
 1909 0054 1344     		add	r3, r3, r2
 1910 0056 5B68     		ldr	r3, [r3, #4]
 1911 0058 5B68     		ldr	r3, [r3, #4]
 1912 005a FA78     		ldrb	r2, [r7, #3]	@ zero_extendqisi2
 1913 005c 1146     		mov	r1, r2
 1914 005e 7868     		ldr	r0, [r7, #4]
 1915 0060 9847     		blx	r3
 1916              	.LVL1:
 1917              	.L77:
 1918              		.loc 6 464 14
 1919 0062 3B69     		ldr	r3, [r7, #16]
 1920 0064 03F00103 		and	r3, r3, #1
 1921              		.loc 6 464 6
 1922 0068 002B     		cmp	r3, #0
 1923 006a 5ED0     		beq	.L76
 1924              		.loc 6 464 38 discriminator 1
 1925 006c 7B69     		ldr	r3, [r7, #20]
 1926 006e D3F81438 		ldr	r3, [r3, #2068]
 1927              		.loc 6 464 48 discriminator 1
 1928 0072 03F00103 		and	r3, r3, #1
 1929              		.loc 6 464 30 discriminator 1
 1930 0076 002B     		cmp	r3, #0
ARM GAS  C:\Users\DEVELO~1\AppData\Local\Temp\cc4r91NU.s 			page 35


 1931 0078 57D0     		beq	.L76
 1932              	.LBB40:
 1933              		.loc 6 468 20
 1934 007a FB78     		ldrb	r3, [r7, #3]	@ zero_extendqisi2
 1935 007c 7A68     		ldr	r2, [r7, #4]
 1936 007e 0233     		adds	r3, r3, #2
 1937 0080 9B00     		lsls	r3, r3, #2
 1938 0082 1344     		add	r3, r3, r2
 1939 0084 5B68     		ldr	r3, [r3, #4]
 1940              		.loc 6 468 9
 1941 0086 9B69     		ldr	r3, [r3, #24]
 1942 0088 FB60     		str	r3, [r7, #12]
 1943              		.loc 6 471 8
 1944 008a FB78     		ldrb	r3, [r7, #3]	@ zero_extendqisi2
 1945 008c 002B     		cmp	r3, #0
 1946 008e 29D1     		bne	.L79
 1947              		.loc 6 485 16
 1948 0090 FB68     		ldr	r3, [r7, #12]
 1949 0092 5A68     		ldr	r2, [r3, #4]
 1950              		.loc 6 485 35
 1951 0094 FB78     		ldrb	r3, [r7, #3]	@ zero_extendqisi2
 1952 0096 7968     		ldr	r1, [r7, #4]
 1953 0098 0233     		adds	r3, r3, #2
 1954 009a 9B00     		lsls	r3, r3, #2
 1955 009c 0B44     		add	r3, r3, r1
 1956 009e 5B68     		ldr	r3, [r3, #4]
 1957              		.loc 6 485 39
 1958 00a0 5B8A     		ldrh	r3, [r3, #18]
 1959              		.loc 6 485 24
 1960 00a2 B2FBF3F1 		udiv	r1, r2, r3
 1961 00a6 01FB03F3 		mul	r3, r1, r3
 1962 00aa D31A     		subs	r3, r2, r3
 1963              		.loc 6 485 10
 1964 00ac 002B     		cmp	r3, #0
 1965 00ae 19D1     		bne	.L79
 1966              		.loc 6 486 15 discriminator 1
 1967 00b0 FB68     		ldr	r3, [r7, #12]
 1968 00b2 1A68     		ldr	r2, [r3]
 1969              		.loc 6 486 29 discriminator 1
 1970 00b4 FB68     		ldr	r3, [r7, #12]
 1971 00b6 DB68     		ldr	r3, [r3, #12]
 1972              		.loc 6 485 60 discriminator 1
 1973 00b8 9A42     		cmp	r2, r3
 1974 00ba 13D2     		bcs	.L79
 1975              		.loc 6 487 26
 1976 00bc FB68     		ldr	r3, [r7, #12]
 1977 00be DA68     		ldr	r2, [r3, #12]
 1978              		.loc 6 487 41
 1979 00c0 FB68     		ldr	r3, [r7, #12]
 1980 00c2 1B68     		ldr	r3, [r3]
 1981              		.loc 6 487 36
 1982 00c4 D21A     		subs	r2, r2, r3
 1983              		.loc 6 487 21
 1984 00c6 FB68     		ldr	r3, [r7, #12]
 1985 00c8 1A60     		str	r2, [r3]
 1986              		.loc 6 488 21
 1987 00ca FB68     		ldr	r3, [r7, #12]
ARM GAS  C:\Users\DEVELO~1\AppData\Local\Temp\cc4r91NU.s 			page 36


 1988 00cc 0022     		movs	r2, #0
 1989 00ce 5A60     		str	r2, [r3, #4]
 1990              		.loc 6 489 9
 1991 00d0 FFF7FEFF 		bl	osalSysLockFromISR
 1992              		.loc 6 490 9
 1993 00d4 FB78     		ldrb	r3, [r7, #3]	@ zero_extendqisi2
 1994 00d6 1946     		mov	r1, r3
 1995 00d8 7868     		ldr	r0, [r7, #4]
 1996 00da FFF7FEFF 		bl	usb_lld_start_out
 1997              		.loc 6 491 9
 1998 00de FFF7FEFF 		bl	osalSysUnlockFromISR
 1999              		.loc 6 492 9
 2000 00e2 22E0     		b	.L76
 2001              	.L79:
 2002              		.loc 6 497 5
 2003 00e4 7B68     		ldr	r3, [r7, #4]
 2004 00e6 5B89     		ldrh	r3, [r3, #10]
 2005 00e8 1AB2     		sxth	r2, r3
 2006 00ea FB78     		ldrb	r3, [r7, #3]	@ zero_extendqisi2
 2007 00ec 0121     		movs	r1, #1
 2008 00ee 01FA03F3 		lsl	r3, r1, r3
 2009 00f2 1BB2     		sxth	r3, r3
 2010 00f4 DB43     		mvns	r3, r3
 2011 00f6 1BB2     		sxth	r3, r3
 2012 00f8 1340     		ands	r3, r3, r2
 2013 00fa 1BB2     		sxth	r3, r3
 2014 00fc 9AB2     		uxth	r2, r3
 2015 00fe 7B68     		ldr	r3, [r7, #4]
 2016 0100 5A81     		strh	r2, [r3, #10]	@ movhi
 2017 0102 FB78     		ldrb	r3, [r7, #3]	@ zero_extendqisi2
 2018 0104 7A68     		ldr	r2, [r7, #4]
 2019 0106 0233     		adds	r3, r3, #2
 2020 0108 9B00     		lsls	r3, r3, #2
 2021 010a 1344     		add	r3, r3, r2
 2022 010c 5B68     		ldr	r3, [r3, #4]
 2023 010e DB68     		ldr	r3, [r3, #12]
 2024 0110 002B     		cmp	r3, #0
 2025 0112 0AD0     		beq	.L76
 2026              		.loc 6 497 5 is_stmt 0 discriminator 1
 2027 0114 FB78     		ldrb	r3, [r7, #3]	@ zero_extendqisi2
 2028 0116 7A68     		ldr	r2, [r7, #4]
 2029 0118 0233     		adds	r3, r3, #2
 2030 011a 9B00     		lsls	r3, r3, #2
 2031 011c 1344     		add	r3, r3, r2
 2032 011e 5B68     		ldr	r3, [r3, #4]
 2033 0120 DB68     		ldr	r3, [r3, #12]
 2034 0122 FA78     		ldrb	r2, [r7, #3]	@ zero_extendqisi2
 2035 0124 1146     		mov	r1, r2
 2036 0126 7868     		ldr	r0, [r7, #4]
 2037 0128 9847     		blx	r3
 2038              	.LVL2:
 2039              	.L76:
 2040              	.LBE40:
 2041              		.loc 6 499 1 is_stmt 1
 2042 012a 1837     		adds	r7, r7, #24
 2043              		.cfi_def_cfa_offset 8
 2044 012c BD46     		mov	sp, r7
ARM GAS  C:\Users\DEVELO~1\AppData\Local\Temp\cc4r91NU.s 			page 37


 2045              		.cfi_def_cfa_register 13
 2046              		@ sp needed
 2047 012e 80BD     		pop	{r7, pc}
 2048              		.cfi_endproc
 2049              	.LFE444:
 2050              		.size	otg_epout_handler, .-otg_epout_handler
 2051              		.section	.text.otg_isoc_in_failed_handler,"ax",%progbits
 2052              		.align	1
 2053              		.syntax unified
 2054              		.thumb
 2055              		.thumb_func
 2056              		.type	otg_isoc_in_failed_handler, %function
 2057              	otg_isoc_in_failed_handler:
 2058              	.LFB445:
 2059              		.loc 6 508 57
 2060              		.cfi_startproc
 2061              		@ args = 0, pretend = 0, frame = 16
 2062              		@ frame_needed = 1, uses_anonymous_args = 0
 2063 0000 80B5     		push	{r7, lr}
 2064              		.cfi_def_cfa_offset 8
 2065              		.cfi_offset 7, -8
 2066              		.cfi_offset 14, -4
 2067 0002 84B0     		sub	sp, sp, #16
 2068              		.cfi_def_cfa_offset 24
 2069 0004 00AF     		add	r7, sp, #0
 2070              		.cfi_def_cfa_register 7
 2071 0006 7860     		str	r0, [r7, #4]
 2072              		.loc 6 510 16
 2073 0008 7B68     		ldr	r3, [r7, #4]
 2074 000a D3F89030 		ldr	r3, [r3, #144]
 2075 000e BB60     		str	r3, [r7, #8]
 2076              		.loc 6 512 11
 2077 0010 0023     		movs	r3, #0
 2078 0012 FB73     		strb	r3, [r7, #15]
 2079              		.loc 6 512 3
 2080 0014 54E0     		b	.L81
 2081              	.L84:
 2082              		.loc 6 513 23
 2083 0016 FB7B     		ldrb	r3, [r7, #15]	@ zero_extendqisi2
 2084 0018 BA68     		ldr	r2, [r7, #8]
 2085 001a 4833     		adds	r3, r3, #72
 2086 001c 5B01     		lsls	r3, r3, #5
 2087 001e 1344     		add	r3, r3, r2
 2088 0020 1B68     		ldr	r3, [r3]
 2089              		.loc 6 513 32
 2090 0022 03F44023 		and	r3, r3, #786432
 2091              		.loc 6 513 8
 2092 0026 B3F5802F 		cmp	r3, #262144
 2093 002a 46D1     		bne	.L82
 2094              		.loc 6 514 23 discriminator 1
 2095 002c FB7B     		ldrb	r3, [r7, #15]	@ zero_extendqisi2
 2096 002e BA68     		ldr	r2, [r7, #8]
 2097 0030 4833     		adds	r3, r3, #72
 2098 0032 5B01     		lsls	r3, r3, #5
 2099 0034 1344     		add	r3, r3, r2
 2100 0036 1B68     		ldr	r3, [r3]
 2101              		.loc 6 513 76 discriminator 1
ARM GAS  C:\Users\DEVELO~1\AppData\Local\Temp\cc4r91NU.s 			page 38


 2102 0038 002B     		cmp	r3, #0
 2103 003a 3EDA     		bge	.L82
 2104              		.loc 6 517 28
 2105 003c FB7B     		ldrb	r3, [r7, #15]	@ zero_extendqisi2
 2106 003e BA68     		ldr	r2, [r7, #8]
 2107 0040 4833     		adds	r3, r3, #72
 2108 0042 5B01     		lsls	r3, r3, #5
 2109 0044 1344     		add	r3, r3, r2
 2110 0046 1A68     		ldr	r2, [r3]
 2111 0048 FB7B     		ldrb	r3, [r7, #15]	@ zero_extendqisi2
 2112 004a 42F09042 		orr	r2, r2, #1207959552
 2113 004e B968     		ldr	r1, [r7, #8]
 2114 0050 4833     		adds	r3, r3, #72
 2115 0052 5B01     		lsls	r3, r3, #5
 2116 0054 0B44     		add	r3, r3, r1
 2117 0056 1A60     		str	r2, [r3]
 2118              		.loc 6 518 13
 2119 0058 00BF     		nop
 2120              	.L83:
 2121              		.loc 6 518 26 discriminator 1
 2122 005a FB7B     		ldrb	r3, [r7, #15]	@ zero_extendqisi2
 2123 005c BA68     		ldr	r2, [r7, #8]
 2124 005e 4833     		adds	r3, r3, #72
 2125 0060 5B01     		lsls	r3, r3, #5
 2126 0062 1344     		add	r3, r3, r2
 2127 0064 1B68     		ldr	r3, [r3]
 2128              		.loc 6 518 14 discriminator 1
 2129 0066 002B     		cmp	r3, #0
 2130 0068 F7DB     		blt	.L83
 2131              		.loc 6 522 7
 2132 006a FB7B     		ldrb	r3, [r7, #15]	@ zero_extendqisi2
 2133 006c 1946     		mov	r1, r3
 2134 006e 7868     		ldr	r0, [r7, #4]
 2135 0070 FFF7FEFF 		bl	otg_txfifo_flush
 2136              		.loc 6 525 7
 2137 0074 7B68     		ldr	r3, [r7, #4]
 2138 0076 1B89     		ldrh	r3, [r3, #8]
 2139 0078 1AB2     		sxth	r2, r3
 2140 007a FB7B     		ldrb	r3, [r7, #15]	@ zero_extendqisi2
 2141 007c 0121     		movs	r1, #1
 2142 007e 01FA03F3 		lsl	r3, r1, r3
 2143 0082 1BB2     		sxth	r3, r3
 2144 0084 DB43     		mvns	r3, r3
 2145 0086 1BB2     		sxth	r3, r3
 2146 0088 1340     		ands	r3, r3, r2
 2147 008a 1BB2     		sxth	r3, r3
 2148 008c 9AB2     		uxth	r2, r3
 2149 008e 7B68     		ldr	r3, [r7, #4]
 2150 0090 1A81     		strh	r2, [r3, #8]	@ movhi
 2151 0092 FB7B     		ldrb	r3, [r7, #15]	@ zero_extendqisi2
 2152 0094 7A68     		ldr	r2, [r7, #4]
 2153 0096 0233     		adds	r3, r3, #2
 2154 0098 9B00     		lsls	r3, r3, #2
 2155 009a 1344     		add	r3, r3, r2
 2156 009c 5B68     		ldr	r3, [r3, #4]
 2157 009e 9B68     		ldr	r3, [r3, #8]
 2158 00a0 002B     		cmp	r3, #0
ARM GAS  C:\Users\DEVELO~1\AppData\Local\Temp\cc4r91NU.s 			page 39


 2159 00a2 0AD0     		beq	.L82
 2160              		.loc 6 525 7 is_stmt 0 discriminator 1
 2161 00a4 FB7B     		ldrb	r3, [r7, #15]	@ zero_extendqisi2
 2162 00a6 7A68     		ldr	r2, [r7, #4]
 2163 00a8 0233     		adds	r3, r3, #2
 2164 00aa 9B00     		lsls	r3, r3, #2
 2165 00ac 1344     		add	r3, r3, r2
 2166 00ae 5B68     		ldr	r3, [r3, #4]
 2167 00b0 9B68     		ldr	r3, [r3, #8]
 2168 00b2 FA7B     		ldrb	r2, [r7, #15]	@ zero_extendqisi2
 2169 00b4 1146     		mov	r1, r2
 2170 00b6 7868     		ldr	r0, [r7, #4]
 2171 00b8 9847     		blx	r3
 2172              	.LVL3:
 2173              	.L82:
 2174              		.loc 6 512 56 is_stmt 1 discriminator 2
 2175 00ba FB7B     		ldrb	r3, [r7, #15]	@ zero_extendqisi2
 2176 00bc 0133     		adds	r3, r3, #1
 2177 00be FB73     		strb	r3, [r7, #15]
 2178              	.L81:
 2179              		.loc 6 512 19 discriminator 1
 2180 00c0 FA7B     		ldrb	r2, [r7, #15]	@ zero_extendqisi2
 2181              		.loc 6 512 26 discriminator 1
 2182 00c2 7B68     		ldr	r3, [r7, #4]
 2183 00c4 D3F89430 		ldr	r3, [r3, #148]
 2184              		.loc 6 512 37 discriminator 1
 2185 00c8 9B68     		ldr	r3, [r3, #8]
 2186              		.loc 6 512 19 discriminator 1
 2187 00ca 9A42     		cmp	r2, r3
 2188 00cc A3D9     		bls	.L84
 2189              		.loc 6 528 1
 2190 00ce 00BF     		nop
 2191 00d0 00BF     		nop
 2192 00d2 1037     		adds	r7, r7, #16
 2193              		.cfi_def_cfa_offset 8
 2194 00d4 BD46     		mov	sp, r7
 2195              		.cfi_def_cfa_register 13
 2196              		@ sp needed
 2197 00d6 80BD     		pop	{r7, pc}
 2198              		.cfi_endproc
 2199              	.LFE445:
 2200              		.size	otg_isoc_in_failed_handler, .-otg_isoc_in_failed_handler
 2201              		.section	.text.otg_isoc_out_failed_handler,"ax",%progbits
 2202              		.align	1
 2203              		.syntax unified
 2204              		.thumb
 2205              		.thumb_func
 2206              		.type	otg_isoc_out_failed_handler, %function
 2207              	otg_isoc_out_failed_handler:
 2208              	.LFB446:
 2209              		.loc 6 537 58
 2210              		.cfi_startproc
 2211              		@ args = 0, pretend = 0, frame = 16
 2212              		@ frame_needed = 1, uses_anonymous_args = 0
 2213 0000 80B5     		push	{r7, lr}
 2214              		.cfi_def_cfa_offset 8
 2215              		.cfi_offset 7, -8
ARM GAS  C:\Users\DEVELO~1\AppData\Local\Temp\cc4r91NU.s 			page 40


 2216              		.cfi_offset 14, -4
 2217 0002 84B0     		sub	sp, sp, #16
 2218              		.cfi_def_cfa_offset 24
 2219 0004 00AF     		add	r7, sp, #0
 2220              		.cfi_def_cfa_register 7
 2221 0006 7860     		str	r0, [r7, #4]
 2222              		.loc 6 539 16
 2223 0008 7B68     		ldr	r3, [r7, #4]
 2224 000a D3F89030 		ldr	r3, [r3, #144]
 2225 000e BB60     		str	r3, [r7, #8]
 2226              		.loc 6 541 11
 2227 0010 0023     		movs	r3, #0
 2228 0012 FB73     		strb	r3, [r7, #15]
 2229              		.loc 6 541 3
 2230 0014 38E0     		b	.L86
 2231              	.L88:
 2232              		.loc 6 542 23
 2233 0016 FB7B     		ldrb	r3, [r7, #15]	@ zero_extendqisi2
 2234 0018 BA68     		ldr	r2, [r7, #8]
 2235 001a 5833     		adds	r3, r3, #88
 2236 001c 5B01     		lsls	r3, r3, #5
 2237 001e 1344     		add	r3, r3, r2
 2238 0020 1B68     		ldr	r3, [r3]
 2239              		.loc 6 542 32
 2240 0022 03F44023 		and	r3, r3, #786432
 2241              		.loc 6 542 8
 2242 0026 B3F5802F 		cmp	r3, #262144
 2243 002a 2AD1     		bne	.L87
 2244              		.loc 6 543 23 discriminator 1
 2245 002c FB7B     		ldrb	r3, [r7, #15]	@ zero_extendqisi2
 2246 002e BA68     		ldr	r2, [r7, #8]
 2247 0030 5833     		adds	r3, r3, #88
 2248 0032 5B01     		lsls	r3, r3, #5
 2249 0034 1344     		add	r3, r3, r2
 2250 0036 1B68     		ldr	r3, [r3]
 2251              		.loc 6 542 76 discriminator 1
 2252 0038 002B     		cmp	r3, #0
 2253 003a 22DA     		bge	.L87
 2254              		.loc 6 553 7
 2255 003c 7B68     		ldr	r3, [r7, #4]
 2256 003e 5B89     		ldrh	r3, [r3, #10]
 2257 0040 1AB2     		sxth	r2, r3
 2258 0042 FB7B     		ldrb	r3, [r7, #15]	@ zero_extendqisi2
 2259 0044 0121     		movs	r1, #1
 2260 0046 01FA03F3 		lsl	r3, r1, r3
 2261 004a 1BB2     		sxth	r3, r3
 2262 004c DB43     		mvns	r3, r3
 2263 004e 1BB2     		sxth	r3, r3
 2264 0050 1340     		ands	r3, r3, r2
 2265 0052 1BB2     		sxth	r3, r3
 2266 0054 9AB2     		uxth	r2, r3
 2267 0056 7B68     		ldr	r3, [r7, #4]
 2268 0058 5A81     		strh	r2, [r3, #10]	@ movhi
 2269 005a FB7B     		ldrb	r3, [r7, #15]	@ zero_extendqisi2
 2270 005c 7A68     		ldr	r2, [r7, #4]
 2271 005e 0233     		adds	r3, r3, #2
 2272 0060 9B00     		lsls	r3, r3, #2
ARM GAS  C:\Users\DEVELO~1\AppData\Local\Temp\cc4r91NU.s 			page 41


 2273 0062 1344     		add	r3, r3, r2
 2274 0064 5B68     		ldr	r3, [r3, #4]
 2275 0066 DB68     		ldr	r3, [r3, #12]
 2276 0068 002B     		cmp	r3, #0
 2277 006a 0AD0     		beq	.L87
 2278              		.loc 6 553 7 is_stmt 0 discriminator 1
 2279 006c FB7B     		ldrb	r3, [r7, #15]	@ zero_extendqisi2
 2280 006e 7A68     		ldr	r2, [r7, #4]
 2281 0070 0233     		adds	r3, r3, #2
 2282 0072 9B00     		lsls	r3, r3, #2
 2283 0074 1344     		add	r3, r3, r2
 2284 0076 5B68     		ldr	r3, [r3, #4]
 2285 0078 DB68     		ldr	r3, [r3, #12]
 2286 007a FA7B     		ldrb	r2, [r7, #15]	@ zero_extendqisi2
 2287 007c 1146     		mov	r1, r2
 2288 007e 7868     		ldr	r0, [r7, #4]
 2289 0080 9847     		blx	r3
 2290              	.LVL4:
 2291              	.L87:
 2292              		.loc 6 541 56 is_stmt 1 discriminator 2
 2293 0082 FB7B     		ldrb	r3, [r7, #15]	@ zero_extendqisi2
 2294 0084 0133     		adds	r3, r3, #1
 2295 0086 FB73     		strb	r3, [r7, #15]
 2296              	.L86:
 2297              		.loc 6 541 19 discriminator 1
 2298 0088 FA7B     		ldrb	r2, [r7, #15]	@ zero_extendqisi2
 2299              		.loc 6 541 26 discriminator 1
 2300 008a 7B68     		ldr	r3, [r7, #4]
 2301 008c D3F89430 		ldr	r3, [r3, #148]
 2302              		.loc 6 541 37 discriminator 1
 2303 0090 9B68     		ldr	r3, [r3, #8]
 2304              		.loc 6 541 19 discriminator 1
 2305 0092 9A42     		cmp	r2, r3
 2306 0094 BFD9     		bls	.L88
 2307              		.loc 6 556 1
 2308 0096 00BF     		nop
 2309 0098 00BF     		nop
 2310 009a 1037     		adds	r7, r7, #16
 2311              		.cfi_def_cfa_offset 8
 2312 009c BD46     		mov	sp, r7
 2313              		.cfi_def_cfa_register 13
 2314              		@ sp needed
 2315 009e 80BD     		pop	{r7, pc}
 2316              		.cfi_endproc
 2317              	.LFE446:
 2318              		.size	otg_isoc_out_failed_handler, .-otg_isoc_out_failed_handler
 2319              		.section	.text.usb_lld_serve_interrupt,"ax",%progbits
 2320              		.align	1
 2321              		.syntax unified
 2322              		.thumb
 2323              		.thumb_func
 2324              		.type	usb_lld_serve_interrupt, %function
 2325              	usb_lld_serve_interrupt:
 2326              	.LFB447:
 2327              		.loc 6 565 54
 2328              		.cfi_startproc
 2329              		@ args = 0, pretend = 0, frame = 24
ARM GAS  C:\Users\DEVELO~1\AppData\Local\Temp\cc4r91NU.s 			page 42


 2330              		@ frame_needed = 1, uses_anonymous_args = 0
 2331 0000 80B5     		push	{r7, lr}
 2332              		.cfi_def_cfa_offset 8
 2333              		.cfi_offset 7, -8
 2334              		.cfi_offset 14, -4
 2335 0002 86B0     		sub	sp, sp, #24
 2336              		.cfi_def_cfa_offset 32
 2337 0004 00AF     		add	r7, sp, #0
 2338              		.cfi_def_cfa_register 7
 2339 0006 7860     		str	r0, [r7, #4]
 2340              		.loc 6 566 16
 2341 0008 7B68     		ldr	r3, [r7, #4]
 2342 000a D3F89030 		ldr	r3, [r3, #144]
 2343 000e 3B61     		str	r3, [r7, #16]
 2344              		.loc 6 568 12
 2345 0010 4023     		movs	r3, #64
 2346 0012 7B61     		str	r3, [r7, #20]
 2347              	.L90:
 2348              		.loc 6 572 8
 2349 0014 3B69     		ldr	r3, [r7, #16]
 2350 0016 5B69     		ldr	r3, [r3, #20]
 2351 0018 FB60     		str	r3, [r7, #12]
 2352              		.loc 6 573 14
 2353 001a 3B69     		ldr	r3, [r7, #16]
 2354 001c 9B69     		ldr	r3, [r3, #24]
 2355              		.loc 6 573 7
 2356 001e FA68     		ldr	r2, [r7, #12]
 2357 0020 1340     		ands	r3, r3, r2
 2358 0022 FB60     		str	r3, [r7, #12]
 2359              		.loc 6 574 17
 2360 0024 3B69     		ldr	r3, [r7, #16]
 2361 0026 FA68     		ldr	r2, [r7, #12]
 2362 0028 5A61     		str	r2, [r3, #20]
 2363              		.loc 6 577 11
 2364 002a FB68     		ldr	r3, [r7, #12]
 2365 002c 03F48053 		and	r3, r3, #4096
 2366              		.loc 6 577 6
 2367 0030 002B     		cmp	r3, #0
 2368 0032 03D0     		beq	.L91
 2369              		.loc 6 579 5
 2370 0034 7868     		ldr	r0, [r7, #4]
 2371 0036 FFF7FEFF 		bl	_usb_reset
 2372              		.loc 6 582 5
 2373 003a 47E1     		b	.L89
 2374              	.L91:
 2375              		.loc 6 586 7
 2376 003c FB68     		ldr	r3, [r7, #12]
 2377              		.loc 6 586 6
 2378 003e 002B     		cmp	r3, #0
 2379 0040 1CDA     		bge	.L93
 2380              		.loc 6 589 13
 2381 0042 3B69     		ldr	r3, [r7, #16]
 2382 0044 D3F8003E 		ldr	r3, [r3, #3584]
 2383              		.loc 6 589 23
 2384 0048 03F00303 		and	r3, r3, #3
 2385              		.loc 6 589 8
 2386 004c 002B     		cmp	r3, #0
ARM GAS  C:\Users\DEVELO~1\AppData\Local\Temp\cc4r91NU.s 			page 43


 2387 004e 07D0     		beq	.L94
 2388              		.loc 6 591 21
 2389 0050 3B69     		ldr	r3, [r7, #16]
 2390 0052 D3F8003E 		ldr	r3, [r3, #3584]
 2391 0056 23F00302 		bic	r2, r3, #3
 2392 005a 3B69     		ldr	r3, [r7, #16]
 2393 005c C3F8002E 		str	r2, [r3, #3584]
 2394              	.L94:
 2395              		.loc 6 595 5
 2396 0060 7868     		ldr	r0, [r7, #4]
 2397 0062 FFF7FEFF 		bl	otg_enable_ep
 2398              		.loc 6 598 16
 2399 0066 3B69     		ldr	r3, [r7, #16]
 2400 0068 D3F80438 		ldr	r3, [r3, #2052]
 2401 006c 23F00102 		bic	r2, r3, #1
 2402 0070 3B69     		ldr	r3, [r7, #16]
 2403 0072 C3F80428 		str	r2, [r3, #2052]
 2404              		.loc 6 600 5
 2405 0076 7868     		ldr	r0, [r7, #4]
 2406 0078 FFF7FEFF 		bl	_usb_wakeup
 2407              	.L93:
 2408              		.loc 6 604 11
 2409 007c FB68     		ldr	r3, [r7, #12]
 2410 007e 03F40063 		and	r3, r3, #2048
 2411              		.loc 6 604 6
 2412 0082 002B     		cmp	r3, #0
 2413 0084 05D0     		beq	.L95
 2414              		.loc 6 606 5
 2415 0086 7868     		ldr	r0, [r7, #4]
 2416 0088 FFF7FEFF 		bl	otg_disable_ep
 2417              		.loc 6 609 5
 2418 008c 7868     		ldr	r0, [r7, #4]
 2419 008e FFF7FEFF 		bl	_usb_suspend
 2420              	.L95:
 2421              		.loc 6 613 11
 2422 0092 FB68     		ldr	r3, [r7, #12]
 2423 0094 03F40053 		and	r3, r3, #8192
 2424              		.loc 6 613 6
 2425 0098 002B     		cmp	r3, #0
 2426 009a 17D0     		beq	.L96
 2427              		.loc 6 615 14
 2428 009c 3B69     		ldr	r3, [r7, #16]
 2429 009e D3F80838 		ldr	r3, [r3, #2056]
 2430              		.loc 6 615 21
 2431 00a2 03F00603 		and	r3, r3, #6
 2432              		.loc 6 615 8
 2433 00a6 002B     		cmp	r3, #0
 2434 00a8 08D1     		bne	.L97
 2435              		.loc 6 616 28
 2436 00aa 3B69     		ldr	r3, [r7, #16]
 2437 00ac DB68     		ldr	r3, [r3, #12]
 2438              		.loc 6 616 38
 2439 00ae 23F47053 		bic	r3, r3, #15360
 2440              		.loc 6 616 62
 2441 00b2 43F41052 		orr	r2, r3, #9216
 2442              		.loc 6 616 21
 2443 00b6 3B69     		ldr	r3, [r7, #16]
ARM GAS  C:\Users\DEVELO~1\AppData\Local\Temp\cc4r91NU.s 			page 44


 2444 00b8 DA60     		str	r2, [r3, #12]
 2445 00ba 07E0     		b	.L96
 2446              	.L97:
 2447              		.loc 6 620 28
 2448 00bc 3B69     		ldr	r3, [r7, #16]
 2449 00be DB68     		ldr	r3, [r3, #12]
 2450              		.loc 6 620 38
 2451 00c0 23F47053 		bic	r3, r3, #15360
 2452              		.loc 6 620 62
 2453 00c4 43F4A052 		orr	r2, r3, #5120
 2454              		.loc 6 620 21
 2455 00c8 3B69     		ldr	r3, [r7, #16]
 2456 00ca DA60     		str	r2, [r3, #12]
 2457              	.L96:
 2458              		.loc 6 626 11
 2459 00cc FB68     		ldr	r3, [r7, #12]
 2460 00ce 03F00803 		and	r3, r3, #8
 2461              		.loc 6 626 6
 2462 00d2 002B     		cmp	r3, #0
 2463 00d4 26D0     		beq	.L98
 2464              		.loc 6 629 13
 2465 00d6 7B68     		ldr	r3, [r7, #4]
 2466 00d8 5B68     		ldr	r3, [r3, #4]
 2467              		.loc 6 629 21
 2468 00da DB68     		ldr	r3, [r3, #12]
 2469              		.loc 6 629 8
 2470 00dc 002B     		cmp	r3, #0
 2471 00de 05D1     		bne	.L99
 2472              		.loc 6 630 21
 2473 00e0 3B69     		ldr	r3, [r7, #16]
 2474 00e2 9B69     		ldr	r3, [r3, #24]
 2475 00e4 23F00802 		bic	r2, r3, #8
 2476 00e8 3B69     		ldr	r3, [r7, #16]
 2477 00ea 9A61     		str	r2, [r3, #24]
 2478              	.L99:
 2479              		.loc 6 632 13
 2480 00ec 7B68     		ldr	r3, [r7, #4]
 2481 00ee 1B78     		ldrb	r3, [r3]	@ zero_extendqisi2
 2482              		.loc 6 632 8
 2483 00f0 052B     		cmp	r3, #5
 2484 00f2 0AD1     		bne	.L100
 2485              		.loc 6 634 21
 2486 00f4 3B69     		ldr	r3, [r7, #16]
 2487 00f6 D3F8003E 		ldr	r3, [r3, #3584]
 2488 00fa 23F00302 		bic	r2, r3, #3
 2489 00fe 3B69     		ldr	r3, [r7, #16]
 2490 0100 C3F8002E 		str	r2, [r3, #3584]
 2491              		.loc 6 635 7
 2492 0104 7868     		ldr	r0, [r7, #4]
 2493 0106 FFF7FEFF 		bl	_usb_wakeup
 2494              	.L100:
 2495              		.loc 6 639 5
 2496 010a 7868     		ldr	r0, [r7, #4]
 2497 010c FFF7FEFF 		bl	otg_enable_ep
 2498              		.loc 6 641 5
 2499 0110 7B68     		ldr	r3, [r7, #4]
 2500 0112 5B68     		ldr	r3, [r3, #4]
ARM GAS  C:\Users\DEVELO~1\AppData\Local\Temp\cc4r91NU.s 			page 45


 2501 0114 DB68     		ldr	r3, [r3, #12]
 2502 0116 002B     		cmp	r3, #0
 2503 0118 04D0     		beq	.L98
 2504              		.loc 6 641 5 is_stmt 0 discriminator 1
 2505 011a 7B68     		ldr	r3, [r7, #4]
 2506 011c 5B68     		ldr	r3, [r3, #4]
 2507 011e DB68     		ldr	r3, [r3, #12]
 2508 0120 7868     		ldr	r0, [r7, #4]
 2509 0122 9847     		blx	r3
 2510              	.LVL5:
 2511              	.L98:
 2512              		.loc 6 645 11 is_stmt 1
 2513 0124 FB68     		ldr	r3, [r7, #12]
 2514 0126 03F48013 		and	r3, r3, #1048576
 2515              		.loc 6 645 6
 2516 012a 002B     		cmp	r3, #0
 2517 012c 02D0     		beq	.L101
 2518              		.loc 6 646 5
 2519 012e 7868     		ldr	r0, [r7, #4]
 2520 0130 FFF7FEFF 		bl	otg_isoc_in_failed_handler
 2521              	.L101:
 2522              		.loc 6 650 11
 2523 0134 FB68     		ldr	r3, [r7, #12]
 2524 0136 03F40013 		and	r3, r3, #2097152
 2525              		.loc 6 650 6
 2526 013a 002B     		cmp	r3, #0
 2527 013c 02D0     		beq	.L102
 2528              		.loc 6 651 5
 2529 013e 7868     		ldr	r0, [r7, #4]
 2530 0140 FFF7FEFF 		bl	otg_isoc_out_failed_handler
 2531              	.L102:
 2532              		.loc 6 655 7
 2533 0144 3B69     		ldr	r3, [r7, #16]
 2534 0146 D3F81838 		ldr	r3, [r3, #2072]
 2535 014a BB60     		str	r3, [r7, #8]
 2536              		.loc 6 656 11
 2537 014c FB68     		ldr	r3, [r7, #12]
 2538 014e 03F40023 		and	r3, r3, #524288
 2539              		.loc 6 656 6
 2540 0152 002B     		cmp	r3, #0
 2541 0154 50D0     		beq	.L103
 2542              		.loc 6 657 13
 2543 0156 BB68     		ldr	r3, [r7, #8]
 2544 0158 03F48033 		and	r3, r3, #65536
 2545              		.loc 6 657 8
 2546 015c 002B     		cmp	r3, #0
 2547 015e 03D0     		beq	.L104
 2548              		.loc 6 658 7
 2549 0160 0021     		movs	r1, #0
 2550 0162 7868     		ldr	r0, [r7, #4]
 2551 0164 FFF7FEFF 		bl	otg_epout_handler
 2552              	.L104:
 2553              		.loc 6 659 13
 2554 0168 BB68     		ldr	r3, [r7, #8]
 2555 016a 03F40033 		and	r3, r3, #131072
 2556              		.loc 6 659 8
 2557 016e 002B     		cmp	r3, #0
ARM GAS  C:\Users\DEVELO~1\AppData\Local\Temp\cc4r91NU.s 			page 46


 2558 0170 03D0     		beq	.L105
 2559              		.loc 6 660 7
 2560 0172 0121     		movs	r1, #1
 2561 0174 7868     		ldr	r0, [r7, #4]
 2562 0176 FFF7FEFF 		bl	otg_epout_handler
 2563              	.L105:
 2564              		.loc 6 661 13
 2565 017a BB68     		ldr	r3, [r7, #8]
 2566 017c 03F48023 		and	r3, r3, #262144
 2567              		.loc 6 661 8
 2568 0180 002B     		cmp	r3, #0
 2569 0182 03D0     		beq	.L106
 2570              		.loc 6 662 7
 2571 0184 0221     		movs	r1, #2
 2572 0186 7868     		ldr	r0, [r7, #4]
 2573 0188 FFF7FEFF 		bl	otg_epout_handler
 2574              	.L106:
 2575              		.loc 6 663 13
 2576 018c BB68     		ldr	r3, [r7, #8]
 2577 018e 03F40023 		and	r3, r3, #524288
 2578              		.loc 6 663 8
 2579 0192 002B     		cmp	r3, #0
 2580 0194 03D0     		beq	.L107
 2581              		.loc 6 664 7
 2582 0196 0321     		movs	r1, #3
 2583 0198 7868     		ldr	r0, [r7, #4]
 2584 019a FFF7FEFF 		bl	otg_epout_handler
 2585              	.L107:
 2586              		.loc 6 666 13
 2587 019e BB68     		ldr	r3, [r7, #8]
 2588 01a0 03F48013 		and	r3, r3, #1048576
 2589              		.loc 6 666 8
 2590 01a4 002B     		cmp	r3, #0
 2591 01a6 03D0     		beq	.L108
 2592              		.loc 6 667 7
 2593 01a8 0421     		movs	r1, #4
 2594 01aa 7868     		ldr	r0, [r7, #4]
 2595 01ac FFF7FEFF 		bl	otg_epout_handler
 2596              	.L108:
 2597              		.loc 6 670 13
 2598 01b0 BB68     		ldr	r3, [r7, #8]
 2599 01b2 03F40013 		and	r3, r3, #2097152
 2600              		.loc 6 670 8
 2601 01b6 002B     		cmp	r3, #0
 2602 01b8 03D0     		beq	.L109
 2603              		.loc 6 671 7
 2604 01ba 0521     		movs	r1, #5
 2605 01bc 7868     		ldr	r0, [r7, #4]
 2606 01be FFF7FEFF 		bl	otg_epout_handler
 2607              	.L109:
 2608              		.loc 6 674 13
 2609 01c2 BB68     		ldr	r3, [r7, #8]
 2610 01c4 03F48003 		and	r3, r3, #4194304
 2611              		.loc 6 674 8
 2612 01c8 002B     		cmp	r3, #0
 2613 01ca 03D0     		beq	.L110
 2614              		.loc 6 675 7
ARM GAS  C:\Users\DEVELO~1\AppData\Local\Temp\cc4r91NU.s 			page 47


 2615 01cc 0621     		movs	r1, #6
 2616 01ce 7868     		ldr	r0, [r7, #4]
 2617 01d0 FFF7FEFF 		bl	otg_epout_handler
 2618              	.L110:
 2619              		.loc 6 678 13
 2620 01d4 BB68     		ldr	r3, [r7, #8]
 2621 01d6 03F40003 		and	r3, r3, #8388608
 2622              		.loc 6 678 8
 2623 01da 002B     		cmp	r3, #0
 2624 01dc 03D0     		beq	.L111
 2625              		.loc 6 679 7
 2626 01de 0721     		movs	r1, #7
 2627 01e0 7868     		ldr	r0, [r7, #4]
 2628 01e2 FFF7FEFF 		bl	otg_epout_handler
 2629              	.L111:
 2630              		.loc 6 682 13
 2631 01e6 BB68     		ldr	r3, [r7, #8]
 2632 01e8 03F08073 		and	r3, r3, #16777216
 2633              		.loc 6 682 8
 2634 01ec 002B     		cmp	r3, #0
 2635 01ee 03D0     		beq	.L103
 2636              		.loc 6 683 7
 2637 01f0 0821     		movs	r1, #8
 2638 01f2 7868     		ldr	r0, [r7, #4]
 2639 01f4 FFF7FEFF 		bl	otg_epout_handler
 2640              	.L103:
 2641              		.loc 6 686 11
 2642 01f8 FB68     		ldr	r3, [r7, #12]
 2643 01fa 03F48023 		and	r3, r3, #262144
 2644              		.loc 6 686 6
 2645 01fe 002B     		cmp	r3, #0
 2646 0200 50D0     		beq	.L112
 2647              		.loc 6 687 13
 2648 0202 BB68     		ldr	r3, [r7, #8]
 2649 0204 03F00103 		and	r3, r3, #1
 2650              		.loc 6 687 8
 2651 0208 002B     		cmp	r3, #0
 2652 020a 03D0     		beq	.L113
 2653              		.loc 6 688 7
 2654 020c 0021     		movs	r1, #0
 2655 020e 7868     		ldr	r0, [r7, #4]
 2656 0210 FFF7FEFF 		bl	otg_epin_handler
 2657              	.L113:
 2658              		.loc 6 689 13
 2659 0214 BB68     		ldr	r3, [r7, #8]
 2660 0216 03F00203 		and	r3, r3, #2
 2661              		.loc 6 689 8
 2662 021a 002B     		cmp	r3, #0
 2663 021c 03D0     		beq	.L114
 2664              		.loc 6 690 7
 2665 021e 0121     		movs	r1, #1
 2666 0220 7868     		ldr	r0, [r7, #4]
 2667 0222 FFF7FEFF 		bl	otg_epin_handler
 2668              	.L114:
 2669              		.loc 6 691 13
 2670 0226 BB68     		ldr	r3, [r7, #8]
 2671 0228 03F00403 		and	r3, r3, #4
ARM GAS  C:\Users\DEVELO~1\AppData\Local\Temp\cc4r91NU.s 			page 48


 2672              		.loc 6 691 8
 2673 022c 002B     		cmp	r3, #0
 2674 022e 03D0     		beq	.L115
 2675              		.loc 6 692 7
 2676 0230 0221     		movs	r1, #2
 2677 0232 7868     		ldr	r0, [r7, #4]
 2678 0234 FFF7FEFF 		bl	otg_epin_handler
 2679              	.L115:
 2680              		.loc 6 693 13
 2681 0238 BB68     		ldr	r3, [r7, #8]
 2682 023a 03F00803 		and	r3, r3, #8
 2683              		.loc 6 693 8
 2684 023e 002B     		cmp	r3, #0
 2685 0240 03D0     		beq	.L116
 2686              		.loc 6 694 7
 2687 0242 0321     		movs	r1, #3
 2688 0244 7868     		ldr	r0, [r7, #4]
 2689 0246 FFF7FEFF 		bl	otg_epin_handler
 2690              	.L116:
 2691              		.loc 6 696 13
 2692 024a BB68     		ldr	r3, [r7, #8]
 2693 024c 03F01003 		and	r3, r3, #16
 2694              		.loc 6 696 8
 2695 0250 002B     		cmp	r3, #0
 2696 0252 03D0     		beq	.L117
 2697              		.loc 6 697 7
 2698 0254 0421     		movs	r1, #4
 2699 0256 7868     		ldr	r0, [r7, #4]
 2700 0258 FFF7FEFF 		bl	otg_epin_handler
 2701              	.L117:
 2702              		.loc 6 700 13
 2703 025c BB68     		ldr	r3, [r7, #8]
 2704 025e 03F02003 		and	r3, r3, #32
 2705              		.loc 6 700 8
 2706 0262 002B     		cmp	r3, #0
 2707 0264 03D0     		beq	.L118
 2708              		.loc 6 701 7
 2709 0266 0521     		movs	r1, #5
 2710 0268 7868     		ldr	r0, [r7, #4]
 2711 026a FFF7FEFF 		bl	otg_epin_handler
 2712              	.L118:
 2713              		.loc 6 704 13
 2714 026e BB68     		ldr	r3, [r7, #8]
 2715 0270 03F04003 		and	r3, r3, #64
 2716              		.loc 6 704 8
 2717 0274 002B     		cmp	r3, #0
 2718 0276 03D0     		beq	.L119
 2719              		.loc 6 705 7
 2720 0278 0621     		movs	r1, #6
 2721 027a 7868     		ldr	r0, [r7, #4]
 2722 027c FFF7FEFF 		bl	otg_epin_handler
 2723              	.L119:
 2724              		.loc 6 708 13
 2725 0280 BB68     		ldr	r3, [r7, #8]
 2726 0282 03F08003 		and	r3, r3, #128
 2727              		.loc 6 708 8
 2728 0286 002B     		cmp	r3, #0
ARM GAS  C:\Users\DEVELO~1\AppData\Local\Temp\cc4r91NU.s 			page 49


 2729 0288 03D0     		beq	.L120
 2730              		.loc 6 709 7
 2731 028a 0721     		movs	r1, #7
 2732 028c 7868     		ldr	r0, [r7, #4]
 2733 028e FFF7FEFF 		bl	otg_epin_handler
 2734              	.L120:
 2735              		.loc 6 712 13
 2736 0292 BB68     		ldr	r3, [r7, #8]
 2737 0294 03F48073 		and	r3, r3, #256
 2738              		.loc 6 712 8
 2739 0298 002B     		cmp	r3, #0
 2740 029a 03D0     		beq	.L112
 2741              		.loc 6 713 7
 2742 029c 0821     		movs	r1, #8
 2743 029e 7868     		ldr	r0, [r7, #4]
 2744 02a0 FFF7FEFF 		bl	otg_epin_handler
 2745              	.L112:
 2746              		.loc 6 719 12
 2747 02a4 FB68     		ldr	r3, [r7, #12]
 2748 02a6 03F01003 		and	r3, r3, #16
 2749              		.loc 6 719 6
 2750 02aa 002B     		cmp	r3, #0
 2751 02ac 02D0     		beq	.L121
 2752              		.loc 6 720 5
 2753 02ae 7868     		ldr	r0, [r7, #4]
 2754 02b0 FFF7FEFF 		bl	otg_rxfifo_handler
 2755              	.L121:
 2756              		.loc 6 723 12
 2757 02b4 FA68     		ldr	r2, [r7, #12]
 2758 02b6 074B     		ldr	r3, .L122
 2759 02b8 1340     		ands	r3, r3, r2
 2760              		.loc 6 723 6
 2761 02ba 002B     		cmp	r3, #0
 2762 02bc 06D0     		beq	.L89
 2763              		.loc 6 723 30 discriminator 1
 2764 02be 7B69     		ldr	r3, [r7, #20]
 2765 02c0 013B     		subs	r3, r3, #1
 2766 02c2 7B61     		str	r3, [r7, #20]
 2767 02c4 7B69     		ldr	r3, [r7, #20]
 2768 02c6 002B     		cmp	r3, #0
 2769 02c8 00D0     		beq	.L89
 2770              		.loc 6 724 5
 2771 02ca A3E6     		b	.L90
 2772              	.L89:
 2773              		.loc 6 725 1
 2774 02cc 1837     		adds	r7, r7, #24
 2775              		.cfi_def_cfa_offset 8
 2776 02ce BD46     		mov	sp, r7
 2777              		.cfi_def_cfa_register 13
 2778              		@ sp needed
 2779 02d0 80BD     		pop	{r7, pc}
 2780              	.L123:
 2781 02d2 00BF     		.align	2
 2782              	.L122:
 2783 02d4 30000004 		.word	67108912
 2784              		.cfi_endproc
 2785              	.LFE447:
ARM GAS  C:\Users\DEVELO~1\AppData\Local\Temp\cc4r91NU.s 			page 50


 2786              		.size	usb_lld_serve_interrupt, .-usb_lld_serve_interrupt
 2787              		.section	.text.Vector1D4,"ax",%progbits
 2788              		.align	1
 2789              		.global	Vector1D4
 2790              		.syntax unified
 2791              		.thumb
 2792              		.thumb_func
 2793              		.type	Vector1D4, %function
 2794              	Vector1D4:
 2795              	.LFB448:
 2796              		.loc 6 737 38
 2797              		.cfi_startproc
 2798              		@ args = 0, pretend = 0, frame = 0
 2799              		@ frame_needed = 1, uses_anonymous_args = 0
 2800 0000 80B5     		push	{r7, lr}
 2801              		.cfi_def_cfa_offset 8
 2802              		.cfi_offset 7, -8
 2803              		.cfi_offset 14, -4
 2804 0002 00AF     		add	r7, sp, #0
 2805              		.cfi_def_cfa_register 7
 2806              		.loc 6 739 3
 2807 0004 0648     		ldr	r0, .L125
 2808 0006 FFF7FEFF 		bl	__trace_isr_enter
 2809              		.loc 6 741 3
 2810 000a 0648     		ldr	r0, .L125+4
 2811 000c FFF7FEFF 		bl	usb_lld_serve_interrupt
 2812              		.loc 6 743 3
 2813 0010 0348     		ldr	r0, .L125
 2814 0012 FFF7FEFF 		bl	__trace_isr_leave
 2815 0016 FFF7FEFF 		bl	__port_irq_epilogue
 2816              		.loc 6 744 1
 2817 001a 00BF     		nop
 2818 001c 80BD     		pop	{r7, pc}
 2819              	.L126:
 2820 001e 00BF     		.align	2
 2821              	.L125:
 2822 0020 00000000 		.word	__func__.0
 2823 0024 00000000 		.word	USBD1
 2824              		.cfi_endproc
 2825              	.LFE448:
 2826              		.size	Vector1D4, .-Vector1D4
 2827              		.section	.text.usb_lld_init,"ax",%progbits
 2828              		.align	1
 2829              		.global	usb_lld_init
 2830              		.syntax unified
 2831              		.thumb
 2832              		.thumb_func
 2833              		.type	usb_lld_init, %function
 2834              	usb_lld_init:
 2835              	.LFB449:
 2836              		.loc 6 772 25
 2837              		.cfi_startproc
 2838              		@ args = 0, pretend = 0, frame = 0
 2839              		@ frame_needed = 1, uses_anonymous_args = 0
 2840 0000 80B5     		push	{r7, lr}
 2841              		.cfi_def_cfa_offset 8
 2842              		.cfi_offset 7, -8
ARM GAS  C:\Users\DEVELO~1\AppData\Local\Temp\cc4r91NU.s 			page 51


 2843              		.cfi_offset 14, -4
 2844 0002 00AF     		add	r7, sp, #0
 2845              		.cfi_def_cfa_register 7
 2846              		.loc 6 776 3
 2847 0004 0648     		ldr	r0, .L128
 2848 0006 FFF7FEFF 		bl	usbObjectInit
 2849              		.loc 6 777 19
 2850 000a 054B     		ldr	r3, .L128
 2851 000c 054A     		ldr	r2, .L128+4
 2852 000e C3F89020 		str	r2, [r3, #144]
 2853              		.loc 6 778 19
 2854 0012 034B     		ldr	r3, .L128
 2855 0014 044A     		ldr	r2, .L128+8
 2856 0016 C3F89420 		str	r2, [r3, #148]
 2857              		.loc 6 787 1
 2858 001a 00BF     		nop
 2859 001c 80BD     		pop	{r7, pc}
 2860              	.L129:
 2861 001e 00BF     		.align	2
 2862              	.L128:
 2863 0020 00000000 		.word	USBD1
 2864 0024 00000840 		.word	1074266112
 2865 0028 00000000 		.word	fsparams
 2866              		.cfi_endproc
 2867              	.LFE449:
 2868              		.size	usb_lld_init, .-usb_lld_init
 2869              		.section	.text.usb_lld_start,"ax",%progbits
 2870              		.align	1
 2871              		.global	usb_lld_start
 2872              		.syntax unified
 2873              		.thumb
 2874              		.thumb_func
 2875              		.type	usb_lld_start, %function
 2876              	usb_lld_start:
 2877              	.LFB450:
 2878              		.loc 6 799 37
 2879              		.cfi_startproc
 2880              		@ args = 0, pretend = 0, frame = 16
 2881              		@ frame_needed = 1, uses_anonymous_args = 0
 2882 0000 80B5     		push	{r7, lr}
 2883              		.cfi_def_cfa_offset 8
 2884              		.cfi_offset 7, -8
 2885              		.cfi_offset 14, -4
 2886 0002 84B0     		sub	sp, sp, #16
 2887              		.cfi_def_cfa_offset 24
 2888 0004 00AF     		add	r7, sp, #0
 2889              		.cfi_def_cfa_register 7
 2890 0006 7860     		str	r0, [r7, #4]
 2891              		.loc 6 800 16
 2892 0008 7B68     		ldr	r3, [r7, #4]
 2893 000a D3F89030 		ldr	r3, [r3, #144]
 2894 000e FB60     		str	r3, [r7, #12]
 2895              		.loc 6 802 11
 2896 0010 7B68     		ldr	r3, [r7, #4]
 2897 0012 1B78     		ldrb	r3, [r3]	@ zero_extendqisi2
 2898              		.loc 6 802 6
 2899 0014 012B     		cmp	r3, #1
ARM GAS  C:\Users\DEVELO~1\AppData\Local\Temp\cc4r91NU.s 			page 52


 2900 0016 4DD1     		bne	.L135
 2901              		.loc 6 806 8
 2902 0018 7B68     		ldr	r3, [r7, #4]
 2903 001a 284A     		ldr	r2, .L136
 2904 001c 9342     		cmp	r3, r2
 2905 001e 13D1     		bne	.L132
 2906              		.loc 6 808 7
 2907 0020 0121     		movs	r1, #1
 2908 0022 4FF00060 		mov	r0, #134217728
 2909 0026 FFF7FEFF 		bl	rccEnableAHB1
 2910              		.loc 6 809 7
 2911 002a 4FF00060 		mov	r0, #134217728
 2912 002e FFF7FEFF 		bl	rccResetAHB1
 2913              		.loc 6 812 7
 2914 0032 0E21     		movs	r1, #14
 2915 0034 6520     		movs	r0, #101
 2916 0036 FFF7FEFF 		bl	nvicEnableVector
 2917              		.loc 6 817 21
 2918 003a FB68     		ldr	r3, [r7, #12]
 2919 003c 204A     		ldr	r2, .L136+4
 2920 003e DA60     		str	r2, [r3, #12]
 2921              		.loc 6 821 18
 2922 0040 FB68     		ldr	r3, [r7, #12]
 2923 0042 204A     		ldr	r2, .L136+8
 2924 0044 C3F80028 		str	r2, [r3, #2048]
 2925              	.L132:
 2926              		.loc 6 871 19
 2927 0048 FB68     		ldr	r3, [r7, #12]
 2928 004a 0022     		movs	r2, #0
 2929 004c C3F8002E 		str	r2, [r3, #3584]
 2930              		.loc 6 874 19
 2931 0050 FB68     		ldr	r3, [r7, #12]
 2932 0052 C022     		movs	r2, #192
 2933 0054 1A60     		str	r2, [r3]
 2934              		.loc 6 889 17
 2935 0056 FB68     		ldr	r3, [r7, #12]
 2936 0058 4FF40412 		mov	r2, #2162688
 2937 005c 9A63     		str	r2, [r3, #56]
 2938              		.loc 6 893 5
 2939 005e 7868     		ldr	r0, [r7, #4]
 2940 0060 FFF7FEFF 		bl	otg_core_reset
 2941              		.loc 6 896 19
 2942 0064 FB68     		ldr	r3, [r7, #12]
 2943 0066 0022     		movs	r2, #0
 2944 0068 9A60     		str	r2, [r3, #8]
 2945              		.loc 6 899 5
 2946 006a 7868     		ldr	r0, [r7, #4]
 2947 006c FFF7FEFF 		bl	otg_disable_ep
 2948              		.loc 6 903 20
 2949 0070 FB68     		ldr	r3, [r7, #12]
 2950 0072 0022     		movs	r2, #0
 2951 0074 C3F81028 		str	r2, [r3, #2064]
 2952              		.loc 6 904 20
 2953 0078 FB68     		ldr	r3, [r7, #12]
 2954 007a 0022     		movs	r2, #0
 2955 007c C3F81428 		str	r2, [r3, #2068]
 2956              		.loc 6 905 20
ARM GAS  C:\Users\DEVELO~1\AppData\Local\Temp\cc4r91NU.s 			page 53


 2957 0080 FB68     		ldr	r3, [r7, #12]
 2958 0082 0022     		movs	r2, #0
 2959 0084 C3F81C28 		str	r2, [r3, #2076]
 2960              		.loc 6 906 13
 2961 0088 7B68     		ldr	r3, [r7, #4]
 2962 008a 5B68     		ldr	r3, [r3, #4]
 2963              		.loc 6 906 21
 2964 008c DB68     		ldr	r3, [r3, #12]
 2965              		.loc 6 906 8
 2966 008e 002B     		cmp	r3, #0
 2967 0090 03D1     		bne	.L133
 2968              		.loc 6 907 22
 2969 0092 FB68     		ldr	r3, [r7, #12]
 2970 0094 0C4A     		ldr	r2, .L136+12
 2971 0096 9A61     		str	r2, [r3, #24]
 2972 0098 02E0     		b	.L134
 2973              	.L133:
 2974              		.loc 6 911 22
 2975 009a FB68     		ldr	r3, [r7, #12]
 2976 009c 0B4A     		ldr	r2, .L136+16
 2977 009e 9A61     		str	r2, [r3, #24]
 2978              	.L134:
 2979              		.loc 6 917 20
 2980 00a0 FB68     		ldr	r3, [r7, #12]
 2981 00a2 4FF0FF32 		mov	r2, #-1
 2982 00a6 5A61     		str	r2, [r3, #20]
 2983              		.loc 6 920 19
 2984 00a8 FB68     		ldr	r3, [r7, #12]
 2985 00aa 9B68     		ldr	r3, [r3, #8]
 2986 00ac 43F00102 		orr	r2, r3, #1
 2987 00b0 FB68     		ldr	r3, [r7, #12]
 2988 00b2 9A60     		str	r2, [r3, #8]
 2989              	.L135:
 2990              		.loc 6 922 1
 2991 00b4 00BF     		nop
 2992 00b6 1037     		adds	r7, r7, #16
 2993              		.cfi_def_cfa_offset 8
 2994 00b8 BD46     		mov	sp, r7
 2995              		.cfi_def_cfa_register 13
 2996              		@ sp needed
 2997 00ba 80BD     		pop	{r7, pc}
 2998              	.L137:
 2999              		.align	2
 3000              	.L136:
 3001 00bc 00000000 		.word	USBD1
 3002 00c0 40140040 		.word	1073747008
 3003 00c4 03002002 		.word	35651587
 3004 00c8 003C30C0 		.word	-1070580736
 3005 00cc 083C30C0 		.word	-1070580728
 3006              		.cfi_endproc
 3007              	.LFE450:
 3008              		.size	usb_lld_start, .-usb_lld_start
 3009              		.section	.text.usb_lld_stop,"ax",%progbits
 3010              		.align	1
 3011              		.global	usb_lld_stop
 3012              		.syntax unified
 3013              		.thumb
ARM GAS  C:\Users\DEVELO~1\AppData\Local\Temp\cc4r91NU.s 			page 54


 3014              		.thumb_func
 3015              		.type	usb_lld_stop, %function
 3016              	usb_lld_stop:
 3017              	.LFB451:
 3018              		.loc 6 931 36
 3019              		.cfi_startproc
 3020              		@ args = 0, pretend = 0, frame = 16
 3021              		@ frame_needed = 1, uses_anonymous_args = 0
 3022 0000 80B5     		push	{r7, lr}
 3023              		.cfi_def_cfa_offset 8
 3024              		.cfi_offset 7, -8
 3025              		.cfi_offset 14, -4
 3026 0002 84B0     		sub	sp, sp, #16
 3027              		.cfi_def_cfa_offset 24
 3028 0004 00AF     		add	r7, sp, #0
 3029              		.cfi_def_cfa_register 7
 3030 0006 7860     		str	r0, [r7, #4]
 3031              		.loc 6 932 16
 3032 0008 7B68     		ldr	r3, [r7, #4]
 3033 000a D3F89030 		ldr	r3, [r3, #144]
 3034 000e FB60     		str	r3, [r7, #12]
 3035              		.loc 6 935 11
 3036 0010 7B68     		ldr	r3, [r7, #4]
 3037 0012 1B78     		ldrb	r3, [r3]	@ zero_extendqisi2
 3038              		.loc 6 935 6
 3039 0014 012B     		cmp	r3, #1
 3040 0016 17D0     		beq	.L140
 3041              		.loc 6 939 5
 3042 0018 7868     		ldr	r0, [r7, #4]
 3043 001a FFF7FEFF 		bl	otg_disable_ep
 3044              		.loc 6 941 22
 3045 001e FB68     		ldr	r3, [r7, #12]
 3046 0020 0022     		movs	r2, #0
 3047 0022 C3F81C28 		str	r2, [r3, #2076]
 3048              		.loc 6 942 22
 3049 0026 FB68     		ldr	r3, [r7, #12]
 3050 0028 0022     		movs	r2, #0
 3051 002a 9A60     		str	r2, [r3, #8]
 3052              		.loc 6 943 22
 3053 002c FB68     		ldr	r3, [r7, #12]
 3054 002e 0022     		movs	r2, #0
 3055 0030 9A63     		str	r2, [r3, #56]
 3056              		.loc 6 946 8
 3057 0032 7B68     		ldr	r3, [r7, #4]
 3058 0034 064A     		ldr	r2, .L141
 3059 0036 9342     		cmp	r3, r2
 3060 0038 06D1     		bne	.L140
 3061              		.loc 6 947 7
 3062 003a 6520     		movs	r0, #101
 3063 003c FFF7FEFF 		bl	nvicDisableVector
 3064              		.loc 6 948 7
 3065 0040 4FF00060 		mov	r0, #134217728
 3066 0044 FFF7FEFF 		bl	rccDisableAHB1
 3067              	.L140:
 3068              		.loc 6 962 1
 3069 0048 00BF     		nop
 3070 004a 1037     		adds	r7, r7, #16
ARM GAS  C:\Users\DEVELO~1\AppData\Local\Temp\cc4r91NU.s 			page 55


 3071              		.cfi_def_cfa_offset 8
 3072 004c BD46     		mov	sp, r7
 3073              		.cfi_def_cfa_register 13
 3074              		@ sp needed
 3075 004e 80BD     		pop	{r7, pc}
 3076              	.L142:
 3077              		.align	2
 3078              	.L141:
 3079 0050 00000000 		.word	USBD1
 3080              		.cfi_endproc
 3081              	.LFE451:
 3082              		.size	usb_lld_stop, .-usb_lld_stop
 3083              		.section	.text.usb_lld_reset,"ax",%progbits
 3084              		.align	1
 3085              		.global	usb_lld_reset
 3086              		.syntax unified
 3087              		.thumb
 3088              		.thumb_func
 3089              		.type	usb_lld_reset, %function
 3090              	usb_lld_reset:
 3091              	.LFB452:
 3092              		.loc 6 971 37
 3093              		.cfi_startproc
 3094              		@ args = 0, pretend = 0, frame = 16
 3095              		@ frame_needed = 1, uses_anonymous_args = 0
 3096 0000 90B5     		push	{r4, r7, lr}
 3097              		.cfi_def_cfa_offset 12
 3098              		.cfi_offset 4, -12
 3099              		.cfi_offset 7, -8
 3100              		.cfi_offset 14, -4
 3101 0002 85B0     		sub	sp, sp, #20
 3102              		.cfi_def_cfa_offset 32
 3103 0004 00AF     		add	r7, sp, #0
 3104              		.cfi_def_cfa_register 7
 3105 0006 7860     		str	r0, [r7, #4]
 3106              		.loc 6 973 16
 3107 0008 7B68     		ldr	r3, [r7, #4]
 3108 000a D3F89030 		ldr	r3, [r3, #144]
 3109 000e BB60     		str	r3, [r7, #8]
 3110              		.loc 6 976 3
 3111 0010 0021     		movs	r1, #0
 3112 0012 7868     		ldr	r0, [r7, #4]
 3113 0014 FFF7FEFF 		bl	otg_txfifo_flush
 3114              		.loc 6 979 20
 3115 0018 BB68     		ldr	r3, [r7, #8]
 3116 001a 0022     		movs	r2, #0
 3117 001c C3F83428 		str	r2, [r3, #2100]
 3118              		.loc 6 980 20
 3119 0020 BB68     		ldr	r3, [r7, #8]
 3120 0022 4FF00112 		mov	r2, #65537
 3121 0026 C3F81C28 		str	r2, [r3, #2076]
 3122              		.loc 6 983 10
 3123 002a 0023     		movs	r3, #0
 3124 002c FB60     		str	r3, [r7, #12]
 3125              		.loc 6 983 3
 3126 002e 24E0     		b	.L144
 3127              	.L145:
ARM GAS  C:\Users\DEVELO~1\AppData\Local\Temp\cc4r91NU.s 			page 56


 3128              		.loc 6 984 25 discriminator 3
 3129 0030 BA68     		ldr	r2, [r7, #8]
 3130 0032 FB68     		ldr	r3, [r7, #12]
 3131 0034 4833     		adds	r3, r3, #72
 3132 0036 5B01     		lsls	r3, r3, #5
 3133 0038 1344     		add	r3, r3, r2
 3134 003a 4FF00062 		mov	r2, #134217728
 3135 003e 1A60     		str	r2, [r3]
 3136              		.loc 6 985 25 discriminator 3
 3137 0040 BA68     		ldr	r2, [r7, #8]
 3138 0042 FB68     		ldr	r3, [r7, #12]
 3139 0044 5833     		adds	r3, r3, #88
 3140 0046 5B01     		lsls	r3, r3, #5
 3141 0048 1344     		add	r3, r3, r2
 3142 004a 4FF00062 		mov	r2, #134217728
 3143 004e 1A60     		str	r2, [r3]
 3144              		.loc 6 986 25 discriminator 3
 3145 0050 BA68     		ldr	r2, [r7, #8]
 3146 0052 FB68     		ldr	r3, [r7, #12]
 3147 0054 5B01     		lsls	r3, r3, #5
 3148 0056 1344     		add	r3, r3, r2
 3149 0058 03F60813 		addw	r3, r3, #2312
 3150 005c 4FF0FF32 		mov	r2, #-1
 3151 0060 1A60     		str	r2, [r3]
 3152              		.loc 6 987 25 discriminator 3
 3153 0062 BA68     		ldr	r2, [r7, #8]
 3154 0064 FB68     		ldr	r3, [r7, #12]
 3155 0066 5B01     		lsls	r3, r3, #5
 3156 0068 1344     		add	r3, r3, r2
 3157 006a 03F60833 		addw	r3, r3, #2824
 3158 006e 4FF0FF32 		mov	r2, #-1
 3159 0072 1A60     		str	r2, [r3]
 3160              		.loc 6 983 53 discriminator 3
 3161 0074 FB68     		ldr	r3, [r7, #12]
 3162 0076 0133     		adds	r3, r3, #1
 3163 0078 FB60     		str	r3, [r7, #12]
 3164              	.L144:
 3165              		.loc 6 983 24 discriminator 1
 3166 007a 7B68     		ldr	r3, [r7, #4]
 3167 007c D3F89430 		ldr	r3, [r3, #148]
 3168              		.loc 6 983 35 discriminator 1
 3169 0080 9B68     		ldr	r3, [r3, #8]
 3170              		.loc 6 983 17 discriminator 1
 3171 0082 FA68     		ldr	r2, [r7, #12]
 3172 0084 9A42     		cmp	r2, r3
 3173 0086 D3D9     		bls	.L145
 3174              		.loc 6 991 3
 3175 0088 7868     		ldr	r0, [r7, #4]
 3176 008a FFF7FEFF 		bl	otg_ram_reset
 3177              		.loc 6 994 23
 3178 008e 7B68     		ldr	r3, [r7, #4]
 3179 0090 D3F89430 		ldr	r3, [r3, #148]
 3180              		.loc 6 994 34
 3181 0094 1A68     		ldr	r2, [r3]
 3182              		.loc 6 994 17
 3183 0096 BB68     		ldr	r3, [r7, #8]
 3184 0098 5A62     		str	r2, [r3, #36]
ARM GAS  C:\Users\DEVELO~1\AppData\Local\Temp\cc4r91NU.s 			page 57


 3185              		.loc 6 995 3
 3186 009a 7868     		ldr	r0, [r7, #4]
 3187 009c FFF7FEFF 		bl	otg_rxfifo_flush
 3188              		.loc 6 998 21
 3189 00a0 BB68     		ldr	r3, [r7, #8]
 3190 00a2 D3F80038 		ldr	r3, [r3, #2048]
 3191              		.loc 6 998 60
 3192 00a6 23F4FE62 		bic	r2, r3, #2032
 3193              		.loc 6 998 14
 3194 00aa BB68     		ldr	r3, [r7, #8]
 3195 00ac C3F80028 		str	r2, [r3, #2048]
 3196              		.loc 6 1001 18
 3197 00b0 BB68     		ldr	r3, [r7, #8]
 3198 00b2 9A69     		ldr	r2, [r3, #24]
 3199 00b4 1D4B     		ldr	r3, .L146
 3200 00b6 1343     		orrs	r3, r3, r2
 3201 00b8 BA68     		ldr	r2, [r7, #8]
 3202 00ba 9361     		str	r3, [r2, #24]
 3203              		.loc 6 1002 19
 3204 00bc BB68     		ldr	r3, [r7, #8]
 3205 00be 0922     		movs	r2, #9
 3206 00c0 C3F81028 		str	r2, [r3, #2064]
 3207              		.loc 6 1003 19
 3208 00c4 BB68     		ldr	r3, [r7, #8]
 3209 00c6 0922     		movs	r2, #9
 3210 00c8 C3F81428 		str	r2, [r3, #2068]
 3211              		.loc 6 1006 16
 3212 00cc 7B68     		ldr	r3, [r7, #4]
 3213 00ce 184A     		ldr	r2, .L146+4
 3214 00d0 DA60     		str	r2, [r3, #12]
 3215              		.loc 6 1007 24
 3216 00d2 BB68     		ldr	r3, [r7, #8]
 3217 00d4 4FF0C042 		mov	r2, #1610612736
 3218 00d8 C3F8102B 		str	r2, [r3, #2832]
 3219              		.loc 6 1009 25
 3220 00dc 4023     		movs	r3, #64
 3221 00de 1A46     		mov	r2, r3
 3222              		.loc 6 1008 78
 3223 00e0 144B     		ldr	r3, .L146+8
 3224 00e2 1343     		orrs	r3, r3, r2
 3225              		.loc 6 1008 23
 3226 00e4 BA68     		ldr	r2, [r7, #8]
 3227 00e6 C2F8003B 		str	r3, [r2, #2816]
 3228              		.loc 6 1010 24
 3229 00ea BB68     		ldr	r3, [r7, #8]
 3230 00ec 0022     		movs	r2, #0
 3231 00ee C3F81029 		str	r2, [r3, #2320]
 3232              		.loc 6 1012 45
 3233 00f2 4023     		movs	r3, #64
 3234 00f4 1A46     		mov	r2, r3
 3235              		.loc 6 1012 43
 3236 00f6 0F4B     		ldr	r3, .L146+8
 3237 00f8 1343     		orrs	r3, r3, r2
 3238              		.loc 6 1011 23
 3239 00fa BA68     		ldr	r2, [r7, #8]
 3240 00fc C2F80039 		str	r3, [r2, #2304]
 3241              		.loc 6 1013 20
ARM GAS  C:\Users\DEVELO~1\AppData\Local\Temp\cc4r91NU.s 			page 58


 3242 0100 4023     		movs	r3, #64
 3243 0102 9B08     		lsrs	r3, r3, #2
 3244 0104 9BB2     		uxth	r3, r3
 3245 0106 1B04     		lsls	r3, r3, #16
 3246 0108 1C46     		mov	r4, r3
 3247              		.loc 6 1014 20
 3248 010a 4023     		movs	r3, #64
 3249 010c 9B08     		lsrs	r3, r3, #2
 3250 010e 9BB2     		uxth	r3, r3
 3251 0110 1946     		mov	r1, r3
 3252 0112 7868     		ldr	r0, [r7, #4]
 3253 0114 FFF7FEFF 		bl	otg_ram_alloc
 3254 0118 0346     		mov	r3, r0
 3255              		.loc 6 1013 63
 3256 011a 44EA0302 		orr	r2, r4, r3
 3257              		.loc 6 1013 18
 3258 011e BB68     		ldr	r3, [r7, #8]
 3259 0120 9A62     		str	r2, [r3, #40]
 3260              		.loc 6 1016 1
 3261 0122 00BF     		nop
 3262 0124 1437     		adds	r7, r7, #20
 3263              		.cfi_def_cfa_offset 12
 3264 0126 BD46     		mov	sp, r7
 3265              		.cfi_def_cfa_register 13
 3266              		@ sp needed
 3267 0128 90BD     		pop	{r4, r7, pc}
 3268              	.L147:
 3269 012a 00BF     		.align	2
 3270              	.L146:
 3271 012c 10000C00 		.word	786448
 3272 0130 00000000 		.word	ep0config
 3273 0134 00800010 		.word	268468224
 3274              		.cfi_endproc
 3275              	.LFE452:
 3276              		.size	usb_lld_reset, .-usb_lld_reset
 3277              		.section	.text.usb_lld_set_address,"ax",%progbits
 3278              		.align	1
 3279              		.global	usb_lld_set_address
 3280              		.syntax unified
 3281              		.thumb
 3282              		.thumb_func
 3283              		.type	usb_lld_set_address, %function
 3284              	usb_lld_set_address:
 3285              	.LFB453:
 3286              		.loc 6 1025 43
 3287              		.cfi_startproc
 3288              		@ args = 0, pretend = 0, frame = 16
 3289              		@ frame_needed = 1, uses_anonymous_args = 0
 3290              		@ link register save eliminated.
 3291 0000 80B4     		push	{r7}
 3292              		.cfi_def_cfa_offset 4
 3293              		.cfi_offset 7, -4
 3294 0002 85B0     		sub	sp, sp, #20
 3295              		.cfi_def_cfa_offset 24
 3296 0004 00AF     		add	r7, sp, #0
 3297              		.cfi_def_cfa_register 7
 3298 0006 7860     		str	r0, [r7, #4]
ARM GAS  C:\Users\DEVELO~1\AppData\Local\Temp\cc4r91NU.s 			page 59


 3299              		.loc 6 1026 16
 3300 0008 7B68     		ldr	r3, [r7, #4]
 3301 000a D3F89030 		ldr	r3, [r3, #144]
 3302 000e FB60     		str	r3, [r7, #12]
 3303              		.loc 6 1028 21
 3304 0010 FB68     		ldr	r3, [r7, #12]
 3305 0012 D3F80038 		ldr	r3, [r3, #2048]
 3306              		.loc 6 1028 28
 3307 0016 23F4FE63 		bic	r3, r3, #2032
 3308              		.loc 6 1028 48
 3309 001a 7A68     		ldr	r2, [r7, #4]
 3310 001c 92F88A20 		ldrb	r2, [r2, #138]	@ zero_extendqisi2
 3311 0020 1201     		lsls	r2, r2, #4
 3312              		.loc 6 1028 46
 3313 0022 1A43     		orrs	r2, r2, r3
 3314              		.loc 6 1028 14
 3315 0024 FB68     		ldr	r3, [r7, #12]
 3316 0026 C3F80028 		str	r2, [r3, #2048]
 3317              		.loc 6 1029 1
 3318 002a 00BF     		nop
 3319 002c 1437     		adds	r7, r7, #20
 3320              		.cfi_def_cfa_offset 4
 3321 002e BD46     		mov	sp, r7
 3322              		.cfi_def_cfa_register 13
 3323              		@ sp needed
 3324 0030 80BC     		pop	{r7}
 3325              		.cfi_restore 7
 3326              		.cfi_def_cfa_offset 0
 3327 0032 7047     		bx	lr
 3328              		.cfi_endproc
 3329              	.LFE453:
 3330              		.size	usb_lld_set_address, .-usb_lld_set_address
 3331              		.section	.text.usb_lld_init_endpoint,"ax",%progbits
 3332              		.align	1
 3333              		.global	usb_lld_init_endpoint
 3334              		.syntax unified
 3335              		.thumb
 3336              		.thumb_func
 3337              		.type	usb_lld_init_endpoint, %function
 3338              	usb_lld_init_endpoint:
 3339              	.LFB454:
 3340              		.loc 6 1039 57
 3341              		.cfi_startproc
 3342              		@ args = 0, pretend = 0, frame = 24
 3343              		@ frame_needed = 1, uses_anonymous_args = 0
 3344 0000 90B5     		push	{r4, r7, lr}
 3345              		.cfi_def_cfa_offset 12
 3346              		.cfi_offset 4, -12
 3347              		.cfi_offset 7, -8
 3348              		.cfi_offset 14, -4
 3349 0002 87B0     		sub	sp, sp, #28
 3350              		.cfi_def_cfa_offset 40
 3351 0004 00AF     		add	r7, sp, #0
 3352              		.cfi_def_cfa_register 7
 3353 0006 7860     		str	r0, [r7, #4]
 3354 0008 0B46     		mov	r3, r1
 3355 000a FB70     		strb	r3, [r7, #3]
ARM GAS  C:\Users\DEVELO~1\AppData\Local\Temp\cc4r91NU.s 			page 60


 3356              		.loc 6 1041 16
 3357 000c 7B68     		ldr	r3, [r7, #4]
 3358 000e D3F89030 		ldr	r3, [r3, #144]
 3359 0012 FB60     		str	r3, [r7, #12]
 3360              		.loc 6 1044 20
 3361 0014 FB78     		ldrb	r3, [r7, #3]	@ zero_extendqisi2
 3362 0016 7A68     		ldr	r2, [r7, #4]
 3363 0018 0233     		adds	r3, r3, #2
 3364 001a 9B00     		lsls	r3, r3, #2
 3365 001c 1344     		add	r3, r3, r2
 3366 001e 5B68     		ldr	r3, [r3, #4]
 3367              		.loc 6 1044 24
 3368 0020 1B68     		ldr	r3, [r3]
 3369              		.loc 6 1044 34
 3370 0022 03F00303 		and	r3, r3, #3
 3371              		.loc 6 1044 3
 3372 0026 032B     		cmp	r3, #3
 3373 0028 00F2ED80 		bhi	.L162
 3374 002c 01A2     		adr	r2, .L152
 3375 002e 52F823F0 		ldr	pc, [r2, r3, lsl #2]
 3376 0032 00BF     		.p2align 2
 3377              	.L152:
 3378 0034 45000000 		.word	.L155+1
 3379 0038 4B000000 		.word	.L154+1
 3380 003c 51000000 		.word	.L153+1
 3381 0040 57000000 		.word	.L151+1
 3382              		.p2align 1
 3383              	.L155:
 3384              		.loc 6 1046 9
 3385 0044 724B     		ldr	r3, .L163
 3386 0046 7B61     		str	r3, [r7, #20]
 3387              		.loc 6 1047 5
 3388 0048 08E0     		b	.L156
 3389              	.L154:
 3390              		.loc 6 1049 9
 3391 004a 724B     		ldr	r3, .L163+4
 3392 004c 7B61     		str	r3, [r7, #20]
 3393              		.loc 6 1050 5
 3394 004e 05E0     		b	.L156
 3395              	.L153:
 3396              		.loc 6 1052 9
 3397 0050 714B     		ldr	r3, .L163+8
 3398 0052 7B61     		str	r3, [r7, #20]
 3399              		.loc 6 1053 5
 3400 0054 02E0     		b	.L156
 3401              	.L151:
 3402              		.loc 6 1055 9
 3403 0056 714B     		ldr	r3, .L163+12
 3404 0058 7B61     		str	r3, [r7, #20]
 3405              		.loc 6 1056 5
 3406 005a 00BF     		nop
 3407              	.L156:
 3408              		.loc 6 1062 15
 3409 005c FB78     		ldrb	r3, [r7, #3]	@ zero_extendqisi2
 3410              		.loc 6 1062 25
 3411 005e FA68     		ldr	r2, [r7, #12]
 3412 0060 5B01     		lsls	r3, r3, #5
ARM GAS  C:\Users\DEVELO~1\AppData\Local\Temp\cc4r91NU.s 			page 61


 3413 0062 1344     		add	r3, r3, r2
 3414 0064 03F53163 		add	r3, r3, #2832
 3415 0068 0022     		movs	r2, #0
 3416 006a 1A60     		str	r2, [r3]
 3417              		.loc 6 1063 16
 3418 006c FB78     		ldrb	r3, [r7, #3]	@ zero_extendqisi2
 3419 006e 7A68     		ldr	r2, [r7, #4]
 3420 0070 0233     		adds	r3, r3, #2
 3421 0072 9B00     		lsls	r3, r3, #2
 3422 0074 1344     		add	r3, r3, r2
 3423 0076 5B68     		ldr	r3, [r3, #4]
 3424              		.loc 6 1063 20
 3425 0078 9B69     		ldr	r3, [r3, #24]
 3426              		.loc 6 1063 6
 3427 007a 002B     		cmp	r3, #0
 3428 007c 1CD0     		beq	.L158
 3429              		.loc 6 1064 34
 3430 007e FB78     		ldrb	r3, [r7, #3]	@ zero_extendqisi2
 3431 0080 7A68     		ldr	r2, [r7, #4]
 3432 0082 0233     		adds	r3, r3, #2
 3433 0084 9B00     		lsls	r3, r3, #2
 3434 0086 1344     		add	r3, r3, r2
 3435 0088 5B68     		ldr	r3, [r3, #4]
 3436 008a 5B8A     		ldrh	r3, [r3, #18]
 3437 008c 1946     		mov	r1, r3
 3438              		.loc 6 1064 17
 3439 008e FB78     		ldrb	r3, [r7, #3]	@ zero_extendqisi2
 3440              		.loc 6 1064 32
 3441 0090 7A69     		ldr	r2, [r7, #20]
 3442 0092 0A43     		orrs	r2, r2, r1
 3443              		.loc 6 1064 26
 3444 0094 F968     		ldr	r1, [r7, #12]
 3445 0096 5833     		adds	r3, r3, #88
 3446 0098 5B01     		lsls	r3, r3, #5
 3447 009a 0B44     		add	r3, r3, r1
 3448 009c 1A60     		str	r2, [r3]
 3449              		.loc 6 1065 20
 3450 009e FB68     		ldr	r3, [r7, #12]
 3451 00a0 D3F81C28 		ldr	r2, [r3, #2076]
 3452              		.loc 6 1065 23
 3453 00a4 FB78     		ldrb	r3, [r7, #3]	@ zero_extendqisi2
 3454 00a6 1033     		adds	r3, r3, #16
 3455 00a8 0121     		movs	r1, #1
 3456 00aa 01FA03F3 		lsl	r3, r1, r3
 3457              		.loc 6 1065 20
 3458 00ae 1A43     		orrs	r2, r2, r3
 3459 00b0 FB68     		ldr	r3, [r7, #12]
 3460 00b2 C3F81C28 		str	r2, [r3, #2076]
 3461 00b6 1AE0     		b	.L159
 3462              	.L158:
 3463              		.loc 6 1068 26
 3464 00b8 FB78     		ldrb	r3, [r7, #3]	@ zero_extendqisi2
 3465 00ba FA68     		ldr	r2, [r7, #12]
 3466 00bc 5833     		adds	r3, r3, #88
 3467 00be 5B01     		lsls	r3, r3, #5
 3468 00c0 1344     		add	r3, r3, r2
 3469 00c2 1A68     		ldr	r2, [r3]
ARM GAS  C:\Users\DEVELO~1\AppData\Local\Temp\cc4r91NU.s 			page 62


 3470 00c4 FB78     		ldrb	r3, [r7, #3]	@ zero_extendqisi2
 3471 00c6 22F40042 		bic	r2, r2, #32768
 3472 00ca F968     		ldr	r1, [r7, #12]
 3473 00cc 5833     		adds	r3, r3, #88
 3474 00ce 5B01     		lsls	r3, r3, #5
 3475 00d0 0B44     		add	r3, r3, r1
 3476 00d2 1A60     		str	r2, [r3]
 3477              		.loc 6 1069 20
 3478 00d4 FB68     		ldr	r3, [r7, #12]
 3479 00d6 D3F81C28 		ldr	r2, [r3, #2076]
 3480              		.loc 6 1069 24
 3481 00da FB78     		ldrb	r3, [r7, #3]	@ zero_extendqisi2
 3482 00dc 1033     		adds	r3, r3, #16
 3483 00de 0121     		movs	r1, #1
 3484 00e0 01FA03F3 		lsl	r3, r1, r3
 3485              		.loc 6 1069 23
 3486 00e4 DB43     		mvns	r3, r3
 3487              		.loc 6 1069 20
 3488 00e6 1A40     		ands	r2, r2, r3
 3489 00e8 FB68     		ldr	r3, [r7, #12]
 3490 00ea C3F81C28 		str	r2, [r3, #2076]
 3491              	.L159:
 3492              		.loc 6 1073 15
 3493 00ee FB78     		ldrb	r3, [r7, #3]	@ zero_extendqisi2
 3494              		.loc 6 1073 25
 3495 00f0 FA68     		ldr	r2, [r7, #12]
 3496 00f2 5B01     		lsls	r3, r3, #5
 3497 00f4 1344     		add	r3, r3, r2
 3498 00f6 03F51163 		add	r3, r3, #2320
 3499 00fa 0022     		movs	r2, #0
 3500 00fc 1A60     		str	r2, [r3]
 3501              		.loc 6 1074 16
 3502 00fe FB78     		ldrb	r3, [r7, #3]	@ zero_extendqisi2
 3503 0100 7A68     		ldr	r2, [r7, #4]
 3504 0102 0233     		adds	r3, r3, #2
 3505 0104 9B00     		lsls	r3, r3, #2
 3506 0106 1344     		add	r3, r3, r2
 3507 0108 5B68     		ldr	r3, [r3, #4]
 3508              		.loc 6 1074 20
 3509 010a 5B69     		ldr	r3, [r3, #20]
 3510              		.loc 6 1074 6
 3511 010c 002B     		cmp	r3, #0
 3512 010e 52D0     		beq	.L160
 3513              		.loc 6 1076 22
 3514 0110 FB78     		ldrb	r3, [r7, #3]	@ zero_extendqisi2
 3515 0112 7A68     		ldr	r2, [r7, #4]
 3516 0114 0233     		adds	r3, r3, #2
 3517 0116 9B00     		lsls	r3, r3, #2
 3518 0118 1344     		add	r3, r3, r2
 3519 011a 5B68     		ldr	r3, [r3, #4]
 3520              		.loc 6 1076 26
 3521 011c 1B8A     		ldrh	r3, [r3, #16]
 3522              		.loc 6 1076 39
 3523 011e 9B08     		lsrs	r3, r3, #2
 3524 0120 9BB2     		uxth	r3, r3
 3525              		.loc 6 1076 11
 3526 0122 3B61     		str	r3, [r7, #16]
ARM GAS  C:\Users\DEVELO~1\AppData\Local\Temp\cc4r91NU.s 			page 63


 3527              		.loc 6 1077 18
 3528 0124 FB78     		ldrb	r3, [r7, #3]	@ zero_extendqisi2
 3529 0126 7A68     		ldr	r2, [r7, #4]
 3530 0128 0233     		adds	r3, r3, #2
 3531 012a 9B00     		lsls	r3, r3, #2
 3532 012c 1344     		add	r3, r3, r2
 3533 012e 5B68     		ldr	r3, [r3, #4]
 3534              		.loc 6 1077 22
 3535 0130 9B8B     		ldrh	r3, [r3, #28]
 3536              		.loc 6 1077 8
 3537 0132 012B     		cmp	r3, #1
 3538 0134 0BD9     		bls	.L161
 3539              		.loc 6 1078 25
 3540 0136 FB78     		ldrb	r3, [r7, #3]	@ zero_extendqisi2
 3541 0138 7A68     		ldr	r2, [r7, #4]
 3542 013a 0233     		adds	r3, r3, #2
 3543 013c 9B00     		lsls	r3, r3, #2
 3544 013e 1344     		add	r3, r3, r2
 3545 0140 5B68     		ldr	r3, [r3, #4]
 3546              		.loc 6 1078 29
 3547 0142 9B8B     		ldrh	r3, [r3, #28]
 3548 0144 1A46     		mov	r2, r3
 3549              		.loc 6 1078 13
 3550 0146 3B69     		ldr	r3, [r7, #16]
 3551 0148 02FB03F3 		mul	r3, r2, r3
 3552 014c 3B61     		str	r3, [r7, #16]
 3553              	.L161:
 3554              		.loc 6 1079 29
 3555 014e 3B69     		ldr	r3, [r7, #16]
 3556 0150 1C04     		lsls	r4, r3, #16
 3557              		.loc 6 1080 29
 3558 0152 3969     		ldr	r1, [r7, #16]
 3559 0154 7868     		ldr	r0, [r7, #4]
 3560 0156 FFF7FEFF 		bl	otg_ram_alloc
 3561 015a 0246     		mov	r2, r0
 3562              		.loc 6 1079 22
 3563 015c FB78     		ldrb	r3, [r7, #3]	@ zero_extendqisi2
 3564 015e 013B     		subs	r3, r3, #1
 3565              		.loc 6 1079 53
 3566 0160 2243     		orrs	r2, r2, r4
 3567              		.loc 6 1079 27
 3568 0162 F968     		ldr	r1, [r7, #12]
 3569 0164 4033     		adds	r3, r3, #64
 3570 0166 9B00     		lsls	r3, r3, #2
 3571 0168 0B44     		add	r3, r3, r1
 3572 016a 5A60     		str	r2, [r3, #4]
 3573              		.loc 6 1081 5
 3574 016c FB78     		ldrb	r3, [r7, #3]	@ zero_extendqisi2
 3575 016e 1946     		mov	r1, r3
 3576 0170 7868     		ldr	r0, [r7, #4]
 3577 0172 FFF7FEFF 		bl	otg_txfifo_flush
 3578              		.loc 6 1084 28
 3579 0176 FB78     		ldrb	r3, [r7, #3]	@ zero_extendqisi2
 3580 0178 9B05     		lsls	r3, r3, #22
 3581 017a 1A46     		mov	r2, r3
 3582              		.loc 6 1083 32
 3583 017c 7B69     		ldr	r3, [r7, #20]
ARM GAS  C:\Users\DEVELO~1\AppData\Local\Temp\cc4r91NU.s 			page 64


 3584 017e 1A43     		orrs	r2, r2, r3
 3585              		.loc 6 1085 28
 3586 0180 FB78     		ldrb	r3, [r7, #3]	@ zero_extendqisi2
 3587 0182 7968     		ldr	r1, [r7, #4]
 3588 0184 0233     		adds	r3, r3, #2
 3589 0186 9B00     		lsls	r3, r3, #2
 3590 0188 0B44     		add	r3, r3, r1
 3591 018a 5B68     		ldr	r3, [r3, #4]
 3592 018c 1B8A     		ldrh	r3, [r3, #16]
 3593 018e 1946     		mov	r1, r3
 3594              		.loc 6 1083 17
 3595 0190 FB78     		ldrb	r3, [r7, #3]	@ zero_extendqisi2
 3596              		.loc 6 1084 47
 3597 0192 0A43     		orrs	r2, r2, r1
 3598              		.loc 6 1083 26
 3599 0194 F968     		ldr	r1, [r7, #12]
 3600 0196 4833     		adds	r3, r3, #72
 3601 0198 5B01     		lsls	r3, r3, #5
 3602 019a 0B44     		add	r3, r3, r1
 3603 019c 1A60     		str	r2, [r3]
 3604              		.loc 6 1086 20
 3605 019e FB68     		ldr	r3, [r7, #12]
 3606 01a0 D3F81C28 		ldr	r2, [r3, #2076]
 3607              		.loc 6 1086 23
 3608 01a4 FB78     		ldrb	r3, [r7, #3]	@ zero_extendqisi2
 3609 01a6 0121     		movs	r1, #1
 3610 01a8 01FA03F3 		lsl	r3, r1, r3
 3611              		.loc 6 1086 20
 3612 01ac 1A43     		orrs	r2, r2, r3
 3613 01ae FB68     		ldr	r3, [r7, #12]
 3614 01b0 C3F81C28 		str	r2, [r3, #2076]
 3615 01b4 28E0     		b	.L149
 3616              	.L160:
 3617              		.loc 6 1089 22
 3618 01b6 FB78     		ldrb	r3, [r7, #3]	@ zero_extendqisi2
 3619 01b8 013B     		subs	r3, r3, #1
 3620              		.loc 6 1089 27
 3621 01ba FA68     		ldr	r2, [r7, #12]
 3622 01bc 4033     		adds	r3, r3, #64
 3623 01be 9B00     		lsls	r3, r3, #2
 3624 01c0 1344     		add	r3, r3, r2
 3625 01c2 174A     		ldr	r2, .L163+16
 3626 01c4 5A60     		str	r2, [r3, #4]
 3627              		.loc 6 1090 5
 3628 01c6 FB78     		ldrb	r3, [r7, #3]	@ zero_extendqisi2
 3629 01c8 1946     		mov	r1, r3
 3630 01ca 7868     		ldr	r0, [r7, #4]
 3631 01cc FFF7FEFF 		bl	otg_txfifo_flush
 3632              		.loc 6 1091 26
 3633 01d0 FB78     		ldrb	r3, [r7, #3]	@ zero_extendqisi2
 3634 01d2 FA68     		ldr	r2, [r7, #12]
 3635 01d4 4833     		adds	r3, r3, #72
 3636 01d6 5B01     		lsls	r3, r3, #5
 3637 01d8 1344     		add	r3, r3, r2
 3638 01da 1A68     		ldr	r2, [r3]
 3639 01dc FB78     		ldrb	r3, [r7, #3]	@ zero_extendqisi2
 3640 01de 22F40042 		bic	r2, r2, #32768
ARM GAS  C:\Users\DEVELO~1\AppData\Local\Temp\cc4r91NU.s 			page 65


 3641 01e2 F968     		ldr	r1, [r7, #12]
 3642 01e4 4833     		adds	r3, r3, #72
 3643 01e6 5B01     		lsls	r3, r3, #5
 3644 01e8 0B44     		add	r3, r3, r1
 3645 01ea 1A60     		str	r2, [r3]
 3646              		.loc 6 1092 20
 3647 01ec FB68     		ldr	r3, [r7, #12]
 3648 01ee D3F81C28 		ldr	r2, [r3, #2076]
 3649              		.loc 6 1092 24
 3650 01f2 FB78     		ldrb	r3, [r7, #3]	@ zero_extendqisi2
 3651 01f4 0121     		movs	r1, #1
 3652 01f6 01FA03F3 		lsl	r3, r1, r3
 3653              		.loc 6 1092 23
 3654 01fa DB43     		mvns	r3, r3
 3655              		.loc 6 1092 20
 3656 01fc 1A40     		ands	r2, r2, r3
 3657 01fe FB68     		ldr	r3, [r7, #12]
 3658 0200 C3F81C28 		str	r2, [r3, #2076]
 3659 0204 00E0     		b	.L149
 3660              	.L162:
 3661              		.loc 6 1058 5
 3662 0206 00BF     		nop
 3663              	.L149:
 3664              		.loc 6 1094 1
 3665 0208 1C37     		adds	r7, r7, #28
 3666              		.cfi_def_cfa_offset 12
 3667 020a BD46     		mov	sp, r7
 3668              		.cfi_def_cfa_register 13
 3669              		@ sp needed
 3670 020c 90BD     		pop	{r4, r7, pc}
 3671              	.L164:
 3672 020e 00BF     		.align	2
 3673              	.L163:
 3674 0210 00800010 		.word	268468224
 3675 0214 00800410 		.word	268730368
 3676 0218 00800810 		.word	268992512
 3677 021c 00800C10 		.word	269254656
 3678 0220 00040002 		.word	33555456
 3679              		.cfi_endproc
 3680              	.LFE454:
 3681              		.size	usb_lld_init_endpoint, .-usb_lld_init_endpoint
 3682              		.section	.text.usb_lld_disable_endpoints,"ax",%progbits
 3683              		.align	1
 3684              		.global	usb_lld_disable_endpoints
 3685              		.syntax unified
 3686              		.thumb
 3687              		.thumb_func
 3688              		.type	usb_lld_disable_endpoints, %function
 3689              	usb_lld_disable_endpoints:
 3690              	.LFB455:
 3691              		.loc 6 1103 49
 3692              		.cfi_startproc
 3693              		@ args = 0, pretend = 0, frame = 8
 3694              		@ frame_needed = 1, uses_anonymous_args = 0
 3695 0000 80B5     		push	{r7, lr}
 3696              		.cfi_def_cfa_offset 8
 3697              		.cfi_offset 7, -8
ARM GAS  C:\Users\DEVELO~1\AppData\Local\Temp\cc4r91NU.s 			page 66


 3698              		.cfi_offset 14, -4
 3699 0002 82B0     		sub	sp, sp, #8
 3700              		.cfi_def_cfa_offset 16
 3701 0004 00AF     		add	r7, sp, #0
 3702              		.cfi_def_cfa_register 7
 3703 0006 7860     		str	r0, [r7, #4]
 3704              		.loc 6 1106 3
 3705 0008 7868     		ldr	r0, [r7, #4]
 3706 000a FFF7FEFF 		bl	otg_ram_reset
 3707              		.loc 6 1109 3
 3708 000e 7868     		ldr	r0, [r7, #4]
 3709 0010 FFF7FEFF 		bl	otg_disable_ep
 3710              		.loc 6 1110 1
 3711 0014 00BF     		nop
 3712 0016 0837     		adds	r7, r7, #8
 3713              		.cfi_def_cfa_offset 8
 3714 0018 BD46     		mov	sp, r7
 3715              		.cfi_def_cfa_register 13
 3716              		@ sp needed
 3717 001a 80BD     		pop	{r7, pc}
 3718              		.cfi_endproc
 3719              	.LFE455:
 3720              		.size	usb_lld_disable_endpoints, .-usb_lld_disable_endpoints
 3721              		.section	.text.usb_lld_get_status_out,"ax",%progbits
 3722              		.align	1
 3723              		.global	usb_lld_get_status_out
 3724              		.syntax unified
 3725              		.thumb
 3726              		.thumb_func
 3727              		.type	usb_lld_get_status_out, %function
 3728              	usb_lld_get_status_out:
 3729              	.LFB456:
 3730              		.loc 6 1124 67
 3731              		.cfi_startproc
 3732              		@ args = 0, pretend = 0, frame = 16
 3733              		@ frame_needed = 1, uses_anonymous_args = 0
 3734              		@ link register save eliminated.
 3735 0000 80B4     		push	{r7}
 3736              		.cfi_def_cfa_offset 4
 3737              		.cfi_offset 7, -4
 3738 0002 85B0     		sub	sp, sp, #20
 3739              		.cfi_def_cfa_offset 24
 3740 0004 00AF     		add	r7, sp, #0
 3741              		.cfi_def_cfa_register 7
 3742 0006 7860     		str	r0, [r7, #4]
 3743 0008 0B46     		mov	r3, r1
 3744 000a FB70     		strb	r3, [r7, #3]
 3745              		.loc 6 1129 13
 3746 000c 7B68     		ldr	r3, [r7, #4]
 3747 000e D3F89020 		ldr	r2, [r3, #144]
 3748              		.loc 6 1129 26
 3749 0012 FB78     		ldrb	r3, [r7, #3]	@ zero_extendqisi2
 3750              		.loc 6 1129 7
 3751 0014 5833     		adds	r3, r3, #88
 3752 0016 5B01     		lsls	r3, r3, #5
 3753 0018 1344     		add	r3, r3, r2
 3754 001a 1B68     		ldr	r3, [r3]
ARM GAS  C:\Users\DEVELO~1\AppData\Local\Temp\cc4r91NU.s 			page 67


 3755 001c FB60     		str	r3, [r7, #12]
 3756              		.loc 6 1130 13
 3757 001e FB68     		ldr	r3, [r7, #12]
 3758 0020 03F40043 		and	r3, r3, #32768
 3759              		.loc 6 1130 6
 3760 0024 002B     		cmp	r3, #0
 3761 0026 01D1     		bne	.L167
 3762              		.loc 6 1131 12
 3763 0028 0023     		movs	r3, #0
 3764 002a 07E0     		b	.L168
 3765              	.L167:
 3766              		.loc 6 1132 11
 3767 002c FB68     		ldr	r3, [r7, #12]
 3768 002e 03F40013 		and	r3, r3, #2097152
 3769              		.loc 6 1132 6
 3770 0032 002B     		cmp	r3, #0
 3771 0034 01D0     		beq	.L169
 3772              		.loc 6 1133 12
 3773 0036 0123     		movs	r3, #1
 3774 0038 00E0     		b	.L168
 3775              	.L169:
 3776              		.loc 6 1134 10
 3777 003a 0223     		movs	r3, #2
 3778              	.L168:
 3779              		.loc 6 1135 1
 3780 003c 1846     		mov	r0, r3
 3781 003e 1437     		adds	r7, r7, #20
 3782              		.cfi_def_cfa_offset 4
 3783 0040 BD46     		mov	sp, r7
 3784              		.cfi_def_cfa_register 13
 3785              		@ sp needed
 3786 0042 80BC     		pop	{r7}
 3787              		.cfi_restore 7
 3788              		.cfi_def_cfa_offset 0
 3789 0044 7047     		bx	lr
 3790              		.cfi_endproc
 3791              	.LFE456:
 3792              		.size	usb_lld_get_status_out, .-usb_lld_get_status_out
 3793              		.section	.text.usb_lld_get_status_in,"ax",%progbits
 3794              		.align	1
 3795              		.global	usb_lld_get_status_in
 3796              		.syntax unified
 3797              		.thumb
 3798              		.thumb_func
 3799              		.type	usb_lld_get_status_in, %function
 3800              	usb_lld_get_status_in:
 3801              	.LFB457:
 3802              		.loc 6 1149 66
 3803              		.cfi_startproc
 3804              		@ args = 0, pretend = 0, frame = 16
 3805              		@ frame_needed = 1, uses_anonymous_args = 0
 3806              		@ link register save eliminated.
 3807 0000 80B4     		push	{r7}
 3808              		.cfi_def_cfa_offset 4
 3809              		.cfi_offset 7, -4
 3810 0002 85B0     		sub	sp, sp, #20
 3811              		.cfi_def_cfa_offset 24
ARM GAS  C:\Users\DEVELO~1\AppData\Local\Temp\cc4r91NU.s 			page 68


 3812 0004 00AF     		add	r7, sp, #0
 3813              		.cfi_def_cfa_register 7
 3814 0006 7860     		str	r0, [r7, #4]
 3815 0008 0B46     		mov	r3, r1
 3816 000a FB70     		strb	r3, [r7, #3]
 3817              		.loc 6 1154 13
 3818 000c 7B68     		ldr	r3, [r7, #4]
 3819 000e D3F89020 		ldr	r2, [r3, #144]
 3820              		.loc 6 1154 26
 3821 0012 FB78     		ldrb	r3, [r7, #3]	@ zero_extendqisi2
 3822              		.loc 6 1154 7
 3823 0014 4833     		adds	r3, r3, #72
 3824 0016 5B01     		lsls	r3, r3, #5
 3825 0018 1344     		add	r3, r3, r2
 3826 001a 1B68     		ldr	r3, [r3]
 3827 001c FB60     		str	r3, [r7, #12]
 3828              		.loc 6 1155 13
 3829 001e FB68     		ldr	r3, [r7, #12]
 3830 0020 03F40043 		and	r3, r3, #32768
 3831              		.loc 6 1155 6
 3832 0024 002B     		cmp	r3, #0
 3833 0026 01D1     		bne	.L171
 3834              		.loc 6 1156 12
 3835 0028 0023     		movs	r3, #0
 3836 002a 07E0     		b	.L172
 3837              	.L171:
 3838              		.loc 6 1157 11
 3839 002c FB68     		ldr	r3, [r7, #12]
 3840 002e 03F40013 		and	r3, r3, #2097152
 3841              		.loc 6 1157 6
 3842 0032 002B     		cmp	r3, #0
 3843 0034 01D0     		beq	.L173
 3844              		.loc 6 1158 12
 3845 0036 0123     		movs	r3, #1
 3846 0038 00E0     		b	.L172
 3847              	.L173:
 3848              		.loc 6 1159 10
 3849 003a 0223     		movs	r3, #2
 3850              	.L172:
 3851              		.loc 6 1160 1
 3852 003c 1846     		mov	r0, r3
 3853 003e 1437     		adds	r7, r7, #20
 3854              		.cfi_def_cfa_offset 4
 3855 0040 BD46     		mov	sp, r7
 3856              		.cfi_def_cfa_register 13
 3857              		@ sp needed
 3858 0042 80BC     		pop	{r7}
 3859              		.cfi_restore 7
 3860              		.cfi_def_cfa_offset 0
 3861 0044 7047     		bx	lr
 3862              		.cfi_endproc
 3863              	.LFE457:
 3864              		.size	usb_lld_get_status_in, .-usb_lld_get_status_in
 3865              		.section	.text.usb_lld_read_setup,"ax",%progbits
 3866              		.align	1
 3867              		.global	usb_lld_read_setup
 3868              		.syntax unified
ARM GAS  C:\Users\DEVELO~1\AppData\Local\Temp\cc4r91NU.s 			page 69


 3869              		.thumb
 3870              		.thumb_func
 3871              		.type	usb_lld_read_setup, %function
 3872              	usb_lld_read_setup:
 3873              	.LFB458:
 3874              		.loc 6 1176 68
 3875              		.cfi_startproc
 3876              		@ args = 0, pretend = 0, frame = 16
 3877              		@ frame_needed = 1, uses_anonymous_args = 0
 3878 0000 80B5     		push	{r7, lr}
 3879              		.cfi_def_cfa_offset 8
 3880              		.cfi_offset 7, -8
 3881              		.cfi_offset 14, -4
 3882 0002 84B0     		sub	sp, sp, #16
 3883              		.cfi_def_cfa_offset 24
 3884 0004 00AF     		add	r7, sp, #0
 3885              		.cfi_def_cfa_register 7
 3886 0006 F860     		str	r0, [r7, #12]
 3887 0008 0B46     		mov	r3, r1
 3888 000a 7A60     		str	r2, [r7, #4]
 3889 000c FB72     		strb	r3, [r7, #11]
 3890              		.loc 6 1178 24
 3891 000e FB7A     		ldrb	r3, [r7, #11]	@ zero_extendqisi2
 3892 0010 FA68     		ldr	r2, [r7, #12]
 3893 0012 0233     		adds	r3, r3, #2
 3894 0014 9B00     		lsls	r3, r3, #2
 3895 0016 1344     		add	r3, r3, r2
 3896 0018 5B68     		ldr	r3, [r3, #4]
 3897              		.loc 6 1178 28
 3898 001a 1B6A     		ldr	r3, [r3, #32]
 3899              		.loc 6 1178 3
 3900 001c 0822     		movs	r2, #8
 3901 001e 1946     		mov	r1, r3
 3902 0020 7868     		ldr	r0, [r7, #4]
 3903 0022 FFF7FEFF 		bl	memcpy
 3904              		.loc 6 1179 1
 3905 0026 00BF     		nop
 3906 0028 1037     		adds	r7, r7, #16
 3907              		.cfi_def_cfa_offset 8
 3908 002a BD46     		mov	sp, r7
 3909              		.cfi_def_cfa_register 13
 3910              		@ sp needed
 3911 002c 80BD     		pop	{r7, pc}
 3912              		.cfi_endproc
 3913              	.LFE458:
 3914              		.size	usb_lld_read_setup, .-usb_lld_read_setup
 3915              		.section	.text.usb_lld_start_out,"ax",%progbits
 3916              		.align	1
 3917              		.global	usb_lld_start_out
 3918              		.syntax unified
 3919              		.thumb
 3920              		.thumb_func
 3921              		.type	usb_lld_start_out, %function
 3922              	usb_lld_start_out:
 3923              	.LFB459:
 3924              		.loc 6 1189 53
 3925              		.cfi_startproc
ARM GAS  C:\Users\DEVELO~1\AppData\Local\Temp\cc4r91NU.s 			page 70


 3926              		@ args = 0, pretend = 0, frame = 24
 3927              		@ frame_needed = 1, uses_anonymous_args = 0
 3928              		@ link register save eliminated.
 3929 0000 80B4     		push	{r7}
 3930              		.cfi_def_cfa_offset 4
 3931              		.cfi_offset 7, -4
 3932 0002 87B0     		sub	sp, sp, #28
 3933              		.cfi_def_cfa_offset 32
 3934 0004 00AF     		add	r7, sp, #0
 3935              		.cfi_def_cfa_register 7
 3936 0006 7860     		str	r0, [r7, #4]
 3937 0008 0B46     		mov	r3, r1
 3938 000a FB70     		strb	r3, [r7, #3]
 3939              		.loc 6 1191 39
 3940 000c FB78     		ldrb	r3, [r7, #3]	@ zero_extendqisi2
 3941 000e 7A68     		ldr	r2, [r7, #4]
 3942 0010 0233     		adds	r3, r3, #2
 3943 0012 9B00     		lsls	r3, r3, #2
 3944 0014 1344     		add	r3, r3, r2
 3945 0016 5B68     		ldr	r3, [r3, #4]
 3946              		.loc 6 1191 24
 3947 0018 9B69     		ldr	r3, [r3, #24]
 3948 001a 7B61     		str	r3, [r7, #20]
 3949              		.loc 6 1194 21
 3950 001c 7B69     		ldr	r3, [r7, #20]
 3951 001e 1A68     		ldr	r2, [r3]
 3952              		.loc 6 1194 16
 3953 0020 7B69     		ldr	r3, [r7, #20]
 3954 0022 DA60     		str	r2, [r3, #12]
 3955              		.loc 6 1195 6
 3956 0024 FB78     		ldrb	r3, [r7, #3]	@ zero_extendqisi2
 3957 0026 002B     		cmp	r3, #0
 3958 0028 06D1     		bne	.L176
 3959              		.loc 6 1195 24 discriminator 1
 3960 002a 7B69     		ldr	r3, [r7, #20]
 3961 002c 1B68     		ldr	r3, [r3]
 3962              		.loc 6 1195 17 discriminator 1
 3963 002e 402B     		cmp	r3, #64
 3964 0030 02D9     		bls	.L176
 3965              		.loc 6 1196 17
 3966 0032 7B69     		ldr	r3, [r7, #20]
 3967 0034 4022     		movs	r2, #64
 3968 0036 1A60     		str	r2, [r3]
 3969              	.L176:
 3970              		.loc 6 1203 16
 3971 0038 7B69     		ldr	r3, [r7, #20]
 3972 003a 1A68     		ldr	r2, [r3]
 3973              		.loc 6 1203 36
 3974 003c FB78     		ldrb	r3, [r7, #3]	@ zero_extendqisi2
 3975 003e 7968     		ldr	r1, [r7, #4]
 3976 0040 0233     		adds	r3, r3, #2
 3977 0042 9B00     		lsls	r3, r3, #2
 3978 0044 0B44     		add	r3, r3, r1
 3979 0046 5B68     		ldr	r3, [r3, #4]
 3980              		.loc 6 1203 40
 3981 0048 5B8A     		ldrh	r3, [r3, #18]
 3982              		.loc 6 1203 25
ARM GAS  C:\Users\DEVELO~1\AppData\Local\Temp\cc4r91NU.s 			page 71


 3983 004a 1344     		add	r3, r3, r2
 3984              		.loc 6 1203 54
 3985 004c 5A1E     		subs	r2, r3, #1
 3986              		.loc 6 1204 21
 3987 004e FB78     		ldrb	r3, [r7, #3]	@ zero_extendqisi2
 3988 0050 7968     		ldr	r1, [r7, #4]
 3989 0052 0233     		adds	r3, r3, #2
 3990 0054 9B00     		lsls	r3, r3, #2
 3991 0056 0B44     		add	r3, r3, r1
 3992 0058 5B68     		ldr	r3, [r3, #4]
 3993              		.loc 6 1204 25
 3994 005a 5B8A     		ldrh	r3, [r3, #18]
 3995              		.loc 6 1203 10
 3996 005c B2FBF3F3 		udiv	r3, r2, r3
 3997 0060 3B61     		str	r3, [r7, #16]
 3998              		.loc 6 1205 29
 3999 0062 FB78     		ldrb	r3, [r7, #3]	@ zero_extendqisi2
 4000 0064 7A68     		ldr	r2, [r7, #4]
 4001 0066 0233     		adds	r3, r3, #2
 4002 0068 9B00     		lsls	r3, r3, #2
 4003 006a 1344     		add	r3, r3, r2
 4004 006c 5B68     		ldr	r3, [r3, #4]
 4005              		.loc 6 1205 33
 4006 006e 5B8A     		ldrh	r3, [r3, #18]
 4007 0070 1A46     		mov	r2, r3
 4008              		.loc 6 1205 18
 4009 0072 3B69     		ldr	r3, [r7, #16]
 4010 0074 02FB03F3 		mul	r3, r2, r3
 4011              		.loc 6 1205 47
 4012 0078 0333     		adds	r3, r3, #3
 4013              		.loc 6 1205 10
 4014 007a 23F00303 		bic	r3, r3, #3
 4015 007e FB60     		str	r3, [r7, #12]
 4016              		.loc 6 1208 54
 4017 0080 3B69     		ldr	r3, [r7, #16]
 4018 0082 DA04     		lsls	r2, r3, #19
 4019              		.loc 6 1208 76
 4020 0084 FB68     		ldr	r3, [r7, #12]
 4021 0086 1A43     		orrs	r2, r2, r3
 4022              		.loc 6 1208 7
 4023 0088 7B68     		ldr	r3, [r7, #4]
 4024 008a D3F89010 		ldr	r1, [r3, #144]
 4025              		.loc 6 1208 20
 4026 008e FB78     		ldrb	r3, [r7, #3]	@ zero_extendqisi2
 4027              		.loc 6 1208 76
 4028 0090 42F0C042 		orr	r2, r2, #1610612736
 4029              		.loc 6 1208 30
 4030 0094 5B01     		lsls	r3, r3, #5
 4031 0096 0B44     		add	r3, r3, r1
 4032 0098 03F53163 		add	r3, r3, #2832
 4033 009c 1A60     		str	r2, [r3]
 4034              		.loc 6 1212 17
 4035 009e FB78     		ldrb	r3, [r7, #3]	@ zero_extendqisi2
 4036 00a0 7A68     		ldr	r2, [r7, #4]
 4037 00a2 0233     		adds	r3, r3, #2
 4038 00a4 9B00     		lsls	r3, r3, #2
 4039 00a6 1344     		add	r3, r3, r2
ARM GAS  C:\Users\DEVELO~1\AppData\Local\Temp\cc4r91NU.s 			page 72


 4040 00a8 5B68     		ldr	r3, [r3, #4]
 4041              		.loc 6 1212 21
 4042 00aa 1B68     		ldr	r3, [r3]
 4043              		.loc 6 1212 31
 4044 00ac 03F00303 		and	r3, r3, #3
 4045              		.loc 6 1212 6
 4046 00b0 012B     		cmp	r3, #1
 4047 00b2 2DD1     		bne	.L177
 4048              		.loc 6 1214 13
 4049 00b4 7B68     		ldr	r3, [r7, #4]
 4050 00b6 D3F89030 		ldr	r3, [r3, #144]
 4051              		.loc 6 1214 18
 4052 00ba D3F80838 		ldr	r3, [r3, #2056]
 4053              		.loc 6 1214 25
 4054 00be 03F48073 		and	r3, r3, #256
 4055              		.loc 6 1214 8
 4056 00c2 002B     		cmp	r3, #0
 4057 00c4 12D0     		beq	.L178
 4058              		.loc 6 1215 11
 4059 00c6 7B68     		ldr	r3, [r7, #4]
 4060 00c8 D3F89020 		ldr	r2, [r3, #144]
 4061              		.loc 6 1215 33
 4062 00cc FB78     		ldrb	r3, [r7, #3]	@ zero_extendqisi2
 4063 00ce 5833     		adds	r3, r3, #88
 4064 00d0 5B01     		lsls	r3, r3, #5
 4065 00d2 1344     		add	r3, r3, r2
 4066 00d4 1A68     		ldr	r2, [r3]
 4067              		.loc 6 1215 11
 4068 00d6 7B68     		ldr	r3, [r7, #4]
 4069 00d8 D3F89010 		ldr	r1, [r3, #144]
 4070              		.loc 6 1215 33
 4071 00dc FB78     		ldrb	r3, [r7, #3]	@ zero_extendqisi2
 4072 00de 42F08052 		orr	r2, r2, #268435456
 4073 00e2 5833     		adds	r3, r3, #88
 4074 00e4 5B01     		lsls	r3, r3, #5
 4075 00e6 0B44     		add	r3, r3, r1
 4076 00e8 1A60     		str	r2, [r3]
 4077 00ea 11E0     		b	.L177
 4078              	.L178:
 4079              		.loc 6 1217 11
 4080 00ec 7B68     		ldr	r3, [r7, #4]
 4081 00ee D3F89020 		ldr	r2, [r3, #144]
 4082              		.loc 6 1217 33
 4083 00f2 FB78     		ldrb	r3, [r7, #3]	@ zero_extendqisi2
 4084 00f4 5833     		adds	r3, r3, #88
 4085 00f6 5B01     		lsls	r3, r3, #5
 4086 00f8 1344     		add	r3, r3, r2
 4087 00fa 1A68     		ldr	r2, [r3]
 4088              		.loc 6 1217 11
 4089 00fc 7B68     		ldr	r3, [r7, #4]
 4090 00fe D3F89010 		ldr	r1, [r3, #144]
 4091              		.loc 6 1217 33
 4092 0102 FB78     		ldrb	r3, [r7, #3]	@ zero_extendqisi2
 4093 0104 42F00052 		orr	r2, r2, #536870912
 4094 0108 5833     		adds	r3, r3, #88
 4095 010a 5B01     		lsls	r3, r3, #5
 4096 010c 0B44     		add	r3, r3, r1
ARM GAS  C:\Users\DEVELO~1\AppData\Local\Temp\cc4r91NU.s 			page 73


 4097 010e 1A60     		str	r2, [r3]
 4098              	.L177:
 4099              		.loc 6 1221 7
 4100 0110 7B68     		ldr	r3, [r7, #4]
 4101 0112 D3F89020 		ldr	r2, [r3, #144]
 4102              		.loc 6 1221 29
 4103 0116 FB78     		ldrb	r3, [r7, #3]	@ zero_extendqisi2
 4104 0118 5833     		adds	r3, r3, #88
 4105 011a 5B01     		lsls	r3, r3, #5
 4106 011c 1344     		add	r3, r3, r2
 4107 011e 1A68     		ldr	r2, [r3]
 4108              		.loc 6 1221 7
 4109 0120 7B68     		ldr	r3, [r7, #4]
 4110 0122 D3F89010 		ldr	r1, [r3, #144]
 4111              		.loc 6 1221 29
 4112 0126 FB78     		ldrb	r3, [r7, #3]	@ zero_extendqisi2
 4113 0128 42F00442 		orr	r2, r2, #-2080374784
 4114 012c 5833     		adds	r3, r3, #88
 4115 012e 5B01     		lsls	r3, r3, #5
 4116 0130 0B44     		add	r3, r3, r1
 4117 0132 1A60     		str	r2, [r3]
 4118              		.loc 6 1222 1
 4119 0134 00BF     		nop
 4120 0136 1C37     		adds	r7, r7, #28
 4121              		.cfi_def_cfa_offset 4
 4122 0138 BD46     		mov	sp, r7
 4123              		.cfi_def_cfa_register 13
 4124              		@ sp needed
 4125 013a 80BC     		pop	{r7}
 4126              		.cfi_restore 7
 4127              		.cfi_def_cfa_offset 0
 4128 013c 7047     		bx	lr
 4129              		.cfi_endproc
 4130              	.LFE459:
 4131              		.size	usb_lld_start_out, .-usb_lld_start_out
 4132              		.section	.text.usb_lld_start_in,"ax",%progbits
 4133              		.align	1
 4134              		.global	usb_lld_start_in
 4135              		.syntax unified
 4136              		.thumb
 4137              		.thumb_func
 4138              		.type	usb_lld_start_in, %function
 4139              	usb_lld_start_in:
 4140              	.LFB460:
 4141              		.loc 6 1232 52
 4142              		.cfi_startproc
 4143              		@ args = 0, pretend = 0, frame = 16
 4144              		@ frame_needed = 1, uses_anonymous_args = 0
 4145              		@ link register save eliminated.
 4146 0000 80B4     		push	{r7}
 4147              		.cfi_def_cfa_offset 4
 4148              		.cfi_offset 7, -4
 4149 0002 85B0     		sub	sp, sp, #20
 4150              		.cfi_def_cfa_offset 24
 4151 0004 00AF     		add	r7, sp, #0
 4152              		.cfi_def_cfa_register 7
 4153 0006 7860     		str	r0, [r7, #4]
ARM GAS  C:\Users\DEVELO~1\AppData\Local\Temp\cc4r91NU.s 			page 74


 4154 0008 0B46     		mov	r3, r1
 4155 000a FB70     		strb	r3, [r7, #3]
 4156              		.loc 6 1233 38
 4157 000c FB78     		ldrb	r3, [r7, #3]	@ zero_extendqisi2
 4158 000e 7A68     		ldr	r2, [r7, #4]
 4159 0010 0233     		adds	r3, r3, #2
 4160 0012 9B00     		lsls	r3, r3, #2
 4161 0014 1344     		add	r3, r3, r2
 4162 0016 5B68     		ldr	r3, [r3, #4]
 4163              		.loc 6 1233 23
 4164 0018 5B69     		ldr	r3, [r3, #20]
 4165 001a FB60     		str	r3, [r7, #12]
 4166              		.loc 6 1236 21
 4167 001c FB68     		ldr	r3, [r7, #12]
 4168 001e 1A68     		ldr	r2, [r3]
 4169              		.loc 6 1236 16
 4170 0020 FB68     		ldr	r3, [r7, #12]
 4171 0022 DA60     		str	r2, [r3, #12]
 4172              		.loc 6 1237 10
 4173 0024 FB68     		ldr	r3, [r7, #12]
 4174 0026 1B68     		ldr	r3, [r3]
 4175              		.loc 6 1237 6
 4176 0028 002B     		cmp	r3, #0
 4177 002a 0BD1     		bne	.L180
 4178              		.loc 6 1239 9
 4179 002c 7B68     		ldr	r3, [r7, #4]
 4180 002e D3F89020 		ldr	r2, [r3, #144]
 4181              		.loc 6 1239 22
 4182 0032 FB78     		ldrb	r3, [r7, #3]	@ zero_extendqisi2
 4183              		.loc 6 1239 32
 4184 0034 5B01     		lsls	r3, r3, #5
 4185 0036 1344     		add	r3, r3, r2
 4186 0038 03F51163 		add	r3, r3, #2320
 4187 003c 4FF40022 		mov	r2, #524288
 4188 0040 1A60     		str	r2, [r3]
 4189 0042 2EE0     		b	.L181
 4190              	.L180:
 4191              	.LBB41:
 4192              		.loc 6 1242 8
 4193 0044 FB78     		ldrb	r3, [r7, #3]	@ zero_extendqisi2
 4194 0046 002B     		cmp	r3, #0
 4195 0048 06D1     		bne	.L182
 4196              		.loc 6 1242 26 discriminator 1
 4197 004a FB68     		ldr	r3, [r7, #12]
 4198 004c 1B68     		ldr	r3, [r3]
 4199              		.loc 6 1242 19 discriminator 1
 4200 004e 402B     		cmp	r3, #64
 4201 0050 02D9     		bls	.L182
 4202              		.loc 6 1243 19
 4203 0052 FB68     		ldr	r3, [r7, #12]
 4204 0054 4022     		movs	r2, #64
 4205 0056 1A60     		str	r2, [r3]
 4206              	.L182:
 4207              		.loc 6 1246 25
 4208 0058 FB68     		ldr	r3, [r7, #12]
 4209 005a 1A68     		ldr	r2, [r3]
 4210              		.loc 6 1246 45
ARM GAS  C:\Users\DEVELO~1\AppData\Local\Temp\cc4r91NU.s 			page 75


 4211 005c FB78     		ldrb	r3, [r7, #3]	@ zero_extendqisi2
 4212 005e 7968     		ldr	r1, [r7, #4]
 4213 0060 0233     		adds	r3, r3, #2
 4214 0062 9B00     		lsls	r3, r3, #2
 4215 0064 0B44     		add	r3, r3, r1
 4216 0066 5B68     		ldr	r3, [r3, #4]
 4217              		.loc 6 1246 49
 4218 0068 1B8A     		ldrh	r3, [r3, #16]
 4219              		.loc 6 1246 34
 4220 006a 1344     		add	r3, r3, r2
 4221              		.loc 6 1246 62
 4222 006c 5A1E     		subs	r2, r3, #1
 4223              		.loc 6 1247 30
 4224 006e FB78     		ldrb	r3, [r7, #3]	@ zero_extendqisi2
 4225 0070 7968     		ldr	r1, [r7, #4]
 4226 0072 0233     		adds	r3, r3, #2
 4227 0074 9B00     		lsls	r3, r3, #2
 4228 0076 0B44     		add	r3, r3, r1
 4229 0078 5B68     		ldr	r3, [r3, #4]
 4230              		.loc 6 1247 34
 4231 007a 1B8A     		ldrh	r3, [r3, #16]
 4232              		.loc 6 1246 14
 4233 007c B2FBF3F3 		udiv	r3, r2, r3
 4234 0080 BB60     		str	r3, [r7, #8]
 4235              		.loc 6 1249 53
 4236 0082 BB68     		ldr	r3, [r7, #8]
 4237 0084 DA04     		lsls	r2, r3, #19
 4238              		.loc 6 1250 34
 4239 0086 FB68     		ldr	r3, [r7, #12]
 4240 0088 1B68     		ldr	r3, [r3]
 4241              		.loc 6 1249 75
 4242 008a 1A43     		orrs	r2, r2, r3
 4243              		.loc 6 1249 9
 4244 008c 7B68     		ldr	r3, [r7, #4]
 4245 008e D3F89010 		ldr	r1, [r3, #144]
 4246              		.loc 6 1249 22
 4247 0092 FB78     		ldrb	r3, [r7, #3]	@ zero_extendqisi2
 4248              		.loc 6 1249 75
 4249 0094 42F00052 		orr	r2, r2, #536870912
 4250              		.loc 6 1249 32
 4251 0098 5B01     		lsls	r3, r3, #5
 4252 009a 0B44     		add	r3, r3, r1
 4253 009c 03F51163 		add	r3, r3, #2320
 4254 00a0 1A60     		str	r2, [r3]
 4255              	.L181:
 4256              	.LBE41:
 4257              		.loc 6 1254 17
 4258 00a2 FB78     		ldrb	r3, [r7, #3]	@ zero_extendqisi2
 4259 00a4 7A68     		ldr	r2, [r7, #4]
 4260 00a6 0233     		adds	r3, r3, #2
 4261 00a8 9B00     		lsls	r3, r3, #2
 4262 00aa 1344     		add	r3, r3, r2
 4263 00ac 5B68     		ldr	r3, [r3, #4]
 4264              		.loc 6 1254 21
 4265 00ae 1B68     		ldr	r3, [r3]
 4266              		.loc 6 1254 31
 4267 00b0 03F00303 		and	r3, r3, #3
ARM GAS  C:\Users\DEVELO~1\AppData\Local\Temp\cc4r91NU.s 			page 76


 4268              		.loc 6 1254 6
 4269 00b4 012B     		cmp	r3, #1
 4270 00b6 2DD1     		bne	.L183
 4271              		.loc 6 1256 13
 4272 00b8 7B68     		ldr	r3, [r7, #4]
 4273 00ba D3F89030 		ldr	r3, [r3, #144]
 4274              		.loc 6 1256 18
 4275 00be D3F80838 		ldr	r3, [r3, #2056]
 4276              		.loc 6 1256 25
 4277 00c2 03F48073 		and	r3, r3, #256
 4278              		.loc 6 1256 8
 4279 00c6 002B     		cmp	r3, #0
 4280 00c8 12D0     		beq	.L184
 4281              		.loc 6 1257 11
 4282 00ca 7B68     		ldr	r3, [r7, #4]
 4283 00cc D3F89020 		ldr	r2, [r3, #144]
 4284              		.loc 6 1257 33
 4285 00d0 FB78     		ldrb	r3, [r7, #3]	@ zero_extendqisi2
 4286 00d2 4833     		adds	r3, r3, #72
 4287 00d4 5B01     		lsls	r3, r3, #5
 4288 00d6 1344     		add	r3, r3, r2
 4289 00d8 1A68     		ldr	r2, [r3]
 4290              		.loc 6 1257 11
 4291 00da 7B68     		ldr	r3, [r7, #4]
 4292 00dc D3F89010 		ldr	r1, [r3, #144]
 4293              		.loc 6 1257 33
 4294 00e0 FB78     		ldrb	r3, [r7, #3]	@ zero_extendqisi2
 4295 00e2 42F08052 		orr	r2, r2, #268435456
 4296 00e6 4833     		adds	r3, r3, #72
 4297 00e8 5B01     		lsls	r3, r3, #5
 4298 00ea 0B44     		add	r3, r3, r1
 4299 00ec 1A60     		str	r2, [r3]
 4300 00ee 11E0     		b	.L183
 4301              	.L184:
 4302              		.loc 6 1259 11
 4303 00f0 7B68     		ldr	r3, [r7, #4]
 4304 00f2 D3F89020 		ldr	r2, [r3, #144]
 4305              		.loc 6 1259 33
 4306 00f6 FB78     		ldrb	r3, [r7, #3]	@ zero_extendqisi2
 4307 00f8 4833     		adds	r3, r3, #72
 4308 00fa 5B01     		lsls	r3, r3, #5
 4309 00fc 1344     		add	r3, r3, r2
 4310 00fe 1A68     		ldr	r2, [r3]
 4311              		.loc 6 1259 11
 4312 0100 7B68     		ldr	r3, [r7, #4]
 4313 0102 D3F89010 		ldr	r1, [r3, #144]
 4314              		.loc 6 1259 33
 4315 0106 FB78     		ldrb	r3, [r7, #3]	@ zero_extendqisi2
 4316 0108 42F00052 		orr	r2, r2, #536870912
 4317 010c 4833     		adds	r3, r3, #72
 4318 010e 5B01     		lsls	r3, r3, #5
 4319 0110 0B44     		add	r3, r3, r1
 4320 0112 1A60     		str	r2, [r3]
 4321              	.L183:
 4322              		.loc 6 1263 7
 4323 0114 7B68     		ldr	r3, [r7, #4]
 4324 0116 D3F89020 		ldr	r2, [r3, #144]
ARM GAS  C:\Users\DEVELO~1\AppData\Local\Temp\cc4r91NU.s 			page 77


 4325              		.loc 6 1263 29
 4326 011a FB78     		ldrb	r3, [r7, #3]	@ zero_extendqisi2
 4327 011c 4833     		adds	r3, r3, #72
 4328 011e 5B01     		lsls	r3, r3, #5
 4329 0120 1344     		add	r3, r3, r2
 4330 0122 1A68     		ldr	r2, [r3]
 4331              		.loc 6 1263 7
 4332 0124 7B68     		ldr	r3, [r7, #4]
 4333 0126 D3F89010 		ldr	r1, [r3, #144]
 4334              		.loc 6 1263 29
 4335 012a FB78     		ldrb	r3, [r7, #3]	@ zero_extendqisi2
 4336 012c 42F00442 		orr	r2, r2, #-2080374784
 4337 0130 4833     		adds	r3, r3, #72
 4338 0132 5B01     		lsls	r3, r3, #5
 4339 0134 0B44     		add	r3, r3, r1
 4340 0136 1A60     		str	r2, [r3]
 4341              		.loc 6 1264 7
 4342 0138 7B68     		ldr	r3, [r7, #4]
 4343 013a D3F89030 		ldr	r3, [r3, #144]
 4344              		.loc 6 1264 25
 4345 013e D3F83418 		ldr	r1, [r3, #2100]
 4346              		.loc 6 1264 28
 4347 0142 FB78     		ldrb	r3, [r7, #3]	@ zero_extendqisi2
 4348 0144 0122     		movs	r2, #1
 4349 0146 9A40     		lsls	r2, r2, r3
 4350              		.loc 6 1264 7
 4351 0148 7B68     		ldr	r3, [r7, #4]
 4352 014a D3F89030 		ldr	r3, [r3, #144]
 4353              		.loc 6 1264 25
 4354 014e 0A43     		orrs	r2, r2, r1
 4355 0150 C3F83428 		str	r2, [r3, #2100]
 4356              		.loc 6 1265 1
 4357 0154 00BF     		nop
 4358 0156 1437     		adds	r7, r7, #20
 4359              		.cfi_def_cfa_offset 4
 4360 0158 BD46     		mov	sp, r7
 4361              		.cfi_def_cfa_register 13
 4362              		@ sp needed
 4363 015a 80BC     		pop	{r7}
 4364              		.cfi_restore 7
 4365              		.cfi_def_cfa_offset 0
 4366 015c 7047     		bx	lr
 4367              		.cfi_endproc
 4368              	.LFE460:
 4369              		.size	usb_lld_start_in, .-usb_lld_start_in
 4370              		.section	.text.usb_lld_stall_out,"ax",%progbits
 4371              		.align	1
 4372              		.global	usb_lld_stall_out
 4373              		.syntax unified
 4374              		.thumb
 4375              		.thumb_func
 4376              		.type	usb_lld_stall_out, %function
 4377              	usb_lld_stall_out:
 4378              	.LFB461:
 4379              		.loc 6 1275 53
 4380              		.cfi_startproc
 4381              		@ args = 0, pretend = 0, frame = 8
ARM GAS  C:\Users\DEVELO~1\AppData\Local\Temp\cc4r91NU.s 			page 78


 4382              		@ frame_needed = 1, uses_anonymous_args = 0
 4383              		@ link register save eliminated.
 4384 0000 80B4     		push	{r7}
 4385              		.cfi_def_cfa_offset 4
 4386              		.cfi_offset 7, -4
 4387 0002 83B0     		sub	sp, sp, #12
 4388              		.cfi_def_cfa_offset 16
 4389 0004 00AF     		add	r7, sp, #0
 4390              		.cfi_def_cfa_register 7
 4391 0006 7860     		str	r0, [r7, #4]
 4392 0008 0B46     		mov	r3, r1
 4393 000a FB70     		strb	r3, [r7, #3]
 4394              		.loc 6 1277 7
 4395 000c 7B68     		ldr	r3, [r7, #4]
 4396 000e D3F89020 		ldr	r2, [r3, #144]
 4397              		.loc 6 1277 29
 4398 0012 FB78     		ldrb	r3, [r7, #3]	@ zero_extendqisi2
 4399 0014 5833     		adds	r3, r3, #88
 4400 0016 5B01     		lsls	r3, r3, #5
 4401 0018 1344     		add	r3, r3, r2
 4402 001a 1A68     		ldr	r2, [r3]
 4403              		.loc 6 1277 7
 4404 001c 7B68     		ldr	r3, [r7, #4]
 4405 001e D3F89010 		ldr	r1, [r3, #144]
 4406              		.loc 6 1277 29
 4407 0022 FB78     		ldrb	r3, [r7, #3]	@ zero_extendqisi2
 4408 0024 42F40012 		orr	r2, r2, #2097152
 4409 0028 5833     		adds	r3, r3, #88
 4410 002a 5B01     		lsls	r3, r3, #5
 4411 002c 0B44     		add	r3, r3, r1
 4412 002e 1A60     		str	r2, [r3]
 4413              		.loc 6 1278 1
 4414 0030 00BF     		nop
 4415 0032 0C37     		adds	r7, r7, #12
 4416              		.cfi_def_cfa_offset 4
 4417 0034 BD46     		mov	sp, r7
 4418              		.cfi_def_cfa_register 13
 4419              		@ sp needed
 4420 0036 80BC     		pop	{r7}
 4421              		.cfi_restore 7
 4422              		.cfi_def_cfa_offset 0
 4423 0038 7047     		bx	lr
 4424              		.cfi_endproc
 4425              	.LFE461:
 4426              		.size	usb_lld_stall_out, .-usb_lld_stall_out
 4427              		.section	.text.usb_lld_stall_in,"ax",%progbits
 4428              		.align	1
 4429              		.global	usb_lld_stall_in
 4430              		.syntax unified
 4431              		.thumb
 4432              		.thumb_func
 4433              		.type	usb_lld_stall_in, %function
 4434              	usb_lld_stall_in:
 4435              	.LFB462:
 4436              		.loc 6 1288 52
 4437              		.cfi_startproc
 4438              		@ args = 0, pretend = 0, frame = 8
ARM GAS  C:\Users\DEVELO~1\AppData\Local\Temp\cc4r91NU.s 			page 79


 4439              		@ frame_needed = 1, uses_anonymous_args = 0
 4440              		@ link register save eliminated.
 4441 0000 80B4     		push	{r7}
 4442              		.cfi_def_cfa_offset 4
 4443              		.cfi_offset 7, -4
 4444 0002 83B0     		sub	sp, sp, #12
 4445              		.cfi_def_cfa_offset 16
 4446 0004 00AF     		add	r7, sp, #0
 4447              		.cfi_def_cfa_register 7
 4448 0006 7860     		str	r0, [r7, #4]
 4449 0008 0B46     		mov	r3, r1
 4450 000a FB70     		strb	r3, [r7, #3]
 4451              		.loc 6 1290 7
 4452 000c 7B68     		ldr	r3, [r7, #4]
 4453 000e D3F89020 		ldr	r2, [r3, #144]
 4454              		.loc 6 1290 29
 4455 0012 FB78     		ldrb	r3, [r7, #3]	@ zero_extendqisi2
 4456 0014 4833     		adds	r3, r3, #72
 4457 0016 5B01     		lsls	r3, r3, #5
 4458 0018 1344     		add	r3, r3, r2
 4459 001a 1A68     		ldr	r2, [r3]
 4460              		.loc 6 1290 7
 4461 001c 7B68     		ldr	r3, [r7, #4]
 4462 001e D3F89010 		ldr	r1, [r3, #144]
 4463              		.loc 6 1290 29
 4464 0022 FB78     		ldrb	r3, [r7, #3]	@ zero_extendqisi2
 4465 0024 42F40012 		orr	r2, r2, #2097152
 4466 0028 4833     		adds	r3, r3, #72
 4467 002a 5B01     		lsls	r3, r3, #5
 4468 002c 0B44     		add	r3, r3, r1
 4469 002e 1A60     		str	r2, [r3]
 4470              		.loc 6 1291 1
 4471 0030 00BF     		nop
 4472 0032 0C37     		adds	r7, r7, #12
 4473              		.cfi_def_cfa_offset 4
 4474 0034 BD46     		mov	sp, r7
 4475              		.cfi_def_cfa_register 13
 4476              		@ sp needed
 4477 0036 80BC     		pop	{r7}
 4478              		.cfi_restore 7
 4479              		.cfi_def_cfa_offset 0
 4480 0038 7047     		bx	lr
 4481              		.cfi_endproc
 4482              	.LFE462:
 4483              		.size	usb_lld_stall_in, .-usb_lld_stall_in
 4484              		.section	.text.usb_lld_clear_out,"ax",%progbits
 4485              		.align	1
 4486              		.global	usb_lld_clear_out
 4487              		.syntax unified
 4488              		.thumb
 4489              		.thumb_func
 4490              		.type	usb_lld_clear_out, %function
 4491              	usb_lld_clear_out:
 4492              	.LFB463:
 4493              		.loc 6 1301 53
 4494              		.cfi_startproc
 4495              		@ args = 0, pretend = 0, frame = 8
ARM GAS  C:\Users\DEVELO~1\AppData\Local\Temp\cc4r91NU.s 			page 80


 4496              		@ frame_needed = 1, uses_anonymous_args = 0
 4497              		@ link register save eliminated.
 4498 0000 80B4     		push	{r7}
 4499              		.cfi_def_cfa_offset 4
 4500              		.cfi_offset 7, -4
 4501 0002 83B0     		sub	sp, sp, #12
 4502              		.cfi_def_cfa_offset 16
 4503 0004 00AF     		add	r7, sp, #0
 4504              		.cfi_def_cfa_register 7
 4505 0006 7860     		str	r0, [r7, #4]
 4506 0008 0B46     		mov	r3, r1
 4507 000a FB70     		strb	r3, [r7, #3]
 4508              		.loc 6 1303 7
 4509 000c 7B68     		ldr	r3, [r7, #4]
 4510 000e D3F89020 		ldr	r2, [r3, #144]
 4511              		.loc 6 1303 29
 4512 0012 FB78     		ldrb	r3, [r7, #3]	@ zero_extendqisi2
 4513 0014 5833     		adds	r3, r3, #88
 4514 0016 5B01     		lsls	r3, r3, #5
 4515 0018 1344     		add	r3, r3, r2
 4516 001a 1A68     		ldr	r2, [r3]
 4517              		.loc 6 1303 7
 4518 001c 7B68     		ldr	r3, [r7, #4]
 4519 001e D3F89010 		ldr	r1, [r3, #144]
 4520              		.loc 6 1303 29
 4521 0022 FB78     		ldrb	r3, [r7, #3]	@ zero_extendqisi2
 4522 0024 22F40012 		bic	r2, r2, #2097152
 4523 0028 5833     		adds	r3, r3, #88
 4524 002a 5B01     		lsls	r3, r3, #5
 4525 002c 0B44     		add	r3, r3, r1
 4526 002e 1A60     		str	r2, [r3]
 4527              		.loc 6 1304 1
 4528 0030 00BF     		nop
 4529 0032 0C37     		adds	r7, r7, #12
 4530              		.cfi_def_cfa_offset 4
 4531 0034 BD46     		mov	sp, r7
 4532              		.cfi_def_cfa_register 13
 4533              		@ sp needed
 4534 0036 80BC     		pop	{r7}
 4535              		.cfi_restore 7
 4536              		.cfi_def_cfa_offset 0
 4537 0038 7047     		bx	lr
 4538              		.cfi_endproc
 4539              	.LFE463:
 4540              		.size	usb_lld_clear_out, .-usb_lld_clear_out
 4541              		.section	.text.usb_lld_clear_in,"ax",%progbits
 4542              		.align	1
 4543              		.global	usb_lld_clear_in
 4544              		.syntax unified
 4545              		.thumb
 4546              		.thumb_func
 4547              		.type	usb_lld_clear_in, %function
 4548              	usb_lld_clear_in:
 4549              	.LFB464:
 4550              		.loc 6 1314 52
 4551              		.cfi_startproc
 4552              		@ args = 0, pretend = 0, frame = 8
ARM GAS  C:\Users\DEVELO~1\AppData\Local\Temp\cc4r91NU.s 			page 81


 4553              		@ frame_needed = 1, uses_anonymous_args = 0
 4554              		@ link register save eliminated.
 4555 0000 80B4     		push	{r7}
 4556              		.cfi_def_cfa_offset 4
 4557              		.cfi_offset 7, -4
 4558 0002 83B0     		sub	sp, sp, #12
 4559              		.cfi_def_cfa_offset 16
 4560 0004 00AF     		add	r7, sp, #0
 4561              		.cfi_def_cfa_register 7
 4562 0006 7860     		str	r0, [r7, #4]
 4563 0008 0B46     		mov	r3, r1
 4564 000a FB70     		strb	r3, [r7, #3]
 4565              		.loc 6 1316 7
 4566 000c 7B68     		ldr	r3, [r7, #4]
 4567 000e D3F89020 		ldr	r2, [r3, #144]
 4568              		.loc 6 1316 29
 4569 0012 FB78     		ldrb	r3, [r7, #3]	@ zero_extendqisi2
 4570 0014 4833     		adds	r3, r3, #72
 4571 0016 5B01     		lsls	r3, r3, #5
 4572 0018 1344     		add	r3, r3, r2
 4573 001a 1A68     		ldr	r2, [r3]
 4574              		.loc 6 1316 7
 4575 001c 7B68     		ldr	r3, [r7, #4]
 4576 001e D3F89010 		ldr	r1, [r3, #144]
 4577              		.loc 6 1316 29
 4578 0022 FB78     		ldrb	r3, [r7, #3]	@ zero_extendqisi2
 4579 0024 22F40012 		bic	r2, r2, #2097152
 4580 0028 4833     		adds	r3, r3, #72
 4581 002a 5B01     		lsls	r3, r3, #5
 4582 002c 0B44     		add	r3, r3, r1
 4583 002e 1A60     		str	r2, [r3]
 4584              		.loc 6 1317 1
 4585 0030 00BF     		nop
 4586 0032 0C37     		adds	r7, r7, #12
 4587              		.cfi_def_cfa_offset 4
 4588 0034 BD46     		mov	sp, r7
 4589              		.cfi_def_cfa_register 13
 4590              		@ sp needed
 4591 0036 80BC     		pop	{r7}
 4592              		.cfi_restore 7
 4593              		.cfi_def_cfa_offset 0
 4594 0038 7047     		bx	lr
 4595              		.cfi_endproc
 4596              	.LFE464:
 4597              		.size	usb_lld_clear_in, .-usb_lld_clear_in
 4598              		.section	.rodata.__func__.0,"a"
 4599              		.align	2
 4600              		.type	__func__.0, %object
 4601              		.size	__func__.0, 10
 4602              	__func__.0:
 4603 0000 56656374 		.ascii	"Vector1D4\000"
 4603      6F723144 
 4603      3400
 4604              		.text
 4605              	.Letext0:
 4606              		.file 7 "c:\\chibistudio\\tools\\gnu tools arm embedded\\11.3 2022.08\\lib\\gcc\\arm-none-eabi\\11
 4607              		.file 8 "c:\\chibistudio\\tools\\gnu tools arm embedded\\11.3 2022.08\\arm-none-eabi\\include\\mac
ARM GAS  C:\Users\DEVELO~1\AppData\Local\Temp\cc4r91NU.s 			page 82


 4608              		.file 9 "c:\\chibistudio\\tools\\gnu tools arm embedded\\11.3 2022.08\\arm-none-eabi\\include\\sys
 4609              		.file 10 "../../../os/common/ports/ARM-common/chtypes.h"
 4610              		.file 11 "../../../os/rt/include/chearly.h"
 4611              		.file 12 "../../../os/common/ext/ST/STM32H7xx/stm32h743xx.h"
 4612              		.file 13 "../../../os/hal/include/hal_usb.h"
 4613              		.file 14 "../../../os/hal/ports/STM32/LLD/OTGv1/hal_usb_lld.h"
 4614              		.file 15 "../../../os/hal/ports/STM32/LLD/OTGv1/stm32_otg.h"
 4615              		.file 16 "../../../os/hal/ports/common/ARMCMx/nvic.h"
 4616              		.file 17 "../../../os/rt/include/chtrace.h"
 4617              		.file 18 "c:\\chibistudio\\tools\\gnu tools arm embedded\\11.3 2022.08\\arm-none-eabi\\include\\st