ARM GAS  C:\Users\DEVELO~1\AppData\Local\Temp\cc4r91NU.s 			page 1


   1              		.cpu cortex-m7
   2              		.arch armv7e-m
   3              		.fpu softvfp
   4              		.eabi_attribute 20, 1
   5              		.eabi_attribute 21, 1
   6              		.eabi_attribute 23, 3
   7              		.eabi_attribute 24, 1
   8              		.eabi_attribute 25, 1
   9              		.eabi_attribute 26, 1
  10              		.eabi_attribute 30, 6
  11              		.eabi_attribute 34, 1
  12              		.eabi_attribute 18, 4
  13              		.file	"hal_usb_lld.c"
  14              		.text
  15              	.Ltext0:
  16              		.cfi_sections	.debug_frame
  17              		.section	.text.chSysLockFromISR,"ax",%progbits
  18              		.align	1
  19              		.syntax unified
  20              		.thumb
  21              		.thumb_func
  22              		.type	chSysLockFromISR, %function
  23              	chSysLockFromISR:
  24              	.LFB204:
  25              		.file 1 "../../../os/rt/include/chsys.h"
  26              		.loc 1 451 43
  27              		.cfi_startproc
  28              		@ args = 0, pretend = 0, frame = 8
  29              		@ frame_needed = 1, uses_anonymous_args = 0
  30              		@ link register save eliminated.
  31 0000 80B4     		push	{r7}
  32              		.cfi_def_cfa_offset 4
  33              		.cfi_offset 7, -4
  34 0002 83B0     		sub	sp, sp, #12
  35              		.cfi_def_cfa_offset 16
  36 0004 00AF     		add	r7, sp, #0
  37              		.cfi_def_cfa_register 7
  38 0006 3023     		movs	r3, #48
  39 0008 7B60     		str	r3, [r7, #4]
  40              	.LBB26:
  41              	.LBB27:
  42              	.LBB28:
  43              	.LBB29:
  44              	.LBB30:
  45              	.LBB31:
  46              		.file 2 "../../../os/common/ext/ARM/CMSIS/Core/Include/cmsis_gcc.h"
  47              		.loc 2 493 3
  48 000a 7B68     		ldr	r3, [r7, #4]
  49              		.syntax unified
  50              	@ 493 "../../../os/common/ext/ARM/CMSIS/Core/Include/cmsis_gcc.h" 1
  51 000c 83F31188 		MSR basepri, r3
  52              	@ 0 "" 2
  53              		.loc 2 494 1
  54              		.thumb
  55              		.syntax unified
  56 0010 00BF     		nop
  57              	.LBE31:
ARM GAS  C:\Users\DEVELO~1\AppData\Local\Temp\cc4r91NU.s 			page 2


  58              	.LBE30:
  59              		.file 3 "../../../os/common/ports/ARMv7-M/chcore.h"
  60              		.loc 3 840 1
  61 0012 00BF     		nop
  62              	.LBE29:
  63              	.LBE28:
  64              		.loc 3 865 1
  65 0014 00BF     		nop
  66              	.LBE27:
  67              	.LBE26:
  68              		.loc 1 456 1
  69 0016 00BF     		nop
  70 0018 0C37     		adds	r7, r7, #12
  71              		.cfi_def_cfa_offset 4
  72 001a BD46     		mov	sp, r7
  73              		.cfi_def_cfa_register 13
  74              		@ sp needed
  75 001c 80BC     		pop	{r7}
  76              		.cfi_restore 7
  77              		.cfi_def_cfa_offset 0
  78 001e 7047     		bx	lr
  79              		.cfi_endproc
  80              	.LFE204:
  81              		.size	chSysLockFromISR, .-chSysLockFromISR
  82              		.section	.text.chSysUnlockFromISR,"ax",%progbits
  83              		.align	1
  84              		.syntax unified
  85              		.thumb
  86              		.thumb_func
  87              		.type	chSysUnlockFromISR, %function
  88              	chSysUnlockFromISR:
  89              	.LFB205:
  90              		.loc 1 473 45
  91              		.cfi_startproc
  92              		@ args = 0, pretend = 0, frame = 8
  93              		@ frame_needed = 1, uses_anonymous_args = 0
  94              		@ link register save eliminated.
  95 0000 80B4     		push	{r7}
  96              		.cfi_def_cfa_offset 4
  97              		.cfi_offset 7, -4
  98 0002 83B0     		sub	sp, sp, #12
  99              		.cfi_def_cfa_offset 16
 100 0004 00AF     		add	r7, sp, #0
 101              		.cfi_def_cfa_register 7
 102 0006 0023     		movs	r3, #0
 103 0008 7B60     		str	r3, [r7, #4]
 104              	.LBB32:
 105              	.LBB33:
 106              	.LBB34:
 107              	.LBB35:
 108              	.LBB36:
 109              	.LBB37:
 110              		.loc 2 493 3
 111 000a 7B68     		ldr	r3, [r7, #4]
 112              		.syntax unified
 113              	@ 493 "../../../os/common/ext/ARM/CMSIS/Core/Include/cmsis_gcc.h" 1
 114 000c 83F31188 		MSR basepri, r3
ARM GAS  C:\Users\DEVELO~1\AppData\Local\Temp\cc4r91NU.s 			page 3


 115              	@ 0 "" 2
 116              		.loc 2 494 1
 117              		.thumb
 118              		.syntax unified
 119 0010 00BF     		nop
 120              	.LBE37:
 121              	.LBE36:
 122              		.loc 3 854 1
 123 0012 00BF     		nop
 124              	.LBE35:
 125              	.LBE34:
 126              		.loc 3 876 1
 127 0014 00BF     		nop
 128              	.LBE33:
 129              	.LBE32:
 130              		.loc 1 478 1
 131 0016 00BF     		nop
 132 0018 0C37     		adds	r7, r7, #12
 133              		.cfi_def_cfa_offset 4
 134 001a BD46     		mov	sp, r7
 135              		.cfi_def_cfa_register 13
 136              		@ sp needed
 137 001c 80BC     		pop	{r7}
 138              		.cfi_restore 7
 139              		.cfi_def_cfa_offset 0
 140 001e 7047     		bx	lr
 141              		.cfi_endproc
 142              	.LFE205:
 143              		.size	chSysUnlockFromISR, .-chSysUnlockFromISR
 144              		.section	.text.osalSysLockFromISR,"ax",%progbits
 145              		.align	1
 146              		.syntax unified
 147              		.thumb
 148              		.thumb_func
 149              		.type	osalSysLockFromISR, %function
 150              	osalSysLockFromISR:
 151              	.LFB352:
 152              		.file 4 "../../../os/hal/osal/rt-nil/osal.h"
 153              		.loc 4 595 45
 154              		.cfi_startproc
 155              		@ args = 0, pretend = 0, frame = 0
 156              		@ frame_needed = 1, uses_anonymous_args = 0
 157 0000 80B5     		push	{r7, lr}
 158              		.cfi_def_cfa_offset 8
 159              		.cfi_offset 7, -8
 160              		.cfi_offset 14, -4
 161 0002 00AF     		add	r7, sp, #0
 162              		.cfi_def_cfa_register 7
 163              		.loc 4 597 3
 164 0004 FFF7FEFF 		bl	chSysLockFromISR
 165              		.loc 4 598 1
 166 0008 00BF     		nop
 167 000a 80BD     		pop	{r7, pc}
 168              		.cfi_endproc
 169              	.LFE352:
 170              		.size	osalSysLockFromISR, .-osalSysLockFromISR
 171              		.section	.text.osalSysUnlockFromISR,"ax",%progbits
ARM GAS  C:\Users\DEVELO~1\AppData\Local\Temp\cc4r91NU.s 			page 4


 172              		.align	1
 173              		.syntax unified
 174              		.thumb
 175              		.thumb_func
 176              		.type	osalSysUnlockFromISR, %function
 177              	osalSysUnlockFromISR:
 178              	.LFB353:
 179              		.loc 4 606 47
 180              		.cfi_startproc
 181              		@ args = 0, pretend = 0, frame = 0
 182              		@ frame_needed = 1, uses_anonymous_args = 0
 183 0000 80B5     		push	{r7, lr}
 184              		.cfi_def_cfa_offset 8
 185              		.cfi_offset 7, -8
 186              		.cfi_offset 14, -4
 187 0002 00AF     		add	r7, sp, #0
 188              		.cfi_def_cfa_register 7
 189              		.loc 4 608 3
 190 0004 FFF7FEFF 		bl	chSysUnlockFromISR
 191              		.loc 4 609 1
 192 0008 00BF     		nop
 193 000a 80BD     		pop	{r7, pc}
 194              		.cfi_endproc
 195              	.LFE353:
 196              		.size	osalSysUnlockFromISR, .-osalSysUnlockFromISR
 197              		.section	.text.osalSysPolledDelayX,"ax",%progbits
 198              		.align	1
 199              		.syntax unified
 200              		.thumb
 201              		.thumb_func
 202              		.type	osalSysPolledDelayX, %function
 203              	osalSysPolledDelayX:
 204              	.LFB356:
 205              		.loc 4 653 56
 206              		.cfi_startproc
 207              		@ args = 0, pretend = 0, frame = 8
 208              		@ frame_needed = 1, uses_anonymous_args = 0
 209 0000 80B5     		push	{r7, lr}
 210              		.cfi_def_cfa_offset 8
 211              		.cfi_offset 7, -8
 212              		.cfi_offset 14, -4
 213 0002 82B0     		sub	sp, sp, #8
 214              		.cfi_def_cfa_offset 16
 215 0004 00AF     		add	r7, sp, #0
 216              		.cfi_def_cfa_register 7
 217 0006 7860     		str	r0, [r7, #4]
 218              		.loc 4 655 3
 219 0008 7868     		ldr	r0, [r7, #4]
 220 000a FFF7FEFF 		bl	chSysPolledDelayX
 221              		.loc 4 656 1
 222 000e 00BF     		nop
 223 0010 0837     		adds	r7, r7, #8
 224              		.cfi_def_cfa_offset 8
 225 0012 BD46     		mov	sp, r7
 226              		.cfi_def_cfa_register 13
 227              		@ sp needed
 228 0014 80BD     		pop	{r7, pc}
ARM GAS  C:\Users\DEVELO~1\AppData\Local\Temp\cc4r91NU.s 			page 5


 229              		.cfi_endproc
 230              	.LFE356:
 231              		.size	osalSysPolledDelayX, .-osalSysPolledDelayX
 232              		.section	.text.__rccResetAHB1,"ax",%progbits
 233              		.align	1
 234              		.syntax unified
 235              		.thumb
 236              		.thumb_func
 237              		.type	__rccResetAHB1, %function
 238              	__rccResetAHB1:
 239              	.LFB384:
 240              		.file 5 "../../../os/hal/ports/STM32/STM32H7xx/stm32_rcc.h"
 241              		.loc 5 97 52
 242              		.cfi_startproc
 243              		@ args = 0, pretend = 0, frame = 8
 244              		@ frame_needed = 1, uses_anonymous_args = 0
 245              		@ link register save eliminated.
 246 0000 80B4     		push	{r7}
 247              		.cfi_def_cfa_offset 4
 248              		.cfi_offset 7, -4
 249 0002 83B0     		sub	sp, sp, #12
 250              		.cfi_def_cfa_offset 16
 251 0004 00AF     		add	r7, sp, #0
 252              		.cfi_def_cfa_register 7
 253 0006 7860     		str	r0, [r7, #4]
 254              		.loc 5 100 17
 255 0008 0C4B     		ldr	r3, .L7
 256 000a D3F88020 		ldr	r2, [r3, #128]
 257 000e 0B49     		ldr	r1, .L7
 258 0010 7B68     		ldr	r3, [r7, #4]
 259 0012 1343     		orrs	r3, r3, r2
 260 0014 C1F88030 		str	r3, [r1, #128]
 261              		.loc 5 101 17
 262 0018 084B     		ldr	r3, .L7
 263 001a D3F88020 		ldr	r2, [r3, #128]
 264              		.loc 5 101 20
 265 001e 7B68     		ldr	r3, [r7, #4]
 266 0020 DB43     		mvns	r3, r3
 267              		.loc 5 101 17
 268 0022 0649     		ldr	r1, .L7
 269 0024 1340     		ands	r3, r3, r2
 270 0026 C1F88030 		str	r3, [r1, #128]
 271              		.loc 5 102 12
 272 002a 044B     		ldr	r3, .L7
 273              		.loc 5 102 3
 274 002c D3F88030 		ldr	r3, [r3, #128]
 275              		.loc 5 103 1
 276 0030 00BF     		nop
 277 0032 0C37     		adds	r7, r7, #12
 278              		.cfi_def_cfa_offset 4
 279 0034 BD46     		mov	sp, r7
 280              		.cfi_def_cfa_register 13
 281              		@ sp needed
 282 0036 80BC     		pop	{r7}
 283              		.cfi_restore 7
 284              		.cfi_def_cfa_offset 0
 285 0038 7047     		bx	lr
ARM GAS  C:\Users\DEVELO~1\AppData\Local\Temp\cc4r91NU.s 			page 6


 286              	.L8:
 287 003a 00BF     		.align	2
 288              	.L7:
 289 003c 00440258 		.word	1476543488
 290              		.cfi_endproc
 291              	.LFE384:
 292              		.size	__rccResetAHB1, .-__rccResetAHB1
 293              		.section	.text.rccEnableAHB1,"ax",%progbits
 294              		.align	1
 295              		.syntax unified
 296              		.thumb
 297              		.thumb_func
 298              		.type	rccEnableAHB1, %function
 299              	rccEnableAHB1:
 300              	.LFB403:
 301              		.loc 5 586 60
 302              		.cfi_startproc
 303              		@ args = 0, pretend = 0, frame = 8
 304              		@ frame_needed = 1, uses_anonymous_args = 0
 305              		@ link register save eliminated.
 306 0000 80B4     		push	{r7}
 307              		.cfi_def_cfa_offset 4
 308              		.cfi_offset 7, -4
 309 0002 83B0     		sub	sp, sp, #12
 310              		.cfi_def_cfa_offset 16
 311 0004 00AF     		add	r7, sp, #0
 312              		.cfi_def_cfa_register 7
 313 0006 7860     		str	r0, [r7, #4]
 314 0008 0B46     		mov	r3, r1
 315 000a FB70     		strb	r3, [r7, #3]
 316              		.loc 5 590 19
 317 000c 124B     		ldr	r3, .L12
 318 000e D3F8D820 		ldr	r2, [r3, #216]
 319 0012 1149     		ldr	r1, .L12
 320 0014 7B68     		ldr	r3, [r7, #4]
 321 0016 1343     		orrs	r3, r3, r2
 322 0018 C1F8D830 		str	r3, [r1, #216]
 323              		.loc 5 591 6
 324 001c FB78     		ldrb	r3, [r7, #3]	@ zero_extendqisi2
 325 001e 002B     		cmp	r3, #0
 326 0020 08D0     		beq	.L10
 327              		.loc 5 592 23
 328 0022 0D4B     		ldr	r3, .L12
 329 0024 D3F80021 		ldr	r2, [r3, #256]
 330 0028 0B49     		ldr	r1, .L12
 331 002a 7B68     		ldr	r3, [r7, #4]
 332 002c 1343     		orrs	r3, r3, r2
 333 002e C1F80031 		str	r3, [r1, #256]
 334 0032 08E0     		b	.L11
 335              	.L10:
 336              		.loc 5 595 23
 337 0034 084B     		ldr	r3, .L12
 338 0036 D3F80021 		ldr	r2, [r3, #256]
 339              		.loc 5 595 26
 340 003a 7B68     		ldr	r3, [r7, #4]
 341 003c DB43     		mvns	r3, r3
 342              		.loc 5 595 23
ARM GAS  C:\Users\DEVELO~1\AppData\Local\Temp\cc4r91NU.s 			page 7


 343 003e 0649     		ldr	r1, .L12
 344 0040 1340     		ands	r3, r3, r2
 345 0042 C1F80031 		str	r3, [r1, #256]
 346              	.L11:
 347              		.loc 5 597 15
 348 0046 044B     		ldr	r3, .L12
 349              		.loc 5 597 3
 350 0048 D3F80031 		ldr	r3, [r3, #256]
 351              		.loc 5 609 1
 352 004c 00BF     		nop
 353 004e 0C37     		adds	r7, r7, #12
 354              		.cfi_def_cfa_offset 4
 355 0050 BD46     		mov	sp, r7
 356              		.cfi_def_cfa_register 13
 357              		@ sp needed
 358 0052 80BC     		pop	{r7}
 359              		.cfi_restore 7
 360              		.cfi_def_cfa_offset 0
 361 0054 7047     		bx	lr
 362              	.L13:
 363 0056 00BF     		.align	2
 364              	.L12:
 365 0058 00440258 		.word	1476543488
 366              		.cfi_endproc
 367              	.LFE403:
 368              		.size	rccEnableAHB1, .-rccEnableAHB1
 369              		.section	.text.rccDisableAHB1,"ax",%progbits
 370              		.align	1
 371              		.syntax unified
 372              		.thumb
 373              		.thumb_func
 374              		.type	rccDisableAHB1, %function
 375              	rccDisableAHB1:
 376              	.LFB404:
 377              		.loc 5 618 52
 378              		.cfi_startproc
 379              		@ args = 0, pretend = 0, frame = 8
 380              		@ frame_needed = 1, uses_anonymous_args = 0
 381              		@ link register save eliminated.
 382 0000 80B4     		push	{r7}
 383              		.cfi_def_cfa_offset 4
 384              		.cfi_offset 7, -4
 385 0002 83B0     		sub	sp, sp, #12
 386              		.cfi_def_cfa_offset 16
 387 0004 00AF     		add	r7, sp, #0
 388              		.cfi_def_cfa_register 7
 389 0006 7860     		str	r0, [r7, #4]
 390              		.loc 5 628 19
 391 0008 0C4B     		ldr	r3, .L15
 392 000a D3F8D820 		ldr	r2, [r3, #216]
 393              		.loc 5 628 22
 394 000e 7B68     		ldr	r3, [r7, #4]
 395 0010 DB43     		mvns	r3, r3
 396              		.loc 5 628 19
 397 0012 0A49     		ldr	r1, .L15
 398 0014 1340     		ands	r3, r3, r2
 399 0016 C1F8D830 		str	r3, [r1, #216]
ARM GAS  C:\Users\DEVELO~1\AppData\Local\Temp\cc4r91NU.s 			page 8


 400              		.loc 5 629 21
 401 001a 084B     		ldr	r3, .L15
 402 001c D3F80021 		ldr	r2, [r3, #256]
 403              		.loc 5 629 24
 404 0020 7B68     		ldr	r3, [r7, #4]
 405 0022 DB43     		mvns	r3, r3
 406              		.loc 5 629 21
 407 0024 0549     		ldr	r1, .L15
 408 0026 1340     		ands	r3, r3, r2
 409 0028 C1F80031 		str	r3, [r1, #256]
 410              		.loc 5 630 15
 411 002c 034B     		ldr	r3, .L15
 412              		.loc 5 630 3
 413 002e D3F80031 		ldr	r3, [r3, #256]
 414              		.loc 5 643 1
 415 0032 00BF     		nop
 416 0034 0C37     		adds	r7, r7, #12
 417              		.cfi_def_cfa_offset 4
 418 0036 BD46     		mov	sp, r7
 419              		.cfi_def_cfa_register 13
 420              		@ sp needed
 421 0038 80BC     		pop	{r7}
 422              		.cfi_restore 7
 423              		.cfi_def_cfa_offset 0
 424 003a 7047     		bx	lr
 425              	.L16:
 426              		.align	2
 427              	.L15:
 428 003c 00440258 		.word	1476543488
 429              		.cfi_endproc
 430              	.LFE404:
 431              		.size	rccDisableAHB1, .-rccDisableAHB1
 432              		.section	.text.rccResetAHB1,"ax",%progbits
 433              		.align	1
 434              		.syntax unified
 435              		.thumb
 436              		.thumb_func
 437              		.type	rccResetAHB1, %function
 438              	rccResetAHB1:
 439              	.LFB405:
 440              		.loc 5 652 50
 441              		.cfi_startproc
 442              		@ args = 0, pretend = 0, frame = 8
 443              		@ frame_needed = 1, uses_anonymous_args = 0
 444 0000 80B5     		push	{r7, lr}
 445              		.cfi_def_cfa_offset 8
 446              		.cfi_offset 7, -8
 447              		.cfi_offset 14, -4
 448 0002 82B0     		sub	sp, sp, #8
 449              		.cfi_def_cfa_offset 16
 450 0004 00AF     		add	r7, sp, #0
 451              		.cfi_def_cfa_register 7
 452 0006 7860     		str	r0, [r7, #4]
 453              		.loc 5 664 3
 454 0008 7868     		ldr	r0, [r7, #4]
 455 000a FFF7FEFF 		bl	__rccResetAHB1
 456              		.loc 5 665 1
ARM GAS  C:\Users\DEVELO~1\AppData\Local\Temp\cc4r91NU.s 			page 9


 457 000e 00BF     		nop
 458 0010 0837     		adds	r7, r7, #8
 459              		.cfi_def_cfa_offset 8
 460 0012 BD46     		mov	sp, r7
 461              		.cfi_def_cfa_register 13
 462              		@ sp needed
 463 0014 80BD     		pop	{r7, pc}
 464              		.cfi_endproc
 465              	.LFE405:
 466              		.size	rccResetAHB1, .-rccResetAHB1
 467              		.global	USBD1
 468              		.section	.bss.USBD1,"aw",%nobits
 469              		.align	2
 470              		.type	USBD1, %object
 471              		.size	USBD1, 156
 472              	USBD1:
 473 0000 00000000 		.space	156
 473      00000000 
 473      00000000 
 473      00000000 
 473      00000000 
 474              		.section	.bss.ep0_state,"aw",%nobits
 475              		.align	2
 476              		.type	ep0_state, %object
 477              		.size	ep0_state, 16
 478              	ep0_state:
 479 0000 00000000 		.space	16
 479      00000000 
 479      00000000 
 479      00000000 
 480              		.section	.bss.ep0setup_buffer,"aw",%nobits
 481              		.align	2
 482              		.type	ep0setup_buffer, %object
 483              		.size	ep0setup_buffer, 8
 484              	ep0setup_buffer:
 485 0000 00000000 		.space	8
 485      00000000 
 486              		.section	.rodata.ep0config,"a"
 487              		.align	2
 488              		.type	ep0config, %object
 489              		.size	ep0config, 36
 490              	ep0config:
 491 0000 00000000 		.word	0
 492 0004 00000000 		.word	_usb_ep0setup
 493 0008 00000000 		.word	_usb_ep0in
 494 000c 00000000 		.word	_usb_ep0out
 495 0010 4000     		.short	64
 496 0012 4000     		.short	64
 497 0014 00000000 		.word	ep0_state
 498 0018 00000000 		.word	ep0_state
 499 001c 0100     		.short	1
 500 001e 0000     		.space	2
 501 0020 00000000 		.word	ep0setup_buffer
 502              		.section	.rodata.fsparams,"a"
 503              		.align	2
 504              		.type	fsparams, %object
 505              		.size	fsparams, 12
ARM GAS  C:\Users\DEVELO~1\AppData\Local\Temp\cc4r91NU.s 			page 10


 506              	fsparams:
 507 0000 80000000 		.word	128
 508 0004 40010000 		.word	320
 509 0008 08000000 		.word	8
 510              		.section	.text.otg_core_reset,"ax",%progbits
 511              		.align	1
 512              		.syntax unified
 513              		.thumb
 514              		.thumb_func
 515              		.type	otg_core_reset, %function
 516              	otg_core_reset:
 517              	.LFB432:
 518              		.file 6 "../../../os/hal/ports/STM32/LLD/OTGv1/hal_usb_lld.c"
 519              		.loc 6 148 45
 520              		.cfi_startproc
 521              		@ args = 0, pretend = 0, frame = 16
 522              		@ frame_needed = 1, uses_anonymous_args = 0
 523 0000 80B5     		push	{r7, lr}
 524              		.cfi_def_cfa_offset 8
 525              		.cfi_offset 7, -8
 526              		.cfi_offset 14, -4
 527 0002 84B0     		sub	sp, sp, #16
 528              		.cfi_def_cfa_offset 24
 529 0004 00AF     		add	r7, sp, #0
 530              		.cfi_def_cfa_register 7
 531 0006 7860     		str	r0, [r7, #4]
 532              		.loc 6 149 16
 533 0008 7B68     		ldr	r3, [r7, #4]
 534 000a D3F89030 		ldr	r3, [r3, #144]
 535 000e FB60     		str	r3, [r7, #12]
 536              		.loc 6 152 9
 537 0010 00BF     		nop
 538              	.L19:
 539              		.loc 6 152 15 discriminator 1
 540 0012 FB68     		ldr	r3, [r7, #12]
 541 0014 1B69     		ldr	r3, [r3, #16]
 542              		.loc 6 152 43 discriminator 1
 543 0016 002B     		cmp	r3, #0
 544 0018 FBDA     		bge	.L19
 545              		.loc 6 156 17
 546 001a FB68     		ldr	r3, [r7, #12]
 547 001c 0122     		movs	r2, #1
 548 001e 1A61     		str	r2, [r3, #16]
 549              		.loc 6 157 3
 550 0020 0C20     		movs	r0, #12
 551 0022 FFF7FEFF 		bl	osalSysPolledDelayX
 552              		.loc 6 158 9
 553 0026 00BF     		nop
 554              	.L20:
 555              		.loc 6 158 15 discriminator 1
 556 0028 FB68     		ldr	r3, [r7, #12]
 557 002a 1B69     		ldr	r3, [r3, #16]
 558              		.loc 6 158 25 discriminator 1
 559 002c 03F00103 		and	r3, r3, #1
 560              		.loc 6 158 42 discriminator 1
 561 0030 002B     		cmp	r3, #0
 562 0032 F9D1     		bne	.L20
ARM GAS  C:\Users\DEVELO~1\AppData\Local\Temp\cc4r91NU.s 			page 11


 563              		.loc 6 161 3
 564 0034 1220     		movs	r0, #18
 565 0036 FFF7FEFF 		bl	osalSysPolledDelayX
 566              		.loc 6 164 9
 567 003a 00BF     		nop
 568              	.L21:
 569              		.loc 6 164 15 discriminator 1
 570 003c FB68     		ldr	r3, [r7, #12]
 571 003e 1B69     		ldr	r3, [r3, #16]
 572              		.loc 6 164 43 discriminator 1
 573 0040 002B     		cmp	r3, #0
 574 0042 FBDA     		bge	.L21
 575              		.loc 6 166 1
 576 0044 00BF     		nop
 577 0046 00BF     		nop
 578 0048 1037     		adds	r7, r7, #16
 579              		.cfi_def_cfa_offset 8
 580 004a BD46     		mov	sp, r7
 581              		.cfi_def_cfa_register 13
 582              		@ sp needed
 583 004c 80BD     		pop	{r7, pc}
 584              		.cfi_endproc
 585              	.LFE432:
 586              		.size	otg_core_reset, .-otg_core_reset
 587              		.section	.text.otg_disable_ep,"ax",%progbits
 588              		.align	1
 589              		.syntax unified
 590              		.thumb
 591              		.thumb_func
 592              		.type	otg_disable_ep, %function
 593              	otg_disable_ep:
 594              	.LFB433:
 595              		.loc 6 168 45
 596              		.cfi_startproc
 597              		@ args = 0, pretend = 0, frame = 16
 598              		@ frame_needed = 1, uses_anonymous_args = 0
 599              		@ link register save eliminated.
 600 0000 80B4     		push	{r7}
 601              		.cfi_def_cfa_offset 4
 602              		.cfi_offset 7, -4
 603 0002 85B0     		sub	sp, sp, #20
 604              		.cfi_def_cfa_offset 24
 605 0004 00AF     		add	r7, sp, #0
 606              		.cfi_def_cfa_register 7
 607 0006 7860     		str	r0, [r7, #4]
 608              		.loc 6 169 16
 609 0008 7B68     		ldr	r3, [r7, #4]
 610 000a D3F89030 		ldr	r3, [r3, #144]
 611 000e BB60     		str	r3, [r7, #8]
 612              		.loc 6 172 10
 613 0010 0023     		movs	r3, #0
 614 0012 FB60     		str	r3, [r7, #12]
 615              		.loc 6 172 3
 616 0014 40E0     		b	.L23
 617              	.L26:
 618              		.loc 6 174 21
 619 0016 BA68     		ldr	r2, [r7, #8]
ARM GAS  C:\Users\DEVELO~1\AppData\Local\Temp\cc4r91NU.s 			page 12


 620 0018 FB68     		ldr	r3, [r7, #12]
 621 001a 4833     		adds	r3, r3, #72
 622 001c 5B01     		lsls	r3, r3, #5
 623 001e 1344     		add	r3, r3, r2
 624 0020 1B68     		ldr	r3, [r3]
 625              		.loc 6 174 8
 626 0022 002B     		cmp	r3, #0
 627 0024 0DDA     		bge	.L24
 628              		.loc 6 175 27
 629 0026 BA68     		ldr	r2, [r7, #8]
 630 0028 FB68     		ldr	r3, [r7, #12]
 631 002a 4833     		adds	r3, r3, #72
 632 002c 5B01     		lsls	r3, r3, #5
 633 002e 1344     		add	r3, r3, r2
 634 0030 1B68     		ldr	r3, [r3]
 635 0032 43F08042 		orr	r2, r3, #1073741824
 636 0036 B968     		ldr	r1, [r7, #8]
 637 0038 FB68     		ldr	r3, [r7, #12]
 638 003a 4833     		adds	r3, r3, #72
 639 003c 5B01     		lsls	r3, r3, #5
 640 003e 0B44     		add	r3, r3, r1
 641 0040 1A60     		str	r2, [r3]
 642              	.L24:
 643              		.loc 6 178 21
 644 0042 BA68     		ldr	r2, [r7, #8]
 645 0044 FB68     		ldr	r3, [r7, #12]
 646 0046 5833     		adds	r3, r3, #88
 647 0048 5B01     		lsls	r3, r3, #5
 648 004a 1344     		add	r3, r3, r2
 649 004c 1B68     		ldr	r3, [r3]
 650              		.loc 6 178 8
 651 004e 002B     		cmp	r3, #0
 652 0050 0DDA     		bge	.L25
 653              		.loc 6 179 27
 654 0052 BA68     		ldr	r2, [r7, #8]
 655 0054 FB68     		ldr	r3, [r7, #12]
 656 0056 5833     		adds	r3, r3, #88
 657 0058 5B01     		lsls	r3, r3, #5
 658 005a 1344     		add	r3, r3, r2
 659 005c 1B68     		ldr	r3, [r3]
 660 005e 43F08042 		orr	r2, r3, #1073741824
 661 0062 B968     		ldr	r1, [r7, #8]
 662 0064 FB68     		ldr	r3, [r7, #12]
 663 0066 5833     		adds	r3, r3, #88
 664 0068 5B01     		lsls	r3, r3, #5
 665 006a 0B44     		add	r3, r3, r1
 666 006c 1A60     		str	r2, [r3]
 667              	.L25:
 668              		.loc 6 182 25 discriminator 2
 669 006e BA68     		ldr	r2, [r7, #8]
 670 0070 FB68     		ldr	r3, [r7, #12]
 671 0072 5B01     		lsls	r3, r3, #5
 672 0074 1344     		add	r3, r3, r2
 673 0076 03F60813 		addw	r3, r3, #2312
 674 007a 4FF0FF32 		mov	r2, #-1
 675 007e 1A60     		str	r2, [r3]
 676              		.loc 6 183 25 discriminator 2
ARM GAS  C:\Users\DEVELO~1\AppData\Local\Temp\cc4r91NU.s 			page 13


 677 0080 BA68     		ldr	r2, [r7, #8]
 678 0082 FB68     		ldr	r3, [r7, #12]
 679 0084 5B01     		lsls	r3, r3, #5
 680 0086 1344     		add	r3, r3, r2
 681 0088 03F60833 		addw	r3, r3, #2824
 682 008c 4FF0FF32 		mov	r2, #-1
 683 0090 1A60     		str	r2, [r3]
 684              		.loc 6 172 53 discriminator 2
 685 0092 FB68     		ldr	r3, [r7, #12]
 686 0094 0133     		adds	r3, r3, #1
 687 0096 FB60     		str	r3, [r7, #12]
 688              	.L23:
 689              		.loc 6 172 24 discriminator 1
 690 0098 7B68     		ldr	r3, [r7, #4]
 691 009a D3F89430 		ldr	r3, [r3, #148]
 692              		.loc 6 172 35 discriminator 1
 693 009e 9B68     		ldr	r3, [r3, #8]
 694              		.loc 6 172 17 discriminator 1
 695 00a0 FA68     		ldr	r2, [r7, #12]
 696 00a2 9A42     		cmp	r2, r3
 697 00a4 B7D9     		bls	.L26
 698              		.loc 6 185 18
 699 00a6 BB68     		ldr	r3, [r7, #8]
 700 00a8 4FF00112 		mov	r2, #65537
 701 00ac C3F81C28 		str	r2, [r3, #2076]
 702              		.loc 6 186 1
 703 00b0 00BF     		nop
 704 00b2 1437     		adds	r7, r7, #20
 705              		.cfi_def_cfa_offset 4
 706 00b4 BD46     		mov	sp, r7
 707              		.cfi_def_cfa_register 13
 708              		@ sp needed
 709 00b6 80BC     		pop	{r7}
 710              		.cfi_restore 7
 711              		.cfi_def_cfa_offset 0
 712 00b8 7047     		bx	lr
 713              		.cfi_endproc
 714              	.LFE433:
 715              		.size	otg_disable_ep, .-otg_disable_ep
 716              		.section	.text.otg_enable_ep,"ax",%progbits
 717              		.align	1
 718              		.syntax unified
 719              		.thumb
 720              		.thumb_func
 721              		.type	otg_enable_ep, %function
 722              	otg_enable_ep:
 723              	.LFB434:
 724              		.loc 6 188 44
 725              		.cfi_startproc
 726              		@ args = 0, pretend = 0, frame = 16
 727              		@ frame_needed = 1, uses_anonymous_args = 0
 728              		@ link register save eliminated.
 729 0000 80B4     		push	{r7}
 730              		.cfi_def_cfa_offset 4
 731              		.cfi_offset 7, -4
 732 0002 85B0     		sub	sp, sp, #20
 733              		.cfi_def_cfa_offset 24
ARM GAS  C:\Users\DEVELO~1\AppData\Local\Temp\cc4r91NU.s 			page 14


 734 0004 00AF     		add	r7, sp, #0
 735              		.cfi_def_cfa_register 7
 736 0006 7860     		str	r0, [r7, #4]
 737              		.loc 6 189 16
 738 0008 7B68     		ldr	r3, [r7, #4]
 739 000a D3F89030 		ldr	r3, [r3, #144]
 740 000e BB60     		str	r3, [r7, #8]
 741              		.loc 6 192 10
 742 0010 0023     		movs	r3, #0
 743 0012 FB60     		str	r3, [r7, #12]
 744              		.loc 6 192 3
 745 0014 2BE0     		b	.L28
 746              	.L31:
 747              		.loc 6 193 18
 748 0016 7A68     		ldr	r2, [r7, #4]
 749 0018 FB68     		ldr	r3, [r7, #12]
 750 001a 0233     		adds	r3, r3, #2
 751 001c 9B00     		lsls	r3, r3, #2
 752 001e 1344     		add	r3, r3, r2
 753 0020 5B68     		ldr	r3, [r3, #4]
 754              		.loc 6 193 21
 755 0022 9B69     		ldr	r3, [r3, #24]
 756              		.loc 6 193 8
 757 0024 002B     		cmp	r3, #0
 758 0026 0BD0     		beq	.L29
 759              		.loc 6 194 22
 760 0028 BB68     		ldr	r3, [r7, #8]
 761 002a D3F81C28 		ldr	r2, [r3, #2076]
 762              		.loc 6 194 25
 763 002e FB68     		ldr	r3, [r7, #12]
 764 0030 1033     		adds	r3, r3, #16
 765 0032 0121     		movs	r1, #1
 766 0034 01FA03F3 		lsl	r3, r1, r3
 767              		.loc 6 194 22
 768 0038 1A43     		orrs	r2, r2, r3
 769 003a BB68     		ldr	r3, [r7, #8]
 770 003c C3F81C28 		str	r2, [r3, #2076]
 771              	.L29:
 772              		.loc 6 196 18
 773 0040 7A68     		ldr	r2, [r7, #4]
 774 0042 FB68     		ldr	r3, [r7, #12]
 775 0044 0233     		adds	r3, r3, #2
 776 0046 9B00     		lsls	r3, r3, #2
 777 0048 1344     		add	r3, r3, r2
 778 004a 5B68     		ldr	r3, [r3, #4]
 779              		.loc 6 196 21
 780 004c 5B69     		ldr	r3, [r3, #20]
 781              		.loc 6 196 8
 782 004e 002B     		cmp	r3, #0
 783 0050 0AD0     		beq	.L30
 784              		.loc 6 197 22
 785 0052 BB68     		ldr	r3, [r7, #8]
 786 0054 D3F81C28 		ldr	r2, [r3, #2076]
 787              		.loc 6 197 25
 788 0058 0121     		movs	r1, #1
 789 005a FB68     		ldr	r3, [r7, #12]
 790 005c 01FA03F3 		lsl	r3, r1, r3
ARM GAS  C:\Users\DEVELO~1\AppData\Local\Temp\cc4r91NU.s 			page 15


 791              		.loc 6 197 22
 792 0060 1A43     		orrs	r2, r2, r3
 793 0062 BB68     		ldr	r3, [r7, #8]
 794 0064 C3F81C28 		str	r2, [r3, #2076]
 795              	.L30:
 796              		.loc 6 192 53 discriminator 2
 797 0068 FB68     		ldr	r3, [r7, #12]
 798 006a 0133     		adds	r3, r3, #1
 799 006c FB60     		str	r3, [r7, #12]
 800              	.L28:
 801              		.loc 6 192 24 discriminator 1
 802 006e 7B68     		ldr	r3, [r7, #4]
 803 0070 D3F89430 		ldr	r3, [r3, #148]
 804              		.loc 6 192 35 discriminator 1
 805 0074 9B68     		ldr	r3, [r3, #8]
 806              		.loc 6 192 17 discriminator 1
 807 0076 FA68     		ldr	r2, [r7, #12]
 808 0078 9A42     		cmp	r2, r3
 809 007a CCD9     		bls	.L31
 810              		.loc 6 200 1
 811 007c 00BF     		nop
 812 007e 00BF     		nop
 813 0080 1437     		adds	r7, r7, #20
 814              		.cfi_def_cfa_offset 4
 815 0082 BD46     		mov	sp, r7
 816              		.cfi_def_cfa_register 13
 817              		@ sp needed
 818 0084 80BC     		pop	{r7}
 819              		.cfi_restore 7
 820              		.cfi_def_cfa_offset 0
 821 0086 7047     		bx	lr
 822              		.cfi_endproc
 823              	.LFE434:
 824              		.size	otg_enable_ep, .-otg_enable_ep
 825              		.section	.text.otg_rxfifo_flush,"ax",%progbits
 826              		.align	1
 827              		.syntax unified
 828              		.thumb
 829              		.thumb_func
 830              		.type	otg_rxfifo_flush, %function
 831              	otg_rxfifo_flush:
 832              	.LFB435:
 833              		.loc 6 202 47
 834              		.cfi_startproc
 835              		@ args = 0, pretend = 0, frame = 16
 836              		@ frame_needed = 1, uses_anonymous_args = 0
 837 0000 80B5     		push	{r7, lr}
 838              		.cfi_def_cfa_offset 8
 839              		.cfi_offset 7, -8
 840              		.cfi_offset 14, -4
 841 0002 84B0     		sub	sp, sp, #16
 842              		.cfi_def_cfa_offset 24
 843 0004 00AF     		add	r7, sp, #0
 844              		.cfi_def_cfa_register 7
 845 0006 7860     		str	r0, [r7, #4]
 846              		.loc 6 203 16
 847 0008 7B68     		ldr	r3, [r7, #4]
ARM GAS  C:\Users\DEVELO~1\AppData\Local\Temp\cc4r91NU.s 			page 16


 848 000a D3F89030 		ldr	r3, [r3, #144]
 849 000e FB60     		str	r3, [r7, #12]
 850              		.loc 6 205 17
 851 0010 FB68     		ldr	r3, [r7, #12]
 852 0012 1022     		movs	r2, #16
 853 0014 1A61     		str	r2, [r3, #16]
 854              		.loc 6 206 9
 855 0016 00BF     		nop
 856              	.L33:
 857              		.loc 6 206 15 discriminator 1
 858 0018 FB68     		ldr	r3, [r7, #12]
 859 001a 1B69     		ldr	r3, [r3, #16]
 860              		.loc 6 206 25 discriminator 1
 861 001c 03F01003 		and	r3, r3, #16
 862              		.loc 6 206 44 discriminator 1
 863 0020 002B     		cmp	r3, #0
 864 0022 F9D1     		bne	.L33
 865              		.loc 6 209 3
 866 0024 1220     		movs	r0, #18
 867 0026 FFF7FEFF 		bl	osalSysPolledDelayX
 868              		.loc 6 210 1
 869 002a 00BF     		nop
 870 002c 1037     		adds	r7, r7, #16
 871              		.cfi_def_cfa_offset 8
 872 002e BD46     		mov	sp, r7
 873              		.cfi_def_cfa_register 13
 874              		@ sp needed
 875 0030 80BD     		pop	{r7, pc}
 876              		.cfi_endproc
 877              	.LFE435:
 878              		.size	otg_rxfifo_flush, .-otg_rxfifo_flush
 879              		.section	.text.otg_txfifo_flush,"ax",%progbits
 880              		.align	1
 881              		.syntax unified
 882              		.thumb
 883              		.thumb_func
 884              		.type	otg_txfifo_flush, %function
 885              	otg_txfifo_flush:
 886              	.LFB436:
 887              		.loc 6 212 62
 888              		.cfi_startproc
 889              		@ args = 0, pretend = 0, frame = 16
 890              		@ frame_needed = 1, uses_anonymous_args = 0
 891 0000 80B5     		push	{r7, lr}
 892              		.cfi_def_cfa_offset 8
 893              		.cfi_offset 7, -8
 894              		.cfi_offset 14, -4
 895 0002 84B0     		sub	sp, sp, #16
 896              		.cfi_def_cfa_offset 24
 897 0004 00AF     		add	r7, sp, #0
 898              		.cfi_def_cfa_register 7
 899 0006 7860     		str	r0, [r7, #4]
 900 0008 3960     		str	r1, [r7]
 901              		.loc 6 213 16
 902 000a 7B68     		ldr	r3, [r7, #4]
 903 000c D3F89030 		ldr	r3, [r3, #144]
 904 0010 FB60     		str	r3, [r7, #12]
ARM GAS  C:\Users\DEVELO~1\AppData\Local\Temp\cc4r91NU.s 			page 17


 905              		.loc 6 215 19
 906 0012 3B68     		ldr	r3, [r7]
 907 0014 9B01     		lsls	r3, r3, #6
 908              		.loc 6 215 40
 909 0016 43F02002 		orr	r2, r3, #32
 910              		.loc 6 215 17
 911 001a FB68     		ldr	r3, [r7, #12]
 912 001c 1A61     		str	r2, [r3, #16]
 913              		.loc 6 216 9
 914 001e 00BF     		nop
 915              	.L35:
 916              		.loc 6 216 15 discriminator 1
 917 0020 FB68     		ldr	r3, [r7, #12]
 918 0022 1B69     		ldr	r3, [r3, #16]
 919              		.loc 6 216 25 discriminator 1
 920 0024 03F02003 		and	r3, r3, #32
 921              		.loc 6 216 44 discriminator 1
 922 0028 002B     		cmp	r3, #0
 923 002a F9D1     		bne	.L35
 924              		.loc 6 219 3
 925 002c 1220     		movs	r0, #18
 926 002e FFF7FEFF 		bl	osalSysPolledDelayX
 927              		.loc 6 220 1
 928 0032 00BF     		nop
 929 0034 1037     		adds	r7, r7, #16
 930              		.cfi_def_cfa_offset 8
 931 0036 BD46     		mov	sp, r7
 932              		.cfi_def_cfa_register 13
 933              		@ sp needed
 934 0038 80BD     		pop	{r7, pc}
 935              		.cfi_endproc
 936              	.LFE436:
 937              		.size	otg_txfifo_flush, .-otg_txfifo_flush
 938              		.section	.text.otg_ram_reset,"ax",%progbits
 939              		.align	1
 940              		.syntax unified
 941              		.thumb
 942              		.thumb_func
 943              		.type	otg_ram_reset, %function
 944              	otg_ram_reset:
 945              	.LFB437:
 946              		.loc 6 229 44
 947              		.cfi_startproc
 948              		@ args = 0, pretend = 0, frame = 8
 949              		@ frame_needed = 1, uses_anonymous_args = 0
 950              		@ link register save eliminated.
 951 0000 80B4     		push	{r7}
 952              		.cfi_def_cfa_offset 4
 953              		.cfi_offset 7, -4
 954 0002 83B0     		sub	sp, sp, #12
 955              		.cfi_def_cfa_offset 16
 956 0004 00AF     		add	r7, sp, #0
 957              		.cfi_def_cfa_register 7
 958 0006 7860     		str	r0, [r7, #4]
 959              		.loc 6 231 22
 960 0008 7B68     		ldr	r3, [r7, #4]
 961 000a D3F89430 		ldr	r3, [r3, #148]
ARM GAS  C:\Users\DEVELO~1\AppData\Local\Temp\cc4r91NU.s 			page 18


 962              		.loc 6 231 33
 963 000e 1A68     		ldr	r2, [r3]
 964              		.loc 6 231 16
 965 0010 7B68     		ldr	r3, [r7, #4]
 966 0012 C3F89820 		str	r2, [r3, #152]
 967              		.loc 6 232 1
 968 0016 00BF     		nop
 969 0018 0C37     		adds	r7, r7, #12
 970              		.cfi_def_cfa_offset 4
 971 001a BD46     		mov	sp, r7
 972              		.cfi_def_cfa_register 13
 973              		@ sp needed
 974 001c 80BC     		pop	{r7}
 975              		.cfi_restore 7
 976              		.cfi_def_cfa_offset 0
 977 001e 7047     		bx	lr
 978              		.cfi_endproc
 979              	.LFE437:
 980              		.size	otg_ram_reset, .-otg_ram_reset
 981              		.section	.text.otg_ram_alloc,"ax",%progbits
 982              		.align	1
 983              		.syntax unified
 984              		.thumb
 985              		.thumb_func
 986              		.type	otg_ram_alloc, %function
 987              	otg_ram_alloc:
 988              	.LFB438:
 989              		.loc 6 242 61
 990              		.cfi_startproc
 991              		@ args = 0, pretend = 0, frame = 16
 992              		@ frame_needed = 1, uses_anonymous_args = 0
 993              		@ link register save eliminated.
 994 0000 80B4     		push	{r7}
 995              		.cfi_def_cfa_offset 4
 996              		.cfi_offset 7, -4
 997 0002 85B0     		sub	sp, sp, #20
 998              		.cfi_def_cfa_offset 24
 999 0004 00AF     		add	r7, sp, #0
 1000              		.cfi_def_cfa_register 7
 1001 0006 7860     		str	r0, [r7, #4]
 1002 0008 3960     		str	r1, [r7]
 1003              		.loc 6 245 8
 1004 000a 7B68     		ldr	r3, [r7, #4]
 1005 000c D3F89830 		ldr	r3, [r3, #152]
 1006 0010 FB60     		str	r3, [r7, #12]
 1007              		.loc 6 246 16
 1008 0012 7B68     		ldr	r3, [r7, #4]
 1009 0014 D3F89820 		ldr	r2, [r3, #152]
 1010 0018 3B68     		ldr	r3, [r7]
 1011 001a 1A44     		add	r2, r2, r3
 1012 001c 7B68     		ldr	r3, [r7, #4]
 1013 001e C3F89820 		str	r2, [r3, #152]
 1014              		.loc 6 249 10
 1015 0022 FB68     		ldr	r3, [r7, #12]
 1016              		.loc 6 250 1
 1017 0024 1846     		mov	r0, r3
 1018 0026 1437     		adds	r7, r7, #20
ARM GAS  C:\Users\DEVELO~1\AppData\Local\Temp\cc4r91NU.s 			page 19


 1019              		.cfi_def_cfa_offset 4
 1020 0028 BD46     		mov	sp, r7
 1021              		.cfi_def_cfa_register 13
 1022              		@ sp needed
 1023 002a 80BC     		pop	{r7}
 1024              		.cfi_restore 7
 1025              		.cfi_def_cfa_offset 0
 1026 002c 7047     		bx	lr
 1027              		.cfi_endproc
 1028              	.LFE438:
 1029              		.size	otg_ram_alloc, .-otg_ram_alloc
 1030              		.section	.text.otg_fifo_write_from_buffer,"ax",%progbits
 1031              		.align	1
 1032              		.syntax unified
 1033              		.thumb
 1034              		.thumb_func
 1035              		.type	otg_fifo_write_from_buffer, %function
 1036              	otg_fifo_write_from_buffer:
 1037              	.LFB439:
 1038              		.loc 6 263 50
 1039              		.cfi_startproc
 1040              		@ args = 0, pretend = 0, frame = 16
 1041              		@ frame_needed = 1, uses_anonymous_args = 0
 1042              		@ link register save eliminated.
 1043 0000 80B4     		push	{r7}
 1044              		.cfi_def_cfa_offset 4
 1045              		.cfi_offset 7, -4
 1046 0002 85B0     		sub	sp, sp, #20
 1047              		.cfi_def_cfa_offset 24
 1048 0004 00AF     		add	r7, sp, #0
 1049              		.cfi_def_cfa_register 7
 1050 0006 F860     		str	r0, [r7, #12]
 1051 0008 B960     		str	r1, [r7, #8]
 1052 000a 7A60     		str	r2, [r7, #4]
 1053              	.L42:
 1054              		.loc 6 268 14
 1055 000c BB68     		ldr	r3, [r7, #8]
 1056 000e 1A68     		ldr	r2, [r3]
 1057              		.loc 6 268 12
 1058 0010 FB68     		ldr	r3, [r7, #12]
 1059 0012 1A60     		str	r2, [r3]
 1060              		.loc 6 269 8
 1061 0014 7B68     		ldr	r3, [r7, #4]
 1062 0016 042B     		cmp	r3, #4
 1063 0018 06D9     		bls	.L44
 1064              		.loc 6 272 7
 1065 001a 7B68     		ldr	r3, [r7, #4]
 1066 001c 043B     		subs	r3, r3, #4
 1067 001e 7B60     		str	r3, [r7, #4]
 1068              		.loc 6 273 9
 1069 0020 BB68     		ldr	r3, [r7, #8]
 1070 0022 0433     		adds	r3, r3, #4
 1071 0024 BB60     		str	r3, [r7, #8]
 1072              		.loc 6 268 12
 1073 0026 F1E7     		b	.L42
 1074              	.L44:
 1075              		.loc 6 270 7
ARM GAS  C:\Users\DEVELO~1\AppData\Local\Temp\cc4r91NU.s 			page 20


 1076 0028 00BF     		nop
 1077              		.loc 6 275 1
 1078 002a 00BF     		nop
 1079 002c 1437     		adds	r7, r7, #20
 1080              		.cfi_def_cfa_offset 4
 1081 002e BD46     		mov	sp, r7
 1082              		.cfi_def_cfa_register 13
 1083              		@ sp needed
 1084 0030 80BC     		pop	{r7}
 1085              		.cfi_restore 7
 1086              		.cfi_def_cfa_offset 0
 1087 0032 7047     		bx	lr
 1088              		.cfi_endproc
 1089              	.LFE439:
 1090              		.size	otg_fifo_write_from_buffer, .-otg_fifo_write_from_buffer
 1091              		.section	.text.otg_fifo_read_to_buffer,"ax",%progbits
 1092              		.align	1
 1093              		.syntax unified
 1094              		.thumb
 1095              		.thumb_func
 1096              		.type	otg_fifo_read_to_buffer, %function
 1097              	otg_fifo_read_to_buffer:
 1098              	.LFB440:
 1099              		.loc 6 290 49
 1100              		.cfi_startproc
 1101              		@ args = 0, pretend = 0, frame = 24
 1102              		@ frame_needed = 1, uses_anonymous_args = 0
 1103              		@ link register save eliminated.
 1104 0000 80B4     		push	{r7}
 1105              		.cfi_def_cfa_offset 4
 1106              		.cfi_offset 7, -4
 1107 0002 87B0     		sub	sp, sp, #28
 1108              		.cfi_def_cfa_offset 32
 1109 0004 00AF     		add	r7, sp, #0
 1110              		.cfi_def_cfa_register 7
 1111 0006 F860     		str	r0, [r7, #12]
 1112 0008 B960     		str	r1, [r7, #8]
 1113 000a 7A60     		str	r2, [r7, #4]
 1114 000c 3B60     		str	r3, [r7]
 1115              		.loc 6 291 12
 1116 000e 0023     		movs	r3, #0
 1117 0010 7B61     		str	r3, [r7, #20]
 1118              		.loc 6 292 10
 1119 0012 0023     		movs	r3, #0
 1120 0014 3B61     		str	r3, [r7, #16]
 1121              		.loc 6 294 9
 1122 0016 17E0     		b	.L46
 1123              	.L49:
 1124              		.loc 6 295 12
 1125 0018 3B69     		ldr	r3, [r7, #16]
 1126 001a 03F00303 		and	r3, r3, #3
 1127              		.loc 6 295 8
 1128 001e 002B     		cmp	r3, #0
 1129 0020 02D1     		bne	.L47
 1130              		.loc 6 296 9
 1131 0022 FB68     		ldr	r3, [r7, #12]
 1132 0024 1B68     		ldr	r3, [r3]
ARM GAS  C:\Users\DEVELO~1\AppData\Local\Temp\cc4r91NU.s 			page 21


 1133 0026 7B61     		str	r3, [r7, #20]
 1134              	.L47:
 1135              		.loc 6 298 8
 1136 0028 3A69     		ldr	r2, [r7, #16]
 1137 002a 3B68     		ldr	r3, [r7]
 1138 002c 9A42     		cmp	r2, r3
 1139 002e 08D2     		bcs	.L48
 1140              		.loc 6 299 11
 1141 0030 BB68     		ldr	r3, [r7, #8]
 1142 0032 5A1C     		adds	r2, r3, #1
 1143 0034 BA60     		str	r2, [r7, #8]
 1144              		.loc 6 299 16
 1145 0036 7A69     		ldr	r2, [r7, #20]
 1146 0038 D2B2     		uxtb	r2, r2
 1147              		.loc 6 299 14
 1148 003a 1A70     		strb	r2, [r3]
 1149              		.loc 6 300 9
 1150 003c 7B69     		ldr	r3, [r7, #20]
 1151 003e 1B0A     		lsrs	r3, r3, #8
 1152 0040 7B61     		str	r3, [r7, #20]
 1153              	.L48:
 1154              		.loc 6 302 6
 1155 0042 3B69     		ldr	r3, [r7, #16]
 1156 0044 0133     		adds	r3, r3, #1
 1157 0046 3B61     		str	r3, [r7, #16]
 1158              	.L46:
 1159              		.loc 6 294 12
 1160 0048 3A69     		ldr	r2, [r7, #16]
 1161 004a 7B68     		ldr	r3, [r7, #4]
 1162 004c 9A42     		cmp	r2, r3
 1163 004e E3D3     		bcc	.L49
 1164              		.loc 6 304 1
 1165 0050 00BF     		nop
 1166 0052 00BF     		nop
 1167 0054 1C37     		adds	r7, r7, #28
 1168              		.cfi_def_cfa_offset 4
 1169 0056 BD46     		mov	sp, r7
 1170              		.cfi_def_cfa_register 13
 1171              		@ sp needed
 1172 0058 80BC     		pop	{r7}
 1173              		.cfi_restore 7
 1174              		.cfi_def_cfa_offset 0
 1175 005a 7047     		bx	lr
 1176              		.cfi_endproc
 1177              	.LFE440:
 1178              		.size	otg_fifo_read_to_buffer, .-otg_fifo_read_to_buffer
 1179              		.section	.text.otg_rxfifo_handler,"ax",%progbits
 1180              		.align	1
 1181              		.syntax unified
 1182              		.thumb
 1183              		.thumb_func
 1184              		.type	otg_rxfifo_handler, %function
 1185              	otg_rxfifo_handler:
 1186              	.LFB441:
 1187              		.loc 6 313 49
 1188              		.cfi_startproc
 1189              		@ args = 0, pretend = 0, frame = 24
ARM GAS  C:\Users\DEVELO~1\AppData\Local\Temp\cc4r91NU.s 			page 22


 1190              		@ frame_needed = 1, uses_anonymous_args = 0
 1191 0000 80B5     		push	{r7, lr}
 1192              		.cfi_def_cfa_offset 8
 1193              		.cfi_offset 7, -8
 1194              		.cfi_offset 14, -4
 1195 0002 86B0     		sub	sp, sp, #24
 1196              		.cfi_def_cfa_offset 32
 1197 0004 00AF     		add	r7, sp, #0
 1198              		.cfi_def_cfa_register 7
 1199 0006 7860     		str	r0, [r7, #4]
 1200              		.loc 6 318 13
 1201 0008 7B68     		ldr	r3, [r7, #4]
 1202 000a D3F89030 		ldr	r3, [r3, #144]
 1203              		.loc 6 318 7
 1204 000e 1B6A     		ldr	r3, [r3, #32]
 1205 0010 7B61     		str	r3, [r7, #20]
 1206              		.loc 6 321 43
 1207 0012 7B69     		ldr	r3, [r7, #20]
 1208 0014 1B09     		lsrs	r3, r3, #4
 1209              		.loc 6 321 6
 1210 0016 C3F30A03 		ubfx	r3, r3, #0, #11
 1211 001a 3B61     		str	r3, [r7, #16]
 1212              		.loc 6 322 6
 1213 001c 7B69     		ldr	r3, [r7, #20]
 1214 001e 03F00F03 		and	r3, r3, #15
 1215 0022 FB60     		str	r3, [r7, #12]
 1216              		.loc 6 324 15
 1217 0024 7B69     		ldr	r3, [r7, #20]
 1218 0026 03F4F013 		and	r3, r3, #1966080
 1219              		.loc 6 324 3
 1220 002a B3F5402F 		cmp	r3, #786432
 1221 002e 1BD0     		beq	.L51
 1222 0030 B3F5402F 		cmp	r3, #786432
 1223 0034 00F29A80 		bhi	.L60
 1224 0038 B3F5002F 		cmp	r3, #524288
 1225 003c 00F09880 		beq	.L61
 1226 0040 B3F5002F 		cmp	r3, #524288
 1227 0044 00F29280 		bhi	.L60
 1228 0048 B3F5C02F 		cmp	r3, #393216
 1229 004c 00F09280 		beq	.L62
 1230 0050 B3F5C02F 		cmp	r3, #393216
 1231 0054 00F28A80 		bhi	.L60
 1232 0058 B3F5003F 		cmp	r3, #131072
 1233 005c 00F08C80 		beq	.L63
 1234 0060 B3F5802F 		cmp	r3, #262144
 1235 0064 11D0     		beq	.L56
 1236              		.loc 6 350 5
 1237 0066 81E0     		b	.L60
 1238              	.L51:
 1239              		.loc 6 326 33
 1240 0068 7B68     		ldr	r3, [r7, #4]
 1241 006a D3F89030 		ldr	r3, [r3, #144]
 1242              		.loc 6 326 44
 1243 006e 03F58050 		add	r0, r3, #4096
 1244              		.loc 6 326 58
 1245 0072 7A68     		ldr	r2, [r7, #4]
 1246 0074 FB68     		ldr	r3, [r7, #12]
ARM GAS  C:\Users\DEVELO~1\AppData\Local\Temp\cc4r91NU.s 			page 23


 1247 0076 0233     		adds	r3, r3, #2
 1248 0078 9B00     		lsls	r3, r3, #2
 1249 007a 1344     		add	r3, r3, r2
 1250 007c 5B68     		ldr	r3, [r3, #4]
 1251              		.loc 6 326 62
 1252 007e 196A     		ldr	r1, [r3, #32]
 1253              		.loc 6 326 5
 1254 0080 0823     		movs	r3, #8
 1255 0082 3A69     		ldr	r2, [r7, #16]
 1256 0084 FFF7FEFF 		bl	otg_fifo_read_to_buffer
 1257              		.loc 6 328 5
 1258 0088 77E0     		b	.L57
 1259              	.L56:
 1260              		.loc 6 332 20
 1261 008a 7A68     		ldr	r2, [r7, #4]
 1262 008c FB68     		ldr	r3, [r7, #12]
 1263 008e 0233     		adds	r3, r3, #2
 1264 0090 9B00     		lsls	r3, r3, #2
 1265 0092 1344     		add	r3, r3, r2
 1266 0094 5B68     		ldr	r3, [r3, #4]
 1267              		.loc 6 332 24
 1268 0096 9B69     		ldr	r3, [r3, #24]
 1269              		.loc 6 332 35
 1270 0098 1A68     		ldr	r2, [r3]
 1271              		.loc 6 332 55
 1272 009a 7968     		ldr	r1, [r7, #4]
 1273 009c FB68     		ldr	r3, [r7, #12]
 1274 009e 0233     		adds	r3, r3, #2
 1275 00a0 9B00     		lsls	r3, r3, #2
 1276 00a2 0B44     		add	r3, r3, r1
 1277 00a4 5B68     		ldr	r3, [r3, #4]
 1278              		.loc 6 332 59
 1279 00a6 9B69     		ldr	r3, [r3, #24]
 1280              		.loc 6 332 70
 1281 00a8 5B68     		ldr	r3, [r3, #4]
 1282              		.loc 6 332 9
 1283 00aa D31A     		subs	r3, r2, r3
 1284 00ac BB60     		str	r3, [r7, #8]
 1285              		.loc 6 333 33
 1286 00ae 7B68     		ldr	r3, [r7, #4]
 1287 00b0 D3F89030 		ldr	r3, [r3, #144]
 1288              		.loc 6 333 44
 1289 00b4 03F58050 		add	r0, r3, #4096
 1290              		.loc 6 334 38
 1291 00b8 7A68     		ldr	r2, [r7, #4]
 1292 00ba FB68     		ldr	r3, [r7, #12]
 1293 00bc 0233     		adds	r3, r3, #2
 1294 00be 9B00     		lsls	r3, r3, #2
 1295 00c0 1344     		add	r3, r3, r2
 1296 00c2 5B68     		ldr	r3, [r3, #4]
 1297              		.loc 6 334 42
 1298 00c4 9B69     		ldr	r3, [r3, #24]
 1299              		.loc 6 333 5
 1300 00c6 9968     		ldr	r1, [r3, #8]
 1301 00c8 BB68     		ldr	r3, [r7, #8]
 1302 00ca 3A69     		ldr	r2, [r7, #16]
 1303 00cc FFF7FEFF 		bl	otg_fifo_read_to_buffer
ARM GAS  C:\Users\DEVELO~1\AppData\Local\Temp\cc4r91NU.s 			page 24


 1304              		.loc 6 336 8
 1305 00d0 3A69     		ldr	r2, [r7, #16]
 1306 00d2 BB68     		ldr	r3, [r7, #8]
 1307 00d4 9A42     		cmp	r2, r3
 1308 00d6 24D2     		bcs	.L58
 1309              		.loc 6 337 16
 1310 00d8 7A68     		ldr	r2, [r7, #4]
 1311 00da FB68     		ldr	r3, [r7, #12]
 1312 00dc 0233     		adds	r3, r3, #2
 1313 00de 9B00     		lsls	r3, r3, #2
 1314 00e0 1344     		add	r3, r3, r2
 1315 00e2 5B68     		ldr	r3, [r3, #4]
 1316              		.loc 6 337 20
 1317 00e4 9B69     		ldr	r3, [r3, #24]
 1318              		.loc 6 337 39
 1319 00e6 9968     		ldr	r1, [r3, #8]
 1320              		.loc 6 337 16
 1321 00e8 7A68     		ldr	r2, [r7, #4]
 1322 00ea FB68     		ldr	r3, [r7, #12]
 1323 00ec 0233     		adds	r3, r3, #2
 1324 00ee 9B00     		lsls	r3, r3, #2
 1325 00f0 1344     		add	r3, r3, r2
 1326 00f2 5B68     		ldr	r3, [r3, #4]
 1327              		.loc 6 337 20
 1328 00f4 9B69     		ldr	r3, [r3, #24]
 1329              		.loc 6 337 39
 1330 00f6 3A69     		ldr	r2, [r7, #16]
 1331 00f8 0A44     		add	r2, r2, r1
 1332 00fa 9A60     		str	r2, [r3, #8]
 1333              		.loc 6 338 16
 1334 00fc 7A68     		ldr	r2, [r7, #4]
 1335 00fe FB68     		ldr	r3, [r7, #12]
 1336 0100 0233     		adds	r3, r3, #2
 1337 0102 9B00     		lsls	r3, r3, #2
 1338 0104 1344     		add	r3, r3, r2
 1339 0106 5B68     		ldr	r3, [r3, #4]
 1340              		.loc 6 338 20
 1341 0108 9B69     		ldr	r3, [r3, #24]
 1342              		.loc 6 338 39
 1343 010a 5968     		ldr	r1, [r3, #4]
 1344              		.loc 6 338 16
 1345 010c 7A68     		ldr	r2, [r7, #4]
 1346 010e FB68     		ldr	r3, [r7, #12]
 1347 0110 0233     		adds	r3, r3, #2
 1348 0112 9B00     		lsls	r3, r3, #2
 1349 0114 1344     		add	r3, r3, r2
 1350 0116 5B68     		ldr	r3, [r3, #4]
 1351              		.loc 6 338 20
 1352 0118 9B69     		ldr	r3, [r3, #24]
 1353              		.loc 6 338 39
 1354 011a 3A69     		ldr	r2, [r7, #16]
 1355 011c 0A44     		add	r2, r2, r1
 1356 011e 5A60     		str	r2, [r3, #4]
 1357              		.loc 6 344 5
 1358 0120 2BE0     		b	.L57
 1359              	.L58:
 1360              		.loc 6 341 16
ARM GAS  C:\Users\DEVELO~1\AppData\Local\Temp\cc4r91NU.s 			page 25


 1361 0122 7A68     		ldr	r2, [r7, #4]
 1362 0124 FB68     		ldr	r3, [r7, #12]
 1363 0126 0233     		adds	r3, r3, #2
 1364 0128 9B00     		lsls	r3, r3, #2
 1365 012a 1344     		add	r3, r3, r2
 1366 012c 5B68     		ldr	r3, [r3, #4]
 1367              		.loc 6 341 20
 1368 012e 9B69     		ldr	r3, [r3, #24]
 1369              		.loc 6 341 39
 1370 0130 9968     		ldr	r1, [r3, #8]
 1371              		.loc 6 341 16
 1372 0132 7A68     		ldr	r2, [r7, #4]
 1373 0134 FB68     		ldr	r3, [r7, #12]
 1374 0136 0233     		adds	r3, r3, #2
 1375 0138 9B00     		lsls	r3, r3, #2
 1376 013a 1344     		add	r3, r3, r2
 1377 013c 5B68     		ldr	r3, [r3, #4]
 1378              		.loc 6 341 20
 1379 013e 9B69     		ldr	r3, [r3, #24]
 1380              		.loc 6 341 39
 1381 0140 BA68     		ldr	r2, [r7, #8]
 1382 0142 0A44     		add	r2, r2, r1
 1383 0144 9A60     		str	r2, [r3, #8]
 1384              		.loc 6 342 16
 1385 0146 7A68     		ldr	r2, [r7, #4]
 1386 0148 FB68     		ldr	r3, [r7, #12]
 1387 014a 0233     		adds	r3, r3, #2
 1388 014c 9B00     		lsls	r3, r3, #2
 1389 014e 1344     		add	r3, r3, r2
 1390 0150 5B68     		ldr	r3, [r3, #4]
 1391              		.loc 6 342 20
 1392 0152 9B69     		ldr	r3, [r3, #24]
 1393              		.loc 6 342 39
 1394 0154 5968     		ldr	r1, [r3, #4]
 1395              		.loc 6 342 16
 1396 0156 7A68     		ldr	r2, [r7, #4]
 1397 0158 FB68     		ldr	r3, [r7, #12]
 1398 015a 0233     		adds	r3, r3, #2
 1399 015c 9B00     		lsls	r3, r3, #2
 1400 015e 1344     		add	r3, r3, r2
 1401 0160 5B68     		ldr	r3, [r3, #4]
 1402              		.loc 6 342 20
 1403 0162 9B69     		ldr	r3, [r3, #24]
 1404              		.loc 6 342 39
 1405 0164 BA68     		ldr	r2, [r7, #8]
 1406 0166 0A44     		add	r2, r2, r1
 1407 0168 5A60     		str	r2, [r3, #4]
 1408              		.loc 6 344 5
 1409 016a 06E0     		b	.L57
 1410              	.L60:
 1411              		.loc 6 350 5
 1412 016c 00BF     		nop
 1413 016e 04E0     		b	.L64
 1414              	.L61:
 1415              		.loc 6 330 5
 1416 0170 00BF     		nop
 1417 0172 02E0     		b	.L64
ARM GAS  C:\Users\DEVELO~1\AppData\Local\Temp\cc4r91NU.s 			page 26


 1418              	.L62:
 1419              		.loc 6 346 5
 1420 0174 00BF     		nop
 1421 0176 00E0     		b	.L64
 1422              	.L63:
 1423              		.loc 6 348 5
 1424 0178 00BF     		nop
 1425              	.L57:
 1426              	.L64:
 1427              		.loc 6 352 1
 1428 017a 00BF     		nop
 1429 017c 1837     		adds	r7, r7, #24
 1430              		.cfi_def_cfa_offset 8
 1431 017e BD46     		mov	sp, r7
 1432              		.cfi_def_cfa_register 13
 1433              		@ sp needed
 1434 0180 80BD     		pop	{r7, pc}
 1435              		.cfi_endproc
 1436              	.LFE441:
 1437              		.size	otg_rxfifo_handler, .-otg_rxfifo_handler
 1438              		.section	.text.otg_txfifo_handler,"ax",%progbits
 1439              		.align	1
 1440              		.syntax unified
 1441              		.thumb
 1442              		.thumb_func
 1443              		.type	otg_txfifo_handler, %function
 1444              	otg_txfifo_handler:
 1445              	.LFB442:
 1446              		.loc 6 362 61
 1447              		.cfi_startproc
 1448              		@ args = 0, pretend = 0, frame = 16
 1449              		@ frame_needed = 1, uses_anonymous_args = 0
 1450 0000 80B5     		push	{r7, lr}
 1451              		.cfi_def_cfa_offset 8
 1452              		.cfi_offset 7, -8
 1453              		.cfi_offset 14, -4
 1454 0002 84B0     		sub	sp, sp, #16
 1455              		.cfi_def_cfa_offset 24
 1456 0004 00AF     		add	r7, sp, #0
 1457              		.cfi_def_cfa_register 7
 1458 0006 7860     		str	r0, [r7, #4]
 1459 0008 0B46     		mov	r3, r1
 1460 000a FB70     		strb	r3, [r7, #3]
 1461              	.L70:
 1462              	.LBB38:
 1463              		.loc 6 369 18
 1464 000c FB78     		ldrb	r3, [r7, #3]	@ zero_extendqisi2
 1465 000e 7A68     		ldr	r2, [r7, #4]
 1466 0010 0233     		adds	r3, r3, #2
 1467 0012 9B00     		lsls	r3, r3, #2
 1468 0014 1344     		add	r3, r3, r2
 1469 0016 5B68     		ldr	r3, [r3, #4]
 1470              		.loc 6 369 22
 1471 0018 5B69     		ldr	r3, [r3, #20]
 1472              		.loc 6 369 32
 1473 001a 5A68     		ldr	r2, [r3, #4]
 1474              		.loc 6 369 52
ARM GAS  C:\Users\DEVELO~1\AppData\Local\Temp\cc4r91NU.s 			page 27


 1475 001c FB78     		ldrb	r3, [r7, #3]	@ zero_extendqisi2
 1476 001e 7968     		ldr	r1, [r7, #4]
 1477 0020 0233     		adds	r3, r3, #2
 1478 0022 9B00     		lsls	r3, r3, #2
 1479 0024 0B44     		add	r3, r3, r1
 1480 0026 5B68     		ldr	r3, [r3, #4]
 1481              		.loc 6 369 56
 1482 0028 5B69     		ldr	r3, [r3, #20]
 1483              		.loc 6 369 66
 1484 002a 1B68     		ldr	r3, [r3]
 1485              		.loc 6 369 8
 1486 002c 9A42     		cmp	r2, r3
 1487 002e 11D3     		bcc	.L66
 1488              		.loc 6 371 11
 1489 0030 7B68     		ldr	r3, [r7, #4]
 1490 0032 D3F89030 		ldr	r3, [r3, #144]
 1491              		.loc 6 371 29
 1492 0036 D3F83418 		ldr	r1, [r3, #2100]
 1493              		.loc 6 371 33
 1494 003a FB78     		ldrb	r3, [r7, #3]	@ zero_extendqisi2
 1495 003c 0122     		movs	r2, #1
 1496 003e 02FA03F3 		lsl	r3, r2, r3
 1497              		.loc 6 371 32
 1498 0042 DA43     		mvns	r2, r3
 1499              		.loc 6 371 11
 1500 0044 7B68     		ldr	r3, [r7, #4]
 1501 0046 D3F89030 		ldr	r3, [r3, #144]
 1502              		.loc 6 371 29
 1503 004a 0A40     		ands	r2, r2, r1
 1504 004c C3F83428 		str	r2, [r3, #2100]
 1505              		.loc 6 373 14
 1506 0050 0123     		movs	r3, #1
 1507 0052 6CE0     		b	.L67
 1508              	.L66:
 1509              		.loc 6 377 18
 1510 0054 FB78     		ldrb	r3, [r7, #3]	@ zero_extendqisi2
 1511 0056 7A68     		ldr	r2, [r7, #4]
 1512 0058 0233     		adds	r3, r3, #2
 1513 005a 9B00     		lsls	r3, r3, #2
 1514 005c 1344     		add	r3, r3, r2
 1515 005e 5B68     		ldr	r3, [r3, #4]
 1516              		.loc 6 377 22
 1517 0060 5B69     		ldr	r3, [r3, #20]
 1518              		.loc 6 377 32
 1519 0062 1A68     		ldr	r2, [r3]
 1520              		.loc 6 377 52
 1521 0064 FB78     		ldrb	r3, [r7, #3]	@ zero_extendqisi2
 1522 0066 7968     		ldr	r1, [r7, #4]
 1523 0068 0233     		adds	r3, r3, #2
 1524 006a 9B00     		lsls	r3, r3, #2
 1525 006c 0B44     		add	r3, r3, r1
 1526 006e 5B68     		ldr	r3, [r3, #4]
 1527              		.loc 6 377 56
 1528 0070 5B69     		ldr	r3, [r3, #20]
 1529              		.loc 6 377 66
 1530 0072 5B68     		ldr	r3, [r3, #4]
 1531              		.loc 6 377 7
ARM GAS  C:\Users\DEVELO~1\AppData\Local\Temp\cc4r91NU.s 			page 28


 1532 0074 D31A     		subs	r3, r2, r3
 1533 0076 FB60     		str	r3, [r7, #12]
 1534              		.loc 6 378 22
 1535 0078 FB78     		ldrb	r3, [r7, #3]	@ zero_extendqisi2
 1536 007a 7A68     		ldr	r2, [r7, #4]
 1537 007c 0233     		adds	r3, r3, #2
 1538 007e 9B00     		lsls	r3, r3, #2
 1539 0080 1344     		add	r3, r3, r2
 1540 0082 5B68     		ldr	r3, [r3, #4]
 1541              		.loc 6 378 26
 1542 0084 1B8A     		ldrh	r3, [r3, #16]
 1543 0086 1A46     		mov	r2, r3
 1544              		.loc 6 378 8
 1545 0088 FB68     		ldr	r3, [r7, #12]
 1546 008a 9342     		cmp	r3, r2
 1547 008c 07D9     		bls	.L68
 1548              		.loc 6 379 20
 1549 008e FB78     		ldrb	r3, [r7, #3]	@ zero_extendqisi2
 1550 0090 7A68     		ldr	r2, [r7, #4]
 1551 0092 0233     		adds	r3, r3, #2
 1552 0094 9B00     		lsls	r3, r3, #2
 1553 0096 1344     		add	r3, r3, r2
 1554 0098 5B68     		ldr	r3, [r3, #4]
 1555              		.loc 6 379 24
 1556 009a 1B8A     		ldrh	r3, [r3, #16]
 1557              		.loc 6 379 9
 1558 009c FB60     		str	r3, [r7, #12]
 1559              	.L68:
 1560              		.loc 6 383 15
 1561 009e 7B68     		ldr	r3, [r7, #4]
 1562 00a0 D3F89020 		ldr	r2, [r3, #144]
 1563              		.loc 6 383 28
 1564 00a4 FB78     		ldrb	r3, [r7, #3]	@ zero_extendqisi2
 1565 00a6 5B01     		lsls	r3, r3, #5
 1566 00a8 1344     		add	r3, r3, r2
 1567 00aa 03F61813 		addw	r3, r3, #2328
 1568 00ae 1B68     		ldr	r3, [r3]
 1569              		.loc 6 383 37
 1570 00b0 9BB2     		uxth	r3, r3
 1571              		.loc 6 383 63
 1572 00b2 9B00     		lsls	r3, r3, #2
 1573              		.loc 6 383 8
 1574 00b4 FA68     		ldr	r2, [r7, #12]
 1575 00b6 9A42     		cmp	r2, r3
 1576 00b8 01D9     		bls	.L69
 1577              		.loc 6 384 14
 1578 00ba 0023     		movs	r3, #0
 1579 00bc 37E0     		b	.L67
 1580              	.L69:
 1581              		.loc 6 389 36
 1582 00be 7B68     		ldr	r3, [r7, #4]
 1583 00c0 D3F89020 		ldr	r2, [r3, #144]
 1584              		.loc 6 389 47
 1585 00c4 FB78     		ldrb	r3, [r7, #3]	@ zero_extendqisi2
 1586 00c6 0133     		adds	r3, r3, #1
 1587 00c8 1B03     		lsls	r3, r3, #12
 1588 00ca D018     		adds	r0, r2, r3
ARM GAS  C:\Users\DEVELO~1\AppData\Local\Temp\cc4r91NU.s 			page 29


 1589              		.loc 6 390 41
 1590 00cc FB78     		ldrb	r3, [r7, #3]	@ zero_extendqisi2
 1591 00ce 7A68     		ldr	r2, [r7, #4]
 1592 00d0 0233     		adds	r3, r3, #2
 1593 00d2 9B00     		lsls	r3, r3, #2
 1594 00d4 1344     		add	r3, r3, r2
 1595 00d6 5B68     		ldr	r3, [r3, #4]
 1596              		.loc 6 390 45
 1597 00d8 5B69     		ldr	r3, [r3, #20]
 1598              		.loc 6 389 5
 1599 00da 9B68     		ldr	r3, [r3, #8]
 1600 00dc FA68     		ldr	r2, [r7, #12]
 1601 00de 1946     		mov	r1, r3
 1602 00e0 FFF7FEFF 		bl	otg_fifo_write_from_buffer
 1603              		.loc 6 392 14
 1604 00e4 FB78     		ldrb	r3, [r7, #3]	@ zero_extendqisi2
 1605 00e6 7A68     		ldr	r2, [r7, #4]
 1606 00e8 0233     		adds	r3, r3, #2
 1607 00ea 9B00     		lsls	r3, r3, #2
 1608 00ec 1344     		add	r3, r3, r2
 1609 00ee 5B68     		ldr	r3, [r3, #4]
 1610              		.loc 6 392 18
 1611 00f0 5B69     		ldr	r3, [r3, #20]
 1612              		.loc 6 392 36
 1613 00f2 9968     		ldr	r1, [r3, #8]
 1614              		.loc 6 392 14
 1615 00f4 FB78     		ldrb	r3, [r7, #3]	@ zero_extendqisi2
 1616 00f6 7A68     		ldr	r2, [r7, #4]
 1617 00f8 0233     		adds	r3, r3, #2
 1618 00fa 9B00     		lsls	r3, r3, #2
 1619 00fc 1344     		add	r3, r3, r2
 1620 00fe 5B68     		ldr	r3, [r3, #4]
 1621              		.loc 6 392 18
 1622 0100 5B69     		ldr	r3, [r3, #20]
 1623              		.loc 6 392 36
 1624 0102 FA68     		ldr	r2, [r7, #12]
 1625 0104 0A44     		add	r2, r2, r1
 1626 0106 9A60     		str	r2, [r3, #8]
 1627              		.loc 6 393 14
 1628 0108 FB78     		ldrb	r3, [r7, #3]	@ zero_extendqisi2
 1629 010a 7A68     		ldr	r2, [r7, #4]
 1630 010c 0233     		adds	r3, r3, #2
 1631 010e 9B00     		lsls	r3, r3, #2
 1632 0110 1344     		add	r3, r3, r2
 1633 0112 5B68     		ldr	r3, [r3, #4]
 1634              		.loc 6 393 18
 1635 0114 5B69     		ldr	r3, [r3, #20]
 1636              		.loc 6 393 36
 1637 0116 5968     		ldr	r1, [r3, #4]
 1638              		.loc 6 393 14
 1639 0118 FB78     		ldrb	r3, [r7, #3]	@ zero_extendqisi2
 1640 011a 7A68     		ldr	r2, [r7, #4]
 1641 011c 0233     		adds	r3, r3, #2
 1642 011e 9B00     		lsls	r3, r3, #2
 1643 0120 1344     		add	r3, r3, r2
 1644 0122 5B68     		ldr	r3, [r3, #4]
 1645              		.loc 6 393 18
ARM GAS  C:\Users\DEVELO~1\AppData\Local\Temp\cc4r91NU.s 			page 30


 1646 0124 5B69     		ldr	r3, [r3, #20]
 1647              		.loc 6 393 36
 1648 0126 FA68     		ldr	r2, [r7, #12]
 1649 0128 0A44     		add	r2, r2, r1
 1650 012a 5A60     		str	r2, [r3, #4]
 1651              	.LBE38:
 1652              		.loc 6 365 16
 1653 012c 6EE7     		b	.L70
 1654              	.L67:
 1655              		.loc 6 398 1
 1656 012e 1846     		mov	r0, r3
 1657 0130 1037     		adds	r7, r7, #16
 1658              		.cfi_def_cfa_offset 8
 1659 0132 BD46     		mov	sp, r7
 1660              		.cfi_def_cfa_register 13
 1661              		@ sp needed
 1662 0134 80BD     		pop	{r7, pc}
 1663              		.cfi_endproc
 1664              	.LFE442:
 1665              		.size	otg_txfifo_handler, .-otg_txfifo_handler
 1666              		.section	.text.otg_epin_handler,"ax",%progbits
 1667              		.align	1
 1668              		.syntax unified
 1669              		.thumb
 1670              		.thumb_func
 1671              		.type	otg_epin_handler, %function
 1672              	otg_epin_handler:
 1673              	.LFB443:
 1674              		.loc 6 408 59
 1675              		.cfi_startproc
 1676              		@ args = 0, pretend = 0, frame = 24
 1677              		@ frame_needed = 1, uses_anonymous_args = 0
 1678 0000 80B5     		push	{r7, lr}
 1679              		.cfi_def_cfa_offset 8
 1680              		.cfi_offset 7, -8
 1681              		.cfi_offset 14, -4
 1682 0002 86B0     		sub	sp, sp, #24
 1683              		.cfi_def_cfa_offset 32
 1684 0004 00AF     		add	r7, sp, #0
 1685              		.cfi_def_cfa_register 7
 1686 0006 7860     		str	r0, [r7, #4]
 1687 0008 0B46     		mov	r3, r1
 1688 000a FB70     		strb	r3, [r7, #3]
 1689              		.loc 6 409 16
 1690 000c 7B68     		ldr	r3, [r7, #4]
 1691 000e D3F89030 		ldr	r3, [r3, #144]
 1692 0012 7B61     		str	r3, [r7, #20]
 1693              		.loc 6 410 32
 1694 0014 FB78     		ldrb	r3, [r7, #3]	@ zero_extendqisi2
 1695              		.loc 6 410 12
 1696 0016 7A69     		ldr	r2, [r7, #20]
 1697 0018 5B01     		lsls	r3, r3, #5
 1698 001a 1344     		add	r3, r3, r2
 1699 001c 03F60813 		addw	r3, r3, #2312
 1700 0020 1B68     		ldr	r3, [r3]
 1701 0022 3B61     		str	r3, [r7, #16]
 1702              		.loc 6 412 15
ARM GAS  C:\Users\DEVELO~1\AppData\Local\Temp\cc4r91NU.s 			page 31


 1703 0024 FB78     		ldrb	r3, [r7, #3]	@ zero_extendqisi2
 1704              		.loc 6 412 24
 1705 0026 7A69     		ldr	r2, [r7, #20]
 1706 0028 5B01     		lsls	r3, r3, #5
 1707 002a 1344     		add	r3, r3, r2
 1708 002c 03F60813 		addw	r3, r3, #2312
 1709 0030 3A69     		ldr	r2, [r7, #16]
 1710 0032 1A60     		str	r2, [r3]
 1711              		.loc 6 417 14
 1712 0034 3B69     		ldr	r3, [r7, #16]
 1713 0036 03F00103 		and	r3, r3, #1
 1714              		.loc 6 417 6
 1715 003a 002B     		cmp	r3, #0
 1716 003c 4BD0     		beq	.L72
 1717              		.loc 6 417 38 discriminator 1
 1718 003e 7B69     		ldr	r3, [r7, #20]
 1719 0040 D3F81038 		ldr	r3, [r3, #2064]
 1720              		.loc 6 417 48 discriminator 1
 1721 0044 03F00103 		and	r3, r3, #1
 1722              		.loc 6 417 30 discriminator 1
 1723 0048 002B     		cmp	r3, #0
 1724 004a 44D0     		beq	.L72
 1725              	.LBB39:
 1726              		.loc 6 419 40
 1727 004c FB78     		ldrb	r3, [r7, #3]	@ zero_extendqisi2
 1728 004e 7A68     		ldr	r2, [r7, #4]
 1729 0050 0233     		adds	r3, r3, #2
 1730 0052 9B00     		lsls	r3, r3, #2
 1731 0054 1344     		add	r3, r3, r2
 1732 0056 5B68     		ldr	r3, [r3, #4]
 1733              		.loc 6 419 25
 1734 0058 5B69     		ldr	r3, [r3, #20]
 1735 005a FB60     		str	r3, [r7, #12]
 1736              		.loc 6 421 12
 1737 005c FB68     		ldr	r3, [r7, #12]
 1738 005e 1A68     		ldr	r2, [r3]
 1739              		.loc 6 421 26
 1740 0060 FB68     		ldr	r3, [r7, #12]
 1741 0062 DB68     		ldr	r3, [r3, #12]
 1742              		.loc 6 421 8
 1743 0064 9A42     		cmp	r2, r3
 1744 0066 13D2     		bcs	.L73
 1745              		.loc 6 425 24
 1746 0068 FB68     		ldr	r3, [r7, #12]
 1747 006a DA68     		ldr	r2, [r3, #12]
 1748              		.loc 6 425 39
 1749 006c FB68     		ldr	r3, [r7, #12]
 1750 006e 1B68     		ldr	r3, [r3]
 1751              		.loc 6 425 34
 1752 0070 D21A     		subs	r2, r2, r3
 1753              		.loc 6 425 19
 1754 0072 FB68     		ldr	r3, [r7, #12]
 1755 0074 1A60     		str	r2, [r3]
 1756              		.loc 6 426 19
 1757 0076 FB68     		ldr	r3, [r7, #12]
 1758 0078 0022     		movs	r2, #0
 1759 007a 5A60     		str	r2, [r3, #4]
ARM GAS  C:\Users\DEVELO~1\AppData\Local\Temp\cc4r91NU.s 			page 32


 1760              		.loc 6 427 7
 1761 007c FFF7FEFF 		bl	osalSysLockFromISR
 1762              		.loc 6 428 7
 1763 0080 FB78     		ldrb	r3, [r7, #3]	@ zero_extendqisi2
 1764 0082 1946     		mov	r1, r3
 1765 0084 7868     		ldr	r0, [r7, #4]
 1766 0086 FFF7FEFF 		bl	usb_lld_start_in
 1767              		.loc 6 429 7
 1768 008a FFF7FEFF 		bl	osalSysUnlockFromISR
 1769 008e 22E0     		b	.L72
 1770              	.L73:
 1771              		.loc 6 433 7
 1772 0090 7B68     		ldr	r3, [r7, #4]
 1773 0092 1B89     		ldrh	r3, [r3, #8]
 1774 0094 1AB2     		sxth	r2, r3
 1775 0096 FB78     		ldrb	r3, [r7, #3]	@ zero_extendqisi2
 1776 0098 0121     		movs	r1, #1
 1777 009a 01FA03F3 		lsl	r3, r1, r3
 1778 009e 1BB2     		sxth	r3, r3
 1779 00a0 DB43     		mvns	r3, r3
 1780 00a2 1BB2     		sxth	r3, r3
 1781 00a4 1340     		ands	r3, r3, r2
 1782 00a6 1BB2     		sxth	r3, r3
 1783 00a8 9AB2     		uxth	r2, r3
 1784 00aa 7B68     		ldr	r3, [r7, #4]
 1785 00ac 1A81     		strh	r2, [r3, #8]	@ movhi
 1786 00ae FB78     		ldrb	r3, [r7, #3]	@ zero_extendqisi2
 1787 00b0 7A68     		ldr	r2, [r7, #4]
 1788 00b2 0233     		adds	r3, r3, #2
 1789 00b4 9B00     		lsls	r3, r3, #2
 1790 00b6 1344     		add	r3, r3, r2
 1791 00b8 5B68     		ldr	r3, [r3, #4]
 1792 00ba 9B68     		ldr	r3, [r3, #8]
 1793 00bc 002B     		cmp	r3, #0
 1794 00be 0AD0     		beq	.L72
 1795              		.loc 6 433 7 is_stmt 0 discriminator 1
 1796 00c0 FB78     		ldrb	r3, [r7, #3]	@ zero_extendqisi2
 1797 00c2 7A68     		ldr	r2, [r7, #4]
 1798 00c4 0233     		adds	r3, r3, #2
 1799 00c6 9B00     		lsls	r3, r3, #2
 1800 00c8 1344     		add	r3, r3, r2
 1801 00ca 5B68     		ldr	r3, [r3, #4]
 1802 00cc 9B68     		ldr	r3, [r3, #8]
 1803 00ce FA78     		ldrb	r2, [r7, #3]	@ zero_extendqisi2
 1804 00d0 1146     		mov	r1, r2
 1805 00d2 7868     		ldr	r0, [r7, #4]
 1806 00d4 9847     		blx	r3
 1807              	.LVL0:
 1808              	.L72:
 1809              	.LBE39:
 1810              		.loc 6 436 14 is_stmt 1
 1811 00d6 3B69     		ldr	r3, [r7, #16]
 1812 00d8 03F08003 		and	r3, r3, #128
 1813              		.loc 6 436 6
 1814 00dc 002B     		cmp	r3, #0
 1815 00de 0ED0     		beq	.L75
 1816              		.loc 6 437 12 discriminator 1
ARM GAS  C:\Users\DEVELO~1\AppData\Local\Temp\cc4r91NU.s 			page 33


 1817 00e0 7B69     		ldr	r3, [r7, #20]
 1818 00e2 D3F83428 		ldr	r2, [r3, #2100]
 1819              		.loc 6 437 27 discriminator 1
 1820 00e6 FB78     		ldrb	r3, [r7, #3]	@ zero_extendqisi2
 1821 00e8 0121     		movs	r1, #1
 1822 00ea 01FA03F3 		lsl	r3, r1, r3
 1823              		.loc 6 437 25 discriminator 1
 1824 00ee 1340     		ands	r3, r3, r2
 1825              		.loc 6 436 30 discriminator 1
 1826 00f0 002B     		cmp	r3, #0
 1827 00f2 04D0     		beq	.L75
 1828              		.loc 6 439 5
 1829 00f4 FB78     		ldrb	r3, [r7, #3]	@ zero_extendqisi2
 1830 00f6 1946     		mov	r1, r3
 1831 00f8 7868     		ldr	r0, [r7, #4]
 1832 00fa FFF7FEFF 		bl	otg_txfifo_handler
 1833              	.L75:
 1834              		.loc 6 441 1
 1835 00fe 00BF     		nop
 1836 0100 1837     		adds	r7, r7, #24
 1837              		.cfi_def_cfa_offset 8
 1838 0102 BD46     		mov	sp, r7
 1839              		.cfi_def_cfa_register 13
 1840              		@ sp needed
 1841 0104 80BD     		pop	{r7, pc}
 1842              		.cfi_endproc
 1843              	.LFE443:
 1844              		.size	otg_epin_handler, .-otg_epin_handler
 1845              		.section	.text.otg_epout_handler,"ax",%progbits
 1846              		.align	1
 1847              		.syntax unified
 1848              		.thumb
 1849              		.thumb_func
 1850              		.type	otg_epout_handler, %function
 1851              	otg_epout_handler:
 1852              	.LFB444:
 1853              		.loc 6 451 60
 1854              		.cfi_startproc
 1855              		@ args = 0, pretend = 0, frame = 24
 1856              		@ frame_needed = 1, uses_anonymous_args = 0
 1857 0000 80B5     		push	{r7, lr}
 1858              		.cfi_def_cfa_offset 8
 1859              		.cfi_offset 7, -8
 1860              		.cfi_offset 14, -4
 1861 0002 86B0     		sub	sp, sp, #24
 1862              		.cfi_def_cfa_offset 32
 1863 0004 00AF     		add	r7, sp, #0
 1864              		.cfi_def_cfa_register 7
 1865 0006 7860     		str	r0, [r7, #4]
 1866 0008 0B46     		mov	r3, r1
 1867 000a FB70     		strb	r3, [r7, #3]
 1868              		.loc 6 452 16
 1869 000c 7B68     		ldr	r3, [r7, #4]
 1870 000e D3F89030 		ldr	r3, [r3, #144]
 1871 0012 7B61     		str	r3, [r7, #20]
 1872              		.loc 6 453 32
 1873 0014 FB78     		ldrb	r3, [r7, #3]	@ zero_extendqisi2
ARM GAS  C:\Users\DEVELO~1\AppData\Local\Temp\cc4r91NU.s 			page 34


 1874              		.loc 6 453 12
 1875 0016 7A69     		ldr	r2, [r7, #20]
 1876 0018 5B01     		lsls	r3, r3, #5
 1877 001a 1344     		add	r3, r3, r2
 1878 001c 03F60833 		addw	r3, r3, #2824
 1879 0020 1B68     		ldr	r3, [r3]
 1880 0022 3B61     		str	r3, [r7, #16]
 1881              		.loc 6 456 15
 1882 0024 FB78     		ldrb	r3, [r7, #3]	@ zero_extendqisi2
 1883              		.loc 6 456 24
 1884 0026 7A69     		ldr	r2, [r7, #20]
 1885 0028 5B01     		lsls	r3, r3, #5
 1886 002a 1344     		add	r3, r3, r2
 1887 002c 03F60833 		addw	r3, r3, #2824
 1888 0030 3A69     		ldr	r2, [r7, #16]
 1889 0032 1A60     		str	r2, [r3]
 1890              		.loc 6 458 14
 1891 0034 3B69     		ldr	r3, [r7, #16]
 1892 0036 03F00803 		and	r3, r3, #8
 1893              		.loc 6 458 6
 1894 003a 002B     		cmp	r3, #0
 1895 003c 11D0     		beq	.L77
 1896              		.loc 6 458 38 discriminator 1
 1897 003e 7B69     		ldr	r3, [r7, #20]
 1898 0040 D3F81438 		ldr	r3, [r3, #2068]
 1899              		.loc 6 458 48 discriminator 1
 1900 0044 03F00803 		and	r3, r3, #8
 1901              		.loc 6 458 30 discriminator 1
 1902 0048 002B     		cmp	r3, #0
 1903 004a 0AD0     		beq	.L77
 1904              		.loc 6 461 5
 1905 004c FB78     		ldrb	r3, [r7, #3]	@ zero_extendqisi2
 1906 004e 7A68     		ldr	r2, [r7, #4]
 1907 0050 0233     		adds	r3, r3, #2
 1908 0052 9B00     		lsls	r3, r3, #2
 1909 0054 1344     		add	r3, r3, r2
 1910 0056 5B68     		ldr	r3, [r3, #4]
 1911 0058 5B68     		ldr	r3, [r3, #4]
 1912 005a FA78     		ldrb	r2, [r7, #3]	@ zero_extendqisi2
 1913 005c 1146     		mov	r1, r2
 1914 005e 7868     		ldr	r0, [r7, #4]
 1915 0060 9847     		blx	r3
 1916              	.LVL1:
 1917              	.L77:
 1918              		.loc 6 464 14
 1919 0062 3B69     		ldr	r3, [r7, #16]
 1920 0064 03F00103 		and	r3, r3, #1
 1921              		.loc 6 464 6
 1922 0068 002B     		cmp	r3, #0
 1923 006a 5ED0     		beq	.L76
 1924              		.loc 6 464 38 discriminator 1
 1925 006c 7B69     		ldr	r3, [r7, #20]
 1926 006e D3F81438 		ldr	r3, [r3, #2068]
 1927              		.loc 6 464 48 discriminator 1
 1928 0072 03F00103 		and	r3, r3, #1
 1929              		.loc 6 464 30 discriminator 1
 1930 0076 002B     		cmp	r3, #0
ARM GAS  C:\Users\DEVELO~1\AppData\Local\Temp\cc4r91NU.s 			page 35


 1931 0078 57D0     		beq	.L76
 1932              	.LBB40:
 1933              		.loc 6 468 20
 1934 007a FB78     		ldrb	r3, [r7, #3]	@ zero_extendqisi2
 1935 007c 7A68     		ldr	r2, [r7, #4]
 1936 007e 0233     		adds	r3, r3, #2
 1937 0080 9B00     		lsls	r3, r3, #2
 1938 0082 1344     		add	r3, r3, r2
 1939 0084 5B68     		ldr	r3, [r3, #4]
 1940              		.loc 6 468 9
 1941 0086 9B69     		ldr	r3, [r3, #24]
 1942 0088 FB60     		str	r3, [r7, #12]
 1943              		.loc 6 471 8
 1944 008a FB78     		ldrb	r3, [r7, #3]	@ zero_extendqisi2
 1945 008c 002B     		cmp	r3, #0
 1946 008e 29D1     		bne	.L79
 1947              		.loc 6 485 16
 1948 0090 FB68     		ldr	r3, [r7, #12]
 1949 0092 5A68     		ldr	r2, [r3, #4]
 1950              		.loc 6 485 35
 1951 0094 FB78     		ldrb	r3, [r7, #3]	@ zero_extendqisi2
 1952 0096 7968     		ldr	r1, [r7, #4]
 1953 0098 0233     		adds	r3, r3, #2
 1954 009a 9B00     		lsls	r3, r3, #2
 1955 009c 0B44     		add	r3, r3, r1
 1956 009e 5B68     		ldr	r3, [r3, #4]
 1957              		.loc 6 485 39
 1958 00a0 5B8A     		ldrh	r3, [r3, #18]
 1959              		.loc 6 485 24
 1960 00a2 B2FBF3F1 		udiv	r1, r2, r3
 1961 00a6 01FB03F3 		mul	r3, r1, r3
 1962 00aa D31A     		subs	r3, r2, r3
 1963              		.loc 6 485 10
 1964 00ac 002B     		cmp	r3, #0
 1965 00ae 19D1     		bne	.L79
 1966              		.loc 6 486 15 discriminator 1
 1967 00b0 FB68     		ldr	r3, [r7, #12]
 1968 00b2 1A68     		ldr	r2, [r3]
 1969              		.loc 6 486 29 discriminator 1
 1970 00b4 FB68     		ldr	r3, [r7, #12]
 1971 00b6 DB68     		ldr	r3, [r3, #12]
 1972              		.loc 6 485 60 discriminator 1
 1973 00b8 9A42     		cmp	r2, r3
 1974 00ba 13D2     		bcs	.L79
 1975              		.loc 6 487 26
 1976 00bc FB68     		ldr	r3, [r7, #12]
 1977 00be DA68     		ldr	r2, [r3, #12]
 1978              		.loc 6 487 41
 1979 00c0 FB68     		ldr	r3, [r7, #12]
 1980 00c2 1B68     		ldr	r3, [r3]
 1981              		.loc 6 487 36
 1982 00c4 D21A     		subs	r2, r2, r3
 1983              		.loc 6 487 21
 1984 00c6 FB68     		ldr	r3, [r7, #12]
 1985 00c8 1A60     		str	r2, [r3]
 1986              		.loc 6 488 21
 1987 00ca FB68     		ldr	r3, [r7, #12]
ARM GAS  C:\Users\DEVELO~1\AppData\Local\Temp\cc4r91NU.s 			page 36


 1988 00cc 0022     		movs	r2, #0
 1989 00ce 5A60     		str	r2, [r3, #4]
 1990              		.loc 6 489 9
 1991 00d0 FFF7FEFF 		bl	osalSysLockFromISR
 1992              		.loc 6 490 9
 1993 00d4 FB78     		ldrb	r3, [r7, #3]	@ zero_extendqisi2
 1994 00d6 1946     		mov	r1, r3
 1995 00d8 7868     		ldr	r0, [r7, #4]
 1996 00da FFF7FEFF 		bl	usb_lld_start_out
 1997              		.loc 6 491 9
 1998 00de FFF7FEFF 		bl	osalSysUnlockFromISR
 1999              		.loc 6 492 9
 2000 00e2 22E0     		b	.L76
 2001              	.L79:
 2002              		.loc 6 497 5
 2003 00e4 7B68     		ldr	r3, [r7, #4]
 2004 00e6 5B89     		ldrh	r3, [r3, #10]
 2005 00e8 1AB2     		sxth	r2, r3
 2006 00ea FB78     		ldrb	r3, [r7, #3]	@ zero_extendqisi2
 2007 00ec 0121     		movs	r1, #1
 2008 00ee 01FA03F3 		lsl	r3, r1, r3
 2009 00f2 1BB2     		sxth	r3, r3
 2010 00f4 DB43     		mvns	r3, r3
 2011 00f6 1BB2     		sxth	r3, r3
 2012 00f8 1340     		ands	r3, r3, r2
 2013 00fa 1BB2     		sxth	r3, r3
 2014 00fc 9AB2     		uxth	r2, r3
 2015 00fe 7B68     		ldr	r3, [r7, #4]
 2016 0100 5A81     		strh	r2, [r3, #10]	@ movhi
 2017 0102 FB78     		ldrb	r3, [r7, #3]	@ zero_extendqisi2
 2018 0104 7A68     		ldr	r2, [r7, #4]
 2019 0106 0233     		adds	r3, r3, #2
 2020 0108 9B00     		lsls	r3, r3, #2
 2021 010a 1344     		add	r3, r3, r2
 2022 010c 5B68     		ldr	r3, [r3, #4]
 2023 010e DB68     		ldr	r3, [r3, #12]
 2024 0110 002B     		cmp	r3, #0
 2025 0112 0AD0     		beq	.L76
 2026              		.loc 6 497 5 is_stmt 0 discriminator 1
 2027 0114 FB78     		ldrb	r3, [r7, #3]	@ zero_extendqisi2
 2028 0116 7A68     		ldr	r2, [r7, #4]
 2029 0118 0233     		adds	r3, r3, #2
 2030 011a 9B00     		lsls	r3, r3, #2
 2031 011c 1344     		add	r3, r3, r2
 2032 011e 5B68     		ldr	r3, [r3, #4]
 2033 0120 DB68     		ldr	r3, [r3, #12]
 2034 0122 FA78     		ldrb	r2, [r7, #3]	@ zero_extendqisi2
 2035 0124 1146     		mov	r1, r2
 2036 0126 7868     		ldr	r0, [r7, #4]
 2037 0128 9847     		blx	r3
 2038              	.LVL2:
 2039              	.L76:
 2040              	.LBE40:
 2041              		.loc 6 499 1 is_stmt 1
 2042 012a 1837     		adds	r7, r7, #24
 2043              		.cfi_def_cfa_offset 8
 2044 012c BD46     		mov	sp, r7
ARM GAS  C:\Users\DEVELO~1\AppData\Local\Temp\cc4r91NU.s 			page 37


 2045              		.cfi_def_cfa_register 13
 2046              		@ sp needed
 2047 012e 80BD     		pop	{r7, pc}
 2048              		.cfi_endproc
 2049              	.LFE444:
 2050              		.size	otg_epout_handler, .-otg_epout_handler
 2051              		.section	.text.otg_isoc_in_failed_handler,"ax",%progbits
 2052              		.align	1
 2053              		.syntax unified
 2054              		.thumb
 2055              		.thumb_func
 2056              		.type	otg_isoc_in_failed_handler, %function
 2057              	otg_isoc_in_failed_handler:
 2058              	.LFB445:
 2059              		.loc 6 508 57
 2060              		.cfi_startproc
 2061              		@ args = 0, pretend = 0, frame = 16
 2062              		@ frame_needed = 1, uses_anonymous_args = 0
 2063 0000 80B5     		push	{r7, lr}
 2064              		.cfi_def_cfa_offset 8
 2065              		.cfi_offset 7, -8
 2066              		.cfi_offset 14, -4
 2067 0002 84B0     		sub	sp, sp, #16
 2068              		.cfi_def_cfa_offset 24
 2069 0004 00AF     		add	r7, sp, #0
 2070              		.cfi_def_cfa_register 7
 2071 0006 7860     		str	r0, [r7, #4]
 2072              		.loc 6 510 16
 2073 0008 7B68     		ldr	r3, [r7, #4]
 2074 000a D3F89030 		ldr	r3, [r3, #144]
 2075 000e BB60     		str	r3, [r7, #8]
 2076              		.loc 6 512 11
 2077 0010 0023     		movs	r3, #0
 2078 0012 FB73     		strb	r3, [r7, #15]
 2079              		.loc 6 512 3
 2080 0014 54E0     		b	.L81
 2081              	.L84:
 2082              		.loc 6 513 23
 2083 0016 FB7B     		ldrb	r3, [r7, #15]	@ zero_extendqisi2
 2084 0018 BA68     		ldr	r2, [r7, #8]
 2085 001a 4833     		adds	r3, r3, #72
 2086 001c 5B01     		lsls	r3, r3, #5
 2087 001e 1344     		add	r3, r3, r2
 2088 0020 1B68     		ldr	r3, [r3]
 2089              		.loc 6 513 32
 2090 0022 03F44023 		and	r3, r3, #786432
 2091              		.loc 6 513 8
 2092 0026 B3F5802F 		cmp	r3, #262144
 2093 002a 46D1     		bne	.L82
 2094              		.loc 6 514 23 discriminator 1
 2095 002c FB7B     		ldrb	r3, [r7, #15]	@ zero_extendqisi2
 2096 002e BA68     		ldr	r2, [r7, #8]
 2097 0030 4833     		adds	r3, r3, #72
 2098 0032 5B01     		lsls	r3, r3, #5
 2099 0034 1344     		add	r3, r3, r2
 2100 0036 1B68     		ldr	r3, [r3]
 2101              		.loc 6 513 76 discriminator 1
ARM GAS  C:\Users\DEVELO~1\AppData\Local\Temp\cc4r91NU.s 			page 38


 2102 0038 002B     		cmp	r3, #0
 2103 003a 3EDA     		bge	.L82
 2104              		.loc 6 517 28
 2105 003c FB7B     		ldrb	r3, [r7, #15]	@ zero_extendqisi2
 2106 003e BA68     		ldr	r2, [r7, #8]
 2107 0040 4833     		adds	r3, r3, #72
 2108 0042 5B01     		lsls	r3, r3, #5
 2109 0044 1344     		add	r3, r3, r2
 2110 0046 1A68     		ldr	r2, [r3]
 2111 0048 FB7B     		ldrb	r3, [r7, #15]	@ zero_extendqisi2
 2112 004a 42F09042 		orr	r2, r2, #1207959552
 2113 004e B968     		ldr	r1, [r7, #8]
 2114 0050 4833     		adds	r3, r3, #72
 2115 0052 5B01     		lsls	r3, r3, #5
 2116 0054 0B44     		add	r3, r3, r1
 2117 0056 1A60     		str	r2, [r3]
 2118              		.loc 6 518 13
 2119 0058 00BF     		nop
 2120              	.L83:
 2121              		.loc 6 518 26 discriminator 1
 2122 005a FB7B     		ldrb	r3, [r7, #15]	@ zero_extendqisi2
 2123 005c BA68     		ldr	r2, [r7, #8]
 2124 005e 4833     		adds	r3, r3, #72
 2125 0060 5B01     		lsls	r3, r3, #5
 2126 0062 1344     		add	r3, r3, r2
 2127 0064 1B68     		ldr	r3, [r3]
 2128              		.loc 6 518 14 discriminator 1
 2129 0066 002B     		cmp	r3, #0
 2130 0068 F7DB     		blt	.L83
 2131              		.loc 6 522 7
 2132 006a FB7B     		ldrb	r3, [r7, #15]	@ zero_extendqisi2
 2133 006c 1946     		mov	r1, r3
 2134 006e 7868     		ldr	r0, [r7, #4]
 2135 0070 FFF7FEFF 		bl	otg_txfifo_flush
 2136              		.loc 6 525 7
 2137 0074 7B68     		ldr	r3, [r7, #4]
 2138 0076 1B89     		ldrh	r3, [r3, #8]
 2139 0078 1AB2     		sxth	r2, r3
 2140 007a FB7B     		ldrb	r3, [r7, #15]	@ zero_extendqisi2
 2141 007c 0121     		movs	r1, #1
 2142 007e 01FA03F3 		lsl	r3, r1, r3
 2143 0082 1BB2     		sxth	r3, r3
 2144 0084 DB43     		mvns	r3, r3
 2145 0086 1BB2     		sxth	r3, r3
 2146 0088 1340     		ands	r3, r3, r2
 2147 008a 1BB2     		sxth	r3, r3
 2148 008c 9AB2     		uxth	r2, r3
 2149 008e 7B68     		ldr	r3, [r7, #4]
 2150 0090 1A81     		strh	r2, [r3, #8]	@ movhi
 2151 0092 FB7B     		ldrb	r3, [r7, #15]	@ zero_extendqisi2
 2152 0094 7A68     		ldr	r2, [r7, #4]
 2153 0096 0233     		adds	r3, r3, #2
 2154 0098 9B00     		lsls	r3, r3, #2
 2155 009a 1344     		add	r3, r3, r2
 2156 009c 5B68     		ldr	r3, [r3, #4]
 2157 009e 9B68     		ldr	r3, [r3, #8]
 2158 00a0 002B     		cmp	r3, #0
ARM GAS  C:\Users\DEVELO~1\AppData\Local\Temp\cc4r91NU.s 			page 39


 2159 00a2 0AD0     		beq	.L82
 2160              		.loc 6 525 7 is_stmt 0 discriminator 1
 2161 00a4 FB7B     		ldrb	r3, [r7, #15]	@ zero_extendqisi2
 2162 00a6 7A68     		ldr	r2, [r7, #4]
 2163 00a8 0233     		adds	r3, r3, #2
 2164 00aa 9B00     		lsls	r3, r3, #2
 2165 00ac 1344     		add	r3, r3, r2
 2166 00ae 5B68     		ldr	r3, [r3, #4]
 2167 00b0 9B68     		ldr	r3, [r3, #8]
 2168 00b2 FA7B     		ldrb	r2, [r7, #15]	@ zero_extendqisi2
 2169 00b4 1146     		mov	r1, r2
 2170 00b6 7868     		ldr	r0, [r7, #4]
 2171 00b8 9847     		blx	r3
 2172              	.LVL3:
 2173              	.L82:
 2174              		.loc 6 512 56 is_stmt 1 discriminator 2
 2175 00ba FB7B     		ldrb	r3, [r7, #15]	@ zero_extendqisi2
 2176 00bc 0133     		adds	r3, r3, #1
 2177 00be FB73     		strb	r3, [r7, #15]
 2178              	.L81:
 2179              		.loc 6 512 19 discriminator 1
 2180 00c0 FA7B     		ldrb	r2, [r7, #15]	@ zero_extendqisi2
 2181              		.loc 6 512 26 discriminator 1
 2182 00c2 7B68     		ldr	r3, [r7, #4]
 2183 00c4 D3F89430 		ldr	r3, [r3, #148]
 2184              		.loc 6 512 37 discriminator 1
 2185 00c8 9B68     		ldr	r3, [r3, #8]
 2186              		.loc 6 512 19 discriminator 1
 2187 00ca 9A42     		cmp	r2, r3
 2188 00cc A3D9     		bls	.L84
 2189              		.loc 6 528 1
 2190 00ce 00BF     		nop
 2191 00d0 00BF     		nop
 2192 00d2 1037     		adds	r7, r7, #16
 2193              		.cfi_def_cfa_offset 8
 2194 00d4 BD46     		mov	sp, r7
 2195              		.cfi_def_cfa_register 13
 2196              		@ sp needed
 2197 00d6 80BD     		pop	{r7, pc}
 2198              		.cfi_endproc
 2199              	.LFE445:
 2200              		.size	otg_isoc_in_failed_handler, .-otg_isoc_in_failed_handler
 2201              		.section	.text.otg_isoc_out_failed_handler,"ax",%progbits
 2202              		.align	1
 2203              		.syntax unified
 2204              		.thumb
 2205              		.thumb_func
 2206              		.type	otg_isoc_out_failed_handler, %function
 2207              	otg_isoc_out_failed_handler:
 2208              	.LFB446:
 2209              		.loc 6 537 58
 2210              		.cfi_startproc
 2211              		@ args = 0, pretend = 0, frame = 16
 2212              		@ frame_needed = 1, uses_anonymous_args = 0
 2213 0000 80B5     		push	{r7, lr}
 2214              		.cfi_def_cfa_offset 8
 2215              		.cfi_offset 7, -8
ARM GAS  C:\Users\DEVELO~1\AppData\Local\Temp\cc4r91NU.s 			page 40


 2216              		.cfi_offset 14, -4
 2217 0002 84B0     		sub	sp, sp, #16
 2218              		.cfi_def_cfa_offset 24
 2219 0004 00AF     		add	r7, sp, #0
 2220              		.cfi_def_cfa_register 7
 2221 0006 7860     		str	r0, [r7, #4]
 2222              		.loc 6 539 16
 2223 0008 7B68     		ldr	r3, [r7, #4]
 2224 000a D3F89030 		ldr	r3, [r3, #144]
 2225 000e BB60     		str	r3, [r7, #8]
 2226              		.loc 6 541 11
 2227 0010 0023     		movs	r3, #0
 2228 0012 FB73     		strb	r3, [r7, #15]
 2229              		.loc 6 541 3
 2230 0014 38E0     		b	.L86
 2231              	.L88:
 2232              		.loc 6 542 23
 2233 0016 FB7B     		ldrb	r3, [r7, #15]	@ zero_extendqisi2
 2234 0018 BA68     		ldr	r2, [r7, #8]
 2235 001a 5833     		adds	r3, r3, #88
 2236 001c 5B01     		lsls	r3, r3, #5
 2237 001e 1344     		add	r3, r3, r2
 2238 0020 1B68     		ldr	r3, [r3]
 2239              		.loc 6 542 32
 2240 0022 03F44023 		and	r3, r3, #786432
 2241              		.loc 6 542 8
 2242 0026 B3F5802F 		cmp	r3, #262144
 2243 002a 2AD1     		bne	.L87
 2244              		.loc 6 543 23 discriminator 1
 2245 002c FB7B     		ldrb	r3, [r7, #15]	@ zero_extendqisi2
 2246 002e BA68     		ldr	r2, [r7, #8]
 2247 0030 5833     		adds	r3, r3, #88
 2248 0032 5B01     		lsls	r3, r3, #5
 2249 0034 1344     		add	r3, r3, r2
 2250 0036 1B68     		ldr	r3, [r3]
 2251              		.loc 6 542 76 discriminator 1
 2252 0038 002B     		cmp	r3, #0
 2253 003a 22DA     		bge	.L87
 2254              		.loc 6 553 7
 2255 003c 7B68     		ldr	r3, [r7, #4]
 2256 003e 5B89     		ldrh	r3, [r3, #10]
 2257 0040 1AB2     		sxth	r2, r3
 2258 0042 FB7B     		ldrb	r3, [r7, #15]	@ zero_extendqisi2
 2259 0044 0121     		movs	r1, #1
 2260 0046 01FA03F3 		lsl	r3, r1, r3
 2261 004a 1BB2     		sxth	r3, r3
 2262 004c DB43     		mvns	r3, r3
 2263 004e 1BB2     		sxth	r3, r3
 2264 0050 1340     		ands	r3, r3, r2
 2265 0052 1BB2     		sxth	r3, r3
 2266 0054 9AB2     		uxth	r2, r3
 2267 0056 7B68     		ldr	r3, [r7, #4]
 2268 0058 5A81     		strh	r2, [r3, #10]	@ movhi
 2269 005a FB7B     		ldrb	r3, [r7, #15]	@ zero_extendqisi2
 2270 005c 7A68     		ldr	r2, [r7, #4]
 2271 005e 0233     		adds	r3, r3, #2
 2272 0060 9B00     		lsls	r3, r3, #2
ARM GAS  C:\Users\DEVELO~1\AppData\Local\Temp\cc4r91NU.s 			page 41


 2273 0062 1344     		add	r3, r3, r2
 2274 0064 5B68     		ldr	r3, [r3, #4]
 2275 0066 DB68     		ldr	r3, [r3, #12]
 2276 0068 002B     		cmp	r3, #0
 2277 006a 0AD0     		beq	.L87
 2278              		.loc 6 553 7 is_stmt 0 discriminator 1
 2279 006c FB7B     		ldrb	r3, [r7, #15]	@ zero_extendqisi2
 2280 006e 7A68     		ldr	r2, [r7, #4]
 2281 0070 0233     		adds	r3, r3, #2
 2282 0072 9B00     		lsls	r3, r3, #2
 2283 0074 1344     		add	r3, r3, r2
 2284 0076 5B68     		ldr	r3, [r3, #4]
 2285 0078 DB68     		ldr	r3, [r3, #12]
 2286 007a FA7B     		ldrb	r2, [r7, #15]	@ zero_extendqisi2
 2287 007c 1146     		mov	r1, r2
 2288 007e 7868     		ldr	r0, [r7, #4]
 2289 0080 9847     		blx	r3
 2290              	.LVL4:
 2291              	.L87:
 2292              		.loc 6 541 56 is_stmt 1 discriminator 2
 2293 0082 FB7B     		ldrb	r3, [r7, #15]	@ zero_extendqisi2
 2294 0084 0133     		adds	r3, r3, #1
 2295 0086 FB73     		strb	r3, [r7, #15]
 2296              	.L86:
 2297              		.loc 6 541 19 discriminator 1
 2298 0088 FA7B     		ldrb	r2, [r7, #15]	@ zero_extendqisi2
 2299              		.loc 6 541 26 discriminator 1
 2300 008a 7B68     		ldr	r3, [r7, #4]
 2301 008c D3F89430 		ldr	r3, [r3, #148]
 2302              		.loc 6 541 37 discriminator 1
 2303 0090 9B68     		ldr	r3, [r3, #8]
 2304              		.loc 6 541 19 discriminator 1
 2305 0092 9A42     		cmp	r2, r3
 2306 0094 BFD9     		bls	.L88
 2307              		.loc 6 556 1
 2308 0096 00BF     		nop
 2309 0098 00BF     		nop
 2310 009a 1037     		adds	r7, r7, #16
 2311              		.cfi_def_cfa_offset 8
 2312 009c BD46     		mov	sp, r7
 2313              		.cfi_def_cfa_register 13
 2314              		@ sp needed
 2315 009e 80BD     		pop	{r7, pc}
 2316              		.cfi_endproc
 2317              	.LFE446:
 2318              		.size	otg_isoc_out_failed_handler, .-otg_isoc_out_failed_handler
 2319              		.section	.text.usb_lld_serve_interrupt,"ax",%progbits
 2320              		.align	1
 2321              		.syntax unified
 2322              		.thumb
 2323              		.thumb_func
 2324              		.type	usb_lld_serve_interrupt, %function
 2325              	usb_lld_serve_interrupt:
 2326              	.LFB447:
 2327              		.loc 6 565 54
 2328              		.cfi_startproc
 2329              		@ args = 0, pretend = 0, frame = 24
ARM GAS  C:\Users\DEVELO~1\AppData\Local\Temp\cc4r91NU.s 			page 42


 2330              		@ frame_needed = 1, uses_anonymous_args = 0
 2331 0000 80B5     		push	{r7, lr}
 2332              		.cfi_def_cfa_offset 8
 2333              		.cfi_offset 7, -8
 2334              		.cfi_offset 14, -4
 2335 0002 86B0     		sub	sp, sp, #24
 2336              		.cfi_def_cfa_offset 32
 2337 0004 00AF     		add	r7, sp, #0
 2338              		.cfi_def_cfa_register 7
 2339 0006 7860     		str	r0, [r7, #4]
 2340              		.loc 6 566 16
 2341 0008 7B68     		ldr	r3, [r7, #4]
 2342 000a D3F89030 		ldr	r3, [r3, #144]
 2343 000e 3B61     		str	r3, [r7, #16]
 2344              		.loc 6 568 12
 2345 0010 4023     		movs	r3, #64
 2346 0012 7B61     		str	r3, [r7, #20]
 2347              	.L90:
 2348              		.loc 6 572 8
 2349 0014 3B69     		ldr	r3, [r7, #16]
 2350 0016 5B69     		ldr	r3, [r3, #20]
 2351 0018 FB60     		str	r3, [r7, #12]
 2352              		.loc 6 573 14
 2353 001a 3B69     		ldr	r3, [r7, #16]
 2354 001c 9B69     		ldr	r3, [r3, #24]
 2355              		.loc 6 573 7
 2356 001e FA68     		ldr	r2, [r7, #12]
 2357 0020 1340     		ands	r3, r3, r2
 2358 0022 FB60     		str	r3, [r7, #12]
 2359              		.loc 6 574 17
 2360 0024 3B69     		ldr	r3, [r7, #16]
 2361 0026 FA68     		ldr	r2, [r7, #12]
 2362 0028 5A61     		str	r2, [r3, #20]
 2363              		.loc 6 577 11
 2364 002a FB68     		ldr	r3, [r7, #12]
 2365 002c 03F48053 		and	r3, r3, #4096
 2366              		.loc 6 577 6
 2367 0030 002B     		cmp	r3, #0
 2368 0032 03D0     		beq	.L91
 2369              		.loc 6 579 5
 2370 0034 7868     		ldr	r0, [r7, #4]
 2371 0036 FFF7FEFF 		bl	_usb_reset
 2372              		.loc 6 582 5
 2373 003a 47E1     		b	.L89
 2374              	.L91:
 2375              		.loc 6 586 7
 2376 003c FB68     		ldr	r3, [r7, #12]
 2377              		.loc 6 586 6
 2378 003e 002B     		cmp	r3, #0
 2379 0040 1CDA     		bge	.L93
 2380              		.loc 6 589 13
 2381 0042 3B69     		ldr	r3, [r7, #16]
 2382 0044 D3F8003E 		ldr	r3, [r3, #3584]
 2383              		.loc 6 589 23
 2384 0048 03F00303 		and	r3, r3, #3
 2385              		.loc 6 589 8
 2386 004c 002B     		cmp	r3, #0
ARM GAS  C:\Users\DEVELO~1\AppData\Local\Temp\cc4r91NU.s 			page 43


 2387 004e 07D0     		beq	.L94
 2388              		.loc 6 591 21
 2389 0050 3B69     		ldr	r3, [r7, #16]
 2390 0052 D3F8003E 		ldr	r3, [r3, #3584]
 2391 0056 23F00302 		bic	r2, r3, #3
 2392 005a 3B69     		ldr	r3, [r7, #16]
 2393 005c C3F8002E 		str	r2, [r3, #3584]
 2394              	.L94:
 2395              		.loc 6 595 5
 2396 0060 7868     		ldr	r0, [r7, #4]
 2397 0062 FFF7FEFF 		bl	otg_enable_ep
 2398              		.loc 6 598 16
 2399 0066 3B69     		ldr	r3, [r7, #16]
 2400 0068 D3F80438 		ldr	r3, [r3, #2052]
 2401 006c 23F00102 		bic	r2, r3, #1
 2402 0070 3B69     		ldr	r3, [r7, #16]
 2403 0072 C3F80428 		str	r2, [r3, #2052]
 2404              		.loc 6 600 5
 2405 0076 7868     		ldr	r0, [r7, #4]
 2406 0078 FFF7FEFF 		bl	_usb_wakeup
 2407              	.L93:
 2408              		.loc 6 604 11
 2409 007c FB68     		ldr	r3, [r7, #12]
 2410 007e 03F40063 		and	r3, r3, #2048
 2411              		.loc 6 604 6
 2412 0082 002B     		cmp	r3, #0
 2413 0084 05D0     		beq	.L95
 2414              		.loc 6 606 5
 2415 0086 7868     		ldr	r0, [r7, #4]
 2416 0088 FFF7FEFF 		bl	otg_disable_ep
 2417              		.loc 6 609 5
 2418 008c 7868     		ldr	r0, [r7, #4]
 2419 008e FFF7FEFF 		bl	_usb_suspend
 2420              	.L95:
 2421              		.loc 6 613 11
 2422 0092 FB68     		ldr	r3, [r7, #12]
 2423 0094 03F40053 		and	r3, r3, #8192
 2424              		.loc 6 613 6
 2425 0098 002B     		cmp	r3, #0
 2426 009a 17D0     		beq	.L96
 2427              		.loc 6 615 14
 2428 009c 3B69     		ldr	r3, [r7, #16]
 2429 009e D3F80838 		ldr	r3, [r3, #2056]
 2430              		.loc 6 615 21
 2431 00a2 03F00603 		and	r3, r3, #6
 2432              		.loc 6 615 8
 2433 00a6 002B     		cmp	r3, #0
 2434 00a8 08D1     		bne	.L97
 2435              		.loc 6 616 28
 2436 00aa 3B69     		ldr	r3, [r7, #16]
 2437 00ac DB68     		ldr	r3, [r3, #12]
 2438              		.loc 6 616 38
 2439 00ae 23F47053 		bic	r3, r3, #15360
 2440              		.loc 6 616 62
 2441 00b2 43F41052 		orr	r2, r3, #9216
 2442              		.loc 6 616 21
 2443 00b6 3B69     		ldr	r3, [r7, #16]
ARM GAS  C:\Users\DEVELO~1\AppData\Local\Temp\cc4r91NU.s 			page 44


 2444 00b8 DA60     		str	r2, [r3, #12]
 2445 00ba 07E0     		b	.L96
 2446              	.L97:
 2447              		.loc 6 620 28
 2448 00bc 3B69     		ldr	r3, [r7, #16]
 2449 00be DB68     		ldr	r3, [r3, #12]
 2450              		.loc 6 620 38
 2451 00c0 23F47053 		bic	r3, r3, #15360
 2452              		.loc 6 620 62
 2453 00c4 43F4A052 		orr	r2, r3, #5120
 2454              		.loc 6 620 21
 2455 00c8 3B69     		ldr	r3, [r7, #16]
 2456 00ca DA60     		str	r2, [r3, #12]
 2457              	.L96:
 2458              		.loc 6 626 11
 2459 00cc FB68     		ldr	r3, [r7, #12]
 2460 00ce 03F00803 		and	r3, r3, #8
 2461              		.loc 6 626 6
 2462 00d2 002B     		cmp	r3, #0
 2463 00d4 26D0     		beq	.L98
 2464              		.loc 6 629 13
 2465 00d6 7B68     		ldr	r3, [r7, #4]
 2466 00d8 5B68     		ldr	r3, [r3, #4]
 2467              		.loc 6 629 21
 2468 00da DB68     		ldr	r3, [r3, #12]
 2469              		.loc 6 629 8
 2470 00dc 002B     		cmp	r3, #0
 2471 00de 05D1     		bne	.L99
 2472              		.loc 6 630 21
 2473 00e0 3B69     		ldr	r3, [r7, #16]
 2474 00e2 9B69     		ldr	r3, [r3, #24]
 2475 00e4 23F00802 		bic	r2, r3, #8
 2476 00e8 3B69     		ldr	r3, [r7, #16]
 2477 00ea 9A61     		str	r2, [r3, #24]
 2478              	.L99:
 2479              		.loc 6 632 13
 2480 00ec 7B68     		ldr	r3, [r7, #4]
 2481 00ee 1B78     		ldrb	r3, [r3]	@ zero_extendqisi2
 2482              		.loc 6 632 8
 2483 00f0 052B     		cmp	r3, #5
 2484 00f2 0AD1     		bne	.L100
 2485              		.loc 6 634 21
 2486 00f4 3B69     		ldr	r3, [r7, #16]
 2487 00f6 D3F8003E 		ldr	r3, [r3, #3584]
 2488 00fa 23F00302 		bic	r2, r3, #3
 2489 00fe 3B69     		ldr	r3, [r7, #16]
 2490 0100 C3F8002E 		str	r2, [r3, #3584]
 2491              		.loc 6 635 7
 2492 0104 7868     		ldr	r0, [r7, #4]
 2493 0106 FFF7FEFF 		bl	_usb_wakeup
 2494              	.L100:
 2495              		.loc 6 639 5
 2496 010a 7868     		ldr	r0, [r7, #4]
 2497 010c FFF7FEFF 		bl	otg_enable_ep
 2498              		.loc 6 641 5
 2499 0110 7B68     		ldr	r3, [r7, #4]
 2500 0112 5B68     		ldr	r3, [r3, #4]
ARM GAS  C:\Users\DEVELO~1\AppData\Local\Temp\cc4r91NU.s 			page 45


 2501 0114 DB68     		ldr	r3, [r3, #12]
 2502 0116 002B     		cmp	r3, #0
 2503 0118 04D0     		beq	.L98
 2504              		.loc 6 641 5 is_stmt 0 discriminator 1
 2505 011a 7B68     		ldr	r3, [r7, #4]
 2506 011c 5B68     		ldr	r3, [r3, #4]
 2507 011e DB68     		ldr	r3, [r3, #12]
 2508 0120 7868     		ldr	r0, [r7, #4]
 2509 0122 9847     		blx	r3
 2510              	.LVL5:
 2511              	.L98:
 2512              		.loc 6 645 11 is_stmt 1
 2513 0124 FB68     		ldr	r3, [r7, #12]
 2514 0126 03F48013 		and	r3, r3, #1048576
 2515              		.loc 6 645 6
 2516 012a 002B     		cmp	r3, #0
 2517 012c 02D0     		beq	.L101
 2518              		.loc 6 646 5
 2519 012e 7868     		ldr	r0, [r7, #4]
 2520 0130 FFF7FEFF 		bl	otg_isoc_in_failed_handler
 2521              	.L101:
 2522              		.loc 6 650 11
 2523 0134 FB68     		ldr	r3, [r7, #12]
 2524 0136 03F40013 		and	r3, r3, #2097152
 2525              		.loc 6 650 6
 2526 013a 002B     		cmp	r3, #0
 2527 013c 02D0     		beq	.L102
 2528              		.loc 6 651 5
 2529 013e 7868     		ldr	r0, [r7, #4]
 2530 0140 FFF7FEFF 		bl	otg_isoc_out_failed_handler
 2531              	.L102:
 2532              		.loc 6 655 7
 2533 0144 3B69     		ldr	r3, [r7, #16]
 2534 0146 D3F81838 		ldr	r3, [r3, #2072]
 2535 014a BB60     		str	r3, [r7, #8]
 2536              		.loc 6 656 11
 2537 014c FB68     		ldr	r3, [r7, #12]
 2538 014e 03F40023 		and	r3, r3, #524288
 2539              		.loc 6 656 6
 2540 0152 002B     		cmp	r3, #0
 2541 0154 50D0     		beq	.L103
 2542              		.loc 6 657 13
 2543 0156 BB68     		ldr	r3, [r7, #8]
 2544 0158 03F48033 		and	r3, r3, #65536
 2545              		.loc 6 657 8
 2546 015c 002B     		cmp	r3, #0
 2547 015e 03D0     		beq	.L104
 2548              		.loc 6 658 7
 2549 0160 0021     		movs	r1, #0
 2550 0162 7868     		ldr	r0, [r7, #4]
 2551 0164 FFF7FEFF 		bl	otg_epout_handler
 2552              	.L104:
 2553              		.loc 6 659 13
 2554 0168 BB68     		ldr	r3, [r7, #8]
 2555 016a 03F40033 		and	r3, r3, #131072
 2556              		.loc 6 659 8
 2557 016e 002B     		cmp	r3, #0
ARM GAS  C:\Users\DEVELO~1\AppData\Local\Temp\cc4r91NU.s 			page 46


 2558 0170 03D0     		beq	.L105
 2559              		.loc 6 660 7
 2560 0172 0121     		movs	r1, #1
 2561 0174 7868     		ldr	r0, [r7, #4]
 2562 0176 FFF7FEFF 		bl	otg_epout_handler
 2563              	.L105:
 2564              		.loc 6 661 13
 2565 017a BB68     		ldr	r3, [r7, #8]
 2566 017c 03F48023 		and	r3, r3, #262144
 2567              		.loc 6 661 8
 2568 0180 002B     		cmp	r3, #0
 2569 0182 03D0     		beq	.L106
 2570              		.loc 6 662 7
 2571 0184 0221     		movs	r1, #2
 2572 0186 7868     		ldr	r0, [r7, #4]
 2573 0188 FFF7FEFF 		bl	otg_epout_handler
 2574              	.L106:
 2575              		.loc 6 663 13
 2576 018c BB68     		ldr	r3, [r7, #8]
 2577 018e 03F40023 		and	r3, r3, #524288
 2578              		.loc 6 663 8
 2579 0192 002B     		cmp	r3, #0
 2580 0194 03D0     		beq	.L107
 2581              		.loc 6 664 7
 2582 0196 0321     		movs	r1, #3
 2583 0198 7868     		ldr	r0, [r7, #4]
 2584 019a FFF7FEFF 		bl	otg_epout_handler
 2585              	.L107:
 2586              		.loc 6 666 13
 2587 019e BB68     		ldr	r3, [r7, #8]
 2588 01a0 03F48013 		and	r3, r3, #1048576
 2589              		.loc 6 666 8
 2590 01a4 002B     		cmp	r3, #0
 2591 01a6 03D0     		beq	.L108
 2592              		.loc 6 667 7
 2593 01a8 0421     		movs	r1, #4
 2594 01aa 7868     		ldr	r0, [r7, #4]
 2595 01ac FFF7FEFF 		bl	otg_epout_handler
 2596              	.L108:
 2597              		.loc 6 670 13
 2598 01b0 BB68     		ldr	r3, [r7, #8]
 2599 01b2 03F40013 		and	r3, r3, #2097152
 2600              		.loc 6 670 8
 2601 01b6 002B     		cmp	r3, #0
 2602 01b8 03D0     		beq	.L109
 2603              		.loc 6 671 7
 2604 01ba 0521     		movs	r1, #5
 2605 01bc 7868     		ldr	r0, [r7, #4]
 2606 01be FFF7FEFF 		bl	otg_epout_handler
 2607              	.L109:
 2608              		.loc 6 674 13
 2609 01c2 BB68     		ldr	r3, [r7, #8]
 2610 01c4 03F48003 		and	r3, r3, #4194304
 2611              		.loc 6 674 8
 2612 01c8 002B     		cmp	r3, #0
 2613 01ca 03D0     		beq	.L110
 2614              		.loc 6 675 7
ARM GAS  C:\Users\DEVELO~1\AppData\Local\Temp\cc4r91NU.s 			page 47


 2615 01cc 0621     		movs	r1, #6
 2616 01ce 7868     		ldr	r0, [r7, #4]
 2617 01d0 FFF7FEFF 		bl	otg_epout_handler
 2618              	.L110:
 2619              		.loc 6 678 13
 2620 01d4 BB68     		ldr	r3, [r7, #8]
 2621 01d6 03F40003 		and	r3, r3, #8388608
 2622              		.loc 6 678 8
 2623 01da 002B     		cmp	r3, #0
 2624 01dc 03D0     		beq	.L111
 2625              		.loc 6 679 7
 2626 01de 0721     		movs	r1, #7
 2627 01e0 7868     		ldr	r0, [r7, #4]
 2628 01e2 FFF7FEFF 		bl	otg_epout_handler
 2629              	.L111:
 2630              		.loc 6 682 13
 2631 01e6 BB68     		ldr	r3, [r7, #8]
 2632 01e8 03F08073 		and	r3, r3, #16777216
 2633              		.loc 6 682 8
 2634 01ec 002B     		cmp	r3, #0
 2635 01ee 03D0     		beq	.L103
 2636              		.loc 6 683 7
 2637 01f0 0821     		movs	r1, #8
 2638 01f2 7868     		ldr	r0, [r7, #4]
 2639 01f4 FFF7FEFF 		bl	otg_epout_handler
 2640              	.L103:
 2641              		.loc 6 686 11
 2642 01f8 FB68     		ldr	r3, [r7, #12]
 2643 01fa 03F48023 		and	r3, r3, #262144
 2644              		.loc 6 686 6
 2645 01fe 002B     		cmp	r3, #0
 2646 0200 50D0     		beq	.L112
 2647              		.loc 6 687 13
 2648 0202 BB68     		ldr	r3, [r7, #8]
 2649 0204 03F00103 		and	r3, r3, #1
 2650              		.loc 6 687 8
 2651 0208 002B     		cmp	r3, #0
 2652 020a 03D0     		beq	.L113
 2653              		.loc 6 688 7
 2654 020c 0021     		movs	r1, #0
 2655 020e 7868     		ldr	r0, [r7, #4]
 2656 0210 FFF7FEFF 		bl	otg_epin_handler
 2657              	.L113:
 2658              		.loc 6 689 13
 2659 0214 BB68     		ldr	r3, [r7, #8]
 2660 0216 03F00203 		and	r3, r3, #2
 2661              		.loc 6 689 8
 2662 021a 002B     		cmp	r3, #0
 2663 021c 03D0     		beq	.L114
 2664              		.loc 6 690 7
 2665 021e 0121     		movs	r1, #1
 2666 0220 7868     		ldr	r0, [r7, #4]
 2667 0222 FFF7FEFF 		bl	otg_epin_handler
 2668              	.L114:
 2669              		.loc 6 691 13
 2670 0226 BB68     		ldr	r3, [r7, #8]
 2671 0228 03F00403 		and	r3, r3, #4
ARM GAS  C:\Users\DEVELO~1\AppData\Local\Temp\cc4r91NU.s 			page 48


 2672              		.loc 6 691 8
 2673 022c 002B     		cmp	r3, #0
 2674 022e 03D0     		beq	.L115
 2675              		.loc 6 692 7
 2676 0230 0221     		movs	r1, #2
 2677 0232 7868     		ldr	r0, [r7, #4]
 2678 0234 FFF7FEFF 		bl	otg_epin_handler
 2679              	.L115:
 2680              		.loc 6 693 13
 2681 0238 BB68     		ldr	r3, [r7, #8]
 2682 023a 03F00803 		and	r3, r3, #8
 2683              		.loc 6 693 8
 2684 023e 002B     		cmp	r3, #0
 2685 0240 03D0     		beq	.L116
 2686              		.loc 6 694 7
 2687 0242 0321     		movs	r1, #3
 2688 0244 7868     		ldr	r0, [r7, #4]
 2689 0246 FFF7FEFF 		bl	otg_epin_handler
 2690              	.L116:
 2691              		.loc 6 696 13
 2692 024a BB68     		ldr	r3, [r7, #8]
 2693 024c 03F01003 		and	r3, r3, #16
 2694              		.loc 6 696 8
 2695 0250 002B     		cmp	r3, #0
 2696 0252 03D0     		beq	.L117
 2697              		.loc 6 697 7
 2698 0254 0421     		movs	r1, #4
 2699 0256 7868     		ldr	r0, [r7, #4]
 2700 0258 FFF7FEFF 		bl	otg_epin_handler
 2701              	.L117:
 2702              		.loc 6 700 13
 2703 025c BB68     		ldr	r3, [r7, #8]
 2704 025e 03F02003 		and	r3, r3, #32
 2705              		.loc 6 700 8
 2706 0262 002B     		cmp	r3, #0
 2707 0264 03D0     		beq	.L118
 2708              		.loc 6 701 7
 2709 0266 0521     		movs	r1, #5
 2710 0268 7868     		ldr	r0, [r7, #4]
 2711 026a FFF7FEFF 		bl	otg_epin_handler
 2712              	.L118:
 2713              		.loc 6 704 13
 2714 026e BB68     		ldr	r3, [r7, #8]
 2715 0270 03F04003 		and	r3, r3, #64
 2716              		.loc 6 704 8
 2717 0274 002B     		cmp	r3, #0
 2718 0276 03D0     		beq	.L119
 2719              		.loc 6 705 7
 2720 0278 0621     		movs	r1, #6
 2721 027a 7868     		ldr	r0, [r7, #4]
 2722 027c FFF7FEFF 		bl	otg_epin_handler
 2723              	.L119:
 2724              		.loc 6 708 13
 2725 0280 BB68     		ldr	r3, [r7, #8]
 2726 0282 03F08003 		and	r3, r3, #128
 2727              		.loc 6 708 8
 2728 0286 002B     		cmp	r3, #0
ARM GAS  C:\Users\DEVELO~1\AppData\Local\Temp\cc4r91NU.s 			page 49


 2729 0288 03D0     		beq	.L120
 2730              		.loc 6 709 7
 2731 028a 0721     		movs	r1, #7
 2732 028c 7868     		ldr	r0, [r7, #4]
 2733 028e FFF7FEFF 		bl	otg_epin_handler
 2734              	.L120:
 2735              		.loc 6 712 13
 2736 0292 BB68     		ldr	r3, [r7, #8]
 2737 0294 03F48073 		and	r3, r3, #256
 2738              		.loc 6 712 8
 2739 0298 002B     		cmp	r3, #0
 2740 029a 03D0     		beq	.L112
 2741              		.loc 6 713 7
 2742 029c 0821     		movs	r1, #8
 2743 029e 7868     		ldr	r0, [r7, #4]
 2744 02a0 FFF7FEFF 		bl	otg_epin_handler
 2745              	.L112:
 2746              		.loc 6 719 12
 2747 02a4 FB68     		ldr	r3, [r7, #12]
 2748 02a6 03F01003 		and	r3, r3, #16
 2749              		.loc 6 719 6
 2750 02aa 002B     		cmp	r3, #0
 2751 02ac 02D0     		beq	.L121
 2752              		.loc 6 720 5
 2753 02ae 7868     		ldr	r0, [r7, #4]
 2754 02b0 FFF7FEFF 		bl	otg_rxfifo_handler
 2755              	.L121:
 2756              		.loc 6 723 12
 2757 02b4 FA68     		ldr	r2, [r7, #12]
 2758 02b6 074B     		ldr	r3, .L122
 2759 02b8 1340     		ands	r3, r3, r2
 2760              		.loc 6 723 6
 2761 02ba 002B     		cmp	r3, #0
 2762 02bc 06D0     		beq	.L89
 2763              		.loc 6 723 30 discriminator 1
 2764 02be 7B69     		ldr	r3, [r7, #20]
 2765 02c0 013B     		subs	r3, r3, #1
 2766 02c2 7B61     		str	r3, [r7, #20]
 2767 02c4 7B69     		ldr	r3, [r7, #20]
 2768 02c6 002B     		cmp	r3, #0
 2769 02c8 00D0     		beq	.L89
 2770              		.loc 6 724 5
 2771 02ca A3E6     		b	.L90
 2772              	.L89:
 2773              		.loc 6 725 1
 2774 02cc 1837     		adds	r7, r7, #24
 2775              		.cfi_def_cfa_offset 8
 2776 02ce BD46     		mov	sp, r7
 2777              		.cfi_def_cfa_register 13
 2778              		@ sp needed
 2779 02d0 80BD     		pop	{r7, pc}
 2780              	.L123:
 2781 02d2 00BF     		.align	2
 2782              	.L122:
 2783 02d4 30000004 		.word	67108912
 2784              		.cfi_endproc
 2785              	.LFE447:
ARM GAS  C:\Users\DEVELO~1\AppData\Local\Temp\cc4r91NU.s 			page 50


 2786              		.size	usb_lld_serve_interrupt, .-usb_lld_serve_interrupt
 2787              		.section	.text.Vector1D4,"ax",%progbits
 2788              		.align	1
 2789              		.global	Vector1D4
 2790              		.syntax unified
 2791              		.thumb
 2792              		.thumb_func
 2793              		.type	Vector1D4, %function
 2794              	Vector1D4:
 2795              	.LFB448:
 2796              		.loc 6 737 38
 2797              		.cfi_startproc
 2798              		@ args = 0, pretend = 0, frame = 0
 2799              		@ frame_needed = 1, uses_anonymous_args = 0
 2800 0000 80B5     		push	{r7, lr}
 2801              		.cfi_def_cfa_offset 8
 2802              		.cfi_offset 7, -8
 2803              		.cfi_offset 14, -4
 2804 0002 00AF     		add	r7, sp, #0
 2805              		.cfi_def_cfa_register 7
 2806              		.loc 6 739 3
 2807 0004 0648     		ldr	r0, .L125
 2808 0006 FFF7FEFF 		bl	__trace_isr_enter
 2809              		.loc 6 741 3
 2810 000a 0648     		ldr	r0, .L125+4
 2811 000c FFF7FEFF 		bl	usb_lld_serve_interrupt
 2812              		.loc 6 743 3
 2813 0010 0348     		ldr	r0, .L125
 2814 0012 FFF7FEFF 		bl	__trace_isr_leave
 2815 0016 FFF7FEFF 		bl	__port_irq_epilogue
 2816              		.loc 6 744 1
 2817 001a 00BF     		nop
 2818 001c 80BD     		pop	{r7, pc}
 2819              	.L126:
 2820 001e 00BF     		.align	2
 2821              	.L125:
 2822 0020 00000000 		.word	__func__.0
 2823 0024 00000000 		.word	USBD1
 2824              		.cfi_endproc
 2825              	.LFE448:
 2826              		.size	Vector1D4, .-Vector1D4
 2827              		.section	.text.usb_lld_init,"ax",%progbits
 2828              		.align	1
 2829              		.global	usb_lld_init
 2830              		.syntax unified
 2831              		.thumb
 2832              		.thumb_func
 2833              		.type	usb_lld_init, %function
 2834              	usb_lld_init:
 2835              	.LFB449:
 2836              		.loc 6 772 25
 2837              		.cfi_startproc
 2838              		@ args = 0, pretend = 0, frame = 0
 2839              		@ frame_needed = 1, uses_anonymous_args = 0
 2840 0000 80B5     		push	{r7, lr}
 2841              		.cfi_def_cfa_offset 8
 2842              		.cfi_offset 7, -8
ARM GAS  C:\Users\DEVELO~1\AppData\Local\Temp\cc4r91NU.s 			page 51


 2843              		.cfi_offset 14, -4
 2844 0002 00AF     		add	r7, sp, #0
 2845              		.cfi_def_cfa_register 7
 2846              		.loc 6 776 3
 2847 0004 0648     		ldr	r0, .L128
 2848 0006 FFF7FEFF 		bl	usbObjectInit
 2849              		.loc 6 777 19
 2850 000a 054B     		ldr	r3, .L128
 2851 000c 054A     		ldr	r2, .L128+4
 2852 000e C3F89020 		str	r2, [r3, #144]
 2853              		.loc 6 778 19
 2854 0012 034B     		ldr	r3, .L128
 2855 0014 044A     		ldr	r2, .L128+8
 2856 0016 C3F89420 		str	r2, [r3, #148]
 2857              		.loc 6 787 1
 2858 001a 00BF     		nop
 2859 001c 80BD     		pop	{r7, pc}
 2860              	.L129:
 2861 001e 00BF     		.align	2
 2862              	.L128:
 2863 0020 00000000 		.word	USBD1
 2864 0024 00000840 		.word	1074266112
 2865 0028 00000000 		.word	fsparams
 2866              		.cfi_endproc
 2867              	.LFE449:
 2868              		.size	usb_lld_init, .-usb_lld_init
 2869              		.section	.text.usb_lld_start,"ax",%progbits
 2870              		.align	1
 2871              		.global	usb_lld_start
 2872              		.syntax unified
 2873              		.thumb
 2874              		.thumb_func
 2875              		.type	usb_lld_start, %function
 2876              	usb_lld_start:
 2877              	.LFB450:
 2878              		.loc 6 799 37
 2879              		.cfi_startproc
 2880              		@ args = 0, pretend = 0, frame = 16
 2881              		@ frame_needed = 1, uses_anonymous_args = 0
 2882 0000 80B5     		push	{r7, lr}
 2883              		.cfi_def_cfa_offset 8
 2884              		.cfi_offset 7, -8
 2885              		.cfi_offset 14, -4
 2886 0002 84B0     		sub	sp, sp, #16
 2887              		.cfi_def_cfa_offset 24
 2888 0004 00AF     		add	r7, sp, #0
 2889              		.cfi_def_cfa_register 7
 2890 0006 7860     		str	r0, [r7, #4]
 2891              		.loc 6 800 16
 2892 0008 7B68     		ldr	r3, [r7, #4]
 2893 000a D3F89030 		ldr	r3, [r3, #144]
 2894 000e FB60     		str	r3, [r7, #12]
 2895              		.loc 6 802 11
 2896 0010 7B68     		ldr	r3, [r7, #4]
 2897 0012 1B78     		ldrb	r3, [r3]	@ zero_extendqisi2
 2898              		.loc 6 802 6
 2899 0014 012B     		cmp	r3, #1
ARM GAS  C:\Users\DEVELO~1\AppData\Local\Temp\cc4r91NU.s 			page 52


 2900 0016 4DD1     		bne	.L135
 2901              		.loc 6 806 8
 2902 0018 7B68     		ldr	r3, [r7, #4]
 2903 001a 284A     		ldr	r2, .L136
 2904 001c 9342     		cmp	r3, r2
 2905 001e 13D1     		bne	.L132
 2906              		.loc 6 808 7
 2907 0020 0121     		movs	r1, #1
 2908 0022 4FF00060 		mov	r0, #134217728
 2909 0026 FFF7FEFF 		bl	rccEnableAHB1
 2910              		.loc 6 809 7
 2911 002a 4FF00060 		mov	r0, #134217728
 2912 002e FFF7FEFF 		bl	rccResetAHB1
 2913              		.loc 6 812 7
 2914 0032 0E21     		movs	r1, #14
 2915 0034 6520     		movs	r0, #101
 2916 0036 FFF7FEFF 		bl	nvicEnableVector
 2917              		.loc 6 817 21
 2918 003a FB68     		ldr	r3, [r7, #12]
 2919 003c 204A     		ldr	r2, .L136+4
 2920 003e DA60     		str	r2, [r3, #12]
 2921              		.loc 6 821 18
 2922 0040 FB68     		ldr	r3, [r7, #12]
 2923 0042 204A     		ldr	r2, .L136+8
 2924 0044 C3F80028 		str	r2, [r3, #2048]
 2925              	.L132:
 2926              		.loc 6 871 19
 2927 0048 FB68     		ldr	r3, [r7, #12]
 2928 004a 0022     		movs	r2, #0
 2929 004c C3F8002E 		str	r2, [r3, #3584]
 2930              		.loc 6 874 19
 2931 0050 FB68     		ldr	r3, [r7, #12]
 2932 0052 C022     		movs	r2, #192
 2933 0054 1A60     		str	r2, [r3]
 2934              		.loc 6 889 17
 2935 0056 FB68     		ldr	r3, [r7, #12]
 2936 0058 4FF40412 		mov	r2, #2162688
 2937 005c 9A63     		str	r2, [r3, #56]
 2938              		.loc 6 893 5
 2939 005e 7868     		ldr	r0, [r7, #4]
 2940 0060 FFF7FEFF 		bl	otg_core_reset
 2941              		.loc 6 896 19
 2942 0064 FB68     		ldr	r3, [r7, #12]
 2943 0066 0022     		movs	r2, #0
 2944 0068 9A60     		str	r2, [r3, #8]
 2945              		.loc 6 899 5
 2946 006a 7868     		ldr	r0, [r7, #4]
 2947 006c FFF7FEFF 		bl	otg_disable_ep
 2948              		.loc 6 903 20
 2949 0070 FB68     		ldr	r3, [r7, #12]
 2950 0072 0022     		movs	r2, #0
 2951 0074 C3F81028 		str	r2, [r3, #2064]
 2952              		.loc 6 904 20
 2953 0078 FB68     		ldr	r3, [r7, #12]
 2954 007a 0022     		movs	r2, #0
 2955 007c C3F81428 		str	r2, [r3, #2068]
 2956              		.loc 6 905 20
ARM GAS  C:\Users\DEVELO~1\AppData\Local\Temp\cc4r91NU.s 			page 53


 2957 0080 FB68     		ldr	r3, [r7, #12]
 2958 0082 0022     		movs	r2, #0
 2959 0084 C3F81C28 		str	r2, [r3, #2076]
 2960              		.loc 6 906 13
 2961 0088 7B68     		ldr	r3, [r7, #4]
 2962 008a 5B68     		ldr	r3, [r3, #4]
 2963              		.loc 6 906 21
 2964 008c DB68     		ldr	r3, [r3, #12]
 2965              		.loc 6 906 8
 2966 008e 002B     		cmp	r3, #0
 2967 0090 03D1     		bne	.L133
 2968              		.loc 6 907 22
 2969 0092 FB68     		ldr	r3, [r7, #12]
 2970 0094 0C4A     		ldr	r2, .L136+12
 2971 0096 9A61     		str	r2, [r3, #24]
 2972 0098 02E0     		b	.L134
 2973              	.L133:
 2974              		.loc 6 911 22
 2975 009a FB68     		ldr	r3, [r7, #12]
 2976 009c 0B4A     		ldr	r2, .L136+16
 2977 009e 9A61     		str	r2, [r3, #24]
 2978              	.L134:
 2979              		.loc 6 917 20
 2980 00a0 FB68     		ldr	r3, [r7, #12]
 2981 00a2 4FF0FF32 		mov	r2, #-1
 2982 00a6 5A61     		str	r2, [r3, #20]
 2983              		.loc 6 920 19
 2984 00a8 FB68     		ldr	r3, [r7, #12]
 2985 00aa 9B68     		ldr	r3, [r3, #8]
 2986 00ac 43F00102 		orr	r2, r3, #1
 2987 00b0 FB68     		ldr	r3, [r7, #12]
 2988 00b2 9A60     		str	r2, [r3, #8]
 2989              	.L135:
 2990              		.loc 6 922 1
 2991 00b4 00BF     		nop
 2992 00b6 1037     		adds	r7, r7, #16
 2993              		.cfi_def_cfa_offset 8
 2994 00b8 BD46     		mov	sp, r7
 2995              		.cfi_def_cfa_register 13
 2996              		@ sp needed
 2997 00ba 80BD     		pop	{r7, pc}
 2998              	.L137:
 2999              		.align	2
 3000              	.L136:
 3001 00bc 00000000 		.word	USBD1
 3002 00c0 40140040 		.word	1073747008
 3003 00c4 03002002 		.word	35651587
 3004 00c8 003C30C0 		.word	-1070580736
 3005 00cc 083C30C0 		.word	-1070580728
 3006              		.cfi_endproc
 3007              	.LFE450:
 3008              		.size	usb_lld_start, .-usb_lld_start
 3009              		.section	.text.usb_lld_stop,"ax",%progbits
 3010              		.align	1
 3011              		.global	usb_lld_stop
 3012              		.syntax unified
 3013              		.thumb
ARM GAS  C:\Users\DEVELO~1\AppData\Local\Temp\cc4r91NU.s 			page 54


 3014              		.thumb_func
 3015              		.type	usb_lld_stop, %function
 3016              	usb_lld_stop:
 3017              	.LFB451:
 3018              		.loc 6 931 36
 3019              		.cfi_startproc
 3020              		@ args = 0, pretend = 0, frame = 16
 3021              		@ frame_needed = 1, uses_anonymous_args = 0
 3022 0000 80B5     		push	{r7, lr}
 3023              		.cfi_def_cfa_offset 8
 3024              		.cfi_offset 7, -8
 3025              		.cfi_offset 14, -4
 3026 0002 84B0     		sub	sp, sp, #16
 3027              		.cfi_def_cfa_offset 24
 3028 0004 00AF     		add	r7, sp, #0
 3029              		.cfi_def_cfa_register 7
 3030 0006 7860     		str	r0, [r7, #4]
 3031              		.loc 6 932 16
 3032 0008 7B68     		ldr	r3, [r7, #4]
 3033 000a D3F89030 		ldr	r3, [r3, #144]
 3034 000e FB60     		str	r3, [r7, #12]
 3035              		.loc 6 935 11
 3036 0010 7B68     		ldr	r3, [r7, #4]
 3037 0012 1B78     		ldrb	r3, [r3]	@ zero_extendqisi2
 3038              		.loc 6 935 6
 3039 0014 012B     		cmp	r3, #1
 3040 0016 17D0     		beq	.L140
 3041              		.loc 6 939 5
 3042 0018 7868     		ldr	r0, [r7, #4]
 3043 001a FFF7FEFF 		bl	otg_disable_ep
 3044              		.loc 6 941 22
 3045 001e FB68     		ldr	r3, [r7, #12]
 3046 0020 0022     		movs	r2, #0
 3047 0022 C3F81C28 		str	r2, [r3, #2076]
 3048              		.loc 6 942 22
 3049 0026 FB68     		ldr	r3, [r7, #12]
 3050 0028 0022     		movs	r2, #0
 3051 002a 9A60     		str	r2, [r3, #8]
 3052              		.loc 6 943 22
 3053 002c FB68     		ldr	r3, [r7, #12]
 3054 002e 0022     		movs	r2, #0
 3055 0030 9A63     		str	r2, [r3, #56]
 3056              		.loc 6 946 8
 3057 0032 7B68     		ldr	r3, [r7, #4]
 3058 0034 064A     		ldr	r2, .L141
 3059 0036 9342     		cmp	r3, r2
 3060 0038 06D1     		bne	.L140
 3061              		.loc 6 947 7
 3062 003a 6520     		movs	r0, #101
 3063 003c FFF7FEFF 		bl	nvicDisableVector
 3064              		.loc 6 948 7
 3065 0040 4FF00060 		mov	r0, #134217728
 3066 0044 FFF7FEFF 		bl	rccDisableAHB1
 3067              	.L140:
 3068              		.loc 6 962 1
 3069 0048 00BF     		nop
 3070 004a 1037     		adds	r7, r7, #16
ARM GAS  C:\Users\DEVELO~1\AppData\Local\Temp\cc4r91NU.s 			page 55


 3071              		.cfi_def_cfa_offset 8
 3072 004c BD46     		mov	sp, r7
 3073              		.cfi_def_cfa_register 13
 3074              		@ sp needed
 3075 004e 80BD     		pop	{r7, pc}
 3076              	.L142:
 3077              		.align	2
 3078              	.L141:
 3079 0050 00000000 		.word	USBD1
 3080              		.cfi_endproc
 3081              	.LFE451:
 3082              		.size	usb_lld_stop, .-usb_lld_stop
 3083              		.section	.text.usb_lld_reset,"ax",%progbits
 3084              		.align	1
 3085              		.global	usb_lld_reset
 3086              		.syntax unified
 3087              		.thumb
 3088              		.thumb_func
 3089              		.type	usb_lld_reset, %function
 3090              	usb_lld_reset:
 3091              	.LFB452:
 3092              		.loc 6 971 37
 3093              		.cfi_startproc
 3094              		@ args = 0, pretend = 0, frame = 16
 3095              		@ frame_needed = 1, uses_anonymous_args = 0
 3096 0000 90B5     		push	{r4, r7, lr}
 3097              		.cfi_def_cfa_offset 12
 3098              		.cfi_offset 4, -12
 3099              		.cfi_offset 7, -8
 3100              		.cfi_offset 14, -4
 3101 0002 85B0     		sub	sp, sp, #20
 3102              		.cfi_def_cfa_offset 32
 3103 0004 00AF     		add	r7, sp, #0
 3104              		.cfi_def_cfa_register 7
 3105 0006 7860     		str	r0, [r7, #4]
 3106              		.loc 6 973 16
 3107 0008 7B68     		ldr	r3, [r7, #4]
 3108 000a D3F89030 		ldr	r3, [r3, #144]
 3109 000e BB60     		str	r3, [r7, #8]
 3110              		.loc 6 976 3
 3111 0010 0021     		movs	r1, #0
 3112 0012 7868     		ldr	r0, [r7, #4]
 3113 0014 FFF7FEFF 		bl	otg_txfifo_flush
 3114              		.loc 6 979 20
 3115 0018 BB68     		ldr	r3, [r7, #8]
 3116 001a 0022     		movs	r2, #0
 3117 001c C3F83428 		str	r2, [r3, #2100]
 3118              		.loc 6 980 20
 3119 0020 BB68     		ldr	r3, [r7, #8]
 3120 0022 4FF00112 		mov	r2, #65537
 3121 0026 C3F81C28 		str	r2, [r3, #2076]
 3122              		.loc 6 983 10
 3123 002a 0023     		movs	r3, #0
 3124 002c FB60     		str	r3, [r7, #12]
 3125              		.loc 6 983 3
 3126 002e 24E0     		b	.L144
 3127              	.L145:
ARM GAS  C:\Users\DEVELO~1\AppData\Local\Temp\cc4r91NU.s 			page 56


 3128              		.loc 6 984 25 discriminator 3
 3129 0030 BA68     		ldr	r2, [r7, #8]
 3130 0032 FB68     		ldr	r3, [r7, #12]
 3131 0034 4833     		adds	r3, r3, #72
 3132 0036 5B01     		lsls	r3, r3, #5
 3133 0038 1344     		add	r3, r3, r2
 3134 003a 4FF00062 		mov	r2, #134217728
 3135 003e 1A60     		str	r2, [r3]
 3136              		.loc 6 985 25 discriminator 3
 3137 0040 BA68     		ldr	r2, [r7, #8]
 3138 0042 FB68     		ldr	r3, [r7, #12]
 3139 0044 5833     		adds	r3, r3, #88
 3140 0046 5B01     		lsls	r3, r3, #5
 3141 0048 1344     		add	r3, r3, r2
 3142 004a 4FF00062 		mov	r2, #134217728
 3143 004e 1A60     		str	r2, [r3]
 3144              		.loc 6 986 25 discriminator 3
 3145 0050 BA68     		ldr	r2, [r7, #8]
 3146 0052 FB68     		ldr	r3, [r7, #12]
 3147 0054 5B01     		lsls	r3, r3, #5
 3148 0056 1344     		add	r3, r3, r2
 3149 0058 03F60813 		addw	r3, r3, #2312
 3150 005c 4FF0FF32 		mov	r2, #-1
 3151 0060 1A60     		str	r2, [r3]
 3152              		.loc 6 987 25 discriminator 3
 3153 0062 BA68     		ldr	r2, [r7, #8]
 3154 0064 FB68     		ldr	r3, [r7, #12]
 3155 0066 5B01     		lsls	r3, r3, #5
 3156 0068 1344     		add	r3, r3, r2
 3157 006a 03F60833 		addw	r3, r3, #2824
 3158 006e 4FF0FF32 		mov	r2, #-1
 3159 0072 1A60     		str	r2, [r3]
 3160              		.loc 6 983 53 discriminator 3
 3161 0074 FB68     		ldr	r3, [r7, #12]
 3162 0076 0133     		adds	r3, r3, #1
 3163 0078 FB60     		str	r3, [r7, #12]
 3164              	.L144:
 3165              		.loc 6 983 24 discriminator 1
 3166 007a 7B68     		ldr	r3, [r7, #4]
 3167 007c D3F89430 		ldr	r3, [r3, #148]
 3168              		.loc 6 983 35 discriminator 1
 3169 0080 9B68     		ldr	r3, [r3, #8]
 3170              		.loc 6 983 17 discriminator 1
 3171 0082 FA68     		ldr	r2, [r7, #12]
 3172 0084 9A42     		cmp	r2, r3
 3173 0086 D3D9     		bls	.L145
 3174              		.loc 6 991 3
 3175 0088 7868     		ldr	r0, [r7, #4]
 3176 008a FFF7FEFF 		bl	otg_ram_reset
 3177              		.loc 6 994 23
 3178 008e 7B68     		ldr	r3, [r7, #4]
 3179 0090 D3F89430 		ldr	r3, [r3, #148]
 3180              		.loc 6 994 34
 3181 0094 1A68     		ldr	r2, [r3]
 3182              		.loc 6 994 17
 3183 0096 BB68     		ldr	r3, [r7, #8]
 3184 0098 5A62     		str	r2, [r3, #36]
ARM GAS  C:\Users\DEVELO~1\AppData\Local\Temp\cc4r91NU.s 			page 57


 3185              		.loc 6 995 3
 3186 009a 7868     		ldr	r0, [r7, #4]
 3187 009c FFF7FEFF 		bl	otg_rxfifo_flush
 3188              		.loc 6 998 21
 3189 00a0 BB68     		ldr	r3, [r7, #8]
 3190 00a2 D3F80038 		ldr	r3, [r3, #2048]
 3191              		.loc 6 998 60
 3192 00a6 23F4FE62 		bic	r2, r3, #2032
 3193              		.loc 6 998 14
 3194 00aa BB68     		ldr	r3, [r7, #8]
 3195 00ac C3F80028 		str	r2, [r3, #2048]
 3196              		.loc 6 1001 18
 3197 00b0 BB68     		ldr	r3, [r7, #8]
 3198 00b2 9A69     		ldr	r2, [r3, #24]
 3199 00b4 1D4B     		ldr	r3, .L146
 3200 00b6 1343     		orrs	r3, r3, r2
 3201 00b8 BA68     		ldr	r2, [r7, #8]
 3202 00ba 9361     		str	r3, [r2, #24]
 3203              		.loc 6 1002 19
 3204 00bc BB68     		ldr	r3, [r7, #8]
 3205 00be 0922     		movs	r2, #9
 3206 00c0 C3F81028 		str	r2, [r3, #2064]
 3207              		.loc 6 1003 19
 3208 00c4 BB68     		ldr	r3, [r7, #8]
 3209 00c6 0922     		movs	r2, #9
 3210 00c8 C3F81428 		str	r2, [r3, #2068]
 3211              		.loc 6 1006 16
 3212 00cc 7B68     		ldr	r3, [r7, #4]
 3213 00ce 184A     		ldr	r2, .L146+4
 3214 00d0 DA60     		str	r2, [r3, #12]
 3215              		.loc 6 1007 24
 3216 00d2 BB68     		ldr	r3, [r7, #8]
 3217 00d4 4FF0C042 		mov	r2, #1610612736
 3218 00d8 C3F8102B 		str	r2, [r3, #2832]
 3219              		.loc 6 1009 25
 3220 00dc 4023     		movs	r3, #64
 3221 00de 1A46     		mov	r2, r3
 3222              		.loc 6 1008 78
 3223 00e0 144B     		ldr	r3, .L146+8
 3224 00e2 1343     		orrs	r3, r3, r2
 3225              		.loc 6 1008 23
 3226 00e4 BA68     		ldr	r2, [r7, #8]
 3227 00e6 C2F8003B 		str	r3, [r2, #2816]
 3228              		.loc 6 1010 24
 3229 00ea BB68     		ldr	r3, [r7, #8]
 3230 00ec 0022     		movs	r2, #0
 3231 00ee C3F81029 		str	r2, [r3, #2320]
 3232              		.loc 6 1012 45
 3233 00f2 4023     		movs	r3, #64
 3234 00f4 1A46     		mov	r2, r3
 3235              		.loc 6 1012 43
 3236 00f6 0F4B     		ldr	r3, .L146+8
 3237 00f8 1343     		orrs	r3, r3, r2
 3238              		.loc 6 1011 23
 3239 00fa BA68     		ldr	r2, [r7, #8]
 3240 00fc C2F80039 		str	r3, [r2, #2304]
 3241              		.loc 6 1013 20
ARM GAS  C:\Users\DEVELO~1\AppData\Local\Temp\cc4r91NU.s 			page 58


 3242 0100 4023     		movs	r3, #64
 3243 0102 9B08     		lsrs	r3, r3, #2
 3244 0104 9BB2     		uxth	r3, r3
 3245 0106 1B04     		lsls	r3, r3, #16
 3246 0108 1C46     		mov	r4, r3
 3247              		.loc 6 1014 20
 3248 010a 4023     		movs	r3, #64
 3249 010c 9B08     		lsrs	r3, r3, #2
 3250 010e 9BB2     		uxth	r3, r3
 3251 0110 1946     		mov	r1, r3
 3252 0112 7868     		ldr	r0, [r7, #4]
 3253 0114 FFF7FEFF 		bl	otg_ram_alloc
 3254 0118 0346     		mov	r3, r0
 3255              		.loc 6 1013 63
 3256 011a 44EA0302 		orr	r2, r4, r3
 3257              		.loc 6 1013 18
 3258 011e BB68     		ldr	r3, [r7, #8]
 3259 0120 9A62     		str	r2, [r3, #40]
 3260              		.loc 6 1016 1
 3261 0122 00BF     		nop
 3262 0124 1437     		adds	r7, r7, #20
 3263              		.cfi_def_cfa_offset 12
 3264 0126 BD46     		mov	sp, r7
 3265              		.cfi_def_cfa_register 13
 3266              		@ sp needed
 3267 0128 90BD     		pop	{r4, r7, pc}
 3268              	.L147:
 3269 012a 00BF     		.align	2
 3270              	.L146:
 3271 012c 10000C00 		.word	786448
 3272 0130 00000000 		.word	ep0config
 3273 0134 00800010 		.word	268468224
 3274              		.cfi_endproc
 3275              	.LFE452:
 3276              		.size	usb_lld_reset, .-usb_lld_reset
 3277              		.section	.text.usb_lld_set_address,"ax",%progbits
 3278              		.align	1
 3279              		.global	usb_lld_set_address
 3280              		.syntax unified
 3281              		.thumb
 3282              		.thumb_func
 3283              		.type	usb_lld_set_address, %function
 3284              	usb_lld_set_address:
 3285              	.LFB453:
 3286              		.loc 6 1025 43
 3287              		.cfi_startproc
 3288              		@ args = 0, pretend = 0, frame = 16
 3289              		@ frame_needed = 1, uses_anonymous_args = 0
 3290              		@ link register save eliminated.
 3291 0000 80B4     		push	{r7}
 3292              		.cfi_def_cfa_offset 4
 3293              		.cfi_offset 7, -4
 3294 0002 85B0     		sub	sp, sp, #20
 3295              		.cfi_def_cfa_offset 24
 3296 0004 00AF     		add	r7, sp, #0
 3297              		.cfi_def_cfa_register 7
 3298 0006 7860     		str	r0, [r7, #4]
ARM GAS  C:\Users\DEVELO~1\AppData\Local\Temp\cc4r91NU.s 			page 59


 3299              		.loc 6 1026 16
 3300 0008 7B68     		ldr	r3, [r7, #4]
 3301 000a D3F89030 		ldr	r3, [r3, #144]
 3302 000e FB60     		str	r3, [r7, #12]
 3303              		.loc 6 1028 21
 3304 0010 FB68     		ldr	r3, [r7, #12]
 3305 0012 D3F80038 		ldr	r3, [r3, #2048]
 3306              		.loc 6 1028 28
 3307 0016 23F4FE63 		bic	r3, r3, #2032
 3308              		.loc 6 1028 48
 3309 001a 7A68     		ldr	r2, [r7, #4]
 3310 001c 92F88A20 		ldrb	r2, [r2, #138]	@ zero_extendqisi2
 3311 0020 1201     		lsls	r2, r2, #4
 3312              		.loc 6 1028 46
 3313 0022 1A43     		orrs	r2, r2, r3
 3314              		.loc 6 1028 14
 3315 0024 FB68     		ldr	r3, [r7, #12]
 3316 0026 C3F80028 		str	r2, [r3, #2048]
 3317              		.loc 6 1029 1
 3318 002a 00BF     		nop
 3319 002c 1437     		adds	r7, r7, #20
 3320              		.cfi_def_cfa_offset 4
 3321 002e BD46     		mov	sp, r7
 3322              		.cfi_def_cfa_register 13
 3323              		@ sp needed
 3324 0030 80BC     		pop	{r7}
 3325              		.cfi_restore 7
 3326              		.cfi_def_cfa_offset 0
 3327 0032 7047     		bx	lr
 3328              		.cfi_endproc
 3329              	.LFE453:
 3330              		.size	usb_lld_set_address, .-usb_lld_set_address
 3331              		.section	.text.usb_lld_init_endpoint,"ax",%progbits
 3332              		.align	1
 3333              		.global	usb_lld_init_endpoint
 3334              		.syntax unified
 3335              		.thumb
 3336              		.thumb_func
 3337              		.type	usb_lld_init_endpoint, %function
 3338              	usb_lld_init_endpoint:
 3339              	.LFB454:
 3340              		.loc 6 1039 57
 3341              		.cfi_startproc
 3342              		@ args = 0, pretend = 0, frame = 24
 3343              		@ frame_needed = 1, uses_anonymous_args = 0
 3344 0000 90B5     		push	{r4, r7, lr}
 3345              		.cfi_def_cfa_offset 12
 3346              		.cfi_offset 4, -12
 3347              		.cfi_offset 7, -8
 3348              		.cfi_offset 14, -4
 3349 0002 87B0     		sub	sp, sp, #28
 3350              		.cfi_def_cfa_offset 40
 3351 0004 00AF     		add	r7, sp, #0
 3352              		.cfi_def_cfa_register 7
 3353 0006 7860     		str	r0, [r7, #4]
 3354 0008 0B46     		mov	r3, r1
 3355 000a FB70     		strb	r3, [r7, #3]
ARM GAS  C:\Users\DEVELO~1\AppData\Local\Temp\cc4r91NU.s 			page 60


 3356              		.loc 6 1041 16
 3357 000c 7B68     		ldr	r3, [r7, #4]
 3358 000e D3F89030 		ldr	r3, [r3, #144]
 3359 0012 FB60     		str	r3, [r7, #12]
 3360              		.loc 6 1044 20
 3361 0014 FB78     		ldrb	r3, [r7, #3]	@ zero_extendqisi2
 3362 0016 7A68     		ldr	r2, [r7, #4]
 3363 0018 0233     		adds	r3, r3, #2
 3364 001a 9B00     		lsls	r3, r3, #2
 3365 001c 1344     		add	r3, r3, r2
 3366 001e 5B68     		ldr	r3, [r3, #4]
 3367              		.loc 6 1044 24
 3368 0020 1B68     		ldr	r3, [r3]
 3369              		.loc 6 1044 34
 3370 0022 03F00303 		and	r3, r3, #3
 3371              		.loc 6 1044 3
 3372 0026 032B     		cmp	r3, #3
 3373 0028 00F2ED80 		bhi	.L162
 3374 002c 01A2     		adr	r2, .L152
 3375 002e 52F823F0 		ldr	pc, [r2, r3, lsl #2]
 3376 0032 00BF     		.p2align 2
 3377              	.L152:
 3378 0034 45000000 		.word	.L155+1
 3379 0038 4B000000 		.word	.L154+1
 3380 003c 51000000 		.word	.L153+1
 3381 0040 57000000 		.word	.L151+1
 3382              		.p2align 1
 3383              	.L155:
 3384              		.loc 6 1046 9
 3385 0044 724B     		ldr	r3, .L163
 3386 0046 7B61     		str	r3, [r7, #20]
 3387              		.loc 6 1047 5
 3388 0048 08E0     		b	.L156
 3389              	.L154:
 3390              		.loc 6 1049 9
 3391 004a 724B     		ldr	r3, .L163+4
 3392 004c 7B61     		str	r3, [r7, #20]
 3393              		.loc 6 1050 5
 3394 004e 05E0     		b	.L156
 3395              	.L153:
 3396              		.loc 6 1052 9
 3397 0050 714B     		ldr	r3, .L163+8
 3398 0052 7B61     		str	r3, [r7, #20]
 3399              		.loc 6 1053 5
 3400 0054 02E0     		b	.L156
 3401              	.L151:
 3402              		.loc 6 1055 9
 3403 0056 714B     		ldr	r3, .L163+12
 3404 0058 7B61     		str	r3, [r7, #20]
 3405              		.loc 6 1056 5
 3406 005a 00BF     		nop
 3407              	.L156:
 3408              		.loc 6 1062 15
 3409 005c FB78     		ldrb	r3, [r7, #3]	@ zero_extendqisi2
 3410              		.loc 6 1062 25
 3411 005e FA68     		ldr	r2, [r7, #12]
 3412 0060 5B01     		lsls	r3, r3, #5
ARM GAS  C:\Users\DEVELO~1\AppData\Local\Temp\cc4r91NU.s 			page 61


 3413 0062 1344     		add	r3, r3, r2
 3414 0064 03F53163 		add	r3, r3, #2832
 3415 0068 0022     		movs	r2, #0
 3416 006a 1A60     		str	r2, [r3]
 3417              		.loc 6 1063 16
 3418 006c FB78     		ldrb	r3, [r7, #3]	@ zero_extendqisi2
 3419 006e 7A68     		ldr	r2, [r7, #4]
 3420 0070 0233     		adds	r3, r3, #2
 3421 0072 9B00     		lsls	r3, r3, #2
 3422 0074 1344     		add	r3, r3, r2
 3423 0076 5B68     		ldr	r3, [r3, #4]
 3424              		.loc 6 1063 20
 3425 0078 9B69     		ldr	r3, [r3, #24]
 3426              		.loc 6 1063 6
 3427 007a 002B     		cmp	r3, #0
 3428 007c 1CD0     		beq	.L158
 3429              		.loc 6 1064 34
 3430 007e FB78     		ldrb	r3, [r7, #3]	@ zero_extendqisi2
 3431 0080 7A68     		ldr	r2, [r7, #4]
 3432 0082 0233     		adds	r3, r3, #2
 3433 0084 9B00     		lsls	r3, r3, #2
 3434 0086 1344     		add	r3, r3, r2
 3435 0088 5B68     		ldr	r3, [r3, #4]
 3436 008a 5B8A     		ldrh	r3, [r3, #18]
 3437 008c 1946     		mov	r1, r3
 3438              		.loc 6 1064 17
 3439 008e FB78     		ldrb	r3, [r7, #3]	@ zero_extendqisi2
 3440              		.loc 6 1064 32
 3441 0090 7A69     		ldr	r2, [r7, #20]
 3442 0092 0A43     		orrs	r2, r2, r1
 3443              		.loc 6 1064 26
 3444 0094 F968     		ldr	r1, [r7, #12]
 3445 0096 5833     		adds	r3, r3, #88
 3446 0098 5B01     		lsls	r3, r3, #5
 3447 009a 0B44     		add	r3, r3, r1
 3448 009c 1A60     		str	r2, [r3]
 3449              		.loc 6 1065 20
 3450 009e FB68     		ldr	r3, [r7, #12]
 3451 00a0 D3F81C28 		ldr	r2, [r3, #2076]
 3452              		.loc 6 1065 23
 3453 00a4 FB78     		ldrb	r3, [r7, #3]	@ zero_extendqisi2
 3454 00a6 1033     		adds	r3, r3, #16
 3455 00a8 0121     		movs	r1, #1
 3456 00aa 01FA03F3 		lsl	r3, r1, r3
 3457              		.loc 6 1065 20
 3458 00ae 1A43     		orrs	r2, r2, r3
 3459 00b0 FB68     		ldr	r3, [r7, #12]
 3460 00b2 C3F81C28 		str	r2, [r3, #2076]
 3461 00b6 1AE0     		b	.L159
 3462              	.L158:
 3463              		.loc 6 1068 26
 3464 00b8 FB78     		ldrb	r3, [r7, #3]	@ zero_extendqisi2
 3465 00ba FA68     		ldr	r2, [r7, #12]
 3466 00bc 5833     		adds	r3, r3, #88
 3467 00be 5B01     		lsls	r3, r3, #5
 3468 00c0 1344     		add	r3, r3, r2
 3469 00c2 1A68     		ldr	r2, [r3]
ARM GAS  C:\Users\DEVELO~1\AppData\Local\Temp\cc4r91NU.s 			page 62


 3470 00c4 FB78     		ldrb	r3, [r7, #3]	@ zero_extendqisi2
 3471 00c6 22F40042 		bic	r2, r2, #32768
 3472 00ca F968     		ldr	r1, [r7, #12]
 3473 00cc 5833     		adds	r3, r3, #88
 3474 00ce 5B01     		lsls	r3, r3, #5
 3475 00d0 0B44     		add	r3, r3, r1
 3476 00d2 1A60     		str	r2, [r3]
 3477              		.loc 6 1069 20
 3478 00d4 FB68     		ldr	r3, [r7, #12]
 3479 00d6 D3F81C28 		ldr	r2, [r3, #2076]
 3480              		.loc 6 1069 24
 3481 00da FB78     		ldrb	r3, [r7, #3]	@ zero_extendqisi2
 3482 00dc 1033     		adds	r3, r3, #16
 3483 00de 0121     		movs	r1, #1
 3484 00e0 01FA03F3 		lsl	r3, r1, r3
 3485              		.loc 6 1069 23
 3486 00e4 DB43     		mvns	r3, r3
 3487              		.loc 6 1069 20
 3488 00e6 1A40     		ands	r2, r2, r3
 3489 00e8 FB68     		ldr	r3, [r7, #12]
 3490 00ea C3F81C28 		str	r2, [r3, #2076]
 3491              	.L159:
 3492              		.loc 6 1073 15
 3493 00ee FB78     		ldrb	r3, [r7, #3]	@ zero_extendqisi2
 3494              		.loc 6 1073 25
 3495 00f0 FA68     		ldr	r2, [r7, #12]
 3496 00f2 5B01     		lsls	r3, r3, #5
 3497 00f4 1344     		add	r3, r3, r2
 3498 00f6 03F51163 		add	r3, r3, #2320
 3499 00fa 0022     		movs	r2, #0
 3500 00fc 1A60     		str	r2, [r3]
 3501              		.loc 6 1074 16
 3502 00fe FB78     		ldrb	r3, [r7, #3]	@ zero_extendqisi2
 3503 0100 7A68     		ldr	r2, [r7, #4]
 3504 0102 0233     		adds	r3, r3, #2
 3505 0104 9B00     		lsls	r3, r3, #2
 3506 0106 1344     		add	r3, r3, r2
 3507 0108 5B68     		ldr	r3, [r3, #4]
 3508              		.loc 6 1074 20
 3509 010a 5B69     		ldr	r3, [r3, #20]
 3510              		.loc 6 1074 6
 3511 010c 002B     		cmp	r3, #0
 3512 010e 52D0     		beq	.L160
 3513              		.loc 6 1076 22
 3514 0110 FB78     		ldrb	r3, [r7, #3]	@ zero_extendqisi2
 3515 0112 7A68     		ldr	r2, [r7, #4]
 3516 0114 0233     		adds	r3, r3, #2
 3517 0116 9B00     		lsls	r3, r3, #2
 3518 0118 1344     		add	r3, r3, r2
 3519 011a 5B68     		ldr	r3, [r3, #4]
 3520              		.loc 6 1076 26
 3521 011c 1B8A     		ldrh	r3, [r3, #16]
 3522              		.loc 6 1076 39
 3523 011e 9B08     		lsrs	r3, r3, #2
 3524 0120 9BB2     		uxth	r3, r3
 3525              		.loc 6 1076 11
 3526 0122 3B61     		str	r3, [r7, #16]
ARM GAS  C:\Users\DEVELO~1\AppData\Local\Temp\cc4r91NU.s 			page 63


 3527              		.loc 6 1077 18
 3528 0124 FB78     		ldrb	r3, [r7, #3]	@ zero_extendqisi2
 3529 0126 7A68     		ldr	r2, [r7, #4]
 3530 0128 0233     		adds	r3, r3, #2
 3531 012a 9B00     		lsls	r3, r3, #2
 3532 012c 1344     		add	r3, r3, r2
 3533 012e 5B68     		ldr	r3, [r3, #4]
 3534              		.loc 6 1077 22
 3535 0130 9B8B     		ldrh	r3, [r3, #28]
 3536              		.loc 6 1077 8
 3537 0132 012B     		cmp	r3, #1
 3538 0134 0BD9     		bls	.L161
 3539              		.loc 6 1078 25
 3540 0136 FB78     		ldrb	r3, [r7, #3]	@ zero_extendqisi2
 3541 0138 7A68     		ldr	r2, [r7, #4]
 3542 013a 0233     		adds	r3, r3, #2
 3543 013c 9B00     		lsls	r3, r3, #2
 3544 013e 1344     		add	r3, r3, r2
 3545 0140 5B68     		ldr	r3, [r3, #4]
 3546              		.loc 6 1078 29
 3547 0142 9B8B     		ldrh	r3, [r3, #28]
 3548 0144 1A46     		mov	r2, r3
 3549              		.loc 6 1078 13
 3550 0146 3B69     		ldr	r3, [r7, #16]
 3551 0148 02FB03F3 		mul	r3, r2, r3
 3552 014c 3B61     		str	r3, [r7, #16]
 3553              	.L161:
 3554              		.loc 6 1079 29
 3555 014e 3B69     		ldr	r3, [r7, #16]
 3556 0150 1C04     		lsls	r4, r3, #16
 3557              		.loc 6 1080 29
 3558 0152 3969     		ldr	r1, [r7, #16]
 3559 0154 7868     		ldr	r0, [r7, #4]
 3560 0156 FFF7FEFF 		bl	otg_ram_alloc
 3561 015a 0246     		mov	r2, r0
 3562              		.loc 6 1079 22
 3563 015c FB78     		ldrb	r3, [r7, #3]	@ zero_extendqisi2
 3564 015e 013B     		subs	r3, r3, #1
 3565              		.loc 6 1079 53
 3566 0160 2243     		orrs	r2, r2, r4
 3567              		.loc 6 1079 27
 3568 0162 F968     		ldr	r1, [r7, #12]
 3569 0164 4033     		adds	r3, r3, #64
 3570 0166 9B00     		lsls	r3, r3, #2
 3571 0168 0B44     		add	r3, r3, r1
 3572 016a 5A60     		str	r2, [r3, #4]
 3573              		.loc 6 1081 5
 3574 016c FB78     		ldrb	r3, [r7, #3]	@ zero_extendqisi2
 3575 016e 1946     		mov	r1, r3
 3576 0170 7868     		ldr	r0, [r7, #4]
 3577 0172 FFF7FEFF 		bl	otg_txfifo_flush
 3578              		.loc 6 1084 28
 3579 0176 FB78     		ldrb	r3, [r7, #3]	@ zero_extendqisi2
 3580 0178 9B05     		lsls	r3, r3, #22
 3581 017a 1A46     		mov	r2, r3
 3582              		.loc 6 1083 32
 3583 017c 7B69     		ldr	r3, [r7, #20]
ARM GAS  C:\Users\DEVELO~1\AppData\Local\Temp\cc4r91NU.s 			page 64


 3584 017e 1A43     		orrs	r2, r2, r3
 3585              		.loc 6 1085 28
 3586 0180 FB78     		ldrb	r3, [r7, #3]	@ zero_extendqisi2
 3587 0182 7968     		ldr	r1, [r7, #4]
 3588 0184 0233     		adds	r3, r3, #2
 3589 0186 9B00     		lsls	r3, r3, #2
 3590 0188 0B44     		add	r3, r3, r1
 3591 018a 5B68     		ldr	r3, [r3, #4]
 3592 018c 1B8A     		ldrh	r3, [r3, #16]
 3593 018e 1946     		mov	r1, r3
 3594              		.loc 6 1083 17
 3595 0190 FB78     		ldrb	r3, [r7, #3]	@ zero_extendqisi2
 3596              		.loc 6 1084 47
 3597 0192 0A43     		orrs	r2, r2, r1
 3598              		.loc 6 1083 26
 3599 0194 F968     		ldr	r1, [r7, #12]
 3600 0196 4833     		adds	r3, r3, #72
 3601 0198 5B01     		lsls	r3, r3, #5
 3602 019a 0B44     		add	r3, r3, r1
 3603 019c 1A60     		str	r2, [r3]
 3604              		.loc 6 1086 20
 3605 019e FB68     		ldr	r3, [r7, #12]
 3606 01a0 D3F81C28 		ldr	r2, [r3, #2076]
 3607              		.loc 6 1086 23
 3608 01a4 FB78     		ldrb	r3, [r7, #3]	@ zero_extendqisi2
 3609 01a6 0121     		movs	r1, #1
 3610 01a8 01FA03F3 		lsl	r3, r1, r3
 3611              		.loc 6 1086 20
 3612 01ac 1A43     		orrs	r2, r2, r3
 3613 01ae FB68     		ldr	r3, [r7, #12]
 3614 01b0 C3F81C28 		str	r2, [r3, #2076]
 3615 01b4 28E0     		b	.L149
 3616              	.L160:
 3617              		.loc 6 1089 22
 3618 01b6 FB78     		ldrb	r3, [r7, #3]	@ zero_extendqisi2
 3619 01b8 013B     		subs	r3, r3, #1
 3620              		.loc 6 1089 27
 3621 01ba FA68     		ldr	r2, [r7, #12]
 3622 01bc 4033     		adds	r3, r3, #64
 3623 01be 9B00     		lsls	r3, r3, #2
 3624 01c0 1344     		add	r3, r3, r2
 3625 01c2 174A     		ldr	r2, .L163+16
 3626 01c4 5A60     		str	r2, [r3, #4]
 3627              		.loc 6 1090 5
 3628 01c6 FB78     		ldrb	r3, [r7, #3]	@ zero_extendqisi2
 3629 01c8 1946     		mov	r1, r3
 3630 01ca 7868     		ldr	r0, [r7, #4]
 3631 01cc FFF7FEFF 		bl	otg_txfifo_flush
 3632              		.loc 6 1091 26
 3633 01d0 FB78     		ldrb	r3, [r7, #3]	@ zero_extendqisi2
 3634 01d2 FA68     		ldr	r2, [r7, #12]
 3635 01d4 4833     		adds	r3, r3, #72
 3636 01d6 5B01     		lsls	r3, r3, #5
 3637 01d8 1344     		add	r3, r3, r2
 3638 01da 1A68     		ldr	r2, [r3]
 3639 01dc FB78     		ldrb	r3, [r7, #3]	@ zero_extendqisi2
 3640 01de 22F40042 		bic	r2, r2, #32768
ARM GAS  C:\Users\DEVELO~1\AppData\Local\Temp\cc4r91NU.s 			page 65


 3641 01e2 F968     		ldr	r1, [r7, #12]
 3642 01e4 4833     		adds	r3, r3, #72
 3643 01e6 5B01     		lsls	r3, r3, #5
 3644 01e8 0B44     		add	r3, r3, r1
 3645 01ea 1A60     		str	r2, [r3]
 3646              		.loc 6 1092 20
 3647 01ec FB68     		ldr	r3, [r7, #12]
 3648 01ee D3F81C28 		ldr	r2, [r3, #2076]
 3649              		.loc 6 1092 24
 3650 01f2 FB78     		ldrb	r3, [r7, #3]	@ zero_extendqisi2
 3651 01f4 0121     		movs	r1, #1
 3652 01f6 01FA03F3 		lsl	r3, r1, r3
 3653              		.loc 6 1092 23
 3654 01fa DB43     		mvns	r3, r3
 3655              		.loc 6 1092 20
 3656 01fc 1A40     		ands	r2, r2, r3
 3657 01fe FB68     		ldr	r3, [r7, #12]
 3658 0200 C3F81C28 		str	r2, [r3, #2076]
 3659 0204 00E0     		b	.L149
 3660              	.L162:
 3661              		.loc 6 1058 5
 3662 0206 00BF     		nop
 3663              	.L149:
 3664              		.loc 6 1094 1
 3665 0208 1C37     		adds	r7, r7, #28
 3666              		.cfi_def_cfa_offset 12
 3667 020a BD46     		mov	sp, r7
 3668              		.cfi_def_cfa_register 13
 3669              		@ sp needed
 3670 020c 90BD     		pop	{r4, r7, pc}
 3671              	.L164:
 3672 020e 00BF     		.align	2
 3673              	.L163:
 3674 0210 00800010 		.word	268468224
 3675 0214 00800410 		.word	268730368
 3676 0218 00800810 		.word	268992512
 3677 021c 00800C10 		.word	269254656
 3678 0220 00040002 		.word	33555456
 3679              		.cfi_endproc
 3680              	.LFE454:
 3681              		.size	usb_lld_init_endpoint, .-usb_lld_init_endpoint
 3682              		.section	.text.usb_lld_disable_endpoints,"ax",%progbits
 3683              		.align	1
 3684              		.global	usb_lld_disable_endpoints
 3685              		.syntax unified
 3686              		.thumb
 3687              		.thumb_func
 3688              		.type	usb_lld_disable_endpoints, %function
 3689              	usb_lld_disable_endpoints:
 3690              	.LFB455:
 3691              		.loc 6 1103 49
 3692              		.cfi_startproc
 3693              		@ args = 0, pretend = 0, frame = 8
 3694              		@ frame_needed = 1, uses_anonymous_args = 0
 3695 0000 80B5     		push	{r7, lr}
 3696              		.cfi_def_cfa_offset 8
 3697              		.cfi_offset 7, -8
ARM GAS  C:\Users\DEVELO~1\AppData\Local\Temp\cc4r91NU.s 			page 66


 3698              		.cfi_offset 14, -4
 3699 0002 82B0     		sub	sp, sp, #8
 3700              		.cfi_def_cfa_offset 16
 3701 0004 00AF     		add	r7, sp, #0
 3702              		.cfi_def_cfa_register 7
 3703 0006 7860     		str	r0, [r7, #4]
 3704              		.loc 6 1106 3
 3705 0008 7868     		ldr	r0, [r7, #4]
 3706 000a FFF7FEFF 		bl	otg_ram_reset
 3707              		.loc 6 1109 3
 3708 000e 7868     		ldr	r0, [r7, #4]
 3709 0010 FFF7FEFF 		bl	otg_disable_ep
 3710              		.loc 6 1110 1
 3711 0014 00BF     		nop
 3712 0016 0837     		adds	r7, r7, #8
 3713              		.cfi_def_cfa_offset 8
 3714 0018 BD46     		mov	sp, r7
 3715              		.cfi_def_cfa_register 13
 3716              		@ sp needed
 3717 001a 80BD     		pop	{r7, pc}
 3718              		.cfi_endproc
 3719              	.LFE455:
 3720              		.size	usb_lld_disable_endpoints, .-usb_lld_disable_endpoints
 3721              		.section	.text.usb_lld_get_status_out,"ax",%progbits
 3722              		.align	1
 3723              		.global	usb_lld_get_status_out
 3724              		.syntax unified
 3725              		.thumb
 3726              		.thumb_func
 3727              		.type	usb_lld_get_status_out, %function
 3728              	usb_lld_get_status_out:
 3729              	.LFB456:
 3730              		.loc 6 1124 67
 3731              		.cfi_startproc
 3732              		@ args = 0, pretend = 0, frame = 16
 3733              		@ frame_needed = 1, uses_anonymous_args = 0
 3734              		@ link register save eliminated.
 3735 0000 80B4     		push	{r7}
 3736              		.cfi_def_cfa_offset 4
 3737              		.cfi_offset 7, -4
 3738 0002 85B0     		sub	sp, sp, #20
 3739              		.cfi_def_cfa_offset 24
 3740 0004 00AF     		add	r7, sp, #0
 3741              		.cfi_def_cfa_register 7
 3742 0006 7860     		str	r0, [r7, #4]
 3743 0008 0B46     		mov	r3, r1
 3744 000a FB70     		strb	r3, [r7, #3]
 3745              		.loc 6 1129 13
 3746 000c 7B68     		ldr	r3, [r7, #4]
 3747 000e D3F89020 		ldr	r2, [r3, #144]
 3748              		.loc 6 1129 26
 3749 0012 FB78     		ldrb	r3, [r7, #3]	@ zero_extendqisi2
 3750              		.loc 6 1129 7
 3751 0014 5833     		adds	r3, r3, #88
 3752 0016 5B01     		lsls	r3, r3, #5
 3753 0018 1344     		add	r3, r3, r2
 3754 001a 1B68     		ldr	r3, [r3]
ARM GAS  C:\Users\DEVELO~1\AppData\Local\Temp\cc4r91NU.s 			page 67


 3755 001c FB60     		str	r3, [r7, #12]
 3756              		.loc 6 1130 13
 3757 001e FB68     		ldr	r3, [r7, #12]
 3758 0020 03F40043 		and	r3, r3, #32768
 3759              		.loc 6 1130 6
 3760 0024 002B     		cmp	r3, #0
 3761 0026 01D1     		bne	.L167
 3762              		.loc 6 1131 12
 3763 0028 0023     		movs	r3, #0
 3764 002a 07E0     		b	.L168
 3765              	.L167:
 3766              		.loc 6 1132 11
 3767 002c FB68     		ldr	r3, [r7, #12]
 3768 002e 03F40013 		and	r3, r3, #2097152
 3769              		.loc 6 1132 6
 3770 0032 002B     		cmp	r3, #0
 3771 0034 01D0     		beq	.L169
 3772              		.loc 6 1133 12
 3773 0036 0123     		movs	r3, #1
 3774 0038 00E0     		b	.L168
 3775              	.L169:
 3776              		.loc 6 1134 10
 3777 003a 0223     		movs	r3, #2
 3778              	.L168:
 3779              		.loc 6 1135 1
 3780 003c 1846     		mov	r0, r3
 3781 003e 1437     		adds	r7, r7, #20
 3782              		.cfi_def_cfa_offset 4
 3783 0040 BD46     		mov	sp, r7
 3784              		.cfi_def_cfa_register 13
 3785              		@ sp needed
 3786 0042 80BC     		pop	{r7}
 3787              		.cfi_restore 7
 3788              		.cfi_def_cfa_offset 0
 3789 0044 7047     		bx	lr
 3790              		.cfi_endproc
 3791              	.LFE456:
 3792              		.size	usb_lld_get_status_out, .-usb_lld_get_status_out
 3793              		.section	.text.usb_lld_get_status_in,"ax",%progbits
 3794              		.align	1
 3795              		.global	usb_lld_get_status_in
 3796              		.syntax unified
 3797              		.thumb
 3798              		.thumb_func
 3799              		.type	usb_lld_get_status_in, %function
 3800              	usb_lld_get_status_in:
 3801              	.LFB457:
 3802              		.loc 6 1149 66
 3803              		.cfi_startproc
 3804              		@ args = 0, pretend = 0, frame = 16
 3805              		@ frame_needed = 1, uses_anonymous_args = 0
 3806              		@ link register save eliminated.
 3807 0000 80B4     		push	{r7}
 3808              		.cfi_def_cfa_offset 4
 3809              		.cfi_offset 7, -4
 3810 0002 85B0     		sub	sp, sp, #20
 3811              		.cfi_def_cfa_offset 24
ARM GAS  C:\Users\DEVELO~1\AppData\Local\Temp\cc4r91NU.s 			page 68


 3812 0004 00AF     		add	r7, sp, #0
 3813              		.cfi_def_cfa_register 7
 3814 0006 7860     		str	r0, [r7, #4]
 3815 0008 0B46     		mov	r3, r1
 3816 000a FB70     		strb	r3, [r7, #3]
 3817              		.loc 6 1154 13
 3818 000c 7B68     		ldr	r3, [r7, #4]
 3819 000e D3F89020 		ldr	r2, [r3, #144]
 3820              		.loc 6 1154 26
 3821 0012 FB78     		ldrb	r3, [r7, #3]	@ zero_extendqisi2
 3822              		.loc 6 1154 7
 3823 0014 4833     		adds	r3, r3, #72
 3824 0016 5B01     		lsls	r3, r3, #5
 3825 0018 1344     		add	r3, r3, r2
 3826 001a 1B68     		ldr	r3, [r3]
 3827 001c FB60     		str	r3, [r7, #12]
 3828              		.loc 6 1155 13
 3829 001e FB68     		ldr	r3, [r7, #12]
 3830 0020 03F40043 		and	r3, r3, #32768
 3831              		.loc 6 1155 6
 3832 0024 002B     		cmp	r3, #0
 3833 0026 01D1     		bne	.L171
 3834              		.loc 6 1156 12
 3835 0028 0023     		movs	r3, #0
 3836 002a 07E0     		b	.L172
 3837              	.L171:
 3838              		.loc 6 1157 11
 3839 002c FB68     		ldr	r3, [r7, #12]
 3840 002e 03F40013 		and	r3, r3, #2097152
 3841              		.loc 6 1157 6
 3842 0032 002B     		cmp	r3, #0
 3843 0034 01D0     		beq	.L173
 3844              		.loc 6 1158 12
 3845 0036 0123     		movs	r3, #1
 3846 0038 00E0     		b	.L172
 3847              	.L173:
 3848              		.loc 6 1159 10
 3849 003a 0223     		movs	r3, #2
 3850              	.L172:
 3851              		.loc 6 1160 1
 3852 003c 1846     		mov	r0, r3
 3853 003e 1437     		adds	r7, r7, #20
 3854              		.cfi_def_cfa_offset 4
 3855 0040 BD46     		mov	sp, r7
 3856              		.cfi_def_cfa_register 13
 3857              		@ sp needed
 3858 0042 80BC     		pop	{r7}
 3859              		.cfi_restore 7
 3860              		.cfi_def_cfa_offset 0
 3861 0044 7047     		bx	lr
 3862              		.cfi_endproc
 3863              	.LFE457:
 3864              		.size	usb_lld_get_status_in, .-usb_lld_get_status_in
 3865              		.section	.text.usb_lld_read_setup,"ax",%progbits
 3866              		.align	1
 3867              		.global	usb_lld_read_setup
 3868              		.syntax unified
ARM GAS  C:\Users\DEVELO~1\AppData\Local\Temp\cc4r91NU.s 			page 69


 3869              		.thumb
 3870              		.thumb_func
 3871              		.type	usb_lld_read_setup, %function
 3872              	usb_lld_read_setup:
 3873              	.LFB458:
 3874              		.loc 6 1176 68
 3875              		.cfi_startproc
 3876              		@ args = 0, pretend = 0, frame = 16
 3877              		@ frame_needed = 1, uses_anonymous_args = 0
 3878 0000 80B5     		push	{r7, lr}
 3879              		.cfi_def_cfa_offset 8
 3880              		.cfi_offset 7, -8
 3881              		.cfi_offset 14, -4
 3882 0002 84B0     		sub	sp, sp, #16
 3883              		.cfi_def_cfa_offset 24
 3884 0004 00AF     		add	r7, sp, #0
 3885              		.cfi_def_cfa_register 7
 3886 0006 F860     		str	r0, [r7, #12]
 3887 0008 0B46     		mov	r3, r1
 3888 000a 7A60     		str	r2, [r7, #4]
 3889 000c FB72     		strb	r3, [r7, #11]
 3890              		.loc 6 1178 24
 3891 000e FB7A     		ldrb	r3, [r7, #11]	@ zero_extendqisi2
 3892 0010 FA68     		ldr	r2, [r7, #12]
 3893 0012 0233     		adds	r3, r3, #2
 3894 0014 9B00     		lsls	r3, r3, #2
 3895 0016 1344     		add	r3, r3, r2
 3896 0018 5B68     		ldr	r3, [r3, #4]
 3897              		.loc 6 1178 28
 3898 001a 1B6A     		ldr	r3, [r3, #32]
 3899              		.loc 6 1178 3
 3900 001c 0822     		movs	r2, #8
 3901 001e 1946     		mov	r1, r3
 3902 0020 7868     		ldr	r0, [r7, #4]
 3903 0022 FFF7FEFF 		bl	memcpy
 3904              		.loc 6 1179 1
 3905 0026 00BF     		nop
 3906 0028 1037     		adds	r7, r7, #16
 3907              		.cfi_def_cfa_offset 8
 3908 002a BD46     		mov	sp, r7
 3909              		.cfi_def_cfa_register 13
 3910              		@ sp needed
 3911 002c 80BD     		pop	{r7, pc}
 3912              		.cfi_endproc
 3913              	.LFE458:
 3914              		.size	usb_lld_read_setup, .-usb_lld_read_setup
 3915              		.section	.text.usb_lld_start_out,"ax",%progbits
 3916              		.align	1
 3917              		.global	usb_lld_start_out
 3918              		.syntax unified
 3919              		.thumb
 3920              		.thumb_func
 3921              		.type	usb_lld_start_out, %function
 3922              	usb_lld_start_out:
 3923              	.LFB459:
 3924              		.loc 6 1189 53
 3925              		.cfi_startproc
ARM GAS  C:\Users\DEVELO~1\AppData\Local\Temp\cc4r91NU.s 			page 70


 3926              		@ args = 0, pretend = 0, frame = 24
 3927              		@ frame_needed = 1, uses_anonymous_args = 0
 3928              		@ link register save eliminated.
 3929 0000 80B4     		push	{r7}
 3930              		.cfi_def_cfa_offset 4
 3931              		.cfi_offset 7, -4
 3932 0002 87B0     		sub	sp, sp, #28
 3933              		.cfi_def_cfa_offset 32
 3934 0004 00AF     		add	r7, sp, #0
 3935              		.cfi_def_cfa_register 7
 3936 0006 7860     		str	r0, [r7, #4]
 3937 0008 0B46     		mov	r3, r1
 3938 000a FB70     		strb	r3, [r7, #3]
 3939              		.loc 6 1191 39
 3940 000c FB78     		ldrb	r3, [r7, #3]	@ zero_extendqisi2
 3941 000e 7A68     		ldr	r2, [r7, #4]
 3942 0010 0233     		adds	r3, r3, #2
 3943 0012 9B00     		lsls	r3, r3, #2
 3944 0014 1344     		add	r3, r3, r2
 3945 0016 5B68     		ldr	r3, [r3, #4]
 3946              		.loc 6 1191 24
 3947 0018 9B69     		ldr	r3, [r3, #24]
 3948 001a 7B61     		str	r3, [r7, #20]
 3949              		.loc 6 1194 21
 3950 001c 7B69     		ldr	r3, [r7, #20]
 3951 001e 1A68     		ldr	r2, [r3]
 3952              		.loc 6 1194 16
 3953 0020 7B69     		ldr	r3, [r7, #20]
 3954 0022 DA60     		str	r2, [r3, #12]
 3955              		.loc 6 1195 6
 3956 0024 FB78     		ldrb	r3, [r7, #3]	@ zero_extendqisi2
 3957 0026 002B     		cmp	r3, #0
 3958 0028 06D1     		bne	.L176
 3959              		.loc 6 1195 24 discriminator 1
 3960 002a 7B69     		ldr	r3, [r7, #20]
 3961 002c 1B68     		ldr	r3, [r3]
 3962              		.loc 6 1195 17 discriminator 1
 3963 002e 402B     		cmp	r3, #64
 3964 0030 02D9     		bls	.L176
 3965              		.loc 6 1196 17
 3966 0032 7B69     		ldr	r3, [r7, #20]
 3967 0034 4022     		movs	r2, #64
 3968 0036 1A60     		str	r2, [r3]
 3969              	.L176:
 3970              		.loc 6 1203 16
 3971 0038 7B69     		ldr	r3, [r7, #20]
 3972 003a 1A68     		ldr	r2, [r3]
 3973              		.loc 6 1203 36
 3974 003c FB78     		ldrb	r3, [r7, #3]	@ zero_extendqisi2
 3975 003e 7968     		ldr	r1, [r7, #4]
 3976 0040 0233     		adds	r3, r3, #2
 3977 0042 9B00     		lsls	r3, r3, #2
 3978 0044 0B44     		add	r3, r3, r1
 3979 0046 5B68     		ldr	r3, [r3, #4]
 3980              		.loc 6 1203 40
 3981 0048 5B8A     		ldrh	r3, [r3, #18]
 3982              		.loc 6 1203 25
ARM GAS  C:\Users\DEVELO~1\AppData\Local\Temp\cc4r91NU.s 			page 71


 3983 004a 1344     		add	r3, r3, r2
 3984              		.loc 6 1203 54
 3985 004c 5A1E     		subs	r2, r3, #1
 3986              		.loc 6 1204 21
 3987 004e FB78     		ldrb	r3, [r7, #3]	@ zero_extendqisi2
 3988 0050 7968     		ldr	r1, [r7, #4]
 3989 0052 0233     		adds	r3, r3, #2
 3990 0054 9B00     		lsls	r3, r3, #2
 3991 0056 0B44     		add	r3, r3, r1
 3992 0058 5B68     		ldr	r3, [r3, #4]
 3993              		.loc 6 1204 25
 3994 005a 5B8A     		ldrh	r3, [r3, #18]
 3995              		.loc 6 1203 10
 3996 005c B2FBF3F3 		udiv	r3, r2, r3
 3997 0060 3B61     		str	r3, [r7, #16]
 3998              		.loc 6 1205 29
 3999 0062 FB78     		ldrb	r3, [r7, #3]	@ zero_extendqisi2
 4000 0064 7A68     		ldr	r2, [r7, #4]
 4001 0066 0233     		adds	r3, r3, #2
 4002 0068 9B00     		lsls	r3, r3, #2
 4003 006a 1344     		add	r3, r3, r2
 4004 006c 5B68     		ldr	r3, [r3, #4]
 4005              		.loc 6 1205 33
 4006 006e 5B8A     		ldrh	r3, [r3, #18]
 4007 0070 1A46     		mov	r2, r3
 4008              		.loc 6 1205 18
 4009 0072 3B69     		ldr	r3, [r7, #16]
 4010 0074 02FB03F3 		mul	r3, r2, r3
 4011              		.loc 6 1205 47
 4012 0078 0333     		adds	r3, r3, #3
 4013              		.loc 6 1205 10
 4014 007a 23F00303 		bic	r3, r3, #3
 4015 007e FB60     		str	r3, [r7, #12]
 4016              		.loc 6 1208 54
 4017 0080 3B69     		ldr	r3, [r7, #16]
 4018 0082 DA04     		lsls	r2, r3, #19
 4019              		.loc 6 1208 76
 4020 0084 FB68     		ldr	r3, [r7, #12]
 4021 0086 1A43     		orrs	r2, r2, r3
 4022              		.loc 6 1208 7
 4023 0088 7B68     		ldr	r3, [r7, #4]
 4024 008a D3F89010 		ldr	r1, [r3, #144]
 4025              		.loc 6 1208 20
 4026 008e FB78     		ldrb	r3, [r7, #3]	@ zero_extendqisi2
 4027              		.loc 6 1208 76
 4028 0090 42F0C042 		orr	r2, r2, #1610612736
 4029              		.loc 6 1208 30
 4030 0094 5B01     		lsls	r3, r3, #5
 4031 0096 0B44     		add	r3, r3, r1
 4032 0098 03F53163 		add	r3, r3, #2832
 4033 009c 1A60     		str	r2, [r3]
 4034              		.loc 6 1212 17
 4035 009e FB78     		ldrb	r3, [r7, #3]	@ zero_extendqisi2
 4036 00a0 7A68     		ldr	r2, [r7, #4]
 4037 00a2 0233     		adds	r3, r3, #2
 4038 00a4 9B00     		lsls	r3, r3, #2
 4039 00a6 1344     		add	r3, r3, r2
ARM GAS  C:\Users\DEVELO~1\AppData\Local\Temp\cc4r91NU.s 			page 72


 4040 00a8 5B68     		ldr	r3, [r3, #4]
 4041              		.loc 6 1212 21
 4042 00aa 1B68     		ldr	r3, [r3]
 4043              		.loc 6 1212 31
 4044 00ac 03F00303 		and	r3, r3, #3
 4045              		.loc 6 1212 6
 4046 00b0 012B     		cmp	r3, #1
 4047 00b2 2DD1     		bne	.L177
 4048              		.loc 6 1214 13
 4049 00b4 7B68     		ldr	r3, [r7, #4]
 4050 00b6 D3F89030 		ldr	r3, [r3, #144]
 4051              		.loc 6 1214 18
 4052 00ba D3F80838 		ldr	r3, [r3, #2056]
 4053              		.loc 6 1214 25
 4054 00be 03F48073 		and	r3, r3, #256
 4055              		.loc 6 1214 8
 4056 00c2 002B     		cmp	r3, #0
 4057 00c4 12D0     		beq	.L178
 4058              		.loc 6 1215 11
 4059 00c6 7B68     		ldr	r3, [r7, #4]
 4060 00c8 D3F89020 		ldr	r2, [r3, #144]
 4061              		.loc 6 1215 33
 4062 00cc FB78     		ldrb	r3, [r7, #3]	@ zero_extendqisi2
 4063 00ce 5833     		adds	r3, r3, #88
 4064 00d0 5B01     		lsls	r3, r3, #5
 4065 00d2 1344     		add	r3, r3, r2
 4066 00d4 1A68     		ldr	r2, [r3]
 4067              		.loc 6 1215 11
 4068 00d6 7B68     		ldr	r3, [r7, #4]
 4069 00d8 D3F89010 		ldr	r1, [r3, #144]
 4070              		.loc 6 1215 33
 4071 00dc FB78     		ldrb	r3, [r7, #3]	@ zero_extendqisi2
 4072 00de 42F08052 		orr	r2, r2, #268435456
 4073 00e2 5833     		adds	r3, r3, #88
 4074 00e4 5B01     		lsls	r3, r3, #5
 4075 00e6 0B44     		add	r3, r3, r1
 4076 00e8 1A60     		str	r2, [r3]
 4077 00ea 11E0     		b	.L177
 4078              	.L178:
 4079              		.loc 6 1217 11
 4080 00ec 7B68     		ldr	r3, [r7, #4]
 4081 00ee D3F89020 		ldr	r2, [r3, #144]
 4082              		.loc 6 1217 33
 4083 00f2 FB78     		ldrb	r3, [r7, #3]	@ zero_extendqisi2
 4084 00f4 5833     		adds	r3, r3, #88
 4085 00f6 5B01     		lsls	r3, r3, #5
 4086 00f8 1344     		add	r3, r3, r2
 4087 00fa 1A68     		ldr	r2, [r3]
 4088              		.loc 6 1217 11
 4089 00fc 7B68     		ldr	r3, [r7, #4]
 4090 00fe D3F89010 		ldr	r1, [r3, #144]
 4091              		.loc 6 1217 33
 4092 0102 FB78     		ldrb	r3, [r7, #3]	@ zero_extendqisi2
 4093 0104 42F00052 		orr	r2, r2, #536870912
 4094 0108 5833     		adds	r3, r3, #88
 4095 010a 5B01     		lsls	r3, r3, #5
 4096 010c 0B44     		add	r3, r3, r1
ARM GAS  C:\Users\DEVELO~1\AppData\Local\Temp\cc4r91NU.s 			page 73


 4097 010e 1A60     		str	r2, [r3]
 4098              	.L177:
 4099              		.loc 6 1221 7
 4100 0110 7B68     		ldr	r3, [r7, #4]
 4101 0112 D3F89020 		ldr	r2, [r3, #144]
 4102              		.loc 6 1221 29
 4103 0116 FB78     		ldrb	r3, [r7, #3]	@ zero_extendqisi2
 4104 0118 5833     		adds	r3, r3, #88
 4105 011a 5B01     		lsls	r3, r3, #5
 4106 011c 1344     		add	r3, r3, r2
 4107 011e 1A68     		ldr	r2, [r3]
 4108              		.loc 6 1221 7
 4109 0120 7B68     		ldr	r3, [r7, #4]
 4110 0122 D3F89010 		ldr	r1, [r3, #144]
 4111              		.loc 6 1221 29
 4112 0126 FB78     		ldrb	r3, [r7, #3]	@ zero_extendqisi2
 4113 0128 42F00442 		orr	r2, r2, #-2080374784
 4114 012c 5833     		adds	r3, r3, #88
 4115 012e 5B01     		lsls	r3, r3, #5
 4116 0130 0B44     		add	r3, r3, r1
 4117 0132 1A60     		str	r2, [r3]
 4118              		.loc 6 1222 1
 4119 0134 00BF     		nop
 4120 0136 1C37     		adds	r7, r7, #28
 4121              		.cfi_def_cfa_offset 4
 4122 0138 BD46     		mov	sp, r7
 4123              		.cfi_def_cfa_register 13
 4124              		@ sp needed
 4125 013a 80BC     		pop	{r7}
 4126              		.cfi_restore 7
 4127              		.cfi_def_cfa_offset 0
 4128 013c 7047     		bx	lr
 4129              		.cfi_endproc
 4130              	.LFE459:
 4131              		.size	usb_lld_start_out, .-usb_lld_start_out
 4132              		.section	.text.usb_lld_start_in,"ax",%progbits
 4133              		.align	1
 4134              		.global	usb_lld_start_in
 4135              		.syntax unified
 4136              		.thumb
 4137              		.thumb_func
 4138              		.type	usb_lld_start_in, %function
 4139              	usb_lld_start_in:
 4140              	.LFB460:
 4141              		.loc 6 1232 52
 4142              		.cfi_startproc
 4143              		@ args = 0, pretend = 0, frame = 16
 4144              		@ frame_needed = 1, uses_anonymous_args = 0
 4145              		@ link register save eliminated.
 4146 0000 80B4     		push	{r7}
 4147              		.cfi_def_cfa_offset 4
 4148              		.cfi_offset 7, -4
 4149 0002 85B0     		sub	sp, sp, #20
 4150              		.cfi_def_cfa_offset 24
 4151 0004 00AF     		add	r7, sp, #0
 4152              		.cfi_def_cfa_register 7
 4153 0006 7860     		str	r0, [r7, #4]
ARM GAS  C:\Users\DEVELO~1\AppData\Local\Temp\cc4r91NU.s 			page 74


 4154 0008 0B46     		mov	r3, r1
 4155 000a FB70     		strb	r3, [r7, #3]
 4156              		.loc 6 1233 38
 4157 000c FB78     		ldrb	r3, [r7, #3]	@ zero_extendqisi2
 4158 000e 7A68     		ldr	r2, [r7, #4]
 4159 0010 0233     		adds	r3, r3, #2
 4160 0012 9B00     		lsls	r3, r3, #2
 4161 0014 1344     		add	r3, r3, r2
 4162 0016 5B68     		ldr	r3, [r3, #4]
 4163              		.loc 6 1233 23
 4164 0018 5B69     		ldr	r3, [r3, #20]
 4165 001a FB60     		str	r3, [r7, #12]
 4166              		.loc 6 1236 21
 4167 001c FB68     		ldr	r3, [r7, #12]
 4168 001e 1A68     		ldr	r2, [r3]
 4169              		.loc 6 1236 16
 4170 0020 FB68     		ldr	r3, [r7, #12]
 4171 0022 DA60     		str	r2, [r3, #12]
 4172              		.loc 6 1237 10
 4173 0024 FB68     		ldr	r3, [r7, #12]
 4174 0026 1B68     		ldr	r3, [r3]
 4175              		.loc 6 1237 6
 4176 0028 002B     		cmp	r3, #0
 4177 002a 0BD1     		bne	.L180
 4178              		.loc 6 1239 9
 4179 002c 7B68     		ldr	r3, [r7, #4]
 4180 002e D3F89020 		ldr	r2, [r3, #144]
 4181              		.loc 6 1239 22
 4182 0032 FB78     		ldrb	r3, [r7, #3]	@ zero_extendqisi2
 4183              		.loc 6 1239 32
 4184 0034 5B01     		lsls	r3, r3, #5
 4185 0036 1344     		add	r3, r3, r2
 4186 0038 03F51163 		add	r3, r3, #2320
 4187 003c 4FF40022 		mov	r2, #524288
 4188 0040 1A60     		str	r2, [r3]
 4189 0042 2EE0     		b	.L181
 4190              	.L180:
 4191              	.LBB41:
 4192              		.loc 6 1242 8
 4193 0044 FB78     		ldrb	r3, [r7, #3]	@ zero_extendqisi2
 4194 0046 002B     		cmp	r3, #0
 4195 0048 06D1     		bne	.L182
 4196              		.loc 6 1242 26 discriminator 1
 4197 004a FB68     		ldr	r3, [r7, #12]
 4198 004c 1B68     		ldr	r3, [r3]
 4199              		.loc 6 1242 19 discriminator 1
 4200 004e 402B     		cmp	r3, #64
 4201 0050 02D9     		bls	.L182
 4202              		.loc 6 1243 19
 4203 0052 FB68     		ldr	r3, [r7, #12]
 4204 0054 4022     		movs	r2, #64
 4205 0056 1A60     		str	r2, [r3]
 4206              	.L182:
 4207              		.loc 6 1246 25
 4208 0058 FB68     		ldr	r3, [r7, #12]
 4209 005a 1A68     		ldr	r2, [r3]
 4210              		.loc 6 1246 45
ARM GAS  C:\Users\DEVELO~1\AppData\Local\Temp\cc4r91NU.s 			page 75


 4211 005c FB78     		ldrb	r3, [r7, #3]	@ zero_extendqisi2
 4212 005e 7968     		ldr	r1, [r7, #4]
 4213 0060 0233     		adds	r3, r3, #2
 4214 0062 9B00     		lsls	r3, r3, #2
 4215 0064 0B44     		add	r3, r3, r1
 4216 0066 5B68     		ldr	r3, [r3, #4]
 4217              		.loc 6 1246 49
 4218 0068 1B8A     		ldrh	r3, [r3, #16]
 4219              		.loc 6 1246 34
 4220 006a 1344     		add	r3, r3, r2
 4221              		.loc 6 1246 62
 4222 006c 5A1E     		subs	r2, r3, #1
 4223              		.loc 6 1247 30
 4224 006e FB78     		ldrb	r3, [r7, #3]	@ zero_extendqisi2
 4225 0070 7968     		ldr	r1, [r7, #4]
 4226 0072 0233     		adds	r3, r3, #2
 4227 0074 9B00     		lsls	r3, r3, #2
 4228 0076 0B44     		add	r3, r3, r1
 4229 0078 5B68     		ldr	r3, [r3, #4]
 4230              		.loc 6 1247 34
 4231 007a 1B8A     		ldrh	r3, [r3, #16]
 4232              		.loc 6 1246 14
 4233 007c B2FBF3F3 		udiv	r3, r2, r3
 4234 0080 BB60     		str	r3, [r7, #8]
 4235              		.loc 6 1249 53
 4236 0082 BB68     		ldr	r3, [r7, #8]
 4237 0084 DA04     		lsls	r2, r3, #19
 4238              		.loc 6 1250 34
 4239 0086 FB68     		ldr	r3, [r7, #12]
 4240 0088 1B68     		ldr	r3, [r3]
 4241              		.loc 6 1249 75
 4242 008a 1A43     		orrs	r2, r2, r3
 4243              		.loc 6 1249 9
 4244 008c 7B68     		ldr	r3, [r7, #4]
 4245 008e D3F89010 		ldr	r1, [r3, #144]
 4246              		.loc 6 1249 22
 4247 0092 FB78     		ldrb	r3, [r7, #3]	@ zero_extendqisi2
 4248              		.loc 6 1249 75
 4249 0094 42F00052 		orr	r2, r2, #536870912
 4250              		.loc 6 1249 32
 4251 0098 5B01     		lsls	r3, r3, #5
 4252 009a 0B44     		add	r3, r3, r1
 4253 009c 03F51163 		add	r3, r3, #2320
 4254 00a0 1A60     		str	r2, [r3]
 4255              	.L181:
 4256              	.LBE41:
 4257              		.loc 6 1254 17
 4258 00a2 FB78     		ldrb	r3, [r7, #3]	@ zero_extendqisi2
 4259 00a4 7A68     		ldr	r2, [r7, #4]
 4260 00a6 0233     		adds	r3, r3, #2
 4261 00a8 9B00     		lsls	r3, r3, #2
 4262 00aa 1344     		add	r3, r3, r2
 4263 00ac 5B68     		ldr	r3, [r3, #4]
 4264              		.loc 6 1254 21
 4265 00ae 1B68     		ldr	r3, [r3]
 4266              		.loc 6 1254 31
 4267 00b0 03F00303 		and	r3, r3, #3
ARM GAS  C:\Users\DEVELO~1\AppData\Local\Temp\cc4r91NU.s 			page 76


 4268              		.loc 6 1254 6
 4269 00b4 012B     		cmp	r3, #1
 4270 00b6 2DD1     		bne	.L183
 4271              		.loc 6 1256 13
 4272 00b8 7B68     		ldr	r3, [r7, #4]
 4273 00ba D3F89030 		ldr	r3, [r3, #144]
 4274              		.loc 6 1256 18
 4275 00be D3F80838 		ldr	r3, [r3, #2056]
 4276              		.loc 6 1256 25
 4277 00c2 03F48073 		and	r3, r3, #256
 4278              		.loc 6 1256 8
 4279 00c6 002B     		cmp	r3, #0
 4280 00c8 12D0     		beq	.L184
 4281              		.loc 6 1257 11
 4282 00ca 7B68     		ldr	r3, [r7, #4]
 4283 00cc D3F89020 		ldr	r2, [r3, #144]
 4284              		.loc 6 1257 33
 4285 00d0 FB78     		ldrb	r3, [r7, #3]	@ zero_extendqisi2
 4286 00d2 4833     		adds	r3, r3, #72
 4287 00d4 5B01     		lsls	r3, r3, #5
 4288 00d6 1344     		add	r3, r3, r2
 4289 00d8 1A68     		ldr	r2, [r3]
 4290              		.loc 6 1257 11
 4291 00da 7B68     		ldr	r3, [r7, #4]
 4292 00dc D3F89010 		ldr	r1, [r3, #144]
 4293              		.loc 6 1257 33
 4294 00e0 FB78     		ldrb	r3, [r7, #3]	@ zero_extendqisi2
 4295 00e2 42F08052 		orr	r2, r2, #268435456
 4296 00e6 4833     		adds	r3, r3, #72
 4297 00e8 5B01     		lsls	r3, r3, #5
 4298 00ea 0B44     		add	r3, r3, r1
 4299 00ec 1A60     		str	r2, [r3]
 4300 00ee 11E0     		b	.L183
 4301              	.L184:
 4302              		.loc 6 1259 11
 4303 00f0 7B68     		ldr	r3, [r7, #4]
 4304 00f2 D3F89020 		ldr	r2, [r3, #144]
 4305              		.loc 6 1259 33
 4306 00f6 FB78     		ldrb	r3, [r7, #3]	@ zero_extendqisi2
 4307 00f8 4833     		adds	r3, r3, #72
 4308 00fa 5B01     		lsls	r3, r3, #5
 4309 00fc 1344     		add	r3, r3, r2
 4310 00fe 1A68     		ldr	r2, [r3]
 4311              		.loc 6 1259 11
 4312 0100 7B68     		ldr	r3, [r7, #4]
 4313 0102 D3F89010 		ldr	r1, [r3, #144]
 4314              		.loc 6 1259 33
 4315 0106 FB78     		ldrb	r3, [r7, #3]	@ zero_extendqisi2
 4316 0108 42F00052 		orr	r2, r2, #536870912
 4317 010c 4833     		adds	r3, r3, #72
 4318 010e 5B01     		lsls	r3, r3, #5
 4319 0110 0B44     		add	r3, r3, r1
 4320 0112 1A60     		str	r2, [r3]
 4321              	.L183:
 4322              		.loc 6 1263 7
 4323 0114 7B68     		ldr	r3, [r7, #4]
 4324 0116 D3F89020 		ldr	r2, [r3, #144]
ARM GAS  C:\Users\DEVELO~1\AppData\Local\Temp\cc4r91NU.s 			page 77


 4325              		.loc 6 1263 29
 4326 011a FB78     		ldrb	r3, [r7, #3]	@ zero_extendqisi2
 4327 011c 4833     		adds	r3, r3, #72
 4328 011e 5B01     		lsls	r3, r3, #5
 4329 0120 1344     		add	r3, r3, r2
 4330 0122 1A68     		ldr	r2, [r3]
 4331              		.loc 6 1263 7
 4332 0124 7B68     		ldr	r3, [r7, #4]
 4333 0126 D3F89010 		ldr	r1, [r3, #144]
 4334              		.loc 6 1263 29
 4335 012a FB78     		ldrb	r3, [r7, #3]	@ zero_extendqisi2
 4336 012c 42F00442 		orr	r2, r2, #-2080374784
 4337 0130 4833     		adds	r3, r3, #72
 4338 0132 5B01     		lsls	r3, r3, #5
 4339 0134 0B44     		add	r3, r3, r1
 4340 0136 1A60     		str	r2, [r3]
 4341              		.loc 6 1264 7
 4342 0138 7B68     		ldr	r3, [r7, #4]
 4343 013a D3F89030 		ldr	r3, [r3, #144]
 4344              		.loc 6 1264 25
 4345 013e D3F83418 		ldr	r1, [r3, #2100]
 4346              		.loc 6 1264 28
 4347 0142 FB78     		ldrb	r3, [r7, #3]	@ zero_extendqisi2
 4348 0144 0122     		movs	r2, #1
 4349 0146 9A40     		lsls	r2, r2, r3
 4350              		.loc 6 1264 7
 4351 0148 7B68     		ldr	r3, [r7, #4]
 4352 014a D3F89030 		ldr	r3, [r3, #144]
 4353              		.loc 6 1264 25
 4354 014e 0A43     		orrs	r2, r2, r1
 4355 0150 C3F83428 		str	r2, [r3, #2100]
 4356              		.loc 6 1265 1
 4357 0154 00BF     		nop
 4358 0156 1437     		adds	r7, r7, #20
 4359              		.cfi_def_cfa_offset 4
 4360 0158 BD46     		mov	sp, r7
 4361              		.cfi_def_cfa_register 13
 4362              		@ sp needed
 4363 015a 80BC     		pop	{r7}
 4364              		.cfi_restore 7
 4365              		.cfi_def_cfa_offset 0
 4366 015c 7047     		bx	lr
 4367              		.cfi_endproc
 4368              	.LFE460:
 4369              		.size	usb_lld_start_in, .-usb_lld_start_in
 4370              		.section	.text.usb_lld_stall_out,"ax",%progbits
 4371              		.align	1
 4372              		.global	usb_lld_stall_out
 4373              		.syntax unified
 4374              		.thumb
 4375              		.thumb_func
 4376              		.type	usb_lld_stall_out, %function
 4377              	usb_lld_stall_out:
 4378              	.LFB461:
 4379              		.loc 6 1275 53
 4380              		.cfi_startproc
 4381              		@ args = 0, pretend = 0, frame = 8
ARM GAS  C:\Users\DEVELO~1\AppData\Local\Temp\cc4r91NU.s 			page 78


 4382              		@ frame_needed = 1, uses_anonymous_args = 0
 4383              		@ link register save eliminated.
 4384 0000 80B4     		push	{r7}
 4385              		.cfi_def_cfa_offset 4
 4386              		.cfi_offset 7, -4
 4387 0002 83B0     		sub	sp, sp, #12
 4388              		.cfi_def_cfa_offset 16
 4389 0004 00AF     		add	r7, sp, #0
 4390              		.cfi_def_cfa_register 7
 4391 0006 7860     		str	r0, [r7, #4]
 4392 0008 0B46     		mov	r3, r1
 4393 000a FB70     		strb	r3, [r7, #3]
 4394              		.loc 6 1277 7
 4395 000c 7B68     		ldr	r3, [r7, #4]
 4396 000e D3F89020 		ldr	r2, [r3, #144]
 4397              		.loc 6 1277 29
 4398 0012 FB78     		ldrb	r3, [r7, #3]	@ zero_extendqisi2
 4399 0014 5833     		adds	r3, r3, #88
 4400 0016 5B01     		lsls	r3, r3, #5
 4401 0018 1344     		add	r3, r3, r2
 4402 001a 1A68     		ldr	r2, [r3]
 4403              		.loc 6 1277 7
 4404 001c 7B68     		ldr	r3, [r7, #4]
 4405 001e D3F89010 		ldr	r1, [r3, #144]
 4406              		.loc 6 1277 29
 4407 0022 FB78     		ldrb	r3, [r7, #3]	@ zero_extendqisi2
 4408 0024 42F40012 		orr	r2, r2, #2097152
 4409 0028 5833     		adds	r3, r3, #88
 4410 002a 5B01     		lsls	r3, r3, #5
 4411 002c 0B44     		add	r3, r3, r1
 4412 002e 1A60     		str	r2, [r3]
 4413              		.loc 6 1278 1
 4414 0030 00BF     		nop
 4415 0032 0C37     		adds	r7, r7, #12
 4416              		.cfi_def_cfa_offset 4
 4417 0034 BD46     		mov	sp, r7
 4418              		.cfi_def_cfa_register 13
 4419              		@ sp needed
 4420 0036 80BC     		pop	{r7}
 4421              		.cfi_restore 7
 4422              		.cfi_def_cfa_offset 0
 4423 0038 7047     		bx	lr
 4424              		.cfi_endproc
 4425              	.LFE461:
 4426              		.size	usb_lld_stall_out, .-usb_lld_stall_out
 4427              		.section	.text.usb_lld_stall_in,"ax",%progbits
 4428              		.align	1
 4429              		.global	usb_lld_stall_in
 4430              		.syntax unified
 4431              		.thumb
 4432              		.thumb_func
 4433              		.type	usb_lld_stall_in, %function
 4434              	usb_lld_stall_in:
 4435              	.LFB462:
 4436              		.loc 6 1288 52
 4437              		.cfi_startproc
 4438              		@ args = 0, pretend = 0, frame = 8
ARM GAS  C:\Users\DEVELO~1\AppData\Local\Temp\cc4r91NU.s 			page 79


 4439              		@ frame_needed = 1, uses_anonymous_args = 0
 4440              		@ link register save eliminated.
 4441 0000 80B4     		push	{r7}
 4442              		.cfi_def_cfa_offset 4
 4443              		.cfi_offset 7, -4
 4444 0002 83B0     		sub	sp, sp, #12
 4445              		.cfi_def_cfa_offset 16
 4446 0004 00AF     		add	r7, sp, #0
 4447              		.cfi_def_cfa_register 7
 4448 0006 7860     		str	r0, [r7, #4]
 4449 0008 0B46     		mov	r3, r1
 4450 000a FB70     		strb	r3, [r7, #3]
 4451              		.loc 6 1290 7
 4452 000c 7B68     		ldr	r3, [r7, #4]
 4453 000e D3F89020 		ldr	r2, [r3, #144]
 4454              		.loc 6 1290 29
 4455 0012 FB78     		ldrb	r3, [r7, #3]	@ zero_extendqisi2
 4456 0014 4833     		adds	r3, r3, #72
 4457 0016 5B01     		lsls	r3, r3, #5
 4458 0018 1344     		add	r3, r3, r2
 4459 001a 1A68     		ldr	r2, [r3]
 4460              		.loc 6 1290 7
 4461 001c 7B68     		ldr	r3, [r7, #4]
 4462 001e D3F89010 		ldr	r1, [r3, #144]
 4463              		.loc 6 1290 29
 4464 0022 FB78     		ldrb	r3, [r7, #3]	@ zero_extendqisi2
 4465 0024 42F40012 		orr	r2, r2, #2097152
 4466 0028 4833     		adds	r3, r3, #72
 4467 002a 5B01     		lsls	r3, r3, #5
 4468 002c 0B44     		add	r3, r3, r1
 4469 002e 1A60     		str	r2, [r3]
 4470              		.loc 6 1291 1
 4471 0030 00BF     		nop
 4472 0032 0C37     		adds	r7, r7, #12
 4473              		.cfi_def_cfa_offset 4
 4474 0034 BD46     		mov	sp, r7
 4475              		.cfi_def_cfa_register 13
 4476              		@ sp needed
 4477 0036 80BC     		pop	{r7}
 4478              		.cfi_restore 7
 4479              		.cfi_def_cfa_offset 0
 4480 0038 7047     		bx	lr
 4481              		.cfi_endproc
 4482              	.LFE462:
 4483              		.size	usb_lld_stall_in, .-usb_lld_stall_in
 4484              		.section	.text.usb_lld_clear_out,"ax",%progbits
 4485              		.align	1
 4486              		.global	usb_lld_clear_out
 4487              		.syntax unified
 4488              		.thumb
 4489              		.thumb_func
 4490              		.type	usb_lld_clear_out, %function
 4491              	usb_lld_clear_out:
 4492              	.LFB463:
 4493              		.loc 6 1301 53
 4494              		.cfi_startproc
 4495              		@ args = 0, pretend = 0, frame = 8
ARM GAS  C:\Users\DEVELO~1\AppData\Local\Temp\cc4r91NU.s 			page 80


 4496              		@ frame_needed = 1, uses_anonymous_args = 0
 4497              		@ link register save eliminated.
 4498 0000 80B4     		push	{r7}
 4499              		.cfi_def_cfa_offset 4
 4500              		.cfi_offset 7, -4
 4501 0002 83B0     		sub	sp, sp, #12
 4502              		.cfi_def_cfa_offset 16
 4503 0004 00AF     		add	r7, sp, #0
 4504              		.cfi_def_cfa_register 7
 4505 0006 7860     		str	r0, [r7, #4]
 4506 0008 0B46     		mov	r3, r1
 4507 000a FB70     		strb	r3, [r7, #3]
 4508              		.loc 6 1303 7
 4509 000c 7B68     		ldr	r3, [r7, #4]
 4510 000e D3F89020 		ldr	r2, [r3, #144]
 4511              		.loc 6 1303 29
 4512 0012 FB78     		ldrb	r3, [r7, #3]	@ zero_extendqisi2
 4513 0014 5833     		adds	r3, r3, #88
 4514 0016 5B01     		lsls	r3, r3, #5
 4515 0018 1344     		add	r3, r3, r2
 4516 001a 1A68     		ldr	r2, [r3]
 4517              		.loc 6 1303 7
 4518 001c 7B68     		ldr	r3, [r7, #4]
 4519 001e D3F89010 		ldr	r1, [r3, #144]
 4520              		.loc 6 1303 29
 4521 0022 FB78     		ldrb	r3, [r7, #3]	@ zero_extendqisi2
 4522 0024 22F40012 		bic	r2, r2, #2097152
 4523 0028 5833     		adds	r3, r3, #88
 4524 002a 5B01     		lsls	r3, r3, #5
 4525 002c 0B44     		add	r3, r3, r1
 4526 002e 1A60     		str	r2, [r3]
 4527              		.loc 6 1304 1
 4528 0030 00BF     		nop
 4529 0032 0C37     		adds	r7, r7, #12
 4530              		.cfi_def_cfa_offset 4
 4531 0034 BD46     		mov	sp, r7
 4532              		.cfi_def_cfa_register 13
 4533              		@ sp needed
 4534 0036 80BC     		pop	{r7}
 4535              		.cfi_restore 7
 4536              		.cfi_def_cfa_offset 0
 4537 0038 7047     		bx	lr
 4538              		.cfi_endproc
 4539              	.LFE463:
 4540              		.size	usb_lld_clear_out, .-usb_lld_clear_out
 4541              		.section	.text.usb_lld_clear_in,"ax",%progbits
 4542              		.align	1
 4543              		.global	usb_lld_clear_in
 4544              		.syntax unified
 4545              		.thumb
 4546              		.thumb_func
 4547              		.type	usb_lld_clear_in, %function
 4548              	usb_lld_clear_in:
 4549              	.LFB464:
 4550              		.loc 6 1314 52
 4551              		.cfi_startproc
 4552              		@ args = 0, pretend = 0, frame = 8
ARM GAS  C:\Users\DEVELO~1\AppData\Local\Temp\cc4r91NU.s 			page 81


 4553              		@ frame_needed = 1, uses_anonymous_args = 0
 4554              		@ link register save eliminated.
 4555 0000 80B4     		push	{r7}
 4556              		.cfi_def_cfa_offset 4
 4557              		.cfi_offset 7, -4
 4558 0002 83B0     		sub	sp, sp, #12
 4559              		.cfi_def_cfa_offset 16
 4560 0004 00AF     		add	r7, sp, #0
 4561              		.cfi_def_cfa_register 7
 4562 0006 7860     		str	r0, [r7, #4]
 4563 0008 0B46     		mov	r3, r1
 4564 000a FB70     		strb	r3, [r7, #3]
 4565              		.loc 6 1316 7
 4566 000c 7B68     		ldr	r3, [r7, #4]
 4567 000e D3F89020 		ldr	r2, [r3, #144]
 4568              		.loc 6 1316 29
 4569 0012 FB78     		ldrb	r3, [r7, #3]	@ zero_extendqisi2
 4570 0014 4833     		adds	r3, r3, #72
 4571 0016 5B01     		lsls	r3, r3, #5
 4572 0018 1344     		add	r3, r3, r2
 4573 001a 1A68     		ldr	r2, [r3]
 4574              		.loc 6 1316 7
 4575 001c 7B68     		ldr	r3, [r7, #4]
 4576 001e D3F89010 		ldr	r1, [r3, #144]
 4577              		.loc 6 1316 29
 4578 0022 FB78     		ldrb	r3, [r7, #3]	@ zero_extendqisi2
 4579 0024 22F40012 		bic	r2, r2, #2097152
 4580 0028 4833     		adds	r3, r3, #72
 4581 002a 5B01     		lsls	r3, r3, #5
 4582 002c 0B44     		add	r3, r3, r1
 4583 002e 1A60     		str	r2, [r3]
 4584              		.loc 6 1317 1
 4585 0030 00BF     		nop
 4586 0032 0C37     		adds	r7, r7, #12
 4587              		.cfi_def_cfa_offset 4
 4588 0034 BD46     		mov	sp, r7
 4589              		.cfi_def_cfa_register 13
 4590              		@ sp needed
 4591 0036 80BC     		pop	{r7}
 4592              		.cfi_restore 7
 4593              		.cfi_def_cfa_offset 0
 4594 0038 7047     		bx	lr
 4595              		.cfi_endproc
 4596              	.LFE464:
 4597              		.size	usb_lld_clear_in, .-usb_lld_clear_in
 4598              		.section	.rodata.__func__.0,"a"
 4599              		.align	2
 4600              		.type	__func__.0, %object
 4601              		.size	__func__.0, 10
 4602              	__func__.0:
 4603 0000 56656374 		.ascii	"Vector1D4\000"
 4603      6F723144 
 4603      3400
 4604              		.text
 4605              	.Letext0:
 4606              		.file 7 "c:\\chibistudio\\tools\\gnu tools arm embedded\\11.3 2022.08\\lib\\gcc\\arm-none-eabi\\11
 4607              		.file 8 "c:\\chibistudio\\tools\\gnu tools arm embedded\\11.3 2022.08\\arm-none-eabi\\include\\mac
ARM GAS  C:\Users\DEVELO~1\AppData\Local\Temp\cc4r91NU.s 			page 82


 4608              		.file 9 "c:\\chibistudio\\tools\\gnu tools arm embedded\\11.3 2022.08\\arm-none-eabi\\include\\sys
 4609              		.file 10 "../../../os/common/ports/ARM-common/chtypes.h"
 4610              		.file 11 "../../../os/rt/include/chearly.h"
 4611              		.file 12 "../../../os/common/ext/ST/STM32H7xx/stm32h743xx.h"
 4612              		.file 13 "../../../os/hal/include/hal_usb.h"
 4613              		.file 14 "../../../os/hal/ports/STM32/LLD/OTGv1/hal_usb_lld.h"
 4614              		.file 15 "../../../os/hal/ports/STM32/LLD/OTGv1/stm32_otg.h"
 4615              		.file 16 "../../../os/hal/ports/common/ARMCMx/nvic.h"
 4616              		.file 17 "../../../os/rt/include/chtrace.h"
 4617              		.file 18 "c:\\chibistudio\\tools\\gnu tools arm embedded\\11.3 2022.08\\arm-none-eabi\\include\\st
 4618              		.section	.debug_info,"",%progbits
 4619              	.Ldebug_info0:
 4620 0000 9A1B0000 		.4byte	0x1b9a
 4621 0004 0500     		.2byte	0x5
 4622 0006 01       		.byte	0x1
 4623 0007 04       		.byte	0x4
 4624 0008 00000000 		.4byte	.Ldebug_abbrev0
 4625 000c 2D       		.uleb128 0x2d
 4626 000d C5040000 		.4byte	.LASF315
 4627 0011 1D       		.byte	0x1d
 4628 0012 510D0000 		.4byte	.LASF316
 4629 0016 09040000 		.4byte	.LASF317
 4630 001a 0C000000 		.4byte	.LLRL0
 4631 001e 00000000 		.4byte	0
 4632 0022 00000000 		.4byte	.Ldebug_line0
 4633 0026 2E       		.uleb128 0x2e
 4634 0027 04       		.byte	0x4
 4635 0028 05       		.byte	0x5
 4636 0029 696E7400 		.ascii	"int\000"
 4637 002d 0E       		.uleb128 0xe
 4638 002e BE040000 		.4byte	.LASF4
 4639 0032 07       		.byte	0x7
 4640 0033 D1       		.byte	0xd1
 4641 0034 17       		.byte	0x17
 4642 0035 39000000 		.4byte	0x39
 4643 0039 0F       		.uleb128 0xf
 4644 003a 04       		.byte	0x4
 4645 003b 07       		.byte	0x7
 4646 003c C2000000 		.4byte	.LASF0
 4647 0040 0F       		.uleb128 0xf
 4648 0041 08       		.byte	0x8
 4649 0042 05       		.byte	0x5
 4650 0043 88070000 		.4byte	.LASF1
 4651 0047 0F       		.uleb128 0xf
 4652 0048 08       		.byte	0x8
 4653 0049 04       		.byte	0x4
 4654 004a 54080000 		.4byte	.LASF2
 4655 004e 0F       		.uleb128 0xf
 4656 004f 01       		.byte	0x1
 4657 0050 06       		.byte	0x6
 4658 0051 A6020000 		.4byte	.LASF3
 4659 0055 0E       		.uleb128 0xe
 4660 0056 9B0B0000 		.4byte	.LASF5
 4661 005a 08       		.byte	0x8
 4662 005b 2B       		.byte	0x2b
 4663 005c 18       		.byte	0x18
 4664 005d 61000000 		.4byte	0x61
ARM GAS  C:\Users\DEVELO~1\AppData\Local\Temp\cc4r91NU.s 			page 83


 4665 0061 0F       		.uleb128 0xf
 4666 0062 01       		.byte	0x1
 4667 0063 08       		.byte	0x8
 4668 0064 220A0000 		.4byte	.LASF6
 4669 0068 0F       		.uleb128 0xf
 4670 0069 02       		.byte	0x2
 4671 006a 05       		.byte	0x5
 4672 006b 83080000 		.4byte	.LASF7
 4673 006f 0E       		.uleb128 0xe
 4674 0070 AD030000 		.4byte	.LASF8
 4675 0074 08       		.byte	0x8
 4676 0075 39       		.byte	0x39
 4677 0076 19       		.byte	0x19
 4678 0077 7B000000 		.4byte	0x7b
 4679 007b 0F       		.uleb128 0xf
 4680 007c 02       		.byte	0x2
 4681 007d 07       		.byte	0x7
 4682 007e 000E0000 		.4byte	.LASF9
 4683 0082 0F       		.uleb128 0xf
 4684 0083 04       		.byte	0x4
 4685 0084 05       		.byte	0x5
 4686 0085 D20A0000 		.4byte	.LASF10
 4687 0089 0E       		.uleb128 0xe
 4688 008a A2030000 		.4byte	.LASF11
 4689 008e 08       		.byte	0x8
 4690 008f 4F       		.byte	0x4f
 4691 0090 19       		.byte	0x19
 4692 0091 95000000 		.4byte	0x95
 4693 0095 0F       		.uleb128 0xf
 4694 0096 04       		.byte	0x4
 4695 0097 07       		.byte	0x7
 4696 0098 430C0000 		.4byte	.LASF12
 4697 009c 0F       		.uleb128 0xf
 4698 009d 08       		.byte	0x8
 4699 009e 07       		.byte	0x7
 4700 009f 4C030000 		.4byte	.LASF13
 4701 00a3 2F       		.uleb128 0x2f
 4702 00a4 04       		.byte	0x4
 4703 00a5 0F       		.uleb128 0xf
 4704 00a6 01       		.byte	0x1
 4705 00a7 08       		.byte	0x8
 4706 00a8 57060000 		.4byte	.LASF14
 4707 00ac 13       		.uleb128 0x13
 4708 00ad A5000000 		.4byte	0xa5
 4709 00b1 0B       		.uleb128 0xb
 4710 00b2 AC000000 		.4byte	0xac
 4711 00b6 0E       		.uleb128 0xe
 4712 00b7 E6060000 		.4byte	.LASF15
 4713 00bb 09       		.byte	0x9
 4714 00bc 18       		.byte	0x18
 4715 00bd 13       		.byte	0x13
 4716 00be 55000000 		.4byte	0x55
 4717 00c2 13       		.uleb128 0x13
 4718 00c3 B6000000 		.4byte	0xb6
 4719 00c7 0E       		.uleb128 0xe
 4720 00c8 76090000 		.4byte	.LASF16
 4721 00cc 09       		.byte	0x9
ARM GAS  C:\Users\DEVELO~1\AppData\Local\Temp\cc4r91NU.s 			page 84


 4722 00cd 24       		.byte	0x24
 4723 00ce 14       		.byte	0x14
 4724 00cf 6F000000 		.4byte	0x6f
 4725 00d3 0E       		.uleb128 0xe
 4726 00d4 BB020000 		.4byte	.LASF17
 4727 00d8 09       		.byte	0x9
 4728 00d9 30       		.byte	0x30
 4729 00da 14       		.byte	0x14
 4730 00db 89000000 		.4byte	0x89
 4731 00df 10       		.uleb128 0x10
 4732 00e0 D3000000 		.4byte	0xd3
 4733 00e4 0E       		.uleb128 0xe
 4734 00e5 1B020000 		.4byte	.LASF18
 4735 00e9 0A       		.byte	0xa
 4736 00ea 36       		.byte	0x36
 4737 00eb 1D       		.byte	0x1d
 4738 00ec D3000000 		.4byte	0xd3
 4739 00f0 0E       		.uleb128 0xe
 4740 00f1 E8090000 		.4byte	.LASF19
 4741 00f5 0B       		.byte	0xb
 4742 00f6 4D       		.byte	0x4d
 4743 00f7 19       		.byte	0x19
 4744 00f8 E4000000 		.4byte	0xe4
 4745 00fc 07       		.uleb128 0x7
 4746 00fd D3000000 		.4byte	0xd3
 4747 0101 0C010000 		.4byte	0x10c
 4748 0105 08       		.uleb128 0x8
 4749 0106 39000000 		.4byte	0x39
 4750 010a 03       		.byte	0x3
 4751 010b 00       		.byte	0
 4752 010c 07       		.uleb128 0x7
 4753 010d D3000000 		.4byte	0xd3
 4754 0111 1C010000 		.4byte	0x11c
 4755 0115 08       		.uleb128 0x8
 4756 0116 39000000 		.4byte	0x39
 4757 011a 08       		.byte	0x8
 4758 011b 00       		.byte	0
 4759 011c 07       		.uleb128 0x7
 4760 011d DF000000 		.4byte	0xdf
 4761 0121 2C010000 		.4byte	0x12c
 4762 0125 08       		.uleb128 0x8
 4763 0126 39000000 		.4byte	0x39
 4764 012a 0F       		.byte	0xf
 4765 012b 00       		.byte	0
 4766 012c 10       		.uleb128 0x10
 4767 012d 1C010000 		.4byte	0x11c
 4768 0131 30       		.uleb128 0x30
 4769 0132 3001     		.2byte	0x130
 4770 0134 0C       		.byte	0xc
 4771 0135 CE04     		.2byte	0x4ce
 4772 0137 09       		.byte	0x9
 4773 0138 CA040000 		.4byte	0x4ca
 4774 013c 19       		.uleb128 0x19
 4775 013d 435200   		.ascii	"CR\000"
 4776 0140 0C       		.byte	0xc
 4777 0141 D004     		.2byte	0x4d0
 4778 0143 10       		.byte	0x10
ARM GAS  C:\Users\DEVELO~1\AppData\Local\Temp\cc4r91NU.s 			page 85


 4779 0144 DF000000 		.4byte	0xdf
 4780 0148 00       		.byte	0
 4781 0149 01       		.uleb128 0x1
 4782 014a 76000000 		.4byte	.LASF20
 4783 014e 0C       		.byte	0xc
 4784 014f D104     		.2byte	0x4d1
 4785 0151 10       		.byte	0x10
 4786 0152 DF000000 		.4byte	0xdf
 4787 0156 04       		.byte	0x4
 4788 0157 01       		.uleb128 0x1
 4789 0158 3F010000 		.4byte	.LASF21
 4790 015c 0C       		.byte	0xc
 4791 015d D204     		.2byte	0x4d2
 4792 015f 10       		.byte	0x10
 4793 0160 DF000000 		.4byte	0xdf
 4794 0164 08       		.byte	0x8
 4795 0165 01       		.uleb128 0x1
 4796 0166 B50C0000 		.4byte	.LASF22
 4797 016a 0C       		.byte	0xc
 4798 016b D304     		.2byte	0x4d3
 4799 016d 10       		.byte	0x10
 4800 016e DF000000 		.4byte	0xdf
 4801 0172 0C       		.byte	0xc
 4802 0173 01       		.uleb128 0x1
 4803 0174 640B0000 		.4byte	.LASF23
 4804 0178 0C       		.byte	0xc
 4805 0179 D404     		.2byte	0x4d4
 4806 017b 10       		.byte	0x10
 4807 017c DF000000 		.4byte	0xdf
 4808 0180 10       		.byte	0x10
 4809 0181 01       		.uleb128 0x1
 4810 0182 4F0A0000 		.4byte	.LASF24
 4811 0186 0C       		.byte	0xc
 4812 0187 D504     		.2byte	0x4d5
 4813 0189 0F       		.byte	0xf
 4814 018a D3000000 		.4byte	0xd3
 4815 018e 14       		.byte	0x14
 4816 018f 01       		.uleb128 0x1
 4817 0190 2A0C0000 		.4byte	.LASF25
 4818 0194 0C       		.byte	0xc
 4819 0195 D604     		.2byte	0x4d6
 4820 0197 10       		.byte	0x10
 4821 0198 DF000000 		.4byte	0xdf
 4822 019c 18       		.byte	0x18
 4823 019d 01       		.uleb128 0x1
 4824 019e A3060000 		.4byte	.LASF26
 4825 01a2 0C       		.byte	0xc
 4826 01a3 D704     		.2byte	0x4d7
 4827 01a5 10       		.byte	0x10
 4828 01a6 DF000000 		.4byte	0xdf
 4829 01aa 1C       		.byte	0x1c
 4830 01ab 01       		.uleb128 0x1
 4831 01ac 0E010000 		.4byte	.LASF27
 4832 01b0 0C       		.byte	0xc
 4833 01b1 D804     		.2byte	0x4d8
 4834 01b3 10       		.byte	0x10
 4835 01b4 DF000000 		.4byte	0xdf
ARM GAS  C:\Users\DEVELO~1\AppData\Local\Temp\cc4r91NU.s 			page 86


 4836 01b8 20       		.byte	0x20
 4837 01b9 01       		.uleb128 0x1
 4838 01ba 590A0000 		.4byte	.LASF28
 4839 01be 0C       		.byte	0xc
 4840 01bf D904     		.2byte	0x4d9
 4841 01c1 0F       		.byte	0xf
 4842 01c2 D3000000 		.4byte	0xd3
 4843 01c6 24       		.byte	0x24
 4844 01c7 01       		.uleb128 0x1
 4845 01c8 CF0B0000 		.4byte	.LASF29
 4846 01cc 0C       		.byte	0xc
 4847 01cd DA04     		.2byte	0x4da
 4848 01cf 10       		.byte	0x10
 4849 01d0 DF000000 		.4byte	0xdf
 4850 01d4 28       		.byte	0x28
 4851 01d5 01       		.uleb128 0x1
 4852 01d6 DE060000 		.4byte	.LASF30
 4853 01da 0C       		.byte	0xc
 4854 01db DB04     		.2byte	0x4db
 4855 01dd 10       		.byte	0x10
 4856 01de DF000000 		.4byte	0xdf
 4857 01e2 2C       		.byte	0x2c
 4858 01e3 01       		.uleb128 0x1
 4859 01e4 860C0000 		.4byte	.LASF31
 4860 01e8 0C       		.byte	0xc
 4861 01e9 DC04     		.2byte	0x4dc
 4862 01eb 10       		.byte	0x10
 4863 01ec DF000000 		.4byte	0xdf
 4864 01f0 30       		.byte	0x30
 4865 01f1 01       		.uleb128 0x1
 4866 01f2 1B0C0000 		.4byte	.LASF32
 4867 01f6 0C       		.byte	0xc
 4868 01f7 DD04     		.2byte	0x4dd
 4869 01f9 10       		.byte	0x10
 4870 01fa DF000000 		.4byte	0xdf
 4871 01fe 34       		.byte	0x34
 4872 01ff 01       		.uleb128 0x1
 4873 0200 26070000 		.4byte	.LASF33
 4874 0204 0C       		.byte	0xc
 4875 0205 DE04     		.2byte	0x4de
 4876 0207 10       		.byte	0x10
 4877 0208 DF000000 		.4byte	0xdf
 4878 020c 38       		.byte	0x38
 4879 020d 01       		.uleb128 0x1
 4880 020e 6F060000 		.4byte	.LASF34
 4881 0212 0C       		.byte	0xc
 4882 0213 DF04     		.2byte	0x4df
 4883 0215 10       		.byte	0x10
 4884 0216 DF000000 		.4byte	0xdf
 4885 021a 3C       		.byte	0x3c
 4886 021b 01       		.uleb128 0x1
 4887 021c AA010000 		.4byte	.LASF35
 4888 0220 0C       		.byte	0xc
 4889 0221 E004     		.2byte	0x4e0
 4890 0223 10       		.byte	0x10
 4891 0224 DF000000 		.4byte	0xdf
 4892 0228 40       		.byte	0x40
ARM GAS  C:\Users\DEVELO~1\AppData\Local\Temp\cc4r91NU.s 			page 87


 4893 0229 01       		.uleb128 0x1
 4894 022a A0000000 		.4byte	.LASF36
 4895 022e 0C       		.byte	0xc
 4896 022f E104     		.2byte	0x4e1
 4897 0231 10       		.byte	0x10
 4898 0232 DF000000 		.4byte	0xdf
 4899 0236 44       		.byte	0x44
 4900 0237 01       		.uleb128 0x1
 4901 0238 630A0000 		.4byte	.LASF37
 4902 023c 0C       		.byte	0xc
 4903 023d E204     		.2byte	0x4e2
 4904 023f 10       		.byte	0x10
 4905 0240 D3000000 		.4byte	0xd3
 4906 0244 48       		.byte	0x48
 4907 0245 01       		.uleb128 0x1
 4908 0246 440B0000 		.4byte	.LASF38
 4909 024a 0C       		.byte	0xc
 4910 024b E304     		.2byte	0x4e3
 4911 024d 11       		.byte	0x11
 4912 024e DF000000 		.4byte	0xdf
 4913 0252 4C       		.byte	0x4c
 4914 0253 01       		.uleb128 0x1
 4915 0254 1A060000 		.4byte	.LASF39
 4916 0258 0C       		.byte	0xc
 4917 0259 E404     		.2byte	0x4e4
 4918 025b 11       		.byte	0x11
 4919 025c DF000000 		.4byte	0xdf
 4920 0260 50       		.byte	0x50
 4921 0261 01       		.uleb128 0x1
 4922 0262 DC010000 		.4byte	.LASF40
 4923 0266 0C       		.byte	0xc
 4924 0267 E504     		.2byte	0x4e5
 4925 0269 11       		.byte	0x11
 4926 026a DF000000 		.4byte	0xdf
 4927 026e 54       		.byte	0x54
 4928 026f 01       		.uleb128 0x1
 4929 0270 AE0D0000 		.4byte	.LASF41
 4930 0274 0C       		.byte	0xc
 4931 0275 E604     		.2byte	0x4e6
 4932 0277 11       		.byte	0x11
 4933 0278 DF000000 		.4byte	0xdf
 4934 027c 58       		.byte	0x58
 4935 027d 01       		.uleb128 0x1
 4936 027e 6D0A0000 		.4byte	.LASF42
 4937 0282 0C       		.byte	0xc
 4938 0283 E704     		.2byte	0x4e7
 4939 0285 10       		.byte	0x10
 4940 0286 D3000000 		.4byte	0xd3
 4941 028a 5C       		.byte	0x5c
 4942 028b 01       		.uleb128 0x1
 4943 028c 250C0000 		.4byte	.LASF43
 4944 0290 0C       		.byte	0xc
 4945 0291 E804     		.2byte	0x4e8
 4946 0293 11       		.byte	0x11
 4947 0294 DF000000 		.4byte	0xdf
 4948 0298 60       		.byte	0x60
 4949 0299 01       		.uleb128 0x1
ARM GAS  C:\Users\DEVELO~1\AppData\Local\Temp\cc4r91NU.s 			page 88


 4950 029a FC010000 		.4byte	.LASF44
 4951 029e 0C       		.byte	0xc
 4952 029f E904     		.2byte	0x4e9
 4953 02a1 11       		.byte	0x11
 4954 02a2 DF000000 		.4byte	0xdf
 4955 02a6 64       		.byte	0x64
 4956 02a7 01       		.uleb128 0x1
 4957 02a8 1D0A0000 		.4byte	.LASF45
 4958 02ac 0C       		.byte	0xc
 4959 02ad EA04     		.2byte	0x4ea
 4960 02af 11       		.byte	0x11
 4961 02b0 DF000000 		.4byte	0xdf
 4962 02b4 68       		.byte	0x68
 4963 02b5 01       		.uleb128 0x1
 4964 02b6 770A0000 		.4byte	.LASF46
 4965 02ba 0C       		.byte	0xc
 4966 02bb EB04     		.2byte	0x4eb
 4967 02bd 0F       		.byte	0xf
 4968 02be D3000000 		.4byte	0xd3
 4969 02c2 6C       		.byte	0x6c
 4970 02c3 01       		.uleb128 0x1
 4971 02c4 1C010000 		.4byte	.LASF47
 4972 02c8 0C       		.byte	0xc
 4973 02c9 EC04     		.2byte	0x4ec
 4974 02cb 11       		.byte	0x11
 4975 02cc DF000000 		.4byte	0xdf
 4976 02d0 70       		.byte	0x70
 4977 02d1 19       		.uleb128 0x19
 4978 02d2 43535200 		.ascii	"CSR\000"
 4979 02d6 0C       		.byte	0xc
 4980 02d7 ED04     		.2byte	0x4ed
 4981 02d9 11       		.byte	0x11
 4982 02da DF000000 		.4byte	0xdf
 4983 02de 74       		.byte	0x74
 4984 02df 01       		.uleb128 0x1
 4985 02e0 810A0000 		.4byte	.LASF48
 4986 02e4 0C       		.byte	0xc
 4987 02e5 EE04     		.2byte	0x4ee
 4988 02e7 0F       		.byte	0xf
 4989 02e8 D3000000 		.4byte	0xd3
 4990 02ec 78       		.byte	0x78
 4991 02ed 01       		.uleb128 0x1
 4992 02ee F7030000 		.4byte	.LASF49
 4993 02f2 0C       		.byte	0xc
 4994 02f3 EF04     		.2byte	0x4ef
 4995 02f5 10       		.byte	0x10
 4996 02f6 DF000000 		.4byte	0xdf
 4997 02fa 7C       		.byte	0x7c
 4998 02fb 01       		.uleb128 0x1
 4999 02fc 020F0000 		.4byte	.LASF50
 5000 0300 0C       		.byte	0xc
 5001 0301 F004     		.2byte	0x4f0
 5002 0303 10       		.byte	0x10
 5003 0304 DF000000 		.4byte	0xdf
 5004 0308 80       		.byte	0x80
 5005 0309 01       		.uleb128 0x1
 5006 030a C0090000 		.4byte	.LASF51
ARM GAS  C:\Users\DEVELO~1\AppData\Local\Temp\cc4r91NU.s 			page 89


 5007 030e 0C       		.byte	0xc
 5008 030f F104     		.2byte	0x4f1
 5009 0311 10       		.byte	0x10
 5010 0312 DF000000 		.4byte	0xdf
 5011 0316 84       		.byte	0x84
 5012 0317 01       		.uleb128 0x1
 5013 0318 690E0000 		.4byte	.LASF52
 5014 031c 0C       		.byte	0xc
 5015 031d F204     		.2byte	0x4f2
 5016 031f 10       		.byte	0x10
 5017 0320 DF000000 		.4byte	0xdf
 5018 0324 88       		.byte	0x88
 5019 0325 01       		.uleb128 0x1
 5020 0326 030B0000 		.4byte	.LASF53
 5021 032a 0C       		.byte	0xc
 5022 032b F304     		.2byte	0x4f3
 5023 032d 10       		.byte	0x10
 5024 032e DF000000 		.4byte	0xdf
 5025 0332 8C       		.byte	0x8c
 5026 0333 01       		.uleb128 0x1
 5027 0334 0F090000 		.4byte	.LASF54
 5028 0338 0C       		.byte	0xc
 5029 0339 F404     		.2byte	0x4f4
 5030 033b 10       		.byte	0x10
 5031 033c DF000000 		.4byte	0xdf
 5032 0340 90       		.byte	0x90
 5033 0341 01       		.uleb128 0x1
 5034 0342 00000000 		.4byte	.LASF55
 5035 0346 0C       		.byte	0xc
 5036 0347 F504     		.2byte	0x4f5
 5037 0349 10       		.byte	0x10
 5038 034a DF000000 		.4byte	0xdf
 5039 034e 94       		.byte	0x94
 5040 034f 01       		.uleb128 0x1
 5041 0350 5C000000 		.4byte	.LASF56
 5042 0354 0C       		.byte	0xc
 5043 0355 F604     		.2byte	0x4f6
 5044 0357 10       		.byte	0x10
 5045 0358 DF000000 		.4byte	0xdf
 5046 035c 98       		.byte	0x98
 5047 035d 01       		.uleb128 0x1
 5048 035e C4050000 		.4byte	.LASF57
 5049 0362 0C       		.byte	0xc
 5050 0363 F704     		.2byte	0x4f7
 5051 0365 10       		.byte	0x10
 5052 0366 DF000000 		.4byte	0xdf
 5053 036a 9C       		.byte	0x9c
 5054 036b 19       		.uleb128 0x19
 5055 036c 47435200 		.ascii	"GCR\000"
 5056 0370 0C       		.byte	0xc
 5057 0371 F804     		.2byte	0x4f8
 5058 0373 10       		.byte	0x10
 5059 0374 DF000000 		.4byte	0xdf
 5060 0378 A0       		.byte	0xa0
 5061 0379 01       		.uleb128 0x1
 5062 037a 910A0000 		.4byte	.LASF58
 5063 037e 0C       		.byte	0xc
ARM GAS  C:\Users\DEVELO~1\AppData\Local\Temp\cc4r91NU.s 			page 90


 5064 037f F904     		.2byte	0x4f9
 5065 0381 0F       		.byte	0xf
 5066 0382 D3000000 		.4byte	0xd3
 5067 0386 A4       		.byte	0xa4
 5068 0387 01       		.uleb128 0x1
 5069 0388 E9080000 		.4byte	.LASF59
 5070 038c 0C       		.byte	0xc
 5071 038d FA04     		.2byte	0x4fa
 5072 038f 10       		.byte	0x10
 5073 0390 DF000000 		.4byte	0xdf
 5074 0394 A8       		.byte	0xa8
 5075 0395 01       		.uleb128 0x1
 5076 0396 110D0000 		.4byte	.LASF60
 5077 039a 0C       		.byte	0xc
 5078 039b FB04     		.2byte	0x4fb
 5079 039d 0F       		.byte	0xf
 5080 039e 0C010000 		.4byte	0x10c
 5081 03a2 AC       		.byte	0xac
 5082 03a3 19       		.uleb128 0x19
 5083 03a4 52535200 		.ascii	"RSR\000"
 5084 03a8 0C       		.byte	0xc
 5085 03a9 FC04     		.2byte	0x4fc
 5086 03ab 10       		.byte	0x10
 5087 03ac DF000000 		.4byte	0xdf
 5088 03b0 D0       		.byte	0xd0
 5089 03b1 01       		.uleb128 0x1
 5090 03b2 09060000 		.4byte	.LASF61
 5091 03b6 0C       		.byte	0xc
 5092 03b7 FD04     		.2byte	0x4fd
 5093 03b9 10       		.byte	0x10
 5094 03ba DF000000 		.4byte	0xdf
 5095 03be D4       		.byte	0xd4
 5096 03bf 01       		.uleb128 0x1
 5097 03c0 0D030000 		.4byte	.LASF62
 5098 03c4 0C       		.byte	0xc
 5099 03c5 FE04     		.2byte	0x4fe
 5100 03c7 10       		.byte	0x10
 5101 03c8 DF000000 		.4byte	0xdf
 5102 03cc D8       		.byte	0xd8
 5103 03cd 01       		.uleb128 0x1
 5104 03ce 780C0000 		.4byte	.LASF63
 5105 03d2 0C       		.byte	0xc
 5106 03d3 FF04     		.2byte	0x4ff
 5107 03d5 10       		.byte	0x10
 5108 03d6 DF000000 		.4byte	0xdf
 5109 03da DC       		.byte	0xdc
 5110 03db 01       		.uleb128 0x1
 5111 03dc 2B080000 		.4byte	.LASF64
 5112 03e0 0C       		.byte	0xc
 5113 03e1 0005     		.2byte	0x500
 5114 03e3 10       		.byte	0x10
 5115 03e4 DF000000 		.4byte	0xdf
 5116 03e8 E0       		.byte	0xe0
 5117 03e9 01       		.uleb128 0x1
 5118 03ea 6B020000 		.4byte	.LASF65
 5119 03ee 0C       		.byte	0xc
 5120 03ef 0105     		.2byte	0x501
ARM GAS  C:\Users\DEVELO~1\AppData\Local\Temp\cc4r91NU.s 			page 91


 5121 03f1 10       		.byte	0x10
 5122 03f2 DF000000 		.4byte	0xdf
 5123 03f6 E4       		.byte	0xe4
 5124 03f7 01       		.uleb128 0x1
 5125 03f8 F90E0000 		.4byte	.LASF66
 5126 03fc 0C       		.byte	0xc
 5127 03fd 0205     		.2byte	0x502
 5128 03ff 10       		.byte	0x10
 5129 0400 DF000000 		.4byte	0xdf
 5130 0404 E8       		.byte	0xe8
 5131 0405 01       		.uleb128 0x1
 5132 0406 B00A0000 		.4byte	.LASF67
 5133 040a 0C       		.byte	0xc
 5134 040b 0305     		.2byte	0x503
 5135 040d 10       		.byte	0x10
 5136 040e DF000000 		.4byte	0xdf
 5137 0412 EC       		.byte	0xec
 5138 0413 01       		.uleb128 0x1
 5139 0414 1F0B0000 		.4byte	.LASF68
 5140 0418 0C       		.byte	0xc
 5141 0419 0405     		.2byte	0x504
 5142 041b 10       		.byte	0x10
 5143 041c DF000000 		.4byte	0xdf
 5144 0420 F0       		.byte	0xf0
 5145 0421 01       		.uleb128 0x1
 5146 0422 930B0000 		.4byte	.LASF69
 5147 0426 0C       		.byte	0xc
 5148 0427 0505     		.2byte	0x505
 5149 0429 10       		.byte	0x10
 5150 042a DF000000 		.4byte	0xdf
 5151 042e F4       		.byte	0xf4
 5152 042f 01       		.uleb128 0x1
 5153 0430 1C0D0000 		.4byte	.LASF70
 5154 0434 0C       		.byte	0xc
 5155 0435 0605     		.2byte	0x506
 5156 0437 10       		.byte	0x10
 5157 0438 D3000000 		.4byte	0xd3
 5158 043c F8       		.byte	0xf8
 5159 043d 01       		.uleb128 0x1
 5160 043e 110C0000 		.4byte	.LASF71
 5161 0442 0C       		.byte	0xc
 5162 0443 0705     		.2byte	0x507
 5163 0445 10       		.byte	0x10
 5164 0446 DF000000 		.4byte	0xdf
 5165 044a FC       		.byte	0xfc
 5166 044b 14       		.uleb128 0x14
 5167 044c 19090000 		.4byte	.LASF72
 5168 0450 0805     		.2byte	0x508
 5169 0452 10       		.byte	0x10
 5170 0453 DF000000 		.4byte	0xdf
 5171 0457 0001     		.2byte	0x100
 5172 0459 14       		.uleb128 0x14
 5173 045a 28020000 		.4byte	.LASF73
 5174 045e 0905     		.2byte	0x509
 5175 0460 10       		.byte	0x10
 5176 0461 DF000000 		.4byte	0xdf
 5177 0465 0401     		.2byte	0x104
ARM GAS  C:\Users\DEVELO~1\AppData\Local\Temp\cc4r91NU.s 			page 92


 5178 0467 14       		.uleb128 0x14
 5179 0468 65060000 		.4byte	.LASF74
 5180 046c 0A05     		.2byte	0x50a
 5181 046e 10       		.byte	0x10
 5182 046f DF000000 		.4byte	0xdf
 5183 0473 0801     		.2byte	0x108
 5184 0475 14       		.uleb128 0x14
 5185 0476 A60A0000 		.4byte	.LASF75
 5186 047a 0B05     		.2byte	0x50b
 5187 047c 10       		.byte	0x10
 5188 047d DF000000 		.4byte	0xdf
 5189 0481 0C01     		.2byte	0x10c
 5190 0483 14       		.uleb128 0x14
 5191 0484 CF000000 		.4byte	.LASF76
 5192 0488 0C05     		.2byte	0x50c
 5193 048a 10       		.byte	0x10
 5194 048b DF000000 		.4byte	0xdf
 5195 048f 1001     		.2byte	0x110
 5196 0491 14       		.uleb128 0x14
 5197 0492 6D0C0000 		.4byte	.LASF77
 5198 0496 0D05     		.2byte	0x50d
 5199 0498 10       		.byte	0x10
 5200 0499 DF000000 		.4byte	0xdf
 5201 049d 1401     		.2byte	0x114
 5202 049f 14       		.uleb128 0x14
 5203 04a0 41000000 		.4byte	.LASF78
 5204 04a4 0E05     		.2byte	0x50e
 5205 04a6 10       		.byte	0x10
 5206 04a7 DF000000 		.4byte	0xdf
 5207 04ab 1801     		.2byte	0x118
 5208 04ad 14       		.uleb128 0x14
 5209 04ae B4040000 		.4byte	.LASF79
 5210 04b2 0F05     		.2byte	0x50f
 5211 04b4 10       		.byte	0x10
 5212 04b5 DF000000 		.4byte	0xdf
 5213 04b9 1C01     		.2byte	0x11c
 5214 04bb 14       		.uleb128 0x14
 5215 04bc 270D0000 		.4byte	.LASF80
 5216 04c0 1005     		.2byte	0x510
 5217 04c2 0F       		.byte	0xf
 5218 04c3 FC000000 		.4byte	0xfc
 5219 04c7 2001     		.2byte	0x120
 5220 04c9 00       		.byte	0
 5221 04ca 0C       		.uleb128 0xc
 5222 04cb 6D010000 		.4byte	.LASF81
 5223 04cf 0C       		.byte	0xc
 5224 04d0 1205     		.2byte	0x512
 5225 04d2 03       		.byte	0x3
 5226 04d3 31010000 		.4byte	0x131
 5227 04d7 07       		.uleb128 0x7
 5228 04d8 DF000000 		.4byte	0xdf
 5229 04dc E7040000 		.4byte	0x4e7
 5230 04e0 08       		.uleb128 0x8
 5231 04e1 39000000 		.4byte	0x39
 5232 04e5 0E       		.byte	0xe
 5233 04e6 00       		.byte	0
 5234 04e7 10       		.uleb128 0x10
ARM GAS  C:\Users\DEVELO~1\AppData\Local\Temp\cc4r91NU.s 			page 93


 5235 04e8 D7040000 		.4byte	0x4d7
 5236 04ec 0F       		.uleb128 0xf
 5237 04ed 01       		.byte	0x1
 5238 04ee 02       		.byte	0x2
 5239 04ef A6050000 		.4byte	.LASF82
 5240 04f3 0B       		.uleb128 0xb
 5241 04f4 B6000000 		.4byte	0xb6
 5242 04f8 0B       		.uleb128 0xb
 5243 04f9 DF000000 		.4byte	0xdf
 5244 04fd 0B       		.uleb128 0xb
 5245 04fe C2000000 		.4byte	0xc2
 5246 0502 0C       		.uleb128 0xc
 5247 0503 ED0D0000 		.4byte	.LASF83
 5248 0507 0D       		.byte	0xd
 5249 0508 0301     		.2byte	0x103
 5250 050a 1A       		.byte	0x1a
 5251 050b 0F050000 		.4byte	0x50f
 5252 050f 31       		.uleb128 0x31
 5253 0510 ED0D0000 		.4byte	.LASF83
 5254 0514 9C       		.byte	0x9c
 5255 0515 0E       		.byte	0xe
 5256 0516 A501     		.2byte	0x1a5
 5257 0518 08       		.byte	0x8
 5258 0519 28060000 		.4byte	0x628
 5259 051d 01       		.uleb128 0x1
 5260 051e 850D0000 		.4byte	.LASF84
 5261 0522 0E       		.byte	0xe
 5262 0523 A901     		.2byte	0x1a9
 5263 0525 21       		.byte	0x21
 5264 0526 65060000 		.4byte	0x665
 5265 052a 00       		.byte	0
 5266 052b 01       		.uleb128 0x1
 5267 052c 300A0000 		.4byte	.LASF85
 5268 0530 0E       		.byte	0xe
 5269 0531 AD01     		.2byte	0x1ad
 5270 0533 22       		.byte	0x22
 5271 0534 C20E0000 		.4byte	0xec2
 5272 0538 04       		.byte	0x4
 5273 0539 01       		.uleb128 0x1
 5274 053a 83030000 		.4byte	.LASF86
 5275 053e 0E       		.byte	0xe
 5276 053f B101     		.2byte	0x1b1
 5277 0541 21       		.byte	0x21
 5278 0542 C7000000 		.4byte	0xc7
 5279 0546 08       		.byte	0x8
 5280 0547 01       		.uleb128 0x1
 5281 0548 DC070000 		.4byte	.LASF87
 5282 054c 0E       		.byte	0xe
 5283 054d B501     		.2byte	0x1b5
 5284 054f 21       		.byte	0x21
 5285 0550 C7000000 		.4byte	0xc7
 5286 0554 0A       		.byte	0xa
 5287 0555 19       		.uleb128 0x19
 5288 0556 65706300 		.ascii	"epc\000"
 5289 055a 0E       		.byte	0xe
 5290 055b B901     		.2byte	0x1b9
 5291 055d 22       		.byte	0x22
ARM GAS  C:\Users\DEVELO~1\AppData\Local\Temp\cc4r91NU.s 			page 94


 5292 055e C70E0000 		.4byte	0xec7
 5293 0562 0C       		.byte	0xc
 5294 0563 01       		.uleb128 0x1
 5295 0564 0A080000 		.4byte	.LASF88
 5296 0568 0E       		.byte	0xe
 5297 0569 C001     		.2byte	0x1c0
 5298 056b 22       		.byte	0x22
 5299 056c DC0E0000 		.4byte	0xedc
 5300 0570 30       		.byte	0x30
 5301 0571 01       		.uleb128 0x1
 5302 0572 B90A0000 		.4byte	.LASF89
 5303 0576 0E       		.byte	0xe
 5304 0577 C701     		.2byte	0x1c7
 5305 0579 22       		.byte	0x22
 5306 057a DC0E0000 		.4byte	0xedc
 5307 057e 50       		.byte	0x50
 5308 057f 01       		.uleb128 0x1
 5309 0580 46090000 		.4byte	.LASF90
 5310 0584 0E       		.byte	0xe
 5311 0585 CB01     		.2byte	0x1cb
 5312 0587 21       		.byte	0x21
 5313 0588 D3060000 		.4byte	0x6d3
 5314 058c 70       		.byte	0x70
 5315 058d 01       		.uleb128 0x1
 5316 058e AA060000 		.4byte	.LASF91
 5317 0592 0E       		.byte	0xe
 5318 0593 CF01     		.2byte	0x1cf
 5319 0595 22       		.byte	0x22
 5320 0596 F3040000 		.4byte	0x4f3
 5321 059a 74       		.byte	0x74
 5322 059b 01       		.uleb128 0x1
 5323 059c C7070000 		.4byte	.LASF92
 5324 05a0 0E       		.byte	0xe
 5325 05a1 D301     		.2byte	0x1d3
 5326 05a3 21       		.byte	0x21
 5327 05a4 2D000000 		.4byte	0x2d
 5328 05a8 78       		.byte	0x78
 5329 05a9 01       		.uleb128 0x1
 5330 05aa 96010000 		.4byte	.LASF93
 5331 05ae 0E       		.byte	0xe
 5332 05af D701     		.2byte	0x1d7
 5333 05b1 21       		.byte	0x21
 5334 05b2 5B070000 		.4byte	0x75b
 5335 05b6 7C       		.byte	0x7c
 5336 05b7 01       		.uleb128 0x1
 5337 05b8 33030000 		.4byte	.LASF94
 5338 05bc 0E       		.byte	0xe
 5339 05bd DB01     		.2byte	0x1db
 5340 05bf 21       		.byte	0x21
 5341 05c0 EC0E0000 		.4byte	0xeec
 5342 05c4 80       		.byte	0x80
 5343 05c5 01       		.uleb128 0x1
 5344 05c6 EE060000 		.4byte	.LASF95
 5345 05ca 0E       		.byte	0xe
 5346 05cb DF01     		.2byte	0x1df
 5347 05cd 21       		.byte	0x21
 5348 05ce C7000000 		.4byte	0xc7
ARM GAS  C:\Users\DEVELO~1\AppData\Local\Temp\cc4r91NU.s 			page 95


 5349 05d2 88       		.byte	0x88
 5350 05d3 01       		.uleb128 0x1
 5351 05d4 550C0000 		.4byte	.LASF96
 5352 05d8 0E       		.byte	0xe
 5353 05d9 E301     		.2byte	0x1e3
 5354 05db 21       		.byte	0x21
 5355 05dc B6000000 		.4byte	0xb6
 5356 05e0 8A       		.byte	0x8a
 5357 05e1 01       		.uleb128 0x1
 5358 05e2 79050000 		.4byte	.LASF97
 5359 05e6 0E       		.byte	0xe
 5360 05e7 E701     		.2byte	0x1e7
 5361 05e9 21       		.byte	0x21
 5362 05ea B6000000 		.4byte	0xb6
 5363 05ee 8B       		.byte	0x8b
 5364 05ef 01       		.uleb128 0x1
 5365 05f0 F70A0000 		.4byte	.LASF98
 5366 05f4 0E       		.byte	0xe
 5367 05f5 EB01     		.2byte	0x1eb
 5368 05f7 21       		.byte	0x21
 5369 05f8 65060000 		.4byte	0x665
 5370 05fc 8C       		.byte	0x8c
 5371 05fd 19       		.uleb128 0x19
 5372 05fe 6F746700 		.ascii	"otg\000"
 5373 0602 0E       		.byte	0xe
 5374 0603 F301     		.2byte	0x1f3
 5375 0605 22       		.byte	0x22
 5376 0606 FC0E0000 		.4byte	0xefc
 5377 060a 90       		.byte	0x90
 5378 060b 01       		.uleb128 0x1
 5379 060c 420E0000 		.4byte	.LASF99
 5380 0610 0E       		.byte	0xe
 5381 0611 F701     		.2byte	0x1f7
 5382 0613 22       		.byte	0x22
 5383 0614 010F0000 		.4byte	0xf01
 5384 0618 94       		.byte	0x94
 5385 0619 01       		.uleb128 0x1
 5386 061a 4A0D0000 		.4byte	.LASF100
 5387 061e 0E       		.byte	0xe
 5388 061f FB01     		.2byte	0x1fb
 5389 0621 21       		.byte	0x21
 5390 0622 D3000000 		.4byte	0xd3
 5391 0626 98       		.byte	0x98
 5392 0627 00       		.byte	0
 5393 0628 0C       		.uleb128 0xc
 5394 0629 E70C0000 		.4byte	.LASF101
 5395 062d 0D       		.byte	0xd
 5396 062e 0801     		.2byte	0x108
 5397 0630 11       		.byte	0x11
 5398 0631 B6000000 		.4byte	0xb6
 5399 0635 1D       		.uleb128 0x1d
 5400 0636 61000000 		.4byte	0x61
 5401 063a 0D01     		.2byte	0x10d
 5402 063c 65060000 		.4byte	0x665
 5403 0640 06       		.uleb128 0x6
 5404 0641 98060000 		.4byte	.LASF102
 5405 0645 00       		.byte	0
ARM GAS  C:\Users\DEVELO~1\AppData\Local\Temp\cc4r91NU.s 			page 96


 5406 0646 06       		.uleb128 0x6
 5407 0647 F00E0000 		.4byte	.LASF103
 5408 064b 01       		.byte	0x1
 5409 064c 06       		.uleb128 0x6
 5410 064d 6C000000 		.4byte	.LASF104
 5411 0651 02       		.byte	0x2
 5412 0652 06       		.uleb128 0x6
 5413 0653 860B0000 		.4byte	.LASF105
 5414 0657 03       		.byte	0x3
 5415 0658 06       		.uleb128 0x6
 5416 0659 87050000 		.4byte	.LASF106
 5417 065d 04       		.byte	0x4
 5418 065e 06       		.uleb128 0x6
 5419 065f 97080000 		.4byte	.LASF107
 5420 0663 05       		.byte	0x5
 5421 0664 00       		.byte	0
 5422 0665 0C       		.uleb128 0xc
 5423 0666 67070000 		.4byte	.LASF108
 5424 066a 0D       		.byte	0xd
 5425 066b 1401     		.2byte	0x114
 5426 066d 03       		.byte	0x3
 5427 066e 35060000 		.4byte	0x635
 5428 0672 1D       		.uleb128 0x1d
 5429 0673 61000000 		.4byte	0x61
 5430 0677 1901     		.2byte	0x119
 5431 0679 90060000 		.4byte	0x690
 5432 067d 06       		.uleb128 0x6
 5433 067e 39030000 		.4byte	.LASF109
 5434 0682 00       		.byte	0
 5435 0683 06       		.uleb128 0x6
 5436 0684 69030000 		.4byte	.LASF110
 5437 0688 01       		.byte	0x1
 5438 0689 06       		.uleb128 0x6
 5439 068a B50B0000 		.4byte	.LASF111
 5440 068e 02       		.byte	0x2
 5441 068f 00       		.byte	0
 5442 0690 0C       		.uleb128 0xc
 5443 0691 8F0C0000 		.4byte	.LASF112
 5444 0695 0D       		.byte	0xd
 5445 0696 1D01     		.2byte	0x11d
 5446 0698 03       		.byte	0x3
 5447 0699 72060000 		.4byte	0x672
 5448 069d 1D       		.uleb128 0x1d
 5449 069e 61000000 		.4byte	0x61
 5450 06a2 2201     		.2byte	0x122
 5451 06a4 D3060000 		.4byte	0x6d3
 5452 06a8 06       		.uleb128 0x6
 5453 06a9 92050000 		.4byte	.LASF113
 5454 06ad 00       		.byte	0
 5455 06ae 06       		.uleb128 0x6
 5456 06af 59090000 		.4byte	.LASF114
 5457 06b3 09       		.byte	0x9
 5458 06b4 06       		.uleb128 0x6
 5459 06b5 E0030000 		.4byte	.LASF115
 5460 06b9 0A       		.byte	0xa
 5461 06ba 06       		.uleb128 0x6
 5462 06bb 0B0F0000 		.4byte	.LASF116
ARM GAS  C:\Users\DEVELO~1\AppData\Local\Temp\cc4r91NU.s 			page 97


 5463 06bf 0B       		.byte	0xb
 5464 06c0 06       		.uleb128 0x6
 5465 06c1 370A0000 		.4byte	.LASF117
 5466 06c5 14       		.byte	0x14
 5467 06c6 06       		.uleb128 0x6
 5468 06c7 E5010000 		.4byte	.LASF118
 5469 06cb 15       		.byte	0x15
 5470 06cc 06       		.uleb128 0x6
 5471 06cd D30C0000 		.4byte	.LASF119
 5472 06d1 06       		.byte	0x6
 5473 06d2 00       		.byte	0
 5474 06d3 0C       		.uleb128 0xc
 5475 06d4 CA0E0000 		.4byte	.LASF120
 5476 06d8 0D       		.byte	0xd
 5477 06d9 2A01     		.2byte	0x12a
 5478 06db 03       		.byte	0x3
 5479 06dc 9D060000 		.4byte	0x69d
 5480 06e0 1D       		.uleb128 0x1d
 5481 06e1 61000000 		.4byte	0x61
 5482 06e5 2F01     		.2byte	0x12f
 5483 06e7 16070000 		.4byte	0x716
 5484 06eb 06       		.uleb128 0x6
 5485 06ec 54020000 		.4byte	.LASF121
 5486 06f0 00       		.byte	0
 5487 06f1 06       		.uleb128 0x6
 5488 06f2 2B060000 		.4byte	.LASF122
 5489 06f6 01       		.byte	0x1
 5490 06f7 06       		.uleb128 0x6
 5491 06f8 15030000 		.4byte	.LASF123
 5492 06fc 02       		.byte	0x2
 5493 06fd 06       		.uleb128 0x6
 5494 06fe D2080000 		.4byte	.LASF124
 5495 0702 03       		.byte	0x3
 5496 0703 06       		.uleb128 0x6
 5497 0704 7E000000 		.4byte	.LASF125
 5498 0708 04       		.byte	0x4
 5499 0709 06       		.uleb128 0x6
 5500 070a 280F0000 		.4byte	.LASF126
 5501 070e 05       		.byte	0x5
 5502 070f 06       		.uleb128 0x6
 5503 0710 71080000 		.4byte	.LASF127
 5504 0714 06       		.byte	0x6
 5505 0715 00       		.byte	0
 5506 0716 0C       		.uleb128 0xc
 5507 0717 920E0000 		.4byte	.LASF128
 5508 071b 0D       		.byte	0xd
 5509 071c 3701     		.2byte	0x137
 5510 071e 03       		.byte	0x3
 5511 071f E0060000 		.4byte	0x6e0
 5512 0723 1A       		.uleb128 0x1a
 5513 0724 08       		.byte	0x8
 5514 0725 0D       		.byte	0xd
 5515 0726 3C01     		.2byte	0x13c
 5516 0728 49070000 		.4byte	0x749
 5517 072c 01       		.uleb128 0x1
 5518 072d E2020000 		.4byte	.LASF129
 5519 0731 0D       		.byte	0xd
ARM GAS  C:\Users\DEVELO~1\AppData\Local\Temp\cc4r91NU.s 			page 98


 5520 0732 4001     		.2byte	0x140
 5521 0734 21       		.byte	0x21
 5522 0735 2D000000 		.4byte	0x2d
 5523 0739 00       		.byte	0
 5524 073a 01       		.uleb128 0x1
 5525 073b 3B0D0000 		.4byte	.LASF130
 5526 073f 0D       		.byte	0xd
 5527 0740 4401     		.2byte	0x144
 5528 0742 22       		.byte	0x22
 5529 0743 FD040000 		.4byte	0x4fd
 5530 0747 04       		.byte	0x4
 5531 0748 00       		.byte	0
 5532 0749 0C       		.uleb128 0xc
 5533 074a EF080000 		.4byte	.LASF131
 5534 074e 0D       		.byte	0xd
 5535 074f 4501     		.2byte	0x145
 5536 0751 03       		.byte	0x3
 5537 0752 23070000 		.4byte	0x723
 5538 0756 13       		.uleb128 0x13
 5539 0757 49070000 		.4byte	0x749
 5540 075b 0C       		.uleb128 0xc
 5541 075c D80E0000 		.4byte	.LASF132
 5542 0760 0D       		.byte	0xd
 5543 0761 4D01     		.2byte	0x14d
 5544 0763 10       		.byte	0x10
 5545 0764 68070000 		.4byte	0x768
 5546 0768 0B       		.uleb128 0xb
 5547 0769 6D070000 		.4byte	0x76d
 5548 076d 22       		.uleb128 0x22
 5549 076e 78070000 		.4byte	0x778
 5550 0772 04       		.uleb128 0x4
 5551 0773 78070000 		.4byte	0x778
 5552 0777 00       		.byte	0
 5553 0778 0B       		.uleb128 0xb
 5554 0779 02050000 		.4byte	0x502
 5555 077d 0C       		.uleb128 0xc
 5556 077e A50B0000 		.4byte	.LASF133
 5557 0782 0D       		.byte	0xd
 5558 0783 5601     		.2byte	0x156
 5559 0785 10       		.byte	0x10
 5560 0786 8A070000 		.4byte	0x78a
 5561 078a 0B       		.uleb128 0xb
 5562 078b 8F070000 		.4byte	0x78f
 5563 078f 22       		.uleb128 0x22
 5564 0790 9F070000 		.4byte	0x79f
 5565 0794 04       		.uleb128 0x4
 5566 0795 78070000 		.4byte	0x778
 5567 0799 04       		.uleb128 0x4
 5568 079a 28060000 		.4byte	0x628
 5569 079e 00       		.byte	0
 5570 079f 0C       		.uleb128 0xc
 5571 07a0 B3010000 		.4byte	.LASF134
 5572 07a4 0D       		.byte	0xd
 5573 07a5 5F01     		.2byte	0x15f
 5574 07a7 10       		.byte	0x10
 5575 07a8 AC070000 		.4byte	0x7ac
 5576 07ac 0B       		.uleb128 0xb
ARM GAS  C:\Users\DEVELO~1\AppData\Local\Temp\cc4r91NU.s 			page 99


 5577 07ad B1070000 		.4byte	0x7b1
 5578 07b1 22       		.uleb128 0x22
 5579 07b2 C1070000 		.4byte	0x7c1
 5580 07b6 04       		.uleb128 0x4
 5581 07b7 78070000 		.4byte	0x778
 5582 07bb 04       		.uleb128 0x4
 5583 07bc 16070000 		.4byte	0x716
 5584 07c0 00       		.byte	0
 5585 07c1 0C       		.uleb128 0xc
 5586 07c2 81010000 		.4byte	.LASF135
 5587 07c6 0D       		.byte	0xd
 5588 07c7 6B01     		.2byte	0x16b
 5589 07c9 10       		.byte	0x10
 5590 07ca CE070000 		.4byte	0x7ce
 5591 07ce 0B       		.uleb128 0xb
 5592 07cf D3070000 		.4byte	0x7d3
 5593 07d3 26       		.uleb128 0x26
 5594 07d4 EC040000 		.4byte	0x4ec
 5595 07d8 E2070000 		.4byte	0x7e2
 5596 07dc 04       		.uleb128 0x4
 5597 07dd 78070000 		.4byte	0x778
 5598 07e1 00       		.byte	0
 5599 07e2 0C       		.uleb128 0xc
 5600 07e3 0C0B0000 		.4byte	.LASF136
 5601 07e7 0D       		.byte	0xd
 5602 07e8 7001     		.2byte	0x170
 5603 07ea 21       		.byte	0x21
 5604 07eb EF070000 		.4byte	0x7ef
 5605 07ef 0B       		.uleb128 0xb
 5606 07f0 F4070000 		.4byte	0x7f4
 5607 07f4 26       		.uleb128 0x26
 5608 07f5 12080000 		.4byte	0x812
 5609 07f9 12080000 		.4byte	0x812
 5610 07fd 04       		.uleb128 0x4
 5611 07fe 78070000 		.4byte	0x778
 5612 0802 04       		.uleb128 0x4
 5613 0803 B6000000 		.4byte	0xb6
 5614 0807 04       		.uleb128 0x4
 5615 0808 B6000000 		.4byte	0xb6
 5616 080c 04       		.uleb128 0x4
 5617 080d C7000000 		.4byte	0xc7
 5618 0811 00       		.byte	0
 5619 0812 0B       		.uleb128 0xb
 5620 0813 56070000 		.4byte	0x756
 5621 0817 23       		.uleb128 0x23
 5622 0818 29       		.byte	0x29
 5623 0819 76080000 		.4byte	0x876
 5624 081d 02       		.uleb128 0x2
 5625 081e CD050000 		.4byte	.LASF137
 5626 0822 2A       		.byte	0x2a
 5627 0823 DF000000 		.4byte	0xdf
 5628 0827 00       		.byte	0
 5629 0828 02       		.uleb128 0x2
 5630 0829 F70C0000 		.4byte	.LASF138
 5631 082d 2C       		.byte	0x2c
 5632 082e DF000000 		.4byte	0xdf
 5633 0832 04       		.byte	0x4
ARM GAS  C:\Users\DEVELO~1\AppData\Local\Temp\cc4r91NU.s 			page 100


 5634 0833 02       		.uleb128 0x2
 5635 0834 8B0A0000 		.4byte	.LASF139
 5636 0838 2D       		.byte	0x2d
 5637 0839 DF000000 		.4byte	0xdf
 5638 083d 08       		.byte	0x8
 5639 083e 02       		.uleb128 0x2
 5640 083f 5C060000 		.4byte	.LASF140
 5641 0843 2E       		.byte	0x2e
 5642 0844 DF000000 		.4byte	0xdf
 5643 0848 0C       		.byte	0xc
 5644 0849 02       		.uleb128 0x2
 5645 084a 02060000 		.4byte	.LASF141
 5646 084e 30       		.byte	0x30
 5647 084f DF000000 		.4byte	0xdf
 5648 0853 10       		.byte	0x10
 5649 0854 02       		.uleb128 0x2
 5650 0855 21010000 		.4byte	.LASF142
 5651 0859 32       		.byte	0x32
 5652 085a DF000000 		.4byte	0xdf
 5653 085e 14       		.byte	0x14
 5654 085f 02       		.uleb128 0x2
 5655 0860 31010000 		.4byte	.LASF143
 5656 0864 33       		.byte	0x33
 5657 0865 DF000000 		.4byte	0xdf
 5658 0869 18       		.byte	0x18
 5659 086a 02       		.uleb128 0x2
 5660 086b 01020000 		.4byte	.LASF144
 5661 086f 34       		.byte	0x34
 5662 0870 DF000000 		.4byte	0xdf
 5663 0874 1C       		.byte	0x1c
 5664 0875 00       		.byte	0
 5665 0876 0E       		.uleb128 0xe
 5666 0877 3F080000 		.4byte	.LASF145
 5667 087b 0F       		.byte	0xf
 5668 087c 35       		.byte	0x35
 5669 087d 03       		.byte	0x3
 5670 087e 17080000 		.4byte	0x817
 5671 0882 23       		.uleb128 0x23
 5672 0883 3A       		.byte	0x3a
 5673 0884 E1080000 		.4byte	0x8e1
 5674 0888 02       		.uleb128 0x2
 5675 0889 EF0A0000 		.4byte	.LASF146
 5676 088d 3B       		.byte	0x3b
 5677 088e DF000000 		.4byte	0xdf
 5678 0892 00       		.byte	0
 5679 0893 02       		.uleb128 0x2
 5680 0894 65000000 		.4byte	.LASF147
 5681 0898 3D       		.byte	0x3d
 5682 0899 DF000000 		.4byte	0xdf
 5683 089d 04       		.byte	0x4
 5684 089e 02       		.uleb128 0x2
 5685 089f 8B0D0000 		.4byte	.LASF148
 5686 08a3 3E       		.byte	0x3e
 5687 08a4 DF000000 		.4byte	0xdf
 5688 08a8 08       		.byte	0x8
 5689 08a9 02       		.uleb128 0x2
 5690 08aa AA000000 		.4byte	.LASF149
ARM GAS  C:\Users\DEVELO~1\AppData\Local\Temp\cc4r91NU.s 			page 101


 5691 08ae 40       		.byte	0x40
 5692 08af DF000000 		.4byte	0xdf
 5693 08b3 0C       		.byte	0xc
 5694 08b4 02       		.uleb128 0x2
 5695 08b5 1F000000 		.4byte	.LASF150
 5696 08b9 41       		.byte	0x41
 5697 08ba DF000000 		.4byte	0xdf
 5698 08be 10       		.byte	0x10
 5699 08bf 02       		.uleb128 0x2
 5700 08c0 21010000 		.4byte	.LASF142
 5701 08c4 43       		.byte	0x43
 5702 08c5 DF000000 		.4byte	0xdf
 5703 08c9 14       		.byte	0x14
 5704 08ca 02       		.uleb128 0x2
 5705 08cb 14080000 		.4byte	.LASF151
 5706 08cf 44       		.byte	0x44
 5707 08d0 DF000000 		.4byte	0xdf
 5708 08d4 18       		.byte	0x18
 5709 08d5 02       		.uleb128 0x2
 5710 08d6 45010000 		.4byte	.LASF152
 5711 08da 46       		.byte	0x46
 5712 08db DF000000 		.4byte	0xdf
 5713 08df 1C       		.byte	0x1c
 5714 08e0 00       		.byte	0
 5715 08e1 0E       		.uleb128 0xe
 5716 08e2 9D040000 		.4byte	.LASF153
 5717 08e6 0F       		.byte	0xf
 5718 08e7 47       		.byte	0x47
 5719 08e8 03       		.byte	0x3
 5720 08e9 82080000 		.4byte	0x882
 5721 08ed 23       		.uleb128 0x23
 5722 08ee 4C       		.byte	0x4c
 5723 08ef 4C090000 		.4byte	0x94c
 5724 08f3 02       		.uleb128 0x2
 5725 08f4 9E070000 		.4byte	.LASF154
 5726 08f8 4D       		.byte	0x4d
 5727 08f9 DF000000 		.4byte	0xdf
 5728 08fd 00       		.byte	0
 5729 08fe 02       		.uleb128 0x2
 5730 08ff 65000000 		.4byte	.LASF147
 5731 0903 4F       		.byte	0x4f
 5732 0904 DF000000 		.4byte	0xdf
 5733 0908 04       		.byte	0x4
 5734 0909 02       		.uleb128 0x2
 5735 090a 96070000 		.4byte	.LASF155
 5736 090e 50       		.byte	0x50
 5737 090f DF000000 		.4byte	0xdf
 5738 0913 08       		.byte	0x8
 5739 0914 02       		.uleb128 0x2
 5740 0915 AA000000 		.4byte	.LASF149
 5741 0919 52       		.byte	0x52
 5742 091a DF000000 		.4byte	0xdf
 5743 091e 0C       		.byte	0xc
 5744 091f 02       		.uleb128 0x2
 5745 0920 00040000 		.4byte	.LASF156
 5746 0924 53       		.byte	0x53
 5747 0925 DF000000 		.4byte	0xdf
ARM GAS  C:\Users\DEVELO~1\AppData\Local\Temp\cc4r91NU.s 			page 102


 5748 0929 10       		.byte	0x10
 5749 092a 02       		.uleb128 0x2
 5750 092b 21010000 		.4byte	.LASF142
 5751 092f 55       		.byte	0x55
 5752 0930 DF000000 		.4byte	0xdf
 5753 0934 14       		.byte	0x14
 5754 0935 02       		.uleb128 0x2
 5755 0936 31010000 		.4byte	.LASF143
 5756 093a 56       		.byte	0x56
 5757 093b DF000000 		.4byte	0xdf
 5758 093f 18       		.byte	0x18
 5759 0940 02       		.uleb128 0x2
 5760 0941 45010000 		.4byte	.LASF152
 5761 0945 57       		.byte	0x57
 5762 0946 DF000000 		.4byte	0xdf
 5763 094a 1C       		.byte	0x1c
 5764 094b 00       		.byte	0
 5765 094c 0E       		.uleb128 0xe
 5766 094d E2050000 		.4byte	.LASF157
 5767 0951 0F       		.byte	0xf
 5768 0952 58       		.byte	0x58
 5769 0953 03       		.byte	0x3
 5770 0954 ED080000 		.4byte	0x8ed
 5771 0958 32       		.uleb128 0x32
 5772 0959 00100100 		.4byte	0x11000
 5773 095d 0F       		.byte	0xf
 5774 095e 5D       		.byte	0x5d
 5775 095f 09       		.byte	0x9
 5776 0960 020C0000 		.4byte	0xc02
 5777 0964 02       		.uleb128 0x2
 5778 0965 E10B0000 		.4byte	.LASF158
 5779 0969 5E       		.byte	0x5e
 5780 096a DF000000 		.4byte	0xdf
 5781 096e 00       		.byte	0
 5782 096f 02       		.uleb128 0x2
 5783 0970 D90B0000 		.4byte	.LASF159
 5784 0974 5F       		.byte	0x5f
 5785 0975 DF000000 		.4byte	0xdf
 5786 0979 04       		.byte	0x4
 5787 097a 02       		.uleb128 0x2
 5788 097b 7F090000 		.4byte	.LASF160
 5789 097f 60       		.byte	0x60
 5790 0980 DF000000 		.4byte	0xdf
 5791 0984 08       		.byte	0x8
 5792 0985 02       		.uleb128 0x2
 5793 0986 4C020000 		.4byte	.LASF161
 5794 098a 61       		.byte	0x61
 5795 098b DF000000 		.4byte	0xdf
 5796 098f 0C       		.byte	0xc
 5797 0990 02       		.uleb128 0x2
 5798 0991 82060000 		.4byte	.LASF162
 5799 0995 62       		.byte	0x62
 5800 0996 DF000000 		.4byte	0xdf
 5801 099a 10       		.byte	0x10
 5802 099b 02       		.uleb128 0x2
 5803 099c 29010000 		.4byte	.LASF163
 5804 09a0 63       		.byte	0x63
ARM GAS  C:\Users\DEVELO~1\AppData\Local\Temp\cc4r91NU.s 			page 103


 5805 09a1 DF000000 		.4byte	0xdf
 5806 09a5 14       		.byte	0x14
 5807 09a6 02       		.uleb128 0x2
 5808 09a7 E0090000 		.4byte	.LASF164
 5809 09ab 64       		.byte	0x64
 5810 09ac DF000000 		.4byte	0xdf
 5811 09b0 18       		.byte	0x18
 5812 09b1 02       		.uleb128 0x2
 5813 09b2 650C0000 		.4byte	.LASF165
 5814 09b6 65       		.byte	0x65
 5815 09b7 DF000000 		.4byte	0xdf
 5816 09bb 1C       		.byte	0x1c
 5817 09bc 02       		.uleb128 0x2
 5818 09bd 5D0C0000 		.4byte	.LASF166
 5819 09c1 67       		.byte	0x67
 5820 09c2 DF000000 		.4byte	0xdf
 5821 09c6 20       		.byte	0x20
 5822 09c7 02       		.uleb128 0x2
 5823 09c8 7B030000 		.4byte	.LASF167
 5824 09cc 69       		.byte	0x69
 5825 09cd DF000000 		.4byte	0xdf
 5826 09d1 24       		.byte	0x24
 5827 09d2 02       		.uleb128 0x2
 5828 09d3 C60B0000 		.4byte	.LASF168
 5829 09d7 6A       		.byte	0x6a
 5830 09d8 DF000000 		.4byte	0xdf
 5831 09dc 28       		.byte	0x28
 5832 09dd 02       		.uleb128 0x2
 5833 09de 9D0C0000 		.4byte	.LASF169
 5834 09e2 6C       		.byte	0x6c
 5835 09e3 DF000000 		.4byte	0xdf
 5836 09e7 2C       		.byte	0x2c
 5837 09e8 02       		.uleb128 0x2
 5838 09e9 05030000 		.4byte	.LASF170
 5839 09ed 6E       		.byte	0x6e
 5840 09ee DF000000 		.4byte	0xdf
 5841 09f2 30       		.byte	0x30
 5842 09f3 02       		.uleb128 0x2
 5843 09f4 F2000000 		.4byte	.LASF171
 5844 09f8 6F       		.byte	0x6f
 5845 09f9 DF000000 		.4byte	0xdf
 5846 09fd 34       		.byte	0x34
 5847 09fe 02       		.uleb128 0x2
 5848 09ff 39010000 		.4byte	.LASF172
 5849 0a03 70       		.byte	0x70
 5850 0a04 DF000000 		.4byte	0xdf
 5851 0a08 38       		.byte	0x38
 5852 0a09 33       		.uleb128 0x33
 5853 0a0a 43494400 		.ascii	"CID\000"
 5854 0a0e 0F       		.byte	0xf
 5855 0a0f 71       		.byte	0x71
 5856 0a10 15       		.byte	0x15
 5857 0a11 DF000000 		.4byte	0xdf
 5858 0a15 3C       		.byte	0x3c
 5859 0a16 02       		.uleb128 0x2
 5860 0a17 D4050000 		.4byte	.LASF173
 5861 0a1b 72       		.byte	0x72
ARM GAS  C:\Users\DEVELO~1\AppData\Local\Temp\cc4r91NU.s 			page 104


 5862 0a1c 120C0000 		.4byte	0xc12
 5863 0a20 40       		.byte	0x40
 5864 0a21 03       		.uleb128 0x3
 5865 0a22 030A0000 		.4byte	.LASF174
 5866 0a26 73       		.byte	0x73
 5867 0a27 DF000000 		.4byte	0xdf
 5868 0a2b 0001     		.2byte	0x100
 5869 0a2d 03       		.uleb128 0x3
 5870 0a2e 980D0000 		.4byte	.LASF175
 5871 0a32 75       		.byte	0x75
 5872 0a33 E7040000 		.4byte	0x4e7
 5873 0a37 0401     		.2byte	0x104
 5874 0a39 03       		.uleb128 0x3
 5875 0a3a B2020000 		.4byte	.LASF176
 5876 0a3e 77       		.byte	0x77
 5877 0a3f 270C0000 		.4byte	0xc27
 5878 0a43 4001     		.2byte	0x140
 5879 0a45 03       		.uleb128 0x3
 5880 0a46 B9050000 		.4byte	.LASF177
 5881 0a4a 78       		.byte	0x78
 5882 0a4b DF000000 		.4byte	0xdf
 5883 0a4f 0004     		.2byte	0x400
 5884 0a51 03       		.uleb128 0x3
 5885 0a52 930D0000 		.4byte	.LASF178
 5886 0a56 79       		.byte	0x79
 5887 0a57 DF000000 		.4byte	0xdf
 5888 0a5b 0404     		.2byte	0x404
 5889 0a5d 03       		.uleb128 0x3
 5890 0a5e E10C0000 		.4byte	.LASF179
 5891 0a62 7A       		.byte	0x7a
 5892 0a63 DF000000 		.4byte	0xdf
 5893 0a67 0804     		.2byte	0x408
 5894 0a69 03       		.uleb128 0x3
 5895 0a6a 81020000 		.4byte	.LASF180
 5896 0a6e 7C       		.byte	0x7c
 5897 0a6f DF000000 		.4byte	0xdf
 5898 0a73 0C04     		.2byte	0x40c
 5899 0a75 03       		.uleb128 0x3
 5900 0a76 F4010000 		.4byte	.LASF181
 5901 0a7a 7D       		.byte	0x7d
 5902 0a7b DF000000 		.4byte	0xdf
 5903 0a7f 1004     		.2byte	0x410
 5904 0a81 03       		.uleb128 0x3
 5905 0a82 CC070000 		.4byte	.LASF182
 5906 0a86 7F       		.byte	0x7f
 5907 0a87 DF000000 		.4byte	0xdf
 5908 0a8b 1404     		.2byte	0x414
 5909 0a8d 03       		.uleb128 0x3
 5910 0a8e 3D060000 		.4byte	.LASF183
 5911 0a92 81       		.byte	0x81
 5912 0a93 DF000000 		.4byte	0xdf
 5913 0a97 1804     		.2byte	0x418
 5914 0a99 03       		.uleb128 0x3
 5915 0a9a C4020000 		.4byte	.LASF184
 5916 0a9e 83       		.byte	0x83
 5917 0a9f 3C0C0000 		.4byte	0xc3c
 5918 0aa3 1C04     		.2byte	0x41c
ARM GAS  C:\Users\DEVELO~1\AppData\Local\Temp\cc4r91NU.s 			page 105


 5919 0aa5 03       		.uleb128 0x3
 5920 0aa6 68040000 		.4byte	.LASF185
 5921 0aaa 84       		.byte	0x84
 5922 0aab DF000000 		.4byte	0xdf
 5923 0aaf 4004     		.2byte	0x440
 5924 0ab1 03       		.uleb128 0x3
 5925 0ab2 11060000 		.4byte	.LASF186
 5926 0ab6 86       		.byte	0x86
 5927 0ab7 510C0000 		.4byte	0xc51
 5928 0abb 4404     		.2byte	0x444
 5929 0abd 24       		.uleb128 0x24
 5930 0abe 686300   		.ascii	"hc\000"
 5931 0ac1 87       		.byte	0x87
 5932 0ac2 18       		.byte	0x18
 5933 0ac3 560C0000 		.4byte	0xc56
 5934 0ac7 0005     		.2byte	0x500
 5935 0ac9 03       		.uleb128 0x3
 5936 0aca 75040000 		.4byte	.LASF187
 5937 0ace 88       		.byte	0x88
 5938 0acf 760C0000 		.4byte	0xc76
 5939 0ad3 0007     		.2byte	0x700
 5940 0ad5 03       		.uleb128 0x3
 5941 0ad6 3C000000 		.4byte	.LASF188
 5942 0ada 89       		.byte	0x89
 5943 0adb DF000000 		.4byte	0xdf
 5944 0adf 0008     		.2byte	0x800
 5945 0ae1 03       		.uleb128 0x3
 5946 0ae2 A00D0000 		.4byte	.LASF189
 5947 0ae6 8A       		.byte	0x8a
 5948 0ae7 DF000000 		.4byte	0xdf
 5949 0aeb 0408     		.2byte	0x804
 5950 0aed 03       		.uleb128 0x3
 5951 0aee AF040000 		.4byte	.LASF190
 5952 0af2 8B       		.byte	0x8b
 5953 0af3 DF000000 		.4byte	0xdf
 5954 0af7 0808     		.2byte	0x808
 5955 0af9 03       		.uleb128 0x3
 5956 0afa 3B0B0000 		.4byte	.LASF191
 5957 0afe 8C       		.byte	0x8c
 5958 0aff DF000000 		.4byte	0xdf
 5959 0b03 0C08     		.2byte	0x80c
 5960 0b05 03       		.uleb128 0x3
 5961 0b06 040C0000 		.4byte	.LASF192
 5962 0b0a 8D       		.byte	0x8d
 5963 0b0b DF000000 		.4byte	0xdf
 5964 0b0f 1008     		.2byte	0x810
 5965 0b11 03       		.uleb128 0x3
 5966 0b12 23060000 		.4byte	.LASF193
 5967 0b16 8F       		.byte	0x8f
 5968 0b17 DF000000 		.4byte	0xdf
 5969 0b1b 1408     		.2byte	0x814
 5970 0b1d 03       		.uleb128 0x3
 5971 0b1e 630E0000 		.4byte	.LASF194
 5972 0b22 91       		.byte	0x91
 5973 0b23 DF000000 		.4byte	0xdf
 5974 0b27 1808     		.2byte	0x818
 5975 0b29 03       		.uleb128 0x3
ARM GAS  C:\Users\DEVELO~1\AppData\Local\Temp\cc4r91NU.s 			page 106


 5976 0b2a E90B0000 		.4byte	.LASF195
 5977 0b2e 93       		.byte	0x93
 5978 0b2f DF000000 		.4byte	0xdf
 5979 0b33 1C08     		.2byte	0x81c
 5980 0b35 03       		.uleb128 0x3
 5981 0b36 AC0C0000 		.4byte	.LASF196
 5982 0b3a 95       		.byte	0x95
 5983 0b3b DF000000 		.4byte	0xdf
 5984 0b3f 2008     		.2byte	0x820
 5985 0b41 03       		.uleb128 0x3
 5986 0b42 CA0C0000 		.4byte	.LASF197
 5987 0b46 96       		.byte	0x96
 5988 0b47 DF000000 		.4byte	0xdf
 5989 0b4b 2408     		.2byte	0x824
 5990 0b4d 03       		.uleb128 0x3
 5991 0b4e 43020000 		.4byte	.LASF198
 5992 0b52 97       		.byte	0x97
 5993 0b53 DF000000 		.4byte	0xdf
 5994 0b57 2808     		.2byte	0x828
 5995 0b59 03       		.uleb128 0x3
 5996 0b5a BD080000 		.4byte	.LASF199
 5997 0b5e 99       		.byte	0x99
 5998 0b5f DF000000 		.4byte	0xdf
 5999 0b63 2C08     		.2byte	0x82c
 6000 0b65 03       		.uleb128 0x3
 6001 0b66 C20D0000 		.4byte	.LASF200
 6002 0b6a 9B       		.byte	0x9b
 6003 0b6b DF000000 		.4byte	0xdf
 6004 0b6f 3008     		.2byte	0x830
 6005 0b71 03       		.uleb128 0x3
 6006 0b72 CD020000 		.4byte	.LASF201
 6007 0b76 9C       		.byte	0x9c
 6008 0b77 DF000000 		.4byte	0xdf
 6009 0b7b 3408     		.2byte	0x834
 6010 0b7d 03       		.uleb128 0x3
 6011 0b7e D10D0000 		.4byte	.LASF202
 6012 0b82 9E       		.byte	0x9e
 6013 0b83 DF000000 		.4byte	0xdf
 6014 0b87 3808     		.2byte	0x838
 6015 0b89 03       		.uleb128 0x3
 6016 0b8a F70D0000 		.4byte	.LASF203
 6017 0b8e 9F       		.byte	0x9f
 6018 0b8f DF000000 		.4byte	0xdf
 6019 0b93 3C08     		.2byte	0x83c
 6020 0b95 03       		.uleb128 0x3
 6021 0b96 AF0E0000 		.4byte	.LASF204
 6022 0b9a A0       		.byte	0xa0
 6023 0b9b 2C010000 		.4byte	0x12c
 6024 0b9f 4008     		.2byte	0x840
 6025 0ba1 03       		.uleb128 0x3
 6026 0ba2 2A030000 		.4byte	.LASF205
 6027 0ba6 A1       		.byte	0xa1
 6028 0ba7 2C010000 		.4byte	0x12c
 6029 0bab 8008     		.2byte	0x880
 6030 0bad 03       		.uleb128 0x3
 6031 0bae 820E0000 		.4byte	.LASF206
 6032 0bb2 A2       		.byte	0xa2
ARM GAS  C:\Users\DEVELO~1\AppData\Local\Temp\cc4r91NU.s 			page 107


 6033 0bb3 2C010000 		.4byte	0x12c
 6034 0bb7 C008     		.2byte	0x8c0
 6035 0bb9 24       		.uleb128 0x24
 6036 0bba 696500   		.ascii	"ie\000"
 6037 0bbd A3       		.byte	0xa3
 6038 0bbe 15       		.byte	0x15
 6039 0bbf 7B0C0000 		.4byte	0xc7b
 6040 0bc3 0009     		.2byte	0x900
 6041 0bc5 24       		.uleb128 0x24
 6042 0bc6 6F6500   		.ascii	"oe\000"
 6043 0bc9 A4       		.byte	0xa4
 6044 0bca 16       		.byte	0x16
 6045 0bcb 8B0C0000 		.4byte	0xc8b
 6046 0bcf 000B     		.2byte	0xb00
 6047 0bd1 03       		.uleb128 0x3
 6048 0bd2 03070000 		.4byte	.LASF207
 6049 0bd6 A5       		.byte	0xa5
 6050 0bd7 760C0000 		.4byte	0xc76
 6051 0bdb 000D     		.2byte	0xd00
 6052 0bdd 03       		.uleb128 0x3
 6053 0bde 690B0000 		.4byte	.LASF208
 6054 0be2 A6       		.byte	0xa6
 6055 0be3 DF000000 		.4byte	0xdf
 6056 0be7 000E     		.2byte	0xe00
 6057 0be9 03       		.uleb128 0x3
 6058 0bea 320D0000 		.4byte	.LASF209
 6059 0bee A8       		.byte	0xa8
 6060 0bef AB0C0000 		.4byte	0xcab
 6061 0bf3 040E     		.2byte	0xe04
 6062 0bf5 03       		.uleb128 0x3
 6063 0bf6 92080000 		.4byte	.LASF210
 6064 0bfa A9       		.byte	0xa9
 6065 0bfb C70C0000 		.4byte	0xcc7
 6066 0bff 0010     		.2byte	0x1000
 6067 0c01 00       		.byte	0
 6068 0c02 07       		.uleb128 0x7
 6069 0c03 DF000000 		.4byte	0xdf
 6070 0c07 120C0000 		.4byte	0xc12
 6071 0c0b 08       		.uleb128 0x8
 6072 0c0c 39000000 		.4byte	0x39
 6073 0c10 2F       		.byte	0x2f
 6074 0c11 00       		.byte	0
 6075 0c12 10       		.uleb128 0x10
 6076 0c13 020C0000 		.4byte	0xc02
 6077 0c17 07       		.uleb128 0x7
 6078 0c18 DF000000 		.4byte	0xdf
 6079 0c1c 270C0000 		.4byte	0xc27
 6080 0c20 08       		.uleb128 0x8
 6081 0c21 39000000 		.4byte	0x39
 6082 0c25 AF       		.byte	0xaf
 6083 0c26 00       		.byte	0
 6084 0c27 10       		.uleb128 0x10
 6085 0c28 170C0000 		.4byte	0xc17
 6086 0c2c 07       		.uleb128 0x7
 6087 0c2d DF000000 		.4byte	0xdf
 6088 0c31 3C0C0000 		.4byte	0xc3c
 6089 0c35 08       		.uleb128 0x8
ARM GAS  C:\Users\DEVELO~1\AppData\Local\Temp\cc4r91NU.s 			page 108


 6090 0c36 39000000 		.4byte	0x39
 6091 0c3a 08       		.byte	0x8
 6092 0c3b 00       		.byte	0
 6093 0c3c 10       		.uleb128 0x10
 6094 0c3d 2C0C0000 		.4byte	0xc2c
 6095 0c41 07       		.uleb128 0x7
 6096 0c42 DF000000 		.4byte	0xdf
 6097 0c46 510C0000 		.4byte	0xc51
 6098 0c4a 08       		.uleb128 0x8
 6099 0c4b 39000000 		.4byte	0x39
 6100 0c4f 2E       		.byte	0x2e
 6101 0c50 00       		.byte	0
 6102 0c51 10       		.uleb128 0x10
 6103 0c52 410C0000 		.4byte	0xc41
 6104 0c56 07       		.uleb128 0x7
 6105 0c57 76080000 		.4byte	0x876
 6106 0c5b 660C0000 		.4byte	0xc66
 6107 0c5f 08       		.uleb128 0x8
 6108 0c60 39000000 		.4byte	0x39
 6109 0c64 0F       		.byte	0xf
 6110 0c65 00       		.byte	0
 6111 0c66 07       		.uleb128 0x7
 6112 0c67 DF000000 		.4byte	0xdf
 6113 0c6b 760C0000 		.4byte	0xc76
 6114 0c6f 08       		.uleb128 0x8
 6115 0c70 39000000 		.4byte	0x39
 6116 0c74 3F       		.byte	0x3f
 6117 0c75 00       		.byte	0
 6118 0c76 10       		.uleb128 0x10
 6119 0c77 660C0000 		.4byte	0xc66
 6120 0c7b 07       		.uleb128 0x7
 6121 0c7c E1080000 		.4byte	0x8e1
 6122 0c80 8B0C0000 		.4byte	0xc8b
 6123 0c84 08       		.uleb128 0x8
 6124 0c85 39000000 		.4byte	0x39
 6125 0c89 0F       		.byte	0xf
 6126 0c8a 00       		.byte	0
 6127 0c8b 07       		.uleb128 0x7
 6128 0c8c 4C090000 		.4byte	0x94c
 6129 0c90 9B0C0000 		.4byte	0xc9b
 6130 0c94 08       		.uleb128 0x8
 6131 0c95 39000000 		.4byte	0x39
 6132 0c99 0F       		.byte	0xf
 6133 0c9a 00       		.byte	0
 6134 0c9b 07       		.uleb128 0x7
 6135 0c9c DF000000 		.4byte	0xdf
 6136 0ca0 AB0C0000 		.4byte	0xcab
 6137 0ca4 08       		.uleb128 0x8
 6138 0ca5 39000000 		.4byte	0x39
 6139 0ca9 7E       		.byte	0x7e
 6140 0caa 00       		.byte	0
 6141 0cab 10       		.uleb128 0x10
 6142 0cac 9B0C0000 		.4byte	0xc9b
 6143 0cb0 07       		.uleb128 0x7
 6144 0cb1 DF000000 		.4byte	0xdf
 6145 0cb5 C70C0000 		.4byte	0xcc7
 6146 0cb9 08       		.uleb128 0x8
ARM GAS  C:\Users\DEVELO~1\AppData\Local\Temp\cc4r91NU.s 			page 109


 6147 0cba 39000000 		.4byte	0x39
 6148 0cbe 0F       		.byte	0xf
 6149 0cbf 34       		.uleb128 0x34
 6150 0cc0 39000000 		.4byte	0x39
 6151 0cc4 FF03     		.2byte	0x3ff
 6152 0cc6 00       		.byte	0
 6153 0cc7 10       		.uleb128 0x10
 6154 0cc8 B00C0000 		.4byte	0xcb0
 6155 0ccc 0E       		.uleb128 0xe
 6156 0ccd 87090000 		.4byte	.LASF211
 6157 0cd1 0F       		.byte	0xf
 6158 0cd2 AA       		.byte	0xaa
 6159 0cd3 03       		.byte	0x3
 6160 0cd4 58090000 		.4byte	0x958
 6161 0cd8 1A       		.uleb128 0x1a
 6162 0cd9 0C       		.byte	0xc
 6163 0cda 0E       		.byte	0xe
 6164 0cdb 0401     		.2byte	0x104
 6165 0cdd 0C0D0000 		.4byte	0xd0c
 6166 0ce1 01       		.uleb128 0x1
 6167 0ce2 AC050000 		.4byte	.LASF212
 6168 0ce6 0E       		.byte	0xe
 6169 0ce7 0501     		.2byte	0x105
 6170 0ce9 21       		.byte	0x21
 6171 0cea D3000000 		.4byte	0xd3
 6172 0cee 00       		.byte	0
 6173 0cef 01       		.uleb128 0x1
 6174 0cf0 4D010000 		.4byte	.LASF213
 6175 0cf4 0E       		.byte	0xe
 6176 0cf5 0601     		.2byte	0x106
 6177 0cf7 21       		.byte	0x21
 6178 0cf8 D3000000 		.4byte	0xd3
 6179 0cfc 04       		.byte	0x4
 6180 0cfd 01       		.uleb128 0x1
 6181 0cfe 73020000 		.4byte	.LASF214
 6182 0d02 0E       		.byte	0xe
 6183 0d03 0701     		.2byte	0x107
 6184 0d05 21       		.byte	0x21
 6185 0d06 D3000000 		.4byte	0xd3
 6186 0d0a 08       		.byte	0x8
 6187 0d0b 00       		.byte	0
 6188 0d0c 0C       		.uleb128 0xc
 6189 0d0d A6070000 		.4byte	.LASF215
 6190 0d11 0E       		.byte	0xe
 6191 0d12 0801     		.2byte	0x108
 6192 0d14 03       		.byte	0x3
 6193 0d15 D80C0000 		.4byte	0xcd8
 6194 0d19 13       		.uleb128 0x13
 6195 0d1a 0C0D0000 		.4byte	0xd0c
 6196 0d1e 1A       		.uleb128 0x1a
 6197 0d1f 10       		.byte	0x10
 6198 0d20 0E       		.byte	0xe
 6199 0d21 0D01     		.2byte	0x10d
 6200 0d23 600D0000 		.4byte	0xd60
 6201 0d27 01       		.uleb128 0x1
 6202 0d28 35000000 		.4byte	.LASF216
 6203 0d2c 0E       		.byte	0xe
ARM GAS  C:\Users\DEVELO~1\AppData\Local\Temp\cc4r91NU.s 			page 110


 6204 0d2d 1101     		.2byte	0x111
 6205 0d2f 21       		.byte	0x21
 6206 0d30 2D000000 		.4byte	0x2d
 6207 0d34 00       		.byte	0
 6208 0d35 01       		.uleb128 0x1
 6209 0d36 63030000 		.4byte	.LASF217
 6210 0d3a 0E       		.byte	0xe
 6211 0d3b 1501     		.2byte	0x115
 6212 0d3d 21       		.byte	0x21
 6213 0d3e 2D000000 		.4byte	0x2d
 6214 0d42 04       		.byte	0x4
 6215 0d43 01       		.uleb128 0x1
 6216 0d44 350B0000 		.4byte	.LASF218
 6217 0d48 0E       		.byte	0xe
 6218 0d49 1901     		.2byte	0x119
 6219 0d4b 22       		.byte	0x22
 6220 0d4c FD040000 		.4byte	0x4fd
 6221 0d50 08       		.byte	0x8
 6222 0d51 01       		.uleb128 0x1
 6223 0d52 EF0C0000 		.4byte	.LASF219
 6224 0d56 0E       		.byte	0xe
 6225 0d57 2401     		.2byte	0x124
 6226 0d59 21       		.byte	0x21
 6227 0d5a 2D000000 		.4byte	0x2d
 6228 0d5e 0C       		.byte	0xc
 6229 0d5f 00       		.byte	0
 6230 0d60 0C       		.uleb128 0xc
 6231 0d61 DA0D0000 		.4byte	.LASF220
 6232 0d65 0E       		.byte	0xe
 6233 0d66 2501     		.2byte	0x125
 6234 0d68 03       		.byte	0x3
 6235 0d69 1E0D0000 		.4byte	0xd1e
 6236 0d6d 1A       		.uleb128 0x1a
 6237 0d6e 10       		.byte	0x10
 6238 0d6f 0E       		.byte	0xe
 6239 0d70 2A01     		.2byte	0x12a
 6240 0d72 AF0D0000 		.4byte	0xdaf
 6241 0d76 01       		.uleb128 0x1
 6242 0d77 64020000 		.4byte	.LASF221
 6243 0d7b 0E       		.byte	0xe
 6244 0d7c 2E01     		.2byte	0x12e
 6245 0d7e 21       		.byte	0x21
 6246 0d7f 2D000000 		.4byte	0x2d
 6247 0d83 00       		.byte	0
 6248 0d84 01       		.uleb128 0x1
 6249 0d85 720E0000 		.4byte	.LASF222
 6250 0d89 0E       		.byte	0xe
 6251 0d8a 3201     		.2byte	0x132
 6252 0d8c 21       		.byte	0x21
 6253 0d8d 2D000000 		.4byte	0x2d
 6254 0d91 04       		.byte	0x4
 6255 0d92 01       		.uleb128 0x1
 6256 0d93 220F0000 		.4byte	.LASF223
 6257 0d97 0E       		.byte	0xe
 6258 0d98 3601     		.2byte	0x136
 6259 0d9a 22       		.byte	0x22
 6260 0d9b F3040000 		.4byte	0x4f3
ARM GAS  C:\Users\DEVELO~1\AppData\Local\Temp\cc4r91NU.s 			page 111


 6261 0d9f 08       		.byte	0x8
 6262 0da0 01       		.uleb128 0x1
 6263 0da1 EF0C0000 		.4byte	.LASF219
 6264 0da5 0E       		.byte	0xe
 6265 0da6 4101     		.2byte	0x141
 6266 0da8 21       		.byte	0x21
 6267 0da9 2D000000 		.4byte	0x2d
 6268 0dad 0C       		.byte	0xc
 6269 0dae 00       		.byte	0
 6270 0daf 0C       		.uleb128 0xc
 6271 0db0 DB0A0000 		.4byte	.LASF224
 6272 0db4 0E       		.byte	0xe
 6273 0db5 4201     		.2byte	0x142
 6274 0db7 03       		.byte	0x3
 6275 0db8 6D0D0000 		.4byte	0xd6d
 6276 0dbc 1A       		.uleb128 0x1a
 6277 0dbd 24       		.byte	0x24
 6278 0dbe 0E       		.byte	0xe
 6279 0dbf 4801     		.2byte	0x148
 6280 0dc1 520E0000 		.4byte	0xe52
 6281 0dc5 01       		.uleb128 0x1
 6282 0dc6 79010000 		.4byte	.LASF225
 6283 0dca 0E       		.byte	0xe
 6284 0dcb 4C01     		.2byte	0x14c
 6285 0dcd 21       		.byte	0x21
 6286 0dce D3000000 		.4byte	0xd3
 6287 0dd2 00       		.byte	0
 6288 0dd3 01       		.uleb128 0x1
 6289 0dd4 FE0C0000 		.4byte	.LASF226
 6290 0dd8 0E       		.byte	0xe
 6291 0dd9 5701     		.2byte	0x157
 6292 0ddb 21       		.byte	0x21
 6293 0ddc 7D070000 		.4byte	0x77d
 6294 0de0 04       		.byte	0x4
 6295 0de1 01       		.uleb128 0x1
 6296 0de2 0C070000 		.4byte	.LASF227
 6297 0de6 0E       		.byte	0xe
 6298 0de7 5C01     		.2byte	0x15c
 6299 0de9 21       		.byte	0x21
 6300 0dea 7D070000 		.4byte	0x77d
 6301 0dee 08       		.byte	0x8
 6302 0def 01       		.uleb128 0x1
 6303 0df0 15010000 		.4byte	.LASF228
 6304 0df4 0E       		.byte	0xe
 6305 0df5 6101     		.2byte	0x161
 6306 0df7 21       		.byte	0x21
 6307 0df8 7D070000 		.4byte	0x77d
 6308 0dfc 0C       		.byte	0xc
 6309 0dfd 01       		.uleb128 0x1
 6310 0dfe C4030000 		.4byte	.LASF229
 6311 0e02 0E       		.byte	0xe
 6312 0e03 6601     		.2byte	0x166
 6313 0e05 21       		.byte	0x21
 6314 0e06 C7000000 		.4byte	0xc7
 6315 0e0a 10       		.byte	0x10
 6316 0e0b 01       		.uleb128 0x1
 6317 0e0c B60D0000 		.4byte	.LASF230
ARM GAS  C:\Users\DEVELO~1\AppData\Local\Temp\cc4r91NU.s 			page 112


 6318 0e10 0E       		.byte	0xe
 6319 0e11 6B01     		.2byte	0x16b
 6320 0e13 21       		.byte	0x21
 6321 0e14 C7000000 		.4byte	0xc7
 6322 0e18 12       		.byte	0x12
 6323 0e19 01       		.uleb128 0x1
 6324 0e1a 79060000 		.4byte	.LASF231
 6325 0e1e 0E       		.byte	0xe
 6326 0e1f 7101     		.2byte	0x171
 6327 0e21 22       		.byte	0x22
 6328 0e22 520E0000 		.4byte	0xe52
 6329 0e26 14       		.byte	0x14
 6330 0e27 01       		.uleb128 0x1
 6331 0e28 D2070000 		.4byte	.LASF232
 6332 0e2c 0E       		.byte	0xe
 6333 0e2d 7701     		.2byte	0x177
 6334 0e2f 22       		.byte	0x22
 6335 0e30 570E0000 		.4byte	0xe57
 6336 0e34 18       		.byte	0x18
 6337 0e35 01       		.uleb128 0x1
 6338 0e36 4C0E0000 		.4byte	.LASF233
 6339 0e3a 0E       		.byte	0xe
 6340 0e3b 7E01     		.2byte	0x17e
 6341 0e3d 21       		.byte	0x21
 6342 0e3e C7000000 		.4byte	0xc7
 6343 0e42 1C       		.byte	0x1c
 6344 0e43 01       		.uleb128 0x1
 6345 0e44 A5080000 		.4byte	.LASF234
 6346 0e48 0E       		.byte	0xe
 6347 0e49 8401     		.2byte	0x184
 6348 0e4b 22       		.byte	0x22
 6349 0e4c F3040000 		.4byte	0x4f3
 6350 0e50 20       		.byte	0x20
 6351 0e51 00       		.byte	0
 6352 0e52 0B       		.uleb128 0xb
 6353 0e53 600D0000 		.4byte	0xd60
 6354 0e57 0B       		.uleb128 0xb
 6355 0e58 AF0D0000 		.4byte	0xdaf
 6356 0e5c 0C       		.uleb128 0xc
 6357 0e5d 90030000 		.4byte	.LASF235
 6358 0e61 0E       		.byte	0xe
 6359 0e62 8501     		.2byte	0x185
 6360 0e64 03       		.byte	0x3
 6361 0e65 BC0D0000 		.4byte	0xdbc
 6362 0e69 13       		.uleb128 0x13
 6363 0e6a 5C0E0000 		.4byte	0xe5c
 6364 0e6e 1A       		.uleb128 0x1a
 6365 0e6f 10       		.byte	0x10
 6366 0e70 0E       		.byte	0xe
 6367 0e71 8A01     		.2byte	0x18a
 6368 0e73 B00E0000 		.4byte	0xeb0
 6369 0e77 01       		.uleb128 0x1
 6370 0e78 A50D0000 		.4byte	.LASF236
 6371 0e7c 0E       		.byte	0xe
 6372 0e7d 8F01     		.2byte	0x18f
 6373 0e7f 21       		.byte	0x21
 6374 0e80 9F070000 		.4byte	0x79f
ARM GAS  C:\Users\DEVELO~1\AppData\Local\Temp\cc4r91NU.s 			page 113


 6375 0e84 00       		.byte	0
 6376 0e85 01       		.uleb128 0x1
 6377 0e86 FD080000 		.4byte	.LASF237
 6378 0e8a 0E       		.byte	0xe
 6379 0e8b 9401     		.2byte	0x194
 6380 0e8d 21       		.byte	0x21
 6381 0e8e E2070000 		.4byte	0x7e2
 6382 0e92 04       		.byte	0x4
 6383 0e93 01       		.uleb128 0x1
 6384 0e94 B1000000 		.4byte	.LASF238
 6385 0e98 0E       		.byte	0xe
 6386 0e99 9A01     		.2byte	0x19a
 6387 0e9b 21       		.byte	0x21
 6388 0e9c C1070000 		.4byte	0x7c1
 6389 0ea0 08       		.byte	0x8
 6390 0ea1 01       		.uleb128 0x1
 6391 0ea2 33080000 		.4byte	.LASF239
 6392 0ea6 0E       		.byte	0xe
 6393 0ea7 9E01     		.2byte	0x19e
 6394 0ea9 21       		.byte	0x21
 6395 0eaa 5B070000 		.4byte	0x75b
 6396 0eae 0C       		.byte	0xc
 6397 0eaf 00       		.byte	0
 6398 0eb0 0C       		.uleb128 0xc
 6399 0eb1 4F090000 		.4byte	.LASF240
 6400 0eb5 0E       		.byte	0xe
 6401 0eb6 A001     		.2byte	0x1a0
 6402 0eb8 03       		.byte	0x3
 6403 0eb9 6E0E0000 		.4byte	0xe6e
 6404 0ebd 13       		.uleb128 0x13
 6405 0ebe B00E0000 		.4byte	0xeb0
 6406 0ec2 0B       		.uleb128 0xb
 6407 0ec3 BD0E0000 		.4byte	0xebd
 6408 0ec7 07       		.uleb128 0x7
 6409 0ec8 D70E0000 		.4byte	0xed7
 6410 0ecc D70E0000 		.4byte	0xed7
 6411 0ed0 08       		.uleb128 0x8
 6412 0ed1 39000000 		.4byte	0x39
 6413 0ed5 08       		.byte	0x8
 6414 0ed6 00       		.byte	0
 6415 0ed7 0B       		.uleb128 0xb
 6416 0ed8 690E0000 		.4byte	0xe69
 6417 0edc 07       		.uleb128 0x7
 6418 0edd A3000000 		.4byte	0xa3
 6419 0ee1 EC0E0000 		.4byte	0xeec
 6420 0ee5 08       		.uleb128 0x8
 6421 0ee6 39000000 		.4byte	0x39
 6422 0eea 07       		.byte	0x7
 6423 0eeb 00       		.byte	0
 6424 0eec 07       		.uleb128 0x7
 6425 0eed B6000000 		.4byte	0xb6
 6426 0ef1 FC0E0000 		.4byte	0xefc
 6427 0ef5 08       		.uleb128 0x8
 6428 0ef6 39000000 		.4byte	0x39
 6429 0efa 07       		.byte	0x7
 6430 0efb 00       		.byte	0
 6431 0efc 0B       		.uleb128 0xb
ARM GAS  C:\Users\DEVELO~1\AppData\Local\Temp\cc4r91NU.s 			page 114


 6432 0efd CC0C0000 		.4byte	0xccc
 6433 0f01 0B       		.uleb128 0xb
 6434 0f02 190D0000 		.4byte	0xd19
 6435 0f06 35       		.uleb128 0x35
 6436 0f07 CB0D0000 		.4byte	.LASF318
 6437 0f0b 0E       		.byte	0xe
 6438 0f0c 4102     		.2byte	0x241
 6439 0f0e 12       		.byte	0x12
 6440 0f0f 02050000 		.4byte	0x502
 6441 0f13 36       		.uleb128 0x36
 6442 0f14 060F0000 		.4byte	0xf06
 6443 0f18 06       		.byte	0x6
 6444 0f19 4F       		.byte	0x4f
 6445 0f1a 0B       		.byte	0xb
 6446 0f1b 05       		.uleb128 0x5
 6447 0f1c 03       		.byte	0x3
 6448 0f1d 00000000 		.4byte	USBD1
 6449 0f21 37       		.uleb128 0x37
 6450 0f22 10       		.byte	0x10
 6451 0f23 06       		.byte	0x6
 6452 0f24 60       		.byte	0x60
 6453 0f25 08       		.byte	0x8
 6454 0f26 400F0000 		.4byte	0xf40
 6455 0f2a 27       		.uleb128 0x27
 6456 0f2b 696E00   		.ascii	"in\000"
 6457 0f2e 64       		.byte	0x64
 6458 0f2f 16       		.byte	0x16
 6459 0f30 600D0000 		.4byte	0xd60
 6460 0f34 27       		.uleb128 0x27
 6461 0f35 6F757400 		.ascii	"out\000"
 6462 0f39 68       		.byte	0x68
 6463 0f3a 17       		.byte	0x17
 6464 0f3b AF0D0000 		.4byte	0xdaf
 6465 0f3f 00       		.byte	0
 6466 0f40 11       		.uleb128 0x11
 6467 0f41 780E0000 		.4byte	.LASF241
 6468 0f45 69       		.byte	0x69
 6469 0f46 03       		.byte	0x3
 6470 0f47 210F0000 		.4byte	0xf21
 6471 0f4b 05       		.uleb128 0x5
 6472 0f4c 03       		.byte	0x3
 6473 0f4d 00000000 		.4byte	ep0_state
 6474 0f51 11       		.uleb128 0x11
 6475 0f52 90000000 		.4byte	.LASF242
 6476 0f56 6E       		.byte	0x6e
 6477 0f57 10       		.byte	0x10
 6478 0f58 EC0E0000 		.4byte	0xeec
 6479 0f5c 05       		.uleb128 0x5
 6480 0f5d 03       		.byte	0x3
 6481 0f5e 00000000 		.4byte	ep0setup_buffer
 6482 0f62 11       		.uleb128 0x11
 6483 0f63 C8080000 		.4byte	.LASF243
 6484 0f67 73       		.byte	0x73
 6485 0f68 20       		.byte	0x20
 6486 0f69 690E0000 		.4byte	0xe69
 6487 0f6d 05       		.uleb128 0x5
 6488 0f6e 03       		.byte	0x3
ARM GAS  C:\Users\DEVELO~1\AppData\Local\Temp\cc4r91NU.s 			page 115


 6489 0f6f 00000000 		.4byte	ep0config
 6490 0f73 11       		.uleb128 0x11
 6491 0f74 D3010000 		.4byte	.LASF244
 6492 0f78 81       		.byte	0x81
 6493 0f79 21       		.byte	0x21
 6494 0f7a 190D0000 		.4byte	0xd19
 6495 0f7e 05       		.uleb128 0x5
 6496 0f7f 03       		.byte	0x3
 6497 0f80 00000000 		.4byte	fsparams
 6498 0f84 38       		.uleb128 0x38
 6499 0f85 210E0000 		.4byte	.LASF319
 6500 0f89 12       		.byte	0x12
 6501 0f8a 1F       		.byte	0x1f
 6502 0f8b 09       		.byte	0x9
 6503 0f8c A3000000 		.4byte	0xa3
 6504 0f90 A40F0000 		.4byte	0xfa4
 6505 0f94 04       		.uleb128 0x4
 6506 0f95 A3000000 		.4byte	0xa3
 6507 0f99 04       		.uleb128 0x4
 6508 0f9a A40F0000 		.4byte	0xfa4
 6509 0f9e 04       		.uleb128 0x4
 6510 0f9f 2D000000 		.4byte	0x2d
 6511 0fa3 00       		.byte	0
 6512 0fa4 0B       		.uleb128 0xb
 6513 0fa5 A90F0000 		.4byte	0xfa9
 6514 0fa9 39       		.uleb128 0x39
 6515 0faa 1E       		.uleb128 0x1e
 6516 0fab 09020000 		.4byte	.LASF245
 6517 0faf 10       		.byte	0x10
 6518 0fb0 50       		.byte	0x50
 6519 0fb1 BB0F0000 		.4byte	0xfbb
 6520 0fb5 04       		.uleb128 0x4
 6521 0fb6 D3000000 		.4byte	0xd3
 6522 0fba 00       		.byte	0
 6523 0fbb 1E       		.uleb128 0x1e
 6524 0fbc 0C0A0000 		.4byte	.LASF246
 6525 0fc0 10       		.byte	0x10
 6526 0fc1 4F       		.byte	0x4f
 6527 0fc2 D10F0000 		.4byte	0xfd1
 6528 0fc6 04       		.uleb128 0x4
 6529 0fc7 D3000000 		.4byte	0xd3
 6530 0fcb 04       		.uleb128 0x4
 6531 0fcc D3000000 		.4byte	0xd3
 6532 0fd0 00       		.byte	0
 6533 0fd1 15       		.uleb128 0x15
 6534 0fd2 8A060000 		.4byte	.LASF247
 6535 0fd6 0D       		.byte	0xd
 6536 0fd7 5E02     		.2byte	0x25e
 6537 0fd9 E30F0000 		.4byte	0xfe3
 6538 0fdd 04       		.uleb128 0x4
 6539 0fde 78070000 		.4byte	0x778
 6540 0fe2 00       		.byte	0
 6541 0fe3 3A       		.uleb128 0x3a
 6542 0fe4 53070000 		.4byte	.LASF320
 6543 0fe8 03       		.byte	0x3
 6544 0fe9 F402     		.2byte	0x2f4
 6545 0feb 08       		.byte	0x8
ARM GAS  C:\Users\DEVELO~1\AppData\Local\Temp\cc4r91NU.s 			page 116


 6546 0fec 1E       		.uleb128 0x1e
 6547 0fed 310C0000 		.4byte	.LASF248
 6548 0ff1 11       		.byte	0x11
 6549 0ff2 FF       		.byte	0xff
 6550 0ff3 FD0F0000 		.4byte	0xffd
 6551 0ff7 04       		.uleb128 0x4
 6552 0ff8 B1000000 		.4byte	0xb1
 6553 0ffc 00       		.byte	0
 6554 0ffd 1E       		.uleb128 0x1e
 6555 0ffe 9D0E0000 		.4byte	.LASF249
 6556 1002 11       		.byte	0x11
 6557 1003 FE       		.byte	0xfe
 6558 1004 0E100000 		.4byte	0x100e
 6559 1008 04       		.uleb128 0x4
 6560 1009 B1000000 		.4byte	0xb1
 6561 100d 00       		.byte	0
 6562 100e 15       		.uleb128 0x15
 6563 100f 28000000 		.4byte	.LASF250
 6564 1013 0D       		.byte	0xd
 6565 1014 7102     		.2byte	0x271
 6566 1016 20100000 		.4byte	0x1020
 6567 101a 04       		.uleb128 0x4
 6568 101b 78070000 		.4byte	0x778
 6569 101f 00       		.byte	0
 6570 1020 15       		.uleb128 0x15
 6571 1021 FE070000 		.4byte	.LASF251
 6572 1025 0D       		.byte	0xd
 6573 1026 7202     		.2byte	0x272
 6574 1028 32100000 		.4byte	0x1032
 6575 102c 04       		.uleb128 0x4
 6576 102d 78070000 		.4byte	0x778
 6577 1031 00       		.byte	0
 6578 1032 15       		.uleb128 0x15
 6579 1033 9F010000 		.4byte	.LASF252
 6580 1037 0D       		.byte	0xd
 6581 1038 7002     		.2byte	0x270
 6582 103a 44100000 		.4byte	0x1044
 6583 103e 04       		.uleb128 0x4
 6584 103f 78070000 		.4byte	0x778
 6585 1043 00       		.byte	0
 6586 1044 15       		.uleb128 0x15
 6587 1045 AE090000 		.4byte	.LASF253
 6588 1049 01       		.byte	0x1
 6589 104a 5601     		.2byte	0x156
 6590 104c 56100000 		.4byte	0x1056
 6591 1050 04       		.uleb128 0x4
 6592 1051 F0000000 		.4byte	0xf0
 6593 1055 00       		.byte	0
 6594 1056 15       		.uleb128 0x15
 6595 1057 B8030000 		.4byte	.LASF254
 6596 105b 0D       		.byte	0xd
 6597 105c 7502     		.2byte	0x275
 6598 105e 6D100000 		.4byte	0x106d
 6599 1062 04       		.uleb128 0x4
 6600 1063 78070000 		.4byte	0x778
 6601 1067 04       		.uleb128 0x4
 6602 1068 28060000 		.4byte	0x628
ARM GAS  C:\Users\DEVELO~1\AppData\Local\Temp\cc4r91NU.s 			page 117


 6603 106c 00       		.byte	0
 6604 106d 15       		.uleb128 0x15
 6605 106e 9B0A0000 		.4byte	.LASF255
 6606 1072 0D       		.byte	0xd
 6607 1073 7402     		.2byte	0x274
 6608 1075 84100000 		.4byte	0x1084
 6609 1079 04       		.uleb128 0x4
 6610 107a 78070000 		.4byte	0x778
 6611 107e 04       		.uleb128 0x4
 6612 107f 28060000 		.4byte	0x628
 6613 1083 00       		.byte	0
 6614 1084 15       		.uleb128 0x15
 6615 1085 AF080000 		.4byte	.LASF256
 6616 1089 0D       		.byte	0xd
 6617 108a 7302     		.2byte	0x273
 6618 108c 9B100000 		.4byte	0x109b
 6619 1090 04       		.uleb128 0x4
 6620 1091 78070000 		.4byte	0x778
 6621 1095 04       		.uleb128 0x4
 6622 1096 28060000 		.4byte	0x628
 6623 109a 00       		.byte	0
 6624 109b 17       		.uleb128 0x17
 6625 109c 77070000 		.4byte	.LASF258
 6626 10a0 2205     		.2byte	0x522
 6627 10a2 00000000 		.4byte	.LFB464
 6628 10a6 3A000000 		.4byte	.LFE464-.LFB464
 6629 10aa 01       		.uleb128 0x1
 6630 10ab 9C       		.byte	0x9c
 6631 10ac D0100000 		.4byte	0x10d0
 6632 10b0 05       		.uleb128 0x5
 6633 10b1 91010000 		.4byte	.LASF257
 6634 10b5 06       		.byte	0x6
 6635 10b6 2205     		.2byte	0x522
 6636 10b8 22       		.byte	0x22
 6637 10b9 78070000 		.4byte	0x778
 6638 10bd 02       		.uleb128 0x2
 6639 10be 91       		.byte	0x91
 6640 10bf 74       		.sleb128 -12
 6641 10c0 09       		.uleb128 0x9
 6642 10c1 657000   		.ascii	"ep\000"
 6643 10c4 06       		.byte	0x6
 6644 10c5 2205     		.2byte	0x522
 6645 10c7 30       		.byte	0x30
 6646 10c8 28060000 		.4byte	0x628
 6647 10cc 02       		.uleb128 0x2
 6648 10cd 91       		.byte	0x91
 6649 10ce 73       		.sleb128 -13
 6650 10cf 00       		.byte	0
 6651 10d0 17       		.uleb128 0x17
 6652 10d1 B80E0000 		.4byte	.LASF259
 6653 10d5 1505     		.2byte	0x515
 6654 10d7 00000000 		.4byte	.LFB463
 6655 10db 3A000000 		.4byte	.LFE463-.LFB463
 6656 10df 01       		.uleb128 0x1
 6657 10e0 9C       		.byte	0x9c
 6658 10e1 05110000 		.4byte	0x1105
 6659 10e5 05       		.uleb128 0x5
ARM GAS  C:\Users\DEVELO~1\AppData\Local\Temp\cc4r91NU.s 			page 118


 6660 10e6 91010000 		.4byte	.LASF257
 6661 10ea 06       		.byte	0x6
 6662 10eb 1505     		.2byte	0x515
 6663 10ed 23       		.byte	0x23
 6664 10ee 78070000 		.4byte	0x778
 6665 10f2 02       		.uleb128 0x2
 6666 10f3 91       		.byte	0x91
 6667 10f4 74       		.sleb128 -12
 6668 10f5 09       		.uleb128 0x9
 6669 10f6 657000   		.ascii	"ep\000"
 6670 10f9 06       		.byte	0x6
 6671 10fa 1505     		.2byte	0x515
 6672 10fc 31       		.byte	0x31
 6673 10fd 28060000 		.4byte	0x628
 6674 1101 02       		.uleb128 0x2
 6675 1102 91       		.byte	0x91
 6676 1103 73       		.sleb128 -13
 6677 1104 00       		.byte	0
 6678 1105 17       		.uleb128 0x17
 6679 1106 4B000000 		.4byte	.LASF260
 6680 110a 0805     		.2byte	0x508
 6681 110c 00000000 		.4byte	.LFB462
 6682 1110 3A000000 		.4byte	.LFE462-.LFB462
 6683 1114 01       		.uleb128 0x1
 6684 1115 9C       		.byte	0x9c
 6685 1116 3A110000 		.4byte	0x113a
 6686 111a 05       		.uleb128 0x5
 6687 111b 91010000 		.4byte	.LASF257
 6688 111f 06       		.byte	0x6
 6689 1120 0805     		.2byte	0x508
 6690 1122 22       		.byte	0x22
 6691 1123 78070000 		.4byte	0x778
 6692 1127 02       		.uleb128 0x2
 6693 1128 91       		.byte	0x91
 6694 1129 74       		.sleb128 -12
 6695 112a 09       		.uleb128 0x9
 6696 112b 657000   		.ascii	"ep\000"
 6697 112e 06       		.byte	0x6
 6698 112f 0805     		.2byte	0x508
 6699 1131 30       		.byte	0x30
 6700 1132 28060000 		.4byte	0x628
 6701 1136 02       		.uleb128 0x2
 6702 1137 91       		.byte	0x91
 6703 1138 73       		.sleb128 -13
 6704 1139 00       		.byte	0
 6705 113a 17       		.uleb128 0x17
 6706 113b 460F0000 		.4byte	.LASF261
 6707 113f FB04     		.2byte	0x4fb
 6708 1141 00000000 		.4byte	.LFB461
 6709 1145 3A000000 		.4byte	.LFE461-.LFB461
 6710 1149 01       		.uleb128 0x1
 6711 114a 9C       		.byte	0x9c
 6712 114b 6F110000 		.4byte	0x116f
 6713 114f 05       		.uleb128 0x5
 6714 1150 91010000 		.4byte	.LASF257
 6715 1154 06       		.byte	0x6
 6716 1155 FB04     		.2byte	0x4fb
ARM GAS  C:\Users\DEVELO~1\AppData\Local\Temp\cc4r91NU.s 			page 119


 6717 1157 23       		.byte	0x23
 6718 1158 78070000 		.4byte	0x778
 6719 115c 02       		.uleb128 0x2
 6720 115d 91       		.byte	0x91
 6721 115e 74       		.sleb128 -12
 6722 115f 09       		.uleb128 0x9
 6723 1160 657000   		.ascii	"ep\000"
 6724 1163 06       		.byte	0x6
 6725 1164 FB04     		.2byte	0x4fb
 6726 1166 31       		.byte	0x31
 6727 1167 28060000 		.4byte	0x628
 6728 116b 02       		.uleb128 0x2
 6729 116c 91       		.byte	0x91
 6730 116d 73       		.sleb128 -13
 6731 116e 00       		.byte	0
 6732 116f 17       		.uleb128 0x17
 6733 1170 60080000 		.4byte	.LASF262
 6734 1174 D004     		.2byte	0x4d0
 6735 1176 00000000 		.4byte	.LFB460
 6736 117a 5E010000 		.4byte	.LFE460-.LFB460
 6737 117e 01       		.uleb128 0x1
 6738 117f 9C       		.byte	0x9c
 6739 1180 CC110000 		.4byte	0x11cc
 6740 1184 05       		.uleb128 0x5
 6741 1185 91010000 		.4byte	.LASF257
 6742 1189 06       		.byte	0x6
 6743 118a D004     		.2byte	0x4d0
 6744 118c 22       		.byte	0x22
 6745 118d 78070000 		.4byte	0x778
 6746 1191 02       		.uleb128 0x2
 6747 1192 91       		.byte	0x91
 6748 1193 6C       		.sleb128 -20
 6749 1194 09       		.uleb128 0x9
 6750 1195 657000   		.ascii	"ep\000"
 6751 1198 06       		.byte	0x6
 6752 1199 D004     		.2byte	0x4d0
 6753 119b 30       		.byte	0x30
 6754 119c 28060000 		.4byte	0x628
 6755 11a0 02       		.uleb128 0x2
 6756 11a1 91       		.byte	0x91
 6757 11a2 6B       		.sleb128 -21
 6758 11a3 0A       		.uleb128 0xa
 6759 11a4 69737000 		.ascii	"isp\000"
 6760 11a8 D104     		.2byte	0x4d1
 6761 11aa 17       		.byte	0x17
 6762 11ab 520E0000 		.4byte	0xe52
 6763 11af 02       		.uleb128 0x2
 6764 11b0 91       		.byte	0x91
 6765 11b1 74       		.sleb128 -12
 6766 11b2 1F       		.uleb128 0x1f
 6767 11b3 44000000 		.4byte	.LBB41
 6768 11b7 5E000000 		.4byte	.LBE41-.LBB41
 6769 11bb 0D       		.uleb128 0xd
 6770 11bc 0C0C0000 		.4byte	.LASF263
 6771 11c0 DE04     		.2byte	0x4de
 6772 11c2 0E       		.byte	0xe
 6773 11c3 D3000000 		.4byte	0xd3
ARM GAS  C:\Users\DEVELO~1\AppData\Local\Temp\cc4r91NU.s 			page 120


 6774 11c7 02       		.uleb128 0x2
 6775 11c8 91       		.byte	0x91
 6776 11c9 70       		.sleb128 -16
 6777 11ca 00       		.byte	0
 6778 11cb 00       		.byte	0
 6779 11cc 17       		.uleb128 0x17
 6780 11cd F20B0000 		.4byte	.LASF264
 6781 11d1 A504     		.2byte	0x4a5
 6782 11d3 00000000 		.4byte	.LFB459
 6783 11d7 3E010000 		.4byte	.LFE459-.LFB459
 6784 11db 01       		.uleb128 0x1
 6785 11dc 9C       		.byte	0x9c
 6786 11dd 2E120000 		.4byte	0x122e
 6787 11e1 05       		.uleb128 0x5
 6788 11e2 91010000 		.4byte	.LASF257
 6789 11e6 06       		.byte	0x6
 6790 11e7 A504     		.2byte	0x4a5
 6791 11e9 23       		.byte	0x23
 6792 11ea 78070000 		.4byte	0x778
 6793 11ee 02       		.uleb128 0x2
 6794 11ef 91       		.byte	0x91
 6795 11f0 64       		.sleb128 -28
 6796 11f1 09       		.uleb128 0x9
 6797 11f2 657000   		.ascii	"ep\000"
 6798 11f5 06       		.byte	0x6
 6799 11f6 A504     		.2byte	0x4a5
 6800 11f8 31       		.byte	0x31
 6801 11f9 28060000 		.4byte	0x628
 6802 11fd 02       		.uleb128 0x2
 6803 11fe 91       		.byte	0x91
 6804 11ff 63       		.sleb128 -29
 6805 1200 0D       		.uleb128 0xd
 6806 1201 0C0C0000 		.4byte	.LASF263
 6807 1205 A604     		.2byte	0x4a6
 6808 1207 0C       		.byte	0xc
 6809 1208 D3000000 		.4byte	0xd3
 6810 120c 02       		.uleb128 0x2
 6811 120d 91       		.byte	0x91
 6812 120e 70       		.sleb128 -16
 6813 120f 0D       		.uleb128 0xd
 6814 1210 64020000 		.4byte	.LASF221
 6815 1214 A604     		.2byte	0x4a6
 6816 1216 12       		.byte	0x12
 6817 1217 D3000000 		.4byte	0xd3
 6818 121b 02       		.uleb128 0x2
 6819 121c 91       		.byte	0x91
 6820 121d 6C       		.sleb128 -20
 6821 121e 0A       		.uleb128 0xa
 6822 121f 6F737000 		.ascii	"osp\000"
 6823 1223 A704     		.2byte	0x4a7
 6824 1225 18       		.byte	0x18
 6825 1226 570E0000 		.4byte	0xe57
 6826 122a 02       		.uleb128 0x2
 6827 122b 91       		.byte	0x91
 6828 122c 74       		.sleb128 -12
 6829 122d 00       		.byte	0
 6830 122e 18       		.uleb128 0x18
ARM GAS  C:\Users\DEVELO~1\AppData\Local\Temp\cc4r91NU.s 			page 121


 6831 122f F0090000 		.4byte	.LASF265
 6832 1233 9804     		.2byte	0x498
 6833 1235 06       		.byte	0x6
 6834 1236 00000000 		.4byte	.LFB458
 6835 123a 2E000000 		.4byte	.LFE458-.LFB458
 6836 123e 01       		.uleb128 0x1
 6837 123f 9C       		.byte	0x9c
 6838 1240 74120000 		.4byte	0x1274
 6839 1244 05       		.uleb128 0x5
 6840 1245 91010000 		.4byte	.LASF257
 6841 1249 06       		.byte	0x6
 6842 124a 9804     		.2byte	0x498
 6843 124c 24       		.byte	0x24
 6844 124d 78070000 		.4byte	0x778
 6845 1251 02       		.uleb128 0x2
 6846 1252 91       		.byte	0x91
 6847 1253 74       		.sleb128 -12
 6848 1254 09       		.uleb128 0x9
 6849 1255 657000   		.ascii	"ep\000"
 6850 1258 06       		.byte	0x6
 6851 1259 9804     		.2byte	0x498
 6852 125b 32       		.byte	0x32
 6853 125c 28060000 		.4byte	0x628
 6854 1260 02       		.uleb128 0x2
 6855 1261 91       		.byte	0x91
 6856 1262 73       		.sleb128 -13
 6857 1263 09       		.uleb128 0x9
 6858 1264 62756600 		.ascii	"buf\000"
 6859 1268 06       		.byte	0x6
 6860 1269 9804     		.2byte	0x498
 6861 126b 3F       		.byte	0x3f
 6862 126c F3040000 		.4byte	0x4f3
 6863 1270 02       		.uleb128 0x2
 6864 1271 91       		.byte	0x91
 6865 1272 6C       		.sleb128 -20
 6866 1273 00       		.byte	0
 6867 1274 28       		.uleb128 0x28
 6868 1275 63050000 		.4byte	.LASF266
 6869 1279 7D04     		.2byte	0x47d
 6870 127b 90060000 		.4byte	0x690
 6871 127f 00000000 		.4byte	.LFB457
 6872 1283 46000000 		.4byte	.LFE457-.LFB457
 6873 1287 01       		.uleb128 0x1
 6874 1288 9C       		.byte	0x9c
 6875 1289 BC120000 		.4byte	0x12bc
 6876 128d 05       		.uleb128 0x5
 6877 128e 91010000 		.4byte	.LASF257
 6878 1292 06       		.byte	0x6
 6879 1293 7D04     		.2byte	0x47d
 6880 1295 30       		.byte	0x30
 6881 1296 78070000 		.4byte	0x778
 6882 129a 02       		.uleb128 0x2
 6883 129b 91       		.byte	0x91
 6884 129c 6C       		.sleb128 -20
 6885 129d 09       		.uleb128 0x9
 6886 129e 657000   		.ascii	"ep\000"
 6887 12a1 06       		.byte	0x6
ARM GAS  C:\Users\DEVELO~1\AppData\Local\Temp\cc4r91NU.s 			page 122


 6888 12a2 7D04     		.2byte	0x47d
 6889 12a4 3E       		.byte	0x3e
 6890 12a5 28060000 		.4byte	0x628
 6891 12a9 02       		.uleb128 0x2
 6892 12aa 91       		.byte	0x91
 6893 12ab 6B       		.sleb128 -21
 6894 12ac 0A       		.uleb128 0xa
 6895 12ad 63746C00 		.ascii	"ctl\000"
 6896 12b1 7E04     		.2byte	0x47e
 6897 12b3 0C       		.byte	0xc
 6898 12b4 D3000000 		.4byte	0xd3
 6899 12b8 02       		.uleb128 0x2
 6900 12b9 91       		.byte	0x91
 6901 12ba 74       		.sleb128 -12
 6902 12bb 00       		.byte	0
 6903 12bc 28       		.uleb128 0x28
 6904 12bd C9090000 		.4byte	.LASF267
 6905 12c1 6404     		.2byte	0x464
 6906 12c3 90060000 		.4byte	0x690
 6907 12c7 00000000 		.4byte	.LFB456
 6908 12cb 46000000 		.4byte	.LFE456-.LFB456
 6909 12cf 01       		.uleb128 0x1
 6910 12d0 9C       		.byte	0x9c
 6911 12d1 04130000 		.4byte	0x1304
 6912 12d5 05       		.uleb128 0x5
 6913 12d6 91010000 		.4byte	.LASF257
 6914 12da 06       		.byte	0x6
 6915 12db 6404     		.2byte	0x464
 6916 12dd 31       		.byte	0x31
 6917 12de 78070000 		.4byte	0x778
 6918 12e2 02       		.uleb128 0x2
 6919 12e3 91       		.byte	0x91
 6920 12e4 6C       		.sleb128 -20
 6921 12e5 09       		.uleb128 0x9
 6922 12e6 657000   		.ascii	"ep\000"
 6923 12e9 06       		.byte	0x6
 6924 12ea 6404     		.2byte	0x464
 6925 12ec 3F       		.byte	0x3f
 6926 12ed 28060000 		.4byte	0x628
 6927 12f1 02       		.uleb128 0x2
 6928 12f2 91       		.byte	0x91
 6929 12f3 6B       		.sleb128 -21
 6930 12f4 0A       		.uleb128 0xa
 6931 12f5 63746C00 		.ascii	"ctl\000"
 6932 12f9 6504     		.2byte	0x465
 6933 12fb 0C       		.byte	0xc
 6934 12fc D3000000 		.4byte	0xd3
 6935 1300 02       		.uleb128 0x2
 6936 1301 91       		.byte	0x91
 6937 1302 74       		.sleb128 -12
 6938 1303 00       		.byte	0
 6939 1304 18       		.uleb128 0x18
 6940 1305 280E0000 		.4byte	.LASF268
 6941 1309 4F04     		.2byte	0x44f
 6942 130b 06       		.byte	0x6
 6943 130c 00000000 		.4byte	.LFB455
 6944 1310 1C000000 		.4byte	.LFE455-.LFB455
ARM GAS  C:\Users\DEVELO~1\AppData\Local\Temp\cc4r91NU.s 			page 123


 6945 1314 01       		.uleb128 0x1
 6946 1315 9C       		.byte	0x9c
 6947 1316 2B130000 		.4byte	0x132b
 6948 131a 05       		.uleb128 0x5
 6949 131b 91010000 		.4byte	.LASF257
 6950 131f 06       		.byte	0x6
 6951 1320 4F04     		.2byte	0x44f
 6952 1322 2B       		.byte	0x2b
 6953 1323 78070000 		.4byte	0x778
 6954 1327 02       		.uleb128 0x2
 6955 1328 91       		.byte	0x91
 6956 1329 74       		.sleb128 -12
 6957 132a 00       		.byte	0
 6958 132b 18       		.uleb128 0x18
 6959 132c 2F070000 		.4byte	.LASF269
 6960 1330 0F04     		.2byte	0x40f
 6961 1332 06       		.byte	0x6
 6962 1333 00000000 		.4byte	.LFB454
 6963 1337 24020000 		.4byte	.LFE454-.LFB454
 6964 133b 01       		.uleb128 0x1
 6965 133c 9C       		.byte	0x9c
 6966 133d 8E130000 		.4byte	0x138e
 6967 1341 05       		.uleb128 0x5
 6968 1342 91010000 		.4byte	.LASF257
 6969 1346 06       		.byte	0x6
 6970 1347 0F04     		.2byte	0x40f
 6971 1349 27       		.byte	0x27
 6972 134a 78070000 		.4byte	0x778
 6973 134e 02       		.uleb128 0x2
 6974 134f 91       		.byte	0x91
 6975 1350 5C       		.sleb128 -36
 6976 1351 09       		.uleb128 0x9
 6977 1352 657000   		.ascii	"ep\000"
 6978 1355 06       		.byte	0x6
 6979 1356 0F04     		.2byte	0x40f
 6980 1358 35       		.byte	0x35
 6981 1359 28060000 		.4byte	0x628
 6982 135d 02       		.uleb128 0x2
 6983 135e 91       		.byte	0x91
 6984 135f 5B       		.sleb128 -37
 6985 1360 0A       		.uleb128 0xa
 6986 1361 63746C00 		.ascii	"ctl\000"
 6987 1365 1004     		.2byte	0x410
 6988 1367 0C       		.byte	0xc
 6989 1368 D3000000 		.4byte	0xd3
 6990 136c 02       		.uleb128 0x2
 6991 136d 91       		.byte	0x91
 6992 136e 6C       		.sleb128 -20
 6993 136f 0D       		.uleb128 0xd
 6994 1370 DC050000 		.4byte	.LASF270
 6995 1374 1004     		.2byte	0x410
 6996 1376 11       		.byte	0x11
 6997 1377 D3000000 		.4byte	0xd3
 6998 137b 02       		.uleb128 0x2
 6999 137c 91       		.byte	0x91
 7000 137d 68       		.sleb128 -24
 7001 137e 0D       		.uleb128 0xd
ARM GAS  C:\Users\DEVELO~1\AppData\Local\Temp\cc4r91NU.s 			page 124


 7002 137f 72070000 		.4byte	.LASF271
 7003 1383 1104     		.2byte	0x411
 7004 1385 10       		.byte	0x10
 7005 1386 FC0E0000 		.4byte	0xefc
 7006 138a 02       		.uleb128 0x2
 7007 138b 91       		.byte	0x91
 7008 138c 64       		.sleb128 -28
 7009 138d 00       		.byte	0
 7010 138e 17       		.uleb128 0x17
 7011 138f 12070000 		.4byte	.LASF272
 7012 1393 0104     		.2byte	0x401
 7013 1395 00000000 		.4byte	.LFB453
 7014 1399 34000000 		.4byte	.LFE453-.LFB453
 7015 139d 01       		.uleb128 0x1
 7016 139e 9C       		.byte	0x9c
 7017 139f C3130000 		.4byte	0x13c3
 7018 13a3 05       		.uleb128 0x5
 7019 13a4 91010000 		.4byte	.LASF257
 7020 13a8 06       		.byte	0x6
 7021 13a9 0104     		.2byte	0x401
 7022 13ab 25       		.byte	0x25
 7023 13ac 78070000 		.4byte	0x778
 7024 13b0 02       		.uleb128 0x2
 7025 13b1 91       		.byte	0x91
 7026 13b2 6C       		.sleb128 -20
 7027 13b3 0D       		.uleb128 0xd
 7028 13b4 72070000 		.4byte	.LASF271
 7029 13b8 0204     		.2byte	0x402
 7030 13ba 10       		.byte	0x10
 7031 13bb FC0E0000 		.4byte	0xefc
 7032 13bf 02       		.uleb128 0x2
 7033 13c0 91       		.byte	0x91
 7034 13c1 74       		.sleb128 -12
 7035 13c2 00       		.byte	0
 7036 13c3 18       		.uleb128 0x18
 7037 13c4 F5060000 		.4byte	.LASF273
 7038 13c8 CB03     		.2byte	0x3cb
 7039 13ca 06       		.byte	0x6
 7040 13cb 00000000 		.4byte	.LFB452
 7041 13cf 38010000 		.4byte	.LFE452-.LFB452
 7042 13d3 01       		.uleb128 0x1
 7043 13d4 9C       		.byte	0x9c
 7044 13d5 06140000 		.4byte	0x1406
 7045 13d9 05       		.uleb128 0x5
 7046 13da 91010000 		.4byte	.LASF257
 7047 13de 06       		.byte	0x6
 7048 13df CB03     		.2byte	0x3cb
 7049 13e1 1F       		.byte	0x1f
 7050 13e2 78070000 		.4byte	0x778
 7051 13e6 02       		.uleb128 0x2
 7052 13e7 91       		.byte	0x91
 7053 13e8 64       		.sleb128 -28
 7054 13e9 0A       		.uleb128 0xa
 7055 13ea 6900     		.ascii	"i\000"
 7056 13ec CC03     		.2byte	0x3cc
 7057 13ee 0C       		.byte	0xc
 7058 13ef 39000000 		.4byte	0x39
ARM GAS  C:\Users\DEVELO~1\AppData\Local\Temp\cc4r91NU.s 			page 125


 7059 13f3 02       		.uleb128 0x2
 7060 13f4 91       		.byte	0x91
 7061 13f5 6C       		.sleb128 -20
 7062 13f6 0D       		.uleb128 0xd
 7063 13f7 72070000 		.4byte	.LASF271
 7064 13fb CD03     		.2byte	0x3cd
 7065 13fd 10       		.byte	0x10
 7066 13fe FC0E0000 		.4byte	0xefc
 7067 1402 02       		.uleb128 0x2
 7068 1403 91       		.byte	0x91
 7069 1404 68       		.sleb128 -24
 7070 1405 00       		.byte	0
 7071 1406 18       		.uleb128 0x18
 7072 1407 F5050000 		.4byte	.LASF274
 7073 140b A303     		.2byte	0x3a3
 7074 140d 06       		.byte	0x6
 7075 140e 00000000 		.4byte	.LFB451
 7076 1412 54000000 		.4byte	.LFE451-.LFB451
 7077 1416 01       		.uleb128 0x1
 7078 1417 9C       		.byte	0x9c
 7079 1418 3C140000 		.4byte	0x143c
 7080 141c 05       		.uleb128 0x5
 7081 141d 91010000 		.4byte	.LASF257
 7082 1421 06       		.byte	0x6
 7083 1422 A303     		.2byte	0x3a3
 7084 1424 1E       		.byte	0x1e
 7085 1425 78070000 		.4byte	0x778
 7086 1429 02       		.uleb128 0x2
 7087 142a 91       		.byte	0x91
 7088 142b 6C       		.sleb128 -20
 7089 142c 0D       		.uleb128 0xd
 7090 142d 72070000 		.4byte	.LASF271
 7091 1431 A403     		.2byte	0x3a4
 7092 1433 10       		.byte	0x10
 7093 1434 FC0E0000 		.4byte	0xefc
 7094 1438 02       		.uleb128 0x2
 7095 1439 91       		.byte	0x91
 7096 143a 74       		.sleb128 -12
 7097 143b 00       		.byte	0
 7098 143c 18       		.uleb128 0x18
 7099 143d 45070000 		.4byte	.LASF275
 7100 1441 1F03     		.2byte	0x31f
 7101 1443 06       		.byte	0x6
 7102 1444 00000000 		.4byte	.LFB450
 7103 1448 D0000000 		.4byte	.LFE450-.LFB450
 7104 144c 01       		.uleb128 0x1
 7105 144d 9C       		.byte	0x9c
 7106 144e 72140000 		.4byte	0x1472
 7107 1452 05       		.uleb128 0x5
 7108 1453 91010000 		.4byte	.LASF257
 7109 1457 06       		.byte	0x6
 7110 1458 1F03     		.2byte	0x31f
 7111 145a 1F       		.byte	0x1f
 7112 145b 78070000 		.4byte	0x778
 7113 145f 02       		.uleb128 0x2
 7114 1460 91       		.byte	0x91
 7115 1461 6C       		.sleb128 -20
ARM GAS  C:\Users\DEVELO~1\AppData\Local\Temp\cc4r91NU.s 			page 126


 7116 1462 0D       		.uleb128 0xd
 7117 1463 72070000 		.4byte	.LASF271
 7118 1467 2003     		.2byte	0x320
 7119 1469 10       		.byte	0x10
 7120 146a FC0E0000 		.4byte	0xefc
 7121 146e 02       		.uleb128 0x2
 7122 146f 91       		.byte	0x91
 7123 1470 74       		.sleb128 -12
 7124 1471 00       		.byte	0
 7125 1472 3B       		.uleb128 0x3b
 7126 1473 BD0C0000 		.4byte	.LASF321
 7127 1477 06       		.byte	0x6
 7128 1478 0403     		.2byte	0x304
 7129 147a 06       		.byte	0x6
 7130 147b 00000000 		.4byte	.LFB449
 7131 147f 2C000000 		.4byte	.LFE449-.LFB449
 7132 1483 01       		.uleb128 0x1
 7133 1484 9C       		.byte	0x9c
 7134 1485 18       		.uleb128 0x18
 7135 1486 070D0000 		.4byte	.LASF276
 7136 148a E102     		.2byte	0x2e1
 7137 148c 01       		.byte	0x1
 7138 148d 00000000 		.4byte	.LFB448
 7139 1491 28000000 		.4byte	.LFE448-.LFB448
 7140 1495 01       		.uleb128 0x1
 7141 1496 9C       		.byte	0x9c
 7142 1497 AB140000 		.4byte	0x14ab
 7143 149b 3C       		.uleb128 0x3c
 7144 149c 5A0E0000 		.4byte	.LASF292
 7145 14a0 BB140000 		.4byte	0x14bb
 7146 14a4 05       		.uleb128 0x5
 7147 14a5 03       		.byte	0x3
 7148 14a6 00000000 		.4byte	__func__.0
 7149 14aa 00       		.byte	0
 7150 14ab 07       		.uleb128 0x7
 7151 14ac AC000000 		.4byte	0xac
 7152 14b0 BB140000 		.4byte	0x14bb
 7153 14b4 08       		.uleb128 0x8
 7154 14b5 39000000 		.4byte	0x39
 7155 14b9 09       		.byte	0x9
 7156 14ba 00       		.byte	0
 7157 14bb 13       		.uleb128 0x13
 7158 14bc AB140000 		.4byte	0x14ab
 7159 14c0 16       		.uleb128 0x16
 7160 14c1 E6070000 		.4byte	.LASF278
 7161 14c5 06       		.byte	0x6
 7162 14c6 3502     		.2byte	0x235
 7163 14c8 0D       		.byte	0xd
 7164 14c9 00000000 		.4byte	.LFB447
 7165 14cd D8020000 		.4byte	.LFE447-.LFB447
 7166 14d1 01       		.uleb128 0x1
 7167 14d2 9C       		.byte	0x9c
 7168 14d3 31150000 		.4byte	0x1531
 7169 14d7 05       		.uleb128 0x5
 7170 14d8 91010000 		.4byte	.LASF257
 7171 14dc 06       		.byte	0x6
 7172 14dd 3502     		.2byte	0x235
ARM GAS  C:\Users\DEVELO~1\AppData\Local\Temp\cc4r91NU.s 			page 127


 7173 14df 30       		.byte	0x30
 7174 14e0 78070000 		.4byte	0x778
 7175 14e4 02       		.uleb128 0x2
 7176 14e5 91       		.byte	0x91
 7177 14e6 64       		.sleb128 -28
 7178 14e7 0D       		.uleb128 0xd
 7179 14e8 72070000 		.4byte	.LASF271
 7180 14ec 3602     		.2byte	0x236
 7181 14ee 10       		.byte	0x10
 7182 14ef FC0E0000 		.4byte	0xefc
 7183 14f3 02       		.uleb128 0x2
 7184 14f4 91       		.byte	0x91
 7185 14f5 70       		.sleb128 -16
 7186 14f6 0A       		.uleb128 0xa
 7187 14f7 73747300 		.ascii	"sts\000"
 7188 14fb 3702     		.2byte	0x237
 7189 14fd 0C       		.byte	0xc
 7190 14fe D3000000 		.4byte	0xd3
 7191 1502 02       		.uleb128 0x2
 7192 1503 91       		.byte	0x91
 7193 1504 6C       		.sleb128 -20
 7194 1505 0A       		.uleb128 0xa
 7195 1506 73726300 		.ascii	"src\000"
 7196 150a 3702     		.2byte	0x237
 7197 150c 11       		.byte	0x11
 7198 150d D3000000 		.4byte	0xd3
 7199 1511 02       		.uleb128 0x2
 7200 1512 91       		.byte	0x91
 7201 1513 68       		.sleb128 -24
 7202 1514 0D       		.uleb128 0xd
 7203 1515 800C0000 		.4byte	.LASF277
 7204 1519 3802     		.2byte	0x238
 7205 151b 0C       		.byte	0xc
 7206 151c 39000000 		.4byte	0x39
 7207 1520 02       		.uleb128 0x2
 7208 1521 91       		.byte	0x91
 7209 1522 74       		.sleb128 -12
 7210 1523 3D       		.uleb128 0x3d
 7211 1524 D8020000 		.4byte	.LASF322
 7212 1528 06       		.byte	0x6
 7213 1529 3A02     		.2byte	0x23a
 7214 152b 01       		.byte	0x1
 7215 152c 14000000 		.4byte	.L90
 7216 1530 00       		.byte	0
 7217 1531 16       		.uleb128 0x16
 7218 1532 8A020000 		.4byte	.LASF279
 7219 1536 06       		.byte	0x6
 7220 1537 1902     		.2byte	0x219
 7221 1539 0D       		.byte	0xd
 7222 153a 00000000 		.4byte	.LFB446
 7223 153e A0000000 		.4byte	.LFE446-.LFB446
 7224 1542 01       		.uleb128 0x1
 7225 1543 9C       		.byte	0x9c
 7226 1544 76150000 		.4byte	0x1576
 7227 1548 05       		.uleb128 0x5
 7228 1549 91010000 		.4byte	.LASF257
 7229 154d 06       		.byte	0x6
ARM GAS  C:\Users\DEVELO~1\AppData\Local\Temp\cc4r91NU.s 			page 128


 7230 154e 1902     		.2byte	0x219
 7231 1550 34       		.byte	0x34
 7232 1551 78070000 		.4byte	0x778
 7233 1555 02       		.uleb128 0x2
 7234 1556 91       		.byte	0x91
 7235 1557 6C       		.sleb128 -20
 7236 1558 0A       		.uleb128 0xa
 7237 1559 657000   		.ascii	"ep\000"
 7238 155c 1A02     		.2byte	0x21a
 7239 155e 0B       		.byte	0xb
 7240 155f 28060000 		.4byte	0x628
 7241 1563 02       		.uleb128 0x2
 7242 1564 91       		.byte	0x91
 7243 1565 77       		.sleb128 -9
 7244 1566 0D       		.uleb128 0xd
 7245 1567 72070000 		.4byte	.LASF271
 7246 156b 1B02     		.2byte	0x21b
 7247 156d 10       		.byte	0x10
 7248 156e FC0E0000 		.4byte	0xefc
 7249 1572 02       		.uleb128 0x2
 7250 1573 91       		.byte	0x91
 7251 1574 70       		.sleb128 -16
 7252 1575 00       		.byte	0
 7253 1576 16       		.uleb128 0x16
 7254 1577 93090000 		.4byte	.LASF280
 7255 157b 06       		.byte	0x6
 7256 157c FC01     		.2byte	0x1fc
 7257 157e 0D       		.byte	0xd
 7258 157f 00000000 		.4byte	.LFB445
 7259 1583 D8000000 		.4byte	.LFE445-.LFB445
 7260 1587 01       		.uleb128 0x1
 7261 1588 9C       		.byte	0x9c
 7262 1589 BB150000 		.4byte	0x15bb
 7263 158d 05       		.uleb128 0x5
 7264 158e 91010000 		.4byte	.LASF257
 7265 1592 06       		.byte	0x6
 7266 1593 FC01     		.2byte	0x1fc
 7267 1595 33       		.byte	0x33
 7268 1596 78070000 		.4byte	0x778
 7269 159a 02       		.uleb128 0x2
 7270 159b 91       		.byte	0x91
 7271 159c 6C       		.sleb128 -20
 7272 159d 0A       		.uleb128 0xa
 7273 159e 657000   		.ascii	"ep\000"
 7274 15a1 FD01     		.2byte	0x1fd
 7275 15a3 0B       		.byte	0xb
 7276 15a4 28060000 		.4byte	0x628
 7277 15a8 02       		.uleb128 0x2
 7278 15a9 91       		.byte	0x91
 7279 15aa 77       		.sleb128 -9
 7280 15ab 0D       		.uleb128 0xd
 7281 15ac 72070000 		.4byte	.LASF271
 7282 15b0 FE01     		.2byte	0x1fe
 7283 15b2 10       		.byte	0x10
 7284 15b3 FC0E0000 		.4byte	0xefc
 7285 15b7 02       		.uleb128 0x2
 7286 15b8 91       		.byte	0x91
ARM GAS  C:\Users\DEVELO~1\AppData\Local\Temp\cc4r91NU.s 			page 129


 7287 15b9 70       		.sleb128 -16
 7288 15ba 00       		.byte	0
 7289 15bb 16       		.uleb128 0x16
 7290 15bc 23090000 		.4byte	.LASF281
 7291 15c0 06       		.byte	0x6
 7292 15c1 C301     		.2byte	0x1c3
 7293 15c3 0D       		.byte	0xd
 7294 15c4 00000000 		.4byte	.LFB444
 7295 15c8 30010000 		.4byte	.LFE444-.LFB444
 7296 15cc 01       		.uleb128 0x1
 7297 15cd 9C       		.byte	0x9c
 7298 15ce 29160000 		.4byte	0x1629
 7299 15d2 05       		.uleb128 0x5
 7300 15d3 91010000 		.4byte	.LASF257
 7301 15d7 06       		.byte	0x6
 7302 15d8 C301     		.2byte	0x1c3
 7303 15da 2A       		.byte	0x2a
 7304 15db 78070000 		.4byte	0x778
 7305 15df 02       		.uleb128 0x2
 7306 15e0 91       		.byte	0x91
 7307 15e1 64       		.sleb128 -28
 7308 15e2 09       		.uleb128 0x9
 7309 15e3 657000   		.ascii	"ep\000"
 7310 15e6 06       		.byte	0x6
 7311 15e7 C301     		.2byte	0x1c3
 7312 15e9 38       		.byte	0x38
 7313 15ea 28060000 		.4byte	0x628
 7314 15ee 02       		.uleb128 0x2
 7315 15ef 91       		.byte	0x91
 7316 15f0 63       		.sleb128 -29
 7317 15f1 0D       		.uleb128 0xd
 7318 15f2 72070000 		.4byte	.LASF271
 7319 15f6 C401     		.2byte	0x1c4
 7320 15f8 10       		.byte	0x10
 7321 15f9 FC0E0000 		.4byte	0xefc
 7322 15fd 02       		.uleb128 0x2
 7323 15fe 91       		.byte	0x91
 7324 15ff 74       		.sleb128 -12
 7325 1600 0D       		.uleb128 0xd
 7326 1601 BE050000 		.4byte	.LASF282
 7327 1605 C501     		.2byte	0x1c5
 7328 1607 0C       		.byte	0xc
 7329 1608 D3000000 		.4byte	0xd3
 7330 160c 02       		.uleb128 0x2
 7331 160d 91       		.byte	0x91
 7332 160e 70       		.sleb128 -16
 7333 160f 1F       		.uleb128 0x1f
 7334 1610 7A000000 		.4byte	.LBB40
 7335 1614 B0000000 		.4byte	.LBE40-.LBB40
 7336 1618 0A       		.uleb128 0xa
 7337 1619 6F737000 		.ascii	"osp\000"
 7338 161d D101     		.2byte	0x1d1
 7339 161f 1A       		.byte	0x1a
 7340 1620 570E0000 		.4byte	0xe57
 7341 1624 02       		.uleb128 0x2
 7342 1625 91       		.byte	0x91
 7343 1626 6C       		.sleb128 -20
ARM GAS  C:\Users\DEVELO~1\AppData\Local\Temp\cc4r91NU.s 			page 130


 7344 1627 00       		.byte	0
 7345 1628 00       		.byte	0
 7346 1629 16       		.uleb128 0x16
 7347 162a 46060000 		.4byte	.LASF283
 7348 162e 06       		.byte	0x6
 7349 162f 9801     		.2byte	0x198
 7350 1631 0D       		.byte	0xd
 7351 1632 00000000 		.4byte	.LFB443
 7352 1636 06010000 		.4byte	.LFE443-.LFB443
 7353 163a 01       		.uleb128 0x1
 7354 163b 9C       		.byte	0x9c
 7355 163c 97160000 		.4byte	0x1697
 7356 1640 05       		.uleb128 0x5
 7357 1641 91010000 		.4byte	.LASF257
 7358 1645 06       		.byte	0x6
 7359 1646 9801     		.2byte	0x198
 7360 1648 29       		.byte	0x29
 7361 1649 78070000 		.4byte	0x778
 7362 164d 02       		.uleb128 0x2
 7363 164e 91       		.byte	0x91
 7364 164f 64       		.sleb128 -28
 7365 1650 09       		.uleb128 0x9
 7366 1651 657000   		.ascii	"ep\000"
 7367 1654 06       		.byte	0x6
 7368 1655 9801     		.2byte	0x198
 7369 1657 37       		.byte	0x37
 7370 1658 28060000 		.4byte	0x628
 7371 165c 02       		.uleb128 0x2
 7372 165d 91       		.byte	0x91
 7373 165e 63       		.sleb128 -29
 7374 165f 0D       		.uleb128 0xd
 7375 1660 72070000 		.4byte	.LASF271
 7376 1664 9901     		.2byte	0x199
 7377 1666 10       		.byte	0x10
 7378 1667 FC0E0000 		.4byte	0xefc
 7379 166b 02       		.uleb128 0x2
 7380 166c 91       		.byte	0x91
 7381 166d 74       		.sleb128 -12
 7382 166e 0D       		.uleb128 0xd
 7383 166f BE050000 		.4byte	.LASF282
 7384 1673 9A01     		.2byte	0x19a
 7385 1675 0C       		.byte	0xc
 7386 1676 D3000000 		.4byte	0xd3
 7387 167a 02       		.uleb128 0x2
 7388 167b 91       		.byte	0x91
 7389 167c 70       		.sleb128 -16
 7390 167d 1F       		.uleb128 0x1f
 7391 167e 4C000000 		.4byte	.LBB39
 7392 1682 8A000000 		.4byte	.LBE39-.LBB39
 7393 1686 0A       		.uleb128 0xa
 7394 1687 69737000 		.ascii	"isp\000"
 7395 168b A301     		.2byte	0x1a3
 7396 168d 19       		.byte	0x19
 7397 168e 520E0000 		.4byte	0xe52
 7398 1692 02       		.uleb128 0x2
 7399 1693 91       		.byte	0x91
 7400 1694 6C       		.sleb128 -20
ARM GAS  C:\Users\DEVELO~1\AppData\Local\Temp\cc4r91NU.s 			page 131


 7401 1695 00       		.byte	0
 7402 1696 00       		.byte	0
 7403 1697 3E       		.uleb128 0x3e
 7404 1698 5A010000 		.4byte	.LASF288
 7405 169c 06       		.byte	0x6
 7406 169d 6A01     		.2byte	0x16a
 7407 169f 0D       		.byte	0xd
 7408 16a0 EC040000 		.4byte	0x4ec
 7409 16a4 00000000 		.4byte	.LFB442
 7410 16a8 36010000 		.4byte	.LFE442-.LFB442
 7411 16ac 01       		.uleb128 0x1
 7412 16ad 9C       		.byte	0x9c
 7413 16ae E9160000 		.4byte	0x16e9
 7414 16b2 05       		.uleb128 0x5
 7415 16b3 91010000 		.4byte	.LASF257
 7416 16b7 06       		.byte	0x6
 7417 16b8 6A01     		.2byte	0x16a
 7418 16ba 2B       		.byte	0x2b
 7419 16bb 78070000 		.4byte	0x778
 7420 16bf 02       		.uleb128 0x2
 7421 16c0 91       		.byte	0x91
 7422 16c1 6C       		.sleb128 -20
 7423 16c2 09       		.uleb128 0x9
 7424 16c3 657000   		.ascii	"ep\000"
 7425 16c6 06       		.byte	0x6
 7426 16c7 6A01     		.2byte	0x16a
 7427 16c9 39       		.byte	0x39
 7428 16ca 28060000 		.4byte	0x628
 7429 16ce 02       		.uleb128 0x2
 7430 16cf 91       		.byte	0x91
 7431 16d0 6B       		.sleb128 -21
 7432 16d1 1F       		.uleb128 0x1f
 7433 16d2 0C000000 		.4byte	.LBB38
 7434 16d6 20010000 		.4byte	.LBE38-.LBB38
 7435 16da 0A       		.uleb128 0xa
 7436 16db 6E00     		.ascii	"n\000"
 7437 16dd 6E01     		.2byte	0x16e
 7438 16df 0E       		.byte	0xe
 7439 16e0 D3000000 		.4byte	0xd3
 7440 16e4 02       		.uleb128 0x2
 7441 16e5 91       		.byte	0x91
 7442 16e6 74       		.sleb128 -12
 7443 16e7 00       		.byte	0
 7444 16e8 00       		.byte	0
 7445 16e9 16       		.uleb128 0x16
 7446 16ea DF000000 		.4byte	.LASF284
 7447 16ee 06       		.byte	0x6
 7448 16ef 3901     		.2byte	0x139
 7449 16f1 0D       		.byte	0xd
 7450 16f2 00000000 		.4byte	.LFB441
 7451 16f6 82010000 		.4byte	.LFE441-.LFB441
 7452 16fa 01       		.uleb128 0x1
 7453 16fb 9C       		.byte	0x9c
 7454 16fc 4A170000 		.4byte	0x174a
 7455 1700 05       		.uleb128 0x5
 7456 1701 91010000 		.4byte	.LASF257
 7457 1705 06       		.byte	0x6
ARM GAS  C:\Users\DEVELO~1\AppData\Local\Temp\cc4r91NU.s 			page 132


 7458 1706 3901     		.2byte	0x139
 7459 1708 2B       		.byte	0x2b
 7460 1709 78070000 		.4byte	0x778
 7461 170d 02       		.uleb128 0x2
 7462 170e 91       		.byte	0x91
 7463 170f 64       		.sleb128 -28
 7464 1710 0A       		.uleb128 0xa
 7465 1711 73747300 		.ascii	"sts\000"
 7466 1715 3A01     		.2byte	0x13a
 7467 1717 0C       		.byte	0xc
 7468 1718 D3000000 		.4byte	0xd3
 7469 171c 02       		.uleb128 0x2
 7470 171d 91       		.byte	0x91
 7471 171e 74       		.sleb128 -12
 7472 171f 0A       		.uleb128 0xa
 7473 1720 657000   		.ascii	"ep\000"
 7474 1723 3A01     		.2byte	0x13a
 7475 1725 11       		.byte	0x11
 7476 1726 D3000000 		.4byte	0xd3
 7477 172a 02       		.uleb128 0x2
 7478 172b 91       		.byte	0x91
 7479 172c 6C       		.sleb128 -20
 7480 172d 0A       		.uleb128 0xa
 7481 172e 6E00     		.ascii	"n\000"
 7482 1730 3B01     		.2byte	0x13b
 7483 1732 0A       		.byte	0xa
 7484 1733 2D000000 		.4byte	0x2d
 7485 1737 02       		.uleb128 0x2
 7486 1738 91       		.byte	0x91
 7487 1739 70       		.sleb128 -16
 7488 173a 0A       		.uleb128 0xa
 7489 173b 6D617800 		.ascii	"max\000"
 7490 173f 3B01     		.2byte	0x13b
 7491 1741 0D       		.byte	0xd
 7492 1742 2D000000 		.4byte	0x2d
 7493 1746 02       		.uleb128 0x2
 7494 1747 91       		.byte	0x91
 7495 1748 68       		.sleb128 -24
 7496 1749 00       		.byte	0
 7497 174a 1B       		.uleb128 0x1b
 7498 174b 4C0B0000 		.4byte	.LASF285
 7499 174f 06       		.byte	0x6
 7500 1750 1F01     		.2byte	0x11f
 7501 1752 0D       		.byte	0xd
 7502 1753 00000000 		.4byte	.LFB440
 7503 1757 5C000000 		.4byte	.LFE440-.LFB440
 7504 175b 01       		.uleb128 0x1
 7505 175c 9C       		.byte	0x9c
 7506 175d BA170000 		.4byte	0x17ba
 7507 1761 05       		.uleb128 0x5
 7508 1762 A60C0000 		.4byte	.LASF286
 7509 1766 06       		.byte	0x6
 7510 1767 1F01     		.2byte	0x11f
 7511 1769 38       		.byte	0x38
 7512 176a F8040000 		.4byte	0x4f8
 7513 176e 02       		.uleb128 0x2
 7514 176f 91       		.byte	0x91
ARM GAS  C:\Users\DEVELO~1\AppData\Local\Temp\cc4r91NU.s 			page 133


 7515 1770 6C       		.sleb128 -20
 7516 1771 09       		.uleb128 0x9
 7517 1772 62756600 		.ascii	"buf\000"
 7518 1776 06       		.byte	0x6
 7519 1777 2001     		.2byte	0x120
 7520 1779 2E       		.byte	0x2e
 7521 177a F3040000 		.4byte	0x4f3
 7522 177e 02       		.uleb128 0x2
 7523 177f 91       		.byte	0x91
 7524 1780 68       		.sleb128 -24
 7525 1781 09       		.uleb128 0x9
 7526 1782 6E00     		.ascii	"n\000"
 7527 1784 06       		.byte	0x6
 7528 1785 2101     		.2byte	0x121
 7529 1787 2C       		.byte	0x2c
 7530 1788 2D000000 		.4byte	0x2d
 7531 178c 02       		.uleb128 0x2
 7532 178d 91       		.byte	0x91
 7533 178e 64       		.sleb128 -28
 7534 178f 09       		.uleb128 0x9
 7535 1790 6D617800 		.ascii	"max\000"
 7536 1794 06       		.byte	0x6
 7537 1795 2201     		.2byte	0x122
 7538 1797 2C       		.byte	0x2c
 7539 1798 2D000000 		.4byte	0x2d
 7540 179c 02       		.uleb128 0x2
 7541 179d 91       		.byte	0x91
 7542 179e 60       		.sleb128 -32
 7543 179f 0A       		.uleb128 0xa
 7544 17a0 7700     		.ascii	"w\000"
 7545 17a2 2301     		.2byte	0x123
 7546 17a4 0C       		.byte	0xc
 7547 17a5 D3000000 		.4byte	0xd3
 7548 17a9 02       		.uleb128 0x2
 7549 17aa 91       		.byte	0x91
 7550 17ab 74       		.sleb128 -12
 7551 17ac 0A       		.uleb128 0xa
 7552 17ad 6900     		.ascii	"i\000"
 7553 17af 2401     		.2byte	0x124
 7554 17b1 0A       		.byte	0xa
 7555 17b2 2D000000 		.4byte	0x2d
 7556 17b6 02       		.uleb128 0x2
 7557 17b7 91       		.byte	0x91
 7558 17b8 70       		.sleb128 -16
 7559 17b9 00       		.byte	0
 7560 17ba 1B       		.uleb128 0x1b
 7561 17bb EA020000 		.4byte	.LASF287
 7562 17bf 06       		.byte	0x6
 7563 17c0 0501     		.2byte	0x105
 7564 17c2 0D       		.byte	0xd
 7565 17c3 00000000 		.4byte	.LFB439
 7566 17c7 34000000 		.4byte	.LFE439-.LFB439
 7567 17cb 01       		.uleb128 0x1
 7568 17cc 9C       		.byte	0x9c
 7569 17cd 09180000 		.4byte	0x1809
 7570 17d1 05       		.uleb128 0x5
 7571 17d2 A60C0000 		.4byte	.LASF286
ARM GAS  C:\Users\DEVELO~1\AppData\Local\Temp\cc4r91NU.s 			page 134


 7572 17d6 06       		.byte	0x6
 7573 17d7 0501     		.2byte	0x105
 7574 17d9 3B       		.byte	0x3b
 7575 17da F8040000 		.4byte	0x4f8
 7576 17de 02       		.uleb128 0x2
 7577 17df 91       		.byte	0x91
 7578 17e0 74       		.sleb128 -12
 7579 17e1 09       		.uleb128 0x9
 7580 17e2 62756600 		.ascii	"buf\000"
 7581 17e6 06       		.byte	0x6
 7582 17e7 0601     		.2byte	0x106
 7583 17e9 37       		.byte	0x37
 7584 17ea FD040000 		.4byte	0x4fd
 7585 17ee 02       		.uleb128 0x2
 7586 17ef 91       		.byte	0x91
 7587 17f0 70       		.sleb128 -16
 7588 17f1 09       		.uleb128 0x9
 7589 17f2 6E00     		.ascii	"n\000"
 7590 17f4 06       		.byte	0x6
 7591 17f5 0701     		.2byte	0x107
 7592 17f7 2F       		.byte	0x2f
 7593 17f8 2D000000 		.4byte	0x2d
 7594 17fc 02       		.uleb128 0x2
 7595 17fd 91       		.byte	0x91
 7596 17fe 6C       		.sleb128 -20
 7597 17ff 29       		.uleb128 0x29
 7598 1800 5A0E0000 		.4byte	.LASF292
 7599 1804 19180000 		.4byte	0x1819
 7600 1808 00       		.byte	0
 7601 1809 07       		.uleb128 0x7
 7602 180a AC000000 		.4byte	0xac
 7603 180e 19180000 		.4byte	0x1819
 7604 1812 08       		.uleb128 0x8
 7605 1813 39000000 		.4byte	0x39
 7606 1817 1A       		.byte	0x1a
 7607 1818 00       		.byte	0
 7608 1819 13       		.uleb128 0x13
 7609 181a 09180000 		.4byte	0x1809
 7610 181e 3F       		.uleb128 0x3f
 7611 181f B9070000 		.4byte	.LASF289
 7612 1823 06       		.byte	0x6
 7613 1824 F2       		.byte	0xf2
 7614 1825 11       		.byte	0x11
 7615 1826 D3000000 		.4byte	0xd3
 7616 182a 00000000 		.4byte	.LFB438
 7617 182e 2E000000 		.4byte	.LFE438-.LFB438
 7618 1832 01       		.uleb128 0x1
 7619 1833 9C       		.byte	0x9c
 7620 1834 6E180000 		.4byte	0x186e
 7621 1838 12       		.uleb128 0x12
 7622 1839 91010000 		.4byte	.LASF257
 7623 183d 06       		.byte	0x6
 7624 183e F2       		.byte	0xf2
 7625 183f 2A       		.byte	0x2a
 7626 1840 78070000 		.4byte	0x778
 7627 1844 02       		.uleb128 0x2
 7628 1845 91       		.byte	0x91
ARM GAS  C:\Users\DEVELO~1\AppData\Local\Temp\cc4r91NU.s 			page 135


 7629 1846 6C       		.sleb128 -20
 7630 1847 12       		.uleb128 0x12
 7631 1848 3A080000 		.4byte	.LASF290
 7632 184c 06       		.byte	0x6
 7633 184d F2       		.byte	0xf2
 7634 184e 37       		.byte	0x37
 7635 184f 2D000000 		.4byte	0x2d
 7636 1853 02       		.uleb128 0x2
 7637 1854 91       		.byte	0x91
 7638 1855 68       		.sleb128 -24
 7639 1856 11       		.uleb128 0x11
 7640 1857 DA000000 		.4byte	.LASF291
 7641 185b F3       		.byte	0xf3
 7642 185c 0C       		.byte	0xc
 7643 185d D3000000 		.4byte	0xd3
 7644 1861 02       		.uleb128 0x2
 7645 1862 91       		.byte	0x91
 7646 1863 74       		.sleb128 -12
 7647 1864 29       		.uleb128 0x29
 7648 1865 5A0E0000 		.4byte	.LASF292
 7649 1869 7E180000 		.4byte	0x187e
 7650 186d 00       		.byte	0
 7651 186e 07       		.uleb128 0x7
 7652 186f AC000000 		.4byte	0xac
 7653 1873 7E180000 		.4byte	0x187e
 7654 1877 08       		.uleb128 0x8
 7655 1878 39000000 		.4byte	0x39
 7656 187c 0D       		.byte	0xd
 7657 187d 00       		.byte	0
 7658 187e 13       		.uleb128 0x13
 7659 187f 6E180000 		.4byte	0x186e
 7660 1883 20       		.uleb128 0x20
 7661 1884 C40A0000 		.4byte	.LASF293
 7662 1888 06       		.byte	0x6
 7663 1889 E5       		.byte	0xe5
 7664 188a 0D       		.byte	0xd
 7665 188b 00000000 		.4byte	.LFB437
 7666 188f 20000000 		.4byte	.LFE437-.LFB437
 7667 1893 01       		.uleb128 0x1
 7668 1894 9C       		.byte	0x9c
 7669 1895 A9180000 		.4byte	0x18a9
 7670 1899 12       		.uleb128 0x12
 7671 189a 91010000 		.4byte	.LASF257
 7672 189e 06       		.byte	0x6
 7673 189f E5       		.byte	0xe5
 7674 18a0 26       		.byte	0x26
 7675 18a1 78070000 		.4byte	0x778
 7676 18a5 02       		.uleb128 0x2
 7677 18a6 91       		.byte	0x91
 7678 18a7 74       		.sleb128 -12
 7679 18a8 00       		.byte	0
 7680 18a9 25       		.uleb128 0x25
 7681 18aa CF030000 		.4byte	.LASF294
 7682 18ae D4       		.byte	0xd4
 7683 18af 00000000 		.4byte	.LFB436
 7684 18b3 3A000000 		.4byte	.LFE436-.LFB436
 7685 18b7 01       		.uleb128 0x1
ARM GAS  C:\Users\DEVELO~1\AppData\Local\Temp\cc4r91NU.s 			page 136


 7686 18b8 9C       		.byte	0x9c
 7687 18b9 EA180000 		.4byte	0x18ea
 7688 18bd 12       		.uleb128 0x12
 7689 18be 91010000 		.4byte	.LASF257
 7690 18c2 06       		.byte	0x6
 7691 18c3 D4       		.byte	0xd4
 7692 18c4 29       		.byte	0x29
 7693 18c5 78070000 		.4byte	0x778
 7694 18c9 02       		.uleb128 0x2
 7695 18ca 91       		.byte	0x91
 7696 18cb 6C       		.sleb128 -20
 7697 18cc 12       		.uleb128 0x12
 7698 18cd 450D0000 		.4byte	.LASF295
 7699 18d1 06       		.byte	0x6
 7700 18d2 D4       		.byte	0xd4
 7701 18d3 38       		.byte	0x38
 7702 18d4 D3000000 		.4byte	0xd3
 7703 18d8 02       		.uleb128 0x2
 7704 18d9 91       		.byte	0x91
 7705 18da 68       		.sleb128 -24
 7706 18db 11       		.uleb128 0x11
 7707 18dc 72070000 		.4byte	.LASF271
 7708 18e0 D5       		.byte	0xd5
 7709 18e1 10       		.byte	0x10
 7710 18e2 FC0E0000 		.4byte	0xefc
 7711 18e6 02       		.uleb128 0x2
 7712 18e7 91       		.byte	0x91
 7713 18e8 74       		.sleb128 -12
 7714 18e9 00       		.byte	0
 7715 18ea 25       		.uleb128 0x25
 7716 18eb 35090000 		.4byte	.LASF296
 7717 18ef CA       		.byte	0xca
 7718 18f0 00000000 		.4byte	.LFB435
 7719 18f4 32000000 		.4byte	.LFE435-.LFB435
 7720 18f8 01       		.uleb128 0x1
 7721 18f9 9C       		.byte	0x9c
 7722 18fa 1C190000 		.4byte	0x191c
 7723 18fe 12       		.uleb128 0x12
 7724 18ff 91010000 		.4byte	.LASF257
 7725 1903 06       		.byte	0x6
 7726 1904 CA       		.byte	0xca
 7727 1905 29       		.byte	0x29
 7728 1906 78070000 		.4byte	0x778
 7729 190a 02       		.uleb128 0x2
 7730 190b 91       		.byte	0x91
 7731 190c 6C       		.sleb128 -20
 7732 190d 11       		.uleb128 0x11
 7733 190e 72070000 		.4byte	.LASF271
 7734 1912 CB       		.byte	0xcb
 7735 1913 10       		.byte	0x10
 7736 1914 FC0E0000 		.4byte	0xefc
 7737 1918 02       		.uleb128 0x2
 7738 1919 91       		.byte	0x91
 7739 191a 74       		.sleb128 -12
 7740 191b 00       		.byte	0
 7741 191c 20       		.uleb128 0x20
 7742 191d 130E0000 		.4byte	.LASF297
ARM GAS  C:\Users\DEVELO~1\AppData\Local\Temp\cc4r91NU.s 			page 137


 7743 1921 06       		.byte	0x6
 7744 1922 BC       		.byte	0xbc
 7745 1923 0D       		.byte	0xd
 7746 1924 00000000 		.4byte	.LFB434
 7747 1928 88000000 		.4byte	.LFE434-.LFB434
 7748 192c 01       		.uleb128 0x1
 7749 192d 9C       		.byte	0x9c
 7750 192e 5B190000 		.4byte	0x195b
 7751 1932 12       		.uleb128 0x12
 7752 1933 91010000 		.4byte	.LASF257
 7753 1937 06       		.byte	0x6
 7754 1938 BC       		.byte	0xbc
 7755 1939 26       		.byte	0x26
 7756 193a 78070000 		.4byte	0x778
 7757 193e 02       		.uleb128 0x2
 7758 193f 91       		.byte	0x91
 7759 1940 6C       		.sleb128 -20
 7760 1941 11       		.uleb128 0x11
 7761 1942 72070000 		.4byte	.LASF271
 7762 1946 BD       		.byte	0xbd
 7763 1947 10       		.byte	0x10
 7764 1948 FC0E0000 		.4byte	0xefc
 7765 194c 02       		.uleb128 0x2
 7766 194d 91       		.byte	0x91
 7767 194e 70       		.sleb128 -16
 7768 194f 2A       		.uleb128 0x2a
 7769 1950 6900     		.ascii	"i\000"
 7770 1952 BE       		.byte	0xbe
 7771 1953 39000000 		.4byte	0x39
 7772 1957 02       		.uleb128 0x2
 7773 1958 91       		.byte	0x91
 7774 1959 74       		.sleb128 -12
 7775 195a 00       		.byte	0
 7776 195b 20       		.uleb128 0x20
 7777 195c B2060000 		.4byte	.LASF298
 7778 1960 06       		.byte	0x6
 7779 1961 A8       		.byte	0xa8
 7780 1962 0D       		.byte	0xd
 7781 1963 00000000 		.4byte	.LFB433
 7782 1967 BA000000 		.4byte	.LFE433-.LFB433
 7783 196b 01       		.uleb128 0x1
 7784 196c 9C       		.byte	0x9c
 7785 196d 9A190000 		.4byte	0x199a
 7786 1971 12       		.uleb128 0x12
 7787 1972 91010000 		.4byte	.LASF257
 7788 1976 06       		.byte	0x6
 7789 1977 A8       		.byte	0xa8
 7790 1978 27       		.byte	0x27
 7791 1979 78070000 		.4byte	0x778
 7792 197d 02       		.uleb128 0x2
 7793 197e 91       		.byte	0x91
 7794 197f 6C       		.sleb128 -20
 7795 1980 11       		.uleb128 0x11
 7796 1981 72070000 		.4byte	.LASF271
 7797 1985 A9       		.byte	0xa9
 7798 1986 10       		.byte	0x10
 7799 1987 FC0E0000 		.4byte	0xefc
ARM GAS  C:\Users\DEVELO~1\AppData\Local\Temp\cc4r91NU.s 			page 138


 7800 198b 02       		.uleb128 0x2
 7801 198c 91       		.byte	0x91
 7802 198d 70       		.sleb128 -16
 7803 198e 2A       		.uleb128 0x2a
 7804 198f 6900     		.ascii	"i\000"
 7805 1991 AA       		.byte	0xaa
 7806 1992 39000000 		.4byte	0x39
 7807 1996 02       		.uleb128 0x2
 7808 1997 91       		.byte	0x91
 7809 1998 74       		.sleb128 -12
 7810 1999 00       		.byte	0
 7811 199a 25       		.uleb128 0x25
 7812 199b 67090000 		.4byte	.LASF299
 7813 199f 94       		.byte	0x94
 7814 19a0 00000000 		.4byte	.LFB432
 7815 19a4 4E000000 		.4byte	.LFE432-.LFB432
 7816 19a8 01       		.uleb128 0x1
 7817 19a9 9C       		.byte	0x9c
 7818 19aa CC190000 		.4byte	0x19cc
 7819 19ae 12       		.uleb128 0x12
 7820 19af 91010000 		.4byte	.LASF257
 7821 19b3 06       		.byte	0x6
 7822 19b4 94       		.byte	0x94
 7823 19b5 27       		.byte	0x27
 7824 19b6 78070000 		.4byte	0x778
 7825 19ba 02       		.uleb128 0x2
 7826 19bb 91       		.byte	0x91
 7827 19bc 6C       		.sleb128 -20
 7828 19bd 11       		.uleb128 0x11
 7829 19be 72070000 		.4byte	.LASF271
 7830 19c2 95       		.byte	0x95
 7831 19c3 10       		.byte	0x10
 7832 19c4 FC0E0000 		.4byte	0xefc
 7833 19c8 02       		.uleb128 0x2
 7834 19c9 91       		.byte	0x91
 7835 19ca 74       		.sleb128 -12
 7836 19cb 00       		.byte	0
 7837 19cc 16       		.uleb128 0x16
 7838 19cd 390F0000 		.4byte	.LASF300
 7839 19d1 05       		.byte	0x5
 7840 19d2 8C02     		.2byte	0x28c
 7841 19d4 16       		.byte	0x16
 7842 19d5 00000000 		.4byte	.LFB405
 7843 19d9 16000000 		.4byte	.LFE405-.LFB405
 7844 19dd 01       		.uleb128 0x1
 7845 19de 9C       		.byte	0x9c
 7846 19df F4190000 		.4byte	0x19f4
 7847 19e3 05       		.uleb128 0x5
 7848 19e4 8D080000 		.4byte	.LASF301
 7849 19e8 05       		.byte	0x5
 7850 19e9 8C02     		.2byte	0x28c
 7851 19eb 2C       		.byte	0x2c
 7852 19ec D3000000 		.4byte	0xd3
 7853 19f0 02       		.uleb128 0x2
 7854 19f1 91       		.byte	0x91
 7855 19f2 74       		.sleb128 -12
 7856 19f3 00       		.byte	0
ARM GAS  C:\Users\DEVELO~1\AppData\Local\Temp\cc4r91NU.s 			page 139


 7857 19f4 1B       		.uleb128 0x1b
 7858 19f5 1C080000 		.4byte	.LASF302
 7859 19f9 05       		.byte	0x5
 7860 19fa 6A02     		.2byte	0x26a
 7861 19fc 16       		.byte	0x16
 7862 19fd 00000000 		.4byte	.LFB404
 7863 1a01 40000000 		.4byte	.LFE404-.LFB404
 7864 1a05 01       		.uleb128 0x1
 7865 1a06 9C       		.byte	0x9c
 7866 1a07 1C1A0000 		.4byte	0x1a1c
 7867 1a0b 05       		.uleb128 0x5
 7868 1a0c 8D080000 		.4byte	.LASF301
 7869 1a10 05       		.byte	0x5
 7870 1a11 6A02     		.2byte	0x26a
 7871 1a13 2E       		.byte	0x2e
 7872 1a14 D3000000 		.4byte	0xd3
 7873 1a18 02       		.uleb128 0x2
 7874 1a19 91       		.byte	0x91
 7875 1a1a 74       		.sleb128 -12
 7876 1a1b 00       		.byte	0
 7877 1a1c 1B       		.uleb128 0x1b
 7878 1a1d D0060000 		.4byte	.LASF303
 7879 1a21 05       		.byte	0x5
 7880 1a22 4A02     		.2byte	0x24a
 7881 1a24 16       		.byte	0x16
 7882 1a25 00000000 		.4byte	.LFB403
 7883 1a29 5C000000 		.4byte	.LFE403-.LFB403
 7884 1a2d 01       		.uleb128 0x1
 7885 1a2e 9C       		.byte	0x9c
 7886 1a2f 531A0000 		.4byte	0x1a53
 7887 1a33 05       		.uleb128 0x5
 7888 1a34 8D080000 		.4byte	.LASF301
 7889 1a38 05       		.byte	0x5
 7890 1a39 4A02     		.2byte	0x24a
 7891 1a3b 2D       		.byte	0x2d
 7892 1a3c D3000000 		.4byte	0xd3
 7893 1a40 02       		.uleb128 0x2
 7894 1a41 91       		.byte	0x91
 7895 1a42 74       		.sleb128 -12
 7896 1a43 09       		.uleb128 0x9
 7897 1a44 6C7000   		.ascii	"lp\000"
 7898 1a47 05       		.byte	0x5
 7899 1a48 4A02     		.2byte	0x24a
 7900 1a4a 38       		.byte	0x38
 7901 1a4b EC040000 		.4byte	0x4ec
 7902 1a4f 02       		.uleb128 0x2
 7903 1a50 91       		.byte	0x91
 7904 1a51 73       		.sleb128 -13
 7905 1a52 00       		.byte	0
 7906 1a53 20       		.uleb128 0x20
 7907 1a54 C1060000 		.4byte	.LASF304
 7908 1a58 05       		.byte	0x5
 7909 1a59 61       		.byte	0x61
 7910 1a5a 16       		.byte	0x16
 7911 1a5b 00000000 		.4byte	.LFB384
 7912 1a5f 40000000 		.4byte	.LFE384-.LFB384
 7913 1a63 01       		.uleb128 0x1
ARM GAS  C:\Users\DEVELO~1\AppData\Local\Temp\cc4r91NU.s 			page 140


 7914 1a64 9C       		.byte	0x9c
 7915 1a65 791A0000 		.4byte	0x1a79
 7916 1a69 12       		.uleb128 0x12
 7917 1a6a 8D080000 		.4byte	.LASF301
 7918 1a6e 05       		.byte	0x5
 7919 1a6f 61       		.byte	0x61
 7920 1a70 2E       		.byte	0x2e
 7921 1a71 D3000000 		.4byte	0xd3
 7922 1a75 02       		.uleb128 0x2
 7923 1a76 91       		.byte	0x91
 7924 1a77 74       		.sleb128 -12
 7925 1a78 00       		.byte	0
 7926 1a79 16       		.uleb128 0x16
 7927 1a7a FA000000 		.4byte	.LASF305
 7928 1a7e 04       		.byte	0x4
 7929 1a7f 8D02     		.2byte	0x28d
 7930 1a81 14       		.byte	0x14
 7931 1a82 00000000 		.4byte	.LFB356
 7932 1a86 16000000 		.4byte	.LFE356-.LFB356
 7933 1a8a 01       		.uleb128 0x1
 7934 1a8b 9C       		.byte	0x9c
 7935 1a8c A11A0000 		.4byte	0x1aa1
 7936 1a90 05       		.uleb128 0x5
 7937 1a91 8B0E0000 		.4byte	.LASF306
 7938 1a95 04       		.byte	0x4
 7939 1a96 8D02     		.2byte	0x28d
 7940 1a98 30       		.byte	0x30
 7941 1a99 F0000000 		.4byte	0xf0
 7942 1a9d 02       		.uleb128 0x2
 7943 1a9e 91       		.byte	0x91
 7944 1a9f 74       		.sleb128 -12
 7945 1aa0 00       		.byte	0
 7946 1aa1 2B       		.uleb128 0x2b
 7947 1aa2 710B0000 		.4byte	.LASF307
 7948 1aa6 5E02     		.2byte	0x25e
 7949 1aa8 00000000 		.4byte	.LFB353
 7950 1aac 0C000000 		.4byte	.LFE353-.LFB353
 7951 1ab0 01       		.uleb128 0x1
 7952 1ab1 9C       		.byte	0x9c
 7953 1ab2 2B       		.uleb128 0x2b
 7954 1ab3 50050000 		.4byte	.LASF308
 7955 1ab7 5302     		.2byte	0x253
 7956 1ab9 00000000 		.4byte	.LFB352
 7957 1abd 0C000000 		.4byte	.LFE352-.LFB352
 7958 1ac1 01       		.uleb128 0x1
 7959 1ac2 9C       		.byte	0x9c
 7960 1ac3 1B       		.uleb128 0x1b
 7961 1ac4 8A040000 		.4byte	.LASF309
 7962 1ac8 01       		.byte	0x1
 7963 1ac9 D901     		.2byte	0x1d9
 7964 1acb 14       		.byte	0x14
 7965 1acc 00000000 		.4byte	.LFB205
 7966 1ad0 20000000 		.4byte	.LFE205-.LFB205
 7967 1ad4 01       		.uleb128 0x1
 7968 1ad5 9C       		.byte	0x9c
 7969 1ad6 161B0000 		.4byte	0x1b16
 7970 1ada 1C       		.uleb128 0x1c
ARM GAS  C:\Users\DEVELO~1\AppData\Local\Temp\cc4r91NU.s 			page 141


 7971 1adb 691B0000 		.4byte	0x1b69
 7972 1adf 0A000000 		.4byte	.LBB32
 7973 1ae3 0C000000 		.4byte	.LBE32-.LBB32
 7974 1ae7 01       		.byte	0x1
 7975 1ae8 DD01     		.2byte	0x1dd
 7976 1aea 1C       		.uleb128 0x1c
 7977 1aeb 771B0000 		.4byte	0x1b77
 7978 1aef 0A000000 		.4byte	.LBB34
 7979 1af3 0A000000 		.4byte	.LBE34-.LBB34
 7980 1af7 03       		.byte	0x3
 7981 1af8 6B03     		.2byte	0x36b
 7982 1afa 1C       		.uleb128 0x1c
 7983 1afb 851B0000 		.4byte	0x1b85
 7984 1aff 0A000000 		.4byte	.LBB36
 7985 1b03 08000000 		.4byte	.LBE36-.LBB36
 7986 1b07 03       		.byte	0x3
 7987 1b08 5203     		.2byte	0x352
 7988 1b0a 2C       		.uleb128 0x2c
 7989 1b0b 8F1B0000 		.4byte	0x1b8f
 7990 1b0f 02       		.uleb128 0x2
 7991 1b10 91       		.byte	0x91
 7992 1b11 74       		.sleb128 -12
 7993 1b12 00       		.byte	0
 7994 1b13 00       		.byte	0
 7995 1b14 00       		.byte	0
 7996 1b15 00       		.byte	0
 7997 1b16 1B       		.uleb128 0x1b
 7998 1b17 32020000 		.4byte	.LASF310
 7999 1b1b 01       		.byte	0x1
 8000 1b1c C301     		.2byte	0x1c3
 8001 1b1e 14       		.byte	0x14
 8002 1b1f 00000000 		.4byte	.LFB204
 8003 1b23 20000000 		.4byte	.LFE204-.LFB204
 8004 1b27 01       		.uleb128 0x1
 8005 1b28 9C       		.byte	0x9c
 8006 1b29 691B0000 		.4byte	0x1b69
 8007 1b2d 1C       		.uleb128 0x1c
 8008 1b2e 701B0000 		.4byte	0x1b70
 8009 1b32 0A000000 		.4byte	.LBB26
 8010 1b36 0C000000 		.4byte	.LBE26-.LBB26
 8011 1b3a 01       		.byte	0x1
 8012 1b3b C501     		.2byte	0x1c5
 8013 1b3d 1C       		.uleb128 0x1c
 8014 1b3e 7E1B0000 		.4byte	0x1b7e
 8015 1b42 0A000000 		.4byte	.LBB28
 8016 1b46 0A000000 		.4byte	.LBE28-.LBB28
 8017 1b4a 03       		.byte	0x3
 8018 1b4b 6003     		.2byte	0x360
 8019 1b4d 1C       		.uleb128 0x1c
 8020 1b4e 851B0000 		.4byte	0x1b85
 8021 1b52 0A000000 		.4byte	.LBB30
 8022 1b56 08000000 		.4byte	.LBE30-.LBB30
 8023 1b5a 03       		.byte	0x3
 8024 1b5b 3F03     		.2byte	0x33f
 8025 1b5d 2C       		.uleb128 0x2c
 8026 1b5e 8F1B0000 		.4byte	0x1b8f
 8027 1b62 02       		.uleb128 0x2
ARM GAS  C:\Users\DEVELO~1\AppData\Local\Temp\cc4r91NU.s 			page 142


 8028 1b63 91       		.byte	0x91
 8029 1b64 74       		.sleb128 -12
 8030 1b65 00       		.byte	0
 8031 1b66 00       		.byte	0
 8032 1b67 00       		.byte	0
 8033 1b68 00       		.byte	0
 8034 1b69 21       		.uleb128 0x21
 8035 1b6a 0A000000 		.4byte	.LASF311
 8036 1b6e 6903     		.2byte	0x369
 8037 1b70 21       		.uleb128 0x21
 8038 1b71 C0010000 		.4byte	.LASF312
 8039 1b75 5E03     		.2byte	0x35e
 8040 1b77 21       		.uleb128 0x21
 8041 1b78 7E040000 		.4byte	.LASF313
 8042 1b7c 4F03     		.2byte	0x34f
 8043 1b7e 21       		.uleb128 0x21
 8044 1b7f E60E0000 		.4byte	.LASF314
 8045 1b83 3703     		.2byte	0x337
 8046 1b85 40       		.uleb128 0x40
 8047 1b86 270B0000 		.4byte	.LASF323
 8048 1b8a 02       		.byte	0x2
 8049 1b8b EB01     		.2byte	0x1eb
 8050 1b8d 1B       		.byte	0x1b
 8051 1b8e 03       		.byte	0x3
 8052 1b8f 41       		.uleb128 0x41
 8053 1b90 6D040000 		.4byte	.LASF324
 8054 1b94 02       		.byte	0x2
 8055 1b95 EB01     		.2byte	0x1eb
 8056 1b97 32       		.byte	0x32
 8057 1b98 D3000000 		.4byte	0xd3
 8058 1b9c 00       		.byte	0
 8059 1b9d 00       		.byte	0
 8060              		.section	.debug_abbrev,"",%progbits
 8061              	.Ldebug_abbrev0:
 8062 0000 01       		.uleb128 0x1
 8063 0001 0D       		.uleb128 0xd
 8064 0002 00       		.byte	0
 8065 0003 03       		.uleb128 0x3
 8066 0004 0E       		.uleb128 0xe
 8067 0005 3A       		.uleb128 0x3a
 8068 0006 0B       		.uleb128 0xb
 8069 0007 3B       		.uleb128 0x3b
 8070 0008 05       		.uleb128 0x5
 8071 0009 39       		.uleb128 0x39
 8072 000a 0B       		.uleb128 0xb
 8073 000b 49       		.uleb128 0x49
 8074 000c 13       		.uleb128 0x13
 8075 000d 38       		.uleb128 0x38
 8076 000e 0B       		.uleb128 0xb
 8077 000f 00       		.byte	0
 8078 0010 00       		.byte	0
 8079 0011 02       		.uleb128 0x2
 8080 0012 0D       		.uleb128 0xd
 8081 0013 00       		.byte	0
 8082 0014 03       		.uleb128 0x3
 8083 0015 0E       		.uleb128 0xe
 8084 0016 3A       		.uleb128 0x3a
ARM GAS  C:\Users\DEVELO~1\AppData\Local\Temp\cc4r91NU.s 			page 143


 8085 0017 21       		.uleb128 0x21
 8086 0018 0F       		.sleb128 15
 8087 0019 3B       		.uleb128 0x3b
 8088 001a 0B       		.uleb128 0xb
 8089 001b 39       		.uleb128 0x39
 8090 001c 21       		.uleb128 0x21
 8091 001d 15       		.sleb128 21
 8092 001e 49       		.uleb128 0x49
 8093 001f 13       		.uleb128 0x13
 8094 0020 38       		.uleb128 0x38
 8095 0021 0B       		.uleb128 0xb
 8096 0022 00       		.byte	0
 8097 0023 00       		.byte	0
 8098 0024 03       		.uleb128 0x3
 8099 0025 0D       		.uleb128 0xd
 8100 0026 00       		.byte	0
 8101 0027 03       		.uleb128 0x3
 8102 0028 0E       		.uleb128 0xe
 8103 0029 3A       		.uleb128 0x3a
 8104 002a 21       		.uleb128 0x21
 8105 002b 0F       		.sleb128 15
 8106 002c 3B       		.uleb128 0x3b
 8107 002d 0B       		.uleb128 0xb
 8108 002e 39       		.uleb128 0x39
 8109 002f 21       		.uleb128 0x21
 8110 0030 15       		.sleb128 21
 8111 0031 49       		.uleb128 0x49
 8112 0032 13       		.uleb128 0x13
 8113 0033 38       		.uleb128 0x38
 8114 0034 05       		.uleb128 0x5
 8115 0035 00       		.byte	0
 8116 0036 00       		.byte	0
 8117 0037 04       		.uleb128 0x4
 8118 0038 05       		.uleb128 0x5
 8119 0039 00       		.byte	0
 8120 003a 49       		.uleb128 0x49
 8121 003b 13       		.uleb128 0x13
 8122 003c 00       		.byte	0
 8123 003d 00       		.byte	0
 8124 003e 05       		.uleb128 0x5
 8125 003f 05       		.uleb128 0x5
 8126 0040 00       		.byte	0
 8127 0041 03       		.uleb128 0x3
 8128 0042 0E       		.uleb128 0xe
 8129 0043 3A       		.uleb128 0x3a
 8130 0044 0B       		.uleb128 0xb
 8131 0045 3B       		.uleb128 0x3b
 8132 0046 05       		.uleb128 0x5
 8133 0047 39       		.uleb128 0x39
 8134 0048 0B       		.uleb128 0xb
 8135 0049 49       		.uleb128 0x49
 8136 004a 13       		.uleb128 0x13
 8137 004b 02       		.uleb128 0x2
 8138 004c 18       		.uleb128 0x18
 8139 004d 00       		.byte	0
 8140 004e 00       		.byte	0
 8141 004f 06       		.uleb128 0x6
ARM GAS  C:\Users\DEVELO~1\AppData\Local\Temp\cc4r91NU.s 			page 144


 8142 0050 28       		.uleb128 0x28
 8143 0051 00       		.byte	0
 8144 0052 03       		.uleb128 0x3
 8145 0053 0E       		.uleb128 0xe
 8146 0054 1C       		.uleb128 0x1c
 8147 0055 0B       		.uleb128 0xb
 8148 0056 00       		.byte	0
 8149 0057 00       		.byte	0
 8150 0058 07       		.uleb128 0x7
 8151 0059 01       		.uleb128 0x1
 8152 005a 01       		.byte	0x1
 8153 005b 49       		.uleb128 0x49
 8154 005c 13       		.uleb128 0x13
 8155 005d 01       		.uleb128 0x1
 8156 005e 13       		.uleb128 0x13
 8157 005f 00       		.byte	0
 8158 0060 00       		.byte	0
 8159 0061 08       		.uleb128 0x8
 8160 0062 21       		.uleb128 0x21
 8161 0063 00       		.byte	0
 8162 0064 49       		.uleb128 0x49
 8163 0065 13       		.uleb128 0x13
 8164 0066 2F       		.uleb128 0x2f
 8165 0067 0B       		.uleb128 0xb
 8166 0068 00       		.byte	0
 8167 0069 00       		.byte	0
 8168 006a 09       		.uleb128 0x9
 8169 006b 05       		.uleb128 0x5
 8170 006c 00       		.byte	0
 8171 006d 03       		.uleb128 0x3
 8172 006e 08       		.uleb128 0x8
 8173 006f 3A       		.uleb128 0x3a
 8174 0070 0B       		.uleb128 0xb
 8175 0071 3B       		.uleb128 0x3b
 8176 0072 05       		.uleb128 0x5
 8177 0073 39       		.uleb128 0x39
 8178 0074 0B       		.uleb128 0xb
 8179 0075 49       		.uleb128 0x49
 8180 0076 13       		.uleb128 0x13
 8181 0077 02       		.uleb128 0x2
 8182 0078 18       		.uleb128 0x18
 8183 0079 00       		.byte	0
 8184 007a 00       		.byte	0
 8185 007b 0A       		.uleb128 0xa
 8186 007c 34       		.uleb128 0x34
 8187 007d 00       		.byte	0
 8188 007e 03       		.uleb128 0x3
 8189 007f 08       		.uleb128 0x8
 8190 0080 3A       		.uleb128 0x3a
 8191 0081 21       		.uleb128 0x21
 8192 0082 06       		.sleb128 6
 8193 0083 3B       		.uleb128 0x3b
 8194 0084 05       		.uleb128 0x5
 8195 0085 39       		.uleb128 0x39
 8196 0086 0B       		.uleb128 0xb
 8197 0087 49       		.uleb128 0x49
 8198 0088 13       		.uleb128 0x13
ARM GAS  C:\Users\DEVELO~1\AppData\Local\Temp\cc4r91NU.s 			page 145


 8199 0089 02       		.uleb128 0x2
 8200 008a 18       		.uleb128 0x18
 8201 008b 00       		.byte	0
 8202 008c 00       		.byte	0
 8203 008d 0B       		.uleb128 0xb
 8204 008e 0F       		.uleb128 0xf
 8205 008f 00       		.byte	0
 8206 0090 0B       		.uleb128 0xb
 8207 0091 21       		.uleb128 0x21
 8208 0092 04       		.sleb128 4
 8209 0093 49       		.uleb128 0x49
 8210 0094 13       		.uleb128 0x13
 8211 0095 00       		.byte	0
 8212 0096 00       		.byte	0
 8213 0097 0C       		.uleb128 0xc
 8214 0098 16       		.uleb128 0x16
 8215 0099 00       		.byte	0
 8216 009a 03       		.uleb128 0x3
 8217 009b 0E       		.uleb128 0xe
 8218 009c 3A       		.uleb128 0x3a
 8219 009d 0B       		.uleb128 0xb
 8220 009e 3B       		.uleb128 0x3b
 8221 009f 05       		.uleb128 0x5
 8222 00a0 39       		.uleb128 0x39
 8223 00a1 0B       		.uleb128 0xb
 8224 00a2 49       		.uleb128 0x49
 8225 00a3 13       		.uleb128 0x13
 8226 00a4 00       		.byte	0
 8227 00a5 00       		.byte	0
 8228 00a6 0D       		.uleb128 0xd
 8229 00a7 34       		.uleb128 0x34
 8230 00a8 00       		.byte	0
 8231 00a9 03       		.uleb128 0x3
 8232 00aa 0E       		.uleb128 0xe
 8233 00ab 3A       		.uleb128 0x3a
 8234 00ac 21       		.uleb128 0x21
 8235 00ad 06       		.sleb128 6
 8236 00ae 3B       		.uleb128 0x3b
 8237 00af 05       		.uleb128 0x5
 8238 00b0 39       		.uleb128 0x39
 8239 00b1 0B       		.uleb128 0xb
 8240 00b2 49       		.uleb128 0x49
 8241 00b3 13       		.uleb128 0x13
 8242 00b4 02       		.uleb128 0x2
 8243 00b5 18       		.uleb128 0x18
 8244 00b6 00       		.byte	0
 8245 00b7 00       		.byte	0
 8246 00b8 0E       		.uleb128 0xe
 8247 00b9 16       		.uleb128 0x16
 8248 00ba 00       		.byte	0
 8249 00bb 03       		.uleb128 0x3
 8250 00bc 0E       		.uleb128 0xe
 8251 00bd 3A       		.uleb128 0x3a
 8252 00be 0B       		.uleb128 0xb
 8253 00bf 3B       		.uleb128 0x3b
 8254 00c0 0B       		.uleb128 0xb
 8255 00c1 39       		.uleb128 0x39
ARM GAS  C:\Users\DEVELO~1\AppData\Local\Temp\cc4r91NU.s 			page 146


 8256 00c2 0B       		.uleb128 0xb
 8257 00c3 49       		.uleb128 0x49
 8258 00c4 13       		.uleb128 0x13
 8259 00c5 00       		.byte	0
 8260 00c6 00       		.byte	0
 8261 00c7 0F       		.uleb128 0xf
 8262 00c8 24       		.uleb128 0x24
 8263 00c9 00       		.byte	0
 8264 00ca 0B       		.uleb128 0xb
 8265 00cb 0B       		.uleb128 0xb
 8266 00cc 3E       		.uleb128 0x3e
 8267 00cd 0B       		.uleb128 0xb
 8268 00ce 03       		.uleb128 0x3
 8269 00cf 0E       		.uleb128 0xe
 8270 00d0 00       		.byte	0
 8271 00d1 00       		.byte	0
 8272 00d2 10       		.uleb128 0x10
 8273 00d3 35       		.uleb128 0x35
 8274 00d4 00       		.byte	0
 8275 00d5 49       		.uleb128 0x49
 8276 00d6 13       		.uleb128 0x13
 8277 00d7 00       		.byte	0
 8278 00d8 00       		.byte	0
 8279 00d9 11       		.uleb128 0x11
 8280 00da 34       		.uleb128 0x34
 8281 00db 00       		.byte	0
 8282 00dc 03       		.uleb128 0x3
 8283 00dd 0E       		.uleb128 0xe
 8284 00de 3A       		.uleb128 0x3a
 8285 00df 21       		.uleb128 0x21
 8286 00e0 06       		.sleb128 6
 8287 00e1 3B       		.uleb128 0x3b
 8288 00e2 0B       		.uleb128 0xb
 8289 00e3 39       		.uleb128 0x39
 8290 00e4 0B       		.uleb128 0xb
 8291 00e5 49       		.uleb128 0x49
 8292 00e6 13       		.uleb128 0x13
 8293 00e7 02       		.uleb128 0x2
 8294 00e8 18       		.uleb128 0x18
 8295 00e9 00       		.byte	0
 8296 00ea 00       		.byte	0
 8297 00eb 12       		.uleb128 0x12
 8298 00ec 05       		.uleb128 0x5
 8299 00ed 00       		.byte	0
 8300 00ee 03       		.uleb128 0x3
 8301 00ef 0E       		.uleb128 0xe
 8302 00f0 3A       		.uleb128 0x3a
 8303 00f1 0B       		.uleb128 0xb
 8304 00f2 3B       		.uleb128 0x3b
 8305 00f3 0B       		.uleb128 0xb
 8306 00f4 39       		.uleb128 0x39
 8307 00f5 0B       		.uleb128 0xb
 8308 00f6 49       		.uleb128 0x49
 8309 00f7 13       		.uleb128 0x13
 8310 00f8 02       		.uleb128 0x2
 8311 00f9 18       		.uleb128 0x18
 8312 00fa 00       		.byte	0
ARM GAS  C:\Users\DEVELO~1\AppData\Local\Temp\cc4r91NU.s 			page 147


 8313 00fb 00       		.byte	0
 8314 00fc 13       		.uleb128 0x13
 8315 00fd 26       		.uleb128 0x26
 8316 00fe 00       		.byte	0
 8317 00ff 49       		.uleb128 0x49
 8318 0100 13       		.uleb128 0x13
 8319 0101 00       		.byte	0
 8320 0102 00       		.byte	0
 8321 0103 14       		.uleb128 0x14
 8322 0104 0D       		.uleb128 0xd
 8323 0105 00       		.byte	0
 8324 0106 03       		.uleb128 0x3
 8325 0107 0E       		.uleb128 0xe
 8326 0108 3A       		.uleb128 0x3a
 8327 0109 21       		.uleb128 0x21
 8328 010a 0C       		.sleb128 12
 8329 010b 3B       		.uleb128 0x3b
 8330 010c 05       		.uleb128 0x5
 8331 010d 39       		.uleb128 0x39
 8332 010e 0B       		.uleb128 0xb
 8333 010f 49       		.uleb128 0x49
 8334 0110 13       		.uleb128 0x13
 8335 0111 38       		.uleb128 0x38
 8336 0112 05       		.uleb128 0x5
 8337 0113 00       		.byte	0
 8338 0114 00       		.byte	0
 8339 0115 15       		.uleb128 0x15
 8340 0116 2E       		.uleb128 0x2e
 8341 0117 01       		.byte	0x1
 8342 0118 3F       		.uleb128 0x3f
 8343 0119 19       		.uleb128 0x19
 8344 011a 03       		.uleb128 0x3
 8345 011b 0E       		.uleb128 0xe
 8346 011c 3A       		.uleb128 0x3a
 8347 011d 0B       		.uleb128 0xb
 8348 011e 3B       		.uleb128 0x3b
 8349 011f 05       		.uleb128 0x5
 8350 0120 39       		.uleb128 0x39
 8351 0121 21       		.uleb128 0x21
 8352 0122 08       		.sleb128 8
 8353 0123 27       		.uleb128 0x27
 8354 0124 19       		.uleb128 0x19
 8355 0125 3C       		.uleb128 0x3c
 8356 0126 19       		.uleb128 0x19
 8357 0127 01       		.uleb128 0x1
 8358 0128 13       		.uleb128 0x13
 8359 0129 00       		.byte	0
 8360 012a 00       		.byte	0
 8361 012b 16       		.uleb128 0x16
 8362 012c 2E       		.uleb128 0x2e
 8363 012d 01       		.byte	0x1
 8364 012e 03       		.uleb128 0x3
 8365 012f 0E       		.uleb128 0xe
 8366 0130 3A       		.uleb128 0x3a
 8367 0131 0B       		.uleb128 0xb
 8368 0132 3B       		.uleb128 0x3b
 8369 0133 05       		.uleb128 0x5
ARM GAS  C:\Users\DEVELO~1\AppData\Local\Temp\cc4r91NU.s 			page 148


 8370 0134 39       		.uleb128 0x39
 8371 0135 0B       		.uleb128 0xb
 8372 0136 27       		.uleb128 0x27
 8373 0137 19       		.uleb128 0x19
 8374 0138 11       		.uleb128 0x11
 8375 0139 01       		.uleb128 0x1
 8376 013a 12       		.uleb128 0x12
 8377 013b 06       		.uleb128 0x6
 8378 013c 40       		.uleb128 0x40
 8379 013d 18       		.uleb128 0x18
 8380 013e 7C       		.uleb128 0x7c
 8381 013f 19       		.uleb128 0x19
 8382 0140 01       		.uleb128 0x1
 8383 0141 13       		.uleb128 0x13
 8384 0142 00       		.byte	0
 8385 0143 00       		.byte	0
 8386 0144 17       		.uleb128 0x17
 8387 0145 2E       		.uleb128 0x2e
 8388 0146 01       		.byte	0x1
 8389 0147 3F       		.uleb128 0x3f
 8390 0148 19       		.uleb128 0x19
 8391 0149 03       		.uleb128 0x3
 8392 014a 0E       		.uleb128 0xe
 8393 014b 3A       		.uleb128 0x3a
 8394 014c 21       		.uleb128 0x21
 8395 014d 06       		.sleb128 6
 8396 014e 3B       		.uleb128 0x3b
 8397 014f 05       		.uleb128 0x5
 8398 0150 39       		.uleb128 0x39
 8399 0151 21       		.uleb128 0x21
 8400 0152 06       		.sleb128 6
 8401 0153 27       		.uleb128 0x27
 8402 0154 19       		.uleb128 0x19
 8403 0155 11       		.uleb128 0x11
 8404 0156 01       		.uleb128 0x1
 8405 0157 12       		.uleb128 0x12
 8406 0158 06       		.uleb128 0x6
 8407 0159 40       		.uleb128 0x40
 8408 015a 18       		.uleb128 0x18
 8409 015b 7A       		.uleb128 0x7a
 8410 015c 19       		.uleb128 0x19
 8411 015d 01       		.uleb128 0x1
 8412 015e 13       		.uleb128 0x13
 8413 015f 00       		.byte	0
 8414 0160 00       		.byte	0
 8415 0161 18       		.uleb128 0x18
 8416 0162 2E       		.uleb128 0x2e
 8417 0163 01       		.byte	0x1
 8418 0164 3F       		.uleb128 0x3f
 8419 0165 19       		.uleb128 0x19
 8420 0166 03       		.uleb128 0x3
 8421 0167 0E       		.uleb128 0xe
 8422 0168 3A       		.uleb128 0x3a
 8423 0169 21       		.uleb128 0x21
 8424 016a 06       		.sleb128 6
 8425 016b 3B       		.uleb128 0x3b
 8426 016c 05       		.uleb128 0x5
ARM GAS  C:\Users\DEVELO~1\AppData\Local\Temp\cc4r91NU.s 			page 149


 8427 016d 39       		.uleb128 0x39
 8428 016e 0B       		.uleb128 0xb
 8429 016f 27       		.uleb128 0x27
 8430 0170 19       		.uleb128 0x19
 8431 0171 11       		.uleb128 0x11
 8432 0172 01       		.uleb128 0x1
 8433 0173 12       		.uleb128 0x12
 8434 0174 06       		.uleb128 0x6
 8435 0175 40       		.uleb128 0x40
 8436 0176 18       		.uleb128 0x18
 8437 0177 7C       		.uleb128 0x7c
 8438 0178 19       		.uleb128 0x19
 8439 0179 01       		.uleb128 0x1
 8440 017a 13       		.uleb128 0x13
 8441 017b 00       		.byte	0
 8442 017c 00       		.byte	0
 8443 017d 19       		.uleb128 0x19
 8444 017e 0D       		.uleb128 0xd
 8445 017f 00       		.byte	0
 8446 0180 03       		.uleb128 0x3
 8447 0181 08       		.uleb128 0x8
 8448 0182 3A       		.uleb128 0x3a
 8449 0183 0B       		.uleb128 0xb
 8450 0184 3B       		.uleb128 0x3b
 8451 0185 05       		.uleb128 0x5
 8452 0186 39       		.uleb128 0x39
 8453 0187 0B       		.uleb128 0xb
 8454 0188 49       		.uleb128 0x49
 8455 0189 13       		.uleb128 0x13
 8456 018a 38       		.uleb128 0x38
 8457 018b 0B       		.uleb128 0xb
 8458 018c 00       		.byte	0
 8459 018d 00       		.byte	0
 8460 018e 1A       		.uleb128 0x1a
 8461 018f 13       		.uleb128 0x13
 8462 0190 01       		.byte	0x1
 8463 0191 0B       		.uleb128 0xb
 8464 0192 0B       		.uleb128 0xb
 8465 0193 3A       		.uleb128 0x3a
 8466 0194 0B       		.uleb128 0xb
 8467 0195 3B       		.uleb128 0x3b
 8468 0196 05       		.uleb128 0x5
 8469 0197 39       		.uleb128 0x39
 8470 0198 21       		.uleb128 0x21
 8471 0199 09       		.sleb128 9
 8472 019a 01       		.uleb128 0x1
 8473 019b 13       		.uleb128 0x13
 8474 019c 00       		.byte	0
 8475 019d 00       		.byte	0
 8476 019e 1B       		.uleb128 0x1b
 8477 019f 2E       		.uleb128 0x2e
 8478 01a0 01       		.byte	0x1
 8479 01a1 03       		.uleb128 0x3
 8480 01a2 0E       		.uleb128 0xe
 8481 01a3 3A       		.uleb128 0x3a
 8482 01a4 0B       		.uleb128 0xb
 8483 01a5 3B       		.uleb128 0x3b
ARM GAS  C:\Users\DEVELO~1\AppData\Local\Temp\cc4r91NU.s 			page 150


 8484 01a6 05       		.uleb128 0x5
 8485 01a7 39       		.uleb128 0x39
 8486 01a8 0B       		.uleb128 0xb
 8487 01a9 27       		.uleb128 0x27
 8488 01aa 19       		.uleb128 0x19
 8489 01ab 11       		.uleb128 0x11
 8490 01ac 01       		.uleb128 0x1
 8491 01ad 12       		.uleb128 0x12
 8492 01ae 06       		.uleb128 0x6
 8493 01af 40       		.uleb128 0x40
 8494 01b0 18       		.uleb128 0x18
 8495 01b1 7A       		.uleb128 0x7a
 8496 01b2 19       		.uleb128 0x19
 8497 01b3 01       		.uleb128 0x1
 8498 01b4 13       		.uleb128 0x13
 8499 01b5 00       		.byte	0
 8500 01b6 00       		.byte	0
 8501 01b7 1C       		.uleb128 0x1c
 8502 01b8 1D       		.uleb128 0x1d
 8503 01b9 01       		.byte	0x1
 8504 01ba 31       		.uleb128 0x31
 8505 01bb 13       		.uleb128 0x13
 8506 01bc 11       		.uleb128 0x11
 8507 01bd 01       		.uleb128 0x1
 8508 01be 12       		.uleb128 0x12
 8509 01bf 06       		.uleb128 0x6
 8510 01c0 58       		.uleb128 0x58
 8511 01c1 0B       		.uleb128 0xb
 8512 01c2 59       		.uleb128 0x59
 8513 01c3 05       		.uleb128 0x5
 8514 01c4 57       		.uleb128 0x57
 8515 01c5 21       		.uleb128 0x21
 8516 01c6 03       		.sleb128 3
 8517 01c7 00       		.byte	0
 8518 01c8 00       		.byte	0
 8519 01c9 1D       		.uleb128 0x1d
 8520 01ca 04       		.uleb128 0x4
 8521 01cb 01       		.byte	0x1
 8522 01cc 3E       		.uleb128 0x3e
 8523 01cd 21       		.uleb128 0x21
 8524 01ce 07       		.sleb128 7
 8525 01cf 0B       		.uleb128 0xb
 8526 01d0 21       		.uleb128 0x21
 8527 01d1 01       		.sleb128 1
 8528 01d2 49       		.uleb128 0x49
 8529 01d3 13       		.uleb128 0x13
 8530 01d4 3A       		.uleb128 0x3a
 8531 01d5 21       		.uleb128 0x21
 8532 01d6 0D       		.sleb128 13
 8533 01d7 3B       		.uleb128 0x3b
 8534 01d8 05       		.uleb128 0x5
 8535 01d9 39       		.uleb128 0x39
 8536 01da 21       		.uleb128 0x21
 8537 01db 0E       		.sleb128 14
 8538 01dc 01       		.uleb128 0x1
 8539 01dd 13       		.uleb128 0x13
 8540 01de 00       		.byte	0
ARM GAS  C:\Users\DEVELO~1\AppData\Local\Temp\cc4r91NU.s 			page 151


 8541 01df 00       		.byte	0
 8542 01e0 1E       		.uleb128 0x1e
 8543 01e1 2E       		.uleb128 0x2e
 8544 01e2 01       		.byte	0x1
 8545 01e3 3F       		.uleb128 0x3f
 8546 01e4 19       		.uleb128 0x19
 8547 01e5 03       		.uleb128 0x3
 8548 01e6 0E       		.uleb128 0xe
 8549 01e7 3A       		.uleb128 0x3a
 8550 01e8 0B       		.uleb128 0xb
 8551 01e9 3B       		.uleb128 0x3b
 8552 01ea 0B       		.uleb128 0xb
 8553 01eb 39       		.uleb128 0x39
 8554 01ec 21       		.uleb128 0x21
 8555 01ed 08       		.sleb128 8
 8556 01ee 27       		.uleb128 0x27
 8557 01ef 19       		.uleb128 0x19
 8558 01f0 3C       		.uleb128 0x3c
 8559 01f1 19       		.uleb128 0x19
 8560 01f2 01       		.uleb128 0x1
 8561 01f3 13       		.uleb128 0x13
 8562 01f4 00       		.byte	0
 8563 01f5 00       		.byte	0
 8564 01f6 1F       		.uleb128 0x1f
 8565 01f7 0B       		.uleb128 0xb
 8566 01f8 01       		.byte	0x1
 8567 01f9 11       		.uleb128 0x11
 8568 01fa 01       		.uleb128 0x1
 8569 01fb 12       		.uleb128 0x12
 8570 01fc 06       		.uleb128 0x6
 8571 01fd 00       		.byte	0
 8572 01fe 00       		.byte	0
 8573 01ff 20       		.uleb128 0x20
 8574 0200 2E       		.uleb128 0x2e
 8575 0201 01       		.byte	0x1
 8576 0202 03       		.uleb128 0x3
 8577 0203 0E       		.uleb128 0xe
 8578 0204 3A       		.uleb128 0x3a
 8579 0205 0B       		.uleb128 0xb
 8580 0206 3B       		.uleb128 0x3b
 8581 0207 0B       		.uleb128 0xb
 8582 0208 39       		.uleb128 0x39
 8583 0209 0B       		.uleb128 0xb
 8584 020a 27       		.uleb128 0x27
 8585 020b 19       		.uleb128 0x19
 8586 020c 11       		.uleb128 0x11
 8587 020d 01       		.uleb128 0x1
 8588 020e 12       		.uleb128 0x12
 8589 020f 06       		.uleb128 0x6
 8590 0210 40       		.uleb128 0x40
 8591 0211 18       		.uleb128 0x18
 8592 0212 7A       		.uleb128 0x7a
 8593 0213 19       		.uleb128 0x19
 8594 0214 01       		.uleb128 0x1
 8595 0215 13       		.uleb128 0x13
 8596 0216 00       		.byte	0
 8597 0217 00       		.byte	0
ARM GAS  C:\Users\DEVELO~1\AppData\Local\Temp\cc4r91NU.s 			page 152


 8598 0218 21       		.uleb128 0x21
 8599 0219 2E       		.uleb128 0x2e
 8600 021a 00       		.byte	0
 8601 021b 03       		.uleb128 0x3
 8602 021c 0E       		.uleb128 0xe
 8603 021d 3A       		.uleb128 0x3a
 8604 021e 21       		.uleb128 0x21
 8605 021f 03       		.sleb128 3
 8606 0220 3B       		.uleb128 0x3b
 8607 0221 05       		.uleb128 0x5
 8608 0222 39       		.uleb128 0x39
 8609 0223 21       		.uleb128 0x21
 8610 0224 1B       		.sleb128 27
 8611 0225 27       		.uleb128 0x27
 8612 0226 19       		.uleb128 0x19
 8613 0227 20       		.uleb128 0x20
 8614 0228 21       		.uleb128 0x21
 8615 0229 03       		.sleb128 3
 8616 022a 00       		.byte	0
 8617 022b 00       		.byte	0
 8618 022c 22       		.uleb128 0x22
 8619 022d 15       		.uleb128 0x15
 8620 022e 01       		.byte	0x1
 8621 022f 27       		.uleb128 0x27
 8622 0230 19       		.uleb128 0x19
 8623 0231 01       		.uleb128 0x1
 8624 0232 13       		.uleb128 0x13
 8625 0233 00       		.byte	0
 8626 0234 00       		.byte	0
 8627 0235 23       		.uleb128 0x23
 8628 0236 13       		.uleb128 0x13
 8629 0237 01       		.byte	0x1
 8630 0238 0B       		.uleb128 0xb
 8631 0239 21       		.uleb128 0x21
 8632 023a 20       		.sleb128 32
 8633 023b 3A       		.uleb128 0x3a
 8634 023c 21       		.uleb128 0x21
 8635 023d 0F       		.sleb128 15
 8636 023e 3B       		.uleb128 0x3b
 8637 023f 0B       		.uleb128 0xb
 8638 0240 39       		.uleb128 0x39
 8639 0241 21       		.uleb128 0x21
 8640 0242 09       		.sleb128 9
 8641 0243 01       		.uleb128 0x1
 8642 0244 13       		.uleb128 0x13
 8643 0245 00       		.byte	0
 8644 0246 00       		.byte	0
 8645 0247 24       		.uleb128 0x24
 8646 0248 0D       		.uleb128 0xd
 8647 0249 00       		.byte	0
 8648 024a 03       		.uleb128 0x3
 8649 024b 08       		.uleb128 0x8
 8650 024c 3A       		.uleb128 0x3a
 8651 024d 21       		.uleb128 0x21
 8652 024e 0F       		.sleb128 15
 8653 024f 3B       		.uleb128 0x3b
 8654 0250 0B       		.uleb128 0xb
ARM GAS  C:\Users\DEVELO~1\AppData\Local\Temp\cc4r91NU.s 			page 153


 8655 0251 39       		.uleb128 0x39
 8656 0252 0B       		.uleb128 0xb
 8657 0253 49       		.uleb128 0x49
 8658 0254 13       		.uleb128 0x13
 8659 0255 38       		.uleb128 0x38
 8660 0256 05       		.uleb128 0x5
 8661 0257 00       		.byte	0
 8662 0258 00       		.byte	0
 8663 0259 25       		.uleb128 0x25
 8664 025a 2E       		.uleb128 0x2e
 8665 025b 01       		.byte	0x1
 8666 025c 03       		.uleb128 0x3
 8667 025d 0E       		.uleb128 0xe
 8668 025e 3A       		.uleb128 0x3a
 8669 025f 21       		.uleb128 0x21
 8670 0260 06       		.sleb128 6
 8671 0261 3B       		.uleb128 0x3b
 8672 0262 0B       		.uleb128 0xb
 8673 0263 39       		.uleb128 0x39
 8674 0264 21       		.uleb128 0x21
 8675 0265 0D       		.sleb128 13
 8676 0266 27       		.uleb128 0x27
 8677 0267 19       		.uleb128 0x19
 8678 0268 11       		.uleb128 0x11
 8679 0269 01       		.uleb128 0x1
 8680 026a 12       		.uleb128 0x12
 8681 026b 06       		.uleb128 0x6
 8682 026c 40       		.uleb128 0x40
 8683 026d 18       		.uleb128 0x18
 8684 026e 7C       		.uleb128 0x7c
 8685 026f 19       		.uleb128 0x19
 8686 0270 01       		.uleb128 0x1
 8687 0271 13       		.uleb128 0x13
 8688 0272 00       		.byte	0
 8689 0273 00       		.byte	0
 8690 0274 26       		.uleb128 0x26
 8691 0275 15       		.uleb128 0x15
 8692 0276 01       		.byte	0x1
 8693 0277 27       		.uleb128 0x27
 8694 0278 19       		.uleb128 0x19
 8695 0279 49       		.uleb128 0x49
 8696 027a 13       		.uleb128 0x13
 8697 027b 01       		.uleb128 0x1
 8698 027c 13       		.uleb128 0x13
 8699 027d 00       		.byte	0
 8700 027e 00       		.byte	0
 8701 027f 27       		.uleb128 0x27
 8702 0280 0D       		.uleb128 0xd
 8703 0281 00       		.byte	0
 8704 0282 03       		.uleb128 0x3
 8705 0283 08       		.uleb128 0x8
 8706 0284 3A       		.uleb128 0x3a
 8707 0285 21       		.uleb128 0x21
 8708 0286 06       		.sleb128 6
 8709 0287 3B       		.uleb128 0x3b
 8710 0288 0B       		.uleb128 0xb
 8711 0289 39       		.uleb128 0x39
ARM GAS  C:\Users\DEVELO~1\AppData\Local\Temp\cc4r91NU.s 			page 154


 8712 028a 0B       		.uleb128 0xb
 8713 028b 49       		.uleb128 0x49
 8714 028c 13       		.uleb128 0x13
 8715 028d 00       		.byte	0
 8716 028e 00       		.byte	0
 8717 028f 28       		.uleb128 0x28
 8718 0290 2E       		.uleb128 0x2e
 8719 0291 01       		.byte	0x1
 8720 0292 3F       		.uleb128 0x3f
 8721 0293 19       		.uleb128 0x19
 8722 0294 03       		.uleb128 0x3
 8723 0295 0E       		.uleb128 0xe
 8724 0296 3A       		.uleb128 0x3a
 8725 0297 21       		.uleb128 0x21
 8726 0298 06       		.sleb128 6
 8727 0299 3B       		.uleb128 0x3b
 8728 029a 05       		.uleb128 0x5
 8729 029b 39       		.uleb128 0x39
 8730 029c 21       		.uleb128 0x21
 8731 029d 0F       		.sleb128 15
 8732 029e 27       		.uleb128 0x27
 8733 029f 19       		.uleb128 0x19
 8734 02a0 49       		.uleb128 0x49
 8735 02a1 13       		.uleb128 0x13
 8736 02a2 11       		.uleb128 0x11
 8737 02a3 01       		.uleb128 0x1
 8738 02a4 12       		.uleb128 0x12
 8739 02a5 06       		.uleb128 0x6
 8740 02a6 40       		.uleb128 0x40
 8741 02a7 18       		.uleb128 0x18
 8742 02a8 7A       		.uleb128 0x7a
 8743 02a9 19       		.uleb128 0x19
 8744 02aa 01       		.uleb128 0x1
 8745 02ab 13       		.uleb128 0x13
 8746 02ac 00       		.byte	0
 8747 02ad 00       		.byte	0
 8748 02ae 29       		.uleb128 0x29
 8749 02af 34       		.uleb128 0x34
 8750 02b0 00       		.byte	0
 8751 02b1 03       		.uleb128 0x3
 8752 02b2 0E       		.uleb128 0xe
 8753 02b3 49       		.uleb128 0x49
 8754 02b4 13       		.uleb128 0x13
 8755 02b5 34       		.uleb128 0x34
 8756 02b6 19       		.uleb128 0x19
 8757 02b7 00       		.byte	0
 8758 02b8 00       		.byte	0
 8759 02b9 2A       		.uleb128 0x2a
 8760 02ba 34       		.uleb128 0x34
 8761 02bb 00       		.byte	0
 8762 02bc 03       		.uleb128 0x3
 8763 02bd 08       		.uleb128 0x8
 8764 02be 3A       		.uleb128 0x3a
 8765 02bf 21       		.uleb128 0x21
 8766 02c0 06       		.sleb128 6
 8767 02c1 3B       		.uleb128 0x3b
 8768 02c2 0B       		.uleb128 0xb
ARM GAS  C:\Users\DEVELO~1\AppData\Local\Temp\cc4r91NU.s 			page 155


 8769 02c3 39       		.uleb128 0x39
 8770 02c4 21       		.uleb128 0x21
 8771 02c5 0C       		.sleb128 12
 8772 02c6 49       		.uleb128 0x49
 8773 02c7 13       		.uleb128 0x13
 8774 02c8 02       		.uleb128 0x2
 8775 02c9 18       		.uleb128 0x18
 8776 02ca 00       		.byte	0
 8777 02cb 00       		.byte	0
 8778 02cc 2B       		.uleb128 0x2b
 8779 02cd 2E       		.uleb128 0x2e
 8780 02ce 00       		.byte	0
 8781 02cf 03       		.uleb128 0x3
 8782 02d0 0E       		.uleb128 0xe
 8783 02d1 3A       		.uleb128 0x3a
 8784 02d2 21       		.uleb128 0x21
 8785 02d3 04       		.sleb128 4
 8786 02d4 3B       		.uleb128 0x3b
 8787 02d5 05       		.uleb128 0x5
 8788 02d6 39       		.uleb128 0x39
 8789 02d7 21       		.uleb128 0x21
 8790 02d8 14       		.sleb128 20
 8791 02d9 27       		.uleb128 0x27
 8792 02da 19       		.uleb128 0x19
 8793 02db 11       		.uleb128 0x11
 8794 02dc 01       		.uleb128 0x1
 8795 02dd 12       		.uleb128 0x12
 8796 02de 06       		.uleb128 0x6
 8797 02df 40       		.uleb128 0x40
 8798 02e0 18       		.uleb128 0x18
 8799 02e1 7C       		.uleb128 0x7c
 8800 02e2 19       		.uleb128 0x19
 8801 02e3 00       		.byte	0
 8802 02e4 00       		.byte	0
 8803 02e5 2C       		.uleb128 0x2c
 8804 02e6 05       		.uleb128 0x5
 8805 02e7 00       		.byte	0
 8806 02e8 31       		.uleb128 0x31
 8807 02e9 13       		.uleb128 0x13
 8808 02ea 02       		.uleb128 0x2
 8809 02eb 18       		.uleb128 0x18
 8810 02ec 00       		.byte	0
 8811 02ed 00       		.byte	0
 8812 02ee 2D       		.uleb128 0x2d
 8813 02ef 11       		.uleb128 0x11
 8814 02f0 01       		.byte	0x1
 8815 02f1 25       		.uleb128 0x25
 8816 02f2 0E       		.uleb128 0xe
 8817 02f3 13       		.uleb128 0x13
 8818 02f4 0B       		.uleb128 0xb
 8819 02f5 03       		.uleb128 0x3
 8820 02f6 0E       		.uleb128 0xe
 8821 02f7 1B       		.uleb128 0x1b
 8822 02f8 0E       		.uleb128 0xe
 8823 02f9 55       		.uleb128 0x55
 8824 02fa 17       		.uleb128 0x17
 8825 02fb 11       		.uleb128 0x11
ARM GAS  C:\Users\DEVELO~1\AppData\Local\Temp\cc4r91NU.s 			page 156


 8826 02fc 01       		.uleb128 0x1
 8827 02fd 10       		.uleb128 0x10
 8828 02fe 17       		.uleb128 0x17
 8829 02ff 00       		.byte	0
 8830 0300 00       		.byte	0
 8831 0301 2E       		.uleb128 0x2e
 8832 0302 24       		.uleb128 0x24
 8833 0303 00       		.byte	0
 8834 0304 0B       		.uleb128 0xb
 8835 0305 0B       		.uleb128 0xb
 8836 0306 3E       		.uleb128 0x3e
 8837 0307 0B       		.uleb128 0xb
 8838 0308 03       		.uleb128 0x3
 8839 0309 08       		.uleb128 0x8
 8840 030a 00       		.byte	0
 8841 030b 00       		.byte	0
 8842 030c 2F       		.uleb128 0x2f
 8843 030d 0F       		.uleb128 0xf
 8844 030e 00       		.byte	0
 8845 030f 0B       		.uleb128 0xb
 8846 0310 0B       		.uleb128 0xb
 8847 0311 00       		.byte	0
 8848 0312 00       		.byte	0
 8849 0313 30       		.uleb128 0x30
 8850 0314 13       		.uleb128 0x13
 8851 0315 01       		.byte	0x1
 8852 0316 0B       		.uleb128 0xb
 8853 0317 05       		.uleb128 0x5
 8854 0318 3A       		.uleb128 0x3a
 8855 0319 0B       		.uleb128 0xb
 8856 031a 3B       		.uleb128 0x3b
 8857 031b 05       		.uleb128 0x5
 8858 031c 39       		.uleb128 0x39
 8859 031d 0B       		.uleb128 0xb
 8860 031e 01       		.uleb128 0x1
 8861 031f 13       		.uleb128 0x13
 8862 0320 00       		.byte	0
 8863 0321 00       		.byte	0
 8864 0322 31       		.uleb128 0x31
 8865 0323 13       		.uleb128 0x13
 8866 0324 01       		.byte	0x1
 8867 0325 03       		.uleb128 0x3
 8868 0326 0E       		.uleb128 0xe
 8869 0327 0B       		.uleb128 0xb
 8870 0328 0B       		.uleb128 0xb
 8871 0329 3A       		.uleb128 0x3a
 8872 032a 0B       		.uleb128 0xb
 8873 032b 3B       		.uleb128 0x3b
 8874 032c 05       		.uleb128 0x5
 8875 032d 39       		.uleb128 0x39
 8876 032e 0B       		.uleb128 0xb
 8877 032f 01       		.uleb128 0x1
 8878 0330 13       		.uleb128 0x13
 8879 0331 00       		.byte	0
 8880 0332 00       		.byte	0
 8881 0333 32       		.uleb128 0x32
 8882 0334 13       		.uleb128 0x13
ARM GAS  C:\Users\DEVELO~1\AppData\Local\Temp\cc4r91NU.s 			page 157


 8883 0335 01       		.byte	0x1
 8884 0336 0B       		.uleb128 0xb
 8885 0337 06       		.uleb128 0x6
 8886 0338 3A       		.uleb128 0x3a
 8887 0339 0B       		.uleb128 0xb
 8888 033a 3B       		.uleb128 0x3b
 8889 033b 0B       		.uleb128 0xb
 8890 033c 39       		.uleb128 0x39
 8891 033d 0B       		.uleb128 0xb
 8892 033e 01       		.uleb128 0x1
 8893 033f 13       		.uleb128 0x13
 8894 0340 00       		.byte	0
 8895 0341 00       		.byte	0
 8896 0342 33       		.uleb128 0x33
 8897 0343 0D       		.uleb128 0xd
 8898 0344 00       		.byte	0
 8899 0345 03       		.uleb128 0x3
 8900 0346 08       		.uleb128 0x8
 8901 0347 3A       		.uleb128 0x3a
 8902 0348 0B       		.uleb128 0xb
 8903 0349 3B       		.uleb128 0x3b
 8904 034a 0B       		.uleb128 0xb
 8905 034b 39       		.uleb128 0x39
 8906 034c 0B       		.uleb128 0xb
 8907 034d 49       		.uleb128 0x49
 8908 034e 13       		.uleb128 0x13
 8909 034f 38       		.uleb128 0x38
 8910 0350 0B       		.uleb128 0xb
 8911 0351 00       		.byte	0
 8912 0352 00       		.byte	0
 8913 0353 34       		.uleb128 0x34
 8914 0354 21       		.uleb128 0x21
 8915 0355 00       		.byte	0
 8916 0356 49       		.uleb128 0x49
 8917 0357 13       		.uleb128 0x13
 8918 0358 2F       		.uleb128 0x2f
 8919 0359 05       		.uleb128 0x5
 8920 035a 00       		.byte	0
 8921 035b 00       		.byte	0
 8922 035c 35       		.uleb128 0x35
 8923 035d 34       		.uleb128 0x34
 8924 035e 00       		.byte	0
 8925 035f 03       		.uleb128 0x3
 8926 0360 0E       		.uleb128 0xe
 8927 0361 3A       		.uleb128 0x3a
 8928 0362 0B       		.uleb128 0xb
 8929 0363 3B       		.uleb128 0x3b
 8930 0364 05       		.uleb128 0x5
 8931 0365 39       		.uleb128 0x39
 8932 0366 0B       		.uleb128 0xb
 8933 0367 49       		.uleb128 0x49
 8934 0368 13       		.uleb128 0x13
 8935 0369 3F       		.uleb128 0x3f
 8936 036a 19       		.uleb128 0x19
 8937 036b 3C       		.uleb128 0x3c
 8938 036c 19       		.uleb128 0x19
 8939 036d 00       		.byte	0
ARM GAS  C:\Users\DEVELO~1\AppData\Local\Temp\cc4r91NU.s 			page 158


 8940 036e 00       		.byte	0
 8941 036f 36       		.uleb128 0x36
 8942 0370 34       		.uleb128 0x34
 8943 0371 00       		.byte	0
 8944 0372 47       		.uleb128 0x47
 8945 0373 13       		.uleb128 0x13
 8946 0374 3A       		.uleb128 0x3a
 8947 0375 0B       		.uleb128 0xb
 8948 0376 3B       		.uleb128 0x3b
 8949 0377 0B       		.uleb128 0xb
 8950 0378 39       		.uleb128 0x39
 8951 0379 0B       		.uleb128 0xb
 8952 037a 02       		.uleb128 0x2
 8953 037b 18       		.uleb128 0x18
 8954 037c 00       		.byte	0
 8955 037d 00       		.byte	0
 8956 037e 37       		.uleb128 0x37
 8957 037f 17       		.uleb128 0x17
 8958 0380 01       		.byte	0x1
 8959 0381 0B       		.uleb128 0xb
 8960 0382 0B       		.uleb128 0xb
 8961 0383 3A       		.uleb128 0x3a
 8962 0384 0B       		.uleb128 0xb
 8963 0385 3B       		.uleb128 0x3b
 8964 0386 0B       		.uleb128 0xb
 8965 0387 39       		.uleb128 0x39
 8966 0388 0B       		.uleb128 0xb
 8967 0389 01       		.uleb128 0x1
 8968 038a 13       		.uleb128 0x13
 8969 038b 00       		.byte	0
 8970 038c 00       		.byte	0
 8971 038d 38       		.uleb128 0x38
 8972 038e 2E       		.uleb128 0x2e
 8973 038f 01       		.byte	0x1
 8974 0390 3F       		.uleb128 0x3f
 8975 0391 19       		.uleb128 0x19
 8976 0392 03       		.uleb128 0x3
 8977 0393 0E       		.uleb128 0xe
 8978 0394 3A       		.uleb128 0x3a
 8979 0395 0B       		.uleb128 0xb
 8980 0396 3B       		.uleb128 0x3b
 8981 0397 0B       		.uleb128 0xb
 8982 0398 39       		.uleb128 0x39
 8983 0399 0B       		.uleb128 0xb
 8984 039a 27       		.uleb128 0x27
 8985 039b 19       		.uleb128 0x19
 8986 039c 49       		.uleb128 0x49
 8987 039d 13       		.uleb128 0x13
 8988 039e 3C       		.uleb128 0x3c
 8989 039f 19       		.uleb128 0x19
 8990 03a0 01       		.uleb128 0x1
 8991 03a1 13       		.uleb128 0x13
 8992 03a2 00       		.byte	0
 8993 03a3 00       		.byte	0
 8994 03a4 39       		.uleb128 0x39
 8995 03a5 26       		.uleb128 0x26
 8996 03a6 00       		.byte	0
ARM GAS  C:\Users\DEVELO~1\AppData\Local\Temp\cc4r91NU.s 			page 159


 8997 03a7 00       		.byte	0
 8998 03a8 00       		.byte	0
 8999 03a9 3A       		.uleb128 0x3a
 9000 03aa 2E       		.uleb128 0x2e
 9001 03ab 00       		.byte	0
 9002 03ac 3F       		.uleb128 0x3f
 9003 03ad 19       		.uleb128 0x19
 9004 03ae 03       		.uleb128 0x3
 9005 03af 0E       		.uleb128 0xe
 9006 03b0 3A       		.uleb128 0x3a
 9007 03b1 0B       		.uleb128 0xb
 9008 03b2 3B       		.uleb128 0x3b
 9009 03b3 05       		.uleb128 0x5
 9010 03b4 39       		.uleb128 0x39
 9011 03b5 0B       		.uleb128 0xb
 9012 03b6 27       		.uleb128 0x27
 9013 03b7 19       		.uleb128 0x19
 9014 03b8 3C       		.uleb128 0x3c
 9015 03b9 19       		.uleb128 0x19
 9016 03ba 00       		.byte	0
 9017 03bb 00       		.byte	0
 9018 03bc 3B       		.uleb128 0x3b
 9019 03bd 2E       		.uleb128 0x2e
 9020 03be 00       		.byte	0
 9021 03bf 3F       		.uleb128 0x3f
 9022 03c0 19       		.uleb128 0x19
 9023 03c1 03       		.uleb128 0x3
 9024 03c2 0E       		.uleb128 0xe
 9025 03c3 3A       		.uleb128 0x3a
 9026 03c4 0B       		.uleb128 0xb
 9027 03c5 3B       		.uleb128 0x3b
 9028 03c6 05       		.uleb128 0x5
 9029 03c7 39       		.uleb128 0x39
 9030 03c8 0B       		.uleb128 0xb
 9031 03c9 27       		.uleb128 0x27
 9032 03ca 19       		.uleb128 0x19
 9033 03cb 11       		.uleb128 0x11
 9034 03cc 01       		.uleb128 0x1
 9035 03cd 12       		.uleb128 0x12
 9036 03ce 06       		.uleb128 0x6
 9037 03cf 40       		.uleb128 0x40
 9038 03d0 18       		.uleb128 0x18
 9039 03d1 7C       		.uleb128 0x7c
 9040 03d2 19       		.uleb128 0x19
 9041 03d3 00       		.byte	0
 9042 03d4 00       		.byte	0
 9043 03d5 3C       		.uleb128 0x3c
 9044 03d6 34       		.uleb128 0x34
 9045 03d7 00       		.byte	0
 9046 03d8 03       		.uleb128 0x3
 9047 03d9 0E       		.uleb128 0xe
 9048 03da 49       		.uleb128 0x49
 9049 03db 13       		.uleb128 0x13
 9050 03dc 34       		.uleb128 0x34
 9051 03dd 19       		.uleb128 0x19
 9052 03de 02       		.uleb128 0x2
 9053 03df 18       		.uleb128 0x18
ARM GAS  C:\Users\DEVELO~1\AppData\Local\Temp\cc4r91NU.s 			page 160


 9054 03e0 00       		.byte	0
 9055 03e1 00       		.byte	0
 9056 03e2 3D       		.uleb128 0x3d
 9057 03e3 0A       		.uleb128 0xa
 9058 03e4 00       		.byte	0
 9059 03e5 03       		.uleb128 0x3
 9060 03e6 0E       		.uleb128 0xe
 9061 03e7 3A       		.uleb128 0x3a
 9062 03e8 0B       		.uleb128 0xb
 9063 03e9 3B       		.uleb128 0x3b
 9064 03ea 05       		.uleb128 0x5
 9065 03eb 39       		.uleb128 0x39
 9066 03ec 0B       		.uleb128 0xb
 9067 03ed 11       		.uleb128 0x11
 9068 03ee 01       		.uleb128 0x1
 9069 03ef 00       		.byte	0
 9070 03f0 00       		.byte	0
 9071 03f1 3E       		.uleb128 0x3e
 9072 03f2 2E       		.uleb128 0x2e
 9073 03f3 01       		.byte	0x1
 9074 03f4 03       		.uleb128 0x3
 9075 03f5 0E       		.uleb128 0xe
 9076 03f6 3A       		.uleb128 0x3a
 9077 03f7 0B       		.uleb128 0xb
 9078 03f8 3B       		.uleb128 0x3b
 9079 03f9 05       		.uleb128 0x5
 9080 03fa 39       		.uleb128 0x39
 9081 03fb 0B       		.uleb128 0xb
 9082 03fc 27       		.uleb128 0x27
 9083 03fd 19       		.uleb128 0x19
 9084 03fe 49       		.uleb128 0x49
 9085 03ff 13       		.uleb128 0x13
 9086 0400 11       		.uleb128 0x11
 9087 0401 01       		.uleb128 0x1
 9088 0402 12       		.uleb128 0x12
 9089 0403 06       		.uleb128 0x6
 9090 0404 40       		.uleb128 0x40
 9091 0405 18       		.uleb128 0x18
 9092 0406 7C       		.uleb128 0x7c
 9093 0407 19       		.uleb128 0x19
 9094 0408 01       		.uleb128 0x1
 9095 0409 13       		.uleb128 0x13
 9096 040a 00       		.byte	0
 9097 040b 00       		.byte	0
 9098 040c 3F       		.uleb128 0x3f
 9099 040d 2E       		.uleb128 0x2e
 9100 040e 01       		.byte	0x1
 9101 040f 03       		.uleb128 0x3
 9102 0410 0E       		.uleb128 0xe
 9103 0411 3A       		.uleb128 0x3a
 9104 0412 0B       		.uleb128 0xb
 9105 0413 3B       		.uleb128 0x3b
 9106 0414 0B       		.uleb128 0xb
 9107 0415 39       		.uleb128 0x39
 9108 0416 0B       		.uleb128 0xb
 9109 0417 27       		.uleb128 0x27
 9110 0418 19       		.uleb128 0x19
ARM GAS  C:\Users\DEVELO~1\AppData\Local\Temp\cc4r91NU.s 			page 161


 9111 0419 49       		.uleb128 0x49
 9112 041a 13       		.uleb128 0x13
 9113 041b 11       		.uleb128 0x11
 9114 041c 01       		.uleb128 0x1
 9115 041d 12       		.uleb128 0x12
 9116 041e 06       		.uleb128 0x6
 9117 041f 40       		.uleb128 0x40
 9118 0420 18       		.uleb128 0x18
 9119 0421 7A       		.uleb128 0x7a
 9120 0422 19       		.uleb128 0x19
 9121 0423 01       		.uleb128 0x1
 9122 0424 13       		.uleb128 0x13
 9123 0425 00       		.byte	0
 9124 0426 00       		.byte	0
 9125 0427 40       		.uleb128 0x40
 9126 0428 2E       		.uleb128 0x2e
 9127 0429 01       		.byte	0x1
 9128 042a 03       		.uleb128 0x3
 9129 042b 0E       		.uleb128 0xe
 9130 042c 3A       		.uleb128 0x3a
 9131 042d 0B       		.uleb128 0xb
 9132 042e 3B       		.uleb128 0x3b
 9133 042f 05       		.uleb128 0x5
 9134 0430 39       		.uleb128 0x39
 9135 0431 0B       		.uleb128 0xb
 9136 0432 27       		.uleb128 0x27
 9137 0433 19       		.uleb128 0x19
 9138 0434 20       		.uleb128 0x20
 9139 0435 0B       		.uleb128 0xb
 9140 0436 00       		.byte	0
 9141 0437 00       		.byte	0
 9142 0438 41       		.uleb128 0x41
 9143 0439 05       		.uleb128 0x5
 9144 043a 00       		.byte	0
 9145 043b 03       		.uleb128 0x3
 9146 043c 0E       		.uleb128 0xe
 9147 043d 3A       		.uleb128 0x3a
 9148 043e 0B       		.uleb128 0xb
 9149 043f 3B       		.uleb128 0x3b
 9150 0440 05       		.uleb128 0x5
 9151 0441 39       		.uleb128 0x39
 9152 0442 0B       		.uleb128 0xb
 9153 0443 49       		.uleb128 0x49
 9154 0444 13       		.uleb128 0x13
 9155 0445 00       		.byte	0
 9156 0446 00       		.byte	0
 9157 0447 00       		.byte	0
 9158              		.section	.debug_aranges,"",%progbits
 9159 0000 64010000 		.4byte	0x164
 9160 0004 0200     		.2byte	0x2
 9161 0006 00000000 		.4byte	.Ldebug_info0
 9162 000a 04       		.byte	0x4
 9163 000b 00       		.byte	0
 9164 000c 0000     		.2byte	0
 9165 000e 0000     		.2byte	0
 9166 0010 00000000 		.4byte	.LFB204
 9167 0014 20000000 		.4byte	.LFE204-.LFB204
ARM GAS  C:\Users\DEVELO~1\AppData\Local\Temp\cc4r91NU.s 			page 162


 9168 0018 00000000 		.4byte	.LFB205
 9169 001c 20000000 		.4byte	.LFE205-.LFB205
 9170 0020 00000000 		.4byte	.LFB352
 9171 0024 0C000000 		.4byte	.LFE352-.LFB352
 9172 0028 00000000 		.4byte	.LFB353
 9173 002c 0C000000 		.4byte	.LFE353-.LFB353
 9174 0030 00000000 		.4byte	.LFB356
 9175 0034 16000000 		.4byte	.LFE356-.LFB356
 9176 0038 00000000 		.4byte	.LFB384
 9177 003c 40000000 		.4byte	.LFE384-.LFB384
 9178 0040 00000000 		.4byte	.LFB403
 9179 0044 5C000000 		.4byte	.LFE403-.LFB403
 9180 0048 00000000 		.4byte	.LFB404
 9181 004c 40000000 		.4byte	.LFE404-.LFB404
 9182 0050 00000000 		.4byte	.LFB405
 9183 0054 16000000 		.4byte	.LFE405-.LFB405
 9184 0058 00000000 		.4byte	.LFB432
 9185 005c 4E000000 		.4byte	.LFE432-.LFB432
 9186 0060 00000000 		.4byte	.LFB433
 9187 0064 BA000000 		.4byte	.LFE433-.LFB433
 9188 0068 00000000 		.4byte	.LFB434
 9189 006c 88000000 		.4byte	.LFE434-.LFB434
 9190 0070 00000000 		.4byte	.LFB435
 9191 0074 32000000 		.4byte	.LFE435-.LFB435
 9192 0078 00000000 		.4byte	.LFB436
 9193 007c 3A000000 		.4byte	.LFE436-.LFB436
 9194 0080 00000000 		.4byte	.LFB437
 9195 0084 20000000 		.4byte	.LFE437-.LFB437
 9196 0088 00000000 		.4byte	.LFB438
 9197 008c 2E000000 		.4byte	.LFE438-.LFB438
 9198 0090 00000000 		.4byte	.LFB439
 9199 0094 34000000 		.4byte	.LFE439-.LFB439
 9200 0098 00000000 		.4byte	.LFB440
 9201 009c 5C000000 		.4byte	.LFE440-.LFB440
 9202 00a0 00000000 		.4byte	.LFB441
 9203 00a4 82010000 		.4byte	.LFE441-.LFB441
 9204 00a8 00000000 		.4byte	.LFB442
 9205 00ac 36010000 		.4byte	.LFE442-.LFB442
 9206 00b0 00000000 		.4byte	.LFB443
 9207 00b4 06010000 		.4byte	.LFE443-.LFB443
 9208 00b8 00000000 		.4byte	.LFB444
 9209 00bc 30010000 		.4byte	.LFE444-.LFB444
 9210 00c0 00000000 		.4byte	.LFB445
 9211 00c4 D8000000 		.4byte	.LFE445-.LFB445
 9212 00c8 00000000 		.4byte	.LFB446
 9213 00cc A0000000 		.4byte	.LFE446-.LFB446
 9214 00d0 00000000 		.4byte	.LFB447
 9215 00d4 D8020000 		.4byte	.LFE447-.LFB447
 9216 00d8 00000000 		.4byte	.LFB448
 9217 00dc 28000000 		.4byte	.LFE448-.LFB448
 9218 00e0 00000000 		.4byte	.LFB449
 9219 00e4 2C000000 		.4byte	.LFE449-.LFB449
 9220 00e8 00000000 		.4byte	.LFB450
 9221 00ec D0000000 		.4byte	.LFE450-.LFB450
 9222 00f0 00000000 		.4byte	.LFB451
 9223 00f4 54000000 		.4byte	.LFE451-.LFB451
 9224 00f8 00000000 		.4byte	.LFB452
ARM GAS  C:\Users\DEVELO~1\AppData\Local\Temp\cc4r91NU.s 			page 163


 9225 00fc 38010000 		.4byte	.LFE452-.LFB452
 9226 0100 00000000 		.4byte	.LFB453
 9227 0104 34000000 		.4byte	.LFE453-.LFB453
 9228 0108 00000000 		.4byte	.LFB454
 9229 010c 24020000 		.4byte	.LFE454-.LFB454
 9230 0110 00000000 		.4byte	.LFB455
 9231 0114 1C000000 		.4byte	.LFE455-.LFB455
 9232 0118 00000000 		.4byte	.LFB456
 9233 011c 46000000 		.4byte	.LFE456-.LFB456
 9234 0120 00000000 		.4byte	.LFB457
 9235 0124 46000000 		.4byte	.LFE457-.LFB457
 9236 0128 00000000 		.4byte	.LFB458
 9237 012c 2E000000 		.4byte	.LFE458-.LFB458
 9238 0130 00000000 		.4byte	.LFB459
 9239 0134 3E010000 		.4byte	.LFE459-.LFB459
 9240 0138 00000000 		.4byte	.LFB460
 9241 013c 5E010000 		.4byte	.LFE460-.LFB460
 9242 0140 00000000 		.4byte	.LFB461
 9243 0144 3A000000 		.4byte	.LFE461-.LFB461
 9244 0148 00000000 		.4byte	.LFB462
 9245 014c 3A000000 		.4byte	.LFE462-.LFB462
 9246 0150 00000000 		.4byte	.LFB463
 9247 0154 3A000000 		.4byte	.LFE463-.LFB463
 9248 0158 00000000 		.4byte	.LFB464
 9249 015c 3A000000 		.4byte	.LFE464-.LFB464
 9250 0160 00000000 		.4byte	0
 9251 0164 00000000 		.4byte	0
 9252              		.section	.debug_rnglists,"",%progbits
 9253              	.Ldebug_ranges0:
 9254 0000 13010000 		.4byte	.Ldebug_ranges3-.Ldebug_ranges2
 9255              	.Ldebug_ranges2:
 9256 0004 0500     		.2byte	0x5
 9257 0006 04       		.byte	0x4
 9258 0007 00       		.byte	0
 9259 0008 00000000 		.4byte	0
 9260              	.LLRL0:
 9261 000c 07       		.byte	0x7
 9262 000d 00000000 		.4byte	.LFB204
 9263 0011 20       		.uleb128 .LFE204-.LFB204
 9264 0012 07       		.byte	0x7
 9265 0013 00000000 		.4byte	.LFB205
 9266 0017 20       		.uleb128 .LFE205-.LFB205
 9267 0018 07       		.byte	0x7
 9268 0019 00000000 		.4byte	.LFB352
 9269 001d 0C       		.uleb128 .LFE352-.LFB352
 9270 001e 07       		.byte	0x7
 9271 001f 00000000 		.4byte	.LFB353
 9272 0023 0C       		.uleb128 .LFE353-.LFB353
 9273 0024 07       		.byte	0x7
 9274 0025 00000000 		.4byte	.LFB356
 9275 0029 16       		.uleb128 .LFE356-.LFB356
 9276 002a 07       		.byte	0x7
 9277 002b 00000000 		.4byte	.LFB384
 9278 002f 40       		.uleb128 .LFE384-.LFB384
 9279 0030 07       		.byte	0x7
 9280 0031 00000000 		.4byte	.LFB403
 9281 0035 5C       		.uleb128 .LFE403-.LFB403
ARM GAS  C:\Users\DEVELO~1\AppData\Local\Temp\cc4r91NU.s 			page 164


 9282 0036 07       		.byte	0x7
 9283 0037 00000000 		.4byte	.LFB404
 9284 003b 40       		.uleb128 .LFE404-.LFB404
 9285 003c 07       		.byte	0x7
 9286 003d 00000000 		.4byte	.LFB405
 9287 0041 16       		.uleb128 .LFE405-.LFB405
 9288 0042 07       		.byte	0x7
 9289 0043 00000000 		.4byte	.LFB432
 9290 0047 4E       		.uleb128 .LFE432-.LFB432
 9291 0048 07       		.byte	0x7
 9292 0049 00000000 		.4byte	.LFB433
 9293 004d BA01     		.uleb128 .LFE433-.LFB433
 9294 004f 07       		.byte	0x7
 9295 0050 00000000 		.4byte	.LFB434
 9296 0054 8801     		.uleb128 .LFE434-.LFB434
 9297 0056 07       		.byte	0x7
 9298 0057 00000000 		.4byte	.LFB435
 9299 005b 32       		.uleb128 .LFE435-.LFB435
 9300 005c 07       		.byte	0x7
 9301 005d 00000000 		.4byte	.LFB436
 9302 0061 3A       		.uleb128 .LFE436-.LFB436
 9303 0062 07       		.byte	0x7
 9304 0063 00000000 		.4byte	.LFB437
 9305 0067 20       		.uleb128 .LFE437-.LFB437
 9306 0068 07       		.byte	0x7
 9307 0069 00000000 		.4byte	.LFB438
 9308 006d 2E       		.uleb128 .LFE438-.LFB438
 9309 006e 07       		.byte	0x7
 9310 006f 00000000 		.4byte	.LFB439
 9311 0073 34       		.uleb128 .LFE439-.LFB439
 9312 0074 07       		.byte	0x7
 9313 0075 00000000 		.4byte	.LFB440
 9314 0079 5C       		.uleb128 .LFE440-.LFB440
 9315 007a 07       		.byte	0x7
 9316 007b 00000000 		.4byte	.LFB441
 9317 007f 8203     		.uleb128 .LFE441-.LFB441
 9318 0081 07       		.byte	0x7
 9319 0082 00000000 		.4byte	.LFB442
 9320 0086 B602     		.uleb128 .LFE442-.LFB442
 9321 0088 07       		.byte	0x7
 9322 0089 00000000 		.4byte	.LFB443
 9323 008d 8602     		.uleb128 .LFE443-.LFB443
 9324 008f 07       		.byte	0x7
 9325 0090 00000000 		.4byte	.LFB444
 9326 0094 B002     		.uleb128 .LFE444-.LFB444
 9327 0096 07       		.byte	0x7
 9328 0097 00000000 		.4byte	.LFB445
 9329 009b D801     		.uleb128 .LFE445-.LFB445
 9330 009d 07       		.byte	0x7
 9331 009e 00000000 		.4byte	.LFB446
 9332 00a2 A001     		.uleb128 .LFE446-.LFB446
 9333 00a4 07       		.byte	0x7
 9334 00a5 00000000 		.4byte	.LFB447
 9335 00a9 D805     		.uleb128 .LFE447-.LFB447
 9336 00ab 07       		.byte	0x7
 9337 00ac 00000000 		.4byte	.LFB448
 9338 00b0 28       		.uleb128 .LFE448-.LFB448
ARM GAS  C:\Users\DEVELO~1\AppData\Local\Temp\cc4r91NU.s 			page 165


 9339 00b1 07       		.byte	0x7
 9340 00b2 00000000 		.4byte	.LFB449
 9341 00b6 2C       		.uleb128 .LFE449-.LFB449
 9342 00b7 07       		.byte	0x7
 9343 00b8 00000000 		.4byte	.LFB450
 9344 00bc D001     		.uleb128 .LFE450-.LFB450
 9345 00be 07       		.byte	0x7
 9346 00bf 00000000 		.4byte	.LFB451
 9347 00c3 54       		.uleb128 .LFE451-.LFB451
 9348 00c4 07       		.byte	0x7
 9349 00c5 00000000 		.4byte	.LFB452
 9350 00c9 B802     		.uleb128 .LFE452-.LFB452
 9351 00cb 07       		.byte	0x7
 9352 00cc 00000000 		.4byte	.LFB453
 9353 00d0 34       		.uleb128 .LFE453-.LFB453
 9354 00d1 07       		.byte	0x7
 9355 00d2 00000000 		.4byte	.LFB454
 9356 00d6 A404     		.uleb128 .LFE454-.LFB454
 9357 00d8 07       		.byte	0x7
 9358 00d9 00000000 		.4byte	.LFB455
 9359 00dd 1C       		.uleb128 .LFE455-.LFB455
 9360 00de 07       		.byte	0x7
 9361 00df 00000000 		.4byte	.LFB456
 9362 00e3 46       		.uleb128 .LFE456-.LFB456
 9363 00e4 07       		.byte	0x7
 9364 00e5 00000000 		.4byte	.LFB457
 9365 00e9 46       		.uleb128 .LFE457-.LFB457
 9366 00ea 07       		.byte	0x7
 9367 00eb 00000000 		.4byte	.LFB458
 9368 00ef 2E       		.uleb128 .LFE458-.LFB458
 9369 00f0 07       		.byte	0x7
 9370 00f1 00000000 		.4byte	.LFB459
 9371 00f5 BE02     		.uleb128 .LFE459-.LFB459
 9372 00f7 07       		.byte	0x7
 9373 00f8 00000000 		.4byte	.LFB460
 9374 00fc DE02     		.uleb128 .LFE460-.LFB460
 9375 00fe 07       		.byte	0x7
 9376 00ff 00000000 		.4byte	.LFB461
 9377 0103 3A       		.uleb128 .LFE461-.LFB461
 9378 0104 07       		.byte	0x7
 9379 0105 00000000 		.4byte	.LFB462
 9380 0109 3A       		.uleb128 .LFE462-.LFB462
 9381 010a 07       		.byte	0x7
 9382 010b 00000000 		.4byte	.LFB463
 9383 010f 3A       		.uleb128 .LFE463-.LFB463
 9384 0110 07       		.byte	0x7
 9385 0111 00000000 		.4byte	.LFB464
 9386 0115 3A       		.uleb128 .LFE464-.LFB464
 9387 0116 00       		.byte	0
 9388              	.Ldebug_ranges3:
 9389              		.section	.debug_line,"",%progbits
 9390              	.Ldebug_line0:
 9391 0000 6D110000 		.section	.debug_str,"MS",%progbits,1
 9391      0300B403 
 9391      00000201 
 9391      FB0E0D00 
 9391      01010101 
ARM GAS  C:\Users\DEVELO~1\AppData\Local\Temp\cc4r91NU.s 			page 166


 9392              	.LASF55:
 9393 0000 41504231 		.ascii	"APB1HRSTR\000"
 9393      48525354 
 9393      5200
 9394              	.LASF311:
 9395 000a 706F7274 		.ascii	"port_unlock_from_isr\000"
 9395      5F756E6C 
 9395      6F636B5F 
 9395      66726F6D 
 9395      5F697372 
 9396              	.LASF150:
 9397 001f 44494550 		.ascii	"DIEPTSIZ\000"
 9397      5453495A 
 9397      00
 9398              	.LASF250:
 9399 0028 5F757362 		.ascii	"_usb_suspend\000"
 9399      5F737573 
 9399      70656E64 
 9399      00
 9400              	.LASF216:
 9401 0035 74787369 		.ascii	"txsize\000"
 9401      7A6500
 9402              	.LASF188:
 9403 003c 44434647 		.ascii	"DCFG\000"
 9403      00
 9404              	.LASF78:
 9405 0041 41504232 		.ascii	"APB2LPENR\000"
 9405      4C50454E 
 9405      5200
 9406              	.LASF260:
 9407 004b 7573625F 		.ascii	"usb_lld_stall_in\000"
 9407      6C6C645F 
 9407      7374616C 
 9407      6C5F696E 
 9407      00
 9408              	.LASF56:
 9409 005c 41504232 		.ascii	"APB2RSTR\000"
 9409      52535452 
 9409      00
 9410              	.LASF147:
 9411 0065 72657376 		.ascii	"resvd4\000"
 9411      643400
 9412              	.LASF104:
 9413 006c 5553425F 		.ascii	"USB_READY\000"
 9413      52454144 
 9413      5900
 9414              	.LASF20:
 9415 0076 48534943 		.ascii	"HSICFGR\000"
 9415      46475200 
 9416              	.LASF125:
 9417 007e 5553425F 		.ascii	"USB_EVENT_SUSPEND\000"
 9417      4556454E 
 9417      545F5355 
 9417      5350454E 
 9417      4400
 9418              	.LASF242:
 9419 0090 65703073 		.ascii	"ep0setup_buffer\000"
ARM GAS  C:\Users\DEVELO~1\AppData\Local\Temp\cc4r91NU.s 			page 167


 9419      65747570 
 9419      5F627566 
 9419      66657200 
 9420              	.LASF36:
 9421 00a0 504C4C33 		.ascii	"PLL3FRACR\000"
 9421      46524143 
 9421      5200
 9422              	.LASF149:
 9423 00aa 72657376 		.ascii	"resvdC\000"
 9423      644300
 9424              	.LASF238:
 9425 00b1 72657175 		.ascii	"requests_hook_cb\000"
 9425      65737473 
 9425      5F686F6F 
 9425      6B5F6362 
 9425      00
 9426              	.LASF0:
 9427 00c2 756E7369 		.ascii	"unsigned int\000"
 9427      676E6564 
 9427      20696E74 
 9427      00
 9428              	.LASF76:
 9429 00cf 41504231 		.ascii	"APB1LLPENR\000"
 9429      4C4C5045 
 9429      4E5200
 9430              	.LASF291:
 9431 00da 6E657874 		.ascii	"next\000"
 9431      00
 9432              	.LASF284:
 9433 00df 6F74675F 		.ascii	"otg_rxfifo_handler\000"
 9433      72786669 
 9433      666F5F68 
 9433      616E646C 
 9433      657200
 9434              	.LASF171:
 9435 00f2 72657376 		.ascii	"resvd34\000"
 9435      64333400 
 9436              	.LASF305:
 9437 00fa 6F73616C 		.ascii	"osalSysPolledDelayX\000"
 9437      53797350 
 9437      6F6C6C65 
 9437      6444656C 
 9437      61795800 
 9438              	.LASF27:
 9439 010e 44334346 		.ascii	"D3CFGR\000"
 9439      475200
 9440              	.LASF228:
 9441 0115 6F75745F 		.ascii	"out_cb\000"
 9441      636200
 9442              	.LASF47:
 9443 011c 42444352 		.ascii	"BDCR\000"
 9443      00
 9444              	.LASF142:
 9445 0121 72657376 		.ascii	"resvd14\000"
 9445      64313400 
 9446              	.LASF163:
 9447 0129 47494E54 		.ascii	"GINTSTS\000"
ARM GAS  C:\Users\DEVELO~1\AppData\Local\Temp\cc4r91NU.s 			page 168


 9447      53545300 
 9448              	.LASF143:
 9449 0131 72657376 		.ascii	"resvd18\000"
 9449      64313800 
 9450              	.LASF172:
 9451 0139 47434346 		.ascii	"GCCFG\000"
 9451      4700
 9452              	.LASF21:
 9453 013f 43525243 		.ascii	"CRRCR\000"
 9453      5200
 9454              	.LASF152:
 9455 0145 72657376 		.ascii	"resvd1C\000"
 9455      64314300 
 9456              	.LASF213:
 9457 014d 6F74675F 		.ascii	"otg_ram_size\000"
 9457      72616D5F 
 9457      73697A65 
 9457      00
 9458              	.LASF288:
 9459 015a 6F74675F 		.ascii	"otg_txfifo_handler\000"
 9459      74786669 
 9459      666F5F68 
 9459      616E646C 
 9459      657200
 9460              	.LASF81:
 9461 016d 5243435F 		.ascii	"RCC_TypeDef\000"
 9461      54797065 
 9461      44656600 
 9462              	.LASF225:
 9463 0179 65705F6D 		.ascii	"ep_mode\000"
 9463      6F646500 
 9464              	.LASF135:
 9465 0181 75736272 		.ascii	"usbreqhandler_t\000"
 9465      65716861 
 9465      6E646C65 
 9465      725F7400 
 9466              	.LASF257:
 9467 0191 75736270 		.ascii	"usbp\000"
 9467      00
 9468              	.LASF93:
 9469 0196 65703065 		.ascii	"ep0endcb\000"
 9469      6E646362 
 9469      00
 9470              	.LASF252:
 9471 019f 5F757362 		.ascii	"_usb_reset\000"
 9471      5F726573 
 9471      657400
 9472              	.LASF35:
 9473 01aa 504C4C33 		.ascii	"PLL3DIVR\000"
 9473      44495652 
 9473      00
 9474              	.LASF134:
 9475 01b3 75736265 		.ascii	"usbeventcb_t\000"
 9475      76656E74 
 9475      63625F74 
 9475      00
 9476              	.LASF312:
ARM GAS  C:\Users\DEVELO~1\AppData\Local\Temp\cc4r91NU.s 			page 169


 9477 01c0 706F7274 		.ascii	"port_lock_from_isr\000"
 9477      5F6C6F63 
 9477      6B5F6672 
 9477      6F6D5F69 
 9477      737200
 9478              	.LASF244:
 9479 01d3 66737061 		.ascii	"fsparams\000"
 9479      72616D73 
 9479      00
 9480              	.LASF40:
 9481 01dc 44324343 		.ascii	"D2CCIP2R\000"
 9481      49503252 
 9481      00
 9482              	.LASF118:
 9483 01e5 5553425F 		.ascii	"USB_EP0_OUT_RX\000"
 9483      4550305F 
 9483      4F55545F 
 9483      525800
 9484              	.LASF181:
 9485 01f4 48505458 		.ascii	"HPTXSTS\000"
 9485      53545300 
 9486              	.LASF44:
 9487 01fc 43494652 		.ascii	"CIFR\000"
 9487      00
 9488              	.LASF144:
 9489 0201 72657376 		.ascii	"resvd1c\000"
 9489      64316300 
 9490              	.LASF245:
 9491 0209 6E766963 		.ascii	"nvicDisableVector\000"
 9491      44697361 
 9491      626C6556 
 9491      6563746F 
 9491      7200
 9492              	.LASF18:
 9493 021b 706F7274 		.ascii	"port_rtcnt_t\000"
 9493      5F727463 
 9493      6E745F74 
 9493      00
 9494              	.LASF73:
 9495 0228 41484232 		.ascii	"AHB2LPENR\000"
 9495      4C50454E 
 9495      5200
 9496              	.LASF310:
 9497 0232 63685379 		.ascii	"chSysLockFromISR\000"
 9497      734C6F63 
 9497      6B46726F 
 9497      6D495352 
 9497      00
 9498              	.LASF198:
 9499 0243 44564255 		.ascii	"DVBUSDIS\000"
 9499      53444953 
 9499      00
 9500              	.LASF161:
 9501 024c 47555342 		.ascii	"GUSBCFG\000"
 9501      43464700 
 9502              	.LASF121:
 9503 0254 5553425F 		.ascii	"USB_EVENT_RESET\000"
ARM GAS  C:\Users\DEVELO~1\AppData\Local\Temp\cc4r91NU.s 			page 170


 9503      4556454E 
 9503      545F5245 
 9503      53455400 
 9504              	.LASF221:
 9505 0264 72787369 		.ascii	"rxsize\000"
 9505      7A6500
 9506              	.LASF65:
 9507 026b 41504233 		.ascii	"APB3ENR\000"
 9507      454E5200 
 9508              	.LASF214:
 9509 0273 6E756D5F 		.ascii	"num_endpoints\000"
 9509      656E6470 
 9509      6F696E74 
 9509      7300
 9510              	.LASF180:
 9511 0281 72657376 		.ascii	"resvd40C\000"
 9511      64343043 
 9511      00
 9512              	.LASF279:
 9513 028a 6F74675F 		.ascii	"otg_isoc_out_failed_handler\000"
 9513      69736F63 
 9513      5F6F7574 
 9513      5F666169 
 9513      6C65645F 
 9514              	.LASF3:
 9515 02a6 7369676E 		.ascii	"signed char\000"
 9515      65642063 
 9515      68617200 
 9516              	.LASF176:
 9517 02b2 72657376 		.ascii	"resvd140\000"
 9517      64313430 
 9517      00
 9518              	.LASF17:
 9519 02bb 75696E74 		.ascii	"uint32_t\000"
 9519      33325F74 
 9519      00
 9520              	.LASF184:
 9521 02c4 72657376 		.ascii	"resvd41C\000"
 9521      64343143 
 9521      00
 9522              	.LASF201:
 9523 02cd 44494550 		.ascii	"DIEPEMPMSK\000"
 9523      454D504D 
 9523      534B00
 9524              	.LASF322:
 9525 02d8 6972715F 		.ascii	"irq_retry\000"
 9525      72657472 
 9525      7900
 9526              	.LASF129:
 9527 02e2 75645F73 		.ascii	"ud_size\000"
 9527      697A6500 
 9528              	.LASF287:
 9529 02ea 6F74675F 		.ascii	"otg_fifo_write_from_buffer\000"
 9529      6669666F 
 9529      5F777269 
 9529      74655F66 
 9529      726F6D5F 
ARM GAS  C:\Users\DEVELO~1\AppData\Local\Temp\cc4r91NU.s 			page 171


 9530              	.LASF170:
 9531 0305 72657376 		.ascii	"resvd30\000"
 9531      64333000 
 9532              	.LASF62:
 9533 030d 41484231 		.ascii	"AHB1ENR\000"
 9533      454E5200 
 9534              	.LASF123:
 9535 0315 5553425F 		.ascii	"USB_EVENT_CONFIGURED\000"
 9535      4556454E 
 9535      545F434F 
 9535      4E464947 
 9535      55524544 
 9536              	.LASF205:
 9537 032a 72657376 		.ascii	"resvd880\000"
 9537      64383830 
 9537      00
 9538              	.LASF94:
 9539 0333 73657475 		.ascii	"setup\000"
 9539      7000
 9540              	.LASF109:
 9541 0339 45505F53 		.ascii	"EP_STATUS_DISABLED\000"
 9541      54415455 
 9541      535F4449 
 9541      5341424C 
 9541      454400
 9542              	.LASF13:
 9543 034c 6C6F6E67 		.ascii	"long long unsigned int\000"
 9543      206C6F6E 
 9543      6720756E 
 9543      7369676E 
 9543      65642069 
 9544              	.LASF217:
 9545 0363 7478636E 		.ascii	"txcnt\000"
 9545      7400
 9546              	.LASF110:
 9547 0369 45505F53 		.ascii	"EP_STATUS_STALLED\000"
 9547      54415455 
 9547      535F5354 
 9547      414C4C45 
 9547      4400
 9548              	.LASF167:
 9549 037b 47525846 		.ascii	"GRXFSIZ\000"
 9549      53495A00 
 9550              	.LASF86:
 9551 0383 7472616E 		.ascii	"transmitting\000"
 9551      736D6974 
 9551      74696E67 
 9551      00
 9552              	.LASF235:
 9553 0390 55534245 		.ascii	"USBEndpointConfig\000"
 9553      6E64706F 
 9553      696E7443 
 9553      6F6E6669 
 9553      6700
 9554              	.LASF11:
 9555 03a2 5F5F7569 		.ascii	"__uint32_t\000"
 9555      6E743332 
ARM GAS  C:\Users\DEVELO~1\AppData\Local\Temp\cc4r91NU.s 			page 172


 9555      5F7400
 9556              	.LASF8:
 9557 03ad 5F5F7569 		.ascii	"__uint16_t\000"
 9557      6E743136 
 9557      5F7400
 9558              	.LASF254:
 9559 03b8 5F757362 		.ascii	"_usb_ep0out\000"
 9559      5F657030 
 9559      6F757400 
 9560              	.LASF229:
 9561 03c4 696E5F6D 		.ascii	"in_maxsize\000"
 9561      61787369 
 9561      7A6500
 9562              	.LASF294:
 9563 03cf 6F74675F 		.ascii	"otg_txfifo_flush\000"
 9563      74786669 
 9563      666F5F66 
 9563      6C757368 
 9563      00
 9564              	.LASF115:
 9565 03e0 5553425F 		.ascii	"USB_EP0_IN_WAITING_TX0\000"
 9565      4550305F 
 9565      494E5F57 
 9565      41495449 
 9565      4E475F54 
 9566              	.LASF49:
 9567 03f7 41484233 		.ascii	"AHB3RSTR\000"
 9567      52535452 
 9567      00
 9568              	.LASF156:
 9569 0400 444F4550 		.ascii	"DOEPTSIZ\000"
 9569      5453495A 
 9569      00
 9570              	.LASF317:
 9571 0409 433A5C50 		.ascii	"C:\\PROJET\\ChibiOS project\\ChibiOS_21.11.4\\demos"
 9571      524F4A45 
 9571      545C4368 
 9571      6962694F 
 9571      53207072 
 9572 0438 5C53544D 		.ascii	"\\STM32\\RT-STM32H743ZI_REV_XY-NUCLEO144_Quartz8M\000"
 9572      33325C52 
 9572      542D5354 
 9572      4D333248 
 9572      3734335A 
 9573              	.LASF185:
 9574 0468 48505254 		.ascii	"HPRT\000"
 9574      00
 9575              	.LASF324:
 9576 046d 62617365 		.ascii	"basePri\000"
 9576      50726900 
 9577              	.LASF187:
 9578 0475 72657376 		.ascii	"resvd700\000"
 9578      64373030 
 9578      00
 9579              	.LASF313:
 9580 047e 706F7274 		.ascii	"port_unlock\000"
 9580      5F756E6C 
ARM GAS  C:\Users\DEVELO~1\AppData\Local\Temp\cc4r91NU.s 			page 173


 9580      6F636B00 
 9581              	.LASF309:
 9582 048a 63685379 		.ascii	"chSysUnlockFromISR\000"
 9582      73556E6C 
 9582      6F636B46 
 9582      726F6D49 
 9582      535200
 9583              	.LASF153:
 9584 049d 73746D33 		.ascii	"stm32_otg_in_ep_t\000"
 9584      325F6F74 
 9584      675F696E 
 9584      5F65705F 
 9584      7400
 9585              	.LASF190:
 9586 04af 44535453 		.ascii	"DSTS\000"
 9586      00
 9587              	.LASF79:
 9588 04b4 41504234 		.ascii	"APB4LPENR\000"
 9588      4C50454E 
 9588      5200
 9589              	.LASF4:
 9590 04be 73697A65 		.ascii	"size_t\000"
 9590      5F7400
 9591              	.LASF315:
 9592 04c5 474E5520 		.ascii	"GNU C17 11.3.1 20220712 -mcpu=cortex-m7 -mthumb -mf"
 9592      43313720 
 9592      31312E33 
 9592      2E312032 
 9592      30323230 
 9593 04f8 6C6F6174 		.ascii	"loat-abi=soft -march=armv7e-m -ggdb -O0 -ffunction-"
 9593      2D616269 
 9593      3D736F66 
 9593      74202D6D 
 9593      61726368 
 9594 052b 73656374 		.ascii	"sections -fdata-sections -fno-common\000"
 9594      696F6E73 
 9594      202D6664 
 9594      6174612D 
 9594      73656374 
 9595              	.LASF308:
 9596 0550 6F73616C 		.ascii	"osalSysLockFromISR\000"
 9596      5379734C 
 9596      6F636B46 
 9596      726F6D49 
 9596      535200
 9597              	.LASF266:
 9598 0563 7573625F 		.ascii	"usb_lld_get_status_in\000"
 9598      6C6C645F 
 9598      6765745F 
 9598      73746174 
 9598      75735F69 
 9599              	.LASF97:
 9600 0579 636F6E66 		.ascii	"configuration\000"
 9600      69677572 
 9600      6174696F 
 9600      6E00
 9601              	.LASF106:
ARM GAS  C:\Users\DEVELO~1\AppData\Local\Temp\cc4r91NU.s 			page 174


 9602 0587 5553425F 		.ascii	"USB_ACTIVE\000"
 9602      41435449 
 9602      564500
 9603              	.LASF113:
 9604 0592 5553425F 		.ascii	"USB_EP0_STP_WAITING\000"
 9604      4550305F 
 9604      5354505F 
 9604      57414954 
 9604      494E4700 
 9605              	.LASF82:
 9606 05a6 5F426F6F 		.ascii	"_Bool\000"
 9606      6C00
 9607              	.LASF212:
 9608 05ac 72785F66 		.ascii	"rx_fifo_size\000"
 9608      69666F5F 
 9608      73697A65 
 9608      00
 9609              	.LASF177:
 9610 05b9 48434647 		.ascii	"HCFG\000"
 9610      00
 9611              	.LASF282:
 9612 05be 6570696E 		.ascii	"epint\000"
 9612      7400
 9613              	.LASF57:
 9614 05c4 41504234 		.ascii	"APB4RSTR\000"
 9614      52535452 
 9614      00
 9615              	.LASF137:
 9616 05cd 48434348 		.ascii	"HCCHAR\000"
 9616      415200
 9617              	.LASF173:
 9618 05d4 72657376 		.ascii	"resvd58\000"
 9618      64353800 
 9619              	.LASF270:
 9620 05dc 6673697A 		.ascii	"fsize\000"
 9620      6500
 9621              	.LASF157:
 9622 05e2 73746D33 		.ascii	"stm32_otg_out_ep_t\000"
 9622      325F6F74 
 9622      675F6F75 
 9622      745F6570 
 9622      5F7400
 9623              	.LASF274:
 9624 05f5 7573625F 		.ascii	"usb_lld_stop\000"
 9624      6C6C645F 
 9624      73746F70 
 9624      00
 9625              	.LASF141:
 9626 0602 48435453 		.ascii	"HCTSIZ\000"
 9626      495A00
 9627              	.LASF61:
 9628 0609 41484233 		.ascii	"AHB3ENR\000"
 9628      454E5200 
 9629              	.LASF186:
 9630 0611 72657376 		.ascii	"resvd444\000"
 9630      64343434 
 9630      00
ARM GAS  C:\Users\DEVELO~1\AppData\Local\Temp\cc4r91NU.s 			page 175


 9631              	.LASF39:
 9632 061a 44324343 		.ascii	"D2CCIP1R\000"
 9632      49503152 
 9632      00
 9633              	.LASF193:
 9634 0623 444F4550 		.ascii	"DOEPMSK\000"
 9634      4D534B00 
 9635              	.LASF122:
 9636 062b 5553425F 		.ascii	"USB_EVENT_ADDRESS\000"
 9636      4556454E 
 9636      545F4144 
 9636      44524553 
 9636      5300
 9637              	.LASF183:
 9638 063d 4841494E 		.ascii	"HAINTMSK\000"
 9638      544D534B 
 9638      00
 9639              	.LASF283:
 9640 0646 6F74675F 		.ascii	"otg_epin_handler\000"
 9640      6570696E 
 9640      5F68616E 
 9640      646C6572 
 9640      00
 9641              	.LASF14:
 9642 0657 63686172 		.ascii	"char\000"
 9642      00
 9643              	.LASF140:
 9644 065c 4843494E 		.ascii	"HCINTMSK\000"
 9644      544D534B 
 9644      00
 9645              	.LASF74:
 9646 0665 41484234 		.ascii	"AHB4LPENR\000"
 9646      4C50454E 
 9646      5200
 9647              	.LASF34:
 9648 066f 504C4C32 		.ascii	"PLL2FRACR\000"
 9648      46524143 
 9648      5200
 9649              	.LASF231:
 9650 0679 696E5F73 		.ascii	"in_state\000"
 9650      74617465 
 9650      00
 9651              	.LASF162:
 9652 0682 47525354 		.ascii	"GRSTCTL\000"
 9652      43544C00 
 9653              	.LASF247:
 9654 068a 7573624F 		.ascii	"usbObjectInit\000"
 9654      626A6563 
 9654      74496E69 
 9654      7400
 9655              	.LASF102:
 9656 0698 5553425F 		.ascii	"USB_UNINIT\000"
 9656      554E494E 
 9656      495400
 9657              	.LASF26:
 9658 06a3 44324346 		.ascii	"D2CFGR\000"
 9658      475200
ARM GAS  C:\Users\DEVELO~1\AppData\Local\Temp\cc4r91NU.s 			page 176


 9659              	.LASF91:
 9660 06aa 6570306E 		.ascii	"ep0next\000"
 9660      65787400 
 9661              	.LASF298:
 9662 06b2 6F74675F 		.ascii	"otg_disable_ep\000"
 9662      64697361 
 9662      626C655F 
 9662      657000
 9663              	.LASF304:
 9664 06c1 5F5F7263 		.ascii	"__rccResetAHB1\000"
 9664      63526573 
 9664      65744148 
 9664      423100
 9665              	.LASF303:
 9666 06d0 72636345 		.ascii	"rccEnableAHB1\000"
 9666      6E61626C 
 9666      65414842 
 9666      3100
 9667              	.LASF30:
 9668 06de 504C4C43 		.ascii	"PLLCFGR\000"
 9668      46475200 
 9669              	.LASF15:
 9670 06e6 75696E74 		.ascii	"uint8_t\000"
 9670      385F7400 
 9671              	.LASF95:
 9672 06ee 73746174 		.ascii	"status\000"
 9672      757300
 9673              	.LASF273:
 9674 06f5 7573625F 		.ascii	"usb_lld_reset\000"
 9674      6C6C645F 
 9674      72657365 
 9674      7400
 9675              	.LASF207:
 9676 0703 72657376 		.ascii	"resvdD00\000"
 9676      64443030 
 9676      00
 9677              	.LASF227:
 9678 070c 696E5F63 		.ascii	"in_cb\000"
 9678      6200
 9679              	.LASF272:
 9680 0712 7573625F 		.ascii	"usb_lld_set_address\000"
 9680      6C6C645F 
 9680      7365745F 
 9680      61646472 
 9680      65737300 
 9681              	.LASF33:
 9682 0726 504C4C32 		.ascii	"PLL2DIVR\000"
 9682      44495652 
 9682      00
 9683              	.LASF269:
 9684 072f 7573625F 		.ascii	"usb_lld_init_endpoint\000"
 9684      6C6C645F 
 9684      696E6974 
 9684      5F656E64 
 9684      706F696E 
 9685              	.LASF275:
 9686 0745 7573625F 		.ascii	"usb_lld_start\000"
ARM GAS  C:\Users\DEVELO~1\AppData\Local\Temp\cc4r91NU.s 			page 177


 9686      6C6C645F 
 9686      73746172 
 9686      7400
 9687              	.LASF320:
 9688 0753 5F5F706F 		.ascii	"__port_irq_epilogue\000"
 9688      72745F69 
 9688      72715F65 
 9688      70696C6F 
 9688      67756500 
 9689              	.LASF108:
 9690 0767 75736273 		.ascii	"usbstate_t\000"
 9690      74617465 
 9690      5F7400
 9691              	.LASF271:
 9692 0772 6F746770 		.ascii	"otgp\000"
 9692      00
 9693              	.LASF258:
 9694 0777 7573625F 		.ascii	"usb_lld_clear_in\000"
 9694      6C6C645F 
 9694      636C6561 
 9694      725F696E 
 9694      00
 9695              	.LASF1:
 9696 0788 6C6F6E67 		.ascii	"long long int\000"
 9696      206C6F6E 
 9696      6720696E 
 9696      7400
 9697              	.LASF155:
 9698 0796 444F4550 		.ascii	"DOEPINT\000"
 9698      494E5400 
 9699              	.LASF154:
 9700 079e 444F4550 		.ascii	"DOEPCTL\000"
 9700      43544C00 
 9701              	.LASF215:
 9702 07a6 73746D33 		.ascii	"stm32_otg_params_t\000"
 9702      325F6F74 
 9702      675F7061 
 9702      72616D73 
 9702      5F7400
 9703              	.LASF289:
 9704 07b9 6F74675F 		.ascii	"otg_ram_alloc\000"
 9704      72616D5F 
 9704      616C6C6F 
 9704      6300
 9705              	.LASF92:
 9706 07c7 6570306E 		.ascii	"ep0n\000"
 9706      00
 9707              	.LASF182:
 9708 07cc 4841494E 		.ascii	"HAINT\000"
 9708      5400
 9709              	.LASF232:
 9710 07d2 6F75745F 		.ascii	"out_state\000"
 9710      73746174 
 9710      6500
 9711              	.LASF87:
 9712 07dc 72656365 		.ascii	"receiving\000"
 9712      6976696E 
ARM GAS  C:\Users\DEVELO~1\AppData\Local\Temp\cc4r91NU.s 			page 178


 9712      6700
 9713              	.LASF278:
 9714 07e6 7573625F 		.ascii	"usb_lld_serve_interrupt\000"
 9714      6C6C645F 
 9714      73657276 
 9714      655F696E 
 9714      74657272 
 9715              	.LASF251:
 9716 07fe 5F757362 		.ascii	"_usb_wakeup\000"
 9716      5F77616B 
 9716      65757000 
 9717              	.LASF88:
 9718 080a 696E5F70 		.ascii	"in_params\000"
 9718      6172616D 
 9718      7300
 9719              	.LASF151:
 9720 0814 44545846 		.ascii	"DTXFSTS\000"
 9720      53545300 
 9721              	.LASF302:
 9722 081c 72636344 		.ascii	"rccDisableAHB1\000"
 9722      69736162 
 9722      6C654148 
 9722      423100
 9723              	.LASF64:
 9724 082b 41484234 		.ascii	"AHB4ENR\000"
 9724      454E5200 
 9725              	.LASF239:
 9726 0833 736F665F 		.ascii	"sof_cb\000"
 9726      636200
 9727              	.LASF290:
 9728 083a 73697A65 		.ascii	"size\000"
 9728      00
 9729              	.LASF145:
 9730 083f 73746D33 		.ascii	"stm32_otg_host_chn_t\000"
 9730      325F6F74 
 9730      675F686F 
 9730      73745F63 
 9730      686E5F74 
 9731              	.LASF2:
 9732 0854 6C6F6E67 		.ascii	"long double\000"
 9732      20646F75 
 9732      626C6500 
 9733              	.LASF262:
 9734 0860 7573625F 		.ascii	"usb_lld_start_in\000"
 9734      6C6C645F 
 9734      73746172 
 9734      745F696E 
 9734      00
 9735              	.LASF127:
 9736 0871 5553425F 		.ascii	"USB_EVENT_STALLED\000"
 9736      4556454E 
 9736      545F5354 
 9736      414C4C45 
 9736      4400
 9737              	.LASF7:
 9738 0883 73686F72 		.ascii	"short int\000"
 9738      7420696E 
ARM GAS  C:\Users\DEVELO~1\AppData\Local\Temp\cc4r91NU.s 			page 179


 9738      7400
 9739              	.LASF301:
 9740 088d 6D61736B 		.ascii	"mask\000"
 9740      00
 9741              	.LASF210:
 9742 0892 4649464F 		.ascii	"FIFO\000"
 9742      00
 9743              	.LASF107:
 9744 0897 5553425F 		.ascii	"USB_SUSPENDED\000"
 9744      53555350 
 9744      454E4445 
 9744      4400
 9745              	.LASF234:
 9746 08a5 73657475 		.ascii	"setup_buf\000"
 9746      705F6275 
 9746      6600
 9747              	.LASF256:
 9748 08af 5F757362 		.ascii	"_usb_ep0setup\000"
 9748      5F657030 
 9748      73657475 
 9748      7000
 9749              	.LASF199:
 9750 08bd 44564255 		.ascii	"DVBUSPULSE\000"
 9750      5350554C 
 9750      534500
 9751              	.LASF243:
 9752 08c8 65703063 		.ascii	"ep0config\000"
 9752      6F6E6669 
 9752      6700
 9753              	.LASF124:
 9754 08d2 5553425F 		.ascii	"USB_EVENT_UNCONFIGURED\000"
 9754      4556454E 
 9754      545F554E 
 9754      434F4E46 
 9754      49475552 
 9755              	.LASF59:
 9756 08e9 4433414D 		.ascii	"D3AMR\000"
 9756      5200
 9757              	.LASF131:
 9758 08ef 55534244 		.ascii	"USBDescriptor\000"
 9758      65736372 
 9758      6970746F 
 9758      7200
 9759              	.LASF237:
 9760 08fd 6765745F 		.ascii	"get_descriptor_cb\000"
 9760      64657363 
 9760      72697074 
 9760      6F725F63 
 9760      6200
 9761              	.LASF54:
 9762 090f 41504231 		.ascii	"APB1LRSTR\000"
 9762      4C525354 
 9762      5200
 9763              	.LASF72:
 9764 0919 41484231 		.ascii	"AHB1LPENR\000"
 9764      4C50454E 
 9764      5200
ARM GAS  C:\Users\DEVELO~1\AppData\Local\Temp\cc4r91NU.s 			page 180


 9765              	.LASF281:
 9766 0923 6F74675F 		.ascii	"otg_epout_handler\000"
 9766      65706F75 
 9766      745F6861 
 9766      6E646C65 
 9766      7200
 9767              	.LASF296:
 9768 0935 6F74675F 		.ascii	"otg_rxfifo_flush\000"
 9768      72786669 
 9768      666F5F66 
 9768      6C757368 
 9768      00
 9769              	.LASF90:
 9770 0946 65703073 		.ascii	"ep0state\000"
 9770      74617465 
 9770      00
 9771              	.LASF240:
 9772 094f 55534243 		.ascii	"USBConfig\000"
 9772      6F6E6669 
 9772      6700
 9773              	.LASF114:
 9774 0959 5553425F 		.ascii	"USB_EP0_IN_TX\000"
 9774      4550305F 
 9774      494E5F54 
 9774      5800
 9775              	.LASF299:
 9776 0967 6F74675F 		.ascii	"otg_core_reset\000"
 9776      636F7265 
 9776      5F726573 
 9776      657400
 9777              	.LASF16:
 9778 0976 75696E74 		.ascii	"uint16_t\000"
 9778      31365F74 
 9778      00
 9779              	.LASF160:
 9780 097f 47414842 		.ascii	"GAHBCFG\000"
 9780      43464700 
 9781              	.LASF211:
 9782 0987 73746D33 		.ascii	"stm32_otg_t\000"
 9782      325F6F74 
 9782      675F7400 
 9783              	.LASF280:
 9784 0993 6F74675F 		.ascii	"otg_isoc_in_failed_handler\000"
 9784      69736F63 
 9784      5F696E5F 
 9784      6661696C 
 9784      65645F68 
 9785              	.LASF253:
 9786 09ae 63685379 		.ascii	"chSysPolledDelayX\000"
 9786      73506F6C 
 9786      6C656444 
 9786      656C6179 
 9786      5800
 9787              	.LASF51:
 9788 09c0 41484232 		.ascii	"AHB2RSTR\000"
 9788      52535452 
 9788      00
ARM GAS  C:\Users\DEVELO~1\AppData\Local\Temp\cc4r91NU.s 			page 181


 9789              	.LASF267:
 9790 09c9 7573625F 		.ascii	"usb_lld_get_status_out\000"
 9790      6C6C645F 
 9790      6765745F 
 9790      73746174 
 9790      75735F6F 
 9791              	.LASF164:
 9792 09e0 47494E54 		.ascii	"GINTMSK\000"
 9792      4D534B00 
 9793              	.LASF19:
 9794 09e8 7274636E 		.ascii	"rtcnt_t\000"
 9794      745F7400 
 9795              	.LASF265:
 9796 09f0 7573625F 		.ascii	"usb_lld_read_setup\000"
 9796      6C6C645F 
 9796      72656164 
 9796      5F736574 
 9796      757000
 9797              	.LASF174:
 9798 0a03 48505458 		.ascii	"HPTXFSIZ\000"
 9798      4653495A 
 9798      00
 9799              	.LASF246:
 9800 0a0c 6E766963 		.ascii	"nvicEnableVector\000"
 9800      456E6162 
 9800      6C655665 
 9800      63746F72 
 9800      00
 9801              	.LASF45:
 9802 0a1d 43494352 		.ascii	"CICR\000"
 9802      00
 9803              	.LASF6:
 9804 0a22 756E7369 		.ascii	"unsigned char\000"
 9804      676E6564 
 9804      20636861 
 9804      7200
 9805              	.LASF85:
 9806 0a30 636F6E66 		.ascii	"config\000"
 9806      696700
 9807              	.LASF117:
 9808 0a37 5553425F 		.ascii	"USB_EP0_OUT_WAITING_STS\000"
 9808      4550305F 
 9808      4F55545F 
 9808      57414954 
 9808      494E475F 
 9809              	.LASF24:
 9810 0a4f 52455345 		.ascii	"RESERVED1\000"
 9810      52564544 
 9810      3100
 9811              	.LASF28:
 9812 0a59 52455345 		.ascii	"RESERVED2\000"
 9812      52564544 
 9812      3200
 9813              	.LASF37:
 9814 0a63 52455345 		.ascii	"RESERVED3\000"
 9814      52564544 
 9814      3300
ARM GAS  C:\Users\DEVELO~1\AppData\Local\Temp\cc4r91NU.s 			page 182


 9815              	.LASF42:
 9816 0a6d 52455345 		.ascii	"RESERVED4\000"
 9816      52564544 
 9816      3400
 9817              	.LASF46:
 9818 0a77 52455345 		.ascii	"RESERVED5\000"
 9818      52564544 
 9818      3500
 9819              	.LASF48:
 9820 0a81 52455345 		.ascii	"RESERVED6\000"
 9820      52564544 
 9820      3600
 9821              	.LASF139:
 9822 0a8b 4843494E 		.ascii	"HCINT\000"
 9822      5400
 9823              	.LASF58:
 9824 0a91 52455345 		.ascii	"RESERVED8\000"
 9824      52564544 
 9824      3800
 9825              	.LASF255:
 9826 0a9b 5F757362 		.ascii	"_usb_ep0in\000"
 9826      5F657030 
 9826      696E00
 9827              	.LASF75:
 9828 0aa6 41504233 		.ascii	"APB3LPENR\000"
 9828      4C50454E 
 9828      5200
 9829              	.LASF67:
 9830 0ab0 41504231 		.ascii	"APB1HENR\000"
 9830      48454E52 
 9830      00
 9831              	.LASF89:
 9832 0ab9 6F75745F 		.ascii	"out_params\000"
 9832      70617261 
 9832      6D7300
 9833              	.LASF293:
 9834 0ac4 6F74675F 		.ascii	"otg_ram_reset\000"
 9834      72616D5F 
 9834      72657365 
 9834      7400
 9835              	.LASF10:
 9836 0ad2 6C6F6E67 		.ascii	"long int\000"
 9836      20696E74 
 9836      00
 9837              	.LASF224:
 9838 0adb 5553424F 		.ascii	"USBOutEndpointState\000"
 9838      7574456E 
 9838      64706F69 
 9838      6E745374 
 9838      61746500 
 9839              	.LASF146:
 9840 0aef 44494550 		.ascii	"DIEPCTL\000"
 9840      43544C00 
 9841              	.LASF98:
 9842 0af7 73617665 		.ascii	"saved_state\000"
 9842      645F7374 
 9842      61746500 
ARM GAS  C:\Users\DEVELO~1\AppData\Local\Temp\cc4r91NU.s 			page 183


 9843              	.LASF53:
 9844 0b03 41504233 		.ascii	"APB3RSTR\000"
 9844      52535452 
 9844      00
 9845              	.LASF136:
 9846 0b0c 75736267 		.ascii	"usbgetdescriptor_t\000"
 9846      65746465 
 9846      73637269 
 9846      70746F72 
 9846      5F7400
 9847              	.LASF68:
 9848 0b1f 41504232 		.ascii	"APB2ENR\000"
 9848      454E5200 
 9849              	.LASF323:
 9850 0b27 5F5F7365 		.ascii	"__set_BASEPRI\000"
 9850      745F4241 
 9850      53455052 
 9850      4900
 9851              	.LASF218:
 9852 0b35 74786275 		.ascii	"txbuf\000"
 9852      6600
 9853              	.LASF191:
 9854 0b3b 72657376 		.ascii	"resvd80C\000"
 9854      64383043 
 9854      00
 9855              	.LASF38:
 9856 0b44 44314343 		.ascii	"D1CCIPR\000"
 9856      49505200 
 9857              	.LASF285:
 9858 0b4c 6F74675F 		.ascii	"otg_fifo_read_to_buffer\000"
 9858      6669666F 
 9858      5F726561 
 9858      645F746F 
 9858      5F627566 
 9859              	.LASF23:
 9860 0b64 43464752 		.ascii	"CFGR\000"
 9860      00
 9861              	.LASF208:
 9862 0b69 50434743 		.ascii	"PCGCCTL\000"
 9862      43544C00 
 9863              	.LASF307:
 9864 0b71 6F73616C 		.ascii	"osalSysUnlockFromISR\000"
 9864      53797355 
 9864      6E6C6F63 
 9864      6B46726F 
 9864      6D495352 
 9865              	.LASF105:
 9866 0b86 5553425F 		.ascii	"USB_SELECTED\000"
 9866      53454C45 
 9866      43544544 
 9866      00
 9867              	.LASF69:
 9868 0b93 41504234 		.ascii	"APB4ENR\000"
 9868      454E5200 
 9869              	.LASF5:
 9870 0b9b 5F5F7569 		.ascii	"__uint8_t\000"
 9870      6E74385F 
ARM GAS  C:\Users\DEVELO~1\AppData\Local\Temp\cc4r91NU.s 			page 184


 9870      7400
 9871              	.LASF133:
 9872 0ba5 75736265 		.ascii	"usbepcallback_t\000"
 9872      7063616C 
 9872      6C626163 
 9872      6B5F7400 
 9873              	.LASF111:
 9874 0bb5 45505F53 		.ascii	"EP_STATUS_ACTIVE\000"
 9874      54415455 
 9874      535F4143 
 9874      54495645 
 9874      00
 9875              	.LASF168:
 9876 0bc6 44494550 		.ascii	"DIEPTXF0\000"
 9876      54584630 
 9876      00
 9877              	.LASF29:
 9878 0bcf 504C4C43 		.ascii	"PLLCKSELR\000"
 9878      4B53454C 
 9878      5200
 9879              	.LASF159:
 9880 0bd9 474F5447 		.ascii	"GOTGINT\000"
 9880      494E5400 
 9881              	.LASF158:
 9882 0be1 474F5447 		.ascii	"GOTGCTL\000"
 9882      43544C00 
 9883              	.LASF195:
 9884 0be9 4441494E 		.ascii	"DAINTMSK\000"
 9884      544D534B 
 9884      00
 9885              	.LASF264:
 9886 0bf2 7573625F 		.ascii	"usb_lld_start_out\000"
 9886      6C6C645F 
 9886      73746172 
 9886      745F6F75 
 9886      7400
 9887              	.LASF192:
 9888 0c04 44494550 		.ascii	"DIEPMSK\000"
 9888      4D534B00 
 9889              	.LASF263:
 9890 0c0c 70636E74 		.ascii	"pcnt\000"
 9890      00
 9891              	.LASF71:
 9892 0c11 41484233 		.ascii	"AHB3LPENR\000"
 9892      4C50454E 
 9892      5200
 9893              	.LASF32:
 9894 0c1b 504C4C31 		.ascii	"PLL1FRACR\000"
 9894      46524143 
 9894      5200
 9895              	.LASF43:
 9896 0c25 43494552 		.ascii	"CIER\000"
 9896      00
 9897              	.LASF25:
 9898 0c2a 44314346 		.ascii	"D1CFGR\000"
 9898      475200
 9899              	.LASF248:
ARM GAS  C:\Users\DEVELO~1\AppData\Local\Temp\cc4r91NU.s 			page 185


 9900 0c31 5F5F7472 		.ascii	"__trace_isr_leave\000"
 9900      6163655F 
 9900      6973725F 
 9900      6C656176 
 9900      6500
 9901              	.LASF12:
 9902 0c43 6C6F6E67 		.ascii	"long unsigned int\000"
 9902      20756E73 
 9902      69676E65 
 9902      6420696E 
 9902      7400
 9903              	.LASF96:
 9904 0c55 61646472 		.ascii	"address\000"
 9904      65737300 
 9905              	.LASF166:
 9906 0c5d 47525853 		.ascii	"GRXSTSP\000"
 9906      54535000 
 9907              	.LASF165:
 9908 0c65 47525853 		.ascii	"GRXSTSR\000"
 9908      54535200 
 9909              	.LASF77:
 9910 0c6d 41504231 		.ascii	"APB1HLPENR\000"
 9910      484C5045 
 9910      4E5200
 9911              	.LASF63:
 9912 0c78 41484232 		.ascii	"AHB2ENR\000"
 9912      454E5200 
 9913              	.LASF277:
 9914 0c80 72657472 		.ascii	"retry\000"
 9914      7900
 9915              	.LASF31:
 9916 0c86 504C4C31 		.ascii	"PLL1DIVR\000"
 9916      44495652 
 9916      00
 9917              	.LASF112:
 9918 0c8f 75736265 		.ascii	"usbepstatus_t\000"
 9918      70737461 
 9918      7475735F 
 9918      7400
 9919              	.LASF169:
 9920 0c9d 484E5054 		.ascii	"HNPTXSTS\000"
 9920      58535453 
 9920      00
 9921              	.LASF286:
 9922 0ca6 6669666F 		.ascii	"fifop\000"
 9922      7000
 9923              	.LASF196:
 9924 0cac 72657376 		.ascii	"resvd820\000"
 9924      64383230 
 9924      00
 9925              	.LASF22:
 9926 0cb5 43534943 		.ascii	"CSICFGR\000"
 9926      46475200 
 9927              	.LASF321:
 9928 0cbd 7573625F 		.ascii	"usb_lld_init\000"
 9928      6C6C645F 
 9928      696E6974 
ARM GAS  C:\Users\DEVELO~1\AppData\Local\Temp\cc4r91NU.s 			page 186


 9928      00
 9929              	.LASF197:
 9930 0cca 72657376 		.ascii	"resvd824\000"
 9930      64383234 
 9930      00
 9931              	.LASF119:
 9932 0cd3 5553425F 		.ascii	"USB_EP0_ERROR\000"
 9932      4550305F 
 9932      4552524F 
 9932      5200
 9933              	.LASF179:
 9934 0ce1 48464E55 		.ascii	"HFNUM\000"
 9934      4D00
 9935              	.LASF101:
 9936 0ce7 75736265 		.ascii	"usbep_t\000"
 9936      705F7400 
 9937              	.LASF219:
 9938 0cef 746F7473 		.ascii	"totsize\000"
 9938      697A6500 
 9939              	.LASF138:
 9940 0cf7 72657376 		.ascii	"resvd8\000"
 9940      643800
 9941              	.LASF226:
 9942 0cfe 73657475 		.ascii	"setup_cb\000"
 9942      705F6362 
 9942      00
 9943              	.LASF276:
 9944 0d07 56656374 		.ascii	"Vector1D4\000"
 9944      6F723144 
 9944      3400
 9945              	.LASF60:
 9946 0d11 52455345 		.ascii	"RESERVED11\000"
 9946      52564544 
 9946      313100
 9947              	.LASF70:
 9948 0d1c 52455345 		.ascii	"RESERVED12\000"
 9948      52564544 
 9948      313200
 9949              	.LASF80:
 9950 0d27 52455345 		.ascii	"RESERVED13\000"
 9950      52564544 
 9950      313300
 9951              	.LASF209:
 9952 0d32 72657376 		.ascii	"resvdE04\000"
 9952      64453034 
 9952      00
 9953              	.LASF130:
 9954 0d3b 75645F73 		.ascii	"ud_string\000"
 9954      7472696E 
 9954      6700
 9955              	.LASF295:
 9956 0d45 6669666F 		.ascii	"fifo\000"
 9956      00
 9957              	.LASF100:
 9958 0d4a 706D6E65 		.ascii	"pmnext\000"
 9958      787400
 9959              	.LASF316:
ARM GAS  C:\Users\DEVELO~1\AppData\Local\Temp\cc4r91NU.s 			page 187


 9960 0d51 2E2E2F2E 		.ascii	"../../../os/hal/ports/STM32/LLD/OTGv1/hal_usb_lld.c"
 9960      2E2F2E2E 
 9960      2F6F732F 
 9960      68616C2F 
 9960      706F7274 
 9961 0d84 00       		.ascii	"\000"
 9962              	.LASF84:
 9963 0d85 73746174 		.ascii	"state\000"
 9963      6500
 9964              	.LASF148:
 9965 0d8b 44494550 		.ascii	"DIEPINT\000"
 9965      494E5400 
 9966              	.LASF178:
 9967 0d93 48464952 		.ascii	"HFIR\000"
 9967      00
 9968              	.LASF175:
 9969 0d98 44494550 		.ascii	"DIEPTXF\000"
 9969      54584600 
 9970              	.LASF189:
 9971 0da0 4443544C 		.ascii	"DCTL\000"
 9971      00
 9972              	.LASF236:
 9973 0da5 6576656E 		.ascii	"event_cb\000"
 9973      745F6362 
 9973      00
 9974              	.LASF41:
 9975 0dae 44334343 		.ascii	"D3CCIPR\000"
 9975      49505200 
 9976              	.LASF230:
 9977 0db6 6F75745F 		.ascii	"out_maxsize\000"
 9977      6D617873 
 9977      697A6500 
 9978              	.LASF200:
 9979 0dc2 72657376 		.ascii	"resvd830\000"
 9979      64383330 
 9979      00
 9980              	.LASF318:
 9981 0dcb 55534244 		.ascii	"USBD1\000"
 9981      3100
 9982              	.LASF202:
 9983 0dd1 72657376 		.ascii	"resvd838\000"
 9983      64383338 
 9983      00
 9984              	.LASF220:
 9985 0dda 55534249 		.ascii	"USBInEndpointState\000"
 9985      6E456E64 
 9985      706F696E 
 9985      74537461 
 9985      746500
 9986              	.LASF83:
 9987 0ded 55534244 		.ascii	"USBDriver\000"
 9987      72697665 
 9987      7200
 9988              	.LASF203:
 9989 0df7 72657376 		.ascii	"resvd83C\000"
 9989      64383343 
 9989      00
ARM GAS  C:\Users\DEVELO~1\AppData\Local\Temp\cc4r91NU.s 			page 188


 9990              	.LASF9:
 9991 0e00 73686F72 		.ascii	"short unsigned int\000"
 9991      7420756E 
 9991      7369676E 
 9991      65642069 
 9991      6E7400
 9992              	.LASF297:
 9993 0e13 6F74675F 		.ascii	"otg_enable_ep\000"
 9993      656E6162 
 9993      6C655F65 
 9993      7000
 9994              	.LASF319:
 9995 0e21 6D656D63 		.ascii	"memcpy\000"
 9995      707900
 9996              	.LASF268:
 9997 0e28 7573625F 		.ascii	"usb_lld_disable_endpoints\000"
 9997      6C6C645F 
 9997      64697361 
 9997      626C655F 
 9997      656E6470 
 9998              	.LASF99:
 9999 0e42 6F746770 		.ascii	"otgparams\000"
 9999      6172616D 
 9999      7300
 10000              	.LASF233:
 10001 0e4c 696E5F6D 		.ascii	"in_multiplier\000"
 10001      756C7469 
 10001      706C6965 
 10001      7200
 10002              	.LASF292:
 10003 0e5a 5F5F6675 		.ascii	"__func__\000"
 10003      6E635F5F 
 10003      00
 10004              	.LASF194:
 10005 0e63 4441494E 		.ascii	"DAINT\000"
 10005      5400
 10006              	.LASF52:
 10007 0e69 41484234 		.ascii	"AHB4RSTR\000"
 10007      52535452 
 10007      00
 10008              	.LASF222:
 10009 0e72 7278636E 		.ascii	"rxcnt\000"
 10009      7400
 10010              	.LASF241:
 10011 0e78 6570305F 		.ascii	"ep0_state\000"
 10011      73746174 
 10011      6500
 10012              	.LASF206:
 10013 0e82 72657376 		.ascii	"resvd8C0\000"
 10013      64384330 
 10013      00
 10014              	.LASF306:
 10015 0e8b 6379636C 		.ascii	"cycles\000"
 10015      657300
 10016              	.LASF128:
 10017 0e92 75736265 		.ascii	"usbevent_t\000"
 10017      76656E74 
ARM GAS  C:\Users\DEVELO~1\AppData\Local\Temp\cc4r91NU.s 			page 189


 10017      5F7400
 10018              	.LASF249:
 10019 0e9d 5F5F7472 		.ascii	"__trace_isr_enter\000"
 10019      6163655F 
 10019      6973725F 
 10019      656E7465 
 10019      7200
 10020              	.LASF204:
 10021 0eaf 72657376 		.ascii	"resvd840\000"
 10021      64383430 
 10021      00
 10022              	.LASF259:
 10023 0eb8 7573625F 		.ascii	"usb_lld_clear_out\000"
 10023      6C6C645F 
 10023      636C6561 
 10023      725F6F75 
 10023      7400
 10024              	.LASF120:
 10025 0eca 75736265 		.ascii	"usbep0state_t\000"
 10025      70307374 
 10025      6174655F 
 10025      7400
 10026              	.LASF132:
 10027 0ed8 75736263 		.ascii	"usbcallback_t\000"
 10027      616C6C62 
 10027      61636B5F 
 10027      7400
 10028              	.LASF314:
 10029 0ee6 706F7274 		.ascii	"port_lock\000"
 10029      5F6C6F63 
 10029      6B00
 10030              	.LASF103:
 10031 0ef0 5553425F 		.ascii	"USB_STOP\000"
 10031      53544F50 
 10031      00
 10032              	.LASF66:
 10033 0ef9 41504231 		.ascii	"APB1LENR\000"
 10033      4C454E52 
 10033      00
 10034              	.LASF50:
 10035 0f02 41484231 		.ascii	"AHB1RSTR\000"
 10035      52535452 
 10035      00
 10036              	.LASF116:
 10037 0f0b 5553425F 		.ascii	"USB_EP0_IN_SENDING_STS\000"
 10037      4550305F 
 10037      494E5F53 
 10037      454E4449 
 10037      4E475F53 
 10038              	.LASF223:
 10039 0f22 72786275 		.ascii	"rxbuf\000"
 10039      6600
 10040              	.LASF126:
 10041 0f28 5553425F 		.ascii	"USB_EVENT_WAKEUP\000"
 10041      4556454E 
 10041      545F5741 
 10041      4B455550 
ARM GAS  C:\Users\DEVELO~1\AppData\Local\Temp\cc4r91NU.s 			page 190


 10041      00
 10042              	.LASF300:
 10043 0f39 72636352 		.ascii	"rccResetAHB1\000"
 10043      65736574 
 10043      41484231 
 10043      00
 10044              	.LASF261:
 10045 0f46 7573625F 		.ascii	"usb_lld_stall_out\000"
 10045      6C6C645F 
 10045      7374616C 
 10045      6C5F6F75 
 10045      7400
 10046              		.ident	"GCC: (Arm GNU Toolchain 11.3.Rel1) 11.3.1 20220712"
ARM GAS  C:\Users\DEVELO~1\AppData\Local\Temp\cc4r91NU.s 			page 191


DEFINED SYMBOLS
                            *ABS*:00000000 hal_usb_lld.c
C:\Users\DEVELO~1\AppData\Local\Temp\cc4r91NU.s:18     .text.chSysLockFromISR:00000000 $t
C:\Users\DEVELO~1\AppData\Local\Temp\cc4r91NU.s:23     .text.chSysLockFromISR:00000000 chSysLockFromISR
C:\Users\DEVELO~1\AppData\Local\Temp\cc4r91NU.s:83     .text.chSysUnlockFromISR:00000000 $t
C:\Users\DEVELO~1\AppData\Local\Temp\cc4r91NU.s:88     .text.chSysUnlockFromISR:00000000 chSysUnlockFromISR
C:\Users\DEVELO~1\AppData\Local\Temp\cc4r91NU.s:145    .text.osalSysLockFromISR:00000000 $t
C:\Users\DEVELO~1\AppData\Local\Temp\cc4r91NU.s:150    .text.osalSysLockFromISR:00000000 osalSysLockFromISR
C:\Users\DEVELO~1\AppData\Local\Temp\cc4r91NU.s:172    .text.osalSysUnlockFromISR:00000000 $t
C:\Users\DEVELO~1\AppData\Local\Temp\cc4r91NU.s:177    .text.osalSysUnlockFromISR:00000000 osalSysUnlockFromISR
C:\Users\DEVELO~1\AppData\Local\Temp\cc4r91NU.s:198    .text.osalSysPolledDelayX:00000000 $t
C:\Users\DEVELO~1\AppData\Local\Temp\cc4r91NU.s:203    .text.osalSysPolledDelayX:00000000 osalSysPolledDelayX
C:\Users\DEVELO~1\AppData\Local\Temp\cc4r91NU.s:233    .text.__rccResetAHB1:00000000 $t
C:\Users\DEVELO~1\AppData\Local\Temp\cc4r91NU.s:238    .text.__rccResetAHB1:00000000 __rccResetAHB1
C:\Users\DEVELO~1\AppData\Local\Temp\cc4r91NU.s:289    .text.__rccResetAHB1:0000003c $d
C:\Users\DEVELO~1\AppData\Local\Temp\cc4r91NU.s:294    .text.rccEnableAHB1:00000000 $t
C:\Users\DEVELO~1\AppData\Local\Temp\cc4r91NU.s:299    .text.rccEnableAHB1:00000000 rccEnableAHB1
C:\Users\DEVELO~1\AppData\Local\Temp\cc4r91NU.s:365    .text.rccEnableAHB1:00000058 $d
C:\Users\DEVELO~1\AppData\Local\Temp\cc4r91NU.s:370    .text.rccDisableAHB1:00000000 $t
C:\Users\DEVELO~1\AppData\Local\Temp\cc4r91NU.s:375    .text.rccDisableAHB1:00000000 rccDisableAHB1
C:\Users\DEVELO~1\AppData\Local\Temp\cc4r91NU.s:428    .text.rccDisableAHB1:0000003c $d
C:\Users\DEVELO~1\AppData\Local\Temp\cc4r91NU.s:433    .text.rccResetAHB1:00000000 $t
C:\Users\DEVELO~1\AppData\Local\Temp\cc4r91NU.s:438    .text.rccResetAHB1:00000000 rccResetAHB1
C:\Users\DEVELO~1\AppData\Local\Temp\cc4r91NU.s:472    .bss.USBD1:00000000 USBD1
C:\Users\DEVELO~1\AppData\Local\Temp\cc4r91NU.s:469    .bss.USBD1:00000000 $d
C:\Users\DEVELO~1\AppData\Local\Temp\cc4r91NU.s:475    .bss.ep0_state:00000000 $d
C:\Users\DEVELO~1\AppData\Local\Temp\cc4r91NU.s:478    .bss.ep0_state:00000000 ep0_state
C:\Users\DEVELO~1\AppData\Local\Temp\cc4r91NU.s:481    .bss.ep0setup_buffer:00000000 $d
C:\Users\DEVELO~1\AppData\Local\Temp\cc4r91NU.s:484    .bss.ep0setup_buffer:00000000 ep0setup_buffer
C:\Users\DEVELO~1\AppData\Local\Temp\cc4r91NU.s:487    .rodata.ep0config:00000000 $d
C:\Users\DEVELO~1\AppData\Local\Temp\cc4r91NU.s:490    .rodata.ep0config:00000000 ep0config
C:\Users\DEVELO~1\AppData\Local\Temp\cc4r91NU.s:503    .rodata.fsparams:00000000 $d
C:\Users\DEVELO~1\AppData\Local\Temp\cc4r91NU.s:506    .rodata.fsparams:00000000 fsparams
C:\Users\DEVELO~1\AppData\Local\Temp\cc4r91NU.s:511    .text.otg_core_reset:00000000 $t
C:\Users\DEVELO~1\AppData\Local\Temp\cc4r91NU.s:516    .text.otg_core_reset:00000000 otg_core_reset
C:\Users\DEVELO~1\AppData\Local\Temp\cc4r91NU.s:588    .text.otg_disable_ep:00000000 $t
C:\Users\DEVELO~1\AppData\Local\Temp\cc4r91NU.s:593    .text.otg_disable_ep:00000000 otg_disable_ep
C:\Users\DEVELO~1\AppData\Local\Temp\cc4r91NU.s:717    .text.otg_enable_ep:00000000 $t
C:\Users\DEVELO~1\AppData\Local\Temp\cc4r91NU.s:722    .text.otg_enable_ep:00000000 otg_enable_ep
C:\Users\DEVELO~1\AppData\Local\Temp\cc4r91NU.s:826    .text.otg_rxfifo_flush:00000000 $t
C:\Users\DEVELO~1\AppData\Local\Temp\cc4r91NU.s:831    .text.otg_rxfifo_flush:00000000 otg_rxfifo_flush
C:\Users\DEVELO~1\AppData\Local\Temp\cc4r91NU.s:880    .text.otg_txfifo_flush:00000000 $t
C:\Users\DEVELO~1\AppData\Local\Temp\cc4r91NU.s:885    .text.otg_txfifo_flush:00000000 otg_txfifo_flush
C:\Users\DEVELO~1\AppData\Local\Temp\cc4r91NU.s:939    .text.otg_ram_reset:00000000 $t
C:\Users\DEVELO~1\AppData\Local\Temp\cc4r91NU.s:944    .text.otg_ram_reset:00000000 otg_ram_reset
C:\Users\DEVELO~1\AppData\Local\Temp\cc4r91NU.s:982    .text.otg_ram_alloc:00000000 $t
C:\Users\DEVELO~1\AppData\Local\Temp\cc4r91NU.s:987    .text.otg_ram_alloc:00000000 otg_ram_alloc
C:\Users\DEVELO~1\AppData\Local\Temp\cc4r91NU.s:1031   .text.otg_fifo_write_from_buffer:00000000 $t
C:\Users\DEVELO~1\AppData\Local\Temp\cc4r91NU.s:1036   .text.otg_fifo_write_from_buffer:00000000 otg_fifo_write_from_buffer
C:\Users\DEVELO~1\AppData\Local\Temp\cc4r91NU.s:1092   .text.otg_fifo_read_to_buffer:00000000 $t
C:\Users\DEVELO~1\AppData\Local\Temp\cc4r91NU.s:1097   .text.otg_fifo_read_to_buffer:00000000 otg_fifo_read_to_buffer
C:\Users\DEVELO~1\AppData\Local\Temp\cc4r91NU.s:1180   .text.otg_rxfifo_handler:00000000 $t
C:\Users\DEVELO~1\AppData\Local\Temp\cc4r91NU.s:1185   .text.otg_rxfifo_handler:00000000 otg_rxfifo_handler
C:\Users\DEVELO~1\AppData\Local\Temp\cc4r91NU.s:1439   .text.otg_txfifo_handler:00000000 $t
C:\Users\DEVELO~1\AppData\Local\Temp\cc4r91NU.s:1444   .text.otg_txfifo_handler:00000000 otg_txfifo_handler
C:\Users\DEVELO~1\AppData\Local\Temp\cc4r91NU.s:1667   .text.otg_epin_handler:00000000 $t
C:\Users\DEVELO~1\AppData\Local\Temp\cc4r91NU.s:1672   .text.otg_epin_handler:00000000 otg_epin_handler
ARM GAS  C:\Users\DEVELO~1\AppData\Local\Temp\cc4r91NU.s 			page 192


C:\Users\DEVELO~1\AppData\Local\Temp\cc4r91NU.s:4139   .text.usb_lld_start_in:00000000 usb_lld_start_in
C:\Users\DEVELO~1\AppData\Local\Temp\cc4r91NU.s:1846   .text.otg_epout_handler:00000000 $t
C:\Users\DEVELO~1\AppData\Local\Temp\cc4r91NU.s:1851   .text.otg_epout_handler:00000000 otg_epout_handler
C:\Users\DEVELO~1\AppData\Local\Temp\cc4r91NU.s:3922   .text.usb_lld_start_out:00000000 usb_lld_start_out
C:\Users\DEVELO~1\AppData\Local\Temp\cc4r91NU.s:2052   .text.otg_isoc_in_failed_handler:00000000 $t
C:\Users\DEVELO~1\AppData\Local\Temp\cc4r91NU.s:2057   .text.otg_isoc_in_failed_handler:00000000 otg_isoc_in_failed_handler
C:\Users\DEVELO~1\AppData\Local\Temp\cc4r91NU.s:2202   .text.otg_isoc_out_failed_handler:00000000 $t
C:\Users\DEVELO~1\AppData\Local\Temp\cc4r91NU.s:2207   .text.otg_isoc_out_failed_handler:00000000 otg_isoc_out_failed_handler
C:\Users\DEVELO~1\AppData\Local\Temp\cc4r91NU.s:2320   .text.usb_lld_serve_interrupt:00000000 $t
C:\Users\DEVELO~1\AppData\Local\Temp\cc4r91NU.s:2325   .text.usb_lld_serve_interrupt:00000000 usb_lld_serve_interrupt
C:\Users\DEVELO~1\AppData\Local\Temp\cc4r91NU.s:2783   .text.usb_lld_serve_interrupt:000002d4 $d
C:\Users\DEVELO~1\AppData\Local\Temp\cc4r91NU.s:2788   .text.Vector1D4:00000000 $t
C:\Users\DEVELO~1\AppData\Local\Temp\cc4r91NU.s:2794   .text.Vector1D4:00000000 Vector1D4
C:\Users\DEVELO~1\AppData\Local\Temp\cc4r91NU.s:2822   .text.Vector1D4:00000020 $d
C:\Users\DEVELO~1\AppData\Local\Temp\cc4r91NU.s:4602   .rodata.__func__.0:00000000 __func__.0
C:\Users\DEVELO~1\AppData\Local\Temp\cc4r91NU.s:2828   .text.usb_lld_init:00000000 $t
C:\Users\DEVELO~1\AppData\Local\Temp\cc4r91NU.s:2834   .text.usb_lld_init:00000000 usb_lld_init
C:\Users\DEVELO~1\AppData\Local\Temp\cc4r91NU.s:2863   .text.usb_lld_init:00000020 $d
C:\Users\DEVELO~1\AppData\Local\Temp\cc4r91NU.s:2870   .text.usb_lld_start:00000000 $t
C:\Users\DEVELO~1\AppData\Local\Temp\cc4r91NU.s:2876   .text.usb_lld_start:00000000 usb_lld_start
C:\Users\DEVELO~1\AppData\Local\Temp\cc4r91NU.s:3001   .text.usb_lld_start:000000bc $d
C:\Users\DEVELO~1\AppData\Local\Temp\cc4r91NU.s:3010   .text.usb_lld_stop:00000000 $t
C:\Users\DEVELO~1\AppData\Local\Temp\cc4r91NU.s:3016   .text.usb_lld_stop:00000000 usb_lld_stop
C:\Users\DEVELO~1\AppData\Local\Temp\cc4r91NU.s:3079   .text.usb_lld_stop:00000050 $d
C:\Users\DEVELO~1\AppData\Local\Temp\cc4r91NU.s:3084   .text.usb_lld_reset:00000000 $t
C:\Users\DEVELO~1\AppData\Local\Temp\cc4r91NU.s:3090   .text.usb_lld_reset:00000000 usb_lld_reset
C:\Users\DEVELO~1\AppData\Local\Temp\cc4r91NU.s:3271   .text.usb_lld_reset:0000012c $d
C:\Users\DEVELO~1\AppData\Local\Temp\cc4r91NU.s:3278   .text.usb_lld_set_address:00000000 $t
C:\Users\DEVELO~1\AppData\Local\Temp\cc4r91NU.s:3284   .text.usb_lld_set_address:00000000 usb_lld_set_address
C:\Users\DEVELO~1\AppData\Local\Temp\cc4r91NU.s:3332   .text.usb_lld_init_endpoint:00000000 $t
C:\Users\DEVELO~1\AppData\Local\Temp\cc4r91NU.s:3338   .text.usb_lld_init_endpoint:00000000 usb_lld_init_endpoint
C:\Users\DEVELO~1\AppData\Local\Temp\cc4r91NU.s:3378   .text.usb_lld_init_endpoint:00000034 $d
C:\Users\DEVELO~1\AppData\Local\Temp\cc4r91NU.s:3382   .text.usb_lld_init_endpoint:00000044 $t
C:\Users\DEVELO~1\AppData\Local\Temp\cc4r91NU.s:3674   .text.usb_lld_init_endpoint:00000210 $d
C:\Users\DEVELO~1\AppData\Local\Temp\cc4r91NU.s:3683   .text.usb_lld_disable_endpoints:00000000 $t
C:\Users\DEVELO~1\AppData\Local\Temp\cc4r91NU.s:3689   .text.usb_lld_disable_endpoints:00000000 usb_lld_disable_endpoints
C:\Users\DEVELO~1\AppData\Local\Temp\cc4r91NU.s:3722   .text.usb_lld_get_status_out:00000000 $t
C:\Users\DEVELO~1\AppData\Local\Temp\cc4r91NU.s:3728   .text.usb_lld_get_status_out:00000000 usb_lld_get_status_out
C:\Users\DEVELO~1\AppData\Local\Temp\cc4r91NU.s:3794   .text.usb_lld_get_status_in:00000000 $t
C:\Users\DEVELO~1\AppData\Local\Temp\cc4r91NU.s:3800   .text.usb_lld_get_status_in:00000000 usb_lld_get_status_in
C:\Users\DEVELO~1\AppData\Local\Temp\cc4r91NU.s:3866   .text.usb_lld_read_setup:00000000 $t
C:\Users\DEVELO~1\AppData\Local\Temp\cc4r91NU.s:3872   .text.usb_lld_read_setup:00000000 usb_lld_read_setup
C:\Users\DEVELO~1\AppData\Local\Temp\cc4r91NU.s:3916   .text.usb_lld_start_out:00000000 $t
C:\Users\DEVELO~1\AppData\Local\Temp\cc4r91NU.s:4133   .text.usb_lld_start_in:00000000 $t
C:\Users\DEVELO~1\AppData\Local\Temp\cc4r91NU.s:4371   .text.usb_lld_stall_out:00000000 $t
C:\Users\DEVELO~1\AppData\Local\Temp\cc4r91NU.s:4377   .text.usb_lld_stall_out:00000000 usb_lld_stall_out
C:\Users\DEVELO~1\AppData\Local\Temp\cc4r91NU.s:4428   .text.usb_lld_stall_in:00000000 $t
C:\Users\DEVELO~1\AppData\Local\Temp\cc4r91NU.s:4434   .text.usb_lld_stall_in:00000000 usb_lld_stall_in
C:\Users\DEVELO~1\AppData\Local\Temp\cc4r91NU.s:4485   .text.usb_lld_clear_out:00000000 $t
C:\Users\DEVELO~1\AppData\Local\Temp\cc4r91NU.s:4491   .text.usb_lld_clear_out:00000000 usb_lld_clear_out
C:\Users\DEVELO~1\AppData\Local\Temp\cc4r91NU.s:4542   .text.usb_lld_clear_in:00000000 $t
C:\Users\DEVELO~1\AppData\Local\Temp\cc4r91NU.s:4548   .text.usb_lld_clear_in:00000000 usb_lld_clear_in
C:\Users\DEVELO~1\AppData\Local\Temp\cc4r91NU.s:4599   .rodata.__func__.0:00000000 $d

UNDEFINED SYMBOLS
chSysPolledDelayX
_usb_ep0setup
ARM GAS  C:\Users\DEVELO~1\AppData\Local\Temp\cc4r91NU.s 			page 193


_usb_ep0in
_usb_ep0out
_usb_reset
_usb_wakeup
_usb_suspend
__trace_isr_enter
__trace_isr_leave
__port_irq_epilogue
usbObjectInit
nvicEnableVector
nvicDisableVector
memcpy
