ARM GAS  C:\Users\DEVELO~1\AppData\Local\Temp\ccqM33Ed.s 			page 1


   1              		.cpu cortex-m7
   2              		.arch armv7e-m
   3              		.fpu softvfp
   4              		.eabi_attribute 20, 1
   5              		.eabi_attribute 21, 1
   6              		.eabi_attribute 23, 3
   7              		.eabi_attribute 24, 1
   8              		.eabi_attribute 25, 1
   9              		.eabi_attribute 26, 1
  10              		.eabi_attribute 30, 6
  11              		.eabi_attribute 34, 1
  12              		.eabi_attribute 18, 4
  13              		.file	"hal_lld.c"
  14              		.text
  15              	.Ltext0:
  16              		.cfi_sections	.debug_frame
  17              		.section	.text.__rccResetAPB1L,"ax",%progbits
  18              		.align	1
  19              		.syntax unified
  20              		.thumb
  21              		.thumb_func
  22              		.type	__rccResetAPB1L, %function
  23              	__rccResetAPB1L:
  24              	.LFB379:
  25              		.file 1 "../../../os/hal/ports/STM32/STM32H7xx/stm32_rcc.h"
  26              		.loc 1 57 53
  27              		.cfi_startproc
  28              		@ args = 0, pretend = 0, frame = 8
  29              		@ frame_needed = 1, uses_anonymous_args = 0
  30              		@ link register save eliminated.
  31 0000 80B4     		push	{r7}
  32              		.cfi_def_cfa_offset 4
  33              		.cfi_offset 7, -4
  34 0002 83B0     		sub	sp, sp, #12
  35              		.cfi_def_cfa_offset 16
  36 0004 00AF     		add	r7, sp, #0
  37              		.cfi_def_cfa_register 7
  38 0006 7860     		str	r0, [r7, #4]
  39              		.loc 1 60 18
  40 0008 0C4B     		ldr	r3, .L2
  41 000a D3F89020 		ldr	r2, [r3, #144]
  42 000e 0B49     		ldr	r1, .L2
  43 0010 7B68     		ldr	r3, [r7, #4]
  44 0012 1343     		orrs	r3, r3, r2
  45 0014 C1F89030 		str	r3, [r1, #144]
  46              		.loc 1 61 18
  47 0018 084B     		ldr	r3, .L2
  48 001a D3F89020 		ldr	r2, [r3, #144]
  49              		.loc 1 61 21
  50 001e 7B68     		ldr	r3, [r7, #4]
  51 0020 DB43     		mvns	r3, r3
  52              		.loc 1 61 18
  53 0022 0649     		ldr	r1, .L2
  54 0024 1340     		ands	r3, r3, r2
  55 0026 C1F89030 		str	r3, [r1, #144]
  56              		.loc 1 62 12
  57 002a 044B     		ldr	r3, .L2
ARM GAS  C:\Users\DEVELO~1\AppData\Local\Temp\ccqM33Ed.s 			page 2


  58              		.loc 1 62 3
  59 002c D3F89030 		ldr	r3, [r3, #144]
  60              		.loc 1 63 1
  61 0030 00BF     		nop
  62 0032 0C37     		adds	r7, r7, #12
  63              		.cfi_def_cfa_offset 4
  64 0034 BD46     		mov	sp, r7
  65              		.cfi_def_cfa_register 13
  66              		@ sp needed
  67 0036 80BC     		pop	{r7}
  68              		.cfi_restore 7
  69              		.cfi_def_cfa_offset 0
  70 0038 7047     		bx	lr
  71              	.L3:
  72 003a 00BF     		.align	2
  73              	.L2:
  74 003c 00440258 		.word	1476543488
  75              		.cfi_endproc
  76              	.LFE379:
  77              		.size	__rccResetAPB1L, .-__rccResetAPB1L
  78              		.section	.text.__rccResetAPB1H,"ax",%progbits
  79              		.align	1
  80              		.syntax unified
  81              		.thumb
  82              		.thumb_func
  83              		.type	__rccResetAPB1H, %function
  84              	__rccResetAPB1H:
  85              	.LFB380:
  86              		.loc 1 65 53
  87              		.cfi_startproc
  88              		@ args = 0, pretend = 0, frame = 8
  89              		@ frame_needed = 1, uses_anonymous_args = 0
  90              		@ link register save eliminated.
  91 0000 80B4     		push	{r7}
  92              		.cfi_def_cfa_offset 4
  93              		.cfi_offset 7, -4
  94 0002 83B0     		sub	sp, sp, #12
  95              		.cfi_def_cfa_offset 16
  96 0004 00AF     		add	r7, sp, #0
  97              		.cfi_def_cfa_register 7
  98 0006 7860     		str	r0, [r7, #4]
  99              		.loc 1 68 18
 100 0008 0C4B     		ldr	r3, .L5
 101 000a D3F89420 		ldr	r2, [r3, #148]
 102 000e 0B49     		ldr	r1, .L5
 103 0010 7B68     		ldr	r3, [r7, #4]
 104 0012 1343     		orrs	r3, r3, r2
 105 0014 C1F89430 		str	r3, [r1, #148]
 106              		.loc 1 69 18
 107 0018 084B     		ldr	r3, .L5
 108 001a D3F89420 		ldr	r2, [r3, #148]
 109              		.loc 1 69 21
 110 001e 7B68     		ldr	r3, [r7, #4]
 111 0020 DB43     		mvns	r3, r3
 112              		.loc 1 69 18
 113 0022 0649     		ldr	r1, .L5
 114 0024 1340     		ands	r3, r3, r2
ARM GAS  C:\Users\DEVELO~1\AppData\Local\Temp\ccqM33Ed.s 			page 3


 115 0026 C1F89430 		str	r3, [r1, #148]
 116              		.loc 1 70 12
 117 002a 044B     		ldr	r3, .L5
 118              		.loc 1 70 3
 119 002c D3F89430 		ldr	r3, [r3, #148]
 120              		.loc 1 71 1
 121 0030 00BF     		nop
 122 0032 0C37     		adds	r7, r7, #12
 123              		.cfi_def_cfa_offset 4
 124 0034 BD46     		mov	sp, r7
 125              		.cfi_def_cfa_register 13
 126              		@ sp needed
 127 0036 80BC     		pop	{r7}
 128              		.cfi_restore 7
 129              		.cfi_def_cfa_offset 0
 130 0038 7047     		bx	lr
 131              	.L6:
 132 003a 00BF     		.align	2
 133              	.L5:
 134 003c 00440258 		.word	1476543488
 135              		.cfi_endproc
 136              	.LFE380:
 137              		.size	__rccResetAPB1H, .-__rccResetAPB1H
 138              		.section	.text.__rccResetAPB2,"ax",%progbits
 139              		.align	1
 140              		.syntax unified
 141              		.thumb
 142              		.thumb_func
 143              		.type	__rccResetAPB2, %function
 144              	__rccResetAPB2:
 145              	.LFB381:
 146              		.loc 1 73 52
 147              		.cfi_startproc
 148              		@ args = 0, pretend = 0, frame = 8
 149              		@ frame_needed = 1, uses_anonymous_args = 0
 150              		@ link register save eliminated.
 151 0000 80B4     		push	{r7}
 152              		.cfi_def_cfa_offset 4
 153              		.cfi_offset 7, -4
 154 0002 83B0     		sub	sp, sp, #12
 155              		.cfi_def_cfa_offset 16
 156 0004 00AF     		add	r7, sp, #0
 157              		.cfi_def_cfa_register 7
 158 0006 7860     		str	r0, [r7, #4]
 159              		.loc 1 76 17
 160 0008 0C4B     		ldr	r3, .L8
 161 000a D3F89820 		ldr	r2, [r3, #152]
 162 000e 0B49     		ldr	r1, .L8
 163 0010 7B68     		ldr	r3, [r7, #4]
 164 0012 1343     		orrs	r3, r3, r2
 165 0014 C1F89830 		str	r3, [r1, #152]
 166              		.loc 1 77 17
 167 0018 084B     		ldr	r3, .L8
 168 001a D3F89820 		ldr	r2, [r3, #152]
 169              		.loc 1 77 20
 170 001e 7B68     		ldr	r3, [r7, #4]
 171 0020 DB43     		mvns	r3, r3
ARM GAS  C:\Users\DEVELO~1\AppData\Local\Temp\ccqM33Ed.s 			page 4


 172              		.loc 1 77 17
 173 0022 0649     		ldr	r1, .L8
 174 0024 1340     		ands	r3, r3, r2
 175 0026 C1F89830 		str	r3, [r1, #152]
 176              		.loc 1 78 12
 177 002a 044B     		ldr	r3, .L8
 178              		.loc 1 78 3
 179 002c D3F89830 		ldr	r3, [r3, #152]
 180              		.loc 1 79 1
 181 0030 00BF     		nop
 182 0032 0C37     		adds	r7, r7, #12
 183              		.cfi_def_cfa_offset 4
 184 0034 BD46     		mov	sp, r7
 185              		.cfi_def_cfa_register 13
 186              		@ sp needed
 187 0036 80BC     		pop	{r7}
 188              		.cfi_restore 7
 189              		.cfi_def_cfa_offset 0
 190 0038 7047     		bx	lr
 191              	.L9:
 192 003a 00BF     		.align	2
 193              	.L8:
 194 003c 00440258 		.word	1476543488
 195              		.cfi_endproc
 196              	.LFE381:
 197              		.size	__rccResetAPB2, .-__rccResetAPB2
 198              		.section	.text.__rccResetAPB3,"ax",%progbits
 199              		.align	1
 200              		.syntax unified
 201              		.thumb
 202              		.thumb_func
 203              		.type	__rccResetAPB3, %function
 204              	__rccResetAPB3:
 205              	.LFB382:
 206              		.loc 1 81 52
 207              		.cfi_startproc
 208              		@ args = 0, pretend = 0, frame = 8
 209              		@ frame_needed = 1, uses_anonymous_args = 0
 210              		@ link register save eliminated.
 211 0000 80B4     		push	{r7}
 212              		.cfi_def_cfa_offset 4
 213              		.cfi_offset 7, -4
 214 0002 83B0     		sub	sp, sp, #12
 215              		.cfi_def_cfa_offset 16
 216 0004 00AF     		add	r7, sp, #0
 217              		.cfi_def_cfa_register 7
 218 0006 7860     		str	r0, [r7, #4]
 219              		.loc 1 84 17
 220 0008 0C4B     		ldr	r3, .L11
 221 000a D3F88C20 		ldr	r2, [r3, #140]
 222 000e 0B49     		ldr	r1, .L11
 223 0010 7B68     		ldr	r3, [r7, #4]
 224 0012 1343     		orrs	r3, r3, r2
 225 0014 C1F88C30 		str	r3, [r1, #140]
 226              		.loc 1 85 17
 227 0018 084B     		ldr	r3, .L11
 228 001a D3F88C20 		ldr	r2, [r3, #140]
ARM GAS  C:\Users\DEVELO~1\AppData\Local\Temp\ccqM33Ed.s 			page 5


 229              		.loc 1 85 20
 230 001e 7B68     		ldr	r3, [r7, #4]
 231 0020 DB43     		mvns	r3, r3
 232              		.loc 1 85 17
 233 0022 0649     		ldr	r1, .L11
 234 0024 1340     		ands	r3, r3, r2
 235 0026 C1F88C30 		str	r3, [r1, #140]
 236              		.loc 1 86 12
 237 002a 044B     		ldr	r3, .L11
 238              		.loc 1 86 3
 239 002c D3F88C30 		ldr	r3, [r3, #140]
 240              		.loc 1 87 1
 241 0030 00BF     		nop
 242 0032 0C37     		adds	r7, r7, #12
 243              		.cfi_def_cfa_offset 4
 244 0034 BD46     		mov	sp, r7
 245              		.cfi_def_cfa_register 13
 246              		@ sp needed
 247 0036 80BC     		pop	{r7}
 248              		.cfi_restore 7
 249              		.cfi_def_cfa_offset 0
 250 0038 7047     		bx	lr
 251              	.L12:
 252 003a 00BF     		.align	2
 253              	.L11:
 254 003c 00440258 		.word	1476543488
 255              		.cfi_endproc
 256              	.LFE382:
 257              		.size	__rccResetAPB3, .-__rccResetAPB3
 258              		.section	.text.__rccResetAPB4,"ax",%progbits
 259              		.align	1
 260              		.syntax unified
 261              		.thumb
 262              		.thumb_func
 263              		.type	__rccResetAPB4, %function
 264              	__rccResetAPB4:
 265              	.LFB383:
 266              		.loc 1 89 52
 267              		.cfi_startproc
 268              		@ args = 0, pretend = 0, frame = 8
 269              		@ frame_needed = 1, uses_anonymous_args = 0
 270              		@ link register save eliminated.
 271 0000 80B4     		push	{r7}
 272              		.cfi_def_cfa_offset 4
 273              		.cfi_offset 7, -4
 274 0002 83B0     		sub	sp, sp, #12
 275              		.cfi_def_cfa_offset 16
 276 0004 00AF     		add	r7, sp, #0
 277              		.cfi_def_cfa_register 7
 278 0006 7860     		str	r0, [r7, #4]
 279              		.loc 1 92 17
 280 0008 0C4B     		ldr	r3, .L14
 281 000a D3F89C20 		ldr	r2, [r3, #156]
 282 000e 0B49     		ldr	r1, .L14
 283 0010 7B68     		ldr	r3, [r7, #4]
 284 0012 1343     		orrs	r3, r3, r2
 285 0014 C1F89C30 		str	r3, [r1, #156]
ARM GAS  C:\Users\DEVELO~1\AppData\Local\Temp\ccqM33Ed.s 			page 6


 286              		.loc 1 93 17
 287 0018 084B     		ldr	r3, .L14
 288 001a D3F89C20 		ldr	r2, [r3, #156]
 289              		.loc 1 93 20
 290 001e 7B68     		ldr	r3, [r7, #4]
 291 0020 DB43     		mvns	r3, r3
 292              		.loc 1 93 17
 293 0022 0649     		ldr	r1, .L14
 294 0024 1340     		ands	r3, r3, r2
 295 0026 C1F89C30 		str	r3, [r1, #156]
 296              		.loc 1 94 12
 297 002a 044B     		ldr	r3, .L14
 298              		.loc 1 94 3
 299 002c D3F89C30 		ldr	r3, [r3, #156]
 300              		.loc 1 95 1
 301 0030 00BF     		nop
 302 0032 0C37     		adds	r7, r7, #12
 303              		.cfi_def_cfa_offset 4
 304 0034 BD46     		mov	sp, r7
 305              		.cfi_def_cfa_register 13
 306              		@ sp needed
 307 0036 80BC     		pop	{r7}
 308              		.cfi_restore 7
 309              		.cfi_def_cfa_offset 0
 310 0038 7047     		bx	lr
 311              	.L15:
 312 003a 00BF     		.align	2
 313              	.L14:
 314 003c 00440258 		.word	1476543488
 315              		.cfi_endproc
 316              	.LFE383:
 317              		.size	__rccResetAPB4, .-__rccResetAPB4
 318              		.section	.text.__rccResetAHB1,"ax",%progbits
 319              		.align	1
 320              		.syntax unified
 321              		.thumb
 322              		.thumb_func
 323              		.type	__rccResetAHB1, %function
 324              	__rccResetAHB1:
 325              	.LFB384:
 326              		.loc 1 97 52
 327              		.cfi_startproc
 328              		@ args = 0, pretend = 0, frame = 8
 329              		@ frame_needed = 1, uses_anonymous_args = 0
 330              		@ link register save eliminated.
 331 0000 80B4     		push	{r7}
 332              		.cfi_def_cfa_offset 4
 333              		.cfi_offset 7, -4
 334 0002 83B0     		sub	sp, sp, #12
 335              		.cfi_def_cfa_offset 16
 336 0004 00AF     		add	r7, sp, #0
 337              		.cfi_def_cfa_register 7
 338 0006 7860     		str	r0, [r7, #4]
 339              		.loc 1 100 17
 340 0008 0C4B     		ldr	r3, .L17
 341 000a D3F88020 		ldr	r2, [r3, #128]
 342 000e 0B49     		ldr	r1, .L17
ARM GAS  C:\Users\DEVELO~1\AppData\Local\Temp\ccqM33Ed.s 			page 7


 343 0010 7B68     		ldr	r3, [r7, #4]
 344 0012 1343     		orrs	r3, r3, r2
 345 0014 C1F88030 		str	r3, [r1, #128]
 346              		.loc 1 101 17
 347 0018 084B     		ldr	r3, .L17
 348 001a D3F88020 		ldr	r2, [r3, #128]
 349              		.loc 1 101 20
 350 001e 7B68     		ldr	r3, [r7, #4]
 351 0020 DB43     		mvns	r3, r3
 352              		.loc 1 101 17
 353 0022 0649     		ldr	r1, .L17
 354 0024 1340     		ands	r3, r3, r2
 355 0026 C1F88030 		str	r3, [r1, #128]
 356              		.loc 1 102 12
 357 002a 044B     		ldr	r3, .L17
 358              		.loc 1 102 3
 359 002c D3F88030 		ldr	r3, [r3, #128]
 360              		.loc 1 103 1
 361 0030 00BF     		nop
 362 0032 0C37     		adds	r7, r7, #12
 363              		.cfi_def_cfa_offset 4
 364 0034 BD46     		mov	sp, r7
 365              		.cfi_def_cfa_register 13
 366              		@ sp needed
 367 0036 80BC     		pop	{r7}
 368              		.cfi_restore 7
 369              		.cfi_def_cfa_offset 0
 370 0038 7047     		bx	lr
 371              	.L18:
 372 003a 00BF     		.align	2
 373              	.L17:
 374 003c 00440258 		.word	1476543488
 375              		.cfi_endproc
 376              	.LFE384:
 377              		.size	__rccResetAHB1, .-__rccResetAHB1
 378              		.section	.text.__rccResetAHB2,"ax",%progbits
 379              		.align	1
 380              		.syntax unified
 381              		.thumb
 382              		.thumb_func
 383              		.type	__rccResetAHB2, %function
 384              	__rccResetAHB2:
 385              	.LFB385:
 386              		.loc 1 105 52
 387              		.cfi_startproc
 388              		@ args = 0, pretend = 0, frame = 8
 389              		@ frame_needed = 1, uses_anonymous_args = 0
 390              		@ link register save eliminated.
 391 0000 80B4     		push	{r7}
 392              		.cfi_def_cfa_offset 4
 393              		.cfi_offset 7, -4
 394 0002 83B0     		sub	sp, sp, #12
 395              		.cfi_def_cfa_offset 16
 396 0004 00AF     		add	r7, sp, #0
 397              		.cfi_def_cfa_register 7
 398 0006 7860     		str	r0, [r7, #4]
 399              		.loc 1 108 17
ARM GAS  C:\Users\DEVELO~1\AppData\Local\Temp\ccqM33Ed.s 			page 8


 400 0008 0C4B     		ldr	r3, .L20
 401 000a D3F88420 		ldr	r2, [r3, #132]
 402 000e 0B49     		ldr	r1, .L20
 403 0010 7B68     		ldr	r3, [r7, #4]
 404 0012 1343     		orrs	r3, r3, r2
 405 0014 C1F88430 		str	r3, [r1, #132]
 406              		.loc 1 109 17
 407 0018 084B     		ldr	r3, .L20
 408 001a D3F88420 		ldr	r2, [r3, #132]
 409              		.loc 1 109 20
 410 001e 7B68     		ldr	r3, [r7, #4]
 411 0020 DB43     		mvns	r3, r3
 412              		.loc 1 109 17
 413 0022 0649     		ldr	r1, .L20
 414 0024 1340     		ands	r3, r3, r2
 415 0026 C1F88430 		str	r3, [r1, #132]
 416              		.loc 1 110 12
 417 002a 044B     		ldr	r3, .L20
 418              		.loc 1 110 3
 419 002c D3F88430 		ldr	r3, [r3, #132]
 420              		.loc 1 111 1
 421 0030 00BF     		nop
 422 0032 0C37     		adds	r7, r7, #12
 423              		.cfi_def_cfa_offset 4
 424 0034 BD46     		mov	sp, r7
 425              		.cfi_def_cfa_register 13
 426              		@ sp needed
 427 0036 80BC     		pop	{r7}
 428              		.cfi_restore 7
 429              		.cfi_def_cfa_offset 0
 430 0038 7047     		bx	lr
 431              	.L21:
 432 003a 00BF     		.align	2
 433              	.L20:
 434 003c 00440258 		.word	1476543488
 435              		.cfi_endproc
 436              	.LFE385:
 437              		.size	__rccResetAHB2, .-__rccResetAHB2
 438              		.section	.text.__rccResetAHB3,"ax",%progbits
 439              		.align	1
 440              		.syntax unified
 441              		.thumb
 442              		.thumb_func
 443              		.type	__rccResetAHB3, %function
 444              	__rccResetAHB3:
 445              	.LFB386:
 446              		.loc 1 113 52
 447              		.cfi_startproc
 448              		@ args = 0, pretend = 0, frame = 8
 449              		@ frame_needed = 1, uses_anonymous_args = 0
 450              		@ link register save eliminated.
 451 0000 80B4     		push	{r7}
 452              		.cfi_def_cfa_offset 4
 453              		.cfi_offset 7, -4
 454 0002 83B0     		sub	sp, sp, #12
 455              		.cfi_def_cfa_offset 16
 456 0004 00AF     		add	r7, sp, #0
ARM GAS  C:\Users\DEVELO~1\AppData\Local\Temp\ccqM33Ed.s 			page 9


 457              		.cfi_def_cfa_register 7
 458 0006 7860     		str	r0, [r7, #4]
 459              		.loc 1 116 17
 460 0008 094B     		ldr	r3, .L23
 461 000a DA6F     		ldr	r2, [r3, #124]
 462 000c 0849     		ldr	r1, .L23
 463 000e 7B68     		ldr	r3, [r7, #4]
 464 0010 1343     		orrs	r3, r3, r2
 465 0012 CB67     		str	r3, [r1, #124]
 466              		.loc 1 117 17
 467 0014 064B     		ldr	r3, .L23
 468 0016 DA6F     		ldr	r2, [r3, #124]
 469              		.loc 1 117 20
 470 0018 7B68     		ldr	r3, [r7, #4]
 471 001a DB43     		mvns	r3, r3
 472              		.loc 1 117 17
 473 001c 0449     		ldr	r1, .L23
 474 001e 1340     		ands	r3, r3, r2
 475 0020 CB67     		str	r3, [r1, #124]
 476              		.loc 1 118 12
 477 0022 034B     		ldr	r3, .L23
 478              		.loc 1 118 3
 479 0024 DB6F     		ldr	r3, [r3, #124]
 480              		.loc 1 119 1
 481 0026 00BF     		nop
 482 0028 0C37     		adds	r7, r7, #12
 483              		.cfi_def_cfa_offset 4
 484 002a BD46     		mov	sp, r7
 485              		.cfi_def_cfa_register 13
 486              		@ sp needed
 487 002c 80BC     		pop	{r7}
 488              		.cfi_restore 7
 489              		.cfi_def_cfa_offset 0
 490 002e 7047     		bx	lr
 491              	.L24:
 492              		.align	2
 493              	.L23:
 494 0030 00440258 		.word	1476543488
 495              		.cfi_endproc
 496              	.LFE386:
 497              		.size	__rccResetAHB3, .-__rccResetAHB3
 498              		.section	.text.__rccResetAHB4,"ax",%progbits
 499              		.align	1
 500              		.syntax unified
 501              		.thumb
 502              		.thumb_func
 503              		.type	__rccResetAHB4, %function
 504              	__rccResetAHB4:
 505              	.LFB387:
 506              		.loc 1 121 52
 507              		.cfi_startproc
 508              		@ args = 0, pretend = 0, frame = 8
 509              		@ frame_needed = 1, uses_anonymous_args = 0
 510              		@ link register save eliminated.
 511 0000 80B4     		push	{r7}
 512              		.cfi_def_cfa_offset 4
 513              		.cfi_offset 7, -4
ARM GAS  C:\Users\DEVELO~1\AppData\Local\Temp\ccqM33Ed.s 			page 10


 514 0002 83B0     		sub	sp, sp, #12
 515              		.cfi_def_cfa_offset 16
 516 0004 00AF     		add	r7, sp, #0
 517              		.cfi_def_cfa_register 7
 518 0006 7860     		str	r0, [r7, #4]
 519              		.loc 1 124 17
 520 0008 0C4B     		ldr	r3, .L26
 521 000a D3F88820 		ldr	r2, [r3, #136]
 522 000e 0B49     		ldr	r1, .L26
 523 0010 7B68     		ldr	r3, [r7, #4]
 524 0012 1343     		orrs	r3, r3, r2
 525 0014 C1F88830 		str	r3, [r1, #136]
 526              		.loc 1 125 17
 527 0018 084B     		ldr	r3, .L26
 528 001a D3F88820 		ldr	r2, [r3, #136]
 529              		.loc 1 125 20
 530 001e 7B68     		ldr	r3, [r7, #4]
 531 0020 DB43     		mvns	r3, r3
 532              		.loc 1 125 17
 533 0022 0649     		ldr	r1, .L26
 534 0024 1340     		ands	r3, r3, r2
 535 0026 C1F88830 		str	r3, [r1, #136]
 536              		.loc 1 126 12
 537 002a 044B     		ldr	r3, .L26
 538              		.loc 1 126 3
 539 002c D3F88830 		ldr	r3, [r3, #136]
 540              		.loc 1 127 1
 541 0030 00BF     		nop
 542 0032 0C37     		adds	r7, r7, #12
 543              		.cfi_def_cfa_offset 4
 544 0034 BD46     		mov	sp, r7
 545              		.cfi_def_cfa_register 13
 546              		@ sp needed
 547 0036 80BC     		pop	{r7}
 548              		.cfi_restore 7
 549              		.cfi_def_cfa_offset 0
 550 0038 7047     		bx	lr
 551              	.L27:
 552 003a 00BF     		.align	2
 553              	.L26:
 554 003c 00440258 		.word	1476543488
 555              		.cfi_endproc
 556              	.LFE387:
 557              		.size	__rccResetAHB4, .-__rccResetAHB4
 558              		.section	.text.rccEnableAPB4,"ax",%progbits
 559              		.align	1
 560              		.syntax unified
 561              		.thumb
 562              		.thumb_func
 563              		.type	rccEnableAPB4, %function
 564              	rccEnableAPB4:
 565              	.LFB400:
 566              		.loc 1 497 60
 567              		.cfi_startproc
 568              		@ args = 0, pretend = 0, frame = 8
 569              		@ frame_needed = 1, uses_anonymous_args = 0
 570              		@ link register save eliminated.
ARM GAS  C:\Users\DEVELO~1\AppData\Local\Temp\ccqM33Ed.s 			page 11


 571 0000 80B4     		push	{r7}
 572              		.cfi_def_cfa_offset 4
 573              		.cfi_offset 7, -4
 574 0002 83B0     		sub	sp, sp, #12
 575              		.cfi_def_cfa_offset 16
 576 0004 00AF     		add	r7, sp, #0
 577              		.cfi_def_cfa_register 7
 578 0006 7860     		str	r0, [r7, #4]
 579 0008 0B46     		mov	r3, r1
 580 000a FB70     		strb	r3, [r7, #3]
 581              		.loc 1 501 19
 582 000c 124B     		ldr	r3, .L31
 583 000e D3F8F420 		ldr	r2, [r3, #244]
 584 0012 1149     		ldr	r1, .L31
 585 0014 7B68     		ldr	r3, [r7, #4]
 586 0016 1343     		orrs	r3, r3, r2
 587 0018 C1F8F430 		str	r3, [r1, #244]
 588              		.loc 1 502 6
 589 001c FB78     		ldrb	r3, [r7, #3]	@ zero_extendqisi2
 590 001e 002B     		cmp	r3, #0
 591 0020 08D0     		beq	.L29
 592              		.loc 1 503 23
 593 0022 0D4B     		ldr	r3, .L31
 594 0024 D3F81C21 		ldr	r2, [r3, #284]
 595 0028 0B49     		ldr	r1, .L31
 596 002a 7B68     		ldr	r3, [r7, #4]
 597 002c 1343     		orrs	r3, r3, r2
 598 002e C1F81C31 		str	r3, [r1, #284]
 599 0032 08E0     		b	.L30
 600              	.L29:
 601              		.loc 1 506 23
 602 0034 084B     		ldr	r3, .L31
 603 0036 D3F81C21 		ldr	r2, [r3, #284]
 604              		.loc 1 506 26
 605 003a 7B68     		ldr	r3, [r7, #4]
 606 003c DB43     		mvns	r3, r3
 607              		.loc 1 506 23
 608 003e 0649     		ldr	r1, .L31
 609 0040 1340     		ands	r3, r3, r2
 610 0042 C1F81C31 		str	r3, [r1, #284]
 611              	.L30:
 612              		.loc 1 508 15
 613 0046 044B     		ldr	r3, .L31
 614              		.loc 1 508 3
 615 0048 D3F81C31 		ldr	r3, [r3, #284]
 616              		.loc 1 520 1
 617 004c 00BF     		nop
 618 004e 0C37     		adds	r7, r7, #12
 619              		.cfi_def_cfa_offset 4
 620 0050 BD46     		mov	sp, r7
 621              		.cfi_def_cfa_register 13
 622              		@ sp needed
 623 0052 80BC     		pop	{r7}
 624              		.cfi_restore 7
 625              		.cfi_def_cfa_offset 0
 626 0054 7047     		bx	lr
 627              	.L32:
ARM GAS  C:\Users\DEVELO~1\AppData\Local\Temp\ccqM33Ed.s 			page 12


 628 0056 00BF     		.align	2
 629              	.L31:
 630 0058 00440258 		.word	1476543488
 631              		.cfi_endproc
 632              	.LFE400:
 633              		.size	rccEnableAPB4, .-rccEnableAPB4
 634              		.section	.text.rccEnableAHB2,"ax",%progbits
 635              		.align	1
 636              		.syntax unified
 637              		.thumb
 638              		.thumb_func
 639              		.type	rccEnableAHB2, %function
 640              	rccEnableAHB2:
 641              	.LFB406:
 642              		.loc 1 675 60
 643              		.cfi_startproc
 644              		@ args = 0, pretend = 0, frame = 8
 645              		@ frame_needed = 1, uses_anonymous_args = 0
 646              		@ link register save eliminated.
 647 0000 80B4     		push	{r7}
 648              		.cfi_def_cfa_offset 4
 649              		.cfi_offset 7, -4
 650 0002 83B0     		sub	sp, sp, #12
 651              		.cfi_def_cfa_offset 16
 652 0004 00AF     		add	r7, sp, #0
 653              		.cfi_def_cfa_register 7
 654 0006 7860     		str	r0, [r7, #4]
 655 0008 0B46     		mov	r3, r1
 656 000a FB70     		strb	r3, [r7, #3]
 657              		.loc 1 679 19
 658 000c 124B     		ldr	r3, .L36
 659 000e D3F8DC20 		ldr	r2, [r3, #220]
 660 0012 1149     		ldr	r1, .L36
 661 0014 7B68     		ldr	r3, [r7, #4]
 662 0016 1343     		orrs	r3, r3, r2
 663 0018 C1F8DC30 		str	r3, [r1, #220]
 664              		.loc 1 680 6
 665 001c FB78     		ldrb	r3, [r7, #3]	@ zero_extendqisi2
 666 001e 002B     		cmp	r3, #0
 667 0020 08D0     		beq	.L34
 668              		.loc 1 681 23
 669 0022 0D4B     		ldr	r3, .L36
 670 0024 D3F80421 		ldr	r2, [r3, #260]
 671 0028 0B49     		ldr	r1, .L36
 672 002a 7B68     		ldr	r3, [r7, #4]
 673 002c 1343     		orrs	r3, r3, r2
 674 002e C1F80431 		str	r3, [r1, #260]
 675 0032 08E0     		b	.L35
 676              	.L34:
 677              		.loc 1 684 23
 678 0034 084B     		ldr	r3, .L36
 679 0036 D3F80421 		ldr	r2, [r3, #260]
 680              		.loc 1 684 26
 681 003a 7B68     		ldr	r3, [r7, #4]
 682 003c DB43     		mvns	r3, r3
 683              		.loc 1 684 23
 684 003e 0649     		ldr	r1, .L36
ARM GAS  C:\Users\DEVELO~1\AppData\Local\Temp\ccqM33Ed.s 			page 13


 685 0040 1340     		ands	r3, r3, r2
 686 0042 C1F80431 		str	r3, [r1, #260]
 687              	.L35:
 688              		.loc 1 686 15
 689 0046 044B     		ldr	r3, .L36
 690              		.loc 1 686 3
 691 0048 D3F80431 		ldr	r3, [r3, #260]
 692              		.loc 1 698 1
 693 004c 00BF     		nop
 694 004e 0C37     		adds	r7, r7, #12
 695              		.cfi_def_cfa_offset 4
 696 0050 BD46     		mov	sp, r7
 697              		.cfi_def_cfa_register 13
 698              		@ sp needed
 699 0052 80BC     		pop	{r7}
 700              		.cfi_restore 7
 701              		.cfi_def_cfa_offset 0
 702 0054 7047     		bx	lr
 703              	.L37:
 704 0056 00BF     		.align	2
 705              	.L36:
 706 0058 00440258 		.word	1476543488
 707              		.cfi_endproc
 708              	.LFE406:
 709              		.size	rccEnableAHB2, .-rccEnableAHB2
 710              		.global	SystemCoreClock
 711              		.section	.data.SystemCoreClock,"aw"
 712              		.align	2
 713              		.type	SystemCoreClock, %object
 714              		.size	SystemCoreClock, 4
 715              	SystemCoreClock:
 716 0000 0084D717 		.word	400000000
 717              		.section	.text.init_bkp_domain,"ax",%progbits
 718              		.align	1
 719              		.syntax unified
 720              		.thumb
 721              		.thumb_func
 722              		.type	init_bkp_domain, %function
 723              	init_bkp_domain:
 724              	.LFB432:
 725              		.file 2 "../../../os/hal/ports/STM32/STM32H7xx/hal_lld.c"
 726              		.loc 2 58 42
 727              		.cfi_startproc
 728              		@ args = 0, pretend = 0, frame = 0
 729              		@ frame_needed = 1, uses_anonymous_args = 0
 730              		@ link register save eliminated.
 731 0000 80B4     		push	{r7}
 732              		.cfi_def_cfa_offset 4
 733              		.cfi_offset 7, -4
 734 0002 00AF     		add	r7, sp, #0
 735              		.cfi_def_cfa_register 7
 736              		.loc 2 61 12
 737 0004 0B4B     		ldr	r3, .L41
 738 0006 1B68     		ldr	r3, [r3]
 739 0008 0A4A     		ldr	r2, .L41
 740 000a 43F48073 		orr	r3, r3, #256
 741 000e 1360     		str	r3, [r2]
ARM GAS  C:\Users\DEVELO~1\AppData\Local\Temp\ccqM33Ed.s 			page 14


 742              		.loc 2 64 11
 743 0010 094B     		ldr	r3, .L41+4
 744 0012 1B6F     		ldr	r3, [r3, #112]
 745              		.loc 2 64 18
 746 0014 03F44073 		and	r3, r3, #768
 747              		.loc 2 64 6
 748 0018 B3F5007F 		cmp	r3, #512
 749 001c 06D0     		beq	.L40
 750              		.loc 2 66 8
 751 001e 064B     		ldr	r3, .L41+4
 752              		.loc 2 66 15
 753 0020 4FF48032 		mov	r2, #65536
 754 0024 1A67     		str	r2, [r3, #112]
 755              		.loc 2 67 8
 756 0026 044B     		ldr	r3, .L41+4
 757              		.loc 2 67 15
 758 0028 0022     		movs	r2, #0
 759 002a 1A67     		str	r2, [r3, #112]
 760              	.L40:
 761              		.loc 2 93 1
 762 002c 00BF     		nop
 763 002e BD46     		mov	sp, r7
 764              		.cfi_def_cfa_register 13
 765              		@ sp needed
 766 0030 80BC     		pop	{r7}
 767              		.cfi_restore 7
 768              		.cfi_def_cfa_offset 0
 769 0032 7047     		bx	lr
 770              	.L42:
 771              		.align	2
 772              	.L41:
 773 0034 00480258 		.word	1476544512
 774 0038 00440258 		.word	1476543488
 775              		.cfi_endproc
 776              	.LFE432:
 777              		.size	init_bkp_domain, .-init_bkp_domain
 778              		.section	.text.init_pwr,"ax",%progbits
 779              		.align	1
 780              		.syntax unified
 781              		.thumb
 782              		.thumb_func
 783              		.type	init_pwr, %function
 784              	init_pwr:
 785              	.LFB433:
 786              		.loc 2 98 35
 787              		.cfi_startproc
 788              		@ args = 0, pretend = 0, frame = 0
 789              		@ frame_needed = 1, uses_anonymous_args = 0
 790              		@ link register save eliminated.
 791 0000 80B4     		push	{r7}
 792              		.cfi_def_cfa_offset 4
 793              		.cfi_offset 7, -4
 794 0002 00AF     		add	r7, sp, #0
 795              		.cfi_def_cfa_register 7
 796              		.loc 2 106 6
 797 0004 124B     		ldr	r3, .L46
 798              		.loc 2 106 14
ARM GAS  C:\Users\DEVELO~1\AppData\Local\Temp\ccqM33Ed.s 			page 15


 799 0006 0222     		movs	r2, #2
 800 0008 DA60     		str	r2, [r3, #12]
 801              		.loc 2 107 9
 802 000a 00BF     		nop
 803              	.L44:
 804              		.loc 2 107 14 discriminator 1
 805 000c 104B     		ldr	r3, .L46
 806 000e 5B68     		ldr	r3, [r3, #4]
 807              		.loc 2 107 21 discriminator 1
 808 0010 03F40053 		and	r3, r3, #8192
 809              		.loc 2 107 43 discriminator 1
 810 0014 002B     		cmp	r3, #0
 811 0016 F9D0     		beq	.L44
 812              		.loc 2 110 6
 813 0018 0D4B     		ldr	r3, .L46
 814              		.loc 2 110 14
 815 001a 0E4A     		ldr	r2, .L46+4
 816 001c 1A60     		str	r2, [r3]
 817              		.loc 2 111 6
 818 001e 0C4B     		ldr	r3, .L46
 819              		.loc 2 111 14
 820 0020 0122     		movs	r2, #1
 821 0022 9A60     		str	r2, [r3, #8]
 822              		.loc 2 112 6
 823 0024 0A4B     		ldr	r3, .L46
 824              		.loc 2 112 14
 825 0026 0C4A     		ldr	r2, .L46+8
 826 0028 DA60     		str	r2, [r3, #12]
 827              		.loc 2 113 6
 828 002a 094B     		ldr	r3, .L46
 829              		.loc 2 113 14
 830 002c 0022     		movs	r2, #0
 831 002e 1A61     		str	r2, [r3, #16]
 832              		.loc 2 117 6
 833 0030 074B     		ldr	r3, .L46
 834              		.loc 2 117 14
 835 0032 4FF44042 		mov	r2, #49152
 836 0036 9A61     		str	r2, [r3, #24]
 837              		.loc 2 127 9
 838 0038 00BF     		nop
 839              	.L45:
 840              		.loc 2 127 14 discriminator 1
 841 003a 054B     		ldr	r3, .L46
 842 003c 9B69     		ldr	r3, [r3, #24]
 843              		.loc 2 127 21 discriminator 1
 844 003e 03F40053 		and	r3, r3, #8192
 845              		.loc 2 127 40 discriminator 1
 846 0042 002B     		cmp	r3, #0
 847 0044 F9D0     		beq	.L45
 848              		.loc 2 135 1
 849 0046 00BF     		nop
 850 0048 00BF     		nop
 851 004a BD46     		mov	sp, r7
 852              		.cfi_def_cfa_register 13
 853              		@ sp needed
 854 004c 80BC     		pop	{r7}
 855              		.cfi_restore 7
ARM GAS  C:\Users\DEVELO~1\AppData\Local\Temp\ccqM33Ed.s 			page 16


 856              		.cfi_def_cfa_offset 0
 857 004e 7047     		bx	lr
 858              	.L47:
 859              		.align	2
 860              	.L46:
 861 0050 00480258 		.word	1476544512
 862 0054 00C000F0 		.word	-268386304
 863 0058 02000001 		.word	16777218
 864              		.cfi_endproc
 865              	.LFE433:
 866              		.size	init_pwr, .-init_pwr
 867              		.section	.text.hal_lld_init,"ax",%progbits
 868              		.align	1
 869              		.global	hal_lld_init
 870              		.syntax unified
 871              		.thumb
 872              		.thumb_func
 873              		.type	hal_lld_init, %function
 874              	hal_lld_init:
 875              	.LFB434:
 876              		.loc 2 150 25
 877              		.cfi_startproc
 878              		@ args = 0, pretend = 0, frame = 0
 879              		@ frame_needed = 1, uses_anonymous_args = 0
 880 0000 80B5     		push	{r7, lr}
 881              		.cfi_def_cfa_offset 8
 882              		.cfi_offset 7, -8
 883              		.cfi_offset 14, -4
 884 0002 00AF     		add	r7, sp, #0
 885              		.cfi_def_cfa_register 7
 886              		.loc 2 160 3
 887 0004 6FF00040 		mvn	r0, #-2147483648
 888 0008 FFF7FEFF 		bl	__rccResetAHB1
 889              		.loc 2 161 3
 890 000c 4FF0FF30 		mov	r0, #-1
 891 0010 FFF7FEFF 		bl	__rccResetAHB2
 892              		.loc 2 162 3
 893 0014 0F48     		ldr	r0, .L49
 894 0016 FFF7FEFF 		bl	__rccResetAHB3
 895              		.loc 2 177 3
 896 001a 0F48     		ldr	r0, .L49+4
 897 001c FFF7FEFF 		bl	__rccResetAHB4
 898              		.loc 2 178 3
 899 0020 4FF0FF30 		mov	r0, #-1
 900 0024 FFF7FEFF 		bl	__rccResetAPB1L
 901              		.loc 2 179 3
 902 0028 4FF0FF30 		mov	r0, #-1
 903 002c FFF7FEFF 		bl	__rccResetAPB1H
 904              		.loc 2 180 3
 905 0030 4FF0FF30 		mov	r0, #-1
 906 0034 FFF7FEFF 		bl	__rccResetAPB2
 907              		.loc 2 181 3
 908 0038 4FF0FF30 		mov	r0, #-1
 909 003c FFF7FEFF 		bl	__rccResetAPB3
 910              		.loc 2 182 3
 911 0040 4FF0FF30 		mov	r0, #-1
 912 0044 FFF7FEFF 		bl	__rccResetAPB4
ARM GAS  C:\Users\DEVELO~1\AppData\Local\Temp\ccqM33Ed.s 			page 17


 913              		.loc 2 190 3
 914 0048 FFF7FEFF 		bl	dmaInit
 915              		.loc 2 197 3
 916 004c FFF7FEFF 		bl	irqInit
 917              		.loc 2 218 1
 918 0050 00BF     		nop
 919 0052 80BD     		pop	{r7, pc}
 920              	.L50:
 921              		.align	2
 922              	.L49:
 923 0054 FFEFFF7F 		.word	2147479551
 924 0058 00F8FFFF 		.word	-2048
 925              		.cfi_endproc
 926              	.LFE434:
 927              		.size	hal_lld_init, .-hal_lld_init
 928              		.section	.text.stm32_clock_init,"ax",%progbits
 929              		.align	1
 930              		.global	stm32_clock_init
 931              		.syntax unified
 932              		.thumb
 933              		.thumb_func
 934              		.type	stm32_clock_init, %function
 935              	stm32_clock_init:
 936              	.LFB435:
 937              		.loc 2 227 29
 938              		.cfi_startproc
 939              		@ args = 0, pretend = 0, frame = 16
 940              		@ frame_needed = 1, uses_anonymous_args = 0
 941 0000 80B5     		push	{r7, lr}
 942              		.cfi_def_cfa_offset 8
 943              		.cfi_offset 7, -8
 944              		.cfi_offset 14, -4
 945 0002 84B0     		sub	sp, sp, #16
 946              		.cfi_def_cfa_offset 24
 947 0004 00AF     		add	r7, sp, #0
 948              		.cfi_def_cfa_register 7
 949              		.loc 2 240 3
 950 0006 7A4B     		ldr	r3, .L59
 951              		.loc 2 240 58
 952 0008 0122     		movs	r2, #1
 953 000a 1A60     		str	r2, [r3]
 954              		.loc 2 245 3
 955 000c 0121     		movs	r1, #1
 956 000e 0220     		movs	r0, #2
 957 0010 FFF7FEFF 		bl	rccEnableAPB4
 958              		.loc 2 248 3
 959 0014 FFF7FEFF 		bl	init_pwr
 960              		.loc 2 251 3
 961 0018 FFF7FEFF 		bl	init_bkp_domain
 962              		.loc 2 255 11
 963 001c 754B     		ldr	r3, .L59+4
 964 001e 1B68     		ldr	r3, [r3]
 965 0020 744A     		ldr	r2, .L59+4
 966 0022 43F00103 		orr	r3, r3, #1
 967 0026 1360     		str	r3, [r2]
 968              		.loc 2 256 9
 969 0028 00BF     		nop
ARM GAS  C:\Users\DEVELO~1\AppData\Local\Temp\ccqM33Ed.s 			page 18


 970              	.L52:
 971              		.loc 2 256 15 discriminator 1
 972 002a 724B     		ldr	r3, .L59+4
 973 002c 1B68     		ldr	r3, [r3]
 974              		.loc 2 256 20 discriminator 1
 975 002e 03F00403 		and	r3, r3, #4
 976              		.loc 2 256 10 discriminator 1
 977 0032 002B     		cmp	r3, #0
 978 0034 F9D0     		beq	.L52
 979              		.loc 2 262 6
 980 0036 6F4B     		ldr	r3, .L59+4
 981              		.loc 2 262 16
 982 0038 0022     		movs	r2, #0
 983 003a 1A61     		str	r2, [r3, #16]
 984              		.loc 2 263 9
 985 003c 00BF     		nop
 986              	.L53:
 987              		.loc 2 263 14 discriminator 1
 988 003e 6D4B     		ldr	r3, .L59+4
 989 0040 1B69     		ldr	r3, [r3, #16]
 990              		.loc 2 263 21 discriminator 1
 991 0042 03F03803 		and	r3, r3, #56
 992              		.loc 2 263 37 discriminator 1
 993 0046 002B     		cmp	r3, #0
 994 0048 F9D1     		bne	.L53
 995              		.loc 2 267 6
 996 004a 6A4B     		ldr	r3, .L59+4
 997              		.loc 2 267 16
 998 004c 0122     		movs	r2, #1
 999 004e 1A60     		str	r2, [r3]
 1000              		.loc 2 268 6
 1001 0050 684B     		ldr	r3, .L59+4
 1002              		.loc 2 268 16
 1003 0052 4FF08042 		mov	r2, #1073741824
 1004 0056 5A60     		str	r2, [r3, #4]
 1005              		.loc 2 272 6
 1006 0058 664B     		ldr	r3, .L59+4
 1007              		.loc 2 272 16
 1008 005a 0022     		movs	r2, #0
 1009 005c 5A67     		str	r2, [r3, #116]
 1010              		.loc 2 273 6
 1011 005e 654B     		ldr	r3, .L59+4
 1012              		.loc 2 273 16
 1013 0060 654A     		ldr	r2, .L59+8
 1014 0062 DA62     		str	r2, [r3, #44]
 1015              		.loc 2 277 8
 1016 0064 654B     		ldr	r3, .L59+12
 1017 0066 FB60     		str	r3, [r7, #12]
 1018              		.loc 2 285 8
 1019 0068 FB68     		ldr	r3, [r7, #12]
 1020 006a 43F40043 		orr	r3, r3, #32768
 1021 006e FB60     		str	r3, [r7, #12]
 1022              		.loc 2 287 6
 1023 0070 604A     		ldr	r2, .L59+4
 1024              		.loc 2 287 13
 1025 0072 FB68     		ldr	r3, [r7, #12]
 1026 0074 1361     		str	r3, [r2, #16]
ARM GAS  C:\Users\DEVELO~1\AppData\Local\Temp\ccqM33Ed.s 			page 19


 1027              		.loc 2 294 11
 1028 0076 5F4B     		ldr	r3, .L59+4
 1029 0078 1B68     		ldr	r3, [r3]
 1030 007a 5E4A     		ldr	r2, .L59+4
 1031 007c 43F48033 		orr	r3, r3, #65536
 1032 0080 1360     		str	r3, [r2]
 1033              		.loc 2 296 9
 1034 0082 00BF     		nop
 1035              	.L54:
 1036              		.loc 2 296 14 discriminator 1
 1037 0084 5B4B     		ldr	r3, .L59+4
 1038 0086 1B68     		ldr	r3, [r3]
 1039              		.loc 2 296 19 discriminator 1
 1040 0088 03F40033 		and	r3, r3, #131072
 1041              		.loc 2 296 36 discriminator 1
 1042 008c 002B     		cmp	r3, #0
 1043 008e F9D0     		beq	.L54
 1044              		.loc 2 302 11
 1045 0090 584B     		ldr	r3, .L59+4
 1046 0092 1B68     		ldr	r3, [r3]
 1047 0094 574A     		ldr	r2, .L59+4
 1048 0096 43F48053 		orr	r3, r3, #4096
 1049 009a 1360     		str	r3, [r2]
 1050              		.loc 2 303 9
 1051 009c 00BF     		nop
 1052              	.L55:
 1053              		.loc 2 303 14 discriminator 1
 1054 009e 554B     		ldr	r3, .L59+4
 1055 00a0 1B68     		ldr	r3, [r3]
 1056              		.loc 2 303 19 discriminator 1
 1057 00a2 03F40053 		and	r3, r3, #8192
 1058              		.loc 2 303 38 discriminator 1
 1059 00a6 002B     		cmp	r3, #0
 1060 00a8 F9D0     		beq	.L55
 1061              	.LBB2:
 1062              		.loc 2 328 14
 1063 00aa 0023     		movs	r3, #0
 1064 00ac BB60     		str	r3, [r7, #8]
 1065              		.loc 2 329 14
 1066 00ae 0023     		movs	r3, #0
 1067 00b0 7B60     		str	r3, [r7, #4]
 1068              		.loc 2 330 14
 1069 00b2 0023     		movs	r3, #0
 1070 00b4 3B60     		str	r3, [r7]
 1071              		.loc 2 332 8
 1072 00b6 4F4B     		ldr	r3, .L59+4
 1073              		.loc 2 332 20
 1074 00b8 514A     		ldr	r2, .L59+16
 1075 00ba 9A62     		str	r2, [r3, #40]
 1076              		.loc 2 337 13
 1077 00bc 40F25573 		movw	r3, #1877
 1078 00c0 3B60     		str	r3, [r7]
 1079              		.loc 2 342 8
 1080 00c2 4C4B     		ldr	r3, .L59+4
 1081              		.loc 2 342 20
 1082 00c4 0022     		movs	r2, #0
 1083 00c6 5A63     		str	r2, [r3, #52]
ARM GAS  C:\Users\DEVELO~1\AppData\Local\Temp\ccqM33Ed.s 			page 20


 1084              		.loc 2 343 8
 1085 00c8 4A4B     		ldr	r3, .L59+4
 1086              		.loc 2 343 20
 1087 00ca 4E4A     		ldr	r2, .L59+20
 1088 00cc 1A63     		str	r2, [r3, #48]
 1089              		.loc 2 345 13
 1090 00ce BB68     		ldr	r3, [r7, #8]
 1091 00d0 43F08073 		orr	r3, r3, #16777216
 1092 00d4 BB60     		str	r3, [r7, #8]
 1093              		.loc 2 346 13
 1094 00d6 7B68     		ldr	r3, [r7, #4]
 1095 00d8 43F00073 		orr	r3, r3, #33554432
 1096 00dc 7B60     		str	r3, [r7, #4]
 1097              		.loc 2 348 13
 1098 00de 3B68     		ldr	r3, [r7]
 1099 00e0 43F48033 		orr	r3, r3, #65536
 1100 00e4 3B60     		str	r3, [r7]
 1101              		.loc 2 351 13
 1102 00e6 3B68     		ldr	r3, [r7]
 1103 00e8 43F40033 		orr	r3, r3, #131072
 1104 00ec 3B60     		str	r3, [r7]
 1105              		.loc 2 359 8
 1106 00ee 414B     		ldr	r3, .L59+4
 1107              		.loc 2 359 20
 1108 00f0 4CF29022 		movw	r2, #49808
 1109 00f4 DA63     		str	r2, [r3, #60]
 1110              		.loc 2 360 8
 1111 00f6 3F4B     		ldr	r3, .L59+4
 1112              		.loc 2 360 20
 1113 00f8 434A     		ldr	r2, .L59+24
 1114 00fa 9A63     		str	r2, [r3, #56]
 1115              		.loc 2 362 13
 1116 00fc BB68     		ldr	r3, [r7, #8]
 1117 00fe 43F08063 		orr	r3, r3, #67108864
 1118 0102 BB60     		str	r3, [r7, #8]
 1119              		.loc 2 363 13
 1120 0104 7B68     		ldr	r3, [r7, #4]
 1121 0106 43F00063 		orr	r3, r3, #134217728
 1122 010a 7B60     		str	r3, [r7, #4]
 1123              		.loc 2 365 13
 1124 010c 3B68     		ldr	r3, [r7]
 1125 010e 43F40023 		orr	r3, r3, #524288
 1126 0112 3B60     		str	r3, [r7]
 1127              		.loc 2 371 13
 1128 0114 3B68     		ldr	r3, [r7]
 1129 0116 43F40013 		orr	r3, r3, #2097152
 1130 011a 3B60     		str	r3, [r7]
 1131              		.loc 2 376 8
 1132 011c 354B     		ldr	r3, .L59+4
 1133              		.loc 2 376 20
 1134 011e 0022     		movs	r2, #0
 1135 0120 5A64     		str	r2, [r3, #68]
 1136              		.loc 2 377 8
 1137 0122 344B     		ldr	r3, .L59+4
 1138              		.loc 2 377 20
 1139 0124 394A     		ldr	r2, .L59+28
 1140 0126 1A64     		str	r2, [r3, #64]
ARM GAS  C:\Users\DEVELO~1\AppData\Local\Temp\ccqM33Ed.s 			page 21


 1141              		.loc 2 379 13
 1142 0128 BB68     		ldr	r3, [r7, #8]
 1143 012a 43F08053 		orr	r3, r3, #268435456
 1144 012e BB60     		str	r3, [r7, #8]
 1145              		.loc 2 380 13
 1146 0130 7B68     		ldr	r3, [r7, #4]
 1147 0132 43F00053 		orr	r3, r3, #536870912
 1148 0136 7B60     		str	r3, [r7, #4]
 1149              		.loc 2 382 13
 1150 0138 3B68     		ldr	r3, [r7]
 1151 013a 43F48003 		orr	r3, r3, #4194304
 1152 013e 3B60     		str	r3, [r7]
 1153              		.loc 2 388 13
 1154 0140 3B68     		ldr	r3, [r7]
 1155 0142 43F08073 		orr	r3, r3, #16777216
 1156 0146 3B60     		str	r3, [r7]
 1157              		.loc 2 393 8
 1158 0148 2A4A     		ldr	r2, .L59+4
 1159              		.loc 2 393 18
 1160 014a 3B68     		ldr	r3, [r7]
 1161 014c D362     		str	r3, [r2, #44]
 1162              		.loc 2 394 17
 1163 014e 294B     		ldr	r3, .L59+4
 1164 0150 1A68     		ldr	r2, [r3]
 1165 0152 2849     		ldr	r1, .L59+4
 1166 0154 BB68     		ldr	r3, [r7, #8]
 1167 0156 1343     		orrs	r3, r3, r2
 1168 0158 0B60     		str	r3, [r1]
 1169              		.loc 2 395 11
 1170 015a 00BF     		nop
 1171              	.L56:
 1172              		.loc 2 395 16 discriminator 1
 1173 015c 254B     		ldr	r3, .L59+4
 1174 015e 1A68     		ldr	r2, [r3]
 1175              		.loc 2 395 21 discriminator 1
 1176 0160 7B68     		ldr	r3, [r7, #4]
 1177 0162 1340     		ands	r3, r3, r2
 1178              		.loc 2 395 32 discriminator 1
 1179 0164 7A68     		ldr	r2, [r7, #4]
 1180 0166 9A42     		cmp	r2, r3
 1181 0168 F8D1     		bne	.L56
 1182              	.LBE2:
 1183              		.loc 2 406 6
 1184 016a 224B     		ldr	r3, .L59+4
 1185              		.loc 2 406 15
 1186 016c 4822     		movs	r2, #72
 1187 016e 9A61     		str	r2, [r3, #24]
 1188              		.loc 2 407 6
 1189 0170 204B     		ldr	r3, .L59+4
 1190              		.loc 2 407 15
 1191 0172 4FF48862 		mov	r2, #1088
 1192 0176 DA61     		str	r2, [r3, #28]
 1193              		.loc 2 408 6
 1194 0178 1E4B     		ldr	r3, .L59+4
 1195              		.loc 2 408 15
 1196 017a 4022     		movs	r2, #64
 1197 017c 1A62     		str	r2, [r3, #32]
ARM GAS  C:\Users\DEVELO~1\AppData\Local\Temp\ccqM33Ed.s 			page 22


 1198              		.loc 2 413 6
 1199 017e 1D4B     		ldr	r3, .L59+4
 1200              		.loc 2 413 17
 1201 0180 4FF48032 		mov	r2, #65536
 1202 0184 DA64     		str	r2, [r3, #76]
 1203              		.loc 2 415 6
 1204 0186 1B4B     		ldr	r3, .L59+4
 1205              		.loc 2 415 17
 1206 0188 214A     		ldr	r2, .L59+32
 1207 018a 1A65     		str	r2, [r3, #80]
 1208              		.loc 2 418 6
 1209 018c 194B     		ldr	r3, .L59+4
 1210              		.loc 2 418 17
 1211 018e 4FF4E002 		mov	r2, #7340032
 1212 0192 5A65     		str	r2, [r3, #84]
 1213              		.loc 2 421 6
 1214 0194 174B     		ldr	r3, .L59+4
 1215              		.loc 2 421 17
 1216 0196 4FF48032 		mov	r2, #65536
 1217 019a 9A65     		str	r2, [r3, #88]
 1218              		.loc 2 452 8
 1219 019c 1D4B     		ldr	r3, .L59+36
 1220              		.loc 2 452 14
 1221 019e 3222     		movs	r2, #50
 1222 01a0 1A60     		str	r2, [r3]
 1223              		.loc 2 454 9
 1224 01a2 00BF     		nop
 1225              	.L57:
 1226              		.loc 2 454 16 discriminator 1
 1227 01a4 1B4B     		ldr	r3, .L59+36
 1228 01a6 1B68     		ldr	r3, [r3]
 1229              		.loc 2 454 22 discriminator 1
 1230 01a8 03F00F03 		and	r3, r3, #15
 1231              		.loc 2 454 43 discriminator 1
 1232 01ac 022B     		cmp	r3, #2
 1233 01ae F9D1     		bne	.L57
 1234              		.loc 2 461 13
 1235 01b0 104B     		ldr	r3, .L59+4
 1236 01b2 1B69     		ldr	r3, [r3, #16]
 1237 01b4 0F4A     		ldr	r2, .L59+4
 1238 01b6 43F00303 		orr	r3, r3, #3
 1239 01ba 1361     		str	r3, [r2, #16]
 1240              		.loc 2 462 9
 1241 01bc 00BF     		nop
 1242              	.L58:
 1243              		.loc 2 462 14 discriminator 1
 1244 01be 0D4B     		ldr	r3, .L59+4
 1245 01c0 1B69     		ldr	r3, [r3, #16]
 1246              		.loc 2 462 21 discriminator 1
 1247 01c2 03F03803 		and	r3, r3, #56
 1248              		.loc 2 462 41 discriminator 1
 1249 01c6 182B     		cmp	r3, #24
 1250 01c8 F9D1     		bne	.L58
 1251              		.loc 2 477 3
 1252 01ca 0121     		movs	r1, #1
 1253 01cc 4FF00050 		mov	r0, #536870912
 1254 01d0 FFF7FEFF 		bl	rccEnableAHB2
ARM GAS  C:\Users\DEVELO~1\AppData\Local\Temp\ccqM33Ed.s 			page 23


 1255              		.loc 2 478 3
 1256 01d4 0121     		movs	r1, #1
 1257 01d6 4FF08040 		mov	r0, #1073741824
 1258 01da FFF7FEFF 		bl	rccEnableAHB2
 1259              		.loc 2 480 3
 1260 01de 0121     		movs	r1, #1
 1261 01e0 4FF00040 		mov	r0, #-2147483648
 1262 01e4 FFF7FEFF 		bl	rccEnableAHB2
 1263              		.loc 2 483 1
 1264 01e8 00BF     		nop
 1265 01ea 1037     		adds	r7, r7, #16
 1266              		.cfi_def_cfa_offset 8
 1267 01ec BD46     		mov	sp, r7
 1268              		.cfi_def_cfa_register 13
 1269              		@ sp needed
 1270 01ee 80BD     		pop	{r7, pc}
 1271              	.L60:
 1272              		.align	2
 1273              	.L59:
 1274 01f0 08810051 		.word	1358987528
 1275 01f4 00440258 		.word	1476543488
 1276 01f8 0000FF01 		.word	33488896
 1277 01fc 00081008 		.word	135268352
 1278 0200 42404000 		.word	4210754
 1279 0204 8F030901 		.word	17367951
 1280 0208 F412010B 		.word	184619764
 1281 020c 8F060507 		.word	117769871
 1282 0210 40000010 		.word	268435520
 1283 0214 00200052 		.word	1375739904
 1284              		.cfi_endproc
 1285              	.LFE435:
 1286              		.size	stm32_clock_init, .-stm32_clock_init
 1287              		.text
 1288              	.Letext0:
 1289              		.file 3 "c:\\chibistudio\\tools\\gnu tools arm embedded\\11.3 2022.08\\arm-none-eabi\\include\\mac
 1290              		.file 4 "c:\\chibistudio\\tools\\gnu tools arm embedded\\11.3 2022.08\\arm-none-eabi\\include\\sys
 1291              		.file 5 "../../../os/common/ext/ST/STM32H7xx/stm32h743xx.h"
 1292              		.file 6 "../../../os/hal/ports/STM32/STM32H7xx/stm32_isr.h"
 1293              		.file 7 "../../../os/hal/ports/STM32/LLD/DMAv2/stm32_dma.h"
 1294              		.file 8 "../../../os/common/ext/ST/STM32H7xx/system_stm32h7xx.h"
 1295              		.section	.debug_info,"",%progbits
 1296              	.Ldebug_info0:
 1297 0000 8F090000 		.4byte	0x98f
 1298 0004 0500     		.2byte	0x5
 1299 0006 01       		.byte	0x1
 1300 0007 04       		.byte	0x4
 1301 0008 00000000 		.4byte	.Ldebug_abbrev0
 1302 000c 13       		.uleb128 0x13
 1303 000d 63020000 		.4byte	.LASF137
 1304 0011 1D       		.byte	0x1d
 1305 0012 57000000 		.4byte	.LASF138
 1306 0016 AF040000 		.4byte	.LASF139
 1307 001a 0C000000 		.4byte	.LLRL0
 1308 001e 00000000 		.4byte	0
 1309 0022 00000000 		.4byte	.Ldebug_line0
 1310 0026 14       		.uleb128 0x14
 1311 0027 04       		.byte	0x4
ARM GAS  C:\Users\DEVELO~1\AppData\Local\Temp\ccqM33Ed.s 			page 24


 1312 0028 05       		.byte	0x5
 1313 0029 696E7400 		.ascii	"int\000"
 1314 002d 03       		.uleb128 0x3
 1315 002e 04       		.byte	0x4
 1316 002f 07       		.byte	0x7
 1317 0030 EC010000 		.4byte	.LASF0
 1318 0034 03       		.uleb128 0x3
 1319 0035 08       		.byte	0x8
 1320 0036 05       		.byte	0x5
 1321 0037 C3000000 		.4byte	.LASF1
 1322 003b 03       		.uleb128 0x3
 1323 003c 08       		.byte	0x8
 1324 003d 04       		.byte	0x4
 1325 003e 79050000 		.4byte	.LASF2
 1326 0042 03       		.uleb128 0x3
 1327 0043 01       		.byte	0x1
 1328 0044 06       		.byte	0x6
 1329 0045 1D000000 		.4byte	.LASF3
 1330 0049 03       		.uleb128 0x3
 1331 004a 01       		.byte	0x1
 1332 004b 08       		.byte	0x8
 1333 004c 97040000 		.4byte	.LASF4
 1334 0050 03       		.uleb128 0x3
 1335 0051 02       		.byte	0x2
 1336 0052 05       		.byte	0x5
 1337 0053 A5040000 		.4byte	.LASF5
 1338 0057 03       		.uleb128 0x3
 1339 0058 02       		.byte	0x2
 1340 0059 07       		.byte	0x7
 1341 005a 3E020000 		.4byte	.LASF6
 1342 005e 03       		.uleb128 0x3
 1343 005f 04       		.byte	0x4
 1344 0060 05       		.byte	0x5
 1345 0061 34000000 		.4byte	.LASF7
 1346 0065 0B       		.uleb128 0xb
 1347 0066 B0010000 		.4byte	.LASF10
 1348 006a 03       		.byte	0x3
 1349 006b 4F       		.byte	0x4f
 1350 006c 19       		.byte	0x19
 1351 006d 71000000 		.4byte	0x71
 1352 0071 03       		.uleb128 0x3
 1353 0072 04       		.byte	0x4
 1354 0073 07       		.byte	0x7
 1355 0074 11020000 		.4byte	.LASF8
 1356 0078 03       		.uleb128 0x3
 1357 0079 08       		.byte	0x8
 1358 007a 07       		.byte	0x7
 1359 007b F6000000 		.4byte	.LASF9
 1360 007f 0B       		.uleb128 0xb
 1361 0080 5B050000 		.4byte	.LASF11
 1362 0084 04       		.byte	0x4
 1363 0085 30       		.byte	0x30
 1364 0086 14       		.byte	0x14
 1365 0087 65000000 		.4byte	0x65
 1366 008b 15       		.uleb128 0x15
 1367 008c 7F000000 		.4byte	0x7f
 1368 0090 03       		.uleb128 0x3
ARM GAS  C:\Users\DEVELO~1\AppData\Local\Temp\ccqM33Ed.s 			page 25


 1369 0091 01       		.byte	0x1
 1370 0092 08       		.byte	0x8
 1371 0093 85050000 		.4byte	.LASF12
 1372 0097 07       		.uleb128 0x7
 1373 0098 7F000000 		.4byte	0x7f
 1374 009c A7000000 		.4byte	0xa7
 1375 00a0 08       		.uleb128 0x8
 1376 00a1 2D000000 		.4byte	0x2d
 1377 00a5 01       		.byte	0x1
 1378 00a6 00       		.byte	0
 1379 00a7 16       		.uleb128 0x16
 1380 00a8 01020000 		.4byte	.LASF140
 1381 00ac 08       		.byte	0x8
 1382 00ad 39       		.byte	0x39
 1383 00ae 11       		.byte	0x11
 1384 00af 7F000000 		.4byte	0x7f
 1385 00b3 07       		.uleb128 0x7
 1386 00b4 7F000000 		.4byte	0x7f
 1387 00b8 C3000000 		.4byte	0xc3
 1388 00bc 08       		.uleb128 0x8
 1389 00bd 2D000000 		.4byte	0x2d
 1390 00c1 03       		.byte	0x3
 1391 00c2 00       		.byte	0
 1392 00c3 07       		.uleb128 0x7
 1393 00c4 7F000000 		.4byte	0x7f
 1394 00c8 D3000000 		.4byte	0xd3
 1395 00cc 08       		.uleb128 0x8
 1396 00cd 2D000000 		.4byte	0x2d
 1397 00d1 08       		.byte	0x8
 1398 00d2 00       		.byte	0
 1399 00d3 0C       		.uleb128 0xc
 1400 00d4 6401     		.2byte	0x164
 1401 00d6 9303     		.2byte	0x393
 1402 00d8 1C030000 		.4byte	0x31c
 1403 00dc 04       		.uleb128 0x4
 1404 00dd 41435200 		.ascii	"ACR\000"
 1405 00e1 9503     		.2byte	0x395
 1406 00e3 11       		.byte	0x11
 1407 00e4 8B000000 		.4byte	0x8b
 1408 00e8 00       		.byte	0
 1409 00e9 01       		.uleb128 0x1
 1410 00ea AD050000 		.4byte	.LASF13
 1411 00ee 9603     		.2byte	0x396
 1412 00f0 11       		.byte	0x11
 1413 00f1 8B000000 		.4byte	0x8b
 1414 00f5 04       		.byte	0x4
 1415 00f6 01       		.uleb128 0x1
 1416 00f7 69010000 		.4byte	.LASF14
 1417 00fb 9703     		.2byte	0x397
 1418 00fd 11       		.byte	0x11
 1419 00fe 8B000000 		.4byte	0x8b
 1420 0102 08       		.byte	0x8
 1421 0103 04       		.uleb128 0x4
 1422 0104 43523100 		.ascii	"CR1\000"
 1423 0108 9803     		.2byte	0x398
 1424 010a 11       		.byte	0x11
 1425 010b 8B000000 		.4byte	0x8b
ARM GAS  C:\Users\DEVELO~1\AppData\Local\Temp\ccqM33Ed.s 			page 26


 1426 010f 0C       		.byte	0xc
 1427 0110 04       		.uleb128 0x4
 1428 0111 53523100 		.ascii	"SR1\000"
 1429 0115 9903     		.2byte	0x399
 1430 0117 11       		.byte	0x11
 1431 0118 8B000000 		.4byte	0x8b
 1432 011c 10       		.byte	0x10
 1433 011d 01       		.uleb128 0x1
 1434 011e F9050000 		.4byte	.LASF15
 1435 0122 9A03     		.2byte	0x39a
 1436 0124 11       		.byte	0x11
 1437 0125 8B000000 		.4byte	0x8b
 1438 0129 14       		.byte	0x14
 1439 012a 01       		.uleb128 0x1
 1440 012b 3D000000 		.4byte	.LASF16
 1441 012f 9B03     		.2byte	0x39b
 1442 0131 11       		.byte	0x11
 1443 0132 8B000000 		.4byte	0x8b
 1444 0136 18       		.byte	0x18
 1445 0137 01       		.uleb128 0x1
 1446 0138 C1030000 		.4byte	.LASF17
 1447 013c 9C03     		.2byte	0x39c
 1448 013e 11       		.byte	0x11
 1449 013f 8B000000 		.4byte	0x8b
 1450 0143 1C       		.byte	0x1c
 1451 0144 01       		.uleb128 0x1
 1452 0145 8A050000 		.4byte	.LASF18
 1453 0149 9D03     		.2byte	0x39d
 1454 014b 11       		.byte	0x11
 1455 014c 8B000000 		.4byte	0x8b
 1456 0150 20       		.byte	0x20
 1457 0151 01       		.uleb128 0x1
 1458 0152 0D010000 		.4byte	.LASF19
 1459 0156 9E03     		.2byte	0x39e
 1460 0158 11       		.byte	0x11
 1461 0159 8B000000 		.4byte	0x8b
 1462 015d 24       		.byte	0x24
 1463 015e 01       		.uleb128 0x1
 1464 015f 09030000 		.4byte	.LASF20
 1465 0163 9F03     		.2byte	0x39f
 1466 0165 11       		.byte	0x11
 1467 0166 8B000000 		.4byte	0x8b
 1468 016a 28       		.byte	0x28
 1469 016b 01       		.uleb128 0x1
 1470 016c 43000000 		.4byte	.LASF21
 1471 0170 A003     		.2byte	0x3a0
 1472 0172 11       		.byte	0x11
 1473 0173 8B000000 		.4byte	0x8b
 1474 0177 2C       		.byte	0x2c
 1475 0178 01       		.uleb128 0x1
 1476 0179 71010000 		.4byte	.LASF22
 1477 017d A103     		.2byte	0x3a1
 1478 017f 11       		.byte	0x11
 1479 0180 8B000000 		.4byte	0x8b
 1480 0184 30       		.byte	0x30
 1481 0185 01       		.uleb128 0x1
 1482 0186 50030000 		.4byte	.LASF23
ARM GAS  C:\Users\DEVELO~1\AppData\Local\Temp\ccqM33Ed.s 			page 27


 1483 018a A203     		.2byte	0x3a2
 1484 018c 11       		.byte	0x11
 1485 018d 8B000000 		.4byte	0x8b
 1486 0191 34       		.byte	0x34
 1487 0192 01       		.uleb128 0x1
 1488 0193 DA050000 		.4byte	.LASF24
 1489 0197 A303     		.2byte	0x3a3
 1490 0199 11       		.byte	0x11
 1491 019a 8B000000 		.4byte	0x8b
 1492 019e 38       		.byte	0x38
 1493 019f 01       		.uleb128 0x1
 1494 01a0 7A030000 		.4byte	.LASF25
 1495 01a4 A403     		.2byte	0x3a4
 1496 01a6 11       		.byte	0x11
 1497 01a7 8B000000 		.4byte	0x8b
 1498 01ab 3C       		.byte	0x3c
 1499 01ac 01       		.uleb128 0x1
 1500 01ad D1000000 		.4byte	.LASF26
 1501 01b1 A503     		.2byte	0x3a5
 1502 01b3 11       		.byte	0x11
 1503 01b4 8B000000 		.4byte	0x8b
 1504 01b8 40       		.byte	0x40
 1505 01b9 01       		.uleb128 0x1
 1506 01ba 35020000 		.4byte	.LASF27
 1507 01be A603     		.2byte	0x3a6
 1508 01c0 11       		.byte	0x11
 1509 01c1 8B000000 		.4byte	0x8b
 1510 01c5 44       		.byte	0x44
 1511 01c6 01       		.uleb128 0x1
 1512 01c7 3B040000 		.4byte	.LASF28
 1513 01cb A703     		.2byte	0x3a7
 1514 01cd 11       		.byte	0x11
 1515 01ce 97000000 		.4byte	0x97
 1516 01d2 48       		.byte	0x48
 1517 01d3 01       		.uleb128 0x1
 1518 01d4 B3030000 		.4byte	.LASF29
 1519 01d8 A803     		.2byte	0x3a8
 1520 01da 11       		.byte	0x11
 1521 01db 8B000000 		.4byte	0x8b
 1522 01df 50       		.byte	0x50
 1523 01e0 01       		.uleb128 0x1
 1524 01e1 28060000 		.4byte	.LASF30
 1525 01e5 A903     		.2byte	0x3a9
 1526 01e7 11       		.byte	0x11
 1527 01e8 8B000000 		.4byte	0x8b
 1528 01ec 54       		.byte	0x54
 1529 01ed 01       		.uleb128 0x1
 1530 01ee 8E030000 		.4byte	.LASF31
 1531 01f2 AA03     		.2byte	0x3aa
 1532 01f4 11       		.byte	0x11
 1533 01f5 8B000000 		.4byte	0x8b
 1534 01f9 58       		.byte	0x58
 1535 01fa 01       		.uleb128 0x1
 1536 01fb 61010000 		.4byte	.LASF32
 1537 01ff AB03     		.2byte	0x3ab
 1538 0201 11       		.byte	0x11
 1539 0202 8B000000 		.4byte	0x8b
ARM GAS  C:\Users\DEVELO~1\AppData\Local\Temp\ccqM33Ed.s 			page 28


 1540 0206 5C       		.byte	0x5c
 1541 0207 01       		.uleb128 0x1
 1542 0208 22050000 		.4byte	.LASF33
 1543 020c AC03     		.2byte	0x3ac
 1544 020e 11       		.byte	0x11
 1545 020f 8B000000 		.4byte	0x8b
 1546 0213 60       		.byte	0x60
 1547 0214 01       		.uleb128 0x1
 1548 0215 45040000 		.4byte	.LASF34
 1549 0219 AD03     		.2byte	0x3ad
 1550 021b 11       		.byte	0x11
 1551 021c 1C030000 		.4byte	0x31c
 1552 0220 64       		.byte	0x64
 1553 0221 02       		.uleb128 0x2
 1554 0222 9D050000 		.4byte	.LASF35
 1555 0226 AE03     		.2byte	0x3ae
 1556 0228 11       		.byte	0x11
 1557 0229 8B000000 		.4byte	0x8b
 1558 022d 0401     		.2byte	0x104
 1559 022f 02       		.uleb128 0x2
 1560 0230 4F040000 		.4byte	.LASF36
 1561 0234 AF03     		.2byte	0x3af
 1562 0236 11       		.byte	0x11
 1563 0237 7F000000 		.4byte	0x7f
 1564 023b 0801     		.2byte	0x108
 1565 023d 0D       		.uleb128 0xd
 1566 023e 43523200 		.ascii	"CR2\000"
 1567 0242 B003     		.2byte	0x3b0
 1568 0244 8B000000 		.4byte	0x8b
 1569 0248 0C01     		.2byte	0x10c
 1570 024a 0D       		.uleb128 0xd
 1571 024b 53523200 		.ascii	"SR2\000"
 1572 024f B103     		.2byte	0x3b1
 1573 0251 8B000000 		.4byte	0x8b
 1574 0255 1001     		.2byte	0x110
 1575 0257 02       		.uleb128 0x2
 1576 0258 FE050000 		.4byte	.LASF37
 1577 025c B203     		.2byte	0x3b2
 1578 025e 11       		.byte	0x11
 1579 025f 8B000000 		.4byte	0x8b
 1580 0263 1401     		.2byte	0x114
 1581 0265 02       		.uleb128 0x2
 1582 0266 59040000 		.4byte	.LASF38
 1583 026a B303     		.2byte	0x3b3
 1584 026c 11       		.byte	0x11
 1585 026d B3000000 		.4byte	0xb3
 1586 0271 1801     		.2byte	0x118
 1587 0273 02       		.uleb128 0x2
 1588 0274 13030000 		.4byte	.LASF39
 1589 0278 B403     		.2byte	0x3b4
 1590 027a 11       		.byte	0x11
 1591 027b 8B000000 		.4byte	0x8b
 1592 027f 2801     		.2byte	0x128
 1593 0281 02       		.uleb128 0x2
 1594 0282 4D000000 		.4byte	.LASF40
 1595 0286 B503     		.2byte	0x3b5
 1596 0288 11       		.byte	0x11
ARM GAS  C:\Users\DEVELO~1\AppData\Local\Temp\ccqM33Ed.s 			page 29


 1597 0289 8B000000 		.4byte	0x8b
 1598 028d 2C01     		.2byte	0x12c
 1599 028f 02       		.uleb128 0x2
 1600 0290 83010000 		.4byte	.LASF41
 1601 0294 B603     		.2byte	0x3b6
 1602 0296 11       		.byte	0x11
 1603 0297 8B000000 		.4byte	0x8b
 1604 029b 3001     		.2byte	0x130
 1605 029d 02       		.uleb128 0x2
 1606 029e 5A030000 		.4byte	.LASF42
 1607 02a2 B703     		.2byte	0x3b7
 1608 02a4 11       		.byte	0x11
 1609 02a5 8B000000 		.4byte	0x8b
 1610 02a9 3401     		.2byte	0x134
 1611 02ab 02       		.uleb128 0x2
 1612 02ac E4050000 		.4byte	.LASF43
 1613 02b0 B803     		.2byte	0x3b8
 1614 02b2 11       		.byte	0x11
 1615 02b3 8B000000 		.4byte	0x8b
 1616 02b7 3801     		.2byte	0x138
 1617 02b9 02       		.uleb128 0x2
 1618 02ba 84030000 		.4byte	.LASF44
 1619 02be B903     		.2byte	0x3b9
 1620 02c0 11       		.byte	0x11
 1621 02c1 8B000000 		.4byte	0x8b
 1622 02c5 3C01     		.2byte	0x13c
 1623 02c7 02       		.uleb128 0x2
 1624 02c8 51050000 		.4byte	.LASF45
 1625 02cc BA03     		.2byte	0x3ba
 1626 02ce 11       		.byte	0x11
 1627 02cf B3000000 		.4byte	0xb3
 1628 02d3 4001     		.2byte	0x140
 1629 02d5 02       		.uleb128 0x2
 1630 02d6 BA030000 		.4byte	.LASF46
 1631 02da BB03     		.2byte	0x3bb
 1632 02dc 11       		.byte	0x11
 1633 02dd 8B000000 		.4byte	0x8b
 1634 02e1 5001     		.2byte	0x150
 1635 02e3 02       		.uleb128 0x2
 1636 02e4 31060000 		.4byte	.LASF47
 1637 02e8 BC03     		.2byte	0x3bc
 1638 02ea 11       		.byte	0x11
 1639 02eb 8B000000 		.4byte	0x8b
 1640 02ef 5401     		.2byte	0x154
 1641 02f1 02       		.uleb128 0x2
 1642 02f2 97030000 		.4byte	.LASF48
 1643 02f6 BD03     		.2byte	0x3bd
 1644 02f8 11       		.byte	0x11
 1645 02f9 8B000000 		.4byte	0x8b
 1646 02fd 5801     		.2byte	0x158
 1647 02ff 02       		.uleb128 0x2
 1648 0300 35010000 		.4byte	.LASF49
 1649 0304 BE03     		.2byte	0x3be
 1650 0306 11       		.byte	0x11
 1651 0307 8B000000 		.4byte	0x8b
 1652 030b 5C01     		.2byte	0x15c
 1653 030d 02       		.uleb128 0x2
ARM GAS  C:\Users\DEVELO~1\AppData\Local\Temp\ccqM33Ed.s 			page 30


 1654 030e 2A050000 		.4byte	.LASF50
 1655 0312 BF03     		.2byte	0x3bf
 1656 0314 11       		.byte	0x11
 1657 0315 8B000000 		.4byte	0x8b
 1658 0319 6001     		.2byte	0x160
 1659 031b 00       		.byte	0
 1660 031c 07       		.uleb128 0x7
 1661 031d 7F000000 		.4byte	0x7f
 1662 0321 2C030000 		.4byte	0x32c
 1663 0325 08       		.uleb128 0x8
 1664 0326 2D000000 		.4byte	0x2d
 1665 032a 27       		.byte	0x27
 1666 032b 00       		.byte	0
 1667 032c 09       		.uleb128 0x9
 1668 032d E8000000 		.4byte	.LASF51
 1669 0331 C003     		.2byte	0x3c0
 1670 0333 D3000000 		.4byte	0xd3
 1671 0337 17       		.uleb128 0x17
 1672 0338 2C       		.byte	0x2c
 1673 0339 05       		.byte	0x5
 1674 033a BB04     		.2byte	0x4bb
 1675 033c 09       		.byte	0x9
 1676 033d D1030000 		.4byte	0x3d1
 1677 0341 04       		.uleb128 0x4
 1678 0342 43523100 		.ascii	"CR1\000"
 1679 0346 BD04     		.2byte	0x4bd
 1680 0348 11       		.byte	0x11
 1681 0349 8B000000 		.4byte	0x8b
 1682 034d 00       		.byte	0
 1683 034e 01       		.uleb128 0x1
 1684 034f 55060000 		.4byte	.LASF52
 1685 0353 BE04     		.2byte	0x4be
 1686 0355 11       		.byte	0x11
 1687 0356 8B000000 		.4byte	0x8b
 1688 035a 04       		.byte	0x4
 1689 035b 04       		.uleb128 0x4
 1690 035c 43523200 		.ascii	"CR2\000"
 1691 0360 BF04     		.2byte	0x4bf
 1692 0362 11       		.byte	0x11
 1693 0363 8B000000 		.4byte	0x8b
 1694 0367 08       		.byte	0x8
 1695 0368 04       		.uleb128 0x4
 1696 0369 43523300 		.ascii	"CR3\000"
 1697 036d C004     		.2byte	0x4c0
 1698 036f 11       		.byte	0x11
 1699 0370 8B000000 		.4byte	0x8b
 1700 0374 0C       		.byte	0xc
 1701 0375 01       		.uleb128 0x1
 1702 0376 23020000 		.4byte	.LASF53
 1703 037a C104     		.2byte	0x4c1
 1704 037c 11       		.byte	0x11
 1705 037d 8B000000 		.4byte	0x8b
 1706 0381 10       		.byte	0x10
 1707 0382 01       		.uleb128 0x1
 1708 0383 3B040000 		.4byte	.LASF28
 1709 0387 C204     		.2byte	0x4c2
 1710 0389 11       		.byte	0x11
ARM GAS  C:\Users\DEVELO~1\AppData\Local\Temp\ccqM33Ed.s 			page 31


 1711 038a 7F000000 		.4byte	0x7f
 1712 038e 14       		.byte	0x14
 1713 038f 01       		.uleb128 0x1
 1714 0390 64050000 		.4byte	.LASF54
 1715 0394 C304     		.2byte	0x4c3
 1716 0396 11       		.byte	0x11
 1717 0397 8B000000 		.4byte	0x8b
 1718 039b 18       		.byte	0x18
 1719 039c 01       		.uleb128 0x1
 1720 039d 45040000 		.4byte	.LASF34
 1721 03a1 C404     		.2byte	0x4c4
 1722 03a3 11       		.byte	0x11
 1723 03a4 7F000000 		.4byte	0x7f
 1724 03a8 1C       		.byte	0x1c
 1725 03a9 01       		.uleb128 0x1
 1726 03aa DA000000 		.4byte	.LASF55
 1727 03ae C504     		.2byte	0x4c5
 1728 03b0 11       		.byte	0x11
 1729 03b1 8B000000 		.4byte	0x8b
 1730 03b5 20       		.byte	0x20
 1731 03b6 01       		.uleb128 0x1
 1732 03b7 16000000 		.4byte	.LASF56
 1733 03bb C604     		.2byte	0x4c6
 1734 03bd 11       		.byte	0x11
 1735 03be 8B000000 		.4byte	0x8b
 1736 03c2 24       		.byte	0x24
 1737 03c3 01       		.uleb128 0x1
 1738 03c4 F9010000 		.4byte	.LASF57
 1739 03c8 C704     		.2byte	0x4c7
 1740 03ca 11       		.byte	0x11
 1741 03cb 8B000000 		.4byte	0x8b
 1742 03cf 28       		.byte	0x28
 1743 03d0 00       		.byte	0
 1744 03d1 09       		.uleb128 0x9
 1745 03d2 44030000 		.4byte	.LASF58
 1746 03d6 C804     		.2byte	0x4c8
 1747 03d8 37030000 		.4byte	0x337
 1748 03dc 0C       		.uleb128 0xc
 1749 03dd 3001     		.2byte	0x130
 1750 03df CE04     		.2byte	0x4ce
 1751 03e1 3B070000 		.4byte	0x73b
 1752 03e5 04       		.uleb128 0x4
 1753 03e6 435200   		.ascii	"CR\000"
 1754 03e9 D004     		.2byte	0x4d0
 1755 03eb 10       		.byte	0x10
 1756 03ec 8B000000 		.4byte	0x8b
 1757 03f0 00       		.byte	0
 1758 03f1 01       		.uleb128 0x1
 1759 03f2 5B020000 		.4byte	.LASF59
 1760 03f6 D104     		.2byte	0x4d1
 1761 03f8 10       		.byte	0x10
 1762 03f9 8B000000 		.4byte	0x8b
 1763 03fd 04       		.byte	0x4
 1764 03fe 01       		.uleb128 0x1
 1765 03ff 9C010000 		.4byte	.LASF60
 1766 0403 D204     		.2byte	0x4d2
 1767 0405 10       		.byte	0x10
ARM GAS  C:\Users\DEVELO~1\AppData\Local\Temp\ccqM33Ed.s 			page 32


 1768 0406 8B000000 		.4byte	0x8b
 1769 040a 08       		.byte	0x8
 1770 040b 01       		.uleb128 0x1
 1771 040c C9050000 		.4byte	.LASF61
 1772 0410 D304     		.2byte	0x4d3
 1773 0412 10       		.byte	0x10
 1774 0413 8B000000 		.4byte	0x8b
 1775 0417 0C       		.byte	0xc
 1776 0418 01       		.uleb128 0x1
 1777 0419 47060000 		.4byte	.LASF62
 1778 041d D404     		.2byte	0x4d4
 1779 041f 10       		.byte	0x10
 1780 0420 8B000000 		.4byte	0x8b
 1781 0424 10       		.byte	0x10
 1782 0425 01       		.uleb128 0x1
 1783 0426 45040000 		.4byte	.LASF34
 1784 042a D504     		.2byte	0x4d5
 1785 042c 0F       		.byte	0xf
 1786 042d 7F000000 		.4byte	0x7f
 1787 0431 14       		.byte	0x14
 1788 0432 01       		.uleb128 0x1
 1789 0433 68060000 		.4byte	.LASF63
 1790 0437 D604     		.2byte	0x4d6
 1791 0439 10       		.byte	0x10
 1792 043a 8B000000 		.4byte	0x8b
 1793 043e 18       		.byte	0x18
 1794 043f 01       		.uleb128 0x1
 1795 0440 63040000 		.4byte	.LASF64
 1796 0444 D704     		.2byte	0x4d7
 1797 0446 10       		.byte	0x10
 1798 0447 8B000000 		.4byte	0x8b
 1799 044b 1C       		.byte	0x1c
 1800 044c 01       		.uleb128 0x1
 1801 044d 8D010000 		.4byte	.LASF65
 1802 0451 D804     		.2byte	0x4d8
 1803 0453 10       		.byte	0x10
 1804 0454 8B000000 		.4byte	0x8b
 1805 0458 20       		.byte	0x20
 1806 0459 01       		.uleb128 0x1
 1807 045a 4F040000 		.4byte	.LASF36
 1808 045e D904     		.2byte	0x4d9
 1809 0460 0F       		.byte	0xf
 1810 0461 7F000000 		.4byte	0x7f
 1811 0465 24       		.byte	0x24
 1812 0466 01       		.uleb128 0x1
 1813 0467 51020000 		.4byte	.LASF66
 1814 046b DA04     		.2byte	0x4da
 1815 046d 10       		.byte	0x10
 1816 046e 8B000000 		.4byte	0x8b
 1817 0472 28       		.byte	0x28
 1818 0473 01       		.uleb128 0x1
 1819 0474 94010000 		.4byte	.LASF67
 1820 0478 DB04     		.2byte	0x4db
 1821 047a 10       		.byte	0x10
 1822 047b 8B000000 		.4byte	0x8b
 1823 047f 2C       		.byte	0x2c
 1824 0480 01       		.uleb128 0x1
ARM GAS  C:\Users\DEVELO~1\AppData\Local\Temp\ccqM33Ed.s 			page 33


 1825 0481 0D000000 		.4byte	.LASF68
 1826 0485 DC04     		.2byte	0x4dc
 1827 0487 10       		.byte	0x10
 1828 0488 8B000000 		.4byte	0x8b
 1829 048c 30       		.byte	0x30
 1830 048d 01       		.uleb128 0x1
 1831 048e 3E010000 		.4byte	.LASF69
 1832 0492 DD04     		.2byte	0x4dd
 1833 0494 10       		.byte	0x10
 1834 0495 8B000000 		.4byte	0x8b
 1835 0499 34       		.byte	0x34
 1836 049a 01       		.uleb128 0x1
 1837 049b 8E040000 		.4byte	.LASF70
 1838 049f DE04     		.2byte	0x4de
 1839 04a1 10       		.byte	0x10
 1840 04a2 8B000000 		.4byte	0x8b
 1841 04a6 38       		.byte	0x38
 1842 04a7 01       		.uleb128 0x1
 1843 04a8 E2010000 		.4byte	.LASF71
 1844 04ac DF04     		.2byte	0x4df
 1845 04ae 10       		.byte	0x10
 1846 04af 8B000000 		.4byte	0x8b
 1847 04b3 3C       		.byte	0x3c
 1848 04b4 01       		.uleb128 0x1
 1849 04b5 A7010000 		.4byte	.LASF72
 1850 04b9 E004     		.2byte	0x4e0
 1851 04bb 10       		.byte	0x10
 1852 04bc 8B000000 		.4byte	0x8b
 1853 04c0 40       		.byte	0x40
 1854 04c1 01       		.uleb128 0x1
 1855 04c2 31030000 		.4byte	.LASF73
 1856 04c6 E104     		.2byte	0x4e1
 1857 04c8 10       		.byte	0x10
 1858 04c9 8B000000 		.4byte	0x8b
 1859 04cd 44       		.byte	0x44
 1860 04ce 01       		.uleb128 0x1
 1861 04cf 59040000 		.4byte	.LASF38
 1862 04d3 E204     		.2byte	0x4e2
 1863 04d5 10       		.byte	0x10
 1864 04d6 7F000000 		.4byte	0x7f
 1865 04da 48       		.byte	0x48
 1866 04db 01       		.uleb128 0x1
 1867 04dc 69050000 		.4byte	.LASF74
 1868 04e0 E304     		.2byte	0x4e3
 1869 04e2 11       		.byte	0x11
 1870 04e3 8B000000 		.4byte	0x8b
 1871 04e7 4C       		.byte	0x4c
 1872 04e8 01       		.uleb128 0x1
 1873 04e9 C0010000 		.4byte	.LASF75
 1874 04ed E404     		.2byte	0x4e4
 1875 04ef 11       		.byte	0x11
 1876 04f0 8B000000 		.4byte	0x8b
 1877 04f4 50       		.byte	0x50
 1878 04f5 01       		.uleb128 0x1
 1879 04f6 00030000 		.4byte	.LASF76
 1880 04fa E504     		.2byte	0x4e5
 1881 04fc 11       		.byte	0x11
ARM GAS  C:\Users\DEVELO~1\AppData\Local\Temp\ccqM33Ed.s 			page 34


 1882 04fd 8B000000 		.4byte	0x8b
 1883 0501 54       		.byte	0x54
 1884 0502 01       		.uleb128 0x1
 1885 0503 C9010000 		.4byte	.LASF77
 1886 0507 E604     		.2byte	0x4e6
 1887 0509 11       		.byte	0x11
 1888 050a 8B000000 		.4byte	0x8b
 1889 050e 58       		.byte	0x58
 1890 050f 01       		.uleb128 0x1
 1891 0510 51050000 		.4byte	.LASF45
 1892 0514 E704     		.2byte	0x4e7
 1893 0516 10       		.byte	0x10
 1894 0517 7F000000 		.4byte	0x7f
 1895 051b 5C       		.byte	0x5c
 1896 051c 01       		.uleb128 0x1
 1897 051d B5000000 		.4byte	.LASF78
 1898 0521 E804     		.2byte	0x4e8
 1899 0523 11       		.byte	0x11
 1900 0524 8B000000 		.4byte	0x8b
 1901 0528 60       		.byte	0x60
 1902 0529 01       		.uleb128 0x1
 1903 052a A2010000 		.4byte	.LASF79
 1904 052e E904     		.2byte	0x4e9
 1905 0530 11       		.byte	0x11
 1906 0531 8B000000 		.4byte	0x8b
 1907 0535 64       		.byte	0x64
 1908 0536 01       		.uleb128 0x1
 1909 0537 03060000 		.4byte	.LASF80
 1910 053b EA04     		.2byte	0x4ea
 1911 053d 11       		.byte	0x11
 1912 053e 8B000000 		.4byte	0x8b
 1913 0542 68       		.byte	0x68
 1914 0543 01       		.uleb128 0x1
 1915 0544 6A040000 		.4byte	.LASF81
 1916 0548 EB04     		.2byte	0x4eb
 1917 054a 0F       		.byte	0xf
 1918 054b 7F000000 		.4byte	0x7f
 1919 054f 6C       		.byte	0x6c
 1920 0550 01       		.uleb128 0x1
 1921 0551 B3050000 		.4byte	.LASF82
 1922 0555 EC04     		.2byte	0x4ec
 1923 0557 11       		.byte	0x11
 1924 0558 8B000000 		.4byte	0x8b
 1925 055c 70       		.byte	0x70
 1926 055d 04       		.uleb128 0x4
 1927 055e 43535200 		.ascii	"CSR\000"
 1928 0562 ED04     		.2byte	0x4ed
 1929 0564 11       		.byte	0x11
 1930 0565 8B000000 		.4byte	0x8b
 1931 0569 74       		.byte	0x74
 1932 056a 01       		.uleb128 0x1
 1933 056b 74040000 		.4byte	.LASF83
 1934 056f EE04     		.2byte	0x4ee
 1935 0571 0F       		.byte	0xf
 1936 0572 7F000000 		.4byte	0x7f
 1937 0576 78       		.byte	0x78
 1938 0577 01       		.uleb128 0x1
ARM GAS  C:\Users\DEVELO~1\AppData\Local\Temp\ccqM33Ed.s 			page 35


 1939 0578 EE020000 		.4byte	.LASF84
 1940 057c EF04     		.2byte	0x4ef
 1941 057e 10       		.byte	0x10
 1942 057f 8B000000 		.4byte	0x8b
 1943 0583 7C       		.byte	0x7c
 1944 0584 01       		.uleb128 0x1
 1945 0585 D1050000 		.4byte	.LASF85
 1946 0589 F004     		.2byte	0x4f0
 1947 058b 10       		.byte	0x10
 1948 058c 8B000000 		.4byte	0x8b
 1949 0590 80       		.byte	0x80
 1950 0591 01       		.uleb128 0x1
 1951 0592 94050000 		.4byte	.LASF86
 1952 0596 F104     		.2byte	0x4f1
 1953 0598 10       		.byte	0x10
 1954 0599 8B000000 		.4byte	0x8b
 1955 059d 84       		.byte	0x84
 1956 059e 01       		.uleb128 0x1
 1957 059f BA000000 		.4byte	.LASF87
 1958 05a3 F204     		.2byte	0x4f2
 1959 05a5 10       		.byte	0x10
 1960 05a6 8B000000 		.4byte	0x8b
 1961 05aa 88       		.byte	0x88
 1962 05ab 01       		.uleb128 0x1
 1963 05ac C0050000 		.4byte	.LASF88
 1964 05b0 F304     		.2byte	0x4f3
 1965 05b2 10       		.byte	0x10
 1966 05b3 8B000000 		.4byte	0x8b
 1967 05b7 8C       		.byte	0x8c
 1968 05b8 01       		.uleb128 0x1
 1969 05b9 1D030000 		.4byte	.LASF89
 1970 05bd F404     		.2byte	0x4f4
 1971 05bf 10       		.byte	0x10
 1972 05c0 8B000000 		.4byte	0x8b
 1973 05c4 90       		.byte	0x90
 1974 05c5 01       		.uleb128 0x1
 1975 05c6 A9030000 		.4byte	.LASF90
 1976 05ca F504     		.2byte	0x4f5
 1977 05cc 10       		.byte	0x10
 1978 05cd 8B000000 		.4byte	0x8b
 1979 05d1 94       		.byte	0x94
 1980 05d2 01       		.uleb128 0x1
 1981 05d3 48010000 		.4byte	.LASF91
 1982 05d7 F604     		.2byte	0x4f6
 1983 05d9 10       		.byte	0x10
 1984 05da 8B000000 		.4byte	0x8b
 1985 05de 98       		.byte	0x98
 1986 05df 01       		.uleb128 0x1
 1987 05e0 3B030000 		.4byte	.LASF92
 1988 05e4 F704     		.2byte	0x4f7
 1989 05e6 10       		.byte	0x10
 1990 05e7 8B000000 		.4byte	0x8b
 1991 05eb 9C       		.byte	0x9c
 1992 05ec 04       		.uleb128 0x4
 1993 05ed 47435200 		.ascii	"GCR\000"
 1994 05f1 F804     		.2byte	0x4f8
 1995 05f3 10       		.byte	0x10
ARM GAS  C:\Users\DEVELO~1\AppData\Local\Temp\ccqM33Ed.s 			page 36


 1996 05f4 8B000000 		.4byte	0x8b
 1997 05f8 A0       		.byte	0xa0
 1998 05f9 01       		.uleb128 0x1
 1999 05fa 7E040000 		.4byte	.LASF93
 2000 05fe F904     		.2byte	0x4f9
 2001 0600 0F       		.byte	0xf
 2002 0601 7F000000 		.4byte	0x7f
 2003 0605 A4       		.byte	0xa4
 2004 0606 01       		.uleb128 0x1
 2005 0607 96000000 		.4byte	.LASF94
 2006 060b FA04     		.2byte	0x4fa
 2007 060d 10       		.byte	0x10
 2008 060e 8B000000 		.4byte	0x8b
 2009 0612 A8       		.byte	0xa8
 2010 0613 01       		.uleb128 0x1
 2011 0614 14010000 		.4byte	.LASF95
 2012 0618 FB04     		.2byte	0x4fb
 2013 061a 0F       		.byte	0xf
 2014 061b C3000000 		.4byte	0xc3
 2015 061f AC       		.byte	0xac
 2016 0620 04       		.uleb128 0x4
 2017 0621 52535200 		.ascii	"RSR\000"
 2018 0625 FC04     		.2byte	0x4fc
 2019 0627 10       		.byte	0x10
 2020 0628 8B000000 		.4byte	0x8b
 2021 062c D0       		.byte	0xd0
 2022 062d 01       		.uleb128 0x1
 2023 062e 3A050000 		.4byte	.LASF96
 2024 0632 FD04     		.2byte	0x4fd
 2025 0634 10       		.byte	0x10
 2026 0635 8B000000 		.4byte	0x8b
 2027 0639 D4       		.byte	0xd4
 2028 063a 01       		.uleb128 0x1
 2029 063b 3F060000 		.4byte	.LASF97
 2030 063f FE04     		.2byte	0x4fe
 2031 0641 10       		.byte	0x10
 2032 0642 8B000000 		.4byte	0x8b
 2033 0646 D8       		.byte	0xd8
 2034 0647 01       		.uleb128 0x1
 2035 0648 B8050000 		.4byte	.LASF98
 2036 064c FF04     		.2byte	0x4ff
 2037 064e 10       		.byte	0x10
 2038 064f 8B000000 		.4byte	0x8b
 2039 0653 DC       		.byte	0xdc
 2040 0654 01       		.uleb128 0x1
 2041 0655 33040000 		.4byte	.LASF99
 2042 0659 0005     		.2byte	0x500
 2043 065b 10       		.byte	0x10
 2044 065c 8B000000 		.4byte	0x8b
 2045 0660 E0       		.byte	0xe0
 2046 0661 01       		.uleb128 0x1
 2047 0662 23040000 		.4byte	.LASF100
 2048 0666 0105     		.2byte	0x501
 2049 0668 10       		.byte	0x10
 2050 0669 8B000000 		.4byte	0x8b
 2051 066d E4       		.byte	0xe4
 2052 066e 01       		.uleb128 0x1
ARM GAS  C:\Users\DEVELO~1\AppData\Local\Temp\ccqM33Ed.s 			page 37


 2053 066f 4C060000 		.4byte	.LASF101
 2054 0673 0205     		.2byte	0x502
 2055 0675 10       		.byte	0x10
 2056 0676 8B000000 		.4byte	0x8b
 2057 067a E8       		.byte	0xe8
 2058 067b 01       		.uleb128 0x1
 2059 067c F7020000 		.4byte	.LASF102
 2060 0680 0305     		.2byte	0x503
 2061 0682 10       		.byte	0x10
 2062 0683 8B000000 		.4byte	0x8b
 2063 0687 EC       		.byte	0xec
 2064 0688 01       		.uleb128 0x1
 2065 0689 32050000 		.4byte	.LASF103
 2066 068d 0405     		.2byte	0x504
 2067 068f 10       		.byte	0x10
 2068 0690 8B000000 		.4byte	0x8b
 2069 0694 F0       		.byte	0xf0
 2070 0695 01       		.uleb128 0x1
 2071 0696 64030000 		.4byte	.LASF104
 2072 069a 0505     		.2byte	0x505
 2073 069c 10       		.byte	0x10
 2074 069d 8B000000 		.4byte	0x8b
 2075 06a1 F4       		.byte	0xf4
 2076 06a2 01       		.uleb128 0x1
 2077 06a3 1F010000 		.4byte	.LASF105
 2078 06a7 0605     		.2byte	0x506
 2079 06a9 10       		.byte	0x10
 2080 06aa 7F000000 		.4byte	0x7f
 2081 06ae F8       		.byte	0xf8
 2082 06af 01       		.uleb128 0x1
 2083 06b0 0E050000 		.4byte	.LASF106
 2084 06b4 0705     		.2byte	0x507
 2085 06b6 10       		.byte	0x10
 2086 06b7 8B000000 		.4byte	0x8b
 2087 06bb FC       		.byte	0xfc
 2088 06bc 02       		.uleb128 0x2
 2089 06bd AB000000 		.4byte	.LASF107
 2090 06c1 0805     		.2byte	0x508
 2091 06c3 10       		.byte	0x10
 2092 06c4 8B000000 		.4byte	0x8b
 2093 06c8 0001     		.2byte	0x100
 2094 06ca 02       		.uleb128 0x2
 2095 06cb 07040000 		.4byte	.LASF108
 2096 06cf 0905     		.2byte	0x509
 2097 06d1 10       		.byte	0x10
 2098 06d2 8B000000 		.4byte	0x8b
 2099 06d6 0401     		.2byte	0x104
 2100 06d8 02       		.uleb128 0x2
 2101 06d9 A3050000 		.4byte	.LASF109
 2102 06dd 0A05     		.2byte	0x50a
 2103 06df 10       		.byte	0x10
 2104 06e0 8B000000 		.4byte	0x8b
 2105 06e4 0801     		.2byte	0x108
 2106 06e6 02       		.uleb128 0x2
 2107 06e7 11040000 		.4byte	.LASF110
 2108 06eb 0B05     		.2byte	0x50b
 2109 06ed 10       		.byte	0x10
ARM GAS  C:\Users\DEVELO~1\AppData\Local\Temp\ccqM33Ed.s 			page 38


 2110 06ee 8B000000 		.4byte	0x8b
 2111 06f2 0C01     		.2byte	0x10c
 2112 06f4 02       		.uleb128 0x2
 2113 06f5 EE050000 		.4byte	.LASF111
 2114 06f9 0C05     		.2byte	0x50c
 2115 06fb 10       		.byte	0x10
 2116 06fc 8B000000 		.4byte	0x8b
 2117 0700 1001     		.2byte	0x110
 2118 0702 02       		.uleb128 0x2
 2119 0703 29000000 		.4byte	.LASF112
 2120 0707 0D05     		.2byte	0x50d
 2121 0709 10       		.byte	0x10
 2122 070a 8B000000 		.4byte	0x8b
 2123 070e 1401     		.2byte	0x114
 2124 0710 02       		.uleb128 0x2
 2125 0711 27030000 		.4byte	.LASF113
 2126 0715 0E05     		.2byte	0x50e
 2127 0717 10       		.byte	0x10
 2128 0718 8B000000 		.4byte	0x8b
 2129 071c 1801     		.2byte	0x118
 2130 071e 02       		.uleb128 0x2
 2131 071f 18050000 		.4byte	.LASF114
 2132 0723 0F05     		.2byte	0x50f
 2133 0725 10       		.byte	0x10
 2134 0726 8B000000 		.4byte	0x8b
 2135 072a 1C01     		.2byte	0x11c
 2136 072c 02       		.uleb128 0x2
 2137 072d 2A010000 		.4byte	.LASF115
 2138 0731 1005     		.2byte	0x510
 2139 0733 0F       		.byte	0xf
 2140 0734 B3000000 		.4byte	0xb3
 2141 0738 2001     		.2byte	0x120
 2142 073a 00       		.byte	0
 2143 073b 09       		.uleb128 0x9
 2144 073c 29020000 		.4byte	.LASF116
 2145 0740 1205     		.2byte	0x512
 2146 0742 DC030000 		.4byte	0x3dc
 2147 0746 03       		.uleb128 0x3
 2148 0747 01       		.byte	0x1
 2149 0748 02       		.byte	0x2
 2150 0749 88040000 		.4byte	.LASF117
 2151 074d 18       		.uleb128 0x18
 2152 074e A7000000 		.4byte	0xa7
 2153 0752 02       		.byte	0x2
 2154 0753 2B       		.byte	0x2b
 2155 0754 0A       		.byte	0xa
 2156 0755 05       		.uleb128 0x5
 2157 0756 03       		.byte	0x3
 2158 0757 00000000 		.4byte	SystemCoreClock
 2159 075b 0E       		.uleb128 0xe
 2160 075c 2B040000 		.4byte	.LASF118
 2161 0760 06       		.byte	0x6
 2162 0761 8F01     		.2byte	0x18f
 2163 0763 0E       		.uleb128 0xe
 2164 0764 71050000 		.4byte	.LASF119
 2165 0768 07       		.byte	0x7
 2166 0769 9B02     		.2byte	0x29b
ARM GAS  C:\Users\DEVELO~1\AppData\Local\Temp\ccqM33Ed.s 			page 39


 2167 076b 19       		.uleb128 0x19
 2168 076c D1010000 		.4byte	.LASF141
 2169 0770 02       		.byte	0x2
 2170 0771 E3       		.byte	0xe3
 2171 0772 06       		.byte	0x6
 2172 0773 00000000 		.4byte	.LFB435
 2173 0777 18020000 		.4byte	.LFE435-.LFB435
 2174 077b 01       		.uleb128 0x1
 2175 077c 9C       		.byte	0x9c
 2176 077d C5070000 		.4byte	0x7c5
 2177 0781 1A       		.uleb128 0x1a
 2178 0782 3A060000 		.4byte	.LASF120
 2179 0786 02       		.byte	0x2
 2180 0787 E5       		.byte	0xe5
 2181 0788 0C       		.byte	0xc
 2182 0789 7F000000 		.4byte	0x7f
 2183 078d 02       		.uleb128 0x2
 2184 078e 91       		.byte	0x91
 2185 078f 74       		.sleb128 -12
 2186 0790 1B       		.uleb128 0x1b
 2187 0791 AA000000 		.4byte	.LBB2
 2188 0795 C0000000 		.4byte	.LBE2-.LBB2
 2189 0799 0A       		.uleb128 0xa
 2190 079a E1000000 		.4byte	.LASF121
 2191 079e 4801     		.2byte	0x148
 2192 07a0 7F000000 		.4byte	0x7f
 2193 07a4 02       		.uleb128 0x2
 2194 07a5 91       		.byte	0x91
 2195 07a6 70       		.sleb128 -16
 2196 07a7 0A       		.uleb128 0xa
 2197 07a8 1B040000 		.4byte	.LASF122
 2198 07ac 4901     		.2byte	0x149
 2199 07ae 7F000000 		.4byte	0x7f
 2200 07b2 02       		.uleb128 0x2
 2201 07b3 91       		.byte	0x91
 2202 07b4 6C       		.sleb128 -20
 2203 07b5 0A       		.uleb128 0xa
 2204 07b6 7B010000 		.4byte	.LASF123
 2205 07ba 4A01     		.2byte	0x14a
 2206 07bc 7F000000 		.4byte	0x7f
 2207 07c0 02       		.uleb128 0x2
 2208 07c1 91       		.byte	0x91
 2209 07c2 68       		.sleb128 -24
 2210 07c3 00       		.byte	0
 2211 07c4 00       		.byte	0
 2212 07c5 1C       		.uleb128 0x1c
 2213 07c6 00000000 		.4byte	.LASF142
 2214 07ca 02       		.byte	0x2
 2215 07cb 96       		.byte	0x96
 2216 07cc 06       		.byte	0x6
 2217 07cd 00000000 		.4byte	.LFB434
 2218 07d1 5C000000 		.4byte	.LFE434-.LFB434
 2219 07d5 01       		.uleb128 0x1
 2220 07d6 9C       		.byte	0x9c
 2221 07d7 0F       		.uleb128 0xf
 2222 07d8 A0030000 		.4byte	.LASF124
 2223 07dc 62       		.byte	0x62
ARM GAS  C:\Users\DEVELO~1\AppData\Local\Temp\ccqM33Ed.s 			page 40


 2224 07dd 00000000 		.4byte	.LFB433
 2225 07e1 5C000000 		.4byte	.LFE433-.LFB433
 2226 07e5 01       		.uleb128 0x1
 2227 07e6 9C       		.byte	0x9c
 2228 07e7 0F       		.uleb128 0xf
 2229 07e8 51010000 		.4byte	.LASF125
 2230 07ec 3A       		.byte	0x3a
 2231 07ed 00000000 		.4byte	.LFB432
 2232 07f1 3C000000 		.4byte	.LFE432-.LFB432
 2233 07f5 01       		.uleb128 0x1
 2234 07f6 9C       		.byte	0x9c
 2235 07f7 10       		.uleb128 0x10
 2236 07f8 5A060000 		.4byte	.LASF127
 2237 07fc A302     		.2byte	0x2a3
 2238 07fe 00000000 		.4byte	.LFB406
 2239 0802 5C000000 		.4byte	.LFE406-.LFB406
 2240 0806 01       		.uleb128 0x1
 2241 0807 9C       		.byte	0x9c
 2242 0808 28080000 		.4byte	0x828
 2243 080c 11       		.uleb128 0x11
 2244 080d BB010000 		.4byte	.LASF126
 2245 0811 A302     		.2byte	0x2a3
 2246 0813 7F000000 		.4byte	0x7f
 2247 0817 02       		.uleb128 0x2
 2248 0818 91       		.byte	0x91
 2249 0819 74       		.sleb128 -12
 2250 081a 12       		.uleb128 0x12
 2251 081b 6C7000   		.ascii	"lp\000"
 2252 081e A302     		.2byte	0x2a3
 2253 0820 46070000 		.4byte	0x746
 2254 0824 02       		.uleb128 0x2
 2255 0825 91       		.byte	0x91
 2256 0826 73       		.sleb128 -13
 2257 0827 00       		.byte	0
 2258 0828 10       		.uleb128 0x10
 2259 0829 6C030000 		.4byte	.LASF128
 2260 082d F101     		.2byte	0x1f1
 2261 082f 00000000 		.4byte	.LFB400
 2262 0833 5C000000 		.4byte	.LFE400-.LFB400
 2263 0837 01       		.uleb128 0x1
 2264 0838 9C       		.byte	0x9c
 2265 0839 59080000 		.4byte	0x859
 2266 083d 11       		.uleb128 0x11
 2267 083e BB010000 		.4byte	.LASF126
 2268 0842 F101     		.2byte	0x1f1
 2269 0844 7F000000 		.4byte	0x7f
 2270 0848 02       		.uleb128 0x2
 2271 0849 91       		.byte	0x91
 2272 084a 74       		.sleb128 -12
 2273 084b 12       		.uleb128 0x12
 2274 084c 6C7000   		.ascii	"lp\000"
 2275 084f F101     		.2byte	0x1f1
 2276 0851 46070000 		.4byte	0x746
 2277 0855 02       		.uleb128 0x2
 2278 0856 91       		.byte	0x91
 2279 0857 73       		.sleb128 -13
 2280 0858 00       		.byte	0
ARM GAS  C:\Users\DEVELO~1\AppData\Local\Temp\ccqM33Ed.s 			page 41


 2281 0859 06       		.uleb128 0x6
 2282 085a F8030000 		.4byte	.LASF129
 2283 085e 79       		.byte	0x79
 2284 085f 00000000 		.4byte	.LFB387
 2285 0863 40000000 		.4byte	.LFE387-.LFB387
 2286 0867 01       		.uleb128 0x1
 2287 0868 9C       		.byte	0x9c
 2288 0869 7C080000 		.4byte	0x87c
 2289 086d 05       		.uleb128 0x5
 2290 086e BB010000 		.4byte	.LASF126
 2291 0872 79       		.byte	0x79
 2292 0873 2E       		.byte	0x2e
 2293 0874 7F000000 		.4byte	0x7f
 2294 0878 02       		.uleb128 0x2
 2295 0879 91       		.byte	0x91
 2296 087a 74       		.sleb128 -12
 2297 087b 00       		.byte	0
 2298 087c 06       		.uleb128 0x6
 2299 087d E9030000 		.4byte	.LASF130
 2300 0881 71       		.byte	0x71
 2301 0882 00000000 		.4byte	.LFB386
 2302 0886 34000000 		.4byte	.LFE386-.LFB386
 2303 088a 01       		.uleb128 0x1
 2304 088b 9C       		.byte	0x9c
 2305 088c 9F080000 		.4byte	0x89f
 2306 0890 05       		.uleb128 0x5
 2307 0891 BB010000 		.4byte	.LASF126
 2308 0895 71       		.byte	0x71
 2309 0896 2E       		.byte	0x2e
 2310 0897 7F000000 		.4byte	0x7f
 2311 089b 02       		.uleb128 0x2
 2312 089c 91       		.byte	0x91
 2313 089d 74       		.sleb128 -12
 2314 089e 00       		.byte	0
 2315 089f 06       		.uleb128 0x6
 2316 08a0 DA030000 		.4byte	.LASF131
 2317 08a4 69       		.byte	0x69
 2318 08a5 00000000 		.4byte	.LFB385
 2319 08a9 40000000 		.4byte	.LFE385-.LFB385
 2320 08ad 01       		.uleb128 0x1
 2321 08ae 9C       		.byte	0x9c
 2322 08af C2080000 		.4byte	0x8c2
 2323 08b3 05       		.uleb128 0x5
 2324 08b4 BB010000 		.4byte	.LASF126
 2325 08b8 69       		.byte	0x69
 2326 08b9 2E       		.byte	0x2e
 2327 08ba 7F000000 		.4byte	0x7f
 2328 08be 02       		.uleb128 0x2
 2329 08bf 91       		.byte	0x91
 2330 08c0 74       		.sleb128 -12
 2331 08c1 00       		.byte	0
 2332 08c2 06       		.uleb128 0x6
 2333 08c3 CB030000 		.4byte	.LASF132
 2334 08c7 61       		.byte	0x61
 2335 08c8 00000000 		.4byte	.LFB384
 2336 08cc 40000000 		.4byte	.LFE384-.LFB384
 2337 08d0 01       		.uleb128 0x1
ARM GAS  C:\Users\DEVELO~1\AppData\Local\Temp\ccqM33Ed.s 			page 42


 2338 08d1 9C       		.byte	0x9c
 2339 08d2 E5080000 		.4byte	0x8e5
 2340 08d6 05       		.uleb128 0x5
 2341 08d7 BB010000 		.4byte	.LASF126
 2342 08db 61       		.byte	0x61
 2343 08dc 2E       		.byte	0x2e
 2344 08dd 7F000000 		.4byte	0x7f
 2345 08e1 02       		.uleb128 0x2
 2346 08e2 91       		.byte	0x91
 2347 08e3 74       		.sleb128 -12
 2348 08e4 00       		.byte	0
 2349 08e5 06       		.uleb128 0x6
 2350 08e6 9C000000 		.4byte	.LASF133
 2351 08ea 59       		.byte	0x59
 2352 08eb 00000000 		.4byte	.LFB383
 2353 08ef 40000000 		.4byte	.LFE383-.LFB383
 2354 08f3 01       		.uleb128 0x1
 2355 08f4 9C       		.byte	0x9c
 2356 08f5 08090000 		.4byte	0x908
 2357 08f9 05       		.uleb128 0x5
 2358 08fa BB010000 		.4byte	.LASF126
 2359 08fe 59       		.byte	0x59
 2360 08ff 2E       		.byte	0x2e
 2361 0900 7F000000 		.4byte	0x7f
 2362 0904 02       		.uleb128 0x2
 2363 0905 91       		.byte	0x91
 2364 0906 74       		.sleb128 -12
 2365 0907 00       		.byte	0
 2366 0908 06       		.uleb128 0x6
 2367 0909 42050000 		.4byte	.LASF134
 2368 090d 51       		.byte	0x51
 2369 090e 00000000 		.4byte	.LFB382
 2370 0912 40000000 		.4byte	.LFE382-.LFB382
 2371 0916 01       		.uleb128 0x1
 2372 0917 9C       		.byte	0x9c
 2373 0918 2B090000 		.4byte	0x92b
 2374 091c 05       		.uleb128 0x5
 2375 091d BB010000 		.4byte	.LASF126
 2376 0921 51       		.byte	0x51
 2377 0922 2E       		.byte	0x2e
 2378 0923 7F000000 		.4byte	0x7f
 2379 0927 02       		.uleb128 0x2
 2380 0928 91       		.byte	0x91
 2381 0929 74       		.sleb128 -12
 2382 092a 00       		.byte	0
 2383 092b 06       		.uleb128 0x6
 2384 092c 87000000 		.4byte	.LASF135
 2385 0930 49       		.byte	0x49
 2386 0931 00000000 		.4byte	.LFB381
 2387 0935 40000000 		.4byte	.LFE381-.LFB381
 2388 0939 01       		.uleb128 0x1
 2389 093a 9C       		.byte	0x9c
 2390 093b 4E090000 		.4byte	0x94e
 2391 093f 05       		.uleb128 0x5
 2392 0940 BB010000 		.4byte	.LASF126
 2393 0944 49       		.byte	0x49
 2394 0945 2E       		.byte	0x2e
ARM GAS  C:\Users\DEVELO~1\AppData\Local\Temp\ccqM33Ed.s 			page 43


 2395 0946 7F000000 		.4byte	0x7f
 2396 094a 02       		.uleb128 0x2
 2397 094b 91       		.byte	0x91
 2398 094c 74       		.sleb128 -12
 2399 094d 00       		.byte	0
 2400 094e 06       		.uleb128 0x6
 2401 094f 08060000 		.4byte	.LASF136
 2402 0953 41       		.byte	0x41
 2403 0954 00000000 		.4byte	.LFB380
 2404 0958 40000000 		.4byte	.LFE380-.LFB380
 2405 095c 01       		.uleb128 0x1
 2406 095d 9C       		.byte	0x9c
 2407 095e 71090000 		.4byte	0x971
 2408 0962 05       		.uleb128 0x5
 2409 0963 BB010000 		.4byte	.LASF126
 2410 0967 41       		.byte	0x41
 2411 0968 2F       		.byte	0x2f
 2412 0969 7F000000 		.4byte	0x7f
 2413 096d 02       		.uleb128 0x2
 2414 096e 91       		.byte	0x91
 2415 096f 74       		.sleb128 -12
 2416 0970 00       		.byte	0
 2417 0971 1D       		.uleb128 0x1d
 2418 0972 18060000 		.4byte	.LASF143
 2419 0976 01       		.byte	0x1
 2420 0977 39       		.byte	0x39
 2421 0978 16       		.byte	0x16
 2422 0979 00000000 		.4byte	.LFB379
 2423 097d 40000000 		.4byte	.LFE379-.LFB379
 2424 0981 01       		.uleb128 0x1
 2425 0982 9C       		.byte	0x9c
 2426 0983 05       		.uleb128 0x5
 2427 0984 BB010000 		.4byte	.LASF126
 2428 0988 39       		.byte	0x39
 2429 0989 2F       		.byte	0x2f
 2430 098a 7F000000 		.4byte	0x7f
 2431 098e 02       		.uleb128 0x2
 2432 098f 91       		.byte	0x91
 2433 0990 74       		.sleb128 -12
 2434 0991 00       		.byte	0
 2435 0992 00       		.byte	0
 2436              		.section	.debug_abbrev,"",%progbits
 2437              	.Ldebug_abbrev0:
 2438 0000 01       		.uleb128 0x1
 2439 0001 0D       		.uleb128 0xd
 2440 0002 00       		.byte	0
 2441 0003 03       		.uleb128 0x3
 2442 0004 0E       		.uleb128 0xe
 2443 0005 3A       		.uleb128 0x3a
 2444 0006 21       		.uleb128 0x21
 2445 0007 05       		.sleb128 5
 2446 0008 3B       		.uleb128 0x3b
 2447 0009 05       		.uleb128 0x5
 2448 000a 39       		.uleb128 0x39
 2449 000b 0B       		.uleb128 0xb
 2450 000c 49       		.uleb128 0x49
 2451 000d 13       		.uleb128 0x13
ARM GAS  C:\Users\DEVELO~1\AppData\Local\Temp\ccqM33Ed.s 			page 44


 2452 000e 38       		.uleb128 0x38
 2453 000f 0B       		.uleb128 0xb
 2454 0010 00       		.byte	0
 2455 0011 00       		.byte	0
 2456 0012 02       		.uleb128 0x2
 2457 0013 0D       		.uleb128 0xd
 2458 0014 00       		.byte	0
 2459 0015 03       		.uleb128 0x3
 2460 0016 0E       		.uleb128 0xe
 2461 0017 3A       		.uleb128 0x3a
 2462 0018 21       		.uleb128 0x21
 2463 0019 05       		.sleb128 5
 2464 001a 3B       		.uleb128 0x3b
 2465 001b 05       		.uleb128 0x5
 2466 001c 39       		.uleb128 0x39
 2467 001d 0B       		.uleb128 0xb
 2468 001e 49       		.uleb128 0x49
 2469 001f 13       		.uleb128 0x13
 2470 0020 38       		.uleb128 0x38
 2471 0021 05       		.uleb128 0x5
 2472 0022 00       		.byte	0
 2473 0023 00       		.byte	0
 2474 0024 03       		.uleb128 0x3
 2475 0025 24       		.uleb128 0x24
 2476 0026 00       		.byte	0
 2477 0027 0B       		.uleb128 0xb
 2478 0028 0B       		.uleb128 0xb
 2479 0029 3E       		.uleb128 0x3e
 2480 002a 0B       		.uleb128 0xb
 2481 002b 03       		.uleb128 0x3
 2482 002c 0E       		.uleb128 0xe
 2483 002d 00       		.byte	0
 2484 002e 00       		.byte	0
 2485 002f 04       		.uleb128 0x4
 2486 0030 0D       		.uleb128 0xd
 2487 0031 00       		.byte	0
 2488 0032 03       		.uleb128 0x3
 2489 0033 08       		.uleb128 0x8
 2490 0034 3A       		.uleb128 0x3a
 2491 0035 21       		.uleb128 0x21
 2492 0036 05       		.sleb128 5
 2493 0037 3B       		.uleb128 0x3b
 2494 0038 05       		.uleb128 0x5
 2495 0039 39       		.uleb128 0x39
 2496 003a 0B       		.uleb128 0xb
 2497 003b 49       		.uleb128 0x49
 2498 003c 13       		.uleb128 0x13
 2499 003d 38       		.uleb128 0x38
 2500 003e 0B       		.uleb128 0xb
 2501 003f 00       		.byte	0
 2502 0040 00       		.byte	0
 2503 0041 05       		.uleb128 0x5
 2504 0042 05       		.uleb128 0x5
 2505 0043 00       		.byte	0
 2506 0044 03       		.uleb128 0x3
 2507 0045 0E       		.uleb128 0xe
 2508 0046 3A       		.uleb128 0x3a
ARM GAS  C:\Users\DEVELO~1\AppData\Local\Temp\ccqM33Ed.s 			page 45


 2509 0047 21       		.uleb128 0x21
 2510 0048 01       		.sleb128 1
 2511 0049 3B       		.uleb128 0x3b
 2512 004a 0B       		.uleb128 0xb
 2513 004b 39       		.uleb128 0x39
 2514 004c 0B       		.uleb128 0xb
 2515 004d 49       		.uleb128 0x49
 2516 004e 13       		.uleb128 0x13
 2517 004f 02       		.uleb128 0x2
 2518 0050 18       		.uleb128 0x18
 2519 0051 00       		.byte	0
 2520 0052 00       		.byte	0
 2521 0053 06       		.uleb128 0x6
 2522 0054 2E       		.uleb128 0x2e
 2523 0055 01       		.byte	0x1
 2524 0056 03       		.uleb128 0x3
 2525 0057 0E       		.uleb128 0xe
 2526 0058 3A       		.uleb128 0x3a
 2527 0059 21       		.uleb128 0x21
 2528 005a 01       		.sleb128 1
 2529 005b 3B       		.uleb128 0x3b
 2530 005c 0B       		.uleb128 0xb
 2531 005d 39       		.uleb128 0x39
 2532 005e 21       		.uleb128 0x21
 2533 005f 16       		.sleb128 22
 2534 0060 27       		.uleb128 0x27
 2535 0061 19       		.uleb128 0x19
 2536 0062 11       		.uleb128 0x11
 2537 0063 01       		.uleb128 0x1
 2538 0064 12       		.uleb128 0x12
 2539 0065 06       		.uleb128 0x6
 2540 0066 40       		.uleb128 0x40
 2541 0067 18       		.uleb128 0x18
 2542 0068 7A       		.uleb128 0x7a
 2543 0069 19       		.uleb128 0x19
 2544 006a 01       		.uleb128 0x1
 2545 006b 13       		.uleb128 0x13
 2546 006c 00       		.byte	0
 2547 006d 00       		.byte	0
 2548 006e 07       		.uleb128 0x7
 2549 006f 01       		.uleb128 0x1
 2550 0070 01       		.byte	0x1
 2551 0071 49       		.uleb128 0x49
 2552 0072 13       		.uleb128 0x13
 2553 0073 01       		.uleb128 0x1
 2554 0074 13       		.uleb128 0x13
 2555 0075 00       		.byte	0
 2556 0076 00       		.byte	0
 2557 0077 08       		.uleb128 0x8
 2558 0078 21       		.uleb128 0x21
 2559 0079 00       		.byte	0
 2560 007a 49       		.uleb128 0x49
 2561 007b 13       		.uleb128 0x13
 2562 007c 2F       		.uleb128 0x2f
 2563 007d 0B       		.uleb128 0xb
 2564 007e 00       		.byte	0
 2565 007f 00       		.byte	0
ARM GAS  C:\Users\DEVELO~1\AppData\Local\Temp\ccqM33Ed.s 			page 46


 2566 0080 09       		.uleb128 0x9
 2567 0081 16       		.uleb128 0x16
 2568 0082 00       		.byte	0
 2569 0083 03       		.uleb128 0x3
 2570 0084 0E       		.uleb128 0xe
 2571 0085 3A       		.uleb128 0x3a
 2572 0086 21       		.uleb128 0x21
 2573 0087 05       		.sleb128 5
 2574 0088 3B       		.uleb128 0x3b
 2575 0089 05       		.uleb128 0x5
 2576 008a 39       		.uleb128 0x39
 2577 008b 21       		.uleb128 0x21
 2578 008c 03       		.sleb128 3
 2579 008d 49       		.uleb128 0x49
 2580 008e 13       		.uleb128 0x13
 2581 008f 00       		.byte	0
 2582 0090 00       		.byte	0
 2583 0091 0A       		.uleb128 0xa
 2584 0092 34       		.uleb128 0x34
 2585 0093 00       		.byte	0
 2586 0094 03       		.uleb128 0x3
 2587 0095 0E       		.uleb128 0xe
 2588 0096 3A       		.uleb128 0x3a
 2589 0097 21       		.uleb128 0x21
 2590 0098 02       		.sleb128 2
 2591 0099 3B       		.uleb128 0x3b
 2592 009a 05       		.uleb128 0x5
 2593 009b 39       		.uleb128 0x39
 2594 009c 21       		.uleb128 0x21
 2595 009d 0E       		.sleb128 14
 2596 009e 49       		.uleb128 0x49
 2597 009f 13       		.uleb128 0x13
 2598 00a0 02       		.uleb128 0x2
 2599 00a1 18       		.uleb128 0x18
 2600 00a2 00       		.byte	0
 2601 00a3 00       		.byte	0
 2602 00a4 0B       		.uleb128 0xb
 2603 00a5 16       		.uleb128 0x16
 2604 00a6 00       		.byte	0
 2605 00a7 03       		.uleb128 0x3
 2606 00a8 0E       		.uleb128 0xe
 2607 00a9 3A       		.uleb128 0x3a
 2608 00aa 0B       		.uleb128 0xb
 2609 00ab 3B       		.uleb128 0x3b
 2610 00ac 0B       		.uleb128 0xb
 2611 00ad 39       		.uleb128 0x39
 2612 00ae 0B       		.uleb128 0xb
 2613 00af 49       		.uleb128 0x49
 2614 00b0 13       		.uleb128 0x13
 2615 00b1 00       		.byte	0
 2616 00b2 00       		.byte	0
 2617 00b3 0C       		.uleb128 0xc
 2618 00b4 13       		.uleb128 0x13
 2619 00b5 01       		.byte	0x1
 2620 00b6 0B       		.uleb128 0xb
 2621 00b7 05       		.uleb128 0x5
 2622 00b8 3A       		.uleb128 0x3a
ARM GAS  C:\Users\DEVELO~1\AppData\Local\Temp\ccqM33Ed.s 			page 47


 2623 00b9 21       		.uleb128 0x21
 2624 00ba 05       		.sleb128 5
 2625 00bb 3B       		.uleb128 0x3b
 2626 00bc 05       		.uleb128 0x5
 2627 00bd 39       		.uleb128 0x39
 2628 00be 21       		.uleb128 0x21
 2629 00bf 09       		.sleb128 9
 2630 00c0 01       		.uleb128 0x1
 2631 00c1 13       		.uleb128 0x13
 2632 00c2 00       		.byte	0
 2633 00c3 00       		.byte	0
 2634 00c4 0D       		.uleb128 0xd
 2635 00c5 0D       		.uleb128 0xd
 2636 00c6 00       		.byte	0
 2637 00c7 03       		.uleb128 0x3
 2638 00c8 08       		.uleb128 0x8
 2639 00c9 3A       		.uleb128 0x3a
 2640 00ca 21       		.uleb128 0x21
 2641 00cb 05       		.sleb128 5
 2642 00cc 3B       		.uleb128 0x3b
 2643 00cd 05       		.uleb128 0x5
 2644 00ce 39       		.uleb128 0x39
 2645 00cf 21       		.uleb128 0x21
 2646 00d0 11       		.sleb128 17
 2647 00d1 49       		.uleb128 0x49
 2648 00d2 13       		.uleb128 0x13
 2649 00d3 38       		.uleb128 0x38
 2650 00d4 05       		.uleb128 0x5
 2651 00d5 00       		.byte	0
 2652 00d6 00       		.byte	0
 2653 00d7 0E       		.uleb128 0xe
 2654 00d8 2E       		.uleb128 0x2e
 2655 00d9 00       		.byte	0
 2656 00da 3F       		.uleb128 0x3f
 2657 00db 19       		.uleb128 0x19
 2658 00dc 03       		.uleb128 0x3
 2659 00dd 0E       		.uleb128 0xe
 2660 00de 3A       		.uleb128 0x3a
 2661 00df 0B       		.uleb128 0xb
 2662 00e0 3B       		.uleb128 0x3b
 2663 00e1 05       		.uleb128 0x5
 2664 00e2 39       		.uleb128 0x39
 2665 00e3 21       		.uleb128 0x21
 2666 00e4 08       		.sleb128 8
 2667 00e5 27       		.uleb128 0x27
 2668 00e6 19       		.uleb128 0x19
 2669 00e7 3C       		.uleb128 0x3c
 2670 00e8 19       		.uleb128 0x19
 2671 00e9 00       		.byte	0
 2672 00ea 00       		.byte	0
 2673 00eb 0F       		.uleb128 0xf
 2674 00ec 2E       		.uleb128 0x2e
 2675 00ed 00       		.byte	0
 2676 00ee 03       		.uleb128 0x3
 2677 00ef 0E       		.uleb128 0xe
 2678 00f0 3A       		.uleb128 0x3a
 2679 00f1 21       		.uleb128 0x21
ARM GAS  C:\Users\DEVELO~1\AppData\Local\Temp\ccqM33Ed.s 			page 48


 2680 00f2 02       		.sleb128 2
 2681 00f3 3B       		.uleb128 0x3b
 2682 00f4 0B       		.uleb128 0xb
 2683 00f5 39       		.uleb128 0x39
 2684 00f6 21       		.uleb128 0x21
 2685 00f7 14       		.sleb128 20
 2686 00f8 27       		.uleb128 0x27
 2687 00f9 19       		.uleb128 0x19
 2688 00fa 11       		.uleb128 0x11
 2689 00fb 01       		.uleb128 0x1
 2690 00fc 12       		.uleb128 0x12
 2691 00fd 06       		.uleb128 0x6
 2692 00fe 40       		.uleb128 0x40
 2693 00ff 18       		.uleb128 0x18
 2694 0100 7A       		.uleb128 0x7a
 2695 0101 19       		.uleb128 0x19
 2696 0102 00       		.byte	0
 2697 0103 00       		.byte	0
 2698 0104 10       		.uleb128 0x10
 2699 0105 2E       		.uleb128 0x2e
 2700 0106 01       		.byte	0x1
 2701 0107 03       		.uleb128 0x3
 2702 0108 0E       		.uleb128 0xe
 2703 0109 3A       		.uleb128 0x3a
 2704 010a 21       		.uleb128 0x21
 2705 010b 01       		.sleb128 1
 2706 010c 3B       		.uleb128 0x3b
 2707 010d 05       		.uleb128 0x5
 2708 010e 39       		.uleb128 0x39
 2709 010f 21       		.uleb128 0x21
 2710 0110 16       		.sleb128 22
 2711 0111 27       		.uleb128 0x27
 2712 0112 19       		.uleb128 0x19
 2713 0113 11       		.uleb128 0x11
 2714 0114 01       		.uleb128 0x1
 2715 0115 12       		.uleb128 0x12
 2716 0116 06       		.uleb128 0x6
 2717 0117 40       		.uleb128 0x40
 2718 0118 18       		.uleb128 0x18
 2719 0119 7A       		.uleb128 0x7a
 2720 011a 19       		.uleb128 0x19
 2721 011b 01       		.uleb128 0x1
 2722 011c 13       		.uleb128 0x13
 2723 011d 00       		.byte	0
 2724 011e 00       		.byte	0
 2725 011f 11       		.uleb128 0x11
 2726 0120 05       		.uleb128 0x5
 2727 0121 00       		.byte	0
 2728 0122 03       		.uleb128 0x3
 2729 0123 0E       		.uleb128 0xe
 2730 0124 3A       		.uleb128 0x3a
 2731 0125 21       		.uleb128 0x21
 2732 0126 01       		.sleb128 1
 2733 0127 3B       		.uleb128 0x3b
 2734 0128 05       		.uleb128 0x5
 2735 0129 39       		.uleb128 0x39
 2736 012a 21       		.uleb128 0x21
ARM GAS  C:\Users\DEVELO~1\AppData\Local\Temp\ccqM33Ed.s 			page 49


 2737 012b 2D       		.sleb128 45
 2738 012c 49       		.uleb128 0x49
 2739 012d 13       		.uleb128 0x13
 2740 012e 02       		.uleb128 0x2
 2741 012f 18       		.uleb128 0x18
 2742 0130 00       		.byte	0
 2743 0131 00       		.byte	0
 2744 0132 12       		.uleb128 0x12
 2745 0133 05       		.uleb128 0x5
 2746 0134 00       		.byte	0
 2747 0135 03       		.uleb128 0x3
 2748 0136 08       		.uleb128 0x8
 2749 0137 3A       		.uleb128 0x3a
 2750 0138 21       		.uleb128 0x21
 2751 0139 01       		.sleb128 1
 2752 013a 3B       		.uleb128 0x3b
 2753 013b 05       		.uleb128 0x5
 2754 013c 39       		.uleb128 0x39
 2755 013d 21       		.uleb128 0x21
 2756 013e 38       		.sleb128 56
 2757 013f 49       		.uleb128 0x49
 2758 0140 13       		.uleb128 0x13
 2759 0141 02       		.uleb128 0x2
 2760 0142 18       		.uleb128 0x18
 2761 0143 00       		.byte	0
 2762 0144 00       		.byte	0
 2763 0145 13       		.uleb128 0x13
 2764 0146 11       		.uleb128 0x11
 2765 0147 01       		.byte	0x1
 2766 0148 25       		.uleb128 0x25
 2767 0149 0E       		.uleb128 0xe
 2768 014a 13       		.uleb128 0x13
 2769 014b 0B       		.uleb128 0xb
 2770 014c 03       		.uleb128 0x3
 2771 014d 0E       		.uleb128 0xe
 2772 014e 1B       		.uleb128 0x1b
 2773 014f 0E       		.uleb128 0xe
 2774 0150 55       		.uleb128 0x55
 2775 0151 17       		.uleb128 0x17
 2776 0152 11       		.uleb128 0x11
 2777 0153 01       		.uleb128 0x1
 2778 0154 10       		.uleb128 0x10
 2779 0155 17       		.uleb128 0x17
 2780 0156 00       		.byte	0
 2781 0157 00       		.byte	0
 2782 0158 14       		.uleb128 0x14
 2783 0159 24       		.uleb128 0x24
 2784 015a 00       		.byte	0
 2785 015b 0B       		.uleb128 0xb
 2786 015c 0B       		.uleb128 0xb
 2787 015d 3E       		.uleb128 0x3e
 2788 015e 0B       		.uleb128 0xb
 2789 015f 03       		.uleb128 0x3
 2790 0160 08       		.uleb128 0x8
 2791 0161 00       		.byte	0
 2792 0162 00       		.byte	0
 2793 0163 15       		.uleb128 0x15
ARM GAS  C:\Users\DEVELO~1\AppData\Local\Temp\ccqM33Ed.s 			page 50


 2794 0164 35       		.uleb128 0x35
 2795 0165 00       		.byte	0
 2796 0166 49       		.uleb128 0x49
 2797 0167 13       		.uleb128 0x13
 2798 0168 00       		.byte	0
 2799 0169 00       		.byte	0
 2800 016a 16       		.uleb128 0x16
 2801 016b 34       		.uleb128 0x34
 2802 016c 00       		.byte	0
 2803 016d 03       		.uleb128 0x3
 2804 016e 0E       		.uleb128 0xe
 2805 016f 3A       		.uleb128 0x3a
 2806 0170 0B       		.uleb128 0xb
 2807 0171 3B       		.uleb128 0x3b
 2808 0172 0B       		.uleb128 0xb
 2809 0173 39       		.uleb128 0x39
 2810 0174 0B       		.uleb128 0xb
 2811 0175 49       		.uleb128 0x49
 2812 0176 13       		.uleb128 0x13
 2813 0177 3F       		.uleb128 0x3f
 2814 0178 19       		.uleb128 0x19
 2815 0179 3C       		.uleb128 0x3c
 2816 017a 19       		.uleb128 0x19
 2817 017b 00       		.byte	0
 2818 017c 00       		.byte	0
 2819 017d 17       		.uleb128 0x17
 2820 017e 13       		.uleb128 0x13
 2821 017f 01       		.byte	0x1
 2822 0180 0B       		.uleb128 0xb
 2823 0181 0B       		.uleb128 0xb
 2824 0182 3A       		.uleb128 0x3a
 2825 0183 0B       		.uleb128 0xb
 2826 0184 3B       		.uleb128 0x3b
 2827 0185 05       		.uleb128 0x5
 2828 0186 39       		.uleb128 0x39
 2829 0187 0B       		.uleb128 0xb
 2830 0188 01       		.uleb128 0x1
 2831 0189 13       		.uleb128 0x13
 2832 018a 00       		.byte	0
 2833 018b 00       		.byte	0
 2834 018c 18       		.uleb128 0x18
 2835 018d 34       		.uleb128 0x34
 2836 018e 00       		.byte	0
 2837 018f 47       		.uleb128 0x47
 2838 0190 13       		.uleb128 0x13
 2839 0191 3A       		.uleb128 0x3a
 2840 0192 0B       		.uleb128 0xb
 2841 0193 3B       		.uleb128 0x3b
 2842 0194 0B       		.uleb128 0xb
 2843 0195 39       		.uleb128 0x39
 2844 0196 0B       		.uleb128 0xb
 2845 0197 02       		.uleb128 0x2
 2846 0198 18       		.uleb128 0x18
 2847 0199 00       		.byte	0
 2848 019a 00       		.byte	0
 2849 019b 19       		.uleb128 0x19
 2850 019c 2E       		.uleb128 0x2e
ARM GAS  C:\Users\DEVELO~1\AppData\Local\Temp\ccqM33Ed.s 			page 51


 2851 019d 01       		.byte	0x1
 2852 019e 3F       		.uleb128 0x3f
 2853 019f 19       		.uleb128 0x19
 2854 01a0 03       		.uleb128 0x3
 2855 01a1 0E       		.uleb128 0xe
 2856 01a2 3A       		.uleb128 0x3a
 2857 01a3 0B       		.uleb128 0xb
 2858 01a4 3B       		.uleb128 0x3b
 2859 01a5 0B       		.uleb128 0xb
 2860 01a6 39       		.uleb128 0x39
 2861 01a7 0B       		.uleb128 0xb
 2862 01a8 27       		.uleb128 0x27
 2863 01a9 19       		.uleb128 0x19
 2864 01aa 11       		.uleb128 0x11
 2865 01ab 01       		.uleb128 0x1
 2866 01ac 12       		.uleb128 0x12
 2867 01ad 06       		.uleb128 0x6
 2868 01ae 40       		.uleb128 0x40
 2869 01af 18       		.uleb128 0x18
 2870 01b0 7C       		.uleb128 0x7c
 2871 01b1 19       		.uleb128 0x19
 2872 01b2 01       		.uleb128 0x1
 2873 01b3 13       		.uleb128 0x13
 2874 01b4 00       		.byte	0
 2875 01b5 00       		.byte	0
 2876 01b6 1A       		.uleb128 0x1a
 2877 01b7 34       		.uleb128 0x34
 2878 01b8 00       		.byte	0
 2879 01b9 03       		.uleb128 0x3
 2880 01ba 0E       		.uleb128 0xe
 2881 01bb 3A       		.uleb128 0x3a
 2882 01bc 0B       		.uleb128 0xb
 2883 01bd 3B       		.uleb128 0x3b
 2884 01be 0B       		.uleb128 0xb
 2885 01bf 39       		.uleb128 0x39
 2886 01c0 0B       		.uleb128 0xb
 2887 01c1 49       		.uleb128 0x49
 2888 01c2 13       		.uleb128 0x13
 2889 01c3 02       		.uleb128 0x2
 2890 01c4 18       		.uleb128 0x18
 2891 01c5 00       		.byte	0
 2892 01c6 00       		.byte	0
 2893 01c7 1B       		.uleb128 0x1b
 2894 01c8 0B       		.uleb128 0xb
 2895 01c9 01       		.byte	0x1
 2896 01ca 11       		.uleb128 0x11
 2897 01cb 01       		.uleb128 0x1
 2898 01cc 12       		.uleb128 0x12
 2899 01cd 06       		.uleb128 0x6
 2900 01ce 00       		.byte	0
 2901 01cf 00       		.byte	0
 2902 01d0 1C       		.uleb128 0x1c
 2903 01d1 2E       		.uleb128 0x2e
 2904 01d2 00       		.byte	0
 2905 01d3 3F       		.uleb128 0x3f
 2906 01d4 19       		.uleb128 0x19
 2907 01d5 03       		.uleb128 0x3
ARM GAS  C:\Users\DEVELO~1\AppData\Local\Temp\ccqM33Ed.s 			page 52


 2908 01d6 0E       		.uleb128 0xe
 2909 01d7 3A       		.uleb128 0x3a
 2910 01d8 0B       		.uleb128 0xb
 2911 01d9 3B       		.uleb128 0x3b
 2912 01da 0B       		.uleb128 0xb
 2913 01db 39       		.uleb128 0x39
 2914 01dc 0B       		.uleb128 0xb
 2915 01dd 27       		.uleb128 0x27
 2916 01de 19       		.uleb128 0x19
 2917 01df 11       		.uleb128 0x11
 2918 01e0 01       		.uleb128 0x1
 2919 01e1 12       		.uleb128 0x12
 2920 01e2 06       		.uleb128 0x6
 2921 01e3 40       		.uleb128 0x40
 2922 01e4 18       		.uleb128 0x18
 2923 01e5 7C       		.uleb128 0x7c
 2924 01e6 19       		.uleb128 0x19
 2925 01e7 00       		.byte	0
 2926 01e8 00       		.byte	0
 2927 01e9 1D       		.uleb128 0x1d
 2928 01ea 2E       		.uleb128 0x2e
 2929 01eb 01       		.byte	0x1
 2930 01ec 03       		.uleb128 0x3
 2931 01ed 0E       		.uleb128 0xe
 2932 01ee 3A       		.uleb128 0x3a
 2933 01ef 0B       		.uleb128 0xb
 2934 01f0 3B       		.uleb128 0x3b
 2935 01f1 0B       		.uleb128 0xb
 2936 01f2 39       		.uleb128 0x39
 2937 01f3 0B       		.uleb128 0xb
 2938 01f4 27       		.uleb128 0x27
 2939 01f5 19       		.uleb128 0x19
 2940 01f6 11       		.uleb128 0x11
 2941 01f7 01       		.uleb128 0x1
 2942 01f8 12       		.uleb128 0x12
 2943 01f9 06       		.uleb128 0x6
 2944 01fa 40       		.uleb128 0x40
 2945 01fb 18       		.uleb128 0x18
 2946 01fc 7A       		.uleb128 0x7a
 2947 01fd 19       		.uleb128 0x19
 2948 01fe 00       		.byte	0
 2949 01ff 00       		.byte	0
 2950 0200 00       		.byte	0
 2951              		.section	.debug_aranges,"",%progbits
 2952 0000 8C000000 		.4byte	0x8c
 2953 0004 0200     		.2byte	0x2
 2954 0006 00000000 		.4byte	.Ldebug_info0
 2955 000a 04       		.byte	0x4
 2956 000b 00       		.byte	0
 2957 000c 0000     		.2byte	0
 2958 000e 0000     		.2byte	0
 2959 0010 00000000 		.4byte	.LFB379
 2960 0014 40000000 		.4byte	.LFE379-.LFB379
 2961 0018 00000000 		.4byte	.LFB380
 2962 001c 40000000 		.4byte	.LFE380-.LFB380
 2963 0020 00000000 		.4byte	.LFB381
 2964 0024 40000000 		.4byte	.LFE381-.LFB381
ARM GAS  C:\Users\DEVELO~1\AppData\Local\Temp\ccqM33Ed.s 			page 53


 2965 0028 00000000 		.4byte	.LFB382
 2966 002c 40000000 		.4byte	.LFE382-.LFB382
 2967 0030 00000000 		.4byte	.LFB383
 2968 0034 40000000 		.4byte	.LFE383-.LFB383
 2969 0038 00000000 		.4byte	.LFB384
 2970 003c 40000000 		.4byte	.LFE384-.LFB384
 2971 0040 00000000 		.4byte	.LFB385
 2972 0044 40000000 		.4byte	.LFE385-.LFB385
 2973 0048 00000000 		.4byte	.LFB386
 2974 004c 34000000 		.4byte	.LFE386-.LFB386
 2975 0050 00000000 		.4byte	.LFB387
 2976 0054 40000000 		.4byte	.LFE387-.LFB387
 2977 0058 00000000 		.4byte	.LFB400
 2978 005c 5C000000 		.4byte	.LFE400-.LFB400
 2979 0060 00000000 		.4byte	.LFB406
 2980 0064 5C000000 		.4byte	.LFE406-.LFB406
 2981 0068 00000000 		.4byte	.LFB432
 2982 006c 3C000000 		.4byte	.LFE432-.LFB432
 2983 0070 00000000 		.4byte	.LFB433
 2984 0074 5C000000 		.4byte	.LFE433-.LFB433
 2985 0078 00000000 		.4byte	.LFB434
 2986 007c 5C000000 		.4byte	.LFE434-.LFB434
 2987 0080 00000000 		.4byte	.LFB435
 2988 0084 18020000 		.4byte	.LFE435-.LFB435
 2989 0088 00000000 		.4byte	0
 2990 008c 00000000 		.4byte	0
 2991              		.section	.debug_rnglists,"",%progbits
 2992              	.Ldebug_ranges0:
 2993 0000 64000000 		.4byte	.Ldebug_ranges3-.Ldebug_ranges2
 2994              	.Ldebug_ranges2:
 2995 0004 0500     		.2byte	0x5
 2996 0006 04       		.byte	0x4
 2997 0007 00       		.byte	0
 2998 0008 00000000 		.4byte	0
 2999              	.LLRL0:
 3000 000c 07       		.byte	0x7
 3001 000d 00000000 		.4byte	.LFB379
 3002 0011 40       		.uleb128 .LFE379-.LFB379
 3003 0012 07       		.byte	0x7
 3004 0013 00000000 		.4byte	.LFB380
 3005 0017 40       		.uleb128 .LFE380-.LFB380
 3006 0018 07       		.byte	0x7
 3007 0019 00000000 		.4byte	.LFB381
 3008 001d 40       		.uleb128 .LFE381-.LFB381
 3009 001e 07       		.byte	0x7
 3010 001f 00000000 		.4byte	.LFB382
 3011 0023 40       		.uleb128 .LFE382-.LFB382
 3012 0024 07       		.byte	0x7
 3013 0025 00000000 		.4byte	.LFB383
 3014 0029 40       		.uleb128 .LFE383-.LFB383
 3015 002a 07       		.byte	0x7
 3016 002b 00000000 		.4byte	.LFB384
 3017 002f 40       		.uleb128 .LFE384-.LFB384
 3018 0030 07       		.byte	0x7
 3019 0031 00000000 		.4byte	.LFB385
 3020 0035 40       		.uleb128 .LFE385-.LFB385
 3021 0036 07       		.byte	0x7
ARM GAS  C:\Users\DEVELO~1\AppData\Local\Temp\ccqM33Ed.s 			page 54


 3022 0037 00000000 		.4byte	.LFB386
 3023 003b 34       		.uleb128 .LFE386-.LFB386
 3024 003c 07       		.byte	0x7
 3025 003d 00000000 		.4byte	.LFB387
 3026 0041 40       		.uleb128 .LFE387-.LFB387
 3027 0042 07       		.byte	0x7
 3028 0043 00000000 		.4byte	.LFB400
 3029 0047 5C       		.uleb128 .LFE400-.LFB400
 3030 0048 07       		.byte	0x7
 3031 0049 00000000 		.4byte	.LFB406
 3032 004d 5C       		.uleb128 .LFE406-.LFB406
 3033 004e 07       		.byte	0x7
 3034 004f 00000000 		.4byte	.LFB432
 3035 0053 3C       		.uleb128 .LFE432-.LFB432
 3036 0054 07       		.byte	0x7
 3037 0055 00000000 		.4byte	.LFB433
 3038 0059 5C       		.uleb128 .LFE433-.LFB433
 3039 005a 07       		.byte	0x7
 3040 005b 00000000 		.4byte	.LFB434
 3041 005f 5C       		.uleb128 .LFE434-.LFB434
 3042 0060 07       		.byte	0x7
 3043 0061 00000000 		.4byte	.LFB435
 3044 0065 9804     		.uleb128 .LFE435-.LFB435
 3045 0067 00       		.byte	0
 3046              	.Ldebug_ranges3:
 3047              		.section	.debug_line,"",%progbits
 3048              	.Ldebug_line0:
 3049 0000 AC050000 		.section	.debug_str,"MS",%progbits,1
 3049      0300AF01 
 3049      00000201 
 3049      FB0E0D00 
 3049      01010101 
 3050              	.LASF142:
 3051 0000 68616C5F 		.ascii	"hal_lld_init\000"
 3051      6C6C645F 
 3051      696E6974 
 3051      00
 3052              	.LASF68:
 3053 000d 504C4C31 		.ascii	"PLL1DIVR\000"
 3053      44495652 
 3053      00
 3054              	.LASF56:
 3055 0016 574B5550 		.ascii	"WKUPFR\000"
 3055      465200
 3056              	.LASF3:
 3057 001d 7369676E 		.ascii	"signed char\000"
 3057      65642063 
 3057      68617200 
 3058              	.LASF112:
 3059 0029 41504231 		.ascii	"APB1HLPENR\000"
 3059      484C5045 
 3059      4E5200
 3060              	.LASF7:
 3061 0034 6C6F6E67 		.ascii	"long int\000"
 3061      20696E74 
 3061      00
 3062              	.LASF16:
ARM GAS  C:\Users\DEVELO~1\AppData\Local\Temp\ccqM33Ed.s 			page 55


 3063 003d 4F505443 		.ascii	"OPTCR\000"
 3063      5200
 3064              	.LASF21:
 3065 0043 50524152 		.ascii	"PRAR_PRG1\000"
 3065      5F505247 
 3065      3100
 3066              	.LASF40:
 3067 004d 50524152 		.ascii	"PRAR_PRG2\000"
 3067      5F505247 
 3067      3200
 3068              	.LASF138:
 3069 0057 2E2E2F2E 		.ascii	"../../../os/hal/ports/STM32/STM32H7xx/hal_lld.c\000"
 3069      2E2F2E2E 
 3069      2F6F732F 
 3069      68616C2F 
 3069      706F7274 
 3070              	.LASF135:
 3071 0087 5F5F7263 		.ascii	"__rccResetAPB2\000"
 3071      63526573 
 3071      65744150 
 3071      423200
 3072              	.LASF94:
 3073 0096 4433414D 		.ascii	"D3AMR\000"
 3073      5200
 3074              	.LASF133:
 3075 009c 5F5F7263 		.ascii	"__rccResetAPB4\000"
 3075      63526573 
 3075      65744150 
 3075      423400
 3076              	.LASF107:
 3077 00ab 41484231 		.ascii	"AHB1LPENR\000"
 3077      4C50454E 
 3077      5200
 3078              	.LASF78:
 3079 00b5 43494552 		.ascii	"CIER\000"
 3079      00
 3080              	.LASF87:
 3081 00ba 41484234 		.ascii	"AHB4RSTR\000"
 3081      52535452 
 3081      00
 3082              	.LASF1:
 3083 00c3 6C6F6E67 		.ascii	"long long int\000"
 3083      206C6F6E 
 3083      6720696E 
 3083      7400
 3084              	.LASF26:
 3085 00d1 424F4F54 		.ascii	"BOOT_CUR\000"
 3085      5F435552 
 3085      00
 3086              	.LASF55:
 3087 00da 574B5550 		.ascii	"WKUPCR\000"
 3087      435200
 3088              	.LASF121:
 3089 00e1 6F6E6D61 		.ascii	"onmask\000"
 3089      736B00
 3090              	.LASF51:
 3091 00e8 464C4153 		.ascii	"FLASH_TypeDef\000"
ARM GAS  C:\Users\DEVELO~1\AppData\Local\Temp\ccqM33Ed.s 			page 56


 3091      485F5479 
 3091      70654465 
 3091      6600
 3092              	.LASF9:
 3093 00f6 6C6F6E67 		.ascii	"long long unsigned int\000"
 3093      206C6F6E 
 3093      6720756E 
 3093      7369676E 
 3093      65642069 
 3094              	.LASF19:
 3095 010d 4F505443 		.ascii	"OPTCCR\000"
 3095      435200
 3096              	.LASF95:
 3097 0114 52455345 		.ascii	"RESERVED11\000"
 3097      52564544 
 3097      313100
 3098              	.LASF105:
 3099 011f 52455345 		.ascii	"RESERVED12\000"
 3099      52564544 
 3099      313200
 3100              	.LASF115:
 3101 012a 52455345 		.ascii	"RESERVED13\000"
 3101      52564544 
 3101      313300
 3102              	.LASF49:
 3103 0135 43524344 		.ascii	"CRCDATA2\000"
 3103      41544132 
 3103      00
 3104              	.LASF69:
 3105 013e 504C4C31 		.ascii	"PLL1FRACR\000"
 3105      46524143 
 3105      5200
 3106              	.LASF91:
 3107 0148 41504232 		.ascii	"APB2RSTR\000"
 3107      52535452 
 3107      00
 3108              	.LASF125:
 3109 0151 696E6974 		.ascii	"init_bkp_domain\000"
 3109      5F626B70 
 3109      5F646F6D 
 3109      61696E00 
 3110              	.LASF32:
 3111 0161 43524344 		.ascii	"CRCDATA\000"
 3111      41544100 
 3112              	.LASF14:
 3113 0169 4F50544B 		.ascii	"OPTKEYR\000"
 3113      45595200 
 3114              	.LASF22:
 3115 0171 53434152 		.ascii	"SCAR_CUR1\000"
 3115      5F435552 
 3115      3100
 3116              	.LASF123:
 3117 017b 6366676D 		.ascii	"cfgmask\000"
 3117      61736B00 
 3118              	.LASF41:
 3119 0183 53434152 		.ascii	"SCAR_CUR2\000"
 3119      5F435552 
ARM GAS  C:\Users\DEVELO~1\AppData\Local\Temp\ccqM33Ed.s 			page 57


 3119      3200
 3120              	.LASF65:
 3121 018d 44334346 		.ascii	"D3CFGR\000"
 3121      475200
 3122              	.LASF67:
 3123 0194 504C4C43 		.ascii	"PLLCFGR\000"
 3123      46475200 
 3124              	.LASF60:
 3125 019c 43525243 		.ascii	"CRRCR\000"
 3125      5200
 3126              	.LASF79:
 3127 01a2 43494652 		.ascii	"CIFR\000"
 3127      00
 3128              	.LASF72:
 3129 01a7 504C4C33 		.ascii	"PLL3DIVR\000"
 3129      44495652 
 3129      00
 3130              	.LASF10:
 3131 01b0 5F5F7569 		.ascii	"__uint32_t\000"
 3131      6E743332 
 3131      5F7400
 3132              	.LASF126:
 3133 01bb 6D61736B 		.ascii	"mask\000"
 3133      00
 3134              	.LASF75:
 3135 01c0 44324343 		.ascii	"D2CCIP1R\000"
 3135      49503152 
 3135      00
 3136              	.LASF77:
 3137 01c9 44334343 		.ascii	"D3CCIPR\000"
 3137      49505200 
 3138              	.LASF141:
 3139 01d1 73746D33 		.ascii	"stm32_clock_init\000"
 3139      325F636C 
 3139      6F636B5F 
 3139      696E6974 
 3139      00
 3140              	.LASF71:
 3141 01e2 504C4C32 		.ascii	"PLL2FRACR\000"
 3141      46524143 
 3141      5200
 3142              	.LASF0:
 3143 01ec 756E7369 		.ascii	"unsigned int\000"
 3143      676E6564 
 3143      20696E74 
 3143      00
 3144              	.LASF57:
 3145 01f9 574B5550 		.ascii	"WKUPEPR\000"
 3145      45505200 
 3146              	.LASF140:
 3147 0201 53797374 		.ascii	"SystemCoreClock\000"
 3147      656D436F 
 3147      7265436C 
 3147      6F636B00 
 3148              	.LASF8:
 3149 0211 6C6F6E67 		.ascii	"long unsigned int\000"
 3149      20756E73 
ARM GAS  C:\Users\DEVELO~1\AppData\Local\Temp\ccqM33Ed.s 			page 58


 3149      69676E65 
 3149      6420696E 
 3149      7400
 3150              	.LASF53:
 3151 0223 43505543 		.ascii	"CPUCR\000"
 3151      5200
 3152              	.LASF116:
 3153 0229 5243435F 		.ascii	"RCC_TypeDef\000"
 3153      54797065 
 3153      44656600 
 3154              	.LASF27:
 3155 0235 424F4F54 		.ascii	"BOOT_PRG\000"
 3155      5F505247 
 3155      00
 3156              	.LASF6:
 3157 023e 73686F72 		.ascii	"short unsigned int\000"
 3157      7420756E 
 3157      7369676E 
 3157      65642069 
 3157      6E7400
 3158              	.LASF66:
 3159 0251 504C4C43 		.ascii	"PLLCKSELR\000"
 3159      4B53454C 
 3159      5200
 3160              	.LASF59:
 3161 025b 48534943 		.ascii	"HSICFGR\000"
 3161      46475200 
 3162              	.LASF137:
 3163 0263 474E5520 		.ascii	"GNU C17 11.3.1 20220712 -mcpu=cortex-m7 -mthumb -mf"
 3163      43313720 
 3163      31312E33 
 3163      2E312032 
 3163      30323230 
 3164 0296 6C6F6174 		.ascii	"loat-abi=soft -march=armv7e-m -ggdb -O0 -ffunction-"
 3164      2D616269 
 3164      3D736F66 
 3164      74202D6D 
 3164      61726368 
 3165 02c9 73656374 		.ascii	"sections -fdata-sections -fno-common\000"
 3165      696F6E73 
 3165      202D6664 
 3165      6174612D 
 3165      73656374 
 3166              	.LASF84:
 3167 02ee 41484233 		.ascii	"AHB3RSTR\000"
 3167      52535452 
 3167      00
 3168              	.LASF102:
 3169 02f7 41504231 		.ascii	"APB1HENR\000"
 3169      48454E52 
 3169      00
 3170              	.LASF76:
 3171 0300 44324343 		.ascii	"D2CCIP2R\000"
 3171      49503252 
 3171      00
 3172              	.LASF20:
 3173 0309 50524152 		.ascii	"PRAR_CUR1\000"
ARM GAS  C:\Users\DEVELO~1\AppData\Local\Temp\ccqM33Ed.s 			page 59


 3173      5F435552 
 3173      3100
 3174              	.LASF39:
 3175 0313 50524152 		.ascii	"PRAR_CUR2\000"
 3175      5F435552 
 3175      3200
 3176              	.LASF89:
 3177 031d 41504231 		.ascii	"APB1LRSTR\000"
 3177      4C525354 
 3177      5200
 3178              	.LASF113:
 3179 0327 41504232 		.ascii	"APB2LPENR\000"
 3179      4C50454E 
 3179      5200
 3180              	.LASF73:
 3181 0331 504C4C33 		.ascii	"PLL3FRACR\000"
 3181      46524143 
 3181      5200
 3182              	.LASF92:
 3183 033b 41504234 		.ascii	"APB4RSTR\000"
 3183      52535452 
 3183      00
 3184              	.LASF58:
 3185 0344 5057525F 		.ascii	"PWR_TypeDef\000"
 3185      54797065 
 3185      44656600 
 3186              	.LASF23:
 3187 0350 53434152 		.ascii	"SCAR_PRG1\000"
 3187      5F505247 
 3187      3100
 3188              	.LASF42:
 3189 035a 53434152 		.ascii	"SCAR_PRG2\000"
 3189      5F505247 
 3189      3200
 3190              	.LASF104:
 3191 0364 41504234 		.ascii	"APB4ENR\000"
 3191      454E5200 
 3192              	.LASF128:
 3193 036c 72636345 		.ascii	"rccEnableAPB4\000"
 3193      6E61626C 
 3193      65415042 
 3193      3400
 3194              	.LASF25:
 3195 037a 5750534E 		.ascii	"WPSN_PRG1\000"
 3195      5F505247 
 3195      3100
 3196              	.LASF44:
 3197 0384 5750534E 		.ascii	"WPSN_PRG2\000"
 3197      5F505247 
 3197      3200
 3198              	.LASF31:
 3199 038e 43524345 		.ascii	"CRCEADD1\000"
 3199      41444431 
 3199      00
 3200              	.LASF48:
 3201 0397 43524345 		.ascii	"CRCEADD2\000"
 3201      41444432 
ARM GAS  C:\Users\DEVELO~1\AppData\Local\Temp\ccqM33Ed.s 			page 60


 3201      00
 3202              	.LASF124:
 3203 03a0 696E6974 		.ascii	"init_pwr\000"
 3203      5F707772 
 3203      00
 3204              	.LASF90:
 3205 03a9 41504231 		.ascii	"APB1HRSTR\000"
 3205      48525354 
 3205      5200
 3206              	.LASF29:
 3207 03b3 43524343 		.ascii	"CRCCR1\000"
 3207      523100
 3208              	.LASF46:
 3209 03ba 43524343 		.ascii	"CRCCR2\000"
 3209      523200
 3210              	.LASF17:
 3211 03c1 4F505453 		.ascii	"OPTSR_CUR\000"
 3211      525F4355 
 3211      5200
 3212              	.LASF132:
 3213 03cb 5F5F7263 		.ascii	"__rccResetAHB1\000"
 3213      63526573 
 3213      65744148 
 3213      423100
 3214              	.LASF131:
 3215 03da 5F5F7263 		.ascii	"__rccResetAHB2\000"
 3215      63526573 
 3215      65744148 
 3215      423200
 3216              	.LASF130:
 3217 03e9 5F5F7263 		.ascii	"__rccResetAHB3\000"
 3217      63526573 
 3217      65744148 
 3217      423300
 3218              	.LASF129:
 3219 03f8 5F5F7263 		.ascii	"__rccResetAHB4\000"
 3219      63526573 
 3219      65744148 
 3219      423400
 3220              	.LASF108:
 3221 0407 41484232 		.ascii	"AHB2LPENR\000"
 3221      4C50454E 
 3221      5200
 3222              	.LASF110:
 3223 0411 41504233 		.ascii	"APB3LPENR\000"
 3223      4C50454E 
 3223      5200
 3224              	.LASF122:
 3225 041b 7264796D 		.ascii	"rdymask\000"
 3225      61736B00 
 3226              	.LASF100:
 3227 0423 41504233 		.ascii	"APB3ENR\000"
 3227      454E5200 
 3228              	.LASF118:
 3229 042b 69727149 		.ascii	"irqInit\000"
 3229      6E697400 
 3230              	.LASF99:
ARM GAS  C:\Users\DEVELO~1\AppData\Local\Temp\ccqM33Ed.s 			page 61


 3231 0433 41484234 		.ascii	"AHB4ENR\000"
 3231      454E5200 
 3232              	.LASF28:
 3233 043b 52455345 		.ascii	"RESERVED0\000"
 3233      52564544 
 3233      3000
 3234              	.LASF34:
 3235 0445 52455345 		.ascii	"RESERVED1\000"
 3235      52564544 
 3235      3100
 3236              	.LASF36:
 3237 044f 52455345 		.ascii	"RESERVED2\000"
 3237      52564544 
 3237      3200
 3238              	.LASF38:
 3239 0459 52455345 		.ascii	"RESERVED3\000"
 3239      52564544 
 3239      3300
 3240              	.LASF64:
 3241 0463 44324346 		.ascii	"D2CFGR\000"
 3241      475200
 3242              	.LASF81:
 3243 046a 52455345 		.ascii	"RESERVED5\000"
 3243      52564544 
 3243      3500
 3244              	.LASF83:
 3245 0474 52455345 		.ascii	"RESERVED6\000"
 3245      52564544 
 3245      3600
 3246              	.LASF93:
 3247 047e 52455345 		.ascii	"RESERVED8\000"
 3247      52564544 
 3247      3800
 3248              	.LASF117:
 3249 0488 5F426F6F 		.ascii	"_Bool\000"
 3249      6C00
 3250              	.LASF70:
 3251 048e 504C4C32 		.ascii	"PLL2DIVR\000"
 3251      44495652 
 3251      00
 3252              	.LASF4:
 3253 0497 756E7369 		.ascii	"unsigned char\000"
 3253      676E6564 
 3253      20636861 
 3253      7200
 3254              	.LASF5:
 3255 04a5 73686F72 		.ascii	"short int\000"
 3255      7420696E 
 3255      7400
 3256              	.LASF139:
 3257 04af 433A5C50 		.ascii	"C:\\PROJET\\ChibiOS project\\ChibiOS_21.11.4\\demos"
 3257      524F4A45 
 3257      545C4368 
 3257      6962694F 
 3257      53207072 
 3258 04de 5C53544D 		.ascii	"\\STM32\\RT-STM32H743ZI_REV_XY-NUCLEO144_Quartz8M\000"
 3258      33325C52 
ARM GAS  C:\Users\DEVELO~1\AppData\Local\Temp\ccqM33Ed.s 			page 62


 3258      542D5354 
 3258      4D333248 
 3258      3734335A 
 3259              	.LASF106:
 3260 050e 41484233 		.ascii	"AHB3LPENR\000"
 3260      4C50454E 
 3260      5200
 3261              	.LASF114:
 3262 0518 41504234 		.ascii	"APB4LPENR\000"
 3262      4C50454E 
 3262      5200
 3263              	.LASF33:
 3264 0522 4543435F 		.ascii	"ECC_FA1\000"
 3264      46413100 
 3265              	.LASF50:
 3266 052a 4543435F 		.ascii	"ECC_FA2\000"
 3266      46413200 
 3267              	.LASF103:
 3268 0532 41504232 		.ascii	"APB2ENR\000"
 3268      454E5200 
 3269              	.LASF96:
 3270 053a 41484233 		.ascii	"AHB3ENR\000"
 3270      454E5200 
 3271              	.LASF134:
 3272 0542 5F5F7263 		.ascii	"__rccResetAPB3\000"
 3272      63526573 
 3272      65744150 
 3272      423300
 3273              	.LASF45:
 3274 0551 52455345 		.ascii	"RESERVED4\000"
 3274      52564544 
 3274      3400
 3275              	.LASF11:
 3276 055b 75696E74 		.ascii	"uint32_t\000"
 3276      33325F74 
 3276      00
 3277              	.LASF54:
 3278 0564 44334352 		.ascii	"D3CR\000"
 3278      00
 3279              	.LASF74:
 3280 0569 44314343 		.ascii	"D1CCIPR\000"
 3280      49505200 
 3281              	.LASF119:
 3282 0571 646D6149 		.ascii	"dmaInit\000"
 3282      6E697400 
 3283              	.LASF2:
 3284 0579 6C6F6E67 		.ascii	"long double\000"
 3284      20646F75 
 3284      626C6500 
 3285              	.LASF12:
 3286 0585 63686172 		.ascii	"char\000"
 3286      00
 3287              	.LASF18:
 3288 058a 4F505453 		.ascii	"OPTSR_PRG\000"
 3288      525F5052 
 3288      4700
 3289              	.LASF86:
ARM GAS  C:\Users\DEVELO~1\AppData\Local\Temp\ccqM33Ed.s 			page 63


 3290 0594 41484232 		.ascii	"AHB2RSTR\000"
 3290      52535452 
 3290      00
 3291              	.LASF35:
 3292 059d 4B455952 		.ascii	"KEYR2\000"
 3292      3200
 3293              	.LASF109:
 3294 05a3 41484234 		.ascii	"AHB4LPENR\000"
 3294      4C50454E 
 3294      5200
 3295              	.LASF13:
 3296 05ad 4B455952 		.ascii	"KEYR1\000"
 3296      3100
 3297              	.LASF82:
 3298 05b3 42444352 		.ascii	"BDCR\000"
 3298      00
 3299              	.LASF98:
 3300 05b8 41484232 		.ascii	"AHB2ENR\000"
 3300      454E5200 
 3301              	.LASF88:
 3302 05c0 41504233 		.ascii	"APB3RSTR\000"
 3302      52535452 
 3302      00
 3303              	.LASF61:
 3304 05c9 43534943 		.ascii	"CSICFGR\000"
 3304      46475200 
 3305              	.LASF85:
 3306 05d1 41484231 		.ascii	"AHB1RSTR\000"
 3306      52535452 
 3306      00
 3307              	.LASF24:
 3308 05da 5750534E 		.ascii	"WPSN_CUR1\000"
 3308      5F435552 
 3308      3100
 3309              	.LASF43:
 3310 05e4 5750534E 		.ascii	"WPSN_CUR2\000"
 3310      5F435552 
 3310      3200
 3311              	.LASF111:
 3312 05ee 41504231 		.ascii	"APB1LLPENR\000"
 3312      4C4C5045 
 3312      4E5200
 3313              	.LASF15:
 3314 05f9 43435231 		.ascii	"CCR1\000"
 3314      00
 3315              	.LASF37:
 3316 05fe 43435232 		.ascii	"CCR2\000"
 3316      00
 3317              	.LASF80:
 3318 0603 43494352 		.ascii	"CICR\000"
 3318      00
 3319              	.LASF136:
 3320 0608 5F5F7263 		.ascii	"__rccResetAPB1H\000"
 3320      63526573 
 3320      65744150 
 3320      42314800 
 3321              	.LASF143:
ARM GAS  C:\Users\DEVELO~1\AppData\Local\Temp\ccqM33Ed.s 			page 64


 3322 0618 5F5F7263 		.ascii	"__rccResetAPB1L\000"
 3322      63526573 
 3322      65744150 
 3322      42314C00 
 3323              	.LASF30:
 3324 0628 43524353 		.ascii	"CRCSADD1\000"
 3324      41444431 
 3324      00
 3325              	.LASF47:
 3326 0631 43524353 		.ascii	"CRCSADD2\000"
 3326      41444432 
 3326      00
 3327              	.LASF120:
 3328 063a 63666772 		.ascii	"cfgr\000"
 3328      00
 3329              	.LASF97:
 3330 063f 41484231 		.ascii	"AHB1ENR\000"
 3330      454E5200 
 3331              	.LASF62:
 3332 0647 43464752 		.ascii	"CFGR\000"
 3332      00
 3333              	.LASF101:
 3334 064c 41504231 		.ascii	"APB1LENR\000"
 3334      4C454E52 
 3334      00
 3335              	.LASF52:
 3336 0655 43535231 		.ascii	"CSR1\000"
 3336      00
 3337              	.LASF127:
 3338 065a 72636345 		.ascii	"rccEnableAHB2\000"
 3338      6E61626C 
 3338      65414842 
 3338      3200
 3339              	.LASF63:
 3340 0668 44314346 		.ascii	"D1CFGR\000"
 3340      475200
 3341              		.ident	"GCC: (Arm GNU Toolchain 11.3.Rel1) 11.3.1 20220712"
ARM GAS  C:\Users\DEVELO~1\AppData\Local\Temp\ccqM33Ed.s 			page 65


DEFINED SYMBOLS
                            *ABS*:00000000 hal_lld.c
C:\Users\DEVELO~1\AppData\Local\Temp\ccqM33Ed.s:18     .text.__rccResetAPB1L:00000000 $t
C:\Users\DEVELO~1\AppData\Local\Temp\ccqM33Ed.s:23     .text.__rccResetAPB1L:00000000 __rccResetAPB1L
C:\Users\DEVELO~1\AppData\Local\Temp\ccqM33Ed.s:74     .text.__rccResetAPB1L:0000003c $d
C:\Users\DEVELO~1\AppData\Local\Temp\ccqM33Ed.s:79     .text.__rccResetAPB1H:00000000 $t
C:\Users\DEVELO~1\AppData\Local\Temp\ccqM33Ed.s:84     .text.__rccResetAPB1H:00000000 __rccResetAPB1H
C:\Users\DEVELO~1\AppData\Local\Temp\ccqM33Ed.s:134    .text.__rccResetAPB1H:0000003c $d
C:\Users\DEVELO~1\AppData\Local\Temp\ccqM33Ed.s:139    .text.__rccResetAPB2:00000000 $t
C:\Users\DEVELO~1\AppData\Local\Temp\ccqM33Ed.s:144    .text.__rccResetAPB2:00000000 __rccResetAPB2
C:\Users\DEVELO~1\AppData\Local\Temp\ccqM33Ed.s:194    .text.__rccResetAPB2:0000003c $d
C:\Users\DEVELO~1\AppData\Local\Temp\ccqM33Ed.s:199    .text.__rccResetAPB3:00000000 $t
C:\Users\DEVELO~1\AppData\Local\Temp\ccqM33Ed.s:204    .text.__rccResetAPB3:00000000 __rccResetAPB3
C:\Users\DEVELO~1\AppData\Local\Temp\ccqM33Ed.s:254    .text.__rccResetAPB3:0000003c $d
C:\Users\DEVELO~1\AppData\Local\Temp\ccqM33Ed.s:259    .text.__rccResetAPB4:00000000 $t
C:\Users\DEVELO~1\AppData\Local\Temp\ccqM33Ed.s:264    .text.__rccResetAPB4:00000000 __rccResetAPB4
C:\Users\DEVELO~1\AppData\Local\Temp\ccqM33Ed.s:314    .text.__rccResetAPB4:0000003c $d
C:\Users\DEVELO~1\AppData\Local\Temp\ccqM33Ed.s:319    .text.__rccResetAHB1:00000000 $t
C:\Users\DEVELO~1\AppData\Local\Temp\ccqM33Ed.s:324    .text.__rccResetAHB1:00000000 __rccResetAHB1
C:\Users\DEVELO~1\AppData\Local\Temp\ccqM33Ed.s:374    .text.__rccResetAHB1:0000003c $d
C:\Users\DEVELO~1\AppData\Local\Temp\ccqM33Ed.s:379    .text.__rccResetAHB2:00000000 $t
C:\Users\DEVELO~1\AppData\Local\Temp\ccqM33Ed.s:384    .text.__rccResetAHB2:00000000 __rccResetAHB2
C:\Users\DEVELO~1\AppData\Local\Temp\ccqM33Ed.s:434    .text.__rccResetAHB2:0000003c $d
C:\Users\DEVELO~1\AppData\Local\Temp\ccqM33Ed.s:439    .text.__rccResetAHB3:00000000 $t
C:\Users\DEVELO~1\AppData\Local\Temp\ccqM33Ed.s:444    .text.__rccResetAHB3:00000000 __rccResetAHB3
C:\Users\DEVELO~1\AppData\Local\Temp\ccqM33Ed.s:494    .text.__rccResetAHB3:00000030 $d
C:\Users\DEVELO~1\AppData\Local\Temp\ccqM33Ed.s:499    .text.__rccResetAHB4:00000000 $t
C:\Users\DEVELO~1\AppData\Local\Temp\ccqM33Ed.s:504    .text.__rccResetAHB4:00000000 __rccResetAHB4
C:\Users\DEVELO~1\AppData\Local\Temp\ccqM33Ed.s:554    .text.__rccResetAHB4:0000003c $d
C:\Users\DEVELO~1\AppData\Local\Temp\ccqM33Ed.s:559    .text.rccEnableAPB4:00000000 $t
C:\Users\DEVELO~1\AppData\Local\Temp\ccqM33Ed.s:564    .text.rccEnableAPB4:00000000 rccEnableAPB4
C:\Users\DEVELO~1\AppData\Local\Temp\ccqM33Ed.s:630    .text.rccEnableAPB4:00000058 $d
C:\Users\DEVELO~1\AppData\Local\Temp\ccqM33Ed.s:635    .text.rccEnableAHB2:00000000 $t
C:\Users\DEVELO~1\AppData\Local\Temp\ccqM33Ed.s:640    .text.rccEnableAHB2:00000000 rccEnableAHB2
C:\Users\DEVELO~1\AppData\Local\Temp\ccqM33Ed.s:706    .text.rccEnableAHB2:00000058 $d
C:\Users\DEVELO~1\AppData\Local\Temp\ccqM33Ed.s:715    .data.SystemCoreClock:00000000 SystemCoreClock
C:\Users\DEVELO~1\AppData\Local\Temp\ccqM33Ed.s:712    .data.SystemCoreClock:00000000 $d
C:\Users\DEVELO~1\AppData\Local\Temp\ccqM33Ed.s:718    .text.init_bkp_domain:00000000 $t
C:\Users\DEVELO~1\AppData\Local\Temp\ccqM33Ed.s:723    .text.init_bkp_domain:00000000 init_bkp_domain
C:\Users\DEVELO~1\AppData\Local\Temp\ccqM33Ed.s:773    .text.init_bkp_domain:00000034 $d
C:\Users\DEVELO~1\AppData\Local\Temp\ccqM33Ed.s:779    .text.init_pwr:00000000 $t
C:\Users\DEVELO~1\AppData\Local\Temp\ccqM33Ed.s:784    .text.init_pwr:00000000 init_pwr
C:\Users\DEVELO~1\AppData\Local\Temp\ccqM33Ed.s:861    .text.init_pwr:00000050 $d
C:\Users\DEVELO~1\AppData\Local\Temp\ccqM33Ed.s:868    .text.hal_lld_init:00000000 $t
C:\Users\DEVELO~1\AppData\Local\Temp\ccqM33Ed.s:874    .text.hal_lld_init:00000000 hal_lld_init
C:\Users\DEVELO~1\AppData\Local\Temp\ccqM33Ed.s:923    .text.hal_lld_init:00000054 $d
C:\Users\DEVELO~1\AppData\Local\Temp\ccqM33Ed.s:929    .text.stm32_clock_init:00000000 $t
C:\Users\DEVELO~1\AppData\Local\Temp\ccqM33Ed.s:935    .text.stm32_clock_init:00000000 stm32_clock_init
C:\Users\DEVELO~1\AppData\Local\Temp\ccqM33Ed.s:1274   .text.stm32_clock_init:000001f0 $d

UNDEFINED SYMBOLS
dmaInit
irqInit
