ARM GAS  C:\Users\DEVELO~1\AppData\Local\Temp\ccuIUkPb.s 			page 1


   1              		.cpu cortex-m7
   2              		.arch armv7e-m
   3              		.fpu softvfp
   4              		.eabi_attribute 20, 1
   5              		.eabi_attribute 21, 1
   6              		.eabi_attribute 23, 3
   7              		.eabi_attribute 24, 1
   8              		.eabi_attribute 25, 1
   9              		.eabi_attribute 26, 1
  10              		.eabi_attribute 30, 6
  11              		.eabi_attribute 34, 1
  12              		.eabi_attribute 18, 4
  13              		.file	"hal_fsmc.c"
  14              		.text
  15              	.Ltext0:
  16              		.cfi_sections	.debug_frame
  17              		.section	.text.__rccResetAHB3,"ax",%progbits
  18              		.align	1
  19              		.syntax unified
  20              		.thumb
  21              		.thumb_func
  22              		.type	__rccResetAHB3, %function
  23              	__rccResetAHB3:
  24              	.LFB386:
  25              		.file 1 "../../../os/hal/ports/STM32/STM32H7xx/stm32_rcc.h"
  26              		.loc 1 113 52
  27              		.cfi_startproc
  28              		@ args = 0, pretend = 0, frame = 8
  29              		@ frame_needed = 1, uses_anonymous_args = 0
  30              		@ link register save eliminated.
  31 0000 80B4     		push	{r7}
  32              		.cfi_def_cfa_offset 4
  33              		.cfi_offset 7, -4
  34 0002 83B0     		sub	sp, sp, #12
  35              		.cfi_def_cfa_offset 16
  36 0004 00AF     		add	r7, sp, #0
  37              		.cfi_def_cfa_register 7
  38 0006 7860     		str	r0, [r7, #4]
  39              		.loc 1 116 17
  40 0008 094B     		ldr	r3, .L2
  41 000a DA6F     		ldr	r2, [r3, #124]
  42 000c 0849     		ldr	r1, .L2
  43 000e 7B68     		ldr	r3, [r7, #4]
  44 0010 1343     		orrs	r3, r3, r2
  45 0012 CB67     		str	r3, [r1, #124]
  46              		.loc 1 117 17
  47 0014 064B     		ldr	r3, .L2
  48 0016 DA6F     		ldr	r2, [r3, #124]
  49              		.loc 1 117 20
  50 0018 7B68     		ldr	r3, [r7, #4]
  51 001a DB43     		mvns	r3, r3
  52              		.loc 1 117 17
  53 001c 0449     		ldr	r1, .L2
  54 001e 1340     		ands	r3, r3, r2
  55 0020 CB67     		str	r3, [r1, #124]
  56              		.loc 1 118 12
  57 0022 034B     		ldr	r3, .L2
ARM GAS  C:\Users\DEVELO~1\AppData\Local\Temp\ccuIUkPb.s 			page 2


  58              		.loc 1 118 3
  59 0024 DB6F     		ldr	r3, [r3, #124]
  60              		.loc 1 119 1
  61 0026 00BF     		nop
  62 0028 0C37     		adds	r7, r7, #12
  63              		.cfi_def_cfa_offset 4
  64 002a BD46     		mov	sp, r7
  65              		.cfi_def_cfa_register 13
  66              		@ sp needed
  67 002c 80BC     		pop	{r7}
  68              		.cfi_restore 7
  69              		.cfi_def_cfa_offset 0
  70 002e 7047     		bx	lr
  71              	.L3:
  72              		.align	2
  73              	.L2:
  74 0030 00440258 		.word	1476543488
  75              		.cfi_endproc
  76              	.LFE386:
  77              		.size	__rccResetAHB3, .-__rccResetAHB3
  78              		.section	.text.rccEnableAHB3,"ax",%progbits
  79              		.align	1
  80              		.syntax unified
  81              		.thumb
  82              		.thumb_func
  83              		.type	rccEnableAHB3, %function
  84              	rccEnableAHB3:
  85              	.LFB409:
  86              		.loc 1 764 60
  87              		.cfi_startproc
  88              		@ args = 0, pretend = 0, frame = 8
  89              		@ frame_needed = 1, uses_anonymous_args = 0
  90              		@ link register save eliminated.
  91 0000 80B4     		push	{r7}
  92              		.cfi_def_cfa_offset 4
  93              		.cfi_offset 7, -4
  94 0002 83B0     		sub	sp, sp, #12
  95              		.cfi_def_cfa_offset 16
  96 0004 00AF     		add	r7, sp, #0
  97              		.cfi_def_cfa_register 7
  98 0006 7860     		str	r0, [r7, #4]
  99 0008 0B46     		mov	r3, r1
 100 000a FB70     		strb	r3, [r7, #3]
 101              		.loc 1 768 19
 102 000c 124B     		ldr	r3, .L7
 103 000e D3F8D420 		ldr	r2, [r3, #212]
 104 0012 1149     		ldr	r1, .L7
 105 0014 7B68     		ldr	r3, [r7, #4]
 106 0016 1343     		orrs	r3, r3, r2
 107 0018 C1F8D430 		str	r3, [r1, #212]
 108              		.loc 1 769 6
 109 001c FB78     		ldrb	r3, [r7, #3]	@ zero_extendqisi2
 110 001e 002B     		cmp	r3, #0
 111 0020 08D0     		beq	.L5
 112              		.loc 1 770 23
 113 0022 0D4B     		ldr	r3, .L7
 114 0024 D3F8FC20 		ldr	r2, [r3, #252]
ARM GAS  C:\Users\DEVELO~1\AppData\Local\Temp\ccuIUkPb.s 			page 3


 115 0028 0B49     		ldr	r1, .L7
 116 002a 7B68     		ldr	r3, [r7, #4]
 117 002c 1343     		orrs	r3, r3, r2
 118 002e C1F8FC30 		str	r3, [r1, #252]
 119 0032 08E0     		b	.L6
 120              	.L5:
 121              		.loc 1 773 23
 122 0034 084B     		ldr	r3, .L7
 123 0036 D3F8FC20 		ldr	r2, [r3, #252]
 124              		.loc 1 773 26
 125 003a 7B68     		ldr	r3, [r7, #4]
 126 003c DB43     		mvns	r3, r3
 127              		.loc 1 773 23
 128 003e 0649     		ldr	r1, .L7
 129 0040 1340     		ands	r3, r3, r2
 130 0042 C1F8FC30 		str	r3, [r1, #252]
 131              	.L6:
 132              		.loc 1 775 15
 133 0046 044B     		ldr	r3, .L7
 134              		.loc 1 775 3
 135 0048 D3F8FC30 		ldr	r3, [r3, #252]
 136              		.loc 1 787 1
 137 004c 00BF     		nop
 138 004e 0C37     		adds	r7, r7, #12
 139              		.cfi_def_cfa_offset 4
 140 0050 BD46     		mov	sp, r7
 141              		.cfi_def_cfa_register 13
 142              		@ sp needed
 143 0052 80BC     		pop	{r7}
 144              		.cfi_restore 7
 145              		.cfi_def_cfa_offset 0
 146 0054 7047     		bx	lr
 147              	.L8:
 148 0056 00BF     		.align	2
 149              	.L7:
 150 0058 00440258 		.word	1476543488
 151              		.cfi_endproc
 152              	.LFE409:
 153              		.size	rccEnableAHB3, .-rccEnableAHB3
 154              		.section	.text.rccDisableAHB3,"ax",%progbits
 155              		.align	1
 156              		.syntax unified
 157              		.thumb
 158              		.thumb_func
 159              		.type	rccDisableAHB3, %function
 160              	rccDisableAHB3:
 161              	.LFB410:
 162              		.loc 1 796 52
 163              		.cfi_startproc
 164              		@ args = 0, pretend = 0, frame = 8
 165              		@ frame_needed = 1, uses_anonymous_args = 0
 166              		@ link register save eliminated.
 167 0000 80B4     		push	{r7}
 168              		.cfi_def_cfa_offset 4
 169              		.cfi_offset 7, -4
 170 0002 83B0     		sub	sp, sp, #12
 171              		.cfi_def_cfa_offset 16
ARM GAS  C:\Users\DEVELO~1\AppData\Local\Temp\ccuIUkPb.s 			page 4


 172 0004 00AF     		add	r7, sp, #0
 173              		.cfi_def_cfa_register 7
 174 0006 7860     		str	r0, [r7, #4]
 175              		.loc 1 806 19
 176 0008 0C4B     		ldr	r3, .L10
 177 000a D3F8D420 		ldr	r2, [r3, #212]
 178              		.loc 1 806 22
 179 000e 7B68     		ldr	r3, [r7, #4]
 180 0010 DB43     		mvns	r3, r3
 181              		.loc 1 806 19
 182 0012 0A49     		ldr	r1, .L10
 183 0014 1340     		ands	r3, r3, r2
 184 0016 C1F8D430 		str	r3, [r1, #212]
 185              		.loc 1 807 21
 186 001a 084B     		ldr	r3, .L10
 187 001c D3F8FC20 		ldr	r2, [r3, #252]
 188              		.loc 1 807 24
 189 0020 7B68     		ldr	r3, [r7, #4]
 190 0022 DB43     		mvns	r3, r3
 191              		.loc 1 807 21
 192 0024 0549     		ldr	r1, .L10
 193 0026 1340     		ands	r3, r3, r2
 194 0028 C1F8FC30 		str	r3, [r1, #252]
 195              		.loc 1 808 15
 196 002c 034B     		ldr	r3, .L10
 197              		.loc 1 808 3
 198 002e D3F8FC30 		ldr	r3, [r3, #252]
 199              		.loc 1 821 1
 200 0032 00BF     		nop
 201 0034 0C37     		adds	r7, r7, #12
 202              		.cfi_def_cfa_offset 4
 203 0036 BD46     		mov	sp, r7
 204              		.cfi_def_cfa_register 13
 205              		@ sp needed
 206 0038 80BC     		pop	{r7}
 207              		.cfi_restore 7
 208              		.cfi_def_cfa_offset 0
 209 003a 7047     		bx	lr
 210              	.L11:
 211              		.align	2
 212              	.L10:
 213 003c 00440258 		.word	1476543488
 214              		.cfi_endproc
 215              	.LFE410:
 216              		.size	rccDisableAHB3, .-rccDisableAHB3
 217              		.section	.text.rccResetAHB3,"ax",%progbits
 218              		.align	1
 219              		.syntax unified
 220              		.thumb
 221              		.thumb_func
 222              		.type	rccResetAHB3, %function
 223              	rccResetAHB3:
 224              	.LFB411:
 225              		.loc 1 830 50
 226              		.cfi_startproc
 227              		@ args = 0, pretend = 0, frame = 8
 228              		@ frame_needed = 1, uses_anonymous_args = 0
ARM GAS  C:\Users\DEVELO~1\AppData\Local\Temp\ccuIUkPb.s 			page 5


 229 0000 80B5     		push	{r7, lr}
 230              		.cfi_def_cfa_offset 8
 231              		.cfi_offset 7, -8
 232              		.cfi_offset 14, -4
 233 0002 82B0     		sub	sp, sp, #8
 234              		.cfi_def_cfa_offset 16
 235 0004 00AF     		add	r7, sp, #0
 236              		.cfi_def_cfa_register 7
 237 0006 7860     		str	r0, [r7, #4]
 238              		.loc 1 842 3
 239 0008 7868     		ldr	r0, [r7, #4]
 240 000a FFF7FEFF 		bl	__rccResetAHB3
 241              		.loc 1 843 1
 242 000e 00BF     		nop
 243 0010 0837     		adds	r7, r7, #8
 244              		.cfi_def_cfa_offset 8
 245 0012 BD46     		mov	sp, r7
 246              		.cfi_def_cfa_register 13
 247              		@ sp needed
 248 0014 80BD     		pop	{r7, pc}
 249              		.cfi_endproc
 250              	.LFE411:
 251              		.size	rccResetAHB3, .-rccResetAHB3
 252              		.global	FSMCD1
 253              		.section	.bss.FSMCD1,"aw",%nobits
 254              		.align	2
 255              		.type	FSMCD1, %object
 256              		.size	FSMCD1, 8
 257              	FSMCD1:
 258 0000 00000000 		.space	8
 258      00000000 
 259              		.section	.text.fsmcInit,"ax",%progbits
 260              		.align	1
 261              		.global	fsmcInit
 262              		.syntax unified
 263              		.thumb
 264              		.thumb_func
 265              		.type	fsmcInit, %function
 266              	fsmcInit:
 267              	.LFB432:
 268              		.file 2 "../../../ChibiOS-Contrib-chibios-21.11.x/os/hal/src/hal_fsmc.c"
 269              		.loc 2 70 21
 270              		.cfi_startproc
 271              		@ args = 0, pretend = 0, frame = 0
 272              		@ frame_needed = 1, uses_anonymous_args = 0
 273              		@ link register save eliminated.
 274 0000 80B4     		push	{r7}
 275              		.cfi_def_cfa_offset 4
 276              		.cfi_offset 7, -4
 277 0002 00AF     		add	r7, sp, #0
 278              		.cfi_def_cfa_register 7
 279              		.loc 2 72 13
 280 0004 064B     		ldr	r3, .L16
 281 0006 1B78     		ldrb	r3, [r3]	@ zero_extendqisi2
 282              		.loc 2 72 6
 283 0008 002B     		cmp	r3, #0
 284 000a 05D1     		bne	.L15
ARM GAS  C:\Users\DEVELO~1\AppData\Local\Temp\ccuIUkPb.s 			page 6


 285              		.loc 2 73 19
 286 000c 044B     		ldr	r3, .L16
 287 000e 0122     		movs	r2, #1
 288 0010 1A70     		strb	r2, [r3]
 289              		.loc 2 110 18
 290 0012 034B     		ldr	r3, .L16
 291 0014 034A     		ldr	r2, .L16+4
 292 0016 5A60     		str	r2, [r3, #4]
 293              	.L15:
 294              		.loc 2 115 1
 295 0018 00BF     		nop
 296 001a BD46     		mov	sp, r7
 297              		.cfi_def_cfa_register 13
 298              		@ sp needed
 299 001c 80BC     		pop	{r7}
 300              		.cfi_restore 7
 301              		.cfi_def_cfa_offset 0
 302 001e 7047     		bx	lr
 303              	.L17:
 304              		.align	2
 305              	.L16:
 306 0020 00000000 		.word	FSMCD1
 307 0024 40410052 		.word	1375748416
 308              		.cfi_endproc
 309              	.LFE432:
 310              		.size	fsmcInit, .-fsmcInit
 311              		.section	.text.fsmcStart,"ax",%progbits
 312              		.align	1
 313              		.global	fsmcStart
 314              		.syntax unified
 315              		.thumb
 316              		.thumb_func
 317              		.type	fsmcStart, %function
 318              	fsmcStart:
 319              	.LFB433:
 320              		.loc 2 124 35
 321              		.cfi_startproc
 322              		@ args = 0, pretend = 0, frame = 8
 323              		@ frame_needed = 1, uses_anonymous_args = 0
 324 0000 80B5     		push	{r7, lr}
 325              		.cfi_def_cfa_offset 8
 326              		.cfi_offset 7, -8
 327              		.cfi_offset 14, -4
 328 0002 82B0     		sub	sp, sp, #8
 329              		.cfi_def_cfa_offset 16
 330 0004 00AF     		add	r7, sp, #0
 331              		.cfi_def_cfa_register 7
 332 0006 7860     		str	r0, [r7, #4]
 333              		.loc 2 129 12
 334 0008 7B68     		ldr	r3, [r7, #4]
 335 000a 1B78     		ldrb	r3, [r3]	@ zero_extendqisi2
 336              		.loc 2 129 6
 337 000c 012B     		cmp	r3, #1
 338 000e 0FD1     		bne	.L21
 339              		.loc 2 132 8
 340 0010 7B68     		ldr	r3, [r7, #4]
 341 0012 094A     		ldr	r2, .L22
ARM GAS  C:\Users\DEVELO~1\AppData\Local\Temp\ccuIUkPb.s 			page 7


 342 0014 9342     		cmp	r3, r2
 343 0016 08D1     		bne	.L20
 344              		.loc 2 134 7
 345 0018 4FF48050 		mov	r0, #4096
 346 001c FFF7FEFF 		bl	rccResetAHB3
 347              		.loc 2 136 7
 348 0020 0021     		movs	r1, #0
 349 0022 4FF48050 		mov	r0, #4096
 350 0026 FFF7FEFF 		bl	rccEnableAHB3
 351              	.L20:
 352              		.loc 2 143 18
 353 002a 7B68     		ldr	r3, [r7, #4]
 354 002c 0222     		movs	r2, #2
 355 002e 1A70     		strb	r2, [r3]
 356              	.L21:
 357              		.loc 2 145 1
 358 0030 00BF     		nop
 359 0032 0837     		adds	r7, r7, #8
 360              		.cfi_def_cfa_offset 8
 361 0034 BD46     		mov	sp, r7
 362              		.cfi_def_cfa_register 13
 363              		@ sp needed
 364 0036 80BD     		pop	{r7, pc}
 365              	.L23:
 366              		.align	2
 367              	.L22:
 368 0038 00000000 		.word	FSMCD1
 369              		.cfi_endproc
 370              	.LFE433:
 371              		.size	fsmcStart, .-fsmcStart
 372              		.section	.text.fsmcStop,"ax",%progbits
 373              		.align	1
 374              		.global	fsmcStop
 375              		.syntax unified
 376              		.thumb
 377              		.thumb_func
 378              		.type	fsmcStop, %function
 379              	fsmcStop:
 380              	.LFB434:
 381              		.loc 2 154 34
 382              		.cfi_startproc
 383              		@ args = 0, pretend = 0, frame = 8
 384              		@ frame_needed = 1, uses_anonymous_args = 0
 385 0000 80B5     		push	{r7, lr}
 386              		.cfi_def_cfa_offset 8
 387              		.cfi_offset 7, -8
 388              		.cfi_offset 14, -4
 389 0002 82B0     		sub	sp, sp, #8
 390              		.cfi_def_cfa_offset 16
 391 0004 00AF     		add	r7, sp, #0
 392              		.cfi_def_cfa_register 7
 393 0006 7860     		str	r0, [r7, #4]
 394              		.loc 2 156 12
 395 0008 7B68     		ldr	r3, [r7, #4]
 396 000a 1B78     		ldrb	r3, [r3]	@ zero_extendqisi2
 397              		.loc 2 156 6
 398 000c 022B     		cmp	r3, #2
ARM GAS  C:\Users\DEVELO~1\AppData\Local\Temp\ccuIUkPb.s 			page 8


 399 000e 0ED1     		bne	.L27
 400              		.loc 2 159 5
 401 0010 4FF48050 		mov	r0, #4096
 402 0014 FFF7FEFF 		bl	rccResetAHB3
 403              		.loc 2 164 8
 404 0018 7B68     		ldr	r3, [r7, #4]
 405 001a 074A     		ldr	r2, .L28
 406 001c 9342     		cmp	r3, r2
 407 001e 03D1     		bne	.L26
 408              		.loc 2 168 7
 409 0020 4FF48050 		mov	r0, #4096
 410 0024 FFF7FEFF 		bl	rccDisableAHB3
 411              	.L26:
 412              		.loc 2 172 18
 413 0028 7B68     		ldr	r3, [r7, #4]
 414 002a 0122     		movs	r2, #1
 415 002c 1A70     		strb	r2, [r3]
 416              	.L27:
 417              		.loc 2 174 1
 418 002e 00BF     		nop
 419 0030 0837     		adds	r7, r7, #8
 420              		.cfi_def_cfa_offset 8
 421 0032 BD46     		mov	sp, r7
 422              		.cfi_def_cfa_register 13
 423              		@ sp needed
 424 0034 80BD     		pop	{r7, pc}
 425              	.L29:
 426 0036 00BF     		.align	2
 427              	.L28:
 428 0038 00000000 		.word	FSMCD1
 429              		.cfi_endproc
 430              	.LFE434:
 431              		.size	fsmcStop, .-fsmcStop
 432              		.section	.text.Vector100,"ax",%progbits
 433              		.align	1
 434              		.global	Vector100
 435              		.syntax unified
 436              		.thumb
 437              		.thumb_func
 438              		.type	Vector100, %function
 439              	Vector100:
 440              	.LFB435:
 441              		.loc 2 181 36
 442              		.cfi_startproc
 443              		@ args = 0, pretend = 0, frame = 0
 444              		@ frame_needed = 1, uses_anonymous_args = 0
 445 0000 80B5     		push	{r7, lr}
 446              		.cfi_def_cfa_offset 8
 447              		.cfi_offset 7, -8
 448              		.cfi_offset 14, -4
 449 0002 00AF     		add	r7, sp, #0
 450              		.cfi_def_cfa_register 7
 451              		.loc 2 183 3
 452 0004 0448     		ldr	r0, .L31
 453 0006 FFF7FEFF 		bl	__trace_isr_enter
 454              		.loc 2 196 3
 455 000a 0348     		ldr	r0, .L31
ARM GAS  C:\Users\DEVELO~1\AppData\Local\Temp\ccuIUkPb.s 			page 9


 456 000c FFF7FEFF 		bl	__trace_isr_leave
 457 0010 FFF7FEFF 		bl	__port_irq_epilogue
 458              		.loc 2 197 1
 459 0014 00BF     		nop
 460 0016 80BD     		pop	{r7, pc}
 461              	.L32:
 462              		.align	2
 463              	.L31:
 464 0018 00000000 		.word	__func__.0
 465              		.cfi_endproc
 466              	.LFE435:
 467              		.size	Vector100, .-Vector100
 468              		.section	.rodata.__func__.0,"a"
 469              		.align	2
 470              		.type	__func__.0, %object
 471              		.size	__func__.0, 10
 472              	__func__.0:
 473 0000 56656374 		.ascii	"Vector100\000"
 473      6F723130 
 473      3000
 474              		.text
 475              	.Letext0:
 476              		.file 3 "c:\\chibistudio\\tools\\gnu tools arm embedded\\11.3 2022.08\\arm-none-eabi\\include\\mac
 477              		.file 4 "c:\\chibistudio\\tools\\gnu tools arm embedded\\11.3 2022.08\\arm-none-eabi\\include\\sys
 478              		.file 5 "../../../os/common/ext/ST/STM32H7xx/stm32h743xx.h"
 479              		.file 6 "../../../ChibiOS-Contrib-chibios-21.11.x/os/hal/include/hal_fsmc.h"
 480              		.file 7 "../../../os/rt/include/chtrace.h"
 481              		.file 8 "../../../os/common/ports/ARMv7-M/chcore.h"
 482              		.section	.debug_info,"",%progbits
 483              	.Ldebug_info0:
 484 0000 C0060000 		.4byte	0x6c0
 485 0004 0500     		.2byte	0x5
 486 0006 01       		.byte	0x1
 487 0007 04       		.byte	0x4
 488 0008 00000000 		.4byte	.Ldebug_abbrev0
 489 000c 13       		.uleb128 0x13
 490 000d 61000000 		.4byte	.LASF101
 491 0011 1D       		.byte	0x1d
 492 0012 E6010000 		.4byte	.LASF102
 493 0016 64040000 		.4byte	.LASF103
 494 001a 0C000000 		.4byte	.LLRL0
 495 001e 00000000 		.4byte	0
 496 0022 00000000 		.4byte	.Ldebug_line0
 497 0026 14       		.uleb128 0x14
 498 0027 04       		.byte	0x4
 499 0028 05       		.byte	0x5
 500 0029 696E7400 		.ascii	"int\000"
 501 002d 02       		.uleb128 0x2
 502 002e 04       		.byte	0x4
 503 002f 07       		.byte	0x7
 504 0030 1C030000 		.4byte	.LASF0
 505 0034 02       		.uleb128 0x2
 506 0035 08       		.byte	0x8
 507 0036 05       		.byte	0x5
 508 0037 37040000 		.4byte	.LASF1
 509 003b 02       		.uleb128 0x2
 510 003c 08       		.byte	0x8
ARM GAS  C:\Users\DEVELO~1\AppData\Local\Temp\ccuIUkPb.s 			page 10


 511 003d 04       		.byte	0x4
 512 003e B9010000 		.4byte	.LASF2
 513 0042 02       		.uleb128 0x2
 514 0043 01       		.byte	0x1
 515 0044 06       		.byte	0x6
 516 0045 D8020000 		.4byte	.LASF3
 517 0049 02       		.uleb128 0x2
 518 004a 01       		.byte	0x1
 519 004b 08       		.byte	0x8
 520 004c 7B020000 		.4byte	.LASF4
 521 0050 02       		.uleb128 0x2
 522 0051 02       		.byte	0x2
 523 0052 05       		.byte	0x5
 524 0053 F2000000 		.4byte	.LASF5
 525 0057 02       		.uleb128 0x2
 526 0058 02       		.byte	0x2
 527 0059 07       		.byte	0x7
 528 005a 67030000 		.4byte	.LASF6
 529 005e 02       		.uleb128 0x2
 530 005f 04       		.byte	0x4
 531 0060 05       		.byte	0x5
 532 0061 25020000 		.4byte	.LASF7
 533 0065 06       		.uleb128 0x6
 534 0066 3C010000 		.4byte	.LASF10
 535 006a 03       		.byte	0x3
 536 006b 4F       		.byte	0x4f
 537 006c 19       		.byte	0x19
 538 006d 71000000 		.4byte	0x71
 539 0071 02       		.uleb128 0x2
 540 0072 04       		.byte	0x4
 541 0073 07       		.byte	0x7
 542 0074 32030000 		.4byte	.LASF8
 543 0078 02       		.uleb128 0x2
 544 0079 08       		.byte	0x8
 545 007a 07       		.byte	0x7
 546 007b E4020000 		.4byte	.LASF9
 547 007f 06       		.uleb128 0x6
 548 0080 04030000 		.4byte	.LASF11
 549 0084 04       		.byte	0x4
 550 0085 30       		.byte	0x30
 551 0086 14       		.byte	0x14
 552 0087 65000000 		.4byte	0x65
 553 008b 15       		.uleb128 0x15
 554 008c 7F000000 		.4byte	0x7f
 555 0090 07       		.uleb128 0x7
 556 0091 9C000000 		.4byte	0x9c
 557 0095 02       		.uleb128 0x2
 558 0096 01       		.byte	0x1
 559 0097 08       		.byte	0x8
 560 0098 90030000 		.4byte	.LASF12
 561 009c 0F       		.uleb128 0xf
 562 009d 95000000 		.4byte	0x95
 563 00a1 08       		.uleb128 0x8
 564 00a2 7F000000 		.4byte	0x7f
 565 00a6 B1000000 		.4byte	0xb1
 566 00aa 09       		.uleb128 0x9
 567 00ab 2D000000 		.4byte	0x2d
ARM GAS  C:\Users\DEVELO~1\AppData\Local\Temp\ccuIUkPb.s 			page 11


 568 00af 03       		.byte	0x3
 569 00b0 00       		.byte	0
 570 00b1 08       		.uleb128 0x8
 571 00b2 7F000000 		.4byte	0x7f
 572 00b6 C1000000 		.4byte	0xc1
 573 00ba 09       		.uleb128 0x9
 574 00bb 2D000000 		.4byte	0x2d
 575 00bf 08       		.byte	0x8
 576 00c0 00       		.byte	0
 577 00c1 16       		.uleb128 0x16
 578 00c2 3001     		.2byte	0x130
 579 00c4 05       		.byte	0x5
 580 00c5 CE04     		.2byte	0x4ce
 581 00c7 09       		.byte	0x9
 582 00c8 56040000 		.4byte	0x456
 583 00cc 05       		.uleb128 0x5
 584 00cd 435200   		.ascii	"CR\000"
 585 00d0 D004     		.2byte	0x4d0
 586 00d2 10       		.byte	0x10
 587 00d3 8B000000 		.4byte	0x8b
 588 00d7 00       		.byte	0
 589 00d8 01       		.uleb128 0x1
 590 00d9 2C010000 		.4byte	.LASF13
 591 00dd 05       		.byte	0x5
 592 00de D104     		.2byte	0x4d1
 593 00e0 10       		.byte	0x10
 594 00e1 8B000000 		.4byte	0x8b
 595 00e5 04       		.byte	0x4
 596 00e6 01       		.uleb128 0x1
 597 00e7 D2020000 		.4byte	.LASF14
 598 00eb 05       		.byte	0x5
 599 00ec D204     		.2byte	0x4d2
 600 00ee 10       		.byte	0x10
 601 00ef 8B000000 		.4byte	0x8b
 602 00f3 08       		.byte	0x8
 603 00f4 01       		.uleb128 0x1
 604 00f5 69020000 		.4byte	.LASF15
 605 00f9 05       		.byte	0x5
 606 00fa D304     		.2byte	0x4d3
 607 00fc 10       		.byte	0x10
 608 00fd 8B000000 		.4byte	0x8b
 609 0101 0C       		.byte	0xc
 610 0102 01       		.uleb128 0x1
 611 0103 5F010000 		.4byte	.LASF16
 612 0107 05       		.byte	0x5
 613 0108 D404     		.2byte	0x4d4
 614 010a 10       		.byte	0x10
 615 010b 8B000000 		.4byte	0x8b
 616 010f 10       		.byte	0x10
 617 0110 01       		.uleb128 0x1
 618 0111 CC030000 		.4byte	.LASF17
 619 0115 05       		.byte	0x5
 620 0116 D504     		.2byte	0x4d5
 621 0118 0F       		.byte	0xf
 622 0119 7F000000 		.4byte	0x7f
 623 011d 14       		.byte	0x14
 624 011e 01       		.uleb128 0x1
ARM GAS  C:\Users\DEVELO~1\AppData\Local\Temp\ccuIUkPb.s 			page 12


 625 011f 50030000 		.4byte	.LASF18
 626 0123 05       		.byte	0x5
 627 0124 D604     		.2byte	0x4d6
 628 0126 10       		.byte	0x10
 629 0127 8B000000 		.4byte	0x8b
 630 012b 18       		.byte	0x18
 631 012c 01       		.uleb128 0x1
 632 012d 72010000 		.4byte	.LASF19
 633 0131 05       		.byte	0x5
 634 0132 D704     		.2byte	0x4d7
 635 0134 10       		.byte	0x10
 636 0135 8B000000 		.4byte	0x8b
 637 0139 1C       		.byte	0x1c
 638 013a 01       		.uleb128 0x1
 639 013b A8010000 		.4byte	.LASF20
 640 013f 05       		.byte	0x5
 641 0140 D804     		.2byte	0x4d8
 642 0142 10       		.byte	0x10
 643 0143 8B000000 		.4byte	0x8b
 644 0147 20       		.byte	0x20
 645 0148 01       		.uleb128 0x1
 646 0149 D6030000 		.4byte	.LASF21
 647 014d 05       		.byte	0x5
 648 014e D904     		.2byte	0x4d9
 649 0150 0F       		.byte	0xf
 650 0151 7F000000 		.4byte	0x7f
 651 0155 24       		.byte	0x24
 652 0156 01       		.uleb128 0x1
 653 0157 CD010000 		.4byte	.LASF22
 654 015b 05       		.byte	0x5
 655 015c DA04     		.2byte	0x4da
 656 015e 10       		.byte	0x10
 657 015f 8B000000 		.4byte	0x8b
 658 0163 28       		.byte	0x28
 659 0164 01       		.uleb128 0x1
 660 0165 5F030000 		.4byte	.LASF23
 661 0169 05       		.byte	0x5
 662 016a DB04     		.2byte	0x4db
 663 016c 10       		.byte	0x10
 664 016d 8B000000 		.4byte	0x8b
 665 0171 2C       		.byte	0x2c
 666 0172 01       		.uleb128 0x1
 667 0173 47010000 		.4byte	.LASF24
 668 0177 05       		.byte	0x5
 669 0178 DC04     		.2byte	0x4dc
 670 017a 10       		.byte	0x10
 671 017b 8B000000 		.4byte	0x8b
 672 017f 30       		.byte	0x30
 673 0180 01       		.uleb128 0x1
 674 0181 00000000 		.4byte	.LASF25
 675 0185 05       		.byte	0x5
 676 0186 DD04     		.2byte	0x4dd
 677 0188 10       		.byte	0x10
 678 0189 8B000000 		.4byte	0x8b
 679 018d 34       		.byte	0x34
 680 018e 01       		.uleb128 0x1
 681 018f 2E020000 		.4byte	.LASF26
ARM GAS  C:\Users\DEVELO~1\AppData\Local\Temp\ccuIUkPb.s 			page 13


 682 0193 05       		.byte	0x5
 683 0194 DE04     		.2byte	0x4de
 684 0196 10       		.byte	0x10
 685 0197 8B000000 		.4byte	0x8b
 686 019b 38       		.byte	0x38
 687 019c 01       		.uleb128 0x1
 688 019d A1020000 		.4byte	.LASF27
 689 01a1 05       		.byte	0x5
 690 01a2 DF04     		.2byte	0x4df
 691 01a4 10       		.byte	0x10
 692 01a5 8B000000 		.4byte	0x8b
 693 01a9 3C       		.byte	0x3c
 694 01aa 01       		.uleb128 0x1
 695 01ab C3030000 		.4byte	.LASF28
 696 01af 05       		.byte	0x5
 697 01b0 E004     		.2byte	0x4e0
 698 01b2 10       		.byte	0x10
 699 01b3 8B000000 		.4byte	0x8b
 700 01b7 40       		.byte	0x40
 701 01b8 01       		.uleb128 0x1
 702 01b9 08050000 		.4byte	.LASF29
 703 01bd 05       		.byte	0x5
 704 01be E104     		.2byte	0x4e1
 705 01c0 10       		.byte	0x10
 706 01c1 8B000000 		.4byte	0x8b
 707 01c5 44       		.byte	0x44
 708 01c6 01       		.uleb128 0x1
 709 01c7 E0030000 		.4byte	.LASF30
 710 01cb 05       		.byte	0x5
 711 01cc E204     		.2byte	0x4e2
 712 01ce 10       		.byte	0x10
 713 01cf 7F000000 		.4byte	0x7f
 714 01d3 48       		.byte	0x48
 715 01d4 01       		.uleb128 0x1
 716 01d5 95030000 		.4byte	.LASF31
 717 01d9 05       		.byte	0x5
 718 01da E304     		.2byte	0x4e3
 719 01dc 11       		.byte	0x11
 720 01dd 8B000000 		.4byte	0x8b
 721 01e1 4C       		.byte	0x4c
 722 01e2 01       		.uleb128 0x1
 723 01e3 21040000 		.4byte	.LASF32
 724 01e7 05       		.byte	0x5
 725 01e8 E404     		.2byte	0x4e4
 726 01ea 11       		.byte	0x11
 727 01eb 8B000000 		.4byte	0x8b
 728 01ef 50       		.byte	0x50
 729 01f0 01       		.uleb128 0x1
 730 01f1 37000000 		.4byte	.LASF33
 731 01f5 05       		.byte	0x5
 732 01f6 E504     		.2byte	0x4e5
 733 01f8 11       		.byte	0x11
 734 01f9 8B000000 		.4byte	0x8b
 735 01fd 54       		.byte	0x54
 736 01fe 01       		.uleb128 0x1
 737 01ff 34010000 		.4byte	.LASF34
 738 0203 05       		.byte	0x5
ARM GAS  C:\Users\DEVELO~1\AppData\Local\Temp\ccuIUkPb.s 			page 14


 739 0204 E604     		.2byte	0x4e6
 740 0206 11       		.byte	0x11
 741 0207 8B000000 		.4byte	0x8b
 742 020b 58       		.byte	0x58
 743 020c 01       		.uleb128 0x1
 744 020d EA030000 		.4byte	.LASF35
 745 0211 05       		.byte	0x5
 746 0212 E704     		.2byte	0x4e7
 747 0214 10       		.byte	0x10
 748 0215 7F000000 		.4byte	0x7f
 749 0219 5C       		.byte	0x5c
 750 021a 01       		.uleb128 0x1
 751 021b E1010000 		.4byte	.LASF36
 752 021f 05       		.byte	0x5
 753 0220 E804     		.2byte	0x4e8
 754 0222 11       		.byte	0x11
 755 0223 8B000000 		.4byte	0x8b
 756 0227 60       		.byte	0x60
 757 0228 01       		.uleb128 0x1
 758 0229 1C040000 		.4byte	.LASF37
 759 022d 05       		.byte	0x5
 760 022e E904     		.2byte	0x4e9
 761 0230 11       		.byte	0x11
 762 0231 8B000000 		.4byte	0x8b
 763 0235 64       		.byte	0x64
 764 0236 01       		.uleb128 0x1
 765 0237 50010000 		.4byte	.LASF38
 766 023b 05       		.byte	0x5
 767 023c EA04     		.2byte	0x4ea
 768 023e 11       		.byte	0x11
 769 023f 8B000000 		.4byte	0x8b
 770 0243 68       		.byte	0x68
 771 0244 01       		.uleb128 0x1
 772 0245 8B010000 		.4byte	.LASF39
 773 0249 05       		.byte	0x5
 774 024a EB04     		.2byte	0x4eb
 775 024c 0F       		.byte	0xf
 776 024d 7F000000 		.4byte	0x7f
 777 0251 6C       		.byte	0x6c
 778 0252 01       		.uleb128 0x1
 779 0253 11010000 		.4byte	.LASF40
 780 0257 05       		.byte	0x5
 781 0258 EC04     		.2byte	0x4ec
 782 025a 11       		.byte	0x11
 783 025b 8B000000 		.4byte	0x8b
 784 025f 70       		.byte	0x70
 785 0260 05       		.uleb128 0x5
 786 0261 43535200 		.ascii	"CSR\000"
 787 0265 ED04     		.2byte	0x4ed
 788 0267 11       		.byte	0x11
 789 0268 8B000000 		.4byte	0x8b
 790 026c 74       		.byte	0x74
 791 026d 01       		.uleb128 0x1
 792 026e 95010000 		.4byte	.LASF41
 793 0272 05       		.byte	0x5
 794 0273 EE04     		.2byte	0x4ee
 795 0275 0F       		.byte	0xf
ARM GAS  C:\Users\DEVELO~1\AppData\Local\Temp\ccuIUkPb.s 			page 15


 796 0276 7F000000 		.4byte	0x7f
 797 027a 78       		.byte	0x78
 798 027b 01       		.uleb128 0x1
 799 027c D2040000 		.4byte	.LASF42
 800 0280 05       		.byte	0x5
 801 0281 EF04     		.2byte	0x4ef
 802 0283 10       		.byte	0x10
 803 0284 8B000000 		.4byte	0x8b
 804 0288 7C       		.byte	0x7c
 805 0289 01       		.uleb128 0x1
 806 028a C3040000 		.4byte	.LASF43
 807 028e 05       		.byte	0x5
 808 028f F004     		.2byte	0x4f0
 809 0291 10       		.byte	0x10
 810 0292 8B000000 		.4byte	0x8b
 811 0296 80       		.byte	0x80
 812 0297 01       		.uleb128 0x1
 813 0298 29030000 		.4byte	.LASF44
 814 029c 05       		.byte	0x5
 815 029d F104     		.2byte	0x4f1
 816 029f 10       		.byte	0x10
 817 02a0 8B000000 		.4byte	0x8b
 818 02a4 84       		.byte	0x84
 819 02a5 01       		.uleb128 0x1
 820 02a6 FB020000 		.4byte	.LASF45
 821 02aa 05       		.byte	0x5
 822 02ab F204     		.2byte	0x4f2
 823 02ad 10       		.byte	0x10
 824 02ae 8B000000 		.4byte	0x8b
 825 02b2 88       		.byte	0x88
 826 02b3 01       		.uleb128 0x1
 827 02b4 F4030000 		.4byte	.LASF46
 828 02b8 05       		.byte	0x5
 829 02b9 F304     		.2byte	0x4f3
 830 02bb 10       		.byte	0x10
 831 02bc 8B000000 		.4byte	0x8b
 832 02c0 8C       		.byte	0x8c
 833 02c1 01       		.uleb128 0x1
 834 02c2 D7010000 		.4byte	.LASF47
 835 02c6 05       		.byte	0x5
 836 02c7 F404     		.2byte	0x4f4
 837 02c9 10       		.byte	0x10
 838 02ca 8B000000 		.4byte	0x8b
 839 02ce 90       		.byte	0x90
 840 02cf 01       		.uleb128 0x1
 841 02d0 48000000 		.4byte	.LASF48
 842 02d4 05       		.byte	0x5
 843 02d5 F504     		.2byte	0x4f5
 844 02d7 10       		.byte	0x10
 845 02d8 8B000000 		.4byte	0x8b
 846 02dc 94       		.byte	0x94
 847 02dd 01       		.uleb128 0x1
 848 02de 43020000 		.4byte	.LASF49
 849 02e2 05       		.byte	0x5
 850 02e3 F604     		.2byte	0x4f6
 851 02e5 10       		.byte	0x10
 852 02e6 8B000000 		.4byte	0x8b
ARM GAS  C:\Users\DEVELO~1\AppData\Local\Temp\ccuIUkPb.s 			page 16


 853 02ea 98       		.byte	0x98
 854 02eb 01       		.uleb128 0x1
 855 02ec FC000000 		.4byte	.LASF50
 856 02f0 05       		.byte	0x5
 857 02f1 F704     		.2byte	0x4f7
 858 02f3 10       		.byte	0x10
 859 02f4 8B000000 		.4byte	0x8b
 860 02f8 9C       		.byte	0x9c
 861 02f9 05       		.uleb128 0x5
 862 02fa 47435200 		.ascii	"GCR\000"
 863 02fe F804     		.2byte	0x4f8
 864 0300 10       		.byte	0x10
 865 0301 8B000000 		.4byte	0x8b
 866 0305 A0       		.byte	0xa0
 867 0306 01       		.uleb128 0x1
 868 0307 0A040000 		.4byte	.LASF51
 869 030b 05       		.byte	0x5
 870 030c F904     		.2byte	0x4f9
 871 030e 0F       		.byte	0xf
 872 030f 7F000000 		.4byte	0x7f
 873 0313 A4       		.byte	0xa4
 874 0314 01       		.uleb128 0x1
 875 0315 89020000 		.4byte	.LASF52
 876 0319 05       		.byte	0x5
 877 031a FA04     		.2byte	0x4fa
 878 031c 10       		.byte	0x10
 879 031d 8B000000 		.4byte	0x8b
 880 0321 A8       		.byte	0xa8
 881 0322 01       		.uleb128 0x1
 882 0323 AB020000 		.4byte	.LASF53
 883 0327 05       		.byte	0x5
 884 0328 FB04     		.2byte	0x4fb
 885 032a 0F       		.byte	0xf
 886 032b B1000000 		.4byte	0xb1
 887 032f AC       		.byte	0xac
 888 0330 05       		.uleb128 0x5
 889 0331 52535200 		.ascii	"RSR\000"
 890 0335 FC04     		.2byte	0x4fc
 891 0337 10       		.byte	0x10
 892 0338 8B000000 		.4byte	0x8b
 893 033c D0       		.byte	0xd0
 894 033d 01       		.uleb128 0x1
 895 033e C5010000 		.4byte	.LASF54
 896 0342 05       		.byte	0x5
 897 0343 FD04     		.2byte	0x4fd
 898 0345 10       		.byte	0x10
 899 0346 8B000000 		.4byte	0x8b
 900 034a D4       		.byte	0xd4
 901 034b 01       		.uleb128 0x1
 902 034c 2F040000 		.4byte	.LASF55
 903 0350 05       		.byte	0x5
 904 0351 FE04     		.2byte	0x4fe
 905 0353 10       		.byte	0x10
 906 0354 8B000000 		.4byte	0x8b
 907 0358 D8       		.byte	0xd8
 908 0359 01       		.uleb128 0x1
 909 035a 40000000 		.4byte	.LASF56
ARM GAS  C:\Users\DEVELO~1\AppData\Local\Temp\ccuIUkPb.s 			page 17


 910 035e 05       		.byte	0x5
 911 035f FF04     		.2byte	0x4ff
 912 0361 10       		.byte	0x10
 913 0362 8B000000 		.4byte	0x8b
 914 0366 DC       		.byte	0xdc
 915 0367 01       		.uleb128 0x1
 916 0368 57030000 		.4byte	.LASF57
 917 036c 05       		.byte	0x5
 918 036d 0005     		.2byte	0x500
 919 036f 10       		.byte	0x10
 920 0370 8B000000 		.4byte	0x8b
 921 0374 E0       		.byte	0xe0
 922 0375 01       		.uleb128 0x1
 923 0376 14040000 		.4byte	.LASF58
 924 037a 05       		.byte	0x5
 925 037b 0105     		.2byte	0x501
 926 037d 10       		.byte	0x10
 927 037e 8B000000 		.4byte	0x8b
 928 0382 E4       		.byte	0xe4
 929 0383 01       		.uleb128 0x1
 930 0384 C9020000 		.4byte	.LASF59
 931 0388 05       		.byte	0x5
 932 0389 0205     		.2byte	0x502
 933 038b 10       		.byte	0x10
 934 038c 8B000000 		.4byte	0x8b
 935 0390 E8       		.byte	0xe8
 936 0391 01       		.uleb128 0x1
 937 0392 8F020000 		.4byte	.LASF60
 938 0396 05       		.byte	0x5
 939 0397 0305     		.2byte	0x503
 940 0399 10       		.byte	0x10
 941 039a 8B000000 		.4byte	0x8b
 942 039e EC       		.byte	0xec
 943 039f 01       		.uleb128 0x1
 944 03a0 C1020000 		.4byte	.LASF61
 945 03a4 05       		.byte	0x5
 946 03a5 0405     		.2byte	0x504
 947 03a7 10       		.byte	0x10
 948 03a8 8B000000 		.4byte	0x8b
 949 03ac F0       		.byte	0xf0
 950 03ad 01       		.uleb128 0x1
 951 03ae 1E000000 		.4byte	.LASF62
 952 03b2 05       		.byte	0x5
 953 03b3 0505     		.2byte	0x505
 954 03b5 10       		.byte	0x10
 955 03b6 8B000000 		.4byte	0x8b
 956 03ba F4       		.byte	0xf4
 957 03bb 01       		.uleb128 0x1
 958 03bc B6020000 		.4byte	.LASF63
 959 03c0 05       		.byte	0x5
 960 03c1 0605     		.2byte	0x506
 961 03c3 10       		.byte	0x10
 962 03c4 7F000000 		.4byte	0x7f
 963 03c8 F8       		.byte	0xf8
 964 03c9 01       		.uleb128 0x1
 965 03ca 55010000 		.4byte	.LASF64
 966 03ce 05       		.byte	0x5
ARM GAS  C:\Users\DEVELO~1\AppData\Local\Temp\ccuIUkPb.s 			page 18


 967 03cf 0705     		.2byte	0x507
 968 03d1 10       		.byte	0x10
 969 03d2 8B000000 		.4byte	0x8b
 970 03d6 FC       		.byte	0xfc
 971 03d7 03       		.uleb128 0x3
 972 03d8 AF010000 		.4byte	.LASF65
 973 03dc 0805     		.2byte	0x508
 974 03de 10       		.byte	0x10
 975 03df 8B000000 		.4byte	0x8b
 976 03e3 0001     		.2byte	0x100
 977 03e5 03       		.uleb128 0x3
 978 03e6 B9030000 		.4byte	.LASF66
 979 03ea 0905     		.2byte	0x509
 980 03ec 10       		.byte	0x10
 981 03ed 8B000000 		.4byte	0x8b
 982 03f1 0401     		.2byte	0x104
 983 03f3 03       		.uleb128 0x3
 984 03f4 AF030000 		.4byte	.LASF67
 985 03f8 0A05     		.2byte	0x50a
 986 03fa 10       		.byte	0x10
 987 03fb 8B000000 		.4byte	0x8b
 988 03ff 0801     		.2byte	0x108
 989 0401 03       		.uleb128 0x3
 990 0402 71020000 		.4byte	.LASF68
 991 0406 0B05     		.2byte	0x50b
 992 0408 10       		.byte	0x10
 993 0409 8B000000 		.4byte	0x8b
 994 040d 0C01     		.2byte	0x10c
 995 040f 03       		.uleb128 0x3
 996 0410 13000000 		.4byte	.LASF69
 997 0414 0C05     		.2byte	0x50c
 998 0416 10       		.byte	0x10
 999 0417 8B000000 		.4byte	0x8b
 1000 041b 1001     		.2byte	0x110
 1001 041d 03       		.uleb128 0x3
 1002 041e 2C000000 		.4byte	.LASF70
 1003 0422 0D05     		.2byte	0x50d
 1004 0424 10       		.byte	0x10
 1005 0425 8B000000 		.4byte	0x8b
 1006 0429 1401     		.2byte	0x114
 1007 042b 03       		.uleb128 0x3
 1008 042c FE040000 		.4byte	.LASF71
 1009 0430 0E05     		.2byte	0x50e
 1010 0432 10       		.byte	0x10
 1011 0433 8B000000 		.4byte	0x8b
 1012 0437 1801     		.2byte	0x118
 1013 0439 03       		.uleb128 0x3
 1014 043a F4040000 		.4byte	.LASF72
 1015 043e 0F05     		.2byte	0x50f
 1016 0440 10       		.byte	0x10
 1017 0441 8B000000 		.4byte	0x8b
 1018 0445 1C01     		.2byte	0x11c
 1019 0447 03       		.uleb128 0x3
 1020 0448 4C020000 		.4byte	.LASF73
 1021 044c 1005     		.2byte	0x510
 1022 044e 0F       		.byte	0xf
 1023 044f A1000000 		.4byte	0xa1
ARM GAS  C:\Users\DEVELO~1\AppData\Local\Temp\ccuIUkPb.s 			page 19


 1024 0453 2001     		.2byte	0x120
 1025 0455 00       		.byte	0
 1026 0456 0A       		.uleb128 0xa
 1027 0457 37020000 		.4byte	.LASF74
 1028 045b 05       		.byte	0x5
 1029 045c 1205     		.2byte	0x512
 1030 045e 03       		.byte	0x3
 1031 045f C1000000 		.4byte	0xc1
 1032 0463 02       		.uleb128 0x2
 1033 0464 01       		.byte	0x1
 1034 0465 02       		.byte	0x2
 1035 0466 A9030000 		.4byte	.LASF75
 1036 046a 17       		.uleb128 0x17
 1037 046b 1C       		.byte	0x1c
 1038 046c 06       		.byte	0x6
 1039 046d AC       		.byte	0xac
 1040 046e 09       		.byte	0x9
 1041 046f C1040000 		.4byte	0x4c1
 1042 0473 04       		.uleb128 0x4
 1043 0474 05010000 		.4byte	.LASF76
 1044 0478 AD       		.byte	0xad
 1045 0479 8B000000 		.4byte	0x8b
 1046 047d 00       		.byte	0
 1047 047e 04       		.uleb128 0x4
 1048 047f 0B010000 		.4byte	.LASF77
 1049 0483 AE       		.byte	0xae
 1050 0484 8B000000 		.4byte	0x8b
 1051 0488 04       		.byte	0x4
 1052 0489 04       		.uleb128 0x4
 1053 048a 20010000 		.4byte	.LASF78
 1054 048e AF       		.byte	0xaf
 1055 048f 8B000000 		.4byte	0x8b
 1056 0493 08       		.byte	0x8
 1057 0494 04       		.uleb128 0x4
 1058 0495 26010000 		.4byte	.LASF79
 1059 0499 B0       		.byte	0xb0
 1060 049a 8B000000 		.4byte	0x8b
 1061 049e 0C       		.byte	0xc
 1062 049f 04       		.uleb128 0x4
 1063 04a0 CC040000 		.4byte	.LASF80
 1064 04a4 B1       		.byte	0xb1
 1065 04a5 8B000000 		.4byte	0x8b
 1066 04a9 10       		.byte	0x10
 1067 04aa 04       		.uleb128 0x4
 1068 04ab 26000000 		.4byte	.LASF81
 1069 04af B2       		.byte	0xb2
 1070 04b0 8B000000 		.4byte	0x8b
 1071 04b4 14       		.byte	0x14
 1072 04b5 04       		.uleb128 0x4
 1073 04b6 2A040000 		.4byte	.LASF82
 1074 04ba B3       		.byte	0xb3
 1075 04bb 8B000000 		.4byte	0x8b
 1076 04bf 18       		.byte	0x18
 1077 04c0 00       		.byte	0
 1078 04c1 06       		.uleb128 0x6
 1079 04c2 DB040000 		.4byte	.LASF83
 1080 04c6 06       		.byte	0x6
ARM GAS  C:\Users\DEVELO~1\AppData\Local\Temp\ccuIUkPb.s 			page 20


 1081 04c7 B4       		.byte	0xb4
 1082 04c8 03       		.byte	0x3
 1083 04c9 6A040000 		.4byte	0x46a
 1084 04cd 0A       		.uleb128 0xa
 1085 04ce 85030000 		.4byte	.LASF84
 1086 04d2 06       		.byte	0x6
 1087 04d3 1E01     		.2byte	0x11e
 1088 04d5 1B       		.byte	0x1b
 1089 04d6 DA040000 		.4byte	0x4da
 1090 04da 18       		.uleb128 0x18
 1091 04db 85030000 		.4byte	.LASF84
 1092 04df 08       		.byte	0x8
 1093 04e0 06       		.byte	0x6
 1094 04e1 2C01     		.2byte	0x12c
 1095 04e3 08       		.byte	0x8
 1096 04e4 05050000 		.4byte	0x505
 1097 04e8 01       		.uleb128 0x1
 1098 04e9 EC000000 		.4byte	.LASF85
 1099 04ed 06       		.byte	0x6
 1100 04ee 3001     		.2byte	0x130
 1101 04f0 1D       		.byte	0x1d
 1102 04f1 27050000 		.4byte	0x527
 1103 04f5 00       		.byte	0
 1104 04f6 01       		.uleb128 0x1
 1105 04f7 EE040000 		.4byte	.LASF86
 1106 04fb 06       		.byte	0x6
 1107 04fc 4F01     		.2byte	0x14f
 1108 04fe 1E       		.byte	0x1e
 1109 04ff 34050000 		.4byte	0x534
 1110 0503 04       		.byte	0x4
 1111 0504 00       		.byte	0
 1112 0505 19       		.uleb128 0x19
 1113 0506 07       		.byte	0x7
 1114 0507 01       		.byte	0x1
 1115 0508 49000000 		.4byte	0x49
 1116 050c 06       		.byte	0x6
 1117 050d 2301     		.2byte	0x123
 1118 050f 0E       		.byte	0xe
 1119 0510 27050000 		.4byte	0x527
 1120 0514 0B       		.uleb128 0xb
 1121 0515 44030000 		.4byte	.LASF87
 1122 0519 00       		.byte	0
 1123 051a 0B       		.uleb128 0xb
 1124 051b 4A040000 		.4byte	.LASF88
 1125 051f 01       		.byte	0x1
 1126 0520 0B       		.uleb128 0xb
 1127 0521 7A030000 		.4byte	.LASF89
 1128 0525 02       		.byte	0x2
 1129 0526 00       		.byte	0
 1130 0527 0A       		.uleb128 0xa
 1131 0528 9D030000 		.4byte	.LASF90
 1132 052c 06       		.byte	0x6
 1133 052d 2701     		.2byte	0x127
 1134 052f 03       		.byte	0x3
 1135 0530 05050000 		.4byte	0x505
 1136 0534 07       		.uleb128 0x7
 1137 0535 C1040000 		.4byte	0x4c1
ARM GAS  C:\Users\DEVELO~1\AppData\Local\Temp\ccuIUkPb.s 			page 21


 1138 0539 1A       		.uleb128 0x1a
 1139 053a 26050000 		.4byte	.LASF104
 1140 053e 06       		.byte	0x6
 1141 053f 5D01     		.2byte	0x15d
 1142 0541 13       		.byte	0x13
 1143 0542 CD040000 		.4byte	0x4cd
 1144 0546 1B       		.uleb128 0x1b
 1145 0547 39050000 		.4byte	0x539
 1146 054b 02       		.byte	0x2
 1147 054c 2A       		.byte	0x2a
 1148 054d 0C       		.byte	0xc
 1149 054e 05       		.uleb128 0x5
 1150 054f 03       		.byte	0x3
 1151 0550 00000000 		.4byte	FSMCD1
 1152 0554 1C       		.uleb128 0x1c
 1153 0555 12050000 		.4byte	.LASF105
 1154 0559 08       		.byte	0x8
 1155 055a F402     		.2byte	0x2f4
 1156 055c 08       		.byte	0x8
 1157 055d 10       		.uleb128 0x10
 1158 055e 79010000 		.4byte	.LASF91
 1159 0562 FF       		.byte	0xff
 1160 0563 6D050000 		.4byte	0x56d
 1161 0567 11       		.uleb128 0x11
 1162 0568 90000000 		.4byte	0x90
 1163 056c 00       		.byte	0
 1164 056d 10       		.uleb128 0x10
 1165 056e 57020000 		.4byte	.LASF92
 1166 0572 FE       		.byte	0xfe
 1167 0573 7D050000 		.4byte	0x57d
 1168 0577 11       		.uleb128 0x11
 1169 0578 90000000 		.4byte	0x90
 1170 057c 00       		.byte	0
 1171 057d 0C       		.uleb128 0xc
 1172 057e 16010000 		.4byte	.LASF93
 1173 0582 B5       		.byte	0xb5
 1174 0583 01       		.byte	0x1
 1175 0584 00000000 		.4byte	.LFB435
 1176 0588 1C000000 		.4byte	.LFE435-.LFB435
 1177 058c 01       		.uleb128 0x1
 1178 058d 9C       		.byte	0x9c
 1179 058e A2050000 		.4byte	0x5a2
 1180 0592 1D       		.uleb128 0x1d
 1181 0593 98020000 		.4byte	.LASF106
 1182 0597 B2050000 		.4byte	0x5b2
 1183 059b 05       		.uleb128 0x5
 1184 059c 03       		.byte	0x3
 1185 059d 00000000 		.4byte	__func__.0
 1186 05a1 00       		.byte	0
 1187 05a2 08       		.uleb128 0x8
 1188 05a3 9C000000 		.4byte	0x9c
 1189 05a7 B2050000 		.4byte	0x5b2
 1190 05ab 09       		.uleb128 0x9
 1191 05ac 2D000000 		.4byte	0x2d
 1192 05b0 09       		.byte	0x9
 1193 05b1 00       		.byte	0
 1194 05b2 0F       		.uleb128 0xf
ARM GAS  C:\Users\DEVELO~1\AppData\Local\Temp\ccuIUkPb.s 			page 22


 1195 05b3 A2050000 		.4byte	0x5a2
 1196 05b7 0C       		.uleb128 0xc
 1197 05b8 9F010000 		.4byte	.LASF94
 1198 05bc 9A       		.byte	0x9a
 1199 05bd 06       		.byte	0x6
 1200 05be 00000000 		.4byte	.LFB434
 1201 05c2 3C000000 		.4byte	.LFE434-.LFB434
 1202 05c6 01       		.uleb128 0x1
 1203 05c7 9C       		.byte	0x9c
 1204 05c8 DC050000 		.4byte	0x5dc
 1205 05cc 0D       		.uleb128 0xd
 1206 05cd 5E040000 		.4byte	.LASF96
 1207 05d1 02       		.byte	0x2
 1208 05d2 9A       		.byte	0x9a
 1209 05d3 1B       		.byte	0x1b
 1210 05d4 DC050000 		.4byte	0x5dc
 1211 05d8 02       		.uleb128 0x2
 1212 05d9 91       		.byte	0x91
 1213 05da 74       		.sleb128 -12
 1214 05db 00       		.byte	0
 1215 05dc 07       		.uleb128 0x7
 1216 05dd CD040000 		.4byte	0x4cd
 1217 05e1 0C       		.uleb128 0xc
 1218 05e2 54040000 		.4byte	.LASF95
 1219 05e6 7C       		.byte	0x7c
 1220 05e7 06       		.byte	0x6
 1221 05e8 00000000 		.4byte	.LFB433
 1222 05ec 3C000000 		.4byte	.LFE433-.LFB433
 1223 05f0 01       		.uleb128 0x1
 1224 05f1 9C       		.byte	0x9c
 1225 05f2 0F060000 		.4byte	0x60f
 1226 05f6 0D       		.uleb128 0xd
 1227 05f7 5E040000 		.4byte	.LASF96
 1228 05fb 02       		.byte	0x2
 1229 05fc 7C       		.byte	0x7c
 1230 05fd 1C       		.byte	0x1c
 1231 05fe DC050000 		.4byte	0x5dc
 1232 0602 02       		.uleb128 0x2
 1233 0603 91       		.byte	0x91
 1234 0604 74       		.sleb128 -12
 1235 0605 1E       		.uleb128 0x1e
 1236 0606 98020000 		.4byte	.LASF106
 1237 060a B2050000 		.4byte	0x5b2
 1238 060e 00       		.byte	0
 1239 060f 1F       		.uleb128 0x1f
 1240 0610 0A000000 		.4byte	.LASF107
 1241 0614 02       		.byte	0x2
 1242 0615 46       		.byte	0x46
 1243 0616 06       		.byte	0x6
 1244 0617 00000000 		.4byte	.LFB432
 1245 061b 28000000 		.4byte	.LFE432-.LFB432
 1246 061f 01       		.uleb128 0x1
 1247 0620 9C       		.byte	0x9c
 1248 0621 20       		.uleb128 0x20
 1249 0622 FD030000 		.4byte	.LASF98
 1250 0626 01       		.byte	0x1
 1251 0627 3E03     		.2byte	0x33e
ARM GAS  C:\Users\DEVELO~1\AppData\Local\Temp\ccuIUkPb.s 			page 23


 1252 0629 16       		.byte	0x16
 1253 062a 00000000 		.4byte	.LFB411
 1254 062e 16000000 		.4byte	.LFE411-.LFB411
 1255 0632 01       		.uleb128 0x1
 1256 0633 9C       		.byte	0x9c
 1257 0634 48060000 		.4byte	0x648
 1258 0638 0E       		.uleb128 0xe
 1259 0639 45040000 		.4byte	.LASF97
 1260 063d 3E03     		.2byte	0x33e
 1261 063f 2C       		.byte	0x2c
 1262 0640 7F000000 		.4byte	0x7f
 1263 0644 02       		.uleb128 0x2
 1264 0645 91       		.byte	0x91
 1265 0646 74       		.sleb128 -12
 1266 0647 00       		.byte	0
 1267 0648 12       		.uleb128 0x12
 1268 0649 0D030000 		.4byte	.LASF99
 1269 064d 1C03     		.2byte	0x31c
 1270 064f 00000000 		.4byte	.LFB410
 1271 0653 40000000 		.4byte	.LFE410-.LFB410
 1272 0657 01       		.uleb128 0x1
 1273 0658 9C       		.byte	0x9c
 1274 0659 6D060000 		.4byte	0x66d
 1275 065d 0E       		.uleb128 0xe
 1276 065e 45040000 		.4byte	.LASF97
 1277 0662 1C03     		.2byte	0x31c
 1278 0664 2E       		.byte	0x2e
 1279 0665 7F000000 		.4byte	0x7f
 1280 0669 02       		.uleb128 0x2
 1281 066a 91       		.byte	0x91
 1282 066b 74       		.sleb128 -12
 1283 066c 00       		.byte	0
 1284 066d 12       		.uleb128 0x12
 1285 066e 64010000 		.4byte	.LASF100
 1286 0672 FC02     		.2byte	0x2fc
 1287 0674 00000000 		.4byte	.LFB409
 1288 0678 5C000000 		.4byte	.LFE409-.LFB409
 1289 067c 01       		.uleb128 0x1
 1290 067d 9C       		.byte	0x9c
 1291 067e A1060000 		.4byte	0x6a1
 1292 0682 0E       		.uleb128 0xe
 1293 0683 45040000 		.4byte	.LASF97
 1294 0687 FC02     		.2byte	0x2fc
 1295 0689 2D       		.byte	0x2d
 1296 068a 7F000000 		.4byte	0x7f
 1297 068e 02       		.uleb128 0x2
 1298 068f 91       		.byte	0x91
 1299 0690 74       		.sleb128 -12
 1300 0691 21       		.uleb128 0x21
 1301 0692 6C7000   		.ascii	"lp\000"
 1302 0695 01       		.byte	0x1
 1303 0696 FC02     		.2byte	0x2fc
 1304 0698 38       		.byte	0x38
 1305 0699 63040000 		.4byte	0x463
 1306 069d 02       		.uleb128 0x2
 1307 069e 91       		.byte	0x91
 1308 069f 73       		.sleb128 -13
ARM GAS  C:\Users\DEVELO~1\AppData\Local\Temp\ccuIUkPb.s 			page 24


 1309 06a0 00       		.byte	0
 1310 06a1 22       		.uleb128 0x22
 1311 06a2 52000000 		.4byte	.LASF108
 1312 06a6 01       		.byte	0x1
 1313 06a7 71       		.byte	0x71
 1314 06a8 16       		.byte	0x16
 1315 06a9 00000000 		.4byte	.LFB386
 1316 06ad 34000000 		.4byte	.LFE386-.LFB386
 1317 06b1 01       		.uleb128 0x1
 1318 06b2 9C       		.byte	0x9c
 1319 06b3 0D       		.uleb128 0xd
 1320 06b4 45040000 		.4byte	.LASF97
 1321 06b8 01       		.byte	0x1
 1322 06b9 71       		.byte	0x71
 1323 06ba 2E       		.byte	0x2e
 1324 06bb 7F000000 		.4byte	0x7f
 1325 06bf 02       		.uleb128 0x2
 1326 06c0 91       		.byte	0x91
 1327 06c1 74       		.sleb128 -12
 1328 06c2 00       		.byte	0
 1329 06c3 00       		.byte	0
 1330              		.section	.debug_abbrev,"",%progbits
 1331              	.Ldebug_abbrev0:
 1332 0000 01       		.uleb128 0x1
 1333 0001 0D       		.uleb128 0xd
 1334 0002 00       		.byte	0
 1335 0003 03       		.uleb128 0x3
 1336 0004 0E       		.uleb128 0xe
 1337 0005 3A       		.uleb128 0x3a
 1338 0006 0B       		.uleb128 0xb
 1339 0007 3B       		.uleb128 0x3b
 1340 0008 05       		.uleb128 0x5
 1341 0009 39       		.uleb128 0x39
 1342 000a 0B       		.uleb128 0xb
 1343 000b 49       		.uleb128 0x49
 1344 000c 13       		.uleb128 0x13
 1345 000d 38       		.uleb128 0x38
 1346 000e 0B       		.uleb128 0xb
 1347 000f 00       		.byte	0
 1348 0010 00       		.byte	0
 1349 0011 02       		.uleb128 0x2
 1350 0012 24       		.uleb128 0x24
 1351 0013 00       		.byte	0
 1352 0014 0B       		.uleb128 0xb
 1353 0015 0B       		.uleb128 0xb
 1354 0016 3E       		.uleb128 0x3e
 1355 0017 0B       		.uleb128 0xb
 1356 0018 03       		.uleb128 0x3
 1357 0019 0E       		.uleb128 0xe
 1358 001a 00       		.byte	0
 1359 001b 00       		.byte	0
 1360 001c 03       		.uleb128 0x3
 1361 001d 0D       		.uleb128 0xd
 1362 001e 00       		.byte	0
 1363 001f 03       		.uleb128 0x3
 1364 0020 0E       		.uleb128 0xe
 1365 0021 3A       		.uleb128 0x3a
ARM GAS  C:\Users\DEVELO~1\AppData\Local\Temp\ccuIUkPb.s 			page 25


 1366 0022 21       		.uleb128 0x21
 1367 0023 05       		.sleb128 5
 1368 0024 3B       		.uleb128 0x3b
 1369 0025 05       		.uleb128 0x5
 1370 0026 39       		.uleb128 0x39
 1371 0027 0B       		.uleb128 0xb
 1372 0028 49       		.uleb128 0x49
 1373 0029 13       		.uleb128 0x13
 1374 002a 38       		.uleb128 0x38
 1375 002b 05       		.uleb128 0x5
 1376 002c 00       		.byte	0
 1377 002d 00       		.byte	0
 1378 002e 04       		.uleb128 0x4
 1379 002f 0D       		.uleb128 0xd
 1380 0030 00       		.byte	0
 1381 0031 03       		.uleb128 0x3
 1382 0032 0E       		.uleb128 0xe
 1383 0033 3A       		.uleb128 0x3a
 1384 0034 21       		.uleb128 0x21
 1385 0035 06       		.sleb128 6
 1386 0036 3B       		.uleb128 0x3b
 1387 0037 0B       		.uleb128 0xb
 1388 0038 39       		.uleb128 0x39
 1389 0039 21       		.uleb128 0x21
 1390 003a 11       		.sleb128 17
 1391 003b 49       		.uleb128 0x49
 1392 003c 13       		.uleb128 0x13
 1393 003d 38       		.uleb128 0x38
 1394 003e 0B       		.uleb128 0xb
 1395 003f 00       		.byte	0
 1396 0040 00       		.byte	0
 1397 0041 05       		.uleb128 0x5
 1398 0042 0D       		.uleb128 0xd
 1399 0043 00       		.byte	0
 1400 0044 03       		.uleb128 0x3
 1401 0045 08       		.uleb128 0x8
 1402 0046 3A       		.uleb128 0x3a
 1403 0047 21       		.uleb128 0x21
 1404 0048 05       		.sleb128 5
 1405 0049 3B       		.uleb128 0x3b
 1406 004a 05       		.uleb128 0x5
 1407 004b 39       		.uleb128 0x39
 1408 004c 0B       		.uleb128 0xb
 1409 004d 49       		.uleb128 0x49
 1410 004e 13       		.uleb128 0x13
 1411 004f 38       		.uleb128 0x38
 1412 0050 0B       		.uleb128 0xb
 1413 0051 00       		.byte	0
 1414 0052 00       		.byte	0
 1415 0053 06       		.uleb128 0x6
 1416 0054 16       		.uleb128 0x16
 1417 0055 00       		.byte	0
 1418 0056 03       		.uleb128 0x3
 1419 0057 0E       		.uleb128 0xe
 1420 0058 3A       		.uleb128 0x3a
 1421 0059 0B       		.uleb128 0xb
 1422 005a 3B       		.uleb128 0x3b
ARM GAS  C:\Users\DEVELO~1\AppData\Local\Temp\ccuIUkPb.s 			page 26


 1423 005b 0B       		.uleb128 0xb
 1424 005c 39       		.uleb128 0x39
 1425 005d 0B       		.uleb128 0xb
 1426 005e 49       		.uleb128 0x49
 1427 005f 13       		.uleb128 0x13
 1428 0060 00       		.byte	0
 1429 0061 00       		.byte	0
 1430 0062 07       		.uleb128 0x7
 1431 0063 0F       		.uleb128 0xf
 1432 0064 00       		.byte	0
 1433 0065 0B       		.uleb128 0xb
 1434 0066 21       		.uleb128 0x21
 1435 0067 04       		.sleb128 4
 1436 0068 49       		.uleb128 0x49
 1437 0069 13       		.uleb128 0x13
 1438 006a 00       		.byte	0
 1439 006b 00       		.byte	0
 1440 006c 08       		.uleb128 0x8
 1441 006d 01       		.uleb128 0x1
 1442 006e 01       		.byte	0x1
 1443 006f 49       		.uleb128 0x49
 1444 0070 13       		.uleb128 0x13
 1445 0071 01       		.uleb128 0x1
 1446 0072 13       		.uleb128 0x13
 1447 0073 00       		.byte	0
 1448 0074 00       		.byte	0
 1449 0075 09       		.uleb128 0x9
 1450 0076 21       		.uleb128 0x21
 1451 0077 00       		.byte	0
 1452 0078 49       		.uleb128 0x49
 1453 0079 13       		.uleb128 0x13
 1454 007a 2F       		.uleb128 0x2f
 1455 007b 0B       		.uleb128 0xb
 1456 007c 00       		.byte	0
 1457 007d 00       		.byte	0
 1458 007e 0A       		.uleb128 0xa
 1459 007f 16       		.uleb128 0x16
 1460 0080 00       		.byte	0
 1461 0081 03       		.uleb128 0x3
 1462 0082 0E       		.uleb128 0xe
 1463 0083 3A       		.uleb128 0x3a
 1464 0084 0B       		.uleb128 0xb
 1465 0085 3B       		.uleb128 0x3b
 1466 0086 05       		.uleb128 0x5
 1467 0087 39       		.uleb128 0x39
 1468 0088 0B       		.uleb128 0xb
 1469 0089 49       		.uleb128 0x49
 1470 008a 13       		.uleb128 0x13
 1471 008b 00       		.byte	0
 1472 008c 00       		.byte	0
 1473 008d 0B       		.uleb128 0xb
 1474 008e 28       		.uleb128 0x28
 1475 008f 00       		.byte	0
 1476 0090 03       		.uleb128 0x3
 1477 0091 0E       		.uleb128 0xe
 1478 0092 1C       		.uleb128 0x1c
 1479 0093 0B       		.uleb128 0xb
ARM GAS  C:\Users\DEVELO~1\AppData\Local\Temp\ccuIUkPb.s 			page 27


 1480 0094 00       		.byte	0
 1481 0095 00       		.byte	0
 1482 0096 0C       		.uleb128 0xc
 1483 0097 2E       		.uleb128 0x2e
 1484 0098 01       		.byte	0x1
 1485 0099 3F       		.uleb128 0x3f
 1486 009a 19       		.uleb128 0x19
 1487 009b 03       		.uleb128 0x3
 1488 009c 0E       		.uleb128 0xe
 1489 009d 3A       		.uleb128 0x3a
 1490 009e 21       		.uleb128 0x21
 1491 009f 02       		.sleb128 2
 1492 00a0 3B       		.uleb128 0x3b
 1493 00a1 0B       		.uleb128 0xb
 1494 00a2 39       		.uleb128 0x39
 1495 00a3 0B       		.uleb128 0xb
 1496 00a4 27       		.uleb128 0x27
 1497 00a5 19       		.uleb128 0x19
 1498 00a6 11       		.uleb128 0x11
 1499 00a7 01       		.uleb128 0x1
 1500 00a8 12       		.uleb128 0x12
 1501 00a9 06       		.uleb128 0x6
 1502 00aa 40       		.uleb128 0x40
 1503 00ab 18       		.uleb128 0x18
 1504 00ac 7C       		.uleb128 0x7c
 1505 00ad 19       		.uleb128 0x19
 1506 00ae 01       		.uleb128 0x1
 1507 00af 13       		.uleb128 0x13
 1508 00b0 00       		.byte	0
 1509 00b1 00       		.byte	0
 1510 00b2 0D       		.uleb128 0xd
 1511 00b3 05       		.uleb128 0x5
 1512 00b4 00       		.byte	0
 1513 00b5 03       		.uleb128 0x3
 1514 00b6 0E       		.uleb128 0xe
 1515 00b7 3A       		.uleb128 0x3a
 1516 00b8 0B       		.uleb128 0xb
 1517 00b9 3B       		.uleb128 0x3b
 1518 00ba 0B       		.uleb128 0xb
 1519 00bb 39       		.uleb128 0x39
 1520 00bc 0B       		.uleb128 0xb
 1521 00bd 49       		.uleb128 0x49
 1522 00be 13       		.uleb128 0x13
 1523 00bf 02       		.uleb128 0x2
 1524 00c0 18       		.uleb128 0x18
 1525 00c1 00       		.byte	0
 1526 00c2 00       		.byte	0
 1527 00c3 0E       		.uleb128 0xe
 1528 00c4 05       		.uleb128 0x5
 1529 00c5 00       		.byte	0
 1530 00c6 03       		.uleb128 0x3
 1531 00c7 0E       		.uleb128 0xe
 1532 00c8 3A       		.uleb128 0x3a
 1533 00c9 21       		.uleb128 0x21
 1534 00ca 01       		.sleb128 1
 1535 00cb 3B       		.uleb128 0x3b
 1536 00cc 05       		.uleb128 0x5
ARM GAS  C:\Users\DEVELO~1\AppData\Local\Temp\ccuIUkPb.s 			page 28


 1537 00cd 39       		.uleb128 0x39
 1538 00ce 0B       		.uleb128 0xb
 1539 00cf 49       		.uleb128 0x49
 1540 00d0 13       		.uleb128 0x13
 1541 00d1 02       		.uleb128 0x2
 1542 00d2 18       		.uleb128 0x18
 1543 00d3 00       		.byte	0
 1544 00d4 00       		.byte	0
 1545 00d5 0F       		.uleb128 0xf
 1546 00d6 26       		.uleb128 0x26
 1547 00d7 00       		.byte	0
 1548 00d8 49       		.uleb128 0x49
 1549 00d9 13       		.uleb128 0x13
 1550 00da 00       		.byte	0
 1551 00db 00       		.byte	0
 1552 00dc 10       		.uleb128 0x10
 1553 00dd 2E       		.uleb128 0x2e
 1554 00de 01       		.byte	0x1
 1555 00df 3F       		.uleb128 0x3f
 1556 00e0 19       		.uleb128 0x19
 1557 00e1 03       		.uleb128 0x3
 1558 00e2 0E       		.uleb128 0xe
 1559 00e3 3A       		.uleb128 0x3a
 1560 00e4 21       		.uleb128 0x21
 1561 00e5 07       		.sleb128 7
 1562 00e6 3B       		.uleb128 0x3b
 1563 00e7 0B       		.uleb128 0xb
 1564 00e8 39       		.uleb128 0x39
 1565 00e9 21       		.uleb128 0x21
 1566 00ea 08       		.sleb128 8
 1567 00eb 27       		.uleb128 0x27
 1568 00ec 19       		.uleb128 0x19
 1569 00ed 3C       		.uleb128 0x3c
 1570 00ee 19       		.uleb128 0x19
 1571 00ef 01       		.uleb128 0x1
 1572 00f0 13       		.uleb128 0x13
 1573 00f1 00       		.byte	0
 1574 00f2 00       		.byte	0
 1575 00f3 11       		.uleb128 0x11
 1576 00f4 05       		.uleb128 0x5
 1577 00f5 00       		.byte	0
 1578 00f6 49       		.uleb128 0x49
 1579 00f7 13       		.uleb128 0x13
 1580 00f8 00       		.byte	0
 1581 00f9 00       		.byte	0
 1582 00fa 12       		.uleb128 0x12
 1583 00fb 2E       		.uleb128 0x2e
 1584 00fc 01       		.byte	0x1
 1585 00fd 03       		.uleb128 0x3
 1586 00fe 0E       		.uleb128 0xe
 1587 00ff 3A       		.uleb128 0x3a
 1588 0100 21       		.uleb128 0x21
 1589 0101 01       		.sleb128 1
 1590 0102 3B       		.uleb128 0x3b
 1591 0103 05       		.uleb128 0x5
 1592 0104 39       		.uleb128 0x39
 1593 0105 21       		.uleb128 0x21
ARM GAS  C:\Users\DEVELO~1\AppData\Local\Temp\ccuIUkPb.s 			page 29


 1594 0106 16       		.sleb128 22
 1595 0107 27       		.uleb128 0x27
 1596 0108 19       		.uleb128 0x19
 1597 0109 11       		.uleb128 0x11
 1598 010a 01       		.uleb128 0x1
 1599 010b 12       		.uleb128 0x12
 1600 010c 06       		.uleb128 0x6
 1601 010d 40       		.uleb128 0x40
 1602 010e 18       		.uleb128 0x18
 1603 010f 7A       		.uleb128 0x7a
 1604 0110 19       		.uleb128 0x19
 1605 0111 01       		.uleb128 0x1
 1606 0112 13       		.uleb128 0x13
 1607 0113 00       		.byte	0
 1608 0114 00       		.byte	0
 1609 0115 13       		.uleb128 0x13
 1610 0116 11       		.uleb128 0x11
 1611 0117 01       		.byte	0x1
 1612 0118 25       		.uleb128 0x25
 1613 0119 0E       		.uleb128 0xe
 1614 011a 13       		.uleb128 0x13
 1615 011b 0B       		.uleb128 0xb
 1616 011c 03       		.uleb128 0x3
 1617 011d 0E       		.uleb128 0xe
 1618 011e 1B       		.uleb128 0x1b
 1619 011f 0E       		.uleb128 0xe
 1620 0120 55       		.uleb128 0x55
 1621 0121 17       		.uleb128 0x17
 1622 0122 11       		.uleb128 0x11
 1623 0123 01       		.uleb128 0x1
 1624 0124 10       		.uleb128 0x10
 1625 0125 17       		.uleb128 0x17
 1626 0126 00       		.byte	0
 1627 0127 00       		.byte	0
 1628 0128 14       		.uleb128 0x14
 1629 0129 24       		.uleb128 0x24
 1630 012a 00       		.byte	0
 1631 012b 0B       		.uleb128 0xb
 1632 012c 0B       		.uleb128 0xb
 1633 012d 3E       		.uleb128 0x3e
 1634 012e 0B       		.uleb128 0xb
 1635 012f 03       		.uleb128 0x3
 1636 0130 08       		.uleb128 0x8
 1637 0131 00       		.byte	0
 1638 0132 00       		.byte	0
 1639 0133 15       		.uleb128 0x15
 1640 0134 35       		.uleb128 0x35
 1641 0135 00       		.byte	0
 1642 0136 49       		.uleb128 0x49
 1643 0137 13       		.uleb128 0x13
 1644 0138 00       		.byte	0
 1645 0139 00       		.byte	0
 1646 013a 16       		.uleb128 0x16
 1647 013b 13       		.uleb128 0x13
 1648 013c 01       		.byte	0x1
 1649 013d 0B       		.uleb128 0xb
 1650 013e 05       		.uleb128 0x5
ARM GAS  C:\Users\DEVELO~1\AppData\Local\Temp\ccuIUkPb.s 			page 30


 1651 013f 3A       		.uleb128 0x3a
 1652 0140 0B       		.uleb128 0xb
 1653 0141 3B       		.uleb128 0x3b
 1654 0142 05       		.uleb128 0x5
 1655 0143 39       		.uleb128 0x39
 1656 0144 0B       		.uleb128 0xb
 1657 0145 01       		.uleb128 0x1
 1658 0146 13       		.uleb128 0x13
 1659 0147 00       		.byte	0
 1660 0148 00       		.byte	0
 1661 0149 17       		.uleb128 0x17
 1662 014a 13       		.uleb128 0x13
 1663 014b 01       		.byte	0x1
 1664 014c 0B       		.uleb128 0xb
 1665 014d 0B       		.uleb128 0xb
 1666 014e 3A       		.uleb128 0x3a
 1667 014f 0B       		.uleb128 0xb
 1668 0150 3B       		.uleb128 0x3b
 1669 0151 0B       		.uleb128 0xb
 1670 0152 39       		.uleb128 0x39
 1671 0153 0B       		.uleb128 0xb
 1672 0154 01       		.uleb128 0x1
 1673 0155 13       		.uleb128 0x13
 1674 0156 00       		.byte	0
 1675 0157 00       		.byte	0
 1676 0158 18       		.uleb128 0x18
 1677 0159 13       		.uleb128 0x13
 1678 015a 01       		.byte	0x1
 1679 015b 03       		.uleb128 0x3
 1680 015c 0E       		.uleb128 0xe
 1681 015d 0B       		.uleb128 0xb
 1682 015e 0B       		.uleb128 0xb
 1683 015f 3A       		.uleb128 0x3a
 1684 0160 0B       		.uleb128 0xb
 1685 0161 3B       		.uleb128 0x3b
 1686 0162 05       		.uleb128 0x5
 1687 0163 39       		.uleb128 0x39
 1688 0164 0B       		.uleb128 0xb
 1689 0165 01       		.uleb128 0x1
 1690 0166 13       		.uleb128 0x13
 1691 0167 00       		.byte	0
 1692 0168 00       		.byte	0
 1693 0169 19       		.uleb128 0x19
 1694 016a 04       		.uleb128 0x4
 1695 016b 01       		.byte	0x1
 1696 016c 3E       		.uleb128 0x3e
 1697 016d 0B       		.uleb128 0xb
 1698 016e 0B       		.uleb128 0xb
 1699 016f 0B       		.uleb128 0xb
 1700 0170 49       		.uleb128 0x49
 1701 0171 13       		.uleb128 0x13
 1702 0172 3A       		.uleb128 0x3a
 1703 0173 0B       		.uleb128 0xb
 1704 0174 3B       		.uleb128 0x3b
 1705 0175 05       		.uleb128 0x5
 1706 0176 39       		.uleb128 0x39
 1707 0177 0B       		.uleb128 0xb
ARM GAS  C:\Users\DEVELO~1\AppData\Local\Temp\ccuIUkPb.s 			page 31


 1708 0178 01       		.uleb128 0x1
 1709 0179 13       		.uleb128 0x13
 1710 017a 00       		.byte	0
 1711 017b 00       		.byte	0
 1712 017c 1A       		.uleb128 0x1a
 1713 017d 34       		.uleb128 0x34
 1714 017e 00       		.byte	0
 1715 017f 03       		.uleb128 0x3
 1716 0180 0E       		.uleb128 0xe
 1717 0181 3A       		.uleb128 0x3a
 1718 0182 0B       		.uleb128 0xb
 1719 0183 3B       		.uleb128 0x3b
 1720 0184 05       		.uleb128 0x5
 1721 0185 39       		.uleb128 0x39
 1722 0186 0B       		.uleb128 0xb
 1723 0187 49       		.uleb128 0x49
 1724 0188 13       		.uleb128 0x13
 1725 0189 3F       		.uleb128 0x3f
 1726 018a 19       		.uleb128 0x19
 1727 018b 3C       		.uleb128 0x3c
 1728 018c 19       		.uleb128 0x19
 1729 018d 00       		.byte	0
 1730 018e 00       		.byte	0
 1731 018f 1B       		.uleb128 0x1b
 1732 0190 34       		.uleb128 0x34
 1733 0191 00       		.byte	0
 1734 0192 47       		.uleb128 0x47
 1735 0193 13       		.uleb128 0x13
 1736 0194 3A       		.uleb128 0x3a
 1737 0195 0B       		.uleb128 0xb
 1738 0196 3B       		.uleb128 0x3b
 1739 0197 0B       		.uleb128 0xb
 1740 0198 39       		.uleb128 0x39
 1741 0199 0B       		.uleb128 0xb
 1742 019a 02       		.uleb128 0x2
 1743 019b 18       		.uleb128 0x18
 1744 019c 00       		.byte	0
 1745 019d 00       		.byte	0
 1746 019e 1C       		.uleb128 0x1c
 1747 019f 2E       		.uleb128 0x2e
 1748 01a0 00       		.byte	0
 1749 01a1 3F       		.uleb128 0x3f
 1750 01a2 19       		.uleb128 0x19
 1751 01a3 03       		.uleb128 0x3
 1752 01a4 0E       		.uleb128 0xe
 1753 01a5 3A       		.uleb128 0x3a
 1754 01a6 0B       		.uleb128 0xb
 1755 01a7 3B       		.uleb128 0x3b
 1756 01a8 05       		.uleb128 0x5
 1757 01a9 39       		.uleb128 0x39
 1758 01aa 0B       		.uleb128 0xb
 1759 01ab 27       		.uleb128 0x27
 1760 01ac 19       		.uleb128 0x19
 1761 01ad 3C       		.uleb128 0x3c
 1762 01ae 19       		.uleb128 0x19
 1763 01af 00       		.byte	0
 1764 01b0 00       		.byte	0
ARM GAS  C:\Users\DEVELO~1\AppData\Local\Temp\ccuIUkPb.s 			page 32


 1765 01b1 1D       		.uleb128 0x1d
 1766 01b2 34       		.uleb128 0x34
 1767 01b3 00       		.byte	0
 1768 01b4 03       		.uleb128 0x3
 1769 01b5 0E       		.uleb128 0xe
 1770 01b6 49       		.uleb128 0x49
 1771 01b7 13       		.uleb128 0x13
 1772 01b8 34       		.uleb128 0x34
 1773 01b9 19       		.uleb128 0x19
 1774 01ba 02       		.uleb128 0x2
 1775 01bb 18       		.uleb128 0x18
 1776 01bc 00       		.byte	0
 1777 01bd 00       		.byte	0
 1778 01be 1E       		.uleb128 0x1e
 1779 01bf 34       		.uleb128 0x34
 1780 01c0 00       		.byte	0
 1781 01c1 03       		.uleb128 0x3
 1782 01c2 0E       		.uleb128 0xe
 1783 01c3 49       		.uleb128 0x49
 1784 01c4 13       		.uleb128 0x13
 1785 01c5 34       		.uleb128 0x34
 1786 01c6 19       		.uleb128 0x19
 1787 01c7 00       		.byte	0
 1788 01c8 00       		.byte	0
 1789 01c9 1F       		.uleb128 0x1f
 1790 01ca 2E       		.uleb128 0x2e
 1791 01cb 00       		.byte	0
 1792 01cc 3F       		.uleb128 0x3f
 1793 01cd 19       		.uleb128 0x19
 1794 01ce 03       		.uleb128 0x3
 1795 01cf 0E       		.uleb128 0xe
 1796 01d0 3A       		.uleb128 0x3a
 1797 01d1 0B       		.uleb128 0xb
 1798 01d2 3B       		.uleb128 0x3b
 1799 01d3 0B       		.uleb128 0xb
 1800 01d4 39       		.uleb128 0x39
 1801 01d5 0B       		.uleb128 0xb
 1802 01d6 27       		.uleb128 0x27
 1803 01d7 19       		.uleb128 0x19
 1804 01d8 11       		.uleb128 0x11
 1805 01d9 01       		.uleb128 0x1
 1806 01da 12       		.uleb128 0x12
 1807 01db 06       		.uleb128 0x6
 1808 01dc 40       		.uleb128 0x40
 1809 01dd 18       		.uleb128 0x18
 1810 01de 7A       		.uleb128 0x7a
 1811 01df 19       		.uleb128 0x19
 1812 01e0 00       		.byte	0
 1813 01e1 00       		.byte	0
 1814 01e2 20       		.uleb128 0x20
 1815 01e3 2E       		.uleb128 0x2e
 1816 01e4 01       		.byte	0x1
 1817 01e5 03       		.uleb128 0x3
 1818 01e6 0E       		.uleb128 0xe
 1819 01e7 3A       		.uleb128 0x3a
 1820 01e8 0B       		.uleb128 0xb
 1821 01e9 3B       		.uleb128 0x3b
ARM GAS  C:\Users\DEVELO~1\AppData\Local\Temp\ccuIUkPb.s 			page 33


 1822 01ea 05       		.uleb128 0x5
 1823 01eb 39       		.uleb128 0x39
 1824 01ec 0B       		.uleb128 0xb
 1825 01ed 27       		.uleb128 0x27
 1826 01ee 19       		.uleb128 0x19
 1827 01ef 11       		.uleb128 0x11
 1828 01f0 01       		.uleb128 0x1
 1829 01f1 12       		.uleb128 0x12
 1830 01f2 06       		.uleb128 0x6
 1831 01f3 40       		.uleb128 0x40
 1832 01f4 18       		.uleb128 0x18
 1833 01f5 7C       		.uleb128 0x7c
 1834 01f6 19       		.uleb128 0x19
 1835 01f7 01       		.uleb128 0x1
 1836 01f8 13       		.uleb128 0x13
 1837 01f9 00       		.byte	0
 1838 01fa 00       		.byte	0
 1839 01fb 21       		.uleb128 0x21
 1840 01fc 05       		.uleb128 0x5
 1841 01fd 00       		.byte	0
 1842 01fe 03       		.uleb128 0x3
 1843 01ff 08       		.uleb128 0x8
 1844 0200 3A       		.uleb128 0x3a
 1845 0201 0B       		.uleb128 0xb
 1846 0202 3B       		.uleb128 0x3b
 1847 0203 05       		.uleb128 0x5
 1848 0204 39       		.uleb128 0x39
 1849 0205 0B       		.uleb128 0xb
 1850 0206 49       		.uleb128 0x49
 1851 0207 13       		.uleb128 0x13
 1852 0208 02       		.uleb128 0x2
 1853 0209 18       		.uleb128 0x18
 1854 020a 00       		.byte	0
 1855 020b 00       		.byte	0
 1856 020c 22       		.uleb128 0x22
 1857 020d 2E       		.uleb128 0x2e
 1858 020e 01       		.byte	0x1
 1859 020f 03       		.uleb128 0x3
 1860 0210 0E       		.uleb128 0xe
 1861 0211 3A       		.uleb128 0x3a
 1862 0212 0B       		.uleb128 0xb
 1863 0213 3B       		.uleb128 0x3b
 1864 0214 0B       		.uleb128 0xb
 1865 0215 39       		.uleb128 0x39
 1866 0216 0B       		.uleb128 0xb
 1867 0217 27       		.uleb128 0x27
 1868 0218 19       		.uleb128 0x19
 1869 0219 11       		.uleb128 0x11
 1870 021a 01       		.uleb128 0x1
 1871 021b 12       		.uleb128 0x12
 1872 021c 06       		.uleb128 0x6
 1873 021d 40       		.uleb128 0x40
 1874 021e 18       		.uleb128 0x18
 1875 021f 7A       		.uleb128 0x7a
 1876 0220 19       		.uleb128 0x19
 1877 0221 00       		.byte	0
 1878 0222 00       		.byte	0
ARM GAS  C:\Users\DEVELO~1\AppData\Local\Temp\ccuIUkPb.s 			page 34


 1879 0223 00       		.byte	0
 1880              		.section	.debug_aranges,"",%progbits
 1881 0000 54000000 		.4byte	0x54
 1882 0004 0200     		.2byte	0x2
 1883 0006 00000000 		.4byte	.Ldebug_info0
 1884 000a 04       		.byte	0x4
 1885 000b 00       		.byte	0
 1886 000c 0000     		.2byte	0
 1887 000e 0000     		.2byte	0
 1888 0010 00000000 		.4byte	.LFB386
 1889 0014 34000000 		.4byte	.LFE386-.LFB386
 1890 0018 00000000 		.4byte	.LFB409
 1891 001c 5C000000 		.4byte	.LFE409-.LFB409
 1892 0020 00000000 		.4byte	.LFB410
 1893 0024 40000000 		.4byte	.LFE410-.LFB410
 1894 0028 00000000 		.4byte	.LFB411
 1895 002c 16000000 		.4byte	.LFE411-.LFB411
 1896 0030 00000000 		.4byte	.LFB432
 1897 0034 28000000 		.4byte	.LFE432-.LFB432
 1898 0038 00000000 		.4byte	.LFB433
 1899 003c 3C000000 		.4byte	.LFE433-.LFB433
 1900 0040 00000000 		.4byte	.LFB434
 1901 0044 3C000000 		.4byte	.LFE434-.LFB434
 1902 0048 00000000 		.4byte	.LFB435
 1903 004c 1C000000 		.4byte	.LFE435-.LFB435
 1904 0050 00000000 		.4byte	0
 1905 0054 00000000 		.4byte	0
 1906              		.section	.debug_rnglists,"",%progbits
 1907              	.Ldebug_ranges0:
 1908 0000 39000000 		.4byte	.Ldebug_ranges3-.Ldebug_ranges2
 1909              	.Ldebug_ranges2:
 1910 0004 0500     		.2byte	0x5
 1911 0006 04       		.byte	0x4
 1912 0007 00       		.byte	0
 1913 0008 00000000 		.4byte	0
 1914              	.LLRL0:
 1915 000c 07       		.byte	0x7
 1916 000d 00000000 		.4byte	.LFB386
 1917 0011 34       		.uleb128 .LFE386-.LFB386
 1918 0012 07       		.byte	0x7
 1919 0013 00000000 		.4byte	.LFB409
 1920 0017 5C       		.uleb128 .LFE409-.LFB409
 1921 0018 07       		.byte	0x7
 1922 0019 00000000 		.4byte	.LFB410
 1923 001d 40       		.uleb128 .LFE410-.LFB410
 1924 001e 07       		.byte	0x7
 1925 001f 00000000 		.4byte	.LFB411
 1926 0023 16       		.uleb128 .LFE411-.LFB411
 1927 0024 07       		.byte	0x7
 1928 0025 00000000 		.4byte	.LFB432
 1929 0029 28       		.uleb128 .LFE432-.LFB432
 1930 002a 07       		.byte	0x7
 1931 002b 00000000 		.4byte	.LFB433
 1932 002f 3C       		.uleb128 .LFE433-.LFB433
 1933 0030 07       		.byte	0x7
 1934 0031 00000000 		.4byte	.LFB434
 1935 0035 3C       		.uleb128 .LFE434-.LFB434
ARM GAS  C:\Users\DEVELO~1\AppData\Local\Temp\ccuIUkPb.s 			page 35


 1936 0036 07       		.byte	0x7
 1937 0037 00000000 		.4byte	.LFB435
 1938 003b 1C       		.uleb128 .LFE435-.LFB435
 1939 003c 00       		.byte	0
 1940              	.Ldebug_ranges3:
 1941              		.section	.debug_line,"",%progbits
 1942              	.Ldebug_line0:
 1943 0000 56030000 		.section	.debug_str,"MS",%progbits,1
 1943      03002102 
 1943      00000201 
 1943      FB0E0D00 
 1943      01010101 
 1944              	.LASF25:
 1945 0000 504C4C31 		.ascii	"PLL1FRACR\000"
 1945      46524143 
 1945      5200
 1946              	.LASF107:
 1947 000a 66736D63 		.ascii	"fsmcInit\000"
 1947      496E6974 
 1947      00
 1948              	.LASF69:
 1949 0013 41504231 		.ascii	"APB1LLPENR\000"
 1949      4C4C5045 
 1949      4E5200
 1950              	.LASF62:
 1951 001e 41504234 		.ascii	"APB4ENR\000"
 1951      454E5200 
 1952              	.LASF81:
 1953 0026 53445254 		.ascii	"SDRTR\000"
 1953      5200
 1954              	.LASF70:
 1955 002c 41504231 		.ascii	"APB1HLPENR\000"
 1955      484C5045 
 1955      4E5200
 1956              	.LASF33:
 1957 0037 44324343 		.ascii	"D2CCIP2R\000"
 1957      49503252 
 1957      00
 1958              	.LASF56:
 1959 0040 41484232 		.ascii	"AHB2ENR\000"
 1959      454E5200 
 1960              	.LASF48:
 1961 0048 41504231 		.ascii	"APB1HRSTR\000"
 1961      48525354 
 1961      5200
 1962              	.LASF108:
 1963 0052 5F5F7263 		.ascii	"__rccResetAHB3\000"
 1963      63526573 
 1963      65744148 
 1963      423300
 1964              	.LASF101:
 1965 0061 474E5520 		.ascii	"GNU C17 11.3.1 20220712 -mcpu=cortex-m7 -mthumb -mf"
 1965      43313720 
 1965      31312E33 
 1965      2E312032 
 1965      30323230 
 1966 0094 6C6F6174 		.ascii	"loat-abi=soft -march=armv7e-m -ggdb -O0 -ffunction-"
ARM GAS  C:\Users\DEVELO~1\AppData\Local\Temp\ccuIUkPb.s 			page 36


 1966      2D616269 
 1966      3D736F66 
 1966      74202D6D 
 1966      61726368 
 1967 00c7 73656374 		.ascii	"sections -fdata-sections -fno-common\000"
 1967      696F6E73 
 1967      202D6664 
 1967      6174612D 
 1967      73656374 
 1968              	.LASF85:
 1969 00ec 73746174 		.ascii	"state\000"
 1969      6500
 1970              	.LASF5:
 1971 00f2 73686F72 		.ascii	"short int\000"
 1971      7420696E 
 1971      7400
 1972              	.LASF50:
 1973 00fc 41504234 		.ascii	"APB4RSTR\000"
 1973      52535452 
 1973      00
 1974              	.LASF76:
 1975 0105 53444352 		.ascii	"SDCR1\000"
 1975      3100
 1976              	.LASF77:
 1977 010b 53444352 		.ascii	"SDCR2\000"
 1977      3200
 1978              	.LASF40:
 1979 0111 42444352 		.ascii	"BDCR\000"
 1979      00
 1980              	.LASF93:
 1981 0116 56656374 		.ascii	"Vector100\000"
 1981      6F723130 
 1981      3000
 1982              	.LASF78:
 1983 0120 53445452 		.ascii	"SDTR1\000"
 1983      3100
 1984              	.LASF79:
 1985 0126 53445452 		.ascii	"SDTR2\000"
 1985      3200
 1986              	.LASF13:
 1987 012c 48534943 		.ascii	"HSICFGR\000"
 1987      46475200 
 1988              	.LASF34:
 1989 0134 44334343 		.ascii	"D3CCIPR\000"
 1989      49505200 
 1990              	.LASF10:
 1991 013c 5F5F7569 		.ascii	"__uint32_t\000"
 1991      6E743332 
 1991      5F7400
 1992              	.LASF24:
 1993 0147 504C4C31 		.ascii	"PLL1DIVR\000"
 1993      44495652 
 1993      00
 1994              	.LASF38:
 1995 0150 43494352 		.ascii	"CICR\000"
 1995      00
 1996              	.LASF64:
ARM GAS  C:\Users\DEVELO~1\AppData\Local\Temp\ccuIUkPb.s 			page 37


 1997 0155 41484233 		.ascii	"AHB3LPENR\000"
 1997      4C50454E 
 1997      5200
 1998              	.LASF16:
 1999 015f 43464752 		.ascii	"CFGR\000"
 1999      00
 2000              	.LASF100:
 2001 0164 72636345 		.ascii	"rccEnableAHB3\000"
 2001      6E61626C 
 2001      65414842 
 2001      3300
 2002              	.LASF19:
 2003 0172 44324346 		.ascii	"D2CFGR\000"
 2003      475200
 2004              	.LASF91:
 2005 0179 5F5F7472 		.ascii	"__trace_isr_leave\000"
 2005      6163655F 
 2005      6973725F 
 2005      6C656176 
 2005      6500
 2006              	.LASF39:
 2007 018b 52455345 		.ascii	"RESERVED5\000"
 2007      52564544 
 2007      3500
 2008              	.LASF41:
 2009 0195 52455345 		.ascii	"RESERVED6\000"
 2009      52564544 
 2009      3600
 2010              	.LASF94:
 2011 019f 66736D63 		.ascii	"fsmcStop\000"
 2011      53746F70 
 2011      00
 2012              	.LASF20:
 2013 01a8 44334346 		.ascii	"D3CFGR\000"
 2013      475200
 2014              	.LASF65:
 2015 01af 41484231 		.ascii	"AHB1LPENR\000"
 2015      4C50454E 
 2015      5200
 2016              	.LASF2:
 2017 01b9 6C6F6E67 		.ascii	"long double\000"
 2017      20646F75 
 2017      626C6500 
 2018              	.LASF54:
 2019 01c5 41484233 		.ascii	"AHB3ENR\000"
 2019      454E5200 
 2020              	.LASF22:
 2021 01cd 504C4C43 		.ascii	"PLLCKSELR\000"
 2021      4B53454C 
 2021      5200
 2022              	.LASF47:
 2023 01d7 41504231 		.ascii	"APB1LRSTR\000"
 2023      4C525354 
 2023      5200
 2024              	.LASF36:
 2025 01e1 43494552 		.ascii	"CIER\000"
 2025      00
ARM GAS  C:\Users\DEVELO~1\AppData\Local\Temp\ccuIUkPb.s 			page 38


 2026              	.LASF102:
 2027 01e6 2E2E2F2E 		.ascii	"../../../ChibiOS-Contrib-chibios-21.11.x/os/hal/src"
 2027      2E2F2E2E 
 2027      2F436869 
 2027      62694F53 
 2027      2D436F6E 
 2028 0219 2F68616C 		.ascii	"/hal_fsmc.c\000"
 2028      5F66736D 
 2028      632E6300 
 2029              	.LASF7:
 2030 0225 6C6F6E67 		.ascii	"long int\000"
 2030      20696E74 
 2030      00
 2031              	.LASF26:
 2032 022e 504C4C32 		.ascii	"PLL2DIVR\000"
 2032      44495652 
 2032      00
 2033              	.LASF74:
 2034 0237 5243435F 		.ascii	"RCC_TypeDef\000"
 2034      54797065 
 2034      44656600 
 2035              	.LASF49:
 2036 0243 41504232 		.ascii	"APB2RSTR\000"
 2036      52535452 
 2036      00
 2037              	.LASF73:
 2038 024c 52455345 		.ascii	"RESERVED13\000"
 2038      52564544 
 2038      313300
 2039              	.LASF92:
 2040 0257 5F5F7472 		.ascii	"__trace_isr_enter\000"
 2040      6163655F 
 2040      6973725F 
 2040      656E7465 
 2040      7200
 2041              	.LASF15:
 2042 0269 43534943 		.ascii	"CSICFGR\000"
 2042      46475200 
 2043              	.LASF68:
 2044 0271 41504233 		.ascii	"APB3LPENR\000"
 2044      4C50454E 
 2044      5200
 2045              	.LASF4:
 2046 027b 756E7369 		.ascii	"unsigned char\000"
 2046      676E6564 
 2046      20636861 
 2046      7200
 2047              	.LASF52:
 2048 0289 4433414D 		.ascii	"D3AMR\000"
 2048      5200
 2049              	.LASF60:
 2050 028f 41504231 		.ascii	"APB1HENR\000"
 2050      48454E52 
 2050      00
 2051              	.LASF106:
 2052 0298 5F5F6675 		.ascii	"__func__\000"
 2052      6E635F5F 
ARM GAS  C:\Users\DEVELO~1\AppData\Local\Temp\ccuIUkPb.s 			page 39


 2052      00
 2053              	.LASF27:
 2054 02a1 504C4C32 		.ascii	"PLL2FRACR\000"
 2054      46524143 
 2054      5200
 2055              	.LASF53:
 2056 02ab 52455345 		.ascii	"RESERVED11\000"
 2056      52564544 
 2056      313100
 2057              	.LASF63:
 2058 02b6 52455345 		.ascii	"RESERVED12\000"
 2058      52564544 
 2058      313200
 2059              	.LASF61:
 2060 02c1 41504232 		.ascii	"APB2ENR\000"
 2060      454E5200 
 2061              	.LASF59:
 2062 02c9 41504231 		.ascii	"APB1LENR\000"
 2062      4C454E52 
 2062      00
 2063              	.LASF14:
 2064 02d2 43525243 		.ascii	"CRRCR\000"
 2064      5200
 2065              	.LASF3:
 2066 02d8 7369676E 		.ascii	"signed char\000"
 2066      65642063 
 2066      68617200 
 2067              	.LASF9:
 2068 02e4 6C6F6E67 		.ascii	"long long unsigned int\000"
 2068      206C6F6E 
 2068      6720756E 
 2068      7369676E 
 2068      65642069 
 2069              	.LASF45:
 2070 02fb 41484234 		.ascii	"AHB4RSTR\000"
 2070      52535452 
 2070      00
 2071              	.LASF11:
 2072 0304 75696E74 		.ascii	"uint32_t\000"
 2072      33325F74 
 2072      00
 2073              	.LASF99:
 2074 030d 72636344 		.ascii	"rccDisableAHB3\000"
 2074      69736162 
 2074      6C654148 
 2074      423300
 2075              	.LASF0:
 2076 031c 756E7369 		.ascii	"unsigned int\000"
 2076      676E6564 
 2076      20696E74 
 2076      00
 2077              	.LASF44:
 2078 0329 41484232 		.ascii	"AHB2RSTR\000"
 2078      52535452 
 2078      00
 2079              	.LASF8:
 2080 0332 6C6F6E67 		.ascii	"long unsigned int\000"
ARM GAS  C:\Users\DEVELO~1\AppData\Local\Temp\ccuIUkPb.s 			page 40


 2080      20756E73 
 2080      69676E65 
 2080      6420696E 
 2080      7400
 2081              	.LASF87:
 2082 0344 46534D43 		.ascii	"FSMC_UNINIT\000"
 2082      5F554E49 
 2082      4E495400 
 2083              	.LASF18:
 2084 0350 44314346 		.ascii	"D1CFGR\000"
 2084      475200
 2085              	.LASF57:
 2086 0357 41484234 		.ascii	"AHB4ENR\000"
 2086      454E5200 
 2087              	.LASF23:
 2088 035f 504C4C43 		.ascii	"PLLCFGR\000"
 2088      46475200 
 2089              	.LASF6:
 2090 0367 73686F72 		.ascii	"short unsigned int\000"
 2090      7420756E 
 2090      7369676E 
 2090      65642069 
 2090      6E7400
 2091              	.LASF89:
 2092 037a 46534D43 		.ascii	"FSMC_READY\000"
 2092      5F524541 
 2092      445900
 2093              	.LASF84:
 2094 0385 46534D43 		.ascii	"FSMCDriver\000"
 2094      44726976 
 2094      657200
 2095              	.LASF12:
 2096 0390 63686172 		.ascii	"char\000"
 2096      00
 2097              	.LASF31:
 2098 0395 44314343 		.ascii	"D1CCIPR\000"
 2098      49505200 
 2099              	.LASF90:
 2100 039d 66736D63 		.ascii	"fsmcstate_t\000"
 2100      73746174 
 2100      655F7400 
 2101              	.LASF75:
 2102 03a9 5F426F6F 		.ascii	"_Bool\000"
 2102      6C00
 2103              	.LASF67:
 2104 03af 41484234 		.ascii	"AHB4LPENR\000"
 2104      4C50454E 
 2104      5200
 2105              	.LASF66:
 2106 03b9 41484232 		.ascii	"AHB2LPENR\000"
 2106      4C50454E 
 2106      5200
 2107              	.LASF28:
 2108 03c3 504C4C33 		.ascii	"PLL3DIVR\000"
 2108      44495652 
 2108      00
 2109              	.LASF17:
ARM GAS  C:\Users\DEVELO~1\AppData\Local\Temp\ccuIUkPb.s 			page 41


 2110 03cc 52455345 		.ascii	"RESERVED1\000"
 2110      52564544 
 2110      3100
 2111              	.LASF21:
 2112 03d6 52455345 		.ascii	"RESERVED2\000"
 2112      52564544 
 2112      3200
 2113              	.LASF30:
 2114 03e0 52455345 		.ascii	"RESERVED3\000"
 2114      52564544 
 2114      3300
 2115              	.LASF35:
 2116 03ea 52455345 		.ascii	"RESERVED4\000"
 2116      52564544 
 2116      3400
 2117              	.LASF46:
 2118 03f4 41504233 		.ascii	"APB3RSTR\000"
 2118      52535452 
 2118      00
 2119              	.LASF98:
 2120 03fd 72636352 		.ascii	"rccResetAHB3\000"
 2120      65736574 
 2120      41484233 
 2120      00
 2121              	.LASF51:
 2122 040a 52455345 		.ascii	"RESERVED8\000"
 2122      52564544 
 2122      3800
 2123              	.LASF58:
 2124 0414 41504233 		.ascii	"APB3ENR\000"
 2124      454E5200 
 2125              	.LASF37:
 2126 041c 43494652 		.ascii	"CIFR\000"
 2126      00
 2127              	.LASF32:
 2128 0421 44324343 		.ascii	"D2CCIP1R\000"
 2128      49503152 
 2128      00
 2129              	.LASF82:
 2130 042a 53445352 		.ascii	"SDSR\000"
 2130      00
 2131              	.LASF55:
 2132 042f 41484231 		.ascii	"AHB1ENR\000"
 2132      454E5200 
 2133              	.LASF1:
 2134 0437 6C6F6E67 		.ascii	"long long int\000"
 2134      206C6F6E 
 2134      6720696E 
 2134      7400
 2135              	.LASF97:
 2136 0445 6D61736B 		.ascii	"mask\000"
 2136      00
 2137              	.LASF88:
 2138 044a 46534D43 		.ascii	"FSMC_STOP\000"
 2138      5F53544F 
 2138      5000
 2139              	.LASF95:
ARM GAS  C:\Users\DEVELO~1\AppData\Local\Temp\ccuIUkPb.s 			page 42


 2140 0454 66736D63 		.ascii	"fsmcStart\000"
 2140      53746172 
 2140      7400
 2141              	.LASF96:
 2142 045e 66736D63 		.ascii	"fsmcp\000"
 2142      7000
 2143              	.LASF103:
 2144 0464 433A5C50 		.ascii	"C:\\PROJET\\ChibiOS project\\ChibiOS_21.11.4\\demos"
 2144      524F4A45 
 2144      545C4368 
 2144      6962694F 
 2144      53207072 
 2145 0493 5C53544D 		.ascii	"\\STM32\\RT-STM32H743ZI_REV_XY-NUCLEO144_Quartz8M\000"
 2145      33325C52 
 2145      542D5354 
 2145      4D333248 
 2145      3734335A 
 2146              	.LASF43:
 2147 04c3 41484231 		.ascii	"AHB1RSTR\000"
 2147      52535452 
 2147      00
 2148              	.LASF80:
 2149 04cc 5344434D 		.ascii	"SDCMR\000"
 2149      5200
 2150              	.LASF42:
 2151 04d2 41484233 		.ascii	"AHB3RSTR\000"
 2151      52535452 
 2151      00
 2152              	.LASF83:
 2153 04db 46534D43 		.ascii	"FSMC_SDRAM_TypeDef\000"
 2153      5F534452 
 2153      414D5F54 
 2153      79706544 
 2153      656600
 2154              	.LASF86:
 2155 04ee 73647261 		.ascii	"sdram\000"
 2155      6D00
 2156              	.LASF72:
 2157 04f4 41504234 		.ascii	"APB4LPENR\000"
 2157      4C50454E 
 2157      5200
 2158              	.LASF71:
 2159 04fe 41504232 		.ascii	"APB2LPENR\000"
 2159      4C50454E 
 2159      5200
 2160              	.LASF29:
 2161 0508 504C4C33 		.ascii	"PLL3FRACR\000"
 2161      46524143 
 2161      5200
 2162              	.LASF105:
 2163 0512 5F5F706F 		.ascii	"__port_irq_epilogue\000"
 2163      72745F69 
 2163      72715F65 
 2163      70696C6F 
 2163      67756500 
 2164              	.LASF104:
 2165 0526 46534D43 		.ascii	"FSMCD1\000"
ARM GAS  C:\Users\DEVELO~1\AppData\Local\Temp\ccuIUkPb.s 			page 43


 2165      443100
 2166              		.ident	"GCC: (Arm GNU Toolchain 11.3.Rel1) 11.3.1 20220712"
ARM GAS  C:\Users\DEVELO~1\AppData\Local\Temp\ccuIUkPb.s 			page 44


DEFINED SYMBOLS
                            *ABS*:00000000 hal_fsmc.c
C:\Users\DEVELO~1\AppData\Local\Temp\ccuIUkPb.s:18     .text.__rccResetAHB3:00000000 $t
C:\Users\DEVELO~1\AppData\Local\Temp\ccuIUkPb.s:23     .text.__rccResetAHB3:00000000 __rccResetAHB3
C:\Users\DEVELO~1\AppData\Local\Temp\ccuIUkPb.s:74     .text.__rccResetAHB3:00000030 $d
C:\Users\DEVELO~1\AppData\Local\Temp\ccuIUkPb.s:79     .text.rccEnableAHB3:00000000 $t
C:\Users\DEVELO~1\AppData\Local\Temp\ccuIUkPb.s:84     .text.rccEnableAHB3:00000000 rccEnableAHB3
C:\Users\DEVELO~1\AppData\Local\Temp\ccuIUkPb.s:150    .text.rccEnableAHB3:00000058 $d
C:\Users\DEVELO~1\AppData\Local\Temp\ccuIUkPb.s:155    .text.rccDisableAHB3:00000000 $t
C:\Users\DEVELO~1\AppData\Local\Temp\ccuIUkPb.s:160    .text.rccDisableAHB3:00000000 rccDisableAHB3
C:\Users\DEVELO~1\AppData\Local\Temp\ccuIUkPb.s:213    .text.rccDisableAHB3:0000003c $d
C:\Users\DEVELO~1\AppData\Local\Temp\ccuIUkPb.s:218    .text.rccResetAHB3:00000000 $t
C:\Users\DEVELO~1\AppData\Local\Temp\ccuIUkPb.s:223    .text.rccResetAHB3:00000000 rccResetAHB3
C:\Users\DEVELO~1\AppData\Local\Temp\ccuIUkPb.s:257    .bss.FSMCD1:00000000 FSMCD1
C:\Users\DEVELO~1\AppData\Local\Temp\ccuIUkPb.s:254    .bss.FSMCD1:00000000 $d
C:\Users\DEVELO~1\AppData\Local\Temp\ccuIUkPb.s:260    .text.fsmcInit:00000000 $t
C:\Users\DEVELO~1\AppData\Local\Temp\ccuIUkPb.s:266    .text.fsmcInit:00000000 fsmcInit
C:\Users\DEVELO~1\AppData\Local\Temp\ccuIUkPb.s:306    .text.fsmcInit:00000020 $d
C:\Users\DEVELO~1\AppData\Local\Temp\ccuIUkPb.s:312    .text.fsmcStart:00000000 $t
C:\Users\DEVELO~1\AppData\Local\Temp\ccuIUkPb.s:318    .text.fsmcStart:00000000 fsmcStart
C:\Users\DEVELO~1\AppData\Local\Temp\ccuIUkPb.s:368    .text.fsmcStart:00000038 $d
C:\Users\DEVELO~1\AppData\Local\Temp\ccuIUkPb.s:373    .text.fsmcStop:00000000 $t
C:\Users\DEVELO~1\AppData\Local\Temp\ccuIUkPb.s:379    .text.fsmcStop:00000000 fsmcStop
C:\Users\DEVELO~1\AppData\Local\Temp\ccuIUkPb.s:428    .text.fsmcStop:00000038 $d
C:\Users\DEVELO~1\AppData\Local\Temp\ccuIUkPb.s:433    .text.Vector100:00000000 $t
C:\Users\DEVELO~1\AppData\Local\Temp\ccuIUkPb.s:439    .text.Vector100:00000000 Vector100
C:\Users\DEVELO~1\AppData\Local\Temp\ccuIUkPb.s:464    .text.Vector100:00000018 $d
C:\Users\DEVELO~1\AppData\Local\Temp\ccuIUkPb.s:472    .rodata.__func__.0:00000000 __func__.0
C:\Users\DEVELO~1\AppData\Local\Temp\ccuIUkPb.s:469    .rodata.__func__.0:00000000 $d

UNDEFINED SYMBOLS
__trace_isr_enter
__trace_isr_leave
__port_irq_epilogue
