ARM GAS  C:\Users\DEVELO~1\AppData\Local\Temp\ccYSbbyg.s 			page 1


   1              		.cpu cortex-m7
   2              		.arch armv7e-m
   3              		.fpu softvfp
   4              		.eabi_attribute 20, 1
   5              		.eabi_attribute 21, 1
   6              		.eabi_attribute 23, 3
   7              		.eabi_attribute 24, 1
   8              		.eabi_attribute 25, 1
   9              		.eabi_attribute 26, 1
  10              		.eabi_attribute 30, 6
  11              		.eabi_attribute 34, 1
  12              		.eabi_attribute 18, 4
  13              		.file	"main.c"
  14              		.text
  15              	.Ltext0:
  16              		.cfi_sections	.debug_frame
  17              		.section	.dma,"aw"
  18              		.align	5
  19              		.type	adc_buf, %object
  20              		.size	adc_buf, 2
  21              	adc_buf:
  22 0000 0000     		.space	2
  23              		.section	.rodata.adccfg,"a"
  24              		.align	2
  25              		.type	adccfg, %object
  26              		.size	adccfg, 8
  27              	adccfg:
  28 0000 00000000 		.space	8
  28      00000000 
  29              		.section	.rodata.adcgrpcfg,"a"
  30              		.align	2
  31              		.type	adcgrpcfg, %object
  32              		.size	adcgrpcfg, 88
  33              	adcgrpcfg:
  34 0000 01       		.byte	1
  35 0001 000000   		.space	3
  36 0004 01000000 		.word	1
  37 0008 00000000 		.word	0
  38 000c 00000000 		.word	0
  39 0010 00200000 		.word	8192
  40 0014 00000000 		.word	0
  41 0018 00000000 		.space	4
  42 001c 80000000 		.word	128
  43 0020 00000000 		.space	32
  43      00000000 
  43      00000000 
  43      00000000 
  43      00000000 
  44 0040 0000A000 		.word	10485760
  45 0044 00000000 		.word	0
  46 0048 C0010000 		.word	448
  47 004c 00000000 		.word	0
  48 0050 00000000 		.word	0
  49 0054 00000000 		.word	0
  50              		.section	.rodata
  51              		.align	2
  52              	.LC0:
ARM GAS  C:\Users\DEVELO~1\AppData\Local\Temp\ccYSbbyg.s 			page 2


  53 0000 41444320 		.ascii	"ADC START FAIL\000"
  53      53544152 
  53      54204641 
  53      494C00
  54 000f 00       		.align	2
  55              	.LC1:
  56 0010 41444331 		.ascii	"ADC1 DMA OK\000"
  56      20444D41 
  56      204F4B00 
  57              		.align	2
  58              	.LC2:
  59 001c 56414C20 		.ascii	"VAL = %u\000"
  59      3D202575 
  59      00
  60 0025 000000   		.align	2
  61              	.LC3:
  62 0028 434E5420 		.ascii	"CNT = %lu\000"
  62      3D20256C 
  62      7500
  63              		.section	.text.main,"ax",%progbits
  64              		.align	1
  65              		.global	main
  66              		.syntax unified
  67              		.thumb
  68              		.thumb_func
  69              		.type	main, %function
  70              	main:
  71              	.LFB435:
  72              		.file 1 "main.c"
  73              		.loc 1 47 16
  74              		.cfi_startproc
  75              		@ args = 0, pretend = 0, frame = 96
  76              		@ frame_needed = 1, uses_anonymous_args = 0
  77 0000 80B5     		push	{r7, lr}
  78              		.cfi_def_cfa_offset 8
  79              		.cfi_offset 7, -8
  80              		.cfi_offset 14, -4
  81 0002 98B0     		sub	sp, sp, #96
  82              		.cfi_def_cfa_offset 104
  83 0004 00AF     		add	r7, sp, #0
  84              		.cfi_def_cfa_register 7
  85              		.loc 1 48 3
  86 0006 FFF7FEFF 		bl	halInit
  87              		.loc 1 49 3
  88 000a FFF7FEFF 		bl	chSysInit
  89              		.loc 1 51 3
  90 000e FFF7FEFF 		bl	drivers_init_all
  91              		.loc 1 52 3
  92 0012 FFF7FEFF 		bl	drv_display_init
  93              		.loc 1 55 3
  94 0016 0322     		movs	r2, #3
  95 0018 8021     		movs	r1, #128
  96 001a 4348     		ldr	r0, .L9
  97 001c FFF7FEFF 		bl	_pal_lld_setgroupmode
  98              		.loc 1 58 15
  99 0020 4249     		ldr	r1, .L9+4
 100 0022 4348     		ldr	r0, .L9+8
ARM GAS  C:\Users\DEVELO~1\AppData\Local\Temp\ccYSbbyg.s 			page 3


 101 0024 FFF7FEFF 		bl	adcStart
 102 0028 3865     		str	r0, [r7, #80]
 103              		.loc 1 59 6
 104 002a 3B6D     		ldr	r3, [r7, #80]
 105 002c 002B     		cmp	r3, #0
 106 002e 0DD0     		beq	.L2
 107              		.loc 1 60 5
 108 0030 FFF7FEFF 		bl	drv_display_clear
 109              		.loc 1 61 5
 110 0034 3F4A     		ldr	r2, .L9+12
 111 0036 0021     		movs	r1, #0
 112 0038 0020     		movs	r0, #0
 113 003a FFF7FEFF 		bl	drv_display_draw_text
 114              		.loc 1 62 5
 115 003e FFF7FEFF 		bl	drv_display_update
 116              	.L3:
 117              		.loc 1 64 7 discriminator 1
 118 0042 42F21070 		movw	r0, #10000
 119 0046 FFF7FEFF 		bl	chThdSleep
 120 004a FAE7     		b	.L3
 121              	.L2:
 122              	.LBB17:
 123              		.loc 1 69 3
 124 004c 3A4B     		ldr	r3, .L9+16
 125 004e FB65     		str	r3, [r7, #92]
 126 0050 FB6D     		ldr	r3, [r7, #92]
 127 0052 0233     		adds	r3, r3, #2
 128 0054 FB64     		str	r3, [r7, #76]
 129              	.LBB18:
 130              	.LBB19:
 131              		.file 2 "../../../os/common/ext/ARM/CMSIS/Core/Include/cmsis_gcc.h"
 132              		.loc 2 879 3
 133              		.syntax unified
 134              	@ 879 "../../../os/common/ext/ARM/CMSIS/Core/Include/cmsis_gcc.h" 1
 135 0056 BFF34F8F 		dsb 0xF
 136              	@ 0 "" 2
 137              		.loc 2 880 1
 138              		.thumb
 139              		.syntax unified
 140 005a 00BF     		nop
 141              	.LBE19:
 142              	.LBE18:
 143              		.loc 1 69 3
 144 005c 06E0     		b	.L4
 145              	.L5:
 146              		.loc 1 69 3 is_stmt 0 discriminator 3
 147 005e 374A     		ldr	r2, .L9+20
 148 0060 FB6D     		ldr	r3, [r7, #92]
 149 0062 C2F87032 		str	r3, [r2, #624]
 150 0066 FB6D     		ldr	r3, [r7, #92]
 151 0068 2033     		adds	r3, r3, #32
 152 006a FB65     		str	r3, [r7, #92]
 153              	.L4:
 154              		.loc 1 69 3 discriminator 1
 155 006c FA6D     		ldr	r2, [r7, #92]
 156 006e FB6C     		ldr	r3, [r7, #76]
 157 0070 9A42     		cmp	r2, r3
ARM GAS  C:\Users\DEVELO~1\AppData\Local\Temp\ccYSbbyg.s 			page 4


 158 0072 F4D3     		bcc	.L5
 159              	.LBB20:
 160              	.LBB21:
 161              		.loc 2 879 3 is_stmt 1
 162              		.syntax unified
 163              	@ 879 "../../../os/common/ext/ARM/CMSIS/Core/Include/cmsis_gcc.h" 1
 164 0074 BFF34F8F 		dsb 0xF
 165              	@ 0 "" 2
 166              		.loc 2 880 1
 167              		.thumb
 168              		.syntax unified
 169 0078 00BF     		nop
 170              	.LBE21:
 171              	.LBE20:
 172              	.LBB22:
 173              	.LBB23:
 174              		.loc 2 868 3
 175              		.syntax unified
 176              	@ 868 "../../../os/common/ext/ARM/CMSIS/Core/Include/cmsis_gcc.h" 1
 177 007a BFF36F8F 		isb 0xF
 178              	@ 0 "" 2
 179              		.loc 2 869 1
 180              		.thumb
 181              		.syntax unified
 182 007e 00BF     		nop
 183              	.LBE23:
 184              	.LBE22:
 185              	.LBE17:
 186              		.loc 1 72 3
 187 0080 0123     		movs	r3, #1
 188 0082 2D4A     		ldr	r2, .L9+16
 189 0084 2E49     		ldr	r1, .L9+24
 190 0086 2A48     		ldr	r0, .L9+8
 191 0088 FFF7FEFF 		bl	adcStartConversion
 192              		.loc 1 77 12
 193 008c 0023     		movs	r3, #0
 194 008e BB65     		str	r3, [r7, #88]
 195              	.L8:
 196              	.LBB24:
 197              	.LBB25:
 198              		.loc 1 81 5
 199 0090 294B     		ldr	r3, .L9+16
 200 0092 7B65     		str	r3, [r7, #84]
 201 0094 7B6D     		ldr	r3, [r7, #84]
 202 0096 0233     		adds	r3, r3, #2
 203 0098 BB64     		str	r3, [r7, #72]
 204              	.LBB26:
 205              	.LBB27:
 206              		.loc 2 879 3
 207              		.syntax unified
 208              	@ 879 "../../../os/common/ext/ARM/CMSIS/Core/Include/cmsis_gcc.h" 1
 209 009a BFF34F8F 		dsb 0xF
 210              	@ 0 "" 2
 211              		.loc 2 880 1
 212              		.thumb
 213              		.syntax unified
 214 009e 00BF     		nop
ARM GAS  C:\Users\DEVELO~1\AppData\Local\Temp\ccYSbbyg.s 			page 5


 215              	.LBE27:
 216              	.LBE26:
 217              		.loc 1 81 5
 218 00a0 06E0     		b	.L6
 219              	.L7:
 220              		.loc 1 81 5 is_stmt 0 discriminator 3
 221 00a2 264A     		ldr	r2, .L9+20
 222 00a4 7B6D     		ldr	r3, [r7, #84]
 223 00a6 C2F85C32 		str	r3, [r2, #604]
 224 00aa 7B6D     		ldr	r3, [r7, #84]
 225 00ac 2033     		adds	r3, r3, #32
 226 00ae 7B65     		str	r3, [r7, #84]
 227              	.L6:
 228              		.loc 1 81 5 discriminator 1
 229 00b0 7A6D     		ldr	r2, [r7, #84]
 230 00b2 BB6C     		ldr	r3, [r7, #72]
 231 00b4 9A42     		cmp	r2, r3
 232 00b6 F4D3     		bcc	.L7
 233              	.LBB28:
 234              	.LBB29:
 235              		.loc 2 879 3 is_stmt 1
 236              		.syntax unified
 237              	@ 879 "../../../os/common/ext/ARM/CMSIS/Core/Include/cmsis_gcc.h" 1
 238 00b8 BFF34F8F 		dsb 0xF
 239              	@ 0 "" 2
 240              		.loc 2 880 1
 241              		.thumb
 242              		.syntax unified
 243 00bc 00BF     		nop
 244              	.LBE29:
 245              	.LBE28:
 246              	.LBB30:
 247              	.LBB31:
 248              		.loc 2 868 3
 249              		.syntax unified
 250              	@ 868 "../../../os/common/ext/ARM/CMSIS/Core/Include/cmsis_gcc.h" 1
 251 00be BFF36F8F 		isb 0xF
 252              	@ 0 "" 2
 253              		.loc 2 869 1
 254              		.thumb
 255              		.syntax unified
 256 00c2 00BF     		nop
 257              	.LBE31:
 258              	.LBE30:
 259              	.LBE25:
 260              		.loc 1 83 25
 261 00c4 1C4B     		ldr	r3, .L9+16
 262 00c6 1B88     		ldrh	r3, [r3]
 263              		.loc 1 83 14
 264 00c8 C3F30B03 		ubfx	r3, r3, #0, #12
 265 00cc A7F84630 		strh	r3, [r7, #70]	@ movhi
 266              		.loc 1 85 12
 267 00d0 BB6D     		ldr	r3, [r7, #88]
 268 00d2 0133     		adds	r3, r3, #1
 269 00d4 BB65     		str	r3, [r7, #88]
 270              		.loc 1 87 5
 271 00d6 FFF7FEFF 		bl	drv_display_clear
ARM GAS  C:\Users\DEVELO~1\AppData\Local\Temp\ccYSbbyg.s 			page 6


 272              		.loc 1 88 5
 273 00da 1A4A     		ldr	r2, .L9+28
 274 00dc 0021     		movs	r1, #0
 275 00de 0020     		movs	r0, #0
 276 00e0 FFF7FEFF 		bl	drv_display_draw_text
 277              		.loc 1 90 5
 278 00e4 B7F84630 		ldrh	r3, [r7, #70]
 279 00e8 07F12400 		add	r0, r7, #36
 280 00ec 164A     		ldr	r2, .L9+32
 281 00ee 2021     		movs	r1, #32
 282 00f0 FFF7FEFF 		bl	snprintf
 283              		.loc 1 91 5
 284 00f4 07F12403 		add	r3, r7, #36
 285 00f8 1A46     		mov	r2, r3
 286 00fa 0C21     		movs	r1, #12
 287 00fc 0020     		movs	r0, #0
 288 00fe FFF7FEFF 		bl	drv_display_draw_text
 289              		.loc 1 93 5
 290 0102 381D     		adds	r0, r7, #4
 291 0104 BB6D     		ldr	r3, [r7, #88]
 292 0106 114A     		ldr	r2, .L9+36
 293 0108 2021     		movs	r1, #32
 294 010a FFF7FEFF 		bl	snprintf
 295              		.loc 1 94 5
 296 010e 3B1D     		adds	r3, r7, #4
 297 0110 1A46     		mov	r2, r3
 298 0112 1821     		movs	r1, #24
 299 0114 0020     		movs	r0, #0
 300 0116 FFF7FEFF 		bl	drv_display_draw_text
 301              		.loc 1 96 5
 302 011a FFF7FEFF 		bl	drv_display_update
 303              		.loc 1 98 5
 304 011e 4FF4FA60 		mov	r0, #2000
 305 0122 FFF7FEFF 		bl	chThdSleep
 306              	.LBE24:
 307              		.loc 1 79 16
 308 0126 B3E7     		b	.L8
 309              	.L10:
 310              		.align	2
 311              	.L9:
 312 0128 00000258 		.word	1476526080
 313 012c 00000000 		.word	adccfg
 314 0130 00000000 		.word	ADCD1
 315 0134 00000000 		.word	.LC0
 316 0138 00000000 		.word	adc_buf
 317 013c 00ED00E0 		.word	-536810240
 318 0140 00000000 		.word	adcgrpcfg
 319 0144 10000000 		.word	.LC1
 320 0148 1C000000 		.word	.LC2
 321 014c 28000000 		.word	.LC3
 322              		.cfi_endproc
 323              	.LFE435:
 324              		.size	main, .-main
 325              		.text
 326              	.Letext0:
 327              		.file 3 "c:\\chibistudio\\tools\\gnu tools arm embedded\\11.3 2022.08\\lib\\gcc\\arm-none-eabi\\11
 328              		.file 4 "c:\\chibistudio\\tools\\gnu tools arm embedded\\11.3 2022.08\\arm-none-eabi\\include\\mac
ARM GAS  C:\Users\DEVELO~1\AppData\Local\Temp\ccYSbbyg.s 			page 7


 329              		.file 5 "c:\\chibistudio\\tools\\gnu tools arm embedded\\11.3 2022.08\\arm-none-eabi\\include\\sys
 330              		.file 6 "../../../os/common/ports/ARM-common/chtypes.h"
 331              		.file 7 "../../../os/rt/include/chearly.h"
 332              		.file 8 "../../../os/rt/include/chobjects.h"
 333              		.file 9 "../../../os/rt/include/chrfcu.h"
 334              		.file 10 "../../../os/rt/include/chdebug.h"
 335              		.file 11 "../../../os/rt/include/chtime.h"
 336              		.file 12 "../../../os/rt/include/chlists.h"
 337              		.file 13 "../../../os/rt/include/chtrace.h"
 338              		.file 14 "../../../os/common/ext/ARM/CMSIS/Core/Include/core_cm7.h"
 339              		.file 15 "../../../os/common/ext/ST/STM32H7xx/stm32h743xx.h"
 340              		.file 16 "../../../os/common/ports/ARMv7-M/chcore.h"
 341              		.file 17 "../../../os/rt/include/chsem.h"
 342              		.file 18 "../../../os/rt/include/chmtx.h"
 343              		.file 19 "../../../os/hal/ports/STM32/LLD/DMAv2/stm32_dma.h"
 344              		.file 20 "../../../os/hal/ports/STM32/LLD/GPIOv2/stm32_gpio.h"
 345              		.file 21 "../../../os/hal/ports/STM32/LLD/GPIOv2/hal_pal_lld.h"
 346              		.file 22 "../../../os/hal/include/hal_adc.h"
 347              		.file 23 "../../../os/hal/ports/STM32/LLD/ADCv4/hal_adc_lld.h"
 348              		.file 24 "../../../os/rt/include/chthreads.h"
 349              		.file 25 "drivers/drv_display.h"
 350              		.file 26 "c:\\chibistudio\\tools\\gnu tools arm embedded\\11.3 2022.08\\arm-none-eabi\\include\\st
 351              		.file 27 "drivers/drivers.h"
 352              		.file 28 "../../../os/rt/include/chsys.h"
 353              		.file 29 "../../../os/hal/include/hal.h"
 354              		.section	.debug_info,"",%progbits
 355              	.Ldebug_info0:
 356 0000 8D160000 		.4byte	0x168d
 357 0004 0500     		.2byte	0x5
 358 0006 01       		.byte	0x1
 359 0007 04       		.byte	0x4
 360 0008 00000000 		.4byte	.Ldebug_abbrev0
 361 000c 23       		.uleb128 0x23
 362 000d A1020000 		.4byte	.LASF300
 363 0011 1D       		.byte	0x1d
 364 0012 03090000 		.4byte	.LASF301
 365 0016 7D030000 		.4byte	.LASF302
 366 001a 0C000000 		.4byte	.LLRL0
 367 001e 00000000 		.4byte	0
 368 0022 00000000 		.4byte	.Ldebug_line0
 369 0026 24       		.uleb128 0x24
 370 0027 04       		.byte	0x4
 371 0028 05       		.byte	0x5
 372 0029 696E7400 		.ascii	"int\000"
 373 002d 03       		.uleb128 0x3
 374 002e FB030000 		.4byte	.LASF4
 375 0032 03       		.byte	0x3
 376 0033 D1       		.byte	0xd1
 377 0034 17       		.byte	0x17
 378 0035 39000000 		.4byte	0x39
 379 0039 0C       		.uleb128 0xc
 380 003a 04       		.byte	0x4
 381 003b 07       		.byte	0x7
 382 003c 96000000 		.4byte	.LASF0
 383 0040 0C       		.uleb128 0xc
 384 0041 08       		.byte	0x8
 385 0042 05       		.byte	0x5
ARM GAS  C:\Users\DEVELO~1\AppData\Local\Temp\ccYSbbyg.s 			page 8


 386 0043 FC050000 		.4byte	.LASF1
 387 0047 0C       		.uleb128 0xc
 388 0048 08       		.byte	0x8
 389 0049 04       		.byte	0x4
 390 004a 8D070000 		.4byte	.LASF2
 391 004e 0C       		.uleb128 0xc
 392 004f 01       		.byte	0x1
 393 0050 06       		.byte	0x6
 394 0051 A00A0000 		.4byte	.LASF3
 395 0055 03       		.uleb128 0x3
 396 0056 DA080000 		.4byte	.LASF5
 397 005a 04       		.byte	0x4
 398 005b 2B       		.byte	0x2b
 399 005c 18       		.byte	0x18
 400 005d 61000000 		.4byte	0x61
 401 0061 0C       		.uleb128 0xc
 402 0062 01       		.byte	0x1
 403 0063 08       		.byte	0x8
 404 0064 C0090000 		.4byte	.LASF6
 405 0068 0C       		.uleb128 0xc
 406 0069 02       		.byte	0x2
 407 006a 05       		.byte	0x5
 408 006b 23010000 		.4byte	.LASF7
 409 006f 03       		.uleb128 0x3
 410 0070 6D020000 		.4byte	.LASF8
 411 0074 04       		.byte	0x4
 412 0075 39       		.byte	0x39
 413 0076 19       		.byte	0x19
 414 0077 7B000000 		.4byte	0x7b
 415 007b 0C       		.uleb128 0xc
 416 007c 02       		.byte	0x2
 417 007d 07       		.byte	0x7
 418 007e B90A0000 		.4byte	.LASF9
 419 0082 03       		.uleb128 0x3
 420 0083 CC000000 		.4byte	.LASF10
 421 0087 04       		.byte	0x4
 422 0088 4D       		.byte	0x4d
 423 0089 18       		.byte	0x18
 424 008a 8E000000 		.4byte	0x8e
 425 008e 0C       		.uleb128 0xc
 426 008f 04       		.byte	0x4
 427 0090 05       		.byte	0x5
 428 0091 00000000 		.4byte	.LASF11
 429 0095 03       		.uleb128 0x3
 430 0096 D3090000 		.4byte	.LASF12
 431 009a 04       		.byte	0x4
 432 009b 4F       		.byte	0x4f
 433 009c 19       		.byte	0x19
 434 009d A1000000 		.4byte	0xa1
 435 00a1 0C       		.uleb128 0xc
 436 00a2 04       		.byte	0x4
 437 00a3 07       		.byte	0x7
 438 00a4 2D090000 		.4byte	.LASF13
 439 00a8 03       		.uleb128 0x3
 440 00a9 8E050000 		.4byte	.LASF14
 441 00ad 04       		.byte	0x4
 442 00ae 69       		.byte	0x69
ARM GAS  C:\Users\DEVELO~1\AppData\Local\Temp\ccYSbbyg.s 			page 9


 443 00af 19       		.byte	0x19
 444 00b0 B4000000 		.4byte	0xb4
 445 00b4 0C       		.uleb128 0xc
 446 00b5 08       		.byte	0x8
 447 00b6 07       		.byte	0x7
 448 00b7 2E020000 		.4byte	.LASF15
 449 00bb 03       		.uleb128 0x3
 450 00bc 99050000 		.4byte	.LASF16
 451 00c0 05       		.byte	0x5
 452 00c1 18       		.byte	0x18
 453 00c2 13       		.byte	0x13
 454 00c3 55000000 		.4byte	0x55
 455 00c7 0E       		.uleb128 0xe
 456 00c8 BB000000 		.4byte	0xbb
 457 00cc 03       		.uleb128 0x3
 458 00cd 99070000 		.4byte	.LASF17
 459 00d1 05       		.byte	0x5
 460 00d2 24       		.byte	0x24
 461 00d3 14       		.byte	0x14
 462 00d4 6F000000 		.4byte	0x6f
 463 00d8 03       		.uleb128 0x3
 464 00d9 7B090000 		.4byte	.LASF18
 465 00dd 05       		.byte	0x5
 466 00de 2C       		.byte	0x2c
 467 00df 13       		.byte	0x13
 468 00e0 82000000 		.4byte	0x82
 469 00e4 03       		.uleb128 0x3
 470 00e5 A8000000 		.4byte	.LASF19
 471 00e9 05       		.byte	0x5
 472 00ea 30       		.byte	0x30
 473 00eb 14       		.byte	0x14
 474 00ec 95000000 		.4byte	0x95
 475 00f0 0E       		.uleb128 0xe
 476 00f1 E4000000 		.4byte	0xe4
 477 00f5 0F       		.uleb128 0xf
 478 00f6 F0000000 		.4byte	0xf0
 479 00fa 03       		.uleb128 0x3
 480 00fb BE080000 		.4byte	.LASF20
 481 00ff 05       		.byte	0x5
 482 0100 3C       		.byte	0x3c
 483 0101 14       		.byte	0x14
 484 0102 A8000000 		.4byte	0xa8
 485 0106 0E       		.uleb128 0xe
 486 0107 FA000000 		.4byte	0xfa
 487 010b 03       		.uleb128 0x3
 488 010c 82080000 		.4byte	.LASF21
 489 0110 06       		.byte	0x6
 490 0111 48       		.byte	0x48
 491 0112 1D       		.byte	0x1d
 492 0113 FA000000 		.4byte	0xfa
 493 0117 03       		.uleb128 0x3
 494 0118 D30A0000 		.4byte	.LASF22
 495 011c 07       		.byte	0x7
 496 011d 50       		.byte	0x50
 497 011e 19       		.byte	0x19
 498 011f 0B010000 		.4byte	0x10b
 499 0123 03       		.uleb128 0x3
ARM GAS  C:\Users\DEVELO~1\AppData\Local\Temp\ccYSbbyg.s 			page 10


 500 0124 29070000 		.4byte	.LASF23
 501 0128 07       		.byte	0x7
 502 0129 53       		.byte	0x53
 503 012a 19       		.byte	0x19
 504 012b BB000000 		.4byte	0xbb
 505 012f 03       		.uleb128 0x3
 506 0130 43050000 		.4byte	.LASF24
 507 0134 07       		.byte	0x7
 508 0135 54       		.byte	0x54
 509 0136 19       		.byte	0x19
 510 0137 BB000000 		.4byte	0xbb
 511 013b 03       		.uleb128 0x3
 512 013c D8070000 		.4byte	.LASF25
 513 0140 07       		.byte	0x7
 514 0141 55       		.byte	0x55
 515 0142 19       		.byte	0x19
 516 0143 BB000000 		.4byte	0xbb
 517 0147 03       		.uleb128 0x3
 518 0148 FC010000 		.4byte	.LASF26
 519 014c 07       		.byte	0x7
 520 014d 57       		.byte	0x57
 521 014e 19       		.byte	0x19
 522 014f E4000000 		.4byte	0xe4
 523 0153 03       		.uleb128 0x3
 524 0154 34060000 		.4byte	.LASF27
 525 0158 07       		.byte	0x7
 526 0159 58       		.byte	0x58
 527 015a 19       		.byte	0x19
 528 015b D8000000 		.4byte	0xd8
 529 015f 03       		.uleb128 0x3
 530 0160 BF010000 		.4byte	.LASF28
 531 0164 07       		.byte	0x7
 532 0165 5A       		.byte	0x5a
 533 0166 19       		.byte	0x19
 534 0167 E4000000 		.4byte	0xe4
 535 016b 03       		.uleb128 0x3
 536 016c 78020000 		.4byte	.LASF29
 537 0170 07       		.byte	0x7
 538 0171 5C       		.byte	0x5c
 539 0172 19       		.byte	0x19
 540 0173 D8000000 		.4byte	0xd8
 541 0177 03       		.uleb128 0x3
 542 0178 970B0000 		.4byte	.LASF30
 543 017c 07       		.byte	0x7
 544 017d 80       		.byte	0x80
 545 017e 12       		.byte	0x12
 546 017f 39000000 		.4byte	0x39
 547 0183 03       		.uleb128 0x3
 548 0184 E1030000 		.4byte	.LASF31
 549 0188 07       		.byte	0x7
 550 0189 85       		.byte	0x85
 551 018a 1A       		.byte	0x1a
 552 018b 8F010000 		.4byte	0x18f
 553 018f 09       		.uleb128 0x9
 554 0190 BA050000 		.4byte	.LASF46
 555 0194 48       		.byte	0x48
 556 0195 08       		.byte	0x8
ARM GAS  C:\Users\DEVELO~1\AppData\Local\Temp\ccYSbbyg.s 			page 11


 557 0196 9C       		.byte	0x9c
 558 0197 08       		.byte	0x8
 559 0198 72020000 		.4byte	0x272
 560 019c 08       		.uleb128 0x8
 561 019d 68647200 		.ascii	"hdr\000"
 562 01a1 08       		.byte	0x8
 563 01a2 AD       		.byte	0xad
 564 01a3 05       		.byte	0x5
 565 01a4 050E0000 		.4byte	0xe05
 566 01a8 00       		.byte	0
 567 01a9 08       		.uleb128 0x8
 568 01aa 63747800 		.ascii	"ctx\000"
 569 01ae 08       		.byte	0x8
 570 01af B1       		.byte	0xb1
 571 01b0 21       		.byte	0x21
 572 01b1 700D0000 		.4byte	0xd70
 573 01b5 0C       		.byte	0xc
 574 01b6 02       		.uleb128 0x2
 575 01b7 53050000 		.4byte	.LASF32
 576 01bb 08       		.byte	0x8
 577 01bc B6       		.byte	0xb6
 578 01bd 21       		.byte	0x21
 579 01be CC030000 		.4byte	0x3cc
 580 01c2 10       		.byte	0x10
 581 01c3 02       		.uleb128 0x2
 582 01c4 43030000 		.4byte	.LASF33
 583 01c8 08       		.byte	0x8
 584 01c9 BB       		.byte	0xbb
 585 01ca 22       		.byte	0x22
 586 01cb 090F0000 		.4byte	0xf09
 587 01cf 18       		.byte	0x18
 588 01d0 02       		.uleb128 0x2
 589 01d1 F8080000 		.4byte	.LASF34
 590 01d5 08       		.byte	0x8
 591 01d6 C0       		.byte	0xc0
 592 01d7 22       		.byte	0x22
 593 01d8 5A030000 		.4byte	0x35a
 594 01dc 1C       		.byte	0x1c
 595 01dd 02       		.uleb128 0x2
 596 01de 36050000 		.4byte	.LASF35
 597 01e2 08       		.byte	0x8
 598 01e3 C9       		.byte	0xc9
 599 01e4 22       		.byte	0x22
 600 01e5 0E0F0000 		.4byte	0xf0e
 601 01e9 20       		.byte	0x20
 602 01ea 02       		.uleb128 0x2
 603 01eb 510A0000 		.4byte	.LASF36
 604 01ef 08       		.byte	0x8
 605 01f0 CE       		.byte	0xce
 606 01f1 21       		.byte	0x21
 607 01f2 2F010000 		.4byte	0x12f
 608 01f6 24       		.byte	0x24
 609 01f7 02       		.uleb128 0x2
 610 01f8 66000000 		.4byte	.LASF37
 611 01fc 08       		.byte	0x8
 612 01fd D2       		.byte	0xd2
 613 01fe 21       		.byte	0x21
ARM GAS  C:\Users\DEVELO~1\AppData\Local\Temp\ccYSbbyg.s 			page 12


 614 01ff 23010000 		.4byte	0x123
 615 0203 25       		.byte	0x25
 616 0204 02       		.uleb128 0x2
 617 0205 DD000000 		.4byte	.LASF38
 618 0209 08       		.byte	0x8
 619 020a D7       		.byte	0xd7
 620 020b 21       		.byte	0x21
 621 020c 3B010000 		.4byte	0x13b
 622 0210 26       		.byte	0x26
 623 0211 05       		.uleb128 0x5
 624 0212 7500     		.ascii	"u\000"
 625 0214 08       		.byte	0x8
 626 0215 2801     		.2byte	0x128
 627 0217 21       		.byte	0x21
 628 0218 330E0000 		.4byte	0xe33
 629 021c 28       		.byte	0x28
 630 021d 01       		.uleb128 0x1
 631 021e DE090000 		.4byte	.LASF39
 632 0222 08       		.byte	0x8
 633 0223 2D01     		.2byte	0x12d
 634 0225 21       		.byte	0x21
 635 0226 A0030000 		.4byte	0x3a0
 636 022a 2C       		.byte	0x2c
 637 022b 01       		.uleb128 0x1
 638 022c 04020000 		.4byte	.LASF40
 639 0230 08       		.byte	0x8
 640 0231 3301     		.2byte	0x133
 641 0233 21       		.byte	0x21
 642 0234 CC030000 		.4byte	0x3cc
 643 0238 30       		.byte	0x30
 644 0239 01       		.uleb128 0x1
 645 023a 8D000000 		.4byte	.LASF41
 646 023e 08       		.byte	0x8
 647 023f 3901     		.2byte	0x139
 648 0241 21       		.byte	0x21
 649 0242 5F010000 		.4byte	0x15f
 650 0246 38       		.byte	0x38
 651 0247 01       		.uleb128 0x1
 652 0248 5E030000 		.4byte	.LASF42
 653 024c 08       		.byte	0x8
 654 024d 4001     		.2byte	0x140
 655 024f 22       		.byte	0x22
 656 0250 040F0000 		.4byte	0xf04
 657 0254 3C       		.byte	0x3c
 658 0255 01       		.uleb128 0x1
 659 0256 970A0000 		.4byte	.LASF43
 660 025a 08       		.byte	0x8
 661 025b 4401     		.2byte	0x144
 662 025d 21       		.byte	0x21
 663 025e 47010000 		.4byte	0x147
 664 0262 40       		.byte	0x40
 665 0263 01       		.uleb128 0x1
 666 0264 A70B0000 		.4byte	.LASF44
 667 0268 08       		.byte	0x8
 668 0269 4B01     		.2byte	0x14b
 669 026b 22       		.byte	0x22
 670 026c BA040000 		.4byte	0x4ba
ARM GAS  C:\Users\DEVELO~1\AppData\Local\Temp\ccYSbbyg.s 			page 13


 671 0270 44       		.byte	0x44
 672 0271 00       		.byte	0
 673 0272 03       		.uleb128 0x3
 674 0273 680A0000 		.4byte	.LASF45
 675 0277 07       		.byte	0x7
 676 0278 8A       		.byte	0x8a
 677 0279 1F       		.byte	0x1f
 678 027a 7E020000 		.4byte	0x27e
 679 027e 25       		.uleb128 0x25
 680 027f 7E040000 		.4byte	.LASF47
 681 0283 9008     		.2byte	0x890
 682 0285 08       		.byte	0x8
 683 0286 8A01     		.2byte	0x18a
 684 0288 08       		.byte	0x8
 685 0289 0C030000 		.4byte	0x30c
 686 028d 01       		.uleb128 0x1
 687 028e D4080000 		.4byte	.LASF48
 688 0292 08       		.byte	0x8
 689 0293 8E01     		.2byte	0x18e
 690 0295 21       		.byte	0x21
 691 0296 3E0F0000 		.4byte	0xf3e
 692 029a 00       		.byte	0
 693 029b 01       		.uleb128 0x1
 694 029c 0F010000 		.4byte	.LASF49
 695 02a0 08       		.byte	0x8
 696 02a1 9201     		.2byte	0x192
 697 02a3 21       		.byte	0x21
 698 02a4 C60D0000 		.4byte	0xdc6
 699 02a8 10       		.byte	0x10
 700 02a9 01       		.uleb128 0x1
 701 02aa 760A0000 		.4byte	.LASF50
 702 02ae 08       		.byte	0x8
 703 02af 9901     		.2byte	0x199
 704 02b1 21       		.byte	0x21
 705 02b2 ED0D0000 		.4byte	0xded
 706 02b6 28       		.byte	0x28
 707 02b7 01       		.uleb128 0x1
 708 02b8 080A0000 		.4byte	.LASF51
 709 02bc 08       		.byte	0x8
 710 02bd 9E01     		.2byte	0x19e
 711 02bf 21       		.byte	0x21
 712 02c0 77010000 		.4byte	0x177
 713 02c4 30       		.byte	0x30
 714 02c5 01       		.uleb128 0x1
 715 02c6 DC030000 		.4byte	.LASF52
 716 02ca 08       		.byte	0x8
 717 02cb A401     		.2byte	0x1a4
 718 02cd 21       		.byte	0x21
 719 02ce 33030000 		.4byte	0x333
 720 02d2 34       		.byte	0x34
 721 02d3 01       		.uleb128 0x1
 722 02d4 BD070000 		.4byte	.LASF53
 723 02d8 08       		.byte	0x8
 724 02d9 A901     		.2byte	0x1a9
 725 02db 22       		.byte	0x22
 726 02dc B20F0000 		.4byte	0xfb2
 727 02e0 38       		.byte	0x38
ARM GAS  C:\Users\DEVELO~1\AppData\Local\Temp\ccYSbbyg.s 			page 14


 728 02e1 01       		.uleb128 0x1
 729 02e2 55070000 		.4byte	.LASF54
 730 02e6 08       		.byte	0x8
 731 02e7 AD01     		.2byte	0x1ad
 732 02e9 21       		.byte	0x21
 733 02ea 83010000 		.4byte	0x183
 734 02ee 3C       		.byte	0x3c
 735 02ef 05       		.uleb128 0x5
 736 02f0 64626700 		.ascii	"dbg\000"
 737 02f4 08       		.byte	0x8
 738 02f5 B101     		.2byte	0x1b1
 739 02f7 21       		.byte	0x21
 740 02f8 70030000 		.4byte	0x370
 741 02fc 84       		.byte	0x84
 742 02fd 01       		.uleb128 0x1
 743 02fe 52020000 		.4byte	.LASF55
 744 0302 08       		.byte	0x8
 745 0303 B601     		.2byte	0x1b6
 746 0305 21       		.byte	0x21
 747 0306 1C060000 		.4byte	0x61c
 748 030a 88       		.byte	0x88
 749 030b 00       		.byte	0
 750 030c 03       		.uleb128 0x3
 751 030d 0F050000 		.4byte	.LASF56
 752 0311 09       		.byte	0x9
 753 0312 3F       		.byte	0x3f
 754 0313 12       		.byte	0x12
 755 0314 E4000000 		.4byte	0xe4
 756 0318 09       		.uleb128 0x9
 757 0319 5E040000 		.4byte	.LASF57
 758 031d 04       		.byte	0x4
 759 031e 09       		.byte	0x9
 760 031f 44       		.byte	0x44
 761 0320 10       		.byte	0x10
 762 0321 33030000 		.4byte	0x333
 763 0325 02       		.uleb128 0x2
 764 0326 C3060000 		.4byte	.LASF58
 765 032a 09       		.byte	0x9
 766 032b 48       		.byte	0x48
 767 032c 21       		.byte	0x21
 768 032d 0C030000 		.4byte	0x30c
 769 0331 00       		.byte	0
 770 0332 00       		.byte	0
 771 0333 03       		.uleb128 0x3
 772 0334 83090000 		.4byte	.LASF59
 773 0338 09       		.byte	0x9
 774 0339 49       		.byte	0x49
 775 033a 03       		.byte	0x3
 776 033b 18030000 		.4byte	0x318
 777 033f 09       		.uleb128 0x9
 778 0340 7B010000 		.4byte	.LASF60
 779 0344 04       		.byte	0x4
 780 0345 0A       		.byte	0xa
 781 0346 3E       		.byte	0x3e
 782 0347 10       		.byte	0x10
 783 0348 5A030000 		.4byte	0x35a
 784 034c 02       		.uleb128 0x2
ARM GAS  C:\Users\DEVELO~1\AppData\Local\Temp\ccYSbbyg.s 			page 15


 785 034d F4060000 		.4byte	.LASF61
 786 0351 0A       		.byte	0xa
 787 0352 46       		.byte	0x46
 788 0353 24       		.byte	0x24
 789 0354 5F030000 		.4byte	0x35f
 790 0358 00       		.byte	0
 791 0359 00       		.byte	0
 792 035a 04       		.uleb128 0x4
 793 035b 6B030000 		.4byte	0x36b
 794 035f 0E       		.uleb128 0xe
 795 0360 5A030000 		.4byte	0x35a
 796 0364 0C       		.uleb128 0xc
 797 0365 01       		.byte	0x1
 798 0366 08       		.byte	0x8
 799 0367 F0040000 		.4byte	.LASF62
 800 036b 0F       		.uleb128 0xf
 801 036c 64030000 		.4byte	0x364
 802 0370 03       		.uleb128 0x3
 803 0371 D2050000 		.4byte	.LASF63
 804 0375 0A       		.byte	0xa
 805 0376 51       		.byte	0x51
 806 0377 03       		.byte	0x3
 807 0378 3F030000 		.4byte	0x33f
 808 037c 03       		.uleb128 0x3
 809 037d 6C000000 		.4byte	.LASF64
 810 0381 0B       		.byte	0xb
 811 0382 6D       		.byte	0x6d
 812 0383 12       		.byte	0x12
 813 0384 E4000000 		.4byte	0xe4
 814 0388 03       		.uleb128 0x3
 815 0389 DB060000 		.4byte	.LASF65
 816 038d 0B       		.byte	0xb
 817 038e 79       		.byte	0x79
 818 038f 12       		.byte	0x12
 819 0390 E4000000 		.4byte	0xe4
 820 0394 03       		.uleb128 0x3
 821 0395 2A050000 		.4byte	.LASF66
 822 0399 0B       		.byte	0xb
 823 039a 9B       		.byte	0x9b
 824 039b 12       		.byte	0x12
 825 039c FA000000 		.4byte	0xfa
 826 03a0 03       		.uleb128 0x3
 827 03a1 A2070000 		.4byte	.LASF67
 828 03a5 0C       		.byte	0xc
 829 03a6 32       		.byte	0x32
 830 03a7 18       		.byte	0x18
 831 03a8 AC030000 		.4byte	0x3ac
 832 03ac 09       		.uleb128 0x9
 833 03ad 56010000 		.4byte	.LASF68
 834 03b1 04       		.byte	0x4
 835 03b2 0C       		.byte	0xc
 836 03b3 38       		.byte	0x38
 837 03b4 08       		.byte	0x8
 838 03b5 C7030000 		.4byte	0x3c7
 839 03b9 02       		.uleb128 0x2
 840 03ba A3000000 		.4byte	.LASF69
 841 03be 0C       		.byte	0xc
ARM GAS  C:\Users\DEVELO~1\AppData\Local\Temp\ccYSbbyg.s 			page 16


 842 03bf 39       		.byte	0x39
 843 03c0 1A       		.byte	0x1a
 844 03c1 C7030000 		.4byte	0x3c7
 845 03c5 00       		.byte	0
 846 03c6 00       		.byte	0
 847 03c7 04       		.uleb128 0x4
 848 03c8 A0030000 		.4byte	0x3a0
 849 03cc 03       		.uleb128 0x3
 850 03cd E9060000 		.4byte	.LASF70
 851 03d1 0C       		.byte	0xc
 852 03d2 3F       		.byte	0x3f
 853 03d3 19       		.byte	0x19
 854 03d4 D8030000 		.4byte	0x3d8
 855 03d8 09       		.uleb128 0x9
 856 03d9 AA090000 		.4byte	.LASF71
 857 03dd 08       		.byte	0x8
 858 03de 0C       		.byte	0xc
 859 03df 45       		.byte	0x45
 860 03e0 08       		.byte	0x8
 861 03e1 00040000 		.4byte	0x400
 862 03e5 02       		.uleb128 0x2
 863 03e6 A3000000 		.4byte	.LASF69
 864 03ea 0C       		.byte	0xc
 865 03eb 46       		.byte	0x46
 866 03ec 1A       		.byte	0x1a
 867 03ed 00040000 		.4byte	0x400
 868 03f1 00       		.byte	0
 869 03f2 02       		.uleb128 0x2
 870 03f3 51010000 		.4byte	.LASF72
 871 03f7 0C       		.byte	0xc
 872 03f8 47       		.byte	0x47
 873 03f9 1A       		.byte	0x1a
 874 03fa 00040000 		.4byte	0x400
 875 03fe 04       		.byte	0x4
 876 03ff 00       		.byte	0
 877 0400 04       		.uleb128 0x4
 878 0401 CC030000 		.4byte	0x3cc
 879 0405 03       		.uleb128 0x3
 880 0406 13040000 		.4byte	.LASF73
 881 040a 0C       		.byte	0xc
 882 040b 4E       		.byte	0x4e
 883 040c 22       		.byte	0x22
 884 040d 11040000 		.4byte	0x411
 885 0411 09       		.uleb128 0x9
 886 0412 98090000 		.4byte	.LASF74
 887 0416 0C       		.byte	0xc
 888 0417 0C       		.byte	0xc
 889 0418 55       		.byte	0x55
 890 0419 08       		.byte	0x8
 891 041a 46040000 		.4byte	0x446
 892 041e 02       		.uleb128 0x2
 893 041f A3000000 		.4byte	.LASF69
 894 0423 0C       		.byte	0xc
 895 0424 56       		.byte	0x56
 896 0425 1A       		.byte	0x1a
 897 0426 46040000 		.4byte	0x446
 898 042a 00       		.byte	0
ARM GAS  C:\Users\DEVELO~1\AppData\Local\Temp\ccYSbbyg.s 			page 17


 899 042b 02       		.uleb128 0x2
 900 042c 51010000 		.4byte	.LASF72
 901 0430 0C       		.byte	0xc
 902 0431 57       		.byte	0x57
 903 0432 1A       		.byte	0x1a
 904 0433 46040000 		.4byte	0x446
 905 0437 04       		.byte	0x4
 906 0438 02       		.uleb128 0x2
 907 0439 D8040000 		.4byte	.LASF75
 908 043d 0C       		.byte	0xc
 909 043e 58       		.byte	0x58
 910 043f 19       		.byte	0x19
 911 0440 47010000 		.4byte	0x147
 912 0444 08       		.byte	0x8
 913 0445 00       		.byte	0
 914 0446 04       		.uleb128 0x4
 915 0447 05040000 		.4byte	0x405
 916 044b 03       		.uleb128 0x3
 917 044c FF040000 		.4byte	.LASF76
 918 0450 0C       		.byte	0xc
 919 0451 5F       		.byte	0x5f
 920 0452 1E       		.byte	0x1e
 921 0453 57040000 		.4byte	0x457
 922 0457 09       		.uleb128 0x9
 923 0458 90010000 		.4byte	.LASF77
 924 045c 0C       		.byte	0xc
 925 045d 0C       		.byte	0xc
 926 045e 64       		.byte	0x64
 927 045f 08       		.byte	0x8
 928 0460 8C040000 		.4byte	0x48c
 929 0464 02       		.uleb128 0x2
 930 0465 A3000000 		.4byte	.LASF69
 931 0469 0C       		.byte	0xc
 932 046a 65       		.byte	0x65
 933 046b 1A       		.byte	0x1a
 934 046c 8C040000 		.4byte	0x48c
 935 0470 00       		.byte	0
 936 0471 02       		.uleb128 0x2
 937 0472 51010000 		.4byte	.LASF72
 938 0476 0C       		.byte	0xc
 939 0477 66       		.byte	0x66
 940 0478 1A       		.byte	0x1a
 941 0479 8C040000 		.4byte	0x48c
 942 047d 04       		.byte	0x4
 943 047e 02       		.uleb128 0x2
 944 047f AC0A0000 		.4byte	.LASF78
 945 0483 0C       		.byte	0xc
 946 0484 67       		.byte	0x67
 947 0485 19       		.byte	0x19
 948 0486 88030000 		.4byte	0x388
 949 048a 08       		.byte	0x8
 950 048b 00       		.byte	0
 951 048c 04       		.uleb128 0x4
 952 048d 4B040000 		.4byte	0x44b
 953 0491 10       		.uleb128 0x10
 954 0492 08       		.byte	0x8
 955 0493 0D       		.byte	0xd
ARM GAS  C:\Users\DEVELO~1\AppData\Local\Temp\ccYSbbyg.s 			page 18


 956 0494 83       		.byte	0x83
 957 0495 05       		.byte	0x5
 958 0496 B5040000 		.4byte	0x4b5
 959 049a 08       		.uleb128 0x8
 960 049b 6E747000 		.ascii	"ntp\000"
 961 049f 0D       		.byte	0xd
 962 04a0 87       		.byte	0x87
 963 04a1 1E       		.byte	0x1e
 964 04a2 B5040000 		.4byte	0x4b5
 965 04a6 00       		.byte	0
 966 04a7 02       		.uleb128 0x2
 967 04a8 02010000 		.4byte	.LASF79
 968 04ac 0D       		.byte	0xd
 969 04ad 8B       		.byte	0x8b
 970 04ae 1E       		.byte	0x1e
 971 04af BA040000 		.4byte	0x4ba
 972 04b3 04       		.byte	0x4
 973 04b4 00       		.byte	0
 974 04b5 04       		.uleb128 0x4
 975 04b6 83010000 		.4byte	0x183
 976 04ba 26       		.uleb128 0x26
 977 04bb 04       		.byte	0x4
 978 04bc 10       		.uleb128 0x10
 979 04bd 08       		.byte	0x8
 980 04be 0D       		.byte	0xd
 981 04bf 90       		.byte	0x90
 982 04c0 05       		.byte	0x5
 983 04c1 DF040000 		.4byte	0x4df
 984 04c5 08       		.uleb128 0x8
 985 04c6 747000   		.ascii	"tp\000"
 986 04c9 0D       		.byte	0xd
 987 04ca 94       		.byte	0x94
 988 04cb 1E       		.byte	0x1e
 989 04cc B5040000 		.4byte	0x4b5
 990 04d0 00       		.byte	0
 991 04d1 08       		.uleb128 0x8
 992 04d2 6D736700 		.ascii	"msg\000"
 993 04d6 0D       		.byte	0xd
 994 04d7 98       		.byte	0x98
 995 04d8 1D       		.byte	0x1d
 996 04d9 53010000 		.4byte	0x153
 997 04dd 04       		.byte	0x4
 998 04de 00       		.byte	0
 999 04df 10       		.uleb128 0x10
 1000 04e0 04       		.byte	0x4
 1001 04e1 0D       		.byte	0xd
 1002 04e2 9D       		.byte	0x9d
 1003 04e3 05       		.byte	0x5
 1004 04e4 F6040000 		.4byte	0x4f6
 1005 04e8 02       		.uleb128 0x2
 1006 04e9 F8080000 		.4byte	.LASF34
 1007 04ed 0D       		.byte	0xd
 1008 04ee A1       		.byte	0xa1
 1009 04ef 1E       		.byte	0x1e
 1010 04f0 5A030000 		.4byte	0x35a
 1011 04f4 00       		.byte	0
 1012 04f5 00       		.byte	0
ARM GAS  C:\Users\DEVELO~1\AppData\Local\Temp\ccYSbbyg.s 			page 19


 1013 04f6 10       		.uleb128 0x10
 1014 04f7 04       		.byte	0x4
 1015 04f8 0D       		.byte	0xd
 1016 04f9 A6       		.byte	0xa6
 1017 04fa 05       		.byte	0x5
 1018 04fb 0D050000 		.4byte	0x50d
 1019 04ff 02       		.uleb128 0x2
 1020 0500 1C0B0000 		.4byte	.LASF80
 1021 0504 0D       		.byte	0xd
 1022 0505 AA       		.byte	0xaa
 1023 0506 1E       		.byte	0x1e
 1024 0507 5A030000 		.4byte	0x35a
 1025 050b 00       		.byte	0
 1026 050c 00       		.byte	0
 1027 050d 10       		.uleb128 0x10
 1028 050e 08       		.byte	0x8
 1029 050f 0D       		.byte	0xd
 1030 0510 AF       		.byte	0xaf
 1031 0511 05       		.byte	0x5
 1032 0512 31050000 		.4byte	0x531
 1033 0516 08       		.uleb128 0x8
 1034 0517 75703100 		.ascii	"up1\000"
 1035 051b 0D       		.byte	0xd
 1036 051c B3       		.byte	0xb3
 1037 051d 1E       		.byte	0x1e
 1038 051e BA040000 		.4byte	0x4ba
 1039 0522 00       		.byte	0
 1040 0523 08       		.uleb128 0x8
 1041 0524 75703200 		.ascii	"up2\000"
 1042 0528 0D       		.byte	0xd
 1043 0529 B7       		.byte	0xb7
 1044 052a 1E       		.byte	0x1e
 1045 052b BA040000 		.4byte	0x4ba
 1046 052f 04       		.byte	0x4
 1047 0530 00       		.byte	0
 1048 0531 17       		.uleb128 0x17
 1049 0532 08       		.byte	0x8
 1050 0533 0D       		.byte	0xd
 1051 0534 7F       		.byte	0x7f
 1052 0535 03       		.byte	0x3
 1053 0536 76050000 		.4byte	0x576
 1054 053a 16       		.uleb128 0x16
 1055 053b 737700   		.ascii	"sw\000"
 1056 053e 0D       		.byte	0xd
 1057 053f 8C       		.byte	0x8c
 1058 0540 07       		.byte	0x7
 1059 0541 91040000 		.4byte	0x491
 1060 0545 16       		.uleb128 0x16
 1061 0546 72647900 		.ascii	"rdy\000"
 1062 054a 0D       		.byte	0xd
 1063 054b 99       		.byte	0x99
 1064 054c 07       		.byte	0x7
 1065 054d BC040000 		.4byte	0x4bc
 1066 0551 16       		.uleb128 0x16
 1067 0552 69737200 		.ascii	"isr\000"
 1068 0556 0D       		.byte	0xd
 1069 0557 A2       		.byte	0xa2
ARM GAS  C:\Users\DEVELO~1\AppData\Local\Temp\ccYSbbyg.s 			page 20


 1070 0558 07       		.byte	0x7
 1071 0559 DF040000 		.4byte	0x4df
 1072 055d 11       		.uleb128 0x11
 1073 055e 29020000 		.4byte	.LASF81
 1074 0562 0D       		.byte	0xd
 1075 0563 AB       		.byte	0xab
 1076 0564 07       		.byte	0x7
 1077 0565 F6040000 		.4byte	0x4f6
 1078 0569 11       		.uleb128 0x11
 1079 056a FE060000 		.4byte	.LASF82
 1080 056e 0D       		.byte	0xd
 1081 056f B8       		.byte	0xb8
 1082 0570 07       		.byte	0x7
 1083 0571 0D050000 		.4byte	0x50d
 1084 0575 00       		.byte	0
 1085 0576 10       		.uleb128 0x10
 1086 0577 10       		.byte	0x10
 1087 0578 0D       		.byte	0xd
 1088 0579 6C       		.byte	0x6c
 1089 057a 09       		.byte	0x9
 1090 057b BC050000 		.4byte	0x5bc
 1091 057f 1C       		.uleb128 0x1c
 1092 0580 BB090000 		.4byte	.LASF83
 1093 0584 70       		.byte	0x70
 1094 0585 E4000000 		.4byte	0xe4
 1095 0589 03       		.byte	0x3
 1096 058a 00       		.byte	0
 1097 058b 1C       		.uleb128 0x1c
 1098 058c 510A0000 		.4byte	.LASF36
 1099 0590 74       		.byte	0x74
 1100 0591 E4000000 		.4byte	0xe4
 1101 0595 05       		.byte	0x5
 1102 0596 03       		.byte	0x3
 1103 0597 1C       		.uleb128 0x1c
 1104 0598 6D090000 		.4byte	.LASF84
 1105 059c 7A       		.byte	0x7a
 1106 059d E4000000 		.4byte	0xe4
 1107 05a1 18       		.byte	0x18
 1108 05a2 08       		.byte	0x8
 1109 05a3 02       		.uleb128 0x2
 1110 05a4 2C030000 		.4byte	.LASF85
 1111 05a8 0D       		.byte	0xd
 1112 05a9 7E       		.byte	0x7e
 1113 05aa 19       		.byte	0x19
 1114 05ab 7C030000 		.4byte	0x37c
 1115 05af 04       		.byte	0x4
 1116 05b0 08       		.uleb128 0x8
 1117 05b1 7500     		.ascii	"u\000"
 1118 05b3 0D       		.byte	0xd
 1119 05b4 B9       		.byte	0xb9
 1120 05b5 05       		.byte	0x5
 1121 05b6 31050000 		.4byte	0x531
 1122 05ba 08       		.byte	0x8
 1123 05bb 00       		.byte	0
 1124 05bc 03       		.uleb128 0x3
 1125 05bd D0010000 		.4byte	.LASF86
 1126 05c1 0D       		.byte	0xd
ARM GAS  C:\Users\DEVELO~1\AppData\Local\Temp\ccYSbbyg.s 			page 21


 1127 05c2 BA       		.byte	0xba
 1128 05c3 03       		.byte	0x3
 1129 05c4 76050000 		.4byte	0x576
 1130 05c8 27       		.uleb128 0x27
 1131 05c9 0808     		.2byte	0x808
 1132 05cb 0D       		.byte	0xd
 1133 05cc C0       		.byte	0xc0
 1134 05cd 09       		.byte	0x9
 1135 05ce 07060000 		.4byte	0x607
 1136 05d2 02       		.uleb128 0x2
 1137 05d3 83000000 		.4byte	.LASF87
 1138 05d7 0D       		.byte	0xd
 1139 05d8 C4       		.byte	0xc4
 1140 05d9 19       		.byte	0x19
 1141 05da CC000000 		.4byte	0xcc
 1142 05de 00       		.byte	0
 1143 05df 02       		.uleb128 0x2
 1144 05e0 B7060000 		.4byte	.LASF88
 1145 05e4 0D       		.byte	0xd
 1146 05e5 C8       		.byte	0xc8
 1147 05e6 19       		.byte	0x19
 1148 05e7 CC000000 		.4byte	0xcc
 1149 05eb 02       		.byte	0x2
 1150 05ec 08       		.uleb128 0x8
 1151 05ed 70747200 		.ascii	"ptr\000"
 1152 05f1 0D       		.byte	0xd
 1153 05f2 CC       		.byte	0xcc
 1154 05f3 1A       		.byte	0x1a
 1155 05f4 07060000 		.4byte	0x607
 1156 05f8 04       		.byte	0x4
 1157 05f9 02       		.uleb128 0x2
 1158 05fa 7C000000 		.4byte	.LASF89
 1159 05fe 0D       		.byte	0xd
 1160 05ff D0       		.byte	0xd0
 1161 0600 19       		.byte	0x19
 1162 0601 0C060000 		.4byte	0x60c
 1163 0605 08       		.byte	0x8
 1164 0606 00       		.byte	0
 1165 0607 04       		.uleb128 0x4
 1166 0608 BC050000 		.4byte	0x5bc
 1167 060c 0A       		.uleb128 0xa
 1168 060d BC050000 		.4byte	0x5bc
 1169 0611 1C060000 		.4byte	0x61c
 1170 0615 0B       		.uleb128 0xb
 1171 0616 39000000 		.4byte	0x39
 1172 061a 7F       		.byte	0x7f
 1173 061b 00       		.byte	0
 1174 061c 03       		.uleb128 0x3
 1175 061d 03070000 		.4byte	.LASF90
 1176 0621 0D       		.byte	0xd
 1177 0622 D1       		.byte	0xd1
 1178 0623 03       		.byte	0x3
 1179 0624 C8050000 		.4byte	0x5c8
 1180 0628 28       		.uleb128 0x28
 1181 0629 AC02     		.2byte	0x2ac
 1182 062b 0E       		.byte	0xe
 1183 062c C701     		.2byte	0x1c7
ARM GAS  C:\Users\DEVELO~1\AppData\Local\Temp\ccYSbbyg.s 			page 22


 1184 062e 09       		.byte	0x9
 1185 062f D8080000 		.4byte	0x8d8
 1186 0633 01       		.uleb128 0x1
 1187 0634 27040000 		.4byte	.LASF91
 1188 0638 0E       		.byte	0xe
 1189 0639 C901     		.2byte	0x1c9
 1190 063b 12       		.byte	0x12
 1191 063c F5000000 		.4byte	0xf5
 1192 0640 00       		.byte	0
 1193 0641 01       		.uleb128 0x1
 1194 0642 23090000 		.4byte	.LASF92
 1195 0646 0E       		.byte	0xe
 1196 0647 CA01     		.2byte	0x1ca
 1197 0649 12       		.byte	0x12
 1198 064a F0000000 		.4byte	0xf0
 1199 064e 04       		.byte	0x4
 1200 064f 01       		.uleb128 0x1
 1201 0650 0A090000 		.4byte	.LASF93
 1202 0654 0E       		.byte	0xe
 1203 0655 CB01     		.2byte	0x1cb
 1204 0657 12       		.byte	0x12
 1205 0658 F0000000 		.4byte	0xf0
 1206 065c 08       		.byte	0x8
 1207 065d 01       		.uleb128 0x1
 1208 065e 5A050000 		.4byte	.LASF94
 1209 0662 0E       		.byte	0xe
 1210 0663 CC01     		.2byte	0x1cc
 1211 0665 12       		.byte	0x12
 1212 0666 F0000000 		.4byte	0xf0
 1213 066a 0C       		.byte	0xc
 1214 066b 05       		.uleb128 0x5
 1215 066c 53435200 		.ascii	"SCR\000"
 1216 0670 0E       		.byte	0xe
 1217 0671 CD01     		.2byte	0x1cd
 1218 0673 12       		.byte	0x12
 1219 0674 F0000000 		.4byte	0xf0
 1220 0678 10       		.byte	0x10
 1221 0679 05       		.uleb128 0x5
 1222 067a 43435200 		.ascii	"CCR\000"
 1223 067e 0E       		.byte	0xe
 1224 067f CE01     		.2byte	0x1ce
 1225 0681 12       		.byte	0x12
 1226 0682 F0000000 		.4byte	0xf0
 1227 0686 14       		.byte	0x14
 1228 0687 01       		.uleb128 0x1
 1229 0688 74040000 		.4byte	.LASF95
 1230 068c 0E       		.byte	0xe
 1231 068d CF01     		.2byte	0x1cf
 1232 068f 12       		.byte	0x12
 1233 0690 E8080000 		.4byte	0x8e8
 1234 0694 18       		.byte	0x18
 1235 0695 01       		.uleb128 0x1
 1236 0696 F4070000 		.4byte	.LASF96
 1237 069a 0E       		.byte	0xe
 1238 069b D001     		.2byte	0x1d0
 1239 069d 12       		.byte	0x12
 1240 069e F0000000 		.4byte	0xf0
ARM GAS  C:\Users\DEVELO~1\AppData\Local\Temp\ccYSbbyg.s 			page 23


 1241 06a2 24       		.byte	0x24
 1242 06a3 01       		.uleb128 0x1
 1243 06a4 45060000 		.4byte	.LASF97
 1244 06a8 0E       		.byte	0xe
 1245 06a9 D101     		.2byte	0x1d1
 1246 06ab 12       		.byte	0x12
 1247 06ac F0000000 		.4byte	0xf0
 1248 06b0 28       		.byte	0x28
 1249 06b1 01       		.uleb128 0x1
 1250 06b2 D3040000 		.4byte	.LASF98
 1251 06b6 0E       		.byte	0xe
 1252 06b7 D201     		.2byte	0x1d2
 1253 06b9 12       		.byte	0x12
 1254 06ba F0000000 		.4byte	0xf0
 1255 06be 2C       		.byte	0x2c
 1256 06bf 01       		.uleb128 0x1
 1257 06c0 C0000000 		.4byte	.LASF99
 1258 06c4 0E       		.byte	0xe
 1259 06c5 D301     		.2byte	0x1d3
 1260 06c7 12       		.byte	0x12
 1261 06c8 F0000000 		.4byte	0xf0
 1262 06cc 30       		.byte	0x30
 1263 06cd 01       		.uleb128 0x1
 1264 06ce B7070000 		.4byte	.LASF100
 1265 06d2 0E       		.byte	0xe
 1266 06d3 D401     		.2byte	0x1d4
 1267 06d5 12       		.byte	0x12
 1268 06d6 F0000000 		.4byte	0xf0
 1269 06da 34       		.byte	0x34
 1270 06db 01       		.uleb128 0x1
 1271 06dc 42040000 		.4byte	.LASF101
 1272 06e0 0E       		.byte	0xe
 1273 06e1 D501     		.2byte	0x1d5
 1274 06e3 12       		.byte	0x12
 1275 06e4 F0000000 		.4byte	0xf0
 1276 06e8 38       		.byte	0x38
 1277 06e9 01       		.uleb128 0x1
 1278 06ea 6F040000 		.4byte	.LASF102
 1279 06ee 0E       		.byte	0xe
 1280 06ef D601     		.2byte	0x1d6
 1281 06f1 12       		.byte	0x12
 1282 06f2 F0000000 		.4byte	0xf0
 1283 06f6 3C       		.byte	0x3c
 1284 06f7 01       		.uleb128 0x1
 1285 06f8 BC060000 		.4byte	.LASF103
 1286 06fc 0E       		.byte	0xe
 1287 06fd D701     		.2byte	0x1d7
 1288 06ff 12       		.byte	0x12
 1289 0700 02090000 		.4byte	0x902
 1290 0704 40       		.byte	0x40
 1291 0705 01       		.uleb128 0x1
 1292 0706 4C050000 		.4byte	.LASF104
 1293 070a 0E       		.byte	0xe
 1294 070b D801     		.2byte	0x1d8
 1295 070d 12       		.byte	0x12
 1296 070e F5000000 		.4byte	0xf5
 1297 0712 48       		.byte	0x48
ARM GAS  C:\Users\DEVELO~1\AppData\Local\Temp\ccYSbbyg.s 			page 24


 1298 0713 01       		.uleb128 0x1
 1299 0714 45020000 		.4byte	.LASF105
 1300 0718 0E       		.byte	0xe
 1301 0719 D901     		.2byte	0x1d9
 1302 071b 12       		.byte	0x12
 1303 071c F5000000 		.4byte	0xf5
 1304 0720 4C       		.byte	0x4c
 1305 0721 01       		.uleb128 0x1
 1306 0722 6D010000 		.4byte	.LASF106
 1307 0726 0E       		.byte	0xe
 1308 0727 DA01     		.2byte	0x1da
 1309 0729 12       		.byte	0x12
 1310 072a 1C090000 		.4byte	0x91c
 1311 072e 50       		.byte	0x50
 1312 072f 01       		.uleb128 0x1
 1313 0730 6C070000 		.4byte	.LASF107
 1314 0734 0E       		.byte	0xe
 1315 0735 DB01     		.2byte	0x1db
 1316 0737 12       		.byte	0x12
 1317 0738 36090000 		.4byte	0x936
 1318 073c 60       		.byte	0x60
 1319 073d 01       		.uleb128 0x1
 1320 073e E0070000 		.4byte	.LASF108
 1321 0742 0E       		.byte	0xe
 1322 0743 DC01     		.2byte	0x1dc
 1323 0745 12       		.byte	0x12
 1324 0746 3B090000 		.4byte	0x93b
 1325 074a 74       		.byte	0x74
 1326 074b 01       		.uleb128 0x1
 1327 074c 020B0000 		.4byte	.LASF109
 1328 0750 0E       		.byte	0xe
 1329 0751 DD01     		.2byte	0x1dd
 1330 0753 12       		.byte	0x12
 1331 0754 F5000000 		.4byte	0xf5
 1332 0758 78       		.byte	0x78
 1333 0759 05       		.uleb128 0x5
 1334 075a 43545200 		.ascii	"CTR\000"
 1335 075e 0E       		.byte	0xe
 1336 075f DE01     		.2byte	0x1de
 1337 0761 12       		.byte	0x12
 1338 0762 F5000000 		.4byte	0xf5
 1339 0766 7C       		.byte	0x7c
 1340 0767 01       		.uleb128 0x1
 1341 0768 C5000000 		.4byte	.LASF110
 1342 076c 0E       		.byte	0xe
 1343 076d DF01     		.2byte	0x1df
 1344 076f 12       		.byte	0x12
 1345 0770 F5000000 		.4byte	0xf5
 1346 0774 80       		.byte	0x80
 1347 0775 01       		.uleb128 0x1
 1348 0776 F5050000 		.4byte	.LASF111
 1349 077a 0E       		.byte	0xe
 1350 077b E001     		.2byte	0x1e0
 1351 077d 12       		.byte	0x12
 1352 077e F0000000 		.4byte	0xf0
 1353 0782 84       		.byte	0x84
 1354 0783 01       		.uleb128 0x1
ARM GAS  C:\Users\DEVELO~1\AppData\Local\Temp\ccYSbbyg.s 			page 25


 1355 0784 A10B0000 		.4byte	.LASF112
 1356 0788 0E       		.byte	0xe
 1357 0789 E101     		.2byte	0x1e1
 1358 078b 12       		.byte	0x12
 1359 078c F0000000 		.4byte	0xf0
 1360 0790 88       		.byte	0x88
 1361 0791 01       		.uleb128 0x1
 1362 0792 FA070000 		.4byte	.LASF113
 1363 0796 0E       		.byte	0xe
 1364 0797 E201     		.2byte	0x1e2
 1365 0799 12       		.byte	0x12
 1366 079a 4B090000 		.4byte	0x94b
 1367 079e 8C       		.byte	0x8c
 1368 079f 06       		.uleb128 0x6
 1369 07a0 E9050000 		.4byte	.LASF114
 1370 07a4 E301     		.2byte	0x1e3
 1371 07a6 F0000000 		.4byte	0xf0
 1372 07aa 0002     		.2byte	0x200
 1373 07ac 06       		.uleb128 0x6
 1374 07ad 04080000 		.4byte	.LASF115
 1375 07b1 E401     		.2byte	0x1e4
 1376 07b3 5B090000 		.4byte	0x95b
 1377 07b7 0402     		.2byte	0x204
 1378 07b9 06       		.uleb128 0x6
 1379 07ba E30A0000 		.4byte	.LASF116
 1380 07be E501     		.2byte	0x1e5
 1381 07c0 F5000000 		.4byte	0xf5
 1382 07c4 4002     		.2byte	0x240
 1383 07c6 06       		.uleb128 0x6
 1384 07c7 E90A0000 		.4byte	.LASF117
 1385 07cb E601     		.2byte	0x1e6
 1386 07cd F5000000 		.4byte	0xf5
 1387 07d1 4402     		.2byte	0x244
 1388 07d3 06       		.uleb128 0x6
 1389 07d4 EF0A0000 		.4byte	.LASF118
 1390 07d8 E701     		.2byte	0x1e7
 1391 07da F5000000 		.4byte	0xf5
 1392 07de 4802     		.2byte	0x248
 1393 07e0 06       		.uleb128 0x6
 1394 07e1 120B0000 		.4byte	.LASF119
 1395 07e5 E801     		.2byte	0x1e8
 1396 07e7 3B090000 		.4byte	0x93b
 1397 07eb 4C02     		.2byte	0x24c
 1398 07ed 06       		.uleb128 0x6
 1399 07ee B8000000 		.4byte	.LASF120
 1400 07f2 E901     		.2byte	0x1e9
 1401 07f4 F0000000 		.4byte	0xf0
 1402 07f8 5002     		.2byte	0x250
 1403 07fa 06       		.uleb128 0x6
 1404 07fb 72060000 		.4byte	.LASF121
 1405 07ff EA01     		.2byte	0x1ea
 1406 0801 3B090000 		.4byte	0x93b
 1407 0805 5402     		.2byte	0x254
 1408 0807 06       		.uleb128 0x6
 1409 0808 4D040000 		.4byte	.LASF122
 1410 080c EB01     		.2byte	0x1eb
 1411 080e F0000000 		.4byte	0xf0
ARM GAS  C:\Users\DEVELO~1\AppData\Local\Temp\ccYSbbyg.s 			page 26


 1412 0812 5802     		.2byte	0x258
 1413 0814 06       		.uleb128 0x6
 1414 0815 4A060000 		.4byte	.LASF123
 1415 0819 EC01     		.2byte	0x1ec
 1416 081b F0000000 		.4byte	0xf0
 1417 081f 5C02     		.2byte	0x25c
 1418 0821 06       		.uleb128 0x6
 1419 0822 76000000 		.4byte	.LASF124
 1420 0826 ED01     		.2byte	0x1ed
 1421 0828 F0000000 		.4byte	0xf0
 1422 082c 6002     		.2byte	0x260
 1423 082e 06       		.uleb128 0x6
 1424 082f 6A060000 		.4byte	.LASF125
 1425 0833 EE01     		.2byte	0x1ee
 1426 0835 F0000000 		.4byte	0xf0
 1427 0839 6402     		.2byte	0x264
 1428 083b 06       		.uleb128 0x6
 1429 083c 2C060000 		.4byte	.LASF126
 1430 0840 EF01     		.2byte	0x1ef
 1431 0842 F0000000 		.4byte	0xf0
 1432 0846 6802     		.2byte	0x268
 1433 0848 06       		.uleb128 0x6
 1434 0849 0E000000 		.4byte	.LASF127
 1435 084d F001     		.2byte	0x1f0
 1436 084f F0000000 		.4byte	0xf0
 1437 0853 6C02     		.2byte	0x26c
 1438 0855 06       		.uleb128 0x6
 1439 0856 11060000 		.4byte	.LASF128
 1440 085a F101     		.2byte	0x1f1
 1441 085c F0000000 		.4byte	0xf0
 1442 0860 7002     		.2byte	0x270
 1443 0862 06       		.uleb128 0x6
 1444 0863 EE050000 		.4byte	.LASF129
 1445 0867 F201     		.2byte	0x1f2
 1446 0869 F0000000 		.4byte	0xf0
 1447 086d 7402     		.2byte	0x274
 1448 086f 06       		.uleb128 0x6
 1449 0870 230B0000 		.4byte	.LASF130
 1450 0874 F301     		.2byte	0x1f3
 1451 0876 6B090000 		.4byte	0x96b
 1452 087a 7802     		.2byte	0x278
 1453 087c 06       		.uleb128 0x6
 1454 087d B20A0000 		.4byte	.LASF131
 1455 0881 F401     		.2byte	0x1f4
 1456 0883 F0000000 		.4byte	0xf0
 1457 0887 9002     		.2byte	0x290
 1458 0889 06       		.uleb128 0x6
 1459 088a D6000000 		.4byte	.LASF132
 1460 088e F501     		.2byte	0x1f5
 1461 0890 F0000000 		.4byte	0xf0
 1462 0894 9402     		.2byte	0x294
 1463 0896 06       		.uleb128 0x6
 1464 0897 B1000000 		.4byte	.LASF133
 1465 089b F601     		.2byte	0x1f6
 1466 089d F0000000 		.4byte	0xf0
 1467 08a1 9802     		.2byte	0x298
 1468 08a3 06       		.uleb128 0x6
ARM GAS  C:\Users\DEVELO~1\AppData\Local\Temp\ccYSbbyg.s 			page 27


 1469 08a4 C4050000 		.4byte	.LASF134
 1470 08a8 F701     		.2byte	0x1f7
 1471 08aa F0000000 		.4byte	0xf0
 1472 08ae 9C02     		.2byte	0x29c
 1473 08b0 06       		.uleb128 0x6
 1474 08b1 7E020000 		.4byte	.LASF135
 1475 08b5 F801     		.2byte	0x1f8
 1476 08b7 F0000000 		.4byte	0xf0
 1477 08bb A002     		.2byte	0x2a0
 1478 08bd 06       		.uleb128 0x6
 1479 08be 450B0000 		.4byte	.LASF136
 1480 08c2 F901     		.2byte	0x1f9
 1481 08c4 3B090000 		.4byte	0x93b
 1482 08c8 A402     		.2byte	0x2a4
 1483 08ca 06       		.uleb128 0x6
 1484 08cb 15080000 		.4byte	.LASF137
 1485 08cf FA01     		.2byte	0x1fa
 1486 08d1 F0000000 		.4byte	0xf0
 1487 08d5 A802     		.2byte	0x2a8
 1488 08d7 00       		.byte	0
 1489 08d8 0A       		.uleb128 0xa
 1490 08d9 C7000000 		.4byte	0xc7
 1491 08dd E8080000 		.4byte	0x8e8
 1492 08e1 0B       		.uleb128 0xb
 1493 08e2 39000000 		.4byte	0x39
 1494 08e6 0B       		.byte	0xb
 1495 08e7 00       		.byte	0
 1496 08e8 0E       		.uleb128 0xe
 1497 08e9 D8080000 		.4byte	0x8d8
 1498 08ed 0A       		.uleb128 0xa
 1499 08ee F5000000 		.4byte	0xf5
 1500 08f2 FD080000 		.4byte	0x8fd
 1501 08f6 0B       		.uleb128 0xb
 1502 08f7 39000000 		.4byte	0x39
 1503 08fb 01       		.byte	0x1
 1504 08fc 00       		.byte	0
 1505 08fd 0F       		.uleb128 0xf
 1506 08fe ED080000 		.4byte	0x8ed
 1507 0902 0E       		.uleb128 0xe
 1508 0903 FD080000 		.4byte	0x8fd
 1509 0907 0A       		.uleb128 0xa
 1510 0908 F5000000 		.4byte	0xf5
 1511 090c 17090000 		.4byte	0x917
 1512 0910 0B       		.uleb128 0xb
 1513 0911 39000000 		.4byte	0x39
 1514 0915 03       		.byte	0x3
 1515 0916 00       		.byte	0
 1516 0917 0F       		.uleb128 0xf
 1517 0918 07090000 		.4byte	0x907
 1518 091c 0E       		.uleb128 0xe
 1519 091d 17090000 		.4byte	0x917
 1520 0921 0A       		.uleb128 0xa
 1521 0922 F5000000 		.4byte	0xf5
 1522 0926 31090000 		.4byte	0x931
 1523 092a 0B       		.uleb128 0xb
 1524 092b 39000000 		.4byte	0x39
 1525 092f 04       		.byte	0x4
ARM GAS  C:\Users\DEVELO~1\AppData\Local\Temp\ccYSbbyg.s 			page 28


 1526 0930 00       		.byte	0
 1527 0931 0F       		.uleb128 0xf
 1528 0932 21090000 		.4byte	0x921
 1529 0936 0E       		.uleb128 0xe
 1530 0937 31090000 		.4byte	0x931
 1531 093b 0A       		.uleb128 0xa
 1532 093c E4000000 		.4byte	0xe4
 1533 0940 4B090000 		.4byte	0x94b
 1534 0944 0B       		.uleb128 0xb
 1535 0945 39000000 		.4byte	0x39
 1536 0949 00       		.byte	0
 1537 094a 00       		.byte	0
 1538 094b 0A       		.uleb128 0xa
 1539 094c E4000000 		.4byte	0xe4
 1540 0950 5B090000 		.4byte	0x95b
 1541 0954 0B       		.uleb128 0xb
 1542 0955 39000000 		.4byte	0x39
 1543 0959 5C       		.byte	0x5c
 1544 095a 00       		.byte	0
 1545 095b 0A       		.uleb128 0xa
 1546 095c E4000000 		.4byte	0xe4
 1547 0960 6B090000 		.4byte	0x96b
 1548 0964 0B       		.uleb128 0xb
 1549 0965 39000000 		.4byte	0x39
 1550 0969 0E       		.byte	0xe
 1551 096a 00       		.byte	0
 1552 096b 0A       		.uleb128 0xa
 1553 096c E4000000 		.4byte	0xe4
 1554 0970 7B090000 		.4byte	0x97b
 1555 0974 0B       		.uleb128 0xb
 1556 0975 39000000 		.4byte	0x39
 1557 0979 05       		.byte	0x5
 1558 097a 00       		.byte	0
 1559 097b 0D       		.uleb128 0xd
 1560 097c EF080000 		.4byte	.LASF138
 1561 0980 0E       		.byte	0xe
 1562 0981 FB01     		.2byte	0x1fb
 1563 0983 03       		.byte	0x3
 1564 0984 28060000 		.4byte	0x628
 1565 0988 0A       		.uleb128 0xa
 1566 0989 E4000000 		.4byte	0xe4
 1567 098d 98090000 		.4byte	0x998
 1568 0991 0B       		.uleb128 0xb
 1569 0992 39000000 		.4byte	0x39
 1570 0996 01       		.byte	0x1
 1571 0997 00       		.byte	0
 1572 0998 10       		.uleb128 0x10
 1573 0999 CC       		.byte	0xcc
 1574 099a 0F       		.byte	0xf
 1575 099b F3       		.byte	0xf3
 1576 099c 09       		.byte	0x9
 1577 099d E10B0000 		.4byte	0xbe1
 1578 09a1 08       		.uleb128 0x8
 1579 09a2 49535200 		.ascii	"ISR\000"
 1580 09a6 0F       		.byte	0xf
 1581 09a7 F5       		.byte	0xf5
 1582 09a8 11       		.byte	0x11
ARM GAS  C:\Users\DEVELO~1\AppData\Local\Temp\ccYSbbyg.s 			page 29


 1583 09a9 F0000000 		.4byte	0xf0
 1584 09ad 00       		.byte	0
 1585 09ae 08       		.uleb128 0x8
 1586 09af 49455200 		.ascii	"IER\000"
 1587 09b3 0F       		.byte	0xf
 1588 09b4 F6       		.byte	0xf6
 1589 09b5 11       		.byte	0x11
 1590 09b6 F0000000 		.4byte	0xf0
 1591 09ba 04       		.byte	0x4
 1592 09bb 08       		.uleb128 0x8
 1593 09bc 435200   		.ascii	"CR\000"
 1594 09bf 0F       		.byte	0xf
 1595 09c0 F7       		.byte	0xf7
 1596 09c1 11       		.byte	0x11
 1597 09c2 F0000000 		.4byte	0xf0
 1598 09c6 08       		.byte	0x8
 1599 09c7 02       		.uleb128 0x2
 1600 09c8 CF080000 		.4byte	.LASF139
 1601 09cc 0F       		.byte	0xf
 1602 09cd F8       		.byte	0xf8
 1603 09ce 11       		.byte	0x11
 1604 09cf F0000000 		.4byte	0xf0
 1605 09d3 0C       		.byte	0xc
 1606 09d4 02       		.uleb128 0x2
 1607 09d5 CE060000 		.4byte	.LASF140
 1608 09d9 0F       		.byte	0xf
 1609 09da F9       		.byte	0xf9
 1610 09db 11       		.byte	0x11
 1611 09dc F0000000 		.4byte	0xf0
 1612 09e0 10       		.byte	0x10
 1613 09e1 02       		.uleb128 0x2
 1614 09e2 44070000 		.4byte	.LASF141
 1615 09e6 0F       		.byte	0xf
 1616 09e7 FA       		.byte	0xfa
 1617 09e8 11       		.byte	0x11
 1618 09e9 F0000000 		.4byte	0xf0
 1619 09ed 14       		.byte	0x14
 1620 09ee 02       		.uleb128 0x2
 1621 09ef 4A070000 		.4byte	.LASF142
 1622 09f3 0F       		.byte	0xf
 1623 09f4 FB       		.byte	0xfb
 1624 09f5 11       		.byte	0x11
 1625 09f6 F0000000 		.4byte	0xf0
 1626 09fa 18       		.byte	0x18
 1627 09fb 02       		.uleb128 0x2
 1628 09fc 4C020000 		.4byte	.LASF143
 1629 0a00 0F       		.byte	0xf
 1630 0a01 FC       		.byte	0xfc
 1631 0a02 11       		.byte	0x11
 1632 0a03 F0000000 		.4byte	0xf0
 1633 0a07 1C       		.byte	0x1c
 1634 0a08 02       		.uleb128 0x2
 1635 0a09 5E010000 		.4byte	.LASF144
 1636 0a0d 0F       		.byte	0xf
 1637 0a0e FD       		.byte	0xfd
 1638 0a0f 11       		.byte	0x11
 1639 0a10 F0000000 		.4byte	0xf0
ARM GAS  C:\Users\DEVELO~1\AppData\Local\Temp\ccYSbbyg.s 			page 30


 1640 0a14 20       		.byte	0x20
 1641 0a15 02       		.uleb128 0x2
 1642 0a16 1B0A0000 		.4byte	.LASF145
 1643 0a1a 0F       		.byte	0xf
 1644 0a1b FE       		.byte	0xfe
 1645 0a1c 11       		.byte	0x11
 1646 0a1d F0000000 		.4byte	0xf0
 1647 0a21 24       		.byte	0x24
 1648 0a22 02       		.uleb128 0x2
 1649 0a23 EA070000 		.4byte	.LASF146
 1650 0a27 0F       		.byte	0xf
 1651 0a28 FF       		.byte	0xff
 1652 0a29 11       		.byte	0x11
 1653 0a2a E4000000 		.4byte	0xe4
 1654 0a2e 28       		.byte	0x28
 1655 0a2f 01       		.uleb128 0x1
 1656 0a30 080B0000 		.4byte	.LASF147
 1657 0a34 0F       		.byte	0xf
 1658 0a35 0001     		.2byte	0x100
 1659 0a37 11       		.byte	0x11
 1660 0a38 E4000000 		.4byte	0xe4
 1661 0a3c 2C       		.byte	0x2c
 1662 0a3d 01       		.uleb128 0x1
 1663 0a3e 14090000 		.4byte	.LASF148
 1664 0a42 0F       		.byte	0xf
 1665 0a43 0101     		.2byte	0x101
 1666 0a45 11       		.byte	0x11
 1667 0a46 F0000000 		.4byte	0xf0
 1668 0a4a 30       		.byte	0x30
 1669 0a4b 01       		.uleb128 0x1
 1670 0a4c 19090000 		.4byte	.LASF149
 1671 0a50 0F       		.byte	0xf
 1672 0a51 0201     		.2byte	0x102
 1673 0a53 11       		.byte	0x11
 1674 0a54 F0000000 		.4byte	0xf0
 1675 0a58 34       		.byte	0x34
 1676 0a59 01       		.uleb128 0x1
 1677 0a5a 1E090000 		.4byte	.LASF150
 1678 0a5e 0F       		.byte	0xf
 1679 0a5f 0301     		.2byte	0x103
 1680 0a61 11       		.byte	0x11
 1681 0a62 F0000000 		.4byte	0xf0
 1682 0a66 38       		.byte	0x38
 1683 0a67 01       		.uleb128 0x1
 1684 0a68 09000000 		.4byte	.LASF151
 1685 0a6c 0F       		.byte	0xf
 1686 0a6d 0401     		.2byte	0x104
 1687 0a6f 11       		.byte	0x11
 1688 0a70 F0000000 		.4byte	0xf0
 1689 0a74 3C       		.byte	0x3c
 1690 0a75 05       		.uleb128 0x5
 1691 0a76 445200   		.ascii	"DR\000"
 1692 0a79 0F       		.byte	0xf
 1693 0a7a 0501     		.2byte	0x105
 1694 0a7c 11       		.byte	0x11
 1695 0a7d F0000000 		.4byte	0xf0
 1696 0a81 40       		.byte	0x40
ARM GAS  C:\Users\DEVELO~1\AppData\Local\Temp\ccYSbbyg.s 			page 31


 1697 0a82 01       		.uleb128 0x1
 1698 0a83 FA070000 		.4byte	.LASF113
 1699 0a87 0F       		.byte	0xf
 1700 0a88 0601     		.2byte	0x106
 1701 0a8a 11       		.byte	0x11
 1702 0a8b E4000000 		.4byte	0xe4
 1703 0a8f 44       		.byte	0x44
 1704 0a90 01       		.uleb128 0x1
 1705 0a91 04080000 		.4byte	.LASF115
 1706 0a95 0F       		.byte	0xf
 1707 0a96 0701     		.2byte	0x107
 1708 0a98 11       		.byte	0x11
 1709 0a99 E4000000 		.4byte	0xe4
 1710 0a9d 48       		.byte	0x48
 1711 0a9e 01       		.uleb128 0x1
 1712 0a9f 630A0000 		.4byte	.LASF152
 1713 0aa3 0F       		.byte	0xf
 1714 0aa4 0801     		.2byte	0x108
 1715 0aa6 11       		.byte	0x11
 1716 0aa7 F0000000 		.4byte	0xf0
 1717 0aab 4C       		.byte	0x4c
 1718 0aac 01       		.uleb128 0x1
 1719 0aad 120B0000 		.4byte	.LASF119
 1720 0ab1 0F       		.byte	0xf
 1721 0ab2 0901     		.2byte	0x109
 1722 0ab4 11       		.byte	0x11
 1723 0ab5 E10B0000 		.4byte	0xbe1
 1724 0ab9 50       		.byte	0x50
 1725 0aba 01       		.uleb128 0x1
 1726 0abb 2D040000 		.4byte	.LASF153
 1727 0abf 0F       		.byte	0xf
 1728 0ac0 0A01     		.2byte	0x10a
 1729 0ac2 11       		.byte	0x11
 1730 0ac3 F0000000 		.4byte	0xf0
 1731 0ac7 60       		.byte	0x60
 1732 0ac8 01       		.uleb128 0x1
 1733 0ac9 3C000000 		.4byte	.LASF154
 1734 0acd 0F       		.byte	0xf
 1735 0ace 0B01     		.2byte	0x10b
 1736 0ad0 11       		.byte	0x11
 1737 0ad1 F0000000 		.4byte	0xf0
 1738 0ad5 64       		.byte	0x64
 1739 0ad6 01       		.uleb128 0x1
 1740 0ad7 38040000 		.4byte	.LASF155
 1741 0adb 0F       		.byte	0xf
 1742 0adc 0C01     		.2byte	0x10c
 1743 0ade 11       		.byte	0x11
 1744 0adf F0000000 		.4byte	0xf0
 1745 0ae3 68       		.byte	0x68
 1746 0ae4 01       		.uleb128 0x1
 1747 0ae5 3D040000 		.4byte	.LASF156
 1748 0ae9 0F       		.byte	0xf
 1749 0aea 0D01     		.2byte	0x10d
 1750 0aec 11       		.byte	0x11
 1751 0aed F0000000 		.4byte	0xf0
 1752 0af1 6C       		.byte	0x6c
 1753 0af2 01       		.uleb128 0x1
ARM GAS  C:\Users\DEVELO~1\AppData\Local\Temp\ccYSbbyg.s 			page 32


 1754 0af3 72060000 		.4byte	.LASF121
 1755 0af7 0F       		.byte	0xf
 1756 0af8 0E01     		.2byte	0x10e
 1757 0afa 11       		.byte	0x11
 1758 0afb E10B0000 		.4byte	0xbe1
 1759 0aff 70       		.byte	0x70
 1760 0b00 01       		.uleb128 0x1
 1761 0b01 C4070000 		.4byte	.LASF157
 1762 0b05 0F       		.byte	0xf
 1763 0b06 0F01     		.2byte	0x10f
 1764 0b08 11       		.byte	0x11
 1765 0b09 F0000000 		.4byte	0xf0
 1766 0b0d 80       		.byte	0x80
 1767 0b0e 01       		.uleb128 0x1
 1768 0b0f C9070000 		.4byte	.LASF158
 1769 0b13 0F       		.byte	0xf
 1770 0b14 1001     		.2byte	0x110
 1771 0b16 11       		.byte	0x11
 1772 0b17 F0000000 		.4byte	0xf0
 1773 0b1b 84       		.byte	0x84
 1774 0b1c 01       		.uleb128 0x1
 1775 0b1d CE070000 		.4byte	.LASF159
 1776 0b21 0F       		.byte	0xf
 1777 0b22 1101     		.2byte	0x111
 1778 0b24 11       		.byte	0x11
 1779 0b25 F0000000 		.4byte	0xf0
 1780 0b29 88       		.byte	0x88
 1781 0b2a 01       		.uleb128 0x1
 1782 0b2b D3070000 		.4byte	.LASF160
 1783 0b2f 0F       		.byte	0xf
 1784 0b30 1201     		.2byte	0x112
 1785 0b32 11       		.byte	0x11
 1786 0b33 F0000000 		.4byte	0xf0
 1787 0b37 8C       		.byte	0x8c
 1788 0b38 01       		.uleb128 0x1
 1789 0b39 230B0000 		.4byte	.LASF130
 1790 0b3d 0F       		.byte	0xf
 1791 0b3e 1301     		.2byte	0x113
 1792 0b40 11       		.byte	0x11
 1793 0b41 E10B0000 		.4byte	0xbe1
 1794 0b45 90       		.byte	0x90
 1795 0b46 01       		.uleb128 0x1
 1796 0b47 0A060000 		.4byte	.LASF161
 1797 0b4b 0F       		.byte	0xf
 1798 0b4c 1401     		.2byte	0x114
 1799 0b4e 11       		.byte	0x11
 1800 0b4f F0000000 		.4byte	0xf0
 1801 0b53 A0       		.byte	0xa0
 1802 0b54 01       		.uleb128 0x1
 1803 0b55 1F060000 		.4byte	.LASF162
 1804 0b59 0F       		.byte	0xf
 1805 0b5a 1501     		.2byte	0x115
 1806 0b5c 11       		.byte	0x11
 1807 0b5d F0000000 		.4byte	0xf0
 1808 0b61 A4       		.byte	0xa4
 1809 0b62 01       		.uleb128 0x1
 1810 0b63 450B0000 		.4byte	.LASF136
ARM GAS  C:\Users\DEVELO~1\AppData\Local\Temp\ccYSbbyg.s 			page 33


 1811 0b67 0F       		.byte	0xf
 1812 0b68 1601     		.2byte	0x116
 1813 0b6a 11       		.byte	0x11
 1814 0b6b E4000000 		.4byte	0xe4
 1815 0b6f A8       		.byte	0xa8
 1816 0b70 01       		.uleb128 0x1
 1817 0b71 4F0B0000 		.4byte	.LASF163
 1818 0b75 0F       		.byte	0xf
 1819 0b76 1701     		.2byte	0x117
 1820 0b78 11       		.byte	0x11
 1821 0b79 E4000000 		.4byte	0xe4
 1822 0b7d AC       		.byte	0xac
 1823 0b7e 01       		.uleb128 0x1
 1824 0b7f 63010000 		.4byte	.LASF164
 1825 0b83 0F       		.byte	0xf
 1826 0b84 1801     		.2byte	0x118
 1827 0b86 11       		.byte	0x11
 1828 0b87 F0000000 		.4byte	0xf0
 1829 0b8b B0       		.byte	0xb0
 1830 0b8c 01       		.uleb128 0x1
 1831 0b8d 200A0000 		.4byte	.LASF165
 1832 0b91 0F       		.byte	0xf
 1833 0b92 1901     		.2byte	0x119
 1834 0b94 11       		.byte	0x11
 1835 0b95 F0000000 		.4byte	0xf0
 1836 0b99 B4       		.byte	0xb4
 1837 0b9a 01       		.uleb128 0x1
 1838 0b9b 68010000 		.4byte	.LASF166
 1839 0b9f 0F       		.byte	0xf
 1840 0ba0 1A01     		.2byte	0x11a
 1841 0ba2 11       		.byte	0x11
 1842 0ba3 F0000000 		.4byte	0xf0
 1843 0ba7 B8       		.byte	0xb8
 1844 0ba8 01       		.uleb128 0x1
 1845 0ba9 250A0000 		.4byte	.LASF167
 1846 0bad 0F       		.byte	0xf
 1847 0bae 1B01     		.2byte	0x11b
 1848 0bb0 11       		.byte	0x11
 1849 0bb1 F0000000 		.4byte	0xf0
 1850 0bb5 BC       		.byte	0xbc
 1851 0bb6 01       		.uleb128 0x1
 1852 0bb7 74010000 		.4byte	.LASF168
 1853 0bbb 0F       		.byte	0xf
 1854 0bbc 1C01     		.2byte	0x11c
 1855 0bbe 11       		.byte	0x11
 1856 0bbf F0000000 		.4byte	0xf0
 1857 0bc3 C0       		.byte	0xc0
 1858 0bc4 01       		.uleb128 0x1
 1859 0bc5 A1050000 		.4byte	.LASF169
 1860 0bc9 0F       		.byte	0xf
 1861 0bca 1D01     		.2byte	0x11d
 1862 0bcc 11       		.byte	0x11
 1863 0bcd F0000000 		.4byte	0xf0
 1864 0bd1 C4       		.byte	0xc4
 1865 0bd2 01       		.uleb128 0x1
 1866 0bd3 55040000 		.4byte	.LASF170
 1867 0bd7 0F       		.byte	0xf
ARM GAS  C:\Users\DEVELO~1\AppData\Local\Temp\ccYSbbyg.s 			page 34


 1868 0bd8 1E01     		.2byte	0x11e
 1869 0bda 11       		.byte	0x11
 1870 0bdb F0000000 		.4byte	0xf0
 1871 0bdf C8       		.byte	0xc8
 1872 0be0 00       		.byte	0
 1873 0be1 0A       		.uleb128 0xa
 1874 0be2 E4000000 		.4byte	0xe4
 1875 0be6 F10B0000 		.4byte	0xbf1
 1876 0bea 0B       		.uleb128 0xb
 1877 0beb 39000000 		.4byte	0x39
 1878 0bef 03       		.byte	0x3
 1879 0bf0 00       		.byte	0
 1880 0bf1 0D       		.uleb128 0xd
 1881 0bf2 570A0000 		.4byte	.LASF171
 1882 0bf6 0F       		.byte	0xf
 1883 0bf7 1F01     		.2byte	0x11f
 1884 0bf9 03       		.byte	0x3
 1885 0bfa 98090000 		.4byte	0x998
 1886 0bfe 18       		.uleb128 0x18
 1887 0bff 14       		.byte	0x14
 1888 0c00 0F       		.byte	0xf
 1889 0c01 2201     		.2byte	0x122
 1890 0c03 4E0C0000 		.4byte	0xc4e
 1891 0c07 05       		.uleb128 0x5
 1892 0c08 43535200 		.ascii	"CSR\000"
 1893 0c0c 0F       		.byte	0xf
 1894 0c0d 2401     		.2byte	0x124
 1895 0c0f 0F       		.byte	0xf
 1896 0c10 F0000000 		.4byte	0xf0
 1897 0c14 00       		.byte	0
 1898 0c15 01       		.uleb128 0x1
 1899 0c16 EA030000 		.4byte	.LASF172
 1900 0c1a 0F       		.byte	0xf
 1901 0c1b 2501     		.2byte	0x125
 1902 0c1d 0A       		.byte	0xa
 1903 0c1e E4000000 		.4byte	0xe4
 1904 0c22 04       		.byte	0x4
 1905 0c23 05       		.uleb128 0x5
 1906 0c24 43435200 		.ascii	"CCR\000"
 1907 0c28 0F       		.byte	0xf
 1908 0c29 2601     		.2byte	0x126
 1909 0c2b 0F       		.byte	0xf
 1910 0c2c F0000000 		.4byte	0xf0
 1911 0c30 08       		.byte	0x8
 1912 0c31 05       		.uleb128 0x5
 1913 0c32 43445200 		.ascii	"CDR\000"
 1914 0c36 0F       		.byte	0xf
 1915 0c37 2701     		.2byte	0x127
 1916 0c39 0F       		.byte	0xf
 1917 0c3a F0000000 		.4byte	0xf0
 1918 0c3e 0C       		.byte	0xc
 1919 0c3f 01       		.uleb128 0x1
 1920 0c40 88070000 		.4byte	.LASF173
 1921 0c44 0F       		.byte	0xf
 1922 0c45 2801     		.2byte	0x128
 1923 0c47 0F       		.byte	0xf
 1924 0c48 F0000000 		.4byte	0xf0
ARM GAS  C:\Users\DEVELO~1\AppData\Local\Temp\ccYSbbyg.s 			page 35


 1925 0c4c 10       		.byte	0x10
 1926 0c4d 00       		.byte	0
 1927 0c4e 0D       		.uleb128 0xd
 1928 0c4f 1B080000 		.4byte	.LASF174
 1929 0c53 0F       		.byte	0xf
 1930 0c54 2A01     		.2byte	0x12a
 1931 0c56 03       		.byte	0x3
 1932 0c57 FE0B0000 		.4byte	0xbfe
 1933 0c5b 18       		.uleb128 0x18
 1934 0c5c 18       		.byte	0x18
 1935 0c5d 0F       		.byte	0xf
 1936 0c5e 3002     		.2byte	0x230
 1937 0c60 B80C0000 		.4byte	0xcb8
 1938 0c64 05       		.uleb128 0x5
 1939 0c65 435200   		.ascii	"CR\000"
 1940 0c68 0F       		.byte	0xf
 1941 0c69 3202     		.2byte	0x232
 1942 0c6b 11       		.byte	0x11
 1943 0c6c F0000000 		.4byte	0xf0
 1944 0c70 00       		.byte	0
 1945 0c71 01       		.uleb128 0x1
 1946 0c72 3B010000 		.4byte	.LASF175
 1947 0c76 0F       		.byte	0xf
 1948 0c77 3302     		.2byte	0x233
 1949 0c79 11       		.byte	0x11
 1950 0c7a F0000000 		.4byte	0xf0
 1951 0c7e 04       		.byte	0x4
 1952 0c7f 05       		.uleb128 0x5
 1953 0c80 50415200 		.ascii	"PAR\000"
 1954 0c84 0F       		.byte	0xf
 1955 0c85 3402     		.2byte	0x234
 1956 0c87 11       		.byte	0x11
 1957 0c88 F0000000 		.4byte	0xf0
 1958 0c8c 08       		.byte	0x8
 1959 0c8d 01       		.uleb128 0x1
 1960 0c8e 79040000 		.4byte	.LASF176
 1961 0c92 0F       		.byte	0xf
 1962 0c93 3502     		.2byte	0x235
 1963 0c95 11       		.byte	0x11
 1964 0c96 F0000000 		.4byte	0xf0
 1965 0c9a 0C       		.byte	0xc
 1966 0c9b 01       		.uleb128 0x1
 1967 0c9c 0F090000 		.4byte	.LASF177
 1968 0ca0 0F       		.byte	0xf
 1969 0ca1 3602     		.2byte	0x236
 1970 0ca3 11       		.byte	0x11
 1971 0ca4 F0000000 		.4byte	0xf0
 1972 0ca8 10       		.byte	0x10
 1973 0ca9 05       		.uleb128 0x5
 1974 0caa 46435200 		.ascii	"FCR\000"
 1975 0cae 0F       		.byte	0xf
 1976 0caf 3702     		.2byte	0x237
 1977 0cb1 11       		.byte	0x11
 1978 0cb2 F0000000 		.4byte	0xf0
 1979 0cb6 14       		.byte	0x14
 1980 0cb7 00       		.byte	0
 1981 0cb8 0D       		.uleb128 0xd
ARM GAS  C:\Users\DEVELO~1\AppData\Local\Temp\ccYSbbyg.s 			page 36


 1982 0cb9 A4060000 		.4byte	.LASF178
 1983 0cbd 0F       		.byte	0xf
 1984 0cbe 3802     		.2byte	0x238
 1985 0cc0 03       		.byte	0x3
 1986 0cc1 5B0C0000 		.4byte	0xc5b
 1987 0cc5 18       		.uleb128 0x18
 1988 0cc6 04       		.byte	0x4
 1989 0cc7 0F       		.byte	0xf
 1990 0cc8 5102     		.2byte	0x251
 1991 0cca DD0C0000 		.4byte	0xcdd
 1992 0cce 05       		.uleb128 0x5
 1993 0ccf 43435200 		.ascii	"CCR\000"
 1994 0cd3 0F       		.byte	0xf
 1995 0cd4 5302     		.2byte	0x253
 1996 0cd6 12       		.byte	0x12
 1997 0cd7 F0000000 		.4byte	0xf0
 1998 0cdb 00       		.byte	0
 1999 0cdc 00       		.byte	0
 2000 0cdd 0D       		.uleb128 0xd
 2001 0cde 12070000 		.4byte	.LASF179
 2002 0ce2 0F       		.byte	0xf
 2003 0ce3 5402     		.2byte	0x254
 2004 0ce5 02       		.byte	0x2
 2005 0ce6 C50C0000 		.4byte	0xcc5
 2006 0cea 19       		.uleb128 0x19
 2007 0ceb 47080000 		.4byte	.LASF180
 2008 0cef 24       		.byte	0x24
 2009 0cf0 10       		.byte	0x10
 2010 0cf1 E001     		.2byte	0x1e0
 2011 0cf3 08       		.byte	0x8
 2012 0cf4 700D0000 		.4byte	0xd70
 2013 0cf8 05       		.uleb128 0x5
 2014 0cf9 723400   		.ascii	"r4\000"
 2015 0cfc 10       		.byte	0x10
 2016 0cfd F901     		.2byte	0x1f9
 2017 0cff 11       		.byte	0x11
 2018 0d00 E4000000 		.4byte	0xe4
 2019 0d04 00       		.byte	0
 2020 0d05 05       		.uleb128 0x5
 2021 0d06 723500   		.ascii	"r5\000"
 2022 0d09 10       		.byte	0x10
 2023 0d0a FA01     		.2byte	0x1fa
 2024 0d0c 11       		.byte	0x11
 2025 0d0d E4000000 		.4byte	0xe4
 2026 0d11 04       		.byte	0x4
 2027 0d12 05       		.uleb128 0x5
 2028 0d13 723600   		.ascii	"r6\000"
 2029 0d16 10       		.byte	0x10
 2030 0d17 FB01     		.2byte	0x1fb
 2031 0d19 11       		.byte	0x11
 2032 0d1a E4000000 		.4byte	0xe4
 2033 0d1e 08       		.byte	0x8
 2034 0d1f 05       		.uleb128 0x5
 2035 0d20 723700   		.ascii	"r7\000"
 2036 0d23 10       		.byte	0x10
 2037 0d24 FC01     		.2byte	0x1fc
 2038 0d26 11       		.byte	0x11
ARM GAS  C:\Users\DEVELO~1\AppData\Local\Temp\ccYSbbyg.s 			page 37


 2039 0d27 E4000000 		.4byte	0xe4
 2040 0d2b 0C       		.byte	0xc
 2041 0d2c 05       		.uleb128 0x5
 2042 0d2d 723800   		.ascii	"r8\000"
 2043 0d30 10       		.byte	0x10
 2044 0d31 FD01     		.2byte	0x1fd
 2045 0d33 11       		.byte	0x11
 2046 0d34 E4000000 		.4byte	0xe4
 2047 0d38 10       		.byte	0x10
 2048 0d39 05       		.uleb128 0x5
 2049 0d3a 723900   		.ascii	"r9\000"
 2050 0d3d 10       		.byte	0x10
 2051 0d3e FE01     		.2byte	0x1fe
 2052 0d40 11       		.byte	0x11
 2053 0d41 E4000000 		.4byte	0xe4
 2054 0d45 14       		.byte	0x14
 2055 0d46 05       		.uleb128 0x5
 2056 0d47 72313000 		.ascii	"r10\000"
 2057 0d4b 10       		.byte	0x10
 2058 0d4c FF01     		.2byte	0x1ff
 2059 0d4e 11       		.byte	0x11
 2060 0d4f E4000000 		.4byte	0xe4
 2061 0d53 18       		.byte	0x18
 2062 0d54 05       		.uleb128 0x5
 2063 0d55 72313100 		.ascii	"r11\000"
 2064 0d59 10       		.byte	0x10
 2065 0d5a 0002     		.2byte	0x200
 2066 0d5c 11       		.byte	0x11
 2067 0d5d E4000000 		.4byte	0xe4
 2068 0d61 1C       		.byte	0x1c
 2069 0d62 05       		.uleb128 0x5
 2070 0d63 6C7200   		.ascii	"lr\000"
 2071 0d66 10       		.byte	0x10
 2072 0d67 0102     		.2byte	0x201
 2073 0d69 11       		.byte	0x11
 2074 0d6a E4000000 		.4byte	0xe4
 2075 0d6e 20       		.byte	0x20
 2076 0d6f 00       		.byte	0
 2077 0d70 19       		.uleb128 0x19
 2078 0d71 16010000 		.4byte	.LASF181
 2079 0d75 04       		.byte	0x4
 2080 0d76 10       		.byte	0x10
 2081 0d77 0A02     		.2byte	0x20a
 2082 0d79 08       		.byte	0x8
 2083 0d7a 8C0D0000 		.4byte	0xd8c
 2084 0d7e 05       		.uleb128 0x5
 2085 0d7f 737000   		.ascii	"sp\000"
 2086 0d82 10       		.byte	0x10
 2087 0d83 0B02     		.2byte	0x20b
 2088 0d85 1A       		.byte	0x1a
 2089 0d86 8C0D0000 		.4byte	0xd8c
 2090 0d8a 00       		.byte	0
 2091 0d8b 00       		.byte	0
 2092 0d8c 04       		.uleb128 0x4
 2093 0d8d EA0C0000 		.4byte	0xcea
 2094 0d91 09       		.uleb128 0x9
 2095 0d92 66030000 		.4byte	.LASF182
ARM GAS  C:\Users\DEVELO~1\AppData\Local\Temp\ccYSbbyg.s 			page 38


 2096 0d96 18       		.byte	0x18
 2097 0d97 08       		.byte	0x8
 2098 0d98 64       		.byte	0x64
 2099 0d99 10       		.byte	0x10
 2100 0d9a C60D0000 		.4byte	0xdc6
 2101 0d9e 02       		.uleb128 0x2
 2102 0d9f AF080000 		.4byte	.LASF183
 2103 0da3 08       		.byte	0x8
 2104 0da4 68       		.byte	0x68
 2105 0da5 21       		.byte	0x21
 2106 0da6 4B040000 		.4byte	0x44b
 2107 0daa 00       		.byte	0
 2108 0dab 02       		.uleb128 0x2
 2109 0dac B5080000 		.4byte	.LASF184
 2110 0db0 08       		.byte	0x8
 2111 0db1 73       		.byte	0x73
 2112 0db2 21       		.byte	0x21
 2113 0db3 7C030000 		.4byte	0x37c
 2114 0db7 0C       		.byte	0xc
 2115 0db8 02       		.uleb128 0x2
 2116 0db9 40010000 		.4byte	.LASF185
 2117 0dbd 08       		.byte	0x8
 2118 0dbe 79       		.byte	0x79
 2119 0dbf 21       		.byte	0x21
 2120 0dc0 06010000 		.4byte	0x106
 2121 0dc4 10       		.byte	0x10
 2122 0dc5 00       		.byte	0
 2123 0dc6 03       		.uleb128 0x3
 2124 0dc7 F2090000 		.4byte	.LASF186
 2125 0dcb 08       		.byte	0x8
 2126 0dcc 7B       		.byte	0x7b
 2127 0dcd 03       		.byte	0x3
 2128 0dce 910D0000 		.4byte	0xd91
 2129 0dd2 09       		.uleb128 0x9
 2130 0dd3 52000000 		.4byte	.LASF187
 2131 0dd7 08       		.byte	0x8
 2132 0dd8 08       		.byte	0x8
 2133 0dd9 80       		.byte	0x80
 2134 0dda 10       		.byte	0x10
 2135 0ddb ED0D0000 		.4byte	0xded
 2136 0ddf 02       		.uleb128 0x2
 2137 0de0 75090000 		.4byte	.LASF188
 2138 0de4 08       		.byte	0x8
 2139 0de5 84       		.byte	0x84
 2140 0de6 21       		.byte	0x21
 2141 0de7 CC030000 		.4byte	0x3cc
 2142 0deb 00       		.byte	0
 2143 0dec 00       		.byte	0
 2144 0ded 03       		.uleb128 0x3
 2145 0dee 7C060000 		.4byte	.LASF189
 2146 0df2 08       		.byte	0x8
 2147 0df3 85       		.byte	0x85
 2148 0df4 03       		.byte	0x3
 2149 0df5 D20D0000 		.4byte	0xdd2
 2150 0df9 03       		.uleb128 0x3
 2151 0dfa 24000000 		.4byte	.LASF190
 2152 0dfe 08       		.byte	0x8
ARM GAS  C:\Users\DEVELO~1\AppData\Local\Temp\ccYSbbyg.s 			page 39


 2153 0dff 8A       		.byte	0x8a
 2154 0e00 14       		.byte	0x14
 2155 0e01 B5040000 		.4byte	0x4b5
 2156 0e05 17       		.uleb128 0x17
 2157 0e06 0C       		.byte	0xc
 2158 0e07 08       		.byte	0x8
 2159 0e08 A0       		.byte	0xa0
 2160 0e09 03       		.byte	0x3
 2161 0e0a 330E0000 		.4byte	0xe33
 2162 0e0e 11       		.uleb128 0x11
 2163 0e0f 8B010000 		.4byte	.LASF191
 2164 0e13 08       		.byte	0x8
 2165 0e14 A4       		.byte	0xa4
 2166 0e15 21       		.byte	0x21
 2167 0e16 A0030000 		.4byte	0x3a0
 2168 0e1a 11       		.uleb128 0x11
 2169 0e1b 75090000 		.4byte	.LASF188
 2170 0e1f 08       		.byte	0x8
 2171 0e20 A8       		.byte	0xa8
 2172 0e21 21       		.byte	0x21
 2173 0e22 CC030000 		.4byte	0x3cc
 2174 0e26 11       		.uleb128 0x11
 2175 0e27 66020000 		.4byte	.LASF192
 2176 0e2b 08       		.byte	0x8
 2177 0e2c AC       		.byte	0xac
 2178 0e2d 21       		.byte	0x21
 2179 0e2e 05040000 		.4byte	0x405
 2180 0e32 00       		.byte	0
 2181 0e33 17       		.uleb128 0x17
 2182 0e34 04       		.byte	0x4
 2183 0e35 08       		.byte	0x8
 2184 0e36 EB       		.byte	0xeb
 2185 0e37 03       		.byte	0x3
 2186 0e38 9D0E0000 		.4byte	0xe9d
 2187 0e3c 11       		.uleb128 0x11
 2188 0e3d 02040000 		.4byte	.LASF193
 2189 0e41 08       		.byte	0x8
 2190 0e42 F2       		.byte	0xf2
 2191 0e43 21       		.byte	0x21
 2192 0e44 53010000 		.4byte	0x153
 2193 0e48 11       		.uleb128 0x11
 2194 0e49 840B0000 		.4byte	.LASF194
 2195 0e4d 08       		.byte	0x8
 2196 0e4e F9       		.byte	0xf9
 2197 0e4f 21       		.byte	0x21
 2198 0e50 53010000 		.4byte	0x153
 2199 0e54 13       		.uleb128 0x13
 2200 0e55 02010000 		.4byte	.LASF79
 2201 0e59 0001     		.2byte	0x100
 2202 0e5b 22       		.byte	0x22
 2203 0e5c BA040000 		.4byte	0x4ba
 2204 0e60 13       		.uleb128 0x13
 2205 0e61 750B0000 		.4byte	.LASF195
 2206 0e65 0701     		.2byte	0x107
 2207 0e67 22       		.byte	0x22
 2208 0e68 9D0E0000 		.4byte	0xe9d
 2209 0e6c 13       		.uleb128 0x13
ARM GAS  C:\Users\DEVELO~1\AppData\Local\Temp\ccYSbbyg.s 			page 40


 2210 0e6d B7010000 		.4byte	.LASF196
 2211 0e71 0C01     		.2byte	0x10c
 2212 0e73 21       		.byte	0x21
 2213 0e74 53010000 		.4byte	0x153
 2214 0e78 13       		.uleb128 0x13
 2215 0e79 91090000 		.4byte	.LASF197
 2216 0e7d 1501     		.2byte	0x115
 2217 0e7f 22       		.byte	0x22
 2218 0e80 CA0E0000 		.4byte	0xeca
 2219 0e84 13       		.uleb128 0x13
 2220 0e85 14000000 		.4byte	.LASF198
 2221 0e89 1E01     		.2byte	0x11e
 2222 0e8b 22       		.byte	0x22
 2223 0e8c 040F0000 		.4byte	0xf04
 2224 0e90 13       		.uleb128 0x13
 2225 0e91 4A010000 		.4byte	.LASF199
 2226 0e95 2601     		.2byte	0x126
 2227 0e97 21       		.byte	0x21
 2228 0e98 5F010000 		.4byte	0x15f
 2229 0e9c 00       		.byte	0
 2230 0e9d 04       		.uleb128 0x4
 2231 0e9e F90D0000 		.4byte	0xdf9
 2232 0ea2 09       		.uleb128 0x9
 2233 0ea3 EF010000 		.4byte	.LASF200
 2234 0ea7 0C       		.byte	0xc
 2235 0ea8 11       		.byte	0x11
 2236 0ea9 34       		.byte	0x34
 2237 0eaa 10       		.byte	0x10
 2238 0eab CA0E0000 		.4byte	0xeca
 2239 0eaf 02       		.uleb128 0x2
 2240 0eb0 75090000 		.4byte	.LASF188
 2241 0eb4 11       		.byte	0x11
 2242 0eb5 35       		.byte	0x35
 2243 0eb6 19       		.byte	0x19
 2244 0eb7 CC030000 		.4byte	0x3cc
 2245 0ebb 00       		.byte	0
 2246 0ebc 08       		.uleb128 0x8
 2247 0ebd 636E7400 		.ascii	"cnt\000"
 2248 0ec1 11       		.byte	0x11
 2249 0ec2 37       		.byte	0x37
 2250 0ec3 19       		.byte	0x19
 2251 0ec4 6B010000 		.4byte	0x16b
 2252 0ec8 08       		.byte	0x8
 2253 0ec9 00       		.byte	0
 2254 0eca 04       		.uleb128 0x4
 2255 0ecb A20E0000 		.4byte	0xea2
 2256 0ecf 09       		.uleb128 0x9
 2257 0ed0 66040000 		.4byte	.LASF201
 2258 0ed4 10       		.byte	0x10
 2259 0ed5 12       		.byte	0x12
 2260 0ed6 39       		.byte	0x39
 2261 0ed7 08       		.byte	0x8
 2262 0ed8 040F0000 		.4byte	0xf04
 2263 0edc 02       		.uleb128 0x2
 2264 0edd 75090000 		.4byte	.LASF188
 2265 0ee1 12       		.byte	0x12
 2266 0ee2 3A       		.byte	0x3a
ARM GAS  C:\Users\DEVELO~1\AppData\Local\Temp\ccYSbbyg.s 			page 41


 2267 0ee3 19       		.byte	0x19
 2268 0ee4 CC030000 		.4byte	0x3cc
 2269 0ee8 00       		.byte	0
 2270 0ee9 02       		.uleb128 0x2
 2271 0eea 43030000 		.4byte	.LASF33
 2272 0eee 12       		.byte	0x12
 2273 0eef 3C       		.byte	0x3c
 2274 0ef0 1A       		.byte	0x1a
 2275 0ef1 B5040000 		.4byte	0x4b5
 2276 0ef5 08       		.byte	0x8
 2277 0ef6 02       		.uleb128 0x2
 2278 0ef7 A3000000 		.4byte	.LASF69
 2279 0efb 12       		.byte	0x12
 2280 0efc 3E       		.byte	0x3e
 2281 0efd 1A       		.byte	0x1a
 2282 0efe C30F0000 		.4byte	0xfc3
 2283 0f02 0C       		.byte	0xc
 2284 0f03 00       		.byte	0
 2285 0f04 04       		.uleb128 0x4
 2286 0f05 CF0E0000 		.4byte	0xecf
 2287 0f09 04       		.uleb128 0x4
 2288 0f0a 72020000 		.4byte	0x272
 2289 0f0e 04       		.uleb128 0x4
 2290 0f0f 17010000 		.4byte	0x117
 2291 0f13 19       		.uleb128 0x19
 2292 0f14 2D010000 		.4byte	.LASF202
 2293 0f18 10       		.byte	0x10
 2294 0f19 08       		.byte	0x8
 2295 0f1a 5C01     		.2byte	0x15c
 2296 0f1c 10       		.byte	0x10
 2297 0f1d 3E0F0000 		.4byte	0xf3e
 2298 0f21 01       		.uleb128 0x1
 2299 0f22 66020000 		.4byte	.LASF192
 2300 0f26 08       		.byte	0x8
 2301 0f27 6101     		.2byte	0x161
 2302 0f29 21       		.byte	0x21
 2303 0f2a 05040000 		.4byte	0x405
 2304 0f2e 00       		.byte	0
 2305 0f2f 01       		.uleb128 0x1
 2306 0f30 F50A0000 		.4byte	.LASF203
 2307 0f34 08       		.byte	0x8
 2308 0f35 6501     		.2byte	0x165
 2309 0f37 22       		.byte	0x22
 2310 0f38 B5040000 		.4byte	0x4b5
 2311 0f3c 0C       		.byte	0xc
 2312 0f3d 00       		.byte	0
 2313 0f3e 0D       		.uleb128 0xd
 2314 0f3f 49090000 		.4byte	.LASF204
 2315 0f43 08       		.byte	0x8
 2316 0f44 6601     		.2byte	0x166
 2317 0f46 03       		.byte	0x3
 2318 0f47 130F0000 		.4byte	0xf13
 2319 0f4b 19       		.uleb128 0x19
 2320 0f4c 99080000 		.4byte	.LASF205
 2321 0f50 14       		.byte	0x14
 2322 0f51 08       		.byte	0x8
 2323 0f52 6B01     		.2byte	0x16b
ARM GAS  C:\Users\DEVELO~1\AppData\Local\Temp\ccYSbbyg.s 			page 42


 2324 0f54 10       		.byte	0x10
 2325 0f55 A00F0000 		.4byte	0xfa0
 2326 0f59 01       		.uleb128 0x1
 2327 0f5a F8080000 		.4byte	.LASF34
 2328 0f5e 08       		.byte	0x8
 2329 0f5f 6F01     		.2byte	0x16f
 2330 0f61 22       		.byte	0x22
 2331 0f62 5A030000 		.4byte	0x35a
 2332 0f66 00       		.byte	0
 2333 0f67 01       		.uleb128 0x1
 2334 0f68 60050000 		.4byte	.LASF206
 2335 0f6c 08       		.byte	0x8
 2336 0f6d 7501     		.2byte	0x175
 2337 0f6f 22       		.byte	0x22
 2338 0f70 0E0F0000 		.4byte	0xf0e
 2339 0f74 04       		.byte	0x4
 2340 0f75 01       		.uleb128 0x1
 2341 0f76 49030000 		.4byte	.LASF207
 2342 0f7a 08       		.byte	0x8
 2343 0f7b 7901     		.2byte	0x179
 2344 0f7d 22       		.byte	0x22
 2345 0f7e 0E0F0000 		.4byte	0xf0e
 2346 0f82 08       		.byte	0x8
 2347 0f83 01       		.uleb128 0x1
 2348 0f84 870A0000 		.4byte	.LASF208
 2349 0f88 08       		.byte	0x8
 2350 0f89 7F01     		.2byte	0x17f
 2351 0f8b 22       		.byte	0x22
 2352 0f8c 0E0F0000 		.4byte	0xf0e
 2353 0f90 0C       		.byte	0xc
 2354 0f91 01       		.uleb128 0x1
 2355 0f92 C4040000 		.4byte	.LASF209
 2356 0f96 08       		.byte	0x8
 2357 0f97 8301     		.2byte	0x183
 2358 0f99 22       		.byte	0x22
 2359 0f9a 0E0F0000 		.4byte	0xf0e
 2360 0f9e 10       		.byte	0x10
 2361 0f9f 00       		.byte	0
 2362 0fa0 0D       		.uleb128 0xd
 2363 0fa1 0D020000 		.4byte	.LASF210
 2364 0fa5 08       		.byte	0x8
 2365 0fa6 8501     		.2byte	0x185
 2366 0fa8 03       		.byte	0x3
 2367 0fa9 4B0F0000 		.4byte	0xf4b
 2368 0fad 0F       		.uleb128 0xf
 2369 0fae A00F0000 		.4byte	0xfa0
 2370 0fb2 04       		.uleb128 0x4
 2371 0fb3 AD0F0000 		.4byte	0xfad
 2372 0fb7 03       		.uleb128 0x3
 2373 0fb8 B3090000 		.4byte	.LASF211
 2374 0fbc 12       		.byte	0x12
 2375 0fbd 34       		.byte	0x34
 2376 0fbe 19       		.byte	0x19
 2377 0fbf CF0E0000 		.4byte	0xecf
 2378 0fc3 04       		.uleb128 0x4
 2379 0fc4 B70F0000 		.4byte	0xfb7
 2380 0fc8 0C       		.uleb128 0xc
ARM GAS  C:\Users\DEVELO~1\AppData\Local\Temp\ccYSbbyg.s 			page 43


 2381 0fc9 01       		.byte	0x1
 2382 0fca 02       		.byte	0x2
 2383 0fcb 32040000 		.4byte	.LASF212
 2384 0fcf 04       		.uleb128 0x4
 2385 0fd0 BB000000 		.4byte	0xbb
 2386 0fd4 18       		.uleb128 0x18
 2387 0fd5 10       		.byte	0x10
 2388 0fd6 13       		.byte	0x13
 2389 0fd7 A701     		.2byte	0x1a7
 2390 0fd9 32100000 		.4byte	0x1032
 2391 0fdd 01       		.uleb128 0x1
 2392 0fde B3050000 		.4byte	.LASF213
 2393 0fe2 13       		.byte	0x13
 2394 0fe3 A801     		.2byte	0x1a8
 2395 0fe5 1A       		.byte	0x1a
 2396 0fe6 32100000 		.4byte	0x1032
 2397 0fea 00       		.byte	0
 2398 0feb 01       		.uleb128 0x1
 2399 0fec CB010000 		.4byte	.LASF214
 2400 0ff0 13       		.byte	0x13
 2401 0ff1 A901     		.2byte	0x1a9
 2402 0ff3 1A       		.byte	0x1a
 2403 0ff4 37100000 		.4byte	0x1037
 2404 0ff8 04       		.byte	0x4
 2405 0ff9 05       		.uleb128 0x5
 2406 0ffa 6D757800 		.ascii	"mux\000"
 2407 0ffe 13       		.byte	0x13
 2408 0fff AB01     		.2byte	0x1ab
 2409 1001 1B       		.byte	0x1b
 2410 1002 3C100000 		.4byte	0x103c
 2411 1006 08       		.byte	0x8
 2412 1007 01       		.uleb128 0x1
 2413 1008 E9010000 		.4byte	.LASF215
 2414 100c 13       		.byte	0x13
 2415 100d AF01     		.2byte	0x1af
 2416 100f 19       		.byte	0x19
 2417 1010 BB000000 		.4byte	0xbb
 2418 1014 0C       		.byte	0xc
 2419 1015 01       		.uleb128 0x1
 2420 1016 8D0B0000 		.4byte	.LASF216
 2421 101a 13       		.byte	0x13
 2422 101b B101     		.2byte	0x1b1
 2423 101d 19       		.byte	0x19
 2424 101e BB000000 		.4byte	0xbb
 2425 1022 0D       		.byte	0xd
 2426 1023 01       		.uleb128 0x1
 2427 1024 5F020000 		.4byte	.LASF217
 2428 1028 13       		.byte	0x13
 2429 1029 B201     		.2byte	0x1b2
 2430 102b 19       		.byte	0x19
 2431 102c BB000000 		.4byte	0xbb
 2432 1030 0E       		.byte	0xe
 2433 1031 00       		.byte	0
 2434 1032 04       		.uleb128 0x4
 2435 1033 B80C0000 		.4byte	0xcb8
 2436 1037 04       		.uleb128 0x4
 2437 1038 F0000000 		.4byte	0xf0
ARM GAS  C:\Users\DEVELO~1\AppData\Local\Temp\ccYSbbyg.s 			page 44


 2438 103c 04       		.uleb128 0x4
 2439 103d DD0C0000 		.4byte	0xcdd
 2440 1041 0D       		.uleb128 0xd
 2441 1042 7B050000 		.4byte	.LASF218
 2442 1046 13       		.byte	0x13
 2443 1047 B301     		.2byte	0x1b3
 2444 1049 03       		.byte	0x3
 2445 104a D40F0000 		.4byte	0xfd4
 2446 104e 0F       		.uleb128 0xf
 2447 104f 41100000 		.4byte	0x1041
 2448 1053 10       		.uleb128 0x10
 2449 1054 04       		.byte	0x4
 2450 1055 14       		.byte	0x14
 2451 1056 5B       		.byte	0x5b
 2452 1057 05       		.byte	0x5
 2453 1058 77100000 		.4byte	0x1077
 2454 105c 08       		.uleb128 0x8
 2455 105d 73657400 		.ascii	"set\000"
 2456 1061 14       		.byte	0x14
 2457 1062 5C       		.byte	0x5c
 2458 1063 19       		.byte	0x19
 2459 1064 CC000000 		.4byte	0xcc
 2460 1068 00       		.byte	0
 2461 1069 02       		.uleb128 0x2
 2462 106a 58030000 		.4byte	.LASF219
 2463 106e 14       		.byte	0x14
 2464 106f 5D       		.byte	0x5d
 2465 1070 19       		.byte	0x19
 2466 1071 CC000000 		.4byte	0xcc
 2467 1075 02       		.byte	0x2
 2468 1076 00       		.byte	0
 2469 1077 17       		.uleb128 0x17
 2470 1078 04       		.byte	0x4
 2471 1079 14       		.byte	0x14
 2472 107a 59       		.byte	0x59
 2473 107b 0C       		.byte	0xc
 2474 107c 95100000 		.4byte	0x1095
 2475 1080 16       		.uleb128 0x16
 2476 1081 5700     		.ascii	"W\000"
 2477 1083 14       		.byte	0x14
 2478 1084 5A       		.byte	0x5a
 2479 1085 19       		.byte	0x19
 2480 1086 E4000000 		.4byte	0xe4
 2481 108a 16       		.uleb128 0x16
 2482 108b 4800     		.ascii	"H\000"
 2483 108d 14       		.byte	0x14
 2484 108e 5E       		.byte	0x5e
 2485 108f 07       		.byte	0x7
 2486 1090 53100000 		.4byte	0x1053
 2487 1094 00       		.byte	0
 2488 1095 0E       		.uleb128 0xe
 2489 1096 77100000 		.4byte	0x1077
 2490 109a 10       		.uleb128 0x10
 2491 109b 28       		.byte	0x28
 2492 109c 14       		.byte	0x14
 2493 109d 51       		.byte	0x51
 2494 109e 09       		.byte	0x9
ARM GAS  C:\Users\DEVELO~1\AppData\Local\Temp\ccYSbbyg.s 			page 45


 2495 109f 26110000 		.4byte	0x1126
 2496 10a3 02       		.uleb128 0x2
 2497 10a4 9B020000 		.4byte	.LASF220
 2498 10a8 14       		.byte	0x14
 2499 10a9 53       		.byte	0x53
 2500 10aa 19       		.byte	0x19
 2501 10ab F0000000 		.4byte	0xf0
 2502 10af 00       		.byte	0
 2503 10b0 02       		.uleb128 0x2
 2504 10b1 92080000 		.4byte	.LASF221
 2505 10b5 14       		.byte	0x14
 2506 10b6 54       		.byte	0x54
 2507 10b7 19       		.byte	0x19
 2508 10b8 F0000000 		.4byte	0xf0
 2509 10bc 04       		.byte	0x4
 2510 10bd 02       		.uleb128 0x2
 2511 10be 74070000 		.4byte	.LASF222
 2512 10c2 14       		.byte	0x14
 2513 10c3 55       		.byte	0x55
 2514 10c4 19       		.byte	0x19
 2515 10c5 F0000000 		.4byte	0xf0
 2516 10c9 08       		.byte	0x8
 2517 10ca 02       		.uleb128 0x2
 2518 10cb 47040000 		.4byte	.LASF223
 2519 10cf 14       		.byte	0x14
 2520 10d0 56       		.byte	0x56
 2521 10d1 19       		.byte	0x19
 2522 10d2 F0000000 		.4byte	0xf0
 2523 10d6 0C       		.byte	0xc
 2524 10d7 08       		.uleb128 0x8
 2525 10d8 49445200 		.ascii	"IDR\000"
 2526 10dc 14       		.byte	0x14
 2527 10dd 57       		.byte	0x57
 2528 10de 19       		.byte	0x19
 2529 10df F0000000 		.4byte	0xf0
 2530 10e3 10       		.byte	0x10
 2531 10e4 08       		.uleb128 0x8
 2532 10e5 4F445200 		.ascii	"ODR\000"
 2533 10e9 14       		.byte	0x14
 2534 10ea 58       		.byte	0x58
 2535 10eb 19       		.byte	0x19
 2536 10ec F0000000 		.4byte	0xf0
 2537 10f0 14       		.byte	0x14
 2538 10f1 02       		.uleb128 0x2
 2539 10f2 37000000 		.4byte	.LASF224
 2540 10f6 14       		.byte	0x14
 2541 10f7 5F       		.byte	0x5f
 2542 10f8 05       		.byte	0x5
 2543 10f9 95100000 		.4byte	0x1095
 2544 10fd 18       		.byte	0x18
 2545 10fe 02       		.uleb128 0x2
 2546 10ff 82070000 		.4byte	.LASF225
 2547 1103 14       		.byte	0x14
 2548 1104 60       		.byte	0x60
 2549 1105 19       		.byte	0x19
 2550 1106 F0000000 		.4byte	0xf0
 2551 110a 1C       		.byte	0x1c
ARM GAS  C:\Users\DEVELO~1\AppData\Local\Temp\ccYSbbyg.s 			page 46


 2552 110b 02       		.uleb128 0x2
 2553 110c CE090000 		.4byte	.LASF226
 2554 1110 14       		.byte	0x14
 2555 1111 61       		.byte	0x61
 2556 1112 19       		.byte	0x19
 2557 1113 F0000000 		.4byte	0xf0
 2558 1117 20       		.byte	0x20
 2559 1118 02       		.uleb128 0x2
 2560 1119 31030000 		.4byte	.LASF227
 2561 111d 14       		.byte	0x14
 2562 111e 62       		.byte	0x62
 2563 111f 19       		.byte	0x19
 2564 1120 F0000000 		.4byte	0xf0
 2565 1124 24       		.byte	0x24
 2566 1125 00       		.byte	0
 2567 1126 03       		.uleb128 0x3
 2568 1127 36030000 		.4byte	.LASF228
 2569 112b 14       		.byte	0x14
 2570 112c 63       		.byte	0x63
 2571 112d 03       		.byte	0x3
 2572 112e 9A100000 		.4byte	0x109a
 2573 1132 03       		.uleb128 0x3
 2574 1133 87060000 		.4byte	.LASF229
 2575 1137 15       		.byte	0x15
 2576 1138 C2       		.byte	0xc2
 2577 1139 12       		.byte	0x12
 2578 113a E4000000 		.4byte	0xe4
 2579 113e 03       		.uleb128 0x3
 2580 113f 7E0A0000 		.4byte	.LASF230
 2581 1143 15       		.byte	0x15
 2582 1144 C7       		.byte	0xc7
 2583 1145 12       		.byte	0x12
 2584 1146 E4000000 		.4byte	0xe4
 2585 114a 03       		.uleb128 0x3
 2586 114b 8D040000 		.4byte	.LASF231
 2587 114f 15       		.byte	0x15
 2588 1150 D9       		.byte	0xd9
 2589 1151 18       		.byte	0x18
 2590 1152 56110000 		.4byte	0x1156
 2591 1156 04       		.uleb128 0x4
 2592 1157 26110000 		.4byte	0x1126
 2593 115b 29       		.uleb128 0x29
 2594 115c 07       		.byte	0x7
 2595 115d 01       		.byte	0x1
 2596 115e 61000000 		.4byte	0x61
 2597 1162 16       		.byte	0x16
 2598 1163 46       		.byte	0x46
 2599 1164 0E       		.byte	0xe
 2600 1165 8E110000 		.4byte	0x118e
 2601 1169 14       		.uleb128 0x14
 2602 116a E4080000 		.4byte	.LASF232
 2603 116e 00       		.byte	0
 2604 116f 14       		.uleb128 0x14
 2605 1170 7B0B0000 		.4byte	.LASF233
 2606 1174 01       		.byte	0x1
 2607 1175 14       		.uleb128 0x14
 2608 1176 3F090000 		.4byte	.LASF234
ARM GAS  C:\Users\DEVELO~1\AppData\Local\Temp\ccYSbbyg.s 			page 47


 2609 117a 02       		.byte	0x2
 2610 117b 14       		.uleb128 0x14
 2611 117c AC070000 		.4byte	.LASF235
 2612 1180 03       		.byte	0x3
 2613 1181 14       		.uleb128 0x14
 2614 1182 9E040000 		.4byte	.LASF236
 2615 1186 04       		.byte	0x4
 2616 1187 14       		.uleb128 0x14
 2617 1188 AB040000 		.4byte	.LASF237
 2618 118c 05       		.byte	0x5
 2619 118d 00       		.byte	0
 2620 118e 03       		.uleb128 0x3
 2621 118f 70050000 		.4byte	.LASF238
 2622 1193 16       		.byte	0x16
 2623 1194 4D       		.byte	0x4d
 2624 1195 03       		.byte	0x3
 2625 1196 5B110000 		.4byte	0x115b
 2626 119a 03       		.uleb128 0x3
 2627 119b 09040000 		.4byte	.LASF239
 2628 119f 16       		.byte	0x16
 2629 11a0 52       		.byte	0x52
 2630 11a1 1F       		.byte	0x1f
 2631 11a2 A6110000 		.4byte	0x11a6
 2632 11a6 09       		.uleb128 0x9
 2633 11a7 B5040000 		.4byte	.LASF240
 2634 11ab 38       		.byte	0x38
 2635 11ac 16       		.byte	0x16
 2636 11ad A0       		.byte	0xa0
 2637 11ae 08       		.byte	0x8
 2638 11af 43120000 		.4byte	0x1243
 2639 11b3 02       		.uleb128 0x2
 2640 11b4 510A0000 		.4byte	.LASF36
 2641 11b8 16       		.byte	0x16
 2642 11b9 A4       		.byte	0xa4
 2643 11ba 1D       		.byte	0x1d
 2644 11bb 8E110000 		.4byte	0x118e
 2645 11bf 00       		.byte	0
 2646 11c0 02       		.uleb128 0x2
 2647 11c1 BD070000 		.4byte	.LASF53
 2648 11c5 16       		.byte	0x16
 2649 11c6 A8       		.byte	0xa8
 2650 11c7 1E       		.byte	0x1e
 2651 11c8 25140000 		.4byte	0x1425
 2652 11cc 04       		.byte	0x4
 2653 11cd 02       		.uleb128 0x2
 2654 11ce E1050000 		.4byte	.LASF241
 2655 11d2 16       		.byte	0x16
 2656 11d3 AC       		.byte	0xac
 2657 11d4 1E       		.byte	0x1e
 2658 11d5 2A140000 		.4byte	0x142a
 2659 11d9 08       		.byte	0x8
 2660 11da 02       		.uleb128 0x2
 2661 11db 26060000 		.4byte	.LASF242
 2662 11df 16       		.byte	0x16
 2663 11e0 B0       		.byte	0xb0
 2664 11e1 1D       		.byte	0x1d
 2665 11e2 2D000000 		.4byte	0x2d
ARM GAS  C:\Users\DEVELO~1\AppData\Local\Temp\ccYSbbyg.s 			page 48


 2666 11e6 0C       		.byte	0xc
 2667 11e7 02       		.uleb128 0x2
 2668 11e8 FD0A0000 		.4byte	.LASF243
 2669 11ec 16       		.byte	0x16
 2670 11ed B4       		.byte	0xb4
 2671 11ee 1E       		.byte	0x1e
 2672 11ef 2F140000 		.4byte	0x142f
 2673 11f3 10       		.byte	0x10
 2674 11f4 02       		.uleb128 0x2
 2675 11f5 8A090000 		.4byte	.LASF244
 2676 11f9 16       		.byte	0x16
 2677 11fa B9       		.byte	0xb9
 2678 11fb 1D       		.byte	0x1d
 2679 11fc F90D0000 		.4byte	0xdf9
 2680 1200 14       		.byte	0x14
 2681 1201 02       		.uleb128 0x2
 2682 1202 E3010000 		.4byte	.LASF245
 2683 1206 16       		.byte	0x16
 2684 1207 BF       		.byte	0xbf
 2685 1208 1D       		.byte	0x1d
 2686 1209 B70F0000 		.4byte	0xfb7
 2687 120d 18       		.byte	0x18
 2688 120e 02       		.uleb128 0x2
 2689 120f 68090000 		.4byte	.LASF246
 2690 1213 16       		.byte	0x16
 2691 1214 C5       		.byte	0xc5
 2692 1215 03       		.byte	0x3
 2693 1216 34140000 		.4byte	0x1434
 2694 121a 28       		.byte	0x28
 2695 121b 02       		.uleb128 0x2
 2696 121c 28090000 		.4byte	.LASF247
 2697 1220 16       		.byte	0x16
 2698 1221 C5       		.byte	0xc5
 2699 1222 03       		.byte	0x3
 2700 1223 39140000 		.4byte	0x1439
 2701 1227 2C       		.byte	0x2c
 2702 1228 02       		.uleb128 0x2
 2703 1229 50070000 		.4byte	.LASF248
 2704 122d 16       		.byte	0x16
 2705 122e C5       		.byte	0xc5
 2706 122f 03       		.byte	0x3
 2707 1230 C9130000 		.4byte	0x13c9
 2708 1234 30       		.byte	0x30
 2709 1235 02       		.uleb128 0x2
 2710 1236 5E000000 		.4byte	.LASF249
 2711 123a 16       		.byte	0x16
 2712 123b C5       		.byte	0xc5
 2713 123c 03       		.byte	0x3
 2714 123d E4000000 		.4byte	0xe4
 2715 1241 34       		.byte	0x34
 2716 1242 00       		.byte	0
 2717 1243 03       		.uleb128 0x3
 2718 1244 52060000 		.4byte	.LASF250
 2719 1248 16       		.byte	0x16
 2720 1249 57       		.byte	0x57
 2721 124a 1F       		.byte	0x1f
 2722 124b 54120000 		.4byte	0x1254
ARM GAS  C:\Users\DEVELO~1\AppData\Local\Temp\ccYSbbyg.s 			page 49


 2723 124f 0F       		.uleb128 0xf
 2724 1250 43120000 		.4byte	0x1243
 2725 1254 09       		.uleb128 0x9
 2726 1255 73080000 		.4byte	.LASF251
 2727 1259 08       		.byte	0x8
 2728 125a 16       		.byte	0x16
 2729 125b 98       		.byte	0x98
 2730 125c 08       		.byte	0x8
 2731 125d 7C120000 		.4byte	0x127c
 2732 1261 02       		.uleb128 0x2
 2733 1262 0E080000 		.4byte	.LASF252
 2734 1266 16       		.byte	0x16
 2735 1267 9A       		.byte	0x9a
 2736 1268 03       		.byte	0x3
 2737 1269 E4000000 		.4byte	0xe4
 2738 126d 00       		.byte	0
 2739 126e 02       		.uleb128 0x2
 2740 126f E6090000 		.4byte	.LASF253
 2741 1273 16       		.byte	0x16
 2742 1274 9A       		.byte	0x9a
 2743 1275 03       		.byte	0x3
 2744 1276 E4000000 		.4byte	0xe4
 2745 127a 04       		.byte	0x4
 2746 127b 00       		.byte	0
 2747 127c 03       		.uleb128 0x3
 2748 127d 53080000 		.4byte	.LASF254
 2749 1281 16       		.byte	0x16
 2750 1282 61       		.byte	0x61
 2751 1283 2C       		.byte	0x2c
 2752 1284 8D120000 		.4byte	0x128d
 2753 1288 0F       		.uleb128 0xf
 2754 1289 7C120000 		.4byte	0x127c
 2755 128d 09       		.uleb128 0x9
 2756 128e 590B0000 		.4byte	.LASF255
 2757 1292 58       		.byte	0x58
 2758 1293 16       		.byte	0x16
 2759 1294 80       		.byte	0x80
 2760 1295 08       		.byte	0x8
 2761 1296 85130000 		.4byte	0x1385
 2762 129a 02       		.uleb128 0x2
 2763 129b 1B000000 		.4byte	.LASF256
 2764 129f 16       		.byte	0x16
 2765 12a0 84       		.byte	0x84
 2766 12a1 1D       		.byte	0x1d
 2767 12a2 C80F0000 		.4byte	0xfc8
 2768 12a6 00       		.byte	0
 2769 12a7 02       		.uleb128 0x2
 2770 12a8 66080000 		.4byte	.LASF257
 2771 12ac 16       		.byte	0x16
 2772 12ad 88       		.byte	0x88
 2773 12ae 1D       		.byte	0x1d
 2774 12af 92130000 		.4byte	0x1392
 2775 12b3 04       		.byte	0x4
 2776 12b4 02       		.uleb128 0x2
 2777 12b5 22020000 		.4byte	.LASF258
 2778 12b9 16       		.byte	0x16
 2779 12ba 8C       		.byte	0x8c
ARM GAS  C:\Users\DEVELO~1\AppData\Local\Temp\ccYSbbyg.s 			page 50


 2780 12bb 1D       		.byte	0x1d
 2781 12bc E3130000 		.4byte	0x13e3
 2782 12c0 08       		.byte	0x8
 2783 12c1 02       		.uleb128 0x2
 2784 12c2 F9000000 		.4byte	.LASF259
 2785 12c6 16       		.byte	0x16
 2786 12c7 90       		.byte	0x90
 2787 12c8 1D       		.byte	0x1d
 2788 12c9 04140000 		.4byte	0x1404
 2789 12cd 0C       		.byte	0xc
 2790 12ce 02       		.uleb128 0x2
 2791 12cf DE010000 		.4byte	.LASF260
 2792 12d3 16       		.byte	0x16
 2793 12d4 92       		.byte	0x92
 2794 12d5 03       		.byte	0x3
 2795 12d6 E4000000 		.4byte	0xe4
 2796 12da 10       		.byte	0x10
 2797 12db 02       		.uleb128 0x2
 2798 12dc 41080000 		.4byte	.LASF261
 2799 12e0 16       		.byte	0x16
 2800 12e1 92       		.byte	0x92
 2801 12e2 03       		.byte	0x3
 2802 12e3 E4000000 		.4byte	0xe4
 2803 12e7 14       		.byte	0x14
 2804 12e8 08       		.uleb128 0x8
 2805 12e9 63637200 		.ascii	"ccr\000"
 2806 12ed 16       		.byte	0x16
 2807 12ee 92       		.byte	0x92
 2808 12ef 03       		.byte	0x3
 2809 12f0 E4000000 		.4byte	0xe4
 2810 12f4 18       		.byte	0x18
 2811 12f5 02       		.uleb128 0x2
 2812 12f6 98040000 		.4byte	.LASF262
 2813 12fa 16       		.byte	0x16
 2814 12fb 92       		.byte	0x92
 2815 12fc 03       		.byte	0x3
 2816 12fd E4000000 		.4byte	0xe4
 2817 1301 1C       		.byte	0x1c
 2818 1302 02       		.uleb128 0x2
 2819 1303 1B050000 		.4byte	.LASF263
 2820 1307 16       		.byte	0x16
 2821 1308 92       		.byte	0x92
 2822 1309 03       		.byte	0x3
 2823 130a E4000000 		.4byte	0xe4
 2824 130e 20       		.byte	0x20
 2825 130f 02       		.uleb128 0x2
 2826 1310 EA000000 		.4byte	.LASF264
 2827 1314 16       		.byte	0x16
 2828 1315 92       		.byte	0x92
 2829 1316 03       		.byte	0x3
 2830 1317 E4000000 		.4byte	0xe4
 2831 131b 24       		.byte	0x24
 2832 131c 02       		.uleb128 0x2
 2833 131d 20050000 		.4byte	.LASF265
 2834 1321 16       		.byte	0x16
 2835 1322 92       		.byte	0x92
 2836 1323 03       		.byte	0x3
ARM GAS  C:\Users\DEVELO~1\AppData\Local\Temp\ccYSbbyg.s 			page 51


 2837 1324 E4000000 		.4byte	0xe4
 2838 1328 28       		.byte	0x28
 2839 1329 02       		.uleb128 0x2
 2840 132a EF000000 		.4byte	.LASF266
 2841 132e 16       		.byte	0x16
 2842 132f 92       		.byte	0x92
 2843 1330 03       		.byte	0x3
 2844 1331 E4000000 		.4byte	0xe4
 2845 1335 2C       		.byte	0x2c
 2846 1336 02       		.uleb128 0x2
 2847 1337 25050000 		.4byte	.LASF267
 2848 133b 16       		.byte	0x16
 2849 133c 92       		.byte	0x92
 2850 133d 03       		.byte	0x3
 2851 133e E4000000 		.4byte	0xe4
 2852 1342 30       		.byte	0x30
 2853 1343 02       		.uleb128 0x2
 2854 1344 F4000000 		.4byte	.LASF268
 2855 1348 16       		.byte	0x16
 2856 1349 92       		.byte	0x92
 2857 134a 03       		.byte	0x3
 2858 134b E4000000 		.4byte	0xe4
 2859 134f 34       		.byte	0x34
 2860 1350 02       		.uleb128 0x2
 2861 1351 CC0A0000 		.4byte	.LASF269
 2862 1355 16       		.byte	0x16
 2863 1356 92       		.byte	0x92
 2864 1357 03       		.byte	0x3
 2865 1358 E4000000 		.4byte	0xe4
 2866 135c 38       		.byte	0x38
 2867 135d 02       		.uleb128 0x2
 2868 135e 94060000 		.4byte	.LASF270
 2869 1362 16       		.byte	0x16
 2870 1363 92       		.byte	0x92
 2871 1364 03       		.byte	0x3
 2872 1365 E4000000 		.4byte	0xe4
 2873 1369 3C       		.byte	0x3c
 2874 136a 02       		.uleb128 0x2
 2875 136b 1A060000 		.4byte	.LASF271
 2876 136f 16       		.byte	0x16
 2877 1370 92       		.byte	0x92
 2878 1371 03       		.byte	0x3
 2879 1372 88090000 		.4byte	0x988
 2880 1376 40       		.byte	0x40
 2881 1377 08       		.uleb128 0x8
 2882 1378 73717200 		.ascii	"sqr\000"
 2883 137c 16       		.byte	0x16
 2884 137d 92       		.byte	0x92
 2885 137e 03       		.byte	0x3
 2886 137f E10B0000 		.4byte	0xbe1
 2887 1383 48       		.byte	0x48
 2888 1384 00       		.byte	0
 2889 1385 0D       		.uleb128 0xd
 2890 1386 60070000 		.4byte	.LASF272
 2891 138a 17       		.byte	0x17
 2892 138b 2402     		.2byte	0x224
 2893 138d 12       		.byte	0x12
ARM GAS  C:\Users\DEVELO~1\AppData\Local\Temp\ccYSbbyg.s 			page 52


 2894 138e CC000000 		.4byte	0xcc
 2895 1392 0D       		.uleb128 0xd
 2896 1393 2E080000 		.4byte	.LASF273
 2897 1397 17       		.byte	0x17
 2898 1398 2E02     		.2byte	0x22e
 2899 139a 12       		.byte	0x12
 2900 139b E4000000 		.4byte	0xe4
 2901 139f 0D       		.uleb128 0xd
 2902 13a0 3A060000 		.4byte	.LASF274
 2903 13a4 17       		.byte	0x17
 2904 13a5 3302     		.2byte	0x233
 2905 13a7 12       		.byte	0x12
 2906 13a8 E4000000 		.4byte	0xe4
 2907 13ac 2A       		.uleb128 0x2a
 2908 13ad 04       		.byte	0x4
 2909 13ae 17       		.byte	0x17
 2910 13af 3802     		.2byte	0x238
 2911 13b1 09       		.byte	0x9
 2912 13b2 C4130000 		.4byte	0x13c4
 2913 13b6 2B       		.uleb128 0x2b
 2914 13b7 646D6100 		.ascii	"dma\000"
 2915 13bb 17       		.byte	0x17
 2916 13bc 3D02     		.2byte	0x23d
 2917 13be 20       		.byte	0x20
 2918 13bf C4130000 		.4byte	0x13c4
 2919 13c3 00       		.byte	0
 2920 13c4 04       		.uleb128 0x4
 2921 13c5 4E100000 		.4byte	0x104e
 2922 13c9 0D       		.uleb128 0xd
 2923 13ca 2D0B0000 		.4byte	.LASF275
 2924 13ce 17       		.byte	0x17
 2925 13cf 4502     		.2byte	0x245
 2926 13d1 03       		.byte	0x3
 2927 13d2 AC130000 		.4byte	0x13ac
 2928 13d6 2C       		.uleb128 0x2c
 2929 13d7 7C070000 		.4byte	.LASF278
 2930 13db 17       		.byte	0x17
 2931 13dc 0703     		.2byte	0x307
 2932 13de 12       		.byte	0x12
 2933 13df 9A110000 		.4byte	0x119a
 2934 13e3 03       		.uleb128 0x3
 2935 13e4 5C060000 		.4byte	.LASF276
 2936 13e8 16       		.byte	0x16
 2937 13e9 6D       		.byte	0x6d
 2938 13ea 10       		.byte	0x10
 2939 13eb EF130000 		.4byte	0x13ef
 2940 13ef 04       		.uleb128 0x4
 2941 13f0 F4130000 		.4byte	0x13f4
 2942 13f4 1E       		.uleb128 0x1e
 2943 13f5 FF130000 		.4byte	0x13ff
 2944 13f9 07       		.uleb128 0x7
 2945 13fa FF130000 		.4byte	0x13ff
 2946 13fe 00       		.byte	0
 2947 13ff 04       		.uleb128 0x4
 2948 1400 9A110000 		.4byte	0x119a
 2949 1404 03       		.uleb128 0x3
 2950 1405 A4010000 		.4byte	.LASF277
ARM GAS  C:\Users\DEVELO~1\AppData\Local\Temp\ccYSbbyg.s 			page 53


 2951 1409 16       		.byte	0x16
 2952 140a 76       		.byte	0x76
 2953 140b 10       		.byte	0x10
 2954 140c 10140000 		.4byte	0x1410
 2955 1410 04       		.uleb128 0x4
 2956 1411 15140000 		.4byte	0x1415
 2957 1415 1E       		.uleb128 0x1e
 2958 1416 25140000 		.4byte	0x1425
 2959 141a 07       		.uleb128 0x7
 2960 141b FF130000 		.4byte	0x13ff
 2961 141f 07       		.uleb128 0x7
 2962 1420 9F130000 		.4byte	0x139f
 2963 1424 00       		.byte	0
 2964 1425 04       		.uleb128 0x4
 2965 1426 4F120000 		.4byte	0x124f
 2966 142a 04       		.uleb128 0x4
 2967 142b 85130000 		.4byte	0x1385
 2968 142f 04       		.uleb128 0x4
 2969 1430 88120000 		.4byte	0x1288
 2970 1434 04       		.uleb128 0x4
 2971 1435 F10B0000 		.4byte	0xbf1
 2972 1439 04       		.uleb128 0x4
 2973 143a 4E0C0000 		.4byte	0xc4e
 2974 143e 04       		.uleb128 0x4
 2975 143f 64030000 		.4byte	0x364
 2976 1443 0A       		.uleb128 0xa
 2977 1444 CC000000 		.4byte	0xcc
 2978 1448 53140000 		.4byte	0x1453
 2979 144c 0B       		.uleb128 0xb
 2980 144d 39000000 		.4byte	0x39
 2981 1451 00       		.byte	0
 2982 1452 00       		.byte	0
 2983 1453 2D       		.uleb128 0x2d
 2984 1454 E2000000 		.4byte	.LASF279
 2985 1458 01       		.byte	0x1
 2986 1459 0E       		.byte	0xe
 2987 145a 11       		.byte	0x11
 2988 145b 43140000 		.4byte	0x1443
 2989 145f 20       		.byte	0x20
 2990 1460 05       		.uleb128 0x5
 2991 1461 03       		.byte	0x3
 2992 1462 00000000 		.4byte	adc_buf
 2993 1466 12       		.uleb128 0x12
 2994 1467 D4060000 		.4byte	.LASF280
 2995 146b 10       		.byte	0x10
 2996 146c 18       		.byte	0x18
 2997 146d 4F120000 		.4byte	0x124f
 2998 1471 05       		.uleb128 0x5
 2999 1472 03       		.byte	0x3
 3000 1473 00000000 		.4byte	adccfg
 3001 1477 12       		.uleb128 0x12
 3002 1478 A9050000 		.4byte	.LASF281
 3003 147c 14       		.byte	0x14
 3004 147d 21       		.byte	0x21
 3005 147e 88120000 		.4byte	0x1288
 3006 1482 05       		.uleb128 0x5
 3007 1483 03       		.byte	0x3
ARM GAS  C:\Users\DEVELO~1\AppData\Local\Temp\ccYSbbyg.s 			page 54


 3008 1484 00000000 		.4byte	adcgrpcfg
 3009 1488 1F       		.uleb128 0x1f
 3010 1489 9B060000 		.4byte	.LASF287
 3011 148d 1A       		.byte	0x1a
 3012 148e 1401     		.2byte	0x114
 3013 1490 05       		.byte	0x5
 3014 1491 26000000 		.4byte	0x26
 3015 1495 AA140000 		.4byte	0x14aa
 3016 1499 07       		.uleb128 0x7
 3017 149a 3E140000 		.4byte	0x143e
 3018 149e 07       		.uleb128 0x7
 3019 149f 2D000000 		.4byte	0x2d
 3020 14a3 07       		.uleb128 0x7
 3021 14a4 5A030000 		.4byte	0x35a
 3022 14a8 2E       		.uleb128 0x2e
 3023 14a9 00       		.byte	0
 3024 14aa 1D       		.uleb128 0x1d
 3025 14ab 31070000 		.4byte	.LASF282
 3026 14af 16       		.byte	0x16
 3027 14b0 8401     		.2byte	0x184
 3028 14b2 CB140000 		.4byte	0x14cb
 3029 14b6 07       		.uleb128 0x7
 3030 14b7 FF130000 		.4byte	0x13ff
 3031 14bb 07       		.uleb128 0x7
 3032 14bc 2F140000 		.4byte	0x142f
 3033 14c0 07       		.uleb128 0x7
 3034 14c1 2A140000 		.4byte	0x142a
 3035 14c5 07       		.uleb128 0x7
 3036 14c6 2D000000 		.4byte	0x2d
 3037 14ca 00       		.byte	0
 3038 14cb 1D       		.uleb128 0x1d
 3039 14cc 100A0000 		.4byte	.LASF283
 3040 14d0 18       		.byte	0x18
 3041 14d1 4201     		.2byte	0x142
 3042 14d3 DD140000 		.4byte	0x14dd
 3043 14d7 07       		.uleb128 0x7
 3044 14d8 88030000 		.4byte	0x388
 3045 14dc 00       		.byte	0
 3046 14dd 1A       		.uleb128 0x1a
 3047 14de DD040000 		.4byte	.LASF285
 3048 14e2 19       		.byte	0x19
 3049 14e3 14       		.byte	0x14
 3050 14e4 2F       		.uleb128 0x2f
 3051 14e5 2A0A0000 		.4byte	.LASF284
 3052 14e9 19       		.byte	0x19
 3053 14ea 22       		.byte	0x22
 3054 14eb 06       		.byte	0x6
 3055 14ec 00150000 		.4byte	0x1500
 3056 14f0 07       		.uleb128 0x7
 3057 14f1 BB000000 		.4byte	0xbb
 3058 14f5 07       		.uleb128 0x7
 3059 14f6 BB000000 		.4byte	0xbb
 3060 14fa 07       		.uleb128 0x7
 3061 14fb 5A030000 		.4byte	0x35a
 3062 14ff 00       		.byte	0
 3063 1500 1A       		.uleb128 0x1a
 3064 1501 56090000 		.4byte	.LASF286
ARM GAS  C:\Users\DEVELO~1\AppData\Local\Temp\ccYSbbyg.s 			page 55


 3065 1505 19       		.byte	0x19
 3066 1506 13       		.byte	0x13
 3067 1507 1F       		.uleb128 0x1f
 3068 1508 C9050000 		.4byte	.LASF288
 3069 150c 16       		.byte	0x16
 3070 150d 8201     		.2byte	0x182
 3071 150f 09       		.byte	0x9
 3072 1510 53010000 		.4byte	0x153
 3073 1514 23150000 		.4byte	0x1523
 3074 1518 07       		.uleb128 0x7
 3075 1519 FF130000 		.4byte	0x13ff
 3076 151d 07       		.uleb128 0x7
 3077 151e 25140000 		.4byte	0x1425
 3078 1522 00       		.byte	0
 3079 1523 1D       		.uleb128 0x1d
 3080 1524 85020000 		.4byte	.LASF289
 3081 1528 15       		.byte	0x15
 3082 1529 F301     		.2byte	0x1f3
 3083 152b 3F150000 		.4byte	0x153f
 3084 152f 07       		.uleb128 0x7
 3085 1530 4A110000 		.4byte	0x114a
 3086 1534 07       		.uleb128 0x7
 3087 1535 32110000 		.4byte	0x1132
 3088 1539 07       		.uleb128 0x7
 3089 153a 3E110000 		.4byte	0x113e
 3090 153e 00       		.byte	0
 3091 153f 1A       		.uleb128 0x1a
 3092 1540 41000000 		.4byte	.LASF290
 3093 1544 19       		.byte	0x19
 3094 1545 12       		.byte	0x12
 3095 1546 1A       		.uleb128 0x1a
 3096 1547 400A0000 		.4byte	.LASF291
 3097 154b 1B       		.byte	0x1b
 3098 154c 28       		.byte	0x28
 3099 154d 20       		.uleb128 0x20
 3100 154e F5040000 		.4byte	.LASF292
 3101 1552 1C       		.byte	0x1c
 3102 1553 4E01     		.2byte	0x14e
 3103 1555 20       		.uleb128 0x20
 3104 1556 C7080000 		.4byte	.LASF293
 3105 155a 1D       		.byte	0x1d
 3106 155b 0101     		.2byte	0x101
 3107 155d 30       		.uleb128 0x30
 3108 155e DE0A0000 		.4byte	.LASF303
 3109 1562 01       		.byte	0x1
 3110 1563 2F       		.byte	0x2f
 3111 1564 05       		.byte	0x5
 3112 1565 26000000 		.4byte	0x26
 3113 1569 00000000 		.4byte	.LFB435
 3114 156d 50010000 		.4byte	.LFE435-.LFB435
 3115 1571 01       		.uleb128 0x1
 3116 1572 9C       		.byte	0x9c
 3117 1573 72160000 		.4byte	0x1672
 3118 1577 1B       		.uleb128 0x1b
 3119 1578 72657400 		.ascii	"ret\000"
 3120 157c 3A       		.byte	0x3a
 3121 157d 09       		.byte	0x9
ARM GAS  C:\Users\DEVELO~1\AppData\Local\Temp\ccYSbbyg.s 			page 56


 3122 157e 53010000 		.4byte	0x153
 3123 1582 02       		.uleb128 0x2
 3124 1583 91       		.byte	0x91
 3125 1584 68       		.sleb128 -24
 3126 1585 12       		.uleb128 0x12
 3127 1586 3D050000 		.4byte	.LASF294
 3128 158a 4A       		.byte	0x4a
 3129 158b 08       		.byte	0x8
 3130 158c 72160000 		.4byte	0x1672
 3131 1590 03       		.uleb128 0x3
 3132 1591 91       		.byte	0x91
 3133 1592 BC7F     		.sleb128 -68
 3134 1594 12       		.uleb128 0x12
 3135 1595 9E010000 		.4byte	.LASF295
 3136 1599 4B       		.byte	0x4b
 3137 159a 08       		.byte	0x8
 3138 159b 72160000 		.4byte	0x1672
 3139 159f 03       		.uleb128 0x3
 3140 15a0 91       		.byte	0x91
 3141 15a1 9C7F     		.sleb128 -100
 3142 15a3 12       		.uleb128 0x12
 3143 15a4 F3030000 		.4byte	.LASF296
 3144 15a8 4D       		.byte	0x4d
 3145 15a9 0C       		.byte	0xc
 3146 15aa E4000000 		.4byte	0xe4
 3147 15ae 02       		.uleb128 0x2
 3148 15af 91       		.byte	0x91
 3149 15b0 70       		.sleb128 -16
 3150 15b1 31       		.uleb128 0x31
 3151 15b2 4C000000 		.4byte	.LBB17
 3152 15b6 34000000 		.4byte	.LBE17-.LBB17
 3153 15ba 08160000 		.4byte	0x1608
 3154 15be 12       		.uleb128 0x12
 3155 15bf FD080000 		.4byte	.LASF297
 3156 15c3 45       		.byte	0x45
 3157 15c4 03       		.byte	0x3
 3158 15c5 CF0F0000 		.4byte	0xfcf
 3159 15c9 02       		.uleb128 0x2
 3160 15ca 91       		.byte	0x91
 3161 15cb 74       		.sleb128 -12
 3162 15cc 1B       		.uleb128 0x1b
 3163 15cd 656E6400 		.ascii	"end\000"
 3164 15d1 45       		.byte	0x45
 3165 15d2 03       		.byte	0x3
 3166 15d3 CF0F0000 		.4byte	0xfcf
 3167 15d7 02       		.uleb128 0x2
 3168 15d8 91       		.byte	0x91
 3169 15d9 64       		.sleb128 -28
 3170 15da 15       		.uleb128 0x15
 3171 15db 82160000 		.4byte	0x1682
 3172 15df 56000000 		.4byte	.LBB18
 3173 15e3 06000000 		.4byte	.LBE18-.LBB18
 3174 15e7 45       		.byte	0x45
 3175 15e8 03       		.byte	0x3
 3176 15e9 15       		.uleb128 0x15
 3177 15ea 82160000 		.4byte	0x1682
 3178 15ee 74000000 		.4byte	.LBB20
ARM GAS  C:\Users\DEVELO~1\AppData\Local\Temp\ccYSbbyg.s 			page 57


 3179 15f2 06000000 		.4byte	.LBE20-.LBB20
 3180 15f6 45       		.byte	0x45
 3181 15f7 03       		.byte	0x3
 3182 15f8 15       		.uleb128 0x15
 3183 15f9 89160000 		.4byte	0x1689
 3184 15fd 7A000000 		.4byte	.LBB22
 3185 1601 06000000 		.4byte	.LBE22-.LBB22
 3186 1605 45       		.byte	0x45
 3187 1606 03       		.byte	0x3
 3188 1607 00       		.byte	0
 3189 1608 21       		.uleb128 0x21
 3190 1609 90000000 		.4byte	.LBB24
 3191 160d 96000000 		.4byte	.LBE24-.LBB24
 3192 1611 1B       		.uleb128 0x1b
 3193 1612 7600     		.ascii	"v\000"
 3194 1614 53       		.byte	0x53
 3195 1615 0E       		.byte	0xe
 3196 1616 CC000000 		.4byte	0xcc
 3197 161a 02       		.uleb128 0x2
 3198 161b 91       		.byte	0x91
 3199 161c 5E       		.sleb128 -34
 3200 161d 21       		.uleb128 0x21
 3201 161e 90000000 		.4byte	.LBB25
 3202 1622 34000000 		.4byte	.LBE25-.LBB25
 3203 1626 12       		.uleb128 0x12
 3204 1627 FD080000 		.4byte	.LASF297
 3205 162b 51       		.byte	0x51
 3206 162c 05       		.byte	0x5
 3207 162d CF0F0000 		.4byte	0xfcf
 3208 1631 02       		.uleb128 0x2
 3209 1632 91       		.byte	0x91
 3210 1633 6C       		.sleb128 -20
 3211 1634 1B       		.uleb128 0x1b
 3212 1635 656E6400 		.ascii	"end\000"
 3213 1639 51       		.byte	0x51
 3214 163a 05       		.byte	0x5
 3215 163b CF0F0000 		.4byte	0xfcf
 3216 163f 02       		.uleb128 0x2
 3217 1640 91       		.byte	0x91
 3218 1641 60       		.sleb128 -32
 3219 1642 15       		.uleb128 0x15
 3220 1643 82160000 		.4byte	0x1682
 3221 1647 9A000000 		.4byte	.LBB26
 3222 164b 06000000 		.4byte	.LBE26-.LBB26
 3223 164f 51       		.byte	0x51
 3224 1650 05       		.byte	0x5
 3225 1651 15       		.uleb128 0x15
 3226 1652 82160000 		.4byte	0x1682
 3227 1656 B8000000 		.4byte	.LBB28
 3228 165a 06000000 		.4byte	.LBE28-.LBB28
 3229 165e 51       		.byte	0x51
 3230 165f 05       		.byte	0x5
 3231 1660 15       		.uleb128 0x15
 3232 1661 89160000 		.4byte	0x1689
 3233 1665 BE000000 		.4byte	.LBB30
 3234 1669 06000000 		.4byte	.LBE30-.LBB30
 3235 166d 51       		.byte	0x51
ARM GAS  C:\Users\DEVELO~1\AppData\Local\Temp\ccYSbbyg.s 			page 58


 3236 166e 05       		.byte	0x5
 3237 166f 00       		.byte	0
 3238 1670 00       		.byte	0
 3239 1671 00       		.byte	0
 3240 1672 0A       		.uleb128 0xa
 3241 1673 64030000 		.4byte	0x364
 3242 1677 82160000 		.4byte	0x1682
 3243 167b 0B       		.uleb128 0xb
 3244 167c 39000000 		.4byte	0x39
 3245 1680 1F       		.byte	0x1f
 3246 1681 00       		.byte	0
 3247 1682 22       		.uleb128 0x22
 3248 1683 C8060000 		.4byte	.LASF298
 3249 1687 6D03     		.2byte	0x36d
 3250 1689 22       		.uleb128 0x22
 3251 168a 09010000 		.4byte	.LASF299
 3252 168e 6203     		.2byte	0x362
 3253 1690 00       		.byte	0
 3254              		.section	.debug_abbrev,"",%progbits
 3255              	.Ldebug_abbrev0:
 3256 0000 01       		.uleb128 0x1
 3257 0001 0D       		.uleb128 0xd
 3258 0002 00       		.byte	0
 3259 0003 03       		.uleb128 0x3
 3260 0004 0E       		.uleb128 0xe
 3261 0005 3A       		.uleb128 0x3a
 3262 0006 0B       		.uleb128 0xb
 3263 0007 3B       		.uleb128 0x3b
 3264 0008 05       		.uleb128 0x5
 3265 0009 39       		.uleb128 0x39
 3266 000a 0B       		.uleb128 0xb
 3267 000b 49       		.uleb128 0x49
 3268 000c 13       		.uleb128 0x13
 3269 000d 38       		.uleb128 0x38
 3270 000e 0B       		.uleb128 0xb
 3271 000f 00       		.byte	0
 3272 0010 00       		.byte	0
 3273 0011 02       		.uleb128 0x2
 3274 0012 0D       		.uleb128 0xd
 3275 0013 00       		.byte	0
 3276 0014 03       		.uleb128 0x3
 3277 0015 0E       		.uleb128 0xe
 3278 0016 3A       		.uleb128 0x3a
 3279 0017 0B       		.uleb128 0xb
 3280 0018 3B       		.uleb128 0x3b
 3281 0019 0B       		.uleb128 0xb
 3282 001a 39       		.uleb128 0x39
 3283 001b 0B       		.uleb128 0xb
 3284 001c 49       		.uleb128 0x49
 3285 001d 13       		.uleb128 0x13
 3286 001e 38       		.uleb128 0x38
 3287 001f 0B       		.uleb128 0xb
 3288 0020 00       		.byte	0
 3289 0021 00       		.byte	0
 3290 0022 03       		.uleb128 0x3
 3291 0023 16       		.uleb128 0x16
 3292 0024 00       		.byte	0
ARM GAS  C:\Users\DEVELO~1\AppData\Local\Temp\ccYSbbyg.s 			page 59


 3293 0025 03       		.uleb128 0x3
 3294 0026 0E       		.uleb128 0xe
 3295 0027 3A       		.uleb128 0x3a
 3296 0028 0B       		.uleb128 0xb
 3297 0029 3B       		.uleb128 0x3b
 3298 002a 0B       		.uleb128 0xb
 3299 002b 39       		.uleb128 0x39
 3300 002c 0B       		.uleb128 0xb
 3301 002d 49       		.uleb128 0x49
 3302 002e 13       		.uleb128 0x13
 3303 002f 00       		.byte	0
 3304 0030 00       		.byte	0
 3305 0031 04       		.uleb128 0x4
 3306 0032 0F       		.uleb128 0xf
 3307 0033 00       		.byte	0
 3308 0034 0B       		.uleb128 0xb
 3309 0035 21       		.uleb128 0x21
 3310 0036 04       		.sleb128 4
 3311 0037 49       		.uleb128 0x49
 3312 0038 13       		.uleb128 0x13
 3313 0039 00       		.byte	0
 3314 003a 00       		.byte	0
 3315 003b 05       		.uleb128 0x5
 3316 003c 0D       		.uleb128 0xd
 3317 003d 00       		.byte	0
 3318 003e 03       		.uleb128 0x3
 3319 003f 08       		.uleb128 0x8
 3320 0040 3A       		.uleb128 0x3a
 3321 0041 0B       		.uleb128 0xb
 3322 0042 3B       		.uleb128 0x3b
 3323 0043 05       		.uleb128 0x5
 3324 0044 39       		.uleb128 0x39
 3325 0045 0B       		.uleb128 0xb
 3326 0046 49       		.uleb128 0x49
 3327 0047 13       		.uleb128 0x13
 3328 0048 38       		.uleb128 0x38
 3329 0049 0B       		.uleb128 0xb
 3330 004a 00       		.byte	0
 3331 004b 00       		.byte	0
 3332 004c 06       		.uleb128 0x6
 3333 004d 0D       		.uleb128 0xd
 3334 004e 00       		.byte	0
 3335 004f 03       		.uleb128 0x3
 3336 0050 0E       		.uleb128 0xe
 3337 0051 3A       		.uleb128 0x3a
 3338 0052 21       		.uleb128 0x21
 3339 0053 0E       		.sleb128 14
 3340 0054 3B       		.uleb128 0x3b
 3341 0055 05       		.uleb128 0x5
 3342 0056 39       		.uleb128 0x39
 3343 0057 21       		.uleb128 0x21
 3344 0058 12       		.sleb128 18
 3345 0059 49       		.uleb128 0x49
 3346 005a 13       		.uleb128 0x13
 3347 005b 38       		.uleb128 0x38
 3348 005c 05       		.uleb128 0x5
 3349 005d 00       		.byte	0
ARM GAS  C:\Users\DEVELO~1\AppData\Local\Temp\ccYSbbyg.s 			page 60


 3350 005e 00       		.byte	0
 3351 005f 07       		.uleb128 0x7
 3352 0060 05       		.uleb128 0x5
 3353 0061 00       		.byte	0
 3354 0062 49       		.uleb128 0x49
 3355 0063 13       		.uleb128 0x13
 3356 0064 00       		.byte	0
 3357 0065 00       		.byte	0
 3358 0066 08       		.uleb128 0x8
 3359 0067 0D       		.uleb128 0xd
 3360 0068 00       		.byte	0
 3361 0069 03       		.uleb128 0x3
 3362 006a 08       		.uleb128 0x8
 3363 006b 3A       		.uleb128 0x3a
 3364 006c 0B       		.uleb128 0xb
 3365 006d 3B       		.uleb128 0x3b
 3366 006e 0B       		.uleb128 0xb
 3367 006f 39       		.uleb128 0x39
 3368 0070 0B       		.uleb128 0xb
 3369 0071 49       		.uleb128 0x49
 3370 0072 13       		.uleb128 0x13
 3371 0073 38       		.uleb128 0x38
 3372 0074 0B       		.uleb128 0xb
 3373 0075 00       		.byte	0
 3374 0076 00       		.byte	0
 3375 0077 09       		.uleb128 0x9
 3376 0078 13       		.uleb128 0x13
 3377 0079 01       		.byte	0x1
 3378 007a 03       		.uleb128 0x3
 3379 007b 0E       		.uleb128 0xe
 3380 007c 0B       		.uleb128 0xb
 3381 007d 0B       		.uleb128 0xb
 3382 007e 3A       		.uleb128 0x3a
 3383 007f 0B       		.uleb128 0xb
 3384 0080 3B       		.uleb128 0x3b
 3385 0081 0B       		.uleb128 0xb
 3386 0082 39       		.uleb128 0x39
 3387 0083 0B       		.uleb128 0xb
 3388 0084 01       		.uleb128 0x1
 3389 0085 13       		.uleb128 0x13
 3390 0086 00       		.byte	0
 3391 0087 00       		.byte	0
 3392 0088 0A       		.uleb128 0xa
 3393 0089 01       		.uleb128 0x1
 3394 008a 01       		.byte	0x1
 3395 008b 49       		.uleb128 0x49
 3396 008c 13       		.uleb128 0x13
 3397 008d 01       		.uleb128 0x1
 3398 008e 13       		.uleb128 0x13
 3399 008f 00       		.byte	0
 3400 0090 00       		.byte	0
 3401 0091 0B       		.uleb128 0xb
 3402 0092 21       		.uleb128 0x21
 3403 0093 00       		.byte	0
 3404 0094 49       		.uleb128 0x49
 3405 0095 13       		.uleb128 0x13
 3406 0096 2F       		.uleb128 0x2f
ARM GAS  C:\Users\DEVELO~1\AppData\Local\Temp\ccYSbbyg.s 			page 61


 3407 0097 0B       		.uleb128 0xb
 3408 0098 00       		.byte	0
 3409 0099 00       		.byte	0
 3410 009a 0C       		.uleb128 0xc
 3411 009b 24       		.uleb128 0x24
 3412 009c 00       		.byte	0
 3413 009d 0B       		.uleb128 0xb
 3414 009e 0B       		.uleb128 0xb
 3415 009f 3E       		.uleb128 0x3e
 3416 00a0 0B       		.uleb128 0xb
 3417 00a1 03       		.uleb128 0x3
 3418 00a2 0E       		.uleb128 0xe
 3419 00a3 00       		.byte	0
 3420 00a4 00       		.byte	0
 3421 00a5 0D       		.uleb128 0xd
 3422 00a6 16       		.uleb128 0x16
 3423 00a7 00       		.byte	0
 3424 00a8 03       		.uleb128 0x3
 3425 00a9 0E       		.uleb128 0xe
 3426 00aa 3A       		.uleb128 0x3a
 3427 00ab 0B       		.uleb128 0xb
 3428 00ac 3B       		.uleb128 0x3b
 3429 00ad 05       		.uleb128 0x5
 3430 00ae 39       		.uleb128 0x39
 3431 00af 0B       		.uleb128 0xb
 3432 00b0 49       		.uleb128 0x49
 3433 00b1 13       		.uleb128 0x13
 3434 00b2 00       		.byte	0
 3435 00b3 00       		.byte	0
 3436 00b4 0E       		.uleb128 0xe
 3437 00b5 35       		.uleb128 0x35
 3438 00b6 00       		.byte	0
 3439 00b7 49       		.uleb128 0x49
 3440 00b8 13       		.uleb128 0x13
 3441 00b9 00       		.byte	0
 3442 00ba 00       		.byte	0
 3443 00bb 0F       		.uleb128 0xf
 3444 00bc 26       		.uleb128 0x26
 3445 00bd 00       		.byte	0
 3446 00be 49       		.uleb128 0x49
 3447 00bf 13       		.uleb128 0x13
 3448 00c0 00       		.byte	0
 3449 00c1 00       		.byte	0
 3450 00c2 10       		.uleb128 0x10
 3451 00c3 13       		.uleb128 0x13
 3452 00c4 01       		.byte	0x1
 3453 00c5 0B       		.uleb128 0xb
 3454 00c6 0B       		.uleb128 0xb
 3455 00c7 3A       		.uleb128 0x3a
 3456 00c8 0B       		.uleb128 0xb
 3457 00c9 3B       		.uleb128 0x3b
 3458 00ca 0B       		.uleb128 0xb
 3459 00cb 39       		.uleb128 0x39
 3460 00cc 0B       		.uleb128 0xb
 3461 00cd 01       		.uleb128 0x1
 3462 00ce 13       		.uleb128 0x13
 3463 00cf 00       		.byte	0
ARM GAS  C:\Users\DEVELO~1\AppData\Local\Temp\ccYSbbyg.s 			page 62


 3464 00d0 00       		.byte	0
 3465 00d1 11       		.uleb128 0x11
 3466 00d2 0D       		.uleb128 0xd
 3467 00d3 00       		.byte	0
 3468 00d4 03       		.uleb128 0x3
 3469 00d5 0E       		.uleb128 0xe
 3470 00d6 3A       		.uleb128 0x3a
 3471 00d7 0B       		.uleb128 0xb
 3472 00d8 3B       		.uleb128 0x3b
 3473 00d9 0B       		.uleb128 0xb
 3474 00da 39       		.uleb128 0x39
 3475 00db 0B       		.uleb128 0xb
 3476 00dc 49       		.uleb128 0x49
 3477 00dd 13       		.uleb128 0x13
 3478 00de 00       		.byte	0
 3479 00df 00       		.byte	0
 3480 00e0 12       		.uleb128 0x12
 3481 00e1 34       		.uleb128 0x34
 3482 00e2 00       		.byte	0
 3483 00e3 03       		.uleb128 0x3
 3484 00e4 0E       		.uleb128 0xe
 3485 00e5 3A       		.uleb128 0x3a
 3486 00e6 21       		.uleb128 0x21
 3487 00e7 01       		.sleb128 1
 3488 00e8 3B       		.uleb128 0x3b
 3489 00e9 0B       		.uleb128 0xb
 3490 00ea 39       		.uleb128 0x39
 3491 00eb 0B       		.uleb128 0xb
 3492 00ec 49       		.uleb128 0x49
 3493 00ed 13       		.uleb128 0x13
 3494 00ee 02       		.uleb128 0x2
 3495 00ef 18       		.uleb128 0x18
 3496 00f0 00       		.byte	0
 3497 00f1 00       		.byte	0
 3498 00f2 13       		.uleb128 0x13
 3499 00f3 0D       		.uleb128 0xd
 3500 00f4 00       		.byte	0
 3501 00f5 03       		.uleb128 0x3
 3502 00f6 0E       		.uleb128 0xe
 3503 00f7 3A       		.uleb128 0x3a
 3504 00f8 21       		.uleb128 0x21
 3505 00f9 08       		.sleb128 8
 3506 00fa 3B       		.uleb128 0x3b
 3507 00fb 05       		.uleb128 0x5
 3508 00fc 39       		.uleb128 0x39
 3509 00fd 0B       		.uleb128 0xb
 3510 00fe 49       		.uleb128 0x49
 3511 00ff 13       		.uleb128 0x13
 3512 0100 00       		.byte	0
 3513 0101 00       		.byte	0
 3514 0102 14       		.uleb128 0x14
 3515 0103 28       		.uleb128 0x28
 3516 0104 00       		.byte	0
 3517 0105 03       		.uleb128 0x3
 3518 0106 0E       		.uleb128 0xe
 3519 0107 1C       		.uleb128 0x1c
 3520 0108 0B       		.uleb128 0xb
ARM GAS  C:\Users\DEVELO~1\AppData\Local\Temp\ccYSbbyg.s 			page 63


 3521 0109 00       		.byte	0
 3522 010a 00       		.byte	0
 3523 010b 15       		.uleb128 0x15
 3524 010c 1D       		.uleb128 0x1d
 3525 010d 00       		.byte	0
 3526 010e 31       		.uleb128 0x31
 3527 010f 13       		.uleb128 0x13
 3528 0110 11       		.uleb128 0x11
 3529 0111 01       		.uleb128 0x1
 3530 0112 12       		.uleb128 0x12
 3531 0113 06       		.uleb128 0x6
 3532 0114 58       		.uleb128 0x58
 3533 0115 21       		.uleb128 0x21
 3534 0116 01       		.sleb128 1
 3535 0117 59       		.uleb128 0x59
 3536 0118 0B       		.uleb128 0xb
 3537 0119 57       		.uleb128 0x57
 3538 011a 0B       		.uleb128 0xb
 3539 011b 00       		.byte	0
 3540 011c 00       		.byte	0
 3541 011d 16       		.uleb128 0x16
 3542 011e 0D       		.uleb128 0xd
 3543 011f 00       		.byte	0
 3544 0120 03       		.uleb128 0x3
 3545 0121 08       		.uleb128 0x8
 3546 0122 3A       		.uleb128 0x3a
 3547 0123 0B       		.uleb128 0xb
 3548 0124 3B       		.uleb128 0x3b
 3549 0125 0B       		.uleb128 0xb
 3550 0126 39       		.uleb128 0x39
 3551 0127 0B       		.uleb128 0xb
 3552 0128 49       		.uleb128 0x49
 3553 0129 13       		.uleb128 0x13
 3554 012a 00       		.byte	0
 3555 012b 00       		.byte	0
 3556 012c 17       		.uleb128 0x17
 3557 012d 17       		.uleb128 0x17
 3558 012e 01       		.byte	0x1
 3559 012f 0B       		.uleb128 0xb
 3560 0130 0B       		.uleb128 0xb
 3561 0131 3A       		.uleb128 0x3a
 3562 0132 0B       		.uleb128 0xb
 3563 0133 3B       		.uleb128 0x3b
 3564 0134 0B       		.uleb128 0xb
 3565 0135 39       		.uleb128 0x39
 3566 0136 0B       		.uleb128 0xb
 3567 0137 01       		.uleb128 0x1
 3568 0138 13       		.uleb128 0x13
 3569 0139 00       		.byte	0
 3570 013a 00       		.byte	0
 3571 013b 18       		.uleb128 0x18
 3572 013c 13       		.uleb128 0x13
 3573 013d 01       		.byte	0x1
 3574 013e 0B       		.uleb128 0xb
 3575 013f 0B       		.uleb128 0xb
 3576 0140 3A       		.uleb128 0x3a
 3577 0141 0B       		.uleb128 0xb
ARM GAS  C:\Users\DEVELO~1\AppData\Local\Temp\ccYSbbyg.s 			page 64


 3578 0142 3B       		.uleb128 0x3b
 3579 0143 05       		.uleb128 0x5
 3580 0144 39       		.uleb128 0x39
 3581 0145 21       		.uleb128 0x21
 3582 0146 09       		.sleb128 9
 3583 0147 01       		.uleb128 0x1
 3584 0148 13       		.uleb128 0x13
 3585 0149 00       		.byte	0
 3586 014a 00       		.byte	0
 3587 014b 19       		.uleb128 0x19
 3588 014c 13       		.uleb128 0x13
 3589 014d 01       		.byte	0x1
 3590 014e 03       		.uleb128 0x3
 3591 014f 0E       		.uleb128 0xe
 3592 0150 0B       		.uleb128 0xb
 3593 0151 0B       		.uleb128 0xb
 3594 0152 3A       		.uleb128 0x3a
 3595 0153 0B       		.uleb128 0xb
 3596 0154 3B       		.uleb128 0x3b
 3597 0155 05       		.uleb128 0x5
 3598 0156 39       		.uleb128 0x39
 3599 0157 0B       		.uleb128 0xb
 3600 0158 01       		.uleb128 0x1
 3601 0159 13       		.uleb128 0x13
 3602 015a 00       		.byte	0
 3603 015b 00       		.byte	0
 3604 015c 1A       		.uleb128 0x1a
 3605 015d 2E       		.uleb128 0x2e
 3606 015e 00       		.byte	0
 3607 015f 3F       		.uleb128 0x3f
 3608 0160 19       		.uleb128 0x19
 3609 0161 03       		.uleb128 0x3
 3610 0162 0E       		.uleb128 0xe
 3611 0163 3A       		.uleb128 0x3a
 3612 0164 0B       		.uleb128 0xb
 3613 0165 3B       		.uleb128 0x3b
 3614 0166 0B       		.uleb128 0xb
 3615 0167 39       		.uleb128 0x39
 3616 0168 21       		.uleb128 0x21
 3617 0169 06       		.sleb128 6
 3618 016a 27       		.uleb128 0x27
 3619 016b 19       		.uleb128 0x19
 3620 016c 3C       		.uleb128 0x3c
 3621 016d 19       		.uleb128 0x19
 3622 016e 00       		.byte	0
 3623 016f 00       		.byte	0
 3624 0170 1B       		.uleb128 0x1b
 3625 0171 34       		.uleb128 0x34
 3626 0172 00       		.byte	0
 3627 0173 03       		.uleb128 0x3
 3628 0174 08       		.uleb128 0x8
 3629 0175 3A       		.uleb128 0x3a
 3630 0176 21       		.uleb128 0x21
 3631 0177 01       		.sleb128 1
 3632 0178 3B       		.uleb128 0x3b
 3633 0179 0B       		.uleb128 0xb
 3634 017a 39       		.uleb128 0x39
ARM GAS  C:\Users\DEVELO~1\AppData\Local\Temp\ccYSbbyg.s 			page 65


 3635 017b 0B       		.uleb128 0xb
 3636 017c 49       		.uleb128 0x49
 3637 017d 13       		.uleb128 0x13
 3638 017e 02       		.uleb128 0x2
 3639 017f 18       		.uleb128 0x18
 3640 0180 00       		.byte	0
 3641 0181 00       		.byte	0
 3642 0182 1C       		.uleb128 0x1c
 3643 0183 0D       		.uleb128 0xd
 3644 0184 00       		.byte	0
 3645 0185 03       		.uleb128 0x3
 3646 0186 0E       		.uleb128 0xe
 3647 0187 3A       		.uleb128 0x3a
 3648 0188 21       		.uleb128 0x21
 3649 0189 0D       		.sleb128 13
 3650 018a 3B       		.uleb128 0x3b
 3651 018b 0B       		.uleb128 0xb
 3652 018c 39       		.uleb128 0x39
 3653 018d 21       		.uleb128 0x21
 3654 018e 19       		.sleb128 25
 3655 018f 49       		.uleb128 0x49
 3656 0190 13       		.uleb128 0x13
 3657 0191 0D       		.uleb128 0xd
 3658 0192 0B       		.uleb128 0xb
 3659 0193 6B       		.uleb128 0x6b
 3660 0194 0B       		.uleb128 0xb
 3661 0195 00       		.byte	0
 3662 0196 00       		.byte	0
 3663 0197 1D       		.uleb128 0x1d
 3664 0198 2E       		.uleb128 0x2e
 3665 0199 01       		.byte	0x1
 3666 019a 3F       		.uleb128 0x3f
 3667 019b 19       		.uleb128 0x19
 3668 019c 03       		.uleb128 0x3
 3669 019d 0E       		.uleb128 0xe
 3670 019e 3A       		.uleb128 0x3a
 3671 019f 0B       		.uleb128 0xb
 3672 01a0 3B       		.uleb128 0x3b
 3673 01a1 05       		.uleb128 0x5
 3674 01a2 39       		.uleb128 0x39
 3675 01a3 21       		.uleb128 0x21
 3676 01a4 08       		.sleb128 8
 3677 01a5 27       		.uleb128 0x27
 3678 01a6 19       		.uleb128 0x19
 3679 01a7 3C       		.uleb128 0x3c
 3680 01a8 19       		.uleb128 0x19
 3681 01a9 01       		.uleb128 0x1
 3682 01aa 13       		.uleb128 0x13
 3683 01ab 00       		.byte	0
 3684 01ac 00       		.byte	0
 3685 01ad 1E       		.uleb128 0x1e
 3686 01ae 15       		.uleb128 0x15
 3687 01af 01       		.byte	0x1
 3688 01b0 27       		.uleb128 0x27
 3689 01b1 19       		.uleb128 0x19
 3690 01b2 01       		.uleb128 0x1
 3691 01b3 13       		.uleb128 0x13
ARM GAS  C:\Users\DEVELO~1\AppData\Local\Temp\ccYSbbyg.s 			page 66


 3692 01b4 00       		.byte	0
 3693 01b5 00       		.byte	0
 3694 01b6 1F       		.uleb128 0x1f
 3695 01b7 2E       		.uleb128 0x2e
 3696 01b8 01       		.byte	0x1
 3697 01b9 3F       		.uleb128 0x3f
 3698 01ba 19       		.uleb128 0x19
 3699 01bb 03       		.uleb128 0x3
 3700 01bc 0E       		.uleb128 0xe
 3701 01bd 3A       		.uleb128 0x3a
 3702 01be 0B       		.uleb128 0xb
 3703 01bf 3B       		.uleb128 0x3b
 3704 01c0 05       		.uleb128 0x5
 3705 01c1 39       		.uleb128 0x39
 3706 01c2 0B       		.uleb128 0xb
 3707 01c3 27       		.uleb128 0x27
 3708 01c4 19       		.uleb128 0x19
 3709 01c5 49       		.uleb128 0x49
 3710 01c6 13       		.uleb128 0x13
 3711 01c7 3C       		.uleb128 0x3c
 3712 01c8 19       		.uleb128 0x19
 3713 01c9 01       		.uleb128 0x1
 3714 01ca 13       		.uleb128 0x13
 3715 01cb 00       		.byte	0
 3716 01cc 00       		.byte	0
 3717 01cd 20       		.uleb128 0x20
 3718 01ce 2E       		.uleb128 0x2e
 3719 01cf 00       		.byte	0
 3720 01d0 3F       		.uleb128 0x3f
 3721 01d1 19       		.uleb128 0x19
 3722 01d2 03       		.uleb128 0x3
 3723 01d3 0E       		.uleb128 0xe
 3724 01d4 3A       		.uleb128 0x3a
 3725 01d5 0B       		.uleb128 0xb
 3726 01d6 3B       		.uleb128 0x3b
 3727 01d7 05       		.uleb128 0x5
 3728 01d8 39       		.uleb128 0x39
 3729 01d9 21       		.uleb128 0x21
 3730 01da 08       		.sleb128 8
 3731 01db 27       		.uleb128 0x27
 3732 01dc 19       		.uleb128 0x19
 3733 01dd 3C       		.uleb128 0x3c
 3734 01de 19       		.uleb128 0x19
 3735 01df 00       		.byte	0
 3736 01e0 00       		.byte	0
 3737 01e1 21       		.uleb128 0x21
 3738 01e2 0B       		.uleb128 0xb
 3739 01e3 01       		.byte	0x1
 3740 01e4 11       		.uleb128 0x11
 3741 01e5 01       		.uleb128 0x1
 3742 01e6 12       		.uleb128 0x12
 3743 01e7 06       		.uleb128 0x6
 3744 01e8 00       		.byte	0
 3745 01e9 00       		.byte	0
 3746 01ea 22       		.uleb128 0x22
 3747 01eb 2E       		.uleb128 0x2e
 3748 01ec 00       		.byte	0
ARM GAS  C:\Users\DEVELO~1\AppData\Local\Temp\ccYSbbyg.s 			page 67


 3749 01ed 03       		.uleb128 0x3
 3750 01ee 0E       		.uleb128 0xe
 3751 01ef 3A       		.uleb128 0x3a
 3752 01f0 21       		.uleb128 0x21
 3753 01f1 02       		.sleb128 2
 3754 01f2 3B       		.uleb128 0x3b
 3755 01f3 05       		.uleb128 0x5
 3756 01f4 39       		.uleb128 0x39
 3757 01f5 21       		.uleb128 0x21
 3758 01f6 1B       		.sleb128 27
 3759 01f7 27       		.uleb128 0x27
 3760 01f8 19       		.uleb128 0x19
 3761 01f9 20       		.uleb128 0x20
 3762 01fa 21       		.uleb128 0x21
 3763 01fb 03       		.sleb128 3
 3764 01fc 00       		.byte	0
 3765 01fd 00       		.byte	0
 3766 01fe 23       		.uleb128 0x23
 3767 01ff 11       		.uleb128 0x11
 3768 0200 01       		.byte	0x1
 3769 0201 25       		.uleb128 0x25
 3770 0202 0E       		.uleb128 0xe
 3771 0203 13       		.uleb128 0x13
 3772 0204 0B       		.uleb128 0xb
 3773 0205 03       		.uleb128 0x3
 3774 0206 0E       		.uleb128 0xe
 3775 0207 1B       		.uleb128 0x1b
 3776 0208 0E       		.uleb128 0xe
 3777 0209 55       		.uleb128 0x55
 3778 020a 17       		.uleb128 0x17
 3779 020b 11       		.uleb128 0x11
 3780 020c 01       		.uleb128 0x1
 3781 020d 10       		.uleb128 0x10
 3782 020e 17       		.uleb128 0x17
 3783 020f 00       		.byte	0
 3784 0210 00       		.byte	0
 3785 0211 24       		.uleb128 0x24
 3786 0212 24       		.uleb128 0x24
 3787 0213 00       		.byte	0
 3788 0214 0B       		.uleb128 0xb
 3789 0215 0B       		.uleb128 0xb
 3790 0216 3E       		.uleb128 0x3e
 3791 0217 0B       		.uleb128 0xb
 3792 0218 03       		.uleb128 0x3
 3793 0219 08       		.uleb128 0x8
 3794 021a 00       		.byte	0
 3795 021b 00       		.byte	0
 3796 021c 25       		.uleb128 0x25
 3797 021d 13       		.uleb128 0x13
 3798 021e 01       		.byte	0x1
 3799 021f 03       		.uleb128 0x3
 3800 0220 0E       		.uleb128 0xe
 3801 0221 0B       		.uleb128 0xb
 3802 0222 05       		.uleb128 0x5
 3803 0223 3A       		.uleb128 0x3a
 3804 0224 0B       		.uleb128 0xb
 3805 0225 3B       		.uleb128 0x3b
ARM GAS  C:\Users\DEVELO~1\AppData\Local\Temp\ccYSbbyg.s 			page 68


 3806 0226 05       		.uleb128 0x5
 3807 0227 39       		.uleb128 0x39
 3808 0228 0B       		.uleb128 0xb
 3809 0229 01       		.uleb128 0x1
 3810 022a 13       		.uleb128 0x13
 3811 022b 00       		.byte	0
 3812 022c 00       		.byte	0
 3813 022d 26       		.uleb128 0x26
 3814 022e 0F       		.uleb128 0xf
 3815 022f 00       		.byte	0
 3816 0230 0B       		.uleb128 0xb
 3817 0231 0B       		.uleb128 0xb
 3818 0232 00       		.byte	0
 3819 0233 00       		.byte	0
 3820 0234 27       		.uleb128 0x27
 3821 0235 13       		.uleb128 0x13
 3822 0236 01       		.byte	0x1
 3823 0237 0B       		.uleb128 0xb
 3824 0238 05       		.uleb128 0x5
 3825 0239 3A       		.uleb128 0x3a
 3826 023a 0B       		.uleb128 0xb
 3827 023b 3B       		.uleb128 0x3b
 3828 023c 0B       		.uleb128 0xb
 3829 023d 39       		.uleb128 0x39
 3830 023e 0B       		.uleb128 0xb
 3831 023f 01       		.uleb128 0x1
 3832 0240 13       		.uleb128 0x13
 3833 0241 00       		.byte	0
 3834 0242 00       		.byte	0
 3835 0243 28       		.uleb128 0x28
 3836 0244 13       		.uleb128 0x13
 3837 0245 01       		.byte	0x1
 3838 0246 0B       		.uleb128 0xb
 3839 0247 05       		.uleb128 0x5
 3840 0248 3A       		.uleb128 0x3a
 3841 0249 0B       		.uleb128 0xb
 3842 024a 3B       		.uleb128 0x3b
 3843 024b 05       		.uleb128 0x5
 3844 024c 39       		.uleb128 0x39
 3845 024d 0B       		.uleb128 0xb
 3846 024e 01       		.uleb128 0x1
 3847 024f 13       		.uleb128 0x13
 3848 0250 00       		.byte	0
 3849 0251 00       		.byte	0
 3850 0252 29       		.uleb128 0x29
 3851 0253 04       		.uleb128 0x4
 3852 0254 01       		.byte	0x1
 3853 0255 3E       		.uleb128 0x3e
 3854 0256 0B       		.uleb128 0xb
 3855 0257 0B       		.uleb128 0xb
 3856 0258 0B       		.uleb128 0xb
 3857 0259 49       		.uleb128 0x49
 3858 025a 13       		.uleb128 0x13
 3859 025b 3A       		.uleb128 0x3a
 3860 025c 0B       		.uleb128 0xb
 3861 025d 3B       		.uleb128 0x3b
 3862 025e 0B       		.uleb128 0xb
ARM GAS  C:\Users\DEVELO~1\AppData\Local\Temp\ccYSbbyg.s 			page 69


 3863 025f 39       		.uleb128 0x39
 3864 0260 0B       		.uleb128 0xb
 3865 0261 01       		.uleb128 0x1
 3866 0262 13       		.uleb128 0x13
 3867 0263 00       		.byte	0
 3868 0264 00       		.byte	0
 3869 0265 2A       		.uleb128 0x2a
 3870 0266 17       		.uleb128 0x17
 3871 0267 01       		.byte	0x1
 3872 0268 0B       		.uleb128 0xb
 3873 0269 0B       		.uleb128 0xb
 3874 026a 3A       		.uleb128 0x3a
 3875 026b 0B       		.uleb128 0xb
 3876 026c 3B       		.uleb128 0x3b
 3877 026d 05       		.uleb128 0x5
 3878 026e 39       		.uleb128 0x39
 3879 026f 0B       		.uleb128 0xb
 3880 0270 01       		.uleb128 0x1
 3881 0271 13       		.uleb128 0x13
 3882 0272 00       		.byte	0
 3883 0273 00       		.byte	0
 3884 0274 2B       		.uleb128 0x2b
 3885 0275 0D       		.uleb128 0xd
 3886 0276 00       		.byte	0
 3887 0277 03       		.uleb128 0x3
 3888 0278 08       		.uleb128 0x8
 3889 0279 3A       		.uleb128 0x3a
 3890 027a 0B       		.uleb128 0xb
 3891 027b 3B       		.uleb128 0x3b
 3892 027c 05       		.uleb128 0x5
 3893 027d 39       		.uleb128 0x39
 3894 027e 0B       		.uleb128 0xb
 3895 027f 49       		.uleb128 0x49
 3896 0280 13       		.uleb128 0x13
 3897 0281 00       		.byte	0
 3898 0282 00       		.byte	0
 3899 0283 2C       		.uleb128 0x2c
 3900 0284 34       		.uleb128 0x34
 3901 0285 00       		.byte	0
 3902 0286 03       		.uleb128 0x3
 3903 0287 0E       		.uleb128 0xe
 3904 0288 3A       		.uleb128 0x3a
 3905 0289 0B       		.uleb128 0xb
 3906 028a 3B       		.uleb128 0x3b
 3907 028b 05       		.uleb128 0x5
 3908 028c 39       		.uleb128 0x39
 3909 028d 0B       		.uleb128 0xb
 3910 028e 49       		.uleb128 0x49
 3911 028f 13       		.uleb128 0x13
 3912 0290 3F       		.uleb128 0x3f
 3913 0291 19       		.uleb128 0x19
 3914 0292 3C       		.uleb128 0x3c
 3915 0293 19       		.uleb128 0x19
 3916 0294 00       		.byte	0
 3917 0295 00       		.byte	0
 3918 0296 2D       		.uleb128 0x2d
 3919 0297 34       		.uleb128 0x34
ARM GAS  C:\Users\DEVELO~1\AppData\Local\Temp\ccYSbbyg.s 			page 70


 3920 0298 00       		.byte	0
 3921 0299 03       		.uleb128 0x3
 3922 029a 0E       		.uleb128 0xe
 3923 029b 3A       		.uleb128 0x3a
 3924 029c 0B       		.uleb128 0xb
 3925 029d 3B       		.uleb128 0x3b
 3926 029e 0B       		.uleb128 0xb
 3927 029f 39       		.uleb128 0x39
 3928 02a0 0B       		.uleb128 0xb
 3929 02a1 49       		.uleb128 0x49
 3930 02a2 13       		.uleb128 0x13
 3931 02a3 8801     		.uleb128 0x88
 3932 02a5 0B       		.uleb128 0xb
 3933 02a6 02       		.uleb128 0x2
 3934 02a7 18       		.uleb128 0x18
 3935 02a8 00       		.byte	0
 3936 02a9 00       		.byte	0
 3937 02aa 2E       		.uleb128 0x2e
 3938 02ab 18       		.uleb128 0x18
 3939 02ac 00       		.byte	0
 3940 02ad 00       		.byte	0
 3941 02ae 00       		.byte	0
 3942 02af 2F       		.uleb128 0x2f
 3943 02b0 2E       		.uleb128 0x2e
 3944 02b1 01       		.byte	0x1
 3945 02b2 3F       		.uleb128 0x3f
 3946 02b3 19       		.uleb128 0x19
 3947 02b4 03       		.uleb128 0x3
 3948 02b5 0E       		.uleb128 0xe
 3949 02b6 3A       		.uleb128 0x3a
 3950 02b7 0B       		.uleb128 0xb
 3951 02b8 3B       		.uleb128 0x3b
 3952 02b9 0B       		.uleb128 0xb
 3953 02ba 39       		.uleb128 0x39
 3954 02bb 0B       		.uleb128 0xb
 3955 02bc 27       		.uleb128 0x27
 3956 02bd 19       		.uleb128 0x19
 3957 02be 3C       		.uleb128 0x3c
 3958 02bf 19       		.uleb128 0x19
 3959 02c0 01       		.uleb128 0x1
 3960 02c1 13       		.uleb128 0x13
 3961 02c2 00       		.byte	0
 3962 02c3 00       		.byte	0
 3963 02c4 30       		.uleb128 0x30
 3964 02c5 2E       		.uleb128 0x2e
 3965 02c6 01       		.byte	0x1
 3966 02c7 3F       		.uleb128 0x3f
 3967 02c8 19       		.uleb128 0x19
 3968 02c9 03       		.uleb128 0x3
 3969 02ca 0E       		.uleb128 0xe
 3970 02cb 3A       		.uleb128 0x3a
 3971 02cc 0B       		.uleb128 0xb
 3972 02cd 3B       		.uleb128 0x3b
 3973 02ce 0B       		.uleb128 0xb
 3974 02cf 39       		.uleb128 0x39
 3975 02d0 0B       		.uleb128 0xb
 3976 02d1 27       		.uleb128 0x27
ARM GAS  C:\Users\DEVELO~1\AppData\Local\Temp\ccYSbbyg.s 			page 71


 3977 02d2 19       		.uleb128 0x19
 3978 02d3 49       		.uleb128 0x49
 3979 02d4 13       		.uleb128 0x13
 3980 02d5 11       		.uleb128 0x11
 3981 02d6 01       		.uleb128 0x1
 3982 02d7 12       		.uleb128 0x12
 3983 02d8 06       		.uleb128 0x6
 3984 02d9 40       		.uleb128 0x40
 3985 02da 18       		.uleb128 0x18
 3986 02db 7C       		.uleb128 0x7c
 3987 02dc 19       		.uleb128 0x19
 3988 02dd 01       		.uleb128 0x1
 3989 02de 13       		.uleb128 0x13
 3990 02df 00       		.byte	0
 3991 02e0 00       		.byte	0
 3992 02e1 31       		.uleb128 0x31
 3993 02e2 0B       		.uleb128 0xb
 3994 02e3 01       		.byte	0x1
 3995 02e4 11       		.uleb128 0x11
 3996 02e5 01       		.uleb128 0x1
 3997 02e6 12       		.uleb128 0x12
 3998 02e7 06       		.uleb128 0x6
 3999 02e8 01       		.uleb128 0x1
 4000 02e9 13       		.uleb128 0x13
 4001 02ea 00       		.byte	0
 4002 02eb 00       		.byte	0
 4003 02ec 00       		.byte	0
 4004              		.section	.debug_aranges,"",%progbits
 4005 0000 1C000000 		.4byte	0x1c
 4006 0004 0200     		.2byte	0x2
 4007 0006 00000000 		.4byte	.Ldebug_info0
 4008 000a 04       		.byte	0x4
 4009 000b 00       		.byte	0
 4010 000c 0000     		.2byte	0
 4011 000e 0000     		.2byte	0
 4012 0010 00000000 		.4byte	.LFB435
 4013 0014 50010000 		.4byte	.LFE435-.LFB435
 4014 0018 00000000 		.4byte	0
 4015 001c 00000000 		.4byte	0
 4016              		.section	.debug_rnglists,"",%progbits
 4017              	.Ldebug_ranges0:
 4018 0000 10000000 		.4byte	.Ldebug_ranges3-.Ldebug_ranges2
 4019              	.Ldebug_ranges2:
 4020 0004 0500     		.2byte	0x5
 4021 0006 04       		.byte	0x4
 4022 0007 00       		.byte	0
 4023 0008 00000000 		.4byte	0
 4024              	.LLRL0:
 4025 000c 07       		.byte	0x7
 4026 000d 00000000 		.4byte	.LFB435
 4027 0011 D002     		.uleb128 .LFE435-.LFB435
 4028 0013 00       		.byte	0
 4029              	.Ldebug_ranges3:
 4030              		.section	.debug_line,"",%progbits
 4031              	.Ldebug_line0:
 4032 0000 F2040000 		.section	.debug_str,"MS",%progbits,1
 4032      03003404 
ARM GAS  C:\Users\DEVELO~1\AppData\Local\Temp\ccYSbbyg.s 			page 72


 4032      00000201 
 4032      FB0E0D00 
 4032      01010101 
 4033              	.LASF11:
 4034 0000 6C6F6E67 		.ascii	"long int\000"
 4034      20696E74 
 4034      00
 4035              	.LASF151:
 4036 0009 53515234 		.ascii	"SQR4\000"
 4036      00
 4037              	.LASF127:
 4038 000e 44434353 		.ascii	"DCCSW\000"
 4038      5700
 4039              	.LASF198:
 4040 0014 77746D74 		.ascii	"wtmtxp\000"
 4040      787000
 4041              	.LASF256:
 4042 001b 63697263 		.ascii	"circular\000"
 4042      756C6172 
 4042      00
 4043              	.LASF190:
 4044 0024 74687265 		.ascii	"thread_reference_t\000"
 4044      61645F72 
 4044      65666572 
 4044      656E6365 
 4044      5F7400
 4045              	.LASF224:
 4046 0037 42535252 		.ascii	"BSRR\000"
 4046      00
 4047              	.LASF154:
 4048 003c 4F465232 		.ascii	"OFR2\000"
 4048      00
 4049              	.LASF290:
 4050 0041 6472765F 		.ascii	"drv_display_init\000"
 4050      64697370 
 4050      6C61795F 
 4050      696E6974 
 4050      00
 4051              	.LASF187:
 4052 0052 63685F72 		.ascii	"ch_registry\000"
 4052      65676973 
 4052      74727900 
 4053              	.LASF249:
 4054 005e 646D616D 		.ascii	"dmamode\000"
 4054      6F646500 
 4055              	.LASF37:
 4056 0066 666C6167 		.ascii	"flags\000"
 4056      7300
 4057              	.LASF64:
 4058 006c 73797374 		.ascii	"systime_t\000"
 4058      696D655F 
 4058      7400
 4059              	.LASF124:
 4060 0076 44434953 		.ascii	"DCISW\000"
 4060      5700
 4061              	.LASF89:
 4062 007c 62756666 		.ascii	"buffer\000"
ARM GAS  C:\Users\DEVELO~1\AppData\Local\Temp\ccYSbbyg.s 			page 73


 4062      657200
 4063              	.LASF87:
 4064 0083 73757370 		.ascii	"suspended\000"
 4064      656E6465 
 4064      6400
 4065              	.LASF41:
 4066 008d 6570656E 		.ascii	"epending\000"
 4066      64696E67 
 4066      00
 4067              	.LASF0:
 4068 0096 756E7369 		.ascii	"unsigned int\000"
 4068      676E6564 
 4068      20696E74 
 4068      00
 4069              	.LASF69:
 4070 00a3 6E657874 		.ascii	"next\000"
 4070      00
 4071              	.LASF19:
 4072 00a8 75696E74 		.ascii	"uint32_t\000"
 4072      33325F74 
 4072      00
 4073              	.LASF133:
 4074 00b1 41484250 		.ascii	"AHBPCR\000"
 4074      435200
 4075              	.LASF120:
 4076 00b8 49434941 		.ascii	"ICIALLU\000"
 4076      4C4C5500 
 4077              	.LASF99:
 4078 00c0 44465352 		.ascii	"DFSR\000"
 4078      00
 4079              	.LASF110:
 4080 00c5 43435349 		.ascii	"CCSIDR\000"
 4080      445200
 4081              	.LASF10:
 4082 00cc 5F5F696E 		.ascii	"__int32_t\000"
 4082      7433325F 
 4082      7400
 4083              	.LASF132:
 4084 00d6 4454434D 		.ascii	"DTCMCR\000"
 4084      435200
 4085              	.LASF38:
 4086 00dd 72656673 		.ascii	"refs\000"
 4086      00
 4087              	.LASF279:
 4088 00e2 6164635F 		.ascii	"adc_buf\000"
 4088      62756600 
 4089              	.LASF264:
 4090 00ea 68747231 		.ascii	"htr1\000"
 4090      00
 4091              	.LASF266:
 4092 00ef 68747232 		.ascii	"htr2\000"
 4092      00
 4093              	.LASF268:
 4094 00f4 68747233 		.ascii	"htr3\000"
 4094      00
 4095              	.LASF259:
 4096 00f9 6572726F 		.ascii	"error_cb\000"
ARM GAS  C:\Users\DEVELO~1\AppData\Local\Temp\ccYSbbyg.s 			page 74


 4096      725F6362 
 4096      00
 4097              	.LASF79:
 4098 0102 77746F62 		.ascii	"wtobjp\000"
 4098      6A7000
 4099              	.LASF299:
 4100 0109 5F5F4953 		.ascii	"__ISB\000"
 4100      4200
 4101              	.LASF49:
 4102 010f 76746C69 		.ascii	"vtlist\000"
 4102      737400
 4103              	.LASF181:
 4104 0116 706F7274 		.ascii	"port_context\000"
 4104      5F636F6E 
 4104      74657874 
 4104      00
 4105              	.LASF7:
 4106 0123 73686F72 		.ascii	"short int\000"
 4106      7420696E 
 4106      7400
 4107              	.LASF202:
 4108 012d 63685F72 		.ascii	"ch_ready_list\000"
 4108      65616479 
 4108      5F6C6973 
 4108      7400
 4109              	.LASF175:
 4110 013b 4E445452 		.ascii	"NDTR\000"
 4110      00
 4111              	.LASF185:
 4112 0140 6C617374 		.ascii	"laststamp\000"
 4112      7374616D 
 4112      7000
 4113              	.LASF199:
 4114 014a 65776D61 		.ascii	"ewmask\000"
 4114      736B00
 4115              	.LASF72:
 4116 0151 70726576 		.ascii	"prev\000"
 4116      00
 4117              	.LASF68:
 4118 0156 63685F6C 		.ascii	"ch_list\000"
 4118      69737400 
 4119              	.LASF144:
 4120 015e 4C545231 		.ascii	"LTR1\000"
 4120      00
 4121              	.LASF164:
 4122 0163 4C545232 		.ascii	"LTR2\000"
 4122      00
 4123              	.LASF166:
 4124 0168 4C545233 		.ascii	"LTR3\000"
 4124      00
 4125              	.LASF106:
 4126 016d 49445F4D 		.ascii	"ID_MFR\000"
 4126      465200
 4127              	.LASF168:
 4128 0174 44494653 		.ascii	"DIFSEL\000"
 4128      454C00
 4129              	.LASF60:
ARM GAS  C:\Users\DEVELO~1\AppData\Local\Temp\ccYSbbyg.s 			page 75


 4130 017b 63685F73 		.ascii	"ch_system_debug\000"
 4130      79737465 
 4130      6D5F6465 
 4130      62756700 
 4131              	.LASF191:
 4132 018b 6C697374 		.ascii	"list\000"
 4132      00
 4133              	.LASF77:
 4134 0190 63685F64 		.ascii	"ch_delta_list\000"
 4134      656C7461 
 4134      5F6C6973 
 4134      7400
 4135              	.LASF295:
 4136 019e 6C696E65 		.ascii	"line2\000"
 4136      3200
 4137              	.LASF277:
 4138 01a4 61646365 		.ascii	"adcerrorcallback_t\000"
 4138      72726F72 
 4138      63616C6C 
 4138      6261636B 
 4138      5F7400
 4139              	.LASF196:
 4140 01b7 73656E74 		.ascii	"sentmsg\000"
 4140      6D736700 
 4141              	.LASF28:
 4142 01bf 6576656E 		.ascii	"eventmask_t\000"
 4142      746D6173 
 4142      6B5F7400 
 4143              	.LASF214:
 4144 01cb 69666372 		.ascii	"ifcr\000"
 4144      00
 4145              	.LASF86:
 4146 01d0 74726163 		.ascii	"trace_event_t\000"
 4146      655F6576 
 4146      656E745F 
 4146      7400
 4147              	.LASF260:
 4148 01de 63666772 		.ascii	"cfgr\000"
 4148      00
 4149              	.LASF245:
 4150 01e3 6D757465 		.ascii	"mutex\000"
 4150      7800
 4151              	.LASF215:
 4152 01e9 73686966 		.ascii	"shift\000"
 4152      7400
 4153              	.LASF200:
 4154 01ef 63685F73 		.ascii	"ch_semaphore\000"
 4154      656D6170 
 4154      686F7265 
 4154      00
 4155              	.LASF26:
 4156 01fc 74707269 		.ascii	"tprio_t\000"
 4156      6F5F7400 
 4157              	.LASF40:
 4158 0204 6D736771 		.ascii	"msgqueue\000"
 4158      75657565 
 4158      00
ARM GAS  C:\Users\DEVELO~1\AppData\Local\Temp\ccYSbbyg.s 			page 76


 4159              	.LASF210:
 4160 020d 6F735F69 		.ascii	"os_instance_config_t\000"
 4160      6E737461 
 4160      6E63655F 
 4160      636F6E66 
 4160      69675F74 
 4161              	.LASF258:
 4162 0222 656E645F 		.ascii	"end_cb\000"
 4162      636200
 4163              	.LASF81:
 4164 0229 68616C74 		.ascii	"halt\000"
 4164      00
 4165              	.LASF15:
 4166 022e 6C6F6E67 		.ascii	"long long unsigned int\000"
 4166      206C6F6E 
 4166      6720756E 
 4166      7369676E 
 4166      65642069 
 4167              	.LASF105:
 4168 0245 49445F41 		.ascii	"ID_AFR\000"
 4168      465200
 4169              	.LASF143:
 4170 024c 50435345 		.ascii	"PCSEL\000"
 4170      4C00
 4171              	.LASF55:
 4172 0252 74726163 		.ascii	"trace_buffer\000"
 4172      655F6275 
 4172      66666572 
 4172      00
 4173              	.LASF217:
 4174 025f 76656374 		.ascii	"vector\000"
 4174      6F7200
 4175              	.LASF192:
 4176 0266 70717565 		.ascii	"pqueue\000"
 4176      756500
 4177              	.LASF8:
 4178 026d 5F5F7569 		.ascii	"__uint16_t\000"
 4178      6E743136 
 4178      5F7400
 4179              	.LASF29:
 4180 0278 636E745F 		.ascii	"cnt_t\000"
 4180      7400
 4181              	.LASF135:
 4182 027e 41484253 		.ascii	"AHBSCR\000"
 4182      435200
 4183              	.LASF289:
 4184 0285 5F70616C 		.ascii	"_pal_lld_setgroupmode\000"
 4184      5F6C6C64 
 4184      5F736574 
 4184      67726F75 
 4184      706D6F64 
 4185              	.LASF220:
 4186 029b 4D4F4445 		.ascii	"MODER\000"
 4186      5200
 4187              	.LASF300:
 4188 02a1 474E5520 		.ascii	"GNU C17 11.3.1 20220712 -mcpu=cortex-m7 -mthumb -mf"
 4188      43313720 
ARM GAS  C:\Users\DEVELO~1\AppData\Local\Temp\ccYSbbyg.s 			page 77


 4188      31312E33 
 4188      2E312032 
 4188      30323230 
 4189 02d4 6C6F6174 		.ascii	"loat-abi=soft -march=armv7e-m -ggdb -O0 -ffunction-"
 4189      2D616269 
 4189      3D736F66 
 4189      74202D6D 
 4189      61726368 
 4190 0307 73656374 		.ascii	"sections -fdata-sections -fno-common\000"
 4190      696F6E73 
 4190      202D6664 
 4190      6174612D 
 4190      73656374 
 4191              	.LASF85:
 4192 032c 74696D65 		.ascii	"time\000"
 4192      00
 4193              	.LASF227:
 4194 0331 41465248 		.ascii	"AFRH\000"
 4194      00
 4195              	.LASF228:
 4196 0336 73746D33 		.ascii	"stm32_gpio_t\000"
 4196      325F6770 
 4196      696F5F74 
 4196      00
 4197              	.LASF33:
 4198 0343 6F776E65 		.ascii	"owner\000"
 4198      7200
 4199              	.LASF207:
 4200 0349 6D61696E 		.ascii	"mainthread_end\000"
 4200      74687265 
 4200      61645F65 
 4200      6E6400
 4201              	.LASF219:
 4202 0358 636C6561 		.ascii	"clear\000"
 4202      7200
 4203              	.LASF42:
 4204 035e 6D74786C 		.ascii	"mtxlist\000"
 4204      69737400 
 4205              	.LASF182:
 4206 0366 63685F76 		.ascii	"ch_virtual_timers_list\000"
 4206      69727475 
 4206      616C5F74 
 4206      696D6572 
 4206      735F6C69 
 4207              	.LASF302:
 4208 037d 433A5C50 		.ascii	"C:\\PROJET\\ChibiOS project\\ChibiOS_21.11.4\\demos"
 4208      524F4A45 
 4208      545C4368 
 4208      6962694F 
 4208      53207072 
 4209 03ac 5C53544D 		.ascii	"\\STM32\\RT-STM32H743ZI_REV_XY-NUCLEO144_Quartz8M\000"
 4209      33325C52 
 4209      542D5354 
 4209      4D333248 
 4209      3734335A 
 4210              	.LASF52:
 4211 03dc 72666375 		.ascii	"rfcu\000"
ARM GAS  C:\Users\DEVELO~1\AppData\Local\Temp\ccYSbbyg.s 			page 78


 4211      00
 4212              	.LASF31:
 4213 03e1 74687265 		.ascii	"thread_t\000"
 4213      61645F74 
 4213      00
 4214              	.LASF172:
 4215 03ea 52455345 		.ascii	"RESERVED\000"
 4215      52564544 
 4215      00
 4216              	.LASF296:
 4217 03f3 636F756E 		.ascii	"counter\000"
 4217      74657200 
 4218              	.LASF4:
 4219 03fb 73697A65 		.ascii	"size_t\000"
 4219      5F7400
 4220              	.LASF193:
 4221 0402 7264796D 		.ascii	"rdymsg\000"
 4221      736700
 4222              	.LASF239:
 4223 0409 41444344 		.ascii	"ADCDriver\000"
 4223      72697665 
 4223      7200
 4224              	.LASF73:
 4225 0413 63685F70 		.ascii	"ch_priority_queue_t\000"
 4225      72696F72 
 4225      6974795F 
 4225      71756575 
 4225      655F7400 
 4226              	.LASF91:
 4227 0427 43505549 		.ascii	"CPUID\000"
 4227      4400
 4228              	.LASF153:
 4229 042d 4F465231 		.ascii	"OFR1\000"
 4229      00
 4230              	.LASF212:
 4231 0432 5F426F6F 		.ascii	"_Bool\000"
 4231      6C00
 4232              	.LASF155:
 4233 0438 4F465233 		.ascii	"OFR3\000"
 4233      00
 4234              	.LASF156:
 4235 043d 4F465234 		.ascii	"OFR4\000"
 4235      00
 4236              	.LASF101:
 4237 0442 42464152 		.ascii	"BFAR\000"
 4237      00
 4238              	.LASF223:
 4239 0447 50555044 		.ascii	"PUPDR\000"
 4239      5200
 4240              	.LASF122:
 4241 044d 4943494D 		.ascii	"ICIMVAU\000"
 4241      56415500 
 4242              	.LASF170:
 4243 0455 43414C46 		.ascii	"CALFACT2\000"
 4243      41435432 
 4243      00
 4244              	.LASF57:
ARM GAS  C:\Users\DEVELO~1\AppData\Local\Temp\ccYSbbyg.s 			page 79


 4245 045e 63685F72 		.ascii	"ch_rfcu\000"
 4245      66637500 
 4246              	.LASF201:
 4247 0466 63685F6D 		.ascii	"ch_mutex\000"
 4247      75746578 
 4247      00
 4248              	.LASF102:
 4249 046f 41465352 		.ascii	"AFSR\000"
 4249      00
 4250              	.LASF95:
 4251 0474 53485052 		.ascii	"SHPR\000"
 4251      00
 4252              	.LASF176:
 4253 0479 4D304152 		.ascii	"M0AR\000"
 4253      00
 4254              	.LASF47:
 4255 047e 63685F6F 		.ascii	"ch_os_instance\000"
 4255      735F696E 
 4255      7374616E 
 4255      636500
 4256              	.LASF231:
 4257 048d 696F706F 		.ascii	"ioportid_t\000"
 4257      72746964 
 4257      5F7400
 4258              	.LASF262:
 4259 0498 70637365 		.ascii	"pcsel\000"
 4259      6C00
 4260              	.LASF236:
 4261 049e 4144435F 		.ascii	"ADC_COMPLETE\000"
 4261      434F4D50 
 4261      4C455445 
 4261      00
 4262              	.LASF237:
 4263 04ab 4144435F 		.ascii	"ADC_ERROR\000"
 4263      4552524F 
 4263      5200
 4264              	.LASF240:
 4265 04b5 68616C5F 		.ascii	"hal_adc_driver\000"
 4265      6164635F 
 4265      64726976 
 4265      657200
 4266              	.LASF209:
 4267 04c4 69646C65 		.ascii	"idlethread_end\000"
 4267      74687265 
 4267      61645F65 
 4267      6E6400
 4268              	.LASF98:
 4269 04d3 48465352 		.ascii	"HFSR\000"
 4269      00
 4270              	.LASF75:
 4271 04d8 7072696F 		.ascii	"prio\000"
 4271      00
 4272              	.LASF285:
 4273 04dd 6472765F 		.ascii	"drv_display_update\000"
 4273      64697370 
 4273      6C61795F 
 4273      75706461 
ARM GAS  C:\Users\DEVELO~1\AppData\Local\Temp\ccYSbbyg.s 			page 80


 4273      746500
 4274              	.LASF62:
 4275 04f0 63686172 		.ascii	"char\000"
 4275      00
 4276              	.LASF292:
 4277 04f5 63685379 		.ascii	"chSysInit\000"
 4277      73496E69 
 4277      7400
 4278              	.LASF76:
 4279 04ff 63685F64 		.ascii	"ch_delta_list_t\000"
 4279      656C7461 
 4279      5F6C6973 
 4279      745F7400 
 4280              	.LASF56:
 4281 050f 72666375 		.ascii	"rfcu_mask_t\000"
 4281      5F6D6173 
 4281      6B5F7400 
 4282              	.LASF263:
 4283 051b 6C747231 		.ascii	"ltr1\000"
 4283      00
 4284              	.LASF265:
 4285 0520 6C747232 		.ascii	"ltr2\000"
 4285      00
 4286              	.LASF267:
 4287 0525 6C747233 		.ascii	"ltr3\000"
 4287      00
 4288              	.LASF66:
 4289 052a 74696D65 		.ascii	"time_conv_t\000"
 4289      5F636F6E 
 4289      765F7400 
 4290              	.LASF35:
 4291 0536 77616261 		.ascii	"wabase\000"
 4291      736500
 4292              	.LASF294:
 4293 053d 6C696E65 		.ascii	"line1\000"
 4293      3100
 4294              	.LASF24:
 4295 0543 74737461 		.ascii	"tstate_t\000"
 4295      74655F74 
 4295      00
 4296              	.LASF104:
 4297 054c 49445F44 		.ascii	"ID_DFR\000"
 4297      465200
 4298              	.LASF32:
 4299 0553 72717565 		.ascii	"rqueue\000"
 4299      756500
 4300              	.LASF94:
 4301 055a 41495243 		.ascii	"AIRCR\000"
 4301      5200
 4302              	.LASF206:
 4303 0560 6D61696E 		.ascii	"mainthread_base\000"
 4303      74687265 
 4303      61645F62 
 4303      61736500 
 4304              	.LASF238:
 4305 0570 61646373 		.ascii	"adcstate_t\000"
 4305      74617465 
ARM GAS  C:\Users\DEVELO~1\AppData\Local\Temp\ccYSbbyg.s 			page 81


 4305      5F7400
 4306              	.LASF218:
 4307 057b 73746D33 		.ascii	"stm32_dma_stream_t\000"
 4307      325F646D 
 4307      615F7374 
 4307      7265616D 
 4307      5F7400
 4308              	.LASF14:
 4309 058e 5F5F7569 		.ascii	"__uint64_t\000"
 4309      6E743634 
 4309      5F7400
 4310              	.LASF16:
 4311 0599 75696E74 		.ascii	"uint8_t\000"
 4311      385F7400 
 4312              	.LASF169:
 4313 05a1 43414C46 		.ascii	"CALFACT\000"
 4313      41435400 
 4314              	.LASF281:
 4315 05a9 61646367 		.ascii	"adcgrpcfg\000"
 4315      72706366 
 4315      6700
 4316              	.LASF213:
 4317 05b3 73747265 		.ascii	"stream\000"
 4317      616D00
 4318              	.LASF46:
 4319 05ba 63685F74 		.ascii	"ch_thread\000"
 4319      68726561 
 4319      6400
 4320              	.LASF134:
 4321 05c4 43414352 		.ascii	"CACR\000"
 4321      00
 4322              	.LASF288:
 4323 05c9 61646353 		.ascii	"adcStart\000"
 4323      74617274 
 4323      00
 4324              	.LASF63:
 4325 05d2 73797374 		.ascii	"system_debug_t\000"
 4325      656D5F64 
 4325      65627567 
 4325      5F7400
 4326              	.LASF241:
 4327 05e1 73616D70 		.ascii	"samples\000"
 4327      6C657300 
 4328              	.LASF114:
 4329 05e9 53544952 		.ascii	"STIR\000"
 4329      00
 4330              	.LASF129:
 4331 05ee 44434349 		.ascii	"DCCISW\000"
 4331      535700
 4332              	.LASF111:
 4333 05f5 43535345 		.ascii	"CSSELR\000"
 4333      4C5200
 4334              	.LASF1:
 4335 05fc 6C6F6E67 		.ascii	"long long int\000"
 4335      206C6F6E 
 4335      6720696E 
 4335      7400
ARM GAS  C:\Users\DEVELO~1\AppData\Local\Temp\ccYSbbyg.s 			page 82


 4336              	.LASF161:
 4337 060a 41574432 		.ascii	"AWD2CR\000"
 4337      435200
 4338              	.LASF128:
 4339 0611 44434349 		.ascii	"DCCIMVAC\000"
 4339      4D564143 
 4339      00
 4340              	.LASF271:
 4341 061a 736D7072 		.ascii	"smpr\000"
 4341      00
 4342              	.LASF162:
 4343 061f 41574433 		.ascii	"AWD3CR\000"
 4343      435200
 4344              	.LASF242:
 4345 0626 64657074 		.ascii	"depth\000"
 4345      6800
 4346              	.LASF126:
 4347 062c 4443434D 		.ascii	"DCCMVAC\000"
 4347      56414300 
 4348              	.LASF27:
 4349 0634 6D73675F 		.ascii	"msg_t\000"
 4349      7400
 4350              	.LASF274:
 4351 063a 61646365 		.ascii	"adcerror_t\000"
 4351      72726F72 
 4351      5F7400
 4352              	.LASF97:
 4353 0645 43465352 		.ascii	"CFSR\000"
 4353      00
 4354              	.LASF123:
 4355 064a 4443494D 		.ascii	"DCIMVAC\000"
 4355      56414300 
 4356              	.LASF250:
 4357 0652 41444343 		.ascii	"ADCConfig\000"
 4357      6F6E6669 
 4357      6700
 4358              	.LASF276:
 4359 065c 61646363 		.ascii	"adccallback_t\000"
 4359      616C6C62 
 4359      61636B5F 
 4359      7400
 4360              	.LASF125:
 4361 066a 4443434D 		.ascii	"DCCMVAU\000"
 4361      56415500 
 4362              	.LASF121:
 4363 0672 52455345 		.ascii	"RESERVED6\000"
 4363      52564544 
 4363      3600
 4364              	.LASF189:
 4365 067c 72656769 		.ascii	"registry_t\000"
 4365      73747279 
 4365      5F7400
 4366              	.LASF229:
 4367 0687 696F706F 		.ascii	"ioportmask_t\000"
 4367      72746D61 
 4367      736B5F74 
 4367      00
ARM GAS  C:\Users\DEVELO~1\AppData\Local\Temp\ccYSbbyg.s 			page 83


 4368              	.LASF270:
 4369 0694 61776433 		.ascii	"awd3cr\000"
 4369      637200
 4370              	.LASF287:
 4371 069b 736E7072 		.ascii	"snprintf\000"
 4371      696E7466 
 4371      00
 4372              	.LASF178:
 4373 06a4 444D415F 		.ascii	"DMA_Stream_TypeDef\000"
 4373      53747265 
 4373      616D5F54 
 4373      79706544 
 4373      656600
 4374              	.LASF88:
 4375 06b7 73697A65 		.ascii	"size\000"
 4375      00
 4376              	.LASF103:
 4377 06bc 49445F50 		.ascii	"ID_PFR\000"
 4377      465200
 4378              	.LASF58:
 4379 06c3 6D61736B 		.ascii	"mask\000"
 4379      00
 4380              	.LASF298:
 4381 06c8 5F5F4453 		.ascii	"__DSB\000"
 4381      4200
 4382              	.LASF140:
 4383 06ce 43464752 		.ascii	"CFGR2\000"
 4383      3200
 4384              	.LASF280:
 4385 06d4 61646363 		.ascii	"adccfg\000"
 4385      666700
 4386              	.LASF65:
 4387 06db 73797369 		.ascii	"sysinterval_t\000"
 4387      6E746572 
 4387      76616C5F 
 4387      7400
 4388              	.LASF70:
 4389 06e9 63685F71 		.ascii	"ch_queue_t\000"
 4389      75657565 
 4389      5F7400
 4390              	.LASF61:
 4391 06f4 70616E69 		.ascii	"panic_msg\000"
 4391      635F6D73 
 4391      6700
 4392              	.LASF82:
 4393 06fe 75736572 		.ascii	"user\000"
 4393      00
 4394              	.LASF90:
 4395 0703 74726163 		.ascii	"trace_buffer_t\000"
 4395      655F6275 
 4395      66666572 
 4395      5F7400
 4396              	.LASF179:
 4397 0712 444D414D 		.ascii	"DMAMUX_Channel_TypeDef\000"
 4397      55585F43 
 4397      68616E6E 
 4397      656C5F54 
ARM GAS  C:\Users\DEVELO~1\AppData\Local\Temp\ccYSbbyg.s 			page 84


 4397      79706544 
 4398              	.LASF23:
 4399 0729 746D6F64 		.ascii	"tmode_t\000"
 4399      655F7400 
 4400              	.LASF282:
 4401 0731 61646353 		.ascii	"adcStartConversion\000"
 4401      74617274 
 4401      436F6E76 
 4401      65727369 
 4401      6F6E00
 4402              	.LASF141:
 4403 0744 534D5052 		.ascii	"SMPR1\000"
 4403      3100
 4404              	.LASF142:
 4405 074a 534D5052 		.ascii	"SMPR2\000"
 4405      3200
 4406              	.LASF248:
 4407 0750 64617461 		.ascii	"data\000"
 4407      00
 4408              	.LASF54:
 4409 0755 6D61696E 		.ascii	"mainthread\000"
 4409      74687265 
 4409      616400
 4410              	.LASF272:
 4411 0760 61646373 		.ascii	"adcsample_t\000"
 4411      616D706C 
 4411      655F7400 
 4412              	.LASF107:
 4413 076c 49445F49 		.ascii	"ID_ISAR\000"
 4413      53415200 
 4414              	.LASF222:
 4415 0774 4F535045 		.ascii	"OSPEEDR\000"
 4415      45445200 
 4416              	.LASF278:
 4417 077c 41444344 		.ascii	"ADCD1\000"
 4417      3100
 4418              	.LASF225:
 4419 0782 4C4F434B 		.ascii	"LOCKR\000"
 4419      5200
 4420              	.LASF173:
 4421 0788 43445232 		.ascii	"CDR2\000"
 4421      00
 4422              	.LASF2:
 4423 078d 6C6F6E67 		.ascii	"long double\000"
 4423      20646F75 
 4423      626C6500 
 4424              	.LASF17:
 4425 0799 75696E74 		.ascii	"uint16_t\000"
 4425      31365F74 
 4425      00
 4426              	.LASF67:
 4427 07a2 63685F6C 		.ascii	"ch_list_t\000"
 4427      6973745F 
 4427      7400
 4428              	.LASF235:
 4429 07ac 4144435F 		.ascii	"ADC_ACTIVE\000"
 4429      41435449 
ARM GAS  C:\Users\DEVELO~1\AppData\Local\Temp\ccYSbbyg.s 			page 85


 4429      564500
 4430              	.LASF100:
 4431 07b7 4D4D4641 		.ascii	"MMFAR\000"
 4431      5200
 4432              	.LASF53:
 4433 07bd 636F6E66 		.ascii	"config\000"
 4433      696700
 4434              	.LASF157:
 4435 07c4 4A445231 		.ascii	"JDR1\000"
 4435      00
 4436              	.LASF158:
 4437 07c9 4A445232 		.ascii	"JDR2\000"
 4437      00
 4438              	.LASF159:
 4439 07ce 4A445233 		.ascii	"JDR3\000"
 4439      00
 4440              	.LASF160:
 4441 07d3 4A445234 		.ascii	"JDR4\000"
 4441      00
 4442              	.LASF25:
 4443 07d8 74726566 		.ascii	"trefs_t\000"
 4443      735F7400 
 4444              	.LASF108:
 4445 07e0 52455345 		.ascii	"RESERVED0\000"
 4445      52564544 
 4445      3000
 4446              	.LASF146:
 4447 07ea 52455345 		.ascii	"RESERVED1\000"
 4447      52564544 
 4447      3100
 4448              	.LASF96:
 4449 07f4 53484353 		.ascii	"SHCSR\000"
 4449      5200
 4450              	.LASF113:
 4451 07fa 52455345 		.ascii	"RESERVED3\000"
 4451      52564544 
 4451      3300
 4452              	.LASF115:
 4453 0804 52455345 		.ascii	"RESERVED4\000"
 4453      52564544 
 4453      3400
 4454              	.LASF252:
 4455 080e 64696673 		.ascii	"difsel\000"
 4455      656C00
 4456              	.LASF137:
 4457 0815 41424653 		.ascii	"ABFSR\000"
 4457      5200
 4458              	.LASF174:
 4459 081b 4144435F 		.ascii	"ADC_Common_TypeDef\000"
 4459      436F6D6D 
 4459      6F6E5F54 
 4459      79706544 
 4459      656600
 4460              	.LASF273:
 4461 082e 6164635F 		.ascii	"adc_channels_num_t\000"
 4461      6368616E 
 4461      6E656C73 
ARM GAS  C:\Users\DEVELO~1\AppData\Local\Temp\ccYSbbyg.s 			page 86


 4461      5F6E756D 
 4461      5F7400
 4462              	.LASF261:
 4463 0841 63666772 		.ascii	"cfgr2\000"
 4463      3200
 4464              	.LASF180:
 4465 0847 706F7274 		.ascii	"port_intctx\000"
 4465      5F696E74 
 4465      63747800 
 4466              	.LASF254:
 4467 0853 41444343 		.ascii	"ADCConversionGroup\000"
 4467      6F6E7665 
 4467      7273696F 
 4467      6E47726F 
 4467      757000
 4468              	.LASF257:
 4469 0866 6E756D5F 		.ascii	"num_channels\000"
 4469      6368616E 
 4469      6E656C73 
 4469      00
 4470              	.LASF251:
 4471 0873 68616C5F 		.ascii	"hal_adc_config\000"
 4471      6164635F 
 4471      636F6E66 
 4471      696700
 4472              	.LASF21:
 4473 0882 706F7274 		.ascii	"port_stkalign_t\000"
 4473      5F73746B 
 4473      616C6967 
 4473      6E5F7400 
 4474              	.LASF221:
 4475 0892 4F545950 		.ascii	"OTYPER\000"
 4475      455200
 4476              	.LASF205:
 4477 0899 63685F6F 		.ascii	"ch_os_instance_config\000"
 4477      735F696E 
 4477      7374616E 
 4477      63655F63 
 4477      6F6E6669 
 4478              	.LASF183:
 4479 08af 646C6973 		.ascii	"dlist\000"
 4479      7400
 4480              	.LASF184:
 4481 08b5 6C617374 		.ascii	"lasttime\000"
 4481      74696D65 
 4481      00
 4482              	.LASF20:
 4483 08be 75696E74 		.ascii	"uint64_t\000"
 4483      36345F74 
 4483      00
 4484              	.LASF293:
 4485 08c7 68616C49 		.ascii	"halInit\000"
 4485      6E697400 
 4486              	.LASF139:
 4487 08cf 43464752 		.ascii	"CFGR\000"
 4487      00
 4488              	.LASF48:
ARM GAS  C:\Users\DEVELO~1\AppData\Local\Temp\ccYSbbyg.s 			page 87


 4489 08d4 726C6973 		.ascii	"rlist\000"
 4489      7400
 4490              	.LASF5:
 4491 08da 5F5F7569 		.ascii	"__uint8_t\000"
 4491      6E74385F 
 4491      7400
 4492              	.LASF232:
 4493 08e4 4144435F 		.ascii	"ADC_UNINIT\000"
 4493      554E494E 
 4493      495400
 4494              	.LASF138:
 4495 08ef 5343425F 		.ascii	"SCB_Type\000"
 4495      54797065 
 4495      00
 4496              	.LASF34:
 4497 08f8 6E616D65 		.ascii	"name\000"
 4497      00
 4498              	.LASF297:
 4499 08fd 73746172 		.ascii	"start\000"
 4499      7400
 4500              	.LASF301:
 4501 0903 6D61696E 		.ascii	"main.c\000"
 4501      2E6300
 4502              	.LASF93:
 4503 090a 56544F52 		.ascii	"VTOR\000"
 4503      00
 4504              	.LASF177:
 4505 090f 4D314152 		.ascii	"M1AR\000"
 4505      00
 4506              	.LASF148:
 4507 0914 53515231 		.ascii	"SQR1\000"
 4507      00
 4508              	.LASF149:
 4509 0919 53515232 		.ascii	"SQR2\000"
 4509      00
 4510              	.LASF150:
 4511 091e 53515233 		.ascii	"SQR3\000"
 4511      00
 4512              	.LASF92:
 4513 0923 49435352 		.ascii	"ICSR\000"
 4513      00
 4514              	.LASF247:
 4515 0928 61646363 		.ascii	"adcc\000"
 4515      00
 4516              	.LASF13:
 4517 092d 6C6F6E67 		.ascii	"long unsigned int\000"
 4517      20756E73 
 4517      69676E65 
 4517      6420696E 
 4517      7400
 4518              	.LASF234:
 4519 093f 4144435F 		.ascii	"ADC_READY\000"
 4519      52454144 
 4519      5900
 4520              	.LASF204:
 4521 0949 72656164 		.ascii	"ready_list_t\000"
 4521      795F6C69 
ARM GAS  C:\Users\DEVELO~1\AppData\Local\Temp\ccYSbbyg.s 			page 88


 4521      73745F74 
 4521      00
 4522              	.LASF286:
 4523 0956 6472765F 		.ascii	"drv_display_clear\000"
 4523      64697370 
 4523      6C61795F 
 4523      636C6561 
 4523      7200
 4524              	.LASF246:
 4525 0968 6164636D 		.ascii	"adcm\000"
 4525      00
 4526              	.LASF84:
 4527 096d 72747374 		.ascii	"rtstamp\000"
 4527      616D7000 
 4528              	.LASF188:
 4529 0975 71756575 		.ascii	"queue\000"
 4529      6500
 4530              	.LASF18:
 4531 097b 696E7433 		.ascii	"int32_t\000"
 4531      325F7400 
 4532              	.LASF59:
 4533 0983 72666375 		.ascii	"rfcu_t\000"
 4533      5F7400
 4534              	.LASF244:
 4535 098a 74687265 		.ascii	"thread\000"
 4535      616400
 4536              	.LASF197:
 4537 0991 77747365 		.ascii	"wtsemp\000"
 4537      6D7000
 4538              	.LASF74:
 4539 0998 63685F70 		.ascii	"ch_priority_queue\000"
 4539      72696F72 
 4539      6974795F 
 4539      71756575 
 4539      6500
 4540              	.LASF71:
 4541 09aa 63685F71 		.ascii	"ch_queue\000"
 4541      75657565 
 4541      00
 4542              	.LASF211:
 4543 09b3 6D757465 		.ascii	"mutex_t\000"
 4543      785F7400 
 4544              	.LASF83:
 4545 09bb 74797065 		.ascii	"type\000"
 4545      00
 4546              	.LASF6:
 4547 09c0 756E7369 		.ascii	"unsigned char\000"
 4547      676E6564 
 4547      20636861 
 4547      7200
 4548              	.LASF226:
 4549 09ce 4146524C 		.ascii	"AFRL\000"
 4549      00
 4550              	.LASF12:
 4551 09d3 5F5F7569 		.ascii	"__uint32_t\000"
 4551      6E743332 
 4551      5F7400
ARM GAS  C:\Users\DEVELO~1\AppData\Local\Temp\ccYSbbyg.s 			page 89


 4552              	.LASF39:
 4553 09de 77616974 		.ascii	"waiting\000"
 4553      696E6700 
 4554              	.LASF253:
 4555 09e6 63616C69 		.ascii	"calibration\000"
 4555      62726174 
 4555      696F6E00 
 4556              	.LASF186:
 4557 09f2 76697274 		.ascii	"virtual_timers_list_t\000"
 4557      75616C5F 
 4557      74696D65 
 4557      72735F6C 
 4557      6973745F 
 4558              	.LASF51:
 4559 0a08 636F7265 		.ascii	"core_id\000"
 4559      5F696400 
 4560              	.LASF283:
 4561 0a10 63685468 		.ascii	"chThdSleep\000"
 4561      64536C65 
 4561      657000
 4562              	.LASF145:
 4563 0a1b 48545231 		.ascii	"HTR1\000"
 4563      00
 4564              	.LASF165:
 4565 0a20 48545232 		.ascii	"HTR2\000"
 4565      00
 4566              	.LASF167:
 4567 0a25 48545233 		.ascii	"HTR3\000"
 4567      00
 4568              	.LASF284:
 4569 0a2a 6472765F 		.ascii	"drv_display_draw_text\000"
 4569      64697370 
 4569      6C61795F 
 4569      64726177 
 4569      5F746578 
 4570              	.LASF291:
 4571 0a40 64726976 		.ascii	"drivers_init_all\000"
 4571      6572735F 
 4571      696E6974 
 4571      5F616C6C 
 4571      00
 4572              	.LASF36:
 4573 0a51 73746174 		.ascii	"state\000"
 4573      6500
 4574              	.LASF171:
 4575 0a57 4144435F 		.ascii	"ADC_TypeDef\000"
 4575      54797065 
 4575      44656600 
 4576              	.LASF152:
 4577 0a63 4A535152 		.ascii	"JSQR\000"
 4577      00
 4578              	.LASF45:
 4579 0a68 6F735F69 		.ascii	"os_instance_t\000"
 4579      6E737461 
 4579      6E63655F 
 4579      7400
 4580              	.LASF50:
ARM GAS  C:\Users\DEVELO~1\AppData\Local\Temp\ccYSbbyg.s 			page 90


 4581 0a76 7265676C 		.ascii	"reglist\000"
 4581      69737400 
 4582              	.LASF230:
 4583 0a7e 696F6D6F 		.ascii	"iomode_t\000"
 4583      64655F74 
 4583      00
 4584              	.LASF208:
 4585 0a87 69646C65 		.ascii	"idlethread_base\000"
 4585      74687265 
 4585      61645F62 
 4585      61736500 
 4586              	.LASF43:
 4587 0a97 7265616C 		.ascii	"realprio\000"
 4587      7072696F 
 4587      00
 4588              	.LASF3:
 4589 0aa0 7369676E 		.ascii	"signed char\000"
 4589      65642063 
 4589      68617200 
 4590              	.LASF78:
 4591 0aac 64656C74 		.ascii	"delta\000"
 4591      6100
 4592              	.LASF131:
 4593 0ab2 4954434D 		.ascii	"ITCMCR\000"
 4593      435200
 4594              	.LASF9:
 4595 0ab9 73686F72 		.ascii	"short unsigned int\000"
 4595      7420756E 
 4595      7369676E 
 4595      65642069 
 4595      6E7400
 4596              	.LASF269:
 4597 0acc 61776432 		.ascii	"awd2cr\000"
 4597      637200
 4598              	.LASF22:
 4599 0ad3 73746B61 		.ascii	"stkalign_t\000"
 4599      6C69676E 
 4599      5F7400
 4600              	.LASF303:
 4601 0ade 6D61696E 		.ascii	"main\000"
 4601      00
 4602              	.LASF116:
 4603 0ae3 4D564652 		.ascii	"MVFR0\000"
 4603      3000
 4604              	.LASF117:
 4605 0ae9 4D564652 		.ascii	"MVFR1\000"
 4605      3100
 4606              	.LASF118:
 4607 0aef 4D564652 		.ascii	"MVFR2\000"
 4607      3200
 4608              	.LASF203:
 4609 0af5 63757272 		.ascii	"current\000"
 4609      656E7400 
 4610              	.LASF243:
 4611 0afd 67727070 		.ascii	"grpp\000"
 4611      00
 4612              	.LASF109:
ARM GAS  C:\Users\DEVELO~1\AppData\Local\Temp\ccYSbbyg.s 			page 91


 4613 0b02 434C4944 		.ascii	"CLIDR\000"
 4613      5200
 4614              	.LASF147:
 4615 0b08 52455345 		.ascii	"RESERVED2\000"
 4615      52564544 
 4615      3200
 4616              	.LASF119:
 4617 0b12 52455345 		.ascii	"RESERVED5\000"
 4617      52564544 
 4617      3500
 4618              	.LASF80:
 4619 0b1c 72656173 		.ascii	"reason\000"
 4619      6F6E00
 4620              	.LASF130:
 4621 0b23 52455345 		.ascii	"RESERVED7\000"
 4621      52564544 
 4621      3700
 4622              	.LASF275:
 4623 0b2d 6164635F 		.ascii	"adc_ldd_dma_reference_t\000"
 4623      6C64645F 
 4623      646D615F 
 4623      72656665 
 4623      72656E63 
 4624              	.LASF136:
 4625 0b45 52455345 		.ascii	"RESERVED8\000"
 4625      52564544 
 4625      3800
 4626              	.LASF163:
 4627 0b4f 52455345 		.ascii	"RESERVED9\000"
 4627      52564544 
 4627      3900
 4628              	.LASF255:
 4629 0b59 68616C5F 		.ascii	"hal_adc_configuration_group\000"
 4629      6164635F 
 4629      636F6E66 
 4629      69677572 
 4629      6174696F 
 4630              	.LASF195:
 4631 0b75 77747472 		.ascii	"wttrp\000"
 4631      7000
 4632              	.LASF233:
 4633 0b7b 4144435F 		.ascii	"ADC_STOP\000"
 4633      53544F50 
 4633      00
 4634              	.LASF194:
 4635 0b84 65786974 		.ascii	"exitcode\000"
 4635      636F6465 
 4635      00
 4636              	.LASF216:
 4637 0b8d 73656C66 		.ascii	"selfindex\000"
 4637      696E6465 
 4637      7800
 4638              	.LASF30:
 4639 0b97 636F7265 		.ascii	"core_id_t\000"
 4639      5F69645F 
 4639      7400
 4640              	.LASF112:
ARM GAS  C:\Users\DEVELO~1\AppData\Local\Temp\ccYSbbyg.s 			page 92


 4641 0ba1 43504143 		.ascii	"CPACR\000"
 4641      5200
 4642              	.LASF44:
 4643 0ba7 6D706F6F 		.ascii	"mpool\000"
 4643      6C00
 4644              		.ident	"GCC: (Arm GNU Toolchain 11.3.Rel1) 11.3.1 20220712"
ARM GAS  C:\Users\DEVELO~1\AppData\Local\Temp\ccYSbbyg.s 			page 93


DEFINED SYMBOLS
                            *ABS*:00000000 main.c
C:\Users\DEVELO~1\AppData\Local\Temp\ccYSbbyg.s:18     .dma:00000000 $d
C:\Users\DEVELO~1\AppData\Local\Temp\ccYSbbyg.s:21     .dma:00000000 adc_buf
C:\Users\DEVELO~1\AppData\Local\Temp\ccYSbbyg.s:24     .rodata.adccfg:00000000 $d
C:\Users\DEVELO~1\AppData\Local\Temp\ccYSbbyg.s:27     .rodata.adccfg:00000000 adccfg
C:\Users\DEVELO~1\AppData\Local\Temp\ccYSbbyg.s:30     .rodata.adcgrpcfg:00000000 $d
C:\Users\DEVELO~1\AppData\Local\Temp\ccYSbbyg.s:33     .rodata.adcgrpcfg:00000000 adcgrpcfg
C:\Users\DEVELO~1\AppData\Local\Temp\ccYSbbyg.s:51     .rodata:00000000 $d
C:\Users\DEVELO~1\AppData\Local\Temp\ccYSbbyg.s:64     .text.main:00000000 $t
C:\Users\DEVELO~1\AppData\Local\Temp\ccYSbbyg.s:70     .text.main:00000000 main
C:\Users\DEVELO~1\AppData\Local\Temp\ccYSbbyg.s:312    .text.main:00000128 $d

UNDEFINED SYMBOLS
halInit
chSysInit
drivers_init_all
drv_display_init
_pal_lld_setgroupmode
adcStart
drv_display_clear
drv_display_draw_text
drv_display_update
chThdSleep
adcStartConversion
snprintf
ADCD1
