ARM GAS  C:\Users\DEVELO~1\AppData\Local\Temp\cclsZJPb.s 			page 1


   1              		.cpu cortex-m7
   2              		.arch armv7e-m
   3              		.fpu softvfp
   4              		.eabi_attribute 20, 1
   5              		.eabi_attribute 21, 1
   6              		.eabi_attribute 23, 3
   7              		.eabi_attribute 24, 1
   8              		.eabi_attribute 25, 1
   9              		.eabi_attribute 26, 1
  10              		.eabi_attribute 30, 6
  11              		.eabi_attribute 34, 1
  12              		.eabi_attribute 18, 4
  13              		.file	"main.c"
  14              		.text
  15              	.Ltext0:
  16              		.cfi_sections	.debug_frame
  17              		.section	.ramd2,"aw"
  18              		.align	2
  19              		.type	adc_buffer, %object
  20              		.size	adc_buffer, 64
  21              	adc_buffer:
  22 0000 00000000 		.space	64
  22      00000000 
  22      00000000 
  22      00000000 
  22      00000000 
  23              		.section	.text.adc_cb,"ax",%progbits
  24              		.align	1
  25              		.syntax unified
  26              		.thumb
  27              		.thumb_func
  28              		.type	adc_cb, %function
  29              	adc_cb:
  30              	.LFB435:
  31              		.file 1 "main.c"
  32              		.loc 1 37 37
  33              		.cfi_startproc
  34              		@ args = 0, pretend = 0, frame = 8
  35              		@ frame_needed = 1, uses_anonymous_args = 0
  36              		@ link register save eliminated.
  37 0000 80B4     		push	{r7}
  38              		.cfi_def_cfa_offset 4
  39              		.cfi_offset 7, -4
  40 0002 83B0     		sub	sp, sp, #12
  41              		.cfi_def_cfa_offset 16
  42 0004 00AF     		add	r7, sp, #0
  43              		.cfi_def_cfa_register 7
  44 0006 7860     		str	r0, [r7, #4]
  45              		.loc 1 39 1
  46 0008 00BF     		nop
  47 000a 0C37     		adds	r7, r7, #12
  48              		.cfi_def_cfa_offset 4
  49 000c BD46     		mov	sp, r7
  50              		.cfi_def_cfa_register 13
  51              		@ sp needed
  52 000e 80BC     		pop	{r7}
  53              		.cfi_restore 7
ARM GAS  C:\Users\DEVELO~1\AppData\Local\Temp\cclsZJPb.s 			page 2


  54              		.cfi_def_cfa_offset 0
  55 0010 7047     		bx	lr
  56              		.cfi_endproc
  57              	.LFE435:
  58              		.size	adc_cb, .-adc_cb
  59              		.section	.rodata.adcgrpcfg,"a"
  60              		.align	2
  61              		.type	adcgrpcfg, %object
  62              		.size	adcgrpcfg, 88
  63              	adcgrpcfg:
  64 0000 01       		.byte	1
  65 0001 000000   		.space	3
  66 0004 02000000 		.word	2
  67 0008 00000000 		.word	adc_cb
  68 000c 00000000 		.word	0
  69 0010 00200000 		.word	8192
  70 0014 00000000 		.word	0
  71 0018 00000000 		.space	4
  72 001c 90000000 		.word	144
  73 0020 00000000 		.word	0
  74 0024 00000000 		.word	0
  75 0028 00000000 		.word	0
  76 002c 00000000 		.word	0
  77 0030 00000000 		.word	0
  78 0034 00000000 		.word	0
  79 0038 00000000 		.word	0
  80 003c 00000000 		.word	0
  81 0040 0060C000 		.word	12607488
  82 0044 00000000 		.word	0
  83 0048 00710000 		.word	28928
  84 004c 00000000 		.word	0
  85 0050 00000000 		.word	0
  86 0054 00000000 		.word	0
  87              		.section	.text.muxSelect,"ax",%progbits
  88              		.align	1
  89              		.syntax unified
  90              		.thumb
  91              		.thumb_func
  92              		.type	muxSelect, %function
  93              	muxSelect:
  94              	.LFB436:
  95              		.loc 1 81 35
  96              		.cfi_startproc
  97              		@ args = 0, pretend = 0, frame = 24
  98              		@ frame_needed = 1, uses_anonymous_args = 0
  99              		@ link register save eliminated.
 100 0000 80B4     		push	{r7}
 101              		.cfi_def_cfa_offset 4
 102              		.cfi_offset 7, -4
 103 0002 87B0     		sub	sp, sp, #28
 104              		.cfi_def_cfa_offset 32
 105 0004 00AF     		add	r7, sp, #0
 106              		.cfi_def_cfa_register 7
 107 0006 0346     		mov	r3, r0
 108 0008 FB71     		strb	r3, [r7, #7]
 109              	.LBB2:
 110              		.loc 1 82 3
ARM GAS  C:\Users\DEVELO~1\AppData\Local\Temp\cclsZJPb.s 			page 3


 111 000a FB79     		ldrb	r3, [r7, #7]	@ zero_extendqisi2
 112 000c 03F00103 		and	r3, r3, #1
 113 0010 002B     		cmp	r3, #0
 114 0012 02D1     		bne	.L3
 115              		.loc 1 82 3 is_stmt 0 discriminator 1
 116 0014 4FF40012 		mov	r2, #2097152
 117 0018 00E0     		b	.L4
 118              	.L3:
 119              		.loc 1 82 3 discriminator 2
 120 001a 0022     		movs	r2, #0
 121              	.L4:
 122              		.loc 1 82 3 discriminator 4
 123 001c FB79     		ldrb	r3, [r7, #7]	@ zero_extendqisi2
 124 001e 5B01     		lsls	r3, r3, #5
 125 0020 03F02003 		and	r3, r3, #32
 126 0024 1343     		orrs	r3, r3, r2
 127 0026 7B61     		str	r3, [r7, #20]
 128 0028 194A     		ldr	r2, .L9
 129 002a 7B69     		ldr	r3, [r7, #20]
 130 002c 9361     		str	r3, [r2, #24]
 131              	.LBE2:
 132              	.LBB3:
 133              		.loc 1 83 3 is_stmt 1 discriminator 4
 134 002e FB79     		ldrb	r3, [r7, #7]	@ zero_extendqisi2
 135 0030 5B08     		lsrs	r3, r3, #1
 136 0032 DBB2     		uxtb	r3, r3
 137 0034 03F00103 		and	r3, r3, #1
 138 0038 002B     		cmp	r3, #0
 139 003a 02D1     		bne	.L5
 140              		.loc 1 83 3 is_stmt 0 discriminator 1
 141 003c 4FF48012 		mov	r2, #1048576
 142 0040 00E0     		b	.L6
 143              	.L5:
 144              		.loc 1 83 3 discriminator 2
 145 0042 0022     		movs	r2, #0
 146              	.L6:
 147              		.loc 1 83 3 discriminator 4
 148 0044 FB79     		ldrb	r3, [r7, #7]	@ zero_extendqisi2
 149 0046 5B08     		lsrs	r3, r3, #1
 150 0048 DBB2     		uxtb	r3, r3
 151 004a 1B01     		lsls	r3, r3, #4
 152 004c 03F01003 		and	r3, r3, #16
 153 0050 1343     		orrs	r3, r3, r2
 154 0052 3B61     		str	r3, [r7, #16]
 155 0054 0E4A     		ldr	r2, .L9
 156 0056 3B69     		ldr	r3, [r7, #16]
 157 0058 9361     		str	r3, [r2, #24]
 158              	.LBE3:
 159              	.LBB4:
 160              		.loc 1 84 3 is_stmt 1 discriminator 4
 161 005a FB79     		ldrb	r3, [r7, #7]	@ zero_extendqisi2
 162 005c 9B08     		lsrs	r3, r3, #2
 163 005e DBB2     		uxtb	r3, r3
 164 0060 03F00103 		and	r3, r3, #1
 165 0064 002B     		cmp	r3, #0
 166 0066 02D1     		bne	.L7
 167              		.loc 1 84 3 is_stmt 0 discriminator 1
ARM GAS  C:\Users\DEVELO~1\AppData\Local\Temp\cclsZJPb.s 			page 4


 168 0068 4FF48002 		mov	r2, #4194304
 169 006c 00E0     		b	.L8
 170              	.L7:
 171              		.loc 1 84 3 discriminator 2
 172 006e 0022     		movs	r2, #0
 173              	.L8:
 174              		.loc 1 84 3 discriminator 4
 175 0070 FB79     		ldrb	r3, [r7, #7]	@ zero_extendqisi2
 176 0072 9B08     		lsrs	r3, r3, #2
 177 0074 DBB2     		uxtb	r3, r3
 178 0076 9B01     		lsls	r3, r3, #6
 179 0078 03F04003 		and	r3, r3, #64
 180 007c 1343     		orrs	r3, r3, r2
 181 007e FB60     		str	r3, [r7, #12]
 182 0080 034A     		ldr	r2, .L9
 183 0082 FB68     		ldr	r3, [r7, #12]
 184 0084 9361     		str	r3, [r2, #24]
 185              	.LBE4:
 186              		.loc 1 85 1 is_stmt 1 discriminator 4
 187 0086 00BF     		nop
 188 0088 1C37     		adds	r7, r7, #28
 189              		.cfi_def_cfa_offset 4
 190 008a BD46     		mov	sp, r7
 191              		.cfi_def_cfa_register 13
 192              		@ sp needed
 193 008c 80BC     		pop	{r7}
 194              		.cfi_restore 7
 195              		.cfi_def_cfa_offset 0
 196 008e 7047     		bx	lr
 197              	.L10:
 198              		.align	2
 199              	.L9:
 200 0090 00000258 		.word	1476526080
 201              		.cfi_endproc
 202              	.LFE436:
 203              		.size	muxSelect, .-muxSelect
 204              		.section	.text.get_last_samples,"ax",%progbits
 205              		.align	1
 206              		.syntax unified
 207              		.thumb
 208              		.thumb_func
 209              		.type	get_last_samples, %function
 210              	get_last_samples:
 211              	.LFB437:
 212              		.loc 1 89 56
 213              		.cfi_startproc
 214              		@ args = 0, pretend = 0, frame = 16
 215              		@ frame_needed = 1, uses_anonymous_args = 0
 216              		@ link register save eliminated.
 217 0000 80B4     		push	{r7}
 218              		.cfi_def_cfa_offset 4
 219              		.cfi_offset 7, -4
 220 0002 85B0     		sub	sp, sp, #20
 221              		.cfi_def_cfa_offset 24
 222 0004 00AF     		add	r7, sp, #0
 223              		.cfi_def_cfa_register 7
 224 0006 7860     		str	r0, [r7, #4]
ARM GAS  C:\Users\DEVELO~1\AppData\Local\Temp\cclsZJPb.s 			page 5


 225 0008 3960     		str	r1, [r7]
 226              		.loc 1 90 10
 227 000a 1E23     		movs	r3, #30
 228 000c FB60     		str	r3, [r7, #12]
 229              		.loc 1 91 18
 230 000e 094A     		ldr	r2, .L12
 231 0010 FB68     		ldr	r3, [r7, #12]
 232 0012 32F81320 		ldrh	r2, [r2, r3, lsl #1]
 233              		.loc 1 91 6
 234 0016 7B68     		ldr	r3, [r7, #4]
 235 0018 1A80     		strh	r2, [r3]	@ movhi
 236              		.loc 1 92 23
 237 001a FB68     		ldr	r3, [r7, #12]
 238 001c 0133     		adds	r3, r3, #1
 239              		.loc 1 92 18
 240 001e 054A     		ldr	r2, .L12
 241 0020 32F81320 		ldrh	r2, [r2, r3, lsl #1]
 242              		.loc 1 92 6
 243 0024 3B68     		ldr	r3, [r7]
 244 0026 1A80     		strh	r2, [r3]	@ movhi
 245              		.loc 1 93 1
 246 0028 00BF     		nop
 247 002a 1437     		adds	r7, r7, #20
 248              		.cfi_def_cfa_offset 4
 249 002c BD46     		mov	sp, r7
 250              		.cfi_def_cfa_register 13
 251              		@ sp needed
 252 002e 80BC     		pop	{r7}
 253              		.cfi_restore 7
 254              		.cfi_def_cfa_offset 0
 255 0030 7047     		bx	lr
 256              	.L13:
 257 0032 00BF     		.align	2
 258              	.L12:
 259 0034 00000000 		.word	adc_buffer
 260              		.cfi_endproc
 261              	.LFE437:
 262              		.size	get_last_samples, .-get_last_samples
 263              		.section	.bss.hall_values,"aw",%nobits
 264              		.align	2
 265              		.type	hall_values, %object
 266              		.size	hall_values, 32
 267              	hall_values:
 268 0000 00000000 		.space	32
 268      00000000 
 268      00000000 
 268      00000000 
 268      00000000 
 269              		.section	.rodata
 270              		.align	2
 271              	.LC0:
 272 0000 48414C4C 		.ascii	"HALL SENSORS:\000"
 272      2053454E 
 272      534F5253 
 272      3A00
 273 000e 0000     		.align	2
 274              	.LC1:
ARM GAS  C:\Users\DEVELO~1\AppData\Local\Temp\cclsZJPb.s 			page 6


 275 0010 42252D32 		.ascii	"B%-2u:%5u  B%-2u:%5u\000"
 275      753A2535 
 275      75202042 
 275      252D3275 
 275      3A253575 
 276              		.section	.text.main,"ax",%progbits
 277              		.align	1
 278              		.global	main
 279              		.syntax unified
 280              		.thumb
 281              		.thumb_func
 282              		.type	main, %function
 283              	main:
 284              	.LFB438:
 285              		.loc 1 101 16
 286              		.cfi_startproc
 287              		@ args = 0, pretend = 0, frame = 48
 288              		@ frame_needed = 1, uses_anonymous_args = 0
 289 0000 90B5     		push	{r4, r7, lr}
 290              		.cfi_def_cfa_offset 12
 291              		.cfi_offset 4, -12
 292              		.cfi_offset 7, -8
 293              		.cfi_offset 14, -4
 294 0002 91B0     		sub	sp, sp, #68
 295              		.cfi_def_cfa_offset 80
 296 0004 04AF     		add	r7, sp, #16
 297              		.cfi_def_cfa 7, 64
 298              		.loc 1 103 3
 299 0006 FFF7FEFF 		bl	halInit
 300              		.loc 1 104 3
 301 000a FFF7FEFF 		bl	chSysInit
 302              		.loc 1 106 3
 303 000e FFF7FEFF 		bl	drivers_init_all
 304              		.loc 1 107 3
 305 0012 FFF7FEFF 		bl	drv_display_init
 306              		.loc 1 110 3
 307 0016 0122     		movs	r2, #1
 308 0018 1021     		movs	r1, #16
 309 001a 4D48     		ldr	r0, .L22
 310 001c FFF7FEFF 		bl	_pal_lld_setgroupmode
 311              		.loc 1 111 3
 312 0020 0122     		movs	r2, #1
 313 0022 2021     		movs	r1, #32
 314 0024 4A48     		ldr	r0, .L22
 315 0026 FFF7FEFF 		bl	_pal_lld_setgroupmode
 316              		.loc 1 112 3
 317 002a 0122     		movs	r2, #1
 318 002c 4021     		movs	r1, #64
 319 002e 4848     		ldr	r0, .L22
 320 0030 FFF7FEFF 		bl	_pal_lld_setgroupmode
 321              		.loc 1 115 3
 322 0034 0322     		movs	r2, #3
 323 0036 1021     		movs	r1, #16
 324 0038 4648     		ldr	r0, .L22+4
 325 003a FFF7FEFF 		bl	_pal_lld_setgroupmode
 326              		.loc 1 116 3
 327 003e 0322     		movs	r2, #3
ARM GAS  C:\Users\DEVELO~1\AppData\Local\Temp\cclsZJPb.s 			page 7


 328 0040 8021     		movs	r1, #128
 329 0042 4348     		ldr	r0, .L22
 330 0044 FFF7FEFF 		bl	_pal_lld_setgroupmode
 331              	.LBB5:
 332              		.loc 1 119 17
 333 0048 0023     		movs	r3, #0
 334 004a FB62     		str	r3, [r7, #44]
 335              		.loc 1 119 3
 336 004c 08E0     		b	.L15
 337              	.L16:
 338              		.loc 1 120 19 discriminator 3
 339 004e 424A     		ldr	r2, .L22+8
 340 0050 FB6A     		ldr	r3, [r7, #44]
 341 0052 41F23421 		movw	r1, #4660
 342 0056 22F81310 		strh	r1, [r2, r3, lsl #1]	@ movhi
 343              		.loc 1 119 63 discriminator 3
 344 005a FB6A     		ldr	r3, [r7, #44]
 345 005c 0133     		adds	r3, r3, #1
 346 005e FB62     		str	r3, [r7, #44]
 347              	.L15:
 348              		.loc 1 119 26 discriminator 1
 349 0060 FB6A     		ldr	r3, [r7, #44]
 350 0062 1F2B     		cmp	r3, #31
 351 0064 F3D9     		bls	.L16
 352              	.LBE5:
 353              		.loc 1 123 3
 354 0066 0021     		movs	r1, #0
 355 0068 3C48     		ldr	r0, .L22+12
 356 006a FFF7FEFF 		bl	adcStart
 357              		.loc 1 124 3
 358 006e 1023     		movs	r3, #16
 359 0070 394A     		ldr	r2, .L22+8
 360 0072 3B49     		ldr	r1, .L22+16
 361 0074 3948     		ldr	r0, .L22+12
 362 0076 FFF7FEFF 		bl	adcStartConversion
 363              	.L21:
 364              	.LBB6:
 365              		.loc 1 131 18
 366 007a 0023     		movs	r3, #0
 367 007c 87F82B30 		strb	r3, [r7, #43]
 368              		.loc 1 131 5
 369 0080 1FE0     		b	.L17
 370              	.L18:
 371              	.LBB7:
 372              		.loc 1 133 7 discriminator 3
 373 0082 97F82B30 		ldrb	r3, [r7, #43]	@ zero_extendqisi2
 374 0086 1846     		mov	r0, r3
 375 0088 FFF7FEFF 		bl	muxSelect
 376              		.loc 1 134 7 discriminator 3
 377 008c 1420     		movs	r0, #20
 378 008e FFF7FEFF 		bl	chThdSleep
 379              		.loc 1 137 7 discriminator 3
 380 0092 3A1D     		adds	r2, r7, #4
 381 0094 BB1D     		adds	r3, r7, #6
 382 0096 1146     		mov	r1, r2
 383 0098 1846     		mov	r0, r3
 384 009a FFF7FEFF 		bl	get_last_samples
ARM GAS  C:\Users\DEVELO~1\AppData\Local\Temp\cclsZJPb.s 			page 8


 385              		.loc 1 139 26 discriminator 3
 386 009e 97F82B30 		ldrb	r3, [r7, #43]	@ zero_extendqisi2
 387              		.loc 1 139 31 discriminator 3
 388 00a2 F988     		ldrh	r1, [r7, #6]
 389 00a4 2F4A     		ldr	r2, .L22+20
 390 00a6 22F81310 		strh	r1, [r2, r3, lsl #1]	@ movhi
 391              		.loc 1 140 26 discriminator 3
 392 00aa 97F82B30 		ldrb	r3, [r7, #43]	@ zero_extendqisi2
 393 00ae 0833     		adds	r3, r3, #8
 394              		.loc 1 140 31 discriminator 3
 395 00b0 B988     		ldrh	r1, [r7, #4]
 396 00b2 2C4A     		ldr	r2, .L22+20
 397 00b4 22F81310 		strh	r1, [r2, r3, lsl #1]	@ movhi
 398              	.LBE7:
 399              		.loc 1 131 48 discriminator 3
 400 00b8 97F82B30 		ldrb	r3, [r7, #43]	@ zero_extendqisi2
 401 00bc 0133     		adds	r3, r3, #1
 402 00be 87F82B30 		strb	r3, [r7, #43]
 403              	.L17:
 404              		.loc 1 131 37 discriminator 1
 405 00c2 97F82B30 		ldrb	r3, [r7, #43]	@ zero_extendqisi2
 406 00c6 072B     		cmp	r3, #7
 407 00c8 DBD9     		bls	.L18
 408              	.LBE6:
 409              		.loc 1 145 5
 410 00ca FFF7FEFF 		bl	drv_display_clear
 411              		.loc 1 146 5
 412 00ce 264A     		ldr	r2, .L22+24
 413 00d0 0021     		movs	r1, #0
 414 00d2 0020     		movs	r0, #0
 415 00d4 FFF7FEFF 		bl	drv_display_draw_text
 416              	.LBB8:
 417              		.loc 1 149 18
 418 00d8 0023     		movs	r3, #0
 419 00da 87F82A30 		strb	r3, [r7, #42]
 420              		.loc 1 149 5
 421 00de 2CE0     		b	.L19
 422              	.L20:
 423              		.loc 1 150 7 discriminator 3
 424 00e0 97F82A30 		ldrb	r3, [r7, #42]	@ zero_extendqisi2
 425 00e4 591C     		adds	r1, r3, #1
 426              		.loc 1 152 34 discriminator 3
 427 00e6 97F82A30 		ldrb	r3, [r7, #42]	@ zero_extendqisi2
 428 00ea 1E4A     		ldr	r2, .L22+20
 429 00ec 32F81330 		ldrh	r3, [r2, r3, lsl #1]
 430              		.loc 1 150 7 discriminator 3
 431 00f0 1C46     		mov	r4, r3
 432 00f2 97F82A30 		ldrb	r3, [r7, #42]	@ zero_extendqisi2
 433 00f6 0933     		adds	r3, r3, #9
 434              		.loc 1 153 37 discriminator 3
 435 00f8 97F82A20 		ldrb	r2, [r7, #42]	@ zero_extendqisi2
 436 00fc 0832     		adds	r2, r2, #8
 437              		.loc 1 153 34 discriminator 3
 438 00fe 1948     		ldr	r0, .L22+20
 439 0100 30F81220 		ldrh	r2, [r0, r2, lsl #1]
 440              		.loc 1 150 7 discriminator 3
 441 0104 07F10800 		add	r0, r7, #8
ARM GAS  C:\Users\DEVELO~1\AppData\Local\Temp\cclsZJPb.s 			page 9


 442 0108 0292     		str	r2, [sp, #8]
 443 010a 0193     		str	r3, [sp, #4]
 444 010c 0094     		str	r4, [sp]
 445 010e 0B46     		mov	r3, r1
 446 0110 164A     		ldr	r2, .L22+28
 447 0112 2021     		movs	r1, #32
 448 0114 FFF7FEFF 		bl	snprintf
 449              		.loc 1 155 7 discriminator 3
 450 0118 97F82A30 		ldrb	r3, [r7, #42]
 451 011c DB00     		lsls	r3, r3, #3
 452 011e DBB2     		uxtb	r3, r3
 453 0120 0C33     		adds	r3, r3, #12
 454 0122 DBB2     		uxtb	r3, r3
 455 0124 07F10802 		add	r2, r7, #8
 456 0128 1946     		mov	r1, r3
 457 012a 0020     		movs	r0, #0
 458 012c FFF7FEFF 		bl	drv_display_draw_text
 459              		.loc 1 149 33 discriminator 3
 460 0130 97F82A30 		ldrb	r3, [r7, #42]	@ zero_extendqisi2
 461 0134 0133     		adds	r3, r3, #1
 462 0136 87F82A30 		strb	r3, [r7, #42]
 463              	.L19:
 464              		.loc 1 149 27 discriminator 1
 465 013a 97F82A30 		ldrb	r3, [r7, #42]	@ zero_extendqisi2
 466 013e 072B     		cmp	r3, #7
 467 0140 CED9     		bls	.L20
 468              	.LBE8:
 469              		.loc 1 158 5
 470 0142 FFF7FEFF 		bl	drv_display_update
 471              		.loc 1 160 5
 472 0146 4FF47A70 		mov	r0, #1000
 473 014a FFF7FEFF 		bl	chThdSleep
 474              		.loc 1 131 5
 475 014e 94E7     		b	.L21
 476              	.L23:
 477              		.align	2
 478              	.L22:
 479 0150 00000258 		.word	1476526080
 480 0154 00080258 		.word	1476528128
 481 0158 00000000 		.word	adc_buffer
 482 015c 00000000 		.word	ADCD1
 483 0160 00000000 		.word	adcgrpcfg
 484 0164 00000000 		.word	hall_values
 485 0168 00000000 		.word	.LC0
 486 016c 10000000 		.word	.LC1
 487              		.cfi_endproc
 488              	.LFE438:
 489              		.size	main, .-main
 490              		.text
 491              	.Letext0:
 492              		.file 2 "c:\\chibistudio\\tools\\gnu tools arm embedded\\11.3 2022.08\\lib\\gcc\\arm-none-eabi\\11
 493              		.file 3 "c:\\chibistudio\\tools\\gnu tools arm embedded\\11.3 2022.08\\arm-none-eabi\\include\\mac
 494              		.file 4 "c:\\chibistudio\\tools\\gnu tools arm embedded\\11.3 2022.08\\arm-none-eabi\\include\\sys
 495              		.file 5 "../../../os/common/ports/ARM-common/chtypes.h"
 496              		.file 6 "../../../os/rt/include/chearly.h"
 497              		.file 7 "../../../os/rt/include/chobjects.h"
 498              		.file 8 "../../../os/rt/include/chrfcu.h"
ARM GAS  C:\Users\DEVELO~1\AppData\Local\Temp\cclsZJPb.s 			page 10


 499              		.file 9 "../../../os/rt/include/chdebug.h"
 500              		.file 10 "../../../os/rt/include/chtime.h"
 501              		.file 11 "../../../os/rt/include/chlists.h"
 502              		.file 12 "../../../os/rt/include/chtrace.h"
 503              		.file 13 "../../../os/common/ext/ST/STM32H7xx/stm32h743xx.h"
 504              		.file 14 "../../../os/common/ports/ARMv7-M/chcore.h"
 505              		.file 15 "../../../os/rt/include/chsem.h"
 506              		.file 16 "../../../os/rt/include/chmtx.h"
 507              		.file 17 "../../../os/hal/ports/STM32/LLD/DMAv2/stm32_dma.h"
 508              		.file 18 "../../../os/hal/ports/STM32/LLD/GPIOv2/stm32_gpio.h"
 509              		.file 19 "../../../os/hal/ports/STM32/LLD/GPIOv2/hal_pal_lld.h"
 510              		.file 20 "../../../os/hal/include/hal_adc.h"
 511              		.file 21 "../../../os/hal/ports/STM32/LLD/ADCv4/hal_adc_lld.h"
 512              		.file 22 "drivers/drv_display.h"
 513              		.file 23 "../../../os/rt/include/chthreads.h"
 514              		.file 24 "c:\\chibistudio\\tools\\gnu tools arm embedded\\11.3 2022.08\\arm-none-eabi\\include\\st
 515              		.file 25 "drivers/drivers.h"
 516              		.file 26 "../../../os/rt/include/chsys.h"
 517              		.file 27 "../../../os/hal/include/hal.h"
 518              		.section	.debug_info,"",%progbits
 519              	.Ldebug_info0:
 520 0000 70130000 		.4byte	0x1370
 521 0004 0500     		.2byte	0x5
 522 0006 01       		.byte	0x1
 523 0007 04       		.byte	0x4
 524 0008 00000000 		.4byte	.Ldebug_abbrev0
 525 000c 23       		.uleb128 0x23
 526 000d 07020000 		.4byte	.LASF256
 527 0011 1D       		.byte	0x1d
 528 0012 62080000 		.4byte	.LASF257
 529 0016 57030000 		.4byte	.LASF258
 530 001a 0C000000 		.4byte	.LLRL0
 531 001e 00000000 		.4byte	0
 532 0022 00000000 		.4byte	.Ldebug_line0
 533 0026 24       		.uleb128 0x24
 534 0027 04       		.byte	0x4
 535 0028 05       		.byte	0x5
 536 0029 696E7400 		.ascii	"int\000"
 537 002d 03       		.uleb128 0x3
 538 002e D2030000 		.4byte	.LASF4
 539 0032 02       		.byte	0x2
 540 0033 D1       		.byte	0xd1
 541 0034 17       		.byte	0x17
 542 0035 39000000 		.4byte	0x39
 543 0039 09       		.uleb128 0x9
 544 003a 04       		.byte	0x4
 545 003b 07       		.byte	0x7
 546 003c 9F000000 		.4byte	.LASF0
 547 0040 09       		.uleb128 0x9
 548 0041 08       		.byte	0x8
 549 0042 05       		.byte	0x5
 550 0043 99050000 		.4byte	.LASF1
 551 0047 09       		.uleb128 0x9
 552 0048 08       		.byte	0x8
 553 0049 04       		.byte	0x4
 554 004a DE060000 		.4byte	.LASF2
 555 004e 09       		.uleb128 0x9
ARM GAS  C:\Users\DEVELO~1\AppData\Local\Temp\cclsZJPb.s 			page 11


 556 004f 01       		.byte	0x1
 557 0050 06       		.byte	0x6
 558 0051 DB090000 		.4byte	.LASF3
 559 0055 03       		.uleb128 0x3
 560 0056 48080000 		.4byte	.LASF5
 561 005a 03       		.byte	0x3
 562 005b 2B       		.byte	0x2b
 563 005c 18       		.byte	0x18
 564 005d 61000000 		.4byte	0x61
 565 0061 09       		.uleb128 0x9
 566 0062 01       		.byte	0x1
 567 0063 08       		.byte	0x8
 568 0064 29090000 		.4byte	.LASF6
 569 0068 09       		.uleb128 0x9
 570 0069 02       		.byte	0x2
 571 006a 05       		.byte	0x5
 572 006b 0E010000 		.4byte	.LASF7
 573 006f 03       		.uleb128 0x3
 574 0070 D9020000 		.4byte	.LASF8
 575 0074 03       		.byte	0x3
 576 0075 39       		.byte	0x39
 577 0076 19       		.byte	0x19
 578 0077 7B000000 		.4byte	0x7b
 579 007b 09       		.uleb128 0x9
 580 007c 02       		.byte	0x2
 581 007d 07       		.byte	0x7
 582 007e ED090000 		.4byte	.LASF9
 583 0082 03       		.uleb128 0x3
 584 0083 CC000000 		.4byte	.LASF10
 585 0087 03       		.byte	0x3
 586 0088 4D       		.byte	0x4d
 587 0089 18       		.byte	0x18
 588 008a 8E000000 		.4byte	0x8e
 589 008e 09       		.uleb128 0x9
 590 008f 04       		.byte	0x4
 591 0090 05       		.byte	0x5
 592 0091 00000000 		.4byte	.LASF11
 593 0095 03       		.uleb128 0x3
 594 0096 3C090000 		.4byte	.LASF12
 595 009a 03       		.byte	0x3
 596 009b 4F       		.byte	0x4f
 597 009c 19       		.byte	0x19
 598 009d A1000000 		.4byte	0xa1
 599 00a1 09       		.uleb128 0x9
 600 00a2 04       		.byte	0x4
 601 00a3 07       		.byte	0x7
 602 00a4 8A080000 		.4byte	.LASF13
 603 00a8 03       		.uleb128 0x3
 604 00a9 30050000 		.4byte	.LASF14
 605 00ad 03       		.byte	0x3
 606 00ae 69       		.byte	0x69
 607 00af 19       		.byte	0x19
 608 00b0 B4000000 		.4byte	0xb4
 609 00b4 09       		.uleb128 0x9
 610 00b5 08       		.byte	0x8
 611 00b6 07       		.byte	0x7
 612 00b7 97020000 		.4byte	.LASF15
ARM GAS  C:\Users\DEVELO~1\AppData\Local\Temp\cclsZJPb.s 			page 12


 613 00bb 03       		.uleb128 0x3
 614 00bc 3B050000 		.4byte	.LASF16
 615 00c0 04       		.byte	0x4
 616 00c1 18       		.byte	0x18
 617 00c2 13       		.byte	0x13
 618 00c3 55000000 		.4byte	0x55
 619 00c7 03       		.uleb128 0x3
 620 00c8 EA060000 		.4byte	.LASF17
 621 00cc 04       		.byte	0x4
 622 00cd 24       		.byte	0x24
 623 00ce 14       		.byte	0x14
 624 00cf 6F000000 		.4byte	0x6f
 625 00d3 03       		.uleb128 0x3
 626 00d4 E4080000 		.4byte	.LASF18
 627 00d8 04       		.byte	0x4
 628 00d9 2C       		.byte	0x2c
 629 00da 13       		.byte	0x13
 630 00db 82000000 		.4byte	0x82
 631 00df 03       		.uleb128 0x3
 632 00e0 B1000000 		.4byte	.LASF19
 633 00e4 04       		.byte	0x4
 634 00e5 30       		.byte	0x30
 635 00e6 14       		.byte	0x14
 636 00e7 95000000 		.4byte	0x95
 637 00eb 15       		.uleb128 0x15
 638 00ec DF000000 		.4byte	0xdf
 639 00f0 03       		.uleb128 0x3
 640 00f1 2C080000 		.4byte	.LASF20
 641 00f5 04       		.byte	0x4
 642 00f6 3C       		.byte	0x3c
 643 00f7 14       		.byte	0x14
 644 00f8 A8000000 		.4byte	0xa8
 645 00fc 15       		.uleb128 0x15
 646 00fd F0000000 		.4byte	0xf0
 647 0101 03       		.uleb128 0x3
 648 0102 F0070000 		.4byte	.LASF21
 649 0106 05       		.byte	0x5
 650 0107 48       		.byte	0x48
 651 0108 1D       		.byte	0x1d
 652 0109 F0000000 		.4byte	0xf0
 653 010d 03       		.uleb128 0x3
 654 010e 070A0000 		.4byte	.LASF22
 655 0112 06       		.byte	0x6
 656 0113 50       		.byte	0x50
 657 0114 19       		.byte	0x19
 658 0115 01010000 		.4byte	0x101
 659 0119 03       		.uleb128 0x3
 660 011a 82060000 		.4byte	.LASF23
 661 011e 06       		.byte	0x6
 662 011f 53       		.byte	0x53
 663 0120 19       		.byte	0x19
 664 0121 BB000000 		.4byte	0xbb
 665 0125 03       		.uleb128 0x3
 666 0126 F2040000 		.4byte	.LASF24
 667 012a 06       		.byte	0x6
 668 012b 54       		.byte	0x54
 669 012c 19       		.byte	0x19
ARM GAS  C:\Users\DEVELO~1\AppData\Local\Temp\cclsZJPb.s 			page 13


 670 012d BB000000 		.4byte	0xbb
 671 0131 03       		.uleb128 0x3
 672 0132 7D080000 		.4byte	.LASF25
 673 0136 06       		.byte	0x6
 674 0137 55       		.byte	0x55
 675 0138 19       		.byte	0x19
 676 0139 BB000000 		.4byte	0xbb
 677 013d 03       		.uleb128 0x3
 678 013e DA010000 		.4byte	.LASF26
 679 0142 06       		.byte	0x6
 680 0143 57       		.byte	0x57
 681 0144 19       		.byte	0x19
 682 0145 DF000000 		.4byte	0xdf
 683 0149 03       		.uleb128 0x3
 684 014a CB050000 		.4byte	.LASF27
 685 014e 06       		.byte	0x6
 686 014f 58       		.byte	0x58
 687 0150 19       		.byte	0x19
 688 0151 D3000000 		.4byte	0xd3
 689 0155 03       		.uleb128 0x3
 690 0156 9D010000 		.4byte	.LASF28
 691 015a 06       		.byte	0x6
 692 015b 5A       		.byte	0x5a
 693 015c 19       		.byte	0x19
 694 015d DF000000 		.4byte	0xdf
 695 0161 03       		.uleb128 0x3
 696 0162 E4020000 		.4byte	.LASF29
 697 0166 06       		.byte	0x6
 698 0167 5C       		.byte	0x5c
 699 0168 19       		.byte	0x19
 700 0169 D3000000 		.4byte	0xd3
 701 016d 03       		.uleb128 0x3
 702 016e 9F0A0000 		.4byte	.LASF30
 703 0172 06       		.byte	0x6
 704 0173 80       		.byte	0x80
 705 0174 12       		.byte	0x12
 706 0175 39000000 		.4byte	0x39
 707 0179 03       		.uleb128 0x3
 708 017a BB030000 		.4byte	.LASF31
 709 017e 06       		.byte	0x6
 710 017f 85       		.byte	0x85
 711 0180 1A       		.byte	0x1a
 712 0181 85010000 		.4byte	0x185
 713 0185 08       		.uleb128 0x8
 714 0186 5C050000 		.4byte	.LASF46
 715 018a 48       		.byte	0x48
 716 018b 07       		.byte	0x7
 717 018c 9C       		.byte	0x9c
 718 018d 08       		.byte	0x8
 719 018e 68020000 		.4byte	0x268
 720 0192 07       		.uleb128 0x7
 721 0193 68647200 		.ascii	"hdr\000"
 722 0197 07       		.byte	0x7
 723 0198 AD       		.byte	0xad
 724 0199 05       		.byte	0x5
 725 019a 9B0A0000 		.4byte	0xa9b
 726 019e 00       		.byte	0
ARM GAS  C:\Users\DEVELO~1\AppData\Local\Temp\cclsZJPb.s 			page 14


 727 019f 07       		.uleb128 0x7
 728 01a0 63747800 		.ascii	"ctx\000"
 729 01a4 07       		.byte	0x7
 730 01a5 B1       		.byte	0xb1
 731 01a6 21       		.byte	0x21
 732 01a7 060A0000 		.4byte	0xa06
 733 01ab 0C       		.byte	0xc
 734 01ac 01       		.uleb128 0x1
 735 01ad FB040000 		.4byte	.LASF32
 736 01b1 07       		.byte	0x7
 737 01b2 B6       		.byte	0xb6
 738 01b3 21       		.byte	0x21
 739 01b4 C2030000 		.4byte	0x3c2
 740 01b8 10       		.byte	0x10
 741 01b9 01       		.uleb128 0x1
 742 01ba 1D030000 		.4byte	.LASF33
 743 01be 07       		.byte	0x7
 744 01bf BB       		.byte	0xbb
 745 01c0 22       		.byte	0x22
 746 01c1 9F0B0000 		.4byte	0xb9f
 747 01c5 18       		.byte	0x18
 748 01c6 01       		.uleb128 0x1
 749 01c7 5D080000 		.4byte	.LASF34
 750 01cb 07       		.byte	0x7
 751 01cc C0       		.byte	0xc0
 752 01cd 22       		.byte	0x22
 753 01ce 50030000 		.4byte	0x350
 754 01d2 1C       		.byte	0x1c
 755 01d3 01       		.uleb128 0x1
 756 01d4 EB040000 		.4byte	.LASF35
 757 01d8 07       		.byte	0x7
 758 01d9 C9       		.byte	0xc9
 759 01da 22       		.byte	0x22
 760 01db A40B0000 		.4byte	0xba4
 761 01df 20       		.byte	0x20
 762 01e0 01       		.uleb128 0x1
 763 01e1 A1090000 		.4byte	.LASF36
 764 01e5 07       		.byte	0x7
 765 01e6 CE       		.byte	0xce
 766 01e7 21       		.byte	0x21
 767 01e8 25010000 		.4byte	0x125
 768 01ec 24       		.byte	0x24
 769 01ed 01       		.uleb128 0x1
 770 01ee 60000000 		.4byte	.LASF37
 771 01f2 07       		.byte	0x7
 772 01f3 D2       		.byte	0xd2
 773 01f4 21       		.byte	0x21
 774 01f5 19010000 		.4byte	0x119
 775 01f9 25       		.byte	0x25
 776 01fa 01       		.uleb128 0x1
 777 01fb D6000000 		.4byte	.LASF38
 778 01ff 07       		.byte	0x7
 779 0200 D7       		.byte	0xd7
 780 0201 21       		.byte	0x21
 781 0202 31010000 		.4byte	0x131
 782 0206 26       		.byte	0x26
 783 0207 05       		.uleb128 0x5
ARM GAS  C:\Users\DEVELO~1\AppData\Local\Temp\cclsZJPb.s 			page 15


 784 0208 7500     		.ascii	"u\000"
 785 020a 07       		.byte	0x7
 786 020b 2801     		.2byte	0x128
 787 020d 21       		.byte	0x21
 788 020e C90A0000 		.4byte	0xac9
 789 0212 28       		.byte	0x28
 790 0213 02       		.uleb128 0x2
 791 0214 47090000 		.4byte	.LASF39
 792 0218 07       		.byte	0x7
 793 0219 2D01     		.2byte	0x12d
 794 021b 21       		.byte	0x21
 795 021c 96030000 		.4byte	0x396
 796 0220 2C       		.byte	0x2c
 797 0221 02       		.uleb128 0x2
 798 0222 E2010000 		.4byte	.LASF40
 799 0226 07       		.byte	0x7
 800 0227 3301     		.2byte	0x133
 801 0229 21       		.byte	0x21
 802 022a C2030000 		.4byte	0x3c2
 803 022e 30       		.byte	0x30
 804 022f 02       		.uleb128 0x2
 805 0230 96000000 		.4byte	.LASF41
 806 0234 07       		.byte	0x7
 807 0235 3901     		.2byte	0x139
 808 0237 21       		.byte	0x21
 809 0238 55010000 		.4byte	0x155
 810 023c 38       		.byte	0x38
 811 023d 02       		.uleb128 0x2
 812 023e 38030000 		.4byte	.LASF42
 813 0242 07       		.byte	0x7
 814 0243 4001     		.2byte	0x140
 815 0245 22       		.byte	0x22
 816 0246 9A0B0000 		.4byte	0xb9a
 817 024a 3C       		.byte	0x3c
 818 024b 02       		.uleb128 0x2
 819 024c 70000000 		.4byte	.LASF43
 820 0250 07       		.byte	0x7
 821 0251 4401     		.2byte	0x144
 822 0253 21       		.byte	0x21
 823 0254 3D010000 		.4byte	0x13d
 824 0258 40       		.byte	0x40
 825 0259 02       		.uleb128 0x2
 826 025a A90A0000 		.4byte	.LASF44
 827 025e 07       		.byte	0x7
 828 025f 4B01     		.2byte	0x14b
 829 0261 22       		.byte	0x22
 830 0262 B0040000 		.4byte	0x4b0
 831 0266 44       		.byte	0x44
 832 0267 00       		.byte	0
 833 0268 03       		.uleb128 0x3
 834 0269 AC090000 		.4byte	.LASF45
 835 026d 06       		.byte	0x6
 836 026e 8A       		.byte	0x8a
 837 026f 1F       		.byte	0x1f
 838 0270 74020000 		.4byte	0x274
 839 0274 25       		.uleb128 0x25
 840 0275 38040000 		.4byte	.LASF47
ARM GAS  C:\Users\DEVELO~1\AppData\Local\Temp\cclsZJPb.s 			page 16


 841 0279 9008     		.2byte	0x890
 842 027b 07       		.byte	0x7
 843 027c 8A01     		.2byte	0x18a
 844 027e 08       		.byte	0x8
 845 027f 02030000 		.4byte	0x302
 846 0283 02       		.uleb128 0x2
 847 0284 42080000 		.4byte	.LASF48
 848 0288 07       		.byte	0x7
 849 0289 8E01     		.2byte	0x18e
 850 028b 21       		.byte	0x21
 851 028c D40B0000 		.4byte	0xbd4
 852 0290 00       		.byte	0
 853 0291 02       		.uleb128 0x2
 854 0292 FA000000 		.4byte	.LASF49
 855 0296 07       		.byte	0x7
 856 0297 9201     		.2byte	0x192
 857 0299 21       		.byte	0x21
 858 029a 5C0A0000 		.4byte	0xa5c
 859 029e 10       		.byte	0x10
 860 029f 02       		.uleb128 0x2
 861 02a0 BA090000 		.4byte	.LASF50
 862 02a4 07       		.byte	0x7
 863 02a5 9901     		.2byte	0x199
 864 02a7 21       		.byte	0x21
 865 02a8 830A0000 		.4byte	0xa83
 866 02ac 28       		.byte	0x28
 867 02ad 02       		.uleb128 0x2
 868 02ae BA000000 		.4byte	.LASF51
 869 02b2 07       		.byte	0x7
 870 02b3 9E01     		.2byte	0x19e
 871 02b5 21       		.byte	0x21
 872 02b6 6D010000 		.4byte	0x16d
 873 02ba 30       		.byte	0x30
 874 02bb 02       		.uleb128 0x2
 875 02bc B6030000 		.4byte	.LASF52
 876 02c0 07       		.byte	0x7
 877 02c1 A401     		.2byte	0x1a4
 878 02c3 21       		.byte	0x21
 879 02c4 29030000 		.4byte	0x329
 880 02c8 34       		.byte	0x34
 881 02c9 02       		.uleb128 0x2
 882 02ca 1E070000 		.4byte	.LASF53
 883 02ce 07       		.byte	0x7
 884 02cf A901     		.2byte	0x1a9
 885 02d1 22       		.byte	0x22
 886 02d2 480C0000 		.4byte	0xc48
 887 02d6 38       		.byte	0x38
 888 02d7 02       		.uleb128 0x2
 889 02d8 AE060000 		.4byte	.LASF54
 890 02dc 07       		.byte	0x7
 891 02dd AD01     		.2byte	0x1ad
 892 02df 21       		.byte	0x21
 893 02e0 79010000 		.4byte	0x179
 894 02e4 3C       		.byte	0x3c
 895 02e5 05       		.uleb128 0x5
 896 02e6 64626700 		.ascii	"dbg\000"
 897 02ea 07       		.byte	0x7
ARM GAS  C:\Users\DEVELO~1\AppData\Local\Temp\cclsZJPb.s 			page 17


 898 02eb B101     		.2byte	0x1b1
 899 02ed 21       		.byte	0x21
 900 02ee 66030000 		.4byte	0x366
 901 02f2 84       		.byte	0x84
 902 02f3 02       		.uleb128 0x2
 903 02f4 BE020000 		.4byte	.LASF55
 904 02f8 07       		.byte	0x7
 905 02f9 B601     		.2byte	0x1b6
 906 02fb 21       		.byte	0x21
 907 02fc 12060000 		.4byte	0x612
 908 0300 88       		.byte	0x88
 909 0301 00       		.byte	0
 910 0302 03       		.uleb128 0x3
 911 0303 C4040000 		.4byte	.LASF56
 912 0307 08       		.byte	0x8
 913 0308 3F       		.byte	0x3f
 914 0309 12       		.byte	0x12
 915 030a DF000000 		.4byte	0xdf
 916 030e 08       		.uleb128 0x8
 917 030f 22040000 		.4byte	.LASF57
 918 0313 04       		.byte	0x4
 919 0314 08       		.byte	0x8
 920 0315 44       		.byte	0x44
 921 0316 10       		.byte	0x10
 922 0317 29030000 		.4byte	0x329
 923 031b 01       		.uleb128 0x1
 924 031c 45060000 		.4byte	.LASF58
 925 0320 08       		.byte	0x8
 926 0321 48       		.byte	0x48
 927 0322 21       		.byte	0x21
 928 0323 02030000 		.4byte	0x302
 929 0327 00       		.byte	0
 930 0328 00       		.byte	0
 931 0329 03       		.uleb128 0x3
 932 032a EC080000 		.4byte	.LASF59
 933 032e 08       		.byte	0x8
 934 032f 49       		.byte	0x49
 935 0330 03       		.byte	0x3
 936 0331 0E030000 		.4byte	0x30e
 937 0335 08       		.uleb128 0x8
 938 0336 5F010000 		.4byte	.LASF60
 939 033a 04       		.byte	0x4
 940 033b 09       		.byte	0x9
 941 033c 3E       		.byte	0x3e
 942 033d 10       		.byte	0x10
 943 033e 50030000 		.4byte	0x350
 944 0342 01       		.uleb128 0x1
 945 0343 69060000 		.4byte	.LASF61
 946 0347 09       		.byte	0x9
 947 0348 46       		.byte	0x46
 948 0349 24       		.byte	0x24
 949 034a 55030000 		.4byte	0x355
 950 034e 00       		.byte	0
 951 034f 00       		.byte	0
 952 0350 04       		.uleb128 0x4
 953 0351 61030000 		.4byte	0x361
 954 0355 15       		.uleb128 0x15
ARM GAS  C:\Users\DEVELO~1\AppData\Local\Temp\cclsZJPb.s 			page 18


 955 0356 50030000 		.4byte	0x350
 956 035a 09       		.uleb128 0x9
 957 035b 01       		.byte	0x1
 958 035c 08       		.byte	0x8
 959 035d A5040000 		.4byte	.LASF62
 960 0361 12       		.uleb128 0x12
 961 0362 5A030000 		.4byte	0x35a
 962 0366 03       		.uleb128 0x3
 963 0367 76050000 		.4byte	.LASF63
 964 036b 09       		.byte	0x9
 965 036c 51       		.byte	0x51
 966 036d 03       		.byte	0x3
 967 036e 35030000 		.4byte	0x335
 968 0372 03       		.uleb128 0x3
 969 0373 66000000 		.4byte	.LASF64
 970 0377 0A       		.byte	0xa
 971 0378 6D       		.byte	0x6d
 972 0379 12       		.byte	0x12
 973 037a DF000000 		.4byte	0xdf
 974 037e 03       		.uleb128 0x3
 975 037f 50060000 		.4byte	.LASF65
 976 0383 0A       		.byte	0xa
 977 0384 79       		.byte	0x79
 978 0385 12       		.byte	0x12
 979 0386 DF000000 		.4byte	0xdf
 980 038a 03       		.uleb128 0x3
 981 038b DF040000 		.4byte	.LASF66
 982 038f 0A       		.byte	0xa
 983 0390 9B       		.byte	0x9b
 984 0391 12       		.byte	0x12
 985 0392 F0000000 		.4byte	0xf0
 986 0396 03       		.uleb128 0x3
 987 0397 F3060000 		.4byte	.LASF67
 988 039b 0B       		.byte	0xb
 989 039c 32       		.byte	0x32
 990 039d 18       		.byte	0x18
 991 039e A2030000 		.4byte	0x3a2
 992 03a2 08       		.uleb128 0x8
 993 03a3 41010000 		.4byte	.LASF68
 994 03a7 04       		.byte	0x4
 995 03a8 0B       		.byte	0xb
 996 03a9 38       		.byte	0x38
 997 03aa 08       		.byte	0x8
 998 03ab BD030000 		.4byte	0x3bd
 999 03af 01       		.uleb128 0x1
 1000 03b0 AC000000 		.4byte	.LASF69
 1001 03b4 0B       		.byte	0xb
 1002 03b5 39       		.byte	0x39
 1003 03b6 1A       		.byte	0x1a
 1004 03b7 BD030000 		.4byte	0x3bd
 1005 03bb 00       		.byte	0
 1006 03bc 00       		.byte	0
 1007 03bd 04       		.uleb128 0x4
 1008 03be 96030000 		.4byte	0x396
 1009 03c2 03       		.uleb128 0x3
 1010 03c3 5E060000 		.4byte	.LASF70
 1011 03c7 0B       		.byte	0xb
ARM GAS  C:\Users\DEVELO~1\AppData\Local\Temp\cclsZJPb.s 			page 19


 1012 03c8 3F       		.byte	0x3f
 1013 03c9 19       		.byte	0x19
 1014 03ca CE030000 		.4byte	0x3ce
 1015 03ce 08       		.uleb128 0x8
 1016 03cf 13090000 		.4byte	.LASF71
 1017 03d3 08       		.byte	0x8
 1018 03d4 0B       		.byte	0xb
 1019 03d5 45       		.byte	0x45
 1020 03d6 08       		.byte	0x8
 1021 03d7 F6030000 		.4byte	0x3f6
 1022 03db 01       		.uleb128 0x1
 1023 03dc AC000000 		.4byte	.LASF69
 1024 03e0 0B       		.byte	0xb
 1025 03e1 46       		.byte	0x46
 1026 03e2 1A       		.byte	0x1a
 1027 03e3 F6030000 		.4byte	0x3f6
 1028 03e7 00       		.byte	0
 1029 03e8 01       		.uleb128 0x1
 1030 03e9 3C010000 		.4byte	.LASF72
 1031 03ed 0B       		.byte	0xb
 1032 03ee 47       		.byte	0x47
 1033 03ef 1A       		.byte	0x1a
 1034 03f0 F6030000 		.4byte	0x3f6
 1035 03f4 04       		.byte	0x4
 1036 03f5 00       		.byte	0
 1037 03f6 04       		.uleb128 0x4
 1038 03f7 C2030000 		.4byte	0x3c2
 1039 03fb 03       		.uleb128 0x3
 1040 03fc EA030000 		.4byte	.LASF73
 1041 0400 0B       		.byte	0xb
 1042 0401 4E       		.byte	0x4e
 1043 0402 22       		.byte	0x22
 1044 0403 07040000 		.4byte	0x407
 1045 0407 08       		.uleb128 0x8
 1046 0408 01090000 		.4byte	.LASF74
 1047 040c 0C       		.byte	0xc
 1048 040d 0B       		.byte	0xb
 1049 040e 55       		.byte	0x55
 1050 040f 08       		.byte	0x8
 1051 0410 3C040000 		.4byte	0x43c
 1052 0414 01       		.uleb128 0x1
 1053 0415 AC000000 		.4byte	.LASF69
 1054 0419 0B       		.byte	0xb
 1055 041a 56       		.byte	0x56
 1056 041b 1A       		.byte	0x1a
 1057 041c 3C040000 		.4byte	0x43c
 1058 0420 00       		.byte	0
 1059 0421 01       		.uleb128 0x1
 1060 0422 3C010000 		.4byte	.LASF72
 1061 0426 0B       		.byte	0xb
 1062 0427 57       		.byte	0x57
 1063 0428 1A       		.byte	0x1a
 1064 0429 3C040000 		.4byte	0x43c
 1065 042d 04       		.byte	0x4
 1066 042e 01       		.uleb128 0x1
 1067 042f 8D040000 		.4byte	.LASF75
 1068 0433 0B       		.byte	0xb
ARM GAS  C:\Users\DEVELO~1\AppData\Local\Temp\cclsZJPb.s 			page 20


 1069 0434 58       		.byte	0x58
 1070 0435 19       		.byte	0x19
 1071 0436 3D010000 		.4byte	0x13d
 1072 043a 08       		.byte	0x8
 1073 043b 00       		.byte	0
 1074 043c 04       		.uleb128 0x4
 1075 043d FB030000 		.4byte	0x3fb
 1076 0441 03       		.uleb128 0x3
 1077 0442 B4040000 		.4byte	.LASF76
 1078 0446 0B       		.byte	0xb
 1079 0447 5F       		.byte	0x5f
 1080 0448 1E       		.byte	0x1e
 1081 0449 4D040000 		.4byte	0x44d
 1082 044d 08       		.uleb128 0x8
 1083 044e 74010000 		.4byte	.LASF77
 1084 0452 0C       		.byte	0xc
 1085 0453 0B       		.byte	0xb
 1086 0454 64       		.byte	0x64
 1087 0455 08       		.byte	0x8
 1088 0456 82040000 		.4byte	0x482
 1089 045a 01       		.uleb128 0x1
 1090 045b AC000000 		.4byte	.LASF69
 1091 045f 0B       		.byte	0xb
 1092 0460 65       		.byte	0x65
 1093 0461 1A       		.byte	0x1a
 1094 0462 82040000 		.4byte	0x482
 1095 0466 00       		.byte	0
 1096 0467 01       		.uleb128 0x1
 1097 0468 3C010000 		.4byte	.LASF72
 1098 046c 0B       		.byte	0xb
 1099 046d 66       		.byte	0x66
 1100 046e 1A       		.byte	0x1a
 1101 046f 82040000 		.4byte	0x482
 1102 0473 04       		.byte	0x4
 1103 0474 01       		.uleb128 0x1
 1104 0475 E7090000 		.4byte	.LASF78
 1105 0479 0B       		.byte	0xb
 1106 047a 67       		.byte	0x67
 1107 047b 19       		.byte	0x19
 1108 047c 7E030000 		.4byte	0x37e
 1109 0480 08       		.byte	0x8
 1110 0481 00       		.byte	0
 1111 0482 04       		.uleb128 0x4
 1112 0483 41040000 		.4byte	0x441
 1113 0487 0B       		.uleb128 0xb
 1114 0488 08       		.byte	0x8
 1115 0489 0C       		.byte	0xc
 1116 048a 83       		.byte	0x83
 1117 048b 05       		.byte	0x5
 1118 048c AB040000 		.4byte	0x4ab
 1119 0490 07       		.uleb128 0x7
 1120 0491 6E747000 		.ascii	"ntp\000"
 1121 0495 0C       		.byte	0xc
 1122 0496 87       		.byte	0x87
 1123 0497 1E       		.byte	0x1e
 1124 0498 AB040000 		.4byte	0x4ab
 1125 049c 00       		.byte	0
ARM GAS  C:\Users\DEVELO~1\AppData\Local\Temp\cclsZJPb.s 			page 21


 1126 049d 01       		.uleb128 0x1
 1127 049e F3000000 		.4byte	.LASF79
 1128 04a2 0C       		.byte	0xc
 1129 04a3 8B       		.byte	0x8b
 1130 04a4 1E       		.byte	0x1e
 1131 04a5 B0040000 		.4byte	0x4b0
 1132 04a9 04       		.byte	0x4
 1133 04aa 00       		.byte	0
 1134 04ab 04       		.uleb128 0x4
 1135 04ac 79010000 		.4byte	0x179
 1136 04b0 26       		.uleb128 0x26
 1137 04b1 04       		.byte	0x4
 1138 04b2 0B       		.uleb128 0xb
 1139 04b3 08       		.byte	0x8
 1140 04b4 0C       		.byte	0xc
 1141 04b5 90       		.byte	0x90
 1142 04b6 05       		.byte	0x5
 1143 04b7 D5040000 		.4byte	0x4d5
 1144 04bb 07       		.uleb128 0x7
 1145 04bc 747000   		.ascii	"tp\000"
 1146 04bf 0C       		.byte	0xc
 1147 04c0 94       		.byte	0x94
 1148 04c1 1E       		.byte	0x1e
 1149 04c2 AB040000 		.4byte	0x4ab
 1150 04c6 00       		.byte	0
 1151 04c7 07       		.uleb128 0x7
 1152 04c8 6D736700 		.ascii	"msg\000"
 1153 04cc 0C       		.byte	0xc
 1154 04cd 98       		.byte	0x98
 1155 04ce 1D       		.byte	0x1d
 1156 04cf 49010000 		.4byte	0x149
 1157 04d3 04       		.byte	0x4
 1158 04d4 00       		.byte	0
 1159 04d5 0B       		.uleb128 0xb
 1160 04d6 04       		.byte	0x4
 1161 04d7 0C       		.byte	0xc
 1162 04d8 9D       		.byte	0x9d
 1163 04d9 05       		.byte	0x5
 1164 04da EC040000 		.4byte	0x4ec
 1165 04de 01       		.uleb128 0x1
 1166 04df 5D080000 		.4byte	.LASF34
 1167 04e3 0C       		.byte	0xc
 1168 04e4 A1       		.byte	0xa1
 1169 04e5 1E       		.byte	0x1e
 1170 04e6 50030000 		.4byte	0x350
 1171 04ea 00       		.byte	0
 1172 04eb 00       		.byte	0
 1173 04ec 0B       		.uleb128 0xb
 1174 04ed 04       		.byte	0x4
 1175 04ee 0C       		.byte	0xc
 1176 04ef A6       		.byte	0xa6
 1177 04f0 05       		.byte	0x5
 1178 04f1 03050000 		.4byte	0x503
 1179 04f5 01       		.uleb128 0x1
 1180 04f6 350A0000 		.4byte	.LASF80
 1181 04fa 0C       		.byte	0xc
 1182 04fb AA       		.byte	0xaa
ARM GAS  C:\Users\DEVELO~1\AppData\Local\Temp\cclsZJPb.s 			page 22


 1183 04fc 1E       		.byte	0x1e
 1184 04fd 50030000 		.4byte	0x350
 1185 0501 00       		.byte	0
 1186 0502 00       		.byte	0
 1187 0503 0B       		.uleb128 0xb
 1188 0504 08       		.byte	0x8
 1189 0505 0C       		.byte	0xc
 1190 0506 AF       		.byte	0xaf
 1191 0507 05       		.byte	0x5
 1192 0508 27050000 		.4byte	0x527
 1193 050c 07       		.uleb128 0x7
 1194 050d 75703100 		.ascii	"up1\000"
 1195 0511 0C       		.byte	0xc
 1196 0512 B3       		.byte	0xb3
 1197 0513 1E       		.byte	0x1e
 1198 0514 B0040000 		.4byte	0x4b0
 1199 0518 00       		.byte	0
 1200 0519 07       		.uleb128 0x7
 1201 051a 75703200 		.ascii	"up2\000"
 1202 051e 0C       		.byte	0xc
 1203 051f B7       		.byte	0xb7
 1204 0520 1E       		.byte	0x1e
 1205 0521 B0040000 		.4byte	0x4b0
 1206 0525 04       		.byte	0x4
 1207 0526 00       		.byte	0
 1208 0527 16       		.uleb128 0x16
 1209 0528 08       		.byte	0x8
 1210 0529 0C       		.byte	0xc
 1211 052a 7F       		.byte	0x7f
 1212 052b 03       		.byte	0x3
 1213 052c 6C050000 		.4byte	0x56c
 1214 0530 13       		.uleb128 0x13
 1215 0531 737700   		.ascii	"sw\000"
 1216 0534 0C       		.byte	0xc
 1217 0535 8C       		.byte	0x8c
 1218 0536 07       		.byte	0x7
 1219 0537 87040000 		.4byte	0x487
 1220 053b 13       		.uleb128 0x13
 1221 053c 72647900 		.ascii	"rdy\000"
 1222 0540 0C       		.byte	0xc
 1223 0541 99       		.byte	0x99
 1224 0542 07       		.byte	0x7
 1225 0543 B2040000 		.4byte	0x4b2
 1226 0547 13       		.uleb128 0x13
 1227 0548 69737200 		.ascii	"isr\000"
 1228 054c 0C       		.byte	0xc
 1229 054d A2       		.byte	0xa2
 1230 054e 07       		.byte	0x7
 1231 054f D5040000 		.4byte	0x4d5
 1232 0553 0D       		.uleb128 0xd
 1233 0554 92020000 		.4byte	.LASF81
 1234 0558 0C       		.byte	0xc
 1235 0559 AB       		.byte	0xab
 1236 055a 07       		.byte	0x7
 1237 055b EC040000 		.4byte	0x4ec
 1238 055f 0D       		.uleb128 0xd
 1239 0560 CD030000 		.4byte	.LASF82
ARM GAS  C:\Users\DEVELO~1\AppData\Local\Temp\cclsZJPb.s 			page 23


 1240 0564 0C       		.byte	0xc
 1241 0565 B8       		.byte	0xb8
 1242 0566 07       		.byte	0x7
 1243 0567 03050000 		.4byte	0x503
 1244 056b 00       		.byte	0
 1245 056c 0B       		.uleb128 0xb
 1246 056d 10       		.byte	0x10
 1247 056e 0C       		.byte	0xc
 1248 056f 6C       		.byte	0x6c
 1249 0570 09       		.byte	0x9
 1250 0571 B2050000 		.4byte	0x5b2
 1251 0575 1B       		.uleb128 0x1b
 1252 0576 24090000 		.4byte	.LASF83
 1253 057a 70       		.byte	0x70
 1254 057b DF000000 		.4byte	0xdf
 1255 057f 03       		.byte	0x3
 1256 0580 00       		.byte	0
 1257 0581 1B       		.uleb128 0x1b
 1258 0582 A1090000 		.4byte	.LASF36
 1259 0586 74       		.byte	0x74
 1260 0587 DF000000 		.4byte	0xdf
 1261 058b 05       		.byte	0x5
 1262 058c 03       		.byte	0x3
 1263 058d 1B       		.uleb128 0x1b
 1264 058e CA080000 		.4byte	.LASF84
 1265 0592 7A       		.byte	0x7a
 1266 0593 DF000000 		.4byte	0xdf
 1267 0597 18       		.byte	0x18
 1268 0598 08       		.byte	0x8
 1269 0599 01       		.uleb128 0x1
 1270 059a 06030000 		.4byte	.LASF85
 1271 059e 0C       		.byte	0xc
 1272 059f 7E       		.byte	0x7e
 1273 05a0 19       		.byte	0x19
 1274 05a1 72030000 		.4byte	0x372
 1275 05a5 04       		.byte	0x4
 1276 05a6 07       		.uleb128 0x7
 1277 05a7 7500     		.ascii	"u\000"
 1278 05a9 0C       		.byte	0xc
 1279 05aa B9       		.byte	0xb9
 1280 05ab 05       		.byte	0x5
 1281 05ac 27050000 		.4byte	0x527
 1282 05b0 08       		.byte	0x8
 1283 05b1 00       		.byte	0
 1284 05b2 03       		.uleb128 0x3
 1285 05b3 AE010000 		.4byte	.LASF86
 1286 05b7 0C       		.byte	0xc
 1287 05b8 BA       		.byte	0xba
 1288 05b9 03       		.byte	0x3
 1289 05ba 6C050000 		.4byte	0x56c
 1290 05be 27       		.uleb128 0x27
 1291 05bf 0808     		.2byte	0x808
 1292 05c1 0C       		.byte	0xc
 1293 05c2 C0       		.byte	0xc0
 1294 05c3 09       		.byte	0x9
 1295 05c4 FD050000 		.4byte	0x5fd
 1296 05c8 01       		.uleb128 0x1
ARM GAS  C:\Users\DEVELO~1\AppData\Local\Temp\cclsZJPb.s 			page 24


 1297 05c9 80000000 		.4byte	.LASF87
 1298 05cd 0C       		.byte	0xc
 1299 05ce C4       		.byte	0xc4
 1300 05cf 19       		.byte	0x19
 1301 05d0 C7000000 		.4byte	0xc7
 1302 05d4 00       		.byte	0
 1303 05d5 01       		.uleb128 0x1
 1304 05d6 40060000 		.4byte	.LASF88
 1305 05da 0C       		.byte	0xc
 1306 05db C8       		.byte	0xc8
 1307 05dc 19       		.byte	0x19
 1308 05dd C7000000 		.4byte	0xc7
 1309 05e1 02       		.byte	0x2
 1310 05e2 07       		.uleb128 0x7
 1311 05e3 70747200 		.ascii	"ptr\000"
 1312 05e7 0C       		.byte	0xc
 1313 05e8 CC       		.byte	0xcc
 1314 05e9 1A       		.byte	0x1a
 1315 05ea FD050000 		.4byte	0x5fd
 1316 05ee 04       		.byte	0x4
 1317 05ef 01       		.uleb128 0x1
 1318 05f0 79000000 		.4byte	.LASF89
 1319 05f4 0C       		.byte	0xc
 1320 05f5 D0       		.byte	0xd0
 1321 05f6 19       		.byte	0x19
 1322 05f7 02060000 		.4byte	0x602
 1323 05fb 08       		.byte	0x8
 1324 05fc 00       		.byte	0
 1325 05fd 04       		.uleb128 0x4
 1326 05fe B2050000 		.4byte	0x5b2
 1327 0602 0E       		.uleb128 0xe
 1328 0603 B2050000 		.4byte	0x5b2
 1329 0607 12060000 		.4byte	0x612
 1330 060b 0F       		.uleb128 0xf
 1331 060c 39000000 		.4byte	0x39
 1332 0610 7F       		.byte	0x7f
 1333 0611 00       		.byte	0
 1334 0612 03       		.uleb128 0x3
 1335 0613 73060000 		.4byte	.LASF90
 1336 0617 0C       		.byte	0xc
 1337 0618 D1       		.byte	0xd1
 1338 0619 03       		.byte	0x3
 1339 061a BE050000 		.4byte	0x5be
 1340 061e 0E       		.uleb128 0xe
 1341 061f DF000000 		.4byte	0xdf
 1342 0623 2E060000 		.4byte	0x62e
 1343 0627 0F       		.uleb128 0xf
 1344 0628 39000000 		.4byte	0x39
 1345 062c 01       		.byte	0x1
 1346 062d 00       		.byte	0
 1347 062e 0B       		.uleb128 0xb
 1348 062f CC       		.byte	0xcc
 1349 0630 0D       		.byte	0xd
 1350 0631 F3       		.byte	0xf3
 1351 0632 09       		.byte	0x9
 1352 0633 77080000 		.4byte	0x877
 1353 0637 07       		.uleb128 0x7
ARM GAS  C:\Users\DEVELO~1\AppData\Local\Temp\cclsZJPb.s 			page 25


 1354 0638 49535200 		.ascii	"ISR\000"
 1355 063c 0D       		.byte	0xd
 1356 063d F5       		.byte	0xf5
 1357 063e 11       		.byte	0x11
 1358 063f EB000000 		.4byte	0xeb
 1359 0643 00       		.byte	0
 1360 0644 07       		.uleb128 0x7
 1361 0645 49455200 		.ascii	"IER\000"
 1362 0649 0D       		.byte	0xd
 1363 064a F6       		.byte	0xf6
 1364 064b 11       		.byte	0x11
 1365 064c EB000000 		.4byte	0xeb
 1366 0650 04       		.byte	0x4
 1367 0651 07       		.uleb128 0x7
 1368 0652 435200   		.ascii	"CR\000"
 1369 0655 0D       		.byte	0xd
 1370 0656 F7       		.byte	0xf7
 1371 0657 11       		.byte	0x11
 1372 0658 EB000000 		.4byte	0xeb
 1373 065c 08       		.byte	0x8
 1374 065d 01       		.uleb128 0x1
 1375 065e 3D080000 		.4byte	.LASF91
 1376 0662 0D       		.byte	0xd
 1377 0663 F8       		.byte	0xf8
 1378 0664 11       		.byte	0x11
 1379 0665 EB000000 		.4byte	0xeb
 1380 0669 0C       		.byte	0xc
 1381 066a 01       		.uleb128 0x1
 1382 066b 4A060000 		.4byte	.LASF92
 1383 066f 0D       		.byte	0xd
 1384 0670 F9       		.byte	0xf9
 1385 0671 11       		.byte	0x11
 1386 0672 EB000000 		.4byte	0xeb
 1387 0676 10       		.byte	0x10
 1388 0677 01       		.uleb128 0x1
 1389 0678 9D060000 		.4byte	.LASF93
 1390 067c 0D       		.byte	0xd
 1391 067d FA       		.byte	0xfa
 1392 067e 11       		.byte	0x11
 1393 067f EB000000 		.4byte	0xeb
 1394 0683 14       		.byte	0x14
 1395 0684 01       		.uleb128 0x1
 1396 0685 A3060000 		.4byte	.LASF94
 1397 0689 0D       		.byte	0xd
 1398 068a FB       		.byte	0xfb
 1399 068b 11       		.byte	0x11
 1400 068c EB000000 		.4byte	0xeb
 1401 0690 18       		.byte	0x18
 1402 0691 01       		.uleb128 0x1
 1403 0692 B8020000 		.4byte	.LASF95
 1404 0696 0D       		.byte	0xd
 1405 0697 FC       		.byte	0xfc
 1406 0698 11       		.byte	0x11
 1407 0699 EB000000 		.4byte	0xeb
 1408 069d 1C       		.byte	0x1c
 1409 069e 01       		.uleb128 0x1
 1410 069f 49010000 		.4byte	.LASF96
ARM GAS  C:\Users\DEVELO~1\AppData\Local\Temp\cclsZJPb.s 			page 26


 1411 06a3 0D       		.byte	0xd
 1412 06a4 FD       		.byte	0xfd
 1413 06a5 11       		.byte	0x11
 1414 06a6 EB000000 		.4byte	0xeb
 1415 06aa 20       		.byte	0x20
 1416 06ab 01       		.uleb128 0x1
 1417 06ac 6B090000 		.4byte	.LASF97
 1418 06b0 0D       		.byte	0xd
 1419 06b1 FE       		.byte	0xfe
 1420 06b2 11       		.byte	0x11
 1421 06b3 EB000000 		.4byte	0xeb
 1422 06b7 24       		.byte	0x24
 1423 06b8 01       		.uleb128 0x1
 1424 06b9 50070000 		.4byte	.LASF98
 1425 06bd 0D       		.byte	0xd
 1426 06be FF       		.byte	0xff
 1427 06bf 11       		.byte	0x11
 1428 06c0 DF000000 		.4byte	0xdf
 1429 06c4 28       		.byte	0x28
 1430 06c5 02       		.uleb128 0x2
 1431 06c6 5A070000 		.4byte	.LASF99
 1432 06ca 0D       		.byte	0xd
 1433 06cb 0001     		.2byte	0x100
 1434 06cd 11       		.byte	0x11
 1435 06ce DF000000 		.4byte	0xdf
 1436 06d2 2C       		.byte	0x2c
 1437 06d3 02       		.uleb128 0x2
 1438 06d4 6E080000 		.4byte	.LASF100
 1439 06d8 0D       		.byte	0xd
 1440 06d9 0101     		.2byte	0x101
 1441 06db 11       		.byte	0x11
 1442 06dc EB000000 		.4byte	0xeb
 1443 06e0 30       		.byte	0x30
 1444 06e1 02       		.uleb128 0x2
 1445 06e2 73080000 		.4byte	.LASF101
 1446 06e6 0D       		.byte	0xd
 1447 06e7 0201     		.2byte	0x102
 1448 06e9 11       		.byte	0x11
 1449 06ea EB000000 		.4byte	0xeb
 1450 06ee 34       		.byte	0x34
 1451 06ef 02       		.uleb128 0x2
 1452 06f0 78080000 		.4byte	.LASF102
 1453 06f4 0D       		.byte	0xd
 1454 06f5 0301     		.2byte	0x103
 1455 06f7 11       		.byte	0x11
 1456 06f8 EB000000 		.4byte	0xeb
 1457 06fc 38       		.byte	0x38
 1458 06fd 02       		.uleb128 0x2
 1459 06fe 09000000 		.4byte	.LASF103
 1460 0702 0D       		.byte	0xd
 1461 0703 0401     		.2byte	0x104
 1462 0705 11       		.byte	0x11
 1463 0706 EB000000 		.4byte	0xeb
 1464 070a 3C       		.byte	0x3c
 1465 070b 05       		.uleb128 0x5
 1466 070c 445200   		.ascii	"DR\000"
 1467 070f 0D       		.byte	0xd
ARM GAS  C:\Users\DEVELO~1\AppData\Local\Temp\cclsZJPb.s 			page 27


 1468 0710 0501     		.2byte	0x105
 1469 0712 11       		.byte	0x11
 1470 0713 EB000000 		.4byte	0xeb
 1471 0717 40       		.byte	0x40
 1472 0718 02       		.uleb128 0x2
 1473 0719 64070000 		.4byte	.LASF104
 1474 071d 0D       		.byte	0xd
 1475 071e 0601     		.2byte	0x106
 1476 0720 11       		.byte	0x11
 1477 0721 DF000000 		.4byte	0xdf
 1478 0725 44       		.byte	0x44
 1479 0726 02       		.uleb128 0x2
 1480 0727 6E070000 		.4byte	.LASF105
 1481 072b 0D       		.byte	0xd
 1482 072c 0701     		.2byte	0x107
 1483 072e 11       		.byte	0x11
 1484 072f DF000000 		.4byte	0xdf
 1485 0733 48       		.byte	0x48
 1486 0734 02       		.uleb128 0x2
 1487 0735 A7090000 		.4byte	.LASF106
 1488 0739 0D       		.byte	0xd
 1489 073a 0801     		.2byte	0x108
 1490 073c 11       		.byte	0x11
 1491 073d EB000000 		.4byte	0xeb
 1492 0741 4C       		.byte	0x4c
 1493 0742 02       		.uleb128 0x2
 1494 0743 2B0A0000 		.4byte	.LASF107
 1495 0747 0D       		.byte	0xd
 1496 0748 0901     		.2byte	0x109
 1497 074a 11       		.byte	0x11
 1498 074b 77080000 		.4byte	0x877
 1499 074f 50       		.byte	0x50
 1500 0750 02       		.uleb128 0x2
 1501 0751 FE030000 		.4byte	.LASF108
 1502 0755 0D       		.byte	0xd
 1503 0756 0A01     		.2byte	0x10a
 1504 0758 11       		.byte	0x11
 1505 0759 EB000000 		.4byte	0xeb
 1506 075d 60       		.byte	0x60
 1507 075e 02       		.uleb128 0x2
 1508 075f 36000000 		.4byte	.LASF109
 1509 0763 0D       		.byte	0xd
 1510 0764 0B01     		.2byte	0x10b
 1511 0766 11       		.byte	0x11
 1512 0767 EB000000 		.4byte	0xeb
 1513 076b 64       		.byte	0x64
 1514 076c 02       		.uleb128 0x2
 1515 076d 09040000 		.4byte	.LASF110
 1516 0771 0D       		.byte	0xd
 1517 0772 0C01     		.2byte	0x10c
 1518 0774 11       		.byte	0x11
 1519 0775 EB000000 		.4byte	0xeb
 1520 0779 68       		.byte	0x68
 1521 077a 02       		.uleb128 0x2
 1522 077b 0E040000 		.4byte	.LASF111
 1523 077f 0D       		.byte	0xd
 1524 0780 0D01     		.2byte	0x10d
ARM GAS  C:\Users\DEVELO~1\AppData\Local\Temp\cclsZJPb.s 			page 28


 1525 0782 11       		.byte	0x11
 1526 0783 EB000000 		.4byte	0xeb
 1527 0787 6C       		.byte	0x6c
 1528 0788 02       		.uleb128 0x2
 1529 0789 AE020000 		.4byte	.LASF112
 1530 078d 0D       		.byte	0xd
 1531 078e 0E01     		.2byte	0x10e
 1532 0790 11       		.byte	0x11
 1533 0791 77080000 		.4byte	0x877
 1534 0795 70       		.byte	0x70
 1535 0796 02       		.uleb128 0x2
 1536 0797 25070000 		.4byte	.LASF113
 1537 079b 0D       		.byte	0xd
 1538 079c 0F01     		.2byte	0x10f
 1539 079e 11       		.byte	0x11
 1540 079f EB000000 		.4byte	0xeb
 1541 07a3 80       		.byte	0x80
 1542 07a4 02       		.uleb128 0x2
 1543 07a5 2A070000 		.4byte	.LASF114
 1544 07a9 0D       		.byte	0xd
 1545 07aa 1001     		.2byte	0x110
 1546 07ac 11       		.byte	0x11
 1547 07ad EB000000 		.4byte	0xeb
 1548 07b1 84       		.byte	0x84
 1549 07b2 02       		.uleb128 0x2
 1550 07b3 2F070000 		.4byte	.LASF115
 1551 07b7 0D       		.byte	0xd
 1552 07b8 1101     		.2byte	0x111
 1553 07ba 11       		.byte	0x11
 1554 07bb EB000000 		.4byte	0xeb
 1555 07bf 88       		.byte	0x88
 1556 07c0 02       		.uleb128 0x2
 1557 07c1 34070000 		.4byte	.LASF116
 1558 07c5 0D       		.byte	0xd
 1559 07c6 1201     		.2byte	0x112
 1560 07c8 11       		.byte	0x11
 1561 07c9 EB000000 		.4byte	0xeb
 1562 07cd 8C       		.byte	0x8c
 1563 07ce 02       		.uleb128 0x2
 1564 07cf 7F070000 		.4byte	.LASF117
 1565 07d3 0D       		.byte	0xd
 1566 07d4 1301     		.2byte	0x113
 1567 07d6 11       		.byte	0x11
 1568 07d7 77080000 		.4byte	0x877
 1569 07db 90       		.byte	0x90
 1570 07dc 02       		.uleb128 0x2
 1571 07dd A7050000 		.4byte	.LASF118
 1572 07e1 0D       		.byte	0xd
 1573 07e2 1401     		.2byte	0x114
 1574 07e4 11       		.byte	0x11
 1575 07e5 EB000000 		.4byte	0xeb
 1576 07e9 A0       		.byte	0xa0
 1577 07ea 02       		.uleb128 0x2
 1578 07eb BE050000 		.4byte	.LASF119
 1579 07ef 0D       		.byte	0xd
 1580 07f0 1501     		.2byte	0x115
 1581 07f2 11       		.byte	0x11
ARM GAS  C:\Users\DEVELO~1\AppData\Local\Temp\cclsZJPb.s 			page 29


 1582 07f3 EB000000 		.4byte	0xeb
 1583 07f7 A4       		.byte	0xa4
 1584 07f8 02       		.uleb128 0x2
 1585 07f9 3C0A0000 		.4byte	.LASF120
 1586 07fd 0D       		.byte	0xd
 1587 07fe 1601     		.2byte	0x116
 1588 0800 11       		.byte	0x11
 1589 0801 DF000000 		.4byte	0xdf
 1590 0805 A8       		.byte	0xa8
 1591 0806 02       		.uleb128 0x2
 1592 0807 460A0000 		.4byte	.LASF121
 1593 080b 0D       		.byte	0xd
 1594 080c 1701     		.2byte	0x117
 1595 080e 11       		.byte	0x11
 1596 080f DF000000 		.4byte	0xdf
 1597 0813 AC       		.byte	0xac
 1598 0814 02       		.uleb128 0x2
 1599 0815 4E010000 		.4byte	.LASF122
 1600 0819 0D       		.byte	0xd
 1601 081a 1801     		.2byte	0x118
 1602 081c 11       		.byte	0x11
 1603 081d EB000000 		.4byte	0xeb
 1604 0821 B0       		.byte	0xb0
 1605 0822 02       		.uleb128 0x2
 1606 0823 70090000 		.4byte	.LASF123
 1607 0827 0D       		.byte	0xd
 1608 0828 1901     		.2byte	0x119
 1609 082a 11       		.byte	0x11
 1610 082b EB000000 		.4byte	0xeb
 1611 082f B4       		.byte	0xb4
 1612 0830 02       		.uleb128 0x2
 1613 0831 53010000 		.4byte	.LASF124
 1614 0835 0D       		.byte	0xd
 1615 0836 1A01     		.2byte	0x11a
 1616 0838 11       		.byte	0x11
 1617 0839 EB000000 		.4byte	0xeb
 1618 083d B8       		.byte	0xb8
 1619 083e 02       		.uleb128 0x2
 1620 083f 75090000 		.4byte	.LASF125
 1621 0843 0D       		.byte	0xd
 1622 0844 1B01     		.2byte	0x11b
 1623 0846 11       		.byte	0x11
 1624 0847 EB000000 		.4byte	0xeb
 1625 084b BC       		.byte	0xbc
 1626 084c 02       		.uleb128 0x2
 1627 084d 58010000 		.4byte	.LASF126
 1628 0851 0D       		.byte	0xd
 1629 0852 1C01     		.2byte	0x11c
 1630 0854 11       		.byte	0x11
 1631 0855 EB000000 		.4byte	0xeb
 1632 0859 C0       		.byte	0xc0
 1633 085a 02       		.uleb128 0x2
 1634 085b 43050000 		.4byte	.LASF127
 1635 085f 0D       		.byte	0xd
 1636 0860 1D01     		.2byte	0x11d
 1637 0862 11       		.byte	0x11
 1638 0863 EB000000 		.4byte	0xeb
ARM GAS  C:\Users\DEVELO~1\AppData\Local\Temp\cclsZJPb.s 			page 30


 1639 0867 C4       		.byte	0xc4
 1640 0868 02       		.uleb128 0x2
 1641 0869 19040000 		.4byte	.LASF128
 1642 086d 0D       		.byte	0xd
 1643 086e 1E01     		.2byte	0x11e
 1644 0870 11       		.byte	0x11
 1645 0871 EB000000 		.4byte	0xeb
 1646 0875 C8       		.byte	0xc8
 1647 0876 00       		.byte	0
 1648 0877 0E       		.uleb128 0xe
 1649 0878 DF000000 		.4byte	0xdf
 1650 087c 87080000 		.4byte	0x887
 1651 0880 0F       		.uleb128 0xf
 1652 0881 39000000 		.4byte	0x39
 1653 0885 03       		.byte	0x3
 1654 0886 00       		.byte	0
 1655 0887 0A       		.uleb128 0xa
 1656 0888 8D050000 		.4byte	.LASF129
 1657 088c 0D       		.byte	0xd
 1658 088d 1F01     		.2byte	0x11f
 1659 088f 03       		.byte	0x3
 1660 0890 2E060000 		.4byte	0x62e
 1661 0894 17       		.uleb128 0x17
 1662 0895 14       		.byte	0x14
 1663 0896 0D       		.byte	0xd
 1664 0897 2201     		.2byte	0x122
 1665 0899 E4080000 		.4byte	0x8e4
 1666 089d 05       		.uleb128 0x5
 1667 089e 43535200 		.ascii	"CSR\000"
 1668 08a2 0D       		.byte	0xd
 1669 08a3 2401     		.2byte	0x124
 1670 08a5 0F       		.byte	0xf
 1671 08a6 EB000000 		.4byte	0xeb
 1672 08aa 00       		.byte	0
 1673 08ab 02       		.uleb128 0x2
 1674 08ac C4030000 		.4byte	.LASF130
 1675 08b0 0D       		.byte	0xd
 1676 08b1 2501     		.2byte	0x125
 1677 08b3 0A       		.byte	0xa
 1678 08b4 DF000000 		.4byte	0xdf
 1679 08b8 04       		.byte	0x4
 1680 08b9 05       		.uleb128 0x5
 1681 08ba 43435200 		.ascii	"CCR\000"
 1682 08be 0D       		.byte	0xd
 1683 08bf 2601     		.2byte	0x126
 1684 08c1 0F       		.byte	0xf
 1685 08c2 EB000000 		.4byte	0xeb
 1686 08c6 08       		.byte	0x8
 1687 08c7 05       		.uleb128 0x5
 1688 08c8 43445200 		.ascii	"CDR\000"
 1689 08cc 0D       		.byte	0xd
 1690 08cd 2701     		.2byte	0x127
 1691 08cf 0F       		.byte	0xf
 1692 08d0 EB000000 		.4byte	0xeb
 1693 08d4 0C       		.byte	0xc
 1694 08d5 02       		.uleb128 0x2
 1695 08d6 D9060000 		.4byte	.LASF131
ARM GAS  C:\Users\DEVELO~1\AppData\Local\Temp\cclsZJPb.s 			page 31


 1696 08da 0D       		.byte	0xd
 1697 08db 2801     		.2byte	0x128
 1698 08dd 0F       		.byte	0xf
 1699 08de EB000000 		.4byte	0xeb
 1700 08e2 10       		.byte	0x10
 1701 08e3 00       		.byte	0
 1702 08e4 0A       		.uleb128 0xa
 1703 08e5 89070000 		.4byte	.LASF132
 1704 08e9 0D       		.byte	0xd
 1705 08ea 2A01     		.2byte	0x12a
 1706 08ec 03       		.byte	0x3
 1707 08ed 94080000 		.4byte	0x894
 1708 08f1 17       		.uleb128 0x17
 1709 08f2 18       		.byte	0x18
 1710 08f3 0D       		.byte	0xd
 1711 08f4 3002     		.2byte	0x230
 1712 08f6 4E090000 		.4byte	0x94e
 1713 08fa 05       		.uleb128 0x5
 1714 08fb 435200   		.ascii	"CR\000"
 1715 08fe 0D       		.byte	0xd
 1716 08ff 3202     		.2byte	0x232
 1717 0901 11       		.byte	0x11
 1718 0902 EB000000 		.4byte	0xeb
 1719 0906 00       		.byte	0
 1720 0907 02       		.uleb128 0x2
 1721 0908 26010000 		.4byte	.LASF133
 1722 090c 0D       		.byte	0xd
 1723 090d 3302     		.2byte	0x233
 1724 090f 11       		.byte	0x11
 1725 0910 EB000000 		.4byte	0xeb
 1726 0914 04       		.byte	0x4
 1727 0915 05       		.uleb128 0x5
 1728 0916 50415200 		.ascii	"PAR\000"
 1729 091a 0D       		.byte	0xd
 1730 091b 3402     		.2byte	0x234
 1731 091d 11       		.byte	0x11
 1732 091e EB000000 		.4byte	0xeb
 1733 0922 08       		.byte	0x8
 1734 0923 02       		.uleb128 0x2
 1735 0924 33040000 		.4byte	.LASF134
 1736 0928 0D       		.byte	0xd
 1737 0929 3502     		.2byte	0x235
 1738 092b 11       		.byte	0x11
 1739 092c EB000000 		.4byte	0xeb
 1740 0930 0C       		.byte	0xc
 1741 0931 02       		.uleb128 0x2
 1742 0932 69080000 		.4byte	.LASF135
 1743 0936 0D       		.byte	0xd
 1744 0937 3602     		.2byte	0x236
 1745 0939 11       		.byte	0x11
 1746 093a EB000000 		.4byte	0xeb
 1747 093e 10       		.byte	0x10
 1748 093f 05       		.uleb128 0x5
 1749 0940 46435200 		.ascii	"FCR\000"
 1750 0944 0D       		.byte	0xd
 1751 0945 3702     		.2byte	0x237
 1752 0947 11       		.byte	0x11
ARM GAS  C:\Users\DEVELO~1\AppData\Local\Temp\cclsZJPb.s 			page 32


 1753 0948 EB000000 		.4byte	0xeb
 1754 094c 14       		.byte	0x14
 1755 094d 00       		.byte	0
 1756 094e 0A       		.uleb128 0xa
 1757 094f 2D060000 		.4byte	.LASF136
 1758 0953 0D       		.byte	0xd
 1759 0954 3802     		.2byte	0x238
 1760 0956 03       		.byte	0x3
 1761 0957 F1080000 		.4byte	0x8f1
 1762 095b 17       		.uleb128 0x17
 1763 095c 04       		.byte	0x4
 1764 095d 0D       		.byte	0xd
 1765 095e 5102     		.2byte	0x251
 1766 0960 73090000 		.4byte	0x973
 1767 0964 05       		.uleb128 0x5
 1768 0965 43435200 		.ascii	"CCR\000"
 1769 0969 0D       		.byte	0xd
 1770 096a 5302     		.2byte	0x253
 1771 096c 12       		.byte	0x12
 1772 096d EB000000 		.4byte	0xeb
 1773 0971 00       		.byte	0
 1774 0972 00       		.byte	0
 1775 0973 0A       		.uleb128 0xa
 1776 0974 39070000 		.4byte	.LASF137
 1777 0978 0D       		.byte	0xd
 1778 0979 5402     		.2byte	0x254
 1779 097b 02       		.byte	0x2
 1780 097c 5B090000 		.4byte	0x95b
 1781 0980 18       		.uleb128 0x18
 1782 0981 B5070000 		.4byte	.LASF138
 1783 0985 24       		.byte	0x24
 1784 0986 0E       		.byte	0xe
 1785 0987 E001     		.2byte	0x1e0
 1786 0989 08       		.byte	0x8
 1787 098a 060A0000 		.4byte	0xa06
 1788 098e 05       		.uleb128 0x5
 1789 098f 723400   		.ascii	"r4\000"
 1790 0992 0E       		.byte	0xe
 1791 0993 F901     		.2byte	0x1f9
 1792 0995 11       		.byte	0x11
 1793 0996 DF000000 		.4byte	0xdf
 1794 099a 00       		.byte	0
 1795 099b 05       		.uleb128 0x5
 1796 099c 723500   		.ascii	"r5\000"
 1797 099f 0E       		.byte	0xe
 1798 09a0 FA01     		.2byte	0x1fa
 1799 09a2 11       		.byte	0x11
 1800 09a3 DF000000 		.4byte	0xdf
 1801 09a7 04       		.byte	0x4
 1802 09a8 05       		.uleb128 0x5
 1803 09a9 723600   		.ascii	"r6\000"
 1804 09ac 0E       		.byte	0xe
 1805 09ad FB01     		.2byte	0x1fb
 1806 09af 11       		.byte	0x11
 1807 09b0 DF000000 		.4byte	0xdf
 1808 09b4 08       		.byte	0x8
 1809 09b5 05       		.uleb128 0x5
ARM GAS  C:\Users\DEVELO~1\AppData\Local\Temp\cclsZJPb.s 			page 33


 1810 09b6 723700   		.ascii	"r7\000"
 1811 09b9 0E       		.byte	0xe
 1812 09ba FC01     		.2byte	0x1fc
 1813 09bc 11       		.byte	0x11
 1814 09bd DF000000 		.4byte	0xdf
 1815 09c1 0C       		.byte	0xc
 1816 09c2 05       		.uleb128 0x5
 1817 09c3 723800   		.ascii	"r8\000"
 1818 09c6 0E       		.byte	0xe
 1819 09c7 FD01     		.2byte	0x1fd
 1820 09c9 11       		.byte	0x11
 1821 09ca DF000000 		.4byte	0xdf
 1822 09ce 10       		.byte	0x10
 1823 09cf 05       		.uleb128 0x5
 1824 09d0 723900   		.ascii	"r9\000"
 1825 09d3 0E       		.byte	0xe
 1826 09d4 FE01     		.2byte	0x1fe
 1827 09d6 11       		.byte	0x11
 1828 09d7 DF000000 		.4byte	0xdf
 1829 09db 14       		.byte	0x14
 1830 09dc 05       		.uleb128 0x5
 1831 09dd 72313000 		.ascii	"r10\000"
 1832 09e1 0E       		.byte	0xe
 1833 09e2 FF01     		.2byte	0x1ff
 1834 09e4 11       		.byte	0x11
 1835 09e5 DF000000 		.4byte	0xdf
 1836 09e9 18       		.byte	0x18
 1837 09ea 05       		.uleb128 0x5
 1838 09eb 72313100 		.ascii	"r11\000"
 1839 09ef 0E       		.byte	0xe
 1840 09f0 0002     		.2byte	0x200
 1841 09f2 11       		.byte	0x11
 1842 09f3 DF000000 		.4byte	0xdf
 1843 09f7 1C       		.byte	0x1c
 1844 09f8 05       		.uleb128 0x5
 1845 09f9 6C7200   		.ascii	"lr\000"
 1846 09fc 0E       		.byte	0xe
 1847 09fd 0102     		.2byte	0x201
 1848 09ff 11       		.byte	0x11
 1849 0a00 DF000000 		.4byte	0xdf
 1850 0a04 20       		.byte	0x20
 1851 0a05 00       		.byte	0
 1852 0a06 18       		.uleb128 0x18
 1853 0a07 01010000 		.4byte	.LASF139
 1854 0a0b 04       		.byte	0x4
 1855 0a0c 0E       		.byte	0xe
 1856 0a0d 0A02     		.2byte	0x20a
 1857 0a0f 08       		.byte	0x8
 1858 0a10 220A0000 		.4byte	0xa22
 1859 0a14 05       		.uleb128 0x5
 1860 0a15 737000   		.ascii	"sp\000"
 1861 0a18 0E       		.byte	0xe
 1862 0a19 0B02     		.2byte	0x20b
 1863 0a1b 1A       		.byte	0x1a
 1864 0a1c 220A0000 		.4byte	0xa22
 1865 0a20 00       		.byte	0
 1866 0a21 00       		.byte	0
ARM GAS  C:\Users\DEVELO~1\AppData\Local\Temp\cclsZJPb.s 			page 34


 1867 0a22 04       		.uleb128 0x4
 1868 0a23 80090000 		.4byte	0x980
 1869 0a27 08       		.uleb128 0x8
 1870 0a28 40030000 		.4byte	.LASF140
 1871 0a2c 18       		.byte	0x18
 1872 0a2d 07       		.byte	0x7
 1873 0a2e 64       		.byte	0x64
 1874 0a2f 10       		.byte	0x10
 1875 0a30 5C0A0000 		.4byte	0xa5c
 1876 0a34 01       		.uleb128 0x1
 1877 0a35 1D080000 		.4byte	.LASF141
 1878 0a39 07       		.byte	0x7
 1879 0a3a 68       		.byte	0x68
 1880 0a3b 21       		.byte	0x21
 1881 0a3c 41040000 		.4byte	0x441
 1882 0a40 00       		.byte	0
 1883 0a41 01       		.uleb128 0x1
 1884 0a42 23080000 		.4byte	.LASF142
 1885 0a46 07       		.byte	0x7
 1886 0a47 73       		.byte	0x73
 1887 0a48 21       		.byte	0x21
 1888 0a49 72030000 		.4byte	0x372
 1889 0a4d 0C       		.byte	0xc
 1890 0a4e 01       		.uleb128 0x1
 1891 0a4f 2B010000 		.4byte	.LASF143
 1892 0a53 07       		.byte	0x7
 1893 0a54 79       		.byte	0x79
 1894 0a55 21       		.byte	0x21
 1895 0a56 FC000000 		.4byte	0xfc
 1896 0a5a 10       		.byte	0x10
 1897 0a5b 00       		.byte	0
 1898 0a5c 03       		.uleb128 0x3
 1899 0a5d FD060000 		.4byte	.LASF144
 1900 0a61 07       		.byte	0x7
 1901 0a62 7B       		.byte	0x7b
 1902 0a63 03       		.byte	0x3
 1903 0a64 270A0000 		.4byte	0xa27
 1904 0a68 08       		.uleb128 0x8
 1905 0a69 4C000000 		.4byte	.LASF145
 1906 0a6d 08       		.byte	0x8
 1907 0a6e 07       		.byte	0x7
 1908 0a6f 80       		.byte	0x80
 1909 0a70 10       		.byte	0x10
 1910 0a71 830A0000 		.4byte	0xa83
 1911 0a75 01       		.uleb128 0x1
 1912 0a76 D2080000 		.4byte	.LASF146
 1913 0a7a 07       		.byte	0x7
 1914 0a7b 84       		.byte	0x84
 1915 0a7c 21       		.byte	0x21
 1916 0a7d C2030000 		.4byte	0x3c2
 1917 0a81 00       		.byte	0
 1918 0a82 00       		.byte	0
 1919 0a83 03       		.uleb128 0x3
 1920 0a84 0C060000 		.4byte	.LASF147
 1921 0a88 07       		.byte	0x7
 1922 0a89 85       		.byte	0x85
 1923 0a8a 03       		.byte	0x3
ARM GAS  C:\Users\DEVELO~1\AppData\Local\Temp\cclsZJPb.s 			page 35


 1924 0a8b 680A0000 		.4byte	0xa68
 1925 0a8f 03       		.uleb128 0x3
 1926 0a90 1E000000 		.4byte	.LASF148
 1927 0a94 07       		.byte	0x7
 1928 0a95 8A       		.byte	0x8a
 1929 0a96 14       		.byte	0x14
 1930 0a97 AB040000 		.4byte	0x4ab
 1931 0a9b 16       		.uleb128 0x16
 1932 0a9c 0C       		.byte	0xc
 1933 0a9d 07       		.byte	0x7
 1934 0a9e A0       		.byte	0xa0
 1935 0a9f 03       		.byte	0x3
 1936 0aa0 C90A0000 		.4byte	0xac9
 1937 0aa4 0D       		.uleb128 0xd
 1938 0aa5 6F010000 		.4byte	.LASF149
 1939 0aa9 07       		.byte	0x7
 1940 0aaa A4       		.byte	0xa4
 1941 0aab 21       		.byte	0x21
 1942 0aac 96030000 		.4byte	0x396
 1943 0ab0 0D       		.uleb128 0xd
 1944 0ab1 D2080000 		.4byte	.LASF146
 1945 0ab5 07       		.byte	0x7
 1946 0ab6 A8       		.byte	0xa8
 1947 0ab7 21       		.byte	0x21
 1948 0ab8 C2030000 		.4byte	0x3c2
 1949 0abc 0D       		.uleb128 0xd
 1950 0abd D2020000 		.4byte	.LASF150
 1951 0ac1 07       		.byte	0x7
 1952 0ac2 AC       		.byte	0xac
 1953 0ac3 21       		.byte	0x21
 1954 0ac4 FB030000 		.4byte	0x3fb
 1955 0ac8 00       		.byte	0
 1956 0ac9 16       		.uleb128 0x16
 1957 0aca 04       		.byte	0x4
 1958 0acb 07       		.byte	0x7
 1959 0acc EB       		.byte	0xeb
 1960 0acd 03       		.byte	0x3
 1961 0ace 330B0000 		.4byte	0xb33
 1962 0ad2 0D       		.uleb128 0xd
 1963 0ad3 D9030000 		.4byte	.LASF151
 1964 0ad7 07       		.byte	0x7
 1965 0ad8 F2       		.byte	0xf2
 1966 0ad9 21       		.byte	0x21
 1967 0ada 49010000 		.4byte	0x149
 1968 0ade 0D       		.uleb128 0xd
 1969 0adf 7B0A0000 		.4byte	.LASF152
 1970 0ae3 07       		.byte	0x7
 1971 0ae4 F9       		.byte	0xf9
 1972 0ae5 21       		.byte	0x21
 1973 0ae6 49010000 		.4byte	0x149
 1974 0aea 10       		.uleb128 0x10
 1975 0aeb F3000000 		.4byte	.LASF79
 1976 0aef 0001     		.2byte	0x100
 1977 0af1 22       		.byte	0x22
 1978 0af2 B0040000 		.4byte	0x4b0
 1979 0af6 10       		.uleb128 0x10
 1980 0af7 6C0A0000 		.4byte	.LASF153
ARM GAS  C:\Users\DEVELO~1\AppData\Local\Temp\cclsZJPb.s 			page 36


 1981 0afb 0701     		.2byte	0x107
 1982 0afd 22       		.byte	0x22
 1983 0afe 330B0000 		.4byte	0xb33
 1984 0b02 10       		.uleb128 0x10
 1985 0b03 95010000 		.4byte	.LASF154
 1986 0b07 0C01     		.2byte	0x10c
 1987 0b09 21       		.byte	0x21
 1988 0b0a 49010000 		.4byte	0x149
 1989 0b0e 10       		.uleb128 0x10
 1990 0b0f FA080000 		.4byte	.LASF155
 1991 0b13 1501     		.2byte	0x115
 1992 0b15 22       		.byte	0x22
 1993 0b16 600B0000 		.4byte	0xb60
 1994 0b1a 10       		.uleb128 0x10
 1995 0b1b 0E000000 		.4byte	.LASF156
 1996 0b1f 1E01     		.2byte	0x11e
 1997 0b21 22       		.byte	0x22
 1998 0b22 9A0B0000 		.4byte	0xb9a
 1999 0b26 10       		.uleb128 0x10
 2000 0b27 35010000 		.4byte	.LASF157
 2001 0b2b 2601     		.2byte	0x126
 2002 0b2d 21       		.byte	0x21
 2003 0b2e 55010000 		.4byte	0x155
 2004 0b32 00       		.byte	0
 2005 0b33 04       		.uleb128 0x4
 2006 0b34 8F0A0000 		.4byte	0xa8f
 2007 0b38 08       		.uleb128 0x8
 2008 0b39 CD010000 		.4byte	.LASF158
 2009 0b3d 0C       		.byte	0xc
 2010 0b3e 0F       		.byte	0xf
 2011 0b3f 34       		.byte	0x34
 2012 0b40 10       		.byte	0x10
 2013 0b41 600B0000 		.4byte	0xb60
 2014 0b45 01       		.uleb128 0x1
 2015 0b46 D2080000 		.4byte	.LASF146
 2016 0b4a 0F       		.byte	0xf
 2017 0b4b 35       		.byte	0x35
 2018 0b4c 19       		.byte	0x19
 2019 0b4d C2030000 		.4byte	0x3c2
 2020 0b51 00       		.byte	0
 2021 0b52 07       		.uleb128 0x7
 2022 0b53 636E7400 		.ascii	"cnt\000"
 2023 0b57 0F       		.byte	0xf
 2024 0b58 37       		.byte	0x37
 2025 0b59 19       		.byte	0x19
 2026 0b5a 61010000 		.4byte	0x161
 2027 0b5e 08       		.byte	0x8
 2028 0b5f 00       		.byte	0
 2029 0b60 04       		.uleb128 0x4
 2030 0b61 380B0000 		.4byte	0xb38
 2031 0b65 08       		.uleb128 0x8
 2032 0b66 2A040000 		.4byte	.LASF159
 2033 0b6a 10       		.byte	0x10
 2034 0b6b 10       		.byte	0x10
 2035 0b6c 39       		.byte	0x39
 2036 0b6d 08       		.byte	0x8
 2037 0b6e 9A0B0000 		.4byte	0xb9a
ARM GAS  C:\Users\DEVELO~1\AppData\Local\Temp\cclsZJPb.s 			page 37


 2038 0b72 01       		.uleb128 0x1
 2039 0b73 D2080000 		.4byte	.LASF146
 2040 0b77 10       		.byte	0x10
 2041 0b78 3A       		.byte	0x3a
 2042 0b79 19       		.byte	0x19
 2043 0b7a C2030000 		.4byte	0x3c2
 2044 0b7e 00       		.byte	0
 2045 0b7f 01       		.uleb128 0x1
 2046 0b80 1D030000 		.4byte	.LASF33
 2047 0b84 10       		.byte	0x10
 2048 0b85 3C       		.byte	0x3c
 2049 0b86 1A       		.byte	0x1a
 2050 0b87 AB040000 		.4byte	0x4ab
 2051 0b8b 08       		.byte	0x8
 2052 0b8c 01       		.uleb128 0x1
 2053 0b8d AC000000 		.4byte	.LASF69
 2054 0b91 10       		.byte	0x10
 2055 0b92 3E       		.byte	0x3e
 2056 0b93 1A       		.byte	0x1a
 2057 0b94 590C0000 		.4byte	0xc59
 2058 0b98 0C       		.byte	0xc
 2059 0b99 00       		.byte	0
 2060 0b9a 04       		.uleb128 0x4
 2061 0b9b 650B0000 		.4byte	0xb65
 2062 0b9f 04       		.uleb128 0x4
 2063 0ba0 68020000 		.4byte	0x268
 2064 0ba4 04       		.uleb128 0x4
 2065 0ba5 0D010000 		.4byte	0x10d
 2066 0ba9 18       		.uleb128 0x18
 2067 0baa 18010000 		.4byte	.LASF160
 2068 0bae 10       		.byte	0x10
 2069 0baf 07       		.byte	0x7
 2070 0bb0 5C01     		.2byte	0x15c
 2071 0bb2 10       		.byte	0x10
 2072 0bb3 D40B0000 		.4byte	0xbd4
 2073 0bb7 02       		.uleb128 0x2
 2074 0bb8 D2020000 		.4byte	.LASF150
 2075 0bbc 07       		.byte	0x7
 2076 0bbd 6101     		.2byte	0x161
 2077 0bbf 21       		.byte	0x21
 2078 0bc0 FB030000 		.4byte	0x3fb
 2079 0bc4 00       		.byte	0
 2080 0bc5 02       		.uleb128 0x2
 2081 0bc6 1E0A0000 		.4byte	.LASF161
 2082 0bca 07       		.byte	0x7
 2083 0bcb 6501     		.2byte	0x165
 2084 0bcd 22       		.byte	0x22
 2085 0bce AB040000 		.4byte	0x4ab
 2086 0bd2 0C       		.byte	0xc
 2087 0bd3 00       		.byte	0
 2088 0bd4 0A       		.uleb128 0xa
 2089 0bd5 A6080000 		.4byte	.LASF162
 2090 0bd9 07       		.byte	0x7
 2091 0bda 6601     		.2byte	0x166
 2092 0bdc 03       		.byte	0x3
 2093 0bdd A90B0000 		.4byte	0xba9
 2094 0be1 18       		.uleb128 0x18
ARM GAS  C:\Users\DEVELO~1\AppData\Local\Temp\cclsZJPb.s 			page 38


 2095 0be2 07080000 		.4byte	.LASF163
 2096 0be6 14       		.byte	0x14
 2097 0be7 07       		.byte	0x7
 2098 0be8 6B01     		.2byte	0x16b
 2099 0bea 10       		.byte	0x10
 2100 0beb 360C0000 		.4byte	0xc36
 2101 0bef 02       		.uleb128 0x2
 2102 0bf0 5D080000 		.4byte	.LASF34
 2103 0bf4 07       		.byte	0x7
 2104 0bf5 6F01     		.2byte	0x16f
 2105 0bf7 22       		.byte	0x22
 2106 0bf8 50030000 		.4byte	0x350
 2107 0bfc 00       		.byte	0
 2108 0bfd 02       		.uleb128 0x2
 2109 0bfe 02050000 		.4byte	.LASF164
 2110 0c02 07       		.byte	0x7
 2111 0c03 7501     		.2byte	0x175
 2112 0c05 22       		.byte	0x22
 2113 0c06 A40B0000 		.4byte	0xba4
 2114 0c0a 04       		.byte	0x4
 2115 0c0b 02       		.uleb128 0x2
 2116 0c0c 23030000 		.4byte	.LASF165
 2117 0c10 07       		.byte	0x7
 2118 0c11 7901     		.2byte	0x179
 2119 0c13 22       		.byte	0x22
 2120 0c14 A40B0000 		.4byte	0xba4
 2121 0c18 08       		.byte	0x8
 2122 0c19 02       		.uleb128 0x2
 2123 0c1a CB090000 		.4byte	.LASF166
 2124 0c1e 07       		.byte	0x7
 2125 0c1f 7F01     		.2byte	0x17f
 2126 0c21 22       		.byte	0x22
 2127 0c22 A40B0000 		.4byte	0xba4
 2128 0c26 0C       		.byte	0xc
 2129 0c27 02       		.uleb128 0x2
 2130 0c28 7E040000 		.4byte	.LASF167
 2131 0c2c 07       		.byte	0x7
 2132 0c2d 8301     		.2byte	0x183
 2133 0c2f 22       		.byte	0x22
 2134 0c30 A40B0000 		.4byte	0xba4
 2135 0c34 10       		.byte	0x10
 2136 0c35 00       		.byte	0
 2137 0c36 0A       		.uleb128 0xa
 2138 0c37 EB010000 		.4byte	.LASF168
 2139 0c3b 07       		.byte	0x7
 2140 0c3c 8501     		.2byte	0x185
 2141 0c3e 03       		.byte	0x3
 2142 0c3f E10B0000 		.4byte	0xbe1
 2143 0c43 12       		.uleb128 0x12
 2144 0c44 360C0000 		.4byte	0xc36
 2145 0c48 04       		.uleb128 0x4
 2146 0c49 430C0000 		.4byte	0xc43
 2147 0c4d 03       		.uleb128 0x3
 2148 0c4e 1C090000 		.4byte	.LASF169
 2149 0c52 10       		.byte	0x10
 2150 0c53 34       		.byte	0x34
 2151 0c54 19       		.byte	0x19
ARM GAS  C:\Users\DEVELO~1\AppData\Local\Temp\cclsZJPb.s 			page 39


 2152 0c55 650B0000 		.4byte	0xb65
 2153 0c59 04       		.uleb128 0x4
 2154 0c5a 4D0C0000 		.4byte	0xc4d
 2155 0c5e 09       		.uleb128 0x9
 2156 0c5f 01       		.byte	0x1
 2157 0c60 02       		.byte	0x2
 2158 0c61 03040000 		.4byte	.LASF170
 2159 0c65 17       		.uleb128 0x17
 2160 0c66 10       		.byte	0x10
 2161 0c67 11       		.byte	0x11
 2162 0c68 A701     		.2byte	0x1a7
 2163 0c6a C30C0000 		.4byte	0xcc3
 2164 0c6e 02       		.uleb128 0x2
 2165 0c6f 55050000 		.4byte	.LASF171
 2166 0c73 11       		.byte	0x11
 2167 0c74 A801     		.2byte	0x1a8
 2168 0c76 1A       		.byte	0x1a
 2169 0c77 C30C0000 		.4byte	0xcc3
 2170 0c7b 00       		.byte	0
 2171 0c7c 02       		.uleb128 0x2
 2172 0c7d A9010000 		.4byte	.LASF172
 2173 0c81 11       		.byte	0x11
 2174 0c82 A901     		.2byte	0x1a9
 2175 0c84 1A       		.byte	0x1a
 2176 0c85 C80C0000 		.4byte	0xcc8
 2177 0c89 04       		.byte	0x4
 2178 0c8a 05       		.uleb128 0x5
 2179 0c8b 6D757800 		.ascii	"mux\000"
 2180 0c8f 11       		.byte	0x11
 2181 0c90 AB01     		.2byte	0x1ab
 2182 0c92 1B       		.byte	0x1b
 2183 0c93 CD0C0000 		.4byte	0xccd
 2184 0c97 08       		.byte	0x8
 2185 0c98 02       		.uleb128 0x2
 2186 0c99 C7010000 		.4byte	.LASF173
 2187 0c9d 11       		.byte	0x11
 2188 0c9e AF01     		.2byte	0x1af
 2189 0ca0 19       		.byte	0x19
 2190 0ca1 BB000000 		.4byte	0xbb
 2191 0ca5 0C       		.byte	0xc
 2192 0ca6 02       		.uleb128 0x2
 2193 0ca7 840A0000 		.4byte	.LASF174
 2194 0cab 11       		.byte	0x11
 2195 0cac B101     		.2byte	0x1b1
 2196 0cae 19       		.byte	0x19
 2197 0caf BB000000 		.4byte	0xbb
 2198 0cb3 0D       		.byte	0xd
 2199 0cb4 02       		.uleb128 0x2
 2200 0cb5 CB020000 		.4byte	.LASF175
 2201 0cb9 11       		.byte	0x11
 2202 0cba B201     		.2byte	0x1b2
 2203 0cbc 19       		.byte	0x19
 2204 0cbd BB000000 		.4byte	0xbb
 2205 0cc1 0E       		.byte	0xe
 2206 0cc2 00       		.byte	0
 2207 0cc3 04       		.uleb128 0x4
 2208 0cc4 4E090000 		.4byte	0x94e
ARM GAS  C:\Users\DEVELO~1\AppData\Local\Temp\cclsZJPb.s 			page 40


 2209 0cc8 04       		.uleb128 0x4
 2210 0cc9 EB000000 		.4byte	0xeb
 2211 0ccd 04       		.uleb128 0x4
 2212 0cce 73090000 		.4byte	0x973
 2213 0cd2 0A       		.uleb128 0xa
 2214 0cd3 1D050000 		.4byte	.LASF176
 2215 0cd7 11       		.byte	0x11
 2216 0cd8 B301     		.2byte	0x1b3
 2217 0cda 03       		.byte	0x3
 2218 0cdb 650C0000 		.4byte	0xc65
 2219 0cdf 12       		.uleb128 0x12
 2220 0ce0 D20C0000 		.4byte	0xcd2
 2221 0ce4 0B       		.uleb128 0xb
 2222 0ce5 04       		.byte	0x4
 2223 0ce6 12       		.byte	0x12
 2224 0ce7 5B       		.byte	0x5b
 2225 0ce8 05       		.byte	0x5
 2226 0ce9 080D0000 		.4byte	0xd08
 2227 0ced 07       		.uleb128 0x7
 2228 0cee 73657400 		.ascii	"set\000"
 2229 0cf2 12       		.byte	0x12
 2230 0cf3 5C       		.byte	0x5c
 2231 0cf4 19       		.byte	0x19
 2232 0cf5 C7000000 		.4byte	0xc7
 2233 0cf9 00       		.byte	0
 2234 0cfa 01       		.uleb128 0x1
 2235 0cfb 32030000 		.4byte	.LASF177
 2236 0cff 12       		.byte	0x12
 2237 0d00 5D       		.byte	0x5d
 2238 0d01 19       		.byte	0x19
 2239 0d02 C7000000 		.4byte	0xc7
 2240 0d06 02       		.byte	0x2
 2241 0d07 00       		.byte	0
 2242 0d08 16       		.uleb128 0x16
 2243 0d09 04       		.byte	0x4
 2244 0d0a 12       		.byte	0x12
 2245 0d0b 59       		.byte	0x59
 2246 0d0c 0C       		.byte	0xc
 2247 0d0d 260D0000 		.4byte	0xd26
 2248 0d11 13       		.uleb128 0x13
 2249 0d12 5700     		.ascii	"W\000"
 2250 0d14 12       		.byte	0x12
 2251 0d15 5A       		.byte	0x5a
 2252 0d16 19       		.byte	0x19
 2253 0d17 DF000000 		.4byte	0xdf
 2254 0d1b 13       		.uleb128 0x13
 2255 0d1c 4800     		.ascii	"H\000"
 2256 0d1e 12       		.byte	0x12
 2257 0d1f 5E       		.byte	0x5e
 2258 0d20 07       		.byte	0x7
 2259 0d21 E40C0000 		.4byte	0xce4
 2260 0d25 00       		.byte	0
 2261 0d26 15       		.uleb128 0x15
 2262 0d27 080D0000 		.4byte	0xd08
 2263 0d2b 0B       		.uleb128 0xb
 2264 0d2c 28       		.byte	0x28
 2265 0d2d 12       		.byte	0x12
ARM GAS  C:\Users\DEVELO~1\AppData\Local\Temp\cclsZJPb.s 			page 41


 2266 0d2e 51       		.byte	0x51
 2267 0d2f 09       		.byte	0x9
 2268 0d30 B70D0000 		.4byte	0xdb7
 2269 0d34 01       		.uleb128 0x1
 2270 0d35 00030000 		.4byte	.LASF178
 2271 0d39 12       		.byte	0x12
 2272 0d3a 53       		.byte	0x53
 2273 0d3b 19       		.byte	0x19
 2274 0d3c EB000000 		.4byte	0xeb
 2275 0d40 00       		.byte	0
 2276 0d41 01       		.uleb128 0x1
 2277 0d42 00080000 		.4byte	.LASF179
 2278 0d46 12       		.byte	0x12
 2279 0d47 54       		.byte	0x54
 2280 0d48 19       		.byte	0x19
 2281 0d49 EB000000 		.4byte	0xeb
 2282 0d4d 04       		.byte	0x4
 2283 0d4e 01       		.uleb128 0x1
 2284 0d4f C5060000 		.4byte	.LASF180
 2285 0d53 12       		.byte	0x12
 2286 0d54 55       		.byte	0x55
 2287 0d55 19       		.byte	0x19
 2288 0d56 EB000000 		.4byte	0xeb
 2289 0d5a 08       		.byte	0x8
 2290 0d5b 01       		.uleb128 0x1
 2291 0d5c 13040000 		.4byte	.LASF181
 2292 0d60 12       		.byte	0x12
 2293 0d61 56       		.byte	0x56
 2294 0d62 19       		.byte	0x19
 2295 0d63 EB000000 		.4byte	0xeb
 2296 0d67 0C       		.byte	0xc
 2297 0d68 07       		.uleb128 0x7
 2298 0d69 49445200 		.ascii	"IDR\000"
 2299 0d6d 12       		.byte	0x12
 2300 0d6e 57       		.byte	0x57
 2301 0d6f 19       		.byte	0x19
 2302 0d70 EB000000 		.4byte	0xeb
 2303 0d74 10       		.byte	0x10
 2304 0d75 07       		.uleb128 0x7
 2305 0d76 4F445200 		.ascii	"ODR\000"
 2306 0d7a 12       		.byte	0x12
 2307 0d7b 58       		.byte	0x58
 2308 0d7c 19       		.byte	0x19
 2309 0d7d EB000000 		.4byte	0xeb
 2310 0d81 14       		.byte	0x14
 2311 0d82 01       		.uleb128 0x1
 2312 0d83 31000000 		.4byte	.LASF182
 2313 0d87 12       		.byte	0x12
 2314 0d88 5F       		.byte	0x5f
 2315 0d89 05       		.byte	0x5
 2316 0d8a 260D0000 		.4byte	0xd26
 2317 0d8e 18       		.byte	0x18
 2318 0d8f 01       		.uleb128 0x1
 2319 0d90 D3060000 		.4byte	.LASF183
 2320 0d94 12       		.byte	0x12
 2321 0d95 60       		.byte	0x60
 2322 0d96 19       		.byte	0x19
ARM GAS  C:\Users\DEVELO~1\AppData\Local\Temp\cclsZJPb.s 			page 42


 2323 0d97 EB000000 		.4byte	0xeb
 2324 0d9b 1C       		.byte	0x1c
 2325 0d9c 01       		.uleb128 0x1
 2326 0d9d 37090000 		.4byte	.LASF184
 2327 0da1 12       		.byte	0x12
 2328 0da2 61       		.byte	0x61
 2329 0da3 19       		.byte	0x19
 2330 0da4 EB000000 		.4byte	0xeb
 2331 0da8 20       		.byte	0x20
 2332 0da9 01       		.uleb128 0x1
 2333 0daa 0B030000 		.4byte	.LASF185
 2334 0dae 12       		.byte	0x12
 2335 0daf 62       		.byte	0x62
 2336 0db0 19       		.byte	0x19
 2337 0db1 EB000000 		.4byte	0xeb
 2338 0db5 24       		.byte	0x24
 2339 0db6 00       		.byte	0
 2340 0db7 03       		.uleb128 0x3
 2341 0db8 10030000 		.4byte	.LASF186
 2342 0dbc 12       		.byte	0x12
 2343 0dbd 63       		.byte	0x63
 2344 0dbe 03       		.byte	0x3
 2345 0dbf 2B0D0000 		.4byte	0xd2b
 2346 0dc3 03       		.uleb128 0x3
 2347 0dc4 17060000 		.4byte	.LASF187
 2348 0dc8 13       		.byte	0x13
 2349 0dc9 C2       		.byte	0xc2
 2350 0dca 12       		.byte	0x12
 2351 0dcb DF000000 		.4byte	0xdf
 2352 0dcf 03       		.uleb128 0x3
 2353 0dd0 C2090000 		.4byte	.LASF188
 2354 0dd4 13       		.byte	0x13
 2355 0dd5 C7       		.byte	0xc7
 2356 0dd6 12       		.byte	0x12
 2357 0dd7 DF000000 		.4byte	0xdf
 2358 0ddb 03       		.uleb128 0x3
 2359 0ddc 47040000 		.4byte	.LASF189
 2360 0de0 13       		.byte	0x13
 2361 0de1 D9       		.byte	0xd9
 2362 0de2 18       		.byte	0x18
 2363 0de3 E70D0000 		.4byte	0xde7
 2364 0de7 04       		.uleb128 0x4
 2365 0de8 B70D0000 		.4byte	0xdb7
 2366 0dec 28       		.uleb128 0x28
 2367 0ded 07       		.byte	0x7
 2368 0dee 01       		.byte	0x1
 2369 0def 61000000 		.4byte	0x61
 2370 0df3 14       		.byte	0x14
 2371 0df4 46       		.byte	0x46
 2372 0df5 0E       		.byte	0xe
 2373 0df6 1F0E0000 		.4byte	0xe1f
 2374 0dfa 11       		.uleb128 0x11
 2375 0dfb 52080000 		.4byte	.LASF190
 2376 0dff 00       		.byte	0
 2377 0e00 11       		.uleb128 0x11
 2378 0e01 720A0000 		.4byte	.LASF191
 2379 0e05 01       		.byte	0x1
ARM GAS  C:\Users\DEVELO~1\AppData\Local\Temp\cclsZJPb.s 			page 43


 2380 0e06 11       		.uleb128 0x11
 2381 0e07 9C080000 		.4byte	.LASF192
 2382 0e0b 02       		.byte	0x2
 2383 0e0c 11       		.uleb128 0x11
 2384 0e0d 13070000 		.4byte	.LASF193
 2385 0e11 03       		.byte	0x3
 2386 0e12 11       		.uleb128 0x11
 2387 0e13 58040000 		.4byte	.LASF194
 2388 0e17 04       		.byte	0x4
 2389 0e18 11       		.uleb128 0x11
 2390 0e19 65040000 		.4byte	.LASF195
 2391 0e1d 05       		.byte	0x5
 2392 0e1e 00       		.byte	0
 2393 0e1f 03       		.uleb128 0x3
 2394 0e20 12050000 		.4byte	.LASF196
 2395 0e24 14       		.byte	0x14
 2396 0e25 4D       		.byte	0x4d
 2397 0e26 03       		.byte	0x3
 2398 0e27 EC0D0000 		.4byte	0xdec
 2399 0e2b 03       		.uleb128 0x3
 2400 0e2c E0030000 		.4byte	.LASF197
 2401 0e30 14       		.byte	0x14
 2402 0e31 52       		.byte	0x52
 2403 0e32 1F       		.byte	0x1f
 2404 0e33 370E0000 		.4byte	0xe37
 2405 0e37 08       		.uleb128 0x8
 2406 0e38 6F040000 		.4byte	.LASF198
 2407 0e3c 38       		.byte	0x38
 2408 0e3d 14       		.byte	0x14
 2409 0e3e A0       		.byte	0xa0
 2410 0e3f 08       		.byte	0x8
 2411 0e40 D40E0000 		.4byte	0xed4
 2412 0e44 01       		.uleb128 0x1
 2413 0e45 A1090000 		.4byte	.LASF36
 2414 0e49 14       		.byte	0x14
 2415 0e4a A4       		.byte	0xa4
 2416 0e4b 1D       		.byte	0x1d
 2417 0e4c 1F0E0000 		.4byte	0xe1f
 2418 0e50 00       		.byte	0
 2419 0e51 01       		.uleb128 0x1
 2420 0e52 1E070000 		.4byte	.LASF53
 2421 0e56 14       		.byte	0x14
 2422 0e57 A8       		.byte	0xa8
 2423 0e58 1E       		.byte	0x1e
 2424 0e59 B6100000 		.4byte	0x10b6
 2425 0e5d 04       		.byte	0x4
 2426 0e5e 01       		.uleb128 0x1
 2427 0e5f 85050000 		.4byte	.LASF199
 2428 0e63 14       		.byte	0x14
 2429 0e64 AC       		.byte	0xac
 2430 0e65 1E       		.byte	0x1e
 2431 0e66 BB100000 		.4byte	0x10bb
 2432 0e6a 08       		.byte	0x8
 2433 0e6b 01       		.uleb128 0x1
 2434 0e6c C5050000 		.4byte	.LASF200
 2435 0e70 14       		.byte	0x14
 2436 0e71 B0       		.byte	0xb0
ARM GAS  C:\Users\DEVELO~1\AppData\Local\Temp\cclsZJPb.s 			page 44


 2437 0e72 1D       		.byte	0x1d
 2438 0e73 2D000000 		.4byte	0x2d
 2439 0e77 0C       		.byte	0xc
 2440 0e78 01       		.uleb128 0x1
 2441 0e79 260A0000 		.4byte	.LASF201
 2442 0e7d 14       		.byte	0x14
 2443 0e7e B4       		.byte	0xb4
 2444 0e7f 1E       		.byte	0x1e
 2445 0e80 C0100000 		.4byte	0x10c0
 2446 0e84 10       		.byte	0x10
 2447 0e85 01       		.uleb128 0x1
 2448 0e86 F3080000 		.4byte	.LASF202
 2449 0e8a 14       		.byte	0x14
 2450 0e8b B9       		.byte	0xb9
 2451 0e8c 1D       		.byte	0x1d
 2452 0e8d 8F0A0000 		.4byte	0xa8f
 2453 0e91 14       		.byte	0x14
 2454 0e92 01       		.uleb128 0x1
 2455 0e93 C1010000 		.4byte	.LASF203
 2456 0e97 14       		.byte	0x14
 2457 0e98 BF       		.byte	0xbf
 2458 0e99 1D       		.byte	0x1d
 2459 0e9a 4D0C0000 		.4byte	0xc4d
 2460 0e9e 18       		.byte	0x18
 2461 0e9f 01       		.uleb128 0x1
 2462 0ea0 C5080000 		.4byte	.LASF204
 2463 0ea4 14       		.byte	0x14
 2464 0ea5 C5       		.byte	0xc5
 2465 0ea6 03       		.byte	0x3
 2466 0ea7 C5100000 		.4byte	0x10c5
 2467 0eab 28       		.byte	0x28
 2468 0eac 01       		.uleb128 0x1
 2469 0ead 85080000 		.4byte	.LASF205
 2470 0eb1 14       		.byte	0x14
 2471 0eb2 C5       		.byte	0xc5
 2472 0eb3 03       		.byte	0x3
 2473 0eb4 CA100000 		.4byte	0x10ca
 2474 0eb8 2C       		.byte	0x2c
 2475 0eb9 01       		.uleb128 0x1
 2476 0eba A9060000 		.4byte	.LASF206
 2477 0ebe 14       		.byte	0x14
 2478 0ebf C5       		.byte	0xc5
 2479 0ec0 03       		.byte	0x3
 2480 0ec1 5A100000 		.4byte	0x105a
 2481 0ec5 30       		.byte	0x30
 2482 0ec6 01       		.uleb128 0x1
 2483 0ec7 58000000 		.4byte	.LASF207
 2484 0ecb 14       		.byte	0x14
 2485 0ecc C5       		.byte	0xc5
 2486 0ecd 03       		.byte	0x3
 2487 0ece DF000000 		.4byte	0xdf
 2488 0ed2 34       		.byte	0x34
 2489 0ed3 00       		.byte	0
 2490 0ed4 03       		.uleb128 0x3
 2491 0ed5 DC050000 		.4byte	.LASF208
 2492 0ed9 14       		.byte	0x14
 2493 0eda 57       		.byte	0x57
ARM GAS  C:\Users\DEVELO~1\AppData\Local\Temp\cclsZJPb.s 			page 45


 2494 0edb 1F       		.byte	0x1f
 2495 0edc E50E0000 		.4byte	0xee5
 2496 0ee0 12       		.uleb128 0x12
 2497 0ee1 D40E0000 		.4byte	0xed4
 2498 0ee5 08       		.uleb128 0x8
 2499 0ee6 E1070000 		.4byte	.LASF209
 2500 0eea 08       		.byte	0x8
 2501 0eeb 14       		.byte	0x14
 2502 0eec 98       		.byte	0x98
 2503 0eed 08       		.byte	0x8
 2504 0eee 0D0F0000 		.4byte	0xf0d
 2505 0ef2 01       		.uleb128 0x1
 2506 0ef3 78070000 		.4byte	.LASF210
 2507 0ef7 14       		.byte	0x14
 2508 0ef8 9A       		.byte	0x9a
 2509 0ef9 03       		.byte	0x3
 2510 0efa DF000000 		.4byte	0xdf
 2511 0efe 00       		.byte	0
 2512 0eff 01       		.uleb128 0x1
 2513 0f00 4F090000 		.4byte	.LASF211
 2514 0f04 14       		.byte	0x14
 2515 0f05 9A       		.byte	0x9a
 2516 0f06 03       		.byte	0x3
 2517 0f07 DF000000 		.4byte	0xdf
 2518 0f0b 04       		.byte	0x4
 2519 0f0c 00       		.byte	0
 2520 0f0d 03       		.uleb128 0x3
 2521 0f0e C1070000 		.4byte	.LASF212
 2522 0f12 14       		.byte	0x14
 2523 0f13 61       		.byte	0x61
 2524 0f14 2C       		.byte	0x2c
 2525 0f15 1E0F0000 		.4byte	0xf1e
 2526 0f19 12       		.uleb128 0x12
 2527 0f1a 0D0F0000 		.4byte	0xf0d
 2528 0f1e 08       		.uleb128 0x8
 2529 0f1f 500A0000 		.4byte	.LASF213
 2530 0f23 58       		.byte	0x58
 2531 0f24 14       		.byte	0x14
 2532 0f25 80       		.byte	0x80
 2533 0f26 08       		.byte	0x8
 2534 0f27 16100000 		.4byte	0x1016
 2535 0f2b 01       		.uleb128 0x1
 2536 0f2c 15000000 		.4byte	.LASF214
 2537 0f30 14       		.byte	0x14
 2538 0f31 84       		.byte	0x84
 2539 0f32 1D       		.byte	0x1d
 2540 0f33 5E0C0000 		.4byte	0xc5e
 2541 0f37 00       		.byte	0
 2542 0f38 01       		.uleb128 0x1
 2543 0f39 D4070000 		.4byte	.LASF215
 2544 0f3d 14       		.byte	0x14
 2545 0f3e 88       		.byte	0x88
 2546 0f3f 1D       		.byte	0x1d
 2547 0f40 23100000 		.4byte	0x1023
 2548 0f44 04       		.byte	0x4
 2549 0f45 01       		.uleb128 0x1
 2550 0f46 00020000 		.4byte	.LASF216
ARM GAS  C:\Users\DEVELO~1\AppData\Local\Temp\cclsZJPb.s 			page 46


 2551 0f4a 14       		.byte	0x14
 2552 0f4b 8C       		.byte	0x8c
 2553 0f4c 1D       		.byte	0x1d
 2554 0f4d 74100000 		.4byte	0x1074
 2555 0f51 08       		.byte	0x8
 2556 0f52 01       		.uleb128 0x1
 2557 0f53 EA000000 		.4byte	.LASF217
 2558 0f57 14       		.byte	0x14
 2559 0f58 90       		.byte	0x90
 2560 0f59 1D       		.byte	0x1d
 2561 0f5a 95100000 		.4byte	0x1095
 2562 0f5e 0C       		.byte	0xc
 2563 0f5f 01       		.uleb128 0x1
 2564 0f60 BC010000 		.4byte	.LASF218
 2565 0f64 14       		.byte	0x14
 2566 0f65 92       		.byte	0x92
 2567 0f66 03       		.byte	0x3
 2568 0f67 DF000000 		.4byte	0xdf
 2569 0f6b 10       		.byte	0x10
 2570 0f6c 01       		.uleb128 0x1
 2571 0f6d AF070000 		.4byte	.LASF219
 2572 0f71 14       		.byte	0x14
 2573 0f72 92       		.byte	0x92
 2574 0f73 03       		.byte	0x3
 2575 0f74 DF000000 		.4byte	0xdf
 2576 0f78 14       		.byte	0x14
 2577 0f79 07       		.uleb128 0x7
 2578 0f7a 63637200 		.ascii	"ccr\000"
 2579 0f7e 14       		.byte	0x14
 2580 0f7f 92       		.byte	0x92
 2581 0f80 03       		.byte	0x3
 2582 0f81 DF000000 		.4byte	0xdf
 2583 0f85 18       		.byte	0x18
 2584 0f86 01       		.uleb128 0x1
 2585 0f87 52040000 		.4byte	.LASF220
 2586 0f8b 14       		.byte	0x14
 2587 0f8c 92       		.byte	0x92
 2588 0f8d 03       		.byte	0x3
 2589 0f8e DF000000 		.4byte	0xdf
 2590 0f92 1C       		.byte	0x1c
 2591 0f93 01       		.uleb128 0x1
 2592 0f94 D0040000 		.4byte	.LASF221
 2593 0f98 14       		.byte	0x14
 2594 0f99 92       		.byte	0x92
 2595 0f9a 03       		.byte	0x3
 2596 0f9b DF000000 		.4byte	0xdf
 2597 0f9f 20       		.byte	0x20
 2598 0fa0 01       		.uleb128 0x1
 2599 0fa1 DB000000 		.4byte	.LASF222
 2600 0fa5 14       		.byte	0x14
 2601 0fa6 92       		.byte	0x92
 2602 0fa7 03       		.byte	0x3
 2603 0fa8 DF000000 		.4byte	0xdf
 2604 0fac 24       		.byte	0x24
 2605 0fad 01       		.uleb128 0x1
 2606 0fae D5040000 		.4byte	.LASF223
 2607 0fb2 14       		.byte	0x14
ARM GAS  C:\Users\DEVELO~1\AppData\Local\Temp\cclsZJPb.s 			page 47


 2608 0fb3 92       		.byte	0x92
 2609 0fb4 03       		.byte	0x3
 2610 0fb5 DF000000 		.4byte	0xdf
 2611 0fb9 28       		.byte	0x28
 2612 0fba 01       		.uleb128 0x1
 2613 0fbb E0000000 		.4byte	.LASF224
 2614 0fbf 14       		.byte	0x14
 2615 0fc0 92       		.byte	0x92
 2616 0fc1 03       		.byte	0x3
 2617 0fc2 DF000000 		.4byte	0xdf
 2618 0fc6 2C       		.byte	0x2c
 2619 0fc7 01       		.uleb128 0x1
 2620 0fc8 DA040000 		.4byte	.LASF225
 2621 0fcc 14       		.byte	0x14
 2622 0fcd 92       		.byte	0x92
 2623 0fce 03       		.byte	0x3
 2624 0fcf DF000000 		.4byte	0xdf
 2625 0fd3 30       		.byte	0x30
 2626 0fd4 01       		.uleb128 0x1
 2627 0fd5 E5000000 		.4byte	.LASF226
 2628 0fd9 14       		.byte	0x14
 2629 0fda 92       		.byte	0x92
 2630 0fdb 03       		.byte	0x3
 2631 0fdc DF000000 		.4byte	0xdf
 2632 0fe0 34       		.byte	0x34
 2633 0fe1 01       		.uleb128 0x1
 2634 0fe2 000A0000 		.4byte	.LASF227
 2635 0fe6 14       		.byte	0x14
 2636 0fe7 92       		.byte	0x92
 2637 0fe8 03       		.byte	0x3
 2638 0fe9 DF000000 		.4byte	0xdf
 2639 0fed 38       		.byte	0x38
 2640 0fee 01       		.uleb128 0x1
 2641 0fef 170A0000 		.4byte	.LASF228
 2642 0ff3 14       		.byte	0x14
 2643 0ff4 92       		.byte	0x92
 2644 0ff5 03       		.byte	0x3
 2645 0ff6 DF000000 		.4byte	0xdf
 2646 0ffa 3C       		.byte	0x3c
 2647 0ffb 01       		.uleb128 0x1
 2648 0ffc B9050000 		.4byte	.LASF229
 2649 1000 14       		.byte	0x14
 2650 1001 92       		.byte	0x92
 2651 1002 03       		.byte	0x3
 2652 1003 1E060000 		.4byte	0x61e
 2653 1007 40       		.byte	0x40
 2654 1008 07       		.uleb128 0x7
 2655 1009 73717200 		.ascii	"sqr\000"
 2656 100d 14       		.byte	0x14
 2657 100e 92       		.byte	0x92
 2658 100f 03       		.byte	0x3
 2659 1010 77080000 		.4byte	0x877
 2660 1014 48       		.byte	0x48
 2661 1015 00       		.byte	0
 2662 1016 0A       		.uleb128 0xa
 2663 1017 B9060000 		.4byte	.LASF230
 2664 101b 15       		.byte	0x15
ARM GAS  C:\Users\DEVELO~1\AppData\Local\Temp\cclsZJPb.s 			page 48


 2665 101c 2402     		.2byte	0x224
 2666 101e 12       		.byte	0x12
 2667 101f C7000000 		.4byte	0xc7
 2668 1023 0A       		.uleb128 0xa
 2669 1024 9C070000 		.4byte	.LASF231
 2670 1028 15       		.byte	0x15
 2671 1029 2E02     		.2byte	0x22e
 2672 102b 12       		.byte	0x12
 2673 102c DF000000 		.4byte	0xdf
 2674 1030 0A       		.uleb128 0xa
 2675 1031 D1050000 		.4byte	.LASF232
 2676 1035 15       		.byte	0x15
 2677 1036 3302     		.2byte	0x233
 2678 1038 12       		.byte	0x12
 2679 1039 DF000000 		.4byte	0xdf
 2680 103d 29       		.uleb128 0x29
 2681 103e 04       		.byte	0x4
 2682 103f 15       		.byte	0x15
 2683 1040 3802     		.2byte	0x238
 2684 1042 09       		.byte	0x9
 2685 1043 55100000 		.4byte	0x1055
 2686 1047 2A       		.uleb128 0x2a
 2687 1048 646D6100 		.ascii	"dma\000"
 2688 104c 15       		.byte	0x15
 2689 104d 3D02     		.2byte	0x23d
 2690 104f 20       		.byte	0x20
 2691 1050 55100000 		.4byte	0x1055
 2692 1054 00       		.byte	0
 2693 1055 04       		.uleb128 0x4
 2694 1056 DF0C0000 		.4byte	0xcdf
 2695 105a 0A       		.uleb128 0xa
 2696 105b F4050000 		.4byte	.LASF233
 2697 105f 15       		.byte	0x15
 2698 1060 4502     		.2byte	0x245
 2699 1062 03       		.byte	0x3
 2700 1063 3D100000 		.4byte	0x103d
 2701 1067 2B       		.uleb128 0x2b
 2702 1068 CD060000 		.4byte	.LASF259
 2703 106c 15       		.byte	0x15
 2704 106d 0703     		.2byte	0x307
 2705 106f 12       		.byte	0x12
 2706 1070 2B0E0000 		.4byte	0xe2b
 2707 1074 03       		.uleb128 0x3
 2708 1075 E6050000 		.4byte	.LASF234
 2709 1079 14       		.byte	0x14
 2710 107a 6D       		.byte	0x6d
 2711 107b 10       		.byte	0x10
 2712 107c 80100000 		.4byte	0x1080
 2713 1080 04       		.uleb128 0x4
 2714 1081 85100000 		.4byte	0x1085
 2715 1085 1F       		.uleb128 0x1f
 2716 1086 90100000 		.4byte	0x1090
 2717 108a 06       		.uleb128 0x6
 2718 108b 90100000 		.4byte	0x1090
 2719 108f 00       		.byte	0
 2720 1090 04       		.uleb128 0x4
 2721 1091 2B0E0000 		.4byte	0xe2b
ARM GAS  C:\Users\DEVELO~1\AppData\Local\Temp\cclsZJPb.s 			page 49


 2722 1095 03       		.uleb128 0x3
 2723 1096 82010000 		.4byte	.LASF235
 2724 109a 14       		.byte	0x14
 2725 109b 76       		.byte	0x76
 2726 109c 10       		.byte	0x10
 2727 109d A1100000 		.4byte	0x10a1
 2728 10a1 04       		.uleb128 0x4
 2729 10a2 A6100000 		.4byte	0x10a6
 2730 10a6 1F       		.uleb128 0x1f
 2731 10a7 B6100000 		.4byte	0x10b6
 2732 10ab 06       		.uleb128 0x6
 2733 10ac 90100000 		.4byte	0x1090
 2734 10b0 06       		.uleb128 0x6
 2735 10b1 30100000 		.4byte	0x1030
 2736 10b5 00       		.byte	0
 2737 10b6 04       		.uleb128 0x4
 2738 10b7 E00E0000 		.4byte	0xee0
 2739 10bb 04       		.uleb128 0x4
 2740 10bc 16100000 		.4byte	0x1016
 2741 10c0 04       		.uleb128 0x4
 2742 10c1 190F0000 		.4byte	0xf19
 2743 10c5 04       		.uleb128 0x4
 2744 10c6 87080000 		.4byte	0x887
 2745 10ca 04       		.uleb128 0x4
 2746 10cb E4080000 		.4byte	0x8e4
 2747 10cf 04       		.uleb128 0x4
 2748 10d0 5A030000 		.4byte	0x35a
 2749 10d4 0E       		.uleb128 0xe
 2750 10d5 16100000 		.4byte	0x1016
 2751 10d9 E4100000 		.4byte	0x10e4
 2752 10dd 0F       		.uleb128 0xf
 2753 10de 39000000 		.4byte	0x39
 2754 10e2 1F       		.byte	0x1f
 2755 10e3 00       		.byte	0
 2756 10e4 14       		.uleb128 0x14
 2757 10e5 AE050000 		.4byte	.LASF236
 2758 10e9 21       		.byte	0x21
 2759 10ea 14       		.byte	0x14
 2760 10eb D4100000 		.4byte	0x10d4
 2761 10ef 05       		.uleb128 0x5
 2762 10f0 03       		.byte	0x3
 2763 10f1 00000000 		.4byte	adc_buffer
 2764 10f5 14       		.uleb128 0x14
 2765 10f6 4B050000 		.4byte	.LASF237
 2766 10fa 2B       		.byte	0x2b
 2767 10fb 21       		.byte	0x21
 2768 10fc 190F0000 		.4byte	0xf19
 2769 1100 05       		.uleb128 0x5
 2770 1101 03       		.byte	0x3
 2771 1102 00000000 		.4byte	adcgrpcfg
 2772 1106 0E       		.uleb128 0xe
 2773 1107 C7000000 		.4byte	0xc7
 2774 110b 16110000 		.4byte	0x1116
 2775 110f 0F       		.uleb128 0xf
 2776 1110 39000000 		.4byte	0x39
 2777 1114 0F       		.byte	0xf
 2778 1115 00       		.byte	0
ARM GAS  C:\Users\DEVELO~1\AppData\Local\Temp\cclsZJPb.s 			page 50


 2779 1116 14       		.uleb128 0x14
 2780 1117 8A000000 		.4byte	.LASF238
 2781 111b 61       		.byte	0x61
 2782 111c 11       		.byte	0x11
 2783 111d 06110000 		.4byte	0x1106
 2784 1121 05       		.uleb128 0x5
 2785 1122 03       		.byte	0x3
 2786 1123 00000000 		.4byte	hall_values
 2787 1127 19       		.uleb128 0x19
 2788 1128 92040000 		.4byte	.LASF239
 2789 112c 16       		.byte	0x16
 2790 112d 14       		.byte	0x14
 2791 112e 20       		.uleb128 0x20
 2792 112f 24060000 		.4byte	.LASF244
 2793 1133 18       		.byte	0x18
 2794 1134 1401     		.2byte	0x114
 2795 1136 05       		.byte	0x5
 2796 1137 26000000 		.4byte	0x26
 2797 113b 50110000 		.4byte	0x1150
 2798 113f 06       		.uleb128 0x6
 2799 1140 CF100000 		.4byte	0x10cf
 2800 1144 06       		.uleb128 0x6
 2801 1145 2D000000 		.4byte	0x2d
 2802 1149 06       		.uleb128 0x6
 2803 114a 50030000 		.4byte	0x350
 2804 114e 2C       		.uleb128 0x2c
 2805 114f 00       		.byte	0
 2806 1150 2D       		.uleb128 0x2d
 2807 1151 7A090000 		.4byte	.LASF241
 2808 1155 16       		.byte	0x16
 2809 1156 22       		.byte	0x22
 2810 1157 06       		.byte	0x6
 2811 1158 6C110000 		.4byte	0x116c
 2812 115c 06       		.uleb128 0x6
 2813 115d BB000000 		.4byte	0xbb
 2814 1161 06       		.uleb128 0x6
 2815 1162 BB000000 		.4byte	0xbb
 2816 1166 06       		.uleb128 0x6
 2817 1167 50030000 		.4byte	0x350
 2818 116b 00       		.byte	0
 2819 116c 19       		.uleb128 0x19
 2820 116d B3080000 		.4byte	.LASF240
 2821 1171 16       		.byte	0x16
 2822 1172 13       		.byte	0x13
 2823 1173 1C       		.uleb128 0x1c
 2824 1174 60090000 		.4byte	.LASF242
 2825 1178 17       		.byte	0x17
 2826 1179 4201     		.2byte	0x142
 2827 117b 85110000 		.4byte	0x1185
 2828 117f 06       		.uleb128 0x6
 2829 1180 7E030000 		.4byte	0x37e
 2830 1184 00       		.byte	0
 2831 1185 1C       		.uleb128 0x1c
 2832 1186 8A060000 		.4byte	.LASF243
 2833 118a 14       		.byte	0x14
 2834 118b 8401     		.2byte	0x184
 2835 118d A6110000 		.4byte	0x11a6
ARM GAS  C:\Users\DEVELO~1\AppData\Local\Temp\cclsZJPb.s 			page 51


 2836 1191 06       		.uleb128 0x6
 2837 1192 90100000 		.4byte	0x1090
 2838 1196 06       		.uleb128 0x6
 2839 1197 C0100000 		.4byte	0x10c0
 2840 119b 06       		.uleb128 0x6
 2841 119c BB100000 		.4byte	0x10bb
 2842 11a0 06       		.uleb128 0x6
 2843 11a1 2D000000 		.4byte	0x2d
 2844 11a5 00       		.byte	0
 2845 11a6 20       		.uleb128 0x20
 2846 11a7 6D050000 		.4byte	.LASF245
 2847 11ab 14       		.byte	0x14
 2848 11ac 8201     		.2byte	0x182
 2849 11ae 09       		.byte	0x9
 2850 11af 49010000 		.4byte	0x149
 2851 11b3 C2110000 		.4byte	0x11c2
 2852 11b7 06       		.uleb128 0x6
 2853 11b8 90100000 		.4byte	0x1090
 2854 11bc 06       		.uleb128 0x6
 2855 11bd B6100000 		.4byte	0x10b6
 2856 11c1 00       		.byte	0
 2857 11c2 1C       		.uleb128 0x1c
 2858 11c3 EA020000 		.4byte	.LASF246
 2859 11c7 13       		.byte	0x13
 2860 11c8 F301     		.2byte	0x1f3
 2861 11ca DE110000 		.4byte	0x11de
 2862 11ce 06       		.uleb128 0x6
 2863 11cf DB0D0000 		.4byte	0xddb
 2864 11d3 06       		.uleb128 0x6
 2865 11d4 C30D0000 		.4byte	0xdc3
 2866 11d8 06       		.uleb128 0x6
 2867 11d9 CF0D0000 		.4byte	0xdcf
 2868 11dd 00       		.byte	0
 2869 11de 19       		.uleb128 0x19
 2870 11df 3B000000 		.4byte	.LASF247
 2871 11e3 16       		.byte	0x16
 2872 11e4 12       		.byte	0x12
 2873 11e5 19       		.uleb128 0x19
 2874 11e6 90090000 		.4byte	.LASF248
 2875 11ea 19       		.byte	0x19
 2876 11eb 28       		.byte	0x28
 2877 11ec 21       		.uleb128 0x21
 2878 11ed AA040000 		.4byte	.LASF249
 2879 11f1 1A       		.byte	0x1a
 2880 11f2 4E01     		.2byte	0x14e
 2881 11f4 21       		.uleb128 0x21
 2882 11f5 35080000 		.4byte	.LASF250
 2883 11f9 1B       		.byte	0x1b
 2884 11fa 0101     		.2byte	0x101
 2885 11fc 2E       		.uleb128 0x2e
 2886 11fd 120A0000 		.4byte	.LASF260
 2887 1201 01       		.byte	0x1
 2888 1202 65       		.byte	0x65
 2889 1203 05       		.byte	0x5
 2890 1204 26000000 		.4byte	0x26
 2891 1208 00000000 		.4byte	.LFB438
 2892 120c 70010000 		.4byte	.LFE438-.LFB438
ARM GAS  C:\Users\DEVELO~1\AppData\Local\Temp\cclsZJPb.s 			page 52


 2893 1210 01       		.uleb128 0x1
 2894 1211 9C       		.byte	0x9c
 2895 1212 95120000 		.4byte	0x1295
 2896 1216 14       		.uleb128 0x14
 2897 1217 5B090000 		.4byte	.LASF251
 2898 121b 7E       		.byte	0x7e
 2899 121c 08       		.byte	0x8
 2900 121d 95120000 		.4byte	0x1295
 2901 1221 02       		.uleb128 0x2
 2902 1222 91       		.byte	0x91
 2903 1223 48       		.sleb128 -56
 2904 1224 1A       		.uleb128 0x1a
 2905 1225 48000000 		.4byte	.LBB5
 2906 1229 1E000000 		.4byte	.LBE5-.LBB5
 2907 122d 3E120000 		.4byte	0x123e
 2908 1231 0C       		.uleb128 0xc
 2909 1232 6900     		.ascii	"i\000"
 2910 1234 77       		.byte	0x77
 2911 1235 11       		.byte	0x11
 2912 1236 39000000 		.4byte	0x39
 2913 123a 02       		.uleb128 0x2
 2914 123b 91       		.byte	0x91
 2915 123c 6C       		.sleb128 -20
 2916 123d 00       		.byte	0
 2917 123e 1A       		.uleb128 0x1a
 2918 123f 7A000000 		.4byte	.LBB6
 2919 1243 50000000 		.4byte	.LBE6-.LBB6
 2920 1247 7E120000 		.4byte	0x127e
 2921 124b 14       		.uleb128 0x14
 2922 124c 66050000 		.4byte	.LASF252
 2923 1250 83       		.byte	0x83
 2924 1251 12       		.byte	0x12
 2925 1252 BB000000 		.4byte	0xbb
 2926 1256 02       		.uleb128 0x2
 2927 1257 91       		.byte	0x91
 2928 1258 6B       		.sleb128 -21
 2929 1259 1D       		.uleb128 0x1d
 2930 125a 82000000 		.4byte	.LBB7
 2931 125e 36000000 		.4byte	.LBE7-.LBB7
 2932 1262 0C       		.uleb128 0xc
 2933 1263 764100   		.ascii	"vA\000"
 2934 1266 88       		.byte	0x88
 2935 1267 10       		.byte	0x10
 2936 1268 C7000000 		.4byte	0xc7
 2937 126c 02       		.uleb128 0x2
 2938 126d 91       		.byte	0x91
 2939 126e 46       		.sleb128 -58
 2940 126f 0C       		.uleb128 0xc
 2941 1270 764200   		.ascii	"vB\000"
 2942 1273 88       		.byte	0x88
 2943 1274 14       		.byte	0x14
 2944 1275 C7000000 		.4byte	0xc7
 2945 1279 02       		.uleb128 0x2
 2946 127a 91       		.byte	0x91
 2947 127b 44       		.sleb128 -60
 2948 127c 00       		.byte	0
 2949 127d 00       		.byte	0
ARM GAS  C:\Users\DEVELO~1\AppData\Local\Temp\cclsZJPb.s 			page 53


 2950 127e 1D       		.uleb128 0x1d
 2951 127f D8000000 		.4byte	.LBB8
 2952 1283 6A000000 		.4byte	.LBE8-.LBB8
 2953 1287 0C       		.uleb128 0xc
 2954 1288 6900     		.ascii	"i\000"
 2955 128a 95       		.byte	0x95
 2956 128b 12       		.byte	0x12
 2957 128c BB000000 		.4byte	0xbb
 2958 1290 02       		.uleb128 0x2
 2959 1291 91       		.byte	0x91
 2960 1292 6A       		.sleb128 -22
 2961 1293 00       		.byte	0
 2962 1294 00       		.byte	0
 2963 1295 0E       		.uleb128 0xe
 2964 1296 5A030000 		.4byte	0x35a
 2965 129a A5120000 		.4byte	0x12a5
 2966 129e 0F       		.uleb128 0xf
 2967 129f 39000000 		.4byte	0x39
 2968 12a3 1F       		.byte	0x1f
 2969 12a4 00       		.byte	0
 2970 12a5 22       		.uleb128 0x22
 2971 12a6 8E0A0000 		.4byte	.LASF253
 2972 12aa 59       		.byte	0x59
 2973 12ab 00000000 		.4byte	.LFB437
 2974 12af 38000000 		.4byte	.LFE437-.LFB437
 2975 12b3 01       		.uleb128 0x1
 2976 12b4 9C       		.byte	0x9c
 2977 12b5 E0120000 		.4byte	0x12e0
 2978 12b9 1E       		.uleb128 0x1e
 2979 12ba 6100     		.ascii	"a\000"
 2980 12bc 59       		.byte	0x59
 2981 12bd 28       		.byte	0x28
 2982 12be E0120000 		.4byte	0x12e0
 2983 12c2 02       		.uleb128 0x2
 2984 12c3 91       		.byte	0x91
 2985 12c4 6C       		.sleb128 -20
 2986 12c5 1E       		.uleb128 0x1e
 2987 12c6 6200     		.ascii	"b\000"
 2988 12c8 59       		.byte	0x59
 2989 12c9 35       		.byte	0x35
 2990 12ca E0120000 		.4byte	0x12e0
 2991 12ce 02       		.uleb128 0x2
 2992 12cf 91       		.byte	0x91
 2993 12d0 68       		.sleb128 -24
 2994 12d1 0C       		.uleb128 0xc
 2995 12d2 69647800 		.ascii	"idx\000"
 2996 12d6 5A       		.byte	0x5a
 2997 12d7 0A       		.byte	0xa
 2998 12d8 2D000000 		.4byte	0x2d
 2999 12dc 02       		.uleb128 0x2
 3000 12dd 91       		.byte	0x91
 3001 12de 74       		.sleb128 -12
 3002 12df 00       		.byte	0
 3003 12e0 04       		.uleb128 0x4
 3004 12e1 C7000000 		.4byte	0xc7
 3005 12e5 22       		.uleb128 0x22
 3006 12e6 C2000000 		.4byte	.LASF254
ARM GAS  C:\Users\DEVELO~1\AppData\Local\Temp\cclsZJPb.s 			page 54


 3007 12ea 51       		.byte	0x51
 3008 12eb 00000000 		.4byte	.LFB436
 3009 12ef 94000000 		.4byte	.LFE436-.LFB436
 3010 12f3 01       		.uleb128 0x1
 3011 12f4 9C       		.byte	0x9c
 3012 12f5 51130000 		.4byte	0x1351
 3013 12f9 1E       		.uleb128 0x1e
 3014 12fa 636800   		.ascii	"ch\000"
 3015 12fd 51       		.byte	0x51
 3016 12fe 1F       		.byte	0x1f
 3017 12ff BB000000 		.4byte	0xbb
 3018 1303 02       		.uleb128 0x2
 3019 1304 91       		.byte	0x91
 3020 1305 67       		.sleb128 -25
 3021 1306 1A       		.uleb128 0x1a
 3022 1307 0A000000 		.4byte	.LBB2
 3023 130b 24000000 		.4byte	.LBE2-.LBB2
 3024 130f 20130000 		.4byte	0x1320
 3025 1313 0C       		.uleb128 0xc
 3026 1314 7700     		.ascii	"w\000"
 3027 1316 52       		.byte	0x52
 3028 1317 03       		.byte	0x3
 3029 1318 DF000000 		.4byte	0xdf
 3030 131c 02       		.uleb128 0x2
 3031 131d 91       		.byte	0x91
 3032 131e 74       		.sleb128 -12
 3033 131f 00       		.byte	0
 3034 1320 1A       		.uleb128 0x1a
 3035 1321 2E000000 		.4byte	.LBB3
 3036 1325 2C000000 		.4byte	.LBE3-.LBB3
 3037 1329 3A130000 		.4byte	0x133a
 3038 132d 0C       		.uleb128 0xc
 3039 132e 7700     		.ascii	"w\000"
 3040 1330 53       		.byte	0x53
 3041 1331 03       		.byte	0x3
 3042 1332 DF000000 		.4byte	0xdf
 3043 1336 02       		.uleb128 0x2
 3044 1337 91       		.byte	0x91
 3045 1338 70       		.sleb128 -16
 3046 1339 00       		.byte	0
 3047 133a 1D       		.uleb128 0x1d
 3048 133b 5A000000 		.4byte	.LBB4
 3049 133f 2C000000 		.4byte	.LBE4-.LBB4
 3050 1343 0C       		.uleb128 0xc
 3051 1344 7700     		.ascii	"w\000"
 3052 1346 54       		.byte	0x54
 3053 1347 03       		.byte	0x3
 3054 1348 DF000000 		.4byte	0xdf
 3055 134c 02       		.uleb128 0x2
 3056 134d 91       		.byte	0x91
 3057 134e 6C       		.sleb128 -20
 3058 134f 00       		.byte	0
 3059 1350 00       		.byte	0
 3060 1351 2F       		.uleb128 0x2f
 3061 1352 DD080000 		.4byte	.LASF261
 3062 1356 01       		.byte	0x1
 3063 1357 25       		.byte	0x25
ARM GAS  C:\Users\DEVELO~1\AppData\Local\Temp\cclsZJPb.s 			page 55


 3064 1358 0D       		.byte	0xd
 3065 1359 00000000 		.4byte	.LFB435
 3066 135d 12000000 		.4byte	.LFE435-.LFB435
 3067 1361 01       		.uleb128 0x1
 3068 1362 9C       		.byte	0x9c
 3069 1363 30       		.uleb128 0x30
 3070 1364 D8080000 		.4byte	.LASF255
 3071 1368 01       		.byte	0x1
 3072 1369 25       		.byte	0x25
 3073 136a 1F       		.byte	0x1f
 3074 136b 90100000 		.4byte	0x1090
 3075 136f 02       		.uleb128 0x2
 3076 1370 91       		.byte	0x91
 3077 1371 74       		.sleb128 -12
 3078 1372 00       		.byte	0
 3079 1373 00       		.byte	0
 3080              		.section	.debug_abbrev,"",%progbits
 3081              	.Ldebug_abbrev0:
 3082 0000 01       		.uleb128 0x1
 3083 0001 0D       		.uleb128 0xd
 3084 0002 00       		.byte	0
 3085 0003 03       		.uleb128 0x3
 3086 0004 0E       		.uleb128 0xe
 3087 0005 3A       		.uleb128 0x3a
 3088 0006 0B       		.uleb128 0xb
 3089 0007 3B       		.uleb128 0x3b
 3090 0008 0B       		.uleb128 0xb
 3091 0009 39       		.uleb128 0x39
 3092 000a 0B       		.uleb128 0xb
 3093 000b 49       		.uleb128 0x49
 3094 000c 13       		.uleb128 0x13
 3095 000d 38       		.uleb128 0x38
 3096 000e 0B       		.uleb128 0xb
 3097 000f 00       		.byte	0
 3098 0010 00       		.byte	0
 3099 0011 02       		.uleb128 0x2
 3100 0012 0D       		.uleb128 0xd
 3101 0013 00       		.byte	0
 3102 0014 03       		.uleb128 0x3
 3103 0015 0E       		.uleb128 0xe
 3104 0016 3A       		.uleb128 0x3a
 3105 0017 0B       		.uleb128 0xb
 3106 0018 3B       		.uleb128 0x3b
 3107 0019 05       		.uleb128 0x5
 3108 001a 39       		.uleb128 0x39
 3109 001b 0B       		.uleb128 0xb
 3110 001c 49       		.uleb128 0x49
 3111 001d 13       		.uleb128 0x13
 3112 001e 38       		.uleb128 0x38
 3113 001f 0B       		.uleb128 0xb
 3114 0020 00       		.byte	0
 3115 0021 00       		.byte	0
 3116 0022 03       		.uleb128 0x3
 3117 0023 16       		.uleb128 0x16
 3118 0024 00       		.byte	0
 3119 0025 03       		.uleb128 0x3
 3120 0026 0E       		.uleb128 0xe
ARM GAS  C:\Users\DEVELO~1\AppData\Local\Temp\cclsZJPb.s 			page 56


 3121 0027 3A       		.uleb128 0x3a
 3122 0028 0B       		.uleb128 0xb
 3123 0029 3B       		.uleb128 0x3b
 3124 002a 0B       		.uleb128 0xb
 3125 002b 39       		.uleb128 0x39
 3126 002c 0B       		.uleb128 0xb
 3127 002d 49       		.uleb128 0x49
 3128 002e 13       		.uleb128 0x13
 3129 002f 00       		.byte	0
 3130 0030 00       		.byte	0
 3131 0031 04       		.uleb128 0x4
 3132 0032 0F       		.uleb128 0xf
 3133 0033 00       		.byte	0
 3134 0034 0B       		.uleb128 0xb
 3135 0035 21       		.uleb128 0x21
 3136 0036 04       		.sleb128 4
 3137 0037 49       		.uleb128 0x49
 3138 0038 13       		.uleb128 0x13
 3139 0039 00       		.byte	0
 3140 003a 00       		.byte	0
 3141 003b 05       		.uleb128 0x5
 3142 003c 0D       		.uleb128 0xd
 3143 003d 00       		.byte	0
 3144 003e 03       		.uleb128 0x3
 3145 003f 08       		.uleb128 0x8
 3146 0040 3A       		.uleb128 0x3a
 3147 0041 0B       		.uleb128 0xb
 3148 0042 3B       		.uleb128 0x3b
 3149 0043 05       		.uleb128 0x5
 3150 0044 39       		.uleb128 0x39
 3151 0045 0B       		.uleb128 0xb
 3152 0046 49       		.uleb128 0x49
 3153 0047 13       		.uleb128 0x13
 3154 0048 38       		.uleb128 0x38
 3155 0049 0B       		.uleb128 0xb
 3156 004a 00       		.byte	0
 3157 004b 00       		.byte	0
 3158 004c 06       		.uleb128 0x6
 3159 004d 05       		.uleb128 0x5
 3160 004e 00       		.byte	0
 3161 004f 49       		.uleb128 0x49
 3162 0050 13       		.uleb128 0x13
 3163 0051 00       		.byte	0
 3164 0052 00       		.byte	0
 3165 0053 07       		.uleb128 0x7
 3166 0054 0D       		.uleb128 0xd
 3167 0055 00       		.byte	0
 3168 0056 03       		.uleb128 0x3
 3169 0057 08       		.uleb128 0x8
 3170 0058 3A       		.uleb128 0x3a
 3171 0059 0B       		.uleb128 0xb
 3172 005a 3B       		.uleb128 0x3b
 3173 005b 0B       		.uleb128 0xb
 3174 005c 39       		.uleb128 0x39
 3175 005d 0B       		.uleb128 0xb
 3176 005e 49       		.uleb128 0x49
 3177 005f 13       		.uleb128 0x13
ARM GAS  C:\Users\DEVELO~1\AppData\Local\Temp\cclsZJPb.s 			page 57


 3178 0060 38       		.uleb128 0x38
 3179 0061 0B       		.uleb128 0xb
 3180 0062 00       		.byte	0
 3181 0063 00       		.byte	0
 3182 0064 08       		.uleb128 0x8
 3183 0065 13       		.uleb128 0x13
 3184 0066 01       		.byte	0x1
 3185 0067 03       		.uleb128 0x3
 3186 0068 0E       		.uleb128 0xe
 3187 0069 0B       		.uleb128 0xb
 3188 006a 0B       		.uleb128 0xb
 3189 006b 3A       		.uleb128 0x3a
 3190 006c 0B       		.uleb128 0xb
 3191 006d 3B       		.uleb128 0x3b
 3192 006e 0B       		.uleb128 0xb
 3193 006f 39       		.uleb128 0x39
 3194 0070 0B       		.uleb128 0xb
 3195 0071 01       		.uleb128 0x1
 3196 0072 13       		.uleb128 0x13
 3197 0073 00       		.byte	0
 3198 0074 00       		.byte	0
 3199 0075 09       		.uleb128 0x9
 3200 0076 24       		.uleb128 0x24
 3201 0077 00       		.byte	0
 3202 0078 0B       		.uleb128 0xb
 3203 0079 0B       		.uleb128 0xb
 3204 007a 3E       		.uleb128 0x3e
 3205 007b 0B       		.uleb128 0xb
 3206 007c 03       		.uleb128 0x3
 3207 007d 0E       		.uleb128 0xe
 3208 007e 00       		.byte	0
 3209 007f 00       		.byte	0
 3210 0080 0A       		.uleb128 0xa
 3211 0081 16       		.uleb128 0x16
 3212 0082 00       		.byte	0
 3213 0083 03       		.uleb128 0x3
 3214 0084 0E       		.uleb128 0xe
 3215 0085 3A       		.uleb128 0x3a
 3216 0086 0B       		.uleb128 0xb
 3217 0087 3B       		.uleb128 0x3b
 3218 0088 05       		.uleb128 0x5
 3219 0089 39       		.uleb128 0x39
 3220 008a 0B       		.uleb128 0xb
 3221 008b 49       		.uleb128 0x49
 3222 008c 13       		.uleb128 0x13
 3223 008d 00       		.byte	0
 3224 008e 00       		.byte	0
 3225 008f 0B       		.uleb128 0xb
 3226 0090 13       		.uleb128 0x13
 3227 0091 01       		.byte	0x1
 3228 0092 0B       		.uleb128 0xb
 3229 0093 0B       		.uleb128 0xb
 3230 0094 3A       		.uleb128 0x3a
 3231 0095 0B       		.uleb128 0xb
 3232 0096 3B       		.uleb128 0x3b
 3233 0097 0B       		.uleb128 0xb
 3234 0098 39       		.uleb128 0x39
ARM GAS  C:\Users\DEVELO~1\AppData\Local\Temp\cclsZJPb.s 			page 58


 3235 0099 0B       		.uleb128 0xb
 3236 009a 01       		.uleb128 0x1
 3237 009b 13       		.uleb128 0x13
 3238 009c 00       		.byte	0
 3239 009d 00       		.byte	0
 3240 009e 0C       		.uleb128 0xc
 3241 009f 34       		.uleb128 0x34
 3242 00a0 00       		.byte	0
 3243 00a1 03       		.uleb128 0x3
 3244 00a2 08       		.uleb128 0x8
 3245 00a3 3A       		.uleb128 0x3a
 3246 00a4 21       		.uleb128 0x21
 3247 00a5 01       		.sleb128 1
 3248 00a6 3B       		.uleb128 0x3b
 3249 00a7 0B       		.uleb128 0xb
 3250 00a8 39       		.uleb128 0x39
 3251 00a9 0B       		.uleb128 0xb
 3252 00aa 49       		.uleb128 0x49
 3253 00ab 13       		.uleb128 0x13
 3254 00ac 02       		.uleb128 0x2
 3255 00ad 18       		.uleb128 0x18
 3256 00ae 00       		.byte	0
 3257 00af 00       		.byte	0
 3258 00b0 0D       		.uleb128 0xd
 3259 00b1 0D       		.uleb128 0xd
 3260 00b2 00       		.byte	0
 3261 00b3 03       		.uleb128 0x3
 3262 00b4 0E       		.uleb128 0xe
 3263 00b5 3A       		.uleb128 0x3a
 3264 00b6 0B       		.uleb128 0xb
 3265 00b7 3B       		.uleb128 0x3b
 3266 00b8 0B       		.uleb128 0xb
 3267 00b9 39       		.uleb128 0x39
 3268 00ba 0B       		.uleb128 0xb
 3269 00bb 49       		.uleb128 0x49
 3270 00bc 13       		.uleb128 0x13
 3271 00bd 00       		.byte	0
 3272 00be 00       		.byte	0
 3273 00bf 0E       		.uleb128 0xe
 3274 00c0 01       		.uleb128 0x1
 3275 00c1 01       		.byte	0x1
 3276 00c2 49       		.uleb128 0x49
 3277 00c3 13       		.uleb128 0x13
 3278 00c4 01       		.uleb128 0x1
 3279 00c5 13       		.uleb128 0x13
 3280 00c6 00       		.byte	0
 3281 00c7 00       		.byte	0
 3282 00c8 0F       		.uleb128 0xf
 3283 00c9 21       		.uleb128 0x21
 3284 00ca 00       		.byte	0
 3285 00cb 49       		.uleb128 0x49
 3286 00cc 13       		.uleb128 0x13
 3287 00cd 2F       		.uleb128 0x2f
 3288 00ce 0B       		.uleb128 0xb
 3289 00cf 00       		.byte	0
 3290 00d0 00       		.byte	0
 3291 00d1 10       		.uleb128 0x10
ARM GAS  C:\Users\DEVELO~1\AppData\Local\Temp\cclsZJPb.s 			page 59


 3292 00d2 0D       		.uleb128 0xd
 3293 00d3 00       		.byte	0
 3294 00d4 03       		.uleb128 0x3
 3295 00d5 0E       		.uleb128 0xe
 3296 00d6 3A       		.uleb128 0x3a
 3297 00d7 21       		.uleb128 0x21
 3298 00d8 07       		.sleb128 7
 3299 00d9 3B       		.uleb128 0x3b
 3300 00da 05       		.uleb128 0x5
 3301 00db 39       		.uleb128 0x39
 3302 00dc 0B       		.uleb128 0xb
 3303 00dd 49       		.uleb128 0x49
 3304 00de 13       		.uleb128 0x13
 3305 00df 00       		.byte	0
 3306 00e0 00       		.byte	0
 3307 00e1 11       		.uleb128 0x11
 3308 00e2 28       		.uleb128 0x28
 3309 00e3 00       		.byte	0
 3310 00e4 03       		.uleb128 0x3
 3311 00e5 0E       		.uleb128 0xe
 3312 00e6 1C       		.uleb128 0x1c
 3313 00e7 0B       		.uleb128 0xb
 3314 00e8 00       		.byte	0
 3315 00e9 00       		.byte	0
 3316 00ea 12       		.uleb128 0x12
 3317 00eb 26       		.uleb128 0x26
 3318 00ec 00       		.byte	0
 3319 00ed 49       		.uleb128 0x49
 3320 00ee 13       		.uleb128 0x13
 3321 00ef 00       		.byte	0
 3322 00f0 00       		.byte	0
 3323 00f1 13       		.uleb128 0x13
 3324 00f2 0D       		.uleb128 0xd
 3325 00f3 00       		.byte	0
 3326 00f4 03       		.uleb128 0x3
 3327 00f5 08       		.uleb128 0x8
 3328 00f6 3A       		.uleb128 0x3a
 3329 00f7 0B       		.uleb128 0xb
 3330 00f8 3B       		.uleb128 0x3b
 3331 00f9 0B       		.uleb128 0xb
 3332 00fa 39       		.uleb128 0x39
 3333 00fb 0B       		.uleb128 0xb
 3334 00fc 49       		.uleb128 0x49
 3335 00fd 13       		.uleb128 0x13
 3336 00fe 00       		.byte	0
 3337 00ff 00       		.byte	0
 3338 0100 14       		.uleb128 0x14
 3339 0101 34       		.uleb128 0x34
 3340 0102 00       		.byte	0
 3341 0103 03       		.uleb128 0x3
 3342 0104 0E       		.uleb128 0xe
 3343 0105 3A       		.uleb128 0x3a
 3344 0106 21       		.uleb128 0x21
 3345 0107 01       		.sleb128 1
 3346 0108 3B       		.uleb128 0x3b
 3347 0109 0B       		.uleb128 0xb
 3348 010a 39       		.uleb128 0x39
ARM GAS  C:\Users\DEVELO~1\AppData\Local\Temp\cclsZJPb.s 			page 60


 3349 010b 0B       		.uleb128 0xb
 3350 010c 49       		.uleb128 0x49
 3351 010d 13       		.uleb128 0x13
 3352 010e 02       		.uleb128 0x2
 3353 010f 18       		.uleb128 0x18
 3354 0110 00       		.byte	0
 3355 0111 00       		.byte	0
 3356 0112 15       		.uleb128 0x15
 3357 0113 35       		.uleb128 0x35
 3358 0114 00       		.byte	0
 3359 0115 49       		.uleb128 0x49
 3360 0116 13       		.uleb128 0x13
 3361 0117 00       		.byte	0
 3362 0118 00       		.byte	0
 3363 0119 16       		.uleb128 0x16
 3364 011a 17       		.uleb128 0x17
 3365 011b 01       		.byte	0x1
 3366 011c 0B       		.uleb128 0xb
 3367 011d 0B       		.uleb128 0xb
 3368 011e 3A       		.uleb128 0x3a
 3369 011f 0B       		.uleb128 0xb
 3370 0120 3B       		.uleb128 0x3b
 3371 0121 0B       		.uleb128 0xb
 3372 0122 39       		.uleb128 0x39
 3373 0123 0B       		.uleb128 0xb
 3374 0124 01       		.uleb128 0x1
 3375 0125 13       		.uleb128 0x13
 3376 0126 00       		.byte	0
 3377 0127 00       		.byte	0
 3378 0128 17       		.uleb128 0x17
 3379 0129 13       		.uleb128 0x13
 3380 012a 01       		.byte	0x1
 3381 012b 0B       		.uleb128 0xb
 3382 012c 0B       		.uleb128 0xb
 3383 012d 3A       		.uleb128 0x3a
 3384 012e 0B       		.uleb128 0xb
 3385 012f 3B       		.uleb128 0x3b
 3386 0130 05       		.uleb128 0x5
 3387 0131 39       		.uleb128 0x39
 3388 0132 21       		.uleb128 0x21
 3389 0133 09       		.sleb128 9
 3390 0134 01       		.uleb128 0x1
 3391 0135 13       		.uleb128 0x13
 3392 0136 00       		.byte	0
 3393 0137 00       		.byte	0
 3394 0138 18       		.uleb128 0x18
 3395 0139 13       		.uleb128 0x13
 3396 013a 01       		.byte	0x1
 3397 013b 03       		.uleb128 0x3
 3398 013c 0E       		.uleb128 0xe
 3399 013d 0B       		.uleb128 0xb
 3400 013e 0B       		.uleb128 0xb
 3401 013f 3A       		.uleb128 0x3a
 3402 0140 0B       		.uleb128 0xb
 3403 0141 3B       		.uleb128 0x3b
 3404 0142 05       		.uleb128 0x5
 3405 0143 39       		.uleb128 0x39
ARM GAS  C:\Users\DEVELO~1\AppData\Local\Temp\cclsZJPb.s 			page 61


 3406 0144 0B       		.uleb128 0xb
 3407 0145 01       		.uleb128 0x1
 3408 0146 13       		.uleb128 0x13
 3409 0147 00       		.byte	0
 3410 0148 00       		.byte	0
 3411 0149 19       		.uleb128 0x19
 3412 014a 2E       		.uleb128 0x2e
 3413 014b 00       		.byte	0
 3414 014c 3F       		.uleb128 0x3f
 3415 014d 19       		.uleb128 0x19
 3416 014e 03       		.uleb128 0x3
 3417 014f 0E       		.uleb128 0xe
 3418 0150 3A       		.uleb128 0x3a
 3419 0151 0B       		.uleb128 0xb
 3420 0152 3B       		.uleb128 0x3b
 3421 0153 0B       		.uleb128 0xb
 3422 0154 39       		.uleb128 0x39
 3423 0155 21       		.uleb128 0x21
 3424 0156 06       		.sleb128 6
 3425 0157 27       		.uleb128 0x27
 3426 0158 19       		.uleb128 0x19
 3427 0159 3C       		.uleb128 0x3c
 3428 015a 19       		.uleb128 0x19
 3429 015b 00       		.byte	0
 3430 015c 00       		.byte	0
 3431 015d 1A       		.uleb128 0x1a
 3432 015e 0B       		.uleb128 0xb
 3433 015f 01       		.byte	0x1
 3434 0160 11       		.uleb128 0x11
 3435 0161 01       		.uleb128 0x1
 3436 0162 12       		.uleb128 0x12
 3437 0163 06       		.uleb128 0x6
 3438 0164 01       		.uleb128 0x1
 3439 0165 13       		.uleb128 0x13
 3440 0166 00       		.byte	0
 3441 0167 00       		.byte	0
 3442 0168 1B       		.uleb128 0x1b
 3443 0169 0D       		.uleb128 0xd
 3444 016a 00       		.byte	0
 3445 016b 03       		.uleb128 0x3
 3446 016c 0E       		.uleb128 0xe
 3447 016d 3A       		.uleb128 0x3a
 3448 016e 21       		.uleb128 0x21
 3449 016f 0C       		.sleb128 12
 3450 0170 3B       		.uleb128 0x3b
 3451 0171 0B       		.uleb128 0xb
 3452 0172 39       		.uleb128 0x39
 3453 0173 21       		.uleb128 0x21
 3454 0174 19       		.sleb128 25
 3455 0175 49       		.uleb128 0x49
 3456 0176 13       		.uleb128 0x13
 3457 0177 0D       		.uleb128 0xd
 3458 0178 0B       		.uleb128 0xb
 3459 0179 6B       		.uleb128 0x6b
 3460 017a 0B       		.uleb128 0xb
 3461 017b 00       		.byte	0
 3462 017c 00       		.byte	0
ARM GAS  C:\Users\DEVELO~1\AppData\Local\Temp\cclsZJPb.s 			page 62


 3463 017d 1C       		.uleb128 0x1c
 3464 017e 2E       		.uleb128 0x2e
 3465 017f 01       		.byte	0x1
 3466 0180 3F       		.uleb128 0x3f
 3467 0181 19       		.uleb128 0x19
 3468 0182 03       		.uleb128 0x3
 3469 0183 0E       		.uleb128 0xe
 3470 0184 3A       		.uleb128 0x3a
 3471 0185 0B       		.uleb128 0xb
 3472 0186 3B       		.uleb128 0x3b
 3473 0187 05       		.uleb128 0x5
 3474 0188 39       		.uleb128 0x39
 3475 0189 21       		.uleb128 0x21
 3476 018a 08       		.sleb128 8
 3477 018b 27       		.uleb128 0x27
 3478 018c 19       		.uleb128 0x19
 3479 018d 3C       		.uleb128 0x3c
 3480 018e 19       		.uleb128 0x19
 3481 018f 01       		.uleb128 0x1
 3482 0190 13       		.uleb128 0x13
 3483 0191 00       		.byte	0
 3484 0192 00       		.byte	0
 3485 0193 1D       		.uleb128 0x1d
 3486 0194 0B       		.uleb128 0xb
 3487 0195 01       		.byte	0x1
 3488 0196 11       		.uleb128 0x11
 3489 0197 01       		.uleb128 0x1
 3490 0198 12       		.uleb128 0x12
 3491 0199 06       		.uleb128 0x6
 3492 019a 00       		.byte	0
 3493 019b 00       		.byte	0
 3494 019c 1E       		.uleb128 0x1e
 3495 019d 05       		.uleb128 0x5
 3496 019e 00       		.byte	0
 3497 019f 03       		.uleb128 0x3
 3498 01a0 08       		.uleb128 0x8
 3499 01a1 3A       		.uleb128 0x3a
 3500 01a2 21       		.uleb128 0x21
 3501 01a3 01       		.sleb128 1
 3502 01a4 3B       		.uleb128 0x3b
 3503 01a5 0B       		.uleb128 0xb
 3504 01a6 39       		.uleb128 0x39
 3505 01a7 0B       		.uleb128 0xb
 3506 01a8 49       		.uleb128 0x49
 3507 01a9 13       		.uleb128 0x13
 3508 01aa 02       		.uleb128 0x2
 3509 01ab 18       		.uleb128 0x18
 3510 01ac 00       		.byte	0
 3511 01ad 00       		.byte	0
 3512 01ae 1F       		.uleb128 0x1f
 3513 01af 15       		.uleb128 0x15
 3514 01b0 01       		.byte	0x1
 3515 01b1 27       		.uleb128 0x27
 3516 01b2 19       		.uleb128 0x19
 3517 01b3 01       		.uleb128 0x1
 3518 01b4 13       		.uleb128 0x13
 3519 01b5 00       		.byte	0
ARM GAS  C:\Users\DEVELO~1\AppData\Local\Temp\cclsZJPb.s 			page 63


 3520 01b6 00       		.byte	0
 3521 01b7 20       		.uleb128 0x20
 3522 01b8 2E       		.uleb128 0x2e
 3523 01b9 01       		.byte	0x1
 3524 01ba 3F       		.uleb128 0x3f
 3525 01bb 19       		.uleb128 0x19
 3526 01bc 03       		.uleb128 0x3
 3527 01bd 0E       		.uleb128 0xe
 3528 01be 3A       		.uleb128 0x3a
 3529 01bf 0B       		.uleb128 0xb
 3530 01c0 3B       		.uleb128 0x3b
 3531 01c1 05       		.uleb128 0x5
 3532 01c2 39       		.uleb128 0x39
 3533 01c3 0B       		.uleb128 0xb
 3534 01c4 27       		.uleb128 0x27
 3535 01c5 19       		.uleb128 0x19
 3536 01c6 49       		.uleb128 0x49
 3537 01c7 13       		.uleb128 0x13
 3538 01c8 3C       		.uleb128 0x3c
 3539 01c9 19       		.uleb128 0x19
 3540 01ca 01       		.uleb128 0x1
 3541 01cb 13       		.uleb128 0x13
 3542 01cc 00       		.byte	0
 3543 01cd 00       		.byte	0
 3544 01ce 21       		.uleb128 0x21
 3545 01cf 2E       		.uleb128 0x2e
 3546 01d0 00       		.byte	0
 3547 01d1 3F       		.uleb128 0x3f
 3548 01d2 19       		.uleb128 0x19
 3549 01d3 03       		.uleb128 0x3
 3550 01d4 0E       		.uleb128 0xe
 3551 01d5 3A       		.uleb128 0x3a
 3552 01d6 0B       		.uleb128 0xb
 3553 01d7 3B       		.uleb128 0x3b
 3554 01d8 05       		.uleb128 0x5
 3555 01d9 39       		.uleb128 0x39
 3556 01da 21       		.uleb128 0x21
 3557 01db 08       		.sleb128 8
 3558 01dc 27       		.uleb128 0x27
 3559 01dd 19       		.uleb128 0x19
 3560 01de 3C       		.uleb128 0x3c
 3561 01df 19       		.uleb128 0x19
 3562 01e0 00       		.byte	0
 3563 01e1 00       		.byte	0
 3564 01e2 22       		.uleb128 0x22
 3565 01e3 2E       		.uleb128 0x2e
 3566 01e4 01       		.byte	0x1
 3567 01e5 03       		.uleb128 0x3
 3568 01e6 0E       		.uleb128 0xe
 3569 01e7 3A       		.uleb128 0x3a
 3570 01e8 21       		.uleb128 0x21
 3571 01e9 01       		.sleb128 1
 3572 01ea 3B       		.uleb128 0x3b
 3573 01eb 0B       		.uleb128 0xb
 3574 01ec 39       		.uleb128 0x39
 3575 01ed 21       		.uleb128 0x21
 3576 01ee 0D       		.sleb128 13
ARM GAS  C:\Users\DEVELO~1\AppData\Local\Temp\cclsZJPb.s 			page 64


 3577 01ef 27       		.uleb128 0x27
 3578 01f0 19       		.uleb128 0x19
 3579 01f1 11       		.uleb128 0x11
 3580 01f2 01       		.uleb128 0x1
 3581 01f3 12       		.uleb128 0x12
 3582 01f4 06       		.uleb128 0x6
 3583 01f5 40       		.uleb128 0x40
 3584 01f6 18       		.uleb128 0x18
 3585 01f7 7A       		.uleb128 0x7a
 3586 01f8 19       		.uleb128 0x19
 3587 01f9 01       		.uleb128 0x1
 3588 01fa 13       		.uleb128 0x13
 3589 01fb 00       		.byte	0
 3590 01fc 00       		.byte	0
 3591 01fd 23       		.uleb128 0x23
 3592 01fe 11       		.uleb128 0x11
 3593 01ff 01       		.byte	0x1
 3594 0200 25       		.uleb128 0x25
 3595 0201 0E       		.uleb128 0xe
 3596 0202 13       		.uleb128 0x13
 3597 0203 0B       		.uleb128 0xb
 3598 0204 03       		.uleb128 0x3
 3599 0205 0E       		.uleb128 0xe
 3600 0206 1B       		.uleb128 0x1b
 3601 0207 0E       		.uleb128 0xe
 3602 0208 55       		.uleb128 0x55
 3603 0209 17       		.uleb128 0x17
 3604 020a 11       		.uleb128 0x11
 3605 020b 01       		.uleb128 0x1
 3606 020c 10       		.uleb128 0x10
 3607 020d 17       		.uleb128 0x17
 3608 020e 00       		.byte	0
 3609 020f 00       		.byte	0
 3610 0210 24       		.uleb128 0x24
 3611 0211 24       		.uleb128 0x24
 3612 0212 00       		.byte	0
 3613 0213 0B       		.uleb128 0xb
 3614 0214 0B       		.uleb128 0xb
 3615 0215 3E       		.uleb128 0x3e
 3616 0216 0B       		.uleb128 0xb
 3617 0217 03       		.uleb128 0x3
 3618 0218 08       		.uleb128 0x8
 3619 0219 00       		.byte	0
 3620 021a 00       		.byte	0
 3621 021b 25       		.uleb128 0x25
 3622 021c 13       		.uleb128 0x13
 3623 021d 01       		.byte	0x1
 3624 021e 03       		.uleb128 0x3
 3625 021f 0E       		.uleb128 0xe
 3626 0220 0B       		.uleb128 0xb
 3627 0221 05       		.uleb128 0x5
 3628 0222 3A       		.uleb128 0x3a
 3629 0223 0B       		.uleb128 0xb
 3630 0224 3B       		.uleb128 0x3b
 3631 0225 05       		.uleb128 0x5
 3632 0226 39       		.uleb128 0x39
 3633 0227 0B       		.uleb128 0xb
ARM GAS  C:\Users\DEVELO~1\AppData\Local\Temp\cclsZJPb.s 			page 65


 3634 0228 01       		.uleb128 0x1
 3635 0229 13       		.uleb128 0x13
 3636 022a 00       		.byte	0
 3637 022b 00       		.byte	0
 3638 022c 26       		.uleb128 0x26
 3639 022d 0F       		.uleb128 0xf
 3640 022e 00       		.byte	0
 3641 022f 0B       		.uleb128 0xb
 3642 0230 0B       		.uleb128 0xb
 3643 0231 00       		.byte	0
 3644 0232 00       		.byte	0
 3645 0233 27       		.uleb128 0x27
 3646 0234 13       		.uleb128 0x13
 3647 0235 01       		.byte	0x1
 3648 0236 0B       		.uleb128 0xb
 3649 0237 05       		.uleb128 0x5
 3650 0238 3A       		.uleb128 0x3a
 3651 0239 0B       		.uleb128 0xb
 3652 023a 3B       		.uleb128 0x3b
 3653 023b 0B       		.uleb128 0xb
 3654 023c 39       		.uleb128 0x39
 3655 023d 0B       		.uleb128 0xb
 3656 023e 01       		.uleb128 0x1
 3657 023f 13       		.uleb128 0x13
 3658 0240 00       		.byte	0
 3659 0241 00       		.byte	0
 3660 0242 28       		.uleb128 0x28
 3661 0243 04       		.uleb128 0x4
 3662 0244 01       		.byte	0x1
 3663 0245 3E       		.uleb128 0x3e
 3664 0246 0B       		.uleb128 0xb
 3665 0247 0B       		.uleb128 0xb
 3666 0248 0B       		.uleb128 0xb
 3667 0249 49       		.uleb128 0x49
 3668 024a 13       		.uleb128 0x13
 3669 024b 3A       		.uleb128 0x3a
 3670 024c 0B       		.uleb128 0xb
 3671 024d 3B       		.uleb128 0x3b
 3672 024e 0B       		.uleb128 0xb
 3673 024f 39       		.uleb128 0x39
 3674 0250 0B       		.uleb128 0xb
 3675 0251 01       		.uleb128 0x1
 3676 0252 13       		.uleb128 0x13
 3677 0253 00       		.byte	0
 3678 0254 00       		.byte	0
 3679 0255 29       		.uleb128 0x29
 3680 0256 17       		.uleb128 0x17
 3681 0257 01       		.byte	0x1
 3682 0258 0B       		.uleb128 0xb
 3683 0259 0B       		.uleb128 0xb
 3684 025a 3A       		.uleb128 0x3a
 3685 025b 0B       		.uleb128 0xb
 3686 025c 3B       		.uleb128 0x3b
 3687 025d 05       		.uleb128 0x5
 3688 025e 39       		.uleb128 0x39
 3689 025f 0B       		.uleb128 0xb
 3690 0260 01       		.uleb128 0x1
ARM GAS  C:\Users\DEVELO~1\AppData\Local\Temp\cclsZJPb.s 			page 66


 3691 0261 13       		.uleb128 0x13
 3692 0262 00       		.byte	0
 3693 0263 00       		.byte	0
 3694 0264 2A       		.uleb128 0x2a
 3695 0265 0D       		.uleb128 0xd
 3696 0266 00       		.byte	0
 3697 0267 03       		.uleb128 0x3
 3698 0268 08       		.uleb128 0x8
 3699 0269 3A       		.uleb128 0x3a
 3700 026a 0B       		.uleb128 0xb
 3701 026b 3B       		.uleb128 0x3b
 3702 026c 05       		.uleb128 0x5
 3703 026d 39       		.uleb128 0x39
 3704 026e 0B       		.uleb128 0xb
 3705 026f 49       		.uleb128 0x49
 3706 0270 13       		.uleb128 0x13
 3707 0271 00       		.byte	0
 3708 0272 00       		.byte	0
 3709 0273 2B       		.uleb128 0x2b
 3710 0274 34       		.uleb128 0x34
 3711 0275 00       		.byte	0
 3712 0276 03       		.uleb128 0x3
 3713 0277 0E       		.uleb128 0xe
 3714 0278 3A       		.uleb128 0x3a
 3715 0279 0B       		.uleb128 0xb
 3716 027a 3B       		.uleb128 0x3b
 3717 027b 05       		.uleb128 0x5
 3718 027c 39       		.uleb128 0x39
 3719 027d 0B       		.uleb128 0xb
 3720 027e 49       		.uleb128 0x49
 3721 027f 13       		.uleb128 0x13
 3722 0280 3F       		.uleb128 0x3f
 3723 0281 19       		.uleb128 0x19
 3724 0282 3C       		.uleb128 0x3c
 3725 0283 19       		.uleb128 0x19
 3726 0284 00       		.byte	0
 3727 0285 00       		.byte	0
 3728 0286 2C       		.uleb128 0x2c
 3729 0287 18       		.uleb128 0x18
 3730 0288 00       		.byte	0
 3731 0289 00       		.byte	0
 3732 028a 00       		.byte	0
 3733 028b 2D       		.uleb128 0x2d
 3734 028c 2E       		.uleb128 0x2e
 3735 028d 01       		.byte	0x1
 3736 028e 3F       		.uleb128 0x3f
 3737 028f 19       		.uleb128 0x19
 3738 0290 03       		.uleb128 0x3
 3739 0291 0E       		.uleb128 0xe
 3740 0292 3A       		.uleb128 0x3a
 3741 0293 0B       		.uleb128 0xb
 3742 0294 3B       		.uleb128 0x3b
 3743 0295 0B       		.uleb128 0xb
 3744 0296 39       		.uleb128 0x39
 3745 0297 0B       		.uleb128 0xb
 3746 0298 27       		.uleb128 0x27
 3747 0299 19       		.uleb128 0x19
ARM GAS  C:\Users\DEVELO~1\AppData\Local\Temp\cclsZJPb.s 			page 67


 3748 029a 3C       		.uleb128 0x3c
 3749 029b 19       		.uleb128 0x19
 3750 029c 01       		.uleb128 0x1
 3751 029d 13       		.uleb128 0x13
 3752 029e 00       		.byte	0
 3753 029f 00       		.byte	0
 3754 02a0 2E       		.uleb128 0x2e
 3755 02a1 2E       		.uleb128 0x2e
 3756 02a2 01       		.byte	0x1
 3757 02a3 3F       		.uleb128 0x3f
 3758 02a4 19       		.uleb128 0x19
 3759 02a5 03       		.uleb128 0x3
 3760 02a6 0E       		.uleb128 0xe
 3761 02a7 3A       		.uleb128 0x3a
 3762 02a8 0B       		.uleb128 0xb
 3763 02a9 3B       		.uleb128 0x3b
 3764 02aa 0B       		.uleb128 0xb
 3765 02ab 39       		.uleb128 0x39
 3766 02ac 0B       		.uleb128 0xb
 3767 02ad 27       		.uleb128 0x27
 3768 02ae 19       		.uleb128 0x19
 3769 02af 49       		.uleb128 0x49
 3770 02b0 13       		.uleb128 0x13
 3771 02b1 11       		.uleb128 0x11
 3772 02b2 01       		.uleb128 0x1
 3773 02b3 12       		.uleb128 0x12
 3774 02b4 06       		.uleb128 0x6
 3775 02b5 40       		.uleb128 0x40
 3776 02b6 18       		.uleb128 0x18
 3777 02b7 7C       		.uleb128 0x7c
 3778 02b8 19       		.uleb128 0x19
 3779 02b9 01       		.uleb128 0x1
 3780 02ba 13       		.uleb128 0x13
 3781 02bb 00       		.byte	0
 3782 02bc 00       		.byte	0
 3783 02bd 2F       		.uleb128 0x2f
 3784 02be 2E       		.uleb128 0x2e
 3785 02bf 01       		.byte	0x1
 3786 02c0 03       		.uleb128 0x3
 3787 02c1 0E       		.uleb128 0xe
 3788 02c2 3A       		.uleb128 0x3a
 3789 02c3 0B       		.uleb128 0xb
 3790 02c4 3B       		.uleb128 0x3b
 3791 02c5 0B       		.uleb128 0xb
 3792 02c6 39       		.uleb128 0x39
 3793 02c7 0B       		.uleb128 0xb
 3794 02c8 27       		.uleb128 0x27
 3795 02c9 19       		.uleb128 0x19
 3796 02ca 11       		.uleb128 0x11
 3797 02cb 01       		.uleb128 0x1
 3798 02cc 12       		.uleb128 0x12
 3799 02cd 06       		.uleb128 0x6
 3800 02ce 40       		.uleb128 0x40
 3801 02cf 18       		.uleb128 0x18
 3802 02d0 7A       		.uleb128 0x7a
 3803 02d1 19       		.uleb128 0x19
 3804 02d2 00       		.byte	0
ARM GAS  C:\Users\DEVELO~1\AppData\Local\Temp\cclsZJPb.s 			page 68


 3805 02d3 00       		.byte	0
 3806 02d4 30       		.uleb128 0x30
 3807 02d5 05       		.uleb128 0x5
 3808 02d6 00       		.byte	0
 3809 02d7 03       		.uleb128 0x3
 3810 02d8 0E       		.uleb128 0xe
 3811 02d9 3A       		.uleb128 0x3a
 3812 02da 0B       		.uleb128 0xb
 3813 02db 3B       		.uleb128 0x3b
 3814 02dc 0B       		.uleb128 0xb
 3815 02dd 39       		.uleb128 0x39
 3816 02de 0B       		.uleb128 0xb
 3817 02df 49       		.uleb128 0x49
 3818 02e0 13       		.uleb128 0x13
 3819 02e1 02       		.uleb128 0x2
 3820 02e2 18       		.uleb128 0x18
 3821 02e3 00       		.byte	0
 3822 02e4 00       		.byte	0
 3823 02e5 00       		.byte	0
 3824              		.section	.debug_aranges,"",%progbits
 3825 0000 34000000 		.4byte	0x34
 3826 0004 0200     		.2byte	0x2
 3827 0006 00000000 		.4byte	.Ldebug_info0
 3828 000a 04       		.byte	0x4
 3829 000b 00       		.byte	0
 3830 000c 0000     		.2byte	0
 3831 000e 0000     		.2byte	0
 3832 0010 00000000 		.4byte	.LFB435
 3833 0014 12000000 		.4byte	.LFE435-.LFB435
 3834 0018 00000000 		.4byte	.LFB436
 3835 001c 94000000 		.4byte	.LFE436-.LFB436
 3836 0020 00000000 		.4byte	.LFB437
 3837 0024 38000000 		.4byte	.LFE437-.LFB437
 3838 0028 00000000 		.4byte	.LFB438
 3839 002c 70010000 		.4byte	.LFE438-.LFB438
 3840 0030 00000000 		.4byte	0
 3841 0034 00000000 		.4byte	0
 3842              		.section	.debug_rnglists,"",%progbits
 3843              	.Ldebug_ranges0:
 3844 0000 23000000 		.4byte	.Ldebug_ranges3-.Ldebug_ranges2
 3845              	.Ldebug_ranges2:
 3846 0004 0500     		.2byte	0x5
 3847 0006 04       		.byte	0x4
 3848 0007 00       		.byte	0
 3849 0008 00000000 		.4byte	0
 3850              	.LLRL0:
 3851 000c 07       		.byte	0x7
 3852 000d 00000000 		.4byte	.LFB435
 3853 0011 12       		.uleb128 .LFE435-.LFB435
 3854 0012 07       		.byte	0x7
 3855 0013 00000000 		.4byte	.LFB436
 3856 0017 9401     		.uleb128 .LFE436-.LFB436
 3857 0019 07       		.byte	0x7
 3858 001a 00000000 		.4byte	.LFB437
 3859 001e 38       		.uleb128 .LFE437-.LFB437
 3860 001f 07       		.byte	0x7
 3861 0020 00000000 		.4byte	.LFB438
ARM GAS  C:\Users\DEVELO~1\AppData\Local\Temp\cclsZJPb.s 			page 69


 3862 0024 F002     		.uleb128 .LFE438-.LFB438
 3863 0026 00       		.byte	0
 3864              	.Ldebug_ranges3:
 3865              		.section	.debug_line,"",%progbits
 3866              	.Ldebug_line0:
 3867 0000 55050000 		.section	.debug_str,"MS",%progbits,1
 3867      0300E903 
 3867      00000201 
 3867      FB0E0D00 
 3867      01010101 
 3868              	.LASF11:
 3869 0000 6C6F6E67 		.ascii	"long int\000"
 3869      20696E74 
 3869      00
 3870              	.LASF103:
 3871 0009 53515234 		.ascii	"SQR4\000"
 3871      00
 3872              	.LASF156:
 3873 000e 77746D74 		.ascii	"wtmtxp\000"
 3873      787000
 3874              	.LASF214:
 3875 0015 63697263 		.ascii	"circular\000"
 3875      756C6172 
 3875      00
 3876              	.LASF148:
 3877 001e 74687265 		.ascii	"thread_reference_t\000"
 3877      61645F72 
 3877      65666572 
 3877      656E6365 
 3877      5F7400
 3878              	.LASF182:
 3879 0031 42535252 		.ascii	"BSRR\000"
 3879      00
 3880              	.LASF109:
 3881 0036 4F465232 		.ascii	"OFR2\000"
 3881      00
 3882              	.LASF247:
 3883 003b 6472765F 		.ascii	"drv_display_init\000"
 3883      64697370 
 3883      6C61795F 
 3883      696E6974 
 3883      00
 3884              	.LASF145:
 3885 004c 63685F72 		.ascii	"ch_registry\000"
 3885      65676973 
 3885      74727900 
 3886              	.LASF207:
 3887 0058 646D616D 		.ascii	"dmamode\000"
 3887      6F646500 
 3888              	.LASF37:
 3889 0060 666C6167 		.ascii	"flags\000"
 3889      7300
 3890              	.LASF64:
 3891 0066 73797374 		.ascii	"systime_t\000"
 3891      696D655F 
 3891      7400
 3892              	.LASF43:
ARM GAS  C:\Users\DEVELO~1\AppData\Local\Temp\cclsZJPb.s 			page 70


 3893 0070 7265616C 		.ascii	"realprio\000"
 3893      7072696F 
 3893      00
 3894              	.LASF89:
 3895 0079 62756666 		.ascii	"buffer\000"
 3895      657200
 3896              	.LASF87:
 3897 0080 73757370 		.ascii	"suspended\000"
 3897      656E6465 
 3897      6400
 3898              	.LASF238:
 3899 008a 68616C6C 		.ascii	"hall_values\000"
 3899      5F76616C 
 3899      75657300 
 3900              	.LASF41:
 3901 0096 6570656E 		.ascii	"epending\000"
 3901      64696E67 
 3901      00
 3902              	.LASF0:
 3903 009f 756E7369 		.ascii	"unsigned int\000"
 3903      676E6564 
 3903      20696E74 
 3903      00
 3904              	.LASF69:
 3905 00ac 6E657874 		.ascii	"next\000"
 3905      00
 3906              	.LASF19:
 3907 00b1 75696E74 		.ascii	"uint32_t\000"
 3907      33325F74 
 3907      00
 3908              	.LASF51:
 3909 00ba 636F7265 		.ascii	"core_id\000"
 3909      5F696400 
 3910              	.LASF254:
 3911 00c2 6D757853 		.ascii	"muxSelect\000"
 3911      656C6563 
 3911      7400
 3912              	.LASF10:
 3913 00cc 5F5F696E 		.ascii	"__int32_t\000"
 3913      7433325F 
 3913      7400
 3914              	.LASF38:
 3915 00d6 72656673 		.ascii	"refs\000"
 3915      00
 3916              	.LASF222:
 3917 00db 68747231 		.ascii	"htr1\000"
 3917      00
 3918              	.LASF224:
 3919 00e0 68747232 		.ascii	"htr2\000"
 3919      00
 3920              	.LASF226:
 3921 00e5 68747233 		.ascii	"htr3\000"
 3921      00
 3922              	.LASF217:
 3923 00ea 6572726F 		.ascii	"error_cb\000"
 3923      725F6362 
 3923      00
ARM GAS  C:\Users\DEVELO~1\AppData\Local\Temp\cclsZJPb.s 			page 71


 3924              	.LASF79:
 3925 00f3 77746F62 		.ascii	"wtobjp\000"
 3925      6A7000
 3926              	.LASF49:
 3927 00fa 76746C69 		.ascii	"vtlist\000"
 3927      737400
 3928              	.LASF139:
 3929 0101 706F7274 		.ascii	"port_context\000"
 3929      5F636F6E 
 3929      74657874 
 3929      00
 3930              	.LASF7:
 3931 010e 73686F72 		.ascii	"short int\000"
 3931      7420696E 
 3931      7400
 3932              	.LASF160:
 3933 0118 63685F72 		.ascii	"ch_ready_list\000"
 3933      65616479 
 3933      5F6C6973 
 3933      7400
 3934              	.LASF133:
 3935 0126 4E445452 		.ascii	"NDTR\000"
 3935      00
 3936              	.LASF143:
 3937 012b 6C617374 		.ascii	"laststamp\000"
 3937      7374616D 
 3937      7000
 3938              	.LASF157:
 3939 0135 65776D61 		.ascii	"ewmask\000"
 3939      736B00
 3940              	.LASF72:
 3941 013c 70726576 		.ascii	"prev\000"
 3941      00
 3942              	.LASF68:
 3943 0141 63685F6C 		.ascii	"ch_list\000"
 3943      69737400 
 3944              	.LASF96:
 3945 0149 4C545231 		.ascii	"LTR1\000"
 3945      00
 3946              	.LASF122:
 3947 014e 4C545232 		.ascii	"LTR2\000"
 3947      00
 3948              	.LASF124:
 3949 0153 4C545233 		.ascii	"LTR3\000"
 3949      00
 3950              	.LASF126:
 3951 0158 44494653 		.ascii	"DIFSEL\000"
 3951      454C00
 3952              	.LASF60:
 3953 015f 63685F73 		.ascii	"ch_system_debug\000"
 3953      79737465 
 3953      6D5F6465 
 3953      62756700 
 3954              	.LASF149:
 3955 016f 6C697374 		.ascii	"list\000"
 3955      00
 3956              	.LASF77:
ARM GAS  C:\Users\DEVELO~1\AppData\Local\Temp\cclsZJPb.s 			page 72


 3957 0174 63685F64 		.ascii	"ch_delta_list\000"
 3957      656C7461 
 3957      5F6C6973 
 3957      7400
 3958              	.LASF235:
 3959 0182 61646365 		.ascii	"adcerrorcallback_t\000"
 3959      72726F72 
 3959      63616C6C 
 3959      6261636B 
 3959      5F7400
 3960              	.LASF154:
 3961 0195 73656E74 		.ascii	"sentmsg\000"
 3961      6D736700 
 3962              	.LASF28:
 3963 019d 6576656E 		.ascii	"eventmask_t\000"
 3963      746D6173 
 3963      6B5F7400 
 3964              	.LASF172:
 3965 01a9 69666372 		.ascii	"ifcr\000"
 3965      00
 3966              	.LASF86:
 3967 01ae 74726163 		.ascii	"trace_event_t\000"
 3967      655F6576 
 3967      656E745F 
 3967      7400
 3968              	.LASF218:
 3969 01bc 63666772 		.ascii	"cfgr\000"
 3969      00
 3970              	.LASF203:
 3971 01c1 6D757465 		.ascii	"mutex\000"
 3971      7800
 3972              	.LASF173:
 3973 01c7 73686966 		.ascii	"shift\000"
 3973      7400
 3974              	.LASF158:
 3975 01cd 63685F73 		.ascii	"ch_semaphore\000"
 3975      656D6170 
 3975      686F7265 
 3975      00
 3976              	.LASF26:
 3977 01da 74707269 		.ascii	"tprio_t\000"
 3977      6F5F7400 
 3978              	.LASF40:
 3979 01e2 6D736771 		.ascii	"msgqueue\000"
 3979      75657565 
 3979      00
 3980              	.LASF168:
 3981 01eb 6F735F69 		.ascii	"os_instance_config_t\000"
 3981      6E737461 
 3981      6E63655F 
 3981      636F6E66 
 3981      69675F74 
 3982              	.LASF216:
 3983 0200 656E645F 		.ascii	"end_cb\000"
 3983      636200
 3984              	.LASF256:
 3985 0207 474E5520 		.ascii	"GNU C17 11.3.1 20220712 -mcpu=cortex-m7 -mthumb -mf"
ARM GAS  C:\Users\DEVELO~1\AppData\Local\Temp\cclsZJPb.s 			page 73


 3985      43313720 
 3985      31312E33 
 3985      2E312032 
 3985      30323230 
 3986 023a 6C6F6174 		.ascii	"loat-abi=soft -march=armv7e-m -ggdb -O0 -ffunction-"
 3986      2D616269 
 3986      3D736F66 
 3986      74202D6D 
 3986      61726368 
 3987 026d 73656374 		.ascii	"sections -fdata-sections -fno-common\000"
 3987      696F6E73 
 3987      202D6664 
 3987      6174612D 
 3987      73656374 
 3988              	.LASF81:
 3989 0292 68616C74 		.ascii	"halt\000"
 3989      00
 3990              	.LASF15:
 3991 0297 6C6F6E67 		.ascii	"long long unsigned int\000"
 3991      206C6F6E 
 3991      6720756E 
 3991      7369676E 
 3991      65642069 
 3992              	.LASF112:
 3993 02ae 52455345 		.ascii	"RESERVED6\000"
 3993      52564544 
 3993      3600
 3994              	.LASF95:
 3995 02b8 50435345 		.ascii	"PCSEL\000"
 3995      4C00
 3996              	.LASF55:
 3997 02be 74726163 		.ascii	"trace_buffer\000"
 3997      655F6275 
 3997      66666572 
 3997      00
 3998              	.LASF175:
 3999 02cb 76656374 		.ascii	"vector\000"
 3999      6F7200
 4000              	.LASF150:
 4001 02d2 70717565 		.ascii	"pqueue\000"
 4001      756500
 4002              	.LASF8:
 4003 02d9 5F5F7569 		.ascii	"__uint16_t\000"
 4003      6E743136 
 4003      5F7400
 4004              	.LASF29:
 4005 02e4 636E745F 		.ascii	"cnt_t\000"
 4005      7400
 4006              	.LASF246:
 4007 02ea 5F70616C 		.ascii	"_pal_lld_setgroupmode\000"
 4007      5F6C6C64 
 4007      5F736574 
 4007      67726F75 
 4007      706D6F64 
 4008              	.LASF178:
 4009 0300 4D4F4445 		.ascii	"MODER\000"
 4009      5200
ARM GAS  C:\Users\DEVELO~1\AppData\Local\Temp\cclsZJPb.s 			page 74


 4010              	.LASF85:
 4011 0306 74696D65 		.ascii	"time\000"
 4011      00
 4012              	.LASF185:
 4013 030b 41465248 		.ascii	"AFRH\000"
 4013      00
 4014              	.LASF186:
 4015 0310 73746D33 		.ascii	"stm32_gpio_t\000"
 4015      325F6770 
 4015      696F5F74 
 4015      00
 4016              	.LASF33:
 4017 031d 6F776E65 		.ascii	"owner\000"
 4017      7200
 4018              	.LASF165:
 4019 0323 6D61696E 		.ascii	"mainthread_end\000"
 4019      74687265 
 4019      61645F65 
 4019      6E6400
 4020              	.LASF177:
 4021 0332 636C6561 		.ascii	"clear\000"
 4021      7200
 4022              	.LASF42:
 4023 0338 6D74786C 		.ascii	"mtxlist\000"
 4023      69737400 
 4024              	.LASF140:
 4025 0340 63685F76 		.ascii	"ch_virtual_timers_list\000"
 4025      69727475 
 4025      616C5F74 
 4025      696D6572 
 4025      735F6C69 
 4026              	.LASF258:
 4027 0357 433A5C50 		.ascii	"C:\\PROJET\\ChibiOS project\\ChibiOS_21.11.4\\demos"
 4027      524F4A45 
 4027      545C4368 
 4027      6962694F 
 4027      53207072 
 4028 0386 5C53544D 		.ascii	"\\STM32\\RT-STM32H743ZI_REV_XY-NUCLEO144_Quartz8M\000"
 4028      33325C52 
 4028      542D5354 
 4028      4D333248 
 4028      3734335A 
 4029              	.LASF52:
 4030 03b6 72666375 		.ascii	"rfcu\000"
 4030      00
 4031              	.LASF31:
 4032 03bb 74687265 		.ascii	"thread_t\000"
 4032      61645F74 
 4032      00
 4033              	.LASF130:
 4034 03c4 52455345 		.ascii	"RESERVED\000"
 4034      52564544 
 4034      00
 4035              	.LASF82:
 4036 03cd 75736572 		.ascii	"user\000"
 4036      00
 4037              	.LASF4:
ARM GAS  C:\Users\DEVELO~1\AppData\Local\Temp\cclsZJPb.s 			page 75


 4038 03d2 73697A65 		.ascii	"size_t\000"
 4038      5F7400
 4039              	.LASF151:
 4040 03d9 7264796D 		.ascii	"rdymsg\000"
 4040      736700
 4041              	.LASF197:
 4042 03e0 41444344 		.ascii	"ADCDriver\000"
 4042      72697665 
 4042      7200
 4043              	.LASF73:
 4044 03ea 63685F70 		.ascii	"ch_priority_queue_t\000"
 4044      72696F72 
 4044      6974795F 
 4044      71756575 
 4044      655F7400 
 4045              	.LASF108:
 4046 03fe 4F465231 		.ascii	"OFR1\000"
 4046      00
 4047              	.LASF170:
 4048 0403 5F426F6F 		.ascii	"_Bool\000"
 4048      6C00
 4049              	.LASF110:
 4050 0409 4F465233 		.ascii	"OFR3\000"
 4050      00
 4051              	.LASF111:
 4052 040e 4F465234 		.ascii	"OFR4\000"
 4052      00
 4053              	.LASF181:
 4054 0413 50555044 		.ascii	"PUPDR\000"
 4054      5200
 4055              	.LASF128:
 4056 0419 43414C46 		.ascii	"CALFACT2\000"
 4056      41435432 
 4056      00
 4057              	.LASF57:
 4058 0422 63685F72 		.ascii	"ch_rfcu\000"
 4058      66637500 
 4059              	.LASF159:
 4060 042a 63685F6D 		.ascii	"ch_mutex\000"
 4060      75746578 
 4060      00
 4061              	.LASF134:
 4062 0433 4D304152 		.ascii	"M0AR\000"
 4062      00
 4063              	.LASF47:
 4064 0438 63685F6F 		.ascii	"ch_os_instance\000"
 4064      735F696E 
 4064      7374616E 
 4064      636500
 4065              	.LASF189:
 4066 0447 696F706F 		.ascii	"ioportid_t\000"
 4066      72746964 
 4066      5F7400
 4067              	.LASF220:
 4068 0452 70637365 		.ascii	"pcsel\000"
 4068      6C00
 4069              	.LASF194:
ARM GAS  C:\Users\DEVELO~1\AppData\Local\Temp\cclsZJPb.s 			page 76


 4070 0458 4144435F 		.ascii	"ADC_COMPLETE\000"
 4070      434F4D50 
 4070      4C455445 
 4070      00
 4071              	.LASF195:
 4072 0465 4144435F 		.ascii	"ADC_ERROR\000"
 4072      4552524F 
 4072      5200
 4073              	.LASF198:
 4074 046f 68616C5F 		.ascii	"hal_adc_driver\000"
 4074      6164635F 
 4074      64726976 
 4074      657200
 4075              	.LASF167:
 4076 047e 69646C65 		.ascii	"idlethread_end\000"
 4076      74687265 
 4076      61645F65 
 4076      6E6400
 4077              	.LASF75:
 4078 048d 7072696F 		.ascii	"prio\000"
 4078      00
 4079              	.LASF239:
 4080 0492 6472765F 		.ascii	"drv_display_update\000"
 4080      64697370 
 4080      6C61795F 
 4080      75706461 
 4080      746500
 4081              	.LASF62:
 4082 04a5 63686172 		.ascii	"char\000"
 4082      00
 4083              	.LASF249:
 4084 04aa 63685379 		.ascii	"chSysInit\000"
 4084      73496E69 
 4084      7400
 4085              	.LASF76:
 4086 04b4 63685F64 		.ascii	"ch_delta_list_t\000"
 4086      656C7461 
 4086      5F6C6973 
 4086      745F7400 
 4087              	.LASF56:
 4088 04c4 72666375 		.ascii	"rfcu_mask_t\000"
 4088      5F6D6173 
 4088      6B5F7400 
 4089              	.LASF221:
 4090 04d0 6C747231 		.ascii	"ltr1\000"
 4090      00
 4091              	.LASF223:
 4092 04d5 6C747232 		.ascii	"ltr2\000"
 4092      00
 4093              	.LASF225:
 4094 04da 6C747233 		.ascii	"ltr3\000"
 4094      00
 4095              	.LASF66:
 4096 04df 74696D65 		.ascii	"time_conv_t\000"
 4096      5F636F6E 
 4096      765F7400 
 4097              	.LASF35:
ARM GAS  C:\Users\DEVELO~1\AppData\Local\Temp\cclsZJPb.s 			page 77


 4098 04eb 77616261 		.ascii	"wabase\000"
 4098      736500
 4099              	.LASF24:
 4100 04f2 74737461 		.ascii	"tstate_t\000"
 4100      74655F74 
 4100      00
 4101              	.LASF32:
 4102 04fb 72717565 		.ascii	"rqueue\000"
 4102      756500
 4103              	.LASF164:
 4104 0502 6D61696E 		.ascii	"mainthread_base\000"
 4104      74687265 
 4104      61645F62 
 4104      61736500 
 4105              	.LASF196:
 4106 0512 61646373 		.ascii	"adcstate_t\000"
 4106      74617465 
 4106      5F7400
 4107              	.LASF176:
 4108 051d 73746D33 		.ascii	"stm32_dma_stream_t\000"
 4108      325F646D 
 4108      615F7374 
 4108      7265616D 
 4108      5F7400
 4109              	.LASF14:
 4110 0530 5F5F7569 		.ascii	"__uint64_t\000"
 4110      6E743634 
 4110      5F7400
 4111              	.LASF16:
 4112 053b 75696E74 		.ascii	"uint8_t\000"
 4112      385F7400 
 4113              	.LASF127:
 4114 0543 43414C46 		.ascii	"CALFACT\000"
 4114      41435400 
 4115              	.LASF237:
 4116 054b 61646367 		.ascii	"adcgrpcfg\000"
 4116      72706366 
 4116      6700
 4117              	.LASF171:
 4118 0555 73747265 		.ascii	"stream\000"
 4118      616D00
 4119              	.LASF46:
 4120 055c 63685F74 		.ascii	"ch_thread\000"
 4120      68726561 
 4120      6400
 4121              	.LASF252:
 4122 0566 6D75785F 		.ascii	"mux_ch\000"
 4122      636800
 4123              	.LASF245:
 4124 056d 61646353 		.ascii	"adcStart\000"
 4124      74617274 
 4124      00
 4125              	.LASF63:
 4126 0576 73797374 		.ascii	"system_debug_t\000"
 4126      656D5F64 
 4126      65627567 
 4126      5F7400
ARM GAS  C:\Users\DEVELO~1\AppData\Local\Temp\cclsZJPb.s 			page 78


 4127              	.LASF199:
 4128 0585 73616D70 		.ascii	"samples\000"
 4128      6C657300 
 4129              	.LASF129:
 4130 058d 4144435F 		.ascii	"ADC_TypeDef\000"
 4130      54797065 
 4130      44656600 
 4131              	.LASF1:
 4132 0599 6C6F6E67 		.ascii	"long long int\000"
 4132      206C6F6E 
 4132      6720696E 
 4132      7400
 4133              	.LASF118:
 4134 05a7 41574432 		.ascii	"AWD2CR\000"
 4134      435200
 4135              	.LASF236:
 4136 05ae 6164635F 		.ascii	"adc_buffer\000"
 4136      62756666 
 4136      657200
 4137              	.LASF229:
 4138 05b9 736D7072 		.ascii	"smpr\000"
 4138      00
 4139              	.LASF119:
 4140 05be 41574433 		.ascii	"AWD3CR\000"
 4140      435200
 4141              	.LASF200:
 4142 05c5 64657074 		.ascii	"depth\000"
 4142      6800
 4143              	.LASF27:
 4144 05cb 6D73675F 		.ascii	"msg_t\000"
 4144      7400
 4145              	.LASF232:
 4146 05d1 61646365 		.ascii	"adcerror_t\000"
 4146      72726F72 
 4146      5F7400
 4147              	.LASF208:
 4148 05dc 41444343 		.ascii	"ADCConfig\000"
 4148      6F6E6669 
 4148      6700
 4149              	.LASF234:
 4150 05e6 61646363 		.ascii	"adccallback_t\000"
 4150      616C6C62 
 4150      61636B5F 
 4150      7400
 4151              	.LASF233:
 4152 05f4 6164635F 		.ascii	"adc_ldd_dma_reference_t\000"
 4152      6C64645F 
 4152      646D615F 
 4152      72656665 
 4152      72656E63 
 4153              	.LASF147:
 4154 060c 72656769 		.ascii	"registry_t\000"
 4154      73747279 
 4154      5F7400
 4155              	.LASF187:
 4156 0617 696F706F 		.ascii	"ioportmask_t\000"
 4156      72746D61 
ARM GAS  C:\Users\DEVELO~1\AppData\Local\Temp\cclsZJPb.s 			page 79


 4156      736B5F74 
 4156      00
 4157              	.LASF244:
 4158 0624 736E7072 		.ascii	"snprintf\000"
 4158      696E7466 
 4158      00
 4159              	.LASF136:
 4160 062d 444D415F 		.ascii	"DMA_Stream_TypeDef\000"
 4160      53747265 
 4160      616D5F54 
 4160      79706544 
 4160      656600
 4161              	.LASF88:
 4162 0640 73697A65 		.ascii	"size\000"
 4162      00
 4163              	.LASF58:
 4164 0645 6D61736B 		.ascii	"mask\000"
 4164      00
 4165              	.LASF92:
 4166 064a 43464752 		.ascii	"CFGR2\000"
 4166      3200
 4167              	.LASF65:
 4168 0650 73797369 		.ascii	"sysinterval_t\000"
 4168      6E746572 
 4168      76616C5F 
 4168      7400
 4169              	.LASF70:
 4170 065e 63685F71 		.ascii	"ch_queue_t\000"
 4170      75657565 
 4170      5F7400
 4171              	.LASF61:
 4172 0669 70616E69 		.ascii	"panic_msg\000"
 4172      635F6D73 
 4172      6700
 4173              	.LASF90:
 4174 0673 74726163 		.ascii	"trace_buffer_t\000"
 4174      655F6275 
 4174      66666572 
 4174      5F7400
 4175              	.LASF23:
 4176 0682 746D6F64 		.ascii	"tmode_t\000"
 4176      655F7400 
 4177              	.LASF243:
 4178 068a 61646353 		.ascii	"adcStartConversion\000"
 4178      74617274 
 4178      436F6E76 
 4178      65727369 
 4178      6F6E00
 4179              	.LASF93:
 4180 069d 534D5052 		.ascii	"SMPR1\000"
 4180      3100
 4181              	.LASF94:
 4182 06a3 534D5052 		.ascii	"SMPR2\000"
 4182      3200
 4183              	.LASF206:
 4184 06a9 64617461 		.ascii	"data\000"
 4184      00
ARM GAS  C:\Users\DEVELO~1\AppData\Local\Temp\cclsZJPb.s 			page 80


 4185              	.LASF54:
 4186 06ae 6D61696E 		.ascii	"mainthread\000"
 4186      74687265 
 4186      616400
 4187              	.LASF230:
 4188 06b9 61646373 		.ascii	"adcsample_t\000"
 4188      616D706C 
 4188      655F7400 
 4189              	.LASF180:
 4190 06c5 4F535045 		.ascii	"OSPEEDR\000"
 4190      45445200 
 4191              	.LASF259:
 4192 06cd 41444344 		.ascii	"ADCD1\000"
 4192      3100
 4193              	.LASF183:
 4194 06d3 4C4F434B 		.ascii	"LOCKR\000"
 4194      5200
 4195              	.LASF131:
 4196 06d9 43445232 		.ascii	"CDR2\000"
 4196      00
 4197              	.LASF2:
 4198 06de 6C6F6E67 		.ascii	"long double\000"
 4198      20646F75 
 4198      626C6500 
 4199              	.LASF17:
 4200 06ea 75696E74 		.ascii	"uint16_t\000"
 4200      31365F74 
 4200      00
 4201              	.LASF67:
 4202 06f3 63685F6C 		.ascii	"ch_list_t\000"
 4202      6973745F 
 4202      7400
 4203              	.LASF144:
 4204 06fd 76697274 		.ascii	"virtual_timers_list_t\000"
 4204      75616C5F 
 4204      74696D65 
 4204      72735F6C 
 4204      6973745F 
 4205              	.LASF193:
 4206 0713 4144435F 		.ascii	"ADC_ACTIVE\000"
 4206      41435449 
 4206      564500
 4207              	.LASF53:
 4208 071e 636F6E66 		.ascii	"config\000"
 4208      696700
 4209              	.LASF113:
 4210 0725 4A445231 		.ascii	"JDR1\000"
 4210      00
 4211              	.LASF114:
 4212 072a 4A445232 		.ascii	"JDR2\000"
 4212      00
 4213              	.LASF115:
 4214 072f 4A445233 		.ascii	"JDR3\000"
 4214      00
 4215              	.LASF116:
 4216 0734 4A445234 		.ascii	"JDR4\000"
 4216      00
ARM GAS  C:\Users\DEVELO~1\AppData\Local\Temp\cclsZJPb.s 			page 81


 4217              	.LASF137:
 4218 0739 444D414D 		.ascii	"DMAMUX_Channel_TypeDef\000"
 4218      55585F43 
 4218      68616E6E 
 4218      656C5F54 
 4218      79706544 
 4219              	.LASF98:
 4220 0750 52455345 		.ascii	"RESERVED1\000"
 4220      52564544 
 4220      3100
 4221              	.LASF99:
 4222 075a 52455345 		.ascii	"RESERVED2\000"
 4222      52564544 
 4222      3200
 4223              	.LASF104:
 4224 0764 52455345 		.ascii	"RESERVED3\000"
 4224      52564544 
 4224      3300
 4225              	.LASF105:
 4226 076e 52455345 		.ascii	"RESERVED4\000"
 4226      52564544 
 4226      3400
 4227              	.LASF210:
 4228 0778 64696673 		.ascii	"difsel\000"
 4228      656C00
 4229              	.LASF117:
 4230 077f 52455345 		.ascii	"RESERVED7\000"
 4230      52564544 
 4230      3700
 4231              	.LASF132:
 4232 0789 4144435F 		.ascii	"ADC_Common_TypeDef\000"
 4232      436F6D6D 
 4232      6F6E5F54 
 4232      79706544 
 4232      656600
 4233              	.LASF231:
 4234 079c 6164635F 		.ascii	"adc_channels_num_t\000"
 4234      6368616E 
 4234      6E656C73 
 4234      5F6E756D 
 4234      5F7400
 4235              	.LASF219:
 4236 07af 63666772 		.ascii	"cfgr2\000"
 4236      3200
 4237              	.LASF138:
 4238 07b5 706F7274 		.ascii	"port_intctx\000"
 4238      5F696E74 
 4238      63747800 
 4239              	.LASF212:
 4240 07c1 41444343 		.ascii	"ADCConversionGroup\000"
 4240      6F6E7665 
 4240      7273696F 
 4240      6E47726F 
 4240      757000
 4241              	.LASF215:
 4242 07d4 6E756D5F 		.ascii	"num_channels\000"
 4242      6368616E 
ARM GAS  C:\Users\DEVELO~1\AppData\Local\Temp\cclsZJPb.s 			page 82


 4242      6E656C73 
 4242      00
 4243              	.LASF209:
 4244 07e1 68616C5F 		.ascii	"hal_adc_config\000"
 4244      6164635F 
 4244      636F6E66 
 4244      696700
 4245              	.LASF21:
 4246 07f0 706F7274 		.ascii	"port_stkalign_t\000"
 4246      5F73746B 
 4246      616C6967 
 4246      6E5F7400 
 4247              	.LASF179:
 4248 0800 4F545950 		.ascii	"OTYPER\000"
 4248      455200
 4249              	.LASF163:
 4250 0807 63685F6F 		.ascii	"ch_os_instance_config\000"
 4250      735F696E 
 4250      7374616E 
 4250      63655F63 
 4250      6F6E6669 
 4251              	.LASF141:
 4252 081d 646C6973 		.ascii	"dlist\000"
 4252      7400
 4253              	.LASF142:
 4254 0823 6C617374 		.ascii	"lasttime\000"
 4254      74696D65 
 4254      00
 4255              	.LASF20:
 4256 082c 75696E74 		.ascii	"uint64_t\000"
 4256      36345F74 
 4256      00
 4257              	.LASF250:
 4258 0835 68616C49 		.ascii	"halInit\000"
 4258      6E697400 
 4259              	.LASF91:
 4260 083d 43464752 		.ascii	"CFGR\000"
 4260      00
 4261              	.LASF48:
 4262 0842 726C6973 		.ascii	"rlist\000"
 4262      7400
 4263              	.LASF5:
 4264 0848 5F5F7569 		.ascii	"__uint8_t\000"
 4264      6E74385F 
 4264      7400
 4265              	.LASF190:
 4266 0852 4144435F 		.ascii	"ADC_UNINIT\000"
 4266      554E494E 
 4266      495400
 4267              	.LASF34:
 4268 085d 6E616D65 		.ascii	"name\000"
 4268      00
 4269              	.LASF257:
 4270 0862 6D61696E 		.ascii	"main.c\000"
 4270      2E6300
 4271              	.LASF135:
 4272 0869 4D314152 		.ascii	"M1AR\000"
ARM GAS  C:\Users\DEVELO~1\AppData\Local\Temp\cclsZJPb.s 			page 83


 4272      00
 4273              	.LASF100:
 4274 086e 53515231 		.ascii	"SQR1\000"
 4274      00
 4275              	.LASF101:
 4276 0873 53515232 		.ascii	"SQR2\000"
 4276      00
 4277              	.LASF102:
 4278 0878 53515233 		.ascii	"SQR3\000"
 4278      00
 4279              	.LASF25:
 4280 087d 74726566 		.ascii	"trefs_t\000"
 4280      735F7400 
 4281              	.LASF205:
 4282 0885 61646363 		.ascii	"adcc\000"
 4282      00
 4283              	.LASF13:
 4284 088a 6C6F6E67 		.ascii	"long unsigned int\000"
 4284      20756E73 
 4284      69676E65 
 4284      6420696E 
 4284      7400
 4285              	.LASF192:
 4286 089c 4144435F 		.ascii	"ADC_READY\000"
 4286      52454144 
 4286      5900
 4287              	.LASF162:
 4288 08a6 72656164 		.ascii	"ready_list_t\000"
 4288      795F6C69 
 4288      73745F74 
 4288      00
 4289              	.LASF240:
 4290 08b3 6472765F 		.ascii	"drv_display_clear\000"
 4290      64697370 
 4290      6C61795F 
 4290      636C6561 
 4290      7200
 4291              	.LASF204:
 4292 08c5 6164636D 		.ascii	"adcm\000"
 4292      00
 4293              	.LASF84:
 4294 08ca 72747374 		.ascii	"rtstamp\000"
 4294      616D7000 
 4295              	.LASF146:
 4296 08d2 71756575 		.ascii	"queue\000"
 4296      6500
 4297              	.LASF255:
 4298 08d8 61646370 		.ascii	"adcp\000"
 4298      00
 4299              	.LASF261:
 4300 08dd 6164635F 		.ascii	"adc_cb\000"
 4300      636200
 4301              	.LASF18:
 4302 08e4 696E7433 		.ascii	"int32_t\000"
 4302      325F7400 
 4303              	.LASF59:
 4304 08ec 72666375 		.ascii	"rfcu_t\000"
ARM GAS  C:\Users\DEVELO~1\AppData\Local\Temp\cclsZJPb.s 			page 84


 4304      5F7400
 4305              	.LASF202:
 4306 08f3 74687265 		.ascii	"thread\000"
 4306      616400
 4307              	.LASF155:
 4308 08fa 77747365 		.ascii	"wtsemp\000"
 4308      6D7000
 4309              	.LASF74:
 4310 0901 63685F70 		.ascii	"ch_priority_queue\000"
 4310      72696F72 
 4310      6974795F 
 4310      71756575 
 4310      6500
 4311              	.LASF71:
 4312 0913 63685F71 		.ascii	"ch_queue\000"
 4312      75657565 
 4312      00
 4313              	.LASF169:
 4314 091c 6D757465 		.ascii	"mutex_t\000"
 4314      785F7400 
 4315              	.LASF83:
 4316 0924 74797065 		.ascii	"type\000"
 4316      00
 4317              	.LASF6:
 4318 0929 756E7369 		.ascii	"unsigned char\000"
 4318      676E6564 
 4318      20636861 
 4318      7200
 4319              	.LASF184:
 4320 0937 4146524C 		.ascii	"AFRL\000"
 4320      00
 4321              	.LASF12:
 4322 093c 5F5F7569 		.ascii	"__uint32_t\000"
 4322      6E743332 
 4322      5F7400
 4323              	.LASF39:
 4324 0947 77616974 		.ascii	"waiting\000"
 4324      696E6700 
 4325              	.LASF211:
 4326 094f 63616C69 		.ascii	"calibration\000"
 4326      62726174 
 4326      696F6E00 
 4327              	.LASF251:
 4328 095b 6C696E65 		.ascii	"line\000"
 4328      00
 4329              	.LASF242:
 4330 0960 63685468 		.ascii	"chThdSleep\000"
 4330      64536C65 
 4330      657000
 4331              	.LASF97:
 4332 096b 48545231 		.ascii	"HTR1\000"
 4332      00
 4333              	.LASF123:
 4334 0970 48545232 		.ascii	"HTR2\000"
 4334      00
 4335              	.LASF125:
 4336 0975 48545233 		.ascii	"HTR3\000"
ARM GAS  C:\Users\DEVELO~1\AppData\Local\Temp\cclsZJPb.s 			page 85


 4336      00
 4337              	.LASF241:
 4338 097a 6472765F 		.ascii	"drv_display_draw_text\000"
 4338      64697370 
 4338      6C61795F 
 4338      64726177 
 4338      5F746578 
 4339              	.LASF248:
 4340 0990 64726976 		.ascii	"drivers_init_all\000"
 4340      6572735F 
 4340      696E6974 
 4340      5F616C6C 
 4340      00
 4341              	.LASF36:
 4342 09a1 73746174 		.ascii	"state\000"
 4342      6500
 4343              	.LASF106:
 4344 09a7 4A535152 		.ascii	"JSQR\000"
 4344      00
 4345              	.LASF45:
 4346 09ac 6F735F69 		.ascii	"os_instance_t\000"
 4346      6E737461 
 4346      6E63655F 
 4346      7400
 4347              	.LASF50:
 4348 09ba 7265676C 		.ascii	"reglist\000"
 4348      69737400 
 4349              	.LASF188:
 4350 09c2 696F6D6F 		.ascii	"iomode_t\000"
 4350      64655F74 
 4350      00
 4351              	.LASF166:
 4352 09cb 69646C65 		.ascii	"idlethread_base\000"
 4352      74687265 
 4352      61645F62 
 4352      61736500 
 4353              	.LASF3:
 4354 09db 7369676E 		.ascii	"signed char\000"
 4354      65642063 
 4354      68617200 
 4355              	.LASF78:
 4356 09e7 64656C74 		.ascii	"delta\000"
 4356      6100
 4357              	.LASF9:
 4358 09ed 73686F72 		.ascii	"short unsigned int\000"
 4358      7420756E 
 4358      7369676E 
 4358      65642069 
 4358      6E7400
 4359              	.LASF227:
 4360 0a00 61776432 		.ascii	"awd2cr\000"
 4360      637200
 4361              	.LASF22:
 4362 0a07 73746B61 		.ascii	"stkalign_t\000"
 4362      6C69676E 
 4362      5F7400
 4363              	.LASF260:
ARM GAS  C:\Users\DEVELO~1\AppData\Local\Temp\cclsZJPb.s 			page 86


 4364 0a12 6D61696E 		.ascii	"main\000"
 4364      00
 4365              	.LASF228:
 4366 0a17 61776433 		.ascii	"awd3cr\000"
 4366      637200
 4367              	.LASF161:
 4368 0a1e 63757272 		.ascii	"current\000"
 4368      656E7400 
 4369              	.LASF201:
 4370 0a26 67727070 		.ascii	"grpp\000"
 4370      00
 4371              	.LASF107:
 4372 0a2b 52455345 		.ascii	"RESERVED5\000"
 4372      52564544 
 4372      3500
 4373              	.LASF80:
 4374 0a35 72656173 		.ascii	"reason\000"
 4374      6F6E00
 4375              	.LASF120:
 4376 0a3c 52455345 		.ascii	"RESERVED8\000"
 4376      52564544 
 4376      3800
 4377              	.LASF121:
 4378 0a46 52455345 		.ascii	"RESERVED9\000"
 4378      52564544 
 4378      3900
 4379              	.LASF213:
 4380 0a50 68616C5F 		.ascii	"hal_adc_configuration_group\000"
 4380      6164635F 
 4380      636F6E66 
 4380      69677572 
 4380      6174696F 
 4381              	.LASF153:
 4382 0a6c 77747472 		.ascii	"wttrp\000"
 4382      7000
 4383              	.LASF191:
 4384 0a72 4144435F 		.ascii	"ADC_STOP\000"
 4384      53544F50 
 4384      00
 4385              	.LASF152:
 4386 0a7b 65786974 		.ascii	"exitcode\000"
 4386      636F6465 
 4386      00
 4387              	.LASF174:
 4388 0a84 73656C66 		.ascii	"selfindex\000"
 4388      696E6465 
 4388      7800
 4389              	.LASF253:
 4390 0a8e 6765745F 		.ascii	"get_last_samples\000"
 4390      6C617374 
 4390      5F73616D 
 4390      706C6573 
 4390      00
 4391              	.LASF30:
 4392 0a9f 636F7265 		.ascii	"core_id_t\000"
 4392      5F69645F 
 4392      7400
ARM GAS  C:\Users\DEVELO~1\AppData\Local\Temp\cclsZJPb.s 			page 87


 4393              	.LASF44:
 4394 0aa9 6D706F6F 		.ascii	"mpool\000"
 4394      6C00
 4395              		.ident	"GCC: (Arm GNU Toolchain 11.3.Rel1) 11.3.1 20220712"
ARM GAS  C:\Users\DEVELO~1\AppData\Local\Temp\cclsZJPb.s 			page 88


DEFINED SYMBOLS
                            *ABS*:00000000 main.c
C:\Users\DEVELO~1\AppData\Local\Temp\cclsZJPb.s:18     .ramd2:00000000 $d
C:\Users\DEVELO~1\AppData\Local\Temp\cclsZJPb.s:21     .ramd2:00000000 adc_buffer
C:\Users\DEVELO~1\AppData\Local\Temp\cclsZJPb.s:24     .text.adc_cb:00000000 $t
C:\Users\DEVELO~1\AppData\Local\Temp\cclsZJPb.s:29     .text.adc_cb:00000000 adc_cb
C:\Users\DEVELO~1\AppData\Local\Temp\cclsZJPb.s:60     .rodata.adcgrpcfg:00000000 $d
C:\Users\DEVELO~1\AppData\Local\Temp\cclsZJPb.s:63     .rodata.adcgrpcfg:00000000 adcgrpcfg
C:\Users\DEVELO~1\AppData\Local\Temp\cclsZJPb.s:88     .text.muxSelect:00000000 $t
C:\Users\DEVELO~1\AppData\Local\Temp\cclsZJPb.s:93     .text.muxSelect:00000000 muxSelect
C:\Users\DEVELO~1\AppData\Local\Temp\cclsZJPb.s:200    .text.muxSelect:00000090 $d
C:\Users\DEVELO~1\AppData\Local\Temp\cclsZJPb.s:205    .text.get_last_samples:00000000 $t
C:\Users\DEVELO~1\AppData\Local\Temp\cclsZJPb.s:210    .text.get_last_samples:00000000 get_last_samples
C:\Users\DEVELO~1\AppData\Local\Temp\cclsZJPb.s:259    .text.get_last_samples:00000034 $d
C:\Users\DEVELO~1\AppData\Local\Temp\cclsZJPb.s:264    .bss.hall_values:00000000 $d
C:\Users\DEVELO~1\AppData\Local\Temp\cclsZJPb.s:267    .bss.hall_values:00000000 hall_values
C:\Users\DEVELO~1\AppData\Local\Temp\cclsZJPb.s:270    .rodata:00000000 $d
C:\Users\DEVELO~1\AppData\Local\Temp\cclsZJPb.s:277    .text.main:00000000 $t
C:\Users\DEVELO~1\AppData\Local\Temp\cclsZJPb.s:283    .text.main:00000000 main
C:\Users\DEVELO~1\AppData\Local\Temp\cclsZJPb.s:479    .text.main:00000150 $d

UNDEFINED SYMBOLS
halInit
chSysInit
drivers_init_all
drv_display_init
_pal_lld_setgroupmode
adcStart
adcStartConversion
chThdSleep
drv_display_clear
drv_display_draw_text
snprintf
drv_display_update
ADCD1
