ARM GAS  C:\Users\DEVELO~1\AppData\Local\Temp\ccJy2m5y.s 			page 1


   1              		.cpu cortex-m7
   2              		.arch armv7e-m
   3              		.fpu softvfp
   4              		.eabi_attribute 20, 1
   5              		.eabi_attribute 21, 1
   6              		.eabi_attribute 23, 3
   7              		.eabi_attribute 24, 1
   8              		.eabi_attribute 25, 1
   9              		.eabi_attribute 26, 1
  10              		.eabi_attribute 30, 6
  11              		.eabi_attribute 34, 1
  12              		.eabi_attribute 18, 4
  13              		.file	"main.c"
  14              		.text
  15              	.Ltext0:
  16              		.cfi_sections	.debug_frame
  17              		.section	.dma,"aw"
  18              		.align	5
  19              		.type	adc_buf, %object
  20              		.size	adc_buf, 2
  21              	adc_buf:
  22 0000 0000     		.space	2
  23              		.section	.rodata.adccfg,"a"
  24              		.align	2
  25              		.type	adccfg, %object
  26              		.size	adccfg, 8
  27              	adccfg:
  28 0000 00000000 		.space	8
  28      00000000 
  29              		.section	.rodata.adcgrpcfg,"a"
  30              		.align	2
  31              		.type	adcgrpcfg, %object
  32              		.size	adcgrpcfg, 88
  33              	adcgrpcfg:
  34 0000 01       		.byte	1
  35 0001 000000   		.space	3
  36 0004 01000000 		.word	1
  37 0008 00000000 		.word	0
  38 000c 00000000 		.word	0
  39 0010 08200000 		.word	8200
  40 0014 00000000 		.word	0
  41 0018 00000000 		.word	0
  42 001c 80000000 		.word	128
  43 0020 00000000 		.word	0
  44 0024 FFFFFF03 		.word	67108863
  45 0028 00000000 		.word	0
  46 002c 00000000 		.word	0
  47 0030 00000000 		.word	0
  48 0034 00000000 		.word	0
  49 0038 00000000 		.word	0
  50 003c 00000000 		.word	0
  51 0040 0000A000 		.word	10485760
  52 0044 00000000 		.word	0
  53 0048 C0010000 		.word	448
  54 004c 00000000 		.word	0
  55 0050 00000000 		.word	0
  56 0054 00000000 		.word	0
ARM GAS  C:\Users\DEVELO~1\AppData\Local\Temp\ccJy2m5y.s 			page 2


  57              		.section	.text.mux_set,"ax",%progbits
  58              		.align	1
  59              		.syntax unified
  60              		.thumb
  61              		.thumb_func
  62              		.type	mux_set, %function
  63              	mux_set:
  64              	.LFB435:
  65              		.file 1 "main.c"
  66              		.loc 1 51 34
  67              		.cfi_startproc
  68              		@ args = 0, pretend = 0, frame = 24
  69              		@ frame_needed = 1, uses_anonymous_args = 0
  70              		@ link register save eliminated.
  71 0000 80B4     		push	{r7}
  72              		.cfi_def_cfa_offset 4
  73              		.cfi_offset 7, -4
  74 0002 87B0     		sub	sp, sp, #28
  75              		.cfi_def_cfa_offset 32
  76 0004 00AF     		add	r7, sp, #0
  77              		.cfi_def_cfa_register 7
  78 0006 0346     		mov	r3, r0
  79 0008 FB71     		strb	r3, [r7, #7]
  80              	.LBB2:
  81              		.loc 1 52 3
  82 000a FB79     		ldrb	r3, [r7, #7]	@ zero_extendqisi2
  83 000c 03F00103 		and	r3, r3, #1
  84 0010 002B     		cmp	r3, #0
  85 0012 02D1     		bne	.L2
  86              		.loc 1 52 3 is_stmt 0 discriminator 1
  87 0014 4FF40012 		mov	r2, #2097152
  88 0018 00E0     		b	.L3
  89              	.L2:
  90              		.loc 1 52 3 discriminator 2
  91 001a 0022     		movs	r2, #0
  92              	.L3:
  93              		.loc 1 52 3 discriminator 4
  94 001c FB79     		ldrb	r3, [r7, #7]	@ zero_extendqisi2
  95 001e 5B01     		lsls	r3, r3, #5
  96 0020 03F02003 		and	r3, r3, #32
  97 0024 1343     		orrs	r3, r3, r2
  98 0026 7B61     		str	r3, [r7, #20]
  99 0028 164A     		ldr	r2, .L8
 100 002a 7B69     		ldr	r3, [r7, #20]
 101 002c 9361     		str	r3, [r2, #24]
 102              	.LBE2:
 103              	.LBB3:
 104              		.loc 1 53 3 is_stmt 1 discriminator 4
 105 002e FB79     		ldrb	r3, [r7, #7]	@ zero_extendqisi2
 106 0030 03F00203 		and	r3, r3, #2
 107 0034 002B     		cmp	r3, #0
 108 0036 02D1     		bne	.L4
 109              		.loc 1 53 3 is_stmt 0 discriminator 1
 110 0038 4FF48012 		mov	r2, #1048576
 111 003c 00E0     		b	.L5
 112              	.L4:
 113              		.loc 1 53 3 discriminator 2
ARM GAS  C:\Users\DEVELO~1\AppData\Local\Temp\ccJy2m5y.s 			page 3


 114 003e 0022     		movs	r2, #0
 115              	.L5:
 116              		.loc 1 53 3 discriminator 4
 117 0040 FB79     		ldrb	r3, [r7, #7]	@ zero_extendqisi2
 118 0042 5B08     		lsrs	r3, r3, #1
 119 0044 1B01     		lsls	r3, r3, #4
 120 0046 03F01003 		and	r3, r3, #16
 121 004a 1343     		orrs	r3, r3, r2
 122 004c 3B61     		str	r3, [r7, #16]
 123 004e 0D4A     		ldr	r2, .L8
 124 0050 3B69     		ldr	r3, [r7, #16]
 125 0052 9361     		str	r3, [r2, #24]
 126              	.LBE3:
 127              	.LBB4:
 128              		.loc 1 54 3 is_stmt 1 discriminator 4
 129 0054 FB79     		ldrb	r3, [r7, #7]	@ zero_extendqisi2
 130 0056 03F00403 		and	r3, r3, #4
 131 005a 002B     		cmp	r3, #0
 132 005c 02D1     		bne	.L6
 133              		.loc 1 54 3 is_stmt 0 discriminator 1
 134 005e 4FF48002 		mov	r2, #4194304
 135 0062 00E0     		b	.L7
 136              	.L6:
 137              		.loc 1 54 3 discriminator 2
 138 0064 0022     		movs	r2, #0
 139              	.L7:
 140              		.loc 1 54 3 discriminator 4
 141 0066 FB79     		ldrb	r3, [r7, #7]	@ zero_extendqisi2
 142 0068 9B08     		lsrs	r3, r3, #2
 143 006a 9B01     		lsls	r3, r3, #6
 144 006c 03F04003 		and	r3, r3, #64
 145 0070 1343     		orrs	r3, r3, r2
 146 0072 FB60     		str	r3, [r7, #12]
 147 0074 034A     		ldr	r2, .L8
 148 0076 FB68     		ldr	r3, [r7, #12]
 149 0078 9361     		str	r3, [r2, #24]
 150              	.LBE4:
 151              		.loc 1 55 1 is_stmt 1 discriminator 4
 152 007a 00BF     		nop
 153 007c 1C37     		adds	r7, r7, #28
 154              		.cfi_def_cfa_offset 4
 155 007e BD46     		mov	sp, r7
 156              		.cfi_def_cfa_register 13
 157              		@ sp needed
 158 0080 80BC     		pop	{r7}
 159              		.cfi_restore 7
 160              		.cfi_def_cfa_offset 0
 161 0082 7047     		bx	lr
 162              	.L9:
 163              		.align	2
 164              	.L8:
 165 0084 00000258 		.word	1476526080
 166              		.cfi_endproc
 167              	.LFE435:
 168              		.size	mux_set, .-mux_set
 169              		.section	.rodata
 170              		.align	2
ARM GAS  C:\Users\DEVELO~1\AppData\Local\Temp\ccJy2m5y.s 			page 4


 171              	.LC0:
 172 0000 41444320 		.ascii	"ADC DMA START FAIL\000"
 172      444D4120 
 172      53544152 
 172      54204641 
 172      494C00
 173 0013 00       		.align	2
 174              	.LC1:
 175 0014 7265743D 		.ascii	"ret=%ld\000"
 175      256C6400 
 176              		.align	2
 177              	.LC2:
 178 001c 41444331 		.ascii	"ADC1 MUX PA7 DMA\000"
 178      204D5558 
 178      20504137 
 178      20444D41 
 178      00
 179 002d 000000   		.align	2
 180              	.LC3:
 181 0030 4D555820 		.ascii	"MUX CH = %u\000"
 181      4348203D 
 181      20257500 
 182              		.align	2
 183              	.LC4:
 184 003c 56414C20 		.ascii	"VAL = %u\000"
 184      3D202575 
 184      00
 185              		.section	.text.main,"ax",%progbits
 186              		.align	1
 187              		.global	main
 188              		.syntax unified
 189              		.thumb
 190              		.thumb_func
 191              		.type	main, %function
 192              	main:
 193              	.LFB436:
 194              		.loc 1 59 16
 195              		.cfi_startproc
 196              		@ args = 0, pretend = 0, frame = 40
 197              		@ frame_needed = 1, uses_anonymous_args = 0
 198 0000 80B5     		push	{r7, lr}
 199              		.cfi_def_cfa_offset 8
 200              		.cfi_offset 7, -8
 201              		.cfi_offset 14, -4
 202 0002 8AB0     		sub	sp, sp, #40
 203              		.cfi_def_cfa_offset 48
 204 0004 00AF     		add	r7, sp, #0
 205              		.cfi_def_cfa_register 7
 206              		.loc 1 61 3
 207 0006 FFF7FEFF 		bl	halInit
 208              		.loc 1 62 3
 209 000a FFF7FEFF 		bl	chSysInit
 210              		.loc 1 64 3
 211 000e FFF7FEFF 		bl	drivers_init_all
 212              		.loc 1 65 3
 213 0012 FFF7FEFF 		bl	drv_display_init
 214              		.loc 1 67 3
ARM GAS  C:\Users\DEVELO~1\AppData\Local\Temp\ccJy2m5y.s 			page 5


 215 0016 0122     		movs	r2, #1
 216 0018 2021     		movs	r1, #32
 217 001a 3548     		ldr	r0, .L15
 218 001c FFF7FEFF 		bl	_pal_lld_setgroupmode
 219              		.loc 1 68 3
 220 0020 0122     		movs	r2, #1
 221 0022 1021     		movs	r1, #16
 222 0024 3248     		ldr	r0, .L15
 223 0026 FFF7FEFF 		bl	_pal_lld_setgroupmode
 224              		.loc 1 69 3
 225 002a 0122     		movs	r2, #1
 226 002c 4021     		movs	r1, #64
 227 002e 3048     		ldr	r0, .L15
 228 0030 FFF7FEFF 		bl	_pal_lld_setgroupmode
 229              		.loc 1 70 3
 230 0034 0020     		movs	r0, #0
 231 0036 FFF7FEFF 		bl	mux_set
 232              		.loc 1 72 3
 233 003a 0322     		movs	r2, #3
 234 003c 8021     		movs	r1, #128
 235 003e 2C48     		ldr	r0, .L15
 236 0040 FFF7FEFF 		bl	_pal_lld_setgroupmode
 237              		.loc 1 77 21
 238 0044 2B49     		ldr	r1, .L15+4
 239 0046 2C48     		ldr	r0, .L15+8
 240 0048 FFF7FEFF 		bl	adcStart
 241 004c 7862     		str	r0, [r7, #36]
 242              		.loc 1 78 6
 243 004e 7B6A     		ldr	r3, [r7, #36]
 244 0050 002B     		cmp	r3, #0
 245 0052 03D1     		bne	.L11
 246              		.loc 1 78 52 discriminator 1
 247 0054 284B     		ldr	r3, .L15+8
 248 0056 1B6B     		ldr	r3, [r3, #48]
 249              		.loc 1 78 38 discriminator 1
 250 0058 002B     		cmp	r3, #0
 251 005a 19D1     		bne	.L12
 252              	.L11:
 253              		.loc 1 79 5
 254 005c FFF7FEFF 		bl	drv_display_clear
 255              		.loc 1 80 5
 256 0060 264A     		ldr	r2, .L15+12
 257 0062 0021     		movs	r1, #0
 258 0064 0020     		movs	r0, #0
 259 0066 FFF7FEFF 		bl	drv_display_draw_text
 260              		.loc 1 81 5
 261 006a 3846     		mov	r0, r7
 262 006c 7B6A     		ldr	r3, [r7, #36]
 263 006e 244A     		ldr	r2, .L15+16
 264 0070 2021     		movs	r1, #32
 265 0072 FFF7FEFF 		bl	snprintf
 266              		.loc 1 82 5
 267 0076 3B46     		mov	r3, r7
 268 0078 1A46     		mov	r2, r3
 269 007a 0C21     		movs	r1, #12
 270 007c 0020     		movs	r0, #0
 271 007e FFF7FEFF 		bl	drv_display_draw_text
ARM GAS  C:\Users\DEVELO~1\AppData\Local\Temp\ccJy2m5y.s 			page 6


 272              		.loc 1 83 5
 273 0082 FFF7FEFF 		bl	drv_display_update
 274              	.L13:
 275              		.loc 1 85 7 discriminator 1
 276 0086 42F21070 		movw	r0, #10000
 277 008a FFF7FEFF 		bl	chThdSleep
 278 008e FAE7     		b	.L13
 279              	.L12:
 280              		.loc 1 89 3
 281 0090 0123     		movs	r3, #1
 282 0092 1C4A     		ldr	r2, .L15+20
 283 0094 1C49     		ldr	r1, .L15+24
 284 0096 1848     		ldr	r0, .L15+8
 285 0098 FFF7FEFF 		bl	adcStartConversion
 286              	.L14:
 287              	.LBB5:
 288              		.loc 1 93 14 discriminator 1
 289 009c 194B     		ldr	r3, .L15+20
 290 009e 1B88     		ldrh	r3, [r3]	@ movhi
 291 00a0 7B84     		strh	r3, [r7, #34]	@ movhi
 292              		.loc 1 95 5 discriminator 1
 293 00a2 FFF7FEFF 		bl	drv_display_clear
 294              		.loc 1 96 5 discriminator 1
 295 00a6 194A     		ldr	r2, .L15+28
 296 00a8 0021     		movs	r1, #0
 297 00aa 0020     		movs	r0, #0
 298 00ac FFF7FEFF 		bl	drv_display_draw_text
 299              		.loc 1 97 5 discriminator 1
 300 00b0 3846     		mov	r0, r7
 301 00b2 0023     		movs	r3, #0
 302 00b4 164A     		ldr	r2, .L15+32
 303 00b6 2021     		movs	r1, #32
 304 00b8 FFF7FEFF 		bl	snprintf
 305              		.loc 1 98 5 discriminator 1
 306 00bc 3B46     		mov	r3, r7
 307 00be 1A46     		mov	r2, r3
 308 00c0 0A21     		movs	r1, #10
 309 00c2 0020     		movs	r0, #0
 310 00c4 FFF7FEFF 		bl	drv_display_draw_text
 311              		.loc 1 99 5 discriminator 1
 312 00c8 7B8C     		ldrh	r3, [r7, #34]
 313 00ca 3846     		mov	r0, r7
 314 00cc 114A     		ldr	r2, .L15+36
 315 00ce 2021     		movs	r1, #32
 316 00d0 FFF7FEFF 		bl	snprintf
 317              		.loc 1 100 5 discriminator 1
 318 00d4 3B46     		mov	r3, r7
 319 00d6 1A46     		mov	r2, r3
 320 00d8 1621     		movs	r1, #22
 321 00da 0020     		movs	r0, #0
 322 00dc FFF7FEFF 		bl	drv_display_draw_text
 323              		.loc 1 101 5 discriminator 1
 324 00e0 FFF7FEFF 		bl	drv_display_update
 325              		.loc 1 103 5 discriminator 1
 326 00e4 4FF4FA60 		mov	r0, #2000
 327 00e8 FFF7FEFF 		bl	chThdSleep
 328              	.LBE5:
ARM GAS  C:\Users\DEVELO~1\AppData\Local\Temp\ccJy2m5y.s 			page 7


 329              		.loc 1 91 16 discriminator 1
 330 00ec D6E7     		b	.L14
 331              	.L16:
 332 00ee 00BF     		.align	2
 333              	.L15:
 334 00f0 00000258 		.word	1476526080
 335 00f4 00000000 		.word	adccfg
 336 00f8 00000000 		.word	ADCD1
 337 00fc 00000000 		.word	.LC0
 338 0100 14000000 		.word	.LC1
 339 0104 00000000 		.word	adc_buf
 340 0108 00000000 		.word	adcgrpcfg
 341 010c 1C000000 		.word	.LC2
 342 0110 30000000 		.word	.LC3
 343 0114 3C000000 		.word	.LC4
 344              		.cfi_endproc
 345              	.LFE436:
 346              		.size	main, .-main
 347              		.text
 348              	.Letext0:
 349              		.file 2 "c:\\chibistudio\\tools\\gnu tools arm embedded\\11.3 2022.08\\lib\\gcc\\arm-none-eabi\\11
 350              		.file 3 "c:\\chibistudio\\tools\\gnu tools arm embedded\\11.3 2022.08\\arm-none-eabi\\include\\mac
 351              		.file 4 "c:\\chibistudio\\tools\\gnu tools arm embedded\\11.3 2022.08\\arm-none-eabi\\include\\sys
 352              		.file 5 "../../../os/common/ports/ARM-common/chtypes.h"
 353              		.file 6 "../../../os/rt/include/chearly.h"
 354              		.file 7 "../../../os/rt/include/chobjects.h"
 355              		.file 8 "../../../os/rt/include/chrfcu.h"
 356              		.file 9 "../../../os/rt/include/chdebug.h"
 357              		.file 10 "../../../os/rt/include/chtime.h"
 358              		.file 11 "../../../os/rt/include/chlists.h"
 359              		.file 12 "../../../os/rt/include/chtrace.h"
 360              		.file 13 "../../../os/common/ext/ST/STM32H7xx/stm32h743xx.h"
 361              		.file 14 "../../../os/common/ports/ARMv7-M/chcore.h"
 362              		.file 15 "../../../os/rt/include/chsem.h"
 363              		.file 16 "../../../os/rt/include/chmtx.h"
 364              		.file 17 "../../../os/hal/ports/STM32/LLD/DMAv2/stm32_dma.h"
 365              		.file 18 "../../../os/hal/ports/STM32/LLD/GPIOv2/stm32_gpio.h"
 366              		.file 19 "../../../os/hal/ports/STM32/LLD/GPIOv2/hal_pal_lld.h"
 367              		.file 20 "../../../os/hal/include/hal_adc.h"
 368              		.file 21 "../../../os/hal/ports/STM32/LLD/ADCv4/hal_adc_lld.h"
 369              		.file 22 "../../../os/rt/include/chthreads.h"
 370              		.file 23 "drivers/drv_display.h"
 371              		.file 24 "c:\\chibistudio\\tools\\gnu tools arm embedded\\11.3 2022.08\\arm-none-eabi\\include\\st
 372              		.file 25 "drivers/drivers.h"
 373              		.file 26 "../../../os/rt/include/chsys.h"
 374              		.file 27 "../../../os/hal/include/hal.h"
 375              		.section	.debug_info,"",%progbits
 376              	.Ldebug_info0:
 377 0000 C0120000 		.4byte	0x12c0
 378 0004 0500     		.2byte	0x5
 379 0006 01       		.byte	0x1
 380 0007 04       		.byte	0x4
 381 0008 00000000 		.4byte	.Ldebug_abbrev0
 382 000c 21       		.uleb128 0x21
 383 000d 8E020000 		.4byte	.LASF255
 384 0011 1D       		.byte	0x1d
 385 0012 5A080000 		.4byte	.LASF256
ARM GAS  C:\Users\DEVELO~1\AppData\Local\Temp\ccJy2m5y.s 			page 8


 386 0016 6A030000 		.4byte	.LASF257
 387 001a 0C000000 		.4byte	.LLRL0
 388 001e 00000000 		.4byte	0
 389 0022 00000000 		.4byte	.Ldebug_line0
 390 0026 22       		.uleb128 0x22
 391 0027 04       		.byte	0x4
 392 0028 05       		.byte	0x5
 393 0029 696E7400 		.ascii	"int\000"
 394 002d 03       		.uleb128 0x3
 395 002e E5030000 		.4byte	.LASF4
 396 0032 02       		.byte	0x2
 397 0033 D1       		.byte	0xd1
 398 0034 17       		.byte	0x17
 399 0035 39000000 		.4byte	0x39
 400 0039 09       		.uleb128 0x9
 401 003a 04       		.byte	0x4
 402 003b 07       		.byte	0x7
 403 003c 93000000 		.4byte	.LASF0
 404 0040 09       		.uleb128 0x9
 405 0041 08       		.byte	0x8
 406 0042 05       		.byte	0x5
 407 0043 AD050000 		.4byte	.LASF1
 408 0047 09       		.uleb128 0x9
 409 0048 08       		.byte	0x8
 410 0049 04       		.byte	0x4
 411 004a D6060000 		.4byte	.LASF2
 412 004e 09       		.uleb128 0x9
 413 004f 01       		.byte	0x1
 414 0050 06       		.byte	0x6
 415 0051 D1090000 		.4byte	.LASF3
 416 0055 03       		.uleb128 0x3
 417 0056 40080000 		.4byte	.LASF5
 418 005a 03       		.byte	0x3
 419 005b 2B       		.byte	0x2b
 420 005c 18       		.byte	0x18
 421 005d 61000000 		.4byte	0x61
 422 0061 09       		.uleb128 0x9
 423 0062 01       		.byte	0x1
 424 0063 08       		.byte	0x8
 425 0064 15090000 		.4byte	.LASF6
 426 0068 09       		.uleb128 0x9
 427 0069 02       		.byte	0x2
 428 006a 05       		.byte	0x5
 429 006b 1A010000 		.4byte	.LASF7
 430 006f 03       		.uleb128 0x3
 431 0070 61020000 		.4byte	.LASF8
 432 0074 03       		.byte	0x3
 433 0075 39       		.byte	0x39
 434 0076 19       		.byte	0x19
 435 0077 7B000000 		.4byte	0x7b
 436 007b 09       		.uleb128 0x9
 437 007c 02       		.byte	0x2
 438 007d 07       		.byte	0x7
 439 007e E3090000 		.4byte	.LASF9
 440 0082 03       		.uleb128 0x3
 441 0083 CE000000 		.4byte	.LASF10
 442 0087 03       		.byte	0x3
ARM GAS  C:\Users\DEVELO~1\AppData\Local\Temp\ccJy2m5y.s 			page 9


 443 0088 4D       		.byte	0x4d
 444 0089 18       		.byte	0x18
 445 008a 8E000000 		.4byte	0x8e
 446 008e 09       		.uleb128 0x9
 447 008f 04       		.byte	0x4
 448 0090 05       		.byte	0x5
 449 0091 00000000 		.4byte	.LASF11
 450 0095 03       		.uleb128 0x3
 451 0096 28090000 		.4byte	.LASF12
 452 009a 03       		.byte	0x3
 453 009b 4F       		.byte	0x4f
 454 009c 19       		.byte	0x19
 455 009d A1000000 		.4byte	0xa1
 456 00a1 09       		.uleb128 0x9
 457 00a2 04       		.byte	0x4
 458 00a3 07       		.byte	0x7
 459 00a4 82080000 		.4byte	.LASF13
 460 00a8 03       		.uleb128 0x3
 461 00a9 4B050000 		.4byte	.LASF14
 462 00ad 03       		.byte	0x3
 463 00ae 69       		.byte	0x69
 464 00af 19       		.byte	0x19
 465 00b0 B4000000 		.4byte	0xb4
 466 00b4 09       		.uleb128 0x9
 467 00b5 08       		.byte	0x8
 468 00b6 07       		.byte	0x7
 469 00b7 1F020000 		.4byte	.LASF15
 470 00bb 03       		.uleb128 0x3
 471 00bc 56050000 		.4byte	.LASF16
 472 00c0 04       		.byte	0x4
 473 00c1 18       		.byte	0x18
 474 00c2 13       		.byte	0x13
 475 00c3 55000000 		.4byte	0x55
 476 00c7 03       		.uleb128 0x3
 477 00c8 E2060000 		.4byte	.LASF17
 478 00cc 04       		.byte	0x4
 479 00cd 24       		.byte	0x24
 480 00ce 14       		.byte	0x14
 481 00cf 6F000000 		.4byte	0x6f
 482 00d3 03       		.uleb128 0x3
 483 00d4 D0080000 		.4byte	.LASF18
 484 00d8 04       		.byte	0x4
 485 00d9 2C       		.byte	0x2c
 486 00da 13       		.byte	0x13
 487 00db 82000000 		.4byte	0x82
 488 00df 03       		.uleb128 0x3
 489 00e0 A5000000 		.4byte	.LASF19
 490 00e4 04       		.byte	0x4
 491 00e5 30       		.byte	0x30
 492 00e6 14       		.byte	0x14
 493 00e7 95000000 		.4byte	0x95
 494 00eb 13       		.uleb128 0x13
 495 00ec DF000000 		.4byte	0xdf
 496 00f0 03       		.uleb128 0x3
 497 00f1 24080000 		.4byte	.LASF20
 498 00f5 04       		.byte	0x4
 499 00f6 3C       		.byte	0x3c
ARM GAS  C:\Users\DEVELO~1\AppData\Local\Temp\ccJy2m5y.s 			page 10


 500 00f7 14       		.byte	0x14
 501 00f8 A8000000 		.4byte	0xa8
 502 00fc 13       		.uleb128 0x13
 503 00fd F0000000 		.4byte	0xf0
 504 0101 03       		.uleb128 0x3
 505 0102 E8070000 		.4byte	.LASF21
 506 0106 05       		.byte	0x5
 507 0107 48       		.byte	0x48
 508 0108 1D       		.byte	0x1d
 509 0109 F0000000 		.4byte	0xf0
 510 010d 03       		.uleb128 0x3
 511 010e FD090000 		.4byte	.LASF22
 512 0112 06       		.byte	0x6
 513 0113 50       		.byte	0x50
 514 0114 19       		.byte	0x19
 515 0115 01010000 		.4byte	0x101
 516 0119 03       		.uleb128 0x3
 517 011a 7A060000 		.4byte	.LASF23
 518 011e 06       		.byte	0x6
 519 011f 53       		.byte	0x53
 520 0120 19       		.byte	0x19
 521 0121 BB000000 		.4byte	0xbb
 522 0125 03       		.uleb128 0x3
 523 0126 0D050000 		.4byte	.LASF24
 524 012a 06       		.byte	0x6
 525 012b 54       		.byte	0x54
 526 012c 19       		.byte	0x19
 527 012d BB000000 		.4byte	0xbb
 528 0131 03       		.uleb128 0x3
 529 0132 75080000 		.4byte	.LASF25
 530 0136 06       		.byte	0x6
 531 0137 55       		.byte	0x55
 532 0138 19       		.byte	0x19
 533 0139 BB000000 		.4byte	0xbb
 534 013d 03       		.uleb128 0x3
 535 013e ED010000 		.4byte	.LASF26
 536 0142 06       		.byte	0x6
 537 0143 57       		.byte	0x57
 538 0144 19       		.byte	0x19
 539 0145 DF000000 		.4byte	0xdf
 540 0149 03       		.uleb128 0x3
 541 014a D4050000 		.4byte	.LASF27
 542 014e 06       		.byte	0x6
 543 014f 58       		.byte	0x58
 544 0150 19       		.byte	0x19
 545 0151 D3000000 		.4byte	0xd3
 546 0155 03       		.uleb128 0x3
 547 0156 B0010000 		.4byte	.LASF28
 548 015a 06       		.byte	0x6
 549 015b 5A       		.byte	0x5a
 550 015c 19       		.byte	0x19
 551 015d DF000000 		.4byte	0xdf
 552 0161 03       		.uleb128 0x3
 553 0162 6C020000 		.4byte	.LASF29
 554 0166 06       		.byte	0x6
 555 0167 5C       		.byte	0x5c
 556 0168 19       		.byte	0x19
ARM GAS  C:\Users\DEVELO~1\AppData\Local\Temp\ccJy2m5y.s 			page 11


 557 0169 D3000000 		.4byte	0xd3
 558 016d 03       		.uleb128 0x3
 559 016e 840A0000 		.4byte	.LASF30
 560 0172 06       		.byte	0x6
 561 0173 80       		.byte	0x80
 562 0174 12       		.byte	0x12
 563 0175 39000000 		.4byte	0x39
 564 0179 03       		.uleb128 0x3
 565 017a CE030000 		.4byte	.LASF31
 566 017e 06       		.byte	0x6
 567 017f 85       		.byte	0x85
 568 0180 1A       		.byte	0x1a
 569 0181 85010000 		.4byte	0x185
 570 0185 08       		.uleb128 0x8
 571 0186 77050000 		.4byte	.LASF46
 572 018a 48       		.byte	0x48
 573 018b 07       		.byte	0x7
 574 018c 9C       		.byte	0x9c
 575 018d 08       		.byte	0x8
 576 018e 68020000 		.4byte	0x268
 577 0192 07       		.uleb128 0x7
 578 0193 68647200 		.ascii	"hdr\000"
 579 0197 07       		.byte	0x7
 580 0198 AD       		.byte	0xad
 581 0199 05       		.byte	0x5
 582 019a 9B0A0000 		.4byte	0xa9b
 583 019e 00       		.byte	0
 584 019f 07       		.uleb128 0x7
 585 01a0 63747800 		.ascii	"ctx\000"
 586 01a4 07       		.byte	0x7
 587 01a5 B1       		.byte	0xb1
 588 01a6 21       		.byte	0x21
 589 01a7 060A0000 		.4byte	0xa06
 590 01ab 0C       		.byte	0xc
 591 01ac 01       		.uleb128 0x1
 592 01ad 16050000 		.4byte	.LASF32
 593 01b1 07       		.byte	0x7
 594 01b2 B6       		.byte	0xb6
 595 01b3 21       		.byte	0x21
 596 01b4 C2030000 		.4byte	0x3c2
 597 01b8 10       		.byte	0x10
 598 01b9 01       		.uleb128 0x1
 599 01ba 30030000 		.4byte	.LASF33
 600 01be 07       		.byte	0x7
 601 01bf BB       		.byte	0xbb
 602 01c0 22       		.byte	0x22
 603 01c1 9F0B0000 		.4byte	0xb9f
 604 01c5 18       		.byte	0x18
 605 01c6 01       		.uleb128 0x1
 606 01c7 55080000 		.4byte	.LASF34
 607 01cb 07       		.byte	0x7
 608 01cc C0       		.byte	0xc0
 609 01cd 22       		.byte	0x22
 610 01ce 50030000 		.4byte	0x350
 611 01d2 1C       		.byte	0x1c
 612 01d3 01       		.uleb128 0x1
 613 01d4 06050000 		.4byte	.LASF35
ARM GAS  C:\Users\DEVELO~1\AppData\Local\Temp\ccJy2m5y.s 			page 12


 614 01d8 07       		.byte	0x7
 615 01d9 C9       		.byte	0xc9
 616 01da 22       		.byte	0x22
 617 01db A40B0000 		.4byte	0xba4
 618 01df 20       		.byte	0x20
 619 01e0 01       		.uleb128 0x1
 620 01e1 97090000 		.4byte	.LASF36
 621 01e5 07       		.byte	0x7
 622 01e6 CE       		.byte	0xce
 623 01e7 21       		.byte	0x21
 624 01e8 25010000 		.4byte	0x125
 625 01ec 24       		.byte	0x24
 626 01ed 01       		.uleb128 0x1
 627 01ee 60000000 		.4byte	.LASF37
 628 01f2 07       		.byte	0x7
 629 01f3 D2       		.byte	0xd2
 630 01f4 21       		.byte	0x21
 631 01f5 19010000 		.4byte	0x119
 632 01f9 25       		.byte	0x25
 633 01fa 01       		.uleb128 0x1
 634 01fb D8000000 		.4byte	.LASF38
 635 01ff 07       		.byte	0x7
 636 0200 D7       		.byte	0xd7
 637 0201 21       		.byte	0x21
 638 0202 31010000 		.4byte	0x131
 639 0206 26       		.byte	0x26
 640 0207 05       		.uleb128 0x5
 641 0208 7500     		.ascii	"u\000"
 642 020a 07       		.byte	0x7
 643 020b 2801     		.2byte	0x128
 644 020d 21       		.byte	0x21
 645 020e C90A0000 		.4byte	0xac9
 646 0212 28       		.byte	0x28
 647 0213 02       		.uleb128 0x2
 648 0214 33090000 		.4byte	.LASF39
 649 0218 07       		.byte	0x7
 650 0219 2D01     		.2byte	0x12d
 651 021b 21       		.byte	0x21
 652 021c 96030000 		.4byte	0x396
 653 0220 2C       		.byte	0x2c
 654 0221 02       		.uleb128 0x2
 655 0222 F5010000 		.4byte	.LASF40
 656 0226 07       		.byte	0x7
 657 0227 3301     		.2byte	0x133
 658 0229 21       		.byte	0x21
 659 022a C2030000 		.4byte	0x3c2
 660 022e 30       		.byte	0x30
 661 022f 02       		.uleb128 0x2
 662 0230 8A000000 		.4byte	.LASF41
 663 0234 07       		.byte	0x7
 664 0235 3901     		.2byte	0x139
 665 0237 21       		.byte	0x21
 666 0238 55010000 		.4byte	0x155
 667 023c 38       		.byte	0x38
 668 023d 02       		.uleb128 0x2
 669 023e 4B030000 		.4byte	.LASF42
 670 0242 07       		.byte	0x7
ARM GAS  C:\Users\DEVELO~1\AppData\Local\Temp\ccJy2m5y.s 			page 13


 671 0243 4001     		.2byte	0x140
 672 0245 22       		.byte	0x22
 673 0246 9A0B0000 		.4byte	0xb9a
 674 024a 3C       		.byte	0x3c
 675 024b 02       		.uleb128 0x2
 676 024c 70000000 		.4byte	.LASF43
 677 0250 07       		.byte	0x7
 678 0251 4401     		.2byte	0x144
 679 0253 21       		.byte	0x21
 680 0254 3D010000 		.4byte	0x13d
 681 0258 40       		.byte	0x40
 682 0259 02       		.uleb128 0x2
 683 025a 8E0A0000 		.4byte	.LASF44
 684 025e 07       		.byte	0x7
 685 025f 4B01     		.2byte	0x14b
 686 0261 22       		.byte	0x22
 687 0262 B0040000 		.4byte	0x4b0
 688 0266 44       		.byte	0x44
 689 0267 00       		.byte	0
 690 0268 03       		.uleb128 0x3
 691 0269 A2090000 		.4byte	.LASF45
 692 026d 06       		.byte	0x6
 693 026e 8A       		.byte	0x8a
 694 026f 1F       		.byte	0x1f
 695 0270 74020000 		.4byte	0x274
 696 0274 23       		.uleb128 0x23
 697 0275 4B040000 		.4byte	.LASF47
 698 0279 9008     		.2byte	0x890
 699 027b 07       		.byte	0x7
 700 027c 8A01     		.2byte	0x18a
 701 027e 08       		.byte	0x8
 702 027f 02030000 		.4byte	0x302
 703 0283 02       		.uleb128 0x2
 704 0284 3A080000 		.4byte	.LASF48
 705 0288 07       		.byte	0x7
 706 0289 8E01     		.2byte	0x18e
 707 028b 21       		.byte	0x21
 708 028c D40B0000 		.4byte	0xbd4
 709 0290 00       		.byte	0
 710 0291 02       		.uleb128 0x2
 711 0292 06010000 		.4byte	.LASF49
 712 0296 07       		.byte	0x7
 713 0297 9201     		.2byte	0x192
 714 0299 21       		.byte	0x21
 715 029a 5C0A0000 		.4byte	0xa5c
 716 029e 10       		.byte	0x10
 717 029f 02       		.uleb128 0x2
 718 02a0 B0090000 		.4byte	.LASF50
 719 02a4 07       		.byte	0x7
 720 02a5 9901     		.2byte	0x199
 721 02a7 21       		.byte	0x21
 722 02a8 830A0000 		.4byte	0xa83
 723 02ac 28       		.byte	0x28
 724 02ad 02       		.uleb128 0x2
 725 02ae AE000000 		.4byte	.LASF51
 726 02b2 07       		.byte	0x7
 727 02b3 9E01     		.2byte	0x19e
ARM GAS  C:\Users\DEVELO~1\AppData\Local\Temp\ccJy2m5y.s 			page 14


 728 02b5 21       		.byte	0x21
 729 02b6 6D010000 		.4byte	0x16d
 730 02ba 30       		.byte	0x30
 731 02bb 02       		.uleb128 0x2
 732 02bc C9030000 		.4byte	.LASF52
 733 02c0 07       		.byte	0x7
 734 02c1 A401     		.2byte	0x1a4
 735 02c3 21       		.byte	0x21
 736 02c4 29030000 		.4byte	0x329
 737 02c8 34       		.byte	0x34
 738 02c9 02       		.uleb128 0x2
 739 02ca 16070000 		.4byte	.LASF53
 740 02ce 07       		.byte	0x7
 741 02cf A901     		.2byte	0x1a9
 742 02d1 22       		.byte	0x22
 743 02d2 480C0000 		.4byte	0xc48
 744 02d6 38       		.byte	0x38
 745 02d7 02       		.uleb128 0x2
 746 02d8 A6060000 		.4byte	.LASF54
 747 02dc 07       		.byte	0x7
 748 02dd AD01     		.2byte	0x1ad
 749 02df 21       		.byte	0x21
 750 02e0 79010000 		.4byte	0x179
 751 02e4 3C       		.byte	0x3c
 752 02e5 05       		.uleb128 0x5
 753 02e6 64626700 		.ascii	"dbg\000"
 754 02ea 07       		.byte	0x7
 755 02eb B101     		.2byte	0x1b1
 756 02ed 21       		.byte	0x21
 757 02ee 66030000 		.4byte	0x366
 758 02f2 84       		.byte	0x84
 759 02f3 02       		.uleb128 0x2
 760 02f4 46020000 		.4byte	.LASF55
 761 02f8 07       		.byte	0x7
 762 02f9 B601     		.2byte	0x1b6
 763 02fb 21       		.byte	0x21
 764 02fc 12060000 		.4byte	0x612
 765 0300 88       		.byte	0x88
 766 0301 00       		.byte	0
 767 0302 03       		.uleb128 0x3
 768 0303 DF040000 		.4byte	.LASF56
 769 0307 08       		.byte	0x8
 770 0308 3F       		.byte	0x3f
 771 0309 12       		.byte	0x12
 772 030a DF000000 		.4byte	0xdf
 773 030e 08       		.uleb128 0x8
 774 030f 35040000 		.4byte	.LASF57
 775 0313 04       		.byte	0x4
 776 0314 08       		.byte	0x8
 777 0315 44       		.byte	0x44
 778 0316 10       		.byte	0x10
 779 0317 29030000 		.4byte	0x329
 780 031b 01       		.uleb128 0x1
 781 031c 36060000 		.4byte	.LASF58
 782 0320 08       		.byte	0x8
 783 0321 48       		.byte	0x48
 784 0322 21       		.byte	0x21
ARM GAS  C:\Users\DEVELO~1\AppData\Local\Temp\ccJy2m5y.s 			page 15


 785 0323 02030000 		.4byte	0x302
 786 0327 00       		.byte	0
 787 0328 00       		.byte	0
 788 0329 03       		.uleb128 0x3
 789 032a D8080000 		.4byte	.LASF59
 790 032e 08       		.byte	0x8
 791 032f 49       		.byte	0x49
 792 0330 03       		.byte	0x3
 793 0331 0E030000 		.4byte	0x30e
 794 0335 08       		.uleb128 0x8
 795 0336 72010000 		.4byte	.LASF60
 796 033a 04       		.byte	0x4
 797 033b 09       		.byte	0x9
 798 033c 3E       		.byte	0x3e
 799 033d 10       		.byte	0x10
 800 033e 50030000 		.4byte	0x350
 801 0342 01       		.uleb128 0x1
 802 0343 61060000 		.4byte	.LASF61
 803 0347 09       		.byte	0x9
 804 0348 46       		.byte	0x46
 805 0349 24       		.byte	0x24
 806 034a 55030000 		.4byte	0x355
 807 034e 00       		.byte	0
 808 034f 00       		.byte	0
 809 0350 04       		.uleb128 0x4
 810 0351 61030000 		.4byte	0x361
 811 0355 13       		.uleb128 0x13
 812 0356 50030000 		.4byte	0x350
 813 035a 09       		.uleb128 0x9
 814 035b 01       		.byte	0x1
 815 035c 08       		.byte	0x8
 816 035d C0040000 		.4byte	.LASF62
 817 0361 0F       		.uleb128 0xf
 818 0362 5A030000 		.4byte	0x35a
 819 0366 03       		.uleb128 0x3
 820 0367 8A050000 		.4byte	.LASF63
 821 036b 09       		.byte	0x9
 822 036c 51       		.byte	0x51
 823 036d 03       		.byte	0x3
 824 036e 35030000 		.4byte	0x335
 825 0372 03       		.uleb128 0x3
 826 0373 66000000 		.4byte	.LASF64
 827 0377 0A       		.byte	0xa
 828 0378 6D       		.byte	0x6d
 829 0379 12       		.byte	0x12
 830 037a DF000000 		.4byte	0xdf
 831 037e 03       		.uleb128 0x3
 832 037f 48060000 		.4byte	.LASF65
 833 0383 0A       		.byte	0xa
 834 0384 79       		.byte	0x79
 835 0385 12       		.byte	0x12
 836 0386 DF000000 		.4byte	0xdf
 837 038a 03       		.uleb128 0x3
 838 038b FA040000 		.4byte	.LASF66
 839 038f 0A       		.byte	0xa
 840 0390 9B       		.byte	0x9b
 841 0391 12       		.byte	0x12
ARM GAS  C:\Users\DEVELO~1\AppData\Local\Temp\ccJy2m5y.s 			page 16


 842 0392 F0000000 		.4byte	0xf0
 843 0396 03       		.uleb128 0x3
 844 0397 EB060000 		.4byte	.LASF67
 845 039b 0B       		.byte	0xb
 846 039c 32       		.byte	0x32
 847 039d 18       		.byte	0x18
 848 039e A2030000 		.4byte	0x3a2
 849 03a2 08       		.uleb128 0x8
 850 03a3 4D010000 		.4byte	.LASF68
 851 03a7 04       		.byte	0x4
 852 03a8 0B       		.byte	0xb
 853 03a9 38       		.byte	0x38
 854 03aa 08       		.byte	0x8
 855 03ab BD030000 		.4byte	0x3bd
 856 03af 01       		.uleb128 0x1
 857 03b0 A0000000 		.4byte	.LASF69
 858 03b4 0B       		.byte	0xb
 859 03b5 39       		.byte	0x39
 860 03b6 1A       		.byte	0x1a
 861 03b7 BD030000 		.4byte	0x3bd
 862 03bb 00       		.byte	0
 863 03bc 00       		.byte	0
 864 03bd 04       		.uleb128 0x4
 865 03be 96030000 		.4byte	0x396
 866 03c2 03       		.uleb128 0x3
 867 03c3 56060000 		.4byte	.LASF70
 868 03c7 0B       		.byte	0xb
 869 03c8 3F       		.byte	0x3f
 870 03c9 19       		.byte	0x19
 871 03ca CE030000 		.4byte	0x3ce
 872 03ce 08       		.uleb128 0x8
 873 03cf FF080000 		.4byte	.LASF71
 874 03d3 08       		.byte	0x8
 875 03d4 0B       		.byte	0xb
 876 03d5 45       		.byte	0x45
 877 03d6 08       		.byte	0x8
 878 03d7 F6030000 		.4byte	0x3f6
 879 03db 01       		.uleb128 0x1
 880 03dc A0000000 		.4byte	.LASF69
 881 03e0 0B       		.byte	0xb
 882 03e1 46       		.byte	0x46
 883 03e2 1A       		.byte	0x1a
 884 03e3 F6030000 		.4byte	0x3f6
 885 03e7 00       		.byte	0
 886 03e8 01       		.uleb128 0x1
 887 03e9 48010000 		.4byte	.LASF72
 888 03ed 0B       		.byte	0xb
 889 03ee 47       		.byte	0x47
 890 03ef 1A       		.byte	0x1a
 891 03f0 F6030000 		.4byte	0x3f6
 892 03f4 04       		.byte	0x4
 893 03f5 00       		.byte	0
 894 03f6 04       		.uleb128 0x4
 895 03f7 C2030000 		.4byte	0x3c2
 896 03fb 03       		.uleb128 0x3
 897 03fc FD030000 		.4byte	.LASF73
 898 0400 0B       		.byte	0xb
ARM GAS  C:\Users\DEVELO~1\AppData\Local\Temp\ccJy2m5y.s 			page 17


 899 0401 4E       		.byte	0x4e
 900 0402 22       		.byte	0x22
 901 0403 07040000 		.4byte	0x407
 902 0407 08       		.uleb128 0x8
 903 0408 ED080000 		.4byte	.LASF74
 904 040c 0C       		.byte	0xc
 905 040d 0B       		.byte	0xb
 906 040e 55       		.byte	0x55
 907 040f 08       		.byte	0x8
 908 0410 3C040000 		.4byte	0x43c
 909 0414 01       		.uleb128 0x1
 910 0415 A0000000 		.4byte	.LASF69
 911 0419 0B       		.byte	0xb
 912 041a 56       		.byte	0x56
 913 041b 1A       		.byte	0x1a
 914 041c 3C040000 		.4byte	0x43c
 915 0420 00       		.byte	0
 916 0421 01       		.uleb128 0x1
 917 0422 48010000 		.4byte	.LASF72
 918 0426 0B       		.byte	0xb
 919 0427 57       		.byte	0x57
 920 0428 1A       		.byte	0x1a
 921 0429 3C040000 		.4byte	0x43c
 922 042d 04       		.byte	0x4
 923 042e 01       		.uleb128 0x1
 924 042f A8040000 		.4byte	.LASF75
 925 0433 0B       		.byte	0xb
 926 0434 58       		.byte	0x58
 927 0435 19       		.byte	0x19
 928 0436 3D010000 		.4byte	0x13d
 929 043a 08       		.byte	0x8
 930 043b 00       		.byte	0
 931 043c 04       		.uleb128 0x4
 932 043d FB030000 		.4byte	0x3fb
 933 0441 03       		.uleb128 0x3
 934 0442 CF040000 		.4byte	.LASF76
 935 0446 0B       		.byte	0xb
 936 0447 5F       		.byte	0x5f
 937 0448 1E       		.byte	0x1e
 938 0449 4D040000 		.4byte	0x44d
 939 044d 08       		.uleb128 0x8
 940 044e 87010000 		.4byte	.LASF77
 941 0452 0C       		.byte	0xc
 942 0453 0B       		.byte	0xb
 943 0454 64       		.byte	0x64
 944 0455 08       		.byte	0x8
 945 0456 82040000 		.4byte	0x482
 946 045a 01       		.uleb128 0x1
 947 045b A0000000 		.4byte	.LASF69
 948 045f 0B       		.byte	0xb
 949 0460 65       		.byte	0x65
 950 0461 1A       		.byte	0x1a
 951 0462 82040000 		.4byte	0x482
 952 0466 00       		.byte	0
 953 0467 01       		.uleb128 0x1
 954 0468 48010000 		.4byte	.LASF72
 955 046c 0B       		.byte	0xb
ARM GAS  C:\Users\DEVELO~1\AppData\Local\Temp\ccJy2m5y.s 			page 18


 956 046d 66       		.byte	0x66
 957 046e 1A       		.byte	0x1a
 958 046f 82040000 		.4byte	0x482
 959 0473 04       		.byte	0x4
 960 0474 01       		.uleb128 0x1
 961 0475 DD090000 		.4byte	.LASF78
 962 0479 0B       		.byte	0xb
 963 047a 67       		.byte	0x67
 964 047b 19       		.byte	0x19
 965 047c 7E030000 		.4byte	0x37e
 966 0480 08       		.byte	0x8
 967 0481 00       		.byte	0
 968 0482 04       		.uleb128 0x4
 969 0483 41040000 		.4byte	0x441
 970 0487 0B       		.uleb128 0xb
 971 0488 08       		.byte	0x8
 972 0489 0C       		.byte	0xc
 973 048a 83       		.byte	0x83
 974 048b 05       		.byte	0x5
 975 048c AB040000 		.4byte	0x4ab
 976 0490 07       		.uleb128 0x7
 977 0491 6E747000 		.ascii	"ntp\000"
 978 0495 0C       		.byte	0xc
 979 0496 87       		.byte	0x87
 980 0497 1E       		.byte	0x1e
 981 0498 AB040000 		.4byte	0x4ab
 982 049c 00       		.byte	0
 983 049d 01       		.uleb128 0x1
 984 049e 64010000 		.4byte	.LASF79
 985 04a2 0C       		.byte	0xc
 986 04a3 8B       		.byte	0x8b
 987 04a4 1E       		.byte	0x1e
 988 04a5 B0040000 		.4byte	0x4b0
 989 04a9 04       		.byte	0x4
 990 04aa 00       		.byte	0
 991 04ab 04       		.uleb128 0x4
 992 04ac 79010000 		.4byte	0x179
 993 04b0 24       		.uleb128 0x24
 994 04b1 04       		.byte	0x4
 995 04b2 0B       		.uleb128 0xb
 996 04b3 08       		.byte	0x8
 997 04b4 0C       		.byte	0xc
 998 04b5 90       		.byte	0x90
 999 04b6 05       		.byte	0x5
 1000 04b7 D5040000 		.4byte	0x4d5
 1001 04bb 07       		.uleb128 0x7
 1002 04bc 747000   		.ascii	"tp\000"
 1003 04bf 0C       		.byte	0xc
 1004 04c0 94       		.byte	0x94
 1005 04c1 1E       		.byte	0x1e
 1006 04c2 AB040000 		.4byte	0x4ab
 1007 04c6 00       		.byte	0
 1008 04c7 07       		.uleb128 0x7
 1009 04c8 6D736700 		.ascii	"msg\000"
 1010 04cc 0C       		.byte	0xc
 1011 04cd 98       		.byte	0x98
 1012 04ce 1D       		.byte	0x1d
ARM GAS  C:\Users\DEVELO~1\AppData\Local\Temp\ccJy2m5y.s 			page 19


 1013 04cf 49010000 		.4byte	0x149
 1014 04d3 04       		.byte	0x4
 1015 04d4 00       		.byte	0
 1016 04d5 0B       		.uleb128 0xb
 1017 04d6 04       		.byte	0x4
 1018 04d7 0C       		.byte	0xc
 1019 04d8 9D       		.byte	0x9d
 1020 04d9 05       		.byte	0x5
 1021 04da EC040000 		.4byte	0x4ec
 1022 04de 01       		.uleb128 0x1
 1023 04df 55080000 		.4byte	.LASF34
 1024 04e3 0C       		.byte	0xc
 1025 04e4 A1       		.byte	0xa1
 1026 04e5 1E       		.byte	0x1e
 1027 04e6 50030000 		.4byte	0x350
 1028 04ea 00       		.byte	0
 1029 04eb 00       		.byte	0
 1030 04ec 0B       		.uleb128 0xb
 1031 04ed 04       		.byte	0x4
 1032 04ee 0C       		.byte	0xc
 1033 04ef A6       		.byte	0xa6
 1034 04f0 05       		.byte	0x5
 1035 04f1 03050000 		.4byte	0x503
 1036 04f5 01       		.uleb128 0x1
 1037 04f6 2B0A0000 		.4byte	.LASF80
 1038 04fa 0C       		.byte	0xc
 1039 04fb AA       		.byte	0xaa
 1040 04fc 1E       		.byte	0x1e
 1041 04fd 50030000 		.4byte	0x350
 1042 0501 00       		.byte	0
 1043 0502 00       		.byte	0
 1044 0503 0B       		.uleb128 0xb
 1045 0504 08       		.byte	0x8
 1046 0505 0C       		.byte	0xc
 1047 0506 AF       		.byte	0xaf
 1048 0507 05       		.byte	0x5
 1049 0508 27050000 		.4byte	0x527
 1050 050c 07       		.uleb128 0x7
 1051 050d 75703100 		.ascii	"up1\000"
 1052 0511 0C       		.byte	0xc
 1053 0512 B3       		.byte	0xb3
 1054 0513 1E       		.byte	0x1e
 1055 0514 B0040000 		.4byte	0x4b0
 1056 0518 00       		.byte	0
 1057 0519 07       		.uleb128 0x7
 1058 051a 75703200 		.ascii	"up2\000"
 1059 051e 0C       		.byte	0xc
 1060 051f B7       		.byte	0xb7
 1061 0520 1E       		.byte	0x1e
 1062 0521 B0040000 		.4byte	0x4b0
 1063 0525 04       		.byte	0x4
 1064 0526 00       		.byte	0
 1065 0527 14       		.uleb128 0x14
 1066 0528 08       		.byte	0x8
 1067 0529 0C       		.byte	0xc
 1068 052a 7F       		.byte	0x7f
 1069 052b 03       		.byte	0x3
ARM GAS  C:\Users\DEVELO~1\AppData\Local\Temp\ccJy2m5y.s 			page 20


 1070 052c 6C050000 		.4byte	0x56c
 1071 0530 10       		.uleb128 0x10
 1072 0531 737700   		.ascii	"sw\000"
 1073 0534 0C       		.byte	0xc
 1074 0535 8C       		.byte	0x8c
 1075 0536 07       		.byte	0x7
 1076 0537 87040000 		.4byte	0x487
 1077 053b 10       		.uleb128 0x10
 1078 053c 72647900 		.ascii	"rdy\000"
 1079 0540 0C       		.byte	0xc
 1080 0541 99       		.byte	0x99
 1081 0542 07       		.byte	0x7
 1082 0543 B2040000 		.4byte	0x4b2
 1083 0547 10       		.uleb128 0x10
 1084 0548 69737200 		.ascii	"isr\000"
 1085 054c 0C       		.byte	0xc
 1086 054d A2       		.byte	0xa2
 1087 054e 07       		.byte	0x7
 1088 054f D5040000 		.4byte	0x4d5
 1089 0553 0C       		.uleb128 0xc
 1090 0554 1A020000 		.4byte	.LASF81
 1091 0558 0C       		.byte	0xc
 1092 0559 AB       		.byte	0xab
 1093 055a 07       		.byte	0x7
 1094 055b EC040000 		.4byte	0x4ec
 1095 055f 0C       		.uleb128 0xc
 1096 0560 E0030000 		.4byte	.LASF82
 1097 0564 0C       		.byte	0xc
 1098 0565 B8       		.byte	0xb8
 1099 0566 07       		.byte	0x7
 1100 0567 03050000 		.4byte	0x503
 1101 056b 00       		.byte	0
 1102 056c 0B       		.uleb128 0xb
 1103 056d 10       		.byte	0x10
 1104 056e 0C       		.byte	0xc
 1105 056f 6C       		.byte	0x6c
 1106 0570 09       		.byte	0x9
 1107 0571 B2050000 		.4byte	0x5b2
 1108 0575 1A       		.uleb128 0x1a
 1109 0576 10090000 		.4byte	.LASF83
 1110 057a 70       		.byte	0x70
 1111 057b DF000000 		.4byte	0xdf
 1112 057f 03       		.byte	0x3
 1113 0580 00       		.byte	0
 1114 0581 1A       		.uleb128 0x1a
 1115 0582 97090000 		.4byte	.LASF36
 1116 0586 74       		.byte	0x74
 1117 0587 DF000000 		.4byte	0xdf
 1118 058b 05       		.byte	0x5
 1119 058c 03       		.byte	0x3
 1120 058d 1A       		.uleb128 0x1a
 1121 058e C2080000 		.4byte	.LASF84
 1122 0592 7A       		.byte	0x7a
 1123 0593 DF000000 		.4byte	0xdf
 1124 0597 18       		.byte	0x18
 1125 0598 08       		.byte	0x8
 1126 0599 01       		.uleb128 0x1
ARM GAS  C:\Users\DEVELO~1\AppData\Local\Temp\ccJy2m5y.s 			page 21


 1127 059a 19030000 		.4byte	.LASF85
 1128 059e 0C       		.byte	0xc
 1129 059f 7E       		.byte	0x7e
 1130 05a0 19       		.byte	0x19
 1131 05a1 72030000 		.4byte	0x372
 1132 05a5 04       		.byte	0x4
 1133 05a6 07       		.uleb128 0x7
 1134 05a7 7500     		.ascii	"u\000"
 1135 05a9 0C       		.byte	0xc
 1136 05aa B9       		.byte	0xb9
 1137 05ab 05       		.byte	0x5
 1138 05ac 27050000 		.4byte	0x527
 1139 05b0 08       		.byte	0x8
 1140 05b1 00       		.byte	0
 1141 05b2 03       		.uleb128 0x3
 1142 05b3 C1010000 		.4byte	.LASF86
 1143 05b7 0C       		.byte	0xc
 1144 05b8 BA       		.byte	0xba
 1145 05b9 03       		.byte	0x3
 1146 05ba 6C050000 		.4byte	0x56c
 1147 05be 25       		.uleb128 0x25
 1148 05bf 0808     		.2byte	0x808
 1149 05c1 0C       		.byte	0xc
 1150 05c2 C0       		.byte	0xc0
 1151 05c3 09       		.byte	0x9
 1152 05c4 FD050000 		.4byte	0x5fd
 1153 05c8 01       		.uleb128 0x1
 1154 05c9 80000000 		.4byte	.LASF87
 1155 05cd 0C       		.byte	0xc
 1156 05ce C4       		.byte	0xc4
 1157 05cf 19       		.byte	0x19
 1158 05d0 C7000000 		.4byte	0xc7
 1159 05d4 00       		.byte	0
 1160 05d5 01       		.uleb128 0x1
 1161 05d6 31060000 		.4byte	.LASF88
 1162 05da 0C       		.byte	0xc
 1163 05db C8       		.byte	0xc8
 1164 05dc 19       		.byte	0x19
 1165 05dd C7000000 		.4byte	0xc7
 1166 05e1 02       		.byte	0x2
 1167 05e2 07       		.uleb128 0x7
 1168 05e3 70747200 		.ascii	"ptr\000"
 1169 05e7 0C       		.byte	0xc
 1170 05e8 CC       		.byte	0xcc
 1171 05e9 1A       		.byte	0x1a
 1172 05ea FD050000 		.4byte	0x5fd
 1173 05ee 04       		.byte	0x4
 1174 05ef 01       		.uleb128 0x1
 1175 05f0 79000000 		.4byte	.LASF89
 1176 05f4 0C       		.byte	0xc
 1177 05f5 D0       		.byte	0xd0
 1178 05f6 19       		.byte	0x19
 1179 05f7 02060000 		.4byte	0x602
 1180 05fb 08       		.byte	0x8
 1181 05fc 00       		.byte	0
 1182 05fd 04       		.uleb128 0x4
 1183 05fe B2050000 		.4byte	0x5b2
ARM GAS  C:\Users\DEVELO~1\AppData\Local\Temp\ccJy2m5y.s 			page 22


 1184 0602 11       		.uleb128 0x11
 1185 0603 B2050000 		.4byte	0x5b2
 1186 0607 12060000 		.4byte	0x612
 1187 060b 12       		.uleb128 0x12
 1188 060c 39000000 		.4byte	0x39
 1189 0610 7F       		.byte	0x7f
 1190 0611 00       		.byte	0
 1191 0612 03       		.uleb128 0x3
 1192 0613 6B060000 		.4byte	.LASF90
 1193 0617 0C       		.byte	0xc
 1194 0618 D1       		.byte	0xd1
 1195 0619 03       		.byte	0x3
 1196 061a BE050000 		.4byte	0x5be
 1197 061e 11       		.uleb128 0x11
 1198 061f DF000000 		.4byte	0xdf
 1199 0623 2E060000 		.4byte	0x62e
 1200 0627 12       		.uleb128 0x12
 1201 0628 39000000 		.4byte	0x39
 1202 062c 01       		.byte	0x1
 1203 062d 00       		.byte	0
 1204 062e 0B       		.uleb128 0xb
 1205 062f CC       		.byte	0xcc
 1206 0630 0D       		.byte	0xd
 1207 0631 F3       		.byte	0xf3
 1208 0632 09       		.byte	0x9
 1209 0633 77080000 		.4byte	0x877
 1210 0637 07       		.uleb128 0x7
 1211 0638 49535200 		.ascii	"ISR\000"
 1212 063c 0D       		.byte	0xd
 1213 063d F5       		.byte	0xf5
 1214 063e 11       		.byte	0x11
 1215 063f EB000000 		.4byte	0xeb
 1216 0643 00       		.byte	0
 1217 0644 07       		.uleb128 0x7
 1218 0645 49455200 		.ascii	"IER\000"
 1219 0649 0D       		.byte	0xd
 1220 064a F6       		.byte	0xf6
 1221 064b 11       		.byte	0x11
 1222 064c EB000000 		.4byte	0xeb
 1223 0650 04       		.byte	0x4
 1224 0651 07       		.uleb128 0x7
 1225 0652 435200   		.ascii	"CR\000"
 1226 0655 0D       		.byte	0xd
 1227 0656 F7       		.byte	0xf7
 1228 0657 11       		.byte	0x11
 1229 0658 EB000000 		.4byte	0xeb
 1230 065c 08       		.byte	0x8
 1231 065d 01       		.uleb128 0x1
 1232 065e 35080000 		.4byte	.LASF91
 1233 0662 0D       		.byte	0xd
 1234 0663 F8       		.byte	0xf8
 1235 0664 11       		.byte	0x11
 1236 0665 EB000000 		.4byte	0xeb
 1237 0669 0C       		.byte	0xc
 1238 066a 01       		.uleb128 0x1
 1239 066b 3B060000 		.4byte	.LASF92
 1240 066f 0D       		.byte	0xd
ARM GAS  C:\Users\DEVELO~1\AppData\Local\Temp\ccJy2m5y.s 			page 23


 1241 0670 F9       		.byte	0xf9
 1242 0671 11       		.byte	0x11
 1243 0672 EB000000 		.4byte	0xeb
 1244 0676 10       		.byte	0x10
 1245 0677 01       		.uleb128 0x1
 1246 0678 95060000 		.4byte	.LASF93
 1247 067c 0D       		.byte	0xd
 1248 067d FA       		.byte	0xfa
 1249 067e 11       		.byte	0x11
 1250 067f EB000000 		.4byte	0xeb
 1251 0683 14       		.byte	0x14
 1252 0684 01       		.uleb128 0x1
 1253 0685 9B060000 		.4byte	.LASF94
 1254 0689 0D       		.byte	0xd
 1255 068a FB       		.byte	0xfb
 1256 068b 11       		.byte	0x11
 1257 068c EB000000 		.4byte	0xeb
 1258 0690 18       		.byte	0x18
 1259 0691 01       		.uleb128 0x1
 1260 0692 40020000 		.4byte	.LASF95
 1261 0696 0D       		.byte	0xd
 1262 0697 FC       		.byte	0xfc
 1263 0698 11       		.byte	0x11
 1264 0699 EB000000 		.4byte	0xeb
 1265 069d 1C       		.byte	0x1c
 1266 069e 01       		.uleb128 0x1
 1267 069f 55010000 		.4byte	.LASF96
 1268 06a3 0D       		.byte	0xd
 1269 06a4 FD       		.byte	0xfd
 1270 06a5 11       		.byte	0x11
 1271 06a6 EB000000 		.4byte	0xeb
 1272 06aa 20       		.byte	0x20
 1273 06ab 01       		.uleb128 0x1
 1274 06ac 61090000 		.4byte	.LASF97
 1275 06b0 0D       		.byte	0xd
 1276 06b1 FE       		.byte	0xfe
 1277 06b2 11       		.byte	0x11
 1278 06b3 EB000000 		.4byte	0xeb
 1279 06b7 24       		.byte	0x24
 1280 06b8 01       		.uleb128 0x1
 1281 06b9 48070000 		.4byte	.LASF98
 1282 06bd 0D       		.byte	0xd
 1283 06be FF       		.byte	0xff
 1284 06bf 11       		.byte	0x11
 1285 06c0 DF000000 		.4byte	0xdf
 1286 06c4 28       		.byte	0x28
 1287 06c5 02       		.uleb128 0x2
 1288 06c6 52070000 		.4byte	.LASF99
 1289 06ca 0D       		.byte	0xd
 1290 06cb 0001     		.2byte	0x100
 1291 06cd 11       		.byte	0x11
 1292 06ce DF000000 		.4byte	0xdf
 1293 06d2 2C       		.byte	0x2c
 1294 06d3 02       		.uleb128 0x2
 1295 06d4 66080000 		.4byte	.LASF100
 1296 06d8 0D       		.byte	0xd
 1297 06d9 0101     		.2byte	0x101
ARM GAS  C:\Users\DEVELO~1\AppData\Local\Temp\ccJy2m5y.s 			page 24


 1298 06db 11       		.byte	0x11
 1299 06dc EB000000 		.4byte	0xeb
 1300 06e0 30       		.byte	0x30
 1301 06e1 02       		.uleb128 0x2
 1302 06e2 6B080000 		.4byte	.LASF101
 1303 06e6 0D       		.byte	0xd
 1304 06e7 0201     		.2byte	0x102
 1305 06e9 11       		.byte	0x11
 1306 06ea EB000000 		.4byte	0xeb
 1307 06ee 34       		.byte	0x34
 1308 06ef 02       		.uleb128 0x2
 1309 06f0 70080000 		.4byte	.LASF102
 1310 06f4 0D       		.byte	0xd
 1311 06f5 0301     		.2byte	0x103
 1312 06f7 11       		.byte	0x11
 1313 06f8 EB000000 		.4byte	0xeb
 1314 06fc 38       		.byte	0x38
 1315 06fd 02       		.uleb128 0x2
 1316 06fe 09000000 		.4byte	.LASF103
 1317 0702 0D       		.byte	0xd
 1318 0703 0401     		.2byte	0x104
 1319 0705 11       		.byte	0x11
 1320 0706 EB000000 		.4byte	0xeb
 1321 070a 3C       		.byte	0x3c
 1322 070b 05       		.uleb128 0x5
 1323 070c 445200   		.ascii	"DR\000"
 1324 070f 0D       		.byte	0xd
 1325 0710 0501     		.2byte	0x105
 1326 0712 11       		.byte	0x11
 1327 0713 EB000000 		.4byte	0xeb
 1328 0717 40       		.byte	0x40
 1329 0718 02       		.uleb128 0x2
 1330 0719 5C070000 		.4byte	.LASF104
 1331 071d 0D       		.byte	0xd
 1332 071e 0601     		.2byte	0x106
 1333 0720 11       		.byte	0x11
 1334 0721 DF000000 		.4byte	0xdf
 1335 0725 44       		.byte	0x44
 1336 0726 02       		.uleb128 0x2
 1337 0727 66070000 		.4byte	.LASF105
 1338 072b 0D       		.byte	0xd
 1339 072c 0701     		.2byte	0x107
 1340 072e 11       		.byte	0x11
 1341 072f DF000000 		.4byte	0xdf
 1342 0733 48       		.byte	0x48
 1343 0734 02       		.uleb128 0x2
 1344 0735 9D090000 		.4byte	.LASF106
 1345 0739 0D       		.byte	0xd
 1346 073a 0801     		.2byte	0x108
 1347 073c 11       		.byte	0x11
 1348 073d EB000000 		.4byte	0xeb
 1349 0741 4C       		.byte	0x4c
 1350 0742 02       		.uleb128 0x2
 1351 0743 210A0000 		.4byte	.LASF107
 1352 0747 0D       		.byte	0xd
 1353 0748 0901     		.2byte	0x109
 1354 074a 11       		.byte	0x11
ARM GAS  C:\Users\DEVELO~1\AppData\Local\Temp\ccJy2m5y.s 			page 25


 1355 074b 77080000 		.4byte	0x877
 1356 074f 50       		.byte	0x50
 1357 0750 02       		.uleb128 0x2
 1358 0751 11040000 		.4byte	.LASF108
 1359 0755 0D       		.byte	0xd
 1360 0756 0A01     		.2byte	0x10a
 1361 0758 11       		.byte	0x11
 1362 0759 EB000000 		.4byte	0xeb
 1363 075d 60       		.byte	0x60
 1364 075e 02       		.uleb128 0x2
 1365 075f 36000000 		.4byte	.LASF109
 1366 0763 0D       		.byte	0xd
 1367 0764 0B01     		.2byte	0x10b
 1368 0766 11       		.byte	0x11
 1369 0767 EB000000 		.4byte	0xeb
 1370 076b 64       		.byte	0x64
 1371 076c 02       		.uleb128 0x2
 1372 076d 1C040000 		.4byte	.LASF110
 1373 0771 0D       		.byte	0xd
 1374 0772 0C01     		.2byte	0x10c
 1375 0774 11       		.byte	0x11
 1376 0775 EB000000 		.4byte	0xeb
 1377 0779 68       		.byte	0x68
 1378 077a 02       		.uleb128 0x2
 1379 077b 21040000 		.4byte	.LASF111
 1380 077f 0D       		.byte	0xd
 1381 0780 0D01     		.2byte	0x10d
 1382 0782 11       		.byte	0x11
 1383 0783 EB000000 		.4byte	0xeb
 1384 0787 6C       		.byte	0x6c
 1385 0788 02       		.uleb128 0x2
 1386 0789 36020000 		.4byte	.LASF112
 1387 078d 0D       		.byte	0xd
 1388 078e 0E01     		.2byte	0x10e
 1389 0790 11       		.byte	0x11
 1390 0791 77080000 		.4byte	0x877
 1391 0795 70       		.byte	0x70
 1392 0796 02       		.uleb128 0x2
 1393 0797 1D070000 		.4byte	.LASF113
 1394 079b 0D       		.byte	0xd
 1395 079c 0F01     		.2byte	0x10f
 1396 079e 11       		.byte	0x11
 1397 079f EB000000 		.4byte	0xeb
 1398 07a3 80       		.byte	0x80
 1399 07a4 02       		.uleb128 0x2
 1400 07a5 22070000 		.4byte	.LASF114
 1401 07a9 0D       		.byte	0xd
 1402 07aa 1001     		.2byte	0x110
 1403 07ac 11       		.byte	0x11
 1404 07ad EB000000 		.4byte	0xeb
 1405 07b1 84       		.byte	0x84
 1406 07b2 02       		.uleb128 0x2
 1407 07b3 27070000 		.4byte	.LASF115
 1408 07b7 0D       		.byte	0xd
 1409 07b8 1101     		.2byte	0x111
 1410 07ba 11       		.byte	0x11
 1411 07bb EB000000 		.4byte	0xeb
ARM GAS  C:\Users\DEVELO~1\AppData\Local\Temp\ccJy2m5y.s 			page 26


 1412 07bf 88       		.byte	0x88
 1413 07c0 02       		.uleb128 0x2
 1414 07c1 2C070000 		.4byte	.LASF116
 1415 07c5 0D       		.byte	0xd
 1416 07c6 1201     		.2byte	0x112
 1417 07c8 11       		.byte	0x11
 1418 07c9 EB000000 		.4byte	0xeb
 1419 07cd 8C       		.byte	0x8c
 1420 07ce 02       		.uleb128 0x2
 1421 07cf 77070000 		.4byte	.LASF117
 1422 07d3 0D       		.byte	0xd
 1423 07d4 1301     		.2byte	0x113
 1424 07d6 11       		.byte	0x11
 1425 07d7 77080000 		.4byte	0x877
 1426 07db 90       		.byte	0x90
 1427 07dc 02       		.uleb128 0x2
 1428 07dd BB050000 		.4byte	.LASF118
 1429 07e1 0D       		.byte	0xd
 1430 07e2 1401     		.2byte	0x114
 1431 07e4 11       		.byte	0x11
 1432 07e5 EB000000 		.4byte	0xeb
 1433 07e9 A0       		.byte	0xa0
 1434 07ea 02       		.uleb128 0x2
 1435 07eb C7050000 		.4byte	.LASF119
 1436 07ef 0D       		.byte	0xd
 1437 07f0 1501     		.2byte	0x115
 1438 07f2 11       		.byte	0x11
 1439 07f3 EB000000 		.4byte	0xeb
 1440 07f7 A4       		.byte	0xa4
 1441 07f8 02       		.uleb128 0x2
 1442 07f9 320A0000 		.4byte	.LASF120
 1443 07fd 0D       		.byte	0xd
 1444 07fe 1601     		.2byte	0x116
 1445 0800 11       		.byte	0x11
 1446 0801 DF000000 		.4byte	0xdf
 1447 0805 A8       		.byte	0xa8
 1448 0806 02       		.uleb128 0x2
 1449 0807 3C0A0000 		.4byte	.LASF121
 1450 080b 0D       		.byte	0xd
 1451 080c 1701     		.2byte	0x117
 1452 080e 11       		.byte	0x11
 1453 080f DF000000 		.4byte	0xdf
 1454 0813 AC       		.byte	0xac
 1455 0814 02       		.uleb128 0x2
 1456 0815 5A010000 		.4byte	.LASF122
 1457 0819 0D       		.byte	0xd
 1458 081a 1801     		.2byte	0x118
 1459 081c 11       		.byte	0x11
 1460 081d EB000000 		.4byte	0xeb
 1461 0821 B0       		.byte	0xb0
 1462 0822 02       		.uleb128 0x2
 1463 0823 66090000 		.4byte	.LASF123
 1464 0827 0D       		.byte	0xd
 1465 0828 1901     		.2byte	0x119
 1466 082a 11       		.byte	0x11
 1467 082b EB000000 		.4byte	0xeb
 1468 082f B4       		.byte	0xb4
ARM GAS  C:\Users\DEVELO~1\AppData\Local\Temp\ccJy2m5y.s 			page 27


 1469 0830 02       		.uleb128 0x2
 1470 0831 5F010000 		.4byte	.LASF124
 1471 0835 0D       		.byte	0xd
 1472 0836 1A01     		.2byte	0x11a
 1473 0838 11       		.byte	0x11
 1474 0839 EB000000 		.4byte	0xeb
 1475 083d B8       		.byte	0xb8
 1476 083e 02       		.uleb128 0x2
 1477 083f 6B090000 		.4byte	.LASF125
 1478 0843 0D       		.byte	0xd
 1479 0844 1B01     		.2byte	0x11b
 1480 0846 11       		.byte	0x11
 1481 0847 EB000000 		.4byte	0xeb
 1482 084b BC       		.byte	0xbc
 1483 084c 02       		.uleb128 0x2
 1484 084d 6B010000 		.4byte	.LASF126
 1485 0851 0D       		.byte	0xd
 1486 0852 1C01     		.2byte	0x11c
 1487 0854 11       		.byte	0x11
 1488 0855 EB000000 		.4byte	0xeb
 1489 0859 C0       		.byte	0xc0
 1490 085a 02       		.uleb128 0x2
 1491 085b 5E050000 		.4byte	.LASF127
 1492 085f 0D       		.byte	0xd
 1493 0860 1D01     		.2byte	0x11d
 1494 0862 11       		.byte	0x11
 1495 0863 EB000000 		.4byte	0xeb
 1496 0867 C4       		.byte	0xc4
 1497 0868 02       		.uleb128 0x2
 1498 0869 2C040000 		.4byte	.LASF128
 1499 086d 0D       		.byte	0xd
 1500 086e 1E01     		.2byte	0x11e
 1501 0870 11       		.byte	0x11
 1502 0871 EB000000 		.4byte	0xeb
 1503 0875 C8       		.byte	0xc8
 1504 0876 00       		.byte	0
 1505 0877 11       		.uleb128 0x11
 1506 0878 DF000000 		.4byte	0xdf
 1507 087c 87080000 		.4byte	0x887
 1508 0880 12       		.uleb128 0x12
 1509 0881 39000000 		.4byte	0x39
 1510 0885 03       		.byte	0x3
 1511 0886 00       		.byte	0
 1512 0887 0A       		.uleb128 0xa
 1513 0888 A1050000 		.4byte	.LASF129
 1514 088c 0D       		.byte	0xd
 1515 088d 1F01     		.2byte	0x11f
 1516 088f 03       		.byte	0x3
 1517 0890 2E060000 		.4byte	0x62e
 1518 0894 15       		.uleb128 0x15
 1519 0895 14       		.byte	0x14
 1520 0896 0D       		.byte	0xd
 1521 0897 2201     		.2byte	0x122
 1522 0899 E4080000 		.4byte	0x8e4
 1523 089d 05       		.uleb128 0x5
 1524 089e 43535200 		.ascii	"CSR\000"
 1525 08a2 0D       		.byte	0xd
ARM GAS  C:\Users\DEVELO~1\AppData\Local\Temp\ccJy2m5y.s 			page 28


 1526 08a3 2401     		.2byte	0x124
 1527 08a5 0F       		.byte	0xf
 1528 08a6 EB000000 		.4byte	0xeb
 1529 08aa 00       		.byte	0
 1530 08ab 02       		.uleb128 0x2
 1531 08ac D7030000 		.4byte	.LASF130
 1532 08b0 0D       		.byte	0xd
 1533 08b1 2501     		.2byte	0x125
 1534 08b3 0A       		.byte	0xa
 1535 08b4 DF000000 		.4byte	0xdf
 1536 08b8 04       		.byte	0x4
 1537 08b9 05       		.uleb128 0x5
 1538 08ba 43435200 		.ascii	"CCR\000"
 1539 08be 0D       		.byte	0xd
 1540 08bf 2601     		.2byte	0x126
 1541 08c1 0F       		.byte	0xf
 1542 08c2 EB000000 		.4byte	0xeb
 1543 08c6 08       		.byte	0x8
 1544 08c7 05       		.uleb128 0x5
 1545 08c8 43445200 		.ascii	"CDR\000"
 1546 08cc 0D       		.byte	0xd
 1547 08cd 2701     		.2byte	0x127
 1548 08cf 0F       		.byte	0xf
 1549 08d0 EB000000 		.4byte	0xeb
 1550 08d4 0C       		.byte	0xc
 1551 08d5 02       		.uleb128 0x2
 1552 08d6 D1060000 		.4byte	.LASF131
 1553 08da 0D       		.byte	0xd
 1554 08db 2801     		.2byte	0x128
 1555 08dd 0F       		.byte	0xf
 1556 08de EB000000 		.4byte	0xeb
 1557 08e2 10       		.byte	0x10
 1558 08e3 00       		.byte	0
 1559 08e4 0A       		.uleb128 0xa
 1560 08e5 81070000 		.4byte	.LASF132
 1561 08e9 0D       		.byte	0xd
 1562 08ea 2A01     		.2byte	0x12a
 1563 08ec 03       		.byte	0x3
 1564 08ed 94080000 		.4byte	0x894
 1565 08f1 15       		.uleb128 0x15
 1566 08f2 18       		.byte	0x18
 1567 08f3 0D       		.byte	0xd
 1568 08f4 3002     		.2byte	0x230
 1569 08f6 4E090000 		.4byte	0x94e
 1570 08fa 05       		.uleb128 0x5
 1571 08fb 435200   		.ascii	"CR\000"
 1572 08fe 0D       		.byte	0xd
 1573 08ff 3202     		.2byte	0x232
 1574 0901 11       		.byte	0x11
 1575 0902 EB000000 		.4byte	0xeb
 1576 0906 00       		.byte	0
 1577 0907 02       		.uleb128 0x2
 1578 0908 32010000 		.4byte	.LASF133
 1579 090c 0D       		.byte	0xd
 1580 090d 3302     		.2byte	0x233
 1581 090f 11       		.byte	0x11
 1582 0910 EB000000 		.4byte	0xeb
ARM GAS  C:\Users\DEVELO~1\AppData\Local\Temp\ccJy2m5y.s 			page 29


 1583 0914 04       		.byte	0x4
 1584 0915 05       		.uleb128 0x5
 1585 0916 50415200 		.ascii	"PAR\000"
 1586 091a 0D       		.byte	0xd
 1587 091b 3402     		.2byte	0x234
 1588 091d 11       		.byte	0x11
 1589 091e EB000000 		.4byte	0xeb
 1590 0922 08       		.byte	0x8
 1591 0923 02       		.uleb128 0x2
 1592 0924 46040000 		.4byte	.LASF134
 1593 0928 0D       		.byte	0xd
 1594 0929 3502     		.2byte	0x235
 1595 092b 11       		.byte	0x11
 1596 092c EB000000 		.4byte	0xeb
 1597 0930 0C       		.byte	0xc
 1598 0931 02       		.uleb128 0x2
 1599 0932 61080000 		.4byte	.LASF135
 1600 0936 0D       		.byte	0xd
 1601 0937 3602     		.2byte	0x236
 1602 0939 11       		.byte	0x11
 1603 093a EB000000 		.4byte	0xeb
 1604 093e 10       		.byte	0x10
 1605 093f 05       		.uleb128 0x5
 1606 0940 46435200 		.ascii	"FCR\000"
 1607 0944 0D       		.byte	0xd
 1608 0945 3702     		.2byte	0x237
 1609 0947 11       		.byte	0x11
 1610 0948 EB000000 		.4byte	0xeb
 1611 094c 14       		.byte	0x14
 1612 094d 00       		.byte	0
 1613 094e 0A       		.uleb128 0xa
 1614 094f 1E060000 		.4byte	.LASF136
 1615 0953 0D       		.byte	0xd
 1616 0954 3802     		.2byte	0x238
 1617 0956 03       		.byte	0x3
 1618 0957 F1080000 		.4byte	0x8f1
 1619 095b 15       		.uleb128 0x15
 1620 095c 04       		.byte	0x4
 1621 095d 0D       		.byte	0xd
 1622 095e 5102     		.2byte	0x251
 1623 0960 73090000 		.4byte	0x973
 1624 0964 05       		.uleb128 0x5
 1625 0965 43435200 		.ascii	"CCR\000"
 1626 0969 0D       		.byte	0xd
 1627 096a 5302     		.2byte	0x253
 1628 096c 12       		.byte	0x12
 1629 096d EB000000 		.4byte	0xeb
 1630 0971 00       		.byte	0
 1631 0972 00       		.byte	0
 1632 0973 0A       		.uleb128 0xa
 1633 0974 31070000 		.4byte	.LASF137
 1634 0978 0D       		.byte	0xd
 1635 0979 5402     		.2byte	0x254
 1636 097b 02       		.byte	0x2
 1637 097c 5B090000 		.4byte	0x95b
 1638 0980 16       		.uleb128 0x16
 1639 0981 AD070000 		.4byte	.LASF138
ARM GAS  C:\Users\DEVELO~1\AppData\Local\Temp\ccJy2m5y.s 			page 30


 1640 0985 24       		.byte	0x24
 1641 0986 0E       		.byte	0xe
 1642 0987 E001     		.2byte	0x1e0
 1643 0989 08       		.byte	0x8
 1644 098a 060A0000 		.4byte	0xa06
 1645 098e 05       		.uleb128 0x5
 1646 098f 723400   		.ascii	"r4\000"
 1647 0992 0E       		.byte	0xe
 1648 0993 F901     		.2byte	0x1f9
 1649 0995 11       		.byte	0x11
 1650 0996 DF000000 		.4byte	0xdf
 1651 099a 00       		.byte	0
 1652 099b 05       		.uleb128 0x5
 1653 099c 723500   		.ascii	"r5\000"
 1654 099f 0E       		.byte	0xe
 1655 09a0 FA01     		.2byte	0x1fa
 1656 09a2 11       		.byte	0x11
 1657 09a3 DF000000 		.4byte	0xdf
 1658 09a7 04       		.byte	0x4
 1659 09a8 05       		.uleb128 0x5
 1660 09a9 723600   		.ascii	"r6\000"
 1661 09ac 0E       		.byte	0xe
 1662 09ad FB01     		.2byte	0x1fb
 1663 09af 11       		.byte	0x11
 1664 09b0 DF000000 		.4byte	0xdf
 1665 09b4 08       		.byte	0x8
 1666 09b5 05       		.uleb128 0x5
 1667 09b6 723700   		.ascii	"r7\000"
 1668 09b9 0E       		.byte	0xe
 1669 09ba FC01     		.2byte	0x1fc
 1670 09bc 11       		.byte	0x11
 1671 09bd DF000000 		.4byte	0xdf
 1672 09c1 0C       		.byte	0xc
 1673 09c2 05       		.uleb128 0x5
 1674 09c3 723800   		.ascii	"r8\000"
 1675 09c6 0E       		.byte	0xe
 1676 09c7 FD01     		.2byte	0x1fd
 1677 09c9 11       		.byte	0x11
 1678 09ca DF000000 		.4byte	0xdf
 1679 09ce 10       		.byte	0x10
 1680 09cf 05       		.uleb128 0x5
 1681 09d0 723900   		.ascii	"r9\000"
 1682 09d3 0E       		.byte	0xe
 1683 09d4 FE01     		.2byte	0x1fe
 1684 09d6 11       		.byte	0x11
 1685 09d7 DF000000 		.4byte	0xdf
 1686 09db 14       		.byte	0x14
 1687 09dc 05       		.uleb128 0x5
 1688 09dd 72313000 		.ascii	"r10\000"
 1689 09e1 0E       		.byte	0xe
 1690 09e2 FF01     		.2byte	0x1ff
 1691 09e4 11       		.byte	0x11
 1692 09e5 DF000000 		.4byte	0xdf
 1693 09e9 18       		.byte	0x18
 1694 09ea 05       		.uleb128 0x5
 1695 09eb 72313100 		.ascii	"r11\000"
 1696 09ef 0E       		.byte	0xe
ARM GAS  C:\Users\DEVELO~1\AppData\Local\Temp\ccJy2m5y.s 			page 31


 1697 09f0 0002     		.2byte	0x200
 1698 09f2 11       		.byte	0x11
 1699 09f3 DF000000 		.4byte	0xdf
 1700 09f7 1C       		.byte	0x1c
 1701 09f8 05       		.uleb128 0x5
 1702 09f9 6C7200   		.ascii	"lr\000"
 1703 09fc 0E       		.byte	0xe
 1704 09fd 0102     		.2byte	0x201
 1705 09ff 11       		.byte	0x11
 1706 0a00 DF000000 		.4byte	0xdf
 1707 0a04 20       		.byte	0x20
 1708 0a05 00       		.byte	0
 1709 0a06 16       		.uleb128 0x16
 1710 0a07 0D010000 		.4byte	.LASF139
 1711 0a0b 04       		.byte	0x4
 1712 0a0c 0E       		.byte	0xe
 1713 0a0d 0A02     		.2byte	0x20a
 1714 0a0f 08       		.byte	0x8
 1715 0a10 220A0000 		.4byte	0xa22
 1716 0a14 05       		.uleb128 0x5
 1717 0a15 737000   		.ascii	"sp\000"
 1718 0a18 0E       		.byte	0xe
 1719 0a19 0B02     		.2byte	0x20b
 1720 0a1b 1A       		.byte	0x1a
 1721 0a1c 220A0000 		.4byte	0xa22
 1722 0a20 00       		.byte	0
 1723 0a21 00       		.byte	0
 1724 0a22 04       		.uleb128 0x4
 1725 0a23 80090000 		.4byte	0x980
 1726 0a27 08       		.uleb128 0x8
 1727 0a28 53030000 		.4byte	.LASF140
 1728 0a2c 18       		.byte	0x18
 1729 0a2d 07       		.byte	0x7
 1730 0a2e 64       		.byte	0x64
 1731 0a2f 10       		.byte	0x10
 1732 0a30 5C0A0000 		.4byte	0xa5c
 1733 0a34 01       		.uleb128 0x1
 1734 0a35 15080000 		.4byte	.LASF141
 1735 0a39 07       		.byte	0x7
 1736 0a3a 68       		.byte	0x68
 1737 0a3b 21       		.byte	0x21
 1738 0a3c 41040000 		.4byte	0x441
 1739 0a40 00       		.byte	0
 1740 0a41 01       		.uleb128 0x1
 1741 0a42 1B080000 		.4byte	.LASF142
 1742 0a46 07       		.byte	0x7
 1743 0a47 73       		.byte	0x73
 1744 0a48 21       		.byte	0x21
 1745 0a49 72030000 		.4byte	0x372
 1746 0a4d 0C       		.byte	0xc
 1747 0a4e 01       		.uleb128 0x1
 1748 0a4f 37010000 		.4byte	.LASF143
 1749 0a53 07       		.byte	0x7
 1750 0a54 79       		.byte	0x79
 1751 0a55 21       		.byte	0x21
 1752 0a56 FC000000 		.4byte	0xfc
 1753 0a5a 10       		.byte	0x10
ARM GAS  C:\Users\DEVELO~1\AppData\Local\Temp\ccJy2m5y.s 			page 32


 1754 0a5b 00       		.byte	0
 1755 0a5c 03       		.uleb128 0x3
 1756 0a5d F5060000 		.4byte	.LASF144
 1757 0a61 07       		.byte	0x7
 1758 0a62 7B       		.byte	0x7b
 1759 0a63 03       		.byte	0x3
 1760 0a64 270A0000 		.4byte	0xa27
 1761 0a68 08       		.uleb128 0x8
 1762 0a69 4C000000 		.4byte	.LASF145
 1763 0a6d 08       		.byte	0x8
 1764 0a6e 07       		.byte	0x7
 1765 0a6f 80       		.byte	0x80
 1766 0a70 10       		.byte	0x10
 1767 0a71 830A0000 		.4byte	0xa83
 1768 0a75 01       		.uleb128 0x1
 1769 0a76 CA080000 		.4byte	.LASF146
 1770 0a7a 07       		.byte	0x7
 1771 0a7b 84       		.byte	0x84
 1772 0a7c 21       		.byte	0x21
 1773 0a7d C2030000 		.4byte	0x3c2
 1774 0a81 00       		.byte	0
 1775 0a82 00       		.byte	0
 1776 0a83 03       		.uleb128 0x3
 1777 0a84 FD050000 		.4byte	.LASF147
 1778 0a88 07       		.byte	0x7
 1779 0a89 85       		.byte	0x85
 1780 0a8a 03       		.byte	0x3
 1781 0a8b 680A0000 		.4byte	0xa68
 1782 0a8f 03       		.uleb128 0x3
 1783 0a90 1E000000 		.4byte	.LASF148
 1784 0a94 07       		.byte	0x7
 1785 0a95 8A       		.byte	0x8a
 1786 0a96 14       		.byte	0x14
 1787 0a97 AB040000 		.4byte	0x4ab
 1788 0a9b 14       		.uleb128 0x14
 1789 0a9c 0C       		.byte	0xc
 1790 0a9d 07       		.byte	0x7
 1791 0a9e A0       		.byte	0xa0
 1792 0a9f 03       		.byte	0x3
 1793 0aa0 C90A0000 		.4byte	0xac9
 1794 0aa4 0C       		.uleb128 0xc
 1795 0aa5 82010000 		.4byte	.LASF149
 1796 0aa9 07       		.byte	0x7
 1797 0aaa A4       		.byte	0xa4
 1798 0aab 21       		.byte	0x21
 1799 0aac 96030000 		.4byte	0x396
 1800 0ab0 0C       		.uleb128 0xc
 1801 0ab1 CA080000 		.4byte	.LASF146
 1802 0ab5 07       		.byte	0x7
 1803 0ab6 A8       		.byte	0xa8
 1804 0ab7 21       		.byte	0x21
 1805 0ab8 C2030000 		.4byte	0x3c2
 1806 0abc 0C       		.uleb128 0xc
 1807 0abd 5A020000 		.4byte	.LASF150
 1808 0ac1 07       		.byte	0x7
 1809 0ac2 AC       		.byte	0xac
 1810 0ac3 21       		.byte	0x21
ARM GAS  C:\Users\DEVELO~1\AppData\Local\Temp\ccJy2m5y.s 			page 33


 1811 0ac4 FB030000 		.4byte	0x3fb
 1812 0ac8 00       		.byte	0
 1813 0ac9 14       		.uleb128 0x14
 1814 0aca 04       		.byte	0x4
 1815 0acb 07       		.byte	0x7
 1816 0acc EB       		.byte	0xeb
 1817 0acd 03       		.byte	0x3
 1818 0ace 330B0000 		.4byte	0xb33
 1819 0ad2 0C       		.uleb128 0xc
 1820 0ad3 EC030000 		.4byte	.LASF151
 1821 0ad7 07       		.byte	0x7
 1822 0ad8 F2       		.byte	0xf2
 1823 0ad9 21       		.byte	0x21
 1824 0ada 49010000 		.4byte	0x149
 1825 0ade 0C       		.uleb128 0xc
 1826 0adf 710A0000 		.4byte	.LASF152
 1827 0ae3 07       		.byte	0x7
 1828 0ae4 F9       		.byte	0xf9
 1829 0ae5 21       		.byte	0x21
 1830 0ae6 49010000 		.4byte	0x149
 1831 0aea 0D       		.uleb128 0xd
 1832 0aeb 64010000 		.4byte	.LASF79
 1833 0aef 0001     		.2byte	0x100
 1834 0af1 22       		.byte	0x22
 1835 0af2 B0040000 		.4byte	0x4b0
 1836 0af6 0D       		.uleb128 0xd
 1837 0af7 620A0000 		.4byte	.LASF153
 1838 0afb 0701     		.2byte	0x107
 1839 0afd 22       		.byte	0x22
 1840 0afe 330B0000 		.4byte	0xb33
 1841 0b02 0D       		.uleb128 0xd
 1842 0b03 A8010000 		.4byte	.LASF154
 1843 0b07 0C01     		.2byte	0x10c
 1844 0b09 21       		.byte	0x21
 1845 0b0a 49010000 		.4byte	0x149
 1846 0b0e 0D       		.uleb128 0xd
 1847 0b0f E6080000 		.4byte	.LASF155
 1848 0b13 1501     		.2byte	0x115
 1849 0b15 22       		.byte	0x22
 1850 0b16 600B0000 		.4byte	0xb60
 1851 0b1a 0D       		.uleb128 0xd
 1852 0b1b 0E000000 		.4byte	.LASF156
 1853 0b1f 1E01     		.2byte	0x11e
 1854 0b21 22       		.byte	0x22
 1855 0b22 9A0B0000 		.4byte	0xb9a
 1856 0b26 0D       		.uleb128 0xd
 1857 0b27 41010000 		.4byte	.LASF157
 1858 0b2b 2601     		.2byte	0x126
 1859 0b2d 21       		.byte	0x21
 1860 0b2e 55010000 		.4byte	0x155
 1861 0b32 00       		.byte	0
 1862 0b33 04       		.uleb128 0x4
 1863 0b34 8F0A0000 		.4byte	0xa8f
 1864 0b38 08       		.uleb128 0x8
 1865 0b39 E0010000 		.4byte	.LASF158
 1866 0b3d 0C       		.byte	0xc
 1867 0b3e 0F       		.byte	0xf
ARM GAS  C:\Users\DEVELO~1\AppData\Local\Temp\ccJy2m5y.s 			page 34


 1868 0b3f 34       		.byte	0x34
 1869 0b40 10       		.byte	0x10
 1870 0b41 600B0000 		.4byte	0xb60
 1871 0b45 01       		.uleb128 0x1
 1872 0b46 CA080000 		.4byte	.LASF146
 1873 0b4a 0F       		.byte	0xf
 1874 0b4b 35       		.byte	0x35
 1875 0b4c 19       		.byte	0x19
 1876 0b4d C2030000 		.4byte	0x3c2
 1877 0b51 00       		.byte	0
 1878 0b52 07       		.uleb128 0x7
 1879 0b53 636E7400 		.ascii	"cnt\000"
 1880 0b57 0F       		.byte	0xf
 1881 0b58 37       		.byte	0x37
 1882 0b59 19       		.byte	0x19
 1883 0b5a 61010000 		.4byte	0x161
 1884 0b5e 08       		.byte	0x8
 1885 0b5f 00       		.byte	0
 1886 0b60 04       		.uleb128 0x4
 1887 0b61 380B0000 		.4byte	0xb38
 1888 0b65 08       		.uleb128 0x8
 1889 0b66 3D040000 		.4byte	.LASF159
 1890 0b6a 10       		.byte	0x10
 1891 0b6b 10       		.byte	0x10
 1892 0b6c 39       		.byte	0x39
 1893 0b6d 08       		.byte	0x8
 1894 0b6e 9A0B0000 		.4byte	0xb9a
 1895 0b72 01       		.uleb128 0x1
 1896 0b73 CA080000 		.4byte	.LASF146
 1897 0b77 10       		.byte	0x10
 1898 0b78 3A       		.byte	0x3a
 1899 0b79 19       		.byte	0x19
 1900 0b7a C2030000 		.4byte	0x3c2
 1901 0b7e 00       		.byte	0
 1902 0b7f 01       		.uleb128 0x1
 1903 0b80 30030000 		.4byte	.LASF33
 1904 0b84 10       		.byte	0x10
 1905 0b85 3C       		.byte	0x3c
 1906 0b86 1A       		.byte	0x1a
 1907 0b87 AB040000 		.4byte	0x4ab
 1908 0b8b 08       		.byte	0x8
 1909 0b8c 01       		.uleb128 0x1
 1910 0b8d A0000000 		.4byte	.LASF69
 1911 0b91 10       		.byte	0x10
 1912 0b92 3E       		.byte	0x3e
 1913 0b93 1A       		.byte	0x1a
 1914 0b94 590C0000 		.4byte	0xc59
 1915 0b98 0C       		.byte	0xc
 1916 0b99 00       		.byte	0
 1917 0b9a 04       		.uleb128 0x4
 1918 0b9b 650B0000 		.4byte	0xb65
 1919 0b9f 04       		.uleb128 0x4
 1920 0ba0 68020000 		.4byte	0x268
 1921 0ba4 04       		.uleb128 0x4
 1922 0ba5 0D010000 		.4byte	0x10d
 1923 0ba9 16       		.uleb128 0x16
 1924 0baa 24010000 		.4byte	.LASF160
ARM GAS  C:\Users\DEVELO~1\AppData\Local\Temp\ccJy2m5y.s 			page 35


 1925 0bae 10       		.byte	0x10
 1926 0baf 07       		.byte	0x7
 1927 0bb0 5C01     		.2byte	0x15c
 1928 0bb2 10       		.byte	0x10
 1929 0bb3 D40B0000 		.4byte	0xbd4
 1930 0bb7 02       		.uleb128 0x2
 1931 0bb8 5A020000 		.4byte	.LASF150
 1932 0bbc 07       		.byte	0x7
 1933 0bbd 6101     		.2byte	0x161
 1934 0bbf 21       		.byte	0x21
 1935 0bc0 FB030000 		.4byte	0x3fb
 1936 0bc4 00       		.byte	0
 1937 0bc5 02       		.uleb128 0x2
 1938 0bc6 140A0000 		.4byte	.LASF161
 1939 0bca 07       		.byte	0x7
 1940 0bcb 6501     		.2byte	0x165
 1941 0bcd 22       		.byte	0x22
 1942 0bce AB040000 		.4byte	0x4ab
 1943 0bd2 0C       		.byte	0xc
 1944 0bd3 00       		.byte	0
 1945 0bd4 0A       		.uleb128 0xa
 1946 0bd5 9E080000 		.4byte	.LASF162
 1947 0bd9 07       		.byte	0x7
 1948 0bda 6601     		.2byte	0x166
 1949 0bdc 03       		.byte	0x3
 1950 0bdd A90B0000 		.4byte	0xba9
 1951 0be1 16       		.uleb128 0x16
 1952 0be2 FF070000 		.4byte	.LASF163
 1953 0be6 14       		.byte	0x14
 1954 0be7 07       		.byte	0x7
 1955 0be8 6B01     		.2byte	0x16b
 1956 0bea 10       		.byte	0x10
 1957 0beb 360C0000 		.4byte	0xc36
 1958 0bef 02       		.uleb128 0x2
 1959 0bf0 55080000 		.4byte	.LASF34
 1960 0bf4 07       		.byte	0x7
 1961 0bf5 6F01     		.2byte	0x16f
 1962 0bf7 22       		.byte	0x22
 1963 0bf8 50030000 		.4byte	0x350
 1964 0bfc 00       		.byte	0
 1965 0bfd 02       		.uleb128 0x2
 1966 0bfe 1D050000 		.4byte	.LASF164
 1967 0c02 07       		.byte	0x7
 1968 0c03 7501     		.2byte	0x175
 1969 0c05 22       		.byte	0x22
 1970 0c06 A40B0000 		.4byte	0xba4
 1971 0c0a 04       		.byte	0x4
 1972 0c0b 02       		.uleb128 0x2
 1973 0c0c 36030000 		.4byte	.LASF165
 1974 0c10 07       		.byte	0x7
 1975 0c11 7901     		.2byte	0x179
 1976 0c13 22       		.byte	0x22
 1977 0c14 A40B0000 		.4byte	0xba4
 1978 0c18 08       		.byte	0x8
 1979 0c19 02       		.uleb128 0x2
 1980 0c1a C1090000 		.4byte	.LASF166
 1981 0c1e 07       		.byte	0x7
ARM GAS  C:\Users\DEVELO~1\AppData\Local\Temp\ccJy2m5y.s 			page 36


 1982 0c1f 7F01     		.2byte	0x17f
 1983 0c21 22       		.byte	0x22
 1984 0c22 A40B0000 		.4byte	0xba4
 1985 0c26 0C       		.byte	0xc
 1986 0c27 02       		.uleb128 0x2
 1987 0c28 99040000 		.4byte	.LASF167
 1988 0c2c 07       		.byte	0x7
 1989 0c2d 8301     		.2byte	0x183
 1990 0c2f 22       		.byte	0x22
 1991 0c30 A40B0000 		.4byte	0xba4
 1992 0c34 10       		.byte	0x10
 1993 0c35 00       		.byte	0
 1994 0c36 0A       		.uleb128 0xa
 1995 0c37 FE010000 		.4byte	.LASF168
 1996 0c3b 07       		.byte	0x7
 1997 0c3c 8501     		.2byte	0x185
 1998 0c3e 03       		.byte	0x3
 1999 0c3f E10B0000 		.4byte	0xbe1
 2000 0c43 0F       		.uleb128 0xf
 2001 0c44 360C0000 		.4byte	0xc36
 2002 0c48 04       		.uleb128 0x4
 2003 0c49 430C0000 		.4byte	0xc43
 2004 0c4d 03       		.uleb128 0x3
 2005 0c4e 08090000 		.4byte	.LASF169
 2006 0c52 10       		.byte	0x10
 2007 0c53 34       		.byte	0x34
 2008 0c54 19       		.byte	0x19
 2009 0c55 650B0000 		.4byte	0xb65
 2010 0c59 04       		.uleb128 0x4
 2011 0c5a 4D0C0000 		.4byte	0xc4d
 2012 0c5e 09       		.uleb128 0x9
 2013 0c5f 01       		.byte	0x1
 2014 0c60 02       		.byte	0x2
 2015 0c61 16040000 		.4byte	.LASF170
 2016 0c65 15       		.uleb128 0x15
 2017 0c66 10       		.byte	0x10
 2018 0c67 11       		.byte	0x11
 2019 0c68 A701     		.2byte	0x1a7
 2020 0c6a C30C0000 		.4byte	0xcc3
 2021 0c6e 02       		.uleb128 0x2
 2022 0c6f 70050000 		.4byte	.LASF171
 2023 0c73 11       		.byte	0x11
 2024 0c74 A801     		.2byte	0x1a8
 2025 0c76 1A       		.byte	0x1a
 2026 0c77 C30C0000 		.4byte	0xcc3
 2027 0c7b 00       		.byte	0
 2028 0c7c 02       		.uleb128 0x2
 2029 0c7d BC010000 		.4byte	.LASF172
 2030 0c81 11       		.byte	0x11
 2031 0c82 A901     		.2byte	0x1a9
 2032 0c84 1A       		.byte	0x1a
 2033 0c85 C80C0000 		.4byte	0xcc8
 2034 0c89 04       		.byte	0x4
 2035 0c8a 05       		.uleb128 0x5
 2036 0c8b 6D757800 		.ascii	"mux\000"
 2037 0c8f 11       		.byte	0x11
 2038 0c90 AB01     		.2byte	0x1ab
ARM GAS  C:\Users\DEVELO~1\AppData\Local\Temp\ccJy2m5y.s 			page 37


 2039 0c92 1B       		.byte	0x1b
 2040 0c93 CD0C0000 		.4byte	0xccd
 2041 0c97 08       		.byte	0x8
 2042 0c98 02       		.uleb128 0x2
 2043 0c99 DA010000 		.4byte	.LASF173
 2044 0c9d 11       		.byte	0x11
 2045 0c9e AF01     		.2byte	0x1af
 2046 0ca0 19       		.byte	0x19
 2047 0ca1 BB000000 		.4byte	0xbb
 2048 0ca5 0C       		.byte	0xc
 2049 0ca6 02       		.uleb128 0x2
 2050 0ca7 7A0A0000 		.4byte	.LASF174
 2051 0cab 11       		.byte	0x11
 2052 0cac B101     		.2byte	0x1b1
 2053 0cae 19       		.byte	0x19
 2054 0caf BB000000 		.4byte	0xbb
 2055 0cb3 0D       		.byte	0xd
 2056 0cb4 02       		.uleb128 0x2
 2057 0cb5 53020000 		.4byte	.LASF175
 2058 0cb9 11       		.byte	0x11
 2059 0cba B201     		.2byte	0x1b2
 2060 0cbc 19       		.byte	0x19
 2061 0cbd BB000000 		.4byte	0xbb
 2062 0cc1 0E       		.byte	0xe
 2063 0cc2 00       		.byte	0
 2064 0cc3 04       		.uleb128 0x4
 2065 0cc4 4E090000 		.4byte	0x94e
 2066 0cc8 04       		.uleb128 0x4
 2067 0cc9 EB000000 		.4byte	0xeb
 2068 0ccd 04       		.uleb128 0x4
 2069 0cce 73090000 		.4byte	0x973
 2070 0cd2 0A       		.uleb128 0xa
 2071 0cd3 38050000 		.4byte	.LASF176
 2072 0cd7 11       		.byte	0x11
 2073 0cd8 B301     		.2byte	0x1b3
 2074 0cda 03       		.byte	0x3
 2075 0cdb 650C0000 		.4byte	0xc65
 2076 0cdf 0F       		.uleb128 0xf
 2077 0ce0 D20C0000 		.4byte	0xcd2
 2078 0ce4 0B       		.uleb128 0xb
 2079 0ce5 04       		.byte	0x4
 2080 0ce6 12       		.byte	0x12
 2081 0ce7 5B       		.byte	0x5b
 2082 0ce8 05       		.byte	0x5
 2083 0ce9 080D0000 		.4byte	0xd08
 2084 0ced 07       		.uleb128 0x7
 2085 0cee 73657400 		.ascii	"set\000"
 2086 0cf2 12       		.byte	0x12
 2087 0cf3 5C       		.byte	0x5c
 2088 0cf4 19       		.byte	0x19
 2089 0cf5 C7000000 		.4byte	0xc7
 2090 0cf9 00       		.byte	0
 2091 0cfa 01       		.uleb128 0x1
 2092 0cfb 45030000 		.4byte	.LASF177
 2093 0cff 12       		.byte	0x12
 2094 0d00 5D       		.byte	0x5d
 2095 0d01 19       		.byte	0x19
ARM GAS  C:\Users\DEVELO~1\AppData\Local\Temp\ccJy2m5y.s 			page 38


 2096 0d02 C7000000 		.4byte	0xc7
 2097 0d06 02       		.byte	0x2
 2098 0d07 00       		.byte	0
 2099 0d08 14       		.uleb128 0x14
 2100 0d09 04       		.byte	0x4
 2101 0d0a 12       		.byte	0x12
 2102 0d0b 59       		.byte	0x59
 2103 0d0c 0C       		.byte	0xc
 2104 0d0d 260D0000 		.4byte	0xd26
 2105 0d11 10       		.uleb128 0x10
 2106 0d12 5700     		.ascii	"W\000"
 2107 0d14 12       		.byte	0x12
 2108 0d15 5A       		.byte	0x5a
 2109 0d16 19       		.byte	0x19
 2110 0d17 DF000000 		.4byte	0xdf
 2111 0d1b 10       		.uleb128 0x10
 2112 0d1c 4800     		.ascii	"H\000"
 2113 0d1e 12       		.byte	0x12
 2114 0d1f 5E       		.byte	0x5e
 2115 0d20 07       		.byte	0x7
 2116 0d21 E40C0000 		.4byte	0xce4
 2117 0d25 00       		.byte	0
 2118 0d26 13       		.uleb128 0x13
 2119 0d27 080D0000 		.4byte	0xd08
 2120 0d2b 0B       		.uleb128 0xb
 2121 0d2c 28       		.byte	0x28
 2122 0d2d 12       		.byte	0x12
 2123 0d2e 51       		.byte	0x51
 2124 0d2f 09       		.byte	0x9
 2125 0d30 B70D0000 		.4byte	0xdb7
 2126 0d34 01       		.uleb128 0x1
 2127 0d35 88020000 		.4byte	.LASF178
 2128 0d39 12       		.byte	0x12
 2129 0d3a 53       		.byte	0x53
 2130 0d3b 19       		.byte	0x19
 2131 0d3c EB000000 		.4byte	0xeb
 2132 0d40 00       		.byte	0
 2133 0d41 01       		.uleb128 0x1
 2134 0d42 F8070000 		.4byte	.LASF179
 2135 0d46 12       		.byte	0x12
 2136 0d47 54       		.byte	0x54
 2137 0d48 19       		.byte	0x19
 2138 0d49 EB000000 		.4byte	0xeb
 2139 0d4d 04       		.byte	0x4
 2140 0d4e 01       		.uleb128 0x1
 2141 0d4f BD060000 		.4byte	.LASF180
 2142 0d53 12       		.byte	0x12
 2143 0d54 55       		.byte	0x55
 2144 0d55 19       		.byte	0x19
 2145 0d56 EB000000 		.4byte	0xeb
 2146 0d5a 08       		.byte	0x8
 2147 0d5b 01       		.uleb128 0x1
 2148 0d5c 26040000 		.4byte	.LASF181
 2149 0d60 12       		.byte	0x12
 2150 0d61 56       		.byte	0x56
 2151 0d62 19       		.byte	0x19
 2152 0d63 EB000000 		.4byte	0xeb
ARM GAS  C:\Users\DEVELO~1\AppData\Local\Temp\ccJy2m5y.s 			page 39


 2153 0d67 0C       		.byte	0xc
 2154 0d68 07       		.uleb128 0x7
 2155 0d69 49445200 		.ascii	"IDR\000"
 2156 0d6d 12       		.byte	0x12
 2157 0d6e 57       		.byte	0x57
 2158 0d6f 19       		.byte	0x19
 2159 0d70 EB000000 		.4byte	0xeb
 2160 0d74 10       		.byte	0x10
 2161 0d75 07       		.uleb128 0x7
 2162 0d76 4F445200 		.ascii	"ODR\000"
 2163 0d7a 12       		.byte	0x12
 2164 0d7b 58       		.byte	0x58
 2165 0d7c 19       		.byte	0x19
 2166 0d7d EB000000 		.4byte	0xeb
 2167 0d81 14       		.byte	0x14
 2168 0d82 01       		.uleb128 0x1
 2169 0d83 31000000 		.4byte	.LASF182
 2170 0d87 12       		.byte	0x12
 2171 0d88 5F       		.byte	0x5f
 2172 0d89 05       		.byte	0x5
 2173 0d8a 260D0000 		.4byte	0xd26
 2174 0d8e 18       		.byte	0x18
 2175 0d8f 01       		.uleb128 0x1
 2176 0d90 CB060000 		.4byte	.LASF183
 2177 0d94 12       		.byte	0x12
 2178 0d95 60       		.byte	0x60
 2179 0d96 19       		.byte	0x19
 2180 0d97 EB000000 		.4byte	0xeb
 2181 0d9b 1C       		.byte	0x1c
 2182 0d9c 01       		.uleb128 0x1
 2183 0d9d 23090000 		.4byte	.LASF184
 2184 0da1 12       		.byte	0x12
 2185 0da2 61       		.byte	0x61
 2186 0da3 19       		.byte	0x19
 2187 0da4 EB000000 		.4byte	0xeb
 2188 0da8 20       		.byte	0x20
 2189 0da9 01       		.uleb128 0x1
 2190 0daa 1E030000 		.4byte	.LASF185
 2191 0dae 12       		.byte	0x12
 2192 0daf 62       		.byte	0x62
 2193 0db0 19       		.byte	0x19
 2194 0db1 EB000000 		.4byte	0xeb
 2195 0db5 24       		.byte	0x24
 2196 0db6 00       		.byte	0
 2197 0db7 03       		.uleb128 0x3
 2198 0db8 23030000 		.4byte	.LASF186
 2199 0dbc 12       		.byte	0x12
 2200 0dbd 63       		.byte	0x63
 2201 0dbe 03       		.byte	0x3
 2202 0dbf 2B0D0000 		.4byte	0xd2b
 2203 0dc3 03       		.uleb128 0x3
 2204 0dc4 08060000 		.4byte	.LASF187
 2205 0dc8 13       		.byte	0x13
 2206 0dc9 C2       		.byte	0xc2
 2207 0dca 12       		.byte	0x12
 2208 0dcb DF000000 		.4byte	0xdf
 2209 0dcf 03       		.uleb128 0x3
ARM GAS  C:\Users\DEVELO~1\AppData\Local\Temp\ccJy2m5y.s 			page 40


 2210 0dd0 B8090000 		.4byte	.LASF188
 2211 0dd4 13       		.byte	0x13
 2212 0dd5 C7       		.byte	0xc7
 2213 0dd6 12       		.byte	0x12
 2214 0dd7 DF000000 		.4byte	0xdf
 2215 0ddb 03       		.uleb128 0x3
 2216 0ddc FD000000 		.4byte	.LASF189
 2217 0de0 13       		.byte	0x13
 2218 0de1 CC       		.byte	0xcc
 2219 0de2 12       		.byte	0x12
 2220 0de3 DF000000 		.4byte	0xdf
 2221 0de7 03       		.uleb128 0x3
 2222 0de8 62040000 		.4byte	.LASF190
 2223 0dec 13       		.byte	0x13
 2224 0ded D9       		.byte	0xd9
 2225 0dee 18       		.byte	0x18
 2226 0def F30D0000 		.4byte	0xdf3
 2227 0df3 04       		.uleb128 0x4
 2228 0df4 B70D0000 		.4byte	0xdb7
 2229 0df8 26       		.uleb128 0x26
 2230 0df9 07       		.byte	0x7
 2231 0dfa 01       		.byte	0x1
 2232 0dfb 61000000 		.4byte	0x61
 2233 0dff 14       		.byte	0x14
 2234 0e00 46       		.byte	0x46
 2235 0e01 0E       		.byte	0xe
 2236 0e02 2B0E0000 		.4byte	0xe2b
 2237 0e06 0E       		.uleb128 0xe
 2238 0e07 4A080000 		.4byte	.LASF191
 2239 0e0b 00       		.byte	0
 2240 0e0c 0E       		.uleb128 0xe
 2241 0e0d 680A0000 		.4byte	.LASF192
 2242 0e11 01       		.byte	0x1
 2243 0e12 0E       		.uleb128 0xe
 2244 0e13 94080000 		.4byte	.LASF193
 2245 0e17 02       		.byte	0x2
 2246 0e18 0E       		.uleb128 0xe
 2247 0e19 0B070000 		.4byte	.LASF194
 2248 0e1d 03       		.byte	0x3
 2249 0e1e 0E       		.uleb128 0xe
 2250 0e1f 73040000 		.4byte	.LASF195
 2251 0e23 04       		.byte	0x4
 2252 0e24 0E       		.uleb128 0xe
 2253 0e25 80040000 		.4byte	.LASF196
 2254 0e29 05       		.byte	0x5
 2255 0e2a 00       		.byte	0
 2256 0e2b 03       		.uleb128 0x3
 2257 0e2c 2D050000 		.4byte	.LASF197
 2258 0e30 14       		.byte	0x14
 2259 0e31 4D       		.byte	0x4d
 2260 0e32 03       		.byte	0x3
 2261 0e33 F80D0000 		.4byte	0xdf8
 2262 0e37 03       		.uleb128 0x3
 2263 0e38 F3030000 		.4byte	.LASF198
 2264 0e3c 14       		.byte	0x14
 2265 0e3d 52       		.byte	0x52
 2266 0e3e 1F       		.byte	0x1f
ARM GAS  C:\Users\DEVELO~1\AppData\Local\Temp\ccJy2m5y.s 			page 41


 2267 0e3f 430E0000 		.4byte	0xe43
 2268 0e43 08       		.uleb128 0x8
 2269 0e44 8A040000 		.4byte	.LASF199
 2270 0e48 38       		.byte	0x38
 2271 0e49 14       		.byte	0x14
 2272 0e4a A0       		.byte	0xa0
 2273 0e4b 08       		.byte	0x8
 2274 0e4c E00E0000 		.4byte	0xee0
 2275 0e50 01       		.uleb128 0x1
 2276 0e51 97090000 		.4byte	.LASF36
 2277 0e55 14       		.byte	0x14
 2278 0e56 A4       		.byte	0xa4
 2279 0e57 1D       		.byte	0x1d
 2280 0e58 2B0E0000 		.4byte	0xe2b
 2281 0e5c 00       		.byte	0
 2282 0e5d 01       		.uleb128 0x1
 2283 0e5e 16070000 		.4byte	.LASF53
 2284 0e62 14       		.byte	0x14
 2285 0e63 A8       		.byte	0xa8
 2286 0e64 1E       		.byte	0x1e
 2287 0e65 C2100000 		.4byte	0x10c2
 2288 0e69 04       		.byte	0x4
 2289 0e6a 01       		.uleb128 0x1
 2290 0e6b 99050000 		.4byte	.LASF200
 2291 0e6f 14       		.byte	0x14
 2292 0e70 AC       		.byte	0xac
 2293 0e71 1E       		.byte	0x1e
 2294 0e72 C7100000 		.4byte	0x10c7
 2295 0e76 08       		.byte	0x8
 2296 0e77 01       		.uleb128 0x1
 2297 0e78 CE050000 		.4byte	.LASF201
 2298 0e7c 14       		.byte	0x14
 2299 0e7d B0       		.byte	0xb0
 2300 0e7e 1D       		.byte	0x1d
 2301 0e7f 2D000000 		.4byte	0x2d
 2302 0e83 0C       		.byte	0xc
 2303 0e84 01       		.uleb128 0x1
 2304 0e85 1C0A0000 		.4byte	.LASF202
 2305 0e89 14       		.byte	0x14
 2306 0e8a B4       		.byte	0xb4
 2307 0e8b 1E       		.byte	0x1e
 2308 0e8c CC100000 		.4byte	0x10cc
 2309 0e90 10       		.byte	0x10
 2310 0e91 01       		.uleb128 0x1
 2311 0e92 DF080000 		.4byte	.LASF203
 2312 0e96 14       		.byte	0x14
 2313 0e97 B9       		.byte	0xb9
 2314 0e98 1D       		.byte	0x1d
 2315 0e99 8F0A0000 		.4byte	0xa8f
 2316 0e9d 14       		.byte	0x14
 2317 0e9e 01       		.uleb128 0x1
 2318 0e9f D4010000 		.4byte	.LASF204
 2319 0ea3 14       		.byte	0x14
 2320 0ea4 BF       		.byte	0xbf
 2321 0ea5 1D       		.byte	0x1d
 2322 0ea6 4D0C0000 		.4byte	0xc4d
 2323 0eaa 18       		.byte	0x18
ARM GAS  C:\Users\DEVELO~1\AppData\Local\Temp\ccJy2m5y.s 			page 42


 2324 0eab 01       		.uleb128 0x1
 2325 0eac BD080000 		.4byte	.LASF205
 2326 0eb0 14       		.byte	0x14
 2327 0eb1 C5       		.byte	0xc5
 2328 0eb2 03       		.byte	0x3
 2329 0eb3 D1100000 		.4byte	0x10d1
 2330 0eb7 28       		.byte	0x28
 2331 0eb8 01       		.uleb128 0x1
 2332 0eb9 7D080000 		.4byte	.LASF206
 2333 0ebd 14       		.byte	0x14
 2334 0ebe C5       		.byte	0xc5
 2335 0ebf 03       		.byte	0x3
 2336 0ec0 D6100000 		.4byte	0x10d6
 2337 0ec4 2C       		.byte	0x2c
 2338 0ec5 01       		.uleb128 0x1
 2339 0ec6 A1060000 		.4byte	.LASF207
 2340 0eca 14       		.byte	0x14
 2341 0ecb C5       		.byte	0xc5
 2342 0ecc 03       		.byte	0x3
 2343 0ecd 66100000 		.4byte	0x1066
 2344 0ed1 30       		.byte	0x30
 2345 0ed2 01       		.uleb128 0x1
 2346 0ed3 58000000 		.4byte	.LASF208
 2347 0ed7 14       		.byte	0x14
 2348 0ed8 C5       		.byte	0xc5
 2349 0ed9 03       		.byte	0x3
 2350 0eda DF000000 		.4byte	0xdf
 2351 0ede 34       		.byte	0x34
 2352 0edf 00       		.byte	0
 2353 0ee0 03       		.uleb128 0x3
 2354 0ee1 E5050000 		.4byte	.LASF209
 2355 0ee5 14       		.byte	0x14
 2356 0ee6 57       		.byte	0x57
 2357 0ee7 1F       		.byte	0x1f
 2358 0ee8 F10E0000 		.4byte	0xef1
 2359 0eec 0F       		.uleb128 0xf
 2360 0eed E00E0000 		.4byte	0xee0
 2361 0ef1 08       		.uleb128 0x8
 2362 0ef2 D9070000 		.4byte	.LASF210
 2363 0ef6 08       		.byte	0x8
 2364 0ef7 14       		.byte	0x14
 2365 0ef8 98       		.byte	0x98
 2366 0ef9 08       		.byte	0x8
 2367 0efa 190F0000 		.4byte	0xf19
 2368 0efe 01       		.uleb128 0x1
 2369 0eff 70070000 		.4byte	.LASF211
 2370 0f03 14       		.byte	0x14
 2371 0f04 9A       		.byte	0x9a
 2372 0f05 03       		.byte	0x3
 2373 0f06 DF000000 		.4byte	0xdf
 2374 0f0a 00       		.byte	0
 2375 0f0b 01       		.uleb128 0x1
 2376 0f0c 3B090000 		.4byte	.LASF212
 2377 0f10 14       		.byte	0x14
 2378 0f11 9A       		.byte	0x9a
 2379 0f12 03       		.byte	0x3
 2380 0f13 DF000000 		.4byte	0xdf
ARM GAS  C:\Users\DEVELO~1\AppData\Local\Temp\ccJy2m5y.s 			page 43


 2381 0f17 04       		.byte	0x4
 2382 0f18 00       		.byte	0
 2383 0f19 03       		.uleb128 0x3
 2384 0f1a B9070000 		.4byte	.LASF213
 2385 0f1e 14       		.byte	0x14
 2386 0f1f 61       		.byte	0x61
 2387 0f20 2C       		.byte	0x2c
 2388 0f21 2A0F0000 		.4byte	0xf2a
 2389 0f25 0F       		.uleb128 0xf
 2390 0f26 190F0000 		.4byte	0xf19
 2391 0f2a 08       		.uleb128 0x8
 2392 0f2b 460A0000 		.4byte	.LASF214
 2393 0f2f 58       		.byte	0x58
 2394 0f30 14       		.byte	0x14
 2395 0f31 80       		.byte	0x80
 2396 0f32 08       		.byte	0x8
 2397 0f33 22100000 		.4byte	0x1022
 2398 0f37 01       		.uleb128 0x1
 2399 0f38 15000000 		.4byte	.LASF215
 2400 0f3c 14       		.byte	0x14
 2401 0f3d 84       		.byte	0x84
 2402 0f3e 1D       		.byte	0x1d
 2403 0f3f 5E0C0000 		.4byte	0xc5e
 2404 0f43 00       		.byte	0
 2405 0f44 01       		.uleb128 0x1
 2406 0f45 CC070000 		.4byte	.LASF216
 2407 0f49 14       		.byte	0x14
 2408 0f4a 88       		.byte	0x88
 2409 0f4b 1D       		.byte	0x1d
 2410 0f4c 2F100000 		.4byte	0x102f
 2411 0f50 04       		.byte	0x4
 2412 0f51 01       		.uleb128 0x1
 2413 0f52 13020000 		.4byte	.LASF217
 2414 0f56 14       		.byte	0x14
 2415 0f57 8C       		.byte	0x8c
 2416 0f58 1D       		.byte	0x1d
 2417 0f59 80100000 		.4byte	0x1080
 2418 0f5d 08       		.byte	0x8
 2419 0f5e 01       		.uleb128 0x1
 2420 0f5f F4000000 		.4byte	.LASF218
 2421 0f63 14       		.byte	0x14
 2422 0f64 90       		.byte	0x90
 2423 0f65 1D       		.byte	0x1d
 2424 0f66 A1100000 		.4byte	0x10a1
 2425 0f6a 0C       		.byte	0xc
 2426 0f6b 01       		.uleb128 0x1
 2427 0f6c CF010000 		.4byte	.LASF219
 2428 0f70 14       		.byte	0x14
 2429 0f71 92       		.byte	0x92
 2430 0f72 03       		.byte	0x3
 2431 0f73 DF000000 		.4byte	0xdf
 2432 0f77 10       		.byte	0x10
 2433 0f78 01       		.uleb128 0x1
 2434 0f79 A7070000 		.4byte	.LASF220
 2435 0f7d 14       		.byte	0x14
 2436 0f7e 92       		.byte	0x92
 2437 0f7f 03       		.byte	0x3
ARM GAS  C:\Users\DEVELO~1\AppData\Local\Temp\ccJy2m5y.s 			page 44


 2438 0f80 DF000000 		.4byte	0xdf
 2439 0f84 14       		.byte	0x14
 2440 0f85 07       		.uleb128 0x7
 2441 0f86 63637200 		.ascii	"ccr\000"
 2442 0f8a 14       		.byte	0x14
 2443 0f8b 92       		.byte	0x92
 2444 0f8c 03       		.byte	0x3
 2445 0f8d DF000000 		.4byte	0xdf
 2446 0f91 18       		.byte	0x18
 2447 0f92 01       		.uleb128 0x1
 2448 0f93 6D040000 		.4byte	.LASF221
 2449 0f97 14       		.byte	0x14
 2450 0f98 92       		.byte	0x92
 2451 0f99 03       		.byte	0x3
 2452 0f9a DF000000 		.4byte	0xdf
 2453 0f9e 1C       		.byte	0x1c
 2454 0f9f 01       		.uleb128 0x1
 2455 0fa0 EB040000 		.4byte	.LASF222
 2456 0fa4 14       		.byte	0x14
 2457 0fa5 92       		.byte	0x92
 2458 0fa6 03       		.byte	0x3
 2459 0fa7 DF000000 		.4byte	0xdf
 2460 0fab 20       		.byte	0x20
 2461 0fac 01       		.uleb128 0x1
 2462 0fad E5000000 		.4byte	.LASF223
 2463 0fb1 14       		.byte	0x14
 2464 0fb2 92       		.byte	0x92
 2465 0fb3 03       		.byte	0x3
 2466 0fb4 DF000000 		.4byte	0xdf
 2467 0fb8 24       		.byte	0x24
 2468 0fb9 01       		.uleb128 0x1
 2469 0fba F0040000 		.4byte	.LASF224
 2470 0fbe 14       		.byte	0x14
 2471 0fbf 92       		.byte	0x92
 2472 0fc0 03       		.byte	0x3
 2473 0fc1 DF000000 		.4byte	0xdf
 2474 0fc5 28       		.byte	0x28
 2475 0fc6 01       		.uleb128 0x1
 2476 0fc7 EA000000 		.4byte	.LASF225
 2477 0fcb 14       		.byte	0x14
 2478 0fcc 92       		.byte	0x92
 2479 0fcd 03       		.byte	0x3
 2480 0fce DF000000 		.4byte	0xdf
 2481 0fd2 2C       		.byte	0x2c
 2482 0fd3 01       		.uleb128 0x1
 2483 0fd4 F5040000 		.4byte	.LASF226
 2484 0fd8 14       		.byte	0x14
 2485 0fd9 92       		.byte	0x92
 2486 0fda 03       		.byte	0x3
 2487 0fdb DF000000 		.4byte	0xdf
 2488 0fdf 30       		.byte	0x30
 2489 0fe0 01       		.uleb128 0x1
 2490 0fe1 EF000000 		.4byte	.LASF227
 2491 0fe5 14       		.byte	0x14
 2492 0fe6 92       		.byte	0x92
 2493 0fe7 03       		.byte	0x3
 2494 0fe8 DF000000 		.4byte	0xdf
ARM GAS  C:\Users\DEVELO~1\AppData\Local\Temp\ccJy2m5y.s 			page 45


 2495 0fec 34       		.byte	0x34
 2496 0fed 01       		.uleb128 0x1
 2497 0fee F6090000 		.4byte	.LASF228
 2498 0ff2 14       		.byte	0x14
 2499 0ff3 92       		.byte	0x92
 2500 0ff4 03       		.byte	0x3
 2501 0ff5 DF000000 		.4byte	0xdf
 2502 0ff9 38       		.byte	0x38
 2503 0ffa 01       		.uleb128 0x1
 2504 0ffb 0D0A0000 		.4byte	.LASF229
 2505 0fff 14       		.byte	0x14
 2506 1000 92       		.byte	0x92
 2507 1001 03       		.byte	0x3
 2508 1002 DF000000 		.4byte	0xdf
 2509 1006 3C       		.byte	0x3c
 2510 1007 01       		.uleb128 0x1
 2511 1008 C2050000 		.4byte	.LASF230
 2512 100c 14       		.byte	0x14
 2513 100d 92       		.byte	0x92
 2514 100e 03       		.byte	0x3
 2515 100f 1E060000 		.4byte	0x61e
 2516 1013 40       		.byte	0x40
 2517 1014 07       		.uleb128 0x7
 2518 1015 73717200 		.ascii	"sqr\000"
 2519 1019 14       		.byte	0x14
 2520 101a 92       		.byte	0x92
 2521 101b 03       		.byte	0x3
 2522 101c 77080000 		.4byte	0x877
 2523 1020 48       		.byte	0x48
 2524 1021 00       		.byte	0
 2525 1022 0A       		.uleb128 0xa
 2526 1023 B1060000 		.4byte	.LASF231
 2527 1027 15       		.byte	0x15
 2528 1028 2402     		.2byte	0x224
 2529 102a 12       		.byte	0x12
 2530 102b C7000000 		.4byte	0xc7
 2531 102f 0A       		.uleb128 0xa
 2532 1030 94070000 		.4byte	.LASF232
 2533 1034 15       		.byte	0x15
 2534 1035 2E02     		.2byte	0x22e
 2535 1037 12       		.byte	0x12
 2536 1038 DF000000 		.4byte	0xdf
 2537 103c 0A       		.uleb128 0xa
 2538 103d DA050000 		.4byte	.LASF233
 2539 1041 15       		.byte	0x15
 2540 1042 3302     		.2byte	0x233
 2541 1044 12       		.byte	0x12
 2542 1045 DF000000 		.4byte	0xdf
 2543 1049 27       		.uleb128 0x27
 2544 104a 04       		.byte	0x4
 2545 104b 15       		.byte	0x15
 2546 104c 3802     		.2byte	0x238
 2547 104e 09       		.byte	0x9
 2548 104f 61100000 		.4byte	0x1061
 2549 1053 28       		.uleb128 0x28
 2550 1054 646D6100 		.ascii	"dma\000"
 2551 1058 15       		.byte	0x15
ARM GAS  C:\Users\DEVELO~1\AppData\Local\Temp\ccJy2m5y.s 			page 46


 2552 1059 3D02     		.2byte	0x23d
 2553 105b 20       		.byte	0x20
 2554 105c 61100000 		.4byte	0x1061
 2555 1060 00       		.byte	0
 2556 1061 04       		.uleb128 0x4
 2557 1062 DF0C0000 		.4byte	0xcdf
 2558 1066 0A       		.uleb128 0xa
 2559 1067 B6000000 		.4byte	.LASF234
 2560 106b 15       		.byte	0x15
 2561 106c 4502     		.2byte	0x245
 2562 106e 03       		.byte	0x3
 2563 106f 49100000 		.4byte	0x1049
 2564 1073 29       		.uleb128 0x29
 2565 1074 C5060000 		.4byte	.LASF237
 2566 1078 15       		.byte	0x15
 2567 1079 0703     		.2byte	0x307
 2568 107b 12       		.byte	0x12
 2569 107c 370E0000 		.4byte	0xe37
 2570 1080 03       		.uleb128 0x3
 2571 1081 EF050000 		.4byte	.LASF235
 2572 1085 14       		.byte	0x14
 2573 1086 6D       		.byte	0x6d
 2574 1087 10       		.byte	0x10
 2575 1088 8C100000 		.4byte	0x108c
 2576 108c 04       		.uleb128 0x4
 2577 108d 91100000 		.4byte	0x1091
 2578 1091 1C       		.uleb128 0x1c
 2579 1092 9C100000 		.4byte	0x109c
 2580 1096 06       		.uleb128 0x6
 2581 1097 9C100000 		.4byte	0x109c
 2582 109b 00       		.byte	0
 2583 109c 04       		.uleb128 0x4
 2584 109d 370E0000 		.4byte	0xe37
 2585 10a1 03       		.uleb128 0x3
 2586 10a2 95010000 		.4byte	.LASF236
 2587 10a6 14       		.byte	0x14
 2588 10a7 76       		.byte	0x76
 2589 10a8 10       		.byte	0x10
 2590 10a9 AD100000 		.4byte	0x10ad
 2591 10ad 04       		.uleb128 0x4
 2592 10ae B2100000 		.4byte	0x10b2
 2593 10b2 1C       		.uleb128 0x1c
 2594 10b3 C2100000 		.4byte	0x10c2
 2595 10b7 06       		.uleb128 0x6
 2596 10b8 9C100000 		.4byte	0x109c
 2597 10bc 06       		.uleb128 0x6
 2598 10bd 3C100000 		.4byte	0x103c
 2599 10c1 00       		.byte	0
 2600 10c2 04       		.uleb128 0x4
 2601 10c3 EC0E0000 		.4byte	0xeec
 2602 10c7 04       		.uleb128 0x4
 2603 10c8 22100000 		.4byte	0x1022
 2604 10cc 04       		.uleb128 0x4
 2605 10cd 250F0000 		.4byte	0xf25
 2606 10d1 04       		.uleb128 0x4
 2607 10d2 87080000 		.4byte	0x887
 2608 10d6 04       		.uleb128 0x4
ARM GAS  C:\Users\DEVELO~1\AppData\Local\Temp\ccJy2m5y.s 			page 47


 2609 10d7 E4080000 		.4byte	0x8e4
 2610 10db 04       		.uleb128 0x4
 2611 10dc 5A030000 		.4byte	0x35a
 2612 10e0 11       		.uleb128 0x11
 2613 10e1 22100000 		.4byte	0x1022
 2614 10e5 F0100000 		.4byte	0x10f0
 2615 10e9 12       		.uleb128 0x12
 2616 10ea 39000000 		.4byte	0x39
 2617 10ee 00       		.byte	0
 2618 10ef 00       		.byte	0
 2619 10f0 2A       		.uleb128 0x2a
 2620 10f1 DD000000 		.4byte	.LASF238
 2621 10f5 01       		.byte	0x1
 2622 10f6 12       		.byte	0x12
 2623 10f7 14       		.byte	0x14
 2624 10f8 E0100000 		.4byte	0x10e0
 2625 10fc 20       		.byte	0x20
 2626 10fd 05       		.uleb128 0x5
 2627 10fe 03       		.byte	0x3
 2628 10ff 00000000 		.4byte	adc_buf
 2629 1103 17       		.uleb128 0x17
 2630 1104 41060000 		.4byte	.LASF239
 2631 1108 14       		.byte	0x14
 2632 1109 18       		.byte	0x18
 2633 110a EC0E0000 		.4byte	0xeec
 2634 110e 05       		.uleb128 0x5
 2635 110f 03       		.byte	0x3
 2636 1110 00000000 		.4byte	adccfg
 2637 1114 17       		.uleb128 0x17
 2638 1115 66050000 		.4byte	.LASF240
 2639 1119 18       		.byte	0x18
 2640 111a 21       		.byte	0x21
 2641 111b 250F0000 		.4byte	0xf25
 2642 111f 05       		.uleb128 0x5
 2643 1120 03       		.byte	0x3
 2644 1121 00000000 		.4byte	adcgrpcfg
 2645 1125 1B       		.uleb128 0x1b
 2646 1126 82060000 		.4byte	.LASF241
 2647 112a 14       		.byte	0x14
 2648 112b 8401     		.2byte	0x184
 2649 112d 46110000 		.4byte	0x1146
 2650 1131 06       		.uleb128 0x6
 2651 1132 9C100000 		.4byte	0x109c
 2652 1136 06       		.uleb128 0x6
 2653 1137 CC100000 		.4byte	0x10cc
 2654 113b 06       		.uleb128 0x6
 2655 113c C7100000 		.4byte	0x10c7
 2656 1140 06       		.uleb128 0x6
 2657 1141 2D000000 		.4byte	0x2d
 2658 1145 00       		.byte	0
 2659 1146 1B       		.uleb128 0x1b
 2660 1147 56090000 		.4byte	.LASF242
 2661 114b 16       		.byte	0x16
 2662 114c 4201     		.2byte	0x142
 2663 114e 58110000 		.4byte	0x1158
 2664 1152 06       		.uleb128 0x6
 2665 1153 7E030000 		.4byte	0x37e
ARM GAS  C:\Users\DEVELO~1\AppData\Local\Temp\ccJy2m5y.s 			page 48


 2666 1157 00       		.byte	0
 2667 1158 18       		.uleb128 0x18
 2668 1159 AD040000 		.4byte	.LASF244
 2669 115d 17       		.byte	0x17
 2670 115e 14       		.byte	0x14
 2671 115f 1D       		.uleb128 0x1d
 2672 1160 15060000 		.4byte	.LASF246
 2673 1164 18       		.byte	0x18
 2674 1165 1401     		.2byte	0x114
 2675 1167 05       		.byte	0x5
 2676 1168 26000000 		.4byte	0x26
 2677 116c 81110000 		.4byte	0x1181
 2678 1170 06       		.uleb128 0x6
 2679 1171 DB100000 		.4byte	0x10db
 2680 1175 06       		.uleb128 0x6
 2681 1176 2D000000 		.4byte	0x2d
 2682 117a 06       		.uleb128 0x6
 2683 117b 50030000 		.4byte	0x350
 2684 117f 2B       		.uleb128 0x2b
 2685 1180 00       		.byte	0
 2686 1181 2C       		.uleb128 0x2c
 2687 1182 70090000 		.4byte	.LASF243
 2688 1186 17       		.byte	0x17
 2689 1187 22       		.byte	0x22
 2690 1188 06       		.byte	0x6
 2691 1189 9D110000 		.4byte	0x119d
 2692 118d 06       		.uleb128 0x6
 2693 118e BB000000 		.4byte	0xbb
 2694 1192 06       		.uleb128 0x6
 2695 1193 BB000000 		.4byte	0xbb
 2696 1197 06       		.uleb128 0x6
 2697 1198 50030000 		.4byte	0x350
 2698 119c 00       		.byte	0
 2699 119d 18       		.uleb128 0x18
 2700 119e AB080000 		.4byte	.LASF245
 2701 11a2 17       		.byte	0x17
 2702 11a3 13       		.byte	0x13
 2703 11a4 1D       		.uleb128 0x1d
 2704 11a5 81050000 		.4byte	.LASF247
 2705 11a9 14       		.byte	0x14
 2706 11aa 8201     		.2byte	0x182
 2707 11ac 09       		.byte	0x9
 2708 11ad 49010000 		.4byte	0x149
 2709 11b1 C0110000 		.4byte	0x11c0
 2710 11b5 06       		.uleb128 0x6
 2711 11b6 9C100000 		.4byte	0x109c
 2712 11ba 06       		.uleb128 0x6
 2713 11bb C2100000 		.4byte	0x10c2
 2714 11bf 00       		.byte	0
 2715 11c0 1B       		.uleb128 0x1b
 2716 11c1 72020000 		.4byte	.LASF248
 2717 11c5 13       		.byte	0x13
 2718 11c6 F301     		.2byte	0x1f3
 2719 11c8 DC110000 		.4byte	0x11dc
 2720 11cc 06       		.uleb128 0x6
 2721 11cd E70D0000 		.4byte	0xde7
 2722 11d1 06       		.uleb128 0x6
ARM GAS  C:\Users\DEVELO~1\AppData\Local\Temp\ccJy2m5y.s 			page 49


 2723 11d2 C30D0000 		.4byte	0xdc3
 2724 11d6 06       		.uleb128 0x6
 2725 11d7 CF0D0000 		.4byte	0xdcf
 2726 11db 00       		.byte	0
 2727 11dc 18       		.uleb128 0x18
 2728 11dd 3B000000 		.4byte	.LASF249
 2729 11e1 17       		.byte	0x17
 2730 11e2 12       		.byte	0x12
 2731 11e3 18       		.uleb128 0x18
 2732 11e4 86090000 		.4byte	.LASF250
 2733 11e8 19       		.byte	0x19
 2734 11e9 28       		.byte	0x28
 2735 11ea 1E       		.uleb128 0x1e
 2736 11eb C5040000 		.4byte	.LASF251
 2737 11ef 1A       		.byte	0x1a
 2738 11f0 4E01     		.2byte	0x14e
 2739 11f2 1E       		.uleb128 0x1e
 2740 11f3 2D080000 		.4byte	.LASF252
 2741 11f7 1B       		.byte	0x1b
 2742 11f8 0101     		.2byte	0x101
 2743 11fa 2D       		.uleb128 0x2d
 2744 11fb 080A0000 		.4byte	.LASF258
 2745 11ff 01       		.byte	0x1
 2746 1200 3B       		.byte	0x3b
 2747 1201 05       		.byte	0x5
 2748 1202 26000000 		.4byte	0x26
 2749 1206 00000000 		.4byte	.LFB436
 2750 120a 18010000 		.4byte	.LFE436-.LFB436
 2751 120e 01       		.uleb128 0x1
 2752 120f 9C       		.byte	0x9c
 2753 1210 47120000 		.4byte	0x1247
 2754 1214 17       		.uleb128 0x17
 2755 1215 47090000 		.4byte	.LASF253
 2756 1219 4A       		.byte	0x4a
 2757 121a 08       		.byte	0x8
 2758 121b 47120000 		.4byte	0x1247
 2759 121f 02       		.uleb128 0x2
 2760 1220 91       		.byte	0x91
 2761 1221 50       		.sleb128 -48
 2762 1222 17       		.uleb128 0x17
 2763 1223 4C090000 		.4byte	.LASF254
 2764 1227 4D       		.byte	0x4d
 2765 1228 09       		.byte	0x9
 2766 1229 49010000 		.4byte	0x149
 2767 122d 02       		.uleb128 0x2
 2768 122e 91       		.byte	0x91
 2769 122f 74       		.sleb128 -12
 2770 1230 1F       		.uleb128 0x1f
 2771 1231 9C000000 		.4byte	.LBB5
 2772 1235 50000000 		.4byte	.LBE5-.LBB5
 2773 1239 19       		.uleb128 0x19
 2774 123a 7600     		.ascii	"v\000"
 2775 123c 5D       		.byte	0x5d
 2776 123d 0E       		.byte	0xe
 2777 123e C7000000 		.4byte	0xc7
 2778 1242 02       		.uleb128 0x2
 2779 1243 91       		.byte	0x91
ARM GAS  C:\Users\DEVELO~1\AppData\Local\Temp\ccJy2m5y.s 			page 50


 2780 1244 72       		.sleb128 -14
 2781 1245 00       		.byte	0
 2782 1246 00       		.byte	0
 2783 1247 11       		.uleb128 0x11
 2784 1248 5A030000 		.4byte	0x35a
 2785 124c 57120000 		.4byte	0x1257
 2786 1250 12       		.uleb128 0x12
 2787 1251 39000000 		.4byte	0x39
 2788 1255 1F       		.byte	0x1f
 2789 1256 00       		.byte	0
 2790 1257 2E       		.uleb128 0x2e
 2791 1258 5A040000 		.4byte	.LASF259
 2792 125c 01       		.byte	0x1
 2793 125d 33       		.byte	0x33
 2794 125e 0D       		.byte	0xd
 2795 125f 00000000 		.4byte	.LFB435
 2796 1263 88000000 		.4byte	.LFE435-.LFB435
 2797 1267 01       		.uleb128 0x1
 2798 1268 9C       		.byte	0x9c
 2799 1269 2F       		.uleb128 0x2f
 2800 126a 73656C00 		.ascii	"sel\000"
 2801 126e 01       		.byte	0x1
 2802 126f 33       		.byte	0x33
 2803 1270 1D       		.byte	0x1d
 2804 1271 BB000000 		.4byte	0xbb
 2805 1275 02       		.uleb128 0x2
 2806 1276 91       		.byte	0x91
 2807 1277 67       		.sleb128 -25
 2808 1278 20       		.uleb128 0x20
 2809 1279 0A000000 		.4byte	.LBB2
 2810 127d 24000000 		.4byte	.LBE2-.LBB2
 2811 1281 92120000 		.4byte	0x1292
 2812 1285 19       		.uleb128 0x19
 2813 1286 7700     		.ascii	"w\000"
 2814 1288 34       		.byte	0x34
 2815 1289 03       		.byte	0x3
 2816 128a DF000000 		.4byte	0xdf
 2817 128e 02       		.uleb128 0x2
 2818 128f 91       		.byte	0x91
 2819 1290 74       		.sleb128 -12
 2820 1291 00       		.byte	0
 2821 1292 20       		.uleb128 0x20
 2822 1293 2E000000 		.4byte	.LBB3
 2823 1297 26000000 		.4byte	.LBE3-.LBB3
 2824 129b AC120000 		.4byte	0x12ac
 2825 129f 19       		.uleb128 0x19
 2826 12a0 7700     		.ascii	"w\000"
 2827 12a2 35       		.byte	0x35
 2828 12a3 03       		.byte	0x3
 2829 12a4 DF000000 		.4byte	0xdf
 2830 12a8 02       		.uleb128 0x2
 2831 12a9 91       		.byte	0x91
 2832 12aa 70       		.sleb128 -16
 2833 12ab 00       		.byte	0
 2834 12ac 1F       		.uleb128 0x1f
 2835 12ad 54000000 		.4byte	.LBB4
 2836 12b1 26000000 		.4byte	.LBE4-.LBB4
ARM GAS  C:\Users\DEVELO~1\AppData\Local\Temp\ccJy2m5y.s 			page 51


 2837 12b5 19       		.uleb128 0x19
 2838 12b6 7700     		.ascii	"w\000"
 2839 12b8 36       		.byte	0x36
 2840 12b9 03       		.byte	0x3
 2841 12ba DF000000 		.4byte	0xdf
 2842 12be 02       		.uleb128 0x2
 2843 12bf 91       		.byte	0x91
 2844 12c0 6C       		.sleb128 -20
 2845 12c1 00       		.byte	0
 2846 12c2 00       		.byte	0
 2847 12c3 00       		.byte	0
 2848              		.section	.debug_abbrev,"",%progbits
 2849              	.Ldebug_abbrev0:
 2850 0000 01       		.uleb128 0x1
 2851 0001 0D       		.uleb128 0xd
 2852 0002 00       		.byte	0
 2853 0003 03       		.uleb128 0x3
 2854 0004 0E       		.uleb128 0xe
 2855 0005 3A       		.uleb128 0x3a
 2856 0006 0B       		.uleb128 0xb
 2857 0007 3B       		.uleb128 0x3b
 2858 0008 0B       		.uleb128 0xb
 2859 0009 39       		.uleb128 0x39
 2860 000a 0B       		.uleb128 0xb
 2861 000b 49       		.uleb128 0x49
 2862 000c 13       		.uleb128 0x13
 2863 000d 38       		.uleb128 0x38
 2864 000e 0B       		.uleb128 0xb
 2865 000f 00       		.byte	0
 2866 0010 00       		.byte	0
 2867 0011 02       		.uleb128 0x2
 2868 0012 0D       		.uleb128 0xd
 2869 0013 00       		.byte	0
 2870 0014 03       		.uleb128 0x3
 2871 0015 0E       		.uleb128 0xe
 2872 0016 3A       		.uleb128 0x3a
 2873 0017 0B       		.uleb128 0xb
 2874 0018 3B       		.uleb128 0x3b
 2875 0019 05       		.uleb128 0x5
 2876 001a 39       		.uleb128 0x39
 2877 001b 0B       		.uleb128 0xb
 2878 001c 49       		.uleb128 0x49
 2879 001d 13       		.uleb128 0x13
 2880 001e 38       		.uleb128 0x38
 2881 001f 0B       		.uleb128 0xb
 2882 0020 00       		.byte	0
 2883 0021 00       		.byte	0
 2884 0022 03       		.uleb128 0x3
 2885 0023 16       		.uleb128 0x16
 2886 0024 00       		.byte	0
 2887 0025 03       		.uleb128 0x3
 2888 0026 0E       		.uleb128 0xe
 2889 0027 3A       		.uleb128 0x3a
 2890 0028 0B       		.uleb128 0xb
 2891 0029 3B       		.uleb128 0x3b
 2892 002a 0B       		.uleb128 0xb
 2893 002b 39       		.uleb128 0x39
ARM GAS  C:\Users\DEVELO~1\AppData\Local\Temp\ccJy2m5y.s 			page 52


 2894 002c 0B       		.uleb128 0xb
 2895 002d 49       		.uleb128 0x49
 2896 002e 13       		.uleb128 0x13
 2897 002f 00       		.byte	0
 2898 0030 00       		.byte	0
 2899 0031 04       		.uleb128 0x4
 2900 0032 0F       		.uleb128 0xf
 2901 0033 00       		.byte	0
 2902 0034 0B       		.uleb128 0xb
 2903 0035 21       		.uleb128 0x21
 2904 0036 04       		.sleb128 4
 2905 0037 49       		.uleb128 0x49
 2906 0038 13       		.uleb128 0x13
 2907 0039 00       		.byte	0
 2908 003a 00       		.byte	0
 2909 003b 05       		.uleb128 0x5
 2910 003c 0D       		.uleb128 0xd
 2911 003d 00       		.byte	0
 2912 003e 03       		.uleb128 0x3
 2913 003f 08       		.uleb128 0x8
 2914 0040 3A       		.uleb128 0x3a
 2915 0041 0B       		.uleb128 0xb
 2916 0042 3B       		.uleb128 0x3b
 2917 0043 05       		.uleb128 0x5
 2918 0044 39       		.uleb128 0x39
 2919 0045 0B       		.uleb128 0xb
 2920 0046 49       		.uleb128 0x49
 2921 0047 13       		.uleb128 0x13
 2922 0048 38       		.uleb128 0x38
 2923 0049 0B       		.uleb128 0xb
 2924 004a 00       		.byte	0
 2925 004b 00       		.byte	0
 2926 004c 06       		.uleb128 0x6
 2927 004d 05       		.uleb128 0x5
 2928 004e 00       		.byte	0
 2929 004f 49       		.uleb128 0x49
 2930 0050 13       		.uleb128 0x13
 2931 0051 00       		.byte	0
 2932 0052 00       		.byte	0
 2933 0053 07       		.uleb128 0x7
 2934 0054 0D       		.uleb128 0xd
 2935 0055 00       		.byte	0
 2936 0056 03       		.uleb128 0x3
 2937 0057 08       		.uleb128 0x8
 2938 0058 3A       		.uleb128 0x3a
 2939 0059 0B       		.uleb128 0xb
 2940 005a 3B       		.uleb128 0x3b
 2941 005b 0B       		.uleb128 0xb
 2942 005c 39       		.uleb128 0x39
 2943 005d 0B       		.uleb128 0xb
 2944 005e 49       		.uleb128 0x49
 2945 005f 13       		.uleb128 0x13
 2946 0060 38       		.uleb128 0x38
 2947 0061 0B       		.uleb128 0xb
 2948 0062 00       		.byte	0
 2949 0063 00       		.byte	0
 2950 0064 08       		.uleb128 0x8
ARM GAS  C:\Users\DEVELO~1\AppData\Local\Temp\ccJy2m5y.s 			page 53


 2951 0065 13       		.uleb128 0x13
 2952 0066 01       		.byte	0x1
 2953 0067 03       		.uleb128 0x3
 2954 0068 0E       		.uleb128 0xe
 2955 0069 0B       		.uleb128 0xb
 2956 006a 0B       		.uleb128 0xb
 2957 006b 3A       		.uleb128 0x3a
 2958 006c 0B       		.uleb128 0xb
 2959 006d 3B       		.uleb128 0x3b
 2960 006e 0B       		.uleb128 0xb
 2961 006f 39       		.uleb128 0x39
 2962 0070 0B       		.uleb128 0xb
 2963 0071 01       		.uleb128 0x1
 2964 0072 13       		.uleb128 0x13
 2965 0073 00       		.byte	0
 2966 0074 00       		.byte	0
 2967 0075 09       		.uleb128 0x9
 2968 0076 24       		.uleb128 0x24
 2969 0077 00       		.byte	0
 2970 0078 0B       		.uleb128 0xb
 2971 0079 0B       		.uleb128 0xb
 2972 007a 3E       		.uleb128 0x3e
 2973 007b 0B       		.uleb128 0xb
 2974 007c 03       		.uleb128 0x3
 2975 007d 0E       		.uleb128 0xe
 2976 007e 00       		.byte	0
 2977 007f 00       		.byte	0
 2978 0080 0A       		.uleb128 0xa
 2979 0081 16       		.uleb128 0x16
 2980 0082 00       		.byte	0
 2981 0083 03       		.uleb128 0x3
 2982 0084 0E       		.uleb128 0xe
 2983 0085 3A       		.uleb128 0x3a
 2984 0086 0B       		.uleb128 0xb
 2985 0087 3B       		.uleb128 0x3b
 2986 0088 05       		.uleb128 0x5
 2987 0089 39       		.uleb128 0x39
 2988 008a 0B       		.uleb128 0xb
 2989 008b 49       		.uleb128 0x49
 2990 008c 13       		.uleb128 0x13
 2991 008d 00       		.byte	0
 2992 008e 00       		.byte	0
 2993 008f 0B       		.uleb128 0xb
 2994 0090 13       		.uleb128 0x13
 2995 0091 01       		.byte	0x1
 2996 0092 0B       		.uleb128 0xb
 2997 0093 0B       		.uleb128 0xb
 2998 0094 3A       		.uleb128 0x3a
 2999 0095 0B       		.uleb128 0xb
 3000 0096 3B       		.uleb128 0x3b
 3001 0097 0B       		.uleb128 0xb
 3002 0098 39       		.uleb128 0x39
 3003 0099 0B       		.uleb128 0xb
 3004 009a 01       		.uleb128 0x1
 3005 009b 13       		.uleb128 0x13
 3006 009c 00       		.byte	0
 3007 009d 00       		.byte	0
ARM GAS  C:\Users\DEVELO~1\AppData\Local\Temp\ccJy2m5y.s 			page 54


 3008 009e 0C       		.uleb128 0xc
 3009 009f 0D       		.uleb128 0xd
 3010 00a0 00       		.byte	0
 3011 00a1 03       		.uleb128 0x3
 3012 00a2 0E       		.uleb128 0xe
 3013 00a3 3A       		.uleb128 0x3a
 3014 00a4 0B       		.uleb128 0xb
 3015 00a5 3B       		.uleb128 0x3b
 3016 00a6 0B       		.uleb128 0xb
 3017 00a7 39       		.uleb128 0x39
 3018 00a8 0B       		.uleb128 0xb
 3019 00a9 49       		.uleb128 0x49
 3020 00aa 13       		.uleb128 0x13
 3021 00ab 00       		.byte	0
 3022 00ac 00       		.byte	0
 3023 00ad 0D       		.uleb128 0xd
 3024 00ae 0D       		.uleb128 0xd
 3025 00af 00       		.byte	0
 3026 00b0 03       		.uleb128 0x3
 3027 00b1 0E       		.uleb128 0xe
 3028 00b2 3A       		.uleb128 0x3a
 3029 00b3 21       		.uleb128 0x21
 3030 00b4 07       		.sleb128 7
 3031 00b5 3B       		.uleb128 0x3b
 3032 00b6 05       		.uleb128 0x5
 3033 00b7 39       		.uleb128 0x39
 3034 00b8 0B       		.uleb128 0xb
 3035 00b9 49       		.uleb128 0x49
 3036 00ba 13       		.uleb128 0x13
 3037 00bb 00       		.byte	0
 3038 00bc 00       		.byte	0
 3039 00bd 0E       		.uleb128 0xe
 3040 00be 28       		.uleb128 0x28
 3041 00bf 00       		.byte	0
 3042 00c0 03       		.uleb128 0x3
 3043 00c1 0E       		.uleb128 0xe
 3044 00c2 1C       		.uleb128 0x1c
 3045 00c3 0B       		.uleb128 0xb
 3046 00c4 00       		.byte	0
 3047 00c5 00       		.byte	0
 3048 00c6 0F       		.uleb128 0xf
 3049 00c7 26       		.uleb128 0x26
 3050 00c8 00       		.byte	0
 3051 00c9 49       		.uleb128 0x49
 3052 00ca 13       		.uleb128 0x13
 3053 00cb 00       		.byte	0
 3054 00cc 00       		.byte	0
 3055 00cd 10       		.uleb128 0x10
 3056 00ce 0D       		.uleb128 0xd
 3057 00cf 00       		.byte	0
 3058 00d0 03       		.uleb128 0x3
 3059 00d1 08       		.uleb128 0x8
 3060 00d2 3A       		.uleb128 0x3a
 3061 00d3 0B       		.uleb128 0xb
 3062 00d4 3B       		.uleb128 0x3b
 3063 00d5 0B       		.uleb128 0xb
 3064 00d6 39       		.uleb128 0x39
ARM GAS  C:\Users\DEVELO~1\AppData\Local\Temp\ccJy2m5y.s 			page 55


 3065 00d7 0B       		.uleb128 0xb
 3066 00d8 49       		.uleb128 0x49
 3067 00d9 13       		.uleb128 0x13
 3068 00da 00       		.byte	0
 3069 00db 00       		.byte	0
 3070 00dc 11       		.uleb128 0x11
 3071 00dd 01       		.uleb128 0x1
 3072 00de 01       		.byte	0x1
 3073 00df 49       		.uleb128 0x49
 3074 00e0 13       		.uleb128 0x13
 3075 00e1 01       		.uleb128 0x1
 3076 00e2 13       		.uleb128 0x13
 3077 00e3 00       		.byte	0
 3078 00e4 00       		.byte	0
 3079 00e5 12       		.uleb128 0x12
 3080 00e6 21       		.uleb128 0x21
 3081 00e7 00       		.byte	0
 3082 00e8 49       		.uleb128 0x49
 3083 00e9 13       		.uleb128 0x13
 3084 00ea 2F       		.uleb128 0x2f
 3085 00eb 0B       		.uleb128 0xb
 3086 00ec 00       		.byte	0
 3087 00ed 00       		.byte	0
 3088 00ee 13       		.uleb128 0x13
 3089 00ef 35       		.uleb128 0x35
 3090 00f0 00       		.byte	0
 3091 00f1 49       		.uleb128 0x49
 3092 00f2 13       		.uleb128 0x13
 3093 00f3 00       		.byte	0
 3094 00f4 00       		.byte	0
 3095 00f5 14       		.uleb128 0x14
 3096 00f6 17       		.uleb128 0x17
 3097 00f7 01       		.byte	0x1
 3098 00f8 0B       		.uleb128 0xb
 3099 00f9 0B       		.uleb128 0xb
 3100 00fa 3A       		.uleb128 0x3a
 3101 00fb 0B       		.uleb128 0xb
 3102 00fc 3B       		.uleb128 0x3b
 3103 00fd 0B       		.uleb128 0xb
 3104 00fe 39       		.uleb128 0x39
 3105 00ff 0B       		.uleb128 0xb
 3106 0100 01       		.uleb128 0x1
 3107 0101 13       		.uleb128 0x13
 3108 0102 00       		.byte	0
 3109 0103 00       		.byte	0
 3110 0104 15       		.uleb128 0x15
 3111 0105 13       		.uleb128 0x13
 3112 0106 01       		.byte	0x1
 3113 0107 0B       		.uleb128 0xb
 3114 0108 0B       		.uleb128 0xb
 3115 0109 3A       		.uleb128 0x3a
 3116 010a 0B       		.uleb128 0xb
 3117 010b 3B       		.uleb128 0x3b
 3118 010c 05       		.uleb128 0x5
 3119 010d 39       		.uleb128 0x39
 3120 010e 21       		.uleb128 0x21
 3121 010f 09       		.sleb128 9
ARM GAS  C:\Users\DEVELO~1\AppData\Local\Temp\ccJy2m5y.s 			page 56


 3122 0110 01       		.uleb128 0x1
 3123 0111 13       		.uleb128 0x13
 3124 0112 00       		.byte	0
 3125 0113 00       		.byte	0
 3126 0114 16       		.uleb128 0x16
 3127 0115 13       		.uleb128 0x13
 3128 0116 01       		.byte	0x1
 3129 0117 03       		.uleb128 0x3
 3130 0118 0E       		.uleb128 0xe
 3131 0119 0B       		.uleb128 0xb
 3132 011a 0B       		.uleb128 0xb
 3133 011b 3A       		.uleb128 0x3a
 3134 011c 0B       		.uleb128 0xb
 3135 011d 3B       		.uleb128 0x3b
 3136 011e 05       		.uleb128 0x5
 3137 011f 39       		.uleb128 0x39
 3138 0120 0B       		.uleb128 0xb
 3139 0121 01       		.uleb128 0x1
 3140 0122 13       		.uleb128 0x13
 3141 0123 00       		.byte	0
 3142 0124 00       		.byte	0
 3143 0125 17       		.uleb128 0x17
 3144 0126 34       		.uleb128 0x34
 3145 0127 00       		.byte	0
 3146 0128 03       		.uleb128 0x3
 3147 0129 0E       		.uleb128 0xe
 3148 012a 3A       		.uleb128 0x3a
 3149 012b 21       		.uleb128 0x21
 3150 012c 01       		.sleb128 1
 3151 012d 3B       		.uleb128 0x3b
 3152 012e 0B       		.uleb128 0xb
 3153 012f 39       		.uleb128 0x39
 3154 0130 0B       		.uleb128 0xb
 3155 0131 49       		.uleb128 0x49
 3156 0132 13       		.uleb128 0x13
 3157 0133 02       		.uleb128 0x2
 3158 0134 18       		.uleb128 0x18
 3159 0135 00       		.byte	0
 3160 0136 00       		.byte	0
 3161 0137 18       		.uleb128 0x18
 3162 0138 2E       		.uleb128 0x2e
 3163 0139 00       		.byte	0
 3164 013a 3F       		.uleb128 0x3f
 3165 013b 19       		.uleb128 0x19
 3166 013c 03       		.uleb128 0x3
 3167 013d 0E       		.uleb128 0xe
 3168 013e 3A       		.uleb128 0x3a
 3169 013f 0B       		.uleb128 0xb
 3170 0140 3B       		.uleb128 0x3b
 3171 0141 0B       		.uleb128 0xb
 3172 0142 39       		.uleb128 0x39
 3173 0143 21       		.uleb128 0x21
 3174 0144 06       		.sleb128 6
 3175 0145 27       		.uleb128 0x27
 3176 0146 19       		.uleb128 0x19
 3177 0147 3C       		.uleb128 0x3c
 3178 0148 19       		.uleb128 0x19
ARM GAS  C:\Users\DEVELO~1\AppData\Local\Temp\ccJy2m5y.s 			page 57


 3179 0149 00       		.byte	0
 3180 014a 00       		.byte	0
 3181 014b 19       		.uleb128 0x19
 3182 014c 34       		.uleb128 0x34
 3183 014d 00       		.byte	0
 3184 014e 03       		.uleb128 0x3
 3185 014f 08       		.uleb128 0x8
 3186 0150 3A       		.uleb128 0x3a
 3187 0151 21       		.uleb128 0x21
 3188 0152 01       		.sleb128 1
 3189 0153 3B       		.uleb128 0x3b
 3190 0154 0B       		.uleb128 0xb
 3191 0155 39       		.uleb128 0x39
 3192 0156 0B       		.uleb128 0xb
 3193 0157 49       		.uleb128 0x49
 3194 0158 13       		.uleb128 0x13
 3195 0159 02       		.uleb128 0x2
 3196 015a 18       		.uleb128 0x18
 3197 015b 00       		.byte	0
 3198 015c 00       		.byte	0
 3199 015d 1A       		.uleb128 0x1a
 3200 015e 0D       		.uleb128 0xd
 3201 015f 00       		.byte	0
 3202 0160 03       		.uleb128 0x3
 3203 0161 0E       		.uleb128 0xe
 3204 0162 3A       		.uleb128 0x3a
 3205 0163 21       		.uleb128 0x21
 3206 0164 0C       		.sleb128 12
 3207 0165 3B       		.uleb128 0x3b
 3208 0166 0B       		.uleb128 0xb
 3209 0167 39       		.uleb128 0x39
 3210 0168 21       		.uleb128 0x21
 3211 0169 19       		.sleb128 25
 3212 016a 49       		.uleb128 0x49
 3213 016b 13       		.uleb128 0x13
 3214 016c 0D       		.uleb128 0xd
 3215 016d 0B       		.uleb128 0xb
 3216 016e 6B       		.uleb128 0x6b
 3217 016f 0B       		.uleb128 0xb
 3218 0170 00       		.byte	0
 3219 0171 00       		.byte	0
 3220 0172 1B       		.uleb128 0x1b
 3221 0173 2E       		.uleb128 0x2e
 3222 0174 01       		.byte	0x1
 3223 0175 3F       		.uleb128 0x3f
 3224 0176 19       		.uleb128 0x19
 3225 0177 03       		.uleb128 0x3
 3226 0178 0E       		.uleb128 0xe
 3227 0179 3A       		.uleb128 0x3a
 3228 017a 0B       		.uleb128 0xb
 3229 017b 3B       		.uleb128 0x3b
 3230 017c 05       		.uleb128 0x5
 3231 017d 39       		.uleb128 0x39
 3232 017e 21       		.uleb128 0x21
 3233 017f 08       		.sleb128 8
 3234 0180 27       		.uleb128 0x27
 3235 0181 19       		.uleb128 0x19
ARM GAS  C:\Users\DEVELO~1\AppData\Local\Temp\ccJy2m5y.s 			page 58


 3236 0182 3C       		.uleb128 0x3c
 3237 0183 19       		.uleb128 0x19
 3238 0184 01       		.uleb128 0x1
 3239 0185 13       		.uleb128 0x13
 3240 0186 00       		.byte	0
 3241 0187 00       		.byte	0
 3242 0188 1C       		.uleb128 0x1c
 3243 0189 15       		.uleb128 0x15
 3244 018a 01       		.byte	0x1
 3245 018b 27       		.uleb128 0x27
 3246 018c 19       		.uleb128 0x19
 3247 018d 01       		.uleb128 0x1
 3248 018e 13       		.uleb128 0x13
 3249 018f 00       		.byte	0
 3250 0190 00       		.byte	0
 3251 0191 1D       		.uleb128 0x1d
 3252 0192 2E       		.uleb128 0x2e
 3253 0193 01       		.byte	0x1
 3254 0194 3F       		.uleb128 0x3f
 3255 0195 19       		.uleb128 0x19
 3256 0196 03       		.uleb128 0x3
 3257 0197 0E       		.uleb128 0xe
 3258 0198 3A       		.uleb128 0x3a
 3259 0199 0B       		.uleb128 0xb
 3260 019a 3B       		.uleb128 0x3b
 3261 019b 05       		.uleb128 0x5
 3262 019c 39       		.uleb128 0x39
 3263 019d 0B       		.uleb128 0xb
 3264 019e 27       		.uleb128 0x27
 3265 019f 19       		.uleb128 0x19
 3266 01a0 49       		.uleb128 0x49
 3267 01a1 13       		.uleb128 0x13
 3268 01a2 3C       		.uleb128 0x3c
 3269 01a3 19       		.uleb128 0x19
 3270 01a4 01       		.uleb128 0x1
 3271 01a5 13       		.uleb128 0x13
 3272 01a6 00       		.byte	0
 3273 01a7 00       		.byte	0
 3274 01a8 1E       		.uleb128 0x1e
 3275 01a9 2E       		.uleb128 0x2e
 3276 01aa 00       		.byte	0
 3277 01ab 3F       		.uleb128 0x3f
 3278 01ac 19       		.uleb128 0x19
 3279 01ad 03       		.uleb128 0x3
 3280 01ae 0E       		.uleb128 0xe
 3281 01af 3A       		.uleb128 0x3a
 3282 01b0 0B       		.uleb128 0xb
 3283 01b1 3B       		.uleb128 0x3b
 3284 01b2 05       		.uleb128 0x5
 3285 01b3 39       		.uleb128 0x39
 3286 01b4 21       		.uleb128 0x21
 3287 01b5 08       		.sleb128 8
 3288 01b6 27       		.uleb128 0x27
 3289 01b7 19       		.uleb128 0x19
 3290 01b8 3C       		.uleb128 0x3c
 3291 01b9 19       		.uleb128 0x19
 3292 01ba 00       		.byte	0
ARM GAS  C:\Users\DEVELO~1\AppData\Local\Temp\ccJy2m5y.s 			page 59


 3293 01bb 00       		.byte	0
 3294 01bc 1F       		.uleb128 0x1f
 3295 01bd 0B       		.uleb128 0xb
 3296 01be 01       		.byte	0x1
 3297 01bf 11       		.uleb128 0x11
 3298 01c0 01       		.uleb128 0x1
 3299 01c1 12       		.uleb128 0x12
 3300 01c2 06       		.uleb128 0x6
 3301 01c3 00       		.byte	0
 3302 01c4 00       		.byte	0
 3303 01c5 20       		.uleb128 0x20
 3304 01c6 0B       		.uleb128 0xb
 3305 01c7 01       		.byte	0x1
 3306 01c8 11       		.uleb128 0x11
 3307 01c9 01       		.uleb128 0x1
 3308 01ca 12       		.uleb128 0x12
 3309 01cb 06       		.uleb128 0x6
 3310 01cc 01       		.uleb128 0x1
 3311 01cd 13       		.uleb128 0x13
 3312 01ce 00       		.byte	0
 3313 01cf 00       		.byte	0
 3314 01d0 21       		.uleb128 0x21
 3315 01d1 11       		.uleb128 0x11
 3316 01d2 01       		.byte	0x1
 3317 01d3 25       		.uleb128 0x25
 3318 01d4 0E       		.uleb128 0xe
 3319 01d5 13       		.uleb128 0x13
 3320 01d6 0B       		.uleb128 0xb
 3321 01d7 03       		.uleb128 0x3
 3322 01d8 0E       		.uleb128 0xe
 3323 01d9 1B       		.uleb128 0x1b
 3324 01da 0E       		.uleb128 0xe
 3325 01db 55       		.uleb128 0x55
 3326 01dc 17       		.uleb128 0x17
 3327 01dd 11       		.uleb128 0x11
 3328 01de 01       		.uleb128 0x1
 3329 01df 10       		.uleb128 0x10
 3330 01e0 17       		.uleb128 0x17
 3331 01e1 00       		.byte	0
 3332 01e2 00       		.byte	0
 3333 01e3 22       		.uleb128 0x22
 3334 01e4 24       		.uleb128 0x24
 3335 01e5 00       		.byte	0
 3336 01e6 0B       		.uleb128 0xb
 3337 01e7 0B       		.uleb128 0xb
 3338 01e8 3E       		.uleb128 0x3e
 3339 01e9 0B       		.uleb128 0xb
 3340 01ea 03       		.uleb128 0x3
 3341 01eb 08       		.uleb128 0x8
 3342 01ec 00       		.byte	0
 3343 01ed 00       		.byte	0
 3344 01ee 23       		.uleb128 0x23
 3345 01ef 13       		.uleb128 0x13
 3346 01f0 01       		.byte	0x1
 3347 01f1 03       		.uleb128 0x3
 3348 01f2 0E       		.uleb128 0xe
 3349 01f3 0B       		.uleb128 0xb
ARM GAS  C:\Users\DEVELO~1\AppData\Local\Temp\ccJy2m5y.s 			page 60


 3350 01f4 05       		.uleb128 0x5
 3351 01f5 3A       		.uleb128 0x3a
 3352 01f6 0B       		.uleb128 0xb
 3353 01f7 3B       		.uleb128 0x3b
 3354 01f8 05       		.uleb128 0x5
 3355 01f9 39       		.uleb128 0x39
 3356 01fa 0B       		.uleb128 0xb
 3357 01fb 01       		.uleb128 0x1
 3358 01fc 13       		.uleb128 0x13
 3359 01fd 00       		.byte	0
 3360 01fe 00       		.byte	0
 3361 01ff 24       		.uleb128 0x24
 3362 0200 0F       		.uleb128 0xf
 3363 0201 00       		.byte	0
 3364 0202 0B       		.uleb128 0xb
 3365 0203 0B       		.uleb128 0xb
 3366 0204 00       		.byte	0
 3367 0205 00       		.byte	0
 3368 0206 25       		.uleb128 0x25
 3369 0207 13       		.uleb128 0x13
 3370 0208 01       		.byte	0x1
 3371 0209 0B       		.uleb128 0xb
 3372 020a 05       		.uleb128 0x5
 3373 020b 3A       		.uleb128 0x3a
 3374 020c 0B       		.uleb128 0xb
 3375 020d 3B       		.uleb128 0x3b
 3376 020e 0B       		.uleb128 0xb
 3377 020f 39       		.uleb128 0x39
 3378 0210 0B       		.uleb128 0xb
 3379 0211 01       		.uleb128 0x1
 3380 0212 13       		.uleb128 0x13
 3381 0213 00       		.byte	0
 3382 0214 00       		.byte	0
 3383 0215 26       		.uleb128 0x26
 3384 0216 04       		.uleb128 0x4
 3385 0217 01       		.byte	0x1
 3386 0218 3E       		.uleb128 0x3e
 3387 0219 0B       		.uleb128 0xb
 3388 021a 0B       		.uleb128 0xb
 3389 021b 0B       		.uleb128 0xb
 3390 021c 49       		.uleb128 0x49
 3391 021d 13       		.uleb128 0x13
 3392 021e 3A       		.uleb128 0x3a
 3393 021f 0B       		.uleb128 0xb
 3394 0220 3B       		.uleb128 0x3b
 3395 0221 0B       		.uleb128 0xb
 3396 0222 39       		.uleb128 0x39
 3397 0223 0B       		.uleb128 0xb
 3398 0224 01       		.uleb128 0x1
 3399 0225 13       		.uleb128 0x13
 3400 0226 00       		.byte	0
 3401 0227 00       		.byte	0
 3402 0228 27       		.uleb128 0x27
 3403 0229 17       		.uleb128 0x17
 3404 022a 01       		.byte	0x1
 3405 022b 0B       		.uleb128 0xb
 3406 022c 0B       		.uleb128 0xb
ARM GAS  C:\Users\DEVELO~1\AppData\Local\Temp\ccJy2m5y.s 			page 61


 3407 022d 3A       		.uleb128 0x3a
 3408 022e 0B       		.uleb128 0xb
 3409 022f 3B       		.uleb128 0x3b
 3410 0230 05       		.uleb128 0x5
 3411 0231 39       		.uleb128 0x39
 3412 0232 0B       		.uleb128 0xb
 3413 0233 01       		.uleb128 0x1
 3414 0234 13       		.uleb128 0x13
 3415 0235 00       		.byte	0
 3416 0236 00       		.byte	0
 3417 0237 28       		.uleb128 0x28
 3418 0238 0D       		.uleb128 0xd
 3419 0239 00       		.byte	0
 3420 023a 03       		.uleb128 0x3
 3421 023b 08       		.uleb128 0x8
 3422 023c 3A       		.uleb128 0x3a
 3423 023d 0B       		.uleb128 0xb
 3424 023e 3B       		.uleb128 0x3b
 3425 023f 05       		.uleb128 0x5
 3426 0240 39       		.uleb128 0x39
 3427 0241 0B       		.uleb128 0xb
 3428 0242 49       		.uleb128 0x49
 3429 0243 13       		.uleb128 0x13
 3430 0244 00       		.byte	0
 3431 0245 00       		.byte	0
 3432 0246 29       		.uleb128 0x29
 3433 0247 34       		.uleb128 0x34
 3434 0248 00       		.byte	0
 3435 0249 03       		.uleb128 0x3
 3436 024a 0E       		.uleb128 0xe
 3437 024b 3A       		.uleb128 0x3a
 3438 024c 0B       		.uleb128 0xb
 3439 024d 3B       		.uleb128 0x3b
 3440 024e 05       		.uleb128 0x5
 3441 024f 39       		.uleb128 0x39
 3442 0250 0B       		.uleb128 0xb
 3443 0251 49       		.uleb128 0x49
 3444 0252 13       		.uleb128 0x13
 3445 0253 3F       		.uleb128 0x3f
 3446 0254 19       		.uleb128 0x19
 3447 0255 3C       		.uleb128 0x3c
 3448 0256 19       		.uleb128 0x19
 3449 0257 00       		.byte	0
 3450 0258 00       		.byte	0
 3451 0259 2A       		.uleb128 0x2a
 3452 025a 34       		.uleb128 0x34
 3453 025b 00       		.byte	0
 3454 025c 03       		.uleb128 0x3
 3455 025d 0E       		.uleb128 0xe
 3456 025e 3A       		.uleb128 0x3a
 3457 025f 0B       		.uleb128 0xb
 3458 0260 3B       		.uleb128 0x3b
 3459 0261 0B       		.uleb128 0xb
 3460 0262 39       		.uleb128 0x39
 3461 0263 0B       		.uleb128 0xb
 3462 0264 49       		.uleb128 0x49
 3463 0265 13       		.uleb128 0x13
ARM GAS  C:\Users\DEVELO~1\AppData\Local\Temp\ccJy2m5y.s 			page 62


 3464 0266 8801     		.uleb128 0x88
 3465 0268 0B       		.uleb128 0xb
 3466 0269 02       		.uleb128 0x2
 3467 026a 18       		.uleb128 0x18
 3468 026b 00       		.byte	0
 3469 026c 00       		.byte	0
 3470 026d 2B       		.uleb128 0x2b
 3471 026e 18       		.uleb128 0x18
 3472 026f 00       		.byte	0
 3473 0270 00       		.byte	0
 3474 0271 00       		.byte	0
 3475 0272 2C       		.uleb128 0x2c
 3476 0273 2E       		.uleb128 0x2e
 3477 0274 01       		.byte	0x1
 3478 0275 3F       		.uleb128 0x3f
 3479 0276 19       		.uleb128 0x19
 3480 0277 03       		.uleb128 0x3
 3481 0278 0E       		.uleb128 0xe
 3482 0279 3A       		.uleb128 0x3a
 3483 027a 0B       		.uleb128 0xb
 3484 027b 3B       		.uleb128 0x3b
 3485 027c 0B       		.uleb128 0xb
 3486 027d 39       		.uleb128 0x39
 3487 027e 0B       		.uleb128 0xb
 3488 027f 27       		.uleb128 0x27
 3489 0280 19       		.uleb128 0x19
 3490 0281 3C       		.uleb128 0x3c
 3491 0282 19       		.uleb128 0x19
 3492 0283 01       		.uleb128 0x1
 3493 0284 13       		.uleb128 0x13
 3494 0285 00       		.byte	0
 3495 0286 00       		.byte	0
 3496 0287 2D       		.uleb128 0x2d
 3497 0288 2E       		.uleb128 0x2e
 3498 0289 01       		.byte	0x1
 3499 028a 3F       		.uleb128 0x3f
 3500 028b 19       		.uleb128 0x19
 3501 028c 03       		.uleb128 0x3
 3502 028d 0E       		.uleb128 0xe
 3503 028e 3A       		.uleb128 0x3a
 3504 028f 0B       		.uleb128 0xb
 3505 0290 3B       		.uleb128 0x3b
 3506 0291 0B       		.uleb128 0xb
 3507 0292 39       		.uleb128 0x39
 3508 0293 0B       		.uleb128 0xb
 3509 0294 27       		.uleb128 0x27
 3510 0295 19       		.uleb128 0x19
 3511 0296 49       		.uleb128 0x49
 3512 0297 13       		.uleb128 0x13
 3513 0298 11       		.uleb128 0x11
 3514 0299 01       		.uleb128 0x1
 3515 029a 12       		.uleb128 0x12
 3516 029b 06       		.uleb128 0x6
 3517 029c 40       		.uleb128 0x40
 3518 029d 18       		.uleb128 0x18
 3519 029e 7C       		.uleb128 0x7c
 3520 029f 19       		.uleb128 0x19
ARM GAS  C:\Users\DEVELO~1\AppData\Local\Temp\ccJy2m5y.s 			page 63


 3521 02a0 01       		.uleb128 0x1
 3522 02a1 13       		.uleb128 0x13
 3523 02a2 00       		.byte	0
 3524 02a3 00       		.byte	0
 3525 02a4 2E       		.uleb128 0x2e
 3526 02a5 2E       		.uleb128 0x2e
 3527 02a6 01       		.byte	0x1
 3528 02a7 03       		.uleb128 0x3
 3529 02a8 0E       		.uleb128 0xe
 3530 02a9 3A       		.uleb128 0x3a
 3531 02aa 0B       		.uleb128 0xb
 3532 02ab 3B       		.uleb128 0x3b
 3533 02ac 0B       		.uleb128 0xb
 3534 02ad 39       		.uleb128 0x39
 3535 02ae 0B       		.uleb128 0xb
 3536 02af 27       		.uleb128 0x27
 3537 02b0 19       		.uleb128 0x19
 3538 02b1 11       		.uleb128 0x11
 3539 02b2 01       		.uleb128 0x1
 3540 02b3 12       		.uleb128 0x12
 3541 02b4 06       		.uleb128 0x6
 3542 02b5 40       		.uleb128 0x40
 3543 02b6 18       		.uleb128 0x18
 3544 02b7 7A       		.uleb128 0x7a
 3545 02b8 19       		.uleb128 0x19
 3546 02b9 00       		.byte	0
 3547 02ba 00       		.byte	0
 3548 02bb 2F       		.uleb128 0x2f
 3549 02bc 05       		.uleb128 0x5
 3550 02bd 00       		.byte	0
 3551 02be 03       		.uleb128 0x3
 3552 02bf 08       		.uleb128 0x8
 3553 02c0 3A       		.uleb128 0x3a
 3554 02c1 0B       		.uleb128 0xb
 3555 02c2 3B       		.uleb128 0x3b
 3556 02c3 0B       		.uleb128 0xb
 3557 02c4 39       		.uleb128 0x39
 3558 02c5 0B       		.uleb128 0xb
 3559 02c6 49       		.uleb128 0x49
 3560 02c7 13       		.uleb128 0x13
 3561 02c8 02       		.uleb128 0x2
 3562 02c9 18       		.uleb128 0x18
 3563 02ca 00       		.byte	0
 3564 02cb 00       		.byte	0
 3565 02cc 00       		.byte	0
 3566              		.section	.debug_aranges,"",%progbits
 3567 0000 24000000 		.4byte	0x24
 3568 0004 0200     		.2byte	0x2
 3569 0006 00000000 		.4byte	.Ldebug_info0
 3570 000a 04       		.byte	0x4
 3571 000b 00       		.byte	0
 3572 000c 0000     		.2byte	0
 3573 000e 0000     		.2byte	0
 3574 0010 00000000 		.4byte	.LFB435
 3575 0014 88000000 		.4byte	.LFE435-.LFB435
 3576 0018 00000000 		.4byte	.LFB436
 3577 001c 18010000 		.4byte	.LFE436-.LFB436
ARM GAS  C:\Users\DEVELO~1\AppData\Local\Temp\ccJy2m5y.s 			page 64


 3578 0020 00000000 		.4byte	0
 3579 0024 00000000 		.4byte	0
 3580              		.section	.debug_rnglists,"",%progbits
 3581              	.Ldebug_ranges0:
 3582 0000 17000000 		.4byte	.Ldebug_ranges3-.Ldebug_ranges2
 3583              	.Ldebug_ranges2:
 3584 0004 0500     		.2byte	0x5
 3585 0006 04       		.byte	0x4
 3586 0007 00       		.byte	0
 3587 0008 00000000 		.4byte	0
 3588              	.LLRL0:
 3589 000c 07       		.byte	0x7
 3590 000d 00000000 		.4byte	.LFB435
 3591 0011 8801     		.uleb128 .LFE435-.LFB435
 3592 0013 07       		.byte	0x7
 3593 0014 00000000 		.4byte	.LFB436
 3594 0018 9802     		.uleb128 .LFE436-.LFB436
 3595 001a 00       		.byte	0
 3596              	.Ldebug_ranges3:
 3597              		.section	.debug_line,"",%progbits
 3598              	.Ldebug_line0:
 3599 0000 C2040000 		.section	.debug_str,"MS",%progbits,1
 3599      0300E903 
 3599      00000201 
 3599      FB0E0D00 
 3599      01010101 
 3600              	.LASF11:
 3601 0000 6C6F6E67 		.ascii	"long int\000"
 3601      20696E74 
 3601      00
 3602              	.LASF103:
 3603 0009 53515234 		.ascii	"SQR4\000"
 3603      00
 3604              	.LASF156:
 3605 000e 77746D74 		.ascii	"wtmtxp\000"
 3605      787000
 3606              	.LASF215:
 3607 0015 63697263 		.ascii	"circular\000"
 3607      756C6172 
 3607      00
 3608              	.LASF148:
 3609 001e 74687265 		.ascii	"thread_reference_t\000"
 3609      61645F72 
 3609      65666572 
 3609      656E6365 
 3609      5F7400
 3610              	.LASF182:
 3611 0031 42535252 		.ascii	"BSRR\000"
 3611      00
 3612              	.LASF109:
 3613 0036 4F465232 		.ascii	"OFR2\000"
 3613      00
 3614              	.LASF249:
 3615 003b 6472765F 		.ascii	"drv_display_init\000"
 3615      64697370 
 3615      6C61795F 
 3615      696E6974 
ARM GAS  C:\Users\DEVELO~1\AppData\Local\Temp\ccJy2m5y.s 			page 65


 3615      00
 3616              	.LASF145:
 3617 004c 63685F72 		.ascii	"ch_registry\000"
 3617      65676973 
 3617      74727900 
 3618              	.LASF208:
 3619 0058 646D616D 		.ascii	"dmamode\000"
 3619      6F646500 
 3620              	.LASF37:
 3621 0060 666C6167 		.ascii	"flags\000"
 3621      7300
 3622              	.LASF64:
 3623 0066 73797374 		.ascii	"systime_t\000"
 3623      696D655F 
 3623      7400
 3624              	.LASF43:
 3625 0070 7265616C 		.ascii	"realprio\000"
 3625      7072696F 
 3625      00
 3626              	.LASF89:
 3627 0079 62756666 		.ascii	"buffer\000"
 3627      657200
 3628              	.LASF87:
 3629 0080 73757370 		.ascii	"suspended\000"
 3629      656E6465 
 3629      6400
 3630              	.LASF41:
 3631 008a 6570656E 		.ascii	"epending\000"
 3631      64696E67 
 3631      00
 3632              	.LASF0:
 3633 0093 756E7369 		.ascii	"unsigned int\000"
 3633      676E6564 
 3633      20696E74 
 3633      00
 3634              	.LASF69:
 3635 00a0 6E657874 		.ascii	"next\000"
 3635      00
 3636              	.LASF19:
 3637 00a5 75696E74 		.ascii	"uint32_t\000"
 3637      33325F74 
 3637      00
 3638              	.LASF51:
 3639 00ae 636F7265 		.ascii	"core_id\000"
 3639      5F696400 
 3640              	.LASF234:
 3641 00b6 6164635F 		.ascii	"adc_ldd_dma_reference_t\000"
 3641      6C64645F 
 3641      646D615F 
 3641      72656665 
 3641      72656E63 
 3642              	.LASF10:
 3643 00ce 5F5F696E 		.ascii	"__int32_t\000"
 3643      7433325F 
 3643      7400
 3644              	.LASF38:
 3645 00d8 72656673 		.ascii	"refs\000"
ARM GAS  C:\Users\DEVELO~1\AppData\Local\Temp\ccJy2m5y.s 			page 66


 3645      00
 3646              	.LASF238:
 3647 00dd 6164635F 		.ascii	"adc_buf\000"
 3647      62756600 
 3648              	.LASF223:
 3649 00e5 68747231 		.ascii	"htr1\000"
 3649      00
 3650              	.LASF225:
 3651 00ea 68747232 		.ascii	"htr2\000"
 3651      00
 3652              	.LASF227:
 3653 00ef 68747233 		.ascii	"htr3\000"
 3653      00
 3654              	.LASF218:
 3655 00f4 6572726F 		.ascii	"error_cb\000"
 3655      725F6362 
 3655      00
 3656              	.LASF189:
 3657 00fd 696F6C69 		.ascii	"ioline_t\000"
 3657      6E655F74 
 3657      00
 3658              	.LASF49:
 3659 0106 76746C69 		.ascii	"vtlist\000"
 3659      737400
 3660              	.LASF139:
 3661 010d 706F7274 		.ascii	"port_context\000"
 3661      5F636F6E 
 3661      74657874 
 3661      00
 3662              	.LASF7:
 3663 011a 73686F72 		.ascii	"short int\000"
 3663      7420696E 
 3663      7400
 3664              	.LASF160:
 3665 0124 63685F72 		.ascii	"ch_ready_list\000"
 3665      65616479 
 3665      5F6C6973 
 3665      7400
 3666              	.LASF133:
 3667 0132 4E445452 		.ascii	"NDTR\000"
 3667      00
 3668              	.LASF143:
 3669 0137 6C617374 		.ascii	"laststamp\000"
 3669      7374616D 
 3669      7000
 3670              	.LASF157:
 3671 0141 65776D61 		.ascii	"ewmask\000"
 3671      736B00
 3672              	.LASF72:
 3673 0148 70726576 		.ascii	"prev\000"
 3673      00
 3674              	.LASF68:
 3675 014d 63685F6C 		.ascii	"ch_list\000"
 3675      69737400 
 3676              	.LASF96:
 3677 0155 4C545231 		.ascii	"LTR1\000"
 3677      00
ARM GAS  C:\Users\DEVELO~1\AppData\Local\Temp\ccJy2m5y.s 			page 67


 3678              	.LASF122:
 3679 015a 4C545232 		.ascii	"LTR2\000"
 3679      00
 3680              	.LASF124:
 3681 015f 4C545233 		.ascii	"LTR3\000"
 3681      00
 3682              	.LASF79:
 3683 0164 77746F62 		.ascii	"wtobjp\000"
 3683      6A7000
 3684              	.LASF126:
 3685 016b 44494653 		.ascii	"DIFSEL\000"
 3685      454C00
 3686              	.LASF60:
 3687 0172 63685F73 		.ascii	"ch_system_debug\000"
 3687      79737465 
 3687      6D5F6465 
 3687      62756700 
 3688              	.LASF149:
 3689 0182 6C697374 		.ascii	"list\000"
 3689      00
 3690              	.LASF77:
 3691 0187 63685F64 		.ascii	"ch_delta_list\000"
 3691      656C7461 
 3691      5F6C6973 
 3691      7400
 3692              	.LASF236:
 3693 0195 61646365 		.ascii	"adcerrorcallback_t\000"
 3693      72726F72 
 3693      63616C6C 
 3693      6261636B 
 3693      5F7400
 3694              	.LASF154:
 3695 01a8 73656E74 		.ascii	"sentmsg\000"
 3695      6D736700 
 3696              	.LASF28:
 3697 01b0 6576656E 		.ascii	"eventmask_t\000"
 3697      746D6173 
 3697      6B5F7400 
 3698              	.LASF172:
 3699 01bc 69666372 		.ascii	"ifcr\000"
 3699      00
 3700              	.LASF86:
 3701 01c1 74726163 		.ascii	"trace_event_t\000"
 3701      655F6576 
 3701      656E745F 
 3701      7400
 3702              	.LASF219:
 3703 01cf 63666772 		.ascii	"cfgr\000"
 3703      00
 3704              	.LASF204:
 3705 01d4 6D757465 		.ascii	"mutex\000"
 3705      7800
 3706              	.LASF173:
 3707 01da 73686966 		.ascii	"shift\000"
 3707      7400
 3708              	.LASF158:
 3709 01e0 63685F73 		.ascii	"ch_semaphore\000"
ARM GAS  C:\Users\DEVELO~1\AppData\Local\Temp\ccJy2m5y.s 			page 68


 3709      656D6170 
 3709      686F7265 
 3709      00
 3710              	.LASF26:
 3711 01ed 74707269 		.ascii	"tprio_t\000"
 3711      6F5F7400 
 3712              	.LASF40:
 3713 01f5 6D736771 		.ascii	"msgqueue\000"
 3713      75657565 
 3713      00
 3714              	.LASF168:
 3715 01fe 6F735F69 		.ascii	"os_instance_config_t\000"
 3715      6E737461 
 3715      6E63655F 
 3715      636F6E66 
 3715      69675F74 
 3716              	.LASF217:
 3717 0213 656E645F 		.ascii	"end_cb\000"
 3717      636200
 3718              	.LASF81:
 3719 021a 68616C74 		.ascii	"halt\000"
 3719      00
 3720              	.LASF15:
 3721 021f 6C6F6E67 		.ascii	"long long unsigned int\000"
 3721      206C6F6E 
 3721      6720756E 
 3721      7369676E 
 3721      65642069 
 3722              	.LASF112:
 3723 0236 52455345 		.ascii	"RESERVED6\000"
 3723      52564544 
 3723      3600
 3724              	.LASF95:
 3725 0240 50435345 		.ascii	"PCSEL\000"
 3725      4C00
 3726              	.LASF55:
 3727 0246 74726163 		.ascii	"trace_buffer\000"
 3727      655F6275 
 3727      66666572 
 3727      00
 3728              	.LASF175:
 3729 0253 76656374 		.ascii	"vector\000"
 3729      6F7200
 3730              	.LASF150:
 3731 025a 70717565 		.ascii	"pqueue\000"
 3731      756500
 3732              	.LASF8:
 3733 0261 5F5F7569 		.ascii	"__uint16_t\000"
 3733      6E743136 
 3733      5F7400
 3734              	.LASF29:
 3735 026c 636E745F 		.ascii	"cnt_t\000"
 3735      7400
 3736              	.LASF248:
 3737 0272 5F70616C 		.ascii	"_pal_lld_setgroupmode\000"
 3737      5F6C6C64 
 3737      5F736574 
ARM GAS  C:\Users\DEVELO~1\AppData\Local\Temp\ccJy2m5y.s 			page 69


 3737      67726F75 
 3737      706D6F64 
 3738              	.LASF178:
 3739 0288 4D4F4445 		.ascii	"MODER\000"
 3739      5200
 3740              	.LASF255:
 3741 028e 474E5520 		.ascii	"GNU C17 11.3.1 20220712 -mcpu=cortex-m7 -mthumb -mf"
 3741      43313720 
 3741      31312E33 
 3741      2E312032 
 3741      30323230 
 3742 02c1 6C6F6174 		.ascii	"loat-abi=soft -march=armv7e-m -ggdb -O0 -ffunction-"
 3742      2D616269 
 3742      3D736F66 
 3742      74202D6D 
 3742      61726368 
 3743 02f4 73656374 		.ascii	"sections -fdata-sections -fno-common\000"
 3743      696F6E73 
 3743      202D6664 
 3743      6174612D 
 3743      73656374 
 3744              	.LASF85:
 3745 0319 74696D65 		.ascii	"time\000"
 3745      00
 3746              	.LASF185:
 3747 031e 41465248 		.ascii	"AFRH\000"
 3747      00
 3748              	.LASF186:
 3749 0323 73746D33 		.ascii	"stm32_gpio_t\000"
 3749      325F6770 
 3749      696F5F74 
 3749      00
 3750              	.LASF33:
 3751 0330 6F776E65 		.ascii	"owner\000"
 3751      7200
 3752              	.LASF165:
 3753 0336 6D61696E 		.ascii	"mainthread_end\000"
 3753      74687265 
 3753      61645F65 
 3753      6E6400
 3754              	.LASF177:
 3755 0345 636C6561 		.ascii	"clear\000"
 3755      7200
 3756              	.LASF42:
 3757 034b 6D74786C 		.ascii	"mtxlist\000"
 3757      69737400 
 3758              	.LASF140:
 3759 0353 63685F76 		.ascii	"ch_virtual_timers_list\000"
 3759      69727475 
 3759      616C5F74 
 3759      696D6572 
 3759      735F6C69 
 3760              	.LASF257:
 3761 036a 433A5C50 		.ascii	"C:\\PROJET\\ChibiOS project\\ChibiOS_21.11.4\\demos"
 3761      524F4A45 
 3761      545C4368 
 3761      6962694F 
ARM GAS  C:\Users\DEVELO~1\AppData\Local\Temp\ccJy2m5y.s 			page 70


 3761      53207072 
 3762 0399 5C53544D 		.ascii	"\\STM32\\RT-STM32H743ZI_REV_XY-NUCLEO144_Quartz8M\000"
 3762      33325C52 
 3762      542D5354 
 3762      4D333248 
 3762      3734335A 
 3763              	.LASF52:
 3764 03c9 72666375 		.ascii	"rfcu\000"
 3764      00
 3765              	.LASF31:
 3766 03ce 74687265 		.ascii	"thread_t\000"
 3766      61645F74 
 3766      00
 3767              	.LASF130:
 3768 03d7 52455345 		.ascii	"RESERVED\000"
 3768      52564544 
 3768      00
 3769              	.LASF82:
 3770 03e0 75736572 		.ascii	"user\000"
 3770      00
 3771              	.LASF4:
 3772 03e5 73697A65 		.ascii	"size_t\000"
 3772      5F7400
 3773              	.LASF151:
 3774 03ec 7264796D 		.ascii	"rdymsg\000"
 3774      736700
 3775              	.LASF198:
 3776 03f3 41444344 		.ascii	"ADCDriver\000"
 3776      72697665 
 3776      7200
 3777              	.LASF73:
 3778 03fd 63685F70 		.ascii	"ch_priority_queue_t\000"
 3778      72696F72 
 3778      6974795F 
 3778      71756575 
 3778      655F7400 
 3779              	.LASF108:
 3780 0411 4F465231 		.ascii	"OFR1\000"
 3780      00
 3781              	.LASF170:
 3782 0416 5F426F6F 		.ascii	"_Bool\000"
 3782      6C00
 3783              	.LASF110:
 3784 041c 4F465233 		.ascii	"OFR3\000"
 3784      00
 3785              	.LASF111:
 3786 0421 4F465234 		.ascii	"OFR4\000"
 3786      00
 3787              	.LASF181:
 3788 0426 50555044 		.ascii	"PUPDR\000"
 3788      5200
 3789              	.LASF128:
 3790 042c 43414C46 		.ascii	"CALFACT2\000"
 3790      41435432 
 3790      00
 3791              	.LASF57:
 3792 0435 63685F72 		.ascii	"ch_rfcu\000"
ARM GAS  C:\Users\DEVELO~1\AppData\Local\Temp\ccJy2m5y.s 			page 71


 3792      66637500 
 3793              	.LASF159:
 3794 043d 63685F6D 		.ascii	"ch_mutex\000"
 3794      75746578 
 3794      00
 3795              	.LASF134:
 3796 0446 4D304152 		.ascii	"M0AR\000"
 3796      00
 3797              	.LASF47:
 3798 044b 63685F6F 		.ascii	"ch_os_instance\000"
 3798      735F696E 
 3798      7374616E 
 3798      636500
 3799              	.LASF259:
 3800 045a 6D75785F 		.ascii	"mux_set\000"
 3800      73657400 
 3801              	.LASF190:
 3802 0462 696F706F 		.ascii	"ioportid_t\000"
 3802      72746964 
 3802      5F7400
 3803              	.LASF221:
 3804 046d 70637365 		.ascii	"pcsel\000"
 3804      6C00
 3805              	.LASF195:
 3806 0473 4144435F 		.ascii	"ADC_COMPLETE\000"
 3806      434F4D50 
 3806      4C455445 
 3806      00
 3807              	.LASF196:
 3808 0480 4144435F 		.ascii	"ADC_ERROR\000"
 3808      4552524F 
 3808      5200
 3809              	.LASF199:
 3810 048a 68616C5F 		.ascii	"hal_adc_driver\000"
 3810      6164635F 
 3810      64726976 
 3810      657200
 3811              	.LASF167:
 3812 0499 69646C65 		.ascii	"idlethread_end\000"
 3812      74687265 
 3812      61645F65 
 3812      6E6400
 3813              	.LASF75:
 3814 04a8 7072696F 		.ascii	"prio\000"
 3814      00
 3815              	.LASF244:
 3816 04ad 6472765F 		.ascii	"drv_display_update\000"
 3816      64697370 
 3816      6C61795F 
 3816      75706461 
 3816      746500
 3817              	.LASF62:
 3818 04c0 63686172 		.ascii	"char\000"
 3818      00
 3819              	.LASF251:
 3820 04c5 63685379 		.ascii	"chSysInit\000"
 3820      73496E69 
ARM GAS  C:\Users\DEVELO~1\AppData\Local\Temp\ccJy2m5y.s 			page 72


 3820      7400
 3821              	.LASF76:
 3822 04cf 63685F64 		.ascii	"ch_delta_list_t\000"
 3822      656C7461 
 3822      5F6C6973 
 3822      745F7400 
 3823              	.LASF56:
 3824 04df 72666375 		.ascii	"rfcu_mask_t\000"
 3824      5F6D6173 
 3824      6B5F7400 
 3825              	.LASF222:
 3826 04eb 6C747231 		.ascii	"ltr1\000"
 3826      00
 3827              	.LASF224:
 3828 04f0 6C747232 		.ascii	"ltr2\000"
 3828      00
 3829              	.LASF226:
 3830 04f5 6C747233 		.ascii	"ltr3\000"
 3830      00
 3831              	.LASF66:
 3832 04fa 74696D65 		.ascii	"time_conv_t\000"
 3832      5F636F6E 
 3832      765F7400 
 3833              	.LASF35:
 3834 0506 77616261 		.ascii	"wabase\000"
 3834      736500
 3835              	.LASF24:
 3836 050d 74737461 		.ascii	"tstate_t\000"
 3836      74655F74 
 3836      00
 3837              	.LASF32:
 3838 0516 72717565 		.ascii	"rqueue\000"
 3838      756500
 3839              	.LASF164:
 3840 051d 6D61696E 		.ascii	"mainthread_base\000"
 3840      74687265 
 3840      61645F62 
 3840      61736500 
 3841              	.LASF197:
 3842 052d 61646373 		.ascii	"adcstate_t\000"
 3842      74617465 
 3842      5F7400
 3843              	.LASF176:
 3844 0538 73746D33 		.ascii	"stm32_dma_stream_t\000"
 3844      325F646D 
 3844      615F7374 
 3844      7265616D 
 3844      5F7400
 3845              	.LASF14:
 3846 054b 5F5F7569 		.ascii	"__uint64_t\000"
 3846      6E743634 
 3846      5F7400
 3847              	.LASF16:
 3848 0556 75696E74 		.ascii	"uint8_t\000"
 3848      385F7400 
 3849              	.LASF127:
 3850 055e 43414C46 		.ascii	"CALFACT\000"
ARM GAS  C:\Users\DEVELO~1\AppData\Local\Temp\ccJy2m5y.s 			page 73


 3850      41435400 
 3851              	.LASF240:
 3852 0566 61646367 		.ascii	"adcgrpcfg\000"
 3852      72706366 
 3852      6700
 3853              	.LASF171:
 3854 0570 73747265 		.ascii	"stream\000"
 3854      616D00
 3855              	.LASF46:
 3856 0577 63685F74 		.ascii	"ch_thread\000"
 3856      68726561 
 3856      6400
 3857              	.LASF247:
 3858 0581 61646353 		.ascii	"adcStart\000"
 3858      74617274 
 3858      00
 3859              	.LASF63:
 3860 058a 73797374 		.ascii	"system_debug_t\000"
 3860      656D5F64 
 3860      65627567 
 3860      5F7400
 3861              	.LASF200:
 3862 0599 73616D70 		.ascii	"samples\000"
 3862      6C657300 
 3863              	.LASF129:
 3864 05a1 4144435F 		.ascii	"ADC_TypeDef\000"
 3864      54797065 
 3864      44656600 
 3865              	.LASF1:
 3866 05ad 6C6F6E67 		.ascii	"long long int\000"
 3866      206C6F6E 
 3866      6720696E 
 3866      7400
 3867              	.LASF118:
 3868 05bb 41574432 		.ascii	"AWD2CR\000"
 3868      435200
 3869              	.LASF230:
 3870 05c2 736D7072 		.ascii	"smpr\000"
 3870      00
 3871              	.LASF119:
 3872 05c7 41574433 		.ascii	"AWD3CR\000"
 3872      435200
 3873              	.LASF201:
 3874 05ce 64657074 		.ascii	"depth\000"
 3874      6800
 3875              	.LASF27:
 3876 05d4 6D73675F 		.ascii	"msg_t\000"
 3876      7400
 3877              	.LASF233:
 3878 05da 61646365 		.ascii	"adcerror_t\000"
 3878      72726F72 
 3878      5F7400
 3879              	.LASF209:
 3880 05e5 41444343 		.ascii	"ADCConfig\000"
 3880      6F6E6669 
 3880      6700
 3881              	.LASF235:
ARM GAS  C:\Users\DEVELO~1\AppData\Local\Temp\ccJy2m5y.s 			page 74


 3882 05ef 61646363 		.ascii	"adccallback_t\000"
 3882      616C6C62 
 3882      61636B5F 
 3882      7400
 3883              	.LASF147:
 3884 05fd 72656769 		.ascii	"registry_t\000"
 3884      73747279 
 3884      5F7400
 3885              	.LASF187:
 3886 0608 696F706F 		.ascii	"ioportmask_t\000"
 3886      72746D61 
 3886      736B5F74 
 3886      00
 3887              	.LASF246:
 3888 0615 736E7072 		.ascii	"snprintf\000"
 3888      696E7466 
 3888      00
 3889              	.LASF136:
 3890 061e 444D415F 		.ascii	"DMA_Stream_TypeDef\000"
 3890      53747265 
 3890      616D5F54 
 3890      79706544 
 3890      656600
 3891              	.LASF88:
 3892 0631 73697A65 		.ascii	"size\000"
 3892      00
 3893              	.LASF58:
 3894 0636 6D61736B 		.ascii	"mask\000"
 3894      00
 3895              	.LASF92:
 3896 063b 43464752 		.ascii	"CFGR2\000"
 3896      3200
 3897              	.LASF239:
 3898 0641 61646363 		.ascii	"adccfg\000"
 3898      666700
 3899              	.LASF65:
 3900 0648 73797369 		.ascii	"sysinterval_t\000"
 3900      6E746572 
 3900      76616C5F 
 3900      7400
 3901              	.LASF70:
 3902 0656 63685F71 		.ascii	"ch_queue_t\000"
 3902      75657565 
 3902      5F7400
 3903              	.LASF61:
 3904 0661 70616E69 		.ascii	"panic_msg\000"
 3904      635F6D73 
 3904      6700
 3905              	.LASF90:
 3906 066b 74726163 		.ascii	"trace_buffer_t\000"
 3906      655F6275 
 3906      66666572 
 3906      5F7400
 3907              	.LASF23:
 3908 067a 746D6F64 		.ascii	"tmode_t\000"
 3908      655F7400 
 3909              	.LASF241:
ARM GAS  C:\Users\DEVELO~1\AppData\Local\Temp\ccJy2m5y.s 			page 75


 3910 0682 61646353 		.ascii	"adcStartConversion\000"
 3910      74617274 
 3910      436F6E76 
 3910      65727369 
 3910      6F6E00
 3911              	.LASF93:
 3912 0695 534D5052 		.ascii	"SMPR1\000"
 3912      3100
 3913              	.LASF94:
 3914 069b 534D5052 		.ascii	"SMPR2\000"
 3914      3200
 3915              	.LASF207:
 3916 06a1 64617461 		.ascii	"data\000"
 3916      00
 3917              	.LASF54:
 3918 06a6 6D61696E 		.ascii	"mainthread\000"
 3918      74687265 
 3918      616400
 3919              	.LASF231:
 3920 06b1 61646373 		.ascii	"adcsample_t\000"
 3920      616D706C 
 3920      655F7400 
 3921              	.LASF180:
 3922 06bd 4F535045 		.ascii	"OSPEEDR\000"
 3922      45445200 
 3923              	.LASF237:
 3924 06c5 41444344 		.ascii	"ADCD1\000"
 3924      3100
 3925              	.LASF183:
 3926 06cb 4C4F434B 		.ascii	"LOCKR\000"
 3926      5200
 3927              	.LASF131:
 3928 06d1 43445232 		.ascii	"CDR2\000"
 3928      00
 3929              	.LASF2:
 3930 06d6 6C6F6E67 		.ascii	"long double\000"
 3930      20646F75 
 3930      626C6500 
 3931              	.LASF17:
 3932 06e2 75696E74 		.ascii	"uint16_t\000"
 3932      31365F74 
 3932      00
 3933              	.LASF67:
 3934 06eb 63685F6C 		.ascii	"ch_list_t\000"
 3934      6973745F 
 3934      7400
 3935              	.LASF144:
 3936 06f5 76697274 		.ascii	"virtual_timers_list_t\000"
 3936      75616C5F 
 3936      74696D65 
 3936      72735F6C 
 3936      6973745F 
 3937              	.LASF194:
 3938 070b 4144435F 		.ascii	"ADC_ACTIVE\000"
 3938      41435449 
 3938      564500
 3939              	.LASF53:
ARM GAS  C:\Users\DEVELO~1\AppData\Local\Temp\ccJy2m5y.s 			page 76


 3940 0716 636F6E66 		.ascii	"config\000"
 3940      696700
 3941              	.LASF113:
 3942 071d 4A445231 		.ascii	"JDR1\000"
 3942      00
 3943              	.LASF114:
 3944 0722 4A445232 		.ascii	"JDR2\000"
 3944      00
 3945              	.LASF115:
 3946 0727 4A445233 		.ascii	"JDR3\000"
 3946      00
 3947              	.LASF116:
 3948 072c 4A445234 		.ascii	"JDR4\000"
 3948      00
 3949              	.LASF137:
 3950 0731 444D414D 		.ascii	"DMAMUX_Channel_TypeDef\000"
 3950      55585F43 
 3950      68616E6E 
 3950      656C5F54 
 3950      79706544 
 3951              	.LASF98:
 3952 0748 52455345 		.ascii	"RESERVED1\000"
 3952      52564544 
 3952      3100
 3953              	.LASF99:
 3954 0752 52455345 		.ascii	"RESERVED2\000"
 3954      52564544 
 3954      3200
 3955              	.LASF104:
 3956 075c 52455345 		.ascii	"RESERVED3\000"
 3956      52564544 
 3956      3300
 3957              	.LASF105:
 3958 0766 52455345 		.ascii	"RESERVED4\000"
 3958      52564544 
 3958      3400
 3959              	.LASF211:
 3960 0770 64696673 		.ascii	"difsel\000"
 3960      656C00
 3961              	.LASF117:
 3962 0777 52455345 		.ascii	"RESERVED7\000"
 3962      52564544 
 3962      3700
 3963              	.LASF132:
 3964 0781 4144435F 		.ascii	"ADC_Common_TypeDef\000"
 3964      436F6D6D 
 3964      6F6E5F54 
 3964      79706544 
 3964      656600
 3965              	.LASF232:
 3966 0794 6164635F 		.ascii	"adc_channels_num_t\000"
 3966      6368616E 
 3966      6E656C73 
 3966      5F6E756D 
 3966      5F7400
 3967              	.LASF220:
 3968 07a7 63666772 		.ascii	"cfgr2\000"
ARM GAS  C:\Users\DEVELO~1\AppData\Local\Temp\ccJy2m5y.s 			page 77


 3968      3200
 3969              	.LASF138:
 3970 07ad 706F7274 		.ascii	"port_intctx\000"
 3970      5F696E74 
 3970      63747800 
 3971              	.LASF213:
 3972 07b9 41444343 		.ascii	"ADCConversionGroup\000"
 3972      6F6E7665 
 3972      7273696F 
 3972      6E47726F 
 3972      757000
 3973              	.LASF216:
 3974 07cc 6E756D5F 		.ascii	"num_channels\000"
 3974      6368616E 
 3974      6E656C73 
 3974      00
 3975              	.LASF210:
 3976 07d9 68616C5F 		.ascii	"hal_adc_config\000"
 3976      6164635F 
 3976      636F6E66 
 3976      696700
 3977              	.LASF21:
 3978 07e8 706F7274 		.ascii	"port_stkalign_t\000"
 3978      5F73746B 
 3978      616C6967 
 3978      6E5F7400 
 3979              	.LASF179:
 3980 07f8 4F545950 		.ascii	"OTYPER\000"
 3980      455200
 3981              	.LASF163:
 3982 07ff 63685F6F 		.ascii	"ch_os_instance_config\000"
 3982      735F696E 
 3982      7374616E 
 3982      63655F63 
 3982      6F6E6669 
 3983              	.LASF141:
 3984 0815 646C6973 		.ascii	"dlist\000"
 3984      7400
 3985              	.LASF142:
 3986 081b 6C617374 		.ascii	"lasttime\000"
 3986      74696D65 
 3986      00
 3987              	.LASF20:
 3988 0824 75696E74 		.ascii	"uint64_t\000"
 3988      36345F74 
 3988      00
 3989              	.LASF252:
 3990 082d 68616C49 		.ascii	"halInit\000"
 3990      6E697400 
 3991              	.LASF91:
 3992 0835 43464752 		.ascii	"CFGR\000"
 3992      00
 3993              	.LASF48:
 3994 083a 726C6973 		.ascii	"rlist\000"
 3994      7400
 3995              	.LASF5:
 3996 0840 5F5F7569 		.ascii	"__uint8_t\000"
ARM GAS  C:\Users\DEVELO~1\AppData\Local\Temp\ccJy2m5y.s 			page 78


 3996      6E74385F 
 3996      7400
 3997              	.LASF191:
 3998 084a 4144435F 		.ascii	"ADC_UNINIT\000"
 3998      554E494E 
 3998      495400
 3999              	.LASF34:
 4000 0855 6E616D65 		.ascii	"name\000"
 4000      00
 4001              	.LASF256:
 4002 085a 6D61696E 		.ascii	"main.c\000"
 4002      2E6300
 4003              	.LASF135:
 4004 0861 4D314152 		.ascii	"M1AR\000"
 4004      00
 4005              	.LASF100:
 4006 0866 53515231 		.ascii	"SQR1\000"
 4006      00
 4007              	.LASF101:
 4008 086b 53515232 		.ascii	"SQR2\000"
 4008      00
 4009              	.LASF102:
 4010 0870 53515233 		.ascii	"SQR3\000"
 4010      00
 4011              	.LASF25:
 4012 0875 74726566 		.ascii	"trefs_t\000"
 4012      735F7400 
 4013              	.LASF206:
 4014 087d 61646363 		.ascii	"adcc\000"
 4014      00
 4015              	.LASF13:
 4016 0882 6C6F6E67 		.ascii	"long unsigned int\000"
 4016      20756E73 
 4016      69676E65 
 4016      6420696E 
 4016      7400
 4017              	.LASF193:
 4018 0894 4144435F 		.ascii	"ADC_READY\000"
 4018      52454144 
 4018      5900
 4019              	.LASF162:
 4020 089e 72656164 		.ascii	"ready_list_t\000"
 4020      795F6C69 
 4020      73745F74 
 4020      00
 4021              	.LASF245:
 4022 08ab 6472765F 		.ascii	"drv_display_clear\000"
 4022      64697370 
 4022      6C61795F 
 4022      636C6561 
 4022      7200
 4023              	.LASF205:
 4024 08bd 6164636D 		.ascii	"adcm\000"
 4024      00
 4025              	.LASF84:
 4026 08c2 72747374 		.ascii	"rtstamp\000"
 4026      616D7000 
ARM GAS  C:\Users\DEVELO~1\AppData\Local\Temp\ccJy2m5y.s 			page 79


 4027              	.LASF146:
 4028 08ca 71756575 		.ascii	"queue\000"
 4028      6500
 4029              	.LASF18:
 4030 08d0 696E7433 		.ascii	"int32_t\000"
 4030      325F7400 
 4031              	.LASF59:
 4032 08d8 72666375 		.ascii	"rfcu_t\000"
 4032      5F7400
 4033              	.LASF203:
 4034 08df 74687265 		.ascii	"thread\000"
 4034      616400
 4035              	.LASF155:
 4036 08e6 77747365 		.ascii	"wtsemp\000"
 4036      6D7000
 4037              	.LASF74:
 4038 08ed 63685F70 		.ascii	"ch_priority_queue\000"
 4038      72696F72 
 4038      6974795F 
 4038      71756575 
 4038      6500
 4039              	.LASF71:
 4040 08ff 63685F71 		.ascii	"ch_queue\000"
 4040      75657565 
 4040      00
 4041              	.LASF169:
 4042 0908 6D757465 		.ascii	"mutex_t\000"
 4042      785F7400 
 4043              	.LASF83:
 4044 0910 74797065 		.ascii	"type\000"
 4044      00
 4045              	.LASF6:
 4046 0915 756E7369 		.ascii	"unsigned char\000"
 4046      676E6564 
 4046      20636861 
 4046      7200
 4047              	.LASF184:
 4048 0923 4146524C 		.ascii	"AFRL\000"
 4048      00
 4049              	.LASF12:
 4050 0928 5F5F7569 		.ascii	"__uint32_t\000"
 4050      6E743332 
 4050      5F7400
 4051              	.LASF39:
 4052 0933 77616974 		.ascii	"waiting\000"
 4052      696E6700 
 4053              	.LASF212:
 4054 093b 63616C69 		.ascii	"calibration\000"
 4054      62726174 
 4054      696F6E00 
 4055              	.LASF253:
 4056 0947 6C696E65 		.ascii	"line\000"
 4056      00
 4057              	.LASF254:
 4058 094c 6164635F 		.ascii	"adc_start\000"
 4058      73746172 
 4058      7400
ARM GAS  C:\Users\DEVELO~1\AppData\Local\Temp\ccJy2m5y.s 			page 80


 4059              	.LASF242:
 4060 0956 63685468 		.ascii	"chThdSleep\000"
 4060      64536C65 
 4060      657000
 4061              	.LASF97:
 4062 0961 48545231 		.ascii	"HTR1\000"
 4062      00
 4063              	.LASF123:
 4064 0966 48545232 		.ascii	"HTR2\000"
 4064      00
 4065              	.LASF125:
 4066 096b 48545233 		.ascii	"HTR3\000"
 4066      00
 4067              	.LASF243:
 4068 0970 6472765F 		.ascii	"drv_display_draw_text\000"
 4068      64697370 
 4068      6C61795F 
 4068      64726177 
 4068      5F746578 
 4069              	.LASF250:
 4070 0986 64726976 		.ascii	"drivers_init_all\000"
 4070      6572735F 
 4070      696E6974 
 4070      5F616C6C 
 4070      00
 4071              	.LASF36:
 4072 0997 73746174 		.ascii	"state\000"
 4072      6500
 4073              	.LASF106:
 4074 099d 4A535152 		.ascii	"JSQR\000"
 4074      00
 4075              	.LASF45:
 4076 09a2 6F735F69 		.ascii	"os_instance_t\000"
 4076      6E737461 
 4076      6E63655F 
 4076      7400
 4077              	.LASF50:
 4078 09b0 7265676C 		.ascii	"reglist\000"
 4078      69737400 
 4079              	.LASF188:
 4080 09b8 696F6D6F 		.ascii	"iomode_t\000"
 4080      64655F74 
 4080      00
 4081              	.LASF166:
 4082 09c1 69646C65 		.ascii	"idlethread_base\000"
 4082      74687265 
 4082      61645F62 
 4082      61736500 
 4083              	.LASF3:
 4084 09d1 7369676E 		.ascii	"signed char\000"
 4084      65642063 
 4084      68617200 
 4085              	.LASF78:
 4086 09dd 64656C74 		.ascii	"delta\000"
 4086      6100
 4087              	.LASF9:
 4088 09e3 73686F72 		.ascii	"short unsigned int\000"
ARM GAS  C:\Users\DEVELO~1\AppData\Local\Temp\ccJy2m5y.s 			page 81


 4088      7420756E 
 4088      7369676E 
 4088      65642069 
 4088      6E7400
 4089              	.LASF228:
 4090 09f6 61776432 		.ascii	"awd2cr\000"
 4090      637200
 4091              	.LASF22:
 4092 09fd 73746B61 		.ascii	"stkalign_t\000"
 4092      6C69676E 
 4092      5F7400
 4093              	.LASF258:
 4094 0a08 6D61696E 		.ascii	"main\000"
 4094      00
 4095              	.LASF229:
 4096 0a0d 61776433 		.ascii	"awd3cr\000"
 4096      637200
 4097              	.LASF161:
 4098 0a14 63757272 		.ascii	"current\000"
 4098      656E7400 
 4099              	.LASF202:
 4100 0a1c 67727070 		.ascii	"grpp\000"
 4100      00
 4101              	.LASF107:
 4102 0a21 52455345 		.ascii	"RESERVED5\000"
 4102      52564544 
 4102      3500
 4103              	.LASF80:
 4104 0a2b 72656173 		.ascii	"reason\000"
 4104      6F6E00
 4105              	.LASF120:
 4106 0a32 52455345 		.ascii	"RESERVED8\000"
 4106      52564544 
 4106      3800
 4107              	.LASF121:
 4108 0a3c 52455345 		.ascii	"RESERVED9\000"
 4108      52564544 
 4108      3900
 4109              	.LASF214:
 4110 0a46 68616C5F 		.ascii	"hal_adc_configuration_group\000"
 4110      6164635F 
 4110      636F6E66 
 4110      69677572 
 4110      6174696F 
 4111              	.LASF153:
 4112 0a62 77747472 		.ascii	"wttrp\000"
 4112      7000
 4113              	.LASF192:
 4114 0a68 4144435F 		.ascii	"ADC_STOP\000"
 4114      53544F50 
 4114      00
 4115              	.LASF152:
 4116 0a71 65786974 		.ascii	"exitcode\000"
 4116      636F6465 
 4116      00
 4117              	.LASF174:
 4118 0a7a 73656C66 		.ascii	"selfindex\000"
ARM GAS  C:\Users\DEVELO~1\AppData\Local\Temp\ccJy2m5y.s 			page 82


 4118      696E6465 
 4118      7800
 4119              	.LASF30:
 4120 0a84 636F7265 		.ascii	"core_id_t\000"
 4120      5F69645F 
 4120      7400
 4121              	.LASF44:
 4122 0a8e 6D706F6F 		.ascii	"mpool\000"
 4122      6C00
 4123              		.ident	"GCC: (Arm GNU Toolchain 11.3.Rel1) 11.3.1 20220712"
ARM GAS  C:\Users\DEVELO~1\AppData\Local\Temp\ccJy2m5y.s 			page 83


DEFINED SYMBOLS
                            *ABS*:00000000 main.c
C:\Users\DEVELO~1\AppData\Local\Temp\ccJy2m5y.s:18     .dma:00000000 $d
C:\Users\DEVELO~1\AppData\Local\Temp\ccJy2m5y.s:21     .dma:00000000 adc_buf
C:\Users\DEVELO~1\AppData\Local\Temp\ccJy2m5y.s:24     .rodata.adccfg:00000000 $d
C:\Users\DEVELO~1\AppData\Local\Temp\ccJy2m5y.s:27     .rodata.adccfg:00000000 adccfg
C:\Users\DEVELO~1\AppData\Local\Temp\ccJy2m5y.s:30     .rodata.adcgrpcfg:00000000 $d
C:\Users\DEVELO~1\AppData\Local\Temp\ccJy2m5y.s:33     .rodata.adcgrpcfg:00000000 adcgrpcfg
C:\Users\DEVELO~1\AppData\Local\Temp\ccJy2m5y.s:58     .text.mux_set:00000000 $t
C:\Users\DEVELO~1\AppData\Local\Temp\ccJy2m5y.s:63     .text.mux_set:00000000 mux_set
C:\Users\DEVELO~1\AppData\Local\Temp\ccJy2m5y.s:165    .text.mux_set:00000084 $d
C:\Users\DEVELO~1\AppData\Local\Temp\ccJy2m5y.s:170    .rodata:00000000 $d
C:\Users\DEVELO~1\AppData\Local\Temp\ccJy2m5y.s:186    .text.main:00000000 $t
C:\Users\DEVELO~1\AppData\Local\Temp\ccJy2m5y.s:192    .text.main:00000000 main
C:\Users\DEVELO~1\AppData\Local\Temp\ccJy2m5y.s:334    .text.main:000000f0 $d

UNDEFINED SYMBOLS
halInit
chSysInit
drivers_init_all
drv_display_init
_pal_lld_setgroupmode
adcStart
drv_display_clear
drv_display_draw_text
snprintf
drv_display_update
chThdSleep
adcStartConversion
ADCD1
