ARM GAS  C:\Users\DEVELO~1\AppData\Local\Temp\ccJy2m5y.s 			page 1


   1              		.cpu cortex-m7
   2              		.arch armv7e-m
   3              		.fpu softvfp
   4              		.eabi_attribute 20, 1
   5              		.eabi_attribute 21, 1
   6              		.eabi_attribute 23, 3
   7              		.eabi_attribute 24, 1
   8              		.eabi_attribute 25, 1
   9              		.eabi_attribute 26, 1
  10              		.eabi_attribute 30, 6
  11              		.eabi_attribute 34, 1
  12              		.eabi_attribute 18, 4
  13              		.file	"main.c"
  14              		.text
  15              	.Ltext0:
  16              		.cfi_sections	.debug_frame
  17              		.section	.dma,"aw"
  18              		.align	5
  19              		.type	adc_buf, %object
  20              		.size	adc_buf, 2
  21              	adc_buf:
  22 0000 0000     		.space	2
  23              		.section	.rodata.adccfg,"a"
  24              		.align	2
  25              		.type	adccfg, %object
  26              		.size	adccfg, 8
  27              	adccfg:
  28 0000 00000000 		.space	8
  28      00000000 
  29              		.section	.rodata.adcgrpcfg,"a"
  30              		.align	2
  31              		.type	adcgrpcfg, %object
  32              		.size	adcgrpcfg, 88
  33              	adcgrpcfg:
  34 0000 01       		.byte	1
  35 0001 000000   		.space	3
  36 0004 01000000 		.word	1
  37 0008 00000000 		.word	0
  38 000c 00000000 		.word	0
  39 0010 08200000 		.word	8200
  40 0014 00000000 		.word	0
  41 0018 00000000 		.word	0
  42 001c 80000000 		.word	128
  43 0020 00000000 		.word	0
  44 0024 FFFFFF03 		.word	67108863
  45 0028 00000000 		.word	0
  46 002c 00000000 		.word	0
  47 0030 00000000 		.word	0
  48 0034 00000000 		.word	0
  49 0038 00000000 		.word	0
  50 003c 00000000 		.word	0
  51 0040 0000A000 		.word	10485760
  52 0044 00000000 		.word	0
  53 0048 C0010000 		.word	448
  54 004c 00000000 		.word	0
  55 0050 00000000 		.word	0
  56 0054 00000000 		.word	0
ARM GAS  C:\Users\DEVELO~1\AppData\Local\Temp\ccJy2m5y.s 			page 2


  57              		.section	.text.mux_set,"ax",%progbits
  58              		.align	1
  59              		.syntax unified
  60              		.thumb
  61              		.thumb_func
  62              		.type	mux_set, %function
  63              	mux_set:
  64              	.LFB435:
  65              		.file 1 "main.c"
  66              		.loc 1 51 34
  67              		.cfi_startproc
  68              		@ args = 0, pretend = 0, frame = 24
  69              		@ frame_needed = 1, uses_anonymous_args = 0
  70              		@ link register save eliminated.
  71 0000 80B4     		push	{r7}
  72              		.cfi_def_cfa_offset 4
  73              		.cfi_offset 7, -4
  74 0002 87B0     		sub	sp, sp, #28
  75              		.cfi_def_cfa_offset 32
  76 0004 00AF     		add	r7, sp, #0
  77              		.cfi_def_cfa_register 7
  78 0006 0346     		mov	r3, r0
  79 0008 FB71     		strb	r3, [r7, #7]
  80              	.LBB2:
  81              		.loc 1 52 3
  82 000a FB79     		ldrb	r3, [r7, #7]	@ zero_extendqisi2
  83 000c 03F00103 		and	r3, r3, #1
  84 0010 002B     		cmp	r3, #0
  85 0012 02D1     		bne	.L2
  86              		.loc 1 52 3 is_stmt 0 discriminator 1
  87 0014 4FF40012 		mov	r2, #2097152
  88 0018 00E0     		b	.L3
  89              	.L2:
  90              		.loc 1 52 3 discriminator 2
  91 001a 0022     		movs	r2, #0
  92              	.L3:
  93              		.loc 1 52 3 discriminator 4
  94 001c FB79     		ldrb	r3, [r7, #7]	@ zero_extendqisi2
  95 001e 5B01     		lsls	r3, r3, #5
  96 0020 03F02003 		and	r3, r3, #32
  97 0024 1343     		orrs	r3, r3, r2
  98 0026 7B61     		str	r3, [r7, #20]
  99 0028 164A     		ldr	r2, .L8
 100 002a 7B69     		ldr	r3, [r7, #20]
 101 002c 9361     		str	r3, [r2, #24]
 102              	.LBE2:
 103              	.LBB3:
 104              		.loc 1 53 3 is_stmt 1 discriminator 4
 105 002e FB79     		ldrb	r3, [r7, #7]	@ zero_extendqisi2
 106 0030 03F00203 		and	r3, r3, #2
 107 0034 002B     		cmp	r3, #0
 108 0036 02D1     		bne	.L4
 109              		.loc 1 53 3 is_stmt 0 discriminator 1
 110 0038 4FF48012 		mov	r2, #1048576
 111 003c 00E0     		b	.L5
 112              	.L4:
 113              		.loc 1 53 3 discriminator 2
ARM GAS  C:\Users\DEVELO~1\AppData\Local\Temp\ccJy2m5y.s 			page 3


 114 003e 0022     		movs	r2, #0
 115              	.L5:
 116              		.loc 1 53 3 discriminator 4
 117 0040 FB79     		ldrb	r3, [r7, #7]	@ zero_extendqisi2
 118 0042 5B08     		lsrs	r3, r3, #1
 119 0044 1B01     		lsls	r3, r3, #4
 120 0046 03F01003 		and	r3, r3, #16
 121 004a 1343     		orrs	r3, r3, r2
 122 004c 3B61     		str	r3, [r7, #16]
 123 004e 0D4A     		ldr	r2, .L8
 124 0050 3B69     		ldr	r3, [r7, #16]
 125 0052 9361     		str	r3, [r2, #24]
 126              	.LBE3:
 127              	.LBB4:
 128              		.loc 1 54 3 is_stmt 1 discriminator 4
 129 0054 FB79     		ldrb	r3, [r7, #7]	@ zero_extendqisi2
 130 0056 03F00403 		and	r3, r3, #4
 131 005a 002B     		cmp	r3, #0
 132 005c 02D1     		bne	.L6
 133              		.loc 1 54 3 is_stmt 0 discriminator 1
 134 005e 4FF48002 		mov	r2, #4194304
 135 0062 00E0     		b	.L7
 136              	.L6:
 137              		.loc 1 54 3 discriminator 2
 138 0064 0022     		movs	r2, #0
 139              	.L7:
 140              		.loc 1 54 3 discriminator 4
 141 0066 FB79     		ldrb	r3, [r7, #7]	@ zero_extendqisi2
 142 0068 9B08     		lsrs	r3, r3, #2
 143 006a 9B01     		lsls	r3, r3, #6
 144 006c 03F04003 		and	r3, r3, #64
 145 0070 1343     		orrs	r3, r3, r2
 146 0072 FB60     		str	r3, [r7, #12]
 147 0074 034A     		ldr	r2, .L8
 148 0076 FB68     		ldr	r3, [r7, #12]
 149 0078 9361     		str	r3, [r2, #24]
 150              	.LBE4:
 151              		.loc 1 55 1 is_stmt 1 discriminator 4
 152 007a 00BF     		nop
 153 007c 1C37     		adds	r7, r7, #28
 154              		.cfi_def_cfa_offset 4
 155 007e BD46     		mov	sp, r7
 156              		.cfi_def_cfa_register 13
 157              		@ sp needed
 158 0080 80BC     		pop	{r7}
 159              		.cfi_restore 7
 160              		.cfi_def_cfa_offset 0
 161 0082 7047     		bx	lr
 162              	.L9:
 163              		.align	2
 164              	.L8:
 165 0084 00000258 		.word	1476526080
 166              		.cfi_endproc
 167              	.LFE435:
 168              		.size	mux_set, .-mux_set
 169              		.section	.rodata
 170              		.align	2
ARM GAS  C:\Users\DEVELO~1\AppData\Local\Temp\ccJy2m5y.s 			page 4


 171              	.LC0:
 172 0000 41444320 		.ascii	"ADC DMA START FAIL\000"
 172      444D4120 
 172      53544152 
 172      54204641 
 172      494C00
 173 0013 00       		.align	2
 174              	.LC1:
 175 0014 7265743D 		.ascii	"ret=%ld\000"
 175      256C6400 
 176              		.align	2
 177              	.LC2:
 178 001c 41444331 		.ascii	"ADC1 MUX PA7 DMA\000"
 178      204D5558 
 178      20504137 
 178      20444D41 
 178      00
 179 002d 000000   		.align	2
 180              	.LC3:
 181 0030 4D555820 		.ascii	"MUX CH = %u\000"
 181      4348203D 
 181      20257500 
 182              		.align	2
 183              	.LC4:
 184 003c 56414C20 		.ascii	"VAL = %u\000"
 184      3D202575 
 184      00
 185              		.section	.text.main,"ax",%progbits
 186              		.align	1
 187              		.global	main
 188              		.syntax unified
 189              		.thumb
 190              		.thumb_func
 191              		.type	main, %function
 192              	main:
 193              	.LFB436:
 194              		.loc 1 59 16
 195              		.cfi_startproc
 196              		@ args = 0, pretend = 0, frame = 40
 197              		@ frame_needed = 1, uses_anonymous_args = 0
 198 0000 80B5     		push	{r7, lr}
 199              		.cfi_def_cfa_offset 8
 200              		.cfi_offset 7, -8
 201              		.cfi_offset 14, -4
 202 0002 8AB0     		sub	sp, sp, #40
 203              		.cfi_def_cfa_offset 48
 204 0004 00AF     		add	r7, sp, #0
 205              		.cfi_def_cfa_register 7
 206              		.loc 1 61 3
 207 0006 FFF7FEFF 		bl	halInit
 208              		.loc 1 62 3
 209 000a FFF7FEFF 		bl	chSysInit
 210              		.loc 1 64 3
 211 000e FFF7FEFF 		bl	drivers_init_all
 212              		.loc 1 65 3
 213 0012 FFF7FEFF 		bl	drv_display_init
 214              		.loc 1 67 3
ARM GAS  C:\Users\DEVELO~1\AppData\Local\Temp\ccJy2m5y.s 			page 5


 215 0016 0122     		movs	r2, #1
 216 0018 2021     		movs	r1, #32
 217 001a 3548     		ldr	r0, .L15
 218 001c FFF7FEFF 		bl	_pal_lld_setgroupmode
 219              		.loc 1 68 3
 220 0020 0122     		movs	r2, #1
 221 0022 1021     		movs	r1, #16
 222 0024 3248     		ldr	r0, .L15
 223 0026 FFF7FEFF 		bl	_pal_lld_setgroupmode
 224              		.loc 1 69 3
 225 002a 0122     		movs	r2, #1
 226 002c 4021     		movs	r1, #64
 227 002e 3048     		ldr	r0, .L15
 228 0030 FFF7FEFF 		bl	_pal_lld_setgroupmode
 229              		.loc 1 70 3
 230 0034 0020     		movs	r0, #0
 231 0036 FFF7FEFF 		bl	mux_set
 232              		.loc 1 72 3
 233 003a 0322     		movs	r2, #3
 234 003c 8021     		movs	r1, #128
 235 003e 2C48     		ldr	r0, .L15
 236 0040 FFF7FEFF 		bl	_pal_lld_setgroupmode
 237              		.loc 1 77 21
 238 0044 2B49     		ldr	r1, .L15+4
 239 0046 2C48     		ldr	r0, .L15+8
 240 0048 FFF7FEFF 		bl	adcStart
 241 004c 7862     		str	r0, [r7, #36]
 242              		.loc 1 78 6
 243 004e 7B6A     		ldr	r3, [r7, #36]
 244 0050 002B     		cmp	r3, #0
 245 0052 03D1     		bne	.L11
 246              		.loc 1 78 52 discriminator 1
 247 0054 284B     		ldr	r3, .L15+8
 248 0056 1B6B     		ldr	r3, [r3, #48]
 249              		.loc 1 78 38 discriminator 1
 250 0058 002B     		cmp	r3, #0
 251 005a 19D1     		bne	.L12
 252              	.L11:
 253              		.loc 1 79 5
 254 005c FFF7FEFF 		bl	drv_display_clear
 255              		.loc 1 80 5
 256 0060 264A     		ldr	r2, .L15+12
 257 0062 0021     		movs	r1, #0
 258 0064 0020     		movs	r0, #0
 259 0066 FFF7FEFF 		bl	drv_display_draw_text
 260              		.loc 1 81 5
 261 006a 3846     		mov	r0, r7
 262 006c 7B6A     		ldr	r3, [r7, #36]
 263 006e 244A     		ldr	r2, .L15+16
 264 0070 2021     		movs	r1, #32
 265 0072 FFF7FEFF 		bl	snprintf
 266              		.loc 1 82 5
 267 0076 3B46     		mov	r3, r7
 268 0078 1A46     		mov	r2, r3
 269 007a 0C21     		movs	r1, #12
 270 007c 0020     		movs	r0, #0
 271 007e FFF7FEFF 		bl	drv_display_draw_text
ARM GAS  C:\Users\DEVELO~1\AppData\Local\Temp\ccJy2m5y.s 			page 6


 272              		.loc 1 83 5
 273 0082 FFF7FEFF 		bl	drv_display_update
 274              	.L13:
 275              		.loc 1 85 7 discriminator 1
 276 0086 42F21070 		movw	r0, #10000
 277 008a FFF7FEFF 		bl	chThdSleep
 278 008e FAE7     		b	.L13
 279              	.L12:
 280              		.loc 1 89 3
 281 0090 0123     		movs	r3, #1
 282 0092 1C4A     		ldr	r2, .L15+20
 283 0094 1C49     		ldr	r1, .L15+24
 284 0096 1848     		ldr	r0, .L15+8
 285 0098 FFF7FEFF 		bl	adcStartConversion
 286              	.L14:
 287              	.LBB5:
 288              		.loc 1 93 14 discriminator 1
 289 009c 194B     		ldr	r3, .L15+20
 290 009e 1B88     		ldrh	r3, [r3]	@ movhi
 291 00a0 7B84     		strh	r3, [r7, #34]	@ movhi
 292              		.loc 1 95 5 discriminator 1
 293 00a2 FFF7FEFF 		bl	drv_display_clear
 294              		.loc 1 96 5 discriminator 1
 295 00a6 194A     		ldr	r2, .L15+28
 296 00a8 0021     		movs	r1, #0
 297 00aa 0020     		movs	r0, #0
 298 00ac FFF7FEFF 		bl	drv_display_draw_text
 299              		.loc 1 97 5 discriminator 1
 300 00b0 3846     		mov	r0, r7
 301 00b2 0023     		movs	r3, #0
 302 00b4 164A     		ldr	r2, .L15+32
 303 00b6 2021     		movs	r1, #32
 304 00b8 FFF7FEFF 		bl	snprintf
 305              		.loc 1 98 5 discriminator 1
 306 00bc 3B46     		mov	r3, r7
 307 00be 1A46     		mov	r2, r3
 308 00c0 0A21     		movs	r1, #10
 309 00c2 0020     		movs	r0, #0
 310 00c4 FFF7FEFF 		bl	drv_display_draw_text
 311              		.loc 1 99 5 discriminator 1
 312 00c8 7B8C     		ldrh	r3, [r7, #34]
 313 00ca 3846     		mov	r0, r7
 314 00cc 114A     		ldr	r2, .L15+36
 315 00ce 2021     		movs	r1, #32
 316 00d0 FFF7FEFF 		bl	snprintf
 317              		.loc 1 100 5 discriminator 1
 318 00d4 3B46     		mov	r3, r7
 319 00d6 1A46     		mov	r2, r3
 320 00d8 1621     		movs	r1, #22
 321 00da 0020     		movs	r0, #0
 322 00dc FFF7FEFF 		bl	drv_display_draw_text
 323              		.loc 1 101 5 discriminator 1
 324 00e0 FFF7FEFF 		bl	drv_display_update
 325              		.loc 1 103 5 discriminator 1
 326 00e4 4FF4FA60 		mov	r0, #2000
 327 00e8 FFF7FEFF 		bl	chThdSleep
 328              	.LBE5:
ARM GAS  C:\Users\DEVELO~1\AppData\Local\Temp\ccJy2m5y.s 			page 7


 329              		.loc 1 91 16 discriminator 1
 330 00ec D6E7     		b	.L14
 331              	.L16:
 332 00ee 00BF     		.align	2
 333              	.L15:
 334 00f0 00000258 		.word	1476526080
 335 00f4 00000000 		.word	adccfg
 336 00f8 00000000 		.word	ADCD1
 337 00fc 00000000 		.word	.LC0
 338 0100 14000000 		.word	.LC1
 339 0104 00000000 		.word	adc_buf
 340 0108 00000000 		.word	adcgrpcfg
 341 010c 1C000000 		.word	.LC2
 342 0110 30000000 		.word	.LC3
 343 0114 3C000000 		.word	.LC4
 344              		.cfi_endproc
 345              	.LFE436:
 346              		.size	main, .-main
 347              		.text
 348              	.Letext0:
 349              		.file 2 "c:\\chibistudio\\tools\\gnu tools arm embedded\\11.3 2022.08\\lib\\gcc\\arm-none-eabi\\11
 350              		.file 3 "c:\\chibistudio\\tools\\gnu tools arm embedded\\11.3 2022.08\\arm-none-eabi\\include\\mac
 351              		.file 4 "c:\\chibistudio\\tools\\gnu tools arm embedded\\11.3 2022.08\\arm-none-eabi\\include\\sys
 352              		.file 5 "../../../os/common/ports/ARM-common/chtypes.h"
 353              		.file 6 "../../../os/rt/include/chearly.h"
 354              		.file 7 "../../../os/rt/include/chobjects.h"
 355              		.file 8 "../../../os/rt/include/chrfcu.h"
 356              		.file 9 "../../../os/rt/include/chdebug.h"
 357              		.file 10 "../../../os/rt/include/chtime.h"
 358              		.file 11 "../../../os/rt/include/chlists.h"
 359              		.file 12 "../../../os/rt/include/chtrace.h"
 360              		.file 13 "../../../os/common/ext/ST/STM32H7xx/stm32h743xx.h"
 361              		.file 14 "../../../os/common/ports/ARMv7-M/chcore.h"
 362              		.file 15 "../../../os/rt/include/chsem.h"
 363              		.file 16 "../../../os/rt/include/chmtx.h"
 364              		.file 17 "../../../os/hal/ports/STM32/LLD/DMAv2/stm32_dma.h"
 365              		.file 18 "../../../os/hal/ports/STM32/LLD/GPIOv2/stm32_gpio.h"
 366              		.file 19 "../../../os/hal/ports/STM32/LLD/GPIOv2/hal_pal_lld.h"
 367              		.file 20 "../../../os/hal/include/hal_adc.h"
 368              		.file 21 "../../../os/hal/ports/STM32/LLD/ADCv4/hal_adc_lld.h"
 369              		.file 22 "../../../os/rt/include/chthreads.h"
 370              		.file 23 "drivers/drv_display.h"
 371              		.file 24 "c:\\chibistudio\\tools\\gnu tools arm embedded\\11.3 2022.08\\arm-none-eabi\\include\\st
 372              		.file 25 "drivers/drivers.h"
 373              		.file 26 "../../../os/rt/include/chsys.h"
 374              		.file 27 "../../../os/hal/include/hal.h"