ARM GAS  C:\Users\DEVELO~1\AppData\Local\Temp\cc81bBGh.s 			page 1


   1              		.cpu cortex-m7
   2              		.arch armv7e-m
   3              		.fpu softvfp
   4              		.eabi_attribute 20, 1
   5              		.eabi_attribute 21, 1
   6              		.eabi_attribute 23, 3
   7              		.eabi_attribute 24, 1
   8              		.eabi_attribute 25, 1
   9              		.eabi_attribute 26, 1
  10              		.eabi_attribute 30, 6
  11              		.eabi_attribute 34, 1
  12              		.eabi_attribute 18, 4
  13              		.file	"main.c"
  14              		.text
  15              	.Ltext0:
  16              		.cfi_sections	.debug_frame
  17              		.section	.rodata
  18              		.align	2
  19              	.LC0:
  20 0000 48414C4C 		.ascii	"HALL B5 DEBUG\000"
  20      20423520 
  20      44454255 
  20      4700
  21 000e 0000     		.align	2
  22              	.LC1:
  23 0010 52415720 		.ascii	"RAW = %4u\000"
  23      3D202534 
  23      7500
  24 001a 0000     		.align	2
  25              	.LC2:
  26 001c 4D494449 		.ascii	"MIDI = %3u\000"
  26      203D2025 
  26      337500
  27 0027 00       		.align	2
  28              	.LC3:
  29 0028 4F4E2000 		.ascii	"ON \000"
  30              		.align	2
  31              	.LC4:
  32 002c 4F464600 		.ascii	"OFF\000"
  33              		.align	2
  34              	.LC5:
  35 0030 4F4E2F4F 		.ascii	"ON/OFF = %s\000"
  35      4646203D 
  35      20257300 
  36              		.align	2
  37              	.LC6:
  38 003c 56454C20 		.ascii	"VEL = %3u\000"
  38      3D202533 
  38      7500
  39 0046 0000     		.align	2
  40              	.LC7:
  41 0048 50524553 		.ascii	"PRES = %3u\000"
  41      203D2025 
  41      337500
  42              		.section	.text.main,"ax",%progbits
  43              		.align	1
  44              		.global	main
ARM GAS  C:\Users\DEVELO~1\AppData\Local\Temp\cc81bBGh.s 			page 2


  45              		.syntax unified
  46              		.thumb
  47              		.thumb_func
  48              		.type	main, %function
  49              	main:
  50              	.LFB435:
  51              		.file 1 "main.c"
  52              		.loc 1 11 16
  53              		.cfi_startproc
  54              		@ args = 0, pretend = 0, frame = 80
  55              		@ frame_needed = 1, uses_anonymous_args = 0
  56 0000 80B5     		push	{r7, lr}
  57              		.cfi_def_cfa_offset 8
  58              		.cfi_offset 7, -8
  59              		.cfi_offset 14, -4
  60 0002 94B0     		sub	sp, sp, #80
  61              		.cfi_def_cfa_offset 88
  62 0004 00AF     		add	r7, sp, #0
  63              		.cfi_def_cfa_register 7
  64              		.loc 1 13 3
  65 0006 FFF7FEFF 		bl	halInit
  66              		.loc 1 14 3
  67 000a FFF7FEFF 		bl	chSysInit
  68              		.loc 1 16 3
  69 000e FFF7FEFF 		bl	drivers_init_all
  70              		.loc 1 17 3
  71 0012 FFF7FEFF 		bl	drv_display_init
  72              		.loc 1 18 3
  73 0016 FFF7FEFF 		bl	hall_init
  74              		.loc 1 19 3
  75 001a FFF7FEFF 		bl	usb_device_start
  76              		.loc 1 20 3
  77 001e FFF7FEFF 		bl	midi_init
  78              		.loc 1 23 17
  79 0022 0423     		movs	r3, #4
  80 0024 87F84E30 		strb	r3, [r7, #78]
  81              		.loc 1 24 17
  82 0028 3C23     		movs	r3, #60
  83 002a 87F84D30 		strb	r3, [r7, #77]
  84              		.loc 1 28 3
  85 002e 07F11003 		add	r3, r7, #16
  86 0032 1022     		movs	r2, #16
  87 0034 0021     		movs	r1, #0
  88 0036 1846     		mov	r0, r3
  89 0038 FFF7FEFF 		bl	memset
  90              		.loc 1 29 3
  91 003c 3B46     		mov	r3, r7
  92 003e 1022     		movs	r2, #16
  93 0040 0021     		movs	r1, #0
  94 0042 1846     		mov	r0, r3
  95 0044 FFF7FEFF 		bl	memset
  96              	.L10:
  97              	.LBB2:
  98              		.loc 1 32 5
  99 0048 FFF7FEFF 		bl	hall_update
 100              		.loc 1 34 5
 101 004c FFF7FEFF 		bl	drv_display_clear
ARM GAS  C:\Users\DEVELO~1\AppData\Local\Temp\cc81bBGh.s 			page 3


 102              		.loc 1 35 5
 103 0050 814A     		ldr	r2, .L11
 104 0052 0021     		movs	r1, #0
 105 0054 0020     		movs	r0, #0
 106 0056 FFF7FEFF 		bl	drv_display_draw_text
 107              	.LBB3:
 108              		.loc 1 37 18
 109 005a 0023     		movs	r3, #0
 110 005c 87F84F30 		strb	r3, [r7, #79]
 111              		.loc 1 37 5
 112 0060 7AE0     		b	.L2
 113              	.L7:
 114              	.LBB4:
 115              		.loc 1 38 22
 116 0062 97F84F30 		ldrb	r3, [r7, #79]	@ zero_extendqisi2
 117 0066 1846     		mov	r0, r3
 118 0068 FFF7FEFF 		bl	hall_get_note_on
 119 006c 0346     		mov	r3, r0
 120 006e 87F84630 		strb	r3, [r7, #70]
 121              		.loc 1 39 23
 122 0072 97F84F30 		ldrb	r3, [r7, #79]	@ zero_extendqisi2
 123 0076 1846     		mov	r0, r3
 124 0078 FFF7FEFF 		bl	hall_get_note_off
 125 007c 0346     		mov	r3, r0
 126 007e 87F84530 		strb	r3, [r7, #69]
 127              		.loc 1 40 26
 128 0082 97F84F30 		ldrb	r3, [r7, #79]	@ zero_extendqisi2
 129 0086 1846     		mov	r0, r3
 130 0088 FFF7FEFF 		bl	hall_get_velocity
 131 008c 0346     		mov	r3, r0
 132 008e 87F84430 		strb	r3, [r7, #68]
 133              		.loc 1 41 26
 134 0092 97F84F30 		ldrb	r3, [r7, #79]	@ zero_extendqisi2
 135 0096 1846     		mov	r0, r3
 136 0098 FFF7FEFF 		bl	hall_get_pressure
 137 009c 0346     		mov	r3, r0
 138 009e 87F84330 		strb	r3, [r7, #67]
 139              		.loc 1 42 15
 140 00a2 97F84D20 		ldrb	r2, [r7, #77]
 141 00a6 97F84F30 		ldrb	r3, [r7, #79]
 142 00aa 1344     		add	r3, r3, r2
 143 00ac 87F84230 		strb	r3, [r7, #66]
 144              		.loc 1 44 10
 145 00b0 97F84630 		ldrb	r3, [r7, #70]	@ zero_extendqisi2
 146 00b4 002B     		cmp	r3, #0
 147 00b6 0ED0     		beq	.L3
 148              		.loc 1 45 20
 149 00b8 97F84F30 		ldrb	r3, [r7, #79]	@ zero_extendqisi2
 150              		.loc 1 45 24
 151 00bc 5033     		adds	r3, r3, #80
 152 00be 3B44     		add	r3, r3, r7
 153 00c0 0122     		movs	r2, #1
 154 00c2 03F8402C 		strb	r2, [r3, #-64]
 155              		.loc 1 46 9
 156 00c6 97F84430 		ldrb	r3, [r7, #68]	@ zero_extendqisi2
 157 00ca 97F84220 		ldrb	r2, [r7, #66]	@ zero_extendqisi2
 158 00ce 0021     		movs	r1, #0
ARM GAS  C:\Users\DEVELO~1\AppData\Local\Temp\cc81bBGh.s 			page 4


 159 00d0 0320     		movs	r0, #3
 160 00d2 FFF7FEFF 		bl	midi_note_on
 161              	.L3:
 162              		.loc 1 48 10
 163 00d6 97F84530 		ldrb	r3, [r7, #69]	@ zero_extendqisi2
 164 00da 002B     		cmp	r3, #0
 165 00dc 0DD0     		beq	.L4
 166              		.loc 1 49 20
 167 00de 97F84F30 		ldrb	r3, [r7, #79]	@ zero_extendqisi2
 168              		.loc 1 49 24
 169 00e2 5033     		adds	r3, r3, #80
 170 00e4 3B44     		add	r3, r3, r7
 171 00e6 0022     		movs	r2, #0
 172 00e8 03F8402C 		strb	r2, [r3, #-64]
 173              		.loc 1 50 9
 174 00ec 97F84220 		ldrb	r2, [r7, #66]	@ zero_extendqisi2
 175 00f0 0023     		movs	r3, #0
 176 00f2 0021     		movs	r1, #0
 177 00f4 0320     		movs	r0, #3
 178 00f6 FFF7FEFF 		bl	midi_note_off
 179              	.L4:
 180              		.loc 1 52 22
 181 00fa 97F84F30 		ldrb	r3, [r7, #79]	@ zero_extendqisi2
 182 00fe 5033     		adds	r3, r3, #80
 183 0100 3B44     		add	r3, r3, r7
 184 0102 13F8403C 		ldrb	r3, [r3, #-64]	@ zero_extendqisi2
 185              		.loc 1 52 10
 186 0106 002B     		cmp	r3, #0
 187 0108 1AD0     		beq	.L5
 188              		.loc 1 53 38
 189 010a 97F84F30 		ldrb	r3, [r7, #79]	@ zero_extendqisi2
 190 010e 5033     		adds	r3, r3, #80
 191 0110 3B44     		add	r3, r3, r7
 192 0112 13F8503C 		ldrb	r3, [r3, #-80]	@ zero_extendqisi2
 193              		.loc 1 53 12
 194 0116 97F84320 		ldrb	r2, [r7, #67]	@ zero_extendqisi2
 195 011a 9A42     		cmp	r2, r3
 196 011c 17D0     		beq	.L6
 197              		.loc 1 54 11
 198 011e 97F84330 		ldrb	r3, [r7, #67]	@ zero_extendqisi2
 199 0122 97F84220 		ldrb	r2, [r7, #66]	@ zero_extendqisi2
 200 0126 0021     		movs	r1, #0
 201 0128 0320     		movs	r0, #3
 202 012a FFF7FEFF 		bl	midi_poly_aftertouch
 203              		.loc 1 55 24
 204 012e 97F84F30 		ldrb	r3, [r7, #79]	@ zero_extendqisi2
 205              		.loc 1 55 28
 206 0132 5033     		adds	r3, r3, #80
 207 0134 3B44     		add	r3, r3, r7
 208 0136 97F84320 		ldrb	r2, [r7, #67]
 209 013a 03F8502C 		strb	r2, [r3, #-80]
 210 013e 06E0     		b	.L6
 211              	.L5:
 212              		.loc 1 58 22
 213 0140 97F84F30 		ldrb	r3, [r7, #79]	@ zero_extendqisi2
 214              		.loc 1 58 26
 215 0144 5033     		adds	r3, r3, #80
ARM GAS  C:\Users\DEVELO~1\AppData\Local\Temp\cc81bBGh.s 			page 5


 216 0146 3B44     		add	r3, r3, r7
 217 0148 0022     		movs	r2, #0
 218 014a 03F8502C 		strb	r2, [r3, #-80]
 219              	.L6:
 220              	.LBE4:
 221              		.loc 1 37 36 discriminator 2
 222 014e 97F84F30 		ldrb	r3, [r7, #79]	@ zero_extendqisi2
 223 0152 0133     		adds	r3, r3, #1
 224 0154 87F84F30 		strb	r3, [r7, #79]
 225              	.L2:
 226              		.loc 1 37 28 discriminator 1
 227 0158 97F84F30 		ldrb	r3, [r7, #79]	@ zero_extendqisi2
 228 015c 0F2B     		cmp	r3, #15
 229 015e 80D9     		bls	.L7
 230              	.LBE3:
 231              		.loc 1 62 20
 232 0160 97F84E30 		ldrb	r3, [r7, #78]	@ zero_extendqisi2
 233 0164 1846     		mov	r0, r3
 234 0166 FFF7FEFF 		bl	hall_get
 235 016a 0346     		mov	r3, r0
 236 016c A7F84A30 		strh	r3, [r7, #74]	@ movhi
 237              		.loc 1 63 26
 238 0170 97F84E30 		ldrb	r3, [r7, #78]	@ zero_extendqisi2
 239 0174 1846     		mov	r0, r3
 240 0176 FFF7FEFF 		bl	hall_get_midi_value
 241 017a 0346     		mov	r3, r0
 242 017c 87F84930 		strb	r3, [r7, #73]
 243              		.loc 1 64 24
 244 0180 97F84E30 		ldrb	r3, [r7, #78]	@ zero_extendqisi2
 245 0184 1846     		mov	r0, r3
 246 0186 FFF7FEFF 		bl	hall_get_velocity
 247 018a 0346     		mov	r3, r0
 248 018c 87F84830 		strb	r3, [r7, #72]
 249              		.loc 1 65 24
 250 0190 97F84E30 		ldrb	r3, [r7, #78]	@ zero_extendqisi2
 251 0194 1846     		mov	r0, r3
 252 0196 FFF7FEFF 		bl	hall_get_pressure
 253 019a 0346     		mov	r3, r0
 254 019c 87F84730 		strb	r3, [r7, #71]
 255              		.loc 1 67 5
 256 01a0 B7F84A30 		ldrh	r3, [r7, #74]
 257 01a4 07F12000 		add	r0, r7, #32
 258 01a8 2C4A     		ldr	r2, .L11+4
 259 01aa 2021     		movs	r1, #32
 260 01ac FFF7FEFF 		bl	snprintf
 261              		.loc 1 68 5
 262 01b0 07F12003 		add	r3, r7, #32
 263 01b4 1A46     		mov	r2, r3
 264 01b6 0C21     		movs	r1, #12
 265 01b8 0020     		movs	r0, #0
 266 01ba FFF7FEFF 		bl	drv_display_draw_text
 267              		.loc 1 70 5
 268 01be 97F84930 		ldrb	r3, [r7, #73]	@ zero_extendqisi2
 269 01c2 07F12000 		add	r0, r7, #32
 270 01c6 264A     		ldr	r2, .L11+8
 271 01c8 2021     		movs	r1, #32
 272 01ca FFF7FEFF 		bl	snprintf
ARM GAS  C:\Users\DEVELO~1\AppData\Local\Temp\cc81bBGh.s 			page 6


 273              		.loc 1 71 5
 274 01ce 07F12003 		add	r3, r7, #32
 275 01d2 1A46     		mov	r2, r3
 276 01d4 1421     		movs	r1, #20
 277 01d6 0020     		movs	r0, #0
 278 01d8 FFF7FEFF 		bl	drv_display_draw_text
 279              		.loc 1 73 60
 280 01dc 97F84E30 		ldrb	r3, [r7, #78]	@ zero_extendqisi2
 281 01e0 5033     		adds	r3, r3, #80
 282 01e2 3B44     		add	r3, r3, r7
 283 01e4 13F8403C 		ldrb	r3, [r3, #-64]	@ zero_extendqisi2
 284              		.loc 1 73 5
 285 01e8 002B     		cmp	r3, #0
 286 01ea 01D0     		beq	.L8
 287              		.loc 1 73 5 is_stmt 0 discriminator 1
 288 01ec 1D4B     		ldr	r3, .L11+12
 289 01ee 00E0     		b	.L9
 290              	.L8:
 291              		.loc 1 73 5 discriminator 2
 292 01f0 1D4B     		ldr	r3, .L11+16
 293              	.L9:
 294              		.loc 1 73 5 discriminator 4
 295 01f2 07F12000 		add	r0, r7, #32
 296 01f6 1D4A     		ldr	r2, .L11+20
 297 01f8 2021     		movs	r1, #32
 298 01fa FFF7FEFF 		bl	snprintf
 299              		.loc 1 74 5 is_stmt 1 discriminator 4
 300 01fe 07F12003 		add	r3, r7, #32
 301 0202 1A46     		mov	r2, r3
 302 0204 1C21     		movs	r1, #28
 303 0206 0020     		movs	r0, #0
 304 0208 FFF7FEFF 		bl	drv_display_draw_text
 305              		.loc 1 76 5 discriminator 4
 306 020c 97F84830 		ldrb	r3, [r7, #72]	@ zero_extendqisi2
 307 0210 07F12000 		add	r0, r7, #32
 308 0214 164A     		ldr	r2, .L11+24
 309 0216 2021     		movs	r1, #32
 310 0218 FFF7FEFF 		bl	snprintf
 311              		.loc 1 77 5 discriminator 4
 312 021c 07F12003 		add	r3, r7, #32
 313 0220 1A46     		mov	r2, r3
 314 0222 2421     		movs	r1, #36
 315 0224 0020     		movs	r0, #0
 316 0226 FFF7FEFF 		bl	drv_display_draw_text
 317              		.loc 1 79 5 discriminator 4
 318 022a 97F84730 		ldrb	r3, [r7, #71]	@ zero_extendqisi2
 319 022e 07F12000 		add	r0, r7, #32
 320 0232 104A     		ldr	r2, .L11+28
 321 0234 2021     		movs	r1, #32
 322 0236 FFF7FEFF 		bl	snprintf
 323              		.loc 1 80 5 discriminator 4
 324 023a 07F12003 		add	r3, r7, #32
 325 023e 1A46     		mov	r2, r3
 326 0240 2C21     		movs	r1, #44
 327 0242 0020     		movs	r0, #0
 328 0244 FFF7FEFF 		bl	drv_display_draw_text
 329              		.loc 1 82 5 discriminator 4
ARM GAS  C:\Users\DEVELO~1\AppData\Local\Temp\cc81bBGh.s 			page 7


 330 0248 FFF7FEFF 		bl	drv_display_update
 331              		.loc 1 84 5 discriminator 4
 332 024c 4FF47A70 		mov	r0, #1000
 333 0250 FFF7FEFF 		bl	chThdSleep
 334              	.LBE2:
 335              		.loc 1 31 16 discriminator 4
 336 0254 F8E6     		b	.L10
 337              	.L12:
 338 0256 00BF     		.align	2
 339              	.L11:
 340 0258 00000000 		.word	.LC0
 341 025c 10000000 		.word	.LC1
 342 0260 1C000000 		.word	.LC2
 343 0264 28000000 		.word	.LC3
 344 0268 2C000000 		.word	.LC4
 345 026c 30000000 		.word	.LC5
 346 0270 3C000000 		.word	.LC6
 347 0274 48000000 		.word	.LC7
 348              		.cfi_endproc
 349              	.LFE435:
 350              		.size	main, .-main
 351              		.text
 352              	.Letext0:
 353              		.file 2 "c:\\chibistudio\\tools\\gnu tools arm embedded\\11.3 2022.08\\lib\\gcc\\arm-none-eabi\\11
 354              		.file 3 "c:\\chibistudio\\tools\\gnu tools arm embedded\\11.3 2022.08\\arm-none-eabi\\include\\mac
 355              		.file 4 "c:\\chibistudio\\tools\\gnu tools arm embedded\\11.3 2022.08\\arm-none-eabi\\include\\sys
 356              		.file 5 "../../../os/rt/include/chtime.h"
 357              		.file 6 "midi/midi.h"
 358              		.file 7 "c:\\chibistudio\\tools\\gnu tools arm embedded\\11.3 2022.08\\arm-none-eabi\\include\\std
 359              		.file 8 "drivers/HallEffect/drv_hall.h"
 360              		.file 9 "../../../os/rt/include/chthreads.h"
 361              		.file 10 "drivers/drv_display.h"
 362              		.file 11 "c:\\chibistudio\\tools\\gnu tools arm embedded\\11.3 2022.08\\arm-none-eabi\\include\\st
 363              		.file 12 "usb/usb_device.h"
 364              		.file 13 "drivers/drivers.h"
 365              		.file 14 "../../../os/rt/include/chsys.h"
 366              		.file 15 "../../../os/hal/include/hal.h"
 367              		.section	.debug_info,"",%progbits
 368              	.Ldebug_info0:
 369 0000 1E040000 		.4byte	0x41e
 370 0004 0500     		.2byte	0x5
 371 0006 01       		.byte	0x1
 372 0007 04       		.byte	0x4
 373 0008 00000000 		.4byte	.Ldebug_abbrev0
 374 000c 10       		.uleb128 0x10
 375 000d 20000000 		.4byte	.LASF62
 376 0011 1D       		.byte	0x1d
 377 0012 38030000 		.4byte	.LASF63
 378 0016 CF000000 		.4byte	.LASF64
 379 001a 0C000000 		.4byte	.LLRL0
 380 001e 00000000 		.4byte	0
 381 0022 00000000 		.4byte	.Ldebug_line0
 382 0026 11       		.uleb128 0x11
 383 0027 04       		.byte	0x4
 384 0028 05       		.byte	0x5
 385 0029 696E7400 		.ascii	"int\000"
 386 002d 03       		.uleb128 0x3
ARM GAS  C:\Users\DEVELO~1\AppData\Local\Temp\cc81bBGh.s 			page 8


 387 002e BE000000 		.4byte	.LASF4
 388 0032 02       		.byte	0x2
 389 0033 D1       		.byte	0xd1
 390 0034 17       		.byte	0x17
 391 0035 39000000 		.4byte	0x39
 392 0039 04       		.uleb128 0x4
 393 003a 04       		.byte	0x4
 394 003b 07       		.byte	0x7
 395 003c A1020000 		.4byte	.LASF0
 396 0040 04       		.uleb128 0x4
 397 0041 08       		.byte	0x8
 398 0042 05       		.byte	0x5
 399 0043 D1010000 		.4byte	.LASF1
 400 0047 04       		.uleb128 0x4
 401 0048 08       		.byte	0x8
 402 0049 04       		.byte	0x4
 403 004a 5B020000 		.4byte	.LASF2
 404 004e 04       		.uleb128 0x4
 405 004f 01       		.byte	0x1
 406 0050 06       		.byte	0x6
 407 0051 75020000 		.4byte	.LASF3
 408 0055 03       		.uleb128 0x3
 409 0056 0B020000 		.4byte	.LASF5
 410 005a 03       		.byte	0x3
 411 005b 2B       		.byte	0x2b
 412 005c 18       		.byte	0x18
 413 005d 61000000 		.4byte	0x61
 414 0061 04       		.uleb128 0x4
 415 0062 01       		.byte	0x1
 416 0063 08       		.byte	0x8
 417 0064 67020000 		.4byte	.LASF6
 418 0068 04       		.uleb128 0x4
 419 0069 02       		.byte	0x2
 420 006a 05       		.byte	0x5
 421 006b B4000000 		.4byte	.LASF7
 422 006f 03       		.uleb128 0x3
 423 0070 52010000 		.4byte	.LASF8
 424 0074 03       		.byte	0x3
 425 0075 39       		.byte	0x39
 426 0076 19       		.byte	0x19
 427 0077 7B000000 		.4byte	0x7b
 428 007b 04       		.uleb128 0x4
 429 007c 02       		.byte	0x2
 430 007d 07       		.byte	0x7
 431 007e C8020000 		.4byte	.LASF9
 432 0082 04       		.uleb128 0x4
 433 0083 04       		.byte	0x4
 434 0084 05       		.byte	0x5
 435 0085 F6010000 		.4byte	.LASF10
 436 0089 03       		.uleb128 0x3
 437 008a 3E010000 		.4byte	.LASF11
 438 008e 03       		.byte	0x3
 439 008f 4F       		.byte	0x4f
 440 0090 19       		.byte	0x19
 441 0091 95000000 		.4byte	0x95
 442 0095 04       		.uleb128 0x4
 443 0096 04       		.byte	0x4
ARM GAS  C:\Users\DEVELO~1\AppData\Local\Temp\cc81bBGh.s 			page 9


 444 0097 07       		.byte	0x7
 445 0098 4D030000 		.4byte	.LASF12
 446 009c 03       		.uleb128 0x3
 447 009d 24030000 		.4byte	.LASF13
 448 00a1 03       		.byte	0x3
 449 00a2 69       		.byte	0x69
 450 00a3 19       		.byte	0x19
 451 00a4 A8000000 		.4byte	0xa8
 452 00a8 04       		.uleb128 0x4
 453 00a9 08       		.byte	0x8
 454 00aa 07       		.byte	0x7
 455 00ab 81020000 		.4byte	.LASF14
 456 00af 03       		.uleb128 0x3
 457 00b0 5D010000 		.4byte	.LASF15
 458 00b4 04       		.byte	0x4
 459 00b5 18       		.byte	0x18
 460 00b6 13       		.byte	0x13
 461 00b7 55000000 		.4byte	0x55
 462 00bb 0B       		.uleb128 0xb
 463 00bc AF000000 		.4byte	0xaf
 464 00c0 03       		.uleb128 0x3
 465 00c1 AE020000 		.4byte	.LASF16
 466 00c5 04       		.byte	0x4
 467 00c6 24       		.byte	0x24
 468 00c7 14       		.byte	0x14
 469 00c8 6F000000 		.4byte	0x6f
 470 00cc 03       		.uleb128 0x3
 471 00cd 98020000 		.4byte	.LASF17
 472 00d1 04       		.byte	0x4
 473 00d2 30       		.byte	0x30
 474 00d3 14       		.byte	0x14
 475 00d4 89000000 		.4byte	0x89
 476 00d8 03       		.uleb128 0x3
 477 00d9 AB000000 		.4byte	.LASF18
 478 00dd 04       		.byte	0x4
 479 00de 3C       		.byte	0x3c
 480 00df 14       		.byte	0x14
 481 00e0 9C000000 		.4byte	0x9c
 482 00e4 0C       		.uleb128 0xc
 483 00e5 F0000000 		.4byte	0xf0
 484 00e9 04       		.uleb128 0x4
 485 00ea 01       		.byte	0x1
 486 00eb 08       		.byte	0x8
 487 00ec 1B000000 		.4byte	.LASF19
 488 00f0 0B       		.uleb128 0xb
 489 00f1 E9000000 		.4byte	0xe9
 490 00f5 03       		.uleb128 0x3
 491 00f6 16030000 		.4byte	.LASF20
 492 00fa 05       		.byte	0x5
 493 00fb 79       		.byte	0x79
 494 00fc 12       		.byte	0x12
 495 00fd CC000000 		.4byte	0xcc
 496 0101 03       		.uleb128 0x3
 497 0102 C8030000 		.4byte	.LASF21
 498 0106 05       		.byte	0x5
 499 0107 9B       		.byte	0x9b
 500 0108 12       		.byte	0x12
ARM GAS  C:\Users\DEVELO~1\AppData\Local\Temp\cc81bBGh.s 			page 10


 501 0109 D8000000 		.4byte	0xd8
 502 010d 12       		.uleb128 0x12
 503 010e 04       		.byte	0x4
 504 010f 04       		.uleb128 0x4
 505 0110 01       		.byte	0x1
 506 0111 02       		.byte	0x2
 507 0112 10030000 		.4byte	.LASF22
 508 0116 13       		.uleb128 0x13
 509 0117 07       		.byte	0x7
 510 0118 01       		.byte	0x1
 511 0119 61000000 		.4byte	0x61
 512 011d 06       		.byte	0x6
 513 011e 41       		.byte	0x41
 514 011f 0E       		.byte	0xe
 515 0120 3D010000 		.4byte	0x13d
 516 0124 07       		.uleb128 0x7
 517 0125 F7030000 		.4byte	.LASF23
 518 0129 00       		.byte	0
 519 012a 07       		.uleb128 0x7
 520 012b 4C020000 		.4byte	.LASF24
 521 012f 01       		.byte	0x1
 522 0130 07       		.uleb128 0x7
 523 0131 81010000 		.4byte	.LASF25
 524 0135 02       		.byte	0x2
 525 0136 07       		.uleb128 0x7
 526 0137 15020000 		.4byte	.LASF26
 527 013b 03       		.byte	0x3
 528 013c 00       		.byte	0
 529 013d 03       		.uleb128 0x3
 530 013e 40020000 		.4byte	.LASF27
 531 0142 06       		.byte	0x6
 532 0143 46       		.byte	0x46
 533 0144 03       		.byte	0x3
 534 0145 16010000 		.4byte	0x116
 535 0149 0C       		.uleb128 0xc
 536 014a E9000000 		.4byte	0xe9
 537 014e 14       		.uleb128 0x14
 538 014f 2E010000 		.4byte	.LASF31
 539 0153 09       		.byte	0x9
 540 0154 4201     		.2byte	0x142
 541 0156 08       		.byte	0x8
 542 0157 61010000 		.4byte	0x161
 543 015b 01       		.uleb128 0x1
 544 015c F5000000 		.4byte	0xf5
 545 0160 00       		.byte	0
 546 0161 05       		.uleb128 0x5
 547 0162 65010000 		.4byte	.LASF40
 548 0166 0A       		.byte	0xa
 549 0167 14       		.byte	0x14
 550 0168 15       		.uleb128 0x15
 551 0169 C8010000 		.4byte	.LASF28
 552 016d 07       		.byte	0x7
 553 016e 1401     		.2byte	0x114
 554 0170 05       		.byte	0x5
 555 0171 26000000 		.4byte	0x26
 556 0175 8A010000 		.4byte	0x18a
 557 0179 01       		.uleb128 0x1
ARM GAS  C:\Users\DEVELO~1\AppData\Local\Temp\cc81bBGh.s 			page 11


 558 017a 49010000 		.4byte	0x149
 559 017e 01       		.uleb128 0x1
 560 017f 2D000000 		.4byte	0x2d
 561 0183 01       		.uleb128 0x1
 562 0184 E4000000 		.4byte	0xe4
 563 0188 16       		.uleb128 0x16
 564 0189 00       		.byte	0
 565 018a 06       		.uleb128 0x6
 566 018b 5F030000 		.4byte	.LASF29
 567 018f 08       		.byte	0x8
 568 0190 0E       		.byte	0xe
 569 0191 09       		.byte	0x9
 570 0192 AF000000 		.4byte	0xaf
 571 0196 A0010000 		.4byte	0x1a0
 572 019a 01       		.uleb128 0x1
 573 019b AF000000 		.4byte	0xaf
 574 019f 00       		.byte	0
 575 01a0 06       		.uleb128 0x6
 576 01a1 85030000 		.4byte	.LASF30
 577 01a5 08       		.byte	0x8
 578 01a6 09       		.byte	0x9
 579 01a7 0A       		.byte	0xa
 580 01a8 C0000000 		.4byte	0xc0
 581 01ac B6010000 		.4byte	0x1b6
 582 01b0 01       		.uleb128 0x1
 583 01b1 AF000000 		.4byte	0xaf
 584 01b5 00       		.byte	0
 585 01b6 08       		.uleb128 0x8
 586 01b7 A5010000 		.4byte	.LASF32
 587 01bb 06       		.byte	0x6
 588 01bc A5       		.byte	0xa5
 589 01bd D6010000 		.4byte	0x1d6
 590 01c1 01       		.uleb128 0x1
 591 01c2 3D010000 		.4byte	0x13d
 592 01c6 01       		.uleb128 0x1
 593 01c7 AF000000 		.4byte	0xaf
 594 01cb 01       		.uleb128 0x1
 595 01cc AF000000 		.4byte	0xaf
 596 01d0 01       		.uleb128 0x1
 597 01d1 AF000000 		.4byte	0xaf
 598 01d5 00       		.byte	0
 599 01d6 08       		.uleb128 0x8
 600 01d7 BA010000 		.4byte	.LASF33
 601 01db 06       		.byte	0x6
 602 01dc A0       		.byte	0xa0
 603 01dd F6010000 		.4byte	0x1f6
 604 01e1 01       		.uleb128 0x1
 605 01e2 3D010000 		.4byte	0x13d
 606 01e6 01       		.uleb128 0x1
 607 01e7 AF000000 		.4byte	0xaf
 608 01eb 01       		.uleb128 0x1
 609 01ec AF000000 		.4byte	0xaf
 610 01f0 01       		.uleb128 0x1
 611 01f1 AF000000 		.4byte	0xaf
 612 01f5 00       		.byte	0
 613 01f6 08       		.uleb128 0x8
 614 01f7 8E030000 		.4byte	.LASF34
ARM GAS  C:\Users\DEVELO~1\AppData\Local\Temp\cc81bBGh.s 			page 12


 615 01fb 06       		.byte	0x6
 616 01fc 9B       		.byte	0x9b
 617 01fd 16020000 		.4byte	0x216
 618 0201 01       		.uleb128 0x1
 619 0202 3D010000 		.4byte	0x13d
 620 0206 01       		.uleb128 0x1
 621 0207 AF000000 		.4byte	0xaf
 622 020b 01       		.uleb128 0x1
 623 020c AF000000 		.4byte	0xaf
 624 0210 01       		.uleb128 0x1
 625 0211 AF000000 		.4byte	0xaf
 626 0215 00       		.byte	0
 627 0216 06       		.uleb128 0x6
 628 0217 FE020000 		.4byte	.LASF35
 629 021b 08       		.byte	0x8
 630 021c 0D       		.byte	0xd
 631 021d 09       		.byte	0x9
 632 021e AF000000 		.4byte	0xaf
 633 0222 2C020000 		.4byte	0x22c
 634 0226 01       		.uleb128 0x1
 635 0227 AF000000 		.4byte	0xaf
 636 022b 00       		.byte	0
 637 022c 06       		.uleb128 0x6
 638 022d E5030000 		.4byte	.LASF36
 639 0231 08       		.byte	0x8
 640 0232 0C       		.byte	0xc
 641 0233 09       		.byte	0x9
 642 0234 AF000000 		.4byte	0xaf
 643 0238 42020000 		.4byte	0x242
 644 023c 01       		.uleb128 0x1
 645 023d AF000000 		.4byte	0xaf
 646 0241 00       		.byte	0
 647 0242 06       		.uleb128 0x6
 648 0243 24020000 		.4byte	.LASF37
 649 0247 08       		.byte	0x8
 650 0248 0B       		.byte	0xb
 651 0249 06       		.byte	0x6
 652 024a 0F010000 		.4byte	0x10f
 653 024e 58020000 		.4byte	0x258
 654 0252 01       		.uleb128 0x1
 655 0253 AF000000 		.4byte	0xaf
 656 0257 00       		.byte	0
 657 0258 06       		.uleb128 0x6
 658 0259 D4030000 		.4byte	.LASF38
 659 025d 08       		.byte	0x8
 660 025e 0A       		.byte	0xa
 661 025f 06       		.byte	0x6
 662 0260 0F010000 		.4byte	0x10f
 663 0264 6E020000 		.4byte	0x26e
 664 0268 01       		.uleb128 0x1
 665 0269 AF000000 		.4byte	0xaf
 666 026d 00       		.byte	0
 667 026e 08       		.uleb128 0x8
 668 026f A8030000 		.4byte	.LASF39
 669 0273 0A       		.byte	0xa
 670 0274 22       		.byte	0x22
 671 0275 89020000 		.4byte	0x289
ARM GAS  C:\Users\DEVELO~1\AppData\Local\Temp\cc81bBGh.s 			page 13


 672 0279 01       		.uleb128 0x1
 673 027a AF000000 		.4byte	0xaf
 674 027e 01       		.uleb128 0x1
 675 027f AF000000 		.4byte	0xaf
 676 0283 01       		.uleb128 0x1
 677 0284 E4000000 		.4byte	0xe4
 678 0288 00       		.byte	0
 679 0289 05       		.uleb128 0x5
 680 028a 73030000 		.4byte	.LASF41
 681 028e 0A       		.byte	0xa
 682 028f 13       		.byte	0x13
 683 0290 05       		.uleb128 0x5
 684 0291 F2020000 		.4byte	.LASF42
 685 0295 08       		.byte	0x8
 686 0296 08       		.byte	0x8
 687 0297 06       		.uleb128 0x6
 688 0298 E7010000 		.4byte	.LASF43
 689 029c 0B       		.byte	0xb
 690 029d 21       		.byte	0x21
 691 029e 09       		.byte	0x9
 692 029f 0D010000 		.4byte	0x10d
 693 02a3 B7020000 		.4byte	0x2b7
 694 02a7 01       		.uleb128 0x1
 695 02a8 0D010000 		.4byte	0x10d
 696 02ac 01       		.uleb128 0x1
 697 02ad 26000000 		.4byte	0x26
 698 02b1 01       		.uleb128 0x1
 699 02b2 2D000000 		.4byte	0x2d
 700 02b6 00       		.byte	0
 701 02b7 05       		.uleb128 0x5
 702 02b8 36020000 		.4byte	.LASF44
 703 02bc 06       		.byte	0x6
 704 02bd 7D       		.byte	0x7d
 705 02be 05       		.uleb128 0x5
 706 02bf B7020000 		.4byte	.LASF45
 707 02c3 0C       		.byte	0xc
 708 02c4 26       		.byte	0x26
 709 02c5 05       		.uleb128 0x5
 710 02c6 BE030000 		.4byte	.LASF46
 711 02ca 08       		.byte	0x8
 712 02cb 07       		.byte	0x7
 713 02cc 05       		.uleb128 0x5
 714 02cd 0A000000 		.4byte	.LASF47
 715 02d1 0A       		.byte	0xa
 716 02d2 12       		.byte	0x12
 717 02d3 05       		.uleb128 0x5
 718 02d4 94010000 		.4byte	.LASF48
 719 02d8 0D       		.byte	0xd
 720 02d9 28       		.byte	0x28
 721 02da 0D       		.uleb128 0xd
 722 02db C5000000 		.4byte	.LASF49
 723 02df 0E       		.byte	0xe
 724 02e0 4E01     		.2byte	0x14e
 725 02e2 0D       		.uleb128 0xd
 726 02e3 DF010000 		.4byte	.LASF50
 727 02e7 0F       		.byte	0xf
 728 02e8 0101     		.2byte	0x101
ARM GAS  C:\Users\DEVELO~1\AppData\Local\Temp\cc81bBGh.s 			page 14


 729 02ea 17       		.uleb128 0x17
 730 02eb 39010000 		.4byte	.LASF65
 731 02ef 01       		.byte	0x1
 732 02f0 0B       		.byte	0xb
 733 02f1 05       		.byte	0x5
 734 02f2 26000000 		.4byte	0x26
 735 02f6 00000000 		.4byte	.LFB435
 736 02fa 78020000 		.4byte	.LFE435-.LFB435
 737 02fe 01       		.uleb128 0x1
 738 02ff 9C       		.byte	0x9c
 739 0300 F5030000 		.4byte	0x3f5
 740 0304 02       		.uleb128 0x2
 741 0305 8F010000 		.4byte	.LASF51
 742 0309 16       		.byte	0x16
 743 030a 08       		.byte	0x8
 744 030b F5030000 		.4byte	0x3f5
 745 030f 02       		.uleb128 0x2
 746 0310 91       		.byte	0x91
 747 0311 48       		.sleb128 -56
 748 0312 02       		.uleb128 0x2
 749 0313 9B030000 		.4byte	.LASF52
 750 0317 17       		.byte	0x17
 751 0318 11       		.byte	0x11
 752 0319 BB000000 		.4byte	0xbb
 753 031d 02       		.uleb128 0x2
 754 031e 91       		.byte	0x91
 755 031f 76       		.sleb128 -10
 756 0320 02       		.uleb128 0x2
 757 0321 00000000 		.4byte	.LASF53
 758 0325 18       		.byte	0x18
 759 0326 11       		.byte	0x11
 760 0327 BB000000 		.4byte	0xbb
 761 032b 02       		.uleb128 0x2
 762 032c 91       		.byte	0x91
 763 032d 75       		.sleb128 -11
 764 032e 02       		.uleb128 0x2
 765 032f FF010000 		.4byte	.LASF54
 766 0333 19       		.byte	0x19
 767 0334 08       		.byte	0x8
 768 0335 05040000 		.4byte	0x405
 769 0339 03       		.uleb128 0x3
 770 033a 91       		.byte	0x91
 771 033b B87F     		.sleb128 -72
 772 033d 02       		.uleb128 0x2
 773 033e 3F030000 		.4byte	.LASF55
 774 0342 1A       		.byte	0x1a
 775 0343 0B       		.byte	0xb
 776 0344 15040000 		.4byte	0x415
 777 0348 03       		.uleb128 0x3
 778 0349 91       		.byte	0x91
 779 034a A87F     		.sleb128 -88
 780 034c 09       		.uleb128 0x9
 781 034d 48000000 		.4byte	.LBB2
 782 0351 0C020000 		.4byte	.LBE2-.LBB2
 783 0355 0E       		.uleb128 0xe
 784 0356 72617700 		.ascii	"raw\000"
 785 035a 3E       		.byte	0x3e
ARM GAS  C:\Users\DEVELO~1\AppData\Local\Temp\cc81bBGh.s 			page 15


 786 035b 0E       		.byte	0xe
 787 035c C0000000 		.4byte	0xc0
 788 0360 02       		.uleb128 0x2
 789 0361 91       		.byte	0x91
 790 0362 72       		.sleb128 -14
 791 0363 02       		.uleb128 0x2
 792 0364 E7020000 		.4byte	.LASF56
 793 0368 3F       		.byte	0x3f
 794 0369 0D       		.byte	0xd
 795 036a AF000000 		.4byte	0xaf
 796 036e 02       		.uleb128 0x2
 797 036f 91       		.byte	0x91
 798 0370 71       		.sleb128 -15
 799 0371 02       		.uleb128 0x2
 800 0372 49010000 		.4byte	.LASF57
 801 0376 40       		.byte	0x40
 802 0377 0D       		.byte	0xd
 803 0378 AF000000 		.4byte	0xaf
 804 037c 02       		.uleb128 0x2
 805 037d 91       		.byte	0x91
 806 037e 70       		.sleb128 -16
 807 037f 02       		.uleb128 0x2
 808 0380 78010000 		.4byte	.LASF58
 809 0384 41       		.byte	0x41
 810 0385 0D       		.byte	0xd
 811 0386 AF000000 		.4byte	0xaf
 812 038a 02       		.uleb128 0x2
 813 038b 91       		.byte	0x91
 814 038c 6F       		.sleb128 -17
 815 038d 09       		.uleb128 0x9
 816 038e 5A000000 		.4byte	.LBB3
 817 0392 06010000 		.4byte	.LBE3-.LBB3
 818 0396 0E       		.uleb128 0xe
 819 0397 6900     		.ascii	"i\000"
 820 0399 25       		.byte	0x25
 821 039a 12       		.byte	0x12
 822 039b AF000000 		.4byte	0xaf
 823 039f 02       		.uleb128 0x2
 824 03a0 91       		.byte	0x91
 825 03a1 77       		.sleb128 -9
 826 03a2 09       		.uleb128 0x9
 827 03a3 62000000 		.4byte	.LBB4
 828 03a7 EC000000 		.4byte	.LBE4-.LBB4
 829 03ab 02       		.uleb128 0x2
 830 03ac EE010000 		.4byte	.LASF59
 831 03b0 26       		.byte	0x26
 832 03b1 0C       		.byte	0xc
 833 03b2 0F010000 		.4byte	0x10f
 834 03b6 02       		.uleb128 0x2
 835 03b7 91       		.byte	0x91
 836 03b8 6E       		.sleb128 -18
 837 03b9 02       		.uleb128 0x2
 838 03ba 2F030000 		.4byte	.LASF60
 839 03be 27       		.byte	0x27
 840 03bf 0C       		.byte	0xc
 841 03c0 0F010000 		.4byte	0x10f
 842 03c4 02       		.uleb128 0x2
ARM GAS  C:\Users\DEVELO~1\AppData\Local\Temp\cc81bBGh.s 			page 16


 843 03c5 91       		.byte	0x91
 844 03c6 6D       		.sleb128 -19
 845 03c7 02       		.uleb128 0x2
 846 03c8 49010000 		.4byte	.LASF57
 847 03cc 28       		.byte	0x28
 848 03cd 0F       		.byte	0xf
 849 03ce AF000000 		.4byte	0xaf
 850 03d2 02       		.uleb128 0x2
 851 03d3 91       		.byte	0x91
 852 03d4 6C       		.sleb128 -20
 853 03d5 02       		.uleb128 0x2
 854 03d6 78010000 		.4byte	.LASF58
 855 03da 29       		.byte	0x29
 856 03db 0F       		.byte	0xf
 857 03dc AF000000 		.4byte	0xaf
 858 03e0 02       		.uleb128 0x2
 859 03e1 91       		.byte	0x91
 860 03e2 6B       		.sleb128 -21
 861 03e3 02       		.uleb128 0x2
 862 03e4 DB020000 		.4byte	.LASF61
 863 03e8 2A       		.byte	0x2a
 864 03e9 0F       		.byte	0xf
 865 03ea AF000000 		.4byte	0xaf
 866 03ee 02       		.uleb128 0x2
 867 03ef 91       		.byte	0x91
 868 03f0 6A       		.sleb128 -22
 869 03f1 00       		.byte	0
 870 03f2 00       		.byte	0
 871 03f3 00       		.byte	0
 872 03f4 00       		.byte	0
 873 03f5 0F       		.uleb128 0xf
 874 03f6 E9000000 		.4byte	0xe9
 875 03fa 05040000 		.4byte	0x405
 876 03fe 0A       		.uleb128 0xa
 877 03ff 39000000 		.4byte	0x39
 878 0403 1F       		.byte	0x1f
 879 0404 00       		.byte	0
 880 0405 0F       		.uleb128 0xf
 881 0406 0F010000 		.4byte	0x10f
 882 040a 15040000 		.4byte	0x415
 883 040e 0A       		.uleb128 0xa
 884 040f 39000000 		.4byte	0x39
 885 0413 0F       		.byte	0xf
 886 0414 00       		.byte	0
 887 0415 18       		.uleb128 0x18
 888 0416 AF000000 		.4byte	0xaf
 889 041a 0A       		.uleb128 0xa
 890 041b 39000000 		.4byte	0x39
 891 041f 0F       		.byte	0xf
 892 0420 00       		.byte	0
 893 0421 00       		.byte	0
 894              		.section	.debug_abbrev,"",%progbits
 895              	.Ldebug_abbrev0:
 896 0000 01       		.uleb128 0x1
 897 0001 05       		.uleb128 0x5
 898 0002 00       		.byte	0
 899 0003 49       		.uleb128 0x49
ARM GAS  C:\Users\DEVELO~1\AppData\Local\Temp\cc81bBGh.s 			page 17


 900 0004 13       		.uleb128 0x13
 901 0005 00       		.byte	0
 902 0006 00       		.byte	0
 903 0007 02       		.uleb128 0x2
 904 0008 34       		.uleb128 0x34
 905 0009 00       		.byte	0
 906 000a 03       		.uleb128 0x3
 907 000b 0E       		.uleb128 0xe
 908 000c 3A       		.uleb128 0x3a
 909 000d 21       		.uleb128 0x21
 910 000e 01       		.sleb128 1
 911 000f 3B       		.uleb128 0x3b
 912 0010 0B       		.uleb128 0xb
 913 0011 39       		.uleb128 0x39
 914 0012 0B       		.uleb128 0xb
 915 0013 49       		.uleb128 0x49
 916 0014 13       		.uleb128 0x13
 917 0015 02       		.uleb128 0x2
 918 0016 18       		.uleb128 0x18
 919 0017 00       		.byte	0
 920 0018 00       		.byte	0
 921 0019 03       		.uleb128 0x3
 922 001a 16       		.uleb128 0x16
 923 001b 00       		.byte	0
 924 001c 03       		.uleb128 0x3
 925 001d 0E       		.uleb128 0xe
 926 001e 3A       		.uleb128 0x3a
 927 001f 0B       		.uleb128 0xb
 928 0020 3B       		.uleb128 0x3b
 929 0021 0B       		.uleb128 0xb
 930 0022 39       		.uleb128 0x39
 931 0023 0B       		.uleb128 0xb
 932 0024 49       		.uleb128 0x49
 933 0025 13       		.uleb128 0x13
 934 0026 00       		.byte	0
 935 0027 00       		.byte	0
 936 0028 04       		.uleb128 0x4
 937 0029 24       		.uleb128 0x24
 938 002a 00       		.byte	0
 939 002b 0B       		.uleb128 0xb
 940 002c 0B       		.uleb128 0xb
 941 002d 3E       		.uleb128 0x3e
 942 002e 0B       		.uleb128 0xb
 943 002f 03       		.uleb128 0x3
 944 0030 0E       		.uleb128 0xe
 945 0031 00       		.byte	0
 946 0032 00       		.byte	0
 947 0033 05       		.uleb128 0x5
 948 0034 2E       		.uleb128 0x2e
 949 0035 00       		.byte	0
 950 0036 3F       		.uleb128 0x3f
 951 0037 19       		.uleb128 0x19
 952 0038 03       		.uleb128 0x3
 953 0039 0E       		.uleb128 0xe
 954 003a 3A       		.uleb128 0x3a
 955 003b 0B       		.uleb128 0xb
 956 003c 3B       		.uleb128 0x3b
ARM GAS  C:\Users\DEVELO~1\AppData\Local\Temp\cc81bBGh.s 			page 18


 957 003d 0B       		.uleb128 0xb
 958 003e 39       		.uleb128 0x39
 959 003f 21       		.uleb128 0x21
 960 0040 06       		.sleb128 6
 961 0041 27       		.uleb128 0x27
 962 0042 19       		.uleb128 0x19
 963 0043 3C       		.uleb128 0x3c
 964 0044 19       		.uleb128 0x19
 965 0045 00       		.byte	0
 966 0046 00       		.byte	0
 967 0047 06       		.uleb128 0x6
 968 0048 2E       		.uleb128 0x2e
 969 0049 01       		.byte	0x1
 970 004a 3F       		.uleb128 0x3f
 971 004b 19       		.uleb128 0x19
 972 004c 03       		.uleb128 0x3
 973 004d 0E       		.uleb128 0xe
 974 004e 3A       		.uleb128 0x3a
 975 004f 0B       		.uleb128 0xb
 976 0050 3B       		.uleb128 0x3b
 977 0051 0B       		.uleb128 0xb
 978 0052 39       		.uleb128 0x39
 979 0053 0B       		.uleb128 0xb
 980 0054 27       		.uleb128 0x27
 981 0055 19       		.uleb128 0x19
 982 0056 49       		.uleb128 0x49
 983 0057 13       		.uleb128 0x13
 984 0058 3C       		.uleb128 0x3c
 985 0059 19       		.uleb128 0x19
 986 005a 01       		.uleb128 0x1
 987 005b 13       		.uleb128 0x13
 988 005c 00       		.byte	0
 989 005d 00       		.byte	0
 990 005e 07       		.uleb128 0x7
 991 005f 28       		.uleb128 0x28
 992 0060 00       		.byte	0
 993 0061 03       		.uleb128 0x3
 994 0062 0E       		.uleb128 0xe
 995 0063 1C       		.uleb128 0x1c
 996 0064 0B       		.uleb128 0xb
 997 0065 00       		.byte	0
 998 0066 00       		.byte	0
 999 0067 08       		.uleb128 0x8
 1000 0068 2E       		.uleb128 0x2e
 1001 0069 01       		.byte	0x1
 1002 006a 3F       		.uleb128 0x3f
 1003 006b 19       		.uleb128 0x19
 1004 006c 03       		.uleb128 0x3
 1005 006d 0E       		.uleb128 0xe
 1006 006e 3A       		.uleb128 0x3a
 1007 006f 0B       		.uleb128 0xb
 1008 0070 3B       		.uleb128 0x3b
 1009 0071 0B       		.uleb128 0xb
 1010 0072 39       		.uleb128 0x39
 1011 0073 21       		.uleb128 0x21
 1012 0074 06       		.sleb128 6
 1013 0075 27       		.uleb128 0x27
ARM GAS  C:\Users\DEVELO~1\AppData\Local\Temp\cc81bBGh.s 			page 19


 1014 0076 19       		.uleb128 0x19
 1015 0077 3C       		.uleb128 0x3c
 1016 0078 19       		.uleb128 0x19
 1017 0079 01       		.uleb128 0x1
 1018 007a 13       		.uleb128 0x13
 1019 007b 00       		.byte	0
 1020 007c 00       		.byte	0
 1021 007d 09       		.uleb128 0x9
 1022 007e 0B       		.uleb128 0xb
 1023 007f 01       		.byte	0x1
 1024 0080 11       		.uleb128 0x11
 1025 0081 01       		.uleb128 0x1
 1026 0082 12       		.uleb128 0x12
 1027 0083 06       		.uleb128 0x6
 1028 0084 00       		.byte	0
 1029 0085 00       		.byte	0
 1030 0086 0A       		.uleb128 0xa
 1031 0087 21       		.uleb128 0x21
 1032 0088 00       		.byte	0
 1033 0089 49       		.uleb128 0x49
 1034 008a 13       		.uleb128 0x13
 1035 008b 2F       		.uleb128 0x2f
 1036 008c 0B       		.uleb128 0xb
 1037 008d 00       		.byte	0
 1038 008e 00       		.byte	0
 1039 008f 0B       		.uleb128 0xb
 1040 0090 26       		.uleb128 0x26
 1041 0091 00       		.byte	0
 1042 0092 49       		.uleb128 0x49
 1043 0093 13       		.uleb128 0x13
 1044 0094 00       		.byte	0
 1045 0095 00       		.byte	0
 1046 0096 0C       		.uleb128 0xc
 1047 0097 0F       		.uleb128 0xf
 1048 0098 00       		.byte	0
 1049 0099 0B       		.uleb128 0xb
 1050 009a 21       		.uleb128 0x21
 1051 009b 04       		.sleb128 4
 1052 009c 49       		.uleb128 0x49
 1053 009d 13       		.uleb128 0x13
 1054 009e 00       		.byte	0
 1055 009f 00       		.byte	0
 1056 00a0 0D       		.uleb128 0xd
 1057 00a1 2E       		.uleb128 0x2e
 1058 00a2 00       		.byte	0
 1059 00a3 3F       		.uleb128 0x3f
 1060 00a4 19       		.uleb128 0x19
 1061 00a5 03       		.uleb128 0x3
 1062 00a6 0E       		.uleb128 0xe
 1063 00a7 3A       		.uleb128 0x3a
 1064 00a8 0B       		.uleb128 0xb
 1065 00a9 3B       		.uleb128 0x3b
 1066 00aa 05       		.uleb128 0x5
 1067 00ab 39       		.uleb128 0x39
 1068 00ac 21       		.uleb128 0x21
 1069 00ad 08       		.sleb128 8
 1070 00ae 27       		.uleb128 0x27
ARM GAS  C:\Users\DEVELO~1\AppData\Local\Temp\cc81bBGh.s 			page 20


 1071 00af 19       		.uleb128 0x19
 1072 00b0 3C       		.uleb128 0x3c
 1073 00b1 19       		.uleb128 0x19
 1074 00b2 00       		.byte	0
 1075 00b3 00       		.byte	0
 1076 00b4 0E       		.uleb128 0xe
 1077 00b5 34       		.uleb128 0x34
 1078 00b6 00       		.byte	0
 1079 00b7 03       		.uleb128 0x3
 1080 00b8 08       		.uleb128 0x8
 1081 00b9 3A       		.uleb128 0x3a
 1082 00ba 21       		.uleb128 0x21
 1083 00bb 01       		.sleb128 1
 1084 00bc 3B       		.uleb128 0x3b
 1085 00bd 0B       		.uleb128 0xb
 1086 00be 39       		.uleb128 0x39
 1087 00bf 0B       		.uleb128 0xb
 1088 00c0 49       		.uleb128 0x49
 1089 00c1 13       		.uleb128 0x13
 1090 00c2 02       		.uleb128 0x2
 1091 00c3 18       		.uleb128 0x18
 1092 00c4 00       		.byte	0
 1093 00c5 00       		.byte	0
 1094 00c6 0F       		.uleb128 0xf
 1095 00c7 01       		.uleb128 0x1
 1096 00c8 01       		.byte	0x1
 1097 00c9 49       		.uleb128 0x49
 1098 00ca 13       		.uleb128 0x13
 1099 00cb 01       		.uleb128 0x1
 1100 00cc 13       		.uleb128 0x13
 1101 00cd 00       		.byte	0
 1102 00ce 00       		.byte	0
 1103 00cf 10       		.uleb128 0x10
 1104 00d0 11       		.uleb128 0x11
 1105 00d1 01       		.byte	0x1
 1106 00d2 25       		.uleb128 0x25
 1107 00d3 0E       		.uleb128 0xe
 1108 00d4 13       		.uleb128 0x13
 1109 00d5 0B       		.uleb128 0xb
 1110 00d6 03       		.uleb128 0x3
 1111 00d7 0E       		.uleb128 0xe
 1112 00d8 1B       		.uleb128 0x1b
 1113 00d9 0E       		.uleb128 0xe
 1114 00da 55       		.uleb128 0x55
 1115 00db 17       		.uleb128 0x17
 1116 00dc 11       		.uleb128 0x11
 1117 00dd 01       		.uleb128 0x1
 1118 00de 10       		.uleb128 0x10
 1119 00df 17       		.uleb128 0x17
 1120 00e0 00       		.byte	0
 1121 00e1 00       		.byte	0
 1122 00e2 11       		.uleb128 0x11
 1123 00e3 24       		.uleb128 0x24
 1124 00e4 00       		.byte	0
 1125 00e5 0B       		.uleb128 0xb
 1126 00e6 0B       		.uleb128 0xb
 1127 00e7 3E       		.uleb128 0x3e
ARM GAS  C:\Users\DEVELO~1\AppData\Local\Temp\cc81bBGh.s 			page 21


 1128 00e8 0B       		.uleb128 0xb
 1129 00e9 03       		.uleb128 0x3
 1130 00ea 08       		.uleb128 0x8
 1131 00eb 00       		.byte	0
 1132 00ec 00       		.byte	0
 1133 00ed 12       		.uleb128 0x12
 1134 00ee 0F       		.uleb128 0xf
 1135 00ef 00       		.byte	0
 1136 00f0 0B       		.uleb128 0xb
 1137 00f1 0B       		.uleb128 0xb
 1138 00f2 00       		.byte	0
 1139 00f3 00       		.byte	0
 1140 00f4 13       		.uleb128 0x13
 1141 00f5 04       		.uleb128 0x4
 1142 00f6 01       		.byte	0x1
 1143 00f7 3E       		.uleb128 0x3e
 1144 00f8 0B       		.uleb128 0xb
 1145 00f9 0B       		.uleb128 0xb
 1146 00fa 0B       		.uleb128 0xb
 1147 00fb 49       		.uleb128 0x49
 1148 00fc 13       		.uleb128 0x13
 1149 00fd 3A       		.uleb128 0x3a
 1150 00fe 0B       		.uleb128 0xb
 1151 00ff 3B       		.uleb128 0x3b
 1152 0100 0B       		.uleb128 0xb
 1153 0101 39       		.uleb128 0x39
 1154 0102 0B       		.uleb128 0xb
 1155 0103 01       		.uleb128 0x1
 1156 0104 13       		.uleb128 0x13
 1157 0105 00       		.byte	0
 1158 0106 00       		.byte	0
 1159 0107 14       		.uleb128 0x14
 1160 0108 2E       		.uleb128 0x2e
 1161 0109 01       		.byte	0x1
 1162 010a 3F       		.uleb128 0x3f
 1163 010b 19       		.uleb128 0x19
 1164 010c 03       		.uleb128 0x3
 1165 010d 0E       		.uleb128 0xe
 1166 010e 3A       		.uleb128 0x3a
 1167 010f 0B       		.uleb128 0xb
 1168 0110 3B       		.uleb128 0x3b
 1169 0111 05       		.uleb128 0x5
 1170 0112 39       		.uleb128 0x39
 1171 0113 0B       		.uleb128 0xb
 1172 0114 27       		.uleb128 0x27
 1173 0115 19       		.uleb128 0x19
 1174 0116 3C       		.uleb128 0x3c
 1175 0117 19       		.uleb128 0x19
 1176 0118 01       		.uleb128 0x1
 1177 0119 13       		.uleb128 0x13
 1178 011a 00       		.byte	0
 1179 011b 00       		.byte	0
 1180 011c 15       		.uleb128 0x15
 1181 011d 2E       		.uleb128 0x2e
 1182 011e 01       		.byte	0x1
 1183 011f 3F       		.uleb128 0x3f
 1184 0120 19       		.uleb128 0x19
ARM GAS  C:\Users\DEVELO~1\AppData\Local\Temp\cc81bBGh.s 			page 22


 1185 0121 03       		.uleb128 0x3
 1186 0122 0E       		.uleb128 0xe
 1187 0123 3A       		.uleb128 0x3a
 1188 0124 0B       		.uleb128 0xb
 1189 0125 3B       		.uleb128 0x3b
 1190 0126 05       		.uleb128 0x5
 1191 0127 39       		.uleb128 0x39
 1192 0128 0B       		.uleb128 0xb
 1193 0129 27       		.uleb128 0x27
 1194 012a 19       		.uleb128 0x19
 1195 012b 49       		.uleb128 0x49
 1196 012c 13       		.uleb128 0x13
 1197 012d 3C       		.uleb128 0x3c
 1198 012e 19       		.uleb128 0x19
 1199 012f 01       		.uleb128 0x1
 1200 0130 13       		.uleb128 0x13
 1201 0131 00       		.byte	0
 1202 0132 00       		.byte	0
 1203 0133 16       		.uleb128 0x16
 1204 0134 18       		.uleb128 0x18
 1205 0135 00       		.byte	0
 1206 0136 00       		.byte	0
 1207 0137 00       		.byte	0
 1208 0138 17       		.uleb128 0x17
 1209 0139 2E       		.uleb128 0x2e
 1210 013a 01       		.byte	0x1
 1211 013b 3F       		.uleb128 0x3f
 1212 013c 19       		.uleb128 0x19
 1213 013d 03       		.uleb128 0x3
 1214 013e 0E       		.uleb128 0xe
 1215 013f 3A       		.uleb128 0x3a
 1216 0140 0B       		.uleb128 0xb
 1217 0141 3B       		.uleb128 0x3b
 1218 0142 0B       		.uleb128 0xb
 1219 0143 39       		.uleb128 0x39
 1220 0144 0B       		.uleb128 0xb
 1221 0145 27       		.uleb128 0x27
 1222 0146 19       		.uleb128 0x19
 1223 0147 49       		.uleb128 0x49
 1224 0148 13       		.uleb128 0x13
 1225 0149 11       		.uleb128 0x11
 1226 014a 01       		.uleb128 0x1
 1227 014b 12       		.uleb128 0x12
 1228 014c 06       		.uleb128 0x6
 1229 014d 40       		.uleb128 0x40
 1230 014e 18       		.uleb128 0x18
 1231 014f 7C       		.uleb128 0x7c
 1232 0150 19       		.uleb128 0x19
 1233 0151 01       		.uleb128 0x1
 1234 0152 13       		.uleb128 0x13
 1235 0153 00       		.byte	0
 1236 0154 00       		.byte	0
 1237 0155 18       		.uleb128 0x18
 1238 0156 01       		.uleb128 0x1
 1239 0157 01       		.byte	0x1
 1240 0158 49       		.uleb128 0x49
 1241 0159 13       		.uleb128 0x13
ARM GAS  C:\Users\DEVELO~1\AppData\Local\Temp\cc81bBGh.s 			page 23


 1242 015a 00       		.byte	0
 1243 015b 00       		.byte	0
 1244 015c 00       		.byte	0
 1245              		.section	.debug_aranges,"",%progbits
 1246 0000 1C000000 		.4byte	0x1c
 1247 0004 0200     		.2byte	0x2
 1248 0006 00000000 		.4byte	.Ldebug_info0
 1249 000a 04       		.byte	0x4
 1250 000b 00       		.byte	0
 1251 000c 0000     		.2byte	0
 1252 000e 0000     		.2byte	0
 1253 0010 00000000 		.4byte	.LFB435
 1254 0014 78020000 		.4byte	.LFE435-.LFB435
 1255 0018 00000000 		.4byte	0
 1256 001c 00000000 		.4byte	0
 1257              		.section	.debug_rnglists,"",%progbits
 1258              	.Ldebug_ranges0:
 1259 0000 10000000 		.4byte	.Ldebug_ranges3-.Ldebug_ranges2
 1260              	.Ldebug_ranges2:
 1261 0004 0500     		.2byte	0x5
 1262 0006 04       		.byte	0x4
 1263 0007 00       		.byte	0
 1264 0008 00000000 		.4byte	0
 1265              	.LLRL0:
 1266 000c 07       		.byte	0x7
 1267 000d 00000000 		.4byte	.LFB435
 1268 0011 F804     		.uleb128 .LFE435-.LFB435
 1269 0013 00       		.byte	0
 1270              	.Ldebug_ranges3:
 1271              		.section	.debug_line,"",%progbits
 1272              	.Ldebug_line0:
 1273 0000 58030000 		.section	.debug_str,"MS",%progbits,1
 1273      03008002 
 1273      00000201 
 1273      FB0E0D00 
 1273      01010101 
 1274              	.LASF53:
 1275 0000 62617365 		.ascii	"base_note\000"
 1275      5F6E6F74 
 1275      6500
 1276              	.LASF47:
 1277 000a 6472765F 		.ascii	"drv_display_init\000"
 1277      64697370 
 1277      6C61795F 
 1277      696E6974 
 1277      00
 1278              	.LASF19:
 1279 001b 63686172 		.ascii	"char\000"
 1279      00
 1280              	.LASF62:
 1281 0020 474E5520 		.ascii	"GNU C17 11.3.1 20220712 -mcpu=cortex-m7 -mthumb -mf"
 1281      43313720 
 1281      31312E33 
 1281      2E312032 
 1281      30323230 
 1282 0053 6C6F6174 		.ascii	"loat-abi=soft -march=armv7e-m -ggdb -O0 -ffunction-"
 1282      2D616269 
ARM GAS  C:\Users\DEVELO~1\AppData\Local\Temp\cc81bBGh.s 			page 24


 1282      3D736F66 
 1282      74202D6D 
 1282      61726368 
 1283 0086 73656374 		.ascii	"sections -fdata-sections -fno-common\000"
 1283      696F6E73 
 1283      202D6664 
 1283      6174612D 
 1283      73656374 
 1284              	.LASF18:
 1285 00ab 75696E74 		.ascii	"uint64_t\000"
 1285      36345F74 
 1285      00
 1286              	.LASF7:
 1287 00b4 73686F72 		.ascii	"short int\000"
 1287      7420696E 
 1287      7400
 1288              	.LASF4:
 1289 00be 73697A65 		.ascii	"size_t\000"
 1289      5F7400
 1290              	.LASF49:
 1291 00c5 63685379 		.ascii	"chSysInit\000"
 1291      73496E69 
 1291      7400
 1292              	.LASF64:
 1293 00cf 433A5C50 		.ascii	"C:\\PROJET\\ChibiOS project\\ChibiOS_21.11.4\\demos"
 1293      524F4A45 
 1293      545C4368 
 1293      6962694F 
 1293      53207072 
 1294 00fe 5C53544D 		.ascii	"\\STM32\\RT-STM32H743ZI_REV_XY-NUCLEO144_Quartz8M\000"
 1294      33325C52 
 1294      542D5354 
 1294      4D333248 
 1294      3734335A 
 1295              	.LASF31:
 1296 012e 63685468 		.ascii	"chThdSleep\000"
 1296      64536C65 
 1296      657000
 1297              	.LASF65:
 1298 0139 6D61696E 		.ascii	"main\000"
 1298      00
 1299              	.LASF11:
 1300 013e 5F5F7569 		.ascii	"__uint32_t\000"
 1300      6E743332 
 1300      5F7400
 1301              	.LASF57:
 1302 0149 76656C6F 		.ascii	"velocity\000"
 1302      63697479 
 1302      00
 1303              	.LASF8:
 1304 0152 5F5F7569 		.ascii	"__uint16_t\000"
 1304      6E743136 
 1304      5F7400
 1305              	.LASF15:
 1306 015d 75696E74 		.ascii	"uint8_t\000"
 1306      385F7400 
 1307              	.LASF40:
ARM GAS  C:\Users\DEVELO~1\AppData\Local\Temp\cc81bBGh.s 			page 25


 1308 0165 6472765F 		.ascii	"drv_display_update\000"
 1308      64697370 
 1308      6C61795F 
 1308      75706461 
 1308      746500
 1309              	.LASF58:
 1310 0178 70726573 		.ascii	"pressure\000"
 1310      73757265 
 1310      00
 1311              	.LASF25:
 1312 0181 4D494449 		.ascii	"MIDI_DEST_USB\000"
 1312      5F444553 
 1312      545F5553 
 1312      4200
 1313              	.LASF51:
 1314 018f 6C696E65 		.ascii	"line\000"
 1314      00
 1315              	.LASF48:
 1316 0194 64726976 		.ascii	"drivers_init_all\000"
 1316      6572735F 
 1316      696E6974 
 1316      5F616C6C 
 1316      00
 1317              	.LASF32:
 1318 01a5 6D696469 		.ascii	"midi_poly_aftertouch\000"
 1318      5F706F6C 
 1318      795F6166 
 1318      74657274 
 1318      6F756368 
 1319              	.LASF33:
 1320 01ba 6D696469 		.ascii	"midi_note_off\000"
 1320      5F6E6F74 
 1320      655F6F66 
 1320      6600
 1321              	.LASF28:
 1322 01c8 736E7072 		.ascii	"snprintf\000"
 1322      696E7466 
 1322      00
 1323              	.LASF1:
 1324 01d1 6C6F6E67 		.ascii	"long long int\000"
 1324      206C6F6E 
 1324      6720696E 
 1324      7400
 1325              	.LASF50:
 1326 01df 68616C49 		.ascii	"halInit\000"
 1326      6E697400 
 1327              	.LASF43:
 1328 01e7 6D656D73 		.ascii	"memset\000"
 1328      657400
 1329              	.LASF59:
 1330 01ee 6E6F7465 		.ascii	"note_on\000"
 1330      5F6F6E00 
 1331              	.LASF10:
 1332 01f6 6C6F6E67 		.ascii	"long int\000"
 1332      20696E74 
 1332      00
 1333              	.LASF54:
ARM GAS  C:\Users\DEVELO~1\AppData\Local\Temp\cc81bBGh.s 			page 26


 1334 01ff 6E6F7465 		.ascii	"note_active\000"
 1334      5F616374 
 1334      69766500 
 1335              	.LASF5:
 1336 020b 5F5F7569 		.ascii	"__uint8_t\000"
 1336      6E74385F 
 1336      7400
 1337              	.LASF26:
 1338 0215 4D494449 		.ascii	"MIDI_DEST_BOTH\000"
 1338      5F444553 
 1338      545F424F 
 1338      544800
 1339              	.LASF37:
 1340 0224 68616C6C 		.ascii	"hall_get_note_off\000"
 1340      5F676574 
 1340      5F6E6F74 
 1340      655F6F66 
 1340      6600
 1341              	.LASF44:
 1342 0236 6D696469 		.ascii	"midi_init\000"
 1342      5F696E69 
 1342      7400
 1343              	.LASF27:
 1344 0240 6D696469 		.ascii	"midi_dest_t\000"
 1344      5F646573 
 1344      745F7400 
 1345              	.LASF24:
 1346 024c 4D494449 		.ascii	"MIDI_DEST_UART\000"
 1346      5F444553 
 1346      545F5541 
 1346      525400
 1347              	.LASF2:
 1348 025b 6C6F6E67 		.ascii	"long double\000"
 1348      20646F75 
 1348      626C6500 
 1349              	.LASF6:
 1350 0267 756E7369 		.ascii	"unsigned char\000"
 1350      676E6564 
 1350      20636861 
 1350      7200
 1351              	.LASF3:
 1352 0275 7369676E 		.ascii	"signed char\000"
 1352      65642063 
 1352      68617200 
 1353              	.LASF14:
 1354 0281 6C6F6E67 		.ascii	"long long unsigned int\000"
 1354      206C6F6E 
 1354      6720756E 
 1354      7369676E 
 1354      65642069 
 1355              	.LASF17:
 1356 0298 75696E74 		.ascii	"uint32_t\000"
 1356      33325F74 
 1356      00
 1357              	.LASF0:
 1358 02a1 756E7369 		.ascii	"unsigned int\000"
 1358      676E6564 
ARM GAS  C:\Users\DEVELO~1\AppData\Local\Temp\cc81bBGh.s 			page 27


 1358      20696E74 
 1358      00
 1359              	.LASF16:
 1360 02ae 75696E74 		.ascii	"uint16_t\000"
 1360      31365F74 
 1360      00
 1361              	.LASF45:
 1362 02b7 7573625F 		.ascii	"usb_device_start\000"
 1362      64657669 
 1362      63655F73 
 1362      74617274 
 1362      00
 1363              	.LASF9:
 1364 02c8 73686F72 		.ascii	"short unsigned int\000"
 1364      7420756E 
 1364      7369676E 
 1364      65642069 
 1364      6E7400
 1365              	.LASF61:
 1366 02db 6E6F7465 		.ascii	"note_number\000"
 1366      5F6E756D 
 1366      62657200 
 1367              	.LASF56:
 1368 02e7 6D696469 		.ascii	"midi_value\000"
 1368      5F76616C 
 1368      756500
 1369              	.LASF42:
 1370 02f2 68616C6C 		.ascii	"hall_update\000"
 1370      5F757064 
 1370      61746500 
 1371              	.LASF35:
 1372 02fe 68616C6C 		.ascii	"hall_get_pressure\000"
 1372      5F676574 
 1372      5F707265 
 1372      73737572 
 1372      6500
 1373              	.LASF22:
 1374 0310 5F426F6F 		.ascii	"_Bool\000"
 1374      6C00
 1375              	.LASF20:
 1376 0316 73797369 		.ascii	"sysinterval_t\000"
 1376      6E746572 
 1376      76616C5F 
 1376      7400
 1377              	.LASF13:
 1378 0324 5F5F7569 		.ascii	"__uint64_t\000"
 1378      6E743634 
 1378      5F7400
 1379              	.LASF60:
 1380 032f 6E6F7465 		.ascii	"note_off\000"
 1380      5F6F6666 
 1380      00
 1381              	.LASF63:
 1382 0338 6D61696E 		.ascii	"main.c\000"
 1382      2E6300
 1383              	.LASF55:
 1384 033f 6C617374 		.ascii	"last_pressure\000"
ARM GAS  C:\Users\DEVELO~1\AppData\Local\Temp\cc81bBGh.s 			page 28


 1384      5F707265 
 1384      73737572 
 1384      6500
 1385              	.LASF12:
 1386 034d 6C6F6E67 		.ascii	"long unsigned int\000"
 1386      20756E73 
 1386      69676E65 
 1386      6420696E 
 1386      7400
 1387              	.LASF29:
 1388 035f 68616C6C 		.ascii	"hall_get_midi_value\000"
 1388      5F676574 
 1388      5F6D6964 
 1388      695F7661 
 1388      6C756500 
 1389              	.LASF41:
 1390 0373 6472765F 		.ascii	"drv_display_clear\000"
 1390      64697370 
 1390      6C61795F 
 1390      636C6561 
 1390      7200
 1391              	.LASF30:
 1392 0385 68616C6C 		.ascii	"hall_get\000"
 1392      5F676574 
 1392      00
 1393              	.LASF34:
 1394 038e 6D696469 		.ascii	"midi_note_on\000"
 1394      5F6E6F74 
 1394      655F6F6E 
 1394      00
 1395              	.LASF52:
 1396 039b 73656E73 		.ascii	"sensor_index\000"
 1396      6F725F69 
 1396      6E646578 
 1396      00
 1397              	.LASF39:
 1398 03a8 6472765F 		.ascii	"drv_display_draw_text\000"
 1398      64697370 
 1398      6C61795F 
 1398      64726177 
 1398      5F746578 
 1399              	.LASF46:
 1400 03be 68616C6C 		.ascii	"hall_init\000"
 1400      5F696E69 
 1400      7400
 1401              	.LASF21:
 1402 03c8 74696D65 		.ascii	"time_conv_t\000"
 1402      5F636F6E 
 1402      765F7400 
 1403              	.LASF38:
 1404 03d4 68616C6C 		.ascii	"hall_get_note_on\000"
 1404      5F676574 
 1404      5F6E6F74 
 1404      655F6F6E 
 1404      00
 1405              	.LASF36:
 1406 03e5 68616C6C 		.ascii	"hall_get_velocity\000"
ARM GAS  C:\Users\DEVELO~1\AppData\Local\Temp\cc81bBGh.s 			page 29


 1406      5F676574 
 1406      5F76656C 
 1406      6F636974 
 1406      7900
 1407              	.LASF23:
 1408 03f7 4D494449 		.ascii	"MIDI_DEST_NONE\000"
 1408      5F444553 
 1408      545F4E4F 
 1408      4E4500
 1409              		.ident	"GCC: (Arm GNU Toolchain 11.3.Rel1) 11.3.1 20220712"
ARM GAS  C:\Users\DEVELO~1\AppData\Local\Temp\cc81bBGh.s 			page 30


DEFINED SYMBOLS
                            *ABS*:00000000 main.c
C:\Users\DEVELO~1\AppData\Local\Temp\cc81bBGh.s:18     .rodata:00000000 $d
C:\Users\DEVELO~1\AppData\Local\Temp\cc81bBGh.s:43     .text.main:00000000 $t
C:\Users\DEVELO~1\AppData\Local\Temp\cc81bBGh.s:49     .text.main:00000000 main
C:\Users\DEVELO~1\AppData\Local\Temp\cc81bBGh.s:340    .text.main:00000258 $d

UNDEFINED SYMBOLS
halInit
chSysInit
drivers_init_all
drv_display_init
hall_init
usb_device_start
midi_init
memset
hall_update
drv_display_clear
drv_display_draw_text
hall_get_note_on
hall_get_note_off
hall_get_velocity
hall_get_pressure
midi_note_on
midi_note_off
midi_poly_aftertouch
hall_get
hall_get_midi_value
snprintf
drv_display_update
chThdSleep
