ARM GAS  C:\Users\DEVELO~1\AppData\Local\Temp\ccVijX1J.s 			page 1


   1              		.cpu cortex-m7
   2              		.arch armv7e-m
   3              		.fpu softvfp
   4              		.eabi_attribute 20, 1
   5              		.eabi_attribute 21, 1
   6              		.eabi_attribute 23, 3
   7              		.eabi_attribute 24, 1
   8              		.eabi_attribute 25, 1
   9              		.eabi_attribute 26, 1
  10              		.eabi_attribute 30, 6
  11              		.eabi_attribute 34, 1
  12              		.eabi_attribute 18, 4
  13              		.file	"main.c"
  14              		.text
  15              	.Ltext0:
  16              		.cfi_sections	.debug_frame
  17              		.section	.text.adc1_gpio_init,"ax",%progbits
  18              		.align	1
  19              		.syntax unified
  20              		.thumb
  21              		.thumb_func
  22              		.type	adc1_gpio_init, %function
  23              	adc1_gpio_init:
  24              	.LFB435:
  25              		.file 1 "main.c"
  26              		.loc 1 12 34
  27              		.cfi_startproc
  28              		@ args = 0, pretend = 0, frame = 0
  29              		@ frame_needed = 1, uses_anonymous_args = 0
  30              		@ link register save eliminated.
  31 0000 80B4     		push	{r7}
  32              		.cfi_def_cfa_offset 4
  33              		.cfi_offset 7, -4
  34 0002 00AF     		add	r7, sp, #0
  35              		.cfi_def_cfa_register 7
  36              		.loc 1 14 16
  37 0004 104B     		ldr	r3, .L2
  38 0006 D3F8E030 		ldr	r3, [r3, #224]
  39 000a 0F4A     		ldr	r2, .L2
  40 000c 43F00103 		orr	r3, r3, #1
  41 0010 C2F8E030 		str	r3, [r2, #224]
  42              		.loc 1 15 12
  43 0014 0C4B     		ldr	r3, .L2
  44              		.loc 1 15 3
  45 0016 D3F8E030 		ldr	r3, [r3, #224]
  46              		.loc 1 18 16
  47 001a 0C4B     		ldr	r3, .L2+4
  48 001c 1B68     		ldr	r3, [r3]
  49 001e 0B4A     		ldr	r2, .L2+4
  50 0020 23F44043 		bic	r3, r3, #49152
  51 0024 1360     		str	r3, [r2]
  52              		.loc 1 19 16
  53 0026 094B     		ldr	r3, .L2+4
  54 0028 1B68     		ldr	r3, [r3]
  55 002a 084A     		ldr	r2, .L2+4
  56 002c 43F44043 		orr	r3, r3, #49152
  57 0030 1360     		str	r3, [r2]
ARM GAS  C:\Users\DEVELO~1\AppData\Local\Temp\ccVijX1J.s 			page 2


  58              		.loc 1 20 16
  59 0032 064B     		ldr	r3, .L2+4
  60 0034 DB68     		ldr	r3, [r3, #12]
  61 0036 054A     		ldr	r2, .L2+4
  62 0038 23F44043 		bic	r3, r3, #49152
  63 003c D360     		str	r3, [r2, #12]
  64              		.loc 1 21 1
  65 003e 00BF     		nop
  66 0040 BD46     		mov	sp, r7
  67              		.cfi_def_cfa_register 13
  68              		@ sp needed
  69 0042 80BC     		pop	{r7}
  70              		.cfi_restore 7
  71              		.cfi_def_cfa_offset 0
  72 0044 7047     		bx	lr
  73              	.L3:
  74 0046 00BF     		.align	2
  75              	.L2:
  76 0048 00440258 		.word	1476543488
  77 004c 00000258 		.word	1476526080
  78              		.cfi_endproc
  79              	.LFE435:
  80              		.size	adc1_gpio_init, .-adc1_gpio_init
  81              		.section	.text.adc1_init,"ax",%progbits
  82              		.align	1
  83              		.syntax unified
  84              		.thumb
  85              		.thumb_func
  86              		.type	adc1_init, %function
  87              	adc1_init:
  88              	.LFB436:
  89              		.loc 1 23 29
  90              		.cfi_startproc
  91              		@ args = 0, pretend = 0, frame = 0
  92              		@ frame_needed = 1, uses_anonymous_args = 0
  93 0000 80B5     		push	{r7, lr}
  94              		.cfi_def_cfa_offset 8
  95              		.cfi_offset 7, -8
  96              		.cfi_offset 14, -4
  97 0002 00AF     		add	r7, sp, #0
  98              		.cfi_def_cfa_register 7
  99              		.loc 1 25 16
 100 0004 3F4B     		ldr	r3, .L9
 101 0006 D3F8D830 		ldr	r3, [r3, #216]
 102 000a 3E4A     		ldr	r2, .L9
 103 000c 43F02003 		orr	r3, r3, #32
 104 0010 C2F8D830 		str	r3, [r2, #216]
 105              		.loc 1 26 12
 106 0014 3B4B     		ldr	r3, .L9
 107              		.loc 1 26 3
 108 0016 D3F8D830 		ldr	r3, [r3, #216]
 109              		.loc 1 29 11
 110 001a 3B4B     		ldr	r3, .L9+4
 111 001c 9B68     		ldr	r3, [r3, #8]
 112              		.loc 1 29 16
 113 001e 03F00103 		and	r3, r3, #1
 114              		.loc 1 29 6
ARM GAS  C:\Users\DEVELO~1\AppData\Local\Temp\ccVijX1J.s 			page 3


 115 0022 002B     		cmp	r3, #0
 116 0024 0CD0     		beq	.L5
 117              		.loc 1 30 14
 118 0026 384B     		ldr	r3, .L9+4
 119 0028 9B68     		ldr	r3, [r3, #8]
 120 002a 374A     		ldr	r2, .L9+4
 121 002c 43F00203 		orr	r3, r3, #2
 122 0030 9360     		str	r3, [r2, #8]
 123              		.loc 1 31 11
 124 0032 00BF     		nop
 125              	.L6:
 126              		.loc 1 31 16 discriminator 1
 127 0034 344B     		ldr	r3, .L9+4
 128 0036 9B68     		ldr	r3, [r3, #8]
 129              		.loc 1 31 21 discriminator 1
 130 0038 03F00103 		and	r3, r3, #1
 131              		.loc 1 31 12 discriminator 1
 132 003c 002B     		cmp	r3, #0
 133 003e F9D1     		bne	.L6
 134              	.L5:
 135              		.loc 1 36 12
 136 0040 314B     		ldr	r3, .L9+4
 137 0042 9B68     		ldr	r3, [r3, #8]
 138 0044 304A     		ldr	r2, .L9+4
 139 0046 23F00053 		bic	r3, r3, #536870912
 140 004a 9360     		str	r3, [r2, #8]
 141              		.loc 1 37 12
 142 004c 2E4B     		ldr	r3, .L9+4
 143 004e 9B68     		ldr	r3, [r3, #8]
 144 0050 2D4A     		ldr	r2, .L9+4
 145 0052 43F08053 		orr	r3, r3, #268435456
 146 0056 9360     		str	r3, [r2, #8]
 147              		.loc 1 38 3
 148 0058 0120     		movs	r0, #1
 149 005a FFF7FEFF 		bl	chThdSleep
 150              		.loc 1 41 12
 151 005e 2A4B     		ldr	r3, .L9+4
 152 0060 9B68     		ldr	r3, [r3, #8]
 153 0062 294A     		ldr	r2, .L9+4
 154 0064 23F08043 		bic	r3, r3, #1073741824
 155 0068 9360     		str	r3, [r2, #8]
 156              		.loc 1 42 12
 157 006a 274B     		ldr	r3, .L9+4
 158 006c 9B68     		ldr	r3, [r3, #8]
 159 006e 264A     		ldr	r2, .L9+4
 160 0070 43F00043 		orr	r3, r3, #-2147483648
 161 0074 9360     		str	r3, [r2, #8]
 162              		.loc 1 43 9
 163 0076 00BF     		nop
 164              	.L7:
 165              		.loc 1 43 14 discriminator 1
 166 0078 234B     		ldr	r3, .L9+4
 167 007a 9B68     		ldr	r3, [r3, #8]
 168              		.loc 1 43 10 discriminator 1
 169 007c 002B     		cmp	r3, #0
 170 007e FBDB     		blt	.L7
 171              		.loc 1 45 3
ARM GAS  C:\Users\DEVELO~1\AppData\Local\Temp\ccVijX1J.s 			page 4


 172 0080 0120     		movs	r0, #1
 173 0082 FFF7FEFF 		bl	chThdSleep
 174              		.loc 1 48 15
 175 0086 204B     		ldr	r3, .L9+4
 176 0088 DB69     		ldr	r3, [r3, #28]
 177 008a 1F4A     		ldr	r2, .L9+4
 178 008c 43F08003 		orr	r3, r3, #128
 179 0090 D361     		str	r3, [r2, #28]
 180              		.loc 1 49 15
 181 0092 1D4B     		ldr	r3, .L9+4
 182 0094 5B69     		ldr	r3, [r3, #20]
 183 0096 1C4A     		ldr	r2, .L9+4
 184 0098 23F46003 		bic	r3, r3, #14680064
 185 009c 5361     		str	r3, [r2, #20]
 186              		.loc 1 50 15
 187 009e 1A4B     		ldr	r3, .L9+4
 188 00a0 5B69     		ldr	r3, [r3, #20]
 189 00a2 194A     		ldr	r2, .L9+4
 190 00a4 43F46003 		orr	r3, r3, #14680064
 191 00a8 5361     		str	r3, [r2, #20]
 192              		.loc 1 52 14
 193 00aa 174B     		ldr	r3, .L9+4
 194 00ac 1A6B     		ldr	r2, [r3, #48]
 195 00ae 1649     		ldr	r1, .L9+4
 196 00b0 164B     		ldr	r3, .L9+8
 197 00b2 1340     		ands	r3, r3, r2
 198 00b4 0B63     		str	r3, [r1, #48]
 199              		.loc 1 53 14
 200 00b6 144B     		ldr	r3, .L9+4
 201 00b8 1B6B     		ldr	r3, [r3, #48]
 202 00ba 134A     		ldr	r2, .L9+4
 203 00bc 43F4E073 		orr	r3, r3, #448
 204 00c0 1363     		str	r3, [r2, #48]
 205              		.loc 1 56 14
 206 00c2 114B     		ldr	r3, .L9+4
 207 00c4 DB68     		ldr	r3, [r3, #12]
 208 00c6 104A     		ldr	r2, .L9+4
 209 00c8 43F40053 		orr	r3, r3, #8192
 210 00cc D360     		str	r3, [r2, #12]
 211              		.loc 1 59 13
 212 00ce 0E4B     		ldr	r3, .L9+4
 213 00d0 1B68     		ldr	r3, [r3]
 214 00d2 0D4A     		ldr	r2, .L9+4
 215 00d4 43F00103 		orr	r3, r3, #1
 216 00d8 1360     		str	r3, [r2]
 217              		.loc 1 60 12
 218 00da 0B4B     		ldr	r3, .L9+4
 219 00dc 9B68     		ldr	r3, [r3, #8]
 220 00de 0A4A     		ldr	r2, .L9+4
 221 00e0 43F00103 		orr	r3, r3, #1
 222 00e4 9360     		str	r3, [r2, #8]
 223              		.loc 1 61 9
 224 00e6 00BF     		nop
 225              	.L8:
 226              		.loc 1 61 15 discriminator 1
 227 00e8 074B     		ldr	r3, .L9+4
 228 00ea 1B68     		ldr	r3, [r3]
ARM GAS  C:\Users\DEVELO~1\AppData\Local\Temp\ccVijX1J.s 			page 5


 229              		.loc 1 61 21 discriminator 1
 230 00ec 03F00103 		and	r3, r3, #1
 231              		.loc 1 61 38 discriminator 1
 232 00f0 002B     		cmp	r3, #0
 233 00f2 F9D0     		beq	.L8
 234              		.loc 1 65 12
 235 00f4 044B     		ldr	r3, .L9+4
 236 00f6 9B68     		ldr	r3, [r3, #8]
 237 00f8 034A     		ldr	r2, .L9+4
 238 00fa 43F00403 		orr	r3, r3, #4
 239 00fe 9360     		str	r3, [r2, #8]
 240              		.loc 1 66 1
 241 0100 00BF     		nop
 242 0102 80BD     		pop	{r7, pc}
 243              	.L10:
 244              		.align	2
 245              	.L9:
 246 0104 00440258 		.word	1476543488
 247 0108 00200240 		.word	1073881088
 248 010c 30F8FFFF 		.word	-2000
 249              		.cfi_endproc
 250              	.LFE436:
 251              		.size	adc1_init, .-adc1_init
 252              		.section	.text.adc1_read_polling,"ax",%progbits
 253              		.align	1
 254              		.syntax unified
 255              		.thumb
 256              		.thumb_func
 257              		.type	adc1_read_polling, %function
 258              	adc1_read_polling:
 259              	.LFB437:
 260              		.loc 1 68 41
 261              		.cfi_startproc
 262              		@ args = 0, pretend = 0, frame = 8
 263              		@ frame_needed = 1, uses_anonymous_args = 0
 264              		@ link register save eliminated.
 265 0000 80B4     		push	{r7}
 266              		.cfi_def_cfa_offset 4
 267              		.cfi_offset 7, -4
 268 0002 83B0     		sub	sp, sp, #12
 269              		.cfi_def_cfa_offset 16
 270 0004 00AF     		add	r7, sp, #0
 271              		.cfi_def_cfa_register 7
 272              		.loc 1 69 9
 273 0006 00BF     		nop
 274              	.L12:
 275              		.loc 1 69 15 discriminator 1
 276 0008 0B4B     		ldr	r3, .L14
 277 000a 1B68     		ldr	r3, [r3]
 278              		.loc 1 69 21 discriminator 1
 279 000c 03F00403 		and	r3, r3, #4
 280              		.loc 1 69 36 discriminator 1
 281 0010 002B     		cmp	r3, #0
 282 0012 F9D0     		beq	.L12
 283              		.loc 1 71 35
 284 0014 084B     		ldr	r3, .L14
 285 0016 1B6C     		ldr	r3, [r3, #64]
ARM GAS  C:\Users\DEVELO~1\AppData\Local\Temp\ccVijX1J.s 			page 6


 286              		.loc 1 71 20
 287 0018 9BB2     		uxth	r3, r3
 288              		.loc 1 71 12
 289 001a C3F30B03 		ubfx	r3, r3, #0, #12
 290 001e FB80     		strh	r3, [r7, #6]	@ movhi
 291              		.loc 1 72 13
 292 0020 054B     		ldr	r3, .L14
 293 0022 1B68     		ldr	r3, [r3]
 294 0024 044A     		ldr	r2, .L14
 295 0026 43F00403 		orr	r3, r3, #4
 296 002a 1360     		str	r3, [r2]
 297              		.loc 1 73 10
 298 002c FB88     		ldrh	r3, [r7, #6]
 299              		.loc 1 74 1
 300 002e 1846     		mov	r0, r3
 301 0030 0C37     		adds	r7, r7, #12
 302              		.cfi_def_cfa_offset 4
 303 0032 BD46     		mov	sp, r7
 304              		.cfi_def_cfa_register 13
 305              		@ sp needed
 306 0034 80BC     		pop	{r7}
 307              		.cfi_restore 7
 308              		.cfi_def_cfa_offset 0
 309 0036 7047     		bx	lr
 310              	.L15:
 311              		.align	2
 312              	.L14:
 313 0038 00200240 		.word	1073881088
 314              		.cfi_endproc
 315              	.LFE437:
 316              		.size	adc1_read_polling, .-adc1_read_polling
 317              		.section	.rodata
 318              		.align	2
 319              	.LC0:
 320 0000 41444331 		.ascii	"ADC1 POLL OK\000"
 320      20504F4C 
 320      4C204F4B 
 320      00
 321 000d 000000   		.align	2
 322              	.LC1:
 323 0010 56414C20 		.ascii	"VAL = %u\000"
 323      3D202575 
 323      00
 324 0019 000000   		.align	2
 325              	.LC2:
 326 001c 434E5420 		.ascii	"CNT = %lu\000"
 326      3D20256C 
 326      7500
 327              		.section	.text.main,"ax",%progbits
 328              		.align	1
 329              		.global	main
 330              		.syntax unified
 331              		.thumb
 332              		.thumb_func
 333              		.type	main, %function
 334              	main:
 335              	.LFB438:
ARM GAS  C:\Users\DEVELO~1\AppData\Local\Temp\ccVijX1J.s 			page 7


 336              		.loc 1 78 16
 337              		.cfi_startproc
 338              		@ args = 0, pretend = 0, frame = 72
 339              		@ frame_needed = 1, uses_anonymous_args = 0
 340 0000 80B5     		push	{r7, lr}
 341              		.cfi_def_cfa_offset 8
 342              		.cfi_offset 7, -8
 343              		.cfi_offset 14, -4
 344 0002 92B0     		sub	sp, sp, #72
 345              		.cfi_def_cfa_offset 80
 346 0004 00AF     		add	r7, sp, #0
 347              		.cfi_def_cfa_register 7
 348              		.loc 1 79 3
 349 0006 FFF7FEFF 		bl	halInit
 350              		.loc 1 80 3
 351 000a FFF7FEFF 		bl	chSysInit
 352              		.loc 1 82 3
 353 000e FFF7FEFF 		bl	drivers_init_all
 354              		.loc 1 83 3
 355 0012 FFF7FEFF 		bl	drv_display_init
 356              		.loc 1 85 3
 357 0016 FFF7FEFF 		bl	adc1_gpio_init
 358              		.loc 1 86 3
 359 001a FFF7FEFF 		bl	adc1_init
 360              		.loc 1 91 12
 361 001e 0023     		movs	r3, #0
 362 0020 7B64     		str	r3, [r7, #68]
 363              	.L17:
 364              	.LBB2:
 365              		.loc 1 94 18 discriminator 1
 366 0022 FFF7FEFF 		bl	adc1_read_polling
 367 0026 0346     		mov	r3, r0
 368 0028 A7F84230 		strh	r3, [r7, #66]	@ movhi
 369              		.loc 1 96 12 discriminator 1
 370 002c 7B6C     		ldr	r3, [r7, #68]
 371 002e 0133     		adds	r3, r3, #1
 372 0030 7B64     		str	r3, [r7, #68]
 373              		.loc 1 98 5 discriminator 1
 374 0032 FFF7FEFF 		bl	drv_display_clear
 375              		.loc 1 99 5 discriminator 1
 376 0036 134A     		ldr	r2, .L18
 377 0038 0021     		movs	r1, #0
 378 003a 0020     		movs	r0, #0
 379 003c FFF7FEFF 		bl	drv_display_draw_text
 380              		.loc 1 101 5 discriminator 1
 381 0040 B7F84230 		ldrh	r3, [r7, #66]
 382 0044 07F12000 		add	r0, r7, #32
 383 0048 0F4A     		ldr	r2, .L18+4
 384 004a 2021     		movs	r1, #32
 385 004c FFF7FEFF 		bl	snprintf
 386              		.loc 1 102 5 discriminator 1
 387 0050 07F12003 		add	r3, r7, #32
 388 0054 1A46     		mov	r2, r3
 389 0056 0C21     		movs	r1, #12
 390 0058 0020     		movs	r0, #0
 391 005a FFF7FEFF 		bl	drv_display_draw_text
 392              		.loc 1 104 5 discriminator 1
ARM GAS  C:\Users\DEVELO~1\AppData\Local\Temp\ccVijX1J.s 			page 8


 393 005e 3846     		mov	r0, r7
 394 0060 7B6C     		ldr	r3, [r7, #68]
 395 0062 0A4A     		ldr	r2, .L18+8
 396 0064 2021     		movs	r1, #32
 397 0066 FFF7FEFF 		bl	snprintf
 398              		.loc 1 105 5 discriminator 1
 399 006a 3B46     		mov	r3, r7
 400 006c 1A46     		mov	r2, r3
 401 006e 1821     		movs	r1, #24
 402 0070 0020     		movs	r0, #0
 403 0072 FFF7FEFF 		bl	drv_display_draw_text
 404              		.loc 1 107 5 discriminator 1
 405 0076 FFF7FEFF 		bl	drv_display_update
 406              		.loc 1 109 5 discriminator 1
 407 007a 4FF4FA60 		mov	r0, #2000
 408 007e FFF7FEFF 		bl	chThdSleep
 409              	.LBE2:
 410              		.loc 1 93 16 discriminator 1
 411 0082 CEE7     		b	.L17
 412              	.L19:
 413              		.align	2
 414              	.L18:
 415 0084 00000000 		.word	.LC0
 416 0088 10000000 		.word	.LC1
 417 008c 1C000000 		.word	.LC2
 418              		.cfi_endproc
 419              	.LFE438:
 420              		.size	main, .-main
 421              		.text
 422              	.Letext0:
 423              		.file 2 "c:\\chibistudio\\tools\\gnu tools arm embedded\\11.3 2022.08\\lib\\gcc\\arm-none-eabi\\11
 424              		.file 3 "c:\\chibistudio\\tools\\gnu tools arm embedded\\11.3 2022.08\\arm-none-eabi\\include\\mac
 425              		.file 4 "c:\\chibistudio\\tools\\gnu tools arm embedded\\11.3 2022.08\\arm-none-eabi\\include\\sys
 426              		.file 5 "../../../os/rt/include/chtime.h"
 427              		.file 6 "../../../os/common/ext/ST/STM32H7xx/stm32h743xx.h"
 428              		.file 7 "../../../os/hal/ports/STM32/LLD/GPIOv2/stm32_gpio.h"
 429              		.file 8 "drivers/drv_display.h"
 430              		.file 9 "drivers/drivers.h"
 431              		.file 10 "../../../os/rt/include/chsys.h"
 432              		.file 11 "../../../os/hal/include/hal.h"
 433              		.file 12 "../../../os/rt/include/chthreads.h"
 434              		.file 13 "c:\\chibistudio\\tools\\gnu tools arm embedded\\11.3 2022.08\\arm-none-eabi\\include\\st
 435              		.section	.debug_info,"",%progbits
 436              	.Ldebug_info0:
 437 0000 EB080000 		.4byte	0x8eb
 438 0004 0500     		.2byte	0x5
 439 0006 01       		.byte	0x1
 440 0007 04       		.byte	0x4
 441 0008 00000000 		.4byte	.Ldebug_abbrev0
 442 000c 13       		.uleb128 0x13
 443 000d 79020000 		.4byte	.LASF140
 444 0011 1D       		.byte	0x1d
 445 0012 85040000 		.4byte	.LASF141
 446 0016 62050000 		.4byte	.LASF142
 447 001a 0C000000 		.4byte	.LLRL0
 448 001e 00000000 		.4byte	0
 449 0022 00000000 		.4byte	.Ldebug_line0
ARM GAS  C:\Users\DEVELO~1\AppData\Local\Temp\ccVijX1J.s 			page 9


 450 0026 14       		.uleb128 0x14
 451 0027 04       		.byte	0x4
 452 0028 05       		.byte	0x5
 453 0029 696E7400 		.ascii	"int\000"
 454 002d 03       		.uleb128 0x3
 455 002e 2B000000 		.4byte	.LASF4
 456 0032 02       		.byte	0x2
 457 0033 D1       		.byte	0xd1
 458 0034 17       		.byte	0x17
 459 0035 39000000 		.4byte	0x39
 460 0039 04       		.uleb128 0x4
 461 003a 04       		.byte	0x4
 462 003b 07       		.byte	0x7
 463 003c 03020000 		.4byte	.LASF0
 464 0040 04       		.uleb128 0x4
 465 0041 08       		.byte	0x8
 466 0042 05       		.byte	0x5
 467 0043 D4000000 		.4byte	.LASF1
 468 0047 04       		.uleb128 0x4
 469 0048 08       		.byte	0x8
 470 0049 04       		.byte	0x4
 471 004a A7040000 		.4byte	.LASF2
 472 004e 04       		.uleb128 0x4
 473 004f 01       		.byte	0x1
 474 0050 06       		.byte	0x6
 475 0051 E2000000 		.4byte	.LASF3
 476 0055 03       		.uleb128 0x3
 477 0056 6B000000 		.4byte	.LASF5
 478 005a 03       		.byte	0x3
 479 005b 2B       		.byte	0x2b
 480 005c 18       		.byte	0x18
 481 005d 61000000 		.4byte	0x61
 482 0061 04       		.uleb128 0x4
 483 0062 01       		.byte	0x1
 484 0063 08       		.byte	0x8
 485 0064 38040000 		.4byte	.LASF6
 486 0068 04       		.uleb128 0x4
 487 0069 02       		.byte	0x2
 488 006a 05       		.byte	0x5
 489 006b 46040000 		.4byte	.LASF7
 490 006f 03       		.uleb128 0x3
 491 0070 B8040000 		.4byte	.LASF8
 492 0074 03       		.byte	0x3
 493 0075 39       		.byte	0x39
 494 0076 19       		.byte	0x19
 495 0077 7B000000 		.4byte	0x7b
 496 007b 04       		.uleb128 0x4
 497 007c 02       		.byte	0x2
 498 007d 07       		.byte	0x7
 499 007e 54020000 		.4byte	.LASF9
 500 0082 04       		.uleb128 0x4
 501 0083 04       		.byte	0x4
 502 0084 05       		.byte	0x5
 503 0085 87000000 		.4byte	.LASF10
 504 0089 03       		.uleb128 0x3
 505 008a CA010000 		.4byte	.LASF11
 506 008e 03       		.byte	0x3
ARM GAS  C:\Users\DEVELO~1\AppData\Local\Temp\ccVijX1J.s 			page 10


 507 008f 4F       		.byte	0x4f
 508 0090 19       		.byte	0x19
 509 0091 95000000 		.4byte	0x95
 510 0095 04       		.uleb128 0x4
 511 0096 04       		.byte	0x4
 512 0097 07       		.byte	0x7
 513 0098 22020000 		.4byte	.LASF12
 514 009c 03       		.uleb128 0x3
 515 009d AC030000 		.4byte	.LASF13
 516 00a1 03       		.byte	0x3
 517 00a2 69       		.byte	0x69
 518 00a3 19       		.byte	0x19
 519 00a4 A8000000 		.4byte	0xa8
 520 00a8 04       		.uleb128 0x4
 521 00a9 08       		.byte	0x8
 522 00aa 07       		.byte	0x7
 523 00ab 96000000 		.4byte	.LASF14
 524 00af 03       		.uleb128 0x3
 525 00b0 2C050000 		.4byte	.LASF15
 526 00b4 04       		.byte	0x4
 527 00b5 18       		.byte	0x18
 528 00b6 13       		.byte	0x13
 529 00b7 55000000 		.4byte	0x55
 530 00bb 03       		.uleb128 0x3
 531 00bc 6F010000 		.4byte	.LASF16
 532 00c0 04       		.byte	0x4
 533 00c1 24       		.byte	0x24
 534 00c2 14       		.byte	0x14
 535 00c3 6F000000 		.4byte	0x6f
 536 00c7 03       		.uleb128 0x3
 537 00c8 96040000 		.4byte	.LASF17
 538 00cc 04       		.byte	0x4
 539 00cd 30       		.byte	0x30
 540 00ce 14       		.byte	0x14
 541 00cf 89000000 		.4byte	0x89
 542 00d3 0E       		.uleb128 0xe
 543 00d4 C7000000 		.4byte	0xc7
 544 00d8 03       		.uleb128 0x3
 545 00d9 3B000000 		.4byte	.LASF18
 546 00dd 04       		.byte	0x4
 547 00de 3C       		.byte	0x3c
 548 00df 14       		.byte	0x14
 549 00e0 9C000000 		.4byte	0x9c
 550 00e4 0F       		.uleb128 0xf
 551 00e5 F0000000 		.4byte	0xf0
 552 00e9 04       		.uleb128 0x4
 553 00ea 01       		.byte	0x1
 554 00eb 08       		.byte	0x8
 555 00ec B3040000 		.4byte	.LASF19
 556 00f0 15       		.uleb128 0x15
 557 00f1 E9000000 		.4byte	0xe9
 558 00f5 03       		.uleb128 0x3
 559 00f6 61010000 		.4byte	.LASF20
 560 00fa 05       		.byte	0x5
 561 00fb 79       		.byte	0x79
 562 00fc 12       		.byte	0x12
 563 00fd C7000000 		.4byte	0xc7
ARM GAS  C:\Users\DEVELO~1\AppData\Local\Temp\ccVijX1J.s 			page 11


 564 0101 03       		.uleb128 0x3
 565 0102 48020000 		.4byte	.LASF21
 566 0106 05       		.byte	0x5
 567 0107 9B       		.byte	0x9b
 568 0108 12       		.byte	0x12
 569 0109 D8000000 		.4byte	0xd8
 570 010d 0B       		.uleb128 0xb
 571 010e CC       		.byte	0xcc
 572 010f 06       		.byte	0x6
 573 0110 F3       		.byte	0xf3
 574 0111 09       		.byte	0x9
 575 0112 37030000 		.4byte	0x337
 576 0116 07       		.uleb128 0x7
 577 0117 49535200 		.ascii	"ISR\000"
 578 011b 06       		.byte	0x6
 579 011c F5       		.byte	0xf5
 580 011d 11       		.byte	0x11
 581 011e D3000000 		.4byte	0xd3
 582 0122 00       		.byte	0
 583 0123 07       		.uleb128 0x7
 584 0124 49455200 		.ascii	"IER\000"
 585 0128 06       		.byte	0x6
 586 0129 F6       		.byte	0xf6
 587 012a 11       		.byte	0x11
 588 012b D3000000 		.4byte	0xd3
 589 012f 04       		.byte	0x4
 590 0130 07       		.uleb128 0x7
 591 0131 435200   		.ascii	"CR\000"
 592 0134 06       		.byte	0x6
 593 0135 F7       		.byte	0xf7
 594 0136 11       		.byte	0x11
 595 0137 D3000000 		.4byte	0xd3
 596 013b 08       		.byte	0x8
 597 013c 02       		.uleb128 0x2
 598 013d 4B050000 		.4byte	.LASF22
 599 0141 06       		.byte	0x6
 600 0142 F8       		.byte	0xf8
 601 0143 11       		.byte	0x11
 602 0144 D3000000 		.4byte	0xd3
 603 0148 0C       		.byte	0xc
 604 0149 02       		.uleb128 0x2
 605 014a 26050000 		.4byte	.LASF23
 606 014e 06       		.byte	0x6
 607 014f F9       		.byte	0xf9
 608 0150 11       		.byte	0x11
 609 0151 D3000000 		.4byte	0xd3
 610 0155 10       		.byte	0x10
 611 0156 02       		.uleb128 0x2
 612 0157 86030000 		.4byte	.LASF24
 613 015b 06       		.byte	0x6
 614 015c FA       		.byte	0xfa
 615 015d 11       		.byte	0x11
 616 015e D3000000 		.4byte	0xd3
 617 0162 14       		.byte	0x14
 618 0163 02       		.uleb128 0x2
 619 0164 8C030000 		.4byte	.LASF25
 620 0168 06       		.byte	0x6
ARM GAS  C:\Users\DEVELO~1\AppData\Local\Temp\ccVijX1J.s 			page 12


 621 0169 FB       		.byte	0xfb
 622 016a 11       		.byte	0x11
 623 016b D3000000 		.4byte	0xd3
 624 016f 18       		.byte	0x18
 625 0170 02       		.uleb128 0x2
 626 0171 92030000 		.4byte	.LASF26
 627 0175 06       		.byte	0x6
 628 0176 FC       		.byte	0xfc
 629 0177 11       		.byte	0x11
 630 0178 D3000000 		.4byte	0xd3
 631 017c 1C       		.byte	0x1c
 632 017d 02       		.uleb128 0x2
 633 017e D6040000 		.4byte	.LASF27
 634 0182 06       		.byte	0x6
 635 0183 FD       		.byte	0xfd
 636 0184 11       		.byte	0x11
 637 0185 D3000000 		.4byte	0xd3
 638 0189 20       		.byte	0x20
 639 018a 02       		.uleb128 0x2
 640 018b 8C010000 		.4byte	.LASF28
 641 018f 06       		.byte	0x6
 642 0190 FE       		.byte	0xfe
 643 0191 11       		.byte	0x11
 644 0192 D3000000 		.4byte	0xd3
 645 0196 24       		.byte	0x24
 646 0197 02       		.uleb128 0x2
 647 0198 D1030000 		.4byte	.LASF29
 648 019c 06       		.byte	0x6
 649 019d FF       		.byte	0xff
 650 019e 11       		.byte	0x11
 651 019f C7000000 		.4byte	0xc7
 652 01a3 28       		.byte	0x28
 653 01a4 01       		.uleb128 0x1
 654 01a5 DB030000 		.4byte	.LASF30
 655 01a9 0001     		.2byte	0x100
 656 01ab 11       		.byte	0x11
 657 01ac C7000000 		.4byte	0xc7
 658 01b0 2C       		.byte	0x2c
 659 01b1 01       		.uleb128 0x1
 660 01b2 98030000 		.4byte	.LASF31
 661 01b6 0101     		.2byte	0x101
 662 01b8 11       		.byte	0x11
 663 01b9 D3000000 		.4byte	0xd3
 664 01bd 30       		.byte	0x30
 665 01be 01       		.uleb128 0x1
 666 01bf 9D030000 		.4byte	.LASF32
 667 01c3 0201     		.2byte	0x102
 668 01c5 11       		.byte	0x11
 669 01c6 D3000000 		.4byte	0xd3
 670 01ca 34       		.byte	0x34
 671 01cb 01       		.uleb128 0x1
 672 01cc A2030000 		.4byte	.LASF33
 673 01d0 0301     		.2byte	0x103
 674 01d2 11       		.byte	0x11
 675 01d3 D3000000 		.4byte	0xd3
 676 01d7 38       		.byte	0x38
 677 01d8 01       		.uleb128 0x1
ARM GAS  C:\Users\DEVELO~1\AppData\Local\Temp\ccVijX1J.s 			page 13


 678 01d9 A7030000 		.4byte	.LASF34
 679 01dd 0401     		.2byte	0x104
 680 01df 11       		.byte	0x11
 681 01e0 D3000000 		.4byte	0xd3
 682 01e4 3C       		.byte	0x3c
 683 01e5 08       		.uleb128 0x8
 684 01e6 445200   		.ascii	"DR\000"
 685 01e9 0501     		.2byte	0x105
 686 01eb 11       		.byte	0x11
 687 01ec D3000000 		.4byte	0xd3
 688 01f0 40       		.byte	0x40
 689 01f1 01       		.uleb128 0x1
 690 01f2 E5030000 		.4byte	.LASF35
 691 01f6 0601     		.2byte	0x106
 692 01f8 11       		.byte	0x11
 693 01f9 C7000000 		.4byte	0xc7
 694 01fd 44       		.byte	0x44
 695 01fe 01       		.uleb128 0x1
 696 01ff 8C040000 		.4byte	.LASF36
 697 0203 0701     		.2byte	0x107
 698 0205 11       		.byte	0x11
 699 0206 C7000000 		.4byte	0xc7
 700 020a 48       		.byte	0x48
 701 020b 01       		.uleb128 0x1
 702 020c CF000000 		.4byte	.LASF37
 703 0210 0801     		.2byte	0x108
 704 0212 11       		.byte	0x11
 705 0213 D3000000 		.4byte	0xd3
 706 0217 4C       		.byte	0x4c
 707 0218 01       		.uleb128 0x1
 708 0219 F6030000 		.4byte	.LASF38
 709 021d 0901     		.2byte	0x109
 710 021f 11       		.byte	0x11
 711 0220 37030000 		.4byte	0x337
 712 0224 50       		.byte	0x50
 713 0225 01       		.uleb128 0x1
 714 0226 00000000 		.4byte	.LASF39
 715 022a 0A01     		.2byte	0x10a
 716 022c 11       		.byte	0x11
 717 022d D3000000 		.4byte	0xd3
 718 0231 60       		.byte	0x60
 719 0232 01       		.uleb128 0x1
 720 0233 05000000 		.4byte	.LASF40
 721 0237 0B01     		.2byte	0x10b
 722 0239 11       		.byte	0x11
 723 023a D3000000 		.4byte	0xd3
 724 023e 64       		.byte	0x64
 725 023f 01       		.uleb128 0x1
 726 0240 4C030000 		.4byte	.LASF41
 727 0244 0C01     		.2byte	0x10c
 728 0246 11       		.byte	0x11
 729 0247 D3000000 		.4byte	0xd3
 730 024b 68       		.byte	0x68
 731 024c 01       		.uleb128 0x1
 732 024d 51030000 		.4byte	.LASF42
 733 0251 0D01     		.2byte	0x10d
 734 0253 11       		.byte	0x11
ARM GAS  C:\Users\DEVELO~1\AppData\Local\Temp\ccVijX1J.s 			page 14


 735 0254 D3000000 		.4byte	0xd3
 736 0258 6C       		.byte	0x6c
 737 0259 01       		.uleb128 0x1
 738 025a 00040000 		.4byte	.LASF43
 739 025e 0E01     		.2byte	0x10e
 740 0260 11       		.byte	0x11
 741 0261 37030000 		.4byte	0x337
 742 0265 70       		.byte	0x70
 743 0266 01       		.uleb128 0x1
 744 0267 34050000 		.4byte	.LASF44
 745 026b 0F01     		.2byte	0x10f
 746 026d 11       		.byte	0x11
 747 026e D3000000 		.4byte	0xd3
 748 0272 80       		.byte	0x80
 749 0273 01       		.uleb128 0x1
 750 0274 77030000 		.4byte	.LASF45
 751 0278 1001     		.2byte	0x110
 752 027a 11       		.byte	0x11
 753 027b D3000000 		.4byte	0xd3
 754 027f 84       		.byte	0x84
 755 0280 01       		.uleb128 0x1
 756 0281 39050000 		.4byte	.LASF46
 757 0285 1101     		.2byte	0x111
 758 0287 11       		.byte	0x11
 759 0288 D3000000 		.4byte	0xd3
 760 028c 88       		.byte	0x88
 761 028d 01       		.uleb128 0x1
 762 028e 3E050000 		.4byte	.LASF47
 763 0292 1201     		.2byte	0x112
 764 0294 11       		.byte	0x11
 765 0295 D3000000 		.4byte	0xd3
 766 0299 8C       		.byte	0x8c
 767 029a 01       		.uleb128 0x1
 768 029b 0A040000 		.4byte	.LASF48
 769 029f 1301     		.2byte	0x113
 770 02a1 11       		.byte	0x11
 771 02a2 37030000 		.4byte	0x337
 772 02a6 90       		.byte	0x90
 773 02a7 01       		.uleb128 0x1
 774 02a8 31010000 		.4byte	.LASF49
 775 02ac 1401     		.2byte	0x114
 776 02ae 11       		.byte	0x11
 777 02af D3000000 		.4byte	0xd3
 778 02b3 A0       		.byte	0xa0
 779 02b4 01       		.uleb128 0x1
 780 02b5 0A000000 		.4byte	.LASF50
 781 02b9 1501     		.2byte	0x115
 782 02bb 11       		.byte	0x11
 783 02bc D3000000 		.4byte	0xd3
 784 02c0 A4       		.byte	0xa4
 785 02c1 01       		.uleb128 0x1
 786 02c2 14040000 		.4byte	.LASF51
 787 02c6 1601     		.2byte	0x116
 788 02c8 11       		.byte	0x11
 789 02c9 C7000000 		.4byte	0xc7
 790 02cd A8       		.byte	0xa8
 791 02ce 01       		.uleb128 0x1
ARM GAS  C:\Users\DEVELO~1\AppData\Local\Temp\ccVijX1J.s 			page 15


 792 02cf 1E040000 		.4byte	.LASF52
 793 02d3 1701     		.2byte	0x117
 794 02d5 11       		.byte	0x11
 795 02d6 C7000000 		.4byte	0xc7
 796 02da AC       		.byte	0xac
 797 02db 01       		.uleb128 0x1
 798 02dc DB040000 		.4byte	.LASF53
 799 02e0 1801     		.2byte	0x118
 800 02e2 11       		.byte	0x11
 801 02e3 D3000000 		.4byte	0xd3
 802 02e7 B0       		.byte	0xb0
 803 02e8 01       		.uleb128 0x1
 804 02e9 91010000 		.4byte	.LASF54
 805 02ed 1901     		.2byte	0x119
 806 02ef 11       		.byte	0x11
 807 02f0 D3000000 		.4byte	0xd3
 808 02f4 B4       		.byte	0xb4
 809 02f5 01       		.uleb128 0x1
 810 02f6 E0040000 		.4byte	.LASF55
 811 02fa 1A01     		.2byte	0x11a
 812 02fc 11       		.byte	0x11
 813 02fd D3000000 		.4byte	0xd3
 814 0301 B8       		.byte	0xb8
 815 0302 01       		.uleb128 0x1
 816 0303 96010000 		.4byte	.LASF56
 817 0307 1B01     		.2byte	0x11b
 818 0309 11       		.byte	0x11
 819 030a D3000000 		.4byte	0xd3
 820 030e BC       		.byte	0xbc
 821 030f 01       		.uleb128 0x1
 822 0310 B9000000 		.4byte	.LASF57
 823 0314 1C01     		.2byte	0x11c
 824 0316 11       		.byte	0x11
 825 0317 D3000000 		.4byte	0xd3
 826 031b C0       		.byte	0xc0
 827 031c 01       		.uleb128 0x1
 828 031d 84010000 		.4byte	.LASF58
 829 0321 1D01     		.2byte	0x11d
 830 0323 11       		.byte	0x11
 831 0324 D3000000 		.4byte	0xd3
 832 0328 C4       		.byte	0xc4
 833 0329 01       		.uleb128 0x1
 834 032a 50050000 		.4byte	.LASF59
 835 032e 1E01     		.2byte	0x11e
 836 0330 11       		.byte	0x11
 837 0331 D3000000 		.4byte	0xd3
 838 0335 C8       		.byte	0xc8
 839 0336 00       		.byte	0
 840 0337 0C       		.uleb128 0xc
 841 0338 C7000000 		.4byte	0xc7
 842 033c 47030000 		.4byte	0x347
 843 0340 0D       		.uleb128 0xd
 844 0341 39000000 		.4byte	0x39
 845 0345 03       		.byte	0x3
 846 0346 00       		.byte	0
 847 0347 10       		.uleb128 0x10
 848 0348 78010000 		.4byte	.LASF60
ARM GAS  C:\Users\DEVELO~1\AppData\Local\Temp\ccVijX1J.s 			page 16


 849 034c 1F01     		.2byte	0x11f
 850 034e 0D010000 		.4byte	0x10d
 851 0352 0C       		.uleb128 0xc
 852 0353 C7000000 		.4byte	0xc7
 853 0357 62030000 		.4byte	0x362
 854 035b 0D       		.uleb128 0xd
 855 035c 39000000 		.4byte	0x39
 856 0360 08       		.byte	0x8
 857 0361 00       		.byte	0
 858 0362 16       		.uleb128 0x16
 859 0363 3001     		.2byte	0x130
 860 0365 06       		.byte	0x6
 861 0366 CE04     		.2byte	0x4ce
 862 0368 09       		.byte	0x9
 863 0369 C3060000 		.4byte	0x6c3
 864 036d 08       		.uleb128 0x8
 865 036e 435200   		.ascii	"CR\000"
 866 0371 D004     		.2byte	0x4d0
 867 0373 10       		.byte	0x10
 868 0374 D3000000 		.4byte	0xd3
 869 0378 00       		.byte	0
 870 0379 01       		.uleb128 0x1
 871 037a 71020000 		.4byte	.LASF61
 872 037e D104     		.2byte	0x4d1
 873 0380 10       		.byte	0x10
 874 0381 D3000000 		.4byte	0xd3
 875 0385 04       		.byte	0x4
 876 0386 01       		.uleb128 0x1
 877 0387 A8010000 		.4byte	.LASF62
 878 038b D204     		.2byte	0x4d2
 879 038d 10       		.byte	0x10
 880 038e D3000000 		.4byte	0xd3
 881 0392 08       		.byte	0x8
 882 0393 01       		.uleb128 0x1
 883 0394 00050000 		.4byte	.LASF63
 884 0398 D304     		.2byte	0x4d3
 885 039a 10       		.byte	0x10
 886 039b D3000000 		.4byte	0xd3
 887 039f 0C       		.byte	0xc
 888 03a0 01       		.uleb128 0x1
 889 03a1 4B050000 		.4byte	.LASF22
 890 03a5 D404     		.2byte	0x4d4
 891 03a7 10       		.byte	0x10
 892 03a8 D3000000 		.4byte	0xd3
 893 03ac 10       		.byte	0x10
 894 03ad 01       		.uleb128 0x1
 895 03ae D1030000 		.4byte	.LASF29
 896 03b2 D504     		.2byte	0x4d5
 897 03b4 0F       		.byte	0xf
 898 03b5 C7000000 		.4byte	0xc7
 899 03b9 14       		.byte	0x14
 900 03ba 01       		.uleb128 0x1
 901 03bb D3050000 		.4byte	.LASF64
 902 03bf D604     		.2byte	0x4d6
 903 03c1 10       		.byte	0x10
 904 03c2 D3000000 		.4byte	0xd3
 905 03c6 18       		.byte	0x18
ARM GAS  C:\Users\DEVELO~1\AppData\Local\Temp\ccVijX1J.s 			page 17


 906 03c7 01       		.uleb128 0x1
 907 03c8 EF030000 		.4byte	.LASF65
 908 03cc D704     		.2byte	0x4d7
 909 03ce 10       		.byte	0x10
 910 03cf D3000000 		.4byte	0xd3
 911 03d3 1C       		.byte	0x1c
 912 03d4 01       		.uleb128 0x1
 913 03d5 75000000 		.4byte	.LASF66
 914 03d9 D804     		.2byte	0x4d8
 915 03db 10       		.byte	0x10
 916 03dc D3000000 		.4byte	0xd3
 917 03e0 20       		.byte	0x20
 918 03e1 01       		.uleb128 0x1
 919 03e2 DB030000 		.4byte	.LASF30
 920 03e6 D904     		.2byte	0x4d9
 921 03e8 0F       		.byte	0xf
 922 03e9 C7000000 		.4byte	0xc7
 923 03ed 24       		.byte	0x24
 924 03ee 01       		.uleb128 0x1
 925 03ef 67020000 		.4byte	.LASF67
 926 03f3 DA04     		.2byte	0x4da
 927 03f5 10       		.byte	0x10
 928 03f6 D3000000 		.4byte	0xd3
 929 03fa 28       		.byte	0x28
 930 03fb 01       		.uleb128 0x1
 931 03fc A0010000 		.4byte	.LASF68
 932 0400 DB04     		.2byte	0x4db
 933 0402 10       		.byte	0x10
 934 0403 D3000000 		.4byte	0xd3
 935 0407 2C       		.byte	0x2c
 936 0408 01       		.uleb128 0x1
 937 0409 17000000 		.4byte	.LASF69
 938 040d DC04     		.2byte	0x4dc
 939 040f 10       		.byte	0x10
 940 0410 D3000000 		.4byte	0xd3
 941 0414 30       		.byte	0x30
 942 0415 01       		.uleb128 0x1
 943 0416 38010000 		.4byte	.LASF70
 944 041a DD04     		.2byte	0x4dd
 945 041c 10       		.byte	0x10
 946 041d D3000000 		.4byte	0xd3
 947 0421 34       		.byte	0x34
 948 0422 01       		.uleb128 0x1
 949 0423 74040000 		.4byte	.LASF71
 950 0427 DE04     		.2byte	0x4de
 951 0429 10       		.byte	0x10
 952 042a D3000000 		.4byte	0xd3
 953 042e 38       		.byte	0x38
 954 042f 01       		.uleb128 0x1
 955 0430 F9010000 		.4byte	.LASF72
 956 0434 DF04     		.2byte	0x4df
 957 0436 10       		.byte	0x10
 958 0437 D3000000 		.4byte	0xd3
 959 043b 3C       		.byte	0x3c
 960 043c 01       		.uleb128 0x1
 961 043d B3010000 		.4byte	.LASF73
 962 0441 E004     		.2byte	0x4e0
ARM GAS  C:\Users\DEVELO~1\AppData\Local\Temp\ccVijX1J.s 			page 18


 963 0443 10       		.byte	0x10
 964 0444 D3000000 		.4byte	0xd3
 965 0448 40       		.byte	0x40
 966 0449 01       		.uleb128 0x1
 967 044a 42030000 		.4byte	.LASF74
 968 044e E104     		.2byte	0x4e1
 969 0450 10       		.byte	0x10
 970 0451 D3000000 		.4byte	0xd3
 971 0455 44       		.byte	0x44
 972 0456 01       		.uleb128 0x1
 973 0457 E5030000 		.4byte	.LASF35
 974 045b E204     		.2byte	0x4e2
 975 045d 10       		.byte	0x10
 976 045e C7000000 		.4byte	0xc7
 977 0462 48       		.byte	0x48
 978 0463 01       		.uleb128 0x1
 979 0464 9F040000 		.4byte	.LASF75
 980 0468 E304     		.2byte	0x4e3
 981 046a 11       		.byte	0x11
 982 046b D3000000 		.4byte	0xd3
 983 046f 4C       		.byte	0x4c
 984 0470 01       		.uleb128 0x1
 985 0471 D5010000 		.4byte	.LASF76
 986 0475 E404     		.2byte	0x4e4
 987 0477 11       		.byte	0x11
 988 0478 D3000000 		.4byte	0xd3
 989 047c 50       		.byte	0x50
 990 047d 01       		.uleb128 0x1
 991 047e 16030000 		.4byte	.LASF77
 992 0482 E504     		.2byte	0x4e5
 993 0484 11       		.byte	0x11
 994 0485 D3000000 		.4byte	0xd3
 995 0489 54       		.byte	0x54
 996 048a 01       		.uleb128 0x1
 997 048b DE010000 		.4byte	.LASF78
 998 048f E604     		.2byte	0x4e6
 999 0491 11       		.byte	0x11
 1000 0492 D3000000 		.4byte	0xd3
 1001 0496 58       		.byte	0x58
 1002 0497 01       		.uleb128 0x1
 1003 0498 8C040000 		.4byte	.LASF36
 1004 049c E704     		.2byte	0x4e7
 1005 049e 10       		.byte	0x10
 1006 049f C7000000 		.4byte	0xc7
 1007 04a3 5C       		.byte	0x5c
 1008 04a4 01       		.uleb128 0x1
 1009 04a5 CA000000 		.4byte	.LASF79
 1010 04a9 E804     		.2byte	0x4e8
 1011 04ab 11       		.byte	0x11
 1012 04ac D3000000 		.4byte	0xd3
 1013 04b0 60       		.byte	0x60
 1014 04b1 01       		.uleb128 0x1
 1015 04b2 AE010000 		.4byte	.LASF80
 1016 04b6 E904     		.2byte	0x4e9
 1017 04b8 11       		.byte	0x11
 1018 04b9 D3000000 		.4byte	0xd3
 1019 04bd 64       		.byte	0x64
ARM GAS  C:\Users\DEVELO~1\AppData\Local\Temp\ccVijX1J.s 			page 19


 1020 04be 01       		.uleb128 0x1
 1021 04bf 1C050000 		.4byte	.LASF81
 1022 04c3 EA04     		.2byte	0x4ea
 1023 04c5 11       		.byte	0x11
 1024 04c6 D3000000 		.4byte	0xd3
 1025 04ca 68       		.byte	0x68
 1026 04cb 01       		.uleb128 0x1
 1027 04cc F6030000 		.4byte	.LASF38
 1028 04d0 EB04     		.2byte	0x4eb
 1029 04d2 0F       		.byte	0xf
 1030 04d3 C7000000 		.4byte	0xc7
 1031 04d7 6C       		.byte	0x6c
 1032 04d8 01       		.uleb128 0x1
 1033 04d9 21050000 		.4byte	.LASF82
 1034 04dd EC04     		.2byte	0x4ec
 1035 04df 11       		.byte	0x11
 1036 04e0 D3000000 		.4byte	0xd3
 1037 04e4 70       		.byte	0x70
 1038 04e5 08       		.uleb128 0x8
 1039 04e6 43535200 		.ascii	"CSR\000"
 1040 04ea ED04     		.2byte	0x4ed
 1041 04ec 11       		.byte	0x11
 1042 04ed D3000000 		.4byte	0xd3
 1043 04f1 74       		.byte	0x74
 1044 04f2 01       		.uleb128 0x1
 1045 04f3 00040000 		.4byte	.LASF43
 1046 04f7 EE04     		.2byte	0x4ee
 1047 04f9 0F       		.byte	0xf
 1048 04fa C7000000 		.4byte	0xc7
 1049 04fe 78       		.byte	0x78
 1050 04ff 01       		.uleb128 0x1
 1051 0500 04030000 		.4byte	.LASF83
 1052 0504 EF04     		.2byte	0x4ef
 1053 0506 10       		.byte	0x10
 1054 0507 D3000000 		.4byte	0xd3
 1055 050b 7C       		.byte	0x7c
 1056 050c 01       		.uleb128 0x1
 1057 050d F3000000 		.4byte	.LASF84
 1058 0511 F004     		.2byte	0x4f0
 1059 0513 10       		.byte	0x10
 1060 0514 D3000000 		.4byte	0xd3
 1061 0518 80       		.byte	0x80
 1062 0519 01       		.uleb128 0x1
 1063 051a C3040000 		.4byte	.LASF85
 1064 051e F104     		.2byte	0x4f1
 1065 0520 10       		.byte	0x10
 1066 0521 D3000000 		.4byte	0xd3
 1067 0525 84       		.byte	0x84
 1068 0526 01       		.uleb128 0x1
 1069 0527 32000000 		.4byte	.LASF86
 1070 052b F204     		.2byte	0x4f2
 1071 052d 10       		.byte	0x10
 1072 052e D3000000 		.4byte	0xd3
 1073 0532 88       		.byte	0x88
 1074 0533 01       		.uleb128 0x1
 1075 0534 F7040000 		.4byte	.LASF87
 1076 0538 F304     		.2byte	0x4f3
ARM GAS  C:\Users\DEVELO~1\AppData\Local\Temp\ccVijX1J.s 			page 20


 1077 053a 10       		.byte	0x10
 1078 053b D3000000 		.4byte	0xd3
 1079 053f 8C       		.byte	0x8c
 1080 0540 01       		.uleb128 0x1
 1081 0541 E5040000 		.4byte	.LASF88
 1082 0545 F404     		.2byte	0x4f4
 1083 0547 10       		.byte	0x10
 1084 0548 D3000000 		.4byte	0xd3
 1085 054c 90       		.byte	0x90
 1086 054d 01       		.uleb128 0x1
 1087 054e 6D030000 		.4byte	.LASF89
 1088 0552 F504     		.2byte	0x4f5
 1089 0554 10       		.byte	0x10
 1090 0555 D3000000 		.4byte	0xd3
 1091 0559 94       		.byte	0x94
 1092 055a 01       		.uleb128 0x1
 1093 055b 42010000 		.4byte	.LASF90
 1094 055f F604     		.2byte	0x4f6
 1095 0561 10       		.byte	0x10
 1096 0562 D3000000 		.4byte	0xd3
 1097 0566 98       		.byte	0x98
 1098 0567 01       		.uleb128 0x1
 1099 0568 56030000 		.4byte	.LASF91
 1100 056c F704     		.2byte	0x4f7
 1101 056e 10       		.byte	0x10
 1102 056f D3000000 		.4byte	0xd3
 1103 0573 9C       		.byte	0x9c
 1104 0574 08       		.uleb128 0x8
 1105 0575 47435200 		.ascii	"GCR\000"
 1106 0579 F804     		.2byte	0x4f8
 1107 057b 10       		.byte	0x10
 1108 057c D3000000 		.4byte	0xd3
 1109 0580 A0       		.byte	0xa0
 1110 0581 01       		.uleb128 0x1
 1111 0582 14040000 		.4byte	.LASF51
 1112 0586 F904     		.2byte	0x4f9
 1113 0588 0F       		.byte	0xf
 1114 0589 C7000000 		.4byte	0xc7
 1115 058d A4       		.byte	0xa4
 1116 058e 01       		.uleb128 0x1
 1117 058f AD000000 		.4byte	.LASF92
 1118 0593 FA04     		.2byte	0x4fa
 1119 0595 10       		.byte	0x10
 1120 0596 D3000000 		.4byte	0xd3
 1121 059a A8       		.byte	0xa8
 1122 059b 01       		.uleb128 0x1
 1123 059c 10010000 		.4byte	.LASF93
 1124 05a0 FB04     		.2byte	0x4fb
 1125 05a2 0F       		.byte	0xf
 1126 05a3 52030000 		.4byte	0x352
 1127 05a7 AC       		.byte	0xac
 1128 05a8 08       		.uleb128 0x8
 1129 05a9 52535200 		.ascii	"RSR\000"
 1130 05ad FC04     		.2byte	0x4fc
 1131 05af 10       		.byte	0x10
 1132 05b0 D3000000 		.4byte	0xd3
 1133 05b4 D0       		.byte	0xd0
ARM GAS  C:\Users\DEVELO~1\AppData\Local\Temp\ccVijX1J.s 			page 21


 1134 05b5 01       		.uleb128 0x1
 1135 05b6 7D040000 		.4byte	.LASF94
 1136 05ba FD04     		.2byte	0x4fd
 1137 05bc 10       		.byte	0x10
 1138 05bd D3000000 		.4byte	0xd3
 1139 05c1 D4       		.byte	0xd4
 1140 05c2 01       		.uleb128 0x1
 1141 05c3 43050000 		.4byte	.LASF95
 1142 05c7 FE04     		.2byte	0x4fe
 1143 05c9 10       		.byte	0x10
 1144 05ca D3000000 		.4byte	0xd3
 1145 05ce D8       		.byte	0xd8
 1146 05cf 01       		.uleb128 0x1
 1147 05d0 EF040000 		.4byte	.LASF96
 1148 05d4 FF04     		.2byte	0x4ff
 1149 05d6 10       		.byte	0x10
 1150 05d7 D3000000 		.4byte	0xd3
 1151 05db DC       		.byte	0xdc
 1152 05dc 01       		.uleb128 0x1
 1153 05dd C9030000 		.4byte	.LASF97
 1154 05e1 0005     		.2byte	0x500
 1155 05e3 10       		.byte	0x10
 1156 05e4 D3000000 		.4byte	0xd3
 1157 05e8 E0       		.byte	0xe0
 1158 05e9 01       		.uleb128 0x1
 1159 05ea BC030000 		.4byte	.LASF98
 1160 05ee 0105     		.2byte	0x501
 1161 05f0 10       		.byte	0x10
 1162 05f1 D3000000 		.4byte	0xd3
 1163 05f5 E4       		.byte	0xe4
 1164 05f6 01       		.uleb128 0x1
 1165 05f7 59050000 		.4byte	.LASF99
 1166 05fb 0205     		.2byte	0x502
 1167 05fd 10       		.byte	0x10
 1168 05fe D3000000 		.4byte	0xd3
 1169 0602 E8       		.byte	0xe8
 1170 0603 01       		.uleb128 0x1
 1171 0604 0D030000 		.4byte	.LASF100
 1172 0608 0305     		.2byte	0x503
 1173 060a 10       		.byte	0x10
 1174 060b D3000000 		.4byte	0xd3
 1175 060f EC       		.byte	0xec
 1176 0610 01       		.uleb128 0x1
 1177 0611 6C040000 		.4byte	.LASF101
 1178 0615 0405     		.2byte	0x504
 1179 0617 10       		.byte	0x10
 1180 0618 D3000000 		.4byte	0xd3
 1181 061c F0       		.byte	0xf0
 1182 061d 01       		.uleb128 0x1
 1183 061e 5F030000 		.4byte	.LASF102
 1184 0622 0505     		.2byte	0x505
 1185 0624 10       		.byte	0x10
 1186 0625 D3000000 		.4byte	0xd3
 1187 0629 F4       		.byte	0xf4
 1188 062a 01       		.uleb128 0x1
 1189 062b 1B010000 		.4byte	.LASF103
 1190 062f 0605     		.2byte	0x506
ARM GAS  C:\Users\DEVELO~1\AppData\Local\Temp\ccVijX1J.s 			page 22


 1191 0631 10       		.byte	0x10
 1192 0632 C7000000 		.4byte	0xc7
 1193 0636 F8       		.byte	0xf8
 1194 0637 01       		.uleb128 0x1
 1195 0638 58040000 		.4byte	.LASF104
 1196 063c 0705     		.2byte	0x507
 1197 063e 10       		.byte	0x10
 1198 063f D3000000 		.4byte	0xd3
 1199 0643 FC       		.byte	0xfc
 1200 0644 05       		.uleb128 0x5
 1201 0645 C0000000 		.4byte	.LASF105
 1202 0649 0805     		.2byte	0x508
 1203 064b 10       		.byte	0x10
 1204 064c D3000000 		.4byte	0xd3
 1205 0650 0001     		.2byte	0x100
 1206 0652 05       		.uleb128 0x5
 1207 0653 7C030000 		.4byte	.LASF106
 1208 0657 0905     		.2byte	0x509
 1209 0659 10       		.byte	0x10
 1210 065a D3000000 		.4byte	0xd3
 1211 065e 0401     		.2byte	0x104
 1212 0660 05       		.uleb128 0x5
 1213 0661 CC040000 		.4byte	.LASF107
 1214 0665 0A05     		.2byte	0x50a
 1215 0667 10       		.byte	0x10
 1216 0668 D3000000 		.4byte	0xd3
 1217 066c 0801     		.2byte	0x108
 1218 066e 05       		.uleb128 0x5
 1219 066f 06010000 		.4byte	.LASF108
 1220 0673 0B05     		.2byte	0x50b
 1221 0675 10       		.byte	0x10
 1222 0676 D3000000 		.4byte	0xd3
 1223 067a 0C01     		.2byte	0x10c
 1224 067c 05       		.uleb128 0x5
 1225 067d 11050000 		.4byte	.LASF109
 1226 0681 0C05     		.2byte	0x50c
 1227 0683 10       		.byte	0x10
 1228 0684 D3000000 		.4byte	0xd3
 1229 0688 1001     		.2byte	0x110
 1230 068a 05       		.uleb128 0x5
 1231 068b 7C000000 		.4byte	.LASF110
 1232 068f 0D05     		.2byte	0x50d
 1233 0691 10       		.byte	0x10
 1234 0692 D3000000 		.4byte	0xd3
 1235 0696 1401     		.2byte	0x114
 1236 0698 05       		.uleb128 0x5
 1237 0699 38030000 		.4byte	.LASF111
 1238 069d 0E05     		.2byte	0x50e
 1239 069f 10       		.byte	0x10
 1240 06a0 D3000000 		.4byte	0xd3
 1241 06a4 1801     		.2byte	0x118
 1242 06a6 05       		.uleb128 0x5
 1243 06a7 62040000 		.4byte	.LASF112
 1244 06ab 0F05     		.2byte	0x50f
 1245 06ad 10       		.byte	0x10
 1246 06ae D3000000 		.4byte	0xd3
 1247 06b2 1C01     		.2byte	0x11c
ARM GAS  C:\Users\DEVELO~1\AppData\Local\Temp\ccVijX1J.s 			page 23


 1248 06b4 05       		.uleb128 0x5
 1249 06b5 26010000 		.4byte	.LASF113
 1250 06b9 1005     		.2byte	0x510
 1251 06bb 0F       		.byte	0xf
 1252 06bc 37030000 		.4byte	0x337
 1253 06c0 2001     		.2byte	0x120
 1254 06c2 00       		.byte	0
 1255 06c3 10       		.uleb128 0x10
 1256 06c4 3C020000 		.4byte	.LASF114
 1257 06c8 1205     		.2byte	0x512
 1258 06ca 62030000 		.4byte	0x362
 1259 06ce 04       		.uleb128 0x4
 1260 06cf 01       		.byte	0x1
 1261 06d0 02       		.byte	0x2
 1262 06d1 28040000 		.4byte	.LASF115
 1263 06d5 0B       		.uleb128 0xb
 1264 06d6 04       		.byte	0x4
 1265 06d7 07       		.byte	0x7
 1266 06d8 5B       		.byte	0x5b
 1267 06d9 05       		.byte	0x5
 1268 06da F9060000 		.4byte	0x6f9
 1269 06de 07       		.uleb128 0x7
 1270 06df 73657400 		.ascii	"set\000"
 1271 06e3 07       		.byte	0x7
 1272 06e4 5C       		.byte	0x5c
 1273 06e5 19       		.byte	0x19
 1274 06e6 BB000000 		.4byte	0xbb
 1275 06ea 00       		.byte	0
 1276 06eb 02       		.uleb128 0x2
 1277 06ec 67030000 		.4byte	.LASF116
 1278 06f0 07       		.byte	0x7
 1279 06f1 5D       		.byte	0x5d
 1280 06f2 19       		.byte	0x19
 1281 06f3 BB000000 		.4byte	0xbb
 1282 06f7 02       		.byte	0x2
 1283 06f8 00       		.byte	0
 1284 06f9 17       		.uleb128 0x17
 1285 06fa 04       		.byte	0x4
 1286 06fb 07       		.byte	0x7
 1287 06fc 59       		.byte	0x59
 1288 06fd 0C       		.byte	0xc
 1289 06fe 15070000 		.4byte	0x715
 1290 0702 11       		.uleb128 0x11
 1291 0703 5700     		.ascii	"W\000"
 1292 0705 5A       		.byte	0x5a
 1293 0706 19       		.byte	0x19
 1294 0707 C7000000 		.4byte	0xc7
 1295 070b 11       		.uleb128 0x11
 1296 070c 4800     		.ascii	"H\000"
 1297 070e 5E       		.byte	0x5e
 1298 070f 07       		.byte	0x7
 1299 0710 D5060000 		.4byte	0x6d5
 1300 0714 00       		.byte	0
 1301 0715 0E       		.uleb128 0xe
 1302 0716 F9060000 		.4byte	0x6f9
 1303 071a 0B       		.uleb128 0xb
 1304 071b 28       		.byte	0x28
ARM GAS  C:\Users\DEVELO~1\AppData\Local\Temp\ccVijX1J.s 			page 24


 1305 071c 07       		.byte	0x7
 1306 071d 51       		.byte	0x51
 1307 071e 09       		.byte	0x9
 1308 071f A6070000 		.4byte	0x7a6
 1309 0723 02       		.uleb128 0x2
 1310 0724 90000000 		.4byte	.LASF117
 1311 0728 07       		.byte	0x7
 1312 0729 53       		.byte	0x53
 1313 072a 19       		.byte	0x19
 1314 072b D3000000 		.4byte	0xd3
 1315 072f 00       		.byte	0
 1316 0730 02       		.uleb128 0x2
 1317 0731 64000000 		.4byte	.LASF118
 1318 0735 07       		.byte	0x7
 1319 0736 54       		.byte	0x54
 1320 0737 19       		.byte	0x19
 1321 0738 D3000000 		.4byte	0xd3
 1322 073c 04       		.byte	0x4
 1323 073d 02       		.uleb128 0x2
 1324 073e C2010000 		.4byte	.LASF119
 1325 0742 07       		.byte	0x7
 1326 0743 55       		.byte	0x55
 1327 0744 19       		.byte	0x19
 1328 0745 D3000000 		.4byte	0xd3
 1329 0749 08       		.byte	0x8
 1330 074a 02       		.uleb128 0x2
 1331 074b 11000000 		.4byte	.LASF120
 1332 074f 07       		.byte	0x7
 1333 0750 56       		.byte	0x56
 1334 0751 19       		.byte	0x19
 1335 0752 D3000000 		.4byte	0xd3
 1336 0756 0C       		.byte	0xc
 1337 0757 07       		.uleb128 0x7
 1338 0758 49445200 		.ascii	"IDR\000"
 1339 075c 07       		.byte	0x7
 1340 075d 57       		.byte	0x57
 1341 075e 19       		.byte	0x19
 1342 075f D3000000 		.4byte	0xd3
 1343 0763 10       		.byte	0x10
 1344 0764 07       		.uleb128 0x7
 1345 0765 4F445200 		.ascii	"ODR\000"
 1346 0769 07       		.byte	0x7
 1347 076a 58       		.byte	0x58
 1348 076b 19       		.byte	0x19
 1349 076c D3000000 		.4byte	0xd3
 1350 0770 14       		.byte	0x14
 1351 0771 02       		.uleb128 0x2
 1352 0772 EE000000 		.4byte	.LASF121
 1353 0776 07       		.byte	0x7
 1354 0777 5F       		.byte	0x5f
 1355 0778 05       		.byte	0x5
 1356 0779 15070000 		.4byte	0x715
 1357 077d 18       		.byte	0x18
 1358 077e 02       		.uleb128 0x2
 1359 077f 1F030000 		.4byte	.LASF122
 1360 0783 07       		.byte	0x7
 1361 0784 60       		.byte	0x60
ARM GAS  C:\Users\DEVELO~1\AppData\Local\Temp\ccVijX1J.s 			page 25


 1362 0785 19       		.byte	0x19
 1363 0786 D3000000 		.4byte	0xd3
 1364 078a 1C       		.byte	0x1c
 1365 078b 02       		.uleb128 0x2
 1366 078c C4030000 		.4byte	.LASF123
 1367 0790 07       		.byte	0x7
 1368 0791 61       		.byte	0x61
 1369 0792 19       		.byte	0x19
 1370 0793 D3000000 		.4byte	0xd3
 1371 0797 20       		.byte	0x20
 1372 0798 02       		.uleb128 0x2
 1373 0799 B7030000 		.4byte	.LASF124
 1374 079d 07       		.byte	0x7
 1375 079e 62       		.byte	0x62
 1376 079f 19       		.byte	0x19
 1377 07a0 D3000000 		.4byte	0xd3
 1378 07a4 24       		.byte	0x24
 1379 07a5 00       		.byte	0
 1380 07a6 03       		.uleb128 0x3
 1381 07a7 E6010000 		.4byte	.LASF125
 1382 07ab 07       		.byte	0x7
 1383 07ac 63       		.byte	0x63
 1384 07ad 03       		.byte	0x3
 1385 07ae 1A070000 		.4byte	0x71a
 1386 07b2 0F       		.uleb128 0xf
 1387 07b3 E9000000 		.4byte	0xe9
 1388 07b7 09       		.uleb128 0x9
 1389 07b8 25030000 		.4byte	.LASF126
 1390 07bc 08       		.byte	0x8
 1391 07bd 14       		.byte	0x14
 1392 07be 18       		.uleb128 0x18
 1393 07bf 08050000 		.4byte	.LASF143
 1394 07c3 0D       		.byte	0xd
 1395 07c4 1401     		.2byte	0x114
 1396 07c6 05       		.byte	0x5
 1397 07c7 26000000 		.4byte	0x26
 1398 07cb E0070000 		.4byte	0x7e0
 1399 07cf 06       		.uleb128 0x6
 1400 07d0 B2070000 		.4byte	0x7b2
 1401 07d4 06       		.uleb128 0x6
 1402 07d5 2D000000 		.4byte	0x2d
 1403 07d9 06       		.uleb128 0x6
 1404 07da E4000000 		.4byte	0xe4
 1405 07de 19       		.uleb128 0x19
 1406 07df 00       		.byte	0
 1407 07e0 1A       		.uleb128 0x1a
 1408 07e1 4B010000 		.4byte	.LASF132
 1409 07e5 08       		.byte	0x8
 1410 07e6 22       		.byte	0x22
 1411 07e7 06       		.byte	0x6
 1412 07e8 FC070000 		.4byte	0x7fc
 1413 07ec 06       		.uleb128 0x6
 1414 07ed AF000000 		.4byte	0xaf
 1415 07f1 06       		.uleb128 0x6
 1416 07f2 AF000000 		.4byte	0xaf
 1417 07f6 06       		.uleb128 0x6
 1418 07f7 E4000000 		.4byte	0xe4
ARM GAS  C:\Users\DEVELO~1\AppData\Local\Temp\ccVijX1J.s 			page 26


 1419 07fb 00       		.byte	0
 1420 07fc 09       		.uleb128 0x9
 1421 07fd C1050000 		.4byte	.LASF127
 1422 0801 08       		.byte	0x8
 1423 0802 13       		.byte	0x13
 1424 0803 09       		.uleb128 0x9
 1425 0804 44000000 		.4byte	.LASF128
 1426 0808 08       		.byte	0x8
 1427 0809 12       		.byte	0x12
 1428 080a 09       		.uleb128 0x9
 1429 080b DA050000 		.4byte	.LASF129
 1430 080f 09       		.byte	0x9
 1431 0810 28       		.byte	0x28
 1432 0811 12       		.uleb128 0x12
 1433 0812 FC000000 		.4byte	.LASF130
 1434 0816 0A       		.byte	0xa
 1435 0817 4E01     		.2byte	0x14e
 1436 0819 12       		.uleb128 0x12
 1437 081a 34020000 		.4byte	.LASF131
 1438 081e 0B       		.byte	0xb
 1439 081f 0101     		.2byte	0x101
 1440 0821 1B       		.uleb128 0x1b
 1441 0822 20000000 		.4byte	.LASF133
 1442 0826 0C       		.byte	0xc
 1443 0827 4201     		.2byte	0x142
 1444 0829 08       		.byte	0x8
 1445 082a 34080000 		.4byte	0x834
 1446 082e 06       		.uleb128 0x6
 1447 082f F5000000 		.4byte	0xf5
 1448 0833 00       		.byte	0
 1449 0834 1C       		.uleb128 0x1c
 1450 0835 9B010000 		.4byte	.LASF144
 1451 0839 01       		.byte	0x1
 1452 083a 4E       		.byte	0x4e
 1453 083b 05       		.byte	0x5
 1454 083c 26000000 		.4byte	0x26
 1455 0840 00000000 		.4byte	.LFB438
 1456 0844 90000000 		.4byte	.LFE438-.LFB438
 1457 0848 01       		.uleb128 0x1
 1458 0849 9C       		.byte	0x9c
 1459 084a 91080000 		.4byte	0x891
 1460 084e 0A       		.uleb128 0xa
 1461 084f B3000000 		.4byte	.LASF134
 1462 0853 58       		.byte	0x58
 1463 0854 08       		.byte	0x8
 1464 0855 91080000 		.4byte	0x891
 1465 0859 02       		.uleb128 0x2
 1466 085a 91       		.byte	0x91
 1467 085b 50       		.sleb128 -48
 1468 085c 0A       		.uleb128 0xa
 1469 085d BC010000 		.4byte	.LASF135
 1470 0861 59       		.byte	0x59
 1471 0862 08       		.byte	0x8
 1472 0863 91080000 		.4byte	0x891
 1473 0867 03       		.uleb128 0x3
 1474 0868 91       		.byte	0x91
 1475 0869 B07F     		.sleb128 -80
ARM GAS  C:\Users\DEVELO~1\AppData\Local\Temp\ccVijX1J.s 			page 27


 1476 086b 0A       		.uleb128 0xa
 1477 086c 50040000 		.4byte	.LASF136
 1478 0870 5B       		.byte	0x5b
 1479 0871 0C       		.byte	0xc
 1480 0872 C7000000 		.4byte	0xc7
 1481 0876 02       		.uleb128 0x2
 1482 0877 91       		.byte	0x91
 1483 0878 74       		.sleb128 -12
 1484 0879 1D       		.uleb128 0x1d
 1485 087a 22000000 		.4byte	.LBB2
 1486 087e 60000000 		.4byte	.LBE2-.LBB2
 1487 0882 1E       		.uleb128 0x1e
 1488 0883 7600     		.ascii	"v\000"
 1489 0885 01       		.byte	0x1
 1490 0886 5E       		.byte	0x5e
 1491 0887 0E       		.byte	0xe
 1492 0888 BB000000 		.4byte	0xbb
 1493 088c 02       		.uleb128 0x2
 1494 088d 91       		.byte	0x91
 1495 088e 72       		.sleb128 -14
 1496 088f 00       		.byte	0
 1497 0890 00       		.byte	0
 1498 0891 0C       		.uleb128 0xc
 1499 0892 E9000000 		.4byte	0xe9
 1500 0896 A1080000 		.4byte	0x8a1
 1501 089a 0D       		.uleb128 0xd
 1502 089b 39000000 		.4byte	0x39
 1503 089f 1F       		.byte	0x1f
 1504 08a0 00       		.byte	0
 1505 08a1 1F       		.uleb128 0x1f
 1506 08a2 10020000 		.4byte	.LASF145
 1507 08a6 01       		.byte	0x1
 1508 08a7 44       		.byte	0x44
 1509 08a8 11       		.byte	0x11
 1510 08a9 BB000000 		.4byte	0xbb
 1511 08ad 00000000 		.4byte	.LFB437
 1512 08b1 3C000000 		.4byte	.LFE437-.LFB437
 1513 08b5 01       		.uleb128 0x1
 1514 08b6 9C       		.byte	0x9c
 1515 08b7 CA080000 		.4byte	0x8ca
 1516 08bb 0A       		.uleb128 0xa
 1517 08bc F3010000 		.4byte	.LASF137
 1518 08c0 47       		.byte	0x47
 1519 08c1 0C       		.byte	0xc
 1520 08c2 BB000000 		.4byte	0xbb
 1521 08c6 02       		.uleb128 0x2
 1522 08c7 91       		.byte	0x91
 1523 08c8 76       		.sleb128 -10
 1524 08c9 00       		.byte	0
 1525 08ca 20       		.uleb128 0x20
 1526 08cb 2E040000 		.4byte	.LASF138
 1527 08cf 01       		.byte	0x1
 1528 08d0 17       		.byte	0x17
 1529 08d1 0D       		.byte	0xd
 1530 08d2 00000000 		.4byte	.LFB436
 1531 08d6 10010000 		.4byte	.LFE436-.LFB436
 1532 08da 01       		.uleb128 0x1
ARM GAS  C:\Users\DEVELO~1\AppData\Local\Temp\ccVijX1J.s 			page 28


 1533 08db 9C       		.byte	0x9c
 1534 08dc 21       		.uleb128 0x21
 1535 08dd 55000000 		.4byte	.LASF139
 1536 08e1 01       		.byte	0x1
 1537 08e2 0C       		.byte	0xc
 1538 08e3 0D       		.byte	0xd
 1539 08e4 00000000 		.4byte	.LFB435
 1540 08e8 50000000 		.4byte	.LFE435-.LFB435
 1541 08ec 01       		.uleb128 0x1
 1542 08ed 9C       		.byte	0x9c
 1543 08ee 00       		.byte	0
 1544              		.section	.debug_abbrev,"",%progbits
 1545              	.Ldebug_abbrev0:
 1546 0000 01       		.uleb128 0x1
 1547 0001 0D       		.uleb128 0xd
 1548 0002 00       		.byte	0
 1549 0003 03       		.uleb128 0x3
 1550 0004 0E       		.uleb128 0xe
 1551 0005 3A       		.uleb128 0x3a
 1552 0006 21       		.uleb128 0x21
 1553 0007 06       		.sleb128 6
 1554 0008 3B       		.uleb128 0x3b
 1555 0009 05       		.uleb128 0x5
 1556 000a 39       		.uleb128 0x39
 1557 000b 0B       		.uleb128 0xb
 1558 000c 49       		.uleb128 0x49
 1559 000d 13       		.uleb128 0x13
 1560 000e 38       		.uleb128 0x38
 1561 000f 0B       		.uleb128 0xb
 1562 0010 00       		.byte	0
 1563 0011 00       		.byte	0
 1564 0012 02       		.uleb128 0x2
 1565 0013 0D       		.uleb128 0xd
 1566 0014 00       		.byte	0
 1567 0015 03       		.uleb128 0x3
 1568 0016 0E       		.uleb128 0xe
 1569 0017 3A       		.uleb128 0x3a
 1570 0018 0B       		.uleb128 0xb
 1571 0019 3B       		.uleb128 0x3b
 1572 001a 0B       		.uleb128 0xb
 1573 001b 39       		.uleb128 0x39
 1574 001c 0B       		.uleb128 0xb
 1575 001d 49       		.uleb128 0x49
 1576 001e 13       		.uleb128 0x13
 1577 001f 38       		.uleb128 0x38
 1578 0020 0B       		.uleb128 0xb
 1579 0021 00       		.byte	0
 1580 0022 00       		.byte	0
 1581 0023 03       		.uleb128 0x3
 1582 0024 16       		.uleb128 0x16
 1583 0025 00       		.byte	0
 1584 0026 03       		.uleb128 0x3
 1585 0027 0E       		.uleb128 0xe
 1586 0028 3A       		.uleb128 0x3a
 1587 0029 0B       		.uleb128 0xb
 1588 002a 3B       		.uleb128 0x3b
 1589 002b 0B       		.uleb128 0xb
ARM GAS  C:\Users\DEVELO~1\AppData\Local\Temp\ccVijX1J.s 			page 29


 1590 002c 39       		.uleb128 0x39
 1591 002d 0B       		.uleb128 0xb
 1592 002e 49       		.uleb128 0x49
 1593 002f 13       		.uleb128 0x13
 1594 0030 00       		.byte	0
 1595 0031 00       		.byte	0
 1596 0032 04       		.uleb128 0x4
 1597 0033 24       		.uleb128 0x24
 1598 0034 00       		.byte	0
 1599 0035 0B       		.uleb128 0xb
 1600 0036 0B       		.uleb128 0xb
 1601 0037 3E       		.uleb128 0x3e
 1602 0038 0B       		.uleb128 0xb
 1603 0039 03       		.uleb128 0x3
 1604 003a 0E       		.uleb128 0xe
 1605 003b 00       		.byte	0
 1606 003c 00       		.byte	0
 1607 003d 05       		.uleb128 0x5
 1608 003e 0D       		.uleb128 0xd
 1609 003f 00       		.byte	0
 1610 0040 03       		.uleb128 0x3
 1611 0041 0E       		.uleb128 0xe
 1612 0042 3A       		.uleb128 0x3a
 1613 0043 21       		.uleb128 0x21
 1614 0044 06       		.sleb128 6
 1615 0045 3B       		.uleb128 0x3b
 1616 0046 05       		.uleb128 0x5
 1617 0047 39       		.uleb128 0x39
 1618 0048 0B       		.uleb128 0xb
 1619 0049 49       		.uleb128 0x49
 1620 004a 13       		.uleb128 0x13
 1621 004b 38       		.uleb128 0x38
 1622 004c 05       		.uleb128 0x5
 1623 004d 00       		.byte	0
 1624 004e 00       		.byte	0
 1625 004f 06       		.uleb128 0x6
 1626 0050 05       		.uleb128 0x5
 1627 0051 00       		.byte	0
 1628 0052 49       		.uleb128 0x49
 1629 0053 13       		.uleb128 0x13
 1630 0054 00       		.byte	0
 1631 0055 00       		.byte	0
 1632 0056 07       		.uleb128 0x7
 1633 0057 0D       		.uleb128 0xd
 1634 0058 00       		.byte	0
 1635 0059 03       		.uleb128 0x3
 1636 005a 08       		.uleb128 0x8
 1637 005b 3A       		.uleb128 0x3a
 1638 005c 0B       		.uleb128 0xb
 1639 005d 3B       		.uleb128 0x3b
 1640 005e 0B       		.uleb128 0xb
 1641 005f 39       		.uleb128 0x39
 1642 0060 0B       		.uleb128 0xb
 1643 0061 49       		.uleb128 0x49
 1644 0062 13       		.uleb128 0x13
 1645 0063 38       		.uleb128 0x38
 1646 0064 0B       		.uleb128 0xb
ARM GAS  C:\Users\DEVELO~1\AppData\Local\Temp\ccVijX1J.s 			page 30


 1647 0065 00       		.byte	0
 1648 0066 00       		.byte	0
 1649 0067 08       		.uleb128 0x8
 1650 0068 0D       		.uleb128 0xd
 1651 0069 00       		.byte	0
 1652 006a 03       		.uleb128 0x3
 1653 006b 08       		.uleb128 0x8
 1654 006c 3A       		.uleb128 0x3a
 1655 006d 21       		.uleb128 0x21
 1656 006e 06       		.sleb128 6
 1657 006f 3B       		.uleb128 0x3b
 1658 0070 05       		.uleb128 0x5
 1659 0071 39       		.uleb128 0x39
 1660 0072 0B       		.uleb128 0xb
 1661 0073 49       		.uleb128 0x49
 1662 0074 13       		.uleb128 0x13
 1663 0075 38       		.uleb128 0x38
 1664 0076 0B       		.uleb128 0xb
 1665 0077 00       		.byte	0
 1666 0078 00       		.byte	0
 1667 0079 09       		.uleb128 0x9
 1668 007a 2E       		.uleb128 0x2e
 1669 007b 00       		.byte	0
 1670 007c 3F       		.uleb128 0x3f
 1671 007d 19       		.uleb128 0x19
 1672 007e 03       		.uleb128 0x3
 1673 007f 0E       		.uleb128 0xe
 1674 0080 3A       		.uleb128 0x3a
 1675 0081 0B       		.uleb128 0xb
 1676 0082 3B       		.uleb128 0x3b
 1677 0083 0B       		.uleb128 0xb
 1678 0084 39       		.uleb128 0x39
 1679 0085 21       		.uleb128 0x21
 1680 0086 06       		.sleb128 6
 1681 0087 27       		.uleb128 0x27
 1682 0088 19       		.uleb128 0x19
 1683 0089 3C       		.uleb128 0x3c
 1684 008a 19       		.uleb128 0x19
 1685 008b 00       		.byte	0
 1686 008c 00       		.byte	0
 1687 008d 0A       		.uleb128 0xa
 1688 008e 34       		.uleb128 0x34
 1689 008f 00       		.byte	0
 1690 0090 03       		.uleb128 0x3
 1691 0091 0E       		.uleb128 0xe
 1692 0092 3A       		.uleb128 0x3a
 1693 0093 21       		.uleb128 0x21
 1694 0094 01       		.sleb128 1
 1695 0095 3B       		.uleb128 0x3b
 1696 0096 0B       		.uleb128 0xb
 1697 0097 39       		.uleb128 0x39
 1698 0098 0B       		.uleb128 0xb
 1699 0099 49       		.uleb128 0x49
 1700 009a 13       		.uleb128 0x13
 1701 009b 02       		.uleb128 0x2
 1702 009c 18       		.uleb128 0x18
 1703 009d 00       		.byte	0
ARM GAS  C:\Users\DEVELO~1\AppData\Local\Temp\ccVijX1J.s 			page 31


 1704 009e 00       		.byte	0
 1705 009f 0B       		.uleb128 0xb
 1706 00a0 13       		.uleb128 0x13
 1707 00a1 01       		.byte	0x1
 1708 00a2 0B       		.uleb128 0xb
 1709 00a3 0B       		.uleb128 0xb
 1710 00a4 3A       		.uleb128 0x3a
 1711 00a5 0B       		.uleb128 0xb
 1712 00a6 3B       		.uleb128 0x3b
 1713 00a7 0B       		.uleb128 0xb
 1714 00a8 39       		.uleb128 0x39
 1715 00a9 0B       		.uleb128 0xb
 1716 00aa 01       		.uleb128 0x1
 1717 00ab 13       		.uleb128 0x13
 1718 00ac 00       		.byte	0
 1719 00ad 00       		.byte	0
 1720 00ae 0C       		.uleb128 0xc
 1721 00af 01       		.uleb128 0x1
 1722 00b0 01       		.byte	0x1
 1723 00b1 49       		.uleb128 0x49
 1724 00b2 13       		.uleb128 0x13
 1725 00b3 01       		.uleb128 0x1
 1726 00b4 13       		.uleb128 0x13
 1727 00b5 00       		.byte	0
 1728 00b6 00       		.byte	0
 1729 00b7 0D       		.uleb128 0xd
 1730 00b8 21       		.uleb128 0x21
 1731 00b9 00       		.byte	0
 1732 00ba 49       		.uleb128 0x49
 1733 00bb 13       		.uleb128 0x13
 1734 00bc 2F       		.uleb128 0x2f
 1735 00bd 0B       		.uleb128 0xb
 1736 00be 00       		.byte	0
 1737 00bf 00       		.byte	0
 1738 00c0 0E       		.uleb128 0xe
 1739 00c1 35       		.uleb128 0x35
 1740 00c2 00       		.byte	0
 1741 00c3 49       		.uleb128 0x49
 1742 00c4 13       		.uleb128 0x13
 1743 00c5 00       		.byte	0
 1744 00c6 00       		.byte	0
 1745 00c7 0F       		.uleb128 0xf
 1746 00c8 0F       		.uleb128 0xf
 1747 00c9 00       		.byte	0
 1748 00ca 0B       		.uleb128 0xb
 1749 00cb 21       		.uleb128 0x21
 1750 00cc 04       		.sleb128 4
 1751 00cd 49       		.uleb128 0x49
 1752 00ce 13       		.uleb128 0x13
 1753 00cf 00       		.byte	0
 1754 00d0 00       		.byte	0
 1755 00d1 10       		.uleb128 0x10
 1756 00d2 16       		.uleb128 0x16
 1757 00d3 00       		.byte	0
 1758 00d4 03       		.uleb128 0x3
 1759 00d5 0E       		.uleb128 0xe
 1760 00d6 3A       		.uleb128 0x3a
ARM GAS  C:\Users\DEVELO~1\AppData\Local\Temp\ccVijX1J.s 			page 32


 1761 00d7 21       		.uleb128 0x21
 1762 00d8 06       		.sleb128 6
 1763 00d9 3B       		.uleb128 0x3b
 1764 00da 05       		.uleb128 0x5
 1765 00db 39       		.uleb128 0x39
 1766 00dc 21       		.uleb128 0x21
 1767 00dd 03       		.sleb128 3
 1768 00de 49       		.uleb128 0x49
 1769 00df 13       		.uleb128 0x13
 1770 00e0 00       		.byte	0
 1771 00e1 00       		.byte	0
 1772 00e2 11       		.uleb128 0x11
 1773 00e3 0D       		.uleb128 0xd
 1774 00e4 00       		.byte	0
 1775 00e5 03       		.uleb128 0x3
 1776 00e6 08       		.uleb128 0x8
 1777 00e7 3A       		.uleb128 0x3a
 1778 00e8 21       		.uleb128 0x21
 1779 00e9 07       		.sleb128 7
 1780 00ea 3B       		.uleb128 0x3b
 1781 00eb 0B       		.uleb128 0xb
 1782 00ec 39       		.uleb128 0x39
 1783 00ed 0B       		.uleb128 0xb
 1784 00ee 49       		.uleb128 0x49
 1785 00ef 13       		.uleb128 0x13
 1786 00f0 00       		.byte	0
 1787 00f1 00       		.byte	0
 1788 00f2 12       		.uleb128 0x12
 1789 00f3 2E       		.uleb128 0x2e
 1790 00f4 00       		.byte	0
 1791 00f5 3F       		.uleb128 0x3f
 1792 00f6 19       		.uleb128 0x19
 1793 00f7 03       		.uleb128 0x3
 1794 00f8 0E       		.uleb128 0xe
 1795 00f9 3A       		.uleb128 0x3a
 1796 00fa 0B       		.uleb128 0xb
 1797 00fb 3B       		.uleb128 0x3b
 1798 00fc 05       		.uleb128 0x5
 1799 00fd 39       		.uleb128 0x39
 1800 00fe 21       		.uleb128 0x21
 1801 00ff 08       		.sleb128 8
 1802 0100 27       		.uleb128 0x27
 1803 0101 19       		.uleb128 0x19
 1804 0102 3C       		.uleb128 0x3c
 1805 0103 19       		.uleb128 0x19
 1806 0104 00       		.byte	0
 1807 0105 00       		.byte	0
 1808 0106 13       		.uleb128 0x13
 1809 0107 11       		.uleb128 0x11
 1810 0108 01       		.byte	0x1
 1811 0109 25       		.uleb128 0x25
 1812 010a 0E       		.uleb128 0xe
 1813 010b 13       		.uleb128 0x13
 1814 010c 0B       		.uleb128 0xb
 1815 010d 03       		.uleb128 0x3
 1816 010e 0E       		.uleb128 0xe
 1817 010f 1B       		.uleb128 0x1b
ARM GAS  C:\Users\DEVELO~1\AppData\Local\Temp\ccVijX1J.s 			page 33


 1818 0110 0E       		.uleb128 0xe
 1819 0111 55       		.uleb128 0x55
 1820 0112 17       		.uleb128 0x17
 1821 0113 11       		.uleb128 0x11
 1822 0114 01       		.uleb128 0x1
 1823 0115 10       		.uleb128 0x10
 1824 0116 17       		.uleb128 0x17
 1825 0117 00       		.byte	0
 1826 0118 00       		.byte	0
 1827 0119 14       		.uleb128 0x14
 1828 011a 24       		.uleb128 0x24
 1829 011b 00       		.byte	0
 1830 011c 0B       		.uleb128 0xb
 1831 011d 0B       		.uleb128 0xb
 1832 011e 3E       		.uleb128 0x3e
 1833 011f 0B       		.uleb128 0xb
 1834 0120 03       		.uleb128 0x3
 1835 0121 08       		.uleb128 0x8
 1836 0122 00       		.byte	0
 1837 0123 00       		.byte	0
 1838 0124 15       		.uleb128 0x15
 1839 0125 26       		.uleb128 0x26
 1840 0126 00       		.byte	0
 1841 0127 49       		.uleb128 0x49
 1842 0128 13       		.uleb128 0x13
 1843 0129 00       		.byte	0
 1844 012a 00       		.byte	0
 1845 012b 16       		.uleb128 0x16
 1846 012c 13       		.uleb128 0x13
 1847 012d 01       		.byte	0x1
 1848 012e 0B       		.uleb128 0xb
 1849 012f 05       		.uleb128 0x5
 1850 0130 3A       		.uleb128 0x3a
 1851 0131 0B       		.uleb128 0xb
 1852 0132 3B       		.uleb128 0x3b
 1853 0133 05       		.uleb128 0x5
 1854 0134 39       		.uleb128 0x39
 1855 0135 0B       		.uleb128 0xb
 1856 0136 01       		.uleb128 0x1
 1857 0137 13       		.uleb128 0x13
 1858 0138 00       		.byte	0
 1859 0139 00       		.byte	0
 1860 013a 17       		.uleb128 0x17
 1861 013b 17       		.uleb128 0x17
 1862 013c 01       		.byte	0x1
 1863 013d 0B       		.uleb128 0xb
 1864 013e 0B       		.uleb128 0xb
 1865 013f 3A       		.uleb128 0x3a
 1866 0140 0B       		.uleb128 0xb
 1867 0141 3B       		.uleb128 0x3b
 1868 0142 0B       		.uleb128 0xb
 1869 0143 39       		.uleb128 0x39
 1870 0144 0B       		.uleb128 0xb
 1871 0145 01       		.uleb128 0x1
 1872 0146 13       		.uleb128 0x13
 1873 0147 00       		.byte	0
 1874 0148 00       		.byte	0
ARM GAS  C:\Users\DEVELO~1\AppData\Local\Temp\ccVijX1J.s 			page 34


 1875 0149 18       		.uleb128 0x18
 1876 014a 2E       		.uleb128 0x2e
 1877 014b 01       		.byte	0x1
 1878 014c 3F       		.uleb128 0x3f
 1879 014d 19       		.uleb128 0x19
 1880 014e 03       		.uleb128 0x3
 1881 014f 0E       		.uleb128 0xe
 1882 0150 3A       		.uleb128 0x3a
 1883 0151 0B       		.uleb128 0xb
 1884 0152 3B       		.uleb128 0x3b
 1885 0153 05       		.uleb128 0x5
 1886 0154 39       		.uleb128 0x39
 1887 0155 0B       		.uleb128 0xb
 1888 0156 27       		.uleb128 0x27
 1889 0157 19       		.uleb128 0x19
 1890 0158 49       		.uleb128 0x49
 1891 0159 13       		.uleb128 0x13
 1892 015a 3C       		.uleb128 0x3c
 1893 015b 19       		.uleb128 0x19
 1894 015c 01       		.uleb128 0x1
 1895 015d 13       		.uleb128 0x13
 1896 015e 00       		.byte	0
 1897 015f 00       		.byte	0
 1898 0160 19       		.uleb128 0x19
 1899 0161 18       		.uleb128 0x18
 1900 0162 00       		.byte	0
 1901 0163 00       		.byte	0
 1902 0164 00       		.byte	0
 1903 0165 1A       		.uleb128 0x1a
 1904 0166 2E       		.uleb128 0x2e
 1905 0167 01       		.byte	0x1
 1906 0168 3F       		.uleb128 0x3f
 1907 0169 19       		.uleb128 0x19
 1908 016a 03       		.uleb128 0x3
 1909 016b 0E       		.uleb128 0xe
 1910 016c 3A       		.uleb128 0x3a
 1911 016d 0B       		.uleb128 0xb
 1912 016e 3B       		.uleb128 0x3b
 1913 016f 0B       		.uleb128 0xb
 1914 0170 39       		.uleb128 0x39
 1915 0171 0B       		.uleb128 0xb
 1916 0172 27       		.uleb128 0x27
 1917 0173 19       		.uleb128 0x19
 1918 0174 3C       		.uleb128 0x3c
 1919 0175 19       		.uleb128 0x19
 1920 0176 01       		.uleb128 0x1
 1921 0177 13       		.uleb128 0x13
 1922 0178 00       		.byte	0
 1923 0179 00       		.byte	0
 1924 017a 1B       		.uleb128 0x1b
 1925 017b 2E       		.uleb128 0x2e
 1926 017c 01       		.byte	0x1
 1927 017d 3F       		.uleb128 0x3f
 1928 017e 19       		.uleb128 0x19
 1929 017f 03       		.uleb128 0x3
 1930 0180 0E       		.uleb128 0xe
 1931 0181 3A       		.uleb128 0x3a
ARM GAS  C:\Users\DEVELO~1\AppData\Local\Temp\ccVijX1J.s 			page 35


 1932 0182 0B       		.uleb128 0xb
 1933 0183 3B       		.uleb128 0x3b
 1934 0184 05       		.uleb128 0x5
 1935 0185 39       		.uleb128 0x39
 1936 0186 0B       		.uleb128 0xb
 1937 0187 27       		.uleb128 0x27
 1938 0188 19       		.uleb128 0x19
 1939 0189 3C       		.uleb128 0x3c
 1940 018a 19       		.uleb128 0x19
 1941 018b 01       		.uleb128 0x1
 1942 018c 13       		.uleb128 0x13
 1943 018d 00       		.byte	0
 1944 018e 00       		.byte	0
 1945 018f 1C       		.uleb128 0x1c
 1946 0190 2E       		.uleb128 0x2e
 1947 0191 01       		.byte	0x1
 1948 0192 3F       		.uleb128 0x3f
 1949 0193 19       		.uleb128 0x19
 1950 0194 03       		.uleb128 0x3
 1951 0195 0E       		.uleb128 0xe
 1952 0196 3A       		.uleb128 0x3a
 1953 0197 0B       		.uleb128 0xb
 1954 0198 3B       		.uleb128 0x3b
 1955 0199 0B       		.uleb128 0xb
 1956 019a 39       		.uleb128 0x39
 1957 019b 0B       		.uleb128 0xb
 1958 019c 27       		.uleb128 0x27
 1959 019d 19       		.uleb128 0x19
 1960 019e 49       		.uleb128 0x49
 1961 019f 13       		.uleb128 0x13
 1962 01a0 11       		.uleb128 0x11
 1963 01a1 01       		.uleb128 0x1
 1964 01a2 12       		.uleb128 0x12
 1965 01a3 06       		.uleb128 0x6
 1966 01a4 40       		.uleb128 0x40
 1967 01a5 18       		.uleb128 0x18
 1968 01a6 7C       		.uleb128 0x7c
 1969 01a7 19       		.uleb128 0x19
 1970 01a8 01       		.uleb128 0x1
 1971 01a9 13       		.uleb128 0x13
 1972 01aa 00       		.byte	0
 1973 01ab 00       		.byte	0
 1974 01ac 1D       		.uleb128 0x1d
 1975 01ad 0B       		.uleb128 0xb
 1976 01ae 01       		.byte	0x1
 1977 01af 11       		.uleb128 0x11
 1978 01b0 01       		.uleb128 0x1
 1979 01b1 12       		.uleb128 0x12
 1980 01b2 06       		.uleb128 0x6
 1981 01b3 00       		.byte	0
 1982 01b4 00       		.byte	0
 1983 01b5 1E       		.uleb128 0x1e
 1984 01b6 34       		.uleb128 0x34
 1985 01b7 00       		.byte	0
 1986 01b8 03       		.uleb128 0x3
 1987 01b9 08       		.uleb128 0x8
 1988 01ba 3A       		.uleb128 0x3a
ARM GAS  C:\Users\DEVELO~1\AppData\Local\Temp\ccVijX1J.s 			page 36


 1989 01bb 0B       		.uleb128 0xb
 1990 01bc 3B       		.uleb128 0x3b
 1991 01bd 0B       		.uleb128 0xb
 1992 01be 39       		.uleb128 0x39
 1993 01bf 0B       		.uleb128 0xb
 1994 01c0 49       		.uleb128 0x49
 1995 01c1 13       		.uleb128 0x13
 1996 01c2 02       		.uleb128 0x2
 1997 01c3 18       		.uleb128 0x18
 1998 01c4 00       		.byte	0
 1999 01c5 00       		.byte	0
 2000 01c6 1F       		.uleb128 0x1f
 2001 01c7 2E       		.uleb128 0x2e
 2002 01c8 01       		.byte	0x1
 2003 01c9 03       		.uleb128 0x3
 2004 01ca 0E       		.uleb128 0xe
 2005 01cb 3A       		.uleb128 0x3a
 2006 01cc 0B       		.uleb128 0xb
 2007 01cd 3B       		.uleb128 0x3b
 2008 01ce 0B       		.uleb128 0xb
 2009 01cf 39       		.uleb128 0x39
 2010 01d0 0B       		.uleb128 0xb
 2011 01d1 27       		.uleb128 0x27
 2012 01d2 19       		.uleb128 0x19
 2013 01d3 49       		.uleb128 0x49
 2014 01d4 13       		.uleb128 0x13
 2015 01d5 11       		.uleb128 0x11
 2016 01d6 01       		.uleb128 0x1
 2017 01d7 12       		.uleb128 0x12
 2018 01d8 06       		.uleb128 0x6
 2019 01d9 40       		.uleb128 0x40
 2020 01da 18       		.uleb128 0x18
 2021 01db 7A       		.uleb128 0x7a
 2022 01dc 19       		.uleb128 0x19
 2023 01dd 01       		.uleb128 0x1
 2024 01de 13       		.uleb128 0x13
 2025 01df 00       		.byte	0
 2026 01e0 00       		.byte	0
 2027 01e1 20       		.uleb128 0x20
 2028 01e2 2E       		.uleb128 0x2e
 2029 01e3 00       		.byte	0
 2030 01e4 03       		.uleb128 0x3
 2031 01e5 0E       		.uleb128 0xe
 2032 01e6 3A       		.uleb128 0x3a
 2033 01e7 0B       		.uleb128 0xb
 2034 01e8 3B       		.uleb128 0x3b
 2035 01e9 0B       		.uleb128 0xb
 2036 01ea 39       		.uleb128 0x39
 2037 01eb 0B       		.uleb128 0xb
 2038 01ec 27       		.uleb128 0x27
 2039 01ed 19       		.uleb128 0x19
 2040 01ee 11       		.uleb128 0x11
 2041 01ef 01       		.uleb128 0x1
 2042 01f0 12       		.uleb128 0x12
 2043 01f1 06       		.uleb128 0x6
 2044 01f2 40       		.uleb128 0x40
 2045 01f3 18       		.uleb128 0x18
ARM GAS  C:\Users\DEVELO~1\AppData\Local\Temp\ccVijX1J.s 			page 37


 2046 01f4 7C       		.uleb128 0x7c
 2047 01f5 19       		.uleb128 0x19
 2048 01f6 00       		.byte	0
 2049 01f7 00       		.byte	0
 2050 01f8 21       		.uleb128 0x21
 2051 01f9 2E       		.uleb128 0x2e
 2052 01fa 00       		.byte	0
 2053 01fb 03       		.uleb128 0x3
 2054 01fc 0E       		.uleb128 0xe
 2055 01fd 3A       		.uleb128 0x3a
 2056 01fe 0B       		.uleb128 0xb
 2057 01ff 3B       		.uleb128 0x3b
 2058 0200 0B       		.uleb128 0xb
 2059 0201 39       		.uleb128 0x39
 2060 0202 0B       		.uleb128 0xb
 2061 0203 27       		.uleb128 0x27
 2062 0204 19       		.uleb128 0x19
 2063 0205 11       		.uleb128 0x11
 2064 0206 01       		.uleb128 0x1
 2065 0207 12       		.uleb128 0x12
 2066 0208 06       		.uleb128 0x6
 2067 0209 40       		.uleb128 0x40
 2068 020a 18       		.uleb128 0x18
 2069 020b 7A       		.uleb128 0x7a
 2070 020c 19       		.uleb128 0x19
 2071 020d 00       		.byte	0
 2072 020e 00       		.byte	0
 2073 020f 00       		.byte	0
 2074              		.section	.debug_aranges,"",%progbits
 2075 0000 34000000 		.4byte	0x34
 2076 0004 0200     		.2byte	0x2
 2077 0006 00000000 		.4byte	.Ldebug_info0
 2078 000a 04       		.byte	0x4
 2079 000b 00       		.byte	0
 2080 000c 0000     		.2byte	0
 2081 000e 0000     		.2byte	0
 2082 0010 00000000 		.4byte	.LFB435
 2083 0014 50000000 		.4byte	.LFE435-.LFB435
 2084 0018 00000000 		.4byte	.LFB436
 2085 001c 10010000 		.4byte	.LFE436-.LFB436
 2086 0020 00000000 		.4byte	.LFB437
 2087 0024 3C000000 		.4byte	.LFE437-.LFB437
 2088 0028 00000000 		.4byte	.LFB438
 2089 002c 90000000 		.4byte	.LFE438-.LFB438
 2090 0030 00000000 		.4byte	0
 2091 0034 00000000 		.4byte	0
 2092              		.section	.debug_rnglists,"",%progbits
 2093              	.Ldebug_ranges0:
 2094 0000 23000000 		.4byte	.Ldebug_ranges3-.Ldebug_ranges2
 2095              	.Ldebug_ranges2:
 2096 0004 0500     		.2byte	0x5
 2097 0006 04       		.byte	0x4
 2098 0007 00       		.byte	0
 2099 0008 00000000 		.4byte	0
 2100              	.LLRL0:
 2101 000c 07       		.byte	0x7
 2102 000d 00000000 		.4byte	.LFB435
ARM GAS  C:\Users\DEVELO~1\AppData\Local\Temp\ccVijX1J.s 			page 38


 2103 0011 50       		.uleb128 .LFE435-.LFB435
 2104 0012 07       		.byte	0x7
 2105 0013 00000000 		.4byte	.LFB436
 2106 0017 9002     		.uleb128 .LFE436-.LFB436
 2107 0019 07       		.byte	0x7
 2108 001a 00000000 		.4byte	.LFB437
 2109 001e 3C       		.uleb128 .LFE437-.LFB437
 2110 001f 07       		.byte	0x7
 2111 0020 00000000 		.4byte	.LFB438
 2112 0024 9001     		.uleb128 .LFE438-.LFB438
 2113 0026 00       		.byte	0
 2114              	.Ldebug_ranges3:
 2115              		.section	.debug_line,"",%progbits
 2116              	.Ldebug_line0:
 2117 0000 E7030000 		.section	.debug_str,"MS",%progbits,1
 2117      03009C02 
 2117      00000201 
 2117      FB0E0D00 
 2117      01010101 
 2118              	.LASF39:
 2119 0000 4F465231 		.ascii	"OFR1\000"
 2119      00
 2120              	.LASF40:
 2121 0005 4F465232 		.ascii	"OFR2\000"
 2121      00
 2122              	.LASF50:
 2123 000a 41574433 		.ascii	"AWD3CR\000"
 2123      435200
 2124              	.LASF120:
 2125 0011 50555044 		.ascii	"PUPDR\000"
 2125      5200
 2126              	.LASF69:
 2127 0017 504C4C31 		.ascii	"PLL1DIVR\000"
 2127      44495652 
 2127      00
 2128              	.LASF133:
 2129 0020 63685468 		.ascii	"chThdSleep\000"
 2129      64536C65 
 2129      657000
 2130              	.LASF4:
 2131 002b 73697A65 		.ascii	"size_t\000"
 2131      5F7400
 2132              	.LASF86:
 2133 0032 41484234 		.ascii	"AHB4RSTR\000"
 2133      52535452 
 2133      00
 2134              	.LASF18:
 2135 003b 75696E74 		.ascii	"uint64_t\000"
 2135      36345F74 
 2135      00
 2136              	.LASF128:
 2137 0044 6472765F 		.ascii	"drv_display_init\000"
 2137      64697370 
 2137      6C61795F 
 2137      696E6974 
 2137      00
 2138              	.LASF139:
ARM GAS  C:\Users\DEVELO~1\AppData\Local\Temp\ccVijX1J.s 			page 39


 2139 0055 61646331 		.ascii	"adc1_gpio_init\000"
 2139      5F677069 
 2139      6F5F696E 
 2139      697400
 2140              	.LASF118:
 2141 0064 4F545950 		.ascii	"OTYPER\000"
 2141      455200
 2142              	.LASF5:
 2143 006b 5F5F7569 		.ascii	"__uint8_t\000"
 2143      6E74385F 
 2143      7400
 2144              	.LASF66:
 2145 0075 44334346 		.ascii	"D3CFGR\000"
 2145      475200
 2146              	.LASF110:
 2147 007c 41504231 		.ascii	"APB1HLPENR\000"
 2147      484C5045 
 2147      4E5200
 2148              	.LASF10:
 2149 0087 6C6F6E67 		.ascii	"long int\000"
 2149      20696E74 
 2149      00
 2150              	.LASF117:
 2151 0090 4D4F4445 		.ascii	"MODER\000"
 2151      5200
 2152              	.LASF14:
 2153 0096 6C6F6E67 		.ascii	"long long unsigned int\000"
 2153      206C6F6E 
 2153      6720756E 
 2153      7369676E 
 2153      65642069 
 2154              	.LASF92:
 2155 00ad 4433414D 		.ascii	"D3AMR\000"
 2155      5200
 2156              	.LASF134:
 2157 00b3 6C696E65 		.ascii	"line1\000"
 2157      3100
 2158              	.LASF57:
 2159 00b9 44494653 		.ascii	"DIFSEL\000"
 2159      454C00
 2160              	.LASF105:
 2161 00c0 41484231 		.ascii	"AHB1LPENR\000"
 2161      4C50454E 
 2161      5200
 2162              	.LASF79:
 2163 00ca 43494552 		.ascii	"CIER\000"
 2163      00
 2164              	.LASF37:
 2165 00cf 4A535152 		.ascii	"JSQR\000"
 2165      00
 2166              	.LASF1:
 2167 00d4 6C6F6E67 		.ascii	"long long int\000"
 2167      206C6F6E 
 2167      6720696E 
 2167      7400
 2168              	.LASF3:
 2169 00e2 7369676E 		.ascii	"signed char\000"
ARM GAS  C:\Users\DEVELO~1\AppData\Local\Temp\ccVijX1J.s 			page 40


 2169      65642063 
 2169      68617200 
 2170              	.LASF121:
 2171 00ee 42535252 		.ascii	"BSRR\000"
 2171      00
 2172              	.LASF84:
 2173 00f3 41484231 		.ascii	"AHB1RSTR\000"
 2173      52535452 
 2173      00
 2174              	.LASF130:
 2175 00fc 63685379 		.ascii	"chSysInit\000"
 2175      73496E69 
 2175      7400
 2176              	.LASF108:
 2177 0106 41504233 		.ascii	"APB3LPENR\000"
 2177      4C50454E 
 2177      5200
 2178              	.LASF93:
 2179 0110 52455345 		.ascii	"RESERVED11\000"
 2179      52564544 
 2179      313100
 2180              	.LASF103:
 2181 011b 52455345 		.ascii	"RESERVED12\000"
 2181      52564544 
 2181      313200
 2182              	.LASF113:
 2183 0126 52455345 		.ascii	"RESERVED13\000"
 2183      52564544 
 2183      313300
 2184              	.LASF49:
 2185 0131 41574432 		.ascii	"AWD2CR\000"
 2185      435200
 2186              	.LASF70:
 2187 0138 504C4C31 		.ascii	"PLL1FRACR\000"
 2187      46524143 
 2187      5200
 2188              	.LASF90:
 2189 0142 41504232 		.ascii	"APB2RSTR\000"
 2189      52535452 
 2189      00
 2190              	.LASF132:
 2191 014b 6472765F 		.ascii	"drv_display_draw_text\000"
 2191      64697370 
 2191      6C61795F 
 2191      64726177 
 2191      5F746578 
 2192              	.LASF20:
 2193 0161 73797369 		.ascii	"sysinterval_t\000"
 2193      6E746572 
 2193      76616C5F 
 2193      7400
 2194              	.LASF16:
 2195 016f 75696E74 		.ascii	"uint16_t\000"
 2195      31365F74 
 2195      00
 2196              	.LASF60:
 2197 0178 4144435F 		.ascii	"ADC_TypeDef\000"
ARM GAS  C:\Users\DEVELO~1\AppData\Local\Temp\ccVijX1J.s 			page 41


 2197      54797065 
 2197      44656600 
 2198              	.LASF58:
 2199 0184 43414C46 		.ascii	"CALFACT\000"
 2199      41435400 
 2200              	.LASF28:
 2201 018c 48545231 		.ascii	"HTR1\000"
 2201      00
 2202              	.LASF54:
 2203 0191 48545232 		.ascii	"HTR2\000"
 2203      00
 2204              	.LASF56:
 2205 0196 48545233 		.ascii	"HTR3\000"
 2205      00
 2206              	.LASF144:
 2207 019b 6D61696E 		.ascii	"main\000"
 2207      00
 2208              	.LASF68:
 2209 01a0 504C4C43 		.ascii	"PLLCFGR\000"
 2209      46475200 
 2210              	.LASF62:
 2211 01a8 43525243 		.ascii	"CRRCR\000"
 2211      5200
 2212              	.LASF80:
 2213 01ae 43494652 		.ascii	"CIFR\000"
 2213      00
 2214              	.LASF73:
 2215 01b3 504C4C33 		.ascii	"PLL3DIVR\000"
 2215      44495652 
 2215      00
 2216              	.LASF135:
 2217 01bc 6C696E65 		.ascii	"line2\000"
 2217      3200
 2218              	.LASF119:
 2219 01c2 4F535045 		.ascii	"OSPEEDR\000"
 2219      45445200 
 2220              	.LASF11:
 2221 01ca 5F5F7569 		.ascii	"__uint32_t\000"
 2221      6E743332 
 2221      5F7400
 2222              	.LASF76:
 2223 01d5 44324343 		.ascii	"D2CCIP1R\000"
 2223      49503152 
 2223      00
 2224              	.LASF78:
 2225 01de 44334343 		.ascii	"D3CCIPR\000"
 2225      49505200 
 2226              	.LASF125:
 2227 01e6 73746D33 		.ascii	"stm32_gpio_t\000"
 2227      325F6770 
 2227      696F5F74 
 2227      00
 2228              	.LASF137:
 2229 01f3 76616C75 		.ascii	"value\000"
 2229      6500
 2230              	.LASF72:
 2231 01f9 504C4C32 		.ascii	"PLL2FRACR\000"
ARM GAS  C:\Users\DEVELO~1\AppData\Local\Temp\ccVijX1J.s 			page 42


 2231      46524143 
 2231      5200
 2232              	.LASF0:
 2233 0203 756E7369 		.ascii	"unsigned int\000"
 2233      676E6564 
 2233      20696E74 
 2233      00
 2234              	.LASF145:
 2235 0210 61646331 		.ascii	"adc1_read_polling\000"
 2235      5F726561 
 2235      645F706F 
 2235      6C6C696E 
 2235      6700
 2236              	.LASF12:
 2237 0222 6C6F6E67 		.ascii	"long unsigned int\000"
 2237      20756E73 
 2237      69676E65 
 2237      6420696E 
 2237      7400
 2238              	.LASF131:
 2239 0234 68616C49 		.ascii	"halInit\000"
 2239      6E697400 
 2240              	.LASF114:
 2241 023c 5243435F 		.ascii	"RCC_TypeDef\000"
 2241      54797065 
 2241      44656600 
 2242              	.LASF21:
 2243 0248 74696D65 		.ascii	"time_conv_t\000"
 2243      5F636F6E 
 2243      765F7400 
 2244              	.LASF9:
 2245 0254 73686F72 		.ascii	"short unsigned int\000"
 2245      7420756E 
 2245      7369676E 
 2245      65642069 
 2245      6E7400
 2246              	.LASF67:
 2247 0267 504C4C43 		.ascii	"PLLCKSELR\000"
 2247      4B53454C 
 2247      5200
 2248              	.LASF61:
 2249 0271 48534943 		.ascii	"HSICFGR\000"
 2249      46475200 
 2250              	.LASF140:
 2251 0279 474E5520 		.ascii	"GNU C17 11.3.1 20220712 -mcpu=cortex-m7 -mthumb -mf"
 2251      43313720 
 2251      31312E33 
 2251      2E312032 
 2251      30323230 
 2252 02ac 6C6F6174 		.ascii	"loat-abi=soft -march=armv7e-m -ggdb -O0 -ffunction-"
 2252      2D616269 
 2252      3D736F66 
 2252      74202D6D 
 2252      61726368 
 2253 02df 73656374 		.ascii	"sections -fdata-sections -fno-common\000"
 2253      696F6E73 
 2253      202D6664 
ARM GAS  C:\Users\DEVELO~1\AppData\Local\Temp\ccVijX1J.s 			page 43


 2253      6174612D 
 2253      73656374 
 2254              	.LASF83:
 2255 0304 41484233 		.ascii	"AHB3RSTR\000"
 2255      52535452 
 2255      00
 2256              	.LASF100:
 2257 030d 41504231 		.ascii	"APB1HENR\000"
 2257      48454E52 
 2257      00
 2258              	.LASF77:
 2259 0316 44324343 		.ascii	"D2CCIP2R\000"
 2259      49503252 
 2259      00
 2260              	.LASF122:
 2261 031f 4C4F434B 		.ascii	"LOCKR\000"
 2261      5200
 2262              	.LASF126:
 2263 0325 6472765F 		.ascii	"drv_display_update\000"
 2263      64697370 
 2263      6C61795F 
 2263      75706461 
 2263      746500
 2264              	.LASF111:
 2265 0338 41504232 		.ascii	"APB2LPENR\000"
 2265      4C50454E 
 2265      5200
 2266              	.LASF74:
 2267 0342 504C4C33 		.ascii	"PLL3FRACR\000"
 2267      46524143 
 2267      5200
 2268              	.LASF41:
 2269 034c 4F465233 		.ascii	"OFR3\000"
 2269      00
 2270              	.LASF42:
 2271 0351 4F465234 		.ascii	"OFR4\000"
 2271      00
 2272              	.LASF91:
 2273 0356 41504234 		.ascii	"APB4RSTR\000"
 2273      52535452 
 2273      00
 2274              	.LASF102:
 2275 035f 41504234 		.ascii	"APB4ENR\000"
 2275      454E5200 
 2276              	.LASF116:
 2277 0367 636C6561 		.ascii	"clear\000"
 2277      7200
 2278              	.LASF89:
 2279 036d 41504231 		.ascii	"APB1HRSTR\000"
 2279      48525354 
 2279      5200
 2280              	.LASF45:
 2281 0377 4A445232 		.ascii	"JDR2\000"
 2281      00
 2282              	.LASF106:
 2283 037c 41484232 		.ascii	"AHB2LPENR\000"
 2283      4C50454E 
ARM GAS  C:\Users\DEVELO~1\AppData\Local\Temp\ccVijX1J.s 			page 44


 2283      5200
 2284              	.LASF24:
 2285 0386 534D5052 		.ascii	"SMPR1\000"
 2285      3100
 2286              	.LASF25:
 2287 038c 534D5052 		.ascii	"SMPR2\000"
 2287      3200
 2288              	.LASF26:
 2289 0392 50435345 		.ascii	"PCSEL\000"
 2289      4C00
 2290              	.LASF31:
 2291 0398 53515231 		.ascii	"SQR1\000"
 2291      00
 2292              	.LASF32:
 2293 039d 53515232 		.ascii	"SQR2\000"
 2293      00
 2294              	.LASF33:
 2295 03a2 53515233 		.ascii	"SQR3\000"
 2295      00
 2296              	.LASF34:
 2297 03a7 53515234 		.ascii	"SQR4\000"
 2297      00
 2298              	.LASF13:
 2299 03ac 5F5F7569 		.ascii	"__uint64_t\000"
 2299      6E743634 
 2299      5F7400
 2300              	.LASF124:
 2301 03b7 41465248 		.ascii	"AFRH\000"
 2301      00
 2302              	.LASF98:
 2303 03bc 41504233 		.ascii	"APB3ENR\000"
 2303      454E5200 
 2304              	.LASF123:
 2305 03c4 4146524C 		.ascii	"AFRL\000"
 2305      00
 2306              	.LASF97:
 2307 03c9 41484234 		.ascii	"AHB4ENR\000"
 2307      454E5200 
 2308              	.LASF29:
 2309 03d1 52455345 		.ascii	"RESERVED1\000"
 2309      52564544 
 2309      3100
 2310              	.LASF30:
 2311 03db 52455345 		.ascii	"RESERVED2\000"
 2311      52564544 
 2311      3200
 2312              	.LASF35:
 2313 03e5 52455345 		.ascii	"RESERVED3\000"
 2313      52564544 
 2313      3300
 2314              	.LASF65:
 2315 03ef 44324346 		.ascii	"D2CFGR\000"
 2315      475200
 2316              	.LASF38:
 2317 03f6 52455345 		.ascii	"RESERVED5\000"
 2317      52564544 
 2317      3500
ARM GAS  C:\Users\DEVELO~1\AppData\Local\Temp\ccVijX1J.s 			page 45


 2318              	.LASF43:
 2319 0400 52455345 		.ascii	"RESERVED6\000"
 2319      52564544 
 2319      3600
 2320              	.LASF48:
 2321 040a 52455345 		.ascii	"RESERVED7\000"
 2321      52564544 
 2321      3700
 2322              	.LASF51:
 2323 0414 52455345 		.ascii	"RESERVED8\000"
 2323      52564544 
 2323      3800
 2324              	.LASF52:
 2325 041e 52455345 		.ascii	"RESERVED9\000"
 2325      52564544 
 2325      3900
 2326              	.LASF115:
 2327 0428 5F426F6F 		.ascii	"_Bool\000"
 2327      6C00
 2328              	.LASF138:
 2329 042e 61646331 		.ascii	"adc1_init\000"
 2329      5F696E69 
 2329      7400
 2330              	.LASF6:
 2331 0438 756E7369 		.ascii	"unsigned char\000"
 2331      676E6564 
 2331      20636861 
 2331      7200
 2332              	.LASF7:
 2333 0446 73686F72 		.ascii	"short int\000"
 2333      7420696E 
 2333      7400
 2334              	.LASF136:
 2335 0450 636F756E 		.ascii	"counter\000"
 2335      74657200 
 2336              	.LASF104:
 2337 0458 41484233 		.ascii	"AHB3LPENR\000"
 2337      4C50454E 
 2337      5200
 2338              	.LASF112:
 2339 0462 41504234 		.ascii	"APB4LPENR\000"
 2339      4C50454E 
 2339      5200
 2340              	.LASF101:
 2341 046c 41504232 		.ascii	"APB2ENR\000"
 2341      454E5200 
 2342              	.LASF71:
 2343 0474 504C4C32 		.ascii	"PLL2DIVR\000"
 2343      44495652 
 2343      00
 2344              	.LASF94:
 2345 047d 41484233 		.ascii	"AHB3ENR\000"
 2345      454E5200 
 2346              	.LASF141:
 2347 0485 6D61696E 		.ascii	"main.c\000"
 2347      2E6300
 2348              	.LASF36:
ARM GAS  C:\Users\DEVELO~1\AppData\Local\Temp\ccVijX1J.s 			page 46


 2349 048c 52455345 		.ascii	"RESERVED4\000"
 2349      52564544 
 2349      3400
 2350              	.LASF17:
 2351 0496 75696E74 		.ascii	"uint32_t\000"
 2351      33325F74 
 2351      00
 2352              	.LASF75:
 2353 049f 44314343 		.ascii	"D1CCIPR\000"
 2353      49505200 
 2354              	.LASF2:
 2355 04a7 6C6F6E67 		.ascii	"long double\000"
 2355      20646F75 
 2355      626C6500 
 2356              	.LASF19:
 2357 04b3 63686172 		.ascii	"char\000"
 2357      00
 2358              	.LASF8:
 2359 04b8 5F5F7569 		.ascii	"__uint16_t\000"
 2359      6E743136 
 2359      5F7400
 2360              	.LASF85:
 2361 04c3 41484232 		.ascii	"AHB2RSTR\000"
 2361      52535452 
 2361      00
 2362              	.LASF107:
 2363 04cc 41484234 		.ascii	"AHB4LPENR\000"
 2363      4C50454E 
 2363      5200
 2364              	.LASF27:
 2365 04d6 4C545231 		.ascii	"LTR1\000"
 2365      00
 2366              	.LASF53:
 2367 04db 4C545232 		.ascii	"LTR2\000"
 2367      00
 2368              	.LASF55:
 2369 04e0 4C545233 		.ascii	"LTR3\000"
 2369      00
 2370              	.LASF88:
 2371 04e5 41504231 		.ascii	"APB1LRSTR\000"
 2371      4C525354 
 2371      5200
 2372              	.LASF96:
 2373 04ef 41484232 		.ascii	"AHB2ENR\000"
 2373      454E5200 
 2374              	.LASF87:
 2375 04f7 41504233 		.ascii	"APB3RSTR\000"
 2375      52535452 
 2375      00
 2376              	.LASF63:
 2377 0500 43534943 		.ascii	"CSICFGR\000"
 2377      46475200 
 2378              	.LASF143:
 2379 0508 736E7072 		.ascii	"snprintf\000"
 2379      696E7466 
 2379      00
 2380              	.LASF109:
ARM GAS  C:\Users\DEVELO~1\AppData\Local\Temp\ccVijX1J.s 			page 47


 2381 0511 41504231 		.ascii	"APB1LLPENR\000"
 2381      4C4C5045 
 2381      4E5200
 2382              	.LASF81:
 2383 051c 43494352 		.ascii	"CICR\000"
 2383      00
 2384              	.LASF82:
 2385 0521 42444352 		.ascii	"BDCR\000"
 2385      00
 2386              	.LASF23:
 2387 0526 43464752 		.ascii	"CFGR2\000"
 2387      3200
 2388              	.LASF15:
 2389 052c 75696E74 		.ascii	"uint8_t\000"
 2389      385F7400 
 2390              	.LASF44:
 2391 0534 4A445231 		.ascii	"JDR1\000"
 2391      00
 2392              	.LASF46:
 2393 0539 4A445233 		.ascii	"JDR3\000"
 2393      00
 2394              	.LASF47:
 2395 053e 4A445234 		.ascii	"JDR4\000"
 2395      00
 2396              	.LASF95:
 2397 0543 41484231 		.ascii	"AHB1ENR\000"
 2397      454E5200 
 2398              	.LASF22:
 2399 054b 43464752 		.ascii	"CFGR\000"
 2399      00
 2400              	.LASF59:
 2401 0550 43414C46 		.ascii	"CALFACT2\000"
 2401      41435432 
 2401      00
 2402              	.LASF99:
 2403 0559 41504231 		.ascii	"APB1LENR\000"
 2403      4C454E52 
 2403      00
 2404              	.LASF142:
 2405 0562 433A5C50 		.ascii	"C:\\PROJET\\ChibiOS project\\ChibiOS_21.11.4\\demos"
 2405      524F4A45 
 2405      545C4368 
 2405      6962694F 
 2405      53207072 
 2406 0591 5C53544D 		.ascii	"\\STM32\\RT-STM32H743ZI_REV_XY-NUCLEO144_Quartz8M\000"
 2406      33325C52 
 2406      542D5354 
 2406      4D333248 
 2406      3734335A 
 2407              	.LASF127:
 2408 05c1 6472765F 		.ascii	"drv_display_clear\000"
 2408      64697370 
 2408      6C61795F 
 2408      636C6561 
 2408      7200
 2409              	.LASF64:
 2410 05d3 44314346 		.ascii	"D1CFGR\000"
ARM GAS  C:\Users\DEVELO~1\AppData\Local\Temp\ccVijX1J.s 			page 48


 2410      475200
 2411              	.LASF129:
 2412 05da 64726976 		.ascii	"drivers_init_all\000"
 2412      6572735F 
 2412      696E6974 
 2412      5F616C6C 
 2412      00
 2413              		.ident	"GCC: (Arm GNU Toolchain 11.3.Rel1) 11.3.1 20220712"
ARM GAS  C:\Users\DEVELO~1\AppData\Local\Temp\ccVijX1J.s 			page 49


DEFINED SYMBOLS
                            *ABS*:00000000 main.c
C:\Users\DEVELO~1\AppData\Local\Temp\ccVijX1J.s:18     .text.adc1_gpio_init:00000000 $t
C:\Users\DEVELO~1\AppData\Local\Temp\ccVijX1J.s:23     .text.adc1_gpio_init:00000000 adc1_gpio_init
C:\Users\DEVELO~1\AppData\Local\Temp\ccVijX1J.s:76     .text.adc1_gpio_init:00000048 $d
C:\Users\DEVELO~1\AppData\Local\Temp\ccVijX1J.s:82     .text.adc1_init:00000000 $t
C:\Users\DEVELO~1\AppData\Local\Temp\ccVijX1J.s:87     .text.adc1_init:00000000 adc1_init
C:\Users\DEVELO~1\AppData\Local\Temp\ccVijX1J.s:246    .text.adc1_init:00000104 $d
C:\Users\DEVELO~1\AppData\Local\Temp\ccVijX1J.s:253    .text.adc1_read_polling:00000000 $t
C:\Users\DEVELO~1\AppData\Local\Temp\ccVijX1J.s:258    .text.adc1_read_polling:00000000 adc1_read_polling
C:\Users\DEVELO~1\AppData\Local\Temp\ccVijX1J.s:313    .text.adc1_read_polling:00000038 $d
C:\Users\DEVELO~1\AppData\Local\Temp\ccVijX1J.s:318    .rodata:00000000 $d
C:\Users\DEVELO~1\AppData\Local\Temp\ccVijX1J.s:328    .text.main:00000000 $t
C:\Users\DEVELO~1\AppData\Local\Temp\ccVijX1J.s:334    .text.main:00000000 main
C:\Users\DEVELO~1\AppData\Local\Temp\ccVijX1J.s:415    .text.main:00000084 $d

UNDEFINED SYMBOLS
chThdSleep
halInit
chSysInit
drivers_init_all
drv_display_init
drv_display_clear
drv_display_draw_text
snprintf
drv_display_update
