ARM GAS  C:\Users\DEVELO~1\AppData\Local\Temp\cc9jHRRJ.s 			page 1


   1              		.cpu cortex-m7
   2              		.arch armv7e-m
   3              		.fpu softvfp
   4              		.eabi_attribute 20, 1
   5              		.eabi_attribute 21, 1
   6              		.eabi_attribute 23, 3
   7              		.eabi_attribute 24, 1
   8              		.eabi_attribute 25, 1
   9              		.eabi_attribute 26, 1
  10              		.eabi_attribute 30, 6
  11              		.eabi_attribute 34, 1
  12              		.eabi_attribute 18, 4
  13              		.file	"main.c"
  14              		.text
  15              	.Ltext0:
  16              		.cfi_sections	.debug_frame
  17              		.section	.rodata
  18              		.align	2
  19              	.LC0:
  20 0000 4944434F 		.ascii	"IDCODE:\000"
  20      44453A00 
  21              		.align	2
  22              	.LC1:
  23 0008 30782530 		.ascii	"0x%08lX\000"
  23      386C5800 
  24              		.section	.text.main,"ax",%progbits
  25              		.align	1
  26              		.global	main
  27              		.syntax unified
  28              		.thumb
  29              		.thumb_func
  30              		.type	main, %function
  31              	main:
  32              	.LFB435:
  33              		.file 1 "main.c"
  34              		.loc 1 6 16
  35              		.cfi_startproc
  36              		@ args = 0, pretend = 0, frame = 40
  37              		@ frame_needed = 1, uses_anonymous_args = 0
  38 0000 80B5     		push	{r7, lr}
  39              		.cfi_def_cfa_offset 8
  40              		.cfi_offset 7, -8
  41              		.cfi_offset 14, -4
  42 0002 8AB0     		sub	sp, sp, #40
  43              		.cfi_def_cfa_offset 48
  44 0004 00AF     		add	r7, sp, #0
  45              		.cfi_def_cfa_register 7
  46              		.loc 1 8 3
  47 0006 FFF7FEFF 		bl	halInit
  48              		.loc 1 9 3
  49 000a FFF7FEFF 		bl	chSysInit
  50              		.loc 1 10 3
  51 000e FFF7FEFF 		bl	drivers_init_all
  52              		.loc 1 12 27
  53 0012 114B     		ldr	r3, .L3
  54              		.loc 1 12 12
  55 0014 1B68     		ldr	r3, [r3]
ARM GAS  C:\Users\DEVELO~1\AppData\Local\Temp\cc9jHRRJ.s 			page 2


  56 0016 7B62     		str	r3, [r7, #36]
  57              	.L2:
  58              	.LBB2:
  59              		.loc 1 17 5 discriminator 1
  60 0018 FFF7FEFF 		bl	drv_display_clear
  61              		.loc 1 19 5 discriminator 1
  62 001c 3B1D     		adds	r3, r7, #4
  63 001e 0F4A     		ldr	r2, .L3+4
  64 0020 2021     		movs	r1, #32
  65 0022 1846     		mov	r0, r3
  66 0024 FFF7FEFF 		bl	snprintf
  67              		.loc 1 20 5 discriminator 1
  68 0028 3B1D     		adds	r3, r7, #4
  69 002a 1A46     		mov	r2, r3
  70 002c 0021     		movs	r1, #0
  71 002e 0020     		movs	r0, #0
  72 0030 FFF7FEFF 		bl	drv_display_draw_text
  73              		.loc 1 22 5 discriminator 1
  74 0034 381D     		adds	r0, r7, #4
  75 0036 7B6A     		ldr	r3, [r7, #36]
  76 0038 094A     		ldr	r2, .L3+8
  77 003a 2021     		movs	r1, #32
  78 003c FFF7FEFF 		bl	snprintf
  79              		.loc 1 23 5 discriminator 1
  80 0040 3B1D     		adds	r3, r7, #4
  81 0042 1A46     		mov	r2, r3
  82 0044 1021     		movs	r1, #16
  83 0046 0020     		movs	r0, #0
  84 0048 FFF7FEFF 		bl	drv_display_draw_text
  85              		.loc 1 25 5 discriminator 1
  86 004c 42F21070 		movw	r0, #10000
  87 0050 FFF7FEFF 		bl	chThdSleep
  88              	.LBE2:
  89              		.loc 1 14 16 discriminator 1
  90 0054 E0E7     		b	.L2
  91              	.L4:
  92 0056 00BF     		.align	2
  93              	.L3:
  94 0058 0010005C 		.word	1543507968
  95 005c 00000000 		.word	.LC0
  96 0060 08000000 		.word	.LC1
  97              		.cfi_endproc
  98              	.LFE435:
  99              		.size	main, .-main
 100              		.text
 101              	.Letext0:
 102              		.file 2 "c:\\chibistudio\\tools\\gnu tools arm embedded\\11.3 2022.08\\lib\\gcc\\arm-none-eabi\\11
 103              		.file 3 "c:\\chibistudio\\tools\\gnu tools arm embedded\\11.3 2022.08\\arm-none-eabi\\include\\mac
 104              		.file 4 "c:\\chibistudio\\tools\\gnu tools arm embedded\\11.3 2022.08\\arm-none-eabi\\include\\sys
 105              		.file 5 "../../../os/rt/include/chtime.h"
 106              		.file 6 "../../../os/common/ext/ST/STM32H7xx/stm32h743xx.h"
 107              		.file 7 "../../../os/rt/include/chthreads.h"
 108              		.file 8 "drivers/drv_display.h"
 109              		.file 9 "drivers/drivers.h"
 110              		.file 10 "../../../os/rt/include/chsys.h"
 111              		.file 11 "../../../os/hal/include/hal.h"
 112              		.file 12 "c:\\chibistudio\\tools\\gnu tools arm embedded\\11.3 2022.08\\arm-none-eabi\\include\\st
ARM GAS  C:\Users\DEVELO~1\AppData\Local\Temp\cc9jHRRJ.s 			page 3


 113              		.section	.debug_info,"",%progbits
 114              	.Ldebug_info0:
 115 0000 7E020000 		.4byte	0x27e
 116 0004 0500     		.2byte	0x5
 117 0006 01       		.byte	0x1
 118 0007 04       		.byte	0x4
 119 0008 00000000 		.4byte	.Ldebug_abbrev0
 120 000c 0A       		.uleb128 0xa
 121 000d 6E010000 		.4byte	.LASF41
 122 0011 1D       		.byte	0x1d
 123 0012 C2020000 		.4byte	.LASF42
 124 0016 04010000 		.4byte	.LASF43
 125 001a 0C000000 		.4byte	.LLRL0
 126 001e 00000000 		.4byte	0
 127 0022 00000000 		.4byte	.Ldebug_line0
 128 0026 0B       		.uleb128 0xb
 129 0027 04       		.byte	0x4
 130 0028 05       		.byte	0x5
 131 0029 696E7400 		.ascii	"int\000"
 132 002d 03       		.uleb128 0x3
 133 002e 0A000000 		.4byte	.LASF4
 134 0032 02       		.byte	0x2
 135 0033 D1       		.byte	0xd1
 136 0034 17       		.byte	0x17
 137 0035 39000000 		.4byte	0x39
 138 0039 01       		.uleb128 0x1
 139 003a 04       		.byte	0x4
 140 003b 07       		.byte	0x7
 141 003c 3C000000 		.4byte	.LASF0
 142 0040 01       		.uleb128 0x1
 143 0041 08       		.byte	0x8
 144 0042 05       		.byte	0x5
 145 0043 46020000 		.4byte	.LASF1
 146 0047 01       		.uleb128 0x1
 147 0048 08       		.byte	0x8
 148 0049 04       		.byte	0x4
 149 004a A4020000 		.4byte	.LASF2
 150 004e 01       		.uleb128 0x1
 151 004f 01       		.byte	0x1
 152 0050 06       		.byte	0x6
 153 0051 B0020000 		.4byte	.LASF3
 154 0055 03       		.uleb128 0x3
 155 0056 00000000 		.4byte	.LASF5
 156 005a 03       		.byte	0x3
 157 005b 2B       		.byte	0x2b
 158 005c 18       		.byte	0x18
 159 005d 61000000 		.4byte	0x61
 160 0061 01       		.uleb128 0x1
 161 0062 01       		.byte	0x1
 162 0063 08       		.byte	0x8
 163 0064 AB000000 		.4byte	.LASF6
 164 0068 01       		.uleb128 0x1
 165 0069 02       		.byte	0x2
 166 006a 05       		.byte	0x5
 167 006b 6C020000 		.4byte	.LASF7
 168 006f 01       		.uleb128 0x1
 169 0070 02       		.byte	0x2
ARM GAS  C:\Users\DEVELO~1\AppData\Local\Temp\cc9jHRRJ.s 			page 4


 170 0071 07       		.byte	0x7
 171 0072 E8000000 		.4byte	.LASF8
 172 0076 01       		.uleb128 0x1
 173 0077 04       		.byte	0x4
 174 0078 05       		.byte	0x5
 175 0079 9B020000 		.4byte	.LASF9
 176 007d 03       		.uleb128 0x3
 177 007e 63010000 		.4byte	.LASF10
 178 0082 03       		.byte	0x3
 179 0083 4F       		.byte	0x4f
 180 0084 19       		.byte	0x19
 181 0085 89000000 		.4byte	0x89
 182 0089 01       		.uleb128 0x1
 183 008a 04       		.byte	0x4
 184 008b 07       		.byte	0x7
 185 008c D6000000 		.4byte	.LASF11
 186 0090 03       		.uleb128 0x3
 187 0091 80020000 		.4byte	.LASF12
 188 0095 03       		.byte	0x3
 189 0096 69       		.byte	0x69
 190 0097 19       		.byte	0x19
 191 0098 9C000000 		.4byte	0x9c
 192 009c 01       		.uleb128 0x1
 193 009d 08       		.byte	0x8
 194 009e 07       		.byte	0x7
 195 009f 94000000 		.4byte	.LASF13
 196 00a3 03       		.uleb128 0x3
 197 00a4 23020000 		.4byte	.LASF14
 198 00a8 04       		.byte	0x4
 199 00a9 18       		.byte	0x18
 200 00aa 13       		.byte	0x13
 201 00ab 55000000 		.4byte	0x55
 202 00af 03       		.uleb128 0x3
 203 00b0 92020000 		.4byte	.LASF15
 204 00b4 04       		.byte	0x4
 205 00b5 30       		.byte	0x30
 206 00b6 14       		.byte	0x14
 207 00b7 7D000000 		.4byte	0x7d
 208 00bb 0C       		.uleb128 0xc
 209 00bc AF000000 		.4byte	0xaf
 210 00c0 03       		.uleb128 0x3
 211 00c1 49000000 		.4byte	.LASF16
 212 00c5 04       		.byte	0x4
 213 00c6 3C       		.byte	0x3c
 214 00c7 14       		.byte	0x14
 215 00c8 90000000 		.4byte	0x90
 216 00cc 05       		.uleb128 0x5
 217 00cd D8000000 		.4byte	0xd8
 218 00d1 01       		.uleb128 0x1
 219 00d2 01       		.byte	0x1
 220 00d3 08       		.byte	0x8
 221 00d4 1E020000 		.4byte	.LASF17
 222 00d8 0D       		.uleb128 0xd
 223 00d9 D1000000 		.4byte	0xd1
 224 00dd 03       		.uleb128 0x3
 225 00de 11000000 		.4byte	.LASF18
 226 00e2 05       		.byte	0x5
ARM GAS  C:\Users\DEVELO~1\AppData\Local\Temp\cc9jHRRJ.s 			page 5


 227 00e3 79       		.byte	0x79
 228 00e4 12       		.byte	0x12
 229 00e5 AF000000 		.4byte	0xaf
 230 00e9 03       		.uleb128 0x3
 231 00ea 30000000 		.4byte	.LASF19
 232 00ee 05       		.byte	0x5
 233 00ef 9B       		.byte	0x9b
 234 00f0 12       		.byte	0x12
 235 00f1 C0000000 		.4byte	0xc0
 236 00f5 0E       		.uleb128 0xe
 237 00f6 58       		.byte	0x58
 238 00f7 06       		.byte	0x6
 239 00f8 0A02     		.2byte	0x20a
 240 00fa 09       		.byte	0x9
 241 00fb 9C010000 		.4byte	0x19c
 242 00ff 02       		.uleb128 0x2
 243 0100 8B020000 		.4byte	.LASF20
 244 0104 0C02     		.2byte	0x20c
 245 0106 11       		.byte	0x11
 246 0107 BB000000 		.4byte	0xbb
 247 010b 00       		.byte	0
 248 010c 0F       		.uleb128 0xf
 249 010d 435200   		.ascii	"CR\000"
 250 0110 06       		.byte	0x6
 251 0111 0D02     		.2byte	0x20d
 252 0113 11       		.byte	0x11
 253 0114 BB000000 		.4byte	0xbb
 254 0118 04       		.byte	0x4
 255 0119 02       		.uleb128 0x2
 256 011a 52000000 		.4byte	.LASF21
 257 011e 0E02     		.2byte	0x20e
 258 0120 0C       		.byte	0xc
 259 0121 9C010000 		.4byte	0x19c
 260 0125 08       		.byte	0x8
 261 0126 02       		.uleb128 0x2
 262 0127 CE000000 		.4byte	.LASF22
 263 012b 0F02     		.2byte	0x20f
 264 012d 11       		.byte	0x11
 265 012e BB000000 		.4byte	0xbb
 266 0132 34       		.byte	0x34
 267 0133 02       		.uleb128 0x2
 268 0134 5C000000 		.4byte	.LASF23
 269 0138 1002     		.2byte	0x210
 270 013a 0C       		.byte	0xc
 271 013b AF000000 		.4byte	0xaf
 272 013f 38       		.byte	0x38
 273 0140 02       		.uleb128 0x2
 274 0141 FB000000 		.4byte	.LASF24
 275 0145 1102     		.2byte	0x211
 276 0147 11       		.byte	0x11
 277 0148 BB000000 		.4byte	0xbb
 278 014c 3C       		.byte	0x3c
 279 014d 02       		.uleb128 0x2
 280 014e 76020000 		.4byte	.LASF25
 281 0152 1202     		.2byte	0x212
 282 0154 0C       		.byte	0xc
 283 0155 AF000000 		.4byte	0xaf
ARM GAS  C:\Users\DEVELO~1\AppData\Local\Temp\cc9jHRRJ.s 			page 6


 284 0159 40       		.byte	0x40
 285 015a 02       		.uleb128 0x2
 286 015b 15020000 		.4byte	.LASF26
 287 015f 1302     		.2byte	0x213
 288 0161 11       		.byte	0x11
 289 0162 BB000000 		.4byte	0xbb
 290 0166 44       		.byte	0x44
 291 0167 02       		.uleb128 0x2
 292 0168 78000000 		.4byte	.LASF27
 293 016c 1402     		.2byte	0x214
 294 016e 0C       		.byte	0xc
 295 016f AF000000 		.4byte	0xaf
 296 0173 48       		.byte	0x48
 297 0174 02       		.uleb128 0x2
 298 0175 1F000000 		.4byte	.LASF28
 299 0179 1502     		.2byte	0x215
 300 017b 11       		.byte	0x11
 301 017c BB000000 		.4byte	0xbb
 302 0180 4C       		.byte	0x4c
 303 0181 02       		.uleb128 0x2
 304 0182 82000000 		.4byte	.LASF29
 305 0186 1602     		.2byte	0x216
 306 0188 0C       		.byte	0xc
 307 0189 AF000000 		.4byte	0xaf
 308 018d 50       		.byte	0x50
 309 018e 02       		.uleb128 0x2
 310 018f 0D020000 		.4byte	.LASF30
 311 0193 1702     		.2byte	0x217
 312 0195 11       		.byte	0x11
 313 0196 BB000000 		.4byte	0xbb
 314 019a 54       		.byte	0x54
 315 019b 00       		.byte	0
 316 019c 10       		.uleb128 0x10
 317 019d AF000000 		.4byte	0xaf
 318 01a1 AC010000 		.4byte	0x1ac
 319 01a5 06       		.uleb128 0x6
 320 01a6 39000000 		.4byte	0x39
 321 01aa 0A       		.byte	0xa
 322 01ab 00       		.byte	0
 323 01ac 11       		.uleb128 0x11
 324 01ad F9010000 		.4byte	.LASF31
 325 01b1 06       		.byte	0x6
 326 01b2 1802     		.2byte	0x218
 327 01b4 02       		.byte	0x2
 328 01b5 F5000000 		.4byte	0xf5
 329 01b9 01       		.uleb128 0x1
 330 01ba 01       		.byte	0x1
 331 01bb 02       		.byte	0x2
 332 01bc BC020000 		.4byte	.LASF32
 333 01c0 05       		.uleb128 0x5
 334 01c1 D1000000 		.4byte	0xd1
 335 01c5 12       		.uleb128 0x12
 336 01c6 B9000000 		.4byte	.LASF33
 337 01ca 07       		.byte	0x7
 338 01cb 4201     		.2byte	0x142
 339 01cd 08       		.byte	0x8
 340 01ce D8010000 		.4byte	0x1d8
ARM GAS  C:\Users\DEVELO~1\AppData\Local\Temp\cc9jHRRJ.s 			page 7


 341 01d2 04       		.uleb128 0x4
 342 01d3 DD000000 		.4byte	0xdd
 343 01d7 00       		.byte	0
 344 01d8 13       		.uleb128 0x13
 345 01d9 30020000 		.4byte	.LASF34
 346 01dd 08       		.byte	0x8
 347 01de 24       		.byte	0x24
 348 01df 06       		.byte	0x6
 349 01e0 F4010000 		.4byte	0x1f4
 350 01e4 04       		.uleb128 0x4
 351 01e5 A3000000 		.4byte	0xa3
 352 01e9 04       		.uleb128 0x4
 353 01ea A3000000 		.4byte	0xa3
 354 01ee 04       		.uleb128 0x4
 355 01ef CC000000 		.4byte	0xcc
 356 01f3 00       		.byte	0
 357 01f4 14       		.uleb128 0x14
 358 01f5 27000000 		.4byte	.LASF44
 359 01f9 0C       		.byte	0xc
 360 01fa 1401     		.2byte	0x114
 361 01fc 05       		.byte	0x5
 362 01fd 26000000 		.4byte	0x26
 363 0201 16020000 		.4byte	0x216
 364 0205 04       		.uleb128 0x4
 365 0206 C0010000 		.4byte	0x1c0
 366 020a 04       		.uleb128 0x4
 367 020b 2D000000 		.4byte	0x2d
 368 020f 04       		.uleb128 0x4
 369 0210 CC000000 		.4byte	0xcc
 370 0214 15       		.uleb128 0x15
 371 0215 00       		.byte	0
 372 0216 07       		.uleb128 0x7
 373 0217 66000000 		.4byte	.LASF35
 374 021b 08       		.byte	0x8
 375 021c 13       		.byte	0x13
 376 021d 07       		.uleb128 0x7
 377 021e 54020000 		.4byte	.LASF36
 378 0222 09       		.byte	0x9
 379 0223 28       		.byte	0x28
 380 0224 08       		.uleb128 0x8
 381 0225 C4000000 		.4byte	.LASF37
 382 0229 0A       		.byte	0xa
 383 022a 4E01     		.2byte	0x14e
 384 022c 08       		.uleb128 0x8
 385 022d 8C000000 		.4byte	.LASF38
 386 0231 0B       		.byte	0xb
 387 0232 0101     		.2byte	0x101
 388 0234 16       		.uleb128 0x16
 389 0235 08020000 		.4byte	.LASF45
 390 0239 01       		.byte	0x1
 391 023a 06       		.byte	0x6
 392 023b 05       		.byte	0x5
 393 023c 26000000 		.4byte	0x26
 394 0240 00000000 		.4byte	.LFB435
 395 0244 64000000 		.4byte	.LFE435-.LFB435
 396 0248 01       		.uleb128 0x1
 397 0249 9C       		.byte	0x9c
ARM GAS  C:\Users\DEVELO~1\AppData\Local\Temp\cc9jHRRJ.s 			page 8


 398 024a 75020000 		.4byte	0x275
 399 024e 09       		.uleb128 0x9
 400 024f 65020000 		.4byte	.LASF39
 401 0253 0C       		.byte	0xc
 402 0254 0C       		.byte	0xc
 403 0255 AF000000 		.4byte	0xaf
 404 0259 02       		.uleb128 0x2
 405 025a 91       		.byte	0x91
 406 025b 74       		.sleb128 -12
 407 025c 17       		.uleb128 0x17
 408 025d 18000000 		.4byte	.LBB2
 409 0261 3C000000 		.4byte	.LBE2-.LBB2
 410 0265 09       		.uleb128 0x9
 411 0266 2B020000 		.4byte	.LASF40
 412 026a 0F       		.byte	0xf
 413 026b 0A       		.byte	0xa
 414 026c 75020000 		.4byte	0x275
 415 0270 02       		.uleb128 0x2
 416 0271 91       		.byte	0x91
 417 0272 54       		.sleb128 -44
 418 0273 00       		.byte	0
 419 0274 00       		.byte	0
 420 0275 18       		.uleb128 0x18
 421 0276 D1000000 		.4byte	0xd1
 422 027a 06       		.uleb128 0x6
 423 027b 39000000 		.4byte	0x39
 424 027f 1F       		.byte	0x1f
 425 0280 00       		.byte	0
 426 0281 00       		.byte	0
 427              		.section	.debug_abbrev,"",%progbits
 428              	.Ldebug_abbrev0:
 429 0000 01       		.uleb128 0x1
 430 0001 24       		.uleb128 0x24
 431 0002 00       		.byte	0
 432 0003 0B       		.uleb128 0xb
 433 0004 0B       		.uleb128 0xb
 434 0005 3E       		.uleb128 0x3e
 435 0006 0B       		.uleb128 0xb
 436 0007 03       		.uleb128 0x3
 437 0008 0E       		.uleb128 0xe
 438 0009 00       		.byte	0
 439 000a 00       		.byte	0
 440 000b 02       		.uleb128 0x2
 441 000c 0D       		.uleb128 0xd
 442 000d 00       		.byte	0
 443 000e 03       		.uleb128 0x3
 444 000f 0E       		.uleb128 0xe
 445 0010 3A       		.uleb128 0x3a
 446 0011 21       		.uleb128 0x21
 447 0012 06       		.sleb128 6
 448 0013 3B       		.uleb128 0x3b
 449 0014 05       		.uleb128 0x5
 450 0015 39       		.uleb128 0x39
 451 0016 0B       		.uleb128 0xb
 452 0017 49       		.uleb128 0x49
 453 0018 13       		.uleb128 0x13
 454 0019 38       		.uleb128 0x38
ARM GAS  C:\Users\DEVELO~1\AppData\Local\Temp\cc9jHRRJ.s 			page 9


 455 001a 0B       		.uleb128 0xb
 456 001b 00       		.byte	0
 457 001c 00       		.byte	0
 458 001d 03       		.uleb128 0x3
 459 001e 16       		.uleb128 0x16
 460 001f 00       		.byte	0
 461 0020 03       		.uleb128 0x3
 462 0021 0E       		.uleb128 0xe
 463 0022 3A       		.uleb128 0x3a
 464 0023 0B       		.uleb128 0xb
 465 0024 3B       		.uleb128 0x3b
 466 0025 0B       		.uleb128 0xb
 467 0026 39       		.uleb128 0x39
 468 0027 0B       		.uleb128 0xb
 469 0028 49       		.uleb128 0x49
 470 0029 13       		.uleb128 0x13
 471 002a 00       		.byte	0
 472 002b 00       		.byte	0
 473 002c 04       		.uleb128 0x4
 474 002d 05       		.uleb128 0x5
 475 002e 00       		.byte	0
 476 002f 49       		.uleb128 0x49
 477 0030 13       		.uleb128 0x13
 478 0031 00       		.byte	0
 479 0032 00       		.byte	0
 480 0033 05       		.uleb128 0x5
 481 0034 0F       		.uleb128 0xf
 482 0035 00       		.byte	0
 483 0036 0B       		.uleb128 0xb
 484 0037 21       		.uleb128 0x21
 485 0038 04       		.sleb128 4
 486 0039 49       		.uleb128 0x49
 487 003a 13       		.uleb128 0x13
 488 003b 00       		.byte	0
 489 003c 00       		.byte	0
 490 003d 06       		.uleb128 0x6
 491 003e 21       		.uleb128 0x21
 492 003f 00       		.byte	0
 493 0040 49       		.uleb128 0x49
 494 0041 13       		.uleb128 0x13
 495 0042 2F       		.uleb128 0x2f
 496 0043 0B       		.uleb128 0xb
 497 0044 00       		.byte	0
 498 0045 00       		.byte	0
 499 0046 07       		.uleb128 0x7
 500 0047 2E       		.uleb128 0x2e
 501 0048 00       		.byte	0
 502 0049 3F       		.uleb128 0x3f
 503 004a 19       		.uleb128 0x19
 504 004b 03       		.uleb128 0x3
 505 004c 0E       		.uleb128 0xe
 506 004d 3A       		.uleb128 0x3a
 507 004e 0B       		.uleb128 0xb
 508 004f 3B       		.uleb128 0x3b
 509 0050 0B       		.uleb128 0xb
 510 0051 39       		.uleb128 0x39
 511 0052 21       		.uleb128 0x21
ARM GAS  C:\Users\DEVELO~1\AppData\Local\Temp\cc9jHRRJ.s 			page 10


 512 0053 06       		.sleb128 6
 513 0054 27       		.uleb128 0x27
 514 0055 19       		.uleb128 0x19
 515 0056 3C       		.uleb128 0x3c
 516 0057 19       		.uleb128 0x19
 517 0058 00       		.byte	0
 518 0059 00       		.byte	0
 519 005a 08       		.uleb128 0x8
 520 005b 2E       		.uleb128 0x2e
 521 005c 00       		.byte	0
 522 005d 3F       		.uleb128 0x3f
 523 005e 19       		.uleb128 0x19
 524 005f 03       		.uleb128 0x3
 525 0060 0E       		.uleb128 0xe
 526 0061 3A       		.uleb128 0x3a
 527 0062 0B       		.uleb128 0xb
 528 0063 3B       		.uleb128 0x3b
 529 0064 05       		.uleb128 0x5
 530 0065 39       		.uleb128 0x39
 531 0066 21       		.uleb128 0x21
 532 0067 08       		.sleb128 8
 533 0068 27       		.uleb128 0x27
 534 0069 19       		.uleb128 0x19
 535 006a 3C       		.uleb128 0x3c
 536 006b 19       		.uleb128 0x19
 537 006c 00       		.byte	0
 538 006d 00       		.byte	0
 539 006e 09       		.uleb128 0x9
 540 006f 34       		.uleb128 0x34
 541 0070 00       		.byte	0
 542 0071 03       		.uleb128 0x3
 543 0072 0E       		.uleb128 0xe
 544 0073 3A       		.uleb128 0x3a
 545 0074 21       		.uleb128 0x21
 546 0075 01       		.sleb128 1
 547 0076 3B       		.uleb128 0x3b
 548 0077 0B       		.uleb128 0xb
 549 0078 39       		.uleb128 0x39
 550 0079 0B       		.uleb128 0xb
 551 007a 49       		.uleb128 0x49
 552 007b 13       		.uleb128 0x13
 553 007c 02       		.uleb128 0x2
 554 007d 18       		.uleb128 0x18
 555 007e 00       		.byte	0
 556 007f 00       		.byte	0
 557 0080 0A       		.uleb128 0xa
 558 0081 11       		.uleb128 0x11
 559 0082 01       		.byte	0x1
 560 0083 25       		.uleb128 0x25
 561 0084 0E       		.uleb128 0xe
 562 0085 13       		.uleb128 0x13
 563 0086 0B       		.uleb128 0xb
 564 0087 03       		.uleb128 0x3
 565 0088 0E       		.uleb128 0xe
 566 0089 1B       		.uleb128 0x1b
 567 008a 0E       		.uleb128 0xe
 568 008b 55       		.uleb128 0x55
ARM GAS  C:\Users\DEVELO~1\AppData\Local\Temp\cc9jHRRJ.s 			page 11


 569 008c 17       		.uleb128 0x17
 570 008d 11       		.uleb128 0x11
 571 008e 01       		.uleb128 0x1
 572 008f 10       		.uleb128 0x10
 573 0090 17       		.uleb128 0x17
 574 0091 00       		.byte	0
 575 0092 00       		.byte	0
 576 0093 0B       		.uleb128 0xb
 577 0094 24       		.uleb128 0x24
 578 0095 00       		.byte	0
 579 0096 0B       		.uleb128 0xb
 580 0097 0B       		.uleb128 0xb
 581 0098 3E       		.uleb128 0x3e
 582 0099 0B       		.uleb128 0xb
 583 009a 03       		.uleb128 0x3
 584 009b 08       		.uleb128 0x8
 585 009c 00       		.byte	0
 586 009d 00       		.byte	0
 587 009e 0C       		.uleb128 0xc
 588 009f 35       		.uleb128 0x35
 589 00a0 00       		.byte	0
 590 00a1 49       		.uleb128 0x49
 591 00a2 13       		.uleb128 0x13
 592 00a3 00       		.byte	0
 593 00a4 00       		.byte	0
 594 00a5 0D       		.uleb128 0xd
 595 00a6 26       		.uleb128 0x26
 596 00a7 00       		.byte	0
 597 00a8 49       		.uleb128 0x49
 598 00a9 13       		.uleb128 0x13
 599 00aa 00       		.byte	0
 600 00ab 00       		.byte	0
 601 00ac 0E       		.uleb128 0xe
 602 00ad 13       		.uleb128 0x13
 603 00ae 01       		.byte	0x1
 604 00af 0B       		.uleb128 0xb
 605 00b0 0B       		.uleb128 0xb
 606 00b1 3A       		.uleb128 0x3a
 607 00b2 0B       		.uleb128 0xb
 608 00b3 3B       		.uleb128 0x3b
 609 00b4 05       		.uleb128 0x5
 610 00b5 39       		.uleb128 0x39
 611 00b6 0B       		.uleb128 0xb
 612 00b7 01       		.uleb128 0x1
 613 00b8 13       		.uleb128 0x13
 614 00b9 00       		.byte	0
 615 00ba 00       		.byte	0
 616 00bb 0F       		.uleb128 0xf
 617 00bc 0D       		.uleb128 0xd
 618 00bd 00       		.byte	0
 619 00be 03       		.uleb128 0x3
 620 00bf 08       		.uleb128 0x8
 621 00c0 3A       		.uleb128 0x3a
 622 00c1 0B       		.uleb128 0xb
 623 00c2 3B       		.uleb128 0x3b
 624 00c3 05       		.uleb128 0x5
 625 00c4 39       		.uleb128 0x39
ARM GAS  C:\Users\DEVELO~1\AppData\Local\Temp\cc9jHRRJ.s 			page 12


 626 00c5 0B       		.uleb128 0xb
 627 00c6 49       		.uleb128 0x49
 628 00c7 13       		.uleb128 0x13
 629 00c8 38       		.uleb128 0x38
 630 00c9 0B       		.uleb128 0xb
 631 00ca 00       		.byte	0
 632 00cb 00       		.byte	0
 633 00cc 10       		.uleb128 0x10
 634 00cd 01       		.uleb128 0x1
 635 00ce 01       		.byte	0x1
 636 00cf 49       		.uleb128 0x49
 637 00d0 13       		.uleb128 0x13
 638 00d1 01       		.uleb128 0x1
 639 00d2 13       		.uleb128 0x13
 640 00d3 00       		.byte	0
 641 00d4 00       		.byte	0
 642 00d5 11       		.uleb128 0x11
 643 00d6 16       		.uleb128 0x16
 644 00d7 00       		.byte	0
 645 00d8 03       		.uleb128 0x3
 646 00d9 0E       		.uleb128 0xe
 647 00da 3A       		.uleb128 0x3a
 648 00db 0B       		.uleb128 0xb
 649 00dc 3B       		.uleb128 0x3b
 650 00dd 05       		.uleb128 0x5
 651 00de 39       		.uleb128 0x39
 652 00df 0B       		.uleb128 0xb
 653 00e0 49       		.uleb128 0x49
 654 00e1 13       		.uleb128 0x13
 655 00e2 00       		.byte	0
 656 00e3 00       		.byte	0
 657 00e4 12       		.uleb128 0x12
 658 00e5 2E       		.uleb128 0x2e
 659 00e6 01       		.byte	0x1
 660 00e7 3F       		.uleb128 0x3f
 661 00e8 19       		.uleb128 0x19
 662 00e9 03       		.uleb128 0x3
 663 00ea 0E       		.uleb128 0xe
 664 00eb 3A       		.uleb128 0x3a
 665 00ec 0B       		.uleb128 0xb
 666 00ed 3B       		.uleb128 0x3b
 667 00ee 05       		.uleb128 0x5
 668 00ef 39       		.uleb128 0x39
 669 00f0 0B       		.uleb128 0xb
 670 00f1 27       		.uleb128 0x27
 671 00f2 19       		.uleb128 0x19
 672 00f3 3C       		.uleb128 0x3c
 673 00f4 19       		.uleb128 0x19
 674 00f5 01       		.uleb128 0x1
 675 00f6 13       		.uleb128 0x13
 676 00f7 00       		.byte	0
 677 00f8 00       		.byte	0
 678 00f9 13       		.uleb128 0x13
 679 00fa 2E       		.uleb128 0x2e
 680 00fb 01       		.byte	0x1
 681 00fc 3F       		.uleb128 0x3f
 682 00fd 19       		.uleb128 0x19
ARM GAS  C:\Users\DEVELO~1\AppData\Local\Temp\cc9jHRRJ.s 			page 13


 683 00fe 03       		.uleb128 0x3
 684 00ff 0E       		.uleb128 0xe
 685 0100 3A       		.uleb128 0x3a
 686 0101 0B       		.uleb128 0xb
 687 0102 3B       		.uleb128 0x3b
 688 0103 0B       		.uleb128 0xb
 689 0104 39       		.uleb128 0x39
 690 0105 0B       		.uleb128 0xb
 691 0106 27       		.uleb128 0x27
 692 0107 19       		.uleb128 0x19
 693 0108 3C       		.uleb128 0x3c
 694 0109 19       		.uleb128 0x19
 695 010a 01       		.uleb128 0x1
 696 010b 13       		.uleb128 0x13
 697 010c 00       		.byte	0
 698 010d 00       		.byte	0
 699 010e 14       		.uleb128 0x14
 700 010f 2E       		.uleb128 0x2e
 701 0110 01       		.byte	0x1
 702 0111 3F       		.uleb128 0x3f
 703 0112 19       		.uleb128 0x19
 704 0113 03       		.uleb128 0x3
 705 0114 0E       		.uleb128 0xe
 706 0115 3A       		.uleb128 0x3a
 707 0116 0B       		.uleb128 0xb
 708 0117 3B       		.uleb128 0x3b
 709 0118 05       		.uleb128 0x5
 710 0119 39       		.uleb128 0x39
 711 011a 0B       		.uleb128 0xb
 712 011b 27       		.uleb128 0x27
 713 011c 19       		.uleb128 0x19
 714 011d 49       		.uleb128 0x49
 715 011e 13       		.uleb128 0x13
 716 011f 3C       		.uleb128 0x3c
 717 0120 19       		.uleb128 0x19
 718 0121 01       		.uleb128 0x1
 719 0122 13       		.uleb128 0x13
 720 0123 00       		.byte	0
 721 0124 00       		.byte	0
 722 0125 15       		.uleb128 0x15
 723 0126 18       		.uleb128 0x18
 724 0127 00       		.byte	0
 725 0128 00       		.byte	0
 726 0129 00       		.byte	0
 727 012a 16       		.uleb128 0x16
 728 012b 2E       		.uleb128 0x2e
 729 012c 01       		.byte	0x1
 730 012d 3F       		.uleb128 0x3f
 731 012e 19       		.uleb128 0x19
 732 012f 03       		.uleb128 0x3
 733 0130 0E       		.uleb128 0xe
 734 0131 3A       		.uleb128 0x3a
 735 0132 0B       		.uleb128 0xb
 736 0133 3B       		.uleb128 0x3b
 737 0134 0B       		.uleb128 0xb
 738 0135 39       		.uleb128 0x39
 739 0136 0B       		.uleb128 0xb
ARM GAS  C:\Users\DEVELO~1\AppData\Local\Temp\cc9jHRRJ.s 			page 14


 740 0137 27       		.uleb128 0x27
 741 0138 19       		.uleb128 0x19
 742 0139 49       		.uleb128 0x49
 743 013a 13       		.uleb128 0x13
 744 013b 11       		.uleb128 0x11
 745 013c 01       		.uleb128 0x1
 746 013d 12       		.uleb128 0x12
 747 013e 06       		.uleb128 0x6
 748 013f 40       		.uleb128 0x40
 749 0140 18       		.uleb128 0x18
 750 0141 7C       		.uleb128 0x7c
 751 0142 19       		.uleb128 0x19
 752 0143 01       		.uleb128 0x1
 753 0144 13       		.uleb128 0x13
 754 0145 00       		.byte	0
 755 0146 00       		.byte	0
 756 0147 17       		.uleb128 0x17
 757 0148 0B       		.uleb128 0xb
 758 0149 01       		.byte	0x1
 759 014a 11       		.uleb128 0x11
 760 014b 01       		.uleb128 0x1
 761 014c 12       		.uleb128 0x12
 762 014d 06       		.uleb128 0x6
 763 014e 00       		.byte	0
 764 014f 00       		.byte	0
 765 0150 18       		.uleb128 0x18
 766 0151 01       		.uleb128 0x1
 767 0152 01       		.byte	0x1
 768 0153 49       		.uleb128 0x49
 769 0154 13       		.uleb128 0x13
 770 0155 00       		.byte	0
 771 0156 00       		.byte	0
 772 0157 00       		.byte	0
 773              		.section	.debug_aranges,"",%progbits
 774 0000 1C000000 		.4byte	0x1c
 775 0004 0200     		.2byte	0x2
 776 0006 00000000 		.4byte	.Ldebug_info0
 777 000a 04       		.byte	0x4
 778 000b 00       		.byte	0
 779 000c 0000     		.2byte	0
 780 000e 0000     		.2byte	0
 781 0010 00000000 		.4byte	.LFB435
 782 0014 64000000 		.4byte	.LFE435-.LFB435
 783 0018 00000000 		.4byte	0
 784 001c 00000000 		.4byte	0
 785              		.section	.debug_rnglists,"",%progbits
 786              	.Ldebug_ranges0:
 787 0000 0F000000 		.4byte	.Ldebug_ranges3-.Ldebug_ranges2
 788              	.Ldebug_ranges2:
 789 0004 0500     		.2byte	0x5
 790 0006 04       		.byte	0x4
 791 0007 00       		.byte	0
 792 0008 00000000 		.4byte	0
 793              	.LLRL0:
 794 000c 07       		.byte	0x7
 795 000d 00000000 		.4byte	.LFB435
 796 0011 64       		.uleb128 .LFE435-.LFB435
ARM GAS  C:\Users\DEVELO~1\AppData\Local\Temp\cc9jHRRJ.s 			page 15


 797 0012 00       		.byte	0
 798              	.Ldebug_ranges3:
 799              		.section	.debug_line,"",%progbits
 800              	.Ldebug_line0:
 801 0000 AE020000 		.section	.debug_str,"MS",%progbits,1
 801      03006502 
 801      00000201 
 801      FB0E0D00 
 801      01010101 
 802              	.LASF5:
 803 0000 5F5F7569 		.ascii	"__uint8_t\000"
 803      6E74385F 
 803      7400
 804              	.LASF4:
 805 000a 73697A65 		.ascii	"size_t\000"
 805      5F7400
 806              	.LASF18:
 807 0011 73797369 		.ascii	"sysinterval_t\000"
 807      6E746572 
 807      76616C5F 
 807      7400
 808              	.LASF28:
 809 001f 41504232 		.ascii	"APB2FZ1\000"
 809      465A3100 
 810              	.LASF44:
 811 0027 736E7072 		.ascii	"snprintf\000"
 811      696E7466 
 811      00
 812              	.LASF19:
 813 0030 74696D65 		.ascii	"time_conv_t\000"
 813      5F636F6E 
 813      765F7400 
 814              	.LASF0:
 815 003c 756E7369 		.ascii	"unsigned int\000"
 815      676E6564 
 815      20696E74 
 815      00
 816              	.LASF16:
 817 0049 75696E74 		.ascii	"uint64_t\000"
 817      36345F74 
 817      00
 818              	.LASF21:
 819 0052 52455345 		.ascii	"RESERVED4\000"
 819      52564544 
 819      3400
 820              	.LASF23:
 821 005c 52455345 		.ascii	"RESERVED5\000"
 821      52564544 
 821      3500
 822              	.LASF35:
 823 0066 6472765F 		.ascii	"drv_display_clear\000"
 823      64697370 
 823      6C61795F 
 823      636C6561 
 823      7200
 824              	.LASF27:
 825 0078 52455345 		.ascii	"RESERVED7\000"
ARM GAS  C:\Users\DEVELO~1\AppData\Local\Temp\cc9jHRRJ.s 			page 16


 825      52564544 
 825      3700
 826              	.LASF29:
 827 0082 52455345 		.ascii	"RESERVED8\000"
 827      52564544 
 827      3800
 828              	.LASF38:
 829 008c 68616C49 		.ascii	"halInit\000"
 829      6E697400 
 830              	.LASF13:
 831 0094 6C6F6E67 		.ascii	"long long unsigned int\000"
 831      206C6F6E 
 831      6720756E 
 831      7369676E 
 831      65642069 
 832              	.LASF6:
 833 00ab 756E7369 		.ascii	"unsigned char\000"
 833      676E6564 
 833      20636861 
 833      7200
 834              	.LASF33:
 835 00b9 63685468 		.ascii	"chThdSleep\000"
 835      64536C65 
 835      657000
 836              	.LASF37:
 837 00c4 63685379 		.ascii	"chSysInit\000"
 837      73496E69 
 837      7400
 838              	.LASF22:
 839 00ce 41504233 		.ascii	"APB3FZ1\000"
 839      465A3100 
 840              	.LASF11:
 841 00d6 6C6F6E67 		.ascii	"long unsigned int\000"
 841      20756E73 
 841      69676E65 
 841      6420696E 
 841      7400
 842              	.LASF8:
 843 00e8 73686F72 		.ascii	"short unsigned int\000"
 843      7420756E 
 843      7369676E 
 843      65642069 
 843      6E7400
 844              	.LASF24:
 845 00fb 41504231 		.ascii	"APB1LFZ1\000"
 845      4C465A31 
 845      00
 846              	.LASF43:
 847 0104 433A5C50 		.ascii	"C:\\PROJET\\ChibiOS project\\ChibiOS_21.11.4\\demos"
 847      524F4A45 
 847      545C4368 
 847      6962694F 
 847      53207072 
 848 0133 5C53544D 		.ascii	"\\STM32\\RT-STM32H743ZI_REV_XY-NUCLEO144_Quartz8M\000"
 848      33325C52 
 848      542D5354 
 848      4D333248 
ARM GAS  C:\Users\DEVELO~1\AppData\Local\Temp\cc9jHRRJ.s 			page 17


 848      3734335A 
 849              	.LASF10:
 850 0163 5F5F7569 		.ascii	"__uint32_t\000"
 850      6E743332 
 850      5F7400
 851              	.LASF41:
 852 016e 474E5520 		.ascii	"GNU C17 11.3.1 20220712 -mcpu=cortex-m7 -mthumb -mf"
 852      43313720 
 852      31312E33 
 852      2E312032 
 852      30323230 
 853 01a1 6C6F6174 		.ascii	"loat-abi=soft -march=armv7e-m -ggdb -O0 -ffunction-"
 853      2D616269 
 853      3D736F66 
 853      74202D6D 
 853      61726368 
 854 01d4 73656374 		.ascii	"sections -fdata-sections -fno-common\000"
 854      696F6E73 
 854      202D6664 
 854      6174612D 
 854      73656374 
 855              	.LASF31:
 856 01f9 4442474D 		.ascii	"DBGMCU_TypeDef\000"
 856      43555F54 
 856      79706544 
 856      656600
 857              	.LASF45:
 858 0208 6D61696E 		.ascii	"main\000"
 858      00
 859              	.LASF30:
 860 020d 41504234 		.ascii	"APB4FZ1\000"
 860      465A3100 
 861              	.LASF26:
 862 0215 41504231 		.ascii	"APB1HFZ1\000"
 862      48465A31 
 862      00
 863              	.LASF17:
 864 021e 63686172 		.ascii	"char\000"
 864      00
 865              	.LASF14:
 866 0223 75696E74 		.ascii	"uint8_t\000"
 866      385F7400 
 867              	.LASF40:
 868 022b 6C696E65 		.ascii	"line\000"
 868      00
 869              	.LASF34:
 870 0230 6472765F 		.ascii	"drv_display_draw_text\000"
 870      64697370 
 870      6C61795F 
 870      64726177 
 870      5F746578 
 871              	.LASF1:
 872 0246 6C6F6E67 		.ascii	"long long int\000"
 872      206C6F6E 
 872      6720696E 
 872      7400
 873              	.LASF36:
ARM GAS  C:\Users\DEVELO~1\AppData\Local\Temp\cc9jHRRJ.s 			page 18


 874 0254 64726976 		.ascii	"drivers_init_all\000"
 874      6572735F 
 874      696E6974 
 874      5F616C6C 
 874      00
 875              	.LASF39:
 876 0265 6964636F 		.ascii	"idcode\000"
 876      646500
 877              	.LASF7:
 878 026c 73686F72 		.ascii	"short int\000"
 878      7420696E 
 878      7400
 879              	.LASF25:
 880 0276 52455345 		.ascii	"RESERVED6\000"
 880      52564544 
 880      3600
 881              	.LASF12:
 882 0280 5F5F7569 		.ascii	"__uint64_t\000"
 882      6E743634 
 882      5F7400
 883              	.LASF20:
 884 028b 4944434F 		.ascii	"IDCODE\000"
 884      444500
 885              	.LASF15:
 886 0292 75696E74 		.ascii	"uint32_t\000"
 886      33325F74 
 886      00
 887              	.LASF9:
 888 029b 6C6F6E67 		.ascii	"long int\000"
 888      20696E74 
 888      00
 889              	.LASF2:
 890 02a4 6C6F6E67 		.ascii	"long double\000"
 890      20646F75 
 890      626C6500 
 891              	.LASF3:
 892 02b0 7369676E 		.ascii	"signed char\000"
 892      65642063 
 892      68617200 
 893              	.LASF32:
 894 02bc 5F426F6F 		.ascii	"_Bool\000"
 894      6C00
 895              	.LASF42:
 896 02c2 6D61696E 		.ascii	"main.c\000"
 896      2E6300
 897              		.ident	"GCC: (Arm GNU Toolchain 11.3.Rel1) 11.3.1 20220712"
ARM GAS  C:\Users\DEVELO~1\AppData\Local\Temp\cc9jHRRJ.s 			page 19


DEFINED SYMBOLS
                            *ABS*:00000000 main.c
C:\Users\DEVELO~1\AppData\Local\Temp\cc9jHRRJ.s:18     .rodata:00000000 $d
C:\Users\DEVELO~1\AppData\Local\Temp\cc9jHRRJ.s:25     .text.main:00000000 $t
C:\Users\DEVELO~1\AppData\Local\Temp\cc9jHRRJ.s:31     .text.main:00000000 main
C:\Users\DEVELO~1\AppData\Local\Temp\cc9jHRRJ.s:94     .text.main:00000058 $d

UNDEFINED SYMBOLS
halInit
chSysInit
drivers_init_all
drv_display_clear
snprintf
drv_display_draw_text
chThdSleep
