ARM GAS  C:\Users\DEVELO~1\AppData\Local\Temp\ccyXj666.s 			page 1


   1              		.cpu cortex-m7
   2              		.arch armv7e-m
   3              		.fpu softvfp
   4              		.eabi_attribute 20, 1
   5              		.eabi_attribute 21, 1
   6              		.eabi_attribute 23, 3
   7              		.eabi_attribute 24, 1
   8              		.eabi_attribute 25, 1
   9              		.eabi_attribute 26, 1
  10              		.eabi_attribute 30, 6
  11              		.eabi_attribute 34, 1
  12              		.eabi_attribute 18, 4
  13              		.file	"memstreams.c"
  14              		.text
  15              	.Ltext0:
  16              		.cfi_sections	.debug_frame
  17              		.section	.text._writes,"ax",%progbits
  18              		.align	1
  19              		.syntax unified
  20              		.thumb
  21              		.thumb_func
  22              		.type	_writes, %function
  23              	_writes:
  24              	.LFB432:
  25              		.file 1 "../../../os/hal/lib/streams/memstreams.c"
  26              		.loc 1 47 62
  27              		.cfi_startproc
  28              		@ args = 0, pretend = 0, frame = 24
  29              		@ frame_needed = 1, uses_anonymous_args = 0
  30 0000 80B5     		push	{r7, lr}
  31              		.cfi_def_cfa_offset 8
  32              		.cfi_offset 7, -8
  33              		.cfi_offset 14, -4
  34 0002 86B0     		sub	sp, sp, #24
  35              		.cfi_def_cfa_offset 32
  36 0004 00AF     		add	r7, sp, #0
  37              		.cfi_def_cfa_register 7
  38 0006 F860     		str	r0, [r7, #12]
  39 0008 B960     		str	r1, [r7, #8]
  40 000a 7A60     		str	r2, [r7, #4]
  41              		.loc 1 48 17
  42 000c FB68     		ldr	r3, [r7, #12]
  43 000e 7B61     		str	r3, [r7, #20]
  44              		.loc 1 50 10
  45 0010 7B69     		ldr	r3, [r7, #20]
  46 0012 9A68     		ldr	r2, [r3, #8]
  47              		.loc 1 50 22
  48 0014 7B69     		ldr	r3, [r7, #20]
  49 0016 DB68     		ldr	r3, [r3, #12]
  50              		.loc 1 50 17
  51 0018 D31A     		subs	r3, r2, r3
  52              		.loc 1 50 6
  53 001a 7A68     		ldr	r2, [r7, #4]
  54 001c 9A42     		cmp	r2, r3
  55 001e 05D9     		bls	.L2
  56              		.loc 1 51 12
  57 0020 7B69     		ldr	r3, [r7, #20]
ARM GAS  C:\Users\DEVELO~1\AppData\Local\Temp\ccyXj666.s 			page 2


  58 0022 9A68     		ldr	r2, [r3, #8]
  59              		.loc 1 51 24
  60 0024 7B69     		ldr	r3, [r7, #20]
  61 0026 DB68     		ldr	r3, [r3, #12]
  62              		.loc 1 51 7
  63 0028 D31A     		subs	r3, r2, r3
  64 002a 7B60     		str	r3, [r7, #4]
  65              	.L2:
  66              		.loc 1 52 13
  67 002c 7B69     		ldr	r3, [r7, #20]
  68 002e 5A68     		ldr	r2, [r3, #4]
  69              		.loc 1 52 27
  70 0030 7B69     		ldr	r3, [r7, #20]
  71 0032 DB68     		ldr	r3, [r3, #12]
  72              		.loc 1 52 22
  73 0034 1344     		add	r3, r3, r2
  74              		.loc 1 52 3
  75 0036 7A68     		ldr	r2, [r7, #4]
  76 0038 B968     		ldr	r1, [r7, #8]
  77 003a 1846     		mov	r0, r3
  78 003c FFF7FEFF 		bl	memcpy
  79              		.loc 1 53 12
  80 0040 7B69     		ldr	r3, [r7, #20]
  81 0042 DA68     		ldr	r2, [r3, #12]
  82 0044 7B68     		ldr	r3, [r7, #4]
  83 0046 1A44     		add	r2, r2, r3
  84 0048 7B69     		ldr	r3, [r7, #20]
  85 004a DA60     		str	r2, [r3, #12]
  86              		.loc 1 54 10
  87 004c 7B68     		ldr	r3, [r7, #4]
  88              		.loc 1 55 1
  89 004e 1846     		mov	r0, r3
  90 0050 1837     		adds	r7, r7, #24
  91              		.cfi_def_cfa_offset 8
  92 0052 BD46     		mov	sp, r7
  93              		.cfi_def_cfa_register 13
  94              		@ sp needed
  95 0054 80BD     		pop	{r7, pc}
  96              		.cfi_endproc
  97              	.LFE432:
  98              		.size	_writes, .-_writes
  99              		.section	.text._reads,"ax",%progbits
 100              		.align	1
 101              		.syntax unified
 102              		.thumb
 103              		.thumb_func
 104              		.type	_reads, %function
 105              	_reads:
 106              	.LFB433:
 107              		.loc 1 57 55
 108              		.cfi_startproc
 109              		@ args = 0, pretend = 0, frame = 24
 110              		@ frame_needed = 1, uses_anonymous_args = 0
 111 0000 80B5     		push	{r7, lr}
 112              		.cfi_def_cfa_offset 8
 113              		.cfi_offset 7, -8
 114              		.cfi_offset 14, -4
ARM GAS  C:\Users\DEVELO~1\AppData\Local\Temp\ccyXj666.s 			page 3


 115 0002 86B0     		sub	sp, sp, #24
 116              		.cfi_def_cfa_offset 32
 117 0004 00AF     		add	r7, sp, #0
 118              		.cfi_def_cfa_register 7
 119 0006 F860     		str	r0, [r7, #12]
 120 0008 B960     		str	r1, [r7, #8]
 121 000a 7A60     		str	r2, [r7, #4]
 122              		.loc 1 58 17
 123 000c FB68     		ldr	r3, [r7, #12]
 124 000e 7B61     		str	r3, [r7, #20]
 125              		.loc 1 60 10
 126 0010 7B69     		ldr	r3, [r7, #20]
 127 0012 DA68     		ldr	r2, [r3, #12]
 128              		.loc 1 60 21
 129 0014 7B69     		ldr	r3, [r7, #20]
 130 0016 1B69     		ldr	r3, [r3, #16]
 131              		.loc 1 60 16
 132 0018 D31A     		subs	r3, r2, r3
 133              		.loc 1 60 6
 134 001a 7A68     		ldr	r2, [r7, #4]
 135 001c 9A42     		cmp	r2, r3
 136 001e 05D9     		bls	.L5
 137              		.loc 1 61 12
 138 0020 7B69     		ldr	r3, [r7, #20]
 139 0022 DA68     		ldr	r2, [r3, #12]
 140              		.loc 1 61 23
 141 0024 7B69     		ldr	r3, [r7, #20]
 142 0026 1B69     		ldr	r3, [r3, #16]
 143              		.loc 1 61 7
 144 0028 D31A     		subs	r3, r2, r3
 145 002a 7B60     		str	r3, [r7, #4]
 146              	.L5:
 147              		.loc 1 62 17
 148 002c 7B69     		ldr	r3, [r7, #20]
 149 002e 5A68     		ldr	r2, [r3, #4]
 150              		.loc 1 62 31
 151 0030 7B69     		ldr	r3, [r7, #20]
 152 0032 1B69     		ldr	r3, [r3, #16]
 153              		.loc 1 62 26
 154 0034 1344     		add	r3, r3, r2
 155              		.loc 1 62 3
 156 0036 7A68     		ldr	r2, [r7, #4]
 157 0038 1946     		mov	r1, r3
 158 003a B868     		ldr	r0, [r7, #8]
 159 003c FFF7FEFF 		bl	memcpy
 160              		.loc 1 63 15
 161 0040 7B69     		ldr	r3, [r7, #20]
 162 0042 1A69     		ldr	r2, [r3, #16]
 163 0044 7B68     		ldr	r3, [r7, #4]
 164 0046 1A44     		add	r2, r2, r3
 165 0048 7B69     		ldr	r3, [r7, #20]
 166 004a 1A61     		str	r2, [r3, #16]
 167              		.loc 1 64 10
 168 004c 7B68     		ldr	r3, [r7, #4]
 169              		.loc 1 65 1
 170 004e 1846     		mov	r0, r3
 171 0050 1837     		adds	r7, r7, #24
ARM GAS  C:\Users\DEVELO~1\AppData\Local\Temp\ccyXj666.s 			page 4


 172              		.cfi_def_cfa_offset 8
 173 0052 BD46     		mov	sp, r7
 174              		.cfi_def_cfa_register 13
 175              		@ sp needed
 176 0054 80BD     		pop	{r7, pc}
 177              		.cfi_endproc
 178              	.LFE433:
 179              		.size	_reads, .-_reads
 180              		.section	.text._put,"ax",%progbits
 181              		.align	1
 182              		.syntax unified
 183              		.thumb
 184              		.thumb_func
 185              		.type	_put, %function
 186              	_put:
 187              	.LFB434:
 188              		.loc 1 67 40
 189              		.cfi_startproc
 190              		@ args = 0, pretend = 0, frame = 16
 191              		@ frame_needed = 1, uses_anonymous_args = 0
 192              		@ link register save eliminated.
 193 0000 80B4     		push	{r7}
 194              		.cfi_def_cfa_offset 4
 195              		.cfi_offset 7, -4
 196 0002 85B0     		sub	sp, sp, #20
 197              		.cfi_def_cfa_offset 24
 198 0004 00AF     		add	r7, sp, #0
 199              		.cfi_def_cfa_register 7
 200 0006 7860     		str	r0, [r7, #4]
 201 0008 0B46     		mov	r3, r1
 202 000a FB70     		strb	r3, [r7, #3]
 203              		.loc 1 68 17
 204 000c 7B68     		ldr	r3, [r7, #4]
 205 000e FB60     		str	r3, [r7, #12]
 206              		.loc 1 70 10
 207 0010 FB68     		ldr	r3, [r7, #12]
 208 0012 9A68     		ldr	r2, [r3, #8]
 209              		.loc 1 70 22
 210 0014 FB68     		ldr	r3, [r7, #12]
 211 0016 DB68     		ldr	r3, [r3, #12]
 212              		.loc 1 70 6
 213 0018 9A42     		cmp	r2, r3
 214 001a 02D1     		bne	.L8
 215              		.loc 1 71 12
 216 001c 6FF00103 		mvn	r3, #1
 217 0020 0CE0     		b	.L9
 218              	.L8:
 219              		.loc 1 72 8
 220 0022 FB68     		ldr	r3, [r7, #12]
 221 0024 5A68     		ldr	r2, [r3, #4]
 222              		.loc 1 72 22
 223 0026 FB68     		ldr	r3, [r7, #12]
 224 0028 DB68     		ldr	r3, [r3, #12]
 225              		.loc 1 72 17
 226 002a 1344     		add	r3, r3, r2
 227              		.loc 1 72 29
 228 002c FA78     		ldrb	r2, [r7, #3]
ARM GAS  C:\Users\DEVELO~1\AppData\Local\Temp\ccyXj666.s 			page 5


 229 002e 1A70     		strb	r2, [r3]
 230              		.loc 1 73 12
 231 0030 FB68     		ldr	r3, [r7, #12]
 232 0032 DB68     		ldr	r3, [r3, #12]
 233 0034 5A1C     		adds	r2, r3, #1
 234 0036 FB68     		ldr	r3, [r7, #12]
 235 0038 DA60     		str	r2, [r3, #12]
 236              		.loc 1 74 10
 237 003a 0023     		movs	r3, #0
 238              	.L9:
 239              		.loc 1 75 1
 240 003c 1846     		mov	r0, r3
 241 003e 1437     		adds	r7, r7, #20
 242              		.cfi_def_cfa_offset 4
 243 0040 BD46     		mov	sp, r7
 244              		.cfi_def_cfa_register 13
 245              		@ sp needed
 246 0042 80BC     		pop	{r7}
 247              		.cfi_restore 7
 248              		.cfi_def_cfa_offset 0
 249 0044 7047     		bx	lr
 250              		.cfi_endproc
 251              	.LFE434:
 252              		.size	_put, .-_put
 253              		.section	.text._get,"ax",%progbits
 254              		.align	1
 255              		.syntax unified
 256              		.thumb
 257              		.thumb_func
 258              		.type	_get, %function
 259              	_get:
 260              	.LFB435:
 261              		.loc 1 77 29
 262              		.cfi_startproc
 263              		@ args = 0, pretend = 0, frame = 16
 264              		@ frame_needed = 1, uses_anonymous_args = 0
 265              		@ link register save eliminated.
 266 0000 80B4     		push	{r7}
 267              		.cfi_def_cfa_offset 4
 268              		.cfi_offset 7, -4
 269 0002 85B0     		sub	sp, sp, #20
 270              		.cfi_def_cfa_offset 24
 271 0004 00AF     		add	r7, sp, #0
 272              		.cfi_def_cfa_register 7
 273 0006 7860     		str	r0, [r7, #4]
 274              		.loc 1 79 17
 275 0008 7B68     		ldr	r3, [r7, #4]
 276 000a FB60     		str	r3, [r7, #12]
 277              		.loc 1 81 10
 278 000c FB68     		ldr	r3, [r7, #12]
 279 000e DA68     		ldr	r2, [r3, #12]
 280              		.loc 1 81 21
 281 0010 FB68     		ldr	r3, [r7, #12]
 282 0012 1B69     		ldr	r3, [r3, #16]
 283              		.loc 1 81 6
 284 0014 9A42     		cmp	r2, r3
 285 0016 02D1     		bne	.L11
ARM GAS  C:\Users\DEVELO~1\AppData\Local\Temp\ccyXj666.s 			page 6


 286              		.loc 1 82 12
 287 0018 6FF00103 		mvn	r3, #1
 288 001c 0CE0     		b	.L12
 289              	.L11:
 290              		.loc 1 83 12
 291 001e FB68     		ldr	r3, [r7, #12]
 292 0020 5A68     		ldr	r2, [r3, #4]
 293              		.loc 1 83 26
 294 0022 FB68     		ldr	r3, [r7, #12]
 295 0024 1B69     		ldr	r3, [r3, #16]
 296              		.loc 1 83 21
 297 0026 1344     		add	r3, r3, r2
 298              		.loc 1 83 5
 299 0028 1B78     		ldrb	r3, [r3]
 300 002a FB72     		strb	r3, [r7, #11]
 301              		.loc 1 84 15
 302 002c FB68     		ldr	r3, [r7, #12]
 303 002e 1B69     		ldr	r3, [r3, #16]
 304 0030 5A1C     		adds	r2, r3, #1
 305 0032 FB68     		ldr	r3, [r7, #12]
 306 0034 1A61     		str	r2, [r3, #16]
 307              		.loc 1 85 10
 308 0036 FB7A     		ldrb	r3, [r7, #11]	@ zero_extendqisi2
 309              	.L12:
 310              		.loc 1 86 1
 311 0038 1846     		mov	r0, r3
 312 003a 1437     		adds	r7, r7, #20
 313              		.cfi_def_cfa_offset 4
 314 003c BD46     		mov	sp, r7
 315              		.cfi_def_cfa_register 13
 316              		@ sp needed
 317 003e 80BC     		pop	{r7}
 318              		.cfi_restore 7
 319              		.cfi_def_cfa_offset 0
 320 0040 7047     		bx	lr
 321              		.cfi_endproc
 322              	.LFE435:
 323              		.size	_get, .-_get
 324              		.section	.text._unget,"ax",%progbits
 325              		.align	1
 326              		.syntax unified
 327              		.thumb
 328              		.thumb_func
 329              		.type	_unget, %function
 330              	_unget:
 331              	.LFB436:
 332              		.loc 1 89 1
 333              		.cfi_startproc
 334              		@ args = 0, pretend = 0, frame = 16
 335              		@ frame_needed = 1, uses_anonymous_args = 0
 336              		@ link register save eliminated.
 337 0000 80B4     		push	{r7}
 338              		.cfi_def_cfa_offset 4
 339              		.cfi_offset 7, -4
 340 0002 85B0     		sub	sp, sp, #20
 341              		.cfi_def_cfa_offset 24
 342 0004 00AF     		add	r7, sp, #0
ARM GAS  C:\Users\DEVELO~1\AppData\Local\Temp\ccyXj666.s 			page 7


 343              		.cfi_def_cfa_register 7
 344 0006 7860     		str	r0, [r7, #4]
 345 0008 0B46     		mov	r3, r1
 346 000a FB70     		strb	r3, [r7, #3]
 347              		.loc 1 90 17
 348 000c 7B68     		ldr	r3, [r7, #4]
 349 000e FB60     		str	r3, [r7, #12]
 350              		.loc 1 92 10
 351 0010 FB68     		ldr	r3, [r7, #12]
 352 0012 1B69     		ldr	r3, [r3, #16]
 353              		.loc 1 92 6
 354 0014 002B     		cmp	r3, #0
 355 0016 02D1     		bne	.L14
 356              		.loc 1 93 12
 357 0018 6FF00103 		mvn	r3, #1
 358 001c 0CE0     		b	.L15
 359              	.L14:
 360              		.loc 1 94 15
 361 001e FB68     		ldr	r3, [r7, #12]
 362 0020 1B69     		ldr	r3, [r3, #16]
 363 0022 5A1E     		subs	r2, r3, #1
 364 0024 FB68     		ldr	r3, [r7, #12]
 365 0026 1A61     		str	r2, [r3, #16]
 366              		.loc 1 95 8
 367 0028 FB68     		ldr	r3, [r7, #12]
 368 002a 5A68     		ldr	r2, [r3, #4]
 369              		.loc 1 95 22
 370 002c FB68     		ldr	r3, [r7, #12]
 371 002e 1B69     		ldr	r3, [r3, #16]
 372              		.loc 1 95 17
 373 0030 1344     		add	r3, r3, r2
 374              		.loc 1 95 32
 375 0032 FA78     		ldrb	r2, [r7, #3]
 376 0034 1A70     		strb	r2, [r3]
 377              		.loc 1 97 10
 378 0036 0023     		movs	r3, #0
 379              	.L15:
 380              		.loc 1 98 1
 381 0038 1846     		mov	r0, r3
 382 003a 1437     		adds	r7, r7, #20
 383              		.cfi_def_cfa_offset 4
 384 003c BD46     		mov	sp, r7
 385              		.cfi_def_cfa_register 13
 386              		@ sp needed
 387 003e 80BC     		pop	{r7}
 388              		.cfi_restore 7
 389              		.cfi_def_cfa_offset 0
 390 0040 7047     		bx	lr
 391              		.cfi_endproc
 392              	.LFE436:
 393              		.size	_unget, .-_unget
 394              		.section	.rodata.vmt,"a"
 395              		.align	2
 396              		.type	vmt, %object
 397              		.size	vmt, 24
 398              	vmt:
 399 0000 00000000 		.word	0
ARM GAS  C:\Users\DEVELO~1\AppData\Local\Temp\ccyXj666.s 			page 8


 400 0004 00000000 		.word	_writes
 401 0008 00000000 		.word	_reads
 402 000c 00000000 		.word	_put
 403 0010 00000000 		.word	_get
 404 0014 00000000 		.word	_unget
 405              		.section	.text.msObjectInit,"ax",%progbits
 406              		.align	1
 407              		.global	msObjectInit
 408              		.syntax unified
 409              		.thumb
 410              		.thumb_func
 411              		.type	msObjectInit, %function
 412              	msObjectInit:
 413              	.LFB437:
 414              		.loc 1 117 44
 415              		.cfi_startproc
 416              		@ args = 0, pretend = 0, frame = 16
 417              		@ frame_needed = 1, uses_anonymous_args = 0
 418              		@ link register save eliminated.
 419 0000 80B4     		push	{r7}
 420              		.cfi_def_cfa_offset 4
 421              		.cfi_offset 7, -4
 422 0002 85B0     		sub	sp, sp, #20
 423              		.cfi_def_cfa_offset 24
 424 0004 00AF     		add	r7, sp, #0
 425              		.cfi_def_cfa_register 7
 426 0006 F860     		str	r0, [r7, #12]
 427 0008 B960     		str	r1, [r7, #8]
 428 000a 7A60     		str	r2, [r7, #4]
 429 000c 3B60     		str	r3, [r7]
 430              		.loc 1 119 15
 431 000e FB68     		ldr	r3, [r7, #12]
 432 0010 094A     		ldr	r2, .L17
 433 0012 1A60     		str	r2, [r3]
 434              		.loc 1 120 15
 435 0014 FB68     		ldr	r3, [r7, #12]
 436 0016 BA68     		ldr	r2, [r7, #8]
 437 0018 5A60     		str	r2, [r3, #4]
 438              		.loc 1 121 15
 439 001a FB68     		ldr	r3, [r7, #12]
 440 001c 7A68     		ldr	r2, [r7, #4]
 441 001e 9A60     		str	r2, [r3, #8]
 442              		.loc 1 122 15
 443 0020 FB68     		ldr	r3, [r7, #12]
 444 0022 3A68     		ldr	r2, [r7]
 445 0024 DA60     		str	r2, [r3, #12]
 446              		.loc 1 123 15
 447 0026 FB68     		ldr	r3, [r7, #12]
 448 0028 0022     		movs	r2, #0
 449 002a 1A61     		str	r2, [r3, #16]
 450              		.loc 1 124 1
 451 002c 00BF     		nop
 452 002e 1437     		adds	r7, r7, #20
 453              		.cfi_def_cfa_offset 4
 454 0030 BD46     		mov	sp, r7
 455              		.cfi_def_cfa_register 13
 456              		@ sp needed
ARM GAS  C:\Users\DEVELO~1\AppData\Local\Temp\ccyXj666.s 			page 9


 457 0032 80BC     		pop	{r7}
 458              		.cfi_restore 7
 459              		.cfi_def_cfa_offset 0
 460 0034 7047     		bx	lr
 461              	.L18:
 462 0036 00BF     		.align	2
 463              	.L17:
 464 0038 00000000 		.word	vmt
 465              		.cfi_endproc
 466              	.LFE437:
 467              		.size	msObjectInit, .-msObjectInit
 468              		.text
 469              	.Letext0:
 470              		.file 2 "c:\\chibistudio\\tools\\gnu tools arm embedded\\11.3 2022.08\\lib\\gcc\\arm-none-eabi\\11
 471              		.file 3 "c:\\chibistudio\\tools\\gnu tools arm embedded\\11.3 2022.08\\arm-none-eabi\\include\\mac
 472              		.file 4 "c:\\chibistudio\\tools\\gnu tools arm embedded\\11.3 2022.08\\arm-none-eabi\\include\\sys
 473              		.file 5 "../../../os/rt/include/chearly.h"
 474              		.file 6 "../../../os/hal/lib/streams/memstreams.h"
 475              		.file 7 "c:\\chibistudio\\tools\\gnu tools arm embedded\\11.3 2022.08\\arm-none-eabi\\include\\str