ARM GAS  C:\Users\DEVELO~1\AppData\Local\Temp\ccyXj666.s 			page 1


   1              		.cpu cortex-m7
   2              		.arch armv7e-m
   3              		.fpu softvfp
   4              		.eabi_attribute 20, 1
   5              		.eabi_attribute 21, 1
   6              		.eabi_attribute 23, 3
   7              		.eabi_attribute 24, 1
   8              		.eabi_attribute 25, 1
   9              		.eabi_attribute 26, 1
  10              		.eabi_attribute 30, 6
  11              		.eabi_attribute 34, 1
  12              		.eabi_attribute 18, 4
  13              		.file	"memstreams.c"
  14              		.text
  15              	.Ltext0:
  16              		.cfi_sections	.debug_frame
  17              		.section	.text._writes,"ax",%progbits
  18              		.align	1
  19              		.syntax unified
  20              		.thumb
  21              		.thumb_func
  22              		.type	_writes, %function
  23              	_writes:
  24              	.LFB432:
  25              		.file 1 "../../../os/hal/lib/streams/memstreams.c"
  26              		.loc 1 47 62
  27              		.cfi_startproc
  28              		@ args = 0, pretend = 0, frame = 24
  29              		@ frame_needed = 1, uses_anonymous_args = 0
  30 0000 80B5     		push	{r7, lr}
  31              		.cfi_def_cfa_offset 8
  32              		.cfi_offset 7, -8
  33              		.cfi_offset 14, -4
  34 0002 86B0     		sub	sp, sp, #24
  35              		.cfi_def_cfa_offset 32
  36 0004 00AF     		add	r7, sp, #0
  37              		.cfi_def_cfa_register 7
  38 0006 F860     		str	r0, [r7, #12]
  39 0008 B960     		str	r1, [r7, #8]
  40 000a 7A60     		str	r2, [r7, #4]
  41              		.loc 1 48 17
  42 000c FB68     		ldr	r3, [r7, #12]
  43 000e 7B61     		str	r3, [r7, #20]
  44              		.loc 1 50 10
  45 0010 7B69     		ldr	r3, [r7, #20]
  46 0012 9A68     		ldr	r2, [r3, #8]
  47              		.loc 1 50 22
  48 0014 7B69     		ldr	r3, [r7, #20]
  49 0016 DB68     		ldr	r3, [r3, #12]
  50              		.loc 1 50 17
  51 0018 D31A     		subs	r3, r2, r3
  52              		.loc 1 50 6
  53 001a 7A68     		ldr	r2, [r7, #4]
  54 001c 9A42     		cmp	r2, r3
  55 001e 05D9     		bls	.L2
  56              		.loc 1 51 12
  57 0020 7B69     		ldr	r3, [r7, #20]
ARM GAS  C:\Users\DEVELO~1\AppData\Local\Temp\ccyXj666.s 			page 2


  58 0022 9A68     		ldr	r2, [r3, #8]
  59              		.loc 1 51 24
  60 0024 7B69     		ldr	r3, [r7, #20]
  61 0026 DB68     		ldr	r3, [r3, #12]
  62              		.loc 1 51 7
  63 0028 D31A     		subs	r3, r2, r3
  64 002a 7B60     		str	r3, [r7, #4]
  65              	.L2:
  66              		.loc 1 52 13
  67 002c 7B69     		ldr	r3, [r7, #20]
  68 002e 5A68     		ldr	r2, [r3, #4]
  69              		.loc 1 52 27
  70 0030 7B69     		ldr	r3, [r7, #20]
  71 0032 DB68     		ldr	r3, [r3, #12]
  72              		.loc 1 52 22
  73 0034 1344     		add	r3, r3, r2
  74              		.loc 1 52 3
  75 0036 7A68     		ldr	r2, [r7, #4]
  76 0038 B968     		ldr	r1, [r7, #8]
  77 003a 1846     		mov	r0, r3
  78 003c FFF7FEFF 		bl	memcpy
  79              		.loc 1 53 12
  80 0040 7B69     		ldr	r3, [r7, #20]
  81 0042 DA68     		ldr	r2, [r3, #12]
  82 0044 7B68     		ldr	r3, [r7, #4]
  83 0046 1A44     		add	r2, r2, r3
  84 0048 7B69     		ldr	r3, [r7, #20]
  85 004a DA60     		str	r2, [r3, #12]
  86              		.loc 1 54 10
  87 004c 7B68     		ldr	r3, [r7, #4]
  88              		.loc 1 55 1
  89 004e 1846     		mov	r0, r3
  90 0050 1837     		adds	r7, r7, #24
  91              		.cfi_def_cfa_offset 8
  92 0052 BD46     		mov	sp, r7
  93              		.cfi_def_cfa_register 13
  94              		@ sp needed
  95 0054 80BD     		pop	{r7, pc}
  96              		.cfi_endproc
  97              	.LFE432:
  98              		.size	_writes, .-_writes
  99              		.section	.text._reads,"ax",%progbits
 100              		.align	1
 101              		.syntax unified
 102              		.thumb
 103              		.thumb_func
 104              		.type	_reads, %function
 105              	_reads:
 106              	.LFB433:
 107              		.loc 1 57 55
 108              		.cfi_startproc
 109              		@ args = 0, pretend = 0, frame = 24
 110              		@ frame_needed = 1, uses_anonymous_args = 0
 111 0000 80B5     		push	{r7, lr}
 112              		.cfi_def_cfa_offset 8
 113              		.cfi_offset 7, -8
 114              		.cfi_offset 14, -4
ARM GAS  C:\Users\DEVELO~1\AppData\Local\Temp\ccyXj666.s 			page 3


 115 0002 86B0     		sub	sp, sp, #24
 116              		.cfi_def_cfa_offset 32
 117 0004 00AF     		add	r7, sp, #0
 118              		.cfi_def_cfa_register 7
 119 0006 F860     		str	r0, [r7, #12]
 120 0008 B960     		str	r1, [r7, #8]
 121 000a 7A60     		str	r2, [r7, #4]
 122              		.loc 1 58 17
 123 000c FB68     		ldr	r3, [r7, #12]
 124 000e 7B61     		str	r3, [r7, #20]
 125              		.loc 1 60 10
 126 0010 7B69     		ldr	r3, [r7, #20]
 127 0012 DA68     		ldr	r2, [r3, #12]
 128              		.loc 1 60 21
 129 0014 7B69     		ldr	r3, [r7, #20]
 130 0016 1B69     		ldr	r3, [r3, #16]
 131              		.loc 1 60 16
 132 0018 D31A     		subs	r3, r2, r3
 133              		.loc 1 60 6
 134 001a 7A68     		ldr	r2, [r7, #4]
 135 001c 9A42     		cmp	r2, r3
 136 001e 05D9     		bls	.L5
 137              		.loc 1 61 12
 138 0020 7B69     		ldr	r3, [r7, #20]
 139 0022 DA68     		ldr	r2, [r3, #12]
 140              		.loc 1 61 23
 141 0024 7B69     		ldr	r3, [r7, #20]
 142 0026 1B69     		ldr	r3, [r3, #16]
 143              		.loc 1 61 7
 144 0028 D31A     		subs	r3, r2, r3
 145 002a 7B60     		str	r3, [r7, #4]
 146              	.L5:
 147              		.loc 1 62 17
 148 002c 7B69     		ldr	r3, [r7, #20]
 149 002e 5A68     		ldr	r2, [r3, #4]
 150              		.loc 1 62 31
 151 0030 7B69     		ldr	r3, [r7, #20]
 152 0032 1B69     		ldr	r3, [r3, #16]
 153              		.loc 1 62 26
 154 0034 1344     		add	r3, r3, r2
 155              		.loc 1 62 3
 156 0036 7A68     		ldr	r2, [r7, #4]
 157 0038 1946     		mov	r1, r3
 158 003a B868     		ldr	r0, [r7, #8]
 159 003c FFF7FEFF 		bl	memcpy
 160              		.loc 1 63 15
 161 0040 7B69     		ldr	r3, [r7, #20]
 162 0042 1A69     		ldr	r2, [r3, #16]
 163 0044 7B68     		ldr	r3, [r7, #4]
 164 0046 1A44     		add	r2, r2, r3
 165 0048 7B69     		ldr	r3, [r7, #20]
 166 004a 1A61     		str	r2, [r3, #16]
 167              		.loc 1 64 10
 168 004c 7B68     		ldr	r3, [r7, #4]
 169              		.loc 1 65 1
 170 004e 1846     		mov	r0, r3
 171 0050 1837     		adds	r7, r7, #24
ARM GAS  C:\Users\DEVELO~1\AppData\Local\Temp\ccyXj666.s 			page 4


 172              		.cfi_def_cfa_offset 8
 173 0052 BD46     		mov	sp, r7
 174              		.cfi_def_cfa_register 13
 175              		@ sp needed
 176 0054 80BD     		pop	{r7, pc}
 177              		.cfi_endproc
 178              	.LFE433:
 179              		.size	_reads, .-_reads
 180              		.section	.text._put,"ax",%progbits
 181              		.align	1
 182              		.syntax unified
 183              		.thumb
 184              		.thumb_func
 185              		.type	_put, %function
 186              	_put:
 187              	.LFB434:
 188              		.loc 1 67 40
 189              		.cfi_startproc
 190              		@ args = 0, pretend = 0, frame = 16
 191              		@ frame_needed = 1, uses_anonymous_args = 0
 192              		@ link register save eliminated.
 193 0000 80B4     		push	{r7}
 194              		.cfi_def_cfa_offset 4
 195              		.cfi_offset 7, -4
 196 0002 85B0     		sub	sp, sp, #20
 197              		.cfi_def_cfa_offset 24
 198 0004 00AF     		add	r7, sp, #0
 199              		.cfi_def_cfa_register 7
 200 0006 7860     		str	r0, [r7, #4]
 201 0008 0B46     		mov	r3, r1
 202 000a FB70     		strb	r3, [r7, #3]
 203              		.loc 1 68 17
 204 000c 7B68     		ldr	r3, [r7, #4]
 205 000e FB60     		str	r3, [r7, #12]
 206              		.loc 1 70 10
 207 0010 FB68     		ldr	r3, [r7, #12]
 208 0012 9A68     		ldr	r2, [r3, #8]
 209              		.loc 1 70 22
 210 0014 FB68     		ldr	r3, [r7, #12]
 211 0016 DB68     		ldr	r3, [r3, #12]
 212              		.loc 1 70 6
 213 0018 9A42     		cmp	r2, r3
 214 001a 02D1     		bne	.L8
 215              		.loc 1 71 12
 216 001c 6FF00103 		mvn	r3, #1
 217 0020 0CE0     		b	.L9
 218              	.L8:
 219              		.loc 1 72 8
 220 0022 FB68     		ldr	r3, [r7, #12]
 221 0024 5A68     		ldr	r2, [r3, #4]
 222              		.loc 1 72 22
 223 0026 FB68     		ldr	r3, [r7, #12]
 224 0028 DB68     		ldr	r3, [r3, #12]
 225              		.loc 1 72 17
 226 002a 1344     		add	r3, r3, r2
 227              		.loc 1 72 29
 228 002c FA78     		ldrb	r2, [r7, #3]
ARM GAS  C:\Users\DEVELO~1\AppData\Local\Temp\ccyXj666.s 			page 5


 229 002e 1A70     		strb	r2, [r3]
 230              		.loc 1 73 12
 231 0030 FB68     		ldr	r3, [r7, #12]
 232 0032 DB68     		ldr	r3, [r3, #12]
 233 0034 5A1C     		adds	r2, r3, #1
 234 0036 FB68     		ldr	r3, [r7, #12]
 235 0038 DA60     		str	r2, [r3, #12]
 236              		.loc 1 74 10
 237 003a 0023     		movs	r3, #0
 238              	.L9:
 239              		.loc 1 75 1
 240 003c 1846     		mov	r0, r3
 241 003e 1437     		adds	r7, r7, #20
 242              		.cfi_def_cfa_offset 4
 243 0040 BD46     		mov	sp, r7
 244              		.cfi_def_cfa_register 13
 245              		@ sp needed
 246 0042 80BC     		pop	{r7}
 247              		.cfi_restore 7
 248              		.cfi_def_cfa_offset 0
 249 0044 7047     		bx	lr
 250              		.cfi_endproc
 251              	.LFE434:
 252              		.size	_put, .-_put
 253              		.section	.text._get,"ax",%progbits
 254              		.align	1
 255              		.syntax unified
 256              		.thumb
 257              		.thumb_func
 258              		.type	_get, %function
 259              	_get:
 260              	.LFB435:
 261              		.loc 1 77 29
 262              		.cfi_startproc
 263              		@ args = 0, pretend = 0, frame = 16
 264              		@ frame_needed = 1, uses_anonymous_args = 0
 265              		@ link register save eliminated.
 266 0000 80B4     		push	{r7}
 267              		.cfi_def_cfa_offset 4
 268              		.cfi_offset 7, -4
 269 0002 85B0     		sub	sp, sp, #20
 270              		.cfi_def_cfa_offset 24
 271 0004 00AF     		add	r7, sp, #0
 272              		.cfi_def_cfa_register 7
 273 0006 7860     		str	r0, [r7, #4]
 274              		.loc 1 79 17
 275 0008 7B68     		ldr	r3, [r7, #4]
 276 000a FB60     		str	r3, [r7, #12]
 277              		.loc 1 81 10
 278 000c FB68     		ldr	r3, [r7, #12]
 279 000e DA68     		ldr	r2, [r3, #12]
 280              		.loc 1 81 21
 281 0010 FB68     		ldr	r3, [r7, #12]
 282 0012 1B69     		ldr	r3, [r3, #16]
 283              		.loc 1 81 6
 284 0014 9A42     		cmp	r2, r3
 285 0016 02D1     		bne	.L11
ARM GAS  C:\Users\DEVELO~1\AppData\Local\Temp\ccyXj666.s 			page 6


 286              		.loc 1 82 12
 287 0018 6FF00103 		mvn	r3, #1
 288 001c 0CE0     		b	.L12
 289              	.L11:
 290              		.loc 1 83 12
 291 001e FB68     		ldr	r3, [r7, #12]
 292 0020 5A68     		ldr	r2, [r3, #4]
 293              		.loc 1 83 26
 294 0022 FB68     		ldr	r3, [r7, #12]
 295 0024 1B69     		ldr	r3, [r3, #16]
 296              		.loc 1 83 21
 297 0026 1344     		add	r3, r3, r2
 298              		.loc 1 83 5
 299 0028 1B78     		ldrb	r3, [r3]
 300 002a FB72     		strb	r3, [r7, #11]
 301              		.loc 1 84 15
 302 002c FB68     		ldr	r3, [r7, #12]
 303 002e 1B69     		ldr	r3, [r3, #16]
 304 0030 5A1C     		adds	r2, r3, #1
 305 0032 FB68     		ldr	r3, [r7, #12]
 306 0034 1A61     		str	r2, [r3, #16]
 307              		.loc 1 85 10
 308 0036 FB7A     		ldrb	r3, [r7, #11]	@ zero_extendqisi2
 309              	.L12:
 310              		.loc 1 86 1
 311 0038 1846     		mov	r0, r3
 312 003a 1437     		adds	r7, r7, #20
 313              		.cfi_def_cfa_offset 4
 314 003c BD46     		mov	sp, r7
 315              		.cfi_def_cfa_register 13
 316              		@ sp needed
 317 003e 80BC     		pop	{r7}
 318              		.cfi_restore 7
 319              		.cfi_def_cfa_offset 0
 320 0040 7047     		bx	lr
 321              		.cfi_endproc
 322              	.LFE435:
 323              		.size	_get, .-_get
 324              		.section	.text._unget,"ax",%progbits
 325              		.align	1
 326              		.syntax unified
 327              		.thumb
 328              		.thumb_func
 329              		.type	_unget, %function
 330              	_unget:
 331              	.LFB436:
 332              		.loc 1 89 1
 333              		.cfi_startproc
 334              		@ args = 0, pretend = 0, frame = 16
 335              		@ frame_needed = 1, uses_anonymous_args = 0
 336              		@ link register save eliminated.
 337 0000 80B4     		push	{r7}
 338              		.cfi_def_cfa_offset 4
 339              		.cfi_offset 7, -4
 340 0002 85B0     		sub	sp, sp, #20
 341              		.cfi_def_cfa_offset 24
 342 0004 00AF     		add	r7, sp, #0
ARM GAS  C:\Users\DEVELO~1\AppData\Local\Temp\ccyXj666.s 			page 7


 343              		.cfi_def_cfa_register 7
 344 0006 7860     		str	r0, [r7, #4]
 345 0008 0B46     		mov	r3, r1
 346 000a FB70     		strb	r3, [r7, #3]
 347              		.loc 1 90 17
 348 000c 7B68     		ldr	r3, [r7, #4]
 349 000e FB60     		str	r3, [r7, #12]
 350              		.loc 1 92 10
 351 0010 FB68     		ldr	r3, [r7, #12]
 352 0012 1B69     		ldr	r3, [r3, #16]
 353              		.loc 1 92 6
 354 0014 002B     		cmp	r3, #0
 355 0016 02D1     		bne	.L14
 356              		.loc 1 93 12
 357 0018 6FF00103 		mvn	r3, #1
 358 001c 0CE0     		b	.L15
 359              	.L14:
 360              		.loc 1 94 15
 361 001e FB68     		ldr	r3, [r7, #12]
 362 0020 1B69     		ldr	r3, [r3, #16]
 363 0022 5A1E     		subs	r2, r3, #1
 364 0024 FB68     		ldr	r3, [r7, #12]
 365 0026 1A61     		str	r2, [r3, #16]
 366              		.loc 1 95 8
 367 0028 FB68     		ldr	r3, [r7, #12]
 368 002a 5A68     		ldr	r2, [r3, #4]
 369              		.loc 1 95 22
 370 002c FB68     		ldr	r3, [r7, #12]
 371 002e 1B69     		ldr	r3, [r3, #16]
 372              		.loc 1 95 17
 373 0030 1344     		add	r3, r3, r2
 374              		.loc 1 95 32
 375 0032 FA78     		ldrb	r2, [r7, #3]
 376 0034 1A70     		strb	r2, [r3]
 377              		.loc 1 97 10
 378 0036 0023     		movs	r3, #0
 379              	.L15:
 380              		.loc 1 98 1
 381 0038 1846     		mov	r0, r3
 382 003a 1437     		adds	r7, r7, #20
 383              		.cfi_def_cfa_offset 4
 384 003c BD46     		mov	sp, r7
 385              		.cfi_def_cfa_register 13
 386              		@ sp needed
 387 003e 80BC     		pop	{r7}
 388              		.cfi_restore 7
 389              		.cfi_def_cfa_offset 0
 390 0040 7047     		bx	lr
 391              		.cfi_endproc
 392              	.LFE436:
 393              		.size	_unget, .-_unget
 394              		.section	.rodata.vmt,"a"
 395              		.align	2
 396              		.type	vmt, %object
 397              		.size	vmt, 24
 398              	vmt:
 399 0000 00000000 		.word	0
ARM GAS  C:\Users\DEVELO~1\AppData\Local\Temp\ccyXj666.s 			page 8


 400 0004 00000000 		.word	_writes
 401 0008 00000000 		.word	_reads
 402 000c 00000000 		.word	_put
 403 0010 00000000 		.word	_get
 404 0014 00000000 		.word	_unget
 405              		.section	.text.msObjectInit,"ax",%progbits
 406              		.align	1
 407              		.global	msObjectInit
 408              		.syntax unified
 409              		.thumb
 410              		.thumb_func
 411              		.type	msObjectInit, %function
 412              	msObjectInit:
 413              	.LFB437:
 414              		.loc 1 117 44
 415              		.cfi_startproc
 416              		@ args = 0, pretend = 0, frame = 16
 417              		@ frame_needed = 1, uses_anonymous_args = 0
 418              		@ link register save eliminated.
 419 0000 80B4     		push	{r7}
 420              		.cfi_def_cfa_offset 4
 421              		.cfi_offset 7, -4
 422 0002 85B0     		sub	sp, sp, #20
 423              		.cfi_def_cfa_offset 24
 424 0004 00AF     		add	r7, sp, #0
 425              		.cfi_def_cfa_register 7
 426 0006 F860     		str	r0, [r7, #12]
 427 0008 B960     		str	r1, [r7, #8]
 428 000a 7A60     		str	r2, [r7, #4]
 429 000c 3B60     		str	r3, [r7]
 430              		.loc 1 119 15
 431 000e FB68     		ldr	r3, [r7, #12]
 432 0010 094A     		ldr	r2, .L17
 433 0012 1A60     		str	r2, [r3]
 434              		.loc 1 120 15
 435 0014 FB68     		ldr	r3, [r7, #12]
 436 0016 BA68     		ldr	r2, [r7, #8]
 437 0018 5A60     		str	r2, [r3, #4]
 438              		.loc 1 121 15
 439 001a FB68     		ldr	r3, [r7, #12]
 440 001c 7A68     		ldr	r2, [r7, #4]
 441 001e 9A60     		str	r2, [r3, #8]
 442              		.loc 1 122 15
 443 0020 FB68     		ldr	r3, [r7, #12]
 444 0022 3A68     		ldr	r2, [r7]
 445 0024 DA60     		str	r2, [r3, #12]
 446              		.loc 1 123 15
 447 0026 FB68     		ldr	r3, [r7, #12]
 448 0028 0022     		movs	r2, #0
 449 002a 1A61     		str	r2, [r3, #16]
 450              		.loc 1 124 1
 451 002c 00BF     		nop
 452 002e 1437     		adds	r7, r7, #20
 453              		.cfi_def_cfa_offset 4
 454 0030 BD46     		mov	sp, r7
 455              		.cfi_def_cfa_register 13
 456              		@ sp needed
ARM GAS  C:\Users\DEVELO~1\AppData\Local\Temp\ccyXj666.s 			page 9


 457 0032 80BC     		pop	{r7}
 458              		.cfi_restore 7
 459              		.cfi_def_cfa_offset 0
 460 0034 7047     		bx	lr
 461              	.L18:
 462 0036 00BF     		.align	2
 463              	.L17:
 464 0038 00000000 		.word	vmt
 465              		.cfi_endproc
 466              	.LFE437:
 467              		.size	msObjectInit, .-msObjectInit
 468              		.text
 469              	.Letext0:
 470              		.file 2 "c:\\chibistudio\\tools\\gnu tools arm embedded\\11.3 2022.08\\lib\\gcc\\arm-none-eabi\\11
 471              		.file 3 "c:\\chibistudio\\tools\\gnu tools arm embedded\\11.3 2022.08\\arm-none-eabi\\include\\mac
 472              		.file 4 "c:\\chibistudio\\tools\\gnu tools arm embedded\\11.3 2022.08\\arm-none-eabi\\include\\sys
 473              		.file 5 "../../../os/rt/include/chearly.h"
 474              		.file 6 "../../../os/hal/lib/streams/memstreams.h"
 475              		.file 7 "c:\\chibistudio\\tools\\gnu tools arm embedded\\11.3 2022.08\\arm-none-eabi\\include\\str
 476              		.section	.debug_info,"",%progbits
 477              	.Ldebug_info0:
 478 0000 D0030000 		.4byte	0x3d0
 479 0004 0500     		.2byte	0x5
 480 0006 01       		.byte	0x1
 481 0007 04       		.byte	0x4
 482 0008 00000000 		.4byte	.Ldebug_abbrev0
 483 000c 0D       		.uleb128 0xd
 484 000d FA000000 		.4byte	.LASF30
 485 0011 1D       		.byte	0x1d
 486 0012 E6010000 		.4byte	.LASF31
 487 0016 79000000 		.4byte	.LASF32
 488 001a 0C000000 		.4byte	.LLRL0
 489 001e 00000000 		.4byte	0
 490 0022 00000000 		.4byte	.Ldebug_line0
 491 0026 0E       		.uleb128 0xe
 492 0027 04       		.byte	0x4
 493 0028 05       		.byte	0x5
 494 0029 696E7400 		.ascii	"int\000"
 495 002d 05       		.uleb128 0x5
 496 002e 0A000000 		.4byte	.LASF4
 497 0032 02       		.byte	0x2
 498 0033 D1       		.byte	0xd1
 499 0034 17       		.byte	0x17
 500 0035 39000000 		.4byte	0x39
 501 0039 02       		.uleb128 0x2
 502 003a 04       		.byte	0x4
 503 003b 07       		.byte	0x7
 504 003c 20000000 		.4byte	.LASF0
 505 0040 02       		.uleb128 0x2
 506 0041 08       		.byte	0x8
 507 0042 05       		.byte	0x5
 508 0043 D1010000 		.4byte	.LASF1
 509 0047 02       		.uleb128 0x2
 510 0048 08       		.byte	0x8
 511 0049 04       		.byte	0x4
 512 004a 3A000000 		.4byte	.LASF2
 513 004e 02       		.uleb128 0x2
ARM GAS  C:\Users\DEVELO~1\AppData\Local\Temp\ccyXj666.s 			page 10


 514 004f 01       		.byte	0x1
 515 0050 06       		.byte	0x6
 516 0051 46000000 		.4byte	.LASF3
 517 0055 05       		.uleb128 0x5
 518 0056 00000000 		.4byte	.LASF5
 519 005a 03       		.byte	0x3
 520 005b 2B       		.byte	0x2b
 521 005c 18       		.byte	0x18
 522 005d 61000000 		.4byte	0x61
 523 0061 02       		.uleb128 0x2
 524 0062 01       		.byte	0x1
 525 0063 08       		.byte	0x8
 526 0064 52000000 		.4byte	.LASF6
 527 0068 02       		.uleb128 0x2
 528 0069 02       		.byte	0x2
 529 006a 05       		.byte	0x5
 530 006b 16020000 		.4byte	.LASF7
 531 006f 02       		.uleb128 0x2
 532 0070 02       		.byte	0x2
 533 0071 07       		.byte	0x7
 534 0072 60000000 		.4byte	.LASF8
 535 0076 05       		.uleb128 0x5
 536 0077 16000000 		.4byte	.LASF9
 537 007b 03       		.byte	0x3
 538 007c 4D       		.byte	0x4d
 539 007d 18       		.byte	0x18
 540 007e 82000000 		.4byte	0x82
 541 0082 02       		.uleb128 0x2
 542 0083 04       		.byte	0x4
 543 0084 05       		.byte	0x5
 544 0085 27020000 		.4byte	.LASF10
 545 0089 02       		.uleb128 0x2
 546 008a 04       		.byte	0x4
 547 008b 07       		.byte	0x7
 548 008c 8A010000 		.4byte	.LASF11
 549 0090 02       		.uleb128 0x2
 550 0091 08       		.byte	0x8
 551 0092 07       		.byte	0x7
 552 0093 4A020000 		.4byte	.LASF12
 553 0097 0F       		.uleb128 0xf
 554 0098 04       		.byte	0x4
 555 0099 02       		.uleb128 0x2
 556 009a 01       		.byte	0x1
 557 009b 08       		.byte	0x8
 558 009c A7010000 		.4byte	.LASF13
 559 00a0 05       		.uleb128 0x5
 560 00a1 AC010000 		.4byte	.LASF14
 561 00a5 04       		.byte	0x4
 562 00a6 18       		.byte	0x18
 563 00a7 13       		.byte	0x13
 564 00a8 55000000 		.4byte	0x55
 565 00ac 0B       		.uleb128 0xb
 566 00ad A0000000 		.4byte	0xa0
 567 00b1 05       		.uleb128 0x5
 568 00b2 C1010000 		.4byte	.LASF15
 569 00b6 04       		.byte	0x4
 570 00b7 2C       		.byte	0x2c
ARM GAS  C:\Users\DEVELO~1\AppData\Local\Temp\ccyXj666.s 			page 11


 571 00b8 13       		.byte	0x13
 572 00b9 76000000 		.4byte	0x76
 573 00bd 05       		.uleb128 0x5
 574 00be B4010000 		.4byte	.LASF16
 575 00c2 05       		.byte	0x5
 576 00c3 58       		.byte	0x58
 577 00c4 19       		.byte	0x19
 578 00c5 B1000000 		.4byte	0xb1
 579 00c9 02       		.uleb128 0x2
 580 00ca 01       		.byte	0x1
 581 00cb 02       		.byte	0x2
 582 00cc 44020000 		.4byte	.LASF17
 583 00d0 04       		.uleb128 0x4
 584 00d1 A0000000 		.4byte	0xa0
 585 00d5 08       		.uleb128 0x8
 586 00d6 2D000000 		.4byte	0x2d
 587 00da EE000000 		.4byte	0xee
 588 00de 03       		.uleb128 0x3
 589 00df 97000000 		.4byte	0x97
 590 00e3 03       		.uleb128 0x3
 591 00e4 EE000000 		.4byte	0xee
 592 00e8 03       		.uleb128 0x3
 593 00e9 2D000000 		.4byte	0x2d
 594 00ed 00       		.byte	0
 595 00ee 04       		.uleb128 0x4
 596 00ef AC000000 		.4byte	0xac
 597 00f3 04       		.uleb128 0x4
 598 00f4 D5000000 		.4byte	0xd5
 599 00f8 08       		.uleb128 0x8
 600 00f9 2D000000 		.4byte	0x2d
 601 00fd 11010000 		.4byte	0x111
 602 0101 03       		.uleb128 0x3
 603 0102 97000000 		.4byte	0x97
 604 0106 03       		.uleb128 0x3
 605 0107 D0000000 		.4byte	0xd0
 606 010b 03       		.uleb128 0x3
 607 010c 2D000000 		.4byte	0x2d
 608 0110 00       		.byte	0
 609 0111 04       		.uleb128 0x4
 610 0112 F8000000 		.4byte	0xf8
 611 0116 08       		.uleb128 0x8
 612 0117 BD000000 		.4byte	0xbd
 613 011b 2A010000 		.4byte	0x12a
 614 011f 03       		.uleb128 0x3
 615 0120 97000000 		.4byte	0x97
 616 0124 03       		.uleb128 0x3
 617 0125 A0000000 		.4byte	0xa0
 618 0129 00       		.byte	0
 619 012a 04       		.uleb128 0x4
 620 012b 16010000 		.4byte	0x116
 621 012f 08       		.uleb128 0x8
 622 0130 BD000000 		.4byte	0xbd
 623 0134 3E010000 		.4byte	0x13e
 624 0138 03       		.uleb128 0x3
 625 0139 97000000 		.4byte	0x97
 626 013d 00       		.byte	0
 627 013e 04       		.uleb128 0x4
ARM GAS  C:\Users\DEVELO~1\AppData\Local\Temp\ccyXj666.s 			page 12


 628 013f 2F010000 		.4byte	0x12f
 629 0143 04       		.uleb128 0x4
 630 0144 48010000 		.4byte	0x148
 631 0148 10       		.uleb128 0x10
 632 0149 11       		.uleb128 0x11
 633 014a 2D000000 		.4byte	.LASF33
 634 014e 18       		.byte	0x18
 635 014f 06       		.byte	0x6
 636 0150 3D       		.byte	0x3d
 637 0151 08       		.byte	0x8
 638 0152 9B010000 		.4byte	0x19b
 639 0156 06       		.uleb128 0x6
 640 0157 E5000000 		.4byte	.LASF18
 641 015b 3E       		.byte	0x3e
 642 015c 2D000000 		.4byte	0x2d
 643 0160 00       		.byte	0
 644 0161 06       		.uleb128 0x6
 645 0162 73000000 		.4byte	.LASF19
 646 0166 3E       		.byte	0x3e
 647 0167 F3000000 		.4byte	0xf3
 648 016b 04       		.byte	0x4
 649 016c 06       		.uleb128 0x6
 650 016d 85010000 		.4byte	.LASF20
 651 0171 3E       		.byte	0x3e
 652 0172 11010000 		.4byte	0x111
 653 0176 08       		.byte	0x8
 654 0177 09       		.uleb128 0x9
 655 0178 70757400 		.ascii	"put\000"
 656 017c 3E       		.byte	0x3e
 657 017d 03       		.byte	0x3
 658 017e 2A010000 		.4byte	0x12a
 659 0182 0C       		.byte	0xc
 660 0183 09       		.uleb128 0x9
 661 0184 67657400 		.ascii	"get\000"
 662 0188 3E       		.byte	0x3e
 663 0189 03       		.byte	0x3
 664 018a 3E010000 		.4byte	0x13e
 665 018e 10       		.byte	0x10
 666 018f 06       		.uleb128 0x6
 667 0190 9C010000 		.4byte	.LASF21
 668 0194 3E       		.byte	0x3e
 669 0195 2A010000 		.4byte	0x12a
 670 0199 14       		.byte	0x14
 671 019a 00       		.byte	0
 672 019b 0B       		.uleb128 0xb
 673 019c 49010000 		.4byte	0x149
 674 01a0 12       		.uleb128 0x12
 675 01a1 14       		.byte	0x14
 676 01a2 06       		.byte	0x6
 677 01a3 46       		.byte	0x46
 678 01a4 09       		.byte	0x9
 679 01a5 E3010000 		.4byte	0x1e3
 680 01a9 09       		.uleb128 0x9
 681 01aa 766D7400 		.ascii	"vmt\000"
 682 01ae 48       		.byte	0x48
 683 01af 1E       		.byte	0x1e
 684 01b0 E3010000 		.4byte	0x1e3
ARM GAS  C:\Users\DEVELO~1\AppData\Local\Temp\ccyXj666.s 			page 13


 685 01b4 00       		.byte	0
 686 01b5 06       		.uleb128 0x6
 687 01b6 20020000 		.4byte	.LASF22
 688 01ba 49       		.byte	0x49
 689 01bb D0000000 		.4byte	0xd0
 690 01bf 04       		.byte	0x4
 691 01c0 06       		.uleb128 0x6
 692 01c1 A2010000 		.4byte	.LASF23
 693 01c5 49       		.byte	0x49
 694 01c6 2D000000 		.4byte	0x2d
 695 01ca 08       		.byte	0x8
 696 01cb 09       		.uleb128 0x9
 697 01cc 656F7300 		.ascii	"eos\000"
 698 01d0 49       		.byte	0x49
 699 01d1 03       		.byte	0x3
 700 01d2 2D000000 		.4byte	0x2d
 701 01d6 0C       		.byte	0xc
 702 01d7 06       		.uleb128 0x6
 703 01d8 0F020000 		.4byte	.LASF24
 704 01dc 49       		.byte	0x49
 705 01dd 2D000000 		.4byte	0x2d
 706 01e1 10       		.byte	0x10
 707 01e2 00       		.byte	0
 708 01e3 04       		.uleb128 0x4
 709 01e4 9B010000 		.4byte	0x19b
 710 01e8 05       		.uleb128 0x5
 711 01e9 30020000 		.4byte	.LASF25
 712 01ed 06       		.byte	0x6
 713 01ee 4A       		.byte	0x4a
 714 01ef 03       		.byte	0x3
 715 01f0 A0010000 		.4byte	0x1a0
 716 01f4 07       		.uleb128 0x7
 717 01f5 766D7400 		.ascii	"vmt\000"
 718 01f9 64       		.byte	0x64
 719 01fa 22       		.byte	0x22
 720 01fb 9B010000 		.4byte	0x19b
 721 01ff 05       		.uleb128 0x5
 722 0200 03       		.byte	0x3
 723 0201 00000000 		.4byte	vmt
 724 0205 13       		.uleb128 0x13
 725 0206 DF010000 		.4byte	.LASF34
 726 020a 07       		.byte	0x7
 727 020b 1F       		.byte	0x1f
 728 020c 09       		.byte	0x9
 729 020d 97000000 		.4byte	0x97
 730 0211 25020000 		.4byte	0x225
 731 0215 03       		.uleb128 0x3
 732 0216 97000000 		.4byte	0x97
 733 021a 03       		.uleb128 0x3
 734 021b 43010000 		.4byte	0x143
 735 021f 03       		.uleb128 0x3
 736 0220 2D000000 		.4byte	0x2d
 737 0224 00       		.byte	0
 738 0225 14       		.uleb128 0x14
 739 0226 D8000000 		.4byte	.LASF35
 740 022a 01       		.byte	0x1
 741 022b 74       		.byte	0x74
ARM GAS  C:\Users\DEVELO~1\AppData\Local\Temp\ccyXj666.s 			page 14


 742 022c 06       		.byte	0x6
 743 022d 00000000 		.4byte	.LFB437
 744 0231 3C000000 		.4byte	.LFE437-.LFB437
 745 0235 01       		.uleb128 0x1
 746 0236 9C       		.byte	0x9c
 747 0237 74020000 		.4byte	0x274
 748 023b 01       		.uleb128 0x1
 749 023c 6D737000 		.ascii	"msp\000"
 750 0240 74       		.byte	0x74
 751 0241 21       		.byte	0x21
 752 0242 74020000 		.4byte	0x274
 753 0246 02       		.uleb128 0x2
 754 0247 91       		.byte	0x91
 755 0248 74       		.sleb128 -12
 756 0249 0C       		.uleb128 0xc
 757 024a 20020000 		.4byte	.LASF22
 758 024e 74       		.byte	0x74
 759 024f 2F       		.byte	0x2f
 760 0250 D0000000 		.4byte	0xd0
 761 0254 02       		.uleb128 0x2
 762 0255 91       		.byte	0x91
 763 0256 70       		.sleb128 -16
 764 0257 0C       		.uleb128 0xc
 765 0258 A2010000 		.4byte	.LASF23
 766 025c 75       		.byte	0x75
 767 025d 1A       		.byte	0x1a
 768 025e 2D000000 		.4byte	0x2d
 769 0262 02       		.uleb128 0x2
 770 0263 91       		.byte	0x91
 771 0264 6C       		.sleb128 -20
 772 0265 01       		.uleb128 0x1
 773 0266 656F7300 		.ascii	"eos\000"
 774 026a 75       		.byte	0x75
 775 026b 27       		.byte	0x27
 776 026c 2D000000 		.4byte	0x2d
 777 0270 02       		.uleb128 0x2
 778 0271 91       		.byte	0x91
 779 0272 68       		.sleb128 -24
 780 0273 00       		.byte	0
 781 0274 04       		.uleb128 0x4
 782 0275 E8010000 		.4byte	0x1e8
 783 0279 0A       		.uleb128 0xa
 784 027a 3D020000 		.4byte	.LASF26
 785 027e 58       		.byte	0x58
 786 027f BD000000 		.4byte	0xbd
 787 0283 00000000 		.4byte	.LFB436
 788 0287 42000000 		.4byte	.LFE436-.LFB436
 789 028b 01       		.uleb128 0x1
 790 028c 9C       		.byte	0x9c
 791 028d B9020000 		.4byte	0x2b9
 792 0291 01       		.uleb128 0x1
 793 0292 697000   		.ascii	"ip\000"
 794 0295 58       		.byte	0x58
 795 0296 1B       		.byte	0x1b
 796 0297 97000000 		.4byte	0x97
 797 029b 02       		.uleb128 0x2
 798 029c 91       		.byte	0x91
ARM GAS  C:\Users\DEVELO~1\AppData\Local\Temp\ccyXj666.s 			page 15


 799 029d 6C       		.sleb128 -20
 800 029e 01       		.uleb128 0x1
 801 029f 6200     		.ascii	"b\000"
 802 02a1 58       		.byte	0x58
 803 02a2 27       		.byte	0x27
 804 02a3 A0000000 		.4byte	0xa0
 805 02a7 02       		.uleb128 0x2
 806 02a8 91       		.byte	0x91
 807 02a9 6B       		.sleb128 -21
 808 02aa 07       		.uleb128 0x7
 809 02ab 6D737000 		.ascii	"msp\000"
 810 02af 5A       		.byte	0x5a
 811 02b0 11       		.byte	0x11
 812 02b1 74020000 		.4byte	0x274
 813 02b5 02       		.uleb128 0x2
 814 02b6 91       		.byte	0x91
 815 02b7 74       		.sleb128 -12
 816 02b8 00       		.byte	0
 817 02b9 0A       		.uleb128 0xa
 818 02ba F5000000 		.4byte	.LASF27
 819 02be 4D       		.byte	0x4d
 820 02bf BD000000 		.4byte	0xbd
 821 02c3 00000000 		.4byte	.LFB435
 822 02c7 42000000 		.4byte	.LFE435-.LFB435
 823 02cb 01       		.uleb128 0x1
 824 02cc 9C       		.byte	0x9c
 825 02cd F9020000 		.4byte	0x2f9
 826 02d1 01       		.uleb128 0x1
 827 02d2 697000   		.ascii	"ip\000"
 828 02d5 4D       		.byte	0x4d
 829 02d6 19       		.byte	0x19
 830 02d7 97000000 		.4byte	0x97
 831 02db 02       		.uleb128 0x2
 832 02dc 91       		.byte	0x91
 833 02dd 6C       		.sleb128 -20
 834 02de 07       		.uleb128 0x7
 835 02df 6200     		.ascii	"b\000"
 836 02e1 4E       		.byte	0x4e
 837 02e2 0B       		.byte	0xb
 838 02e3 A0000000 		.4byte	0xa0
 839 02e7 02       		.uleb128 0x2
 840 02e8 91       		.byte	0x91
 841 02e9 73       		.sleb128 -13
 842 02ea 07       		.uleb128 0x7
 843 02eb 6D737000 		.ascii	"msp\000"
 844 02ef 4F       		.byte	0x4f
 845 02f0 11       		.byte	0x11
 846 02f1 74020000 		.4byte	0x274
 847 02f5 02       		.uleb128 0x2
 848 02f6 91       		.byte	0x91
 849 02f7 74       		.sleb128 -12
 850 02f8 00       		.byte	0
 851 02f9 0A       		.uleb128 0xa
 852 02fa 11000000 		.4byte	.LASF28
 853 02fe 43       		.byte	0x43
 854 02ff BD000000 		.4byte	0xbd
 855 0303 00000000 		.4byte	.LFB434
ARM GAS  C:\Users\DEVELO~1\AppData\Local\Temp\ccyXj666.s 			page 16


 856 0307 46000000 		.4byte	.LFE434-.LFB434
 857 030b 01       		.uleb128 0x1
 858 030c 9C       		.byte	0x9c
 859 030d 39030000 		.4byte	0x339
 860 0311 01       		.uleb128 0x1
 861 0312 697000   		.ascii	"ip\000"
 862 0315 43       		.byte	0x43
 863 0316 19       		.byte	0x19
 864 0317 97000000 		.4byte	0x97
 865 031b 02       		.uleb128 0x2
 866 031c 91       		.byte	0x91
 867 031d 6C       		.sleb128 -20
 868 031e 01       		.uleb128 0x1
 869 031f 6200     		.ascii	"b\000"
 870 0321 43       		.byte	0x43
 871 0322 25       		.byte	0x25
 872 0323 A0000000 		.4byte	0xa0
 873 0327 02       		.uleb128 0x2
 874 0328 91       		.byte	0x91
 875 0329 6B       		.sleb128 -21
 876 032a 07       		.uleb128 0x7
 877 032b 6D737000 		.ascii	"msp\000"
 878 032f 44       		.byte	0x44
 879 0330 11       		.byte	0x11
 880 0331 74020000 		.4byte	0x274
 881 0335 02       		.uleb128 0x2
 882 0336 91       		.byte	0x91
 883 0337 74       		.sleb128 -12
 884 0338 00       		.byte	0
 885 0339 15       		.uleb128 0x15
 886 033a BA010000 		.4byte	.LASF29
 887 033e 01       		.byte	0x1
 888 033f 39       		.byte	0x39
 889 0340 0F       		.byte	0xf
 890 0341 2D000000 		.4byte	0x2d
 891 0345 00000000 		.4byte	.LFB433
 892 0349 56000000 		.4byte	.LFE433-.LFB433
 893 034d 01       		.uleb128 0x1
 894 034e 9C       		.byte	0x9c
 895 034f 88030000 		.4byte	0x388
 896 0353 01       		.uleb128 0x1
 897 0354 697000   		.ascii	"ip\000"
 898 0357 39       		.byte	0x39
 899 0358 1C       		.byte	0x1c
 900 0359 97000000 		.4byte	0x97
 901 035d 02       		.uleb128 0x2
 902 035e 91       		.byte	0x91
 903 035f 6C       		.sleb128 -20
 904 0360 01       		.uleb128 0x1
 905 0361 627000   		.ascii	"bp\000"
 906 0364 39       		.byte	0x39
 907 0365 29       		.byte	0x29
 908 0366 D0000000 		.4byte	0xd0
 909 036a 02       		.uleb128 0x2
 910 036b 91       		.byte	0x91
 911 036c 68       		.sleb128 -24
 912 036d 01       		.uleb128 0x1
ARM GAS  C:\Users\DEVELO~1\AppData\Local\Temp\ccyXj666.s 			page 17


 913 036e 6E00     		.ascii	"n\000"
 914 0370 39       		.byte	0x39
 915 0371 34       		.byte	0x34
 916 0372 2D000000 		.4byte	0x2d
 917 0376 02       		.uleb128 0x2
 918 0377 91       		.byte	0x91
 919 0378 64       		.sleb128 -28
 920 0379 07       		.uleb128 0x7
 921 037a 6D737000 		.ascii	"msp\000"
 922 037e 3A       		.byte	0x3a
 923 037f 11       		.byte	0x11
 924 0380 74020000 		.4byte	0x274
 925 0384 02       		.uleb128 0x2
 926 0385 91       		.byte	0x91
 927 0386 74       		.sleb128 -12
 928 0387 00       		.byte	0
 929 0388 16       		.uleb128 0x16
 930 0389 C9010000 		.4byte	.LASF36
 931 038d 01       		.byte	0x1
 932 038e 2F       		.byte	0x2f
 933 038f 0F       		.byte	0xf
 934 0390 2D000000 		.4byte	0x2d
 935 0394 00000000 		.4byte	.LFB432
 936 0398 56000000 		.4byte	.LFE432-.LFB432
 937 039c 01       		.uleb128 0x1
 938 039d 9C       		.byte	0x9c
 939 039e 01       		.uleb128 0x1
 940 039f 697000   		.ascii	"ip\000"
 941 03a2 2F       		.byte	0x2f
 942 03a3 1D       		.byte	0x1d
 943 03a4 97000000 		.4byte	0x97
 944 03a8 02       		.uleb128 0x2
 945 03a9 91       		.byte	0x91
 946 03aa 6C       		.sleb128 -20
 947 03ab 01       		.uleb128 0x1
 948 03ac 627000   		.ascii	"bp\000"
 949 03af 2F       		.byte	0x2f
 950 03b0 30       		.byte	0x30
 951 03b1 EE000000 		.4byte	0xee
 952 03b5 02       		.uleb128 0x2
 953 03b6 91       		.byte	0x91
 954 03b7 68       		.sleb128 -24
 955 03b8 01       		.uleb128 0x1
 956 03b9 6E00     		.ascii	"n\000"
 957 03bb 2F       		.byte	0x2f
 958 03bc 3B       		.byte	0x3b
 959 03bd 2D000000 		.4byte	0x2d
 960 03c1 02       		.uleb128 0x2
 961 03c2 91       		.byte	0x91
 962 03c3 64       		.sleb128 -28
 963 03c4 07       		.uleb128 0x7
 964 03c5 6D737000 		.ascii	"msp\000"
 965 03c9 30       		.byte	0x30
 966 03ca 11       		.byte	0x11
 967 03cb 74020000 		.4byte	0x274
 968 03cf 02       		.uleb128 0x2
 969 03d0 91       		.byte	0x91
ARM GAS  C:\Users\DEVELO~1\AppData\Local\Temp\ccyXj666.s 			page 18


 970 03d1 74       		.sleb128 -12
 971 03d2 00       		.byte	0
 972 03d3 00       		.byte	0
 973              		.section	.debug_abbrev,"",%progbits
 974              	.Ldebug_abbrev0:
 975 0000 01       		.uleb128 0x1
 976 0001 05       		.uleb128 0x5
 977 0002 00       		.byte	0
 978 0003 03       		.uleb128 0x3
 979 0004 08       		.uleb128 0x8
 980 0005 3A       		.uleb128 0x3a
 981 0006 21       		.uleb128 0x21
 982 0007 01       		.sleb128 1
 983 0008 3B       		.uleb128 0x3b
 984 0009 0B       		.uleb128 0xb
 985 000a 39       		.uleb128 0x39
 986 000b 0B       		.uleb128 0xb
 987 000c 49       		.uleb128 0x49
 988 000d 13       		.uleb128 0x13
 989 000e 02       		.uleb128 0x2
 990 000f 18       		.uleb128 0x18
 991 0010 00       		.byte	0
 992 0011 00       		.byte	0
 993 0012 02       		.uleb128 0x2
 994 0013 24       		.uleb128 0x24
 995 0014 00       		.byte	0
 996 0015 0B       		.uleb128 0xb
 997 0016 0B       		.uleb128 0xb
 998 0017 3E       		.uleb128 0x3e
 999 0018 0B       		.uleb128 0xb
 1000 0019 03       		.uleb128 0x3
 1001 001a 0E       		.uleb128 0xe
 1002 001b 00       		.byte	0
 1003 001c 00       		.byte	0
 1004 001d 03       		.uleb128 0x3
 1005 001e 05       		.uleb128 0x5
 1006 001f 00       		.byte	0
 1007 0020 49       		.uleb128 0x49
 1008 0021 13       		.uleb128 0x13
 1009 0022 00       		.byte	0
 1010 0023 00       		.byte	0
 1011 0024 04       		.uleb128 0x4
 1012 0025 0F       		.uleb128 0xf
 1013 0026 00       		.byte	0
 1014 0027 0B       		.uleb128 0xb
 1015 0028 21       		.uleb128 0x21
 1016 0029 04       		.sleb128 4
 1017 002a 49       		.uleb128 0x49
 1018 002b 13       		.uleb128 0x13
 1019 002c 00       		.byte	0
 1020 002d 00       		.byte	0
 1021 002e 05       		.uleb128 0x5
 1022 002f 16       		.uleb128 0x16
 1023 0030 00       		.byte	0
 1024 0031 03       		.uleb128 0x3
 1025 0032 0E       		.uleb128 0xe
 1026 0033 3A       		.uleb128 0x3a
ARM GAS  C:\Users\DEVELO~1\AppData\Local\Temp\ccyXj666.s 			page 19


 1027 0034 0B       		.uleb128 0xb
 1028 0035 3B       		.uleb128 0x3b
 1029 0036 0B       		.uleb128 0xb
 1030 0037 39       		.uleb128 0x39
 1031 0038 0B       		.uleb128 0xb
 1032 0039 49       		.uleb128 0x49
 1033 003a 13       		.uleb128 0x13
 1034 003b 00       		.byte	0
 1035 003c 00       		.byte	0
 1036 003d 06       		.uleb128 0x6
 1037 003e 0D       		.uleb128 0xd
 1038 003f 00       		.byte	0
 1039 0040 03       		.uleb128 0x3
 1040 0041 0E       		.uleb128 0xe
 1041 0042 3A       		.uleb128 0x3a
 1042 0043 21       		.uleb128 0x21
 1043 0044 06       		.sleb128 6
 1044 0045 3B       		.uleb128 0x3b
 1045 0046 0B       		.uleb128 0xb
 1046 0047 39       		.uleb128 0x39
 1047 0048 21       		.uleb128 0x21
 1048 0049 03       		.sleb128 3
 1049 004a 49       		.uleb128 0x49
 1050 004b 13       		.uleb128 0x13
 1051 004c 38       		.uleb128 0x38
 1052 004d 0B       		.uleb128 0xb
 1053 004e 00       		.byte	0
 1054 004f 00       		.byte	0
 1055 0050 07       		.uleb128 0x7
 1056 0051 34       		.uleb128 0x34
 1057 0052 00       		.byte	0
 1058 0053 03       		.uleb128 0x3
 1059 0054 08       		.uleb128 0x8
 1060 0055 3A       		.uleb128 0x3a
 1061 0056 21       		.uleb128 0x21
 1062 0057 01       		.sleb128 1
 1063 0058 3B       		.uleb128 0x3b
 1064 0059 0B       		.uleb128 0xb
 1065 005a 39       		.uleb128 0x39
 1066 005b 0B       		.uleb128 0xb
 1067 005c 49       		.uleb128 0x49
 1068 005d 13       		.uleb128 0x13
 1069 005e 02       		.uleb128 0x2
 1070 005f 18       		.uleb128 0x18
 1071 0060 00       		.byte	0
 1072 0061 00       		.byte	0
 1073 0062 08       		.uleb128 0x8
 1074 0063 15       		.uleb128 0x15
 1075 0064 01       		.byte	0x1
 1076 0065 27       		.uleb128 0x27
 1077 0066 19       		.uleb128 0x19
 1078 0067 49       		.uleb128 0x49
 1079 0068 13       		.uleb128 0x13
 1080 0069 01       		.uleb128 0x1
 1081 006a 13       		.uleb128 0x13
 1082 006b 00       		.byte	0
 1083 006c 00       		.byte	0
ARM GAS  C:\Users\DEVELO~1\AppData\Local\Temp\ccyXj666.s 			page 20


 1084 006d 09       		.uleb128 0x9
 1085 006e 0D       		.uleb128 0xd
 1086 006f 00       		.byte	0
 1087 0070 03       		.uleb128 0x3
 1088 0071 08       		.uleb128 0x8
 1089 0072 3A       		.uleb128 0x3a
 1090 0073 21       		.uleb128 0x21
 1091 0074 06       		.sleb128 6
 1092 0075 3B       		.uleb128 0x3b
 1093 0076 0B       		.uleb128 0xb
 1094 0077 39       		.uleb128 0x39
 1095 0078 0B       		.uleb128 0xb
 1096 0079 49       		.uleb128 0x49
 1097 007a 13       		.uleb128 0x13
 1098 007b 38       		.uleb128 0x38
 1099 007c 0B       		.uleb128 0xb
 1100 007d 00       		.byte	0
 1101 007e 00       		.byte	0
 1102 007f 0A       		.uleb128 0xa
 1103 0080 2E       		.uleb128 0x2e
 1104 0081 01       		.byte	0x1
 1105 0082 03       		.uleb128 0x3
 1106 0083 0E       		.uleb128 0xe
 1107 0084 3A       		.uleb128 0x3a
 1108 0085 21       		.uleb128 0x21
 1109 0086 01       		.sleb128 1
 1110 0087 3B       		.uleb128 0x3b
 1111 0088 0B       		.uleb128 0xb
 1112 0089 39       		.uleb128 0x39
 1113 008a 21       		.uleb128 0x21
 1114 008b 0E       		.sleb128 14
 1115 008c 27       		.uleb128 0x27
 1116 008d 19       		.uleb128 0x19
 1117 008e 49       		.uleb128 0x49
 1118 008f 13       		.uleb128 0x13
 1119 0090 11       		.uleb128 0x11
 1120 0091 01       		.uleb128 0x1
 1121 0092 12       		.uleb128 0x12
 1122 0093 06       		.uleb128 0x6
 1123 0094 40       		.uleb128 0x40
 1124 0095 18       		.uleb128 0x18
 1125 0096 7A       		.uleb128 0x7a
 1126 0097 19       		.uleb128 0x19
 1127 0098 01       		.uleb128 0x1
 1128 0099 13       		.uleb128 0x13
 1129 009a 00       		.byte	0
 1130 009b 00       		.byte	0
 1131 009c 0B       		.uleb128 0xb
 1132 009d 26       		.uleb128 0x26
 1133 009e 00       		.byte	0
 1134 009f 49       		.uleb128 0x49
 1135 00a0 13       		.uleb128 0x13
 1136 00a1 00       		.byte	0
 1137 00a2 00       		.byte	0
 1138 00a3 0C       		.uleb128 0xc
 1139 00a4 05       		.uleb128 0x5
 1140 00a5 00       		.byte	0
ARM GAS  C:\Users\DEVELO~1\AppData\Local\Temp\ccyXj666.s 			page 21


 1141 00a6 03       		.uleb128 0x3
 1142 00a7 0E       		.uleb128 0xe
 1143 00a8 3A       		.uleb128 0x3a
 1144 00a9 21       		.uleb128 0x21
 1145 00aa 01       		.sleb128 1
 1146 00ab 3B       		.uleb128 0x3b
 1147 00ac 0B       		.uleb128 0xb
 1148 00ad 39       		.uleb128 0x39
 1149 00ae 0B       		.uleb128 0xb
 1150 00af 49       		.uleb128 0x49
 1151 00b0 13       		.uleb128 0x13
 1152 00b1 02       		.uleb128 0x2
 1153 00b2 18       		.uleb128 0x18
 1154 00b3 00       		.byte	0
 1155 00b4 00       		.byte	0
 1156 00b5 0D       		.uleb128 0xd
 1157 00b6 11       		.uleb128 0x11
 1158 00b7 01       		.byte	0x1
 1159 00b8 25       		.uleb128 0x25
 1160 00b9 0E       		.uleb128 0xe
 1161 00ba 13       		.uleb128 0x13
 1162 00bb 0B       		.uleb128 0xb
 1163 00bc 03       		.uleb128 0x3
 1164 00bd 0E       		.uleb128 0xe
 1165 00be 1B       		.uleb128 0x1b
 1166 00bf 0E       		.uleb128 0xe
 1167 00c0 55       		.uleb128 0x55
 1168 00c1 17       		.uleb128 0x17
 1169 00c2 11       		.uleb128 0x11
 1170 00c3 01       		.uleb128 0x1
 1171 00c4 10       		.uleb128 0x10
 1172 00c5 17       		.uleb128 0x17
 1173 00c6 00       		.byte	0
 1174 00c7 00       		.byte	0
 1175 00c8 0E       		.uleb128 0xe
 1176 00c9 24       		.uleb128 0x24
 1177 00ca 00       		.byte	0
 1178 00cb 0B       		.uleb128 0xb
 1179 00cc 0B       		.uleb128 0xb
 1180 00cd 3E       		.uleb128 0x3e
 1181 00ce 0B       		.uleb128 0xb
 1182 00cf 03       		.uleb128 0x3
 1183 00d0 08       		.uleb128 0x8
 1184 00d1 00       		.byte	0
 1185 00d2 00       		.byte	0
 1186 00d3 0F       		.uleb128 0xf
 1187 00d4 0F       		.uleb128 0xf
 1188 00d5 00       		.byte	0
 1189 00d6 0B       		.uleb128 0xb
 1190 00d7 0B       		.uleb128 0xb
 1191 00d8 00       		.byte	0
 1192 00d9 00       		.byte	0
 1193 00da 10       		.uleb128 0x10
 1194 00db 26       		.uleb128 0x26
 1195 00dc 00       		.byte	0
 1196 00dd 00       		.byte	0
 1197 00de 00       		.byte	0
ARM GAS  C:\Users\DEVELO~1\AppData\Local\Temp\ccyXj666.s 			page 22


 1198 00df 11       		.uleb128 0x11
 1199 00e0 13       		.uleb128 0x13
 1200 00e1 01       		.byte	0x1
 1201 00e2 03       		.uleb128 0x3
 1202 00e3 0E       		.uleb128 0xe
 1203 00e4 0B       		.uleb128 0xb
 1204 00e5 0B       		.uleb128 0xb
 1205 00e6 3A       		.uleb128 0x3a
 1206 00e7 0B       		.uleb128 0xb
 1207 00e8 3B       		.uleb128 0x3b
 1208 00e9 0B       		.uleb128 0xb
 1209 00ea 39       		.uleb128 0x39
 1210 00eb 0B       		.uleb128 0xb
 1211 00ec 01       		.uleb128 0x1
 1212 00ed 13       		.uleb128 0x13
 1213 00ee 00       		.byte	0
 1214 00ef 00       		.byte	0
 1215 00f0 12       		.uleb128 0x12
 1216 00f1 13       		.uleb128 0x13
 1217 00f2 01       		.byte	0x1
 1218 00f3 0B       		.uleb128 0xb
 1219 00f4 0B       		.uleb128 0xb
 1220 00f5 3A       		.uleb128 0x3a
 1221 00f6 0B       		.uleb128 0xb
 1222 00f7 3B       		.uleb128 0x3b
 1223 00f8 0B       		.uleb128 0xb
 1224 00f9 39       		.uleb128 0x39
 1225 00fa 0B       		.uleb128 0xb
 1226 00fb 01       		.uleb128 0x1
 1227 00fc 13       		.uleb128 0x13
 1228 00fd 00       		.byte	0
 1229 00fe 00       		.byte	0
 1230 00ff 13       		.uleb128 0x13
 1231 0100 2E       		.uleb128 0x2e
 1232 0101 01       		.byte	0x1
 1233 0102 3F       		.uleb128 0x3f
 1234 0103 19       		.uleb128 0x19
 1235 0104 03       		.uleb128 0x3
 1236 0105 0E       		.uleb128 0xe
 1237 0106 3A       		.uleb128 0x3a
 1238 0107 0B       		.uleb128 0xb
 1239 0108 3B       		.uleb128 0x3b
 1240 0109 0B       		.uleb128 0xb
 1241 010a 39       		.uleb128 0x39
 1242 010b 0B       		.uleb128 0xb
 1243 010c 27       		.uleb128 0x27
 1244 010d 19       		.uleb128 0x19
 1245 010e 49       		.uleb128 0x49
 1246 010f 13       		.uleb128 0x13
 1247 0110 3C       		.uleb128 0x3c
 1248 0111 19       		.uleb128 0x19
 1249 0112 01       		.uleb128 0x1
 1250 0113 13       		.uleb128 0x13
 1251 0114 00       		.byte	0
 1252 0115 00       		.byte	0
 1253 0116 14       		.uleb128 0x14
 1254 0117 2E       		.uleb128 0x2e
ARM GAS  C:\Users\DEVELO~1\AppData\Local\Temp\ccyXj666.s 			page 23


 1255 0118 01       		.byte	0x1
 1256 0119 3F       		.uleb128 0x3f
 1257 011a 19       		.uleb128 0x19
 1258 011b 03       		.uleb128 0x3
 1259 011c 0E       		.uleb128 0xe
 1260 011d 3A       		.uleb128 0x3a
 1261 011e 0B       		.uleb128 0xb
 1262 011f 3B       		.uleb128 0x3b
 1263 0120 0B       		.uleb128 0xb
 1264 0121 39       		.uleb128 0x39
 1265 0122 0B       		.uleb128 0xb
 1266 0123 27       		.uleb128 0x27
 1267 0124 19       		.uleb128 0x19
 1268 0125 11       		.uleb128 0x11
 1269 0126 01       		.uleb128 0x1
 1270 0127 12       		.uleb128 0x12
 1271 0128 06       		.uleb128 0x6
 1272 0129 40       		.uleb128 0x40
 1273 012a 18       		.uleb128 0x18
 1274 012b 7A       		.uleb128 0x7a
 1275 012c 19       		.uleb128 0x19
 1276 012d 01       		.uleb128 0x1
 1277 012e 13       		.uleb128 0x13
 1278 012f 00       		.byte	0
 1279 0130 00       		.byte	0
 1280 0131 15       		.uleb128 0x15
 1281 0132 2E       		.uleb128 0x2e
 1282 0133 01       		.byte	0x1
 1283 0134 03       		.uleb128 0x3
 1284 0135 0E       		.uleb128 0xe
 1285 0136 3A       		.uleb128 0x3a
 1286 0137 0B       		.uleb128 0xb
 1287 0138 3B       		.uleb128 0x3b
 1288 0139 0B       		.uleb128 0xb
 1289 013a 39       		.uleb128 0x39
 1290 013b 0B       		.uleb128 0xb
 1291 013c 27       		.uleb128 0x27
 1292 013d 19       		.uleb128 0x19
 1293 013e 49       		.uleb128 0x49
 1294 013f 13       		.uleb128 0x13
 1295 0140 11       		.uleb128 0x11
 1296 0141 01       		.uleb128 0x1
 1297 0142 12       		.uleb128 0x12
 1298 0143 06       		.uleb128 0x6
 1299 0144 40       		.uleb128 0x40
 1300 0145 18       		.uleb128 0x18
 1301 0146 7C       		.uleb128 0x7c
 1302 0147 19       		.uleb128 0x19
 1303 0148 01       		.uleb128 0x1
 1304 0149 13       		.uleb128 0x13
 1305 014a 00       		.byte	0
 1306 014b 00       		.byte	0
 1307 014c 16       		.uleb128 0x16
 1308 014d 2E       		.uleb128 0x2e
 1309 014e 01       		.byte	0x1
 1310 014f 03       		.uleb128 0x3
 1311 0150 0E       		.uleb128 0xe
ARM GAS  C:\Users\DEVELO~1\AppData\Local\Temp\ccyXj666.s 			page 24


 1312 0151 3A       		.uleb128 0x3a
 1313 0152 0B       		.uleb128 0xb
 1314 0153 3B       		.uleb128 0x3b
 1315 0154 0B       		.uleb128 0xb
 1316 0155 39       		.uleb128 0x39
 1317 0156 0B       		.uleb128 0xb
 1318 0157 27       		.uleb128 0x27
 1319 0158 19       		.uleb128 0x19
 1320 0159 49       		.uleb128 0x49
 1321 015a 13       		.uleb128 0x13
 1322 015b 11       		.uleb128 0x11
 1323 015c 01       		.uleb128 0x1
 1324 015d 12       		.uleb128 0x12
 1325 015e 06       		.uleb128 0x6
 1326 015f 40       		.uleb128 0x40
 1327 0160 18       		.uleb128 0x18
 1328 0161 7C       		.uleb128 0x7c
 1329 0162 19       		.uleb128 0x19
 1330 0163 00       		.byte	0
 1331 0164 00       		.byte	0
 1332 0165 00       		.byte	0
 1333              		.section	.debug_aranges,"",%progbits
 1334 0000 44000000 		.4byte	0x44
 1335 0004 0200     		.2byte	0x2
 1336 0006 00000000 		.4byte	.Ldebug_info0
 1337 000a 04       		.byte	0x4
 1338 000b 00       		.byte	0
 1339 000c 0000     		.2byte	0
 1340 000e 0000     		.2byte	0
 1341 0010 00000000 		.4byte	.LFB432
 1342 0014 56000000 		.4byte	.LFE432-.LFB432
 1343 0018 00000000 		.4byte	.LFB433
 1344 001c 56000000 		.4byte	.LFE433-.LFB433
 1345 0020 00000000 		.4byte	.LFB434
 1346 0024 46000000 		.4byte	.LFE434-.LFB434
 1347 0028 00000000 		.4byte	.LFB435
 1348 002c 42000000 		.4byte	.LFE435-.LFB435
 1349 0030 00000000 		.4byte	.LFB436
 1350 0034 42000000 		.4byte	.LFE436-.LFB436
 1351 0038 00000000 		.4byte	.LFB437
 1352 003c 3C000000 		.4byte	.LFE437-.LFB437
 1353 0040 00000000 		.4byte	0
 1354 0044 00000000 		.4byte	0
 1355              		.section	.debug_rnglists,"",%progbits
 1356              	.Ldebug_ranges0:
 1357 0000 2D000000 		.4byte	.Ldebug_ranges3-.Ldebug_ranges2
 1358              	.Ldebug_ranges2:
 1359 0004 0500     		.2byte	0x5
 1360 0006 04       		.byte	0x4
 1361 0007 00       		.byte	0
 1362 0008 00000000 		.4byte	0
 1363              	.LLRL0:
 1364 000c 07       		.byte	0x7
 1365 000d 00000000 		.4byte	.LFB432
 1366 0011 56       		.uleb128 .LFE432-.LFB432
 1367 0012 07       		.byte	0x7
 1368 0013 00000000 		.4byte	.LFB433
ARM GAS  C:\Users\DEVELO~1\AppData\Local\Temp\ccyXj666.s 			page 25


 1369 0017 56       		.uleb128 .LFE433-.LFB433
 1370 0018 07       		.byte	0x7
 1371 0019 00000000 		.4byte	.LFB434
 1372 001d 46       		.uleb128 .LFE434-.LFB434
 1373 001e 07       		.byte	0x7
 1374 001f 00000000 		.4byte	.LFB435
 1375 0023 42       		.uleb128 .LFE435-.LFB435
 1376 0024 07       		.byte	0x7
 1377 0025 00000000 		.4byte	.LFB436
 1378 0029 42       		.uleb128 .LFE436-.LFB436
 1379 002a 07       		.byte	0x7
 1380 002b 00000000 		.4byte	.LFB437
 1381 002f 3C       		.uleb128 .LFE437-.LFB437
 1382 0030 00       		.byte	0
 1383              	.Ldebug_ranges3:
 1384              		.section	.debug_line,"",%progbits
 1385              	.Ldebug_line0:
 1386 0000 3E030000 		.section	.debug_str,"MS",%progbits,1
 1386      03000302 
 1386      00000201 
 1386      FB0E0D00 
 1386      01010101 
 1387              	.LASF5:
 1388 0000 5F5F7569 		.ascii	"__uint8_t\000"
 1388      6E74385F 
 1388      7400
 1389              	.LASF4:
 1390 000a 73697A65 		.ascii	"size_t\000"
 1390      5F7400
 1391              	.LASF28:
 1392 0011 5F707574 		.ascii	"_put\000"
 1392      00
 1393              	.LASF9:
 1394 0016 5F5F696E 		.ascii	"__int32_t\000"
 1394      7433325F 
 1394      7400
 1395              	.LASF0:
 1396 0020 756E7369 		.ascii	"unsigned int\000"
 1396      676E6564 
 1396      20696E74 
 1396      00
 1397              	.LASF33:
 1398 002d 4D656D53 		.ascii	"MemStreamVMT\000"
 1398      74726561 
 1398      6D564D54 
 1398      00
 1399              	.LASF2:
 1400 003a 6C6F6E67 		.ascii	"long double\000"
 1400      20646F75 
 1400      626C6500 
 1401              	.LASF3:
 1402 0046 7369676E 		.ascii	"signed char\000"
 1402      65642063 
 1402      68617200 
 1403              	.LASF6:
 1404 0052 756E7369 		.ascii	"unsigned char\000"
 1404      676E6564 
ARM GAS  C:\Users\DEVELO~1\AppData\Local\Temp\ccyXj666.s 			page 26


 1404      20636861 
 1404      7200
 1405              	.LASF8:
 1406 0060 73686F72 		.ascii	"short unsigned int\000"
 1406      7420756E 
 1406      7369676E 
 1406      65642069 
 1406      6E7400
 1407              	.LASF19:
 1408 0073 77726974 		.ascii	"write\000"
 1408      6500
 1409              	.LASF32:
 1410 0079 433A5C50 		.ascii	"C:\\PROJET\\ChibiOS project\\ChibiOS_21.11.4\\demos"
 1410      524F4A45 
 1410      545C4368 
 1410      6962694F 
 1410      53207072 
 1411 00a8 5C53544D 		.ascii	"\\STM32\\RT-STM32H743ZI_REV_XY-NUCLEO144_Quartz8M\000"
 1411      33325C52 
 1411      542D5354 
 1411      4D333248 
 1411      3734335A 
 1412              	.LASF35:
 1413 00d8 6D734F62 		.ascii	"msObjectInit\000"
 1413      6A656374 
 1413      496E6974 
 1413      00
 1414              	.LASF18:
 1415 00e5 696E7374 		.ascii	"instance_offset\000"
 1415      616E6365 
 1415      5F6F6666 
 1415      73657400 
 1416              	.LASF27:
 1417 00f5 5F676574 		.ascii	"_get\000"
 1417      00
 1418              	.LASF30:
 1419 00fa 474E5520 		.ascii	"GNU C17 11.3.1 20220712 -mcpu=cortex-m7 -mthumb -mf"
 1419      43313720 
 1419      31312E33 
 1419      2E312032 
 1419      30323230 
 1420 012d 6C6F6174 		.ascii	"loat-abi=soft -march=armv7e-m -ggdb -O0 -ffunction-"
 1420      2D616269 
 1420      3D736F66 
 1420      74202D6D 
 1420      61726368 
 1421 0160 73656374 		.ascii	"sections -fdata-sections -fno-common\000"
 1421      696F6E73 
 1421      202D6664 
 1421      6174612D 
 1421      73656374 
 1422              	.LASF20:
 1423 0185 72656164 		.ascii	"read\000"
 1423      00
 1424              	.LASF11:
 1425 018a 6C6F6E67 		.ascii	"long unsigned int\000"
 1425      20756E73 
ARM GAS  C:\Users\DEVELO~1\AppData\Local\Temp\ccyXj666.s 			page 27


 1425      69676E65 
 1425      6420696E 
 1425      7400
 1426              	.LASF21:
 1427 019c 756E6765 		.ascii	"unget\000"
 1427      7400
 1428              	.LASF23:
 1429 01a2 73697A65 		.ascii	"size\000"
 1429      00
 1430              	.LASF13:
 1431 01a7 63686172 		.ascii	"char\000"
 1431      00
 1432              	.LASF14:
 1433 01ac 75696E74 		.ascii	"uint8_t\000"
 1433      385F7400 
 1434              	.LASF16:
 1435 01b4 6D73675F 		.ascii	"msg_t\000"
 1435      7400
 1436              	.LASF29:
 1437 01ba 5F726561 		.ascii	"_reads\000"
 1437      647300
 1438              	.LASF15:
 1439 01c1 696E7433 		.ascii	"int32_t\000"
 1439      325F7400 
 1440              	.LASF36:
 1441 01c9 5F777269 		.ascii	"_writes\000"
 1441      74657300 
 1442              	.LASF1:
 1443 01d1 6C6F6E67 		.ascii	"long long int\000"
 1443      206C6F6E 
 1443      6720696E 
 1443      7400
 1444              	.LASF34:
 1445 01df 6D656D63 		.ascii	"memcpy\000"
 1445      707900
 1446              	.LASF31:
 1447 01e6 2E2E2F2E 		.ascii	"../../../os/hal/lib/streams/memstreams.c\000"
 1447      2E2F2E2E 
 1447      2F6F732F 
 1447      68616C2F 
 1447      6C69622F 
 1448              	.LASF24:
 1449 020f 6F666673 		.ascii	"offset\000"
 1449      657400
 1450              	.LASF7:
 1451 0216 73686F72 		.ascii	"short int\000"
 1451      7420696E 
 1451      7400
 1452              	.LASF22:
 1453 0220 62756666 		.ascii	"buffer\000"
 1453      657200
 1454              	.LASF10:
 1455 0227 6C6F6E67 		.ascii	"long int\000"
 1455      20696E74 
 1455      00
 1456              	.LASF25:
 1457 0230 4D656D6F 		.ascii	"MemoryStream\000"
ARM GAS  C:\Users\DEVELO~1\AppData\Local\Temp\ccyXj666.s 			page 28


 1457      72795374 
 1457      7265616D 
 1457      00
 1458              	.LASF26:
 1459 023d 5F756E67 		.ascii	"_unget\000"
 1459      657400
 1460              	.LASF17:
 1461 0244 5F426F6F 		.ascii	"_Bool\000"
 1461      6C00
 1462              	.LASF12:
 1463 024a 6C6F6E67 		.ascii	"long long unsigned int\000"
 1463      206C6F6E 
 1463      6720756E 
 1463      7369676E 
 1463      65642069 
 1464              		.ident	"GCC: (Arm GNU Toolchain 11.3.Rel1) 11.3.1 20220712"
ARM GAS  C:\Users\DEVELO~1\AppData\Local\Temp\ccyXj666.s 			page 29


DEFINED SYMBOLS
                            *ABS*:00000000 memstreams.c
C:\Users\DEVELO~1\AppData\Local\Temp\ccyXj666.s:18     .text._writes:00000000 $t
C:\Users\DEVELO~1\AppData\Local\Temp\ccyXj666.s:23     .text._writes:00000000 _writes
C:\Users\DEVELO~1\AppData\Local\Temp\ccyXj666.s:100    .text._reads:00000000 $t
C:\Users\DEVELO~1\AppData\Local\Temp\ccyXj666.s:105    .text._reads:00000000 _reads
C:\Users\DEVELO~1\AppData\Local\Temp\ccyXj666.s:181    .text._put:00000000 $t
C:\Users\DEVELO~1\AppData\Local\Temp\ccyXj666.s:186    .text._put:00000000 _put
C:\Users\DEVELO~1\AppData\Local\Temp\ccyXj666.s:254    .text._get:00000000 $t
C:\Users\DEVELO~1\AppData\Local\Temp\ccyXj666.s:259    .text._get:00000000 _get
C:\Users\DEVELO~1\AppData\Local\Temp\ccyXj666.s:325    .text._unget:00000000 $t
C:\Users\DEVELO~1\AppData\Local\Temp\ccyXj666.s:330    .text._unget:00000000 _unget
C:\Users\DEVELO~1\AppData\Local\Temp\ccyXj666.s:395    .rodata.vmt:00000000 $d
C:\Users\DEVELO~1\AppData\Local\Temp\ccyXj666.s:398    .rodata.vmt:00000000 vmt
C:\Users\DEVELO~1\AppData\Local\Temp\ccyXj666.s:406    .text.msObjectInit:00000000 $t
C:\Users\DEVELO~1\AppData\Local\Temp\ccyXj666.s:412    .text.msObjectInit:00000000 msObjectInit
C:\Users\DEVELO~1\AppData\Local\Temp\ccyXj666.s:464    .text.msObjectInit:00000038 $d

UNDEFINED SYMBOLS
memcpy
