ARM GAS  C:\Users\DEVELO~1\AppData\Local\Temp\ccBydanM.s 			page 1


   1              		.cpu cortex-m7
   2              		.arch armv7e-m
   3              		.fpu softvfp
   4              		.eabi_attribute 20, 1
   5              		.eabi_attribute 21, 1
   6              		.eabi_attribute 23, 3
   7              		.eabi_attribute 24, 1
   8              		.eabi_attribute 25, 1
   9              		.eabi_attribute 26, 1
  10              		.eabi_attribute 30, 6
  11              		.eabi_attribute 34, 1
  12              		.eabi_attribute 18, 4
  13              		.file	"midi.c"
  14              		.text
  15              	.Ltext0:
  16              		.cfi_sections	.debug_frame
  17              		.section	.text.chSysLock,"ax",%progbits
  18              		.align	1
  19              		.syntax unified
  20              		.thumb
  21              		.thumb_func
  22              		.type	chSysLock, %function
  23              	chSysLock:
  24              	.LFB202:
  25              		.file 1 "../../../os/rt/include/chsys.h"
  26              		.loc 1 407 36
  27              		.cfi_startproc
  28              		@ args = 0, pretend = 0, frame = 8
  29              		@ frame_needed = 1, uses_anonymous_args = 0
  30              		@ link register save eliminated.
  31 0000 80B4     		push	{r7}
  32              		.cfi_def_cfa_offset 4
  33              		.cfi_offset 7, -4
  34 0002 83B0     		sub	sp, sp, #12
  35              		.cfi_def_cfa_offset 16
  36 0004 00AF     		add	r7, sp, #0
  37              		.cfi_def_cfa_register 7
  38 0006 3023     		movs	r3, #48
  39 0008 7B60     		str	r3, [r7, #4]
  40              	.LBB34:
  41              	.LBB35:
  42              	.LBB36:
  43              	.LBB37:
  44              		.file 2 "../../../os/common/ext/ARM/CMSIS/Core/Include/cmsis_gcc.h"
  45              		.loc 2 493 3
  46 000a 7B68     		ldr	r3, [r7, #4]
  47              		.syntax unified
  48              	@ 493 "../../../os/common/ext/ARM/CMSIS/Core/Include/cmsis_gcc.h" 1
  49 000c 83F31188 		MSR basepri, r3
  50              	@ 0 "" 2
  51              		.loc 2 494 1
  52              		.thumb
  53              		.syntax unified
  54 0010 00BF     		nop
  55              	.LBE37:
  56              	.LBE36:
  57              		.file 3 "../../../os/common/ports/ARMv7-M/chcore.h"
ARM GAS  C:\Users\DEVELO~1\AppData\Local\Temp\ccBydanM.s 			page 2


  58              		.loc 3 840 1
  59 0012 00BF     		nop
  60              	.LBE35:
  61              	.LBE34:
  62              		.loc 1 412 1
  63 0014 00BF     		nop
  64 0016 0C37     		adds	r7, r7, #12
  65              		.cfi_def_cfa_offset 4
  66 0018 BD46     		mov	sp, r7
  67              		.cfi_def_cfa_register 13
  68              		@ sp needed
  69 001a 80BC     		pop	{r7}
  70              		.cfi_restore 7
  71              		.cfi_def_cfa_offset 0
  72 001c 7047     		bx	lr
  73              		.cfi_endproc
  74              	.LFE202:
  75              		.size	chSysLock, .-chSysLock
  76              		.section	.text.chSysUnlock,"ax",%progbits
  77              		.align	1
  78              		.syntax unified
  79              		.thumb
  80              		.thumb_func
  81              		.type	chSysUnlock, %function
  82              	chSysUnlock:
  83              	.LFB203:
  84              		.loc 1 421 38
  85              		.cfi_startproc
  86              		@ args = 0, pretend = 0, frame = 8
  87              		@ frame_needed = 1, uses_anonymous_args = 0
  88              		@ link register save eliminated.
  89 0000 80B4     		push	{r7}
  90              		.cfi_def_cfa_offset 4
  91              		.cfi_offset 7, -4
  92 0002 83B0     		sub	sp, sp, #12
  93              		.cfi_def_cfa_offset 16
  94 0004 00AF     		add	r7, sp, #0
  95              		.cfi_def_cfa_register 7
  96 0006 0023     		movs	r3, #0
  97 0008 7B60     		str	r3, [r7, #4]
  98              	.LBB38:
  99              	.LBB39:
 100              	.LBB40:
 101              	.LBB41:
 102              		.loc 2 493 3
 103 000a 7B68     		ldr	r3, [r7, #4]
 104              		.syntax unified
 105              	@ 493 "../../../os/common/ext/ARM/CMSIS/Core/Include/cmsis_gcc.h" 1
 106 000c 83F31188 		MSR basepri, r3
 107              	@ 0 "" 2
 108              		.loc 2 494 1
 109              		.thumb
 110              		.syntax unified
 111 0010 00BF     		nop
 112              	.LBE41:
 113              	.LBE40:
 114              		.loc 3 854 1
ARM GAS  C:\Users\DEVELO~1\AppData\Local\Temp\ccBydanM.s 			page 3


 115 0012 00BF     		nop
 116              	.LBE39:
 117              	.LBE38:
 118              		.loc 1 435 1
 119 0014 00BF     		nop
 120 0016 0C37     		adds	r7, r7, #12
 121              		.cfi_def_cfa_offset 4
 122 0018 BD46     		mov	sp, r7
 123              		.cfi_def_cfa_register 13
 124              		@ sp needed
 125 001a 80BC     		pop	{r7}
 126              		.cfi_restore 7
 127              		.cfi_def_cfa_offset 0
 128 001c 7047     		bx	lr
 129              		.cfi_endproc
 130              	.LFE203:
 131              		.size	chSysUnlock, .-chSysUnlock
 132              		.section	.text.chSysLockFromISR,"ax",%progbits
 133              		.align	1
 134              		.syntax unified
 135              		.thumb
 136              		.thumb_func
 137              		.type	chSysLockFromISR, %function
 138              	chSysLockFromISR:
 139              	.LFB204:
 140              		.loc 1 451 43
 141              		.cfi_startproc
 142              		@ args = 0, pretend = 0, frame = 8
 143              		@ frame_needed = 1, uses_anonymous_args = 0
 144              		@ link register save eliminated.
 145 0000 80B4     		push	{r7}
 146              		.cfi_def_cfa_offset 4
 147              		.cfi_offset 7, -4
 148 0002 83B0     		sub	sp, sp, #12
 149              		.cfi_def_cfa_offset 16
 150 0004 00AF     		add	r7, sp, #0
 151              		.cfi_def_cfa_register 7
 152 0006 3023     		movs	r3, #48
 153 0008 7B60     		str	r3, [r7, #4]
 154              	.LBB42:
 155              	.LBB43:
 156              	.LBB44:
 157              	.LBB45:
 158              	.LBB46:
 159              	.LBB47:
 160              		.loc 2 493 3
 161 000a 7B68     		ldr	r3, [r7, #4]
 162              		.syntax unified
 163              	@ 493 "../../../os/common/ext/ARM/CMSIS/Core/Include/cmsis_gcc.h" 1
 164 000c 83F31188 		MSR basepri, r3
 165              	@ 0 "" 2
 166              		.loc 2 494 1
 167              		.thumb
 168              		.syntax unified
 169 0010 00BF     		nop
 170              	.LBE47:
 171              	.LBE46:
ARM GAS  C:\Users\DEVELO~1\AppData\Local\Temp\ccBydanM.s 			page 4


 172              		.loc 3 840 1
 173 0012 00BF     		nop
 174              	.LBE45:
 175              	.LBE44:
 176              		.loc 3 865 1
 177 0014 00BF     		nop
 178              	.LBE43:
 179              	.LBE42:
 180              		.loc 1 456 1
 181 0016 00BF     		nop
 182 0018 0C37     		adds	r7, r7, #12
 183              		.cfi_def_cfa_offset 4
 184 001a BD46     		mov	sp, r7
 185              		.cfi_def_cfa_register 13
 186              		@ sp needed
 187 001c 80BC     		pop	{r7}
 188              		.cfi_restore 7
 189              		.cfi_def_cfa_offset 0
 190 001e 7047     		bx	lr
 191              		.cfi_endproc
 192              	.LFE204:
 193              		.size	chSysLockFromISR, .-chSysLockFromISR
 194              		.section	.text.chSysUnlockFromISR,"ax",%progbits
 195              		.align	1
 196              		.syntax unified
 197              		.thumb
 198              		.thumb_func
 199              		.type	chSysUnlockFromISR, %function
 200              	chSysUnlockFromISR:
 201              	.LFB205:
 202              		.loc 1 473 45
 203              		.cfi_startproc
 204              		@ args = 0, pretend = 0, frame = 8
 205              		@ frame_needed = 1, uses_anonymous_args = 0
 206              		@ link register save eliminated.
 207 0000 80B4     		push	{r7}
 208              		.cfi_def_cfa_offset 4
 209              		.cfi_offset 7, -4
 210 0002 83B0     		sub	sp, sp, #12
 211              		.cfi_def_cfa_offset 16
 212 0004 00AF     		add	r7, sp, #0
 213              		.cfi_def_cfa_register 7
 214 0006 0023     		movs	r3, #0
 215 0008 7B60     		str	r3, [r7, #4]
 216              	.LBB48:
 217              	.LBB49:
 218              	.LBB50:
 219              	.LBB51:
 220              	.LBB52:
 221              	.LBB53:
 222              		.loc 2 493 3
 223 000a 7B68     		ldr	r3, [r7, #4]
 224              		.syntax unified
 225              	@ 493 "../../../os/common/ext/ARM/CMSIS/Core/Include/cmsis_gcc.h" 1
 226 000c 83F31188 		MSR basepri, r3
 227              	@ 0 "" 2
 228              		.loc 2 494 1
ARM GAS  C:\Users\DEVELO~1\AppData\Local\Temp\ccBydanM.s 			page 5


 229              		.thumb
 230              		.syntax unified
 231 0010 00BF     		nop
 232              	.LBE53:
 233              	.LBE52:
 234              		.loc 3 854 1
 235 0012 00BF     		nop
 236              	.LBE51:
 237              	.LBE50:
 238              		.loc 3 876 1
 239 0014 00BF     		nop
 240              	.LBE49:
 241              	.LBE48:
 242              		.loc 1 478 1
 243 0016 00BF     		nop
 244 0018 0C37     		adds	r7, r7, #12
 245              		.cfi_def_cfa_offset 4
 246 001a BD46     		mov	sp, r7
 247              		.cfi_def_cfa_register 13
 248              		@ sp needed
 249 001c 80BC     		pop	{r7}
 250              		.cfi_restore 7
 251              		.cfi_def_cfa_offset 0
 252 001e 7047     		bx	lr
 253              		.cfi_endproc
 254              	.LFE205:
 255              		.size	chSysUnlockFromISR, .-chSysUnlockFromISR
 256              		.section	.text.chRegSetThreadName,"ax",%progbits
 257              		.align	1
 258              		.syntax unified
 259              		.thumb
 260              		.thumb_func
 261              		.type	chRegSetThreadName, %function
 262              	chRegSetThreadName:
 263              	.LFB240:
 264              		.file 4 "../../../os/rt/include/chregistry.h"
 265              		.loc 4 165 57
 266              		.cfi_startproc
 267              		@ args = 0, pretend = 0, frame = 8
 268              		@ frame_needed = 1, uses_anonymous_args = 0
 269              		@ link register save eliminated.
 270 0000 80B4     		push	{r7}
 271              		.cfi_def_cfa_offset 4
 272              		.cfi_offset 7, -4
 273 0002 83B0     		sub	sp, sp, #12
 274              		.cfi_def_cfa_offset 16
 275 0004 00AF     		add	r7, sp, #0
 276              		.cfi_def_cfa_register 7
 277 0006 7860     		str	r0, [r7, #4]
 278              		.loc 4 168 3
 279 0008 044B     		ldr	r3, .L6
 280 000a DB68     		ldr	r3, [r3, #12]
 281              		.loc 4 168 32
 282 000c 7A68     		ldr	r2, [r7, #4]
 283 000e DA61     		str	r2, [r3, #28]
 284              		.loc 4 172 1
 285 0010 00BF     		nop
ARM GAS  C:\Users\DEVELO~1\AppData\Local\Temp\ccBydanM.s 			page 6


 286 0012 0C37     		adds	r7, r7, #12
 287              		.cfi_def_cfa_offset 4
 288 0014 BD46     		mov	sp, r7
 289              		.cfi_def_cfa_register 13
 290              		@ sp needed
 291 0016 80BC     		pop	{r7}
 292              		.cfi_restore 7
 293              		.cfi_def_cfa_offset 0
 294 0018 7047     		bx	lr
 295              	.L7:
 296 001a 00BF     		.align	2
 297              	.L6:
 298 001c 00000000 		.word	ch0
 299              		.cfi_endproc
 300              	.LFE240:
 301              		.size	chRegSetThreadName, .-chRegSetThreadName
 302              		.section	.text.chBSemObjectInit,"ax",%progbits
 303              		.align	1
 304              		.syntax unified
 305              		.thumb
 306              		.thumb_func
 307              		.type	chBSemObjectInit, %function
 308              	chBSemObjectInit:
 309              	.LFB265:
 310              		.file 5 "../../../os/oslib/include/chbsem.h"
 311              		.loc 5 124 74
 312              		.cfi_startproc
 313              		@ args = 0, pretend = 0, frame = 8
 314              		@ frame_needed = 1, uses_anonymous_args = 0
 315 0000 80B5     		push	{r7, lr}
 316              		.cfi_def_cfa_offset 8
 317              		.cfi_offset 7, -8
 318              		.cfi_offset 14, -4
 319 0002 82B0     		sub	sp, sp, #8
 320              		.cfi_def_cfa_offset 16
 321 0004 00AF     		add	r7, sp, #0
 322              		.cfi_def_cfa_register 7
 323 0006 7860     		str	r0, [r7, #4]
 324 0008 0B46     		mov	r3, r1
 325 000a FB70     		strb	r3, [r7, #3]
 326              		.loc 5 126 3
 327 000c 7A68     		ldr	r2, [r7, #4]
 328              		.loc 5 126 47
 329 000e FB78     		ldrb	r3, [r7, #3]
 330 0010 83F00103 		eor	r3, r3, #1
 331 0014 DBB2     		uxtb	r3, r3
 332              		.loc 5 126 3
 333 0016 1946     		mov	r1, r3
 334 0018 1046     		mov	r0, r2
 335 001a FFF7FEFF 		bl	chSemObjectInit
 336              		.loc 5 127 1
 337 001e 00BF     		nop
 338 0020 0837     		adds	r7, r7, #8
 339              		.cfi_def_cfa_offset 8
 340 0022 BD46     		mov	sp, r7
 341              		.cfi_def_cfa_register 13
 342              		@ sp needed
ARM GAS  C:\Users\DEVELO~1\AppData\Local\Temp\ccBydanM.s 			page 7


 343 0024 80BD     		pop	{r7, pc}
 344              		.cfi_endproc
 345              	.LFE265:
 346              		.size	chBSemObjectInit, .-chBSemObjectInit
 347              		.section	.text.chBSemWaitTimeout,"ax",%progbits
 348              		.align	1
 349              		.syntax unified
 350              		.thumb
 351              		.thumb_func
 352              		.type	chBSemWaitTimeout, %function
 353              	chBSemWaitTimeout:
 354              	.LFB269:
 355              		.loc 5 212 62
 356              		.cfi_startproc
 357              		@ args = 0, pretend = 0, frame = 8
 358              		@ frame_needed = 1, uses_anonymous_args = 0
 359 0000 80B5     		push	{r7, lr}
 360              		.cfi_def_cfa_offset 8
 361              		.cfi_offset 7, -8
 362              		.cfi_offset 14, -4
 363 0002 82B0     		sub	sp, sp, #8
 364              		.cfi_def_cfa_offset 16
 365 0004 00AF     		add	r7, sp, #0
 366              		.cfi_def_cfa_register 7
 367 0006 7860     		str	r0, [r7, #4]
 368 0008 3960     		str	r1, [r7]
 369              		.loc 5 214 10
 370 000a 7B68     		ldr	r3, [r7, #4]
 371 000c 3968     		ldr	r1, [r7]
 372 000e 1846     		mov	r0, r3
 373 0010 FFF7FEFF 		bl	chSemWaitTimeout
 374 0014 0346     		mov	r3, r0
 375              		.loc 5 215 1
 376 0016 1846     		mov	r0, r3
 377 0018 0837     		adds	r7, r7, #8
 378              		.cfi_def_cfa_offset 8
 379 001a BD46     		mov	sp, r7
 380              		.cfi_def_cfa_register 13
 381              		@ sp needed
 382 001c 80BD     		pop	{r7, pc}
 383              		.cfi_endproc
 384              	.LFE269:
 385              		.size	chBSemWaitTimeout, .-chBSemWaitTimeout
 386              		.section	.text.osalSysLock,"ax",%progbits
 387              		.align	1
 388              		.syntax unified
 389              		.thumb
 390              		.thumb_func
 391              		.type	osalSysLock, %function
 392              	osalSysLock:
 393              	.LFB350:
 394              		.file 6 "../../../os/hal/osal/rt-nil/osal.h"
 395              		.loc 6 573 38
 396              		.cfi_startproc
 397              		@ args = 0, pretend = 0, frame = 0
 398              		@ frame_needed = 1, uses_anonymous_args = 0
 399 0000 80B5     		push	{r7, lr}
ARM GAS  C:\Users\DEVELO~1\AppData\Local\Temp\ccBydanM.s 			page 8


 400              		.cfi_def_cfa_offset 8
 401              		.cfi_offset 7, -8
 402              		.cfi_offset 14, -4
 403 0002 00AF     		add	r7, sp, #0
 404              		.cfi_def_cfa_register 7
 405              		.loc 6 575 3
 406 0004 FFF7FEFF 		bl	chSysLock
 407              		.loc 6 576 1
 408 0008 00BF     		nop
 409 000a 80BD     		pop	{r7, pc}
 410              		.cfi_endproc
 411              	.LFE350:
 412              		.size	osalSysLock, .-osalSysLock
 413              		.section	.text.osalSysUnlock,"ax",%progbits
 414              		.align	1
 415              		.syntax unified
 416              		.thumb
 417              		.thumb_func
 418              		.type	osalSysUnlock, %function
 419              	osalSysUnlock:
 420              	.LFB351:
 421              		.loc 6 584 40
 422              		.cfi_startproc
 423              		@ args = 0, pretend = 0, frame = 0
 424              		@ frame_needed = 1, uses_anonymous_args = 0
 425 0000 80B5     		push	{r7, lr}
 426              		.cfi_def_cfa_offset 8
 427              		.cfi_offset 7, -8
 428              		.cfi_offset 14, -4
 429 0002 00AF     		add	r7, sp, #0
 430              		.cfi_def_cfa_register 7
 431              		.loc 6 586 3
 432 0004 FFF7FEFF 		bl	chSysUnlock
 433              		.loc 6 587 1
 434 0008 00BF     		nop
 435 000a 80BD     		pop	{r7, pc}
 436              		.cfi_endproc
 437              	.LFE351:
 438              		.size	osalSysUnlock, .-osalSysUnlock
 439              		.section	.text.osalSysLockFromISR,"ax",%progbits
 440              		.align	1
 441              		.syntax unified
 442              		.thumb
 443              		.thumb_func
 444              		.type	osalSysLockFromISR, %function
 445              	osalSysLockFromISR:
 446              	.LFB352:
 447              		.loc 6 595 45
 448              		.cfi_startproc
 449              		@ args = 0, pretend = 0, frame = 0
 450              		@ frame_needed = 1, uses_anonymous_args = 0
 451 0000 80B5     		push	{r7, lr}
 452              		.cfi_def_cfa_offset 8
 453              		.cfi_offset 7, -8
 454              		.cfi_offset 14, -4
 455 0002 00AF     		add	r7, sp, #0
 456              		.cfi_def_cfa_register 7
ARM GAS  C:\Users\DEVELO~1\AppData\Local\Temp\ccBydanM.s 			page 9


 457              		.loc 6 597 3
 458 0004 FFF7FEFF 		bl	chSysLockFromISR
 459              		.loc 6 598 1
 460 0008 00BF     		nop
 461 000a 80BD     		pop	{r7, pc}
 462              		.cfi_endproc
 463              	.LFE352:
 464              		.size	osalSysLockFromISR, .-osalSysLockFromISR
 465              		.section	.text.osalSysUnlockFromISR,"ax",%progbits
 466              		.align	1
 467              		.syntax unified
 468              		.thumb
 469              		.thumb_func
 470              		.type	osalSysUnlockFromISR, %function
 471              	osalSysUnlockFromISR:
 472              	.LFB353:
 473              		.loc 6 606 47
 474              		.cfi_startproc
 475              		@ args = 0, pretend = 0, frame = 0
 476              		@ frame_needed = 1, uses_anonymous_args = 0
 477 0000 80B5     		push	{r7, lr}
 478              		.cfi_def_cfa_offset 8
 479              		.cfi_offset 7, -8
 480              		.cfi_offset 14, -4
 481 0002 00AF     		add	r7, sp, #0
 482              		.cfi_def_cfa_register 7
 483              		.loc 6 608 3
 484 0004 FFF7FEFF 		bl	chSysUnlockFromISR
 485              		.loc 6 609 1
 486 0008 00BF     		nop
 487 000a 80BD     		pop	{r7, pc}
 488              		.cfi_endproc
 489              	.LFE353:
 490              		.size	osalSysUnlockFromISR, .-osalSysUnlockFromISR
 491              		.section	.bss.midi_initialized,"aw",%nobits
 492              		.type	midi_initialized, %object
 493              		.size	midi_initialized, 1
 494              	midi_initialized:
 495 0000 00       		.space	1
 496              		.section	.text.midi_usb_ready,"ax",%progbits
 497              		.align	1
 498              		.syntax unified
 499              		.thumb
 500              		.thumb_func
 501              		.type	midi_usb_ready, %function
 502              	midi_usb_ready:
 503              	.LFB432:
 504              		.file 7 "midi/midi.c"
 505              		.loc 7 42 41
 506              		.cfi_startproc
 507              		@ args = 0, pretend = 0, frame = 8
 508              		@ frame_needed = 1, uses_anonymous_args = 0
 509 0000 80B5     		push	{r7, lr}
 510              		.cfi_def_cfa_offset 8
 511              		.cfi_offset 7, -8
 512              		.cfi_offset 14, -4
 513 0002 82B0     		sub	sp, sp, #8
ARM GAS  C:\Users\DEVELO~1\AppData\Local\Temp\ccBydanM.s 			page 10


 514              		.cfi_def_cfa_offset 16
 515 0004 00AF     		add	r7, sp, #0
 516              		.cfi_def_cfa_register 7
 517              		.loc 7 44 3
 518 0006 FFF7FEFF 		bl	osalSysLock
 519              		.loc 7 45 9
 520 000a 054B     		ldr	r3, .L17
 521 000c 1B78     		ldrb	r3, [r3]
 522 000e FB71     		strb	r3, [r7, #7]
 523              		.loc 7 46 3
 524 0010 FFF7FEFF 		bl	osalSysUnlock
 525              		.loc 7 47 10
 526 0014 FB79     		ldrb	r3, [r7, #7]	@ zero_extendqisi2
 527              		.loc 7 48 1
 528 0016 1846     		mov	r0, r3
 529 0018 0837     		adds	r7, r7, #8
 530              		.cfi_def_cfa_offset 8
 531 001a BD46     		mov	sp, r7
 532              		.cfi_def_cfa_register 13
 533              		@ sp needed
 534 001c 80BD     		pop	{r7, pc}
 535              	.L18:
 536 001e 00BF     		.align	2
 537              	.L17:
 538 0020 00000000 		.word	usb_midi_tx_ready
 539              		.cfi_endproc
 540              	.LFE432:
 541              		.size	midi_usb_ready, .-midi_usb_ready
 542              		.section	.text.midi_usb_flush_tx_cache,"ax",%progbits
 543              		.align	1
 544              		.syntax unified
 545              		.thumb
 546              		.thumb_func
 547              		.type	midi_usb_flush_tx_cache, %function
 548              	midi_usb_flush_tx_cache:
 549              	.LFB433:
 550              		.loc 7 59 74
 551              		.cfi_startproc
 552              		@ args = 0, pretend = 0, frame = 8
 553              		@ frame_needed = 1, uses_anonymous_args = 0
 554              		@ link register save eliminated.
 555 0000 80B4     		push	{r7}
 556              		.cfi_def_cfa_offset 4
 557              		.cfi_offset 7, -4
 558 0002 83B0     		sub	sp, sp, #12
 559              		.cfi_def_cfa_offset 16
 560 0004 00AF     		add	r7, sp, #0
 561              		.cfi_def_cfa_register 7
 562 0006 7860     		str	r0, [r7, #4]
 563 0008 3960     		str	r1, [r7]
 564              		.loc 7 61 1
 565 000a 00BF     		nop
 566 000c 0C37     		adds	r7, r7, #12
 567              		.cfi_def_cfa_offset 4
 568 000e BD46     		mov	sp, r7
 569              		.cfi_def_cfa_register 13
 570              		@ sp needed
ARM GAS  C:\Users\DEVELO~1\AppData\Local\Temp\ccBydanM.s 			page 11


 571 0010 80BC     		pop	{r7}
 572              		.cfi_restore 7
 573              		.cfi_def_cfa_offset 0
 574 0012 7047     		bx	lr
 575              		.cfi_endproc
 576              	.LFE433:
 577              		.size	midi_usb_flush_tx_cache, .-midi_usb_flush_tx_cache
 578              		.section	.text.midi_internal_receive,"ax",%progbits
 579              		.align	1
 580              		.weak	midi_internal_receive
 581              		.syntax unified
 582              		.thumb
 583              		.thumb_func
 584              		.type	midi_internal_receive, %function
 585              	midi_internal_receive:
 586              	.LFB434:
 587              		.loc 7 65 82
 588              		.cfi_startproc
 589              		@ args = 0, pretend = 0, frame = 8
 590              		@ frame_needed = 1, uses_anonymous_args = 0
 591              		@ link register save eliminated.
 592 0000 80B4     		push	{r7}
 593              		.cfi_def_cfa_offset 4
 594              		.cfi_offset 7, -4
 595 0002 83B0     		sub	sp, sp, #12
 596              		.cfi_def_cfa_offset 16
 597 0004 00AF     		add	r7, sp, #0
 598              		.cfi_def_cfa_register 7
 599 0006 7860     		str	r0, [r7, #4]
 600 0008 3960     		str	r1, [r7]
 601              		.loc 7 67 1
 602 000a 00BF     		nop
 603 000c 0C37     		adds	r7, r7, #12
 604              		.cfi_def_cfa_offset 4
 605 000e BD46     		mov	sp, r7
 606              		.cfi_def_cfa_register 13
 607              		@ sp needed
 608 0010 80BC     		pop	{r7}
 609              		.cfi_restore 7
 610              		.cfi_def_cfa_offset 0
 611 0012 7047     		bx	lr
 612              		.cfi_endproc
 613              	.LFE434:
 614              		.size	midi_internal_receive, .-midi_internal_receive
 615              		.section	.bss.midi_usb_mb,"aw",%nobits
 616              		.align	2
 617              		.type	midi_usb_mb, %object
 618              		.size	midi_usb_mb, 40
 619              	midi_usb_mb:
 620 0000 00000000 		.space	40
 620      00000000 
 620      00000000 
 620      00000000 
 620      00000000 
 621              		.section	.bss.midi_usb_queue,"aw",%nobits
 622              		.align	2
 623              		.type	midi_usb_queue, %object
ARM GAS  C:\Users\DEVELO~1\AppData\Local\Temp\ccBydanM.s 			page 12


 624              		.size	midi_usb_queue, 1024
 625              	midi_usb_queue:
 626 0000 00000000 		.space	1024
 626      00000000 
 626      00000000 
 626      00000000 
 626      00000000 
 627              		.section	.bss.midi_usb_queue_fill,"aw",%nobits
 628              		.align	1
 629              		.type	midi_usb_queue_fill, %object
 630              		.size	midi_usb_queue_fill, 2
 631              	midi_usb_queue_fill:
 632 0000 0000     		.space	2
 633              		.section	.bss.midi_usb_queue_high_water,"aw",%nobits
 634              		.align	1
 635              		.type	midi_usb_queue_high_water, %object
 636              		.size	midi_usb_queue_high_water, 2
 637              	midi_usb_queue_high_water:
 638 0000 0000     		.space	2
 639              		.section	.bss.midi_usb_rx_mb,"aw",%nobits
 640              		.align	2
 641              		.type	midi_usb_rx_mb, %object
 642              		.size	midi_usb_rx_mb, 40
 643              	midi_usb_rx_mb:
 644 0000 00000000 		.space	40
 644      00000000 
 644      00000000 
 644      00000000 
 644      00000000 
 645              		.section	.bss.midi_usb_rx_queue,"aw",%nobits
 646              		.align	2
 647              		.type	midi_usb_rx_queue, %object
 648              		.size	midi_usb_rx_queue, 512
 649              	midi_usb_rx_queue:
 650 0000 00000000 		.space	512
 650      00000000 
 650      00000000 
 650      00000000 
 650      00000000 
 651              		.section	.bss.midi_usb_rx_queue_fill,"aw",%nobits
 652              		.align	1
 653              		.type	midi_usb_rx_queue_fill, %object
 654              		.size	midi_usb_rx_queue_fill, 2
 655              	midi_usb_rx_queue_fill:
 656 0000 0000     		.space	2
 657              		.section	.bss.midi_usb_rx_queue_high_water,"aw",%nobits
 658              		.align	1
 659              		.type	midi_usb_rx_queue_high_water, %object
 660              		.size	midi_usb_rx_queue_high_water, 2
 661              	midi_usb_rx_queue_high_water:
 662 0000 0000     		.space	2
 663              		.global	midi_usb_rx_drops
 664              		.section	.bss.midi_usb_rx_drops,"aw",%nobits
 665              		.align	2
 666              		.type	midi_usb_rx_drops, %object
 667              		.size	midi_usb_rx_drops, 4
 668              	midi_usb_rx_drops:
ARM GAS  C:\Users\DEVELO~1\AppData\Local\Temp\ccBydanM.s 			page 13


 669 0000 00000000 		.space	4
 670              		.section	.text.midi_usb_queue_increment,"ax",%progbits
 671              		.align	1
 672              		.syntax unified
 673              		.thumb
 674              		.thumb_func
 675              		.type	midi_usb_queue_increment, %function
 676              	midi_usb_queue_increment:
 677              	.LFB435:
 678              		.loc 7 121 51
 679              		.cfi_startproc
 680              		@ args = 0, pretend = 0, frame = 0
 681              		@ frame_needed = 1, uses_anonymous_args = 0
 682 0000 80B5     		push	{r7, lr}
 683              		.cfi_def_cfa_offset 8
 684              		.cfi_offset 7, -8
 685              		.cfi_offset 14, -4
 686 0002 00AF     		add	r7, sp, #0
 687              		.cfi_def_cfa_register 7
 688              		.loc 7 122 3
 689 0004 FFF7FEFF 		bl	osalSysLock
 690              		.loc 7 123 27
 691 0008 0B4B     		ldr	r3, .L23
 692 000a 1B88     		ldrh	r3, [r3]
 693              		.loc 7 123 6
 694 000c FF2B     		cmp	r3, #255
 695 000e 0FD8     		bhi	.L22
 696              		.loc 7 124 24
 697 0010 094B     		ldr	r3, .L23
 698 0012 1B88     		ldrh	r3, [r3]
 699 0014 0133     		adds	r3, r3, #1
 700 0016 9AB2     		uxth	r2, r3
 701 0018 074B     		ldr	r3, .L23
 702 001a 1A80     		strh	r2, [r3]	@ movhi
 703              		.loc 7 125 29
 704 001c 064B     		ldr	r3, .L23
 705 001e 1A88     		ldrh	r2, [r3]
 706 0020 064B     		ldr	r3, .L23+4
 707 0022 1B88     		ldrh	r3, [r3]
 708              		.loc 7 125 8
 709 0024 9A42     		cmp	r2, r3
 710 0026 03D9     		bls	.L22
 711              		.loc 7 126 33
 712 0028 034B     		ldr	r3, .L23
 713 002a 1A88     		ldrh	r2, [r3]
 714 002c 034B     		ldr	r3, .L23+4
 715 002e 1A80     		strh	r2, [r3]	@ movhi
 716              	.L22:
 717              		.loc 7 129 3
 718 0030 FFF7FEFF 		bl	osalSysUnlock
 719              		.loc 7 130 1
 720 0034 00BF     		nop
 721 0036 80BD     		pop	{r7, pc}
 722              	.L24:
 723              		.align	2
 724              	.L23:
 725 0038 00000000 		.word	midi_usb_queue_fill
ARM GAS  C:\Users\DEVELO~1\AppData\Local\Temp\ccBydanM.s 			page 14


 726 003c 00000000 		.word	midi_usb_queue_high_water
 727              		.cfi_endproc
 728              	.LFE435:
 729              		.size	midi_usb_queue_increment, .-midi_usb_queue_increment
 730              		.section	.text.midi_usb_queue_decrement,"ax",%progbits
 731              		.align	1
 732              		.syntax unified
 733              		.thumb
 734              		.thumb_func
 735              		.type	midi_usb_queue_decrement, %function
 736              	midi_usb_queue_decrement:
 737              	.LFB436:
 738              		.loc 7 132 51
 739              		.cfi_startproc
 740              		@ args = 0, pretend = 0, frame = 0
 741              		@ frame_needed = 1, uses_anonymous_args = 0
 742 0000 80B5     		push	{r7, lr}
 743              		.cfi_def_cfa_offset 8
 744              		.cfi_offset 7, -8
 745              		.cfi_offset 14, -4
 746 0002 00AF     		add	r7, sp, #0
 747              		.cfi_def_cfa_register 7
 748              		.loc 7 133 3
 749 0004 FFF7FEFF 		bl	osalSysLock
 750              		.loc 7 134 27
 751 0008 064B     		ldr	r3, .L27
 752 000a 1B88     		ldrh	r3, [r3]
 753              		.loc 7 134 6
 754 000c 002B     		cmp	r3, #0
 755 000e 05D0     		beq	.L26
 756              		.loc 7 135 24
 757 0010 044B     		ldr	r3, .L27
 758 0012 1B88     		ldrh	r3, [r3]
 759 0014 013B     		subs	r3, r3, #1
 760 0016 9AB2     		uxth	r2, r3
 761 0018 024B     		ldr	r3, .L27
 762 001a 1A80     		strh	r2, [r3]	@ movhi
 763              	.L26:
 764              		.loc 7 137 3
 765 001c FFF7FEFF 		bl	osalSysUnlock
 766              		.loc 7 138 1
 767 0020 00BF     		nop
 768 0022 80BD     		pop	{r7, pc}
 769              	.L28:
 770              		.align	2
 771              	.L27:
 772 0024 00000000 		.word	midi_usb_queue_fill
 773              		.cfi_endproc
 774              	.LFE436:
 775              		.size	midi_usb_queue_decrement, .-midi_usb_queue_decrement
 776              		.section	.text.midi_usb_rx_queue_increment_i,"ax",%progbits
 777              		.align	1
 778              		.syntax unified
 779              		.thumb
 780              		.thumb_func
 781              		.type	midi_usb_rx_queue_increment_i, %function
 782              	midi_usb_rx_queue_increment_i:
ARM GAS  C:\Users\DEVELO~1\AppData\Local\Temp\ccBydanM.s 			page 15


 783              	.LFB437:
 784              		.loc 7 140 56
 785              		.cfi_startproc
 786              		@ args = 0, pretend = 0, frame = 0
 787              		@ frame_needed = 1, uses_anonymous_args = 0
 788              		@ link register save eliminated.
 789 0000 80B4     		push	{r7}
 790              		.cfi_def_cfa_offset 4
 791              		.cfi_offset 7, -4
 792 0002 00AF     		add	r7, sp, #0
 793              		.cfi_def_cfa_register 7
 794              		.loc 7 142 30
 795 0004 0B4B     		ldr	r3, .L32
 796 0006 1B88     		ldrh	r3, [r3]
 797              		.loc 7 142 6
 798 0008 7F2B     		cmp	r3, #127
 799 000a 0FD8     		bhi	.L31
 800              		.loc 7 143 27
 801 000c 094B     		ldr	r3, .L32
 802 000e 1B88     		ldrh	r3, [r3]
 803 0010 0133     		adds	r3, r3, #1
 804 0012 9AB2     		uxth	r2, r3
 805 0014 074B     		ldr	r3, .L32
 806 0016 1A80     		strh	r2, [r3]	@ movhi
 807              		.loc 7 144 32
 808 0018 064B     		ldr	r3, .L32
 809 001a 1A88     		ldrh	r2, [r3]
 810 001c 064B     		ldr	r3, .L32+4
 811 001e 1B88     		ldrh	r3, [r3]
 812              		.loc 7 144 8
 813 0020 9A42     		cmp	r2, r3
 814 0022 03D9     		bls	.L31
 815              		.loc 7 145 36
 816 0024 034B     		ldr	r3, .L32
 817 0026 1A88     		ldrh	r2, [r3]
 818 0028 034B     		ldr	r3, .L32+4
 819 002a 1A80     		strh	r2, [r3]	@ movhi
 820              	.L31:
 821              		.loc 7 148 1
 822 002c 00BF     		nop
 823 002e BD46     		mov	sp, r7
 824              		.cfi_def_cfa_register 13
 825              		@ sp needed
 826 0030 80BC     		pop	{r7}
 827              		.cfi_restore 7
 828              		.cfi_def_cfa_offset 0
 829 0032 7047     		bx	lr
 830              	.L33:
 831              		.align	2
 832              	.L32:
 833 0034 00000000 		.word	midi_usb_rx_queue_fill
 834 0038 00000000 		.word	midi_usb_rx_queue_high_water
 835              		.cfi_endproc
 836              	.LFE437:
 837              		.size	midi_usb_rx_queue_increment_i, .-midi_usb_rx_queue_increment_i
 838              		.section	.text.midi_usb_rx_queue_decrement,"ax",%progbits
 839              		.align	1
ARM GAS  C:\Users\DEVELO~1\AppData\Local\Temp\ccBydanM.s 			page 16


 840              		.syntax unified
 841              		.thumb
 842              		.thumb_func
 843              		.type	midi_usb_rx_queue_decrement, %function
 844              	midi_usb_rx_queue_decrement:
 845              	.LFB438:
 846              		.loc 7 150 54
 847              		.cfi_startproc
 848              		@ args = 0, pretend = 0, frame = 0
 849              		@ frame_needed = 1, uses_anonymous_args = 0
 850              		@ link register save eliminated.
 851 0000 80B4     		push	{r7}
 852              		.cfi_def_cfa_offset 4
 853              		.cfi_offset 7, -4
 854 0002 00AF     		add	r7, sp, #0
 855              		.cfi_def_cfa_register 7
 856              		.loc 7 152 30
 857 0004 064B     		ldr	r3, .L37
 858 0006 1B88     		ldrh	r3, [r3]
 859              		.loc 7 152 6
 860 0008 002B     		cmp	r3, #0
 861 000a 05D0     		beq	.L36
 862              		.loc 7 153 27
 863 000c 044B     		ldr	r3, .L37
 864 000e 1B88     		ldrh	r3, [r3]
 865 0010 013B     		subs	r3, r3, #1
 866 0012 9AB2     		uxth	r2, r3
 867 0014 024B     		ldr	r3, .L37
 868 0016 1A80     		strh	r2, [r3]	@ movhi
 869              	.L36:
 870              		.loc 7 155 1
 871 0018 00BF     		nop
 872 001a BD46     		mov	sp, r7
 873              		.cfi_def_cfa_register 13
 874              		@ sp needed
 875 001c 80BC     		pop	{r7}
 876              		.cfi_restore 7
 877              		.cfi_def_cfa_offset 0
 878 001e 7047     		bx	lr
 879              	.L38:
 880              		.align	2
 881              	.L37:
 882 0020 00000000 		.word	midi_usb_rx_queue_fill
 883              		.cfi_endproc
 884              	.LFE438:
 885              		.size	midi_usb_rx_queue_decrement, .-midi_usb_rx_queue_decrement
 886              		.section	.text.midi_usb_start_tx,"ax",%progbits
 887              		.align	1
 888              		.syntax unified
 889              		.thumb
 890              		.thumb_func
 891              		.type	midi_usb_start_tx, %function
 892              	midi_usb_start_tx:
 893              	.LFB439:
 894              		.loc 7 157 73
 895              		.cfi_startproc
 896              		@ args = 0, pretend = 0, frame = 8
ARM GAS  C:\Users\DEVELO~1\AppData\Local\Temp\ccBydanM.s 			page 17


 897              		@ frame_needed = 1, uses_anonymous_args = 0
 898 0000 80B5     		push	{r7, lr}
 899              		.cfi_def_cfa_offset 8
 900              		.cfi_offset 7, -8
 901              		.cfi_offset 14, -4
 902 0002 82B0     		sub	sp, sp, #8
 903              		.cfi_def_cfa_offset 16
 904 0004 00AF     		add	r7, sp, #0
 905              		.cfi_def_cfa_register 7
 906 0006 7860     		str	r0, [r7, #4]
 907 0008 3960     		str	r1, [r7]
 908              		.loc 7 158 3
 909 000a 3968     		ldr	r1, [r7]
 910 000c 7868     		ldr	r0, [r7, #4]
 911 000e FFF7FEFF 		bl	midi_usb_flush_tx_cache
 912              		.loc 7 159 3
 913 0012 FFF7FEFF 		bl	osalSysLock
 914              		.loc 7 160 3
 915 0016 3B68     		ldr	r3, [r7]
 916 0018 7A68     		ldr	r2, [r7, #4]
 917 001a 0221     		movs	r1, #2
 918 001c 0448     		ldr	r0, .L40
 919 001e FFF7FEFF 		bl	usbStartTransmitI
 920              		.loc 7 161 3
 921 0022 FFF7FEFF 		bl	osalSysUnlock
 922              		.loc 7 162 1
 923 0026 00BF     		nop
 924 0028 0837     		adds	r7, r7, #8
 925              		.cfi_def_cfa_offset 8
 926 002a BD46     		mov	sp, r7
 927              		.cfi_def_cfa_register 13
 928              		@ sp needed
 929 002c 80BD     		pop	{r7, pc}
 930              	.L41:
 931 002e 00BF     		.align	2
 932              	.L40:
 933 0030 00000000 		.word	USBD1
 934              		.cfi_endproc
 935              	.LFE439:
 936              		.size	midi_usb_start_tx, .-midi_usb_start_tx
 937              		.section	.text.midi_usb_rx_submit_from_isr,"ax",%progbits
 938              		.align	1
 939              		.global	midi_usb_rx_submit_from_isr
 940              		.syntax unified
 941              		.thumb
 942              		.thumb_func
 943              		.type	midi_usb_rx_submit_from_isr, %function
 944              	midi_usb_rx_submit_from_isr:
 945              	.LFB440:
 946              		.loc 7 164 69
 947              		.cfi_startproc
 948              		@ args = 0, pretend = 0, frame = 24
 949              		@ frame_needed = 1, uses_anonymous_args = 0
 950 0000 80B5     		push	{r7, lr}
 951              		.cfi_def_cfa_offset 8
 952              		.cfi_offset 7, -8
 953              		.cfi_offset 14, -4
ARM GAS  C:\Users\DEVELO~1\AppData\Local\Temp\ccBydanM.s 			page 18


 954 0002 86B0     		sub	sp, sp, #24
 955              		.cfi_def_cfa_offset 32
 956 0004 00AF     		add	r7, sp, #0
 957              		.cfi_def_cfa_register 7
 958 0006 7860     		str	r0, [r7, #4]
 959 0008 3960     		str	r1, [r7]
 960              		.loc 7 165 6
 961 000a 7B68     		ldr	r3, [r7, #4]
 962 000c 002B     		cmp	r3, #0
 963 000e 58D0     		beq	.L52
 964              		.loc 7 165 24 discriminator 1
 965 0010 3B68     		ldr	r3, [r7]
 966 0012 032B     		cmp	r3, #3
 967 0014 55D9     		bls	.L52
 968              		.loc 7 169 16
 969 0016 3B68     		ldr	r3, [r7]
 970 0018 9B08     		lsrs	r3, r3, #2
 971 001a 3B61     		str	r3, [r7, #16]
 972              		.loc 7 171 3
 973 001c FFF7FEFF 		bl	osalSysLockFromISR
 974              		.loc 7 172 21
 975 0020 2A4B     		ldr	r3, .L53
 976 0022 1B68     		ldr	r3, [r3]
 977              		.loc 7 172 6
 978 0024 002B     		cmp	r3, #0
 979 0026 02D1     		bne	.L46
 980              		.loc 7 173 5
 981 0028 FFF7FEFF 		bl	osalSysUnlockFromISR
 982              		.loc 7 174 5
 983 002c 4AE0     		b	.L42
 984              	.L46:
 985              	.LBB54:
 986              		.loc 7 177 15
 987 002e 0023     		movs	r3, #0
 988 0030 7B61     		str	r3, [r7, #20]
 989              		.loc 7 177 3
 990 0032 3FE0     		b	.L47
 991              	.L51:
 992              		.loc 7 178 32
 993 0034 264B     		ldr	r3, .L53+4
 994 0036 1B88     		ldrh	r3, [r3]
 995              		.loc 7 178 8
 996 0038 7F2B     		cmp	r3, #127
 997 003a 0AD9     		bls	.L48
 998              		.loc 7 179 24
 999 003c 254B     		ldr	r3, .L53+8
 1000 003e 1B68     		ldr	r3, [r3]
 1001 0040 0133     		adds	r3, r3, #1
 1002 0042 244A     		ldr	r2, .L53+8
 1003 0044 1360     		str	r3, [r2]
 1004              		.loc 7 180 20
 1005 0046 244B     		ldr	r3, .L53+12
 1006 0048 5B68     		ldr	r3, [r3, #4]
 1007              		.loc 7 180 33
 1008 004a 0133     		adds	r3, r3, #1
 1009 004c 224A     		ldr	r2, .L53+12
 1010 004e 5360     		str	r3, [r2, #4]
ARM GAS  C:\Users\DEVELO~1\AppData\Local\Temp\ccBydanM.s 			page 19


 1011 0050 2AE0     		b	.L49
 1012              	.L48:
 1013              	.LBB55:
 1014              		.loc 7 182 31
 1015 0052 7B68     		ldr	r3, [r7, #4]
 1016 0054 1B78     		ldrb	r3, [r3]	@ zero_extendqisi2
 1017              		.loc 7 182 35
 1018 0056 1A06     		lsls	r2, r3, #24
 1019              		.loc 7 183 31
 1020 0058 7B68     		ldr	r3, [r7, #4]
 1021 005a 0133     		adds	r3, r3, #1
 1022 005c 1B78     		ldrb	r3, [r3]	@ zero_extendqisi2
 1023              		.loc 7 183 35
 1024 005e 1B04     		lsls	r3, r3, #16
 1025              		.loc 7 182 42
 1026 0060 1A43     		orrs	r2, r2, r3
 1027              		.loc 7 184 31
 1028 0062 7B68     		ldr	r3, [r7, #4]
 1029 0064 0233     		adds	r3, r3, #2
 1030 0066 1B78     		ldrb	r3, [r3]	@ zero_extendqisi2
 1031              		.loc 7 184 35
 1032 0068 1B02     		lsls	r3, r3, #8
 1033              		.loc 7 183 42
 1034 006a 1343     		orrs	r3, r3, r2
 1035              		.loc 7 185 31
 1036 006c 7A68     		ldr	r2, [r7, #4]
 1037 006e 0332     		adds	r2, r2, #3
 1038 0070 1278     		ldrb	r2, [r2]	@ zero_extendqisi2
 1039              		.loc 7 182 13
 1040 0072 1343     		orrs	r3, r3, r2
 1041 0074 FB60     		str	r3, [r7, #12]
 1042              		.loc 7 187 11
 1043 0076 F968     		ldr	r1, [r7, #12]
 1044 0078 1448     		ldr	r0, .L53
 1045 007a FFF7FEFF 		bl	chMBPostI
 1046 007e 0346     		mov	r3, r0
 1047              		.loc 7 187 10
 1048 0080 002B     		cmp	r3, #0
 1049 0082 07D1     		bne	.L50
 1050              		.loc 7 188 9
 1051 0084 FFF7FEFF 		bl	midi_usb_rx_queue_increment_i
 1052              		.loc 7 189 22
 1053 0088 134B     		ldr	r3, .L53+12
 1054 008a 1B68     		ldr	r3, [r3]
 1055              		.loc 7 189 38
 1056 008c 0133     		adds	r3, r3, #1
 1057 008e 124A     		ldr	r2, .L53+12
 1058 0090 1360     		str	r3, [r2]
 1059 0092 09E0     		b	.L49
 1060              	.L50:
 1061              		.loc 7 191 26
 1062 0094 0F4B     		ldr	r3, .L53+8
 1063 0096 1B68     		ldr	r3, [r3]
 1064 0098 0133     		adds	r3, r3, #1
 1065 009a 0E4A     		ldr	r2, .L53+8
 1066 009c 1360     		str	r3, [r2]
 1067              		.loc 7 192 22
ARM GAS  C:\Users\DEVELO~1\AppData\Local\Temp\ccBydanM.s 			page 20


 1068 009e 0E4B     		ldr	r3, .L53+12
 1069 00a0 5B68     		ldr	r3, [r3, #4]
 1070              		.loc 7 192 35
 1071 00a2 0133     		adds	r3, r3, #1
 1072 00a4 0C4A     		ldr	r2, .L53+12
 1073 00a6 5360     		str	r3, [r2, #4]
 1074              	.L49:
 1075              	.LBE55:
 1076              		.loc 7 195 12 discriminator 2
 1077 00a8 7B68     		ldr	r3, [r7, #4]
 1078 00aa 0433     		adds	r3, r3, #4
 1079 00ac 7B60     		str	r3, [r7, #4]
 1080              		.loc 7 177 36 discriminator 2
 1081 00ae 7B69     		ldr	r3, [r7, #20]
 1082 00b0 0133     		adds	r3, r3, #1
 1083 00b2 7B61     		str	r3, [r7, #20]
 1084              	.L47:
 1085              		.loc 7 177 24 discriminator 1
 1086 00b4 7A69     		ldr	r2, [r7, #20]
 1087 00b6 3B69     		ldr	r3, [r7, #16]
 1088 00b8 9A42     		cmp	r2, r3
 1089 00ba BBD3     		bcc	.L51
 1090              	.LBE54:
 1091              		.loc 7 197 3
 1092 00bc FFF7FEFF 		bl	osalSysUnlockFromISR
 1093 00c0 00E0     		b	.L42
 1094              	.L52:
 1095              		.loc 7 166 5
 1096 00c2 00BF     		nop
 1097              	.L42:
 1098              		.loc 7 198 1
 1099 00c4 1837     		adds	r7, r7, #24
 1100              		.cfi_def_cfa_offset 8
 1101 00c6 BD46     		mov	sp, r7
 1102              		.cfi_def_cfa_register 13
 1103              		@ sp needed
 1104 00c8 80BD     		pop	{r7, pc}
 1105              	.L54:
 1106 00ca 00BF     		.align	2
 1107              	.L53:
 1108 00cc 00000000 		.word	midi_usb_rx_mb
 1109 00d0 00000000 		.word	midi_usb_rx_queue_fill
 1110 00d4 00000000 		.word	midi_usb_rx_drops
 1111 00d8 00000000 		.word	midi_rx_stats
 1112              		.cfi_endproc
 1113              	.LFE440:
 1114              		.size	midi_usb_rx_submit_from_isr, .-midi_usb_rx_submit_from_isr
 1115              		.global	tx_sem
 1116              		.section	.bss.tx_sem,"aw",%nobits
 1117              		.align	2
 1118              		.type	tx_sem, %object
 1119              		.size	tx_sem, 12
 1120              	tx_sem:
 1121 0000 00000000 		.space	12
 1121      00000000 
 1121      00000000 
 1122              		.global	sof_sem
ARM GAS  C:\Users\DEVELO~1\AppData\Local\Temp\ccBydanM.s 			page 21


 1123              		.section	.bss.sof_sem,"aw",%nobits
 1124              		.align	2
 1125              		.type	sof_sem, %object
 1126              		.size	sof_sem, 12
 1127              	sof_sem:
 1128 0000 00000000 		.space	12
 1128      00000000 
 1128      00000000 
 1129              		.global	midi_tx_stats
 1130              		.section	.bss.midi_tx_stats,"aw",%nobits
 1131              		.align	2
 1132              		.type	midi_tx_stats, %object
 1133              		.size	midi_tx_stats, 28
 1134              	midi_tx_stats:
 1135 0000 00000000 		.space	28
 1135      00000000 
 1135      00000000 
 1135      00000000 
 1135      00000000 
 1136              		.global	midi_rx_stats
 1137              		.section	.bss.midi_rx_stats,"aw",%nobits
 1138              		.align	2
 1139              		.type	midi_rx_stats, %object
 1140              		.size	midi_rx_stats, 16
 1141              	midi_rx_stats:
 1142 0000 00000000 		.space	16
 1142      00000000 
 1142      00000000 
 1142      00000000 
 1143              		.section	.data.midi_rx_dest,"aw"
 1144              		.type	midi_rx_dest, %object
 1145              		.size	midi_rx_dest, 1
 1146              	midi_rx_dest:
 1147 0000 03       		.byte	3
 1148              		.section	.bss.waMidiUsbTx,"aw",%nobits
 1149              		.align	3
 1150              		.type	waMidiUsbTx, %object
 1151              		.size	waMidiUsbTx, 752
 1152              	waMidiUsbTx:
 1153 0000 00000000 		.space	752
 1153      00000000 
 1153      00000000 
 1153      00000000 
 1153      00000000 
 1154              		.section	.rodata
 1155              		.align	2
 1156              	.LC0:
 1157 0000 4D494449 		.ascii	"MIDI_USB_TX\000"
 1157      5F555342 
 1157      5F545800 
 1158              		.section	.text.thdMidiUsbTx,"ax",%progbits
 1159              		.align	1
 1160              		.syntax unified
 1161              		.thumb
 1162              		.thumb_func
 1163              		.type	thdMidiUsbTx, %function
 1164              	thdMidiUsbTx:
ARM GAS  C:\Users\DEVELO~1\AppData\Local\Temp\ccBydanM.s 			page 22


 1165              	.LFB441:
 1166              		.loc 7 256 40
 1167              		.cfi_startproc
 1168              		@ args = 0, pretend = 0, frame = 104
 1169              		@ frame_needed = 1, uses_anonymous_args = 0
 1170 0000 80B5     		push	{r7, lr}
 1171              		.cfi_def_cfa_offset 8
 1172              		.cfi_offset 7, -8
 1173              		.cfi_offset 14, -4
 1174 0002 9AB0     		sub	sp, sp, #104
 1175              		.cfi_def_cfa_offset 112
 1176 0004 00AF     		add	r7, sp, #0
 1177              		.cfi_def_cfa_register 7
 1178 0006 7860     		str	r0, [r7, #4]
 1179              		.loc 7 259 3
 1180 0008 5248     		ldr	r0, .L65
 1181 000a FFF7FEFF 		bl	chRegSetThreadName
 1182              		.loc 7 262 10
 1183 000e 0023     		movs	r3, #0
 1184 0010 7B66     		str	r3, [r7, #100]
 1185              	.L64:
 1186              	.LBB56:
 1187              		.loc 7 265 5
 1188 0012 FFF7FEFF 		bl	midi_process_usb_rx
 1189              		.loc 7 268 17
 1190 0016 07F10C03 		add	r3, r7, #12
 1191 001a 0A22     		movs	r2, #10
 1192 001c 1946     		mov	r1, r3
 1193 001e 4E48     		ldr	r0, .L65+4
 1194 0020 FFF7FEFF 		bl	chMBFetchTimeout
 1195 0024 3866     		str	r0, [r7, #96]
 1196              		.loc 7 270 8
 1197 0026 3B6E     		ldr	r3, [r7, #96]
 1198 0028 002B     		cmp	r3, #0
 1199 002a 5BD1     		bne	.L56
 1200              		.loc 7 271 7
 1201 002c FFF7FEFF 		bl	midi_usb_queue_decrement
 1202              		.loc 7 272 33
 1203 0030 FB68     		ldr	r3, [r7, #12]
 1204 0032 1916     		asrs	r1, r3, #24
 1205              		.loc 7 272 12
 1206 0034 7B6E     		ldr	r3, [r7, #100]
 1207 0036 5A1C     		adds	r2, r3, #1
 1208 0038 7A66     		str	r2, [r7, #100]
 1209              		.loc 7 272 18
 1210 003a CAB2     		uxtb	r2, r1
 1211              		.loc 7 272 16
 1212 003c 6833     		adds	r3, r3, #104
 1213 003e 3B44     		add	r3, r3, r7
 1214 0040 03F8582C 		strb	r2, [r3, #-88]
 1215              		.loc 7 273 33
 1216 0044 FB68     		ldr	r3, [r7, #12]
 1217 0046 1914     		asrs	r1, r3, #16
 1218              		.loc 7 273 12
 1219 0048 7B6E     		ldr	r3, [r7, #100]
 1220 004a 5A1C     		adds	r2, r3, #1
 1221 004c 7A66     		str	r2, [r7, #100]
ARM GAS  C:\Users\DEVELO~1\AppData\Local\Temp\ccBydanM.s 			page 23


 1222              		.loc 7 273 18
 1223 004e CAB2     		uxtb	r2, r1
 1224              		.loc 7 273 16
 1225 0050 6833     		adds	r3, r3, #104
 1226 0052 3B44     		add	r3, r3, r7
 1227 0054 03F8582C 		strb	r2, [r3, #-88]
 1228              		.loc 7 274 33
 1229 0058 FB68     		ldr	r3, [r7, #12]
 1230 005a 1912     		asrs	r1, r3, #8
 1231              		.loc 7 274 12
 1232 005c 7B6E     		ldr	r3, [r7, #100]
 1233 005e 5A1C     		adds	r2, r3, #1
 1234 0060 7A66     		str	r2, [r7, #100]
 1235              		.loc 7 274 18
 1236 0062 CAB2     		uxtb	r2, r1
 1237              		.loc 7 274 16
 1238 0064 6833     		adds	r3, r3, #104
 1239 0066 3B44     		add	r3, r3, r7
 1240 0068 03F8582C 		strb	r2, [r3, #-88]
 1241              		.loc 7 275 18
 1242 006c F968     		ldr	r1, [r7, #12]
 1243              		.loc 7 275 12
 1244 006e 7B6E     		ldr	r3, [r7, #100]
 1245 0070 5A1C     		adds	r2, r3, #1
 1246 0072 7A66     		str	r2, [r7, #100]
 1247              		.loc 7 275 18
 1248 0074 CAB2     		uxtb	r2, r1
 1249              		.loc 7 275 16
 1250 0076 6833     		adds	r3, r3, #104
 1251 0078 3B44     		add	r3, r3, r7
 1252 007a 03F8582C 		strb	r2, [r3, #-88]
 1253              		.loc 7 277 10
 1254 007e 7B6E     		ldr	r3, [r7, #100]
 1255 0080 402B     		cmp	r3, #64
 1256 0082 C6D1     		bne	.L64
 1257              	.LBB57:
 1258              		.loc 7 278 28
 1259 0084 FFF7FEFF 		bl	midi_usb_ready
 1260 0088 0346     		mov	r3, r0
 1261 008a 87F85730 		strb	r3, [r7, #87]
 1262              		.loc 7 279 12
 1263 008e 97F85730 		ldrb	r3, [r7, #87]	@ zero_extendqisi2
 1264 0092 002B     		cmp	r3, #0
 1265 0094 1CD0     		beq	.L58
 1266              	.LBB58:
 1267              		.loc 7 280 27
 1268 0096 1423     		movs	r3, #20
 1269 0098 3B65     		str	r3, [r7, #80]
 1270              		.loc 7 281 15
 1271 009a 396D     		ldr	r1, [r7, #80]
 1272 009c 2F48     		ldr	r0, .L65+8
 1273 009e FFF7FEFF 		bl	chBSemWaitTimeout
 1274 00a2 0346     		mov	r3, r0
 1275              		.loc 7 281 14
 1276 00a4 002B     		cmp	r3, #0
 1277 00a6 0BD1     		bne	.L59
 1278              		.loc 7 282 13
ARM GAS  C:\Users\DEVELO~1\AppData\Local\Temp\ccBydanM.s 			page 24


 1279 00a8 07F11003 		add	r3, r7, #16
 1280 00ac 796E     		ldr	r1, [r7, #100]
 1281 00ae 1846     		mov	r0, r3
 1282 00b0 FFF7FEFF 		bl	midi_usb_start_tx
 1283              		.loc 7 283 26
 1284 00b4 2A4B     		ldr	r3, .L65+12
 1285 00b6 5B68     		ldr	r3, [r3, #4]
 1286              		.loc 7 283 42
 1287 00b8 0133     		adds	r3, r3, #1
 1288 00ba 294A     		ldr	r2, .L65+12
 1289 00bc 5360     		str	r3, [r2, #4]
 1290 00be 0EE0     		b	.L60
 1291              	.L59:
 1292              		.loc 7 286 47
 1293 00c0 274B     		ldr	r3, .L65+12
 1294 00c2 9A69     		ldr	r2, [r3, #24]
 1295              		.loc 7 286 52
 1296 00c4 7B6E     		ldr	r3, [r7, #100]
 1297 00c6 9B08     		lsrs	r3, r3, #2
 1298              		.loc 7 286 47
 1299 00c8 1344     		add	r3, r3, r2
 1300 00ca 254A     		ldr	r2, .L65+12
 1301 00cc 9361     		str	r3, [r2, #24]
 1302 00ce 06E0     		b	.L60
 1303              	.L58:
 1304              	.LBE58:
 1305              		.loc 7 289 45
 1306 00d0 234B     		ldr	r3, .L65+12
 1307 00d2 9A69     		ldr	r2, [r3, #24]
 1308              		.loc 7 289 50
 1309 00d4 7B6E     		ldr	r3, [r7, #100]
 1310 00d6 9B08     		lsrs	r3, r3, #2
 1311              		.loc 7 289 45
 1312 00d8 1344     		add	r3, r3, r2
 1313 00da 214A     		ldr	r2, .L65+12
 1314 00dc 9361     		str	r3, [r2, #24]
 1315              	.L60:
 1316              		.loc 7 291 11
 1317 00de 0023     		movs	r3, #0
 1318 00e0 7B66     		str	r3, [r7, #100]
 1319 00e2 96E7     		b	.L64
 1320              	.L56:
 1321              	.LBE57:
 1322              		.loc 7 293 15
 1323 00e4 7B6E     		ldr	r3, [r7, #100]
 1324 00e6 002B     		cmp	r3, #0
 1325 00e8 93D0     		beq	.L64
 1326              	.LBB59:
 1327              		.loc 7 295 7
 1328 00ea 0A21     		movs	r1, #10
 1329 00ec 1D48     		ldr	r0, .L65+16
 1330 00ee FFF7FEFF 		bl	chBSemWaitTimeout
 1331              		.loc 7 296 26
 1332 00f2 FFF7FEFF 		bl	midi_usb_ready
 1333 00f6 0346     		mov	r3, r0
 1334 00f8 87F85F30 		strb	r3, [r7, #95]
 1335              		.loc 7 297 10
ARM GAS  C:\Users\DEVELO~1\AppData\Local\Temp\ccBydanM.s 			page 25


 1336 00fc 97F85F30 		ldrb	r3, [r7, #95]	@ zero_extendqisi2
 1337 0100 002B     		cmp	r3, #0
 1338 0102 1CD0     		beq	.L61
 1339              	.LBB60:
 1340              		.loc 7 298 25
 1341 0104 1423     		movs	r3, #20
 1342 0106 BB65     		str	r3, [r7, #88]
 1343              		.loc 7 299 13
 1344 0108 B96D     		ldr	r1, [r7, #88]
 1345 010a 1448     		ldr	r0, .L65+8
 1346 010c FFF7FEFF 		bl	chBSemWaitTimeout
 1347 0110 0346     		mov	r3, r0
 1348              		.loc 7 299 12
 1349 0112 002B     		cmp	r3, #0
 1350 0114 0BD1     		bne	.L62
 1351              		.loc 7 300 11
 1352 0116 07F11003 		add	r3, r7, #16
 1353 011a 796E     		ldr	r1, [r7, #100]
 1354 011c 1846     		mov	r0, r3
 1355 011e FFF7FEFF 		bl	midi_usb_start_tx
 1356              		.loc 7 301 24
 1357 0122 0F4B     		ldr	r3, .L65+12
 1358 0124 5B68     		ldr	r3, [r3, #4]
 1359              		.loc 7 301 40
 1360 0126 0133     		adds	r3, r3, #1
 1361 0128 0D4A     		ldr	r2, .L65+12
 1362 012a 5360     		str	r3, [r2, #4]
 1363 012c 0EE0     		b	.L63
 1364              	.L62:
 1365              		.loc 7 303 45
 1366 012e 0C4B     		ldr	r3, .L65+12
 1367 0130 9A69     		ldr	r2, [r3, #24]
 1368              		.loc 7 303 50
 1369 0132 7B6E     		ldr	r3, [r7, #100]
 1370 0134 9B08     		lsrs	r3, r3, #2
 1371              		.loc 7 303 45
 1372 0136 1344     		add	r3, r3, r2
 1373 0138 094A     		ldr	r2, .L65+12
 1374 013a 9361     		str	r3, [r2, #24]
 1375 013c 06E0     		b	.L63
 1376              	.L61:
 1377              	.LBE60:
 1378              		.loc 7 306 43
 1379 013e 084B     		ldr	r3, .L65+12
 1380 0140 9A69     		ldr	r2, [r3, #24]
 1381              		.loc 7 306 48
 1382 0142 7B6E     		ldr	r3, [r7, #100]
 1383 0144 9B08     		lsrs	r3, r3, #2
 1384              		.loc 7 306 43
 1385 0146 1344     		add	r3, r3, r2
 1386 0148 054A     		ldr	r2, .L65+12
 1387 014a 9361     		str	r3, [r2, #24]
 1388              	.L63:
 1389              		.loc 7 308 9
 1390 014c 0023     		movs	r3, #0
 1391 014e 7B66     		str	r3, [r7, #100]
 1392              	.LBE59:
ARM GAS  C:\Users\DEVELO~1\AppData\Local\Temp\ccBydanM.s 			page 26


 1393              	.LBE56:
 1394              		.loc 7 264 16
 1395 0150 5FE7     		b	.L64
 1396              	.L66:
 1397 0152 00BF     		.align	2
 1398              	.L65:
 1399 0154 00000000 		.word	.LC0
 1400 0158 00000000 		.word	midi_usb_mb
 1401 015c 00000000 		.word	tx_sem
 1402 0160 00000000 		.word	midi_tx_stats
 1403 0164 00000000 		.word	sof_sem
 1404              		.cfi_endproc
 1405              	.LFE441:
 1406              		.size	thdMidiUsbTx, .-thdMidiUsbTx
 1407              		.section	.text.midi_init,"ax",%progbits
 1408              		.align	1
 1409              		.global	midi_init
 1410              		.syntax unified
 1411              		.thumb
 1412              		.thumb_func
 1413              		.type	midi_init, %function
 1414              	midi_init:
 1415              	.LFB442:
 1416              		.loc 7 325 22
 1417              		.cfi_startproc
 1418              		@ args = 0, pretend = 0, frame = 0
 1419              		@ frame_needed = 1, uses_anonymous_args = 0
 1420 0000 80B5     		push	{r7, lr}
 1421              		.cfi_def_cfa_offset 8
 1422              		.cfi_offset 7, -8
 1423              		.cfi_offset 14, -4
 1424 0002 82B0     		sub	sp, sp, #8
 1425              		.cfi_def_cfa_offset 16
 1426 0004 02AF     		add	r7, sp, #8
 1427              		.cfi_def_cfa 7, 8
 1428              		.loc 7 326 3
 1429 0006 FFF7FEFF 		bl	osalSysLock
 1430              		.loc 7 327 7
 1431 000a 1E4B     		ldr	r3, .L70
 1432 000c 1B78     		ldrb	r3, [r3]	@ zero_extendqisi2
 1433              		.loc 7 327 6
 1434 000e 002B     		cmp	r3, #0
 1435 0010 02D0     		beq	.L68
 1436              		.loc 7 328 5
 1437 0012 FFF7FEFF 		bl	osalSysUnlock
 1438              		.loc 7 329 5
 1439 0016 33E0     		b	.L67
 1440              	.L68:
 1441              		.loc 7 331 20
 1442 0018 1A4B     		ldr	r3, .L70
 1443 001a 0122     		movs	r2, #1
 1444 001c 1A70     		strb	r2, [r3]
 1445              		.loc 7 332 3
 1446 001e FFF7FEFF 		bl	osalSysUnlock
 1447              		.loc 7 335 3
 1448 0022 1949     		ldr	r1, .L70+4
 1449 0024 1948     		ldr	r0, .L70+8
ARM GAS  C:\Users\DEVELO~1\AppData\Local\Temp\ccBydanM.s 			page 27


 1450 0026 FFF7FEFF 		bl	sdStart
 1451              		.loc 7 336 23
 1452 002a 194B     		ldr	r3, .L70+12
 1453 002c 0022     		movs	r2, #0
 1454 002e 1A80     		strh	r2, [r3]	@ movhi
 1455              		.loc 7 337 29
 1456 0030 184B     		ldr	r3, .L70+16
 1457 0032 0022     		movs	r2, #0
 1458 0034 1A80     		strh	r2, [r3]	@ movhi
 1459              		.loc 7 338 26
 1460 0036 184B     		ldr	r3, .L70+20
 1461 0038 0022     		movs	r2, #0
 1462 003a 1A80     		strh	r2, [r3]	@ movhi
 1463              		.loc 7 339 32
 1464 003c 174B     		ldr	r3, .L70+24
 1465 003e 0022     		movs	r2, #0
 1466 0040 1A80     		strh	r2, [r3]	@ movhi
 1467              		.loc 7 340 21
 1468 0042 174B     		ldr	r3, .L70+28
 1469 0044 0022     		movs	r2, #0
 1470 0046 1A60     		str	r2, [r3]
 1471              		.loc 7 341 3
 1472 0048 4FF48072 		mov	r2, #256
 1473 004c 1549     		ldr	r1, .L70+32
 1474 004e 1648     		ldr	r0, .L70+36
 1475 0050 FFF7FEFF 		bl	chMBObjectInit
 1476              		.loc 7 342 3
 1477 0054 8022     		movs	r2, #128
 1478 0056 1549     		ldr	r1, .L70+40
 1479 0058 1548     		ldr	r0, .L70+44
 1480 005a FFF7FEFF 		bl	chMBObjectInit
 1481              		.loc 7 343 3
 1482 005e 0121     		movs	r1, #1
 1483 0060 1448     		ldr	r0, .L70+48
 1484 0062 FFF7FEFF 		bl	chBSemObjectInit
 1485              		.loc 7 344 3
 1486 0066 0121     		movs	r1, #1
 1487 0068 1348     		ldr	r0, .L70+52
 1488 006a FFF7FEFF 		bl	chBSemObjectInit
 1489              		.loc 7 345 3
 1490 006e 0023     		movs	r3, #0
 1491 0070 0093     		str	r3, [sp]
 1492 0072 124B     		ldr	r3, .L70+56
 1493 0074 8122     		movs	r2, #129
 1494 0076 4FF43C71 		mov	r1, #752
 1495 007a 1148     		ldr	r0, .L70+60
 1496 007c FFF7FEFF 		bl	chThdCreateStatic
 1497              	.L67:
 1498              		.loc 7 347 1
 1499 0080 BD46     		mov	sp, r7
 1500              		.cfi_def_cfa_register 13
 1501              		@ sp needed
 1502 0082 80BD     		pop	{r7, pc}
 1503              	.L71:
 1504              		.align	2
 1505              	.L70:
 1506 0084 00000000 		.word	midi_initialized
ARM GAS  C:\Users\DEVELO~1\AppData\Local\Temp\ccBydanM.s 			page 28


 1507 0088 00000000 		.word	uart_cfg.0
 1508 008c 00000000 		.word	SD5
 1509 0090 00000000 		.word	midi_usb_queue_fill
 1510 0094 00000000 		.word	midi_usb_queue_high_water
 1511 0098 00000000 		.word	midi_usb_rx_queue_fill
 1512 009c 00000000 		.word	midi_usb_rx_queue_high_water
 1513 00a0 00000000 		.word	midi_usb_rx_drops
 1514 00a4 00000000 		.word	midi_usb_queue
 1515 00a8 00000000 		.word	midi_usb_mb
 1516 00ac 00000000 		.word	midi_usb_rx_queue
 1517 00b0 00000000 		.word	midi_usb_rx_mb
 1518 00b4 00000000 		.word	tx_sem
 1519 00b8 00000000 		.word	sof_sem
 1520 00bc 00000000 		.word	thdMidiUsbTx
 1521 00c0 00000000 		.word	waMidiUsbTx
 1522              		.cfi_endproc
 1523              	.LFE442:
 1524              		.size	midi_init, .-midi_init
 1525              		.section	.text.midi_is_initialized,"ax",%progbits
 1526              		.align	1
 1527              		.global	midi_is_initialized
 1528              		.syntax unified
 1529              		.thumb
 1530              		.thumb_func
 1531              		.type	midi_is_initialized, %function
 1532              	midi_is_initialized:
 1533              	.LFB443:
 1534              		.loc 7 349 32
 1535              		.cfi_startproc
 1536              		@ args = 0, pretend = 0, frame = 8
 1537              		@ frame_needed = 1, uses_anonymous_args = 0
 1538 0000 80B5     		push	{r7, lr}
 1539              		.cfi_def_cfa_offset 8
 1540              		.cfi_offset 7, -8
 1541              		.cfi_offset 14, -4
 1542 0002 82B0     		sub	sp, sp, #8
 1543              		.cfi_def_cfa_offset 16
 1544 0004 00AF     		add	r7, sp, #0
 1545              		.cfi_def_cfa_register 7
 1546              		.loc 7 352 3
 1547 0006 FFF7FEFF 		bl	osalSysLock
 1548              		.loc 7 353 15
 1549 000a 054B     		ldr	r3, .L74
 1550 000c 1B78     		ldrb	r3, [r3]
 1551 000e FB71     		strb	r3, [r7, #7]
 1552              		.loc 7 354 3
 1553 0010 FFF7FEFF 		bl	osalSysUnlock
 1554              		.loc 7 356 10
 1555 0014 FB79     		ldrb	r3, [r7, #7]	@ zero_extendqisi2
 1556              		.loc 7 357 1
 1557 0016 1846     		mov	r0, r3
 1558 0018 0837     		adds	r7, r7, #8
 1559              		.cfi_def_cfa_offset 8
 1560 001a BD46     		mov	sp, r7
 1561              		.cfi_def_cfa_register 13
 1562              		@ sp needed
 1563 001c 80BD     		pop	{r7, pc}
ARM GAS  C:\Users\DEVELO~1\AppData\Local\Temp\ccBydanM.s 			page 29


 1564              	.L75:
 1565 001e 00BF     		.align	2
 1566              	.L74:
 1567 0020 00000000 		.word	midi_initialized
 1568              		.cfi_endproc
 1569              	.LFE443:
 1570              		.size	midi_is_initialized, .-midi_is_initialized
 1571              		.section	.text.send_uart,"ax",%progbits
 1572              		.align	1
 1573              		.syntax unified
 1574              		.thumb
 1575              		.thumb_func
 1576              		.type	send_uart, %function
 1577              	send_uart:
 1578              	.LFB444:
 1579              		.loc 7 368 55
 1580              		.cfi_startproc
 1581              		@ args = 0, pretend = 0, frame = 8
 1582              		@ frame_needed = 1, uses_anonymous_args = 0
 1583 0000 80B5     		push	{r7, lr}
 1584              		.cfi_def_cfa_offset 8
 1585              		.cfi_offset 7, -8
 1586              		.cfi_offset 14, -4
 1587 0002 82B0     		sub	sp, sp, #8
 1588              		.cfi_def_cfa_offset 16
 1589 0004 00AF     		add	r7, sp, #0
 1590              		.cfi_def_cfa_register 7
 1591 0006 7860     		str	r0, [r7, #4]
 1592 0008 3960     		str	r1, [r7]
 1593              		.loc 7 368 57
 1594 000a 4FF0FF33 		mov	r3, #-1
 1595 000e 3A68     		ldr	r2, [r7]
 1596 0010 7968     		ldr	r1, [r7, #4]
 1597 0012 0348     		ldr	r0, .L77
 1598 0014 FFF7FEFF 		bl	oqWriteTimeout
 1599              		.loc 7 368 87
 1600 0018 00BF     		nop
 1601 001a 0837     		adds	r7, r7, #8
 1602              		.cfi_def_cfa_offset 8
 1603 001c BD46     		mov	sp, r7
 1604              		.cfi_def_cfa_register 13
 1605              		@ sp needed
 1606 001e 80BD     		pop	{r7, pc}
 1607              	.L78:
 1608              		.align	2
 1609              	.L77:
 1610 0020 30000000 		.word	SD5+48
 1611              		.cfi_endproc
 1612              	.LFE444:
 1613              		.size	send_uart, .-send_uart
 1614              		.section	.text.post_mb_or_drop,"ax",%progbits
 1615              		.align	1
 1616              		.syntax unified
 1617              		.thumb
 1618              		.thumb_func
 1619              		.type	post_mb_or_drop, %function
 1620              	post_mb_or_drop:
ARM GAS  C:\Users\DEVELO~1\AppData\Local\Temp\ccBydanM.s 			page 30


 1621              	.LFB445:
 1622              		.loc 7 378 62
 1623              		.cfi_startproc
 1624              		@ args = 0, pretend = 0, frame = 16
 1625              		@ frame_needed = 1, uses_anonymous_args = 0
 1626 0000 80B5     		push	{r7, lr}
 1627              		.cfi_def_cfa_offset 8
 1628              		.cfi_offset 7, -8
 1629              		.cfi_offset 14, -4
 1630 0002 84B0     		sub	sp, sp, #16
 1631              		.cfi_def_cfa_offset 24
 1632 0004 00AF     		add	r7, sp, #0
 1633              		.cfi_def_cfa_register 7
 1634 0006 7860     		str	r0, [r7, #4]
 1635 0008 0B46     		mov	r3, r1
 1636 000a FB70     		strb	r3, [r7, #3]
 1637              		.loc 7 379 7
 1638 000c 0022     		movs	r2, #0
 1639 000e 7968     		ldr	r1, [r7, #4]
 1640 0010 1848     		ldr	r0, .L87
 1641 0012 FFF7FEFF 		bl	chMBPostTimeout
 1642 0016 0346     		mov	r3, r0
 1643              		.loc 7 379 6
 1644 0018 002B     		cmp	r3, #0
 1645 001a 25D0     		beq	.L80
 1646              		.loc 7 380 8
 1647 001c FB78     		ldrb	r3, [r7, #3]	@ zero_extendqisi2
 1648 001e 002B     		cmp	r3, #0
 1649 0020 1CD0     		beq	.L81
 1650              	.LBB61:
 1651              		.loc 7 382 11
 1652 0022 07F10C03 		add	r3, r7, #12
 1653 0026 0022     		movs	r2, #0
 1654 0028 1946     		mov	r1, r3
 1655 002a 1248     		ldr	r0, .L87
 1656 002c FFF7FEFF 		bl	chMBFetchTimeout
 1657 0030 0346     		mov	r3, r0
 1658              		.loc 7 382 10
 1659 0032 002B     		cmp	r3, #0
 1660 0034 01D1     		bne	.L82
 1661              		.loc 7 383 9
 1662 0036 FFF7FEFF 		bl	midi_usb_queue_decrement
 1663              	.L82:
 1664              		.loc 7 385 11
 1665 003a 0022     		movs	r2, #0
 1666 003c 7968     		ldr	r1, [r7, #4]
 1667 003e 0D48     		ldr	r0, .L87
 1668 0040 FFF7FEFF 		bl	chMBPostTimeout
 1669 0044 0346     		mov	r3, r0
 1670              		.loc 7 385 10
 1671 0046 002B     		cmp	r3, #0
 1672 0048 05D0     		beq	.L83
 1673              		.loc 7 386 22
 1674 004a 0B4B     		ldr	r3, .L87+4
 1675 004c 5B69     		ldr	r3, [r3, #20]
 1676              		.loc 7 386 34
 1677 004e 0133     		adds	r3, r3, #1
ARM GAS  C:\Users\DEVELO~1\AppData\Local\Temp\ccBydanM.s 			page 31


 1678 0050 094A     		ldr	r2, .L87+4
 1679 0052 5361     		str	r3, [r2, #20]
 1680              	.LBE61:
 1681              		.loc 7 395 1
 1682 0054 0AE0     		b	.L86
 1683              	.L83:
 1684              	.LBB62:
 1685              		.loc 7 388 9
 1686 0056 FFF7FEFF 		bl	midi_usb_queue_increment
 1687              	.LBE62:
 1688              		.loc 7 395 1
 1689 005a 07E0     		b	.L86
 1690              	.L81:
 1691              		.loc 7 390 20
 1692 005c 064B     		ldr	r3, .L87+4
 1693 005e 5B69     		ldr	r3, [r3, #20]
 1694              		.loc 7 390 32
 1695 0060 0133     		adds	r3, r3, #1
 1696 0062 054A     		ldr	r2, .L87+4
 1697 0064 5361     		str	r3, [r2, #20]
 1698              		.loc 7 395 1
 1699 0066 01E0     		b	.L86
 1700              	.L80:
 1701              		.loc 7 393 5
 1702 0068 FFF7FEFF 		bl	midi_usb_queue_increment
 1703              	.L86:
 1704              		.loc 7 395 1
 1705 006c 00BF     		nop
 1706 006e 1037     		adds	r7, r7, #16
 1707              		.cfi_def_cfa_offset 8
 1708 0070 BD46     		mov	sp, r7
 1709              		.cfi_def_cfa_register 13
 1710              		@ sp needed
 1711 0072 80BD     		pop	{r7, pc}
 1712              	.L88:
 1713              		.align	2
 1714              	.L87:
 1715 0074 00000000 		.word	midi_usb_mb
 1716 0078 00000000 		.word	midi_tx_stats
 1717              		.cfi_endproc
 1718              	.LFE445:
 1719              		.size	post_mb_or_drop, .-post_mb_or_drop
 1720              		.section	.text.usb_midi_decode_packet,"ax",%progbits
 1721              		.align	1
 1722              		.syntax unified
 1723              		.thumb
 1724              		.thumb_func
 1725              		.type	usb_midi_decode_packet, %function
 1726              	usb_midi_decode_packet:
 1727              	.LFB446:
 1728              		.loc 7 401 75
 1729              		.cfi_startproc
 1730              		@ args = 0, pretend = 0, frame = 16
 1731              		@ frame_needed = 1, uses_anonymous_args = 0
 1732              		@ link register save eliminated.
 1733 0000 80B4     		push	{r7}
 1734              		.cfi_def_cfa_offset 4
ARM GAS  C:\Users\DEVELO~1\AppData\Local\Temp\ccBydanM.s 			page 32


 1735              		.cfi_offset 7, -4
 1736 0002 85B0     		sub	sp, sp, #20
 1737              		.cfi_def_cfa_offset 24
 1738 0004 00AF     		add	r7, sp, #0
 1739              		.cfi_def_cfa_register 7
 1740 0006 7860     		str	r0, [r7, #4]
 1741 0008 3960     		str	r1, [r7]
 1742              		.loc 7 402 6
 1743 000a 3B68     		ldr	r3, [r7]
 1744 000c 002B     		cmp	r3, #0
 1745 000e 01D1     		bne	.L90
 1746              		.loc 7 403 12
 1747 0010 0023     		movs	r3, #0
 1748 0012 94E0     		b	.L91
 1749              	.L90:
 1750              		.loc 7 406 40
 1751 0014 7B68     		ldr	r3, [r7, #4]
 1752 0016 1B78     		ldrb	r3, [r3]	@ zero_extendqisi2
 1753              		.loc 7 406 17
 1754 0018 03F00F03 		and	r3, r3, #15
 1755 001c FB73     		strb	r3, [r7, #15]
 1756              		.loc 7 408 3
 1757 001e FB7B     		ldrb	r3, [r7, #15]	@ zero_extendqisi2
 1758 0020 023B     		subs	r3, r3, #2
 1759 0022 0D2B     		cmp	r3, #13
 1760 0024 00F28980 		bhi	.L101
 1761 0028 01A2     		adr	r2, .L94
 1762 002a 52F823F0 		ldr	pc, [r2, r3, lsl #2]
 1763 002e 00BF     		.p2align 2
 1764              	.L94:
 1765 0030 AF000000 		.word	.L98+1
 1766 0034 CD000000 		.word	.L97+1
 1767 0038 3B010000 		.word	.L101+1
 1768 003c 3B010000 		.word	.L101+1
 1769 0040 3B010000 		.word	.L101+1
 1770 0044 3B010000 		.word	.L101+1
 1771 0048 69000000 		.word	.L95+1
 1772 004c 69000000 		.word	.L95+1
 1773 0050 69000000 		.word	.L95+1
 1774 0054 69000000 		.word	.L95+1
 1775 0058 91000000 		.word	.L96+1
 1776 005c 91000000 		.word	.L96+1
 1777 0060 69000000 		.word	.L95+1
 1778 0064 F5000000 		.word	.L93+1
 1779              		.p2align 1
 1780              	.L95:
 1781              		.loc 7 414 16
 1782 0068 3B68     		ldr	r3, [r7]
 1783 006a 0322     		movs	r2, #3
 1784 006c DA70     		strb	r2, [r3, #3]
 1785              		.loc 7 415 25
 1786 006e 7B68     		ldr	r3, [r7, #4]
 1787 0070 0133     		adds	r3, r3, #1
 1788 0072 1A78     		ldrb	r2, [r3]	@ zero_extendqisi2
 1789              		.loc 7 415 20
 1790 0074 3B68     		ldr	r3, [r7]
 1791 0076 1A70     		strb	r2, [r3]
ARM GAS  C:\Users\DEVELO~1\AppData\Local\Temp\ccBydanM.s 			page 33


 1792              		.loc 7 416 25
 1793 0078 7B68     		ldr	r3, [r7, #4]
 1794 007a 0233     		adds	r3, r3, #2
 1795 007c 1A78     		ldrb	r2, [r3]	@ zero_extendqisi2
 1796              		.loc 7 416 20
 1797 007e 3B68     		ldr	r3, [r7]
 1798 0080 5A70     		strb	r2, [r3, #1]
 1799              		.loc 7 417 25
 1800 0082 7B68     		ldr	r3, [r7, #4]
 1801 0084 0333     		adds	r3, r3, #3
 1802 0086 1A78     		ldrb	r2, [r3]	@ zero_extendqisi2
 1803              		.loc 7 417 20
 1804 0088 3B68     		ldr	r3, [r7]
 1805 008a 9A70     		strb	r2, [r3, #2]
 1806              		.loc 7 418 14
 1807 008c 0123     		movs	r3, #1
 1808 008e 56E0     		b	.L91
 1809              	.L96:
 1810              		.loc 7 422 16
 1811 0090 3B68     		ldr	r3, [r7]
 1812 0092 0222     		movs	r2, #2
 1813 0094 DA70     		strb	r2, [r3, #3]
 1814              		.loc 7 423 25
 1815 0096 7B68     		ldr	r3, [r7, #4]
 1816 0098 0133     		adds	r3, r3, #1
 1817 009a 1A78     		ldrb	r2, [r3]	@ zero_extendqisi2
 1818              		.loc 7 423 20
 1819 009c 3B68     		ldr	r3, [r7]
 1820 009e 1A70     		strb	r2, [r3]
 1821              		.loc 7 424 25
 1822 00a0 7B68     		ldr	r3, [r7, #4]
 1823 00a2 0233     		adds	r3, r3, #2
 1824 00a4 1A78     		ldrb	r2, [r3]	@ zero_extendqisi2
 1825              		.loc 7 424 20
 1826 00a6 3B68     		ldr	r3, [r7]
 1827 00a8 5A70     		strb	r2, [r3, #1]
 1828              		.loc 7 425 14
 1829 00aa 0123     		movs	r3, #1
 1830 00ac 47E0     		b	.L91
 1831              	.L98:
 1832              		.loc 7 428 16
 1833 00ae 3B68     		ldr	r3, [r7]
 1834 00b0 0222     		movs	r2, #2
 1835 00b2 DA70     		strb	r2, [r3, #3]
 1836              		.loc 7 429 25
 1837 00b4 7B68     		ldr	r3, [r7, #4]
 1838 00b6 0133     		adds	r3, r3, #1
 1839 00b8 1A78     		ldrb	r2, [r3]	@ zero_extendqisi2
 1840              		.loc 7 429 20
 1841 00ba 3B68     		ldr	r3, [r7]
 1842 00bc 1A70     		strb	r2, [r3]
 1843              		.loc 7 430 25
 1844 00be 7B68     		ldr	r3, [r7, #4]
 1845 00c0 0233     		adds	r3, r3, #2
 1846 00c2 1A78     		ldrb	r2, [r3]	@ zero_extendqisi2
 1847              		.loc 7 430 20
 1848 00c4 3B68     		ldr	r3, [r7]
ARM GAS  C:\Users\DEVELO~1\AppData\Local\Temp\ccBydanM.s 			page 34


 1849 00c6 5A70     		strb	r2, [r3, #1]
 1850              		.loc 7 431 14
 1851 00c8 0123     		movs	r3, #1
 1852 00ca 38E0     		b	.L91
 1853              	.L97:
 1854              		.loc 7 434 16
 1855 00cc 3B68     		ldr	r3, [r7]
 1856 00ce 0322     		movs	r2, #3
 1857 00d0 DA70     		strb	r2, [r3, #3]
 1858              		.loc 7 435 25
 1859 00d2 7B68     		ldr	r3, [r7, #4]
 1860 00d4 0133     		adds	r3, r3, #1
 1861 00d6 1A78     		ldrb	r2, [r3]	@ zero_extendqisi2
 1862              		.loc 7 435 20
 1863 00d8 3B68     		ldr	r3, [r7]
 1864 00da 1A70     		strb	r2, [r3]
 1865              		.loc 7 436 25
 1866 00dc 7B68     		ldr	r3, [r7, #4]
 1867 00de 0233     		adds	r3, r3, #2
 1868 00e0 1A78     		ldrb	r2, [r3]	@ zero_extendqisi2
 1869              		.loc 7 436 20
 1870 00e2 3B68     		ldr	r3, [r7]
 1871 00e4 5A70     		strb	r2, [r3, #1]
 1872              		.loc 7 437 25
 1873 00e6 7B68     		ldr	r3, [r7, #4]
 1874 00e8 0333     		adds	r3, r3, #3
 1875 00ea 1A78     		ldrb	r2, [r3]	@ zero_extendqisi2
 1876              		.loc 7 437 20
 1877 00ec 3B68     		ldr	r3, [r7]
 1878 00ee 9A70     		strb	r2, [r3, #2]
 1879              		.loc 7 438 14
 1880 00f0 0123     		movs	r3, #1
 1881 00f2 24E0     		b	.L91
 1882              	.L93:
 1883              		.loc 7 441 18
 1884 00f4 7B68     		ldr	r3, [r7, #4]
 1885 00f6 0133     		adds	r3, r3, #1
 1886 00f8 1B78     		ldrb	r3, [r3]	@ zero_extendqisi2
 1887              		.loc 7 441 7
 1888 00fa F83B     		subs	r3, r3, #248
 1889 00fc 072B     		cmp	r3, #7
 1890 00fe 8CBF     		ite	hi
 1891 0100 0122     		movhi	r2, #1
 1892 0102 0022     		movls	r2, #0
 1893 0104 D2B2     		uxtb	r2, r2
 1894 0106 002A     		cmp	r2, #0
 1895 0108 15D1     		bne	.L99
 1896 010a DD22     		movs	r2, #221
 1897 010c 22FA03F3 		lsr	r3, r2, r3
 1898 0110 03F00103 		and	r3, r3, #1
 1899 0114 002B     		cmp	r3, #0
 1900 0116 14BF     		ite	ne
 1901 0118 0123     		movne	r3, #1
 1902 011a 0023     		moveq	r3, #0
 1903 011c DBB2     		uxtb	r3, r3
 1904 011e 002B     		cmp	r3, #0
 1905 0120 09D0     		beq	.L99
ARM GAS  C:\Users\DEVELO~1\AppData\Local\Temp\ccBydanM.s 			page 35


 1906              		.loc 7 448 20
 1907 0122 3B68     		ldr	r3, [r7]
 1908 0124 0122     		movs	r2, #1
 1909 0126 DA70     		strb	r2, [r3, #3]
 1910              		.loc 7 449 29
 1911 0128 7B68     		ldr	r3, [r7, #4]
 1912 012a 0133     		adds	r3, r3, #1
 1913 012c 1A78     		ldrb	r2, [r3]	@ zero_extendqisi2
 1914              		.loc 7 449 24
 1915 012e 3B68     		ldr	r3, [r7]
 1916 0130 1A70     		strb	r2, [r3]
 1917              		.loc 7 450 18
 1918 0132 0123     		movs	r3, #1
 1919 0134 03E0     		b	.L91
 1920              	.L99:
 1921              		.loc 7 452 18
 1922 0136 0023     		movs	r3, #0
 1923 0138 01E0     		b	.L91
 1924              	.L101:
 1925              		.loc 7 457 7
 1926 013a 00BF     		nop
 1927              		.loc 7 460 10
 1928 013c 0023     		movs	r3, #0
 1929              	.L91:
 1930              		.loc 7 461 1
 1931 013e 1846     		mov	r0, r3
 1932 0140 1437     		adds	r7, r7, #20
 1933              		.cfi_def_cfa_offset 4
 1934 0142 BD46     		mov	sp, r7
 1935              		.cfi_def_cfa_register 13
 1936              		@ sp needed
 1937 0144 80BC     		pop	{r7}
 1938              		.cfi_restore 7
 1939              		.cfi_def_cfa_offset 0
 1940 0146 7047     		bx	lr
 1941              		.cfi_endproc
 1942              	.LFE446:
 1943              		.size	usb_midi_decode_packet, .-usb_midi_decode_packet
 1944              		.section	.text.midi_dispatch_rx_message,"ax",%progbits
 1945              		.align	1
 1946              		.syntax unified
 1947              		.thumb
 1948              		.thumb_func
 1949              		.type	midi_dispatch_rx_message, %function
 1950              	midi_dispatch_rx_message:
 1951              	.LFB447:
 1952              		.loc 7 463 61
 1953              		.cfi_startproc
 1954              		@ args = 0, pretend = 0, frame = 8
 1955              		@ frame_needed = 1, uses_anonymous_args = 0
 1956 0000 80B5     		push	{r7, lr}
 1957              		.cfi_def_cfa_offset 8
 1958              		.cfi_offset 7, -8
 1959              		.cfi_offset 14, -4
 1960 0002 82B0     		sub	sp, sp, #8
 1961              		.cfi_def_cfa_offset 16
 1962 0004 00AF     		add	r7, sp, #0
ARM GAS  C:\Users\DEVELO~1\AppData\Local\Temp\ccBydanM.s 			page 36


 1963              		.cfi_def_cfa_register 7
 1964 0006 7860     		str	r0, [r7, #4]
 1965              		.loc 7 464 28
 1966 0008 7A68     		ldr	r2, [r7, #4]
 1967              		.loc 7 464 39
 1968 000a 7B68     		ldr	r3, [r7, #4]
 1969 000c DB78     		ldrb	r3, [r3, #3]	@ zero_extendqisi2
 1970              		.loc 7 464 3
 1971 000e 1946     		mov	r1, r3
 1972 0010 1046     		mov	r0, r2
 1973 0012 FFF7FEFF 		bl	midi_internal_receive
 1974              		.loc 7 466 21
 1975 0016 094B     		ldr	r3, .L106
 1976 0018 1B78     		ldrb	r3, [r3]	@ zero_extendqisi2
 1977              		.loc 7 466 6
 1978 001a 012B     		cmp	r3, #1
 1979 001c 03D0     		beq	.L103
 1980              		.loc 7 466 57 discriminator 1
 1981 001e 074B     		ldr	r3, .L106
 1982 0020 1B78     		ldrb	r3, [r3]	@ zero_extendqisi2
 1983              		.loc 7 466 40 discriminator 1
 1984 0022 032B     		cmp	r3, #3
 1985 0024 06D1     		bne	.L105
 1986              	.L103:
 1987              		.loc 7 467 18
 1988 0026 7A68     		ldr	r2, [r7, #4]
 1989              		.loc 7 467 29
 1990 0028 7B68     		ldr	r3, [r7, #4]
 1991 002a DB78     		ldrb	r3, [r3, #3]	@ zero_extendqisi2
 1992              		.loc 7 467 5
 1993 002c 1946     		mov	r1, r3
 1994 002e 1046     		mov	r0, r2
 1995 0030 FFF7FEFF 		bl	send_uart
 1996              	.L105:
 1997              		.loc 7 469 1
 1998 0034 00BF     		nop
 1999 0036 0837     		adds	r7, r7, #8
 2000              		.cfi_def_cfa_offset 8
 2001 0038 BD46     		mov	sp, r7
 2002              		.cfi_def_cfa_register 13
 2003              		@ sp needed
 2004 003a 80BD     		pop	{r7, pc}
 2005              	.L107:
 2006              		.align	2
 2007              	.L106:
 2008 003c 00000000 		.word	midi_rx_dest
 2009              		.cfi_endproc
 2010              	.LFE447:
 2011              		.size	midi_dispatch_rx_message, .-midi_dispatch_rx_message
 2012              		.section	.text.midi_process_usb_rx,"ax",%progbits
 2013              		.align	1
 2014              		.syntax unified
 2015              		.thumb
 2016              		.thumb_func
 2017              		.type	midi_process_usb_rx, %function
 2018              	midi_process_usb_rx:
 2019              	.LFB448:
ARM GAS  C:\Users\DEVELO~1\AppData\Local\Temp\ccBydanM.s 			page 37


 2020              		.loc 7 471 39
 2021              		.cfi_startproc
 2022              		@ args = 0, pretend = 0, frame = 24
 2023              		@ frame_needed = 1, uses_anonymous_args = 0
 2024 0000 80B5     		push	{r7, lr}
 2025              		.cfi_def_cfa_offset 8
 2026              		.cfi_offset 7, -8
 2027              		.cfi_offset 14, -4
 2028 0002 86B0     		sub	sp, sp, #24
 2029              		.cfi_def_cfa_offset 32
 2030 0004 00AF     		add	r7, sp, #0
 2031              		.cfi_def_cfa_register 7
 2032              		.loc 7 472 18
 2033 0006 1023     		movs	r3, #16
 2034 0008 3B61     		str	r3, [r7, #16]
 2035              		.loc 7 473 12
 2036 000a 0023     		movs	r3, #0
 2037 000c 7B61     		str	r3, [r7, #20]
 2038              		.loc 7 476 9
 2039 000e 30E0     		b	.L109
 2040              	.L113:
 2041              	.LBB63:
 2042              		.loc 7 478 5
 2043 0010 FFF7FEFF 		bl	osalSysLock
 2044              		.loc 7 479 5
 2045 0014 FFF7FEFF 		bl	midi_usb_rx_queue_decrement
 2046              		.loc 7 480 5
 2047 0018 FFF7FEFF 		bl	osalSysUnlock
 2048              		.loc 7 483 29
 2049 001c FB68     		ldr	r3, [r7, #12]
 2050 001e 1B16     		asrs	r3, r3, #24
 2051              		.loc 7 483 14
 2052 0020 DBB2     		uxtb	r3, r3
 2053              		.loc 7 483 12
 2054 0022 3B72     		strb	r3, [r7, #8]
 2055              		.loc 7 484 29
 2056 0024 FB68     		ldr	r3, [r7, #12]
 2057 0026 1B14     		asrs	r3, r3, #16
 2058              		.loc 7 484 14
 2059 0028 DBB2     		uxtb	r3, r3
 2060              		.loc 7 484 12
 2061 002a 7B72     		strb	r3, [r7, #9]
 2062              		.loc 7 485 29
 2063 002c FB68     		ldr	r3, [r7, #12]
 2064 002e 1B12     		asrs	r3, r3, #8
 2065              		.loc 7 485 14
 2066 0030 DBB2     		uxtb	r3, r3
 2067              		.loc 7 485 12
 2068 0032 BB72     		strb	r3, [r7, #10]
 2069              		.loc 7 486 14
 2070 0034 FB68     		ldr	r3, [r7, #12]
 2071 0036 DBB2     		uxtb	r3, r3
 2072              		.loc 7 486 12
 2073 0038 FB72     		strb	r3, [r7, #11]
 2074              		.loc 7 489 9
 2075 003a 3A1D     		adds	r2, r7, #4
 2076 003c 07F10803 		add	r3, r7, #8
ARM GAS  C:\Users\DEVELO~1\AppData\Local\Temp\ccBydanM.s 			page 38


 2077 0040 1146     		mov	r1, r2
 2078 0042 1846     		mov	r0, r3
 2079 0044 FFF7FEFF 		bl	usb_midi_decode_packet
 2080 0048 0346     		mov	r3, r0
 2081              		.loc 7 489 8
 2082 004a 002B     		cmp	r3, #0
 2083 004c 09D0     		beq	.L110
 2084              		.loc 7 490 7
 2085 004e 3B1D     		adds	r3, r7, #4
 2086 0050 1846     		mov	r0, r3
 2087 0052 FFF7FEFF 		bl	midi_dispatch_rx_message
 2088              		.loc 7 491 20
 2089 0056 104B     		ldr	r3, .L115
 2090 0058 9B68     		ldr	r3, [r3, #8]
 2091              		.loc 7 491 35
 2092 005a 0133     		adds	r3, r3, #1
 2093 005c 0E4A     		ldr	r2, .L115
 2094 005e 9360     		str	r3, [r2, #8]
 2095 0060 04E0     		b	.L111
 2096              	.L110:
 2097              		.loc 7 493 20
 2098 0062 0D4B     		ldr	r3, .L115
 2099 0064 DB68     		ldr	r3, [r3, #12]
 2100              		.loc 7 493 35
 2101 0066 0133     		adds	r3, r3, #1
 2102 0068 0B4A     		ldr	r2, .L115
 2103 006a D360     		str	r3, [r2, #12]
 2104              	.L111:
 2105              		.loc 7 496 14
 2106 006c 7B69     		ldr	r3, [r7, #20]
 2107 006e 0133     		adds	r3, r3, #1
 2108 0070 7B61     		str	r3, [r7, #20]
 2109              	.L109:
 2110              	.LBE63:
 2111              		.loc 7 476 34
 2112 0072 7A69     		ldr	r2, [r7, #20]
 2113 0074 3B69     		ldr	r3, [r7, #16]
 2114 0076 9A42     		cmp	r2, r3
 2115 0078 09D2     		bcs	.L114
 2116              		.loc 7 477 11 discriminator 1
 2117 007a 07F10C03 		add	r3, r7, #12
 2118 007e 0022     		movs	r2, #0
 2119 0080 1946     		mov	r1, r3
 2120 0082 0648     		ldr	r0, .L115+4
 2121 0084 FFF7FEFF 		bl	chMBFetchTimeout
 2122 0088 0346     		mov	r3, r0
 2123              		.loc 7 476 34 discriminator 1
 2124 008a 002B     		cmp	r3, #0
 2125 008c C0D0     		beq	.L113
 2126              	.L114:
 2127              		.loc 7 498 1
 2128 008e 00BF     		nop
 2129 0090 1837     		adds	r7, r7, #24
 2130              		.cfi_def_cfa_offset 8
 2131 0092 BD46     		mov	sp, r7
 2132              		.cfi_def_cfa_register 13
 2133              		@ sp needed
ARM GAS  C:\Users\DEVELO~1\AppData\Local\Temp\ccBydanM.s 			page 39


 2134 0094 80BD     		pop	{r7, pc}
 2135              	.L116:
 2136 0096 00BF     		.align	2
 2137              	.L115:
 2138 0098 00000000 		.word	midi_rx_stats
 2139 009c 00000000 		.word	midi_usb_rx_mb
 2140              		.cfi_endproc
 2141              	.LFE448:
 2142              		.size	midi_process_usb_rx, .-midi_process_usb_rx
 2143              		.section	.text.send_usb,"ax",%progbits
 2144              		.align	1
 2145              		.syntax unified
 2146              		.thumb
 2147              		.thumb_func
 2148              		.type	send_usb, %function
 2149              	send_usb:
 2150              	.LFB449:
 2151              		.loc 7 518 54
 2152              		.cfi_startproc
 2153              		@ args = 0, pretend = 0, frame = 32
 2154              		@ frame_needed = 1, uses_anonymous_args = 0
 2155 0000 80B5     		push	{r7, lr}
 2156              		.cfi_def_cfa_offset 8
 2157              		.cfi_offset 7, -8
 2158              		.cfi_offset 14, -4
 2159 0002 88B0     		sub	sp, sp, #32
 2160              		.cfi_def_cfa_offset 40
 2161 0004 00AF     		add	r7, sp, #0
 2162              		.cfi_def_cfa_register 7
 2163 0006 7860     		str	r0, [r7, #4]
 2164 0008 3960     		str	r1, [r7]
 2165              		.loc 7 519 11
 2166 000a 0023     		movs	r3, #0
 2167 000c BB60     		str	r3, [r7, #8]
 2168              		.loc 7 520 17
 2169 000e 7B68     		ldr	r3, [r7, #4]
 2170 0010 1B78     		ldrb	r3, [r3]
 2171 0012 BB77     		strb	r3, [r7, #30]
 2172              		.loc 7 521 17
 2173 0014 0023     		movs	r3, #0
 2174 0016 7B77     		strb	r3, [r7, #29]
 2175              		.loc 7 523 8
 2176 0018 0023     		movs	r3, #0
 2177 001a FB77     		strb	r3, [r7, #31]
 2178              		.loc 7 526 11
 2179 001c BB7F     		ldrb	r3, [r7, #30]	@ zero_extendqisi2
 2180 001e 03F0F003 		and	r3, r3, #240
 2181              		.loc 7 526 6
 2182 0022 802B     		cmp	r3, #128
 2183 0024 15D1     		bne	.L118
 2184              		.loc 7 526 25 discriminator 1
 2185 0026 3B68     		ldr	r3, [r7]
 2186 0028 022B     		cmp	r3, #2
 2187 002a 12D9     		bls	.L118
 2188              		.loc 7 526 46 discriminator 2
 2189 002c 7B7F     		ldrb	r3, [r7, #29]
 2190 002e 43F00803 		orr	r3, r3, #8
ARM GAS  C:\Users\DEVELO~1\AppData\Local\Temp\ccBydanM.s 			page 40


 2191 0032 DBB2     		uxtb	r3, r3
 2192 0034 3B72     		strb	r3, [r7, #8]
 2193              		.loc 7 526 72 discriminator 2
 2194 0036 7B68     		ldr	r3, [r7, #4]
 2195 0038 1B78     		ldrb	r3, [r3]	@ zero_extendqisi2
 2196              		.loc 7 526 68 discriminator 2
 2197 003a 7B72     		strb	r3, [r7, #9]
 2198              		.loc 7 526 90 discriminator 2
 2199 003c 7B68     		ldr	r3, [r7, #4]
 2200 003e 0133     		adds	r3, r3, #1
 2201 0040 1B78     		ldrb	r3, [r3]	@ zero_extendqisi2
 2202              		.loc 7 526 86 discriminator 2
 2203 0042 BB72     		strb	r3, [r7, #10]
 2204              		.loc 7 526 108 discriminator 2
 2205 0044 7B68     		ldr	r3, [r7, #4]
 2206 0046 0233     		adds	r3, r3, #2
 2207 0048 1B78     		ldrb	r3, [r3]	@ zero_extendqisi2
 2208              		.loc 7 526 104 discriminator 2
 2209 004a FB72     		strb	r3, [r7, #11]
 2210              		.loc 7 526 120 discriminator 2
 2211 004c 0123     		movs	r3, #1
 2212 004e FB77     		strb	r3, [r7, #31]
 2213 0050 78E1     		b	.L119
 2214              	.L118:
 2215              		.loc 7 527 16
 2216 0052 BB7F     		ldrb	r3, [r7, #30]	@ zero_extendqisi2
 2217 0054 03F0F003 		and	r3, r3, #240
 2218              		.loc 7 527 11
 2219 0058 902B     		cmp	r3, #144
 2220 005a 15D1     		bne	.L120
 2221              		.loc 7 527 30 discriminator 1
 2222 005c 3B68     		ldr	r3, [r7]
 2223 005e 022B     		cmp	r3, #2
 2224 0060 12D9     		bls	.L120
 2225              		.loc 7 527 51 discriminator 2
 2226 0062 7B7F     		ldrb	r3, [r7, #29]
 2227 0064 43F00903 		orr	r3, r3, #9
 2228 0068 DBB2     		uxtb	r3, r3
 2229 006a 3B72     		strb	r3, [r7, #8]
 2230              		.loc 7 527 77 discriminator 2
 2231 006c 7B68     		ldr	r3, [r7, #4]
 2232 006e 1B78     		ldrb	r3, [r3]	@ zero_extendqisi2
 2233              		.loc 7 527 73 discriminator 2
 2234 0070 7B72     		strb	r3, [r7, #9]
 2235              		.loc 7 527 95 discriminator 2
 2236 0072 7B68     		ldr	r3, [r7, #4]
 2237 0074 0133     		adds	r3, r3, #1
 2238 0076 1B78     		ldrb	r3, [r3]	@ zero_extendqisi2
 2239              		.loc 7 527 91 discriminator 2
 2240 0078 BB72     		strb	r3, [r7, #10]
 2241              		.loc 7 527 113 discriminator 2
 2242 007a 7B68     		ldr	r3, [r7, #4]
 2243 007c 0233     		adds	r3, r3, #2
 2244 007e 1B78     		ldrb	r3, [r3]	@ zero_extendqisi2
 2245              		.loc 7 527 109 discriminator 2
 2246 0080 FB72     		strb	r3, [r7, #11]
 2247              		.loc 7 527 125 discriminator 2
ARM GAS  C:\Users\DEVELO~1\AppData\Local\Temp\ccBydanM.s 			page 41


 2248 0082 0123     		movs	r3, #1
 2249 0084 FB77     		strb	r3, [r7, #31]
 2250 0086 5DE1     		b	.L119
 2251              	.L120:
 2252              		.loc 7 528 16
 2253 0088 BB7F     		ldrb	r3, [r7, #30]	@ zero_extendqisi2
 2254 008a 03F0F003 		and	r3, r3, #240
 2255              		.loc 7 528 11
 2256 008e A02B     		cmp	r3, #160
 2257 0090 13D1     		bne	.L121
 2258              		.loc 7 528 30 discriminator 1
 2259 0092 3B68     		ldr	r3, [r7]
 2260 0094 022B     		cmp	r3, #2
 2261 0096 10D9     		bls	.L121
 2262              		.loc 7 528 51 discriminator 2
 2263 0098 7B7F     		ldrb	r3, [r7, #29]
 2264 009a 43F00A03 		orr	r3, r3, #10
 2265 009e DBB2     		uxtb	r3, r3
 2266 00a0 3B72     		strb	r3, [r7, #8]
 2267              		.loc 7 528 77 discriminator 2
 2268 00a2 7B68     		ldr	r3, [r7, #4]
 2269 00a4 1B78     		ldrb	r3, [r3]	@ zero_extendqisi2
 2270              		.loc 7 528 73 discriminator 2
 2271 00a6 7B72     		strb	r3, [r7, #9]
 2272              		.loc 7 528 95 discriminator 2
 2273 00a8 7B68     		ldr	r3, [r7, #4]
 2274 00aa 0133     		adds	r3, r3, #1
 2275 00ac 1B78     		ldrb	r3, [r3]	@ zero_extendqisi2
 2276              		.loc 7 528 91 discriminator 2
 2277 00ae BB72     		strb	r3, [r7, #10]
 2278              		.loc 7 528 113 discriminator 2
 2279 00b0 7B68     		ldr	r3, [r7, #4]
 2280 00b2 0233     		adds	r3, r3, #2
 2281 00b4 1B78     		ldrb	r3, [r3]	@ zero_extendqisi2
 2282              		.loc 7 528 109 discriminator 2
 2283 00b6 FB72     		strb	r3, [r7, #11]
 2284 00b8 44E1     		b	.L119
 2285              	.L121:
 2286              		.loc 7 529 16
 2287 00ba BB7F     		ldrb	r3, [r7, #30]	@ zero_extendqisi2
 2288 00bc 03F0F003 		and	r3, r3, #240
 2289              		.loc 7 529 11
 2290 00c0 B02B     		cmp	r3, #176
 2291 00c2 13D1     		bne	.L122
 2292              		.loc 7 529 30 discriminator 1
 2293 00c4 3B68     		ldr	r3, [r7]
 2294 00c6 022B     		cmp	r3, #2
 2295 00c8 10D9     		bls	.L122
 2296              		.loc 7 529 51 discriminator 2
 2297 00ca 7B7F     		ldrb	r3, [r7, #29]
 2298 00cc 43F00B03 		orr	r3, r3, #11
 2299 00d0 DBB2     		uxtb	r3, r3
 2300 00d2 3B72     		strb	r3, [r7, #8]
 2301              		.loc 7 529 77 discriminator 2
 2302 00d4 7B68     		ldr	r3, [r7, #4]
 2303 00d6 1B78     		ldrb	r3, [r3]	@ zero_extendqisi2
 2304              		.loc 7 529 73 discriminator 2
ARM GAS  C:\Users\DEVELO~1\AppData\Local\Temp\ccBydanM.s 			page 42


 2305 00d8 7B72     		strb	r3, [r7, #9]
 2306              		.loc 7 529 95 discriminator 2
 2307 00da 7B68     		ldr	r3, [r7, #4]
 2308 00dc 0133     		adds	r3, r3, #1
 2309 00de 1B78     		ldrb	r3, [r3]	@ zero_extendqisi2
 2310              		.loc 7 529 91 discriminator 2
 2311 00e0 BB72     		strb	r3, [r7, #10]
 2312              		.loc 7 529 113 discriminator 2
 2313 00e2 7B68     		ldr	r3, [r7, #4]
 2314 00e4 0233     		adds	r3, r3, #2
 2315 00e6 1B78     		ldrb	r3, [r3]	@ zero_extendqisi2
 2316              		.loc 7 529 109 discriminator 2
 2317 00e8 FB72     		strb	r3, [r7, #11]
 2318 00ea 2BE1     		b	.L119
 2319              	.L122:
 2320              		.loc 7 530 16
 2321 00ec BB7F     		ldrb	r3, [r7, #30]	@ zero_extendqisi2
 2322 00ee 03F0F003 		and	r3, r3, #240
 2323              		.loc 7 530 11
 2324 00f2 E02B     		cmp	r3, #224
 2325 00f4 13D1     		bne	.L123
 2326              		.loc 7 530 30 discriminator 1
 2327 00f6 3B68     		ldr	r3, [r7]
 2328 00f8 022B     		cmp	r3, #2
 2329 00fa 10D9     		bls	.L123
 2330              		.loc 7 530 51 discriminator 2
 2331 00fc 7B7F     		ldrb	r3, [r7, #29]
 2332 00fe 43F00E03 		orr	r3, r3, #14
 2333 0102 DBB2     		uxtb	r3, r3
 2334 0104 3B72     		strb	r3, [r7, #8]
 2335              		.loc 7 530 77 discriminator 2
 2336 0106 7B68     		ldr	r3, [r7, #4]
 2337 0108 1B78     		ldrb	r3, [r3]	@ zero_extendqisi2
 2338              		.loc 7 530 73 discriminator 2
 2339 010a 7B72     		strb	r3, [r7, #9]
 2340              		.loc 7 530 95 discriminator 2
 2341 010c 7B68     		ldr	r3, [r7, #4]
 2342 010e 0133     		adds	r3, r3, #1
 2343 0110 1B78     		ldrb	r3, [r3]	@ zero_extendqisi2
 2344              		.loc 7 530 91 discriminator 2
 2345 0112 BB72     		strb	r3, [r7, #10]
 2346              		.loc 7 530 113 discriminator 2
 2347 0114 7B68     		ldr	r3, [r7, #4]
 2348 0116 0233     		adds	r3, r3, #2
 2349 0118 1B78     		ldrb	r3, [r3]	@ zero_extendqisi2
 2350              		.loc 7 530 109 discriminator 2
 2351 011a FB72     		strb	r3, [r7, #11]
 2352 011c 12E1     		b	.L119
 2353              	.L123:
 2354              		.loc 7 531 16
 2355 011e BB7F     		ldrb	r3, [r7, #30]	@ zero_extendqisi2
 2356 0120 03F0F003 		and	r3, r3, #240
 2357              		.loc 7 531 11
 2358 0124 C02B     		cmp	r3, #192
 2359 0126 11D1     		bne	.L124
 2360              		.loc 7 531 30 discriminator 1
 2361 0128 3B68     		ldr	r3, [r7]
ARM GAS  C:\Users\DEVELO~1\AppData\Local\Temp\ccBydanM.s 			page 43


 2362 012a 012B     		cmp	r3, #1
 2363 012c 0ED9     		bls	.L124
 2364              		.loc 7 531 51 discriminator 2
 2365 012e 7B7F     		ldrb	r3, [r7, #29]
 2366 0130 43F00C03 		orr	r3, r3, #12
 2367 0134 DBB2     		uxtb	r3, r3
 2368 0136 3B72     		strb	r3, [r7, #8]
 2369              		.loc 7 531 77 discriminator 2
 2370 0138 7B68     		ldr	r3, [r7, #4]
 2371 013a 1B78     		ldrb	r3, [r3]	@ zero_extendqisi2
 2372              		.loc 7 531 73 discriminator 2
 2373 013c 7B72     		strb	r3, [r7, #9]
 2374              		.loc 7 531 95 discriminator 2
 2375 013e 7B68     		ldr	r3, [r7, #4]
 2376 0140 0133     		adds	r3, r3, #1
 2377 0142 1B78     		ldrb	r3, [r3]	@ zero_extendqisi2
 2378              		.loc 7 531 91 discriminator 2
 2379 0144 BB72     		strb	r3, [r7, #10]
 2380              		.loc 7 531 109 discriminator 2
 2381 0146 0023     		movs	r3, #0
 2382 0148 FB72     		strb	r3, [r7, #11]
 2383 014a FBE0     		b	.L119
 2384              	.L124:
 2385              		.loc 7 532 16
 2386 014c BB7F     		ldrb	r3, [r7, #30]	@ zero_extendqisi2
 2387 014e 03F0F003 		and	r3, r3, #240
 2388              		.loc 7 532 11
 2389 0152 D02B     		cmp	r3, #208
 2390 0154 11D1     		bne	.L125
 2391              		.loc 7 532 30 discriminator 1
 2392 0156 3B68     		ldr	r3, [r7]
 2393 0158 012B     		cmp	r3, #1
 2394 015a 0ED9     		bls	.L125
 2395              		.loc 7 532 51 discriminator 2
 2396 015c 7B7F     		ldrb	r3, [r7, #29]
 2397 015e 43F00D03 		orr	r3, r3, #13
 2398 0162 DBB2     		uxtb	r3, r3
 2399 0164 3B72     		strb	r3, [r7, #8]
 2400              		.loc 7 532 77 discriminator 2
 2401 0166 7B68     		ldr	r3, [r7, #4]
 2402 0168 1B78     		ldrb	r3, [r3]	@ zero_extendqisi2
 2403              		.loc 7 532 73 discriminator 2
 2404 016a 7B72     		strb	r3, [r7, #9]
 2405              		.loc 7 532 95 discriminator 2
 2406 016c 7B68     		ldr	r3, [r7, #4]
 2407 016e 0133     		adds	r3, r3, #1
 2408 0170 1B78     		ldrb	r3, [r3]	@ zero_extendqisi2
 2409              		.loc 7 532 91 discriminator 2
 2410 0172 BB72     		strb	r3, [r7, #10]
 2411              		.loc 7 532 109 discriminator 2
 2412 0174 0023     		movs	r3, #0
 2413 0176 FB72     		strb	r3, [r7, #11]
 2414 0178 E4E0     		b	.L119
 2415              	.L125:
 2416              		.loc 7 535 11
 2417 017a BB7F     		ldrb	r3, [r7, #30]	@ zero_extendqisi2
 2418 017c F12B     		cmp	r3, #241
ARM GAS  C:\Users\DEVELO~1\AppData\Local\Temp\ccBydanM.s 			page 44


 2419 017e 0ED1     		bne	.L126
 2420              		.loc 7 535 21 discriminator 1
 2421 0180 3B68     		ldr	r3, [r7]
 2422 0182 012B     		cmp	r3, #1
 2423 0184 0BD9     		bls	.L126
 2424              		.loc 7 535 42 discriminator 2
 2425 0186 7B7F     		ldrb	r3, [r7, #29]
 2426 0188 43F00203 		orr	r3, r3, #2
 2427 018c DBB2     		uxtb	r3, r3
 2428 018e 3B72     		strb	r3, [r7, #8]
 2429              		.loc 7 535 64 discriminator 2
 2430 0190 F123     		movs	r3, #241
 2431 0192 7B72     		strb	r3, [r7, #9]
 2432              		.loc 7 535 84 discriminator 2
 2433 0194 7B68     		ldr	r3, [r7, #4]
 2434 0196 0133     		adds	r3, r3, #1
 2435 0198 1B78     		ldrb	r3, [r3]	@ zero_extendqisi2
 2436              		.loc 7 535 80 discriminator 2
 2437 019a BB72     		strb	r3, [r7, #10]
 2438 019c D2E0     		b	.L119
 2439              	.L126:
 2440              		.loc 7 536 11
 2441 019e BB7F     		ldrb	r3, [r7, #30]	@ zero_extendqisi2
 2442 01a0 F22B     		cmp	r3, #242
 2443 01a2 12D1     		bne	.L127
 2444              		.loc 7 536 21 discriminator 1
 2445 01a4 3B68     		ldr	r3, [r7]
 2446 01a6 022B     		cmp	r3, #2
 2447 01a8 0FD9     		bls	.L127
 2448              		.loc 7 536 42 discriminator 2
 2449 01aa 7B7F     		ldrb	r3, [r7, #29]
 2450 01ac 43F00303 		orr	r3, r3, #3
 2451 01b0 DBB2     		uxtb	r3, r3
 2452 01b2 3B72     		strb	r3, [r7, #8]
 2453              		.loc 7 536 64 discriminator 2
 2454 01b4 F223     		movs	r3, #242
 2455 01b6 7B72     		strb	r3, [r7, #9]
 2456              		.loc 7 536 84 discriminator 2
 2457 01b8 7B68     		ldr	r3, [r7, #4]
 2458 01ba 0133     		adds	r3, r3, #1
 2459 01bc 1B78     		ldrb	r3, [r3]	@ zero_extendqisi2
 2460              		.loc 7 536 80 discriminator 2
 2461 01be BB72     		strb	r3, [r7, #10]
 2462              		.loc 7 536 102 discriminator 2
 2463 01c0 7B68     		ldr	r3, [r7, #4]
 2464 01c2 0233     		adds	r3, r3, #2
 2465 01c4 1B78     		ldrb	r3, [r3]	@ zero_extendqisi2
 2466              		.loc 7 536 98 discriminator 2
 2467 01c6 FB72     		strb	r3, [r7, #11]
 2468 01c8 BCE0     		b	.L119
 2469              	.L127:
 2470              		.loc 7 537 11
 2471 01ca BB7F     		ldrb	r3, [r7, #30]	@ zero_extendqisi2
 2472 01cc F32B     		cmp	r3, #243
 2473 01ce 0ED1     		bne	.L128
 2474              		.loc 7 537 21 discriminator 1
 2475 01d0 3B68     		ldr	r3, [r7]
ARM GAS  C:\Users\DEVELO~1\AppData\Local\Temp\ccBydanM.s 			page 45


 2476 01d2 012B     		cmp	r3, #1
 2477 01d4 0BD9     		bls	.L128
 2478              		.loc 7 537 42 discriminator 2
 2479 01d6 7B7F     		ldrb	r3, [r7, #29]
 2480 01d8 43F00203 		orr	r3, r3, #2
 2481 01dc DBB2     		uxtb	r3, r3
 2482 01de 3B72     		strb	r3, [r7, #8]
 2483              		.loc 7 537 64 discriminator 2
 2484 01e0 F323     		movs	r3, #243
 2485 01e2 7B72     		strb	r3, [r7, #9]
 2486              		.loc 7 537 84 discriminator 2
 2487 01e4 7B68     		ldr	r3, [r7, #4]
 2488 01e6 0133     		adds	r3, r3, #1
 2489 01e8 1B78     		ldrb	r3, [r3]	@ zero_extendqisi2
 2490              		.loc 7 537 80 discriminator 2
 2491 01ea BB72     		strb	r3, [r7, #10]
 2492 01ec AAE0     		b	.L119
 2493              	.L128:
 2494              		.loc 7 538 11
 2495 01ee BB7F     		ldrb	r3, [r7, #30]	@ zero_extendqisi2
 2496 01f0 F62B     		cmp	r3, #246
 2497 01f2 07D1     		bne	.L129
 2498              		.loc 7 538 41 discriminator 1
 2499 01f4 7B7F     		ldrb	r3, [r7, #29]
 2500 01f6 43F00F03 		orr	r3, r3, #15
 2501 01fa DBB2     		uxtb	r3, r3
 2502 01fc 3B72     		strb	r3, [r7, #8]
 2503              		.loc 7 538 63 discriminator 1
 2504 01fe F623     		movs	r3, #246
 2505 0200 7B72     		strb	r3, [r7, #9]
 2506 0202 9FE0     		b	.L119
 2507              	.L129:
 2508              		.loc 7 541 11
 2509 0204 BB7F     		ldrb	r3, [r7, #30]	@ zero_extendqisi2
 2510 0206 F72B     		cmp	r3, #247
 2511 0208 7DD9     		bls	.L130
 2512              	.LBB64:
 2513              		.loc 7 542 14
 2514 020a 7B7F     		ldrb	r3, [r7, #29]
 2515 020c 43F00F03 		orr	r3, r3, #15
 2516 0210 DBB2     		uxtb	r3, r3
 2517 0212 3B72     		strb	r3, [r7, #8]
 2518              		.loc 7 542 36
 2519 0214 BB7F     		ldrb	r3, [r7, #30]
 2520 0216 7B72     		strb	r3, [r7, #9]
 2521              		.loc 7 544 8
 2522 0218 BB7F     		ldrb	r3, [r7, #30]	@ zero_extendqisi2
 2523 021a F82B     		cmp	r3, #248
 2524 021c 27D1     		bne	.L131
 2525              		.loc 7 545 11
 2526 021e FFF7FEFF 		bl	midi_usb_ready
 2527 0222 0346     		mov	r3, r0
 2528              		.loc 7 545 10
 2529 0224 002B     		cmp	r3, #0
 2530 0226 12D0     		beq	.L132
 2531              		.loc 7 545 31 discriminator 1
 2532 0228 0021     		movs	r1, #0
ARM GAS  C:\Users\DEVELO~1\AppData\Local\Temp\ccBydanM.s 			page 46


 2533 022a 5D48     		ldr	r0, .L147
 2534 022c FFF7FEFF 		bl	chBSemWaitTimeout
 2535 0230 0346     		mov	r3, r0
 2536              		.loc 7 545 28 discriminator 1
 2537 0232 002B     		cmp	r3, #0
 2538 0234 0BD1     		bne	.L132
 2539              		.loc 7 546 9
 2540 0236 07F10803 		add	r3, r7, #8
 2541 023a 0421     		movs	r1, #4
 2542 023c 1846     		mov	r0, r3
 2543 023e FFF7FEFF 		bl	midi_usb_start_tx
 2544              		.loc 7 547 22
 2545 0242 584B     		ldr	r3, .L147+4
 2546 0244 1B68     		ldr	r3, [r3]
 2547              		.loc 7 547 40
 2548 0246 0133     		adds	r3, r3, #1
 2549 0248 564A     		ldr	r2, .L147+4
 2550 024a 1360     		str	r3, [r2]
 2551              		.loc 7 552 7
 2552 024c A4E0     		b	.L117
 2553              	.L132:
 2554              	.LBB65:
 2555              		.loc 7 549 31
 2556 024e 3B7A     		ldrb	r3, [r7, #8]	@ zero_extendqisi2
 2557              		.loc 7 549 34
 2558 0250 1A06     		lsls	r2, r3, #24
 2559              		.loc 7 549 54
 2560 0252 7B7A     		ldrb	r3, [r7, #9]	@ zero_extendqisi2
 2561              		.loc 7 549 57
 2562 0254 1B04     		lsls	r3, r3, #16
 2563              		.loc 7 549 39
 2564 0256 1A43     		orrs	r2, r2, r3
 2565              		.loc 7 549 77
 2566 0258 BB7A     		ldrb	r3, [r7, #10]	@ zero_extendqisi2
 2567              		.loc 7 549 80
 2568 025a 1B02     		lsls	r3, r3, #8
 2569              		.loc 7 549 62
 2570 025c 1343     		orrs	r3, r3, r2
 2571              		.loc 7 549 91
 2572 025e FA7A     		ldrb	r2, [r7, #11]	@ zero_extendqisi2
 2573              		.loc 7 549 15
 2574 0260 1343     		orrs	r3, r3, r2
 2575 0262 3B61     		str	r3, [r7, #16]
 2576              		.loc 7 550 9
 2577 0264 0021     		movs	r1, #0
 2578 0266 3869     		ldr	r0, [r7, #16]
 2579 0268 FFF7FEFF 		bl	post_mb_or_drop
 2580              	.LBE65:
 2581              		.loc 7 552 7
 2582 026c 94E0     		b	.L117
 2583              	.L131:
 2584              		.loc 7 555 8
 2585 026e BB7F     		ldrb	r3, [r7, #30]	@ zero_extendqisi2
 2586 0270 FA2B     		cmp	r3, #250
 2587 0272 0BD0     		beq	.L135
 2588              		.loc 7 555 18 discriminator 1
 2589 0274 BB7F     		ldrb	r3, [r7, #30]	@ zero_extendqisi2
ARM GAS  C:\Users\DEVELO~1\AppData\Local\Temp\ccBydanM.s 			page 47


 2590 0276 FB2B     		cmp	r3, #251
 2591 0278 08D0     		beq	.L135
 2592              		.loc 7 555 30 discriminator 2
 2593 027a BB7F     		ldrb	r3, [r7, #30]	@ zero_extendqisi2
 2594 027c FC2B     		cmp	r3, #252
 2595 027e 05D0     		beq	.L135
 2596              		.loc 7 555 42 discriminator 3
 2597 0280 BB7F     		ldrb	r3, [r7, #30]	@ zero_extendqisi2
 2598 0282 FE2B     		cmp	r3, #254
 2599 0284 02D0     		beq	.L135
 2600              		.loc 7 555 54 discriminator 4
 2601 0286 BB7F     		ldrb	r3, [r7, #30]	@ zero_extendqisi2
 2602 0288 FF2B     		cmp	r3, #255
 2603 028a 2CD1     		bne	.L136
 2604              	.L135:
 2605              		.loc 7 556 11
 2606 028c FFF7FEFF 		bl	midi_usb_ready
 2607 0290 0346     		mov	r3, r0
 2608              		.loc 7 556 10
 2609 0292 002B     		cmp	r3, #0
 2610 0294 12D0     		beq	.L137
 2611              		.loc 7 556 31 discriminator 1
 2612 0296 0021     		movs	r1, #0
 2613 0298 4148     		ldr	r0, .L147
 2614 029a FFF7FEFF 		bl	chBSemWaitTimeout
 2615 029e 0346     		mov	r3, r0
 2616              		.loc 7 556 28 discriminator 1
 2617 02a0 002B     		cmp	r3, #0
 2618 02a2 0BD1     		bne	.L137
 2619              		.loc 7 557 9
 2620 02a4 07F10803 		add	r3, r7, #8
 2621 02a8 0421     		movs	r1, #4
 2622 02aa 1846     		mov	r0, r3
 2623 02ac FFF7FEFF 		bl	midi_usb_start_tx
 2624              		.loc 7 558 22
 2625 02b0 3C4B     		ldr	r3, .L147+4
 2626 02b2 1B68     		ldr	r3, [r3]
 2627              		.loc 7 558 40
 2628 02b4 0133     		adds	r3, r3, #1
 2629 02b6 3B4A     		ldr	r2, .L147+4
 2630 02b8 1360     		str	r3, [r2]
 2631              		.loc 7 564 7
 2632 02ba 6DE0     		b	.L117
 2633              	.L137:
 2634              	.LBB66:
 2635              		.loc 7 560 22
 2636 02bc 394B     		ldr	r3, .L147+4
 2637 02be 1B69     		ldr	r3, [r3, #16]
 2638              		.loc 7 560 44
 2639 02c0 0133     		adds	r3, r3, #1
 2640 02c2 384A     		ldr	r2, .L147+4
 2641 02c4 1361     		str	r3, [r2, #16]
 2642              		.loc 7 561 31
 2643 02c6 3B7A     		ldrb	r3, [r7, #8]	@ zero_extendqisi2
 2644              		.loc 7 561 34
 2645 02c8 1A06     		lsls	r2, r3, #24
 2646              		.loc 7 561 54
ARM GAS  C:\Users\DEVELO~1\AppData\Local\Temp\ccBydanM.s 			page 48


 2647 02ca 7B7A     		ldrb	r3, [r7, #9]	@ zero_extendqisi2
 2648              		.loc 7 561 57
 2649 02cc 1B04     		lsls	r3, r3, #16
 2650              		.loc 7 561 39
 2651 02ce 1A43     		orrs	r2, r2, r3
 2652              		.loc 7 561 77
 2653 02d0 BB7A     		ldrb	r3, [r7, #10]	@ zero_extendqisi2
 2654              		.loc 7 561 80
 2655 02d2 1B02     		lsls	r3, r3, #8
 2656              		.loc 7 561 62
 2657 02d4 1343     		orrs	r3, r3, r2
 2658              		.loc 7 561 91
 2659 02d6 FA7A     		ldrb	r2, [r7, #11]	@ zero_extendqisi2
 2660              		.loc 7 561 15
 2661 02d8 1343     		orrs	r3, r3, r2
 2662 02da 7B61     		str	r3, [r7, #20]
 2663              		.loc 7 562 9
 2664 02dc 0121     		movs	r1, #1
 2665 02de 7869     		ldr	r0, [r7, #20]
 2666 02e0 FFF7FEFF 		bl	post_mb_or_drop
 2667              	.LBE66:
 2668              		.loc 7 564 7
 2669 02e4 58E0     		b	.L117
 2670              	.L136:
 2671              		.loc 7 567 28
 2672 02e6 3B7A     		ldrb	r3, [r7, #8]	@ zero_extendqisi2
 2673              		.loc 7 567 31
 2674 02e8 1A06     		lsls	r2, r3, #24
 2675              		.loc 7 567 51
 2676 02ea 7B7A     		ldrb	r3, [r7, #9]	@ zero_extendqisi2
 2677              		.loc 7 567 54
 2678 02ec 1B04     		lsls	r3, r3, #16
 2679              		.loc 7 567 36
 2680 02ee 1A43     		orrs	r2, r2, r3
 2681              		.loc 7 567 74
 2682 02f0 BB7A     		ldrb	r3, [r7, #10]	@ zero_extendqisi2
 2683              		.loc 7 567 77
 2684 02f2 1B02     		lsls	r3, r3, #8
 2685              		.loc 7 567 59
 2686 02f4 1343     		orrs	r3, r3, r2
 2687              		.loc 7 567 88
 2688 02f6 FA7A     		ldrb	r2, [r7, #11]	@ zero_extendqisi2
 2689              		.loc 7 567 11
 2690 02f8 1343     		orrs	r3, r3, r2
 2691 02fa BB61     		str	r3, [r7, #24]
 2692              		.loc 7 568 5
 2693 02fc 0021     		movs	r1, #0
 2694 02fe B869     		ldr	r0, [r7, #24]
 2695 0300 FFF7FEFF 		bl	post_mb_or_drop
 2696              		.loc 7 569 5
 2697 0304 48E0     		b	.L117
 2698              	.L130:
 2699              	.LBE64:
 2700              		.loc 7 572 19
 2701 0306 7B7F     		ldrb	r3, [r7, #29]
 2702 0308 43F00F03 		orr	r3, r3, #15
 2703 030c DBB2     		uxtb	r3, r3
ARM GAS  C:\Users\DEVELO~1\AppData\Local\Temp\ccBydanM.s 			page 49


 2704 030e 3B72     		strb	r3, [r7, #8]
 2705              		.loc 7 572 41
 2706 0310 3B68     		ldr	r3, [r7]
 2707 0312 002B     		cmp	r3, #0
 2708 0314 02D0     		beq	.L139
 2709              		.loc 7 572 41 is_stmt 0 discriminator 1
 2710 0316 7B68     		ldr	r3, [r7, #4]
 2711 0318 1B78     		ldrb	r3, [r3]	@ zero_extendqisi2
 2712 031a 00E0     		b	.L140
 2713              	.L139:
 2714              		.loc 7 572 41 discriminator 2
 2715 031c 0023     		movs	r3, #0
 2716              	.L140:
 2717              		.loc 7 572 41 discriminator 4
 2718 031e 7B72     		strb	r3, [r7, #9]
 2719              		.loc 7 572 67 is_stmt 1 discriminator 4
 2720 0320 3B68     		ldr	r3, [r7]
 2721 0322 012B     		cmp	r3, #1
 2722 0324 03D9     		bls	.L141
 2723              		.loc 7 572 77 discriminator 5
 2724 0326 7B68     		ldr	r3, [r7, #4]
 2725 0328 0133     		adds	r3, r3, #1
 2726              		.loc 7 572 67 discriminator 5
 2727 032a 1B78     		ldrb	r3, [r3]	@ zero_extendqisi2
 2728 032c 00E0     		b	.L142
 2729              	.L141:
 2730              		.loc 7 572 67 is_stmt 0 discriminator 6
 2731 032e 0023     		movs	r3, #0
 2732              	.L142:
 2733              		.loc 7 572 67 discriminator 8
 2734 0330 BB72     		strb	r3, [r7, #10]
 2735              		.loc 7 572 93 is_stmt 1 discriminator 8
 2736 0332 3B68     		ldr	r3, [r7]
 2737 0334 022B     		cmp	r3, #2
 2738 0336 03D9     		bls	.L143
 2739              		.loc 7 572 103 discriminator 9
 2740 0338 7B68     		ldr	r3, [r7, #4]
 2741 033a 0233     		adds	r3, r3, #2
 2742              		.loc 7 572 93 discriminator 9
 2743 033c 1B78     		ldrb	r3, [r3]	@ zero_extendqisi2
 2744 033e 00E0     		b	.L144
 2745              	.L143:
 2746              		.loc 7 572 93 is_stmt 0 discriminator 10
 2747 0340 0023     		movs	r3, #0
 2748              	.L144:
 2749              		.loc 7 572 93 discriminator 12
 2750 0342 FB72     		strb	r3, [r7, #11]
 2751              	.L119:
 2752              		.loc 7 574 6 is_stmt 1
 2753 0344 FB7F     		ldrb	r3, [r7, #31]	@ zero_extendqisi2
 2754 0346 002B     		cmp	r3, #0
 2755 0348 17D0     		beq	.L145
 2756              		.loc 7 575 9
 2757 034a FFF7FEFF 		bl	midi_usb_ready
 2758 034e 0346     		mov	r3, r0
 2759              		.loc 7 575 8
 2760 0350 002B     		cmp	r3, #0
ARM GAS  C:\Users\DEVELO~1\AppData\Local\Temp\ccBydanM.s 			page 50


 2761 0352 12D0     		beq	.L145
 2762              		.loc 7 575 29 discriminator 1
 2763 0354 0021     		movs	r1, #0
 2764 0356 1248     		ldr	r0, .L147
 2765 0358 FFF7FEFF 		bl	chBSemWaitTimeout
 2766 035c 0346     		mov	r3, r0
 2767              		.loc 7 575 26 discriminator 1
 2768 035e 002B     		cmp	r3, #0
 2769 0360 0BD1     		bne	.L145
 2770              		.loc 7 576 7
 2771 0362 07F10803 		add	r3, r7, #8
 2772 0366 0421     		movs	r1, #4
 2773 0368 1846     		mov	r0, r3
 2774 036a FFF7FEFF 		bl	midi_usb_start_tx
 2775              		.loc 7 577 20
 2776 036e 0D4B     		ldr	r3, .L147+4
 2777 0370 1B68     		ldr	r3, [r3]
 2778              		.loc 7 577 38
 2779 0372 0133     		adds	r3, r3, #1
 2780 0374 0B4A     		ldr	r2, .L147+4
 2781 0376 1360     		str	r3, [r2]
 2782              		.loc 7 577 42
 2783 0378 0EE0     		b	.L117
 2784              	.L145:
 2785              		.loc 7 581 25
 2786 037a 3B7A     		ldrb	r3, [r7, #8]	@ zero_extendqisi2
 2787              		.loc 7 581 28
 2788 037c 1A06     		lsls	r2, r3, #24
 2789              		.loc 7 581 48
 2790 037e 7B7A     		ldrb	r3, [r7, #9]	@ zero_extendqisi2
 2791              		.loc 7 581 51
 2792 0380 1B04     		lsls	r3, r3, #16
 2793              		.loc 7 581 33
 2794 0382 1A43     		orrs	r2, r2, r3
 2795              		.loc 7 581 71
 2796 0384 BB7A     		ldrb	r3, [r7, #10]	@ zero_extendqisi2
 2797              		.loc 7 581 74
 2798 0386 1B02     		lsls	r3, r3, #8
 2799              		.loc 7 581 56
 2800 0388 1343     		orrs	r3, r3, r2
 2801              		.loc 7 581 85
 2802 038a FA7A     		ldrb	r2, [r7, #11]	@ zero_extendqisi2
 2803              		.loc 7 581 9
 2804 038c 1343     		orrs	r3, r3, r2
 2805 038e FB60     		str	r3, [r7, #12]
 2806              		.loc 7 582 3
 2807 0390 0021     		movs	r1, #0
 2808 0392 F868     		ldr	r0, [r7, #12]
 2809 0394 FFF7FEFF 		bl	post_mb_or_drop
 2810              	.L117:
 2811              		.loc 7 583 1
 2812 0398 2037     		adds	r7, r7, #32
 2813              		.cfi_def_cfa_offset 8
 2814 039a BD46     		mov	sp, r7
 2815              		.cfi_def_cfa_register 13
 2816              		@ sp needed
 2817 039c 80BD     		pop	{r7, pc}
ARM GAS  C:\Users\DEVELO~1\AppData\Local\Temp\ccBydanM.s 			page 51


 2818              	.L148:
 2819 039e 00BF     		.align	2
 2820              	.L147:
 2821 03a0 00000000 		.word	tx_sem
 2822 03a4 00000000 		.word	midi_tx_stats
 2823              		.cfi_endproc
 2824              	.LFE449:
 2825              		.size	send_usb, .-send_usb
 2826              		.section	.text.midi_send,"ax",%progbits
 2827              		.align	1
 2828              		.syntax unified
 2829              		.thumb
 2830              		.thumb_func
 2831              		.type	midi_send, %function
 2832              	midi_send:
 2833              	.LFB450:
 2834              		.loc 7 595 65
 2835              		.cfi_startproc
 2836              		@ args = 0, pretend = 0, frame = 16
 2837              		@ frame_needed = 1, uses_anonymous_args = 0
 2838 0000 80B5     		push	{r7, lr}
 2839              		.cfi_def_cfa_offset 8
 2840              		.cfi_offset 7, -8
 2841              		.cfi_offset 14, -4
 2842 0002 84B0     		sub	sp, sp, #16
 2843              		.cfi_def_cfa_offset 24
 2844 0004 00AF     		add	r7, sp, #0
 2845              		.cfi_def_cfa_register 7
 2846 0006 0346     		mov	r3, r0
 2847 0008 B960     		str	r1, [r7, #8]
 2848 000a 7A60     		str	r2, [r7, #4]
 2849 000c FB73     		strb	r3, [r7, #15]
 2850              		.loc 7 596 3
 2851 000e FB7B     		ldrb	r3, [r7, #15]	@ zero_extendqisi2
 2852 0010 032B     		cmp	r3, #3
 2853 0012 10D0     		beq	.L150
 2854 0014 032B     		cmp	r3, #3
 2855 0016 17DC     		bgt	.L155
 2856 0018 012B     		cmp	r3, #1
 2857 001a 02D0     		beq	.L152
 2858 001c 022B     		cmp	r3, #2
 2859 001e 05D0     		beq	.L153
 2860              		.loc 7 600 14
 2861 0020 12E0     		b	.L155
 2862              	.L152:
 2863              		.loc 7 597 26
 2864 0022 7968     		ldr	r1, [r7, #4]
 2865 0024 B868     		ldr	r0, [r7, #8]
 2866 0026 FFF7FEFF 		bl	send_uart
 2867              		.loc 7 597 42
 2868 002a 0EE0     		b	.L154
 2869              	.L153:
 2870              		.loc 7 598 26
 2871 002c 7968     		ldr	r1, [r7, #4]
 2872 002e B868     		ldr	r0, [r7, #8]
 2873 0030 FFF7FEFF 		bl	send_usb
 2874              		.loc 7 598 42
ARM GAS  C:\Users\DEVELO~1\AppData\Local\Temp\ccBydanM.s 			page 52


 2875 0034 09E0     		b	.L154
 2876              	.L150:
 2877              		.loc 7 599 26
 2878 0036 7968     		ldr	r1, [r7, #4]
 2879 0038 B868     		ldr	r0, [r7, #8]
 2880 003a FFF7FEFF 		bl	send_uart
 2881              		.loc 7 599 42
 2882 003e 7968     		ldr	r1, [r7, #4]
 2883 0040 B868     		ldr	r0, [r7, #8]
 2884 0042 FFF7FEFF 		bl	send_usb
 2885              		.loc 7 599 57
 2886 0046 00E0     		b	.L154
 2887              	.L155:
 2888              		.loc 7 600 14
 2889 0048 00BF     		nop
 2890              	.L154:
 2891              		.loc 7 602 1
 2892 004a 00BF     		nop
 2893 004c 1037     		adds	r7, r7, #16
 2894              		.cfi_def_cfa_offset 8
 2895 004e BD46     		mov	sp, r7
 2896              		.cfi_def_cfa_register 13
 2897              		@ sp needed
 2898 0050 80BD     		pop	{r7, pc}
 2899              		.cfi_endproc
 2900              	.LFE450:
 2901              		.size	midi_send, .-midi_send
 2902              		.section	.text.midi_set_rx_destination,"ax",%progbits
 2903              		.align	1
 2904              		.global	midi_set_rx_destination
 2905              		.syntax unified
 2906              		.thumb
 2907              		.thumb_func
 2908              		.type	midi_set_rx_destination, %function
 2909              	midi_set_rx_destination:
 2910              	.LFB451:
 2911              		.loc 7 604 48
 2912              		.cfi_startproc
 2913              		@ args = 0, pretend = 0, frame = 8
 2914              		@ frame_needed = 1, uses_anonymous_args = 0
 2915              		@ link register save eliminated.
 2916 0000 80B4     		push	{r7}
 2917              		.cfi_def_cfa_offset 4
 2918              		.cfi_offset 7, -4
 2919 0002 83B0     		sub	sp, sp, #12
 2920              		.cfi_def_cfa_offset 16
 2921 0004 00AF     		add	r7, sp, #0
 2922              		.cfi_def_cfa_register 7
 2923 0006 0346     		mov	r3, r0
 2924 0008 FB71     		strb	r3, [r7, #7]
 2925              		.loc 7 605 3
 2926 000a FB79     		ldrb	r3, [r7, #7]	@ zero_extendqisi2
 2927 000c 013B     		subs	r3, r3, #1
 2928 000e 022B     		cmp	r3, #2
 2929 0010 03D8     		bhi	.L157
 2930              		.loc 7 609 20
 2931 0012 064A     		ldr	r2, .L159
ARM GAS  C:\Users\DEVELO~1\AppData\Local\Temp\ccBydanM.s 			page 53


 2932 0014 FB79     		ldrb	r3, [r7, #7]
 2933 0016 1370     		strb	r3, [r2]
 2934              		.loc 7 610 7
 2935 0018 03E0     		b	.L158
 2936              	.L157:
 2937              		.loc 7 612 20
 2938 001a 044B     		ldr	r3, .L159
 2939 001c 0322     		movs	r2, #3
 2940 001e 1A70     		strb	r2, [r3]
 2941              		.loc 7 613 7
 2942 0020 00BF     		nop
 2943              	.L158:
 2944              		.loc 7 615 1
 2945 0022 00BF     		nop
 2946 0024 0C37     		adds	r7, r7, #12
 2947              		.cfi_def_cfa_offset 4
 2948 0026 BD46     		mov	sp, r7
 2949              		.cfi_def_cfa_register 13
 2950              		@ sp needed
 2951 0028 80BC     		pop	{r7}
 2952              		.cfi_restore 7
 2953              		.cfi_def_cfa_offset 0
 2954 002a 7047     		bx	lr
 2955              	.L160:
 2956              		.align	2
 2957              	.L159:
 2958 002c 00000000 		.word	midi_rx_dest
 2959              		.cfi_endproc
 2960              	.LFE451:
 2961              		.size	midi_set_rx_destination, .-midi_set_rx_destination
 2962              		.section	.text.midi_get_rx_destination,"ax",%progbits
 2963              		.align	1
 2964              		.global	midi_get_rx_destination
 2965              		.syntax unified
 2966              		.thumb
 2967              		.thumb_func
 2968              		.type	midi_get_rx_destination, %function
 2969              	midi_get_rx_destination:
 2970              	.LFB452:
 2971              		.loc 7 617 43
 2972              		.cfi_startproc
 2973              		@ args = 0, pretend = 0, frame = 0
 2974              		@ frame_needed = 1, uses_anonymous_args = 0
 2975              		@ link register save eliminated.
 2976 0000 80B4     		push	{r7}
 2977              		.cfi_def_cfa_offset 4
 2978              		.cfi_offset 7, -4
 2979 0002 00AF     		add	r7, sp, #0
 2980              		.cfi_def_cfa_register 7
 2981              		.loc 7 618 10
 2982 0004 024B     		ldr	r3, .L163
 2983 0006 1B78     		ldrb	r3, [r3]	@ zero_extendqisi2
 2984              		.loc 7 619 1
 2985 0008 1846     		mov	r0, r3
 2986 000a BD46     		mov	sp, r7
 2987              		.cfi_def_cfa_register 13
 2988              		@ sp needed
ARM GAS  C:\Users\DEVELO~1\AppData\Local\Temp\ccBydanM.s 			page 54


 2989 000c 80BC     		pop	{r7}
 2990              		.cfi_restore 7
 2991              		.cfi_def_cfa_offset 0
 2992 000e 7047     		bx	lr
 2993              	.L164:
 2994              		.align	2
 2995              	.L163:
 2996 0010 00000000 		.word	midi_rx_dest
 2997              		.cfi_endproc
 2998              	.LFE452:
 2999              		.size	midi_get_rx_destination, .-midi_get_rx_destination
 3000              		.section	.text.midi_note_on,"ax",%progbits
 3001              		.align	1
 3002              		.global	midi_note_on
 3003              		.syntax unified
 3004              		.thumb
 3005              		.thumb_func
 3006              		.type	midi_note_on, %function
 3007              	midi_note_on:
 3008              	.LFB453:
 3009              		.loc 7 625 64
 3010              		.cfi_startproc
 3011              		@ args = 0, pretend = 0, frame = 16
 3012              		@ frame_needed = 1, uses_anonymous_args = 0
 3013 0000 90B5     		push	{r4, r7, lr}
 3014              		.cfi_def_cfa_offset 12
 3015              		.cfi_offset 4, -12
 3016              		.cfi_offset 7, -8
 3017              		.cfi_offset 14, -4
 3018 0002 85B0     		sub	sp, sp, #20
 3019              		.cfi_def_cfa_offset 32
 3020 0004 00AF     		add	r7, sp, #0
 3021              		.cfi_def_cfa_register 7
 3022 0006 0446     		mov	r4, r0
 3023 0008 0846     		mov	r0, r1
 3024 000a 1146     		mov	r1, r2
 3025 000c 1A46     		mov	r2, r3
 3026 000e 2346     		mov	r3, r4
 3027 0010 FB71     		strb	r3, [r7, #7]
 3028 0012 0346     		mov	r3, r0
 3029 0014 BB71     		strb	r3, [r7, #6]
 3030 0016 0B46     		mov	r3, r1
 3031 0018 7B71     		strb	r3, [r7, #5]
 3032 001a 1346     		mov	r3, r2
 3033 001c 3B71     		strb	r3, [r7, #4]
 3034              		.loc 7 626 10
 3035 001e 3B79     		ldrb	r3, [r7, #4]	@ zero_extendqisi2
 3036 0020 03F07F03 		and	r3, r3, #127
 3037              		.loc 7 626 6
 3038 0024 002B     		cmp	r3, #0
 3039 0026 06D1     		bne	.L166
 3040              		.loc 7 626 23 discriminator 1
 3041 0028 7A79     		ldrb	r2, [r7, #5]	@ zero_extendqisi2
 3042 002a B979     		ldrb	r1, [r7, #6]	@ zero_extendqisi2
 3043 002c F879     		ldrb	r0, [r7, #7]	@ zero_extendqisi2
 3044 002e 0023     		movs	r3, #0
 3045 0030 FFF7FEFF 		bl	midi_note_off
ARM GAS  C:\Users\DEVELO~1\AppData\Local\Temp\ccBydanM.s 			page 55


 3046 0034 1AE0     		b	.L165
 3047              	.L166:
 3048              		.loc 7 627 36
 3049 0036 97F90630 		ldrsb	r3, [r7, #6]
 3050 003a 03F00F03 		and	r3, r3, #15
 3051 003e 5BB2     		sxtb	r3, r3
 3052              		.loc 7 627 32
 3053 0040 63F06F03 		orn	r3, r3, #111
 3054 0044 5BB2     		sxtb	r3, r3
 3055              		.loc 7 627 18
 3056 0046 DBB2     		uxtb	r3, r3
 3057              		.loc 7 627 11
 3058 0048 3B73     		strb	r3, [r7, #12]
 3059              		.loc 7 627 45
 3060 004a 7B79     		ldrb	r3, [r7, #5]
 3061 004c 03F07F03 		and	r3, r3, #127
 3062 0050 DBB2     		uxtb	r3, r3
 3063              		.loc 7 627 11
 3064 0052 7B73     		strb	r3, [r7, #13]
 3065              		.loc 7 627 64
 3066 0054 3B79     		ldrb	r3, [r7, #4]
 3067 0056 03F07F03 		and	r3, r3, #127
 3068 005a DBB2     		uxtb	r3, r3
 3069              		.loc 7 627 11
 3070 005c BB73     		strb	r3, [r7, #14]
 3071              		.loc 7 628 3
 3072 005e 07F10C01 		add	r1, r7, #12
 3073 0062 FB79     		ldrb	r3, [r7, #7]	@ zero_extendqisi2
 3074 0064 0322     		movs	r2, #3
 3075 0066 1846     		mov	r0, r3
 3076 0068 FFF7FEFF 		bl	midi_send
 3077              	.L165:
 3078              		.loc 7 629 1
 3079 006c 1437     		adds	r7, r7, #20
 3080              		.cfi_def_cfa_offset 12
 3081 006e BD46     		mov	sp, r7
 3082              		.cfi_def_cfa_register 13
 3083              		@ sp needed
 3084 0070 90BD     		pop	{r4, r7, pc}
 3085              		.cfi_endproc
 3086              	.LFE453:
 3087              		.size	midi_note_on, .-midi_note_on
 3088              		.section	.text.midi_note_off,"ax",%progbits
 3089              		.align	1
 3090              		.global	midi_note_off
 3091              		.syntax unified
 3092              		.thumb
 3093              		.thumb_func
 3094              		.type	midi_note_off, %function
 3095              	midi_note_off:
 3096              	.LFB454:
 3097              		.loc 7 631 65
 3098              		.cfi_startproc
 3099              		@ args = 0, pretend = 0, frame = 16
 3100              		@ frame_needed = 1, uses_anonymous_args = 0
 3101 0000 90B5     		push	{r4, r7, lr}
 3102              		.cfi_def_cfa_offset 12
ARM GAS  C:\Users\DEVELO~1\AppData\Local\Temp\ccBydanM.s 			page 56


 3103              		.cfi_offset 4, -12
 3104              		.cfi_offset 7, -8
 3105              		.cfi_offset 14, -4
 3106 0002 85B0     		sub	sp, sp, #20
 3107              		.cfi_def_cfa_offset 32
 3108 0004 00AF     		add	r7, sp, #0
 3109              		.cfi_def_cfa_register 7
 3110 0006 0446     		mov	r4, r0
 3111 0008 0846     		mov	r0, r1
 3112 000a 1146     		mov	r1, r2
 3113 000c 1A46     		mov	r2, r3
 3114 000e 2346     		mov	r3, r4
 3115 0010 FB71     		strb	r3, [r7, #7]
 3116 0012 0346     		mov	r3, r0
 3117 0014 BB71     		strb	r3, [r7, #6]
 3118 0016 0B46     		mov	r3, r1
 3119 0018 7B71     		strb	r3, [r7, #5]
 3120 001a 1346     		mov	r3, r2
 3121 001c 3B71     		strb	r3, [r7, #4]
 3122              		.loc 7 632 36
 3123 001e 97F90630 		ldrsb	r3, [r7, #6]
 3124 0022 03F00F03 		and	r3, r3, #15
 3125 0026 5BB2     		sxtb	r3, r3
 3126              		.loc 7 632 32
 3127 0028 63F07F03 		orn	r3, r3, #127
 3128 002c 5BB2     		sxtb	r3, r3
 3129              		.loc 7 632 18
 3130 002e DBB2     		uxtb	r3, r3
 3131              		.loc 7 632 11
 3132 0030 3B73     		strb	r3, [r7, #12]
 3133              		.loc 7 632 45
 3134 0032 7B79     		ldrb	r3, [r7, #5]
 3135 0034 03F07F03 		and	r3, r3, #127
 3136 0038 DBB2     		uxtb	r3, r3
 3137              		.loc 7 632 11
 3138 003a 7B73     		strb	r3, [r7, #13]
 3139              		.loc 7 632 64
 3140 003c 3B79     		ldrb	r3, [r7, #4]
 3141 003e 03F07F03 		and	r3, r3, #127
 3142 0042 DBB2     		uxtb	r3, r3
 3143              		.loc 7 632 11
 3144 0044 BB73     		strb	r3, [r7, #14]
 3145              		.loc 7 633 3
 3146 0046 07F10C01 		add	r1, r7, #12
 3147 004a FB79     		ldrb	r3, [r7, #7]	@ zero_extendqisi2
 3148 004c 0322     		movs	r2, #3
 3149 004e 1846     		mov	r0, r3
 3150 0050 FFF7FEFF 		bl	midi_send
 3151              		.loc 7 634 1
 3152 0054 00BF     		nop
 3153 0056 1437     		adds	r7, r7, #20
 3154              		.cfi_def_cfa_offset 12
 3155 0058 BD46     		mov	sp, r7
 3156              		.cfi_def_cfa_register 13
 3157              		@ sp needed
 3158 005a 90BD     		pop	{r4, r7, pc}
 3159              		.cfi_endproc
ARM GAS  C:\Users\DEVELO~1\AppData\Local\Temp\ccBydanM.s 			page 57


 3160              	.LFE454:
 3161              		.size	midi_note_off, .-midi_note_off
 3162              		.section	.text.midi_poly_aftertouch,"ax",%progbits
 3163              		.align	1
 3164              		.global	midi_poly_aftertouch
 3165              		.syntax unified
 3166              		.thumb
 3167              		.thumb_func
 3168              		.type	midi_poly_aftertouch, %function
 3169              	midi_poly_aftertouch:
 3170              	.LFB455:
 3171              		.loc 7 636 72
 3172              		.cfi_startproc
 3173              		@ args = 0, pretend = 0, frame = 16
 3174              		@ frame_needed = 1, uses_anonymous_args = 0
 3175 0000 90B5     		push	{r4, r7, lr}
 3176              		.cfi_def_cfa_offset 12
 3177              		.cfi_offset 4, -12
 3178              		.cfi_offset 7, -8
 3179              		.cfi_offset 14, -4
 3180 0002 85B0     		sub	sp, sp, #20
 3181              		.cfi_def_cfa_offset 32
 3182 0004 00AF     		add	r7, sp, #0
 3183              		.cfi_def_cfa_register 7
 3184 0006 0446     		mov	r4, r0
 3185 0008 0846     		mov	r0, r1
 3186 000a 1146     		mov	r1, r2
 3187 000c 1A46     		mov	r2, r3
 3188 000e 2346     		mov	r3, r4
 3189 0010 FB71     		strb	r3, [r7, #7]
 3190 0012 0346     		mov	r3, r0
 3191 0014 BB71     		strb	r3, [r7, #6]
 3192 0016 0B46     		mov	r3, r1
 3193 0018 7B71     		strb	r3, [r7, #5]
 3194 001a 1346     		mov	r3, r2
 3195 001c 3B71     		strb	r3, [r7, #4]
 3196              		.loc 7 637 36
 3197 001e 97F90630 		ldrsb	r3, [r7, #6]
 3198 0022 03F00F03 		and	r3, r3, #15
 3199 0026 5BB2     		sxtb	r3, r3
 3200              		.loc 7 637 32
 3201 0028 63F05F03 		orn	r3, r3, #95
 3202 002c 5BB2     		sxtb	r3, r3
 3203              		.loc 7 637 18
 3204 002e DBB2     		uxtb	r3, r3
 3205              		.loc 7 637 11
 3206 0030 3B73     		strb	r3, [r7, #12]
 3207              		.loc 7 637 45
 3208 0032 7B79     		ldrb	r3, [r7, #5]
 3209 0034 03F07F03 		and	r3, r3, #127
 3210 0038 DBB2     		uxtb	r3, r3
 3211              		.loc 7 637 11
 3212 003a 7B73     		strb	r3, [r7, #13]
 3213              		.loc 7 637 64
 3214 003c 3B79     		ldrb	r3, [r7, #4]
 3215 003e 03F07F03 		and	r3, r3, #127
 3216 0042 DBB2     		uxtb	r3, r3
ARM GAS  C:\Users\DEVELO~1\AppData\Local\Temp\ccBydanM.s 			page 58


 3217              		.loc 7 637 11
 3218 0044 BB73     		strb	r3, [r7, #14]
 3219              		.loc 7 638 3
 3220 0046 07F10C01 		add	r1, r7, #12
 3221 004a FB79     		ldrb	r3, [r7, #7]	@ zero_extendqisi2
 3222 004c 0322     		movs	r2, #3
 3223 004e 1846     		mov	r0, r3
 3224 0050 FFF7FEFF 		bl	midi_send
 3225              		.loc 7 639 1
 3226 0054 00BF     		nop
 3227 0056 1437     		adds	r7, r7, #20
 3228              		.cfi_def_cfa_offset 12
 3229 0058 BD46     		mov	sp, r7
 3230              		.cfi_def_cfa_register 13
 3231              		@ sp needed
 3232 005a 90BD     		pop	{r4, r7, pc}
 3233              		.cfi_endproc
 3234              	.LFE455:
 3235              		.size	midi_poly_aftertouch, .-midi_poly_aftertouch
 3236              		.section	.text.midi_cc,"ax",%progbits
 3237              		.align	1
 3238              		.global	midi_cc
 3239              		.syntax unified
 3240              		.thumb
 3241              		.thumb_func
 3242              		.type	midi_cc, %function
 3243              	midi_cc:
 3244              	.LFB456:
 3245              		.loc 7 641 59
 3246              		.cfi_startproc
 3247              		@ args = 0, pretend = 0, frame = 16
 3248              		@ frame_needed = 1, uses_anonymous_args = 0
 3249 0000 90B5     		push	{r4, r7, lr}
 3250              		.cfi_def_cfa_offset 12
 3251              		.cfi_offset 4, -12
 3252              		.cfi_offset 7, -8
 3253              		.cfi_offset 14, -4
 3254 0002 85B0     		sub	sp, sp, #20
 3255              		.cfi_def_cfa_offset 32
 3256 0004 00AF     		add	r7, sp, #0
 3257              		.cfi_def_cfa_register 7
 3258 0006 0446     		mov	r4, r0
 3259 0008 0846     		mov	r0, r1
 3260 000a 1146     		mov	r1, r2
 3261 000c 1A46     		mov	r2, r3
 3262 000e 2346     		mov	r3, r4
 3263 0010 FB71     		strb	r3, [r7, #7]
 3264 0012 0346     		mov	r3, r0
 3265 0014 BB71     		strb	r3, [r7, #6]
 3266 0016 0B46     		mov	r3, r1
 3267 0018 7B71     		strb	r3, [r7, #5]
 3268 001a 1346     		mov	r3, r2
 3269 001c 3B71     		strb	r3, [r7, #4]
 3270              		.loc 7 642 36
 3271 001e 97F90630 		ldrsb	r3, [r7, #6]
 3272 0022 03F00F03 		and	r3, r3, #15
 3273 0026 5BB2     		sxtb	r3, r3
ARM GAS  C:\Users\DEVELO~1\AppData\Local\Temp\ccBydanM.s 			page 59


 3274              		.loc 7 642 32
 3275 0028 63F04F03 		orn	r3, r3, #79
 3276 002c 5BB2     		sxtb	r3, r3
 3277              		.loc 7 642 18
 3278 002e DBB2     		uxtb	r3, r3
 3279              		.loc 7 642 11
 3280 0030 3B73     		strb	r3, [r7, #12]
 3281              		.loc 7 642 45
 3282 0032 7B79     		ldrb	r3, [r7, #5]
 3283 0034 03F07F03 		and	r3, r3, #127
 3284 0038 DBB2     		uxtb	r3, r3
 3285              		.loc 7 642 11
 3286 003a 7B73     		strb	r3, [r7, #13]
 3287              		.loc 7 642 64
 3288 003c 3B79     		ldrb	r3, [r7, #4]
 3289 003e 03F07F03 		and	r3, r3, #127
 3290 0042 DBB2     		uxtb	r3, r3
 3291              		.loc 7 642 11
 3292 0044 BB73     		strb	r3, [r7, #14]
 3293              		.loc 7 643 3
 3294 0046 07F10C01 		add	r1, r7, #12
 3295 004a FB79     		ldrb	r3, [r7, #7]	@ zero_extendqisi2
 3296 004c 0322     		movs	r2, #3
 3297 004e 1846     		mov	r0, r3
 3298 0050 FFF7FEFF 		bl	midi_send
 3299              		.loc 7 644 1
 3300 0054 00BF     		nop
 3301 0056 1437     		adds	r7, r7, #20
 3302              		.cfi_def_cfa_offset 12
 3303 0058 BD46     		mov	sp, r7
 3304              		.cfi_def_cfa_register 13
 3305              		@ sp needed
 3306 005a 90BD     		pop	{r4, r7, pc}
 3307              		.cfi_endproc
 3308              	.LFE456:
 3309              		.size	midi_cc, .-midi_cc
 3310              		.section	.text.midi_program_change,"ax",%progbits
 3311              		.align	1
 3312              		.global	midi_program_change
 3313              		.syntax unified
 3314              		.thumb
 3315              		.thumb_func
 3316              		.type	midi_program_change, %function
 3317              	midi_program_change:
 3318              	.LFB457:
 3319              		.loc 7 646 62
 3320              		.cfi_startproc
 3321              		@ args = 0, pretend = 0, frame = 16
 3322              		@ frame_needed = 1, uses_anonymous_args = 0
 3323 0000 80B5     		push	{r7, lr}
 3324              		.cfi_def_cfa_offset 8
 3325              		.cfi_offset 7, -8
 3326              		.cfi_offset 14, -4
 3327 0002 84B0     		sub	sp, sp, #16
 3328              		.cfi_def_cfa_offset 24
 3329 0004 00AF     		add	r7, sp, #0
 3330              		.cfi_def_cfa_register 7
ARM GAS  C:\Users\DEVELO~1\AppData\Local\Temp\ccBydanM.s 			page 60


 3331 0006 0346     		mov	r3, r0
 3332 0008 FB71     		strb	r3, [r7, #7]
 3333 000a 0B46     		mov	r3, r1
 3334 000c BB71     		strb	r3, [r7, #6]
 3335 000e 1346     		mov	r3, r2
 3336 0010 7B71     		strb	r3, [r7, #5]
 3337              		.loc 7 647 36
 3338 0012 97F90630 		ldrsb	r3, [r7, #6]
 3339 0016 03F00F03 		and	r3, r3, #15
 3340 001a 5BB2     		sxtb	r3, r3
 3341              		.loc 7 647 32
 3342 001c 63F03F03 		orn	r3, r3, #63
 3343 0020 5BB2     		sxtb	r3, r3
 3344              		.loc 7 647 18
 3345 0022 DBB2     		uxtb	r3, r3
 3346              		.loc 7 647 11
 3347 0024 3B73     		strb	r3, [r7, #12]
 3348              		.loc 7 647 45
 3349 0026 7B79     		ldrb	r3, [r7, #5]
 3350 0028 03F07F03 		and	r3, r3, #127
 3351 002c DBB2     		uxtb	r3, r3
 3352              		.loc 7 647 11
 3353 002e 7B73     		strb	r3, [r7, #13]
 3354              		.loc 7 648 3
 3355 0030 07F10C01 		add	r1, r7, #12
 3356 0034 FB79     		ldrb	r3, [r7, #7]	@ zero_extendqisi2
 3357 0036 0222     		movs	r2, #2
 3358 0038 1846     		mov	r0, r3
 3359 003a FFF7FEFF 		bl	midi_send
 3360              		.loc 7 649 1
 3361 003e 00BF     		nop
 3362 0040 1037     		adds	r7, r7, #16
 3363              		.cfi_def_cfa_offset 8
 3364 0042 BD46     		mov	sp, r7
 3365              		.cfi_def_cfa_register 13
 3366              		@ sp needed
 3367 0044 80BD     		pop	{r7, pc}
 3368              		.cfi_endproc
 3369              	.LFE457:
 3370              		.size	midi_program_change, .-midi_program_change
 3371              		.section	.text.midi_channel_pressure,"ax",%progbits
 3372              		.align	1
 3373              		.global	midi_channel_pressure
 3374              		.syntax unified
 3375              		.thumb
 3376              		.thumb_func
 3377              		.type	midi_channel_pressure, %function
 3378              	midi_channel_pressure:
 3379              	.LFB458:
 3380              		.loc 7 651 63
 3381              		.cfi_startproc
 3382              		@ args = 0, pretend = 0, frame = 16
 3383              		@ frame_needed = 1, uses_anonymous_args = 0
 3384 0000 80B5     		push	{r7, lr}
 3385              		.cfi_def_cfa_offset 8
 3386              		.cfi_offset 7, -8
 3387              		.cfi_offset 14, -4
ARM GAS  C:\Users\DEVELO~1\AppData\Local\Temp\ccBydanM.s 			page 61


 3388 0002 84B0     		sub	sp, sp, #16
 3389              		.cfi_def_cfa_offset 24
 3390 0004 00AF     		add	r7, sp, #0
 3391              		.cfi_def_cfa_register 7
 3392 0006 0346     		mov	r3, r0
 3393 0008 FB71     		strb	r3, [r7, #7]
 3394 000a 0B46     		mov	r3, r1
 3395 000c BB71     		strb	r3, [r7, #6]
 3396 000e 1346     		mov	r3, r2
 3397 0010 7B71     		strb	r3, [r7, #5]
 3398              		.loc 7 652 36
 3399 0012 97F90630 		ldrsb	r3, [r7, #6]
 3400 0016 03F00F03 		and	r3, r3, #15
 3401 001a 5BB2     		sxtb	r3, r3
 3402              		.loc 7 652 32
 3403 001c 63F02F03 		orn	r3, r3, #47
 3404 0020 5BB2     		sxtb	r3, r3
 3405              		.loc 7 652 18
 3406 0022 DBB2     		uxtb	r3, r3
 3407              		.loc 7 652 11
 3408 0024 3B73     		strb	r3, [r7, #12]
 3409              		.loc 7 652 45
 3410 0026 7B79     		ldrb	r3, [r7, #5]
 3411 0028 03F07F03 		and	r3, r3, #127
 3412 002c DBB2     		uxtb	r3, r3
 3413              		.loc 7 652 11
 3414 002e 7B73     		strb	r3, [r7, #13]
 3415              		.loc 7 653 3
 3416 0030 07F10C01 		add	r1, r7, #12
 3417 0034 FB79     		ldrb	r3, [r7, #7]	@ zero_extendqisi2
 3418 0036 0222     		movs	r2, #2
 3419 0038 1846     		mov	r0, r3
 3420 003a FFF7FEFF 		bl	midi_send
 3421              		.loc 7 654 1
 3422 003e 00BF     		nop
 3423 0040 1037     		adds	r7, r7, #16
 3424              		.cfi_def_cfa_offset 8
 3425 0042 BD46     		mov	sp, r7
 3426              		.cfi_def_cfa_register 13
 3427              		@ sp needed
 3428 0044 80BD     		pop	{r7, pc}
 3429              		.cfi_endproc
 3430              	.LFE458:
 3431              		.size	midi_channel_pressure, .-midi_channel_pressure
 3432              		.section	.text.midi_pitchbend,"ax",%progbits
 3433              		.align	1
 3434              		.global	midi_pitchbend
 3435              		.syntax unified
 3436              		.thumb
 3437              		.thumb_func
 3438              		.type	midi_pitchbend, %function
 3439              	midi_pitchbend:
 3440              	.LFB459:
 3441              		.loc 7 656 58
 3442              		.cfi_startproc
 3443              		@ args = 0, pretend = 0, frame = 16
 3444              		@ frame_needed = 1, uses_anonymous_args = 0
ARM GAS  C:\Users\DEVELO~1\AppData\Local\Temp\ccBydanM.s 			page 62


 3445 0000 80B5     		push	{r7, lr}
 3446              		.cfi_def_cfa_offset 8
 3447              		.cfi_offset 7, -8
 3448              		.cfi_offset 14, -4
 3449 0002 84B0     		sub	sp, sp, #16
 3450              		.cfi_def_cfa_offset 24
 3451 0004 00AF     		add	r7, sp, #0
 3452              		.cfi_def_cfa_register 7
 3453 0006 0346     		mov	r3, r0
 3454 0008 FB71     		strb	r3, [r7, #7]
 3455 000a 0B46     		mov	r3, r1
 3456 000c BB71     		strb	r3, [r7, #6]
 3457 000e 1346     		mov	r3, r2	@ movhi
 3458 0010 BB80     		strh	r3, [r7, #4]	@ movhi
 3459              		.loc 7 657 14
 3460 0012 BB88     		ldrh	r3, [r7, #4]
 3461              		.loc 7 657 12
 3462 0014 03F50053 		add	r3, r3, #8192
 3463 0018 FB81     		strh	r3, [r7, #14]	@ movhi
 3464              		.loc 7 658 14
 3465 001a FB89     		ldrh	r3, [r7, #14]	@ movhi
 3466 001c DBB2     		uxtb	r3, r3
 3467              		.loc 7 658 11
 3468 001e 03F07F03 		and	r3, r3, #127
 3469 0022 7B73     		strb	r3, [r7, #13]
 3470              		.loc 7 658 29
 3471 0024 FB89     		ldrh	r3, [r7, #14]
 3472 0026 DB09     		lsrs	r3, r3, #7
 3473 0028 9BB2     		uxth	r3, r3
 3474 002a DBB2     		uxtb	r3, r3
 3475              		.loc 7 658 21
 3476 002c 03F07F03 		and	r3, r3, #127
 3477 0030 3B73     		strb	r3, [r7, #12]
 3478              		.loc 7 659 38
 3479 0032 97F90630 		ldrsb	r3, [r7, #6]
 3480 0036 03F00F03 		and	r3, r3, #15
 3481 003a 5BB2     		sxtb	r3, r3
 3482              		.loc 7 659 34
 3483 003c 63F01F03 		orn	r3, r3, #31
 3484 0040 5BB2     		sxtb	r3, r3
 3485              		.loc 7 659 20
 3486 0042 DBB2     		uxtb	r3, r3
 3487              		.loc 7 659 11
 3488 0044 3B72     		strb	r3, [r7, #8]
 3489 0046 7B7B     		ldrb	r3, [r7, #13]
 3490 0048 7B72     		strb	r3, [r7, #9]
 3491 004a 3B7B     		ldrb	r3, [r7, #12]
 3492 004c BB72     		strb	r3, [r7, #10]
 3493              		.loc 7 660 3
 3494 004e 07F10801 		add	r1, r7, #8
 3495 0052 FB79     		ldrb	r3, [r7, #7]	@ zero_extendqisi2
 3496 0054 0322     		movs	r2, #3
 3497 0056 1846     		mov	r0, r3
 3498 0058 FFF7FEFF 		bl	midi_send
 3499              		.loc 7 661 1
 3500 005c 00BF     		nop
 3501 005e 1037     		adds	r7, r7, #16
ARM GAS  C:\Users\DEVELO~1\AppData\Local\Temp\ccBydanM.s 			page 63


 3502              		.cfi_def_cfa_offset 8
 3503 0060 BD46     		mov	sp, r7
 3504              		.cfi_def_cfa_register 13
 3505              		@ sp needed
 3506 0062 80BD     		pop	{r7, pc}
 3507              		.cfi_endproc
 3508              	.LFE459:
 3509              		.size	midi_pitchbend, .-midi_pitchbend
 3510              		.section	.text.midi_mtc_quarter_frame,"ax",%progbits
 3511              		.align	1
 3512              		.global	midi_mtc_quarter_frame
 3513              		.syntax unified
 3514              		.thumb
 3515              		.thumb_func
 3516              		.type	midi_mtc_quarter_frame, %function
 3517              	midi_mtc_quarter_frame:
 3518              	.LFB460:
 3519              		.loc 7 663 54
 3520              		.cfi_startproc
 3521              		@ args = 0, pretend = 0, frame = 16
 3522              		@ frame_needed = 1, uses_anonymous_args = 0
 3523 0000 80B5     		push	{r7, lr}
 3524              		.cfi_def_cfa_offset 8
 3525              		.cfi_offset 7, -8
 3526              		.cfi_offset 14, -4
 3527 0002 84B0     		sub	sp, sp, #16
 3528              		.cfi_def_cfa_offset 24
 3529 0004 00AF     		add	r7, sp, #0
 3530              		.cfi_def_cfa_register 7
 3531 0006 0346     		mov	r3, r0
 3532 0008 0A46     		mov	r2, r1
 3533 000a FB71     		strb	r3, [r7, #7]
 3534 000c 1346     		mov	r3, r2
 3535 000e BB71     		strb	r3, [r7, #6]
 3536              		.loc 7 664 11
 3537 0010 F123     		movs	r3, #241
 3538 0012 3B73     		strb	r3, [r7, #12]
 3539              		.loc 7 664 23
 3540 0014 BB79     		ldrb	r3, [r7, #6]
 3541 0016 03F07F03 		and	r3, r3, #127
 3542 001a DBB2     		uxtb	r3, r3
 3543              		.loc 7 664 11
 3544 001c 7B73     		strb	r3, [r7, #13]
 3545              		.loc 7 665 3
 3546 001e 07F10C01 		add	r1, r7, #12
 3547 0022 FB79     		ldrb	r3, [r7, #7]	@ zero_extendqisi2
 3548 0024 0222     		movs	r2, #2
 3549 0026 1846     		mov	r0, r3
 3550 0028 FFF7FEFF 		bl	midi_send
 3551              		.loc 7 666 1
 3552 002c 00BF     		nop
 3553 002e 1037     		adds	r7, r7, #16
 3554              		.cfi_def_cfa_offset 8
 3555 0030 BD46     		mov	sp, r7
 3556              		.cfi_def_cfa_register 13
 3557              		@ sp needed
 3558 0032 80BD     		pop	{r7, pc}
ARM GAS  C:\Users\DEVELO~1\AppData\Local\Temp\ccBydanM.s 			page 64


 3559              		.cfi_endproc
 3560              	.LFE460:
 3561              		.size	midi_mtc_quarter_frame, .-midi_mtc_quarter_frame
 3562              		.section	.text.midi_song_position,"ax",%progbits
 3563              		.align	1
 3564              		.global	midi_song_position
 3565              		.syntax unified
 3566              		.thumb
 3567              		.thumb_func
 3568              		.type	midi_song_position, %function
 3569              	midi_song_position:
 3570              	.LFB461:
 3571              		.loc 7 668 52
 3572              		.cfi_startproc
 3573              		@ args = 0, pretend = 0, frame = 16
 3574              		@ frame_needed = 1, uses_anonymous_args = 0
 3575 0000 80B5     		push	{r7, lr}
 3576              		.cfi_def_cfa_offset 8
 3577              		.cfi_offset 7, -8
 3578              		.cfi_offset 14, -4
 3579 0002 84B0     		sub	sp, sp, #16
 3580              		.cfi_def_cfa_offset 24
 3581 0004 00AF     		add	r7, sp, #0
 3582              		.cfi_def_cfa_register 7
 3583 0006 0346     		mov	r3, r0
 3584 0008 0A46     		mov	r2, r1
 3585 000a FB71     		strb	r3, [r7, #7]
 3586 000c 1346     		mov	r3, r2	@ movhi
 3587 000e BB80     		strh	r3, [r7, #4]	@ movhi
 3588              		.loc 7 669 26
 3589 0010 BB88     		ldrh	r3, [r7, #4]	@ movhi
 3590 0012 DBB2     		uxtb	r3, r3
 3591              		.loc 7 669 11
 3592 0014 03F07F03 		and	r3, r3, #127
 3593 0018 FB73     		strb	r3, [r7, #15]
 3594              		.loc 7 669 53
 3595 001a BB88     		ldrh	r3, [r7, #4]
 3596 001c DB09     		lsrs	r3, r3, #7
 3597 001e 9BB2     		uxth	r3, r3
 3598 0020 DBB2     		uxtb	r3, r3
 3599              		.loc 7 669 33
 3600 0022 03F07F03 		and	r3, r3, #127
 3601 0026 BB73     		strb	r3, [r7, #14]
 3602              		.loc 7 670 11
 3603 0028 F223     		movs	r3, #242
 3604 002a 3B72     		strb	r3, [r7, #8]
 3605 002c FB7B     		ldrb	r3, [r7, #15]
 3606 002e 7B72     		strb	r3, [r7, #9]
 3607 0030 BB7B     		ldrb	r3, [r7, #14]
 3608 0032 BB72     		strb	r3, [r7, #10]
 3609              		.loc 7 671 3
 3610 0034 07F10801 		add	r1, r7, #8
 3611 0038 FB79     		ldrb	r3, [r7, #7]	@ zero_extendqisi2
 3612 003a 0322     		movs	r2, #3
 3613 003c 1846     		mov	r0, r3
 3614 003e FFF7FEFF 		bl	midi_send
 3615              		.loc 7 672 1
ARM GAS  C:\Users\DEVELO~1\AppData\Local\Temp\ccBydanM.s 			page 65


 3616 0042 00BF     		nop
 3617 0044 1037     		adds	r7, r7, #16
 3618              		.cfi_def_cfa_offset 8
 3619 0046 BD46     		mov	sp, r7
 3620              		.cfi_def_cfa_register 13
 3621              		@ sp needed
 3622 0048 80BD     		pop	{r7, pc}
 3623              		.cfi_endproc
 3624              	.LFE461:
 3625              		.size	midi_song_position, .-midi_song_position
 3626              		.section	.text.midi_song_select,"ax",%progbits
 3627              		.align	1
 3628              		.global	midi_song_select
 3629              		.syntax unified
 3630              		.thumb
 3631              		.thumb_func
 3632              		.type	midi_song_select, %function
 3633              	midi_song_select:
 3634              	.LFB462:
 3635              		.loc 7 674 47
 3636              		.cfi_startproc
 3637              		@ args = 0, pretend = 0, frame = 16
 3638              		@ frame_needed = 1, uses_anonymous_args = 0
 3639 0000 80B5     		push	{r7, lr}
 3640              		.cfi_def_cfa_offset 8
 3641              		.cfi_offset 7, -8
 3642              		.cfi_offset 14, -4
 3643 0002 84B0     		sub	sp, sp, #16
 3644              		.cfi_def_cfa_offset 24
 3645 0004 00AF     		add	r7, sp, #0
 3646              		.cfi_def_cfa_register 7
 3647 0006 0346     		mov	r3, r0
 3648 0008 0A46     		mov	r2, r1
 3649 000a FB71     		strb	r3, [r7, #7]
 3650 000c 1346     		mov	r3, r2
 3651 000e BB71     		strb	r3, [r7, #6]
 3652              		.loc 7 675 11
 3653 0010 F323     		movs	r3, #243
 3654 0012 3B73     		strb	r3, [r7, #12]
 3655              		.loc 7 675 23
 3656 0014 BB79     		ldrb	r3, [r7, #6]
 3657 0016 03F07F03 		and	r3, r3, #127
 3658 001a DBB2     		uxtb	r3, r3
 3659              		.loc 7 675 11
 3660 001c 7B73     		strb	r3, [r7, #13]
 3661              		.loc 7 676 3
 3662 001e 07F10C01 		add	r1, r7, #12
 3663 0022 FB79     		ldrb	r3, [r7, #7]	@ zero_extendqisi2
 3664 0024 0222     		movs	r2, #2
 3665 0026 1846     		mov	r0, r3
 3666 0028 FFF7FEFF 		bl	midi_send
 3667              		.loc 7 677 1
 3668 002c 00BF     		nop
 3669 002e 1037     		adds	r7, r7, #16
 3670              		.cfi_def_cfa_offset 8
 3671 0030 BD46     		mov	sp, r7
 3672              		.cfi_def_cfa_register 13
ARM GAS  C:\Users\DEVELO~1\AppData\Local\Temp\ccBydanM.s 			page 66


 3673              		@ sp needed
 3674 0032 80BD     		pop	{r7, pc}
 3675              		.cfi_endproc
 3676              	.LFE462:
 3677              		.size	midi_song_select, .-midi_song_select
 3678              		.section	.text.midi_tune_request,"ax",%progbits
 3679              		.align	1
 3680              		.global	midi_tune_request
 3681              		.syntax unified
 3682              		.thumb
 3683              		.thumb_func
 3684              		.type	midi_tune_request, %function
 3685              	midi_tune_request:
 3686              	.LFB463:
 3687              		.loc 7 679 38
 3688              		.cfi_startproc
 3689              		@ args = 0, pretend = 0, frame = 16
 3690              		@ frame_needed = 1, uses_anonymous_args = 0
 3691 0000 80B5     		push	{r7, lr}
 3692              		.cfi_def_cfa_offset 8
 3693              		.cfi_offset 7, -8
 3694              		.cfi_offset 14, -4
 3695 0002 84B0     		sub	sp, sp, #16
 3696              		.cfi_def_cfa_offset 24
 3697 0004 00AF     		add	r7, sp, #0
 3698              		.cfi_def_cfa_register 7
 3699 0006 0346     		mov	r3, r0
 3700 0008 FB71     		strb	r3, [r7, #7]
 3701              		.loc 7 680 11
 3702 000a F623     		movs	r3, #246
 3703 000c 3B73     		strb	r3, [r7, #12]
 3704              		.loc 7 681 3
 3705 000e 07F10C01 		add	r1, r7, #12
 3706 0012 FB79     		ldrb	r3, [r7, #7]	@ zero_extendqisi2
 3707 0014 0122     		movs	r2, #1
 3708 0016 1846     		mov	r0, r3
 3709 0018 FFF7FEFF 		bl	midi_send
 3710              		.loc 7 682 1
 3711 001c 00BF     		nop
 3712 001e 1037     		adds	r7, r7, #16
 3713              		.cfi_def_cfa_offset 8
 3714 0020 BD46     		mov	sp, r7
 3715              		.cfi_def_cfa_register 13
 3716              		@ sp needed
 3717 0022 80BD     		pop	{r7, pc}
 3718              		.cfi_endproc
 3719              	.LFE463:
 3720              		.size	midi_tune_request, .-midi_tune_request
 3721              		.section	.text.midi_clock,"ax",%progbits
 3722              		.align	1
 3723              		.global	midi_clock
 3724              		.syntax unified
 3725              		.thumb
 3726              		.thumb_func
 3727              		.type	midi_clock, %function
 3728              	midi_clock:
 3729              	.LFB464:
ARM GAS  C:\Users\DEVELO~1\AppData\Local\Temp\ccBydanM.s 			page 67


 3730              		.loc 7 684 31
 3731              		.cfi_startproc
 3732              		@ args = 0, pretend = 0, frame = 16
 3733              		@ frame_needed = 1, uses_anonymous_args = 0
 3734 0000 80B5     		push	{r7, lr}
 3735              		.cfi_def_cfa_offset 8
 3736              		.cfi_offset 7, -8
 3737              		.cfi_offset 14, -4
 3738 0002 84B0     		sub	sp, sp, #16
 3739              		.cfi_def_cfa_offset 24
 3740 0004 00AF     		add	r7, sp, #0
 3741              		.cfi_def_cfa_register 7
 3742 0006 0346     		mov	r3, r0
 3743 0008 FB71     		strb	r3, [r7, #7]
 3744              		.loc 7 685 11
 3745 000a F823     		movs	r3, #248
 3746 000c 3B73     		strb	r3, [r7, #12]
 3747              		.loc 7 686 3
 3748 000e 07F10C01 		add	r1, r7, #12
 3749 0012 FB79     		ldrb	r3, [r7, #7]	@ zero_extendqisi2
 3750 0014 0122     		movs	r2, #1
 3751 0016 1846     		mov	r0, r3
 3752 0018 FFF7FEFF 		bl	midi_send
 3753              		.loc 7 687 1
 3754 001c 00BF     		nop
 3755 001e 1037     		adds	r7, r7, #16
 3756              		.cfi_def_cfa_offset 8
 3757 0020 BD46     		mov	sp, r7
 3758              		.cfi_def_cfa_register 13
 3759              		@ sp needed
 3760 0022 80BD     		pop	{r7, pc}
 3761              		.cfi_endproc
 3762              	.LFE464:
 3763              		.size	midi_clock, .-midi_clock
 3764              		.section	.text.midi_start,"ax",%progbits
 3765              		.align	1
 3766              		.global	midi_start
 3767              		.syntax unified
 3768              		.thumb
 3769              		.thumb_func
 3770              		.type	midi_start, %function
 3771              	midi_start:
 3772              	.LFB465:
 3773              		.loc 7 689 31
 3774              		.cfi_startproc
 3775              		@ args = 0, pretend = 0, frame = 16
 3776              		@ frame_needed = 1, uses_anonymous_args = 0
 3777 0000 80B5     		push	{r7, lr}
 3778              		.cfi_def_cfa_offset 8
 3779              		.cfi_offset 7, -8
 3780              		.cfi_offset 14, -4
 3781 0002 84B0     		sub	sp, sp, #16
 3782              		.cfi_def_cfa_offset 24
 3783 0004 00AF     		add	r7, sp, #0
 3784              		.cfi_def_cfa_register 7
 3785 0006 0346     		mov	r3, r0
 3786 0008 FB71     		strb	r3, [r7, #7]
ARM GAS  C:\Users\DEVELO~1\AppData\Local\Temp\ccBydanM.s 			page 68


 3787              		.loc 7 690 11
 3788 000a FA23     		movs	r3, #250
 3789 000c 3B73     		strb	r3, [r7, #12]
 3790              		.loc 7 691 3
 3791 000e 07F10C01 		add	r1, r7, #12
 3792 0012 FB79     		ldrb	r3, [r7, #7]	@ zero_extendqisi2
 3793 0014 0122     		movs	r2, #1
 3794 0016 1846     		mov	r0, r3
 3795 0018 FFF7FEFF 		bl	midi_send
 3796              		.loc 7 692 1
 3797 001c 00BF     		nop
 3798 001e 1037     		adds	r7, r7, #16
 3799              		.cfi_def_cfa_offset 8
 3800 0020 BD46     		mov	sp, r7
 3801              		.cfi_def_cfa_register 13
 3802              		@ sp needed
 3803 0022 80BD     		pop	{r7, pc}
 3804              		.cfi_endproc
 3805              	.LFE465:
 3806              		.size	midi_start, .-midi_start
 3807              		.section	.text.midi_continue,"ax",%progbits
 3808              		.align	1
 3809              		.global	midi_continue
 3810              		.syntax unified
 3811              		.thumb
 3812              		.thumb_func
 3813              		.type	midi_continue, %function
 3814              	midi_continue:
 3815              	.LFB466:
 3816              		.loc 7 694 34
 3817              		.cfi_startproc
 3818              		@ args = 0, pretend = 0, frame = 16
 3819              		@ frame_needed = 1, uses_anonymous_args = 0
 3820 0000 80B5     		push	{r7, lr}
 3821              		.cfi_def_cfa_offset 8
 3822              		.cfi_offset 7, -8
 3823              		.cfi_offset 14, -4
 3824 0002 84B0     		sub	sp, sp, #16
 3825              		.cfi_def_cfa_offset 24
 3826 0004 00AF     		add	r7, sp, #0
 3827              		.cfi_def_cfa_register 7
 3828 0006 0346     		mov	r3, r0
 3829 0008 FB71     		strb	r3, [r7, #7]
 3830              		.loc 7 695 11
 3831 000a FB23     		movs	r3, #251
 3832 000c 3B73     		strb	r3, [r7, #12]
 3833              		.loc 7 696 3
 3834 000e 07F10C01 		add	r1, r7, #12
 3835 0012 FB79     		ldrb	r3, [r7, #7]	@ zero_extendqisi2
 3836 0014 0122     		movs	r2, #1
 3837 0016 1846     		mov	r0, r3
 3838 0018 FFF7FEFF 		bl	midi_send
 3839              		.loc 7 697 1
 3840 001c 00BF     		nop
 3841 001e 1037     		adds	r7, r7, #16
 3842              		.cfi_def_cfa_offset 8
 3843 0020 BD46     		mov	sp, r7
ARM GAS  C:\Users\DEVELO~1\AppData\Local\Temp\ccBydanM.s 			page 69


 3844              		.cfi_def_cfa_register 13
 3845              		@ sp needed
 3846 0022 80BD     		pop	{r7, pc}
 3847              		.cfi_endproc
 3848              	.LFE466:
 3849              		.size	midi_continue, .-midi_continue
 3850              		.section	.text.midi_stop,"ax",%progbits
 3851              		.align	1
 3852              		.global	midi_stop
 3853              		.syntax unified
 3854              		.thumb
 3855              		.thumb_func
 3856              		.type	midi_stop, %function
 3857              	midi_stop:
 3858              	.LFB467:
 3859              		.loc 7 699 30
 3860              		.cfi_startproc
 3861              		@ args = 0, pretend = 0, frame = 16
 3862              		@ frame_needed = 1, uses_anonymous_args = 0
 3863 0000 80B5     		push	{r7, lr}
 3864              		.cfi_def_cfa_offset 8
 3865              		.cfi_offset 7, -8
 3866              		.cfi_offset 14, -4
 3867 0002 84B0     		sub	sp, sp, #16
 3868              		.cfi_def_cfa_offset 24
 3869 0004 00AF     		add	r7, sp, #0
 3870              		.cfi_def_cfa_register 7
 3871 0006 0346     		mov	r3, r0
 3872 0008 FB71     		strb	r3, [r7, #7]
 3873              		.loc 7 700 11
 3874 000a FC23     		movs	r3, #252
 3875 000c 3B73     		strb	r3, [r7, #12]
 3876              		.loc 7 701 3
 3877 000e 07F10C01 		add	r1, r7, #12
 3878 0012 FB79     		ldrb	r3, [r7, #7]	@ zero_extendqisi2
 3879 0014 0122     		movs	r2, #1
 3880 0016 1846     		mov	r0, r3
 3881 0018 FFF7FEFF 		bl	midi_send
 3882              		.loc 7 702 1
 3883 001c 00BF     		nop
 3884 001e 1037     		adds	r7, r7, #16
 3885              		.cfi_def_cfa_offset 8
 3886 0020 BD46     		mov	sp, r7
 3887              		.cfi_def_cfa_register 13
 3888              		@ sp needed
 3889 0022 80BD     		pop	{r7, pc}
 3890              		.cfi_endproc
 3891              	.LFE467:
 3892              		.size	midi_stop, .-midi_stop
 3893              		.section	.text.midi_active_sensing,"ax",%progbits
 3894              		.align	1
 3895              		.global	midi_active_sensing
 3896              		.syntax unified
 3897              		.thumb
 3898              		.thumb_func
 3899              		.type	midi_active_sensing, %function
 3900              	midi_active_sensing:
ARM GAS  C:\Users\DEVELO~1\AppData\Local\Temp\ccBydanM.s 			page 70


 3901              	.LFB468:
 3902              		.loc 7 704 40
 3903              		.cfi_startproc
 3904              		@ args = 0, pretend = 0, frame = 16
 3905              		@ frame_needed = 1, uses_anonymous_args = 0
 3906 0000 80B5     		push	{r7, lr}
 3907              		.cfi_def_cfa_offset 8
 3908              		.cfi_offset 7, -8
 3909              		.cfi_offset 14, -4
 3910 0002 84B0     		sub	sp, sp, #16
 3911              		.cfi_def_cfa_offset 24
 3912 0004 00AF     		add	r7, sp, #0
 3913              		.cfi_def_cfa_register 7
 3914 0006 0346     		mov	r3, r0
 3915 0008 FB71     		strb	r3, [r7, #7]
 3916              		.loc 7 705 11
 3917 000a FE23     		movs	r3, #254
 3918 000c 3B73     		strb	r3, [r7, #12]
 3919              		.loc 7 706 3
 3920 000e 07F10C01 		add	r1, r7, #12
 3921 0012 FB79     		ldrb	r3, [r7, #7]	@ zero_extendqisi2
 3922 0014 0122     		movs	r2, #1
 3923 0016 1846     		mov	r0, r3
 3924 0018 FFF7FEFF 		bl	midi_send
 3925              		.loc 7 707 1
 3926 001c 00BF     		nop
 3927 001e 1037     		adds	r7, r7, #16
 3928              		.cfi_def_cfa_offset 8
 3929 0020 BD46     		mov	sp, r7
 3930              		.cfi_def_cfa_register 13
 3931              		@ sp needed
 3932 0022 80BD     		pop	{r7, pc}
 3933              		.cfi_endproc
 3934              	.LFE468:
 3935              		.size	midi_active_sensing, .-midi_active_sensing
 3936              		.section	.text.midi_system_reset,"ax",%progbits
 3937              		.align	1
 3938              		.global	midi_system_reset
 3939              		.syntax unified
 3940              		.thumb
 3941              		.thumb_func
 3942              		.type	midi_system_reset, %function
 3943              	midi_system_reset:
 3944              	.LFB469:
 3945              		.loc 7 709 38
 3946              		.cfi_startproc
 3947              		@ args = 0, pretend = 0, frame = 16
 3948              		@ frame_needed = 1, uses_anonymous_args = 0
 3949 0000 80B5     		push	{r7, lr}
 3950              		.cfi_def_cfa_offset 8
 3951              		.cfi_offset 7, -8
 3952              		.cfi_offset 14, -4
 3953 0002 84B0     		sub	sp, sp, #16
 3954              		.cfi_def_cfa_offset 24
 3955 0004 00AF     		add	r7, sp, #0
 3956              		.cfi_def_cfa_register 7
 3957 0006 0346     		mov	r3, r0
ARM GAS  C:\Users\DEVELO~1\AppData\Local\Temp\ccBydanM.s 			page 71


 3958 0008 FB71     		strb	r3, [r7, #7]
 3959              		.loc 7 710 11
 3960 000a FF23     		movs	r3, #255
 3961 000c 3B73     		strb	r3, [r7, #12]
 3962              		.loc 7 711 3
 3963 000e 07F10C01 		add	r1, r7, #12
 3964 0012 FB79     		ldrb	r3, [r7, #7]	@ zero_extendqisi2
 3965 0014 0122     		movs	r2, #1
 3966 0016 1846     		mov	r0, r3
 3967 0018 FFF7FEFF 		bl	midi_send
 3968              		.loc 7 712 1
 3969 001c 00BF     		nop
 3970 001e 1037     		adds	r7, r7, #16
 3971              		.cfi_def_cfa_offset 8
 3972 0020 BD46     		mov	sp, r7
 3973              		.cfi_def_cfa_register 13
 3974              		@ sp needed
 3975 0022 80BD     		pop	{r7, pc}
 3976              		.cfi_endproc
 3977              	.LFE469:
 3978              		.size	midi_system_reset, .-midi_system_reset
 3979              		.section	.text.midi_channel_mode_cc,"ax",%progbits
 3980              		.align	1
 3981              		.syntax unified
 3982              		.thumb
 3983              		.thumb_func
 3984              		.type	midi_channel_mode_cc, %function
 3985              	midi_channel_mode_cc:
 3986              	.LFB470:
 3987              		.loc 7 715 96
 3988              		.cfi_startproc
 3989              		@ args = 0, pretend = 0, frame = 16
 3990              		@ frame_needed = 1, uses_anonymous_args = 0
 3991 0000 90B5     		push	{r4, r7, lr}
 3992              		.cfi_def_cfa_offset 12
 3993              		.cfi_offset 4, -12
 3994              		.cfi_offset 7, -8
 3995              		.cfi_offset 14, -4
 3996 0002 85B0     		sub	sp, sp, #20
 3997              		.cfi_def_cfa_offset 32
 3998 0004 00AF     		add	r7, sp, #0
 3999              		.cfi_def_cfa_register 7
 4000 0006 0446     		mov	r4, r0
 4001 0008 0846     		mov	r0, r1
 4002 000a 1146     		mov	r1, r2
 4003 000c 1A46     		mov	r2, r3
 4004 000e 2346     		mov	r3, r4
 4005 0010 FB71     		strb	r3, [r7, #7]
 4006 0012 0346     		mov	r3, r0
 4007 0014 BB71     		strb	r3, [r7, #6]
 4008 0016 0B46     		mov	r3, r1
 4009 0018 7B71     		strb	r3, [r7, #5]
 4010 001a 1346     		mov	r3, r2
 4011 001c 3B71     		strb	r3, [r7, #4]
 4012              		.loc 7 717 28
 4013 001e 97F90630 		ldrsb	r3, [r7, #6]
 4014 0022 03F00F03 		and	r3, r3, #15
ARM GAS  C:\Users\DEVELO~1\AppData\Local\Temp\ccBydanM.s 			page 72


 4015 0026 5BB2     		sxtb	r3, r3
 4016              		.loc 7 717 22
 4017 0028 63F04F03 		orn	r3, r3, #79
 4018 002c 5BB2     		sxtb	r3, r3
 4019              		.loc 7 717 7
 4020 002e DBB2     		uxtb	r3, r3
 4021              		.loc 7 716 11
 4022 0030 3B73     		strb	r3, [r7, #12]
 4023              		.loc 7 718 7
 4024 0032 7B79     		ldrb	r3, [r7, #5]
 4025 0034 03F07F03 		and	r3, r3, #127
 4026 0038 DBB2     		uxtb	r3, r3
 4027              		.loc 7 716 11
 4028 003a 7B73     		strb	r3, [r7, #13]
 4029              		.loc 7 719 7
 4030 003c 3B79     		ldrb	r3, [r7, #4]
 4031 003e 03F07F03 		and	r3, r3, #127
 4032 0042 DBB2     		uxtb	r3, r3
 4033              		.loc 7 716 11
 4034 0044 BB73     		strb	r3, [r7, #14]
 4035              		.loc 7 721 3
 4036 0046 07F10C01 		add	r1, r7, #12
 4037 004a FB79     		ldrb	r3, [r7, #7]	@ zero_extendqisi2
 4038 004c 0322     		movs	r2, #3
 4039 004e 1846     		mov	r0, r3
 4040 0050 FFF7FEFF 		bl	midi_send
 4041              		.loc 7 722 1
 4042 0054 00BF     		nop
 4043 0056 1437     		adds	r7, r7, #20
 4044              		.cfi_def_cfa_offset 12
 4045 0058 BD46     		mov	sp, r7
 4046              		.cfi_def_cfa_register 13
 4047              		@ sp needed
 4048 005a 90BD     		pop	{r4, r7, pc}
 4049              		.cfi_endproc
 4050              	.LFE470:
 4051              		.size	midi_channel_mode_cc, .-midi_channel_mode_cc
 4052              		.section	.text.midi_all_sound_off,"ax",%progbits
 4053              		.align	1
 4054              		.global	midi_all_sound_off
 4055              		.syntax unified
 4056              		.thumb
 4057              		.thumb_func
 4058              		.type	midi_all_sound_off, %function
 4059              	midi_all_sound_off:
 4060              	.LFB471:
 4061              		.loc 7 724 55
 4062              		.cfi_startproc
 4063              		@ args = 0, pretend = 0, frame = 8
 4064              		@ frame_needed = 1, uses_anonymous_args = 0
 4065 0000 80B5     		push	{r7, lr}
 4066              		.cfi_def_cfa_offset 8
 4067              		.cfi_offset 7, -8
 4068              		.cfi_offset 14, -4
 4069 0002 82B0     		sub	sp, sp, #8
 4070              		.cfi_def_cfa_offset 16
 4071 0004 00AF     		add	r7, sp, #0
ARM GAS  C:\Users\DEVELO~1\AppData\Local\Temp\ccBydanM.s 			page 73


 4072              		.cfi_def_cfa_register 7
 4073 0006 0346     		mov	r3, r0
 4074 0008 0A46     		mov	r2, r1
 4075 000a FB71     		strb	r3, [r7, #7]
 4076 000c 1346     		mov	r3, r2
 4077 000e BB71     		strb	r3, [r7, #6]
 4078              		.loc 7 725 3
 4079 0010 B979     		ldrb	r1, [r7, #6]	@ zero_extendqisi2
 4080 0012 F879     		ldrb	r0, [r7, #7]	@ zero_extendqisi2
 4081 0014 0023     		movs	r3, #0
 4082 0016 7822     		movs	r2, #120
 4083 0018 FFF7FEFF 		bl	midi_channel_mode_cc
 4084              		.loc 7 726 1
 4085 001c 00BF     		nop
 4086 001e 0837     		adds	r7, r7, #8
 4087              		.cfi_def_cfa_offset 8
 4088 0020 BD46     		mov	sp, r7
 4089              		.cfi_def_cfa_register 13
 4090              		@ sp needed
 4091 0022 80BD     		pop	{r7, pc}
 4092              		.cfi_endproc
 4093              	.LFE471:
 4094              		.size	midi_all_sound_off, .-midi_all_sound_off
 4095              		.section	.text.midi_reset_all_controllers,"ax",%progbits
 4096              		.align	1
 4097              		.global	midi_reset_all_controllers
 4098              		.syntax unified
 4099              		.thumb
 4100              		.thumb_func
 4101              		.type	midi_reset_all_controllers, %function
 4102              	midi_reset_all_controllers:
 4103              	.LFB472:
 4104              		.loc 7 728 63
 4105              		.cfi_startproc
 4106              		@ args = 0, pretend = 0, frame = 8
 4107              		@ frame_needed = 1, uses_anonymous_args = 0
 4108 0000 80B5     		push	{r7, lr}
 4109              		.cfi_def_cfa_offset 8
 4110              		.cfi_offset 7, -8
 4111              		.cfi_offset 14, -4
 4112 0002 82B0     		sub	sp, sp, #8
 4113              		.cfi_def_cfa_offset 16
 4114 0004 00AF     		add	r7, sp, #0
 4115              		.cfi_def_cfa_register 7
 4116 0006 0346     		mov	r3, r0
 4117 0008 0A46     		mov	r2, r1
 4118 000a FB71     		strb	r3, [r7, #7]
 4119 000c 1346     		mov	r3, r2
 4120 000e BB71     		strb	r3, [r7, #6]
 4121              		.loc 7 729 3
 4122 0010 B979     		ldrb	r1, [r7, #6]	@ zero_extendqisi2
 4123 0012 F879     		ldrb	r0, [r7, #7]	@ zero_extendqisi2
 4124 0014 0023     		movs	r3, #0
 4125 0016 7922     		movs	r2, #121
 4126 0018 FFF7FEFF 		bl	midi_channel_mode_cc
 4127              		.loc 7 730 1
 4128 001c 00BF     		nop
ARM GAS  C:\Users\DEVELO~1\AppData\Local\Temp\ccBydanM.s 			page 74


 4129 001e 0837     		adds	r7, r7, #8
 4130              		.cfi_def_cfa_offset 8
 4131 0020 BD46     		mov	sp, r7
 4132              		.cfi_def_cfa_register 13
 4133              		@ sp needed
 4134 0022 80BD     		pop	{r7, pc}
 4135              		.cfi_endproc
 4136              	.LFE472:
 4137              		.size	midi_reset_all_controllers, .-midi_reset_all_controllers
 4138              		.section	.text.midi_local_control,"ax",%progbits
 4139              		.align	1
 4140              		.global	midi_local_control
 4141              		.syntax unified
 4142              		.thumb
 4143              		.thumb_func
 4144              		.type	midi_local_control, %function
 4145              	midi_local_control:
 4146              	.LFB473:
 4147              		.loc 7 732 64
 4148              		.cfi_startproc
 4149              		@ args = 0, pretend = 0, frame = 8
 4150              		@ frame_needed = 1, uses_anonymous_args = 0
 4151 0000 80B5     		push	{r7, lr}
 4152              		.cfi_def_cfa_offset 8
 4153              		.cfi_offset 7, -8
 4154              		.cfi_offset 14, -4
 4155 0002 82B0     		sub	sp, sp, #8
 4156              		.cfi_def_cfa_offset 16
 4157 0004 00AF     		add	r7, sp, #0
 4158              		.cfi_def_cfa_register 7
 4159 0006 0346     		mov	r3, r0
 4160 0008 FB71     		strb	r3, [r7, #7]
 4161 000a 0B46     		mov	r3, r1
 4162 000c BB71     		strb	r3, [r7, #6]
 4163 000e 1346     		mov	r3, r2
 4164 0010 7B71     		strb	r3, [r7, #5]
 4165              		.loc 7 733 3
 4166 0012 7B79     		ldrb	r3, [r7, #5]	@ zero_extendqisi2
 4167 0014 002B     		cmp	r3, #0
 4168 0016 01D0     		beq	.L188
 4169              		.loc 7 733 3 is_stmt 0 discriminator 1
 4170 0018 7F23     		movs	r3, #127
 4171 001a 00E0     		b	.L189
 4172              	.L188:
 4173              		.loc 7 733 3 discriminator 2
 4174 001c 0023     		movs	r3, #0
 4175              	.L189:
 4176              		.loc 7 733 3 discriminator 4
 4177 001e B979     		ldrb	r1, [r7, #6]	@ zero_extendqisi2
 4178 0020 F879     		ldrb	r0, [r7, #7]	@ zero_extendqisi2
 4179 0022 7A22     		movs	r2, #122
 4180 0024 FFF7FEFF 		bl	midi_channel_mode_cc
 4181              		.loc 7 734 1 is_stmt 1 discriminator 4
 4182 0028 00BF     		nop
 4183 002a 0837     		adds	r7, r7, #8
 4184              		.cfi_def_cfa_offset 8
 4185 002c BD46     		mov	sp, r7
ARM GAS  C:\Users\DEVELO~1\AppData\Local\Temp\ccBydanM.s 			page 75


 4186              		.cfi_def_cfa_register 13
 4187              		@ sp needed
 4188 002e 80BD     		pop	{r7, pc}
 4189              		.cfi_endproc
 4190              	.LFE473:
 4191              		.size	midi_local_control, .-midi_local_control
 4192              		.section	.text.midi_all_notes_off,"ax",%progbits
 4193              		.align	1
 4194              		.global	midi_all_notes_off
 4195              		.syntax unified
 4196              		.thumb
 4197              		.thumb_func
 4198              		.type	midi_all_notes_off, %function
 4199              	midi_all_notes_off:
 4200              	.LFB474:
 4201              		.loc 7 736 55
 4202              		.cfi_startproc
 4203              		@ args = 0, pretend = 0, frame = 8
 4204              		@ frame_needed = 1, uses_anonymous_args = 0
 4205 0000 80B5     		push	{r7, lr}
 4206              		.cfi_def_cfa_offset 8
 4207              		.cfi_offset 7, -8
 4208              		.cfi_offset 14, -4
 4209 0002 82B0     		sub	sp, sp, #8
 4210              		.cfi_def_cfa_offset 16
 4211 0004 00AF     		add	r7, sp, #0
 4212              		.cfi_def_cfa_register 7
 4213 0006 0346     		mov	r3, r0
 4214 0008 0A46     		mov	r2, r1
 4215 000a FB71     		strb	r3, [r7, #7]
 4216 000c 1346     		mov	r3, r2
 4217 000e BB71     		strb	r3, [r7, #6]
 4218              		.loc 7 737 3
 4219 0010 B979     		ldrb	r1, [r7, #6]	@ zero_extendqisi2
 4220 0012 F879     		ldrb	r0, [r7, #7]	@ zero_extendqisi2
 4221 0014 0023     		movs	r3, #0
 4222 0016 7B22     		movs	r2, #123
 4223 0018 FFF7FEFF 		bl	midi_channel_mode_cc
 4224              		.loc 7 738 1
 4225 001c 00BF     		nop
 4226 001e 0837     		adds	r7, r7, #8
 4227              		.cfi_def_cfa_offset 8
 4228 0020 BD46     		mov	sp, r7
 4229              		.cfi_def_cfa_register 13
 4230              		@ sp needed
 4231 0022 80BD     		pop	{r7, pc}
 4232              		.cfi_endproc
 4233              	.LFE474:
 4234              		.size	midi_all_notes_off, .-midi_all_notes_off
 4235              		.section	.text.midi_omni_mode_off,"ax",%progbits
 4236              		.align	1
 4237              		.global	midi_omni_mode_off
 4238              		.syntax unified
 4239              		.thumb
 4240              		.thumb_func
 4241              		.type	midi_omni_mode_off, %function
 4242              	midi_omni_mode_off:
ARM GAS  C:\Users\DEVELO~1\AppData\Local\Temp\ccBydanM.s 			page 76


 4243              	.LFB475:
 4244              		.loc 7 740 55
 4245              		.cfi_startproc
 4246              		@ args = 0, pretend = 0, frame = 8
 4247              		@ frame_needed = 1, uses_anonymous_args = 0
 4248 0000 80B5     		push	{r7, lr}
 4249              		.cfi_def_cfa_offset 8
 4250              		.cfi_offset 7, -8
 4251              		.cfi_offset 14, -4
 4252 0002 82B0     		sub	sp, sp, #8
 4253              		.cfi_def_cfa_offset 16
 4254 0004 00AF     		add	r7, sp, #0
 4255              		.cfi_def_cfa_register 7
 4256 0006 0346     		mov	r3, r0
 4257 0008 0A46     		mov	r2, r1
 4258 000a FB71     		strb	r3, [r7, #7]
 4259 000c 1346     		mov	r3, r2
 4260 000e BB71     		strb	r3, [r7, #6]
 4261              		.loc 7 741 3
 4262 0010 B979     		ldrb	r1, [r7, #6]	@ zero_extendqisi2
 4263 0012 F879     		ldrb	r0, [r7, #7]	@ zero_extendqisi2
 4264 0014 0023     		movs	r3, #0
 4265 0016 7C22     		movs	r2, #124
 4266 0018 FFF7FEFF 		bl	midi_channel_mode_cc
 4267              		.loc 7 742 1
 4268 001c 00BF     		nop
 4269 001e 0837     		adds	r7, r7, #8
 4270              		.cfi_def_cfa_offset 8
 4271 0020 BD46     		mov	sp, r7
 4272              		.cfi_def_cfa_register 13
 4273              		@ sp needed
 4274 0022 80BD     		pop	{r7, pc}
 4275              		.cfi_endproc
 4276              	.LFE475:
 4277              		.size	midi_omni_mode_off, .-midi_omni_mode_off
 4278              		.section	.text.midi_omni_mode_on,"ax",%progbits
 4279              		.align	1
 4280              		.global	midi_omni_mode_on
 4281              		.syntax unified
 4282              		.thumb
 4283              		.thumb_func
 4284              		.type	midi_omni_mode_on, %function
 4285              	midi_omni_mode_on:
 4286              	.LFB476:
 4287              		.loc 7 744 54
 4288              		.cfi_startproc
 4289              		@ args = 0, pretend = 0, frame = 8
 4290              		@ frame_needed = 1, uses_anonymous_args = 0
 4291 0000 80B5     		push	{r7, lr}
 4292              		.cfi_def_cfa_offset 8
 4293              		.cfi_offset 7, -8
 4294              		.cfi_offset 14, -4
 4295 0002 82B0     		sub	sp, sp, #8
 4296              		.cfi_def_cfa_offset 16
 4297 0004 00AF     		add	r7, sp, #0
 4298              		.cfi_def_cfa_register 7
 4299 0006 0346     		mov	r3, r0
ARM GAS  C:\Users\DEVELO~1\AppData\Local\Temp\ccBydanM.s 			page 77


 4300 0008 0A46     		mov	r2, r1
 4301 000a FB71     		strb	r3, [r7, #7]
 4302 000c 1346     		mov	r3, r2
 4303 000e BB71     		strb	r3, [r7, #6]
 4304              		.loc 7 745 3
 4305 0010 B979     		ldrb	r1, [r7, #6]	@ zero_extendqisi2
 4306 0012 F879     		ldrb	r0, [r7, #7]	@ zero_extendqisi2
 4307 0014 0023     		movs	r3, #0
 4308 0016 7D22     		movs	r2, #125
 4309 0018 FFF7FEFF 		bl	midi_channel_mode_cc
 4310              		.loc 7 746 1
 4311 001c 00BF     		nop
 4312 001e 0837     		adds	r7, r7, #8
 4313              		.cfi_def_cfa_offset 8
 4314 0020 BD46     		mov	sp, r7
 4315              		.cfi_def_cfa_register 13
 4316              		@ sp needed
 4317 0022 80BD     		pop	{r7, pc}
 4318              		.cfi_endproc
 4319              	.LFE476:
 4320              		.size	midi_omni_mode_on, .-midi_omni_mode_on
 4321              		.section	.text.midi_mono_mode_on,"ax",%progbits
 4322              		.align	1
 4323              		.global	midi_mono_mode_on
 4324              		.syntax unified
 4325              		.thumb
 4326              		.thumb_func
 4327              		.type	midi_mono_mode_on, %function
 4328              	midi_mono_mode_on:
 4329              	.LFB477:
 4330              		.loc 7 748 76
 4331              		.cfi_startproc
 4332              		@ args = 0, pretend = 0, frame = 8
 4333              		@ frame_needed = 1, uses_anonymous_args = 0
 4334 0000 80B5     		push	{r7, lr}
 4335              		.cfi_def_cfa_offset 8
 4336              		.cfi_offset 7, -8
 4337              		.cfi_offset 14, -4
 4338 0002 82B0     		sub	sp, sp, #8
 4339              		.cfi_def_cfa_offset 16
 4340 0004 00AF     		add	r7, sp, #0
 4341              		.cfi_def_cfa_register 7
 4342 0006 0346     		mov	r3, r0
 4343 0008 FB71     		strb	r3, [r7, #7]
 4344 000a 0B46     		mov	r3, r1
 4345 000c BB71     		strb	r3, [r7, #6]
 4346 000e 1346     		mov	r3, r2
 4347 0010 7B71     		strb	r3, [r7, #5]
 4348              		.loc 7 749 3
 4349 0012 7B79     		ldrb	r3, [r7, #5]	@ zero_extendqisi2
 4350 0014 B979     		ldrb	r1, [r7, #6]	@ zero_extendqisi2
 4351 0016 F879     		ldrb	r0, [r7, #7]	@ zero_extendqisi2
 4352 0018 7E22     		movs	r2, #126
 4353 001a FFF7FEFF 		bl	midi_channel_mode_cc
 4354              		.loc 7 750 1
 4355 001e 00BF     		nop
 4356 0020 0837     		adds	r7, r7, #8
ARM GAS  C:\Users\DEVELO~1\AppData\Local\Temp\ccBydanM.s 			page 78


 4357              		.cfi_def_cfa_offset 8
 4358 0022 BD46     		mov	sp, r7
 4359              		.cfi_def_cfa_register 13
 4360              		@ sp needed
 4361 0024 80BD     		pop	{r7, pc}
 4362              		.cfi_endproc
 4363              	.LFE477:
 4364              		.size	midi_mono_mode_on, .-midi_mono_mode_on
 4365              		.section	.text.midi_poly_mode_on,"ax",%progbits
 4366              		.align	1
 4367              		.global	midi_poly_mode_on
 4368              		.syntax unified
 4369              		.thumb
 4370              		.thumb_func
 4371              		.type	midi_poly_mode_on, %function
 4372              	midi_poly_mode_on:
 4373              	.LFB478:
 4374              		.loc 7 752 54
 4375              		.cfi_startproc
 4376              		@ args = 0, pretend = 0, frame = 8
 4377              		@ frame_needed = 1, uses_anonymous_args = 0
 4378 0000 80B5     		push	{r7, lr}
 4379              		.cfi_def_cfa_offset 8
 4380              		.cfi_offset 7, -8
 4381              		.cfi_offset 14, -4
 4382 0002 82B0     		sub	sp, sp, #8
 4383              		.cfi_def_cfa_offset 16
 4384 0004 00AF     		add	r7, sp, #0
 4385              		.cfi_def_cfa_register 7
 4386 0006 0346     		mov	r3, r0
 4387 0008 0A46     		mov	r2, r1
 4388 000a FB71     		strb	r3, [r7, #7]
 4389 000c 1346     		mov	r3, r2
 4390 000e BB71     		strb	r3, [r7, #6]
 4391              		.loc 7 753 3
 4392 0010 B979     		ldrb	r1, [r7, #6]	@ zero_extendqisi2
 4393 0012 F879     		ldrb	r0, [r7, #7]	@ zero_extendqisi2
 4394 0014 0023     		movs	r3, #0
 4395 0016 7F22     		movs	r2, #127
 4396 0018 FFF7FEFF 		bl	midi_channel_mode_cc
 4397              		.loc 7 754 1
 4398 001c 00BF     		nop
 4399 001e 0837     		adds	r7, r7, #8
 4400              		.cfi_def_cfa_offset 8
 4401 0020 BD46     		mov	sp, r7
 4402              		.cfi_def_cfa_register 13
 4403              		@ sp needed
 4404 0022 80BD     		pop	{r7, pc}
 4405              		.cfi_endproc
 4406              	.LFE478:
 4407              		.size	midi_poly_mode_on, .-midi_poly_mode_on
 4408              		.section	.text.midi_usb_queue_high_watermark,"ax",%progbits
 4409              		.align	1
 4410              		.global	midi_usb_queue_high_watermark
 4411              		.syntax unified
 4412              		.thumb
 4413              		.thumb_func
ARM GAS  C:\Users\DEVELO~1\AppData\Local\Temp\ccBydanM.s 			page 79


 4414              		.type	midi_usb_queue_high_watermark, %function
 4415              	midi_usb_queue_high_watermark:
 4416              	.LFB479:
 4417              		.loc 7 756 46
 4418              		.cfi_startproc
 4419              		@ args = 0, pretend = 0, frame = 0
 4420              		@ frame_needed = 1, uses_anonymous_args = 0
 4421              		@ link register save eliminated.
 4422 0000 80B4     		push	{r7}
 4423              		.cfi_def_cfa_offset 4
 4424              		.cfi_offset 7, -4
 4425 0002 00AF     		add	r7, sp, #0
 4426              		.cfi_def_cfa_register 7
 4427              		.loc 7 757 10
 4428 0004 024B     		ldr	r3, .L197
 4429 0006 1B88     		ldrh	r3, [r3]
 4430              		.loc 7 758 1
 4431 0008 1846     		mov	r0, r3
 4432 000a BD46     		mov	sp, r7
 4433              		.cfi_def_cfa_register 13
 4434              		@ sp needed
 4435 000c 80BC     		pop	{r7}
 4436              		.cfi_restore 7
 4437              		.cfi_def_cfa_offset 0
 4438 000e 7047     		bx	lr
 4439              	.L198:
 4440              		.align	2
 4441              	.L197:
 4442 0010 00000000 		.word	midi_usb_queue_high_water
 4443              		.cfi_endproc
 4444              	.LFE479:
 4445              		.size	midi_usb_queue_high_watermark, .-midi_usb_queue_high_watermark
 4446              		.section	.text.midi_usb_rx_high_watermark,"ax",%progbits
 4447              		.align	1
 4448              		.global	midi_usb_rx_high_watermark
 4449              		.syntax unified
 4450              		.thumb
 4451              		.thumb_func
 4452              		.type	midi_usb_rx_high_watermark, %function
 4453              	midi_usb_rx_high_watermark:
 4454              	.LFB480:
 4455              		.loc 7 760 43
 4456              		.cfi_startproc
 4457              		@ args = 0, pretend = 0, frame = 0
 4458              		@ frame_needed = 1, uses_anonymous_args = 0
 4459              		@ link register save eliminated.
 4460 0000 80B4     		push	{r7}
 4461              		.cfi_def_cfa_offset 4
 4462              		.cfi_offset 7, -4
 4463 0002 00AF     		add	r7, sp, #0
 4464              		.cfi_def_cfa_register 7
 4465              		.loc 7 761 10
 4466 0004 024B     		ldr	r3, .L201
 4467 0006 1B88     		ldrh	r3, [r3]
 4468              		.loc 7 762 1
 4469 0008 1846     		mov	r0, r3
 4470 000a BD46     		mov	sp, r7
ARM GAS  C:\Users\DEVELO~1\AppData\Local\Temp\ccBydanM.s 			page 80


 4471              		.cfi_def_cfa_register 13
 4472              		@ sp needed
 4473 000c 80BC     		pop	{r7}
 4474              		.cfi_restore 7
 4475              		.cfi_def_cfa_offset 0
 4476 000e 7047     		bx	lr
 4477              	.L202:
 4478              		.align	2
 4479              	.L201:
 4480 0010 00000000 		.word	midi_usb_rx_queue_high_water
 4481              		.cfi_endproc
 4482              	.LFE480:
 4483              		.size	midi_usb_rx_high_watermark, .-midi_usb_rx_high_watermark
 4484              		.section	.text.midi_stats_reset,"ax",%progbits
 4485              		.align	1
 4486              		.global	midi_stats_reset
 4487              		.syntax unified
 4488              		.thumb
 4489              		.thumb_func
 4490              		.type	midi_stats_reset, %function
 4491              	midi_stats_reset:
 4492              	.LFB481:
 4493              		.loc 7 767 28
 4494              		.cfi_startproc
 4495              		@ args = 0, pretend = 0, frame = 48
 4496              		@ frame_needed = 1, uses_anonymous_args = 0
 4497              		@ link register save eliminated.
 4498 0000 80B4     		push	{r7}
 4499              		.cfi_def_cfa_offset 4
 4500              		.cfi_offset 7, -4
 4501 0002 8DB0     		sub	sp, sp, #52
 4502              		.cfi_def_cfa_offset 56
 4503 0004 00AF     		add	r7, sp, #0
 4504              		.cfi_def_cfa_register 7
 4505              		.loc 7 768 16
 4506 0006 0C4B     		ldr	r3, .L204
 4507 0008 1A46     		mov	r2, r3
 4508 000a 0023     		movs	r3, #0
 4509 000c 1360     		str	r3, [r2]
 4510 000e 5360     		str	r3, [r2, #4]
 4511 0010 9360     		str	r3, [r2, #8]
 4512 0012 D360     		str	r3, [r2, #12]
 4513 0014 1361     		str	r3, [r2, #16]
 4514 0016 5361     		str	r3, [r2, #20]
 4515 0018 9361     		str	r3, [r2, #24]
 4516              		.loc 7 769 16
 4517 001a 084B     		ldr	r3, .L204+4
 4518 001c 1A46     		mov	r2, r3
 4519 001e 0023     		movs	r3, #0
 4520 0020 1360     		str	r3, [r2]
 4521 0022 5360     		str	r3, [r2, #4]
 4522 0024 9360     		str	r3, [r2, #8]
 4523 0026 D360     		str	r3, [r2, #12]
 4524              		.loc 7 770 21
 4525 0028 054B     		ldr	r3, .L204+8
 4526 002a 0022     		movs	r2, #0
 4527 002c 1A60     		str	r2, [r3]
ARM GAS  C:\Users\DEVELO~1\AppData\Local\Temp\ccBydanM.s 			page 81


 4528              		.loc 7 771 1
 4529 002e 00BF     		nop
 4530 0030 3437     		adds	r7, r7, #52
 4531              		.cfi_def_cfa_offset 4
 4532 0032 BD46     		mov	sp, r7
 4533              		.cfi_def_cfa_register 13
 4534              		@ sp needed
 4535 0034 80BC     		pop	{r7}
 4536              		.cfi_restore 7
 4537              		.cfi_def_cfa_offset 0
 4538 0036 7047     		bx	lr
 4539              	.L205:
 4540              		.align	2
 4541              	.L204:
 4542 0038 00000000 		.word	midi_tx_stats
 4543 003c 00000000 		.word	midi_rx_stats
 4544 0040 00000000 		.word	midi_usb_rx_drops
 4545              		.cfi_endproc
 4546              	.LFE481:
 4547              		.size	midi_stats_reset, .-midi_stats_reset
 4548              		.section	.rodata.uart_cfg.0,"a"
 4549              		.align	2
 4550              		.type	uart_cfg.0, %object
 4551              		.size	uart_cfg.0, 16
 4552              	uart_cfg.0:
 4553 0000 127A0000 		.word	31250
 4554 0004 00000000 		.word	0
 4555 0008 00000000 		.word	0
 4556 000c 00000000 		.word	0
 4557              		.text
 4558              	.Letext0:
 4559              		.file 8 "c:\\chibistudio\\tools\\gnu tools arm embedded\\11.3 2022.08\\lib\\gcc\\arm-none-eabi\\11
 4560              		.file 9 "c:\\chibistudio\\tools\\gnu tools arm embedded\\11.3 2022.08\\arm-none-eabi\\include\\mac
 4561              		.file 10 "c:\\chibistudio\\tools\\gnu tools arm embedded\\11.3 2022.08\\arm-none-eabi\\include\\sy
 4562              		.file 11 "../../../os/common/ports/ARM-common/chtypes.h"
 4563              		.file 12 "../../../os/rt/include/chearly.h"
 4564              		.file 13 "../../../os/rt/include/chobjects.h"
 4565              		.file 14 "../../../os/rt/include/chrfcu.h"
 4566              		.file 15 "../../../os/rt/include/chdebug.h"
 4567              		.file 16 "../../../os/rt/include/chtime.h"
 4568              		.file 17 "../../../os/rt/include/chlists.h"
 4569              		.file 18 "../../../os/rt/include/chtrace.h"
 4570              		.file 19 "../../../os/common/ext/ST/STM32H7xx/stm32h743xx.h"
 4571              		.file 20 "../../../os/rt/include/chsem.h"
 4572              		.file 21 "../../../os/rt/include/chmtx.h"
 4573              		.file 22 "../../../os/rt/include/chthreads.h"
 4574              		.file 23 "../../../os/rt/include/chevents.h"
 4575              		.file 24 "../../../os/oslib/include/chmboxes.h"
 4576              		.file 25 "../../../os/hal/include/hal_queues.h"
 4577              		.file 26 "../../../os/hal/include/hal_serial.h"
 4578              		.file 27 "../../../os/hal/ports/STM32/LLD/USARTv3/hal_serial_lld.h"
 4579              		.file 28 "../../../os/hal/include/hal_usb.h"
 4580              		.file 29 "../../../os/hal/ports/STM32/LLD/OTGv1/hal_usb_lld.h"
 4581              		.file 30 "../../../os/hal/ports/STM32/LLD/OTGv1/stm32_otg.h"
 4582              		.file 31 "midi/midi.h"
 4583              		.file 32 "usb/usbcfg.h"
 4584              		.section	.debug_info,"",%progbits
ARM GAS  C:\Users\DEVELO~1\AppData\Local\Temp\ccBydanM.s 			page 82


 4585              	.Ldebug_info0:
 4586 0000 022C0000 		.4byte	0x2c02
 4587 0004 0500     		.2byte	0x5
 4588 0006 01       		.byte	0x1
 4589 0007 04       		.byte	0x4
 4590 0008 00000000 		.4byte	.Ldebug_abbrev0
 4591 000c 3C       		.uleb128 0x3c
 4592 000d 700C0000 		.4byte	.LASF465
 4593 0011 1D       		.byte	0x1d
 4594 0012 0B130000 		.4byte	.LASF466
 4595 0016 BB150000 		.4byte	.LASF467
 4596 001a 18000000 		.4byte	.LLRL1
 4597 001e 00000000 		.4byte	0
 4598 0022 00000000 		.4byte	.Ldebug_line0
 4599 0026 3D       		.uleb128 0x3d
 4600 0027 04       		.byte	0x4
 4601 0028 05       		.byte	0x5
 4602 0029 696E7400 		.ascii	"int\000"
 4603 002d 04       		.uleb128 0x4
 4604 002e 95070000 		.4byte	.LASF4
 4605 0032 08       		.byte	0x8
 4606 0033 D1       		.byte	0xd1
 4607 0034 17       		.byte	0x17
 4608 0035 43000000 		.4byte	0x43
 4609 0039 12       		.uleb128 0x12
 4610 003a 2D000000 		.4byte	0x2d
 4611 003e 11       		.uleb128 0x11
 4612 003f 2D000000 		.4byte	0x2d
 4613 0043 16       		.uleb128 0x16
 4614 0044 04       		.byte	0x4
 4615 0045 07       		.byte	0x7
 4616 0046 9E150000 		.4byte	.LASF0
 4617 004a 16       		.uleb128 0x16
 4618 004b 08       		.byte	0x8
 4619 004c 05       		.byte	0x5
 4620 004d 17140000 		.4byte	.LASF1
 4621 0051 16       		.uleb128 0x16
 4622 0052 08       		.byte	0x8
 4623 0053 04       		.byte	0x4
 4624 0054 C80E0000 		.4byte	.LASF2
 4625 0058 16       		.uleb128 0x16
 4626 0059 01       		.byte	0x1
 4627 005a 06       		.byte	0x6
 4628 005b EF0B0000 		.4byte	.LASF3
 4629 005f 04       		.uleb128 0x4
 4630 0060 BC000000 		.4byte	.LASF5
 4631 0064 09       		.byte	0x9
 4632 0065 2B       		.byte	0x2b
 4633 0066 18       		.byte	0x18
 4634 0067 6B000000 		.4byte	0x6b
 4635 006b 16       		.uleb128 0x16
 4636 006c 01       		.byte	0x1
 4637 006d 08       		.byte	0x8
 4638 006e C8050000 		.4byte	.LASF6
 4639 0072 04       		.uleb128 0x4
 4640 0073 D4040000 		.4byte	.LASF7
 4641 0077 09       		.byte	0x9
ARM GAS  C:\Users\DEVELO~1\AppData\Local\Temp\ccBydanM.s 			page 83


 4642 0078 37       		.byte	0x37
 4643 0079 18       		.byte	0x18
 4644 007a 7E000000 		.4byte	0x7e
 4645 007e 16       		.uleb128 0x16
 4646 007f 02       		.byte	0x2
 4647 0080 05       		.byte	0x5
 4648 0081 1A160000 		.4byte	.LASF8
 4649 0085 04       		.uleb128 0x4
 4650 0086 DE040000 		.4byte	.LASF9
 4651 008a 09       		.byte	0x9
 4652 008b 39       		.byte	0x39
 4653 008c 19       		.byte	0x19
 4654 008d 91000000 		.4byte	0x91
 4655 0091 16       		.uleb128 0x16
 4656 0092 02       		.byte	0x2
 4657 0093 07       		.byte	0x7
 4658 0094 DC0B0000 		.4byte	.LASF10
 4659 0098 04       		.uleb128 0x4
 4660 0099 C9110000 		.4byte	.LASF11
 4661 009d 09       		.byte	0x9
 4662 009e 4D       		.byte	0x4d
 4663 009f 18       		.byte	0x18
 4664 00a0 A4000000 		.4byte	0xa4
 4665 00a4 16       		.uleb128 0x16
 4666 00a5 04       		.byte	0x4
 4667 00a6 05       		.byte	0x5
 4668 00a7 ED0D0000 		.4byte	.LASF12
 4669 00ab 04       		.uleb128 0x4
 4670 00ac E4110000 		.4byte	.LASF13
 4671 00b0 09       		.byte	0x9
 4672 00b1 4F       		.byte	0x4f
 4673 00b2 19       		.byte	0x19
 4674 00b3 B7000000 		.4byte	0xb7
 4675 00b7 16       		.uleb128 0x16
 4676 00b8 04       		.byte	0x4
 4677 00b9 07       		.byte	0x7
 4678 00ba 130F0000 		.4byte	.LASF14
 4679 00be 04       		.uleb128 0x4
 4680 00bf A4090000 		.4byte	.LASF15
 4681 00c3 09       		.byte	0x9
 4682 00c4 69       		.byte	0x69
 4683 00c5 19       		.byte	0x19
 4684 00c6 CA000000 		.4byte	0xca
 4685 00ca 16       		.uleb128 0x16
 4686 00cb 08       		.byte	0x8
 4687 00cc 07       		.byte	0x7
 4688 00cd 88120000 		.4byte	.LASF16
 4689 00d1 04       		.uleb128 0x4
 4690 00d2 CE070000 		.4byte	.LASF17
 4691 00d6 0A       		.byte	0xa
 4692 00d7 18       		.byte	0x18
 4693 00d8 13       		.byte	0x13
 4694 00d9 5F000000 		.4byte	0x5f
 4695 00dd 11       		.uleb128 0x11
 4696 00de D1000000 		.4byte	0xd1
 4697 00e2 04       		.uleb128 0x4
 4698 00e3 D40B0000 		.4byte	.LASF18
ARM GAS  C:\Users\DEVELO~1\AppData\Local\Temp\ccBydanM.s 			page 84


 4699 00e7 0A       		.byte	0xa
 4700 00e8 20       		.byte	0x20
 4701 00e9 13       		.byte	0x13
 4702 00ea 72000000 		.4byte	0x72
 4703 00ee 04       		.uleb128 0x4
 4704 00ef 7C010000 		.4byte	.LASF19
 4705 00f3 0A       		.byte	0xa
 4706 00f4 24       		.byte	0x24
 4707 00f5 14       		.byte	0x14
 4708 00f6 85000000 		.4byte	0x85
 4709 00fa 04       		.uleb128 0x4
 4710 00fb BC020000 		.4byte	.LASF20
 4711 00ff 0A       		.byte	0xa
 4712 0100 2C       		.byte	0x2c
 4713 0101 13       		.byte	0x13
 4714 0102 98000000 		.4byte	0x98
 4715 0106 04       		.uleb128 0x4
 4716 0107 920E0000 		.4byte	.LASF21
 4717 010b 0A       		.byte	0xa
 4718 010c 30       		.byte	0x30
 4719 010d 14       		.byte	0x14
 4720 010e AB000000 		.4byte	0xab
 4721 0112 12       		.uleb128 0x12
 4722 0113 06010000 		.4byte	0x106
 4723 0117 11       		.uleb128 0x11
 4724 0118 06010000 		.4byte	0x106
 4725 011c 04       		.uleb128 0x4
 4726 011d 7A060000 		.4byte	.LASF22
 4727 0121 0A       		.byte	0xa
 4728 0122 3C       		.byte	0x3c
 4729 0123 14       		.byte	0x14
 4730 0124 BE000000 		.4byte	0xbe
 4731 0128 12       		.uleb128 0x12
 4732 0129 1C010000 		.4byte	0x11c
 4733 012d 04       		.uleb128 0x4
 4734 012e 70070000 		.4byte	.LASF23
 4735 0132 0B       		.byte	0xb
 4736 0133 48       		.byte	0x48
 4737 0134 1D       		.byte	0x1d
 4738 0135 1C010000 		.4byte	0x11c
 4739 0139 04       		.uleb128 0x4
 4740 013a 88050000 		.4byte	.LASF24
 4741 013e 0C       		.byte	0xc
 4742 013f 50       		.byte	0x50
 4743 0140 19       		.byte	0x19
 4744 0141 2D010000 		.4byte	0x12d
 4745 0145 04       		.uleb128 0x4
 4746 0146 850A0000 		.4byte	.LASF25
 4747 014a 0C       		.byte	0xc
 4748 014b 53       		.byte	0x53
 4749 014c 19       		.byte	0x19
 4750 014d D1000000 		.4byte	0xd1
 4751 0151 04       		.uleb128 0x4
 4752 0152 17130000 		.4byte	.LASF26
 4753 0156 0C       		.byte	0xc
 4754 0157 54       		.byte	0x54
 4755 0158 19       		.byte	0x19
ARM GAS  C:\Users\DEVELO~1\AppData\Local\Temp\ccBydanM.s 			page 85


 4756 0159 D1000000 		.4byte	0xd1
 4757 015d 04       		.uleb128 0x4
 4758 015e 3A0A0000 		.4byte	.LASF27
 4759 0162 0C       		.byte	0xc
 4760 0163 55       		.byte	0x55
 4761 0164 19       		.byte	0x19
 4762 0165 D1000000 		.4byte	0xd1
 4763 0169 04       		.uleb128 0x4
 4764 016a 31040000 		.4byte	.LASF28
 4765 016e 0C       		.byte	0xc
 4766 016f 57       		.byte	0x57
 4767 0170 19       		.byte	0x19
 4768 0171 06010000 		.4byte	0x106
 4769 0175 04       		.uleb128 0x4
 4770 0176 44000000 		.4byte	.LASF29
 4771 017a 0C       		.byte	0xc
 4772 017b 58       		.byte	0x58
 4773 017c 19       		.byte	0x19
 4774 017d FA000000 		.4byte	0xfa
 4775 0181 04       		.uleb128 0x4
 4776 0182 E00E0000 		.4byte	.LASF30
 4777 0186 0C       		.byte	0xc
 4778 0187 5A       		.byte	0x5a
 4779 0188 19       		.byte	0x19
 4780 0189 06010000 		.4byte	0x106
 4781 018d 04       		.uleb128 0x4
 4782 018e 6E140000 		.4byte	.LASF31
 4783 0192 0C       		.byte	0xc
 4784 0193 5B       		.byte	0x5b
 4785 0194 19       		.byte	0x19
 4786 0195 06010000 		.4byte	0x106
 4787 0199 04       		.uleb128 0x4
 4788 019a 6A100000 		.4byte	.LASF32
 4789 019e 0C       		.byte	0xc
 4790 019f 5C       		.byte	0x5c
 4791 01a0 19       		.byte	0x19
 4792 01a1 FA000000 		.4byte	0xfa
 4793 01a5 04       		.uleb128 0x4
 4794 01a6 B7010000 		.4byte	.LASF33
 4795 01aa 0C       		.byte	0xc
 4796 01ab 80       		.byte	0x80
 4797 01ac 12       		.byte	0x12
 4798 01ad 43000000 		.4byte	0x43
 4799 01b1 04       		.uleb128 0x4
 4800 01b2 8D020000 		.4byte	.LASF34
 4801 01b6 0C       		.byte	0xc
 4802 01b7 85       		.byte	0x85
 4803 01b8 1A       		.byte	0x1a
 4804 01b9 BD010000 		.4byte	0x1bd
 4805 01bd 10       		.uleb128 0x10
 4806 01be F7050000 		.4byte	.LASF49
 4807 01c2 48       		.byte	0x48
 4808 01c3 0D       		.byte	0xd
 4809 01c4 9C       		.byte	0x9c
 4810 01c5 08       		.byte	0x8
 4811 01c6 A0020000 		.4byte	0x2a0
 4812 01ca 0E       		.uleb128 0xe
ARM GAS  C:\Users\DEVELO~1\AppData\Local\Temp\ccBydanM.s 			page 86


 4813 01cb 68647200 		.ascii	"hdr\000"
 4814 01cf 0D       		.byte	0xd
 4815 01d0 AD       		.byte	0xad
 4816 01d1 05       		.byte	0x5
 4817 01d2 7F080000 		.4byte	0x87f
 4818 01d6 00       		.byte	0
 4819 01d7 0E       		.uleb128 0xe
 4820 01d8 63747800 		.ascii	"ctx\000"
 4821 01dc 0D       		.byte	0xd
 4822 01dd B1       		.byte	0xb1
 4823 01de 21       		.byte	0x21
 4824 01df C3070000 		.4byte	0x7c3
 4825 01e3 0C       		.byte	0xc
 4826 01e4 01       		.uleb128 0x1
 4827 01e5 46120000 		.4byte	.LASF35
 4828 01e9 0D       		.byte	0xd
 4829 01ea B6       		.byte	0xb6
 4830 01eb 21       		.byte	0x21
 4831 01ec FF030000 		.4byte	0x3ff
 4832 01f0 10       		.byte	0x10
 4833 01f1 01       		.uleb128 0x1
 4834 01f2 80070000 		.4byte	.LASF36
 4835 01f6 0D       		.byte	0xd
 4836 01f7 BB       		.byte	0xbb
 4837 01f8 22       		.byte	0x22
 4838 01f9 81090000 		.4byte	0x981
 4839 01fd 18       		.byte	0x18
 4840 01fe 01       		.uleb128 0x1
 4841 01ff 100B0000 		.4byte	.LASF37
 4842 0203 0D       		.byte	0xd
 4843 0204 C0       		.byte	0xc0
 4844 0205 22       		.byte	0x22
 4845 0206 88030000 		.4byte	0x388
 4846 020a 1C       		.byte	0x1c
 4847 020b 01       		.uleb128 0x1
 4848 020c 3F0D0000 		.4byte	.LASF38
 4849 0210 0D       		.byte	0xd
 4850 0211 C9       		.byte	0xc9
 4851 0212 22       		.byte	0x22
 4852 0213 86090000 		.4byte	0x986
 4853 0217 20       		.byte	0x20
 4854 0218 01       		.uleb128 0x1
 4855 0219 1A0D0000 		.4byte	.LASF39
 4856 021d 0D       		.byte	0xd
 4857 021e CE       		.byte	0xce
 4858 021f 21       		.byte	0x21
 4859 0220 51010000 		.4byte	0x151
 4860 0224 24       		.byte	0x24
 4861 0225 01       		.uleb128 0x1
 4862 0226 94160000 		.4byte	.LASF40
 4863 022a 0D       		.byte	0xd
 4864 022b D2       		.byte	0xd2
 4865 022c 21       		.byte	0x21
 4866 022d 45010000 		.4byte	0x145
 4867 0231 25       		.byte	0x25
 4868 0232 01       		.uleb128 0x1
 4869 0233 2A030000 		.4byte	.LASF41
ARM GAS  C:\Users\DEVELO~1\AppData\Local\Temp\ccBydanM.s 			page 87


 4870 0237 0D       		.byte	0xd
 4871 0238 D7       		.byte	0xd7
 4872 0239 21       		.byte	0x21
 4873 023a 5D010000 		.4byte	0x15d
 4874 023e 26       		.byte	0x26
 4875 023f 0A       		.uleb128 0xa
 4876 0240 7500     		.ascii	"u\000"
 4877 0242 0D       		.byte	0xd
 4878 0243 2801     		.2byte	0x128
 4879 0245 21       		.byte	0x21
 4880 0246 AC080000 		.4byte	0x8ac
 4881 024a 28       		.byte	0x28
 4882 024b 02       		.uleb128 0x2
 4883 024c D1090000 		.4byte	.LASF42
 4884 0250 0D       		.byte	0xd
 4885 0251 2D01     		.2byte	0x12d
 4886 0253 21       		.byte	0x21
 4887 0254 D3030000 		.4byte	0x3d3
 4888 0258 2C       		.byte	0x2c
 4889 0259 02       		.uleb128 0x2
 4890 025a 560C0000 		.4byte	.LASF43
 4891 025e 0D       		.byte	0xd
 4892 025f 3301     		.2byte	0x133
 4893 0261 21       		.byte	0x21
 4894 0262 FF030000 		.4byte	0x3ff
 4895 0266 30       		.byte	0x30
 4896 0267 02       		.uleb128 0x2
 4897 0268 D3000000 		.4byte	.LASF44
 4898 026c 0D       		.byte	0xd
 4899 026d 3901     		.2byte	0x139
 4900 026f 21       		.byte	0x21
 4901 0270 81010000 		.4byte	0x181
 4902 0274 38       		.byte	0x38
 4903 0275 02       		.uleb128 0x2
 4904 0276 55030000 		.4byte	.LASF45
 4905 027a 0D       		.byte	0xd
 4906 027b 4001     		.2byte	0x140
 4907 027d 22       		.byte	0x22
 4908 027e 7C090000 		.4byte	0x97c
 4909 0282 3C       		.byte	0x3c
 4910 0283 02       		.uleb128 0x2
 4911 0284 62160000 		.4byte	.LASF46
 4912 0288 0D       		.byte	0xd
 4913 0289 4401     		.2byte	0x144
 4914 028b 21       		.byte	0x21
 4915 028c 69010000 		.4byte	0x169
 4916 0290 40       		.byte	0x40
 4917 0291 02       		.uleb128 0x2
 4918 0292 820D0000 		.4byte	.LASF47
 4919 0296 0D       		.byte	0xd
 4920 0297 4B01     		.2byte	0x14b
 4921 0299 22       		.byte	0x22
 4922 029a ED040000 		.4byte	0x4ed
 4923 029e 44       		.byte	0x44
 4924 029f 00       		.byte	0
 4925 02a0 04       		.uleb128 0x4
 4926 02a1 C60B0000 		.4byte	.LASF48
ARM GAS  C:\Users\DEVELO~1\AppData\Local\Temp\ccBydanM.s 			page 88


 4927 02a5 0C       		.byte	0xc
 4928 02a6 8A       		.byte	0x8a
 4929 02a7 1F       		.byte	0x1f
 4930 02a8 AC020000 		.4byte	0x2ac
 4931 02ac 3E       		.uleb128 0x3e
 4932 02ad 54150000 		.4byte	.LASF50
 4933 02b1 9008     		.2byte	0x890
 4934 02b3 0D       		.byte	0xd
 4935 02b4 8A01     		.2byte	0x18a
 4936 02b6 08       		.byte	0x8
 4937 02b7 3A030000 		.4byte	0x33a
 4938 02bb 02       		.uleb128 0x2
 4939 02bc 9C030000 		.4byte	.LASF51
 4940 02c0 0D       		.byte	0xd
 4941 02c1 8E01     		.2byte	0x18e
 4942 02c3 21       		.byte	0x21
 4943 02c4 B6090000 		.4byte	0x9b6
 4944 02c8 00       		.byte	0
 4945 02c9 02       		.uleb128 0x2
 4946 02ca 7D030000 		.4byte	.LASF52
 4947 02ce 0D       		.byte	0xd
 4948 02cf 9201     		.2byte	0x192
 4949 02d1 21       		.byte	0x21
 4950 02d2 19080000 		.4byte	0x819
 4951 02d6 10       		.byte	0x10
 4952 02d7 02       		.uleb128 0x2
 4953 02d8 C6070000 		.4byte	.LASF53
 4954 02dc 0D       		.byte	0xd
 4955 02dd 9901     		.2byte	0x199
 4956 02df 21       		.byte	0x21
 4957 02e0 40080000 		.4byte	0x840
 4958 02e4 28       		.byte	0x28
 4959 02e5 02       		.uleb128 0x2
 4960 02e6 56120000 		.4byte	.LASF54
 4961 02ea 0D       		.byte	0xd
 4962 02eb 9E01     		.2byte	0x19e
 4963 02ed 21       		.byte	0x21
 4964 02ee A5010000 		.4byte	0x1a5
 4965 02f2 30       		.byte	0x30
 4966 02f3 02       		.uleb128 0x2
 4967 02f4 4E040000 		.4byte	.LASF55
 4968 02f8 0D       		.byte	0xd
 4969 02f9 A401     		.2byte	0x1a4
 4970 02fb 21       		.byte	0x21
 4971 02fc 61030000 		.4byte	0x361
 4972 0300 34       		.byte	0x34
 4973 0301 02       		.uleb128 0x2
 4974 0302 0D110000 		.4byte	.LASF56
 4975 0306 0D       		.byte	0xd
 4976 0307 A901     		.2byte	0x1a9
 4977 0309 22       		.byte	0x22
 4978 030a 2A0A0000 		.4byte	0xa2a
 4979 030e 38       		.byte	0x38
 4980 030f 02       		.uleb128 0x2
 4981 0310 F60D0000 		.4byte	.LASF57
 4982 0314 0D       		.byte	0xd
 4983 0315 AD01     		.2byte	0x1ad
ARM GAS  C:\Users\DEVELO~1\AppData\Local\Temp\ccBydanM.s 			page 89


 4984 0317 21       		.byte	0x21
 4985 0318 B1010000 		.4byte	0x1b1
 4986 031c 3C       		.byte	0x3c
 4987 031d 0A       		.uleb128 0xa
 4988 031e 64626700 		.ascii	"dbg\000"
 4989 0322 0D       		.byte	0xd
 4990 0323 B101     		.2byte	0x1b1
 4991 0325 21       		.byte	0x21
 4992 0326 9E030000 		.4byte	0x39e
 4993 032a 84       		.byte	0x84
 4994 032b 02       		.uleb128 0x2
 4995 032c DE100000 		.4byte	.LASF58
 4996 0330 0D       		.byte	0xd
 4997 0331 B601     		.2byte	0x1b6
 4998 0333 21       		.byte	0x21
 4999 0334 48060000 		.4byte	0x648
 5000 0338 88       		.byte	0x88
 5001 0339 00       		.byte	0
 5002 033a 04       		.uleb128 0x4
 5003 033b 51080000 		.4byte	.LASF59
 5004 033f 0E       		.byte	0xe
 5005 0340 3F       		.byte	0x3f
 5006 0341 12       		.byte	0x12
 5007 0342 06010000 		.4byte	0x106
 5008 0346 10       		.uleb128 0x10
 5009 0347 6B150000 		.4byte	.LASF60
 5010 034b 04       		.byte	0x4
 5011 034c 0E       		.byte	0xe
 5012 034d 44       		.byte	0x44
 5013 034e 10       		.byte	0x10
 5014 034f 61030000 		.4byte	0x361
 5015 0353 01       		.uleb128 0x1
 5016 0354 E0020000 		.4byte	.LASF61
 5017 0358 0E       		.byte	0xe
 5018 0359 48       		.byte	0x48
 5019 035a 21       		.byte	0x21
 5020 035b 3A030000 		.4byte	0x33a
 5021 035f 00       		.byte	0
 5022 0360 00       		.byte	0
 5023 0361 04       		.uleb128 0x4
 5024 0362 8E130000 		.4byte	.LASF62
 5025 0366 0E       		.byte	0xe
 5026 0367 49       		.byte	0x49
 5027 0368 03       		.byte	0x3
 5028 0369 46030000 		.4byte	0x346
 5029 036d 10       		.uleb128 0x10
 5030 036e EF110000 		.4byte	.LASF63
 5031 0372 04       		.byte	0x4
 5032 0373 0F       		.byte	0xf
 5033 0374 3E       		.byte	0x3e
 5034 0375 10       		.byte	0x10
 5035 0376 88030000 		.4byte	0x388
 5036 037a 01       		.uleb128 0x1
 5037 037b 150B0000 		.4byte	.LASF64
 5038 037f 0F       		.byte	0xf
 5039 0380 46       		.byte	0x46
 5040 0381 24       		.byte	0x24
ARM GAS  C:\Users\DEVELO~1\AppData\Local\Temp\ccBydanM.s 			page 90


 5041 0382 8D030000 		.4byte	0x38d
 5042 0386 00       		.byte	0
 5043 0387 00       		.byte	0
 5044 0388 06       		.uleb128 0x6
 5045 0389 99030000 		.4byte	0x399
 5046 038d 12       		.uleb128 0x12
 5047 038e 88030000 		.4byte	0x388
 5048 0392 16       		.uleb128 0x16
 5049 0393 01       		.byte	0x1
 5050 0394 08       		.byte	0x8
 5051 0395 6D0F0000 		.4byte	.LASF65
 5052 0399 11       		.uleb128 0x11
 5053 039a 92030000 		.4byte	0x392
 5054 039e 04       		.uleb128 0x4
 5055 039f 37060000 		.4byte	.LASF66
 5056 03a3 0F       		.byte	0xf
 5057 03a4 51       		.byte	0x51
 5058 03a5 03       		.byte	0x3
 5059 03a6 6D030000 		.4byte	0x36d
 5060 03aa 04       		.uleb128 0x4
 5061 03ab D6020000 		.4byte	.LASF67
 5062 03af 10       		.byte	0x10
 5063 03b0 6D       		.byte	0x6d
 5064 03b1 12       		.byte	0x12
 5065 03b2 06010000 		.4byte	0x106
 5066 03b6 11       		.uleb128 0x11
 5067 03b7 AA030000 		.4byte	0x3aa
 5068 03bb 04       		.uleb128 0x4
 5069 03bc 89110000 		.4byte	.LASF68
 5070 03c0 10       		.byte	0x10
 5071 03c1 79       		.byte	0x79
 5072 03c2 12       		.byte	0x12
 5073 03c3 06010000 		.4byte	0x106
 5074 03c7 04       		.uleb128 0x4
 5075 03c8 490A0000 		.4byte	.LASF69
 5076 03cc 10       		.byte	0x10
 5077 03cd 9B       		.byte	0x9b
 5078 03ce 12       		.byte	0x12
 5079 03cf 1C010000 		.4byte	0x11c
 5080 03d3 04       		.uleb128 0x4
 5081 03d4 FD0F0000 		.4byte	.LASF70
 5082 03d8 11       		.byte	0x11
 5083 03d9 32       		.byte	0x32
 5084 03da 18       		.byte	0x18
 5085 03db DF030000 		.4byte	0x3df
 5086 03df 10       		.uleb128 0x10
 5087 03e0 E50D0000 		.4byte	.LASF71
 5088 03e4 04       		.byte	0x4
 5089 03e5 11       		.byte	0x11
 5090 03e6 38       		.byte	0x38
 5091 03e7 08       		.byte	0x8
 5092 03e8 FA030000 		.4byte	0x3fa
 5093 03ec 01       		.uleb128 0x1
 5094 03ed C1010000 		.4byte	.LASF72
 5095 03f1 11       		.byte	0x11
 5096 03f2 39       		.byte	0x39
 5097 03f3 1A       		.byte	0x1a
ARM GAS  C:\Users\DEVELO~1\AppData\Local\Temp\ccBydanM.s 			page 91


 5098 03f4 FA030000 		.4byte	0x3fa
 5099 03f8 00       		.byte	0
 5100 03f9 00       		.byte	0
 5101 03fa 06       		.uleb128 0x6
 5102 03fb D3030000 		.4byte	0x3d3
 5103 03ff 04       		.uleb128 0x4
 5104 0400 1E100000 		.4byte	.LASF73
 5105 0404 11       		.byte	0x11
 5106 0405 3F       		.byte	0x3f
 5107 0406 19       		.byte	0x19
 5108 0407 0B040000 		.4byte	0x40b
 5109 040b 10       		.uleb128 0x10
 5110 040c F0070000 		.4byte	.LASF74
 5111 0410 08       		.byte	0x8
 5112 0411 11       		.byte	0x11
 5113 0412 45       		.byte	0x45
 5114 0413 08       		.byte	0x8
 5115 0414 33040000 		.4byte	0x433
 5116 0418 01       		.uleb128 0x1
 5117 0419 C1010000 		.4byte	.LASF72
 5118 041d 11       		.byte	0x11
 5119 041e 46       		.byte	0x46
 5120 041f 1A       		.byte	0x1a
 5121 0420 33040000 		.4byte	0x433
 5122 0424 00       		.byte	0
 5123 0425 01       		.uleb128 0x1
 5124 0426 3A160000 		.4byte	.LASF75
 5125 042a 11       		.byte	0x11
 5126 042b 47       		.byte	0x47
 5127 042c 1A       		.byte	0x1a
 5128 042d 33040000 		.4byte	0x433
 5129 0431 04       		.byte	0x4
 5130 0432 00       		.byte	0
 5131 0433 06       		.uleb128 0x6
 5132 0434 FF030000 		.4byte	0x3ff
 5133 0438 04       		.uleb128 0x4
 5134 0439 41030000 		.4byte	.LASF76
 5135 043d 11       		.byte	0x11
 5136 043e 4E       		.byte	0x4e
 5137 043f 22       		.byte	0x22
 5138 0440 44040000 		.4byte	0x444
 5139 0444 10       		.uleb128 0x10
 5140 0445 D5030000 		.4byte	.LASF77
 5141 0449 0C       		.byte	0xc
 5142 044a 11       		.byte	0x11
 5143 044b 55       		.byte	0x55
 5144 044c 08       		.byte	0x8
 5145 044d 79040000 		.4byte	0x479
 5146 0451 01       		.uleb128 0x1
 5147 0452 C1010000 		.4byte	.LASF72
 5148 0456 11       		.byte	0x11
 5149 0457 56       		.byte	0x56
 5150 0458 1A       		.byte	0x1a
 5151 0459 79040000 		.4byte	0x479
 5152 045d 00       		.byte	0
 5153 045e 01       		.uleb128 0x1
 5154 045f 3A160000 		.4byte	.LASF75
ARM GAS  C:\Users\DEVELO~1\AppData\Local\Temp\ccBydanM.s 			page 92


 5155 0463 11       		.byte	0x11
 5156 0464 57       		.byte	0x57
 5157 0465 1A       		.byte	0x1a
 5158 0466 79040000 		.4byte	0x479
 5159 046a 04       		.byte	0x4
 5160 046b 01       		.uleb128 0x1
 5161 046c 2D010000 		.4byte	.LASF78
 5162 0470 11       		.byte	0x11
 5163 0471 58       		.byte	0x58
 5164 0472 19       		.byte	0x19
 5165 0473 69010000 		.4byte	0x169
 5166 0477 08       		.byte	0x8
 5167 0478 00       		.byte	0
 5168 0479 06       		.uleb128 0x6
 5169 047a 38040000 		.4byte	0x438
 5170 047e 04       		.uleb128 0x4
 5171 047f 630B0000 		.4byte	.LASF79
 5172 0483 11       		.byte	0x11
 5173 0484 5F       		.byte	0x5f
 5174 0485 1E       		.byte	0x1e
 5175 0486 8A040000 		.4byte	0x48a
 5176 048a 10       		.uleb128 0x10
 5177 048b 790B0000 		.4byte	.LASF80
 5178 048f 0C       		.byte	0xc
 5179 0490 11       		.byte	0x11
 5180 0491 64       		.byte	0x64
 5181 0492 08       		.byte	0x8
 5182 0493 BF040000 		.4byte	0x4bf
 5183 0497 01       		.uleb128 0x1
 5184 0498 C1010000 		.4byte	.LASF72
 5185 049c 11       		.byte	0x11
 5186 049d 65       		.byte	0x65
 5187 049e 1A       		.byte	0x1a
 5188 049f BF040000 		.4byte	0x4bf
 5189 04a3 00       		.byte	0
 5190 04a4 01       		.uleb128 0x1
 5191 04a5 3A160000 		.4byte	.LASF75
 5192 04a9 11       		.byte	0x11
 5193 04aa 66       		.byte	0x66
 5194 04ab 1A       		.byte	0x1a
 5195 04ac BF040000 		.4byte	0x4bf
 5196 04b0 04       		.byte	0x4
 5197 04b1 01       		.uleb128 0x1
 5198 04b2 46060000 		.4byte	.LASF81
 5199 04b6 11       		.byte	0x11
 5200 04b7 67       		.byte	0x67
 5201 04b8 19       		.byte	0x19
 5202 04b9 BB030000 		.4byte	0x3bb
 5203 04bd 08       		.byte	0x8
 5204 04be 00       		.byte	0
 5205 04bf 06       		.uleb128 0x6
 5206 04c0 7E040000 		.4byte	0x47e
 5207 04c4 14       		.uleb128 0x14
 5208 04c5 08       		.byte	0x8
 5209 04c6 12       		.byte	0x12
 5210 04c7 83       		.byte	0x83
 5211 04c8 05       		.byte	0x5
ARM GAS  C:\Users\DEVELO~1\AppData\Local\Temp\ccBydanM.s 			page 93


 5212 04c9 E8040000 		.4byte	0x4e8
 5213 04cd 0E       		.uleb128 0xe
 5214 04ce 6E747000 		.ascii	"ntp\000"
 5215 04d2 12       		.byte	0x12
 5216 04d3 87       		.byte	0x87
 5217 04d4 1E       		.byte	0x1e
 5218 04d5 E8040000 		.4byte	0x4e8
 5219 04d9 00       		.byte	0
 5220 04da 01       		.uleb128 0x1
 5221 04db 2B110000 		.4byte	.LASF82
 5222 04df 12       		.byte	0x12
 5223 04e0 8B       		.byte	0x8b
 5224 04e1 1E       		.byte	0x1e
 5225 04e2 ED040000 		.4byte	0x4ed
 5226 04e6 04       		.byte	0x4
 5227 04e7 00       		.byte	0
 5228 04e8 06       		.uleb128 0x6
 5229 04e9 B1010000 		.4byte	0x1b1
 5230 04ed 3F       		.uleb128 0x3f
 5231 04ee 04       		.byte	0x4
 5232 04ef 14       		.uleb128 0x14
 5233 04f0 08       		.byte	0x8
 5234 04f1 12       		.byte	0x12
 5235 04f2 90       		.byte	0x90
 5236 04f3 05       		.byte	0x5
 5237 04f4 12050000 		.4byte	0x512
 5238 04f8 0E       		.uleb128 0xe
 5239 04f9 747000   		.ascii	"tp\000"
 5240 04fc 12       		.byte	0x12
 5241 04fd 94       		.byte	0x94
 5242 04fe 1E       		.byte	0x1e
 5243 04ff E8040000 		.4byte	0x4e8
 5244 0503 00       		.byte	0
 5245 0504 0E       		.uleb128 0xe
 5246 0505 6D736700 		.ascii	"msg\000"
 5247 0509 12       		.byte	0x12
 5248 050a 98       		.byte	0x98
 5249 050b 1D       		.byte	0x1d
 5250 050c 75010000 		.4byte	0x175
 5251 0510 04       		.byte	0x4
 5252 0511 00       		.byte	0
 5253 0512 14       		.uleb128 0x14
 5254 0513 04       		.byte	0x4
 5255 0514 12       		.byte	0x12
 5256 0515 9D       		.byte	0x9d
 5257 0516 05       		.byte	0x5
 5258 0517 29050000 		.4byte	0x529
 5259 051b 01       		.uleb128 0x1
 5260 051c 100B0000 		.4byte	.LASF37
 5261 0520 12       		.byte	0x12
 5262 0521 A1       		.byte	0xa1
 5263 0522 1E       		.byte	0x1e
 5264 0523 88030000 		.4byte	0x388
 5265 0527 00       		.byte	0
 5266 0528 00       		.byte	0
 5267 0529 14       		.uleb128 0x14
 5268 052a 04       		.byte	0x4
ARM GAS  C:\Users\DEVELO~1\AppData\Local\Temp\ccBydanM.s 			page 94


 5269 052b 12       		.byte	0x12
 5270 052c A6       		.byte	0xa6
 5271 052d 05       		.byte	0x5
 5272 052e 40050000 		.4byte	0x540
 5273 0532 01       		.uleb128 0x1
 5274 0533 340F0000 		.4byte	.LASF83
 5275 0537 12       		.byte	0x12
 5276 0538 AA       		.byte	0xaa
 5277 0539 1E       		.byte	0x1e
 5278 053a 88030000 		.4byte	0x388
 5279 053e 00       		.byte	0
 5280 053f 00       		.byte	0
 5281 0540 14       		.uleb128 0x14
 5282 0541 08       		.byte	0x8
 5283 0542 12       		.byte	0x12
 5284 0543 AF       		.byte	0xaf
 5285 0544 05       		.byte	0x5
 5286 0545 64050000 		.4byte	0x564
 5287 0549 0E       		.uleb128 0xe
 5288 054a 75703100 		.ascii	"up1\000"
 5289 054e 12       		.byte	0x12
 5290 054f B3       		.byte	0xb3
 5291 0550 1E       		.byte	0x1e
 5292 0551 ED040000 		.4byte	0x4ed
 5293 0555 00       		.byte	0
 5294 0556 0E       		.uleb128 0xe
 5295 0557 75703200 		.ascii	"up2\000"
 5296 055b 12       		.byte	0x12
 5297 055c B7       		.byte	0xb7
 5298 055d 1E       		.byte	0x1e
 5299 055e ED040000 		.4byte	0x4ed
 5300 0562 04       		.byte	0x4
 5301 0563 00       		.byte	0
 5302 0564 29       		.uleb128 0x29
 5303 0565 08       		.byte	0x8
 5304 0566 12       		.byte	0x12
 5305 0567 7F       		.byte	0x7f
 5306 0568 A2050000 		.4byte	0x5a2
 5307 056c 2A       		.uleb128 0x2a
 5308 056d 737700   		.ascii	"sw\000"
 5309 0570 8C       		.byte	0x8c
 5310 0571 C4040000 		.4byte	0x4c4
 5311 0575 2A       		.uleb128 0x2a
 5312 0576 72647900 		.ascii	"rdy\000"
 5313 057a 99       		.byte	0x99
 5314 057b EF040000 		.4byte	0x4ef
 5315 057f 2A       		.uleb128 0x2a
 5316 0580 69737200 		.ascii	"isr\000"
 5317 0584 A2       		.byte	0xa2
 5318 0585 12050000 		.4byte	0x512
 5319 0589 1C       		.uleb128 0x1c
 5320 058a 460D0000 		.4byte	.LASF84
 5321 058e 12       		.byte	0x12
 5322 058f AB       		.byte	0xab
 5323 0590 07       		.byte	0x7
 5324 0591 29050000 		.4byte	0x529
 5325 0595 1C       		.uleb128 0x1c
ARM GAS  C:\Users\DEVELO~1\AppData\Local\Temp\ccBydanM.s 			page 95


 5326 0596 B8140000 		.4byte	.LASF85
 5327 059a 12       		.byte	0x12
 5328 059b B8       		.byte	0xb8
 5329 059c 07       		.byte	0x7
 5330 059d 40050000 		.4byte	0x540
 5331 05a1 00       		.byte	0
 5332 05a2 14       		.uleb128 0x14
 5333 05a3 10       		.byte	0x10
 5334 05a4 12       		.byte	0x12
 5335 05a5 6C       		.byte	0x6c
 5336 05a6 09       		.byte	0x9
 5337 05a7 E8050000 		.4byte	0x5e8
 5338 05ab 2B       		.uleb128 0x2b
 5339 05ac A5040000 		.4byte	.LASF86
 5340 05b0 70       		.byte	0x70
 5341 05b1 06010000 		.4byte	0x106
 5342 05b5 03       		.byte	0x3
 5343 05b6 00       		.byte	0
 5344 05b7 2B       		.uleb128 0x2b
 5345 05b8 1A0D0000 		.4byte	.LASF39
 5346 05bc 74       		.byte	0x74
 5347 05bd 06010000 		.4byte	0x106
 5348 05c1 05       		.byte	0x5
 5349 05c2 03       		.byte	0x3
 5350 05c3 2B       		.uleb128 0x2b
 5351 05c4 9E010000 		.4byte	.LASF87
 5352 05c8 7A       		.byte	0x7a
 5353 05c9 06010000 		.4byte	0x106
 5354 05cd 18       		.byte	0x18
 5355 05ce 08       		.byte	0x8
 5356 05cf 01       		.uleb128 0x1
 5357 05d0 B70D0000 		.4byte	.LASF88
 5358 05d4 12       		.byte	0x12
 5359 05d5 7E       		.byte	0x7e
 5360 05d6 19       		.byte	0x19
 5361 05d7 AA030000 		.4byte	0x3aa
 5362 05db 04       		.byte	0x4
 5363 05dc 0E       		.uleb128 0xe
 5364 05dd 7500     		.ascii	"u\000"
 5365 05df 12       		.byte	0x12
 5366 05e0 B9       		.byte	0xb9
 5367 05e1 05       		.byte	0x5
 5368 05e2 64050000 		.4byte	0x564
 5369 05e6 08       		.byte	0x8
 5370 05e7 00       		.byte	0
 5371 05e8 04       		.uleb128 0x4
 5372 05e9 5B020000 		.4byte	.LASF89
 5373 05ed 12       		.byte	0x12
 5374 05ee BA       		.byte	0xba
 5375 05ef 03       		.byte	0x3
 5376 05f0 A2050000 		.4byte	0x5a2
 5377 05f4 40       		.uleb128 0x40
 5378 05f5 0808     		.2byte	0x808
 5379 05f7 12       		.byte	0x12
 5380 05f8 C0       		.byte	0xc0
 5381 05f9 09       		.byte	0x9
 5382 05fa 33060000 		.4byte	0x633
ARM GAS  C:\Users\DEVELO~1\AppData\Local\Temp\ccBydanM.s 			page 96


 5383 05fe 01       		.uleb128 0x1
 5384 05ff 45130000 		.4byte	.LASF90
 5385 0603 12       		.byte	0x12
 5386 0604 C4       		.byte	0xc4
 5387 0605 19       		.byte	0x19
 5388 0606 EE000000 		.4byte	0xee
 5389 060a 00       		.byte	0
 5390 060b 01       		.uleb128 0x1
 5391 060c 5F070000 		.4byte	.LASF91
 5392 0610 12       		.byte	0x12
 5393 0611 C8       		.byte	0xc8
 5394 0612 19       		.byte	0x19
 5395 0613 EE000000 		.4byte	0xee
 5396 0617 02       		.byte	0x2
 5397 0618 0E       		.uleb128 0xe
 5398 0619 70747200 		.ascii	"ptr\000"
 5399 061d 12       		.byte	0x12
 5400 061e CC       		.byte	0xcc
 5401 061f 1A       		.byte	0x1a
 5402 0620 33060000 		.4byte	0x633
 5403 0624 04       		.byte	0x4
 5404 0625 01       		.uleb128 0x1
 5405 0626 53100000 		.4byte	.LASF92
 5406 062a 12       		.byte	0x12
 5407 062b D0       		.byte	0xd0
 5408 062c 19       		.byte	0x19
 5409 062d 38060000 		.4byte	0x638
 5410 0631 08       		.byte	0x8
 5411 0632 00       		.byte	0
 5412 0633 06       		.uleb128 0x6
 5413 0634 E8050000 		.4byte	0x5e8
 5414 0638 0C       		.uleb128 0xc
 5415 0639 E8050000 		.4byte	0x5e8
 5416 063d 48060000 		.4byte	0x648
 5417 0641 0D       		.uleb128 0xd
 5418 0642 43000000 		.4byte	0x43
 5419 0646 7F       		.byte	0x7f
 5420 0647 00       		.byte	0
 5421 0648 04       		.uleb128 0x4
 5422 0649 380B0000 		.4byte	.LASF93
 5423 064d 12       		.byte	0x12
 5424 064e D1       		.byte	0xd1
 5425 064f 03       		.byte	0x3
 5426 0650 F4050000 		.4byte	0x5f4
 5427 0654 0C       		.uleb128 0xc
 5428 0655 12010000 		.4byte	0x112
 5429 0659 64060000 		.4byte	0x664
 5430 065d 0D       		.uleb128 0xd
 5431 065e 43000000 		.4byte	0x43
 5432 0662 0F       		.byte	0xf
 5433 0663 00       		.byte	0
 5434 0664 12       		.uleb128 0x12
 5435 0665 54060000 		.4byte	0x654
 5436 0669 1D       		.uleb128 0x1d
 5437 066a 30       		.byte	0x30
 5438 066b 13       		.byte	0x13
 5439 066c 3906     		.2byte	0x639
ARM GAS  C:\Users\DEVELO~1\AppData\Local\Temp\ccBydanM.s 			page 97


 5440 066e 1B070000 		.4byte	0x71b
 5441 0672 0A       		.uleb128 0xa
 5442 0673 43523100 		.ascii	"CR1\000"
 5443 0677 13       		.byte	0x13
 5444 0678 3B06     		.2byte	0x63b
 5445 067a 11       		.byte	0x11
 5446 067b 12010000 		.4byte	0x112
 5447 067f 00       		.byte	0
 5448 0680 0A       		.uleb128 0xa
 5449 0681 43523200 		.ascii	"CR2\000"
 5450 0685 13       		.byte	0x13
 5451 0686 3C06     		.2byte	0x63c
 5452 0688 11       		.byte	0x11
 5453 0689 12010000 		.4byte	0x112
 5454 068d 04       		.byte	0x4
 5455 068e 0A       		.uleb128 0xa
 5456 068f 43523300 		.ascii	"CR3\000"
 5457 0693 13       		.byte	0x13
 5458 0694 3D06     		.2byte	0x63d
 5459 0696 11       		.byte	0x11
 5460 0697 12010000 		.4byte	0x112
 5461 069b 08       		.byte	0x8
 5462 069c 0A       		.uleb128 0xa
 5463 069d 42525200 		.ascii	"BRR\000"
 5464 06a1 13       		.byte	0x13
 5465 06a2 3E06     		.2byte	0x63e
 5466 06a4 11       		.byte	0x11
 5467 06a5 12010000 		.4byte	0x112
 5468 06a9 0C       		.byte	0xc
 5469 06aa 02       		.uleb128 0x2
 5470 06ab 92150000 		.4byte	.LASF94
 5471 06af 13       		.byte	0x13
 5472 06b0 3F06     		.2byte	0x63f
 5473 06b2 11       		.byte	0x11
 5474 06b3 12010000 		.4byte	0x112
 5475 06b7 10       		.byte	0x10
 5476 06b8 02       		.uleb128 0x2
 5477 06b9 D6050000 		.4byte	.LASF95
 5478 06bd 13       		.byte	0x13
 5479 06be 4006     		.2byte	0x640
 5480 06c0 11       		.byte	0x11
 5481 06c1 12010000 		.4byte	0x112
 5482 06c5 14       		.byte	0x14
 5483 06c6 0A       		.uleb128 0xa
 5484 06c7 52515200 		.ascii	"RQR\000"
 5485 06cb 13       		.byte	0x13
 5486 06cc 4106     		.2byte	0x641
 5487 06ce 11       		.byte	0x11
 5488 06cf 12010000 		.4byte	0x112
 5489 06d3 18       		.byte	0x18
 5490 06d4 0A       		.uleb128 0xa
 5491 06d5 49535200 		.ascii	"ISR\000"
 5492 06d9 13       		.byte	0x13
 5493 06da 4206     		.2byte	0x642
 5494 06dc 11       		.byte	0x11
 5495 06dd 12010000 		.4byte	0x112
 5496 06e1 1C       		.byte	0x1c
ARM GAS  C:\Users\DEVELO~1\AppData\Local\Temp\ccBydanM.s 			page 98


 5497 06e2 0A       		.uleb128 0xa
 5498 06e3 49435200 		.ascii	"ICR\000"
 5499 06e7 13       		.byte	0x13
 5500 06e8 4306     		.2byte	0x643
 5501 06ea 11       		.byte	0x11
 5502 06eb 12010000 		.4byte	0x112
 5503 06ef 20       		.byte	0x20
 5504 06f0 0A       		.uleb128 0xa
 5505 06f1 52445200 		.ascii	"RDR\000"
 5506 06f5 13       		.byte	0x13
 5507 06f6 4406     		.2byte	0x644
 5508 06f8 11       		.byte	0x11
 5509 06f9 12010000 		.4byte	0x112
 5510 06fd 24       		.byte	0x24
 5511 06fe 0A       		.uleb128 0xa
 5512 06ff 54445200 		.ascii	"TDR\000"
 5513 0703 13       		.byte	0x13
 5514 0704 4506     		.2byte	0x645
 5515 0706 11       		.byte	0x11
 5516 0707 12010000 		.4byte	0x112
 5517 070b 28       		.byte	0x28
 5518 070c 02       		.uleb128 0x2
 5519 070d 730B0000 		.4byte	.LASF96
 5520 0711 13       		.byte	0x13
 5521 0712 4606     		.2byte	0x646
 5522 0714 11       		.byte	0x11
 5523 0715 12010000 		.4byte	0x112
 5524 0719 2C       		.byte	0x2c
 5525 071a 00       		.byte	0
 5526 071b 0F       		.uleb128 0xf
 5527 071c BC0D0000 		.4byte	.LASF97
 5528 0720 13       		.byte	0x13
 5529 0721 4706     		.2byte	0x647
 5530 0723 03       		.byte	0x3
 5531 0724 69060000 		.4byte	0x669
 5532 0728 0C       		.uleb128 0xc
 5533 0729 12010000 		.4byte	0x112
 5534 072d 38070000 		.4byte	0x738
 5535 0731 0D       		.uleb128 0xd
 5536 0732 43000000 		.4byte	0x43
 5537 0736 0E       		.byte	0xe
 5538 0737 00       		.byte	0
 5539 0738 12       		.uleb128 0x12
 5540 0739 28070000 		.4byte	0x728
 5541 073d 1F       		.uleb128 0x1f
 5542 073e 08000000 		.4byte	.LASF98
 5543 0742 24       		.byte	0x24
 5544 0743 03       		.byte	0x3
 5545 0744 E001     		.2byte	0x1e0
 5546 0746 08       		.byte	0x8
 5547 0747 C3070000 		.4byte	0x7c3
 5548 074b 0A       		.uleb128 0xa
 5549 074c 723400   		.ascii	"r4\000"
 5550 074f 03       		.byte	0x3
 5551 0750 F901     		.2byte	0x1f9
 5552 0752 11       		.byte	0x11
 5553 0753 06010000 		.4byte	0x106
ARM GAS  C:\Users\DEVELO~1\AppData\Local\Temp\ccBydanM.s 			page 99


 5554 0757 00       		.byte	0
 5555 0758 0A       		.uleb128 0xa
 5556 0759 723500   		.ascii	"r5\000"
 5557 075c 03       		.byte	0x3
 5558 075d FA01     		.2byte	0x1fa
 5559 075f 11       		.byte	0x11
 5560 0760 06010000 		.4byte	0x106
 5561 0764 04       		.byte	0x4
 5562 0765 0A       		.uleb128 0xa
 5563 0766 723600   		.ascii	"r6\000"
 5564 0769 03       		.byte	0x3
 5565 076a FB01     		.2byte	0x1fb
 5566 076c 11       		.byte	0x11
 5567 076d 06010000 		.4byte	0x106
 5568 0771 08       		.byte	0x8
 5569 0772 0A       		.uleb128 0xa
 5570 0773 723700   		.ascii	"r7\000"
 5571 0776 03       		.byte	0x3
 5572 0777 FC01     		.2byte	0x1fc
 5573 0779 11       		.byte	0x11
 5574 077a 06010000 		.4byte	0x106
 5575 077e 0C       		.byte	0xc
 5576 077f 0A       		.uleb128 0xa
 5577 0780 723800   		.ascii	"r8\000"
 5578 0783 03       		.byte	0x3
 5579 0784 FD01     		.2byte	0x1fd
 5580 0786 11       		.byte	0x11
 5581 0787 06010000 		.4byte	0x106
 5582 078b 10       		.byte	0x10
 5583 078c 0A       		.uleb128 0xa
 5584 078d 723900   		.ascii	"r9\000"
 5585 0790 03       		.byte	0x3
 5586 0791 FE01     		.2byte	0x1fe
 5587 0793 11       		.byte	0x11
 5588 0794 06010000 		.4byte	0x106
 5589 0798 14       		.byte	0x14
 5590 0799 0A       		.uleb128 0xa
 5591 079a 72313000 		.ascii	"r10\000"
 5592 079e 03       		.byte	0x3
 5593 079f FF01     		.2byte	0x1ff
 5594 07a1 11       		.byte	0x11
 5595 07a2 06010000 		.4byte	0x106
 5596 07a6 18       		.byte	0x18
 5597 07a7 0A       		.uleb128 0xa
 5598 07a8 72313100 		.ascii	"r11\000"
 5599 07ac 03       		.byte	0x3
 5600 07ad 0002     		.2byte	0x200
 5601 07af 11       		.byte	0x11
 5602 07b0 06010000 		.4byte	0x106
 5603 07b4 1C       		.byte	0x1c
 5604 07b5 0A       		.uleb128 0xa
 5605 07b6 6C7200   		.ascii	"lr\000"
 5606 07b9 03       		.byte	0x3
 5607 07ba 0102     		.2byte	0x201
 5608 07bc 11       		.byte	0x11
 5609 07bd 06010000 		.4byte	0x106
 5610 07c1 20       		.byte	0x20
ARM GAS  C:\Users\DEVELO~1\AppData\Local\Temp\ccBydanM.s 			page 100


 5611 07c2 00       		.byte	0
 5612 07c3 1F       		.uleb128 0x1f
 5613 07c4 020A0000 		.4byte	.LASF99
 5614 07c8 04       		.byte	0x4
 5615 07c9 03       		.byte	0x3
 5616 07ca 0A02     		.2byte	0x20a
 5617 07cc 08       		.byte	0x8
 5618 07cd DF070000 		.4byte	0x7df
 5619 07d1 0A       		.uleb128 0xa
 5620 07d2 737000   		.ascii	"sp\000"
 5621 07d5 03       		.byte	0x3
 5622 07d6 0B02     		.2byte	0x20b
 5623 07d8 1A       		.byte	0x1a
 5624 07d9 DF070000 		.4byte	0x7df
 5625 07dd 00       		.byte	0
 5626 07de 00       		.byte	0
 5627 07df 06       		.uleb128 0x6
 5628 07e0 3D070000 		.4byte	0x73d
 5629 07e4 10       		.uleb128 0x10
 5630 07e5 96020000 		.4byte	.LASF100
 5631 07e9 18       		.byte	0x18
 5632 07ea 0D       		.byte	0xd
 5633 07eb 64       		.byte	0x64
 5634 07ec 10       		.byte	0x10
 5635 07ed 19080000 		.4byte	0x819
 5636 07f1 01       		.uleb128 0x1
 5637 07f2 64070000 		.4byte	.LASF101
 5638 07f6 0D       		.byte	0xd
 5639 07f7 68       		.byte	0x68
 5640 07f8 21       		.byte	0x21
 5641 07f9 7E040000 		.4byte	0x47e
 5642 07fd 00       		.byte	0
 5643 07fe 01       		.uleb128 0x1
 5644 07ff 3D0C0000 		.4byte	.LASF102
 5645 0803 0D       		.byte	0xd
 5646 0804 73       		.byte	0x73
 5647 0805 21       		.byte	0x21
 5648 0806 AA030000 		.4byte	0x3aa
 5649 080a 0C       		.byte	0xc
 5650 080b 01       		.uleb128 0x1
 5651 080c 53040000 		.4byte	.LASF103
 5652 0810 0D       		.byte	0xd
 5653 0811 79       		.byte	0x79
 5654 0812 21       		.byte	0x21
 5655 0813 28010000 		.4byte	0x128
 5656 0817 10       		.byte	0x10
 5657 0818 00       		.byte	0
 5658 0819 04       		.uleb128 0x4
 5659 081a B9130000 		.4byte	.LASF104
 5660 081e 0D       		.byte	0xd
 5661 081f 7B       		.byte	0x7b
 5662 0820 03       		.byte	0x3
 5663 0821 E4070000 		.4byte	0x7e4
 5664 0825 10       		.uleb128 0x10
 5665 0826 FB0B0000 		.4byte	.LASF105
 5666 082a 08       		.byte	0x8
 5667 082b 0D       		.byte	0xd
ARM GAS  C:\Users\DEVELO~1\AppData\Local\Temp\ccBydanM.s 			page 101


 5668 082c 80       		.byte	0x80
 5669 082d 10       		.byte	0x10
 5670 082e 40080000 		.4byte	0x840
 5671 0832 01       		.uleb128 0x1
 5672 0833 6D120000 		.4byte	.LASF106
 5673 0837 0D       		.byte	0xd
 5674 0838 84       		.byte	0x84
 5675 0839 21       		.byte	0x21
 5676 083a FF030000 		.4byte	0x3ff
 5677 083e 00       		.byte	0
 5678 083f 00       		.byte	0
 5679 0840 04       		.uleb128 0x4
 5680 0841 1B050000 		.4byte	.LASF107
 5681 0845 0D       		.byte	0xd
 5682 0846 85       		.byte	0x85
 5683 0847 03       		.byte	0x3
 5684 0848 25080000 		.4byte	0x825
 5685 084c 04       		.uleb128 0x4
 5686 084d FA140000 		.4byte	.LASF108
 5687 0851 0D       		.byte	0xd
 5688 0852 8A       		.byte	0x8a
 5689 0853 14       		.byte	0x14
 5690 0854 E8040000 		.4byte	0x4e8
 5691 0858 10       		.uleb128 0x10
 5692 0859 FB010000 		.4byte	.LASF109
 5693 085d 08       		.byte	0x8
 5694 085e 0D       		.byte	0xd
 5695 085f 8F       		.byte	0x8f
 5696 0860 10       		.byte	0x10
 5697 0861 73080000 		.4byte	0x873
 5698 0865 01       		.uleb128 0x1
 5699 0866 6D120000 		.4byte	.LASF106
 5700 086a 0D       		.byte	0xd
 5701 086b 93       		.byte	0x93
 5702 086c 21       		.byte	0x21
 5703 086d FF030000 		.4byte	0x3ff
 5704 0871 00       		.byte	0
 5705 0872 00       		.byte	0
 5706 0873 04       		.uleb128 0x4
 5707 0874 940D0000 		.4byte	.LASF110
 5708 0878 0D       		.byte	0xd
 5709 0879 94       		.byte	0x94
 5710 087a 03       		.byte	0x3
 5711 087b 58080000 		.4byte	0x858
 5712 087f 29       		.uleb128 0x29
 5713 0880 0C       		.byte	0xc
 5714 0881 0D       		.byte	0xd
 5715 0882 A0       		.byte	0xa0
 5716 0883 AC080000 		.4byte	0x8ac
 5717 0887 1C       		.uleb128 0x1c
 5718 0888 17090000 		.4byte	.LASF111
 5719 088c 0D       		.byte	0xd
 5720 088d A4       		.byte	0xa4
 5721 088e 21       		.byte	0x21
 5722 088f D3030000 		.4byte	0x3d3
 5723 0893 1C       		.uleb128 0x1c
 5724 0894 6D120000 		.4byte	.LASF106
ARM GAS  C:\Users\DEVELO~1\AppData\Local\Temp\ccBydanM.s 			page 102


 5725 0898 0D       		.byte	0xd
 5726 0899 A8       		.byte	0xa8
 5727 089a 21       		.byte	0x21
 5728 089b FF030000 		.4byte	0x3ff
 5729 089f 1C       		.uleb128 0x1c
 5730 08a0 07090000 		.4byte	.LASF112
 5731 08a4 0D       		.byte	0xd
 5732 08a5 AC       		.byte	0xac
 5733 08a6 21       		.byte	0x21
 5734 08a7 38040000 		.4byte	0x438
 5735 08ab 00       		.byte	0
 5736 08ac 29       		.uleb128 0x29
 5737 08ad 04       		.byte	0x4
 5738 08ae 0D       		.byte	0xd
 5739 08af EB       		.byte	0xeb
 5740 08b0 15090000 		.4byte	0x915
 5741 08b4 1C       		.uleb128 0x1c
 5742 08b5 28090000 		.4byte	.LASF113
 5743 08b9 0D       		.byte	0xd
 5744 08ba F2       		.byte	0xf2
 5745 08bb 21       		.byte	0x21
 5746 08bc 75010000 		.4byte	0x175
 5747 08c0 1C       		.uleb128 0x1c
 5748 08c1 16080000 		.4byte	.LASF114
 5749 08c5 0D       		.byte	0xd
 5750 08c6 F9       		.byte	0xf9
 5751 08c7 21       		.byte	0x21
 5752 08c8 75010000 		.4byte	0x175
 5753 08cc 20       		.uleb128 0x20
 5754 08cd 2B110000 		.4byte	.LASF82
 5755 08d1 0001     		.2byte	0x100
 5756 08d3 22       		.byte	0x22
 5757 08d4 ED040000 		.4byte	0x4ed
 5758 08d8 20       		.uleb128 0x20
 5759 08d9 440E0000 		.4byte	.LASF115
 5760 08dd 0701     		.2byte	0x107
 5761 08df 22       		.byte	0x22
 5762 08e0 15090000 		.4byte	0x915
 5763 08e4 20       		.uleb128 0x20
 5764 08e5 00000000 		.4byte	.LASF116
 5765 08e9 0C01     		.2byte	0x10c
 5766 08eb 21       		.byte	0x21
 5767 08ec 75010000 		.4byte	0x175
 5768 08f0 20       		.uleb128 0x20
 5769 08f1 C6000000 		.4byte	.LASF117
 5770 08f5 1501     		.2byte	0x115
 5771 08f7 22       		.byte	0x22
 5772 08f8 42090000 		.4byte	0x942
 5773 08fc 20       		.uleb128 0x20
 5774 08fd 50110000 		.4byte	.LASF118
 5775 0901 1E01     		.2byte	0x11e
 5776 0903 22       		.byte	0x22
 5777 0904 7C090000 		.4byte	0x97c
 5778 0908 20       		.uleb128 0x20
 5779 0909 DB120000 		.4byte	.LASF119
 5780 090d 2601     		.2byte	0x126
 5781 090f 21       		.byte	0x21
ARM GAS  C:\Users\DEVELO~1\AppData\Local\Temp\ccBydanM.s 			page 103


 5782 0910 81010000 		.4byte	0x181
 5783 0914 00       		.byte	0
 5784 0915 06       		.uleb128 0x6
 5785 0916 4C080000 		.4byte	0x84c
 5786 091a 10       		.uleb128 0x10
 5787 091b 4B0D0000 		.4byte	.LASF120
 5788 091f 0C       		.byte	0xc
 5789 0920 14       		.byte	0x14
 5790 0921 34       		.byte	0x34
 5791 0922 10       		.byte	0x10
 5792 0923 42090000 		.4byte	0x942
 5793 0927 01       		.uleb128 0x1
 5794 0928 6D120000 		.4byte	.LASF106
 5795 092c 14       		.byte	0x14
 5796 092d 35       		.byte	0x35
 5797 092e 19       		.byte	0x19
 5798 092f FF030000 		.4byte	0x3ff
 5799 0933 00       		.byte	0
 5800 0934 0E       		.uleb128 0xe
 5801 0935 636E7400 		.ascii	"cnt\000"
 5802 0939 14       		.byte	0x14
 5803 093a 37       		.byte	0x37
 5804 093b 19       		.byte	0x19
 5805 093c 99010000 		.4byte	0x199
 5806 0940 08       		.byte	0x8
 5807 0941 00       		.byte	0
 5808 0942 06       		.uleb128 0x6
 5809 0943 1A090000 		.4byte	0x91a
 5810 0947 10       		.uleb128 0x10
 5811 0948 07070000 		.4byte	.LASF121
 5812 094c 10       		.byte	0x10
 5813 094d 15       		.byte	0x15
 5814 094e 39       		.byte	0x39
 5815 094f 08       		.byte	0x8
 5816 0950 7C090000 		.4byte	0x97c
 5817 0954 01       		.uleb128 0x1
 5818 0955 6D120000 		.4byte	.LASF106
 5819 0959 15       		.byte	0x15
 5820 095a 3A       		.byte	0x3a
 5821 095b 19       		.byte	0x19
 5822 095c FF030000 		.4byte	0x3ff
 5823 0960 00       		.byte	0
 5824 0961 01       		.uleb128 0x1
 5825 0962 80070000 		.4byte	.LASF36
 5826 0966 15       		.byte	0x15
 5827 0967 3C       		.byte	0x3c
 5828 0968 1A       		.byte	0x1a
 5829 0969 E8040000 		.4byte	0x4e8
 5830 096d 08       		.byte	0x8
 5831 096e 01       		.uleb128 0x1
 5832 096f C1010000 		.4byte	.LASF72
 5833 0973 15       		.byte	0x15
 5834 0974 3E       		.byte	0x3e
 5835 0975 1A       		.byte	0x1a
 5836 0976 800A0000 		.4byte	0xa80
 5837 097a 0C       		.byte	0xc
 5838 097b 00       		.byte	0
ARM GAS  C:\Users\DEVELO~1\AppData\Local\Temp\ccBydanM.s 			page 104


 5839 097c 06       		.uleb128 0x6
 5840 097d 47090000 		.4byte	0x947
 5841 0981 06       		.uleb128 0x6
 5842 0982 A0020000 		.4byte	0x2a0
 5843 0986 06       		.uleb128 0x6
 5844 0987 39010000 		.4byte	0x139
 5845 098b 1F       		.uleb128 0x1f
 5846 098c BB110000 		.4byte	.LASF122
 5847 0990 10       		.byte	0x10
 5848 0991 0D       		.byte	0xd
 5849 0992 5C01     		.2byte	0x15c
 5850 0994 10       		.byte	0x10
 5851 0995 B6090000 		.4byte	0x9b6
 5852 0999 02       		.uleb128 0x2
 5853 099a 07090000 		.4byte	.LASF112
 5854 099e 0D       		.byte	0xd
 5855 099f 6101     		.2byte	0x161
 5856 09a1 21       		.byte	0x21
 5857 09a2 38040000 		.4byte	0x438
 5858 09a6 00       		.byte	0
 5859 09a7 02       		.uleb128 0x2
 5860 09a8 070C0000 		.4byte	.LASF123
 5861 09ac 0D       		.byte	0xd
 5862 09ad 6501     		.2byte	0x165
 5863 09af 22       		.byte	0x22
 5864 09b0 E8040000 		.4byte	0x4e8
 5865 09b4 0C       		.byte	0xc
 5866 09b5 00       		.byte	0
 5867 09b6 0F       		.uleb128 0xf
 5868 09b7 EA050000 		.4byte	.LASF124
 5869 09bb 0D       		.byte	0xd
 5870 09bc 6601     		.2byte	0x166
 5871 09be 03       		.byte	0x3
 5872 09bf 8B090000 		.4byte	0x98b
 5873 09c3 1F       		.uleb128 0x1f
 5874 09c4 2E150000 		.4byte	.LASF125
 5875 09c8 14       		.byte	0x14
 5876 09c9 0D       		.byte	0xd
 5877 09ca 6B01     		.2byte	0x16b
 5878 09cc 10       		.byte	0x10
 5879 09cd 180A0000 		.4byte	0xa18
 5880 09d1 02       		.uleb128 0x2
 5881 09d2 100B0000 		.4byte	.LASF37
 5882 09d6 0D       		.byte	0xd
 5883 09d7 6F01     		.2byte	0x16f
 5884 09d9 22       		.byte	0x22
 5885 09da 88030000 		.4byte	0x388
 5886 09de 00       		.byte	0
 5887 09df 02       		.uleb128 0x2
 5888 09e0 750A0000 		.4byte	.LASF126
 5889 09e4 0D       		.byte	0xd
 5890 09e5 7501     		.2byte	0x175
 5891 09e7 22       		.byte	0x22
 5892 09e8 86090000 		.4byte	0x986
 5893 09ec 04       		.byte	0x4
 5894 09ed 02       		.uleb128 0x2
 5895 09ee AD020000 		.4byte	.LASF127
ARM GAS  C:\Users\DEVELO~1\AppData\Local\Temp\ccBydanM.s 			page 105


 5896 09f2 0D       		.byte	0xd
 5897 09f3 7901     		.2byte	0x179
 5898 09f5 22       		.byte	0x22
 5899 09f6 86090000 		.4byte	0x986
 5900 09fa 08       		.byte	0x8
 5901 09fb 02       		.uleb128 0x2
 5902 09fc CB120000 		.4byte	.LASF128
 5903 0a00 0D       		.byte	0xd
 5904 0a01 7F01     		.2byte	0x17f
 5905 0a03 22       		.byte	0x22
 5906 0a04 86090000 		.4byte	0x986
 5907 0a08 0C       		.byte	0xc
 5908 0a09 02       		.uleb128 0x2
 5909 0a0a 96040000 		.4byte	.LASF129
 5910 0a0e 0D       		.byte	0xd
 5911 0a0f 8301     		.2byte	0x183
 5912 0a11 22       		.byte	0x22
 5913 0a12 86090000 		.4byte	0x986
 5914 0a16 10       		.byte	0x10
 5915 0a17 00       		.byte	0
 5916 0a18 0F       		.uleb128 0xf
 5917 0a19 32110000 		.4byte	.LASF130
 5918 0a1d 0D       		.byte	0xd
 5919 0a1e 8501     		.2byte	0x185
 5920 0a20 03       		.byte	0x3
 5921 0a21 C3090000 		.4byte	0x9c3
 5922 0a25 11       		.uleb128 0x11
 5923 0a26 180A0000 		.4byte	0xa18
 5924 0a2a 06       		.uleb128 0x6
 5925 0a2b 250A0000 		.4byte	0xa25
 5926 0a2f 31       		.uleb128 0x31
 5927 0a30 63683000 		.ascii	"ch0\000"
 5928 0a34 01       		.byte	0x1
 5929 0a35 4101     		.2byte	0x141
 5930 0a37 16       		.byte	0x16
 5931 0a38 A0020000 		.4byte	0x2a0
 5932 0a3c 04       		.uleb128 0x4
 5933 0a3d C4040000 		.4byte	.LASF131
 5934 0a41 16       		.byte	0x16
 5935 0a42 34       		.byte	0x34
 5936 0a43 10       		.byte	0x10
 5937 0a44 480A0000 		.4byte	0xa48
 5938 0a48 06       		.uleb128 0x6
 5939 0a49 4D0A0000 		.4byte	0xa4d
 5940 0a4d 22       		.uleb128 0x22
 5941 0a4e 580A0000 		.4byte	0xa58
 5942 0a52 03       		.uleb128 0x3
 5943 0a53 ED040000 		.4byte	0x4ed
 5944 0a57 00       		.byte	0
 5945 0a58 0C       		.uleb128 0xc
 5946 0a59 D1000000 		.4byte	0xd1
 5947 0a5d 680A0000 		.4byte	0xa68
 5948 0a61 0D       		.uleb128 0xd
 5949 0a62 43000000 		.4byte	0x43
 5950 0a66 03       		.byte	0x3
 5951 0a67 00       		.byte	0
 5952 0a68 04       		.uleb128 0x4
ARM GAS  C:\Users\DEVELO~1\AppData\Local\Temp\ccBydanM.s 			page 106


 5953 0a69 A1140000 		.4byte	.LASF132
 5954 0a6d 14       		.byte	0x14
 5955 0a6e 38       		.byte	0x38
 5956 0a6f 03       		.byte	0x3
 5957 0a70 1A090000 		.4byte	0x91a
 5958 0a74 04       		.uleb128 0x4
 5959 0a75 17120000 		.4byte	.LASF133
 5960 0a79 15       		.byte	0x15
 5961 0a7a 34       		.byte	0x34
 5962 0a7b 19       		.byte	0x19
 5963 0a7c 47090000 		.4byte	0x947
 5964 0a80 06       		.uleb128 0x6
 5965 0a81 740A0000 		.4byte	0xa74
 5966 0a85 04       		.uleb128 0x4
 5967 0a86 B5070000 		.4byte	.LASF134
 5968 0a8a 17       		.byte	0x17
 5969 0a8b 34       		.byte	0x34
 5970 0a8c 1F       		.byte	0x1f
 5971 0a8d 910A0000 		.4byte	0xa91
 5972 0a91 10       		.uleb128 0x10
 5973 0a92 DB050000 		.4byte	.LASF135
 5974 0a96 14       		.byte	0x14
 5975 0a97 17       		.byte	0x17
 5976 0a98 39       		.byte	0x39
 5977 0a99 08       		.byte	0x8
 5978 0a9a E00A0000 		.4byte	0xae0
 5979 0a9e 01       		.uleb128 0x1
 5980 0a9f C1010000 		.4byte	.LASF72
 5981 0aa3 17       		.byte	0x17
 5982 0aa4 3A       		.byte	0x3a
 5983 0aa5 1A       		.byte	0x1a
 5984 0aa6 E00A0000 		.4byte	0xae0
 5985 0aaa 00       		.byte	0
 5986 0aab 01       		.uleb128 0x1
 5987 0aac 5D080000 		.4byte	.LASF136
 5988 0ab0 17       		.byte	0x17
 5989 0ab1 3D       		.byte	0x3d
 5990 0ab2 1A       		.byte	0x1a
 5991 0ab3 E8040000 		.4byte	0x4e8
 5992 0ab7 04       		.byte	0x4
 5993 0ab8 01       		.uleb128 0x1
 5994 0ab9 97150000 		.4byte	.LASF137
 5995 0abd 17       		.byte	0x17
 5996 0abe 3F       		.byte	0x3f
 5997 0abf 19       		.byte	0x19
 5998 0ac0 81010000 		.4byte	0x181
 5999 0ac4 08       		.byte	0x8
 6000 0ac5 01       		.uleb128 0x1
 6001 0ac6 94160000 		.4byte	.LASF40
 6002 0aca 17       		.byte	0x17
 6003 0acb 41       		.byte	0x41
 6004 0acc 19       		.byte	0x19
 6005 0acd 8D010000 		.4byte	0x18d
 6006 0ad1 0C       		.byte	0xc
 6007 0ad2 01       		.uleb128 0x1
 6008 0ad3 AE110000 		.4byte	.LASF138
 6009 0ad7 17       		.byte	0x17
ARM GAS  C:\Users\DEVELO~1\AppData\Local\Temp\ccBydanM.s 			page 107


 6010 0ad8 43       		.byte	0x43
 6011 0ad9 19       		.byte	0x19
 6012 0ada 8D010000 		.4byte	0x18d
 6013 0ade 10       		.byte	0x10
 6014 0adf 00       		.byte	0
 6015 0ae0 06       		.uleb128 0x6
 6016 0ae1 850A0000 		.4byte	0xa85
 6017 0ae5 10       		.uleb128 0x10
 6018 0ae6 FE120000 		.4byte	.LASF139
 6019 0aea 04       		.byte	0x4
 6020 0aeb 17       		.byte	0x17
 6021 0aec 4A       		.byte	0x4a
 6022 0aed 10       		.byte	0x10
 6023 0aee 000B0000 		.4byte	0xb00
 6024 0af2 01       		.uleb128 0x1
 6025 0af3 C1010000 		.4byte	.LASF72
 6026 0af7 17       		.byte	0x17
 6027 0af8 4B       		.byte	0x4b
 6028 0af9 1A       		.byte	0x1a
 6029 0afa E00A0000 		.4byte	0xae0
 6030 0afe 00       		.byte	0
 6031 0aff 00       		.byte	0
 6032 0b00 04       		.uleb128 0x4
 6033 0b01 920B0000 		.4byte	.LASF140
 6034 0b05 17       		.byte	0x17
 6035 0b06 4E       		.byte	0x4e
 6036 0b07 03       		.byte	0x3
 6037 0b08 E50A0000 		.4byte	0xae5
 6038 0b0c 10       		.uleb128 0x10
 6039 0b0d 96060000 		.4byte	.LASF141
 6040 0b11 0C       		.byte	0xc
 6041 0b12 05       		.byte	0x5
 6042 0b13 4B       		.byte	0x4b
 6043 0b14 10       		.byte	0x10
 6044 0b15 270B0000 		.4byte	0xb27
 6045 0b19 0E       		.uleb128 0xe
 6046 0b1a 73656D00 		.ascii	"sem\000"
 6047 0b1e 05       		.byte	0x5
 6048 0b1f 4C       		.byte	0x4c
 6049 0b20 19       		.byte	0x19
 6050 0b21 680A0000 		.4byte	0xa68
 6051 0b25 00       		.byte	0
 6052 0b26 00       		.byte	0
 6053 0b27 04       		.uleb128 0x4
 6054 0b28 A6130000 		.4byte	.LASF142
 6055 0b2c 05       		.byte	0x5
 6056 0b2d 4D       		.byte	0x4d
 6057 0b2e 03       		.byte	0x3
 6058 0b2f 0C0B0000 		.4byte	0xb0c
 6059 0b33 14       		.uleb128 0x14
 6060 0b34 28       		.byte	0x28
 6061 0b35 18       		.byte	0x18
 6062 0b36 34       		.byte	0x34
 6063 0b37 09       		.byte	0x9
 6064 0b38 A30B0000 		.4byte	0xba3
 6065 0b3c 01       		.uleb128 0x1
 6066 0b3d 53100000 		.4byte	.LASF92
ARM GAS  C:\Users\DEVELO~1\AppData\Local\Temp\ccBydanM.s 			page 108


 6067 0b41 18       		.byte	0x18
 6068 0b42 35       		.byte	0x35
 6069 0b43 1A       		.byte	0x1a
 6070 0b44 A30B0000 		.4byte	0xba3
 6071 0b48 00       		.byte	0
 6072 0b49 0E       		.uleb128 0xe
 6073 0b4a 746F7000 		.ascii	"top\000"
 6074 0b4e 18       		.byte	0x18
 6075 0b4f 37       		.byte	0x37
 6076 0b50 1A       		.byte	0x1a
 6077 0b51 A30B0000 		.4byte	0xba3
 6078 0b55 04       		.byte	0x4
 6079 0b56 01       		.uleb128 0x1
 6080 0b57 16070000 		.4byte	.LASF143
 6081 0b5b 18       		.byte	0x18
 6082 0b5c 39       		.byte	0x39
 6083 0b5d 1A       		.byte	0x1a
 6084 0b5e A30B0000 		.4byte	0xba3
 6085 0b62 08       		.byte	0x8
 6086 0b63 01       		.uleb128 0x1
 6087 0b64 EA140000 		.4byte	.LASF144
 6088 0b68 18       		.byte	0x18
 6089 0b69 3A       		.byte	0x3a
 6090 0b6a 1A       		.byte	0x1a
 6091 0b6b A30B0000 		.4byte	0xba3
 6092 0b6f 0C       		.byte	0xc
 6093 0b70 0E       		.uleb128 0xe
 6094 0b71 636E7400 		.ascii	"cnt\000"
 6095 0b75 18       		.byte	0x18
 6096 0b76 3B       		.byte	0x3b
 6097 0b77 19       		.byte	0x19
 6098 0b78 2D000000 		.4byte	0x2d
 6099 0b7c 10       		.byte	0x10
 6100 0b7d 01       		.uleb128 0x1
 6101 0b7e 8C0B0000 		.4byte	.LASF145
 6102 0b82 18       		.byte	0x18
 6103 0b83 3C       		.byte	0x3c
 6104 0b84 19       		.byte	0x19
 6105 0b85 A80B0000 		.4byte	0xba8
 6106 0b89 14       		.byte	0x14
 6107 0b8a 0E       		.uleb128 0xe
 6108 0b8b 717700   		.ascii	"qw\000"
 6109 0b8e 18       		.byte	0x18
 6110 0b8f 3D       		.byte	0x3d
 6111 0b90 19       		.byte	0x19
 6112 0b91 73080000 		.4byte	0x873
 6113 0b95 18       		.byte	0x18
 6114 0b96 0E       		.uleb128 0xe
 6115 0b97 717200   		.ascii	"qr\000"
 6116 0b9a 18       		.byte	0x18
 6117 0b9b 3E       		.byte	0x3e
 6118 0b9c 19       		.byte	0x19
 6119 0b9d 73080000 		.4byte	0x873
 6120 0ba1 20       		.byte	0x20
 6121 0ba2 00       		.byte	0
 6122 0ba3 06       		.uleb128 0x6
 6123 0ba4 75010000 		.4byte	0x175
ARM GAS  C:\Users\DEVELO~1\AppData\Local\Temp\ccBydanM.s 			page 109


 6124 0ba8 16       		.uleb128 0x16
 6125 0ba9 01       		.byte	0x1
 6126 0baa 02       		.byte	0x2
 6127 0bab CD000000 		.4byte	.LASF146
 6128 0baf 12       		.uleb128 0x12
 6129 0bb0 A80B0000 		.4byte	0xba8
 6130 0bb4 11       		.uleb128 0x11
 6131 0bb5 A80B0000 		.4byte	0xba8
 6132 0bb9 04       		.uleb128 0x4
 6133 0bba BC0B0000 		.4byte	.LASF147
 6134 0bbe 18       		.byte	0x18
 6135 0bbf 3F       		.byte	0x3f
 6136 0bc0 03       		.byte	0x3
 6137 0bc1 330B0000 		.4byte	0xb33
 6138 0bc5 06       		.uleb128 0x6
 6139 0bc6 D1000000 		.4byte	0xd1
 6140 0bca 17       		.uleb128 0x17
 6141 0bcb 2D000000 		.4byte	0x2d
 6142 0bcf E30B0000 		.4byte	0xbe3
 6143 0bd3 03       		.uleb128 0x3
 6144 0bd4 ED040000 		.4byte	0x4ed
 6145 0bd8 03       		.uleb128 0x3
 6146 0bd9 E30B0000 		.4byte	0xbe3
 6147 0bdd 03       		.uleb128 0x3
 6148 0bde 2D000000 		.4byte	0x2d
 6149 0be2 00       		.byte	0
 6150 0be3 06       		.uleb128 0x6
 6151 0be4 DD000000 		.4byte	0xdd
 6152 0be8 06       		.uleb128 0x6
 6153 0be9 CA0B0000 		.4byte	0xbca
 6154 0bed 17       		.uleb128 0x17
 6155 0bee 2D000000 		.4byte	0x2d
 6156 0bf2 060C0000 		.4byte	0xc06
 6157 0bf6 03       		.uleb128 0x3
 6158 0bf7 ED040000 		.4byte	0x4ed
 6159 0bfb 03       		.uleb128 0x3
 6160 0bfc C50B0000 		.4byte	0xbc5
 6161 0c00 03       		.uleb128 0x3
 6162 0c01 2D000000 		.4byte	0x2d
 6163 0c05 00       		.byte	0
 6164 0c06 06       		.uleb128 0x6
 6165 0c07 ED0B0000 		.4byte	0xbed
 6166 0c0b 17       		.uleb128 0x17
 6167 0c0c 75010000 		.4byte	0x175
 6168 0c10 1F0C0000 		.4byte	0xc1f
 6169 0c14 03       		.uleb128 0x3
 6170 0c15 ED040000 		.4byte	0x4ed
 6171 0c19 03       		.uleb128 0x3
 6172 0c1a D1000000 		.4byte	0xd1
 6173 0c1e 00       		.byte	0
 6174 0c1f 06       		.uleb128 0x6
 6175 0c20 0B0C0000 		.4byte	0xc0b
 6176 0c24 17       		.uleb128 0x17
 6177 0c25 75010000 		.4byte	0x175
 6178 0c29 330C0000 		.4byte	0xc33
 6179 0c2d 03       		.uleb128 0x3
 6180 0c2e ED040000 		.4byte	0x4ed
ARM GAS  C:\Users\DEVELO~1\AppData\Local\Temp\ccBydanM.s 			page 110


 6181 0c32 00       		.byte	0
 6182 0c33 06       		.uleb128 0x6
 6183 0c34 240C0000 		.4byte	0xc24
 6184 0c38 17       		.uleb128 0x17
 6185 0c39 75010000 		.4byte	0x175
 6186 0c3d 510C0000 		.4byte	0xc51
 6187 0c41 03       		.uleb128 0x3
 6188 0c42 ED040000 		.4byte	0x4ed
 6189 0c46 03       		.uleb128 0x3
 6190 0c47 D1000000 		.4byte	0xd1
 6191 0c4b 03       		.uleb128 0x3
 6192 0c4c BB030000 		.4byte	0x3bb
 6193 0c50 00       		.byte	0
 6194 0c51 06       		.uleb128 0x6
 6195 0c52 380C0000 		.4byte	0xc38
 6196 0c56 17       		.uleb128 0x17
 6197 0c57 75010000 		.4byte	0x175
 6198 0c5b 6A0C0000 		.4byte	0xc6a
 6199 0c5f 03       		.uleb128 0x3
 6200 0c60 ED040000 		.4byte	0x4ed
 6201 0c64 03       		.uleb128 0x3
 6202 0c65 BB030000 		.4byte	0x3bb
 6203 0c69 00       		.byte	0
 6204 0c6a 06       		.uleb128 0x6
 6205 0c6b 560C0000 		.4byte	0xc56
 6206 0c6f 17       		.uleb128 0x17
 6207 0c70 2D000000 		.4byte	0x2d
 6208 0c74 8D0C0000 		.4byte	0xc8d
 6209 0c78 03       		.uleb128 0x3
 6210 0c79 ED040000 		.4byte	0x4ed
 6211 0c7d 03       		.uleb128 0x3
 6212 0c7e E30B0000 		.4byte	0xbe3
 6213 0c82 03       		.uleb128 0x3
 6214 0c83 2D000000 		.4byte	0x2d
 6215 0c87 03       		.uleb128 0x3
 6216 0c88 BB030000 		.4byte	0x3bb
 6217 0c8c 00       		.byte	0
 6218 0c8d 06       		.uleb128 0x6
 6219 0c8e 6F0C0000 		.4byte	0xc6f
 6220 0c92 17       		.uleb128 0x17
 6221 0c93 2D000000 		.4byte	0x2d
 6222 0c97 B00C0000 		.4byte	0xcb0
 6223 0c9b 03       		.uleb128 0x3
 6224 0c9c ED040000 		.4byte	0x4ed
 6225 0ca0 03       		.uleb128 0x3
 6226 0ca1 C50B0000 		.4byte	0xbc5
 6227 0ca5 03       		.uleb128 0x3
 6228 0ca6 2D000000 		.4byte	0x2d
 6229 0caa 03       		.uleb128 0x3
 6230 0cab BB030000 		.4byte	0x3bb
 6231 0caf 00       		.byte	0
 6232 0cb0 06       		.uleb128 0x6
 6233 0cb1 920C0000 		.4byte	0xc92
 6234 0cb5 17       		.uleb128 0x17
 6235 0cb6 75010000 		.4byte	0x175
 6236 0cba CE0C0000 		.4byte	0xcce
 6237 0cbe 03       		.uleb128 0x3
ARM GAS  C:\Users\DEVELO~1\AppData\Local\Temp\ccBydanM.s 			page 111


 6238 0cbf ED040000 		.4byte	0x4ed
 6239 0cc3 03       		.uleb128 0x3
 6240 0cc4 43000000 		.4byte	0x43
 6241 0cc8 03       		.uleb128 0x3
 6242 0cc9 ED040000 		.4byte	0x4ed
 6243 0ccd 00       		.byte	0
 6244 0cce 06       		.uleb128 0x6
 6245 0ccf B50C0000 		.4byte	0xcb5
 6246 0cd3 04       		.uleb128 0x4
 6247 0cd4 29080000 		.4byte	.LASF148
 6248 0cd8 19       		.byte	0x19
 6249 0cd9 3A       		.byte	0x3a
 6250 0cda 19       		.byte	0x19
 6251 0cdb DF0C0000 		.4byte	0xcdf
 6252 0cdf 10       		.uleb128 0x10
 6253 0ce0 7A090000 		.4byte	.LASF149
 6254 0ce4 24       		.byte	0x24
 6255 0ce5 19       		.byte	0x19
 6256 0ce6 4B       		.byte	0x4b
 6257 0ce7 08       		.byte	0x8
 6258 0ce8 550D0000 		.4byte	0xd55
 6259 0cec 01       		.uleb128 0x1
 6260 0ced 92030000 		.4byte	.LASF150
 6261 0cf1 19       		.byte	0x19
 6262 0cf2 4C       		.byte	0x4c
 6263 0cf3 19       		.byte	0x19
 6264 0cf4 73080000 		.4byte	0x873
 6265 0cf8 00       		.byte	0
 6266 0cf9 01       		.uleb128 0x1
 6267 0cfa 0D120000 		.4byte	.LASF151
 6268 0cfe 19       		.byte	0x19
 6269 0cff 4D       		.byte	0x4d
 6270 0d00 19       		.byte	0x19
 6271 0d01 39000000 		.4byte	0x39
 6272 0d05 08       		.byte	0x8
 6273 0d06 01       		.uleb128 0x1
 6274 0d07 F9090000 		.4byte	.LASF152
 6275 0d0b 19       		.byte	0x19
 6276 0d0c 4E       		.byte	0x4e
 6277 0d0d 1A       		.byte	0x1a
 6278 0d0e C50B0000 		.4byte	0xbc5
 6279 0d12 0C       		.byte	0xc
 6280 0d13 01       		.uleb128 0x1
 6281 0d14 1A030000 		.4byte	.LASF153
 6282 0d18 19       		.byte	0x19
 6283 0d19 4F       		.byte	0x4f
 6284 0d1a 1A       		.byte	0x1a
 6285 0d1b C50B0000 		.4byte	0xbc5
 6286 0d1f 10       		.byte	0x10
 6287 0d20 01       		.uleb128 0x1
 6288 0d21 73150000 		.4byte	.LASF154
 6289 0d25 19       		.byte	0x19
 6290 0d26 51       		.byte	0x51
 6291 0d27 1A       		.byte	0x1a
 6292 0d28 C50B0000 		.4byte	0xbc5
 6293 0d2c 14       		.byte	0x14
 6294 0d2d 01       		.uleb128 0x1
ARM GAS  C:\Users\DEVELO~1\AppData\Local\Temp\ccBydanM.s 			page 112


 6295 0d2e 4A0E0000 		.4byte	.LASF155
 6296 0d32 19       		.byte	0x19
 6297 0d33 52       		.byte	0x52
 6298 0d34 1A       		.byte	0x1a
 6299 0d35 C50B0000 		.4byte	0xbc5
 6300 0d39 18       		.byte	0x18
 6301 0d3a 01       		.uleb128 0x1
 6302 0d3b 47110000 		.4byte	.LASF156
 6303 0d3f 19       		.byte	0x19
 6304 0d40 53       		.byte	0x53
 6305 0d41 19       		.byte	0x19
 6306 0d42 550D0000 		.4byte	0xd55
 6307 0d46 1C       		.byte	0x1c
 6308 0d47 01       		.uleb128 0x1
 6309 0d48 B60F0000 		.4byte	.LASF157
 6310 0d4c 19       		.byte	0x19
 6311 0d4d 54       		.byte	0x54
 6312 0d4e 1A       		.byte	0x1a
 6313 0d4f ED040000 		.4byte	0x4ed
 6314 0d53 20       		.byte	0x20
 6315 0d54 00       		.byte	0
 6316 0d55 04       		.uleb128 0x4
 6317 0d56 10030000 		.4byte	.LASF158
 6318 0d5a 19       		.byte	0x19
 6319 0d5b 41       		.byte	0x41
 6320 0d5c 10       		.byte	0x10
 6321 0d5d 610D0000 		.4byte	0xd61
 6322 0d61 06       		.uleb128 0x6
 6323 0d62 660D0000 		.4byte	0xd66
 6324 0d66 22       		.uleb128 0x22
 6325 0d67 710D0000 		.4byte	0xd71
 6326 0d6b 03       		.uleb128 0x3
 6327 0d6c 710D0000 		.4byte	0xd71
 6328 0d70 00       		.byte	0
 6329 0d71 06       		.uleb128 0x6
 6330 0d72 D30C0000 		.4byte	0xcd3
 6331 0d76 04       		.uleb128 0x4
 6332 0d77 A2030000 		.4byte	.LASF159
 6333 0d7b 19       		.byte	0x19
 6334 0d7c 61       		.byte	0x61
 6335 0d7d 14       		.byte	0x14
 6336 0d7e D30C0000 		.4byte	0xcd3
 6337 0d82 04       		.uleb128 0x4
 6338 0d83 3F160000 		.4byte	.LASF160
 6339 0d87 19       		.byte	0x19
 6340 0d88 6D       		.byte	0x6d
 6341 0d89 14       		.byte	0x14
 6342 0d8a D30C0000 		.4byte	0xcd3
 6343 0d8e 06       		.uleb128 0x6
 6344 0d8f 930D0000 		.4byte	0xd93
 6345 0d93 41       		.uleb128 0x41
 6346 0d94 32       		.uleb128 0x32
 6347 0d95 6B000000 		.4byte	0x6b
 6348 0d99 1A       		.byte	0x1a
 6349 0d9a 58       		.byte	0x58
 6350 0d9b B20D0000 		.4byte	0xdb2
 6351 0d9f 09       		.uleb128 0x9
ARM GAS  C:\Users\DEVELO~1\AppData\Local\Temp\ccBydanM.s 			page 113


 6352 0da0 27040000 		.4byte	.LASF161
 6353 0da4 00       		.byte	0
 6354 0da5 09       		.uleb128 0x9
 6355 0da6 8D070000 		.4byte	.LASF162
 6356 0daa 01       		.byte	0x1
 6357 0dab 09       		.uleb128 0x9
 6358 0dac 9A160000 		.4byte	.LASF163
 6359 0db0 02       		.byte	0x2
 6360 0db1 00       		.byte	0
 6361 0db2 04       		.uleb128 0x4
 6362 0db3 880E0000 		.4byte	.LASF164
 6363 0db7 1A       		.byte	0x1a
 6364 0db8 5C       		.byte	0x5c
 6365 0db9 03       		.byte	0x3
 6366 0dba 940D0000 		.4byte	0xd94
 6367 0dbe 04       		.uleb128 0x4
 6368 0dbf A2000000 		.4byte	.LASF165
 6369 0dc3 1A       		.byte	0x1a
 6370 0dc4 61       		.byte	0x61
 6371 0dc5 22       		.byte	0x22
 6372 0dc6 CA0D0000 		.4byte	0xdca
 6373 0dca 10       		.uleb128 0x10
 6374 0dcb EE0A0000 		.4byte	.LASF166
 6375 0dcf 60       		.byte	0x60
 6376 0dd0 1A       		.byte	0x1a
 6377 0dd1 7B       		.byte	0x7b
 6378 0dd2 08       		.byte	0x8
 6379 0dd3 400E0000 		.4byte	0xe40
 6380 0dd7 0E       		.uleb128 0xe
 6381 0dd8 766D7400 		.ascii	"vmt\000"
 6382 0ddc 1A       		.byte	0x1a
 6383 0ddd 7D       		.byte	0x7d
 6384 0dde 21       		.byte	0x21
 6385 0ddf 3B0F0000 		.4byte	0xf3b
 6386 0de3 00       		.byte	0
 6387 0de4 01       		.uleb128 0x1
 6388 0de5 35000000 		.4byte	.LASF167
 6389 0de9 1A       		.byte	0x1a
 6390 0dea 7E       		.byte	0x7e
 6391 0deb 03       		.byte	0x3
 6392 0dec 000B0000 		.4byte	0xb00
 6393 0df0 04       		.byte	0x4
 6394 0df1 01       		.uleb128 0x1
 6395 0df2 1A0D0000 		.4byte	.LASF39
 6396 0df6 1A       		.byte	0x1a
 6397 0df7 7E       		.byte	0x7e
 6398 0df8 03       		.byte	0x3
 6399 0df9 B20D0000 		.4byte	0xdb2
 6400 0dfd 08       		.byte	0x8
 6401 0dfe 01       		.uleb128 0x1
 6402 0dff 600E0000 		.4byte	.LASF168
 6403 0e03 1A       		.byte	0x1a
 6404 0e04 7E       		.byte	0x7e
 6405 0e05 03       		.byte	0x3
 6406 0e06 760D0000 		.4byte	0xd76
 6407 0e0a 0C       		.byte	0xc
 6408 0e0b 01       		.uleb128 0x1
ARM GAS  C:\Users\DEVELO~1\AppData\Local\Temp\ccBydanM.s 			page 114


 6409 0e0c 73090000 		.4byte	.LASF169
 6410 0e10 1A       		.byte	0x1a
 6411 0e11 7E       		.byte	0x7e
 6412 0e12 03       		.byte	0x3
 6413 0e13 820D0000 		.4byte	0xd82
 6414 0e17 30       		.byte	0x30
 6415 0e18 01       		.uleb128 0x1
 6416 0e19 B00F0000 		.4byte	.LASF170
 6417 0e1d 1A       		.byte	0x1a
 6418 0e1e 7E       		.byte	0x7e
 6419 0e1f 03       		.byte	0x3
 6420 0e20 400F0000 		.4byte	0xf40
 6421 0e24 54       		.byte	0x54
 6422 0e25 01       		.uleb128 0x1
 6423 0e26 6A070000 		.4byte	.LASF171
 6424 0e2a 1A       		.byte	0x1a
 6425 0e2b 7E       		.byte	0x7e
 6426 0e2c 03       		.byte	0x3
 6427 0e2d 06010000 		.4byte	0x106
 6428 0e31 58       		.byte	0x58
 6429 0e32 01       		.uleb128 0x1
 6430 0e33 78100000 		.4byte	.LASF172
 6431 0e37 1A       		.byte	0x1a
 6432 0e38 7E       		.byte	0x7e
 6433 0e39 03       		.byte	0x3
 6434 0e3a D1000000 		.4byte	0xd1
 6435 0e3e 5C       		.byte	0x5c
 6436 0e3f 00       		.byte	0
 6437 0e40 1F       		.uleb128 0x1f
 6438 0e41 5F010000 		.4byte	.LASF173
 6439 0e45 10       		.byte	0x10
 6440 0e46 1B       		.byte	0x1b
 6441 0e47 6002     		.2byte	0x260
 6442 0e49 10       		.byte	0x10
 6443 0e4a 870E0000 		.4byte	0xe87
 6444 0e4e 02       		.uleb128 0x2
 6445 0e4f B5110000 		.4byte	.LASF174
 6446 0e53 1B       		.byte	0x1b
 6447 0e54 6402     		.2byte	0x264
 6448 0e56 1D       		.byte	0x1d
 6449 0e57 06010000 		.4byte	0x106
 6450 0e5b 00       		.byte	0
 6451 0e5c 0A       		.uleb128 0xa
 6452 0e5d 63723100 		.ascii	"cr1\000"
 6453 0e61 1B       		.byte	0x1b
 6454 0e62 6902     		.2byte	0x269
 6455 0e64 1D       		.byte	0x1d
 6456 0e65 06010000 		.4byte	0x106
 6457 0e69 04       		.byte	0x4
 6458 0e6a 0A       		.uleb128 0xa
 6459 0e6b 63723200 		.ascii	"cr2\000"
 6460 0e6f 1B       		.byte	0x1b
 6461 0e70 6D02     		.2byte	0x26d
 6462 0e72 1D       		.byte	0x1d
 6463 0e73 06010000 		.4byte	0x106
 6464 0e77 08       		.byte	0x8
 6465 0e78 0A       		.uleb128 0xa
ARM GAS  C:\Users\DEVELO~1\AppData\Local\Temp\ccBydanM.s 			page 115


 6466 0e79 63723300 		.ascii	"cr3\000"
 6467 0e7d 1B       		.byte	0x1b
 6468 0e7e 7102     		.2byte	0x271
 6469 0e80 1D       		.byte	0x1d
 6470 0e81 06010000 		.4byte	0x106
 6471 0e85 0C       		.byte	0xc
 6472 0e86 00       		.byte	0
 6473 0e87 0F       		.uleb128 0xf
 6474 0e88 AF000000 		.4byte	.LASF175
 6475 0e8c 1B       		.byte	0x1b
 6476 0e8d 7202     		.2byte	0x272
 6477 0e8f 03       		.byte	0x3
 6478 0e90 400E0000 		.4byte	0xe40
 6479 0e94 11       		.uleb128 0x11
 6480 0e95 870E0000 		.4byte	0xe87
 6481 0e99 31       		.uleb128 0x31
 6482 0e9a 53443500 		.ascii	"SD5\000"
 6483 0e9e 1B       		.byte	0x1b
 6484 0e9f 9C02     		.2byte	0x29c
 6485 0ea1 15       		.byte	0x15
 6486 0ea2 BE0D0000 		.4byte	0xdbe
 6487 0ea6 10       		.uleb128 0x10
 6488 0ea7 81080000 		.4byte	.LASF176
 6489 0eab 28       		.byte	0x28
 6490 0eac 1A       		.byte	0x1a
 6491 0ead 70       		.byte	0x70
 6492 0eae 08       		.byte	0x8
 6493 0eaf 360F0000 		.4byte	0xf36
 6494 0eb3 01       		.uleb128 0x1
 6495 0eb4 1D010000 		.4byte	.LASF177
 6496 0eb8 1A       		.byte	0x1a
 6497 0eb9 71       		.byte	0x71
 6498 0eba 03       		.byte	0x3
 6499 0ebb 2D000000 		.4byte	0x2d
 6500 0ebf 00       		.byte	0
 6501 0ec0 01       		.uleb128 0x1
 6502 0ec1 5A0E0000 		.4byte	.LASF178
 6503 0ec5 1A       		.byte	0x1a
 6504 0ec6 71       		.byte	0x71
 6505 0ec7 03       		.byte	0x3
 6506 0ec8 E80B0000 		.4byte	0xbe8
 6507 0ecc 04       		.byte	0x4
 6508 0ecd 01       		.uleb128 0x1
 6509 0ece 71010000 		.4byte	.LASF179
 6510 0ed2 1A       		.byte	0x1a
 6511 0ed3 71       		.byte	0x71
 6512 0ed4 03       		.byte	0x3
 6513 0ed5 060C0000 		.4byte	0xc06
 6514 0ed9 08       		.byte	0x8
 6515 0eda 0E       		.uleb128 0xe
 6516 0edb 70757400 		.ascii	"put\000"
 6517 0edf 1A       		.byte	0x1a
 6518 0ee0 71       		.byte	0x71
 6519 0ee1 03       		.byte	0x3
 6520 0ee2 1F0C0000 		.4byte	0xc1f
 6521 0ee6 0C       		.byte	0xc
 6522 0ee7 0E       		.uleb128 0xe
ARM GAS  C:\Users\DEVELO~1\AppData\Local\Temp\ccBydanM.s 			page 116


 6523 0ee8 67657400 		.ascii	"get\000"
 6524 0eec 1A       		.byte	0x1a
 6525 0eed 71       		.byte	0x71
 6526 0eee 03       		.byte	0x3
 6527 0eef 330C0000 		.4byte	0xc33
 6528 0ef3 10       		.byte	0x10
 6529 0ef4 01       		.uleb128 0x1
 6530 0ef5 870B0000 		.4byte	.LASF180
 6531 0ef9 1A       		.byte	0x1a
 6532 0efa 71       		.byte	0x71
 6533 0efb 03       		.byte	0x3
 6534 0efc 510C0000 		.4byte	0xc51
 6535 0f00 14       		.byte	0x14
 6536 0f01 01       		.uleb128 0x1
 6537 0f02 3F0E0000 		.4byte	.LASF181
 6538 0f06 1A       		.byte	0x1a
 6539 0f07 71       		.byte	0x71
 6540 0f08 03       		.byte	0x3
 6541 0f09 6A0C0000 		.4byte	0xc6a
 6542 0f0d 18       		.byte	0x18
 6543 0f0e 01       		.uleb128 0x1
 6544 0f0f 10140000 		.4byte	.LASF182
 6545 0f13 1A       		.byte	0x1a
 6546 0f14 71       		.byte	0x71
 6547 0f15 03       		.byte	0x3
 6548 0f16 8D0C0000 		.4byte	0xc8d
 6549 0f1a 1C       		.byte	0x1c
 6550 0f1b 01       		.uleb128 0x1
 6551 0f1c 0A0B0000 		.4byte	.LASF183
 6552 0f20 1A       		.byte	0x1a
 6553 0f21 71       		.byte	0x71
 6554 0f22 03       		.byte	0x3
 6555 0f23 B00C0000 		.4byte	0xcb0
 6556 0f27 20       		.byte	0x20
 6557 0f28 0E       		.uleb128 0xe
 6558 0f29 63746C00 		.ascii	"ctl\000"
 6559 0f2d 1A       		.byte	0x1a
 6560 0f2e 71       		.byte	0x71
 6561 0f2f 03       		.byte	0x3
 6562 0f30 CE0C0000 		.4byte	0xcce
 6563 0f34 24       		.byte	0x24
 6564 0f35 00       		.byte	0
 6565 0f36 11       		.uleb128 0x11
 6566 0f37 A60E0000 		.4byte	0xea6
 6567 0f3b 06       		.uleb128 0x6
 6568 0f3c 360F0000 		.4byte	0xf36
 6569 0f40 06       		.uleb128 0x6
 6570 0f41 1B070000 		.4byte	0x71b
 6571 0f45 0F       		.uleb128 0xf
 6572 0f46 160A0000 		.4byte	.LASF184
 6573 0f4a 1C       		.byte	0x1c
 6574 0f4b 0301     		.2byte	0x103
 6575 0f4d 1A       		.byte	0x1a
 6576 0f4e 520F0000 		.4byte	0xf52
 6577 0f52 1F       		.uleb128 0x1f
 6578 0f53 160A0000 		.4byte	.LASF184
 6579 0f57 9C       		.byte	0x9c
ARM GAS  C:\Users\DEVELO~1\AppData\Local\Temp\ccBydanM.s 			page 117


 6580 0f58 1D       		.byte	0x1d
 6581 0f59 A501     		.2byte	0x1a5
 6582 0f5b 08       		.byte	0x8
 6583 0f5c 6B100000 		.4byte	0x106b
 6584 0f60 02       		.uleb128 0x2
 6585 0f61 1A0D0000 		.4byte	.LASF39
 6586 0f65 1D       		.byte	0x1d
 6587 0f66 A901     		.2byte	0x1a9
 6588 0f68 21       		.byte	0x21
 6589 0f69 A8100000 		.4byte	0x10a8
 6590 0f6d 00       		.byte	0
 6591 0f6e 02       		.uleb128 0x2
 6592 0f6f 0D110000 		.4byte	.LASF56
 6593 0f73 1D       		.byte	0x1d
 6594 0f74 AD01     		.2byte	0x1ad
 6595 0f76 22       		.byte	0x22
 6596 0f77 33190000 		.4byte	0x1933
 6597 0f7b 04       		.byte	0x4
 6598 0f7c 02       		.uleb128 0x2
 6599 0f7d 26130000 		.4byte	.LASF185
 6600 0f81 1D       		.byte	0x1d
 6601 0f82 B101     		.2byte	0x1b1
 6602 0f84 21       		.byte	0x21
 6603 0f85 EE000000 		.4byte	0xee
 6604 0f89 08       		.byte	0x8
 6605 0f8a 02       		.uleb128 0x2
 6606 0f8b 0D150000 		.4byte	.LASF186
 6607 0f8f 1D       		.byte	0x1d
 6608 0f90 B501     		.2byte	0x1b5
 6609 0f92 21       		.byte	0x21
 6610 0f93 EE000000 		.4byte	0xee
 6611 0f97 0A       		.byte	0xa
 6612 0f98 0A       		.uleb128 0xa
 6613 0f99 65706300 		.ascii	"epc\000"
 6614 0f9d 1D       		.byte	0x1d
 6615 0f9e B901     		.2byte	0x1b9
 6616 0fa0 22       		.byte	0x22
 6617 0fa1 38190000 		.4byte	0x1938
 6618 0fa5 0C       		.byte	0xc
 6619 0fa6 02       		.uleb128 0x2
 6620 0fa7 DA010000 		.4byte	.LASF187
 6621 0fab 1D       		.byte	0x1d
 6622 0fac C001     		.2byte	0x1c0
 6623 0fae 22       		.byte	0x22
 6624 0faf 4D190000 		.4byte	0x194d
 6625 0fb3 30       		.byte	0x30
 6626 0fb4 02       		.uleb128 0x2
 6627 0fb5 4B070000 		.4byte	.LASF188
 6628 0fb9 1D       		.byte	0x1d
 6629 0fba C701     		.2byte	0x1c7
 6630 0fbc 22       		.byte	0x22
 6631 0fbd 4D190000 		.4byte	0x194d
 6632 0fc1 50       		.byte	0x50
 6633 0fc2 02       		.uleb128 0x2
 6634 0fc3 0E090000 		.4byte	.LASF189
 6635 0fc7 1D       		.byte	0x1d
 6636 0fc8 CB01     		.2byte	0x1cb
ARM GAS  C:\Users\DEVELO~1\AppData\Local\Temp\ccBydanM.s 			page 118


 6637 0fca 21       		.byte	0x21
 6638 0fcb EB100000 		.4byte	0x10eb
 6639 0fcf 70       		.byte	0x70
 6640 0fd0 02       		.uleb128 0x2
 6641 0fd1 70100000 		.4byte	.LASF190
 6642 0fd5 1D       		.byte	0x1d
 6643 0fd6 CF01     		.2byte	0x1cf
 6644 0fd8 22       		.byte	0x22
 6645 0fd9 C50B0000 		.4byte	0xbc5
 6646 0fdd 74       		.byte	0x74
 6647 0fde 02       		.uleb128 0x2
 6648 0fdf 010E0000 		.4byte	.LASF191
 6649 0fe3 1D       		.byte	0x1d
 6650 0fe4 D301     		.2byte	0x1d3
 6651 0fe6 21       		.byte	0x21
 6652 0fe7 2D000000 		.4byte	0x2d
 6653 0feb 78       		.byte	0x78
 6654 0fec 02       		.uleb128 0x2
 6655 0fed 2F030000 		.4byte	.LASF192
 6656 0ff1 1D       		.byte	0x1d
 6657 0ff2 D701     		.2byte	0x1d7
 6658 0ff4 21       		.byte	0x21
 6659 0ff5 73110000 		.4byte	0x1173
 6660 0ff9 7C       		.byte	0x7c
 6661 0ffa 02       		.uleb128 0x2
 6662 0ffb 66040000 		.4byte	.LASF193
 6663 0fff 1D       		.byte	0x1d
 6664 1000 DB01     		.2byte	0x1db
 6665 1002 21       		.byte	0x21
 6666 1003 5D190000 		.4byte	0x195d
 6667 1007 80       		.byte	0x80
 6668 1008 02       		.uleb128 0x2
 6669 1009 1E0C0000 		.4byte	.LASF194
 6670 100d 1D       		.byte	0x1d
 6671 100e DF01     		.2byte	0x1df
 6672 1010 21       		.byte	0x21
 6673 1011 EE000000 		.4byte	0xee
 6674 1015 88       		.byte	0x88
 6675 1016 02       		.uleb128 0x2
 6676 1017 C9090000 		.4byte	.LASF195
 6677 101b 1D       		.byte	0x1d
 6678 101c E301     		.2byte	0x1e3
 6679 101e 21       		.byte	0x21
 6680 101f D1000000 		.4byte	0xd1
 6681 1023 8A       		.byte	0x8a
 6682 1024 02       		.uleb128 0x2
 6683 1025 10100000 		.4byte	.LASF196
 6684 1029 1D       		.byte	0x1d
 6685 102a E701     		.2byte	0x1e7
 6686 102c 21       		.byte	0x21
 6687 102d D1000000 		.4byte	0xd1
 6688 1031 8B       		.byte	0x8b
 6689 1032 02       		.uleb128 0x2
 6690 1033 39040000 		.4byte	.LASF197
 6691 1037 1D       		.byte	0x1d
 6692 1038 EB01     		.2byte	0x1eb
 6693 103a 21       		.byte	0x21
ARM GAS  C:\Users\DEVELO~1\AppData\Local\Temp\ccBydanM.s 			page 119


 6694 103b A8100000 		.4byte	0x10a8
 6695 103f 8C       		.byte	0x8c
 6696 1040 0A       		.uleb128 0xa
 6697 1041 6F746700 		.ascii	"otg\000"
 6698 1045 1D       		.byte	0x1d
 6699 1046 F301     		.2byte	0x1f3
 6700 1048 22       		.byte	0x22
 6701 1049 6D190000 		.4byte	0x196d
 6702 104d 90       		.byte	0x90
 6703 104e 02       		.uleb128 0x2
 6704 104f 0C080000 		.4byte	.LASF198
 6705 1053 1D       		.byte	0x1d
 6706 1054 F701     		.2byte	0x1f7
 6707 1056 22       		.byte	0x22
 6708 1057 72190000 		.4byte	0x1972
 6709 105b 94       		.byte	0x94
 6710 105c 02       		.uleb128 0x2
 6711 105d 73120000 		.4byte	.LASF199
 6712 1061 1D       		.byte	0x1d
 6713 1062 FB01     		.2byte	0x1fb
 6714 1064 21       		.byte	0x21
 6715 1065 06010000 		.4byte	0x106
 6716 1069 98       		.byte	0x98
 6717 106a 00       		.byte	0
 6718 106b 0F       		.uleb128 0xf
 6719 106c 32010000 		.4byte	.LASF200
 6720 1070 1C       		.byte	0x1c
 6721 1071 0801     		.2byte	0x108
 6722 1073 11       		.byte	0x11
 6723 1074 D1000000 		.4byte	0xd1
 6724 1078 2C       		.uleb128 0x2c
 6725 1079 6B000000 		.4byte	0x6b
 6726 107d 0D01     		.2byte	0x10d
 6727 107f A8100000 		.4byte	0x10a8
 6728 1083 09       		.uleb128 0x9
 6729 1084 B0150000 		.4byte	.LASF201
 6730 1088 00       		.byte	0
 6731 1089 09       		.uleb128 0x9
 6732 108a 31050000 		.4byte	.LASF202
 6733 108e 01       		.byte	0x1
 6734 108f 09       		.uleb128 0x9
 6735 1090 000B0000 		.4byte	.LASF203
 6736 1094 02       		.byte	0x2
 6737 1095 09       		.uleb128 0x9
 6738 1096 060F0000 		.4byte	.LASF204
 6739 109a 03       		.byte	0x3
 6740 109b 09       		.uleb128 0x9
 6741 109c 26050000 		.4byte	.LASF205
 6742 10a0 04       		.byte	0x4
 6743 10a1 09       		.uleb128 0x9
 6744 10a2 FA130000 		.4byte	.LASF206
 6745 10a6 05       		.byte	0x5
 6746 10a7 00       		.byte	0
 6747 10a8 0F       		.uleb128 0xf
 6748 10a9 4F130000 		.4byte	.LASF207
 6749 10ad 1C       		.byte	0x1c
 6750 10ae 1401     		.2byte	0x114
ARM GAS  C:\Users\DEVELO~1\AppData\Local\Temp\ccBydanM.s 			page 120


 6751 10b0 03       		.byte	0x3
 6752 10b1 78100000 		.4byte	0x1078
 6753 10b5 2C       		.uleb128 0x2c
 6754 10b6 6B000000 		.4byte	0x6b
 6755 10ba 2201     		.2byte	0x122
 6756 10bc EB100000 		.4byte	0x10eb
 6757 10c0 09       		.uleb128 0x9
 6758 10c1 AA100000 		.4byte	.LASF208
 6759 10c5 00       		.byte	0
 6760 10c6 09       		.uleb128 0x9
 6761 10c7 7B140000 		.4byte	.LASF209
 6762 10cb 09       		.byte	0x9
 6763 10cc 09       		.uleb128 0x9
 6764 10cd E4010000 		.4byte	.LASF210
 6765 10d1 0A       		.byte	0xa
 6766 10d2 09       		.uleb128 0x9
 6767 10d3 97110000 		.4byte	.LASF211
 6768 10d7 0B       		.byte	0xb
 6769 10d8 09       		.uleb128 0x9
 6770 10d9 29100000 		.4byte	.LASF212
 6771 10dd 14       		.byte	0x14
 6772 10de 09       		.uleb128 0x9
 6773 10df 9F080000 		.4byte	.LASF213
 6774 10e3 15       		.byte	0x15
 6775 10e4 09       		.uleb128 0x9
 6776 10e5 91080000 		.4byte	.LASF214
 6777 10e9 06       		.byte	0x6
 6778 10ea 00       		.byte	0
 6779 10eb 0F       		.uleb128 0xf
 6780 10ec D9090000 		.4byte	.LASF215
 6781 10f0 1C       		.byte	0x1c
 6782 10f1 2A01     		.2byte	0x12a
 6783 10f3 03       		.byte	0x3
 6784 10f4 B5100000 		.4byte	0x10b5
 6785 10f8 2C       		.uleb128 0x2c
 6786 10f9 6B000000 		.4byte	0x6b
 6787 10fd 2F01     		.2byte	0x12f
 6788 10ff 2E110000 		.4byte	0x112e
 6789 1103 09       		.uleb128 0x9
 6790 1104 EC0E0000 		.4byte	.LASF216
 6791 1108 00       		.byte	0
 6792 1109 09       		.uleb128 0x9
 6793 110a 3B0F0000 		.4byte	.LASF217
 6794 110e 01       		.byte	0x1
 6795 110f 09       		.uleb128 0x9
 6796 1110 4E0B0000 		.4byte	.LASF218
 6797 1114 02       		.byte	0x2
 6798 1115 09       		.uleb128 0x9
 6799 1116 5F000000 		.4byte	.LASF219
 6800 111a 03       		.byte	0x3
 6801 111b 09       		.uleb128 0x9
 6802 111c AA0B0000 		.4byte	.LASF220
 6803 1120 04       		.byte	0x4
 6804 1121 09       		.uleb128 0x9
 6805 1122 CB140000 		.4byte	.LASF221
 6806 1126 05       		.byte	0x5
 6807 1127 09       		.uleb128 0x9
ARM GAS  C:\Users\DEVELO~1\AppData\Local\Temp\ccBydanM.s 			page 121


 6808 1128 1F0B0000 		.4byte	.LASF222
 6809 112c 06       		.byte	0x6
 6810 112d 00       		.byte	0
 6811 112e 0F       		.uleb128 0xf
 6812 112f 620F0000 		.4byte	.LASF223
 6813 1133 1C       		.byte	0x1c
 6814 1134 3701     		.2byte	0x137
 6815 1136 03       		.byte	0x3
 6816 1137 F8100000 		.4byte	0x10f8
 6817 113b 1D       		.uleb128 0x1d
 6818 113c 08       		.byte	0x8
 6819 113d 1C       		.byte	0x1c
 6820 113e 3C01     		.2byte	0x13c
 6821 1140 61110000 		.4byte	0x1161
 6822 1144 02       		.uleb128 0x2
 6823 1145 5A160000 		.4byte	.LASF224
 6824 1149 1C       		.byte	0x1c
 6825 114a 4001     		.2byte	0x140
 6826 114c 21       		.byte	0x21
 6827 114d 2D000000 		.4byte	0x2d
 6828 1151 00       		.byte	0
 6829 1152 02       		.uleb128 0x2
 6830 1153 20030000 		.4byte	.LASF225
 6831 1157 1C       		.byte	0x1c
 6832 1158 4401     		.2byte	0x144
 6833 115a 22       		.byte	0x22
 6834 115b E30B0000 		.4byte	0xbe3
 6835 115f 04       		.byte	0x4
 6836 1160 00       		.byte	0
 6837 1161 0F       		.uleb128 0xf
 6838 1162 2F0C0000 		.4byte	.LASF226
 6839 1166 1C       		.byte	0x1c
 6840 1167 4501     		.2byte	0x145
 6841 1169 03       		.byte	0x3
 6842 116a 3B110000 		.4byte	0x113b
 6843 116e 11       		.uleb128 0x11
 6844 116f 61110000 		.4byte	0x1161
 6845 1173 0F       		.uleb128 0xf
 6846 1174 24160000 		.4byte	.LASF227
 6847 1178 1C       		.byte	0x1c
 6848 1179 4D01     		.2byte	0x14d
 6849 117b 10       		.byte	0x10
 6850 117c 80110000 		.4byte	0x1180
 6851 1180 06       		.uleb128 0x6
 6852 1181 85110000 		.4byte	0x1185
 6853 1185 22       		.uleb128 0x22
 6854 1186 90110000 		.4byte	0x1190
 6855 118a 03       		.uleb128 0x3
 6856 118b 90110000 		.4byte	0x1190
 6857 118f 00       		.byte	0
 6858 1190 06       		.uleb128 0x6
 6859 1191 450F0000 		.4byte	0xf45
 6860 1195 0F       		.uleb128 0xf
 6861 1196 65030000 		.4byte	.LASF228
 6862 119a 1C       		.byte	0x1c
 6863 119b 5601     		.2byte	0x156
 6864 119d 10       		.byte	0x10
ARM GAS  C:\Users\DEVELO~1\AppData\Local\Temp\ccBydanM.s 			page 122


 6865 119e A2110000 		.4byte	0x11a2
 6866 11a2 06       		.uleb128 0x6
 6867 11a3 A7110000 		.4byte	0x11a7
 6868 11a7 22       		.uleb128 0x22
 6869 11a8 B7110000 		.4byte	0x11b7
 6870 11ac 03       		.uleb128 0x3
 6871 11ad 90110000 		.4byte	0x1190
 6872 11b1 03       		.uleb128 0x3
 6873 11b2 6B100000 		.4byte	0x106b
 6874 11b6 00       		.byte	0
 6875 11b7 0F       		.uleb128 0xf
 6876 11b8 AA060000 		.4byte	.LASF229
 6877 11bc 1C       		.byte	0x1c
 6878 11bd 5F01     		.2byte	0x15f
 6879 11bf 10       		.byte	0x10
 6880 11c0 C4110000 		.4byte	0x11c4
 6881 11c4 06       		.uleb128 0x6
 6882 11c5 C9110000 		.4byte	0x11c9
 6883 11c9 22       		.uleb128 0x22
 6884 11ca D9110000 		.4byte	0x11d9
 6885 11ce 03       		.uleb128 0x3
 6886 11cf 90110000 		.4byte	0x1190
 6887 11d3 03       		.uleb128 0x3
 6888 11d4 2E110000 		.4byte	0x112e
 6889 11d8 00       		.byte	0
 6890 11d9 0F       		.uleb128 0xf
 6891 11da 9B0E0000 		.4byte	.LASF230
 6892 11de 1C       		.byte	0x1c
 6893 11df 6B01     		.2byte	0x16b
 6894 11e1 10       		.byte	0x10
 6895 11e2 E6110000 		.4byte	0x11e6
 6896 11e6 06       		.uleb128 0x6
 6897 11e7 EB110000 		.4byte	0x11eb
 6898 11eb 17       		.uleb128 0x17
 6899 11ec A80B0000 		.4byte	0xba8
 6900 11f0 FA110000 		.4byte	0x11fa
 6901 11f4 03       		.uleb128 0x3
 6902 11f5 90110000 		.4byte	0x1190
 6903 11f9 00       		.byte	0
 6904 11fa 0F       		.uleb128 0xf
 6905 11fb 08050000 		.4byte	.LASF231
 6906 11ff 1C       		.byte	0x1c
 6907 1200 7001     		.2byte	0x170
 6908 1202 21       		.byte	0x21
 6909 1203 07120000 		.4byte	0x1207
 6910 1207 06       		.uleb128 0x6
 6911 1208 0C120000 		.4byte	0x120c
 6912 120c 17       		.uleb128 0x17
 6913 120d 2A120000 		.4byte	0x122a
 6914 1211 2A120000 		.4byte	0x122a
 6915 1215 03       		.uleb128 0x3
 6916 1216 90110000 		.4byte	0x1190
 6917 121a 03       		.uleb128 0x3
 6918 121b D1000000 		.4byte	0xd1
 6919 121f 03       		.uleb128 0x3
 6920 1220 D1000000 		.4byte	0xd1
 6921 1224 03       		.uleb128 0x3
ARM GAS  C:\Users\DEVELO~1\AppData\Local\Temp\ccBydanM.s 			page 123


 6922 1225 EE000000 		.4byte	0xee
 6923 1229 00       		.byte	0
 6924 122a 06       		.uleb128 0x6
 6925 122b 6E110000 		.4byte	0x116e
 6926 122f 14       		.uleb128 0x14
 6927 1230 20       		.byte	0x20
 6928 1231 1E       		.byte	0x1e
 6929 1232 29       		.byte	0x29
 6930 1233 09       		.byte	0x9
 6931 1234 A1120000 		.4byte	0x12a1
 6932 1238 01       		.uleb128 0x1
 6933 1239 E5020000 		.4byte	.LASF232
 6934 123d 1E       		.byte	0x1e
 6935 123e 2A       		.byte	0x2a
 6936 123f 15       		.byte	0x15
 6937 1240 12010000 		.4byte	0x112
 6938 1244 00       		.byte	0
 6939 1245 01       		.uleb128 0x1
 6940 1246 0F0A0000 		.4byte	.LASF233
 6941 124a 1E       		.byte	0x1e
 6942 124b 2C       		.byte	0x2c
 6943 124c 15       		.byte	0x15
 6944 124d 12010000 		.4byte	0x112
 6945 1251 04       		.byte	0x4
 6946 1252 01       		.uleb128 0x1
 6947 1253 55020000 		.4byte	.LASF234
 6948 1257 1E       		.byte	0x1e
 6949 1258 2D       		.byte	0x2d
 6950 1259 15       		.byte	0x15
 6951 125a 12010000 		.4byte	0x112
 6952 125e 08       		.byte	0x8
 6953 125f 01       		.uleb128 0x1
 6954 1260 F3100000 		.4byte	.LASF235
 6955 1264 1E       		.byte	0x1e
 6956 1265 2E       		.byte	0x2e
 6957 1266 15       		.byte	0x15
 6958 1267 12010000 		.4byte	0x112
 6959 126b 0C       		.byte	0xc
 6960 126c 01       		.uleb128 0x1
 6961 126d 470B0000 		.4byte	.LASF236
 6962 1271 1E       		.byte	0x1e
 6963 1272 30       		.byte	0x30
 6964 1273 15       		.byte	0x15
 6965 1274 12010000 		.4byte	0x112
 6966 1278 10       		.byte	0x10
 6967 1279 01       		.uleb128 0x1
 6968 127a 69020000 		.4byte	.LASF237
 6969 127e 1E       		.byte	0x1e
 6970 127f 32       		.byte	0x32
 6971 1280 15       		.byte	0x15
 6972 1281 12010000 		.4byte	0x112
 6973 1285 14       		.byte	0x14
 6974 1286 01       		.uleb128 0x1
 6975 1287 D6070000 		.4byte	.LASF238
 6976 128b 1E       		.byte	0x1e
 6977 128c 33       		.byte	0x33
 6978 128d 15       		.byte	0x15
ARM GAS  C:\Users\DEVELO~1\AppData\Local\Temp\ccBydanM.s 			page 124


 6979 128e 12010000 		.4byte	0x112
 6980 1292 18       		.byte	0x18
 6981 1293 01       		.uleb128 0x1
 6982 1294 EC020000 		.4byte	.LASF239
 6983 1298 1E       		.byte	0x1e
 6984 1299 34       		.byte	0x34
 6985 129a 15       		.byte	0x15
 6986 129b 12010000 		.4byte	0x112
 6987 129f 1C       		.byte	0x1c
 6988 12a0 00       		.byte	0
 6989 12a1 04       		.uleb128 0x4
 6990 12a2 7F100000 		.4byte	.LASF240
 6991 12a6 1E       		.byte	0x1e
 6992 12a7 35       		.byte	0x35
 6993 12a8 03       		.byte	0x3
 6994 12a9 2F120000 		.4byte	0x122f
 6995 12ad 14       		.uleb128 0x14
 6996 12ae 20       		.byte	0x20
 6997 12af 1E       		.byte	0x1e
 6998 12b0 3A       		.byte	0x3a
 6999 12b1 09       		.byte	0x9
 7000 12b2 1F130000 		.4byte	0x131f
 7001 12b6 01       		.uleb128 0x1
 7002 12b7 04080000 		.4byte	.LASF241
 7003 12bb 1E       		.byte	0x1e
 7004 12bc 3B       		.byte	0x3b
 7005 12bd 15       		.byte	0x15
 7006 12be 12010000 		.4byte	0x112
 7007 12c2 00       		.byte	0
 7008 12c3 01       		.uleb128 0x1
 7009 12c4 86070000 		.4byte	.LASF242
 7010 12c8 1E       		.byte	0x1e
 7011 12c9 3D       		.byte	0x3d
 7012 12ca 15       		.byte	0x15
 7013 12cb 12010000 		.4byte	0x112
 7014 12cf 04       		.byte	0x4
 7015 12d0 01       		.uleb128 0x1
 7016 12d1 C3120000 		.4byte	.LASF243
 7017 12d5 1E       		.byte	0x1e
 7018 12d6 3E       		.byte	0x3e
 7019 12d7 15       		.byte	0x15
 7020 12d8 12010000 		.4byte	0x112
 7021 12dc 08       		.byte	0x8
 7022 12dd 01       		.uleb128 0x1
 7023 12de 330A0000 		.4byte	.LASF244
 7024 12e2 1E       		.byte	0x1e
 7025 12e3 40       		.byte	0x40
 7026 12e4 15       		.byte	0x15
 7027 12e5 12010000 		.4byte	0x112
 7028 12e9 0C       		.byte	0xc
 7029 12ea 01       		.uleb128 0x1
 7030 12eb 790D0000 		.4byte	.LASF245
 7031 12ef 1E       		.byte	0x1e
 7032 12f0 41       		.byte	0x41
 7033 12f1 15       		.byte	0x15
 7034 12f2 12010000 		.4byte	0x112
 7035 12f6 10       		.byte	0x10
ARM GAS  C:\Users\DEVELO~1\AppData\Local\Temp\ccBydanM.s 			page 125


 7036 12f7 01       		.uleb128 0x1
 7037 12f8 69020000 		.4byte	.LASF237
 7038 12fc 1E       		.byte	0x1e
 7039 12fd 43       		.byte	0x43
 7040 12fe 15       		.byte	0x15
 7041 12ff 12010000 		.4byte	0x112
 7042 1303 14       		.byte	0x14
 7043 1304 01       		.uleb128 0x1
 7044 1305 78040000 		.4byte	.LASF246
 7045 1309 1E       		.byte	0x1e
 7046 130a 44       		.byte	0x44
 7047 130b 15       		.byte	0x15
 7048 130c 12010000 		.4byte	0x112
 7049 1310 18       		.byte	0x18
 7050 1311 01       		.uleb128 0x1
 7051 1312 DE070000 		.4byte	.LASF247
 7052 1316 1E       		.byte	0x1e
 7053 1317 46       		.byte	0x46
 7054 1318 15       		.byte	0x15
 7055 1319 12010000 		.4byte	0x112
 7056 131d 1C       		.byte	0x1c
 7057 131e 00       		.byte	0
 7058 131f 04       		.uleb128 0x4
 7059 1320 3A050000 		.4byte	.LASF248
 7060 1324 1E       		.byte	0x1e
 7061 1325 47       		.byte	0x47
 7062 1326 03       		.byte	0x3
 7063 1327 AD120000 		.4byte	0x12ad
 7064 132b 14       		.uleb128 0x14
 7065 132c 20       		.byte	0x20
 7066 132d 1E       		.byte	0x1e
 7067 132e 4C       		.byte	0x4c
 7068 132f 09       		.byte	0x9
 7069 1330 9D130000 		.4byte	0x139d
 7070 1334 01       		.uleb128 0x1
 7071 1335 75030000 		.4byte	.LASF249
 7072 1339 1E       		.byte	0x1e
 7073 133a 4D       		.byte	0x4d
 7074 133b 15       		.byte	0x15
 7075 133c 12010000 		.4byte	0x112
 7076 1340 00       		.byte	0
 7077 1341 01       		.uleb128 0x1
 7078 1342 86070000 		.4byte	.LASF242
 7079 1346 1E       		.byte	0x1e
 7080 1347 4F       		.byte	0x4f
 7081 1348 15       		.byte	0x15
 7082 1349 12010000 		.4byte	0x112
 7083 134d 04       		.byte	0x4
 7084 134e 01       		.uleb128 0x1
 7085 134f 6D0E0000 		.4byte	.LASF250
 7086 1353 1E       		.byte	0x1e
 7087 1354 50       		.byte	0x50
 7088 1355 15       		.byte	0x15
 7089 1356 12010000 		.4byte	0x112
 7090 135a 08       		.byte	0x8
 7091 135b 01       		.uleb128 0x1
 7092 135c 330A0000 		.4byte	.LASF244
ARM GAS  C:\Users\DEVELO~1\AppData\Local\Temp\ccBydanM.s 			page 126


 7093 1360 1E       		.byte	0x1e
 7094 1361 52       		.byte	0x52
 7095 1362 15       		.byte	0x15
 7096 1363 12010000 		.4byte	0x112
 7097 1367 0C       		.byte	0xc
 7098 1368 01       		.uleb128 0x1
 7099 1369 5A130000 		.4byte	.LASF251
 7100 136d 1E       		.byte	0x1e
 7101 136e 53       		.byte	0x53
 7102 136f 15       		.byte	0x15
 7103 1370 12010000 		.4byte	0x112
 7104 1374 10       		.byte	0x10
 7105 1375 01       		.uleb128 0x1
 7106 1376 69020000 		.4byte	.LASF237
 7107 137a 1E       		.byte	0x1e
 7108 137b 55       		.byte	0x55
 7109 137c 15       		.byte	0x15
 7110 137d 12010000 		.4byte	0x112
 7111 1381 14       		.byte	0x14
 7112 1382 01       		.uleb128 0x1
 7113 1383 D6070000 		.4byte	.LASF238
 7114 1387 1E       		.byte	0x1e
 7115 1388 56       		.byte	0x56
 7116 1389 15       		.byte	0x15
 7117 138a 12010000 		.4byte	0x112
 7118 138e 18       		.byte	0x18
 7119 138f 01       		.uleb128 0x1
 7120 1390 DE070000 		.4byte	.LASF247
 7121 1394 1E       		.byte	0x1e
 7122 1395 57       		.byte	0x57
 7123 1396 15       		.byte	0x15
 7124 1397 12010000 		.4byte	0x112
 7125 139b 1C       		.byte	0x1c
 7126 139c 00       		.byte	0
 7127 139d 04       		.uleb128 0x4
 7128 139e D20D0000 		.4byte	.LASF252
 7129 13a2 1E       		.byte	0x1e
 7130 13a3 58       		.byte	0x58
 7131 13a4 03       		.byte	0x3
 7132 13a5 2B130000 		.4byte	0x132b
 7133 13a9 42       		.uleb128 0x42
 7134 13aa 00100100 		.4byte	0x11000
 7135 13ae 1E       		.byte	0x1e
 7136 13af 5D       		.byte	0x5d
 7137 13b0 09       		.byte	0x9
 7138 13b1 73160000 		.4byte	0x1673
 7139 13b5 01       		.uleb128 0x1
 7140 13b6 5D030000 		.4byte	.LASF253
 7141 13ba 1E       		.byte	0x1e
 7142 13bb 5E       		.byte	0x5e
 7143 13bc 15       		.byte	0x15
 7144 13bd 12010000 		.4byte	0x112
 7145 13c1 00       		.byte	0
 7146 13c2 01       		.uleb128 0x1
 7147 13c3 520E0000 		.4byte	.LASF254
 7148 13c7 1E       		.byte	0x1e
 7149 13c8 5F       		.byte	0x5f
ARM GAS  C:\Users\DEVELO~1\AppData\Local\Temp\ccBydanM.s 			page 127


 7150 13c9 15       		.byte	0x15
 7151 13ca 12010000 		.4byte	0x112
 7152 13ce 04       		.byte	0x4
 7153 13cf 01       		.uleb128 0x1
 7154 13d0 AA040000 		.4byte	.LASF255
 7155 13d4 1E       		.byte	0x1e
 7156 13d5 60       		.byte	0x60
 7157 13d6 15       		.byte	0x15
 7158 13d7 12010000 		.4byte	0x112
 7159 13db 08       		.byte	0x8
 7160 13dc 01       		.uleb128 0x1
 7161 13dd 32160000 		.4byte	.LASF256
 7162 13e1 1E       		.byte	0x1e
 7163 13e2 61       		.byte	0x61
 7164 13e3 15       		.byte	0x15
 7165 13e4 12010000 		.4byte	0x112
 7166 13e8 0C       		.byte	0xc
 7167 13e9 01       		.uleb128 0x1
 7168 13ea 08140000 		.4byte	.LASF257
 7169 13ee 1E       		.byte	0x1e
 7170 13ef 62       		.byte	0x62
 7171 13f0 15       		.byte	0x15
 7172 13f1 12010000 		.4byte	0x112
 7173 13f5 10       		.byte	0x10
 7174 13f6 01       		.uleb128 0x1
 7175 13f7 FF060000 		.4byte	.LASF258
 7176 13fb 1E       		.byte	0x1e
 7177 13fc 63       		.byte	0x63
 7178 13fd 15       		.byte	0x15
 7179 13fe 12010000 		.4byte	0x112
 7180 1402 14       		.byte	0x14
 7181 1403 01       		.uleb128 0x1
 7182 1404 F50F0000 		.4byte	.LASF259
 7183 1408 1E       		.byte	0x1e
 7184 1409 64       		.byte	0x64
 7185 140a 15       		.byte	0x15
 7186 140b 12010000 		.4byte	0x112
 7187 140f 18       		.byte	0x18
 7188 1410 01       		.uleb128 0x1
 7189 1411 F1040000 		.4byte	.LASF260
 7190 1415 1E       		.byte	0x1e
 7191 1416 65       		.byte	0x65
 7192 1417 15       		.byte	0x15
 7193 1418 12010000 		.4byte	0x112
 7194 141c 1C       		.byte	0x1c
 7195 141d 01       		.uleb128 0x1
 7196 141e E9040000 		.4byte	.LASF261
 7197 1422 1E       		.byte	0x1e
 7198 1423 67       		.byte	0x67
 7199 1424 15       		.byte	0x15
 7200 1425 12010000 		.4byte	0x112
 7201 1429 20       		.byte	0x20
 7202 142a 01       		.uleb128 0x1
 7203 142b A80F0000 		.4byte	.LASF262
 7204 142f 1E       		.byte	0x1e
 7205 1430 69       		.byte	0x69
 7206 1431 15       		.byte	0x15
ARM GAS  C:\Users\DEVELO~1\AppData\Local\Temp\ccBydanM.s 			page 128


 7207 1432 12010000 		.4byte	0x112
 7208 1436 24       		.byte	0x24
 7209 1437 01       		.uleb128 0x1
 7210 1438 93000000 		.4byte	.LASF263
 7211 143c 1E       		.byte	0x1e
 7212 143d 6A       		.byte	0x6a
 7213 143e 15       		.byte	0x15
 7214 143f 12010000 		.4byte	0x112
 7215 1443 28       		.byte	0x28
 7216 1444 01       		.uleb128 0x1
 7217 1445 07100000 		.4byte	.LASF264
 7218 1449 1E       		.byte	0x1e
 7219 144a 6C       		.byte	0x6c
 7220 144b 15       		.byte	0x15
 7221 144c 12010000 		.4byte	0x112
 7222 1450 2C       		.byte	0x2c
 7223 1451 01       		.uleb128 0x1
 7224 1452 66080000 		.4byte	.LASF265
 7225 1456 1E       		.byte	0x1e
 7226 1457 6E       		.byte	0x6e
 7227 1458 15       		.byte	0x15
 7228 1459 12010000 		.4byte	0x112
 7229 145d 30       		.byte	0x30
 7230 145e 01       		.uleb128 0x1
 7231 145f 6E080000 		.4byte	.LASF266
 7232 1463 1E       		.byte	0x1e
 7233 1464 6F       		.byte	0x6f
 7234 1465 15       		.byte	0x15
 7235 1466 12010000 		.4byte	0x112
 7236 146a 34       		.byte	0x34
 7237 146b 01       		.uleb128 0x1
 7238 146c 76010000 		.4byte	.LASF267
 7239 1470 1E       		.byte	0x1e
 7240 1471 70       		.byte	0x70
 7241 1472 15       		.byte	0x15
 7242 1473 12010000 		.4byte	0x112
 7243 1477 38       		.byte	0x38
 7244 1478 0E       		.uleb128 0xe
 7245 1479 43494400 		.ascii	"CID\000"
 7246 147d 1E       		.byte	0x1e
 7247 147e 71       		.byte	0x71
 7248 147f 15       		.byte	0x15
 7249 1480 12010000 		.4byte	0x112
 7250 1484 3C       		.byte	0x3c
 7251 1485 01       		.uleb128 0x1
 7252 1486 3C090000 		.4byte	.LASF268
 7253 148a 1E       		.byte	0x1e
 7254 148b 72       		.byte	0x72
 7255 148c 15       		.byte	0x15
 7256 148d 83160000 		.4byte	0x1683
 7257 1491 40       		.byte	0x40
 7258 1492 08       		.uleb128 0x8
 7259 1493 25140000 		.4byte	.LASF269
 7260 1497 73       		.byte	0x73
 7261 1498 12010000 		.4byte	0x112
 7262 149c 0001     		.2byte	0x100
 7263 149e 08       		.uleb128 0x8
ARM GAS  C:\Users\DEVELO~1\AppData\Local\Temp\ccBydanM.s 			page 129


 7264 149f D2010000 		.4byte	.LASF270
 7265 14a3 75       		.byte	0x75
 7266 14a4 38070000 		.4byte	0x738
 7267 14a8 0401     		.2byte	0x104
 7268 14aa 08       		.uleb128 0x8
 7269 14ab A10B0000 		.4byte	.LASF271
 7270 14af 77       		.byte	0x77
 7271 14b0 98160000 		.4byte	0x1698
 7272 14b4 4001     		.2byte	0x140
 7273 14b6 08       		.uleb128 0x8
 7274 14b7 270E0000 		.4byte	.LASF272
 7275 14bb 78       		.byte	0x78
 7276 14bc 12010000 		.4byte	0x112
 7277 14c0 0004     		.2byte	0x400
 7278 14c2 08       		.uleb128 0x8
 7279 14c3 AB150000 		.4byte	.LASF273
 7280 14c7 79       		.byte	0x79
 7281 14c8 12010000 		.4byte	0x112
 7282 14cc 0404     		.2byte	0x404
 7283 14ce 08       		.uleb128 0x8
 7284 14cf FA020000 		.4byte	.LASF274
 7285 14d3 7A       		.byte	0x7a
 7286 14d4 12010000 		.4byte	0x112
 7287 14d8 0804     		.2byte	0x408
 7288 14da 08       		.uleb128 0x8
 7289 14db 22110000 		.4byte	.LASF275
 7290 14df 7C       		.byte	0x7c
 7291 14e0 12010000 		.4byte	0x112
 7292 14e4 0C04     		.2byte	0x40c
 7293 14e6 08       		.uleb128 0x8
 7294 14e7 71020000 		.4byte	.LASF276
 7295 14eb 7D       		.byte	0x7d
 7296 14ec 12010000 		.4byte	0x112
 7297 14f0 1004     		.2byte	0x410
 7298 14f2 08       		.uleb128 0x8
 7299 14f3 F4020000 		.4byte	.LASF277
 7300 14f7 7F       		.byte	0x7f
 7301 14f8 12010000 		.4byte	0x112
 7302 14fc 1404     		.2byte	0x414
 7303 14fe 08       		.uleb128 0x8
 7304 14ff 42070000 		.4byte	.LASF278
 7305 1503 81       		.byte	0x81
 7306 1504 12010000 		.4byte	0x112
 7307 1508 1804     		.2byte	0x418
 7308 150a 08       		.uleb128 0x8
 7309 150b 80110000 		.4byte	.LASF279
 7310 150f 83       		.byte	0x83
 7311 1510 AD160000 		.4byte	0x16ad
 7312 1514 1C04     		.2byte	0x41c
 7313 1516 08       		.uleb128 0x8
 7314 1517 20020000 		.4byte	.LASF280
 7315 151b 84       		.byte	0x84
 7316 151c 12010000 		.4byte	0x112
 7317 1520 4004     		.2byte	0x440
 7318 1522 08       		.uleb128 0x8
 7319 1523 4D120000 		.4byte	.LASF281
 7320 1527 86       		.byte	0x86
ARM GAS  C:\Users\DEVELO~1\AppData\Local\Temp\ccBydanM.s 			page 130


 7321 1528 C2160000 		.4byte	0x16c2
 7322 152c 4404     		.2byte	0x444
 7323 152e 2D       		.uleb128 0x2d
 7324 152f 686300   		.ascii	"hc\000"
 7325 1532 87       		.byte	0x87
 7326 1533 18       		.byte	0x18
 7327 1534 C7160000 		.4byte	0x16c7
 7328 1538 0005     		.2byte	0x500
 7329 153a 08       		.uleb128 0x8
 7330 153b F9000000 		.4byte	.LASF282
 7331 153f 88       		.byte	0x88
 7332 1540 E7160000 		.4byte	0x16e7
 7333 1544 0007     		.2byte	0x700
 7334 1546 08       		.uleb128 0x8
 7335 1547 D50F0000 		.4byte	.LASF283
 7336 154b 89       		.byte	0x89
 7337 154c 12010000 		.4byte	0x112
 7338 1550 0008     		.2byte	0x800
 7339 1552 08       		.uleb128 0x8
 7340 1553 B3140000 		.4byte	.LASF284
 7341 1557 8A       		.byte	0x8a
 7342 1558 12010000 		.4byte	0x112
 7343 155c 0408     		.2byte	0x804
 7344 155e 08       		.uleb128 0x8
 7345 155f 980A0000 		.4byte	.LASF285
 7346 1563 8B       		.byte	0x8b
 7347 1564 12010000 		.4byte	0x112
 7348 1568 0808     		.2byte	0x808
 7349 156a 08       		.uleb128 0x8
 7350 156b 38030000 		.4byte	.LASF286
 7351 156f 8C       		.byte	0x8c
 7352 1570 12010000 		.4byte	0x112
 7353 1574 0C08     		.2byte	0x80c
 7354 1576 08       		.uleb128 0x8
 7355 1577 2A070000 		.4byte	.LASF287
 7356 157b 8D       		.byte	0x8d
 7357 157c 12010000 		.4byte	0x112
 7358 1580 1008     		.2byte	0x810
 7359 1582 08       		.uleb128 0x8
 7360 1583 79020000 		.4byte	.LASF288
 7361 1587 8F       		.byte	0x8f
 7362 1588 12010000 		.4byte	0x112
 7363 158c 1408     		.2byte	0x814
 7364 158e 08       		.uleb128 0x8
 7365 158f 20130000 		.4byte	.LASF289
 7366 1593 91       		.byte	0x91
 7367 1594 12010000 		.4byte	0x112
 7368 1598 1808     		.2byte	0x818
 7369 159a 08       		.uleb128 0x8
 7370 159b 04120000 		.4byte	.LASF290
 7371 159f 93       		.byte	0x93
 7372 15a0 12010000 		.4byte	0x112
 7373 15a4 1C08     		.2byte	0x81c
 7374 15a6 08       		.uleb128 0x8
 7375 15a7 CC030000 		.4byte	.LASF291
 7376 15ab 95       		.byte	0x95
 7377 15ac 12010000 		.4byte	0x112
ARM GAS  C:\Users\DEVELO~1\AppData\Local\Temp\ccBydanM.s 			page 131


 7378 15b0 2008     		.2byte	0x820
 7379 15b2 08       		.uleb128 0x8
 7380 15b3 E7030000 		.4byte	.LASF292
 7381 15b7 96       		.byte	0x96
 7382 15b8 12010000 		.4byte	0x112
 7383 15bc 2408     		.2byte	0x824
 7384 15be 08       		.uleb128 0x8
 7385 15bf 14010000 		.4byte	.LASF293
 7386 15c3 97       		.byte	0x97
 7387 15c4 12010000 		.4byte	0x112
 7388 15c8 2808     		.2byte	0x828
 7389 15ca 08       		.uleb128 0x8
 7390 15cb 76080000 		.4byte	.LASF294
 7391 15cf 99       		.byte	0x99
 7392 15d0 12010000 		.4byte	0x112
 7393 15d4 2C08     		.2byte	0x82c
 7394 15d6 08       		.uleb128 0x8
 7395 15d7 45040000 		.4byte	.LASF295
 7396 15db 9B       		.byte	0x9b
 7397 15dc 12010000 		.4byte	0x112
 7398 15e0 3008     		.2byte	0x830
 7399 15e2 08       		.uleb128 0x8
 7400 15e3 F9070000 		.4byte	.LASF296
 7401 15e7 9C       		.byte	0x9c
 7402 15e8 12010000 		.4byte	0x112
 7403 15ec 3408     		.2byte	0x834
 7404 15ee 08       		.uleb128 0x8
 7405 15ef 5D040000 		.4byte	.LASF297
 7406 15f3 9E       		.byte	0x9e
 7407 15f4 12010000 		.4byte	0x112
 7408 15f8 3808     		.2byte	0x838
 7409 15fa 08       		.uleb128 0x8
 7410 15fb B2040000 		.4byte	.LASF298
 7411 15ff 9F       		.byte	0x9f
 7412 1600 12010000 		.4byte	0x112
 7413 1604 3C08     		.2byte	0x83c
 7414 1606 08       		.uleb128 0x8
 7415 1607 BB040000 		.4byte	.LASF299
 7416 160b A0       		.byte	0xa0
 7417 160c 64060000 		.4byte	0x664
 7418 1610 4008     		.2byte	0x840
 7419 1612 08       		.uleb128 0x8
 7420 1613 4C060000 		.4byte	.LASF300
 7421 1617 A1       		.byte	0xa1
 7422 1618 64060000 		.4byte	0x664
 7423 161c 8008     		.2byte	0x880
 7424 161e 08       		.uleb128 0x8
 7425 161f 200A0000 		.4byte	.LASF301
 7426 1623 A2       		.byte	0xa2
 7427 1624 64060000 		.4byte	0x664
 7428 1628 C008     		.2byte	0x8c0
 7429 162a 2D       		.uleb128 0x2d
 7430 162b 696500   		.ascii	"ie\000"
 7431 162e A3       		.byte	0xa3
 7432 162f 15       		.byte	0x15
 7433 1630 EC160000 		.4byte	0x16ec
 7434 1634 0009     		.2byte	0x900
ARM GAS  C:\Users\DEVELO~1\AppData\Local\Temp\ccBydanM.s 			page 132


 7435 1636 2D       		.uleb128 0x2d
 7436 1637 6F6500   		.ascii	"oe\000"
 7437 163a A4       		.byte	0xa4
 7438 163b 16       		.byte	0x16
 7439 163c FC160000 		.4byte	0x16fc
 7440 1640 000B     		.2byte	0xb00
 7441 1642 08       		.uleb128 0x8
 7442 1643 F0060000 		.4byte	.LASF302
 7443 1647 A5       		.byte	0xa5
 7444 1648 E7160000 		.4byte	0x16e7
 7445 164c 000D     		.2byte	0xd00
 7446 164e 08       		.uleb128 0x8
 7447 164f C3140000 		.4byte	.LASF303
 7448 1653 A6       		.byte	0xa6
 7449 1654 12010000 		.4byte	0x112
 7450 1658 000E     		.2byte	0xe00
 7451 165a 08       		.uleb128 0x8
 7452 165b B8080000 		.4byte	.LASF304
 7453 165f A8       		.byte	0xa8
 7454 1660 1C170000 		.4byte	0x171c
 7455 1664 040E     		.2byte	0xe04
 7456 1666 08       		.uleb128 0x8
 7457 1667 9C140000 		.4byte	.LASF305
 7458 166b A9       		.byte	0xa9
 7459 166c 38170000 		.4byte	0x1738
 7460 1670 0010     		.2byte	0x1000
 7461 1672 00       		.byte	0
 7462 1673 0C       		.uleb128 0xc
 7463 1674 12010000 		.4byte	0x112
 7464 1678 83160000 		.4byte	0x1683
 7465 167c 0D       		.uleb128 0xd
 7466 167d 43000000 		.4byte	0x43
 7467 1681 2F       		.byte	0x2f
 7468 1682 00       		.byte	0
 7469 1683 12       		.uleb128 0x12
 7470 1684 73160000 		.4byte	0x1673
 7471 1688 0C       		.uleb128 0xc
 7472 1689 12010000 		.4byte	0x112
 7473 168d 98160000 		.4byte	0x1698
 7474 1691 0D       		.uleb128 0xd
 7475 1692 43000000 		.4byte	0x43
 7476 1696 AF       		.byte	0xaf
 7477 1697 00       		.byte	0
 7478 1698 12       		.uleb128 0x12
 7479 1699 88160000 		.4byte	0x1688
 7480 169d 0C       		.uleb128 0xc
 7481 169e 12010000 		.4byte	0x112
 7482 16a2 AD160000 		.4byte	0x16ad
 7483 16a6 0D       		.uleb128 0xd
 7484 16a7 43000000 		.4byte	0x43
 7485 16ab 08       		.byte	0x8
 7486 16ac 00       		.byte	0
 7487 16ad 12       		.uleb128 0x12
 7488 16ae 9D160000 		.4byte	0x169d
 7489 16b2 0C       		.uleb128 0xc
 7490 16b3 12010000 		.4byte	0x112
 7491 16b7 C2160000 		.4byte	0x16c2
ARM GAS  C:\Users\DEVELO~1\AppData\Local\Temp\ccBydanM.s 			page 133


 7492 16bb 0D       		.uleb128 0xd
 7493 16bc 43000000 		.4byte	0x43
 7494 16c0 2E       		.byte	0x2e
 7495 16c1 00       		.byte	0
 7496 16c2 12       		.uleb128 0x12
 7497 16c3 B2160000 		.4byte	0x16b2
 7498 16c7 0C       		.uleb128 0xc
 7499 16c8 A1120000 		.4byte	0x12a1
 7500 16cc D7160000 		.4byte	0x16d7
 7501 16d0 0D       		.uleb128 0xd
 7502 16d1 43000000 		.4byte	0x43
 7503 16d5 0F       		.byte	0xf
 7504 16d6 00       		.byte	0
 7505 16d7 0C       		.uleb128 0xc
 7506 16d8 12010000 		.4byte	0x112
 7507 16dc E7160000 		.4byte	0x16e7
 7508 16e0 0D       		.uleb128 0xd
 7509 16e1 43000000 		.4byte	0x43
 7510 16e5 3F       		.byte	0x3f
 7511 16e6 00       		.byte	0
 7512 16e7 12       		.uleb128 0x12
 7513 16e8 D7160000 		.4byte	0x16d7
 7514 16ec 0C       		.uleb128 0xc
 7515 16ed 1F130000 		.4byte	0x131f
 7516 16f1 FC160000 		.4byte	0x16fc
 7517 16f5 0D       		.uleb128 0xd
 7518 16f6 43000000 		.4byte	0x43
 7519 16fa 0F       		.byte	0xf
 7520 16fb 00       		.byte	0
 7521 16fc 0C       		.uleb128 0xc
 7522 16fd 9D130000 		.4byte	0x139d
 7523 1701 0C170000 		.4byte	0x170c
 7524 1705 0D       		.uleb128 0xd
 7525 1706 43000000 		.4byte	0x43
 7526 170a 0F       		.byte	0xf
 7527 170b 00       		.byte	0
 7528 170c 0C       		.uleb128 0xc
 7529 170d 12010000 		.4byte	0x112
 7530 1711 1C170000 		.4byte	0x171c
 7531 1715 0D       		.uleb128 0xd
 7532 1716 43000000 		.4byte	0x43
 7533 171a 7E       		.byte	0x7e
 7534 171b 00       		.byte	0
 7535 171c 12       		.uleb128 0x12
 7536 171d 0C170000 		.4byte	0x170c
 7537 1721 0C       		.uleb128 0xc
 7538 1722 12010000 		.4byte	0x112
 7539 1726 38170000 		.4byte	0x1738
 7540 172a 0D       		.uleb128 0xd
 7541 172b 43000000 		.4byte	0x43
 7542 172f 0F       		.byte	0xf
 7543 1730 43       		.uleb128 0x43
 7544 1731 43000000 		.4byte	0x43
 7545 1735 FF03     		.2byte	0x3ff
 7546 1737 00       		.byte	0
 7547 1738 12       		.uleb128 0x12
 7548 1739 21170000 		.4byte	0x1721
ARM GAS  C:\Users\DEVELO~1\AppData\Local\Temp\ccBydanM.s 			page 134


 7549 173d 04       		.uleb128 0x4
 7550 173e 4E160000 		.4byte	.LASF306
 7551 1742 1E       		.byte	0x1e
 7552 1743 AA       		.byte	0xaa
 7553 1744 03       		.byte	0x3
 7554 1745 A9130000 		.4byte	0x13a9
 7555 1749 1D       		.uleb128 0x1d
 7556 174a 0C       		.byte	0xc
 7557 174b 1D       		.byte	0x1d
 7558 174c 0401     		.2byte	0x104
 7559 174e 7D170000 		.4byte	0x177d
 7560 1752 02       		.uleb128 0x2
 7561 1753 93050000 		.4byte	.LASF307
 7562 1757 1D       		.byte	0x1d
 7563 1758 0501     		.2byte	0x105
 7564 175a 21       		.byte	0x21
 7565 175b 06010000 		.4byte	0x106
 7566 175f 00       		.byte	0
 7567 1760 02       		.uleb128 0x2
 7568 1761 D0060000 		.4byte	.LASF308
 7569 1765 1D       		.byte	0x1d
 7570 1766 0601     		.2byte	0x106
 7571 1768 21       		.byte	0x21
 7572 1769 06010000 		.4byte	0x106
 7573 176d 04       		.byte	0x4
 7574 176e 02       		.uleb128 0x2
 7575 176f C1080000 		.4byte	.LASF309
 7576 1773 1D       		.byte	0x1d
 7577 1774 0701     		.2byte	0x107
 7578 1776 21       		.byte	0x21
 7579 1777 06010000 		.4byte	0x106
 7580 177b 08       		.byte	0x8
 7581 177c 00       		.byte	0
 7582 177d 0F       		.uleb128 0xf
 7583 177e DD060000 		.4byte	.LASF310
 7584 1782 1D       		.byte	0x1d
 7585 1783 0801     		.2byte	0x108
 7586 1785 03       		.byte	0x3
 7587 1786 49170000 		.4byte	0x1749
 7588 178a 11       		.uleb128 0x11
 7589 178b 7D170000 		.4byte	0x177d
 7590 178f 1D       		.uleb128 0x1d
 7591 1790 10       		.byte	0x10
 7592 1791 1D       		.byte	0x1d
 7593 1792 0D01     		.2byte	0x10d
 7594 1794 D1170000 		.4byte	0x17d1
 7595 1798 02       		.uleb128 0x2
 7596 1799 BD0A0000 		.4byte	.LASF311
 7597 179d 1D       		.byte	0x1d
 7598 179e 1101     		.2byte	0x111
 7599 17a0 21       		.byte	0x21
 7600 17a1 2D000000 		.4byte	0x2d
 7601 17a5 00       		.byte	0
 7602 17a6 02       		.uleb128 0x2
 7603 17a7 56140000 		.4byte	.LASF312
 7604 17ab 1D       		.byte	0x1d
 7605 17ac 1501     		.2byte	0x115
ARM GAS  C:\Users\DEVELO~1\AppData\Local\Temp\ccBydanM.s 			page 135


 7606 17ae 21       		.byte	0x21
 7607 17af 2D000000 		.4byte	0x2d
 7608 17b3 04       		.byte	0x4
 7609 17b4 02       		.uleb128 0x2
 7610 17b5 BD140000 		.4byte	.LASF313
 7611 17b9 1D       		.byte	0x1d
 7612 17ba 1901     		.2byte	0x119
 7613 17bc 22       		.byte	0x22
 7614 17bd E30B0000 		.4byte	0xbe3
 7615 17c1 08       		.byte	0x8
 7616 17c2 02       		.uleb128 0x2
 7617 17c3 CF080000 		.4byte	.LASF314
 7618 17c7 1D       		.byte	0x1d
 7619 17c8 2401     		.2byte	0x124
 7620 17ca 21       		.byte	0x21
 7621 17cb 2D000000 		.4byte	0x2d
 7622 17cf 0C       		.byte	0xc
 7623 17d0 00       		.byte	0
 7624 17d1 0F       		.uleb128 0xf
 7625 17d2 60090000 		.4byte	.LASF315
 7626 17d6 1D       		.byte	0x1d
 7627 17d7 2501     		.2byte	0x125
 7628 17d9 03       		.byte	0x3
 7629 17da 8F170000 		.4byte	0x178f
 7630 17de 1D       		.uleb128 0x1d
 7631 17df 10       		.byte	0x10
 7632 17e0 1D       		.byte	0x1d
 7633 17e1 2A01     		.2byte	0x12a
 7634 17e3 20180000 		.4byte	0x1820
 7635 17e7 02       		.uleb128 0x2
 7636 17e8 310B0000 		.4byte	.LASF316
 7637 17ec 1D       		.byte	0x1d
 7638 17ed 2E01     		.2byte	0x12e
 7639 17ef 21       		.byte	0x21
 7640 17f0 2D000000 		.4byte	0x2d
 7641 17f4 00       		.byte	0
 7642 17f5 02       		.uleb128 0x2
 7643 17f6 83060000 		.4byte	.LASF317
 7644 17fa 1D       		.byte	0x1d
 7645 17fb 3201     		.2byte	0x132
 7646 17fd 21       		.byte	0x21
 7647 17fe 2D000000 		.4byte	0x2d
 7648 1802 04       		.byte	0x4
 7649 1803 02       		.uleb128 0x2
 7650 1804 F9060000 		.4byte	.LASF318
 7651 1808 1D       		.byte	0x1d
 7652 1809 3601     		.2byte	0x136
 7653 180b 22       		.byte	0x22
 7654 180c C50B0000 		.4byte	0xbc5
 7655 1810 08       		.byte	0x8
 7656 1811 02       		.uleb128 0x2
 7657 1812 CF080000 		.4byte	.LASF314
 7658 1816 1D       		.byte	0x1d
 7659 1817 4101     		.2byte	0x141
 7660 1819 21       		.byte	0x21
 7661 181a 2D000000 		.4byte	0x2d
 7662 181e 0C       		.byte	0xc
ARM GAS  C:\Users\DEVELO~1\AppData\Local\Temp\ccBydanM.s 			page 136


 7663 181f 00       		.byte	0
 7664 1820 0F       		.uleb128 0xf
 7665 1821 6C110000 		.4byte	.LASF319
 7666 1825 1D       		.byte	0x1d
 7667 1826 4201     		.2byte	0x142
 7668 1828 03       		.byte	0x3
 7669 1829 DE170000 		.4byte	0x17de
 7670 182d 1D       		.uleb128 0x1d
 7671 182e 24       		.byte	0x24
 7672 182f 1D       		.byte	0x1d
 7673 1830 4801     		.2byte	0x148
 7674 1832 C3180000 		.4byte	0x18c3
 7675 1836 02       		.uleb128 0x2
 7676 1837 CA0D0000 		.4byte	.LASF320
 7677 183b 1D       		.byte	0x1d
 7678 183c 4C01     		.2byte	0x14c
 7679 183e 21       		.byte	0x21
 7680 183f 06010000 		.4byte	0x106
 7681 1843 00       		.byte	0
 7682 1844 02       		.uleb128 0x2
 7683 1845 BF050000 		.4byte	.LASF321
 7684 1849 1D       		.byte	0x1d
 7685 184a 5701     		.2byte	0x157
 7686 184c 21       		.byte	0x21
 7687 184d 95110000 		.4byte	0x1195
 7688 1851 04       		.byte	0x4
 7689 1852 02       		.uleb128 0x2
 7690 1853 670E0000 		.4byte	.LASF322
 7691 1857 1D       		.byte	0x1d
 7692 1858 5C01     		.2byte	0x15c
 7693 185a 21       		.byte	0x21
 7694 185b 95110000 		.4byte	0x1195
 7695 185f 08       		.byte	0x8
 7696 1860 02       		.uleb128 0x2
 7697 1861 3B070000 		.4byte	.LASF323
 7698 1865 1D       		.byte	0x1d
 7699 1866 6101     		.2byte	0x161
 7700 1868 21       		.byte	0x21
 7701 1869 95110000 		.4byte	0x1195
 7702 186d 0C       		.byte	0xc
 7703 186e 02       		.uleb128 0x2
 7704 186f 89160000 		.4byte	.LASF324
 7705 1873 1D       		.byte	0x1d
 7706 1874 6601     		.2byte	0x166
 7707 1876 21       		.byte	0x21
 7708 1877 EE000000 		.4byte	0xee
 7709 187b 10       		.byte	0x10
 7710 187c 02       		.uleb128 0x2
 7711 187d 1C090000 		.4byte	.LASF325
 7712 1881 1D       		.byte	0x1d
 7713 1882 6B01     		.2byte	0x16b
 7714 1884 21       		.byte	0x21
 7715 1885 EE000000 		.4byte	0xee
 7716 1889 12       		.byte	0x12
 7717 188a 02       		.uleb128 0x2
 7718 188b 89150000 		.4byte	.LASF326
 7719 188f 1D       		.byte	0x1d
ARM GAS  C:\Users\DEVELO~1\AppData\Local\Temp\ccBydanM.s 			page 137


 7720 1890 7101     		.2byte	0x171
 7721 1892 22       		.byte	0x22
 7722 1893 C3180000 		.4byte	0x18c3
 7723 1897 14       		.byte	0x14
 7724 1898 02       		.uleb128 0x2
 7725 1899 1F080000 		.4byte	.LASF327
 7726 189d 1D       		.byte	0x1d
 7727 189e 7701     		.2byte	0x177
 7728 18a0 22       		.byte	0x22
 7729 18a1 C8180000 		.4byte	0x18c8
 7730 18a5 18       		.byte	0x18
 7731 18a6 02       		.uleb128 0x2
 7732 18a7 550A0000 		.4byte	.LASF328
 7733 18ab 1D       		.byte	0x1d
 7734 18ac 7E01     		.2byte	0x17e
 7735 18ae 21       		.byte	0x21
 7736 18af EE000000 		.4byte	0xee
 7737 18b3 1C       		.byte	0x1c
 7738 18b4 02       		.uleb128 0x2
 7739 18b5 F0140000 		.4byte	.LASF329
 7740 18b9 1D       		.byte	0x1d
 7741 18ba 8401     		.2byte	0x184
 7742 18bc 22       		.byte	0x22
 7743 18bd C50B0000 		.4byte	0xbc5
 7744 18c1 20       		.byte	0x20
 7745 18c2 00       		.byte	0
 7746 18c3 06       		.uleb128 0x6
 7747 18c4 D1170000 		.4byte	0x17d1
 7748 18c8 06       		.uleb128 0x6
 7749 18c9 20180000 		.4byte	0x1820
 7750 18cd 0F       		.uleb128 0xf
 7751 18ce 34120000 		.4byte	.LASF330
 7752 18d2 1D       		.byte	0x1d
 7753 18d3 8501     		.2byte	0x185
 7754 18d5 03       		.byte	0x3
 7755 18d6 2D180000 		.4byte	0x182d
 7756 18da 11       		.uleb128 0x11
 7757 18db CD180000 		.4byte	0x18cd
 7758 18df 1D       		.uleb128 0x1d
 7759 18e0 10       		.byte	0x10
 7760 18e1 1D       		.byte	0x1d
 7761 18e2 8A01     		.2byte	0x18a
 7762 18e4 21190000 		.4byte	0x1921
 7763 18e8 02       		.uleb128 0x2
 7764 18e9 32070000 		.4byte	.LASF331
 7765 18ed 1D       		.byte	0x1d
 7766 18ee 8F01     		.2byte	0x18f
 7767 18f0 21       		.byte	0x21
 7768 18f1 B7110000 		.4byte	0x11b7
 7769 18f5 00       		.byte	0
 7770 18f6 02       		.uleb128 0x2
 7771 18f7 5C140000 		.4byte	.LASF332
 7772 18fb 1D       		.byte	0x1d
 7773 18fc 9401     		.2byte	0x194
 7774 18fe 21       		.byte	0x21
 7775 18ff FA110000 		.4byte	0x11fa
 7776 1903 04       		.byte	0x4
ARM GAS  C:\Users\DEVELO~1\AppData\Local\Temp\ccBydanM.s 			page 138


 7777 1904 02       		.uleb128 0x2
 7778 1905 9D0A0000 		.4byte	.LASF333
 7779 1909 1D       		.byte	0x1d
 7780 190a 9A01     		.2byte	0x19a
 7781 190c 21       		.byte	0x21
 7782 190d D9110000 		.4byte	0x11d9
 7783 1911 08       		.byte	0x8
 7784 1912 02       		.uleb128 0x2
 7785 1913 97010000 		.4byte	.LASF334
 7786 1917 1D       		.byte	0x1d
 7787 1918 9E01     		.2byte	0x19e
 7788 191a 21       		.byte	0x21
 7789 191b 73110000 		.4byte	0x1173
 7790 191f 0C       		.byte	0xc
 7791 1920 00       		.byte	0
 7792 1921 0F       		.uleb128 0xf
 7793 1922 290A0000 		.4byte	.LASF335
 7794 1926 1D       		.byte	0x1d
 7795 1927 A001     		.2byte	0x1a0
 7796 1929 03       		.byte	0x3
 7797 192a DF180000 		.4byte	0x18df
 7798 192e 11       		.uleb128 0x11
 7799 192f 21190000 		.4byte	0x1921
 7800 1933 06       		.uleb128 0x6
 7801 1934 2E190000 		.4byte	0x192e
 7802 1938 0C       		.uleb128 0xc
 7803 1939 48190000 		.4byte	0x1948
 7804 193d 48190000 		.4byte	0x1948
 7805 1941 0D       		.uleb128 0xd
 7806 1942 43000000 		.4byte	0x43
 7807 1946 08       		.byte	0x8
 7808 1947 00       		.byte	0
 7809 1948 06       		.uleb128 0x6
 7810 1949 DA180000 		.4byte	0x18da
 7811 194d 0C       		.uleb128 0xc
 7812 194e ED040000 		.4byte	0x4ed
 7813 1952 5D190000 		.4byte	0x195d
 7814 1956 0D       		.uleb128 0xd
 7815 1957 43000000 		.4byte	0x43
 7816 195b 07       		.byte	0x7
 7817 195c 00       		.byte	0
 7818 195d 0C       		.uleb128 0xc
 7819 195e D1000000 		.4byte	0xd1
 7820 1962 6D190000 		.4byte	0x196d
 7821 1966 0D       		.uleb128 0xd
 7822 1967 43000000 		.4byte	0x43
 7823 196b 07       		.byte	0x7
 7824 196c 00       		.byte	0
 7825 196d 06       		.uleb128 0x6
 7826 196e 3D170000 		.4byte	0x173d
 7827 1972 06       		.uleb128 0x6
 7828 1973 8A170000 		.4byte	0x178a
 7829 1977 44       		.uleb128 0x44
 7830 1978 9C000000 		.4byte	.LASF336
 7831 197c 1D       		.byte	0x1d
 7832 197d 4102     		.2byte	0x241
 7833 197f 12       		.byte	0x12
ARM GAS  C:\Users\DEVELO~1\AppData\Local\Temp\ccBydanM.s 			page 139


 7834 1980 450F0000 		.4byte	0xf45
 7835 1984 32       		.uleb128 0x32
 7836 1985 6B000000 		.4byte	0x6b
 7837 1989 1F       		.byte	0x1f
 7838 198a 41       		.byte	0x41
 7839 198b A8190000 		.4byte	0x19a8
 7840 198f 09       		.uleb128 0x9
 7841 1990 300D0000 		.4byte	.LASF337
 7842 1994 00       		.byte	0
 7843 1995 09       		.uleb128 0x9
 7844 1996 250F0000 		.4byte	.LASF338
 7845 199a 01       		.byte	0x1
 7846 199b 09       		.uleb128 0x9
 7847 199c 84030000 		.4byte	.LASF339
 7848 19a0 02       		.byte	0x2
 7849 19a1 09       		.uleb128 0x9
 7850 19a2 D7130000 		.4byte	.LASF340
 7851 19a6 03       		.byte	0x3
 7852 19a7 00       		.byte	0
 7853 19a8 04       		.uleb128 0x4
 7854 19a9 C6010000 		.4byte	.LASF341
 7855 19ad 1F       		.byte	0x1f
 7856 19ae 46       		.byte	0x46
 7857 19af 03       		.byte	0x3
 7858 19b0 84190000 		.4byte	0x1984
 7859 19b4 14       		.uleb128 0x14
 7860 19b5 1C       		.byte	0x1c
 7861 19b6 1F       		.byte	0x1f
 7862 19b7 4C       		.byte	0x4c
 7863 19b8 09       		.byte	0x9
 7864 19b9 191A0000 		.4byte	0x1a19
 7865 19bd 01       		.uleb128 0x1
 7866 19be 630A0000 		.4byte	.LASF342
 7867 19c2 1F       		.byte	0x1f
 7868 19c3 4D       		.byte	0x4d
 7869 19c4 15       		.byte	0x15
 7870 19c5 12010000 		.4byte	0x112
 7871 19c9 00       		.byte	0
 7872 19ca 01       		.uleb128 0x1
 7873 19cb 460C0000 		.4byte	.LASF343
 7874 19cf 1F       		.byte	0x1f
 7875 19d0 4E       		.byte	0x4e
 7876 19d1 15       		.byte	0x15
 7877 19d2 12010000 		.4byte	0x112
 7878 19d6 04       		.byte	0x4
 7879 19d7 01       		.uleb128 0x1
 7880 19d8 6C040000 		.4byte	.LASF344
 7881 19dc 1F       		.byte	0x1f
 7882 19dd 4F       		.byte	0x4f
 7883 19de 15       		.byte	0x15
 7884 19df 12010000 		.4byte	0x112
 7885 19e3 08       		.byte	0x8
 7886 19e4 01       		.uleb128 0x1
 7887 19e5 95130000 		.4byte	.LASF345
 7888 19e9 1F       		.byte	0x1f
 7889 19ea 50       		.byte	0x50
 7890 19eb 15       		.byte	0x15
ARM GAS  C:\Users\DEVELO~1\AppData\Local\Temp\ccBydanM.s 			page 140


 7891 19ec 12010000 		.4byte	0x112
 7892 19f0 0C       		.byte	0xc
 7893 19f1 01       		.uleb128 0x1
 7894 19f2 78130000 		.4byte	.LASF346
 7895 19f6 1F       		.byte	0x1f
 7896 19f7 51       		.byte	0x51
 7897 19f8 15       		.byte	0x15
 7898 19f9 12010000 		.4byte	0x112
 7899 19fd 10       		.byte	0x10
 7900 19fe 01       		.uleb128 0x1
 7901 19ff D40E0000 		.4byte	.LASF347
 7902 1a03 1F       		.byte	0x1f
 7903 1a04 52       		.byte	0x52
 7904 1a05 15       		.byte	0x15
 7905 1a06 12010000 		.4byte	0x112
 7906 1a0a 14       		.byte	0x14
 7907 1a0b 01       		.uleb128 0x1
 7908 1a0c E6130000 		.4byte	.LASF348
 7909 1a10 1F       		.byte	0x1f
 7910 1a11 53       		.byte	0x53
 7911 1a12 15       		.byte	0x15
 7912 1a13 12010000 		.4byte	0x112
 7913 1a17 18       		.byte	0x18
 7914 1a18 00       		.byte	0
 7915 1a19 04       		.uleb128 0x4
 7916 1a1a 44150000 		.4byte	.LASF349
 7917 1a1e 1F       		.byte	0x1f
 7918 1a1f 54       		.byte	0x54
 7919 1a20 03       		.byte	0x3
 7920 1a21 B4190000 		.4byte	0x19b4
 7921 1a25 23       		.uleb128 0x23
 7922 1a26 1C070000 		.4byte	.LASF350
 7923 1a2a 1F       		.byte	0x1f
 7924 1a2b 57       		.byte	0x57
 7925 1a2c 18       		.byte	0x18
 7926 1a2d 191A0000 		.4byte	0x1a19
 7927 1a31 14       		.uleb128 0x14
 7928 1a32 10       		.byte	0x10
 7929 1a33 1F       		.byte	0x1f
 7930 1a34 5D       		.byte	0x5d
 7931 1a35 09       		.byte	0x9
 7932 1a36 6F1A0000 		.4byte	0x1a6f
 7933 1a3a 01       		.uleb128 0x1
 7934 1a3b 27060000 		.4byte	.LASF351
 7935 1a3f 1F       		.byte	0x1f
 7936 1a40 5E       		.byte	0x5e
 7937 1a41 15       		.byte	0x15
 7938 1a42 12010000 		.4byte	0x112
 7939 1a46 00       		.byte	0
 7940 1a47 01       		.uleb128 0x1
 7941 1a48 76000000 		.4byte	.LASF352
 7942 1a4c 1F       		.byte	0x1f
 7943 1a4d 5F       		.byte	0x5f
 7944 1a4e 15       		.byte	0x15
 7945 1a4f 12010000 		.4byte	0x112
 7946 1a53 04       		.byte	0x4
 7947 1a54 01       		.uleb128 0x1
ARM GAS  C:\Users\DEVELO~1\AppData\Local\Temp\ccBydanM.s 			page 141


 7948 1a55 F9040000 		.4byte	.LASF353
 7949 1a59 1F       		.byte	0x1f
 7950 1a5a 60       		.byte	0x60
 7951 1a5b 15       		.byte	0x15
 7952 1a5c 12010000 		.4byte	0x112
 7953 1a60 08       		.byte	0x8
 7954 1a61 01       		.uleb128 0x1
 7955 1a62 DF0A0000 		.4byte	.LASF354
 7956 1a66 1F       		.byte	0x1f
 7957 1a67 61       		.byte	0x61
 7958 1a68 15       		.byte	0x15
 7959 1a69 12010000 		.4byte	0x112
 7960 1a6d 0C       		.byte	0xc
 7961 1a6e 00       		.byte	0
 7962 1a6f 04       		.uleb128 0x4
 7963 1a70 83000000 		.4byte	.LASF355
 7964 1a74 1F       		.byte	0x1f
 7965 1a75 62       		.byte	0x62
 7966 1a76 03       		.byte	0x3
 7967 1a77 311A0000 		.4byte	0x1a31
 7968 1a7b 23       		.uleb128 0x23
 7969 1a7c 7A120000 		.4byte	.LASF356
 7970 1a80 1F       		.byte	0x1f
 7971 1a81 65       		.byte	0x65
 7972 1a82 18       		.byte	0x18
 7973 1a83 6F1A0000 		.4byte	0x1a6f
 7974 1a87 23       		.uleb128 0x23
 7975 1a88 670D0000 		.4byte	.LASF357
 7976 1a8c 1F       		.byte	0x1f
 7977 1a8d 68       		.byte	0x68
 7978 1a8e 1A       		.byte	0x1a
 7979 1a8f 12010000 		.4byte	0x112
 7980 1a93 14       		.uleb128 0x14
 7981 1a94 04       		.byte	0x4
 7982 1a95 1F       		.byte	0x1f
 7983 1a96 6E       		.byte	0x6e
 7984 1a97 09       		.byte	0x9
 7985 1a98 B71A0000 		.4byte	0x1ab7
 7986 1a9c 01       		.uleb128 0x1
 7987 1a9d FF110000 		.4byte	.LASF358
 7988 1aa1 1F       		.byte	0x1f
 7989 1aa2 6F       		.byte	0x6f
 7990 1aa3 0B       		.byte	0xb
 7991 1aa4 B71A0000 		.4byte	0x1ab7
 7992 1aa8 00       		.byte	0
 7993 1aa9 0E       		.uleb128 0xe
 7994 1aaa 6C656E00 		.ascii	"len\000"
 7995 1aae 1F       		.byte	0x1f
 7996 1aaf 70       		.byte	0x70
 7997 1ab0 0B       		.byte	0xb
 7998 1ab1 D1000000 		.4byte	0xd1
 7999 1ab5 03       		.byte	0x3
 8000 1ab6 00       		.byte	0
 8001 1ab7 0C       		.uleb128 0xc
 8002 1ab8 D1000000 		.4byte	0xd1
 8003 1abc C71A0000 		.4byte	0x1ac7
 8004 1ac0 0D       		.uleb128 0xd
ARM GAS  C:\Users\DEVELO~1\AppData\Local\Temp\ccBydanM.s 			page 142


 8005 1ac1 43000000 		.4byte	0x43
 8006 1ac5 02       		.byte	0x2
 8007 1ac6 00       		.byte	0
 8008 1ac7 04       		.uleb128 0x4
 8009 1ac8 8D0A0000 		.4byte	.LASF359
 8010 1acc 1F       		.byte	0x1f
 8011 1acd 71       		.byte	0x71
 8012 1ace 03       		.byte	0x3
 8013 1acf 931A0000 		.4byte	0x1a93
 8014 1ad3 11       		.uleb128 0x11
 8015 1ad4 C71A0000 		.4byte	0x1ac7
 8016 1ad8 23       		.uleb128 0x23
 8017 1ad9 C4020000 		.4byte	.LASF360
 8018 1add 20       		.byte	0x20
 8019 1ade 43       		.byte	0x43
 8020 1adf 16       		.byte	0x16
 8021 1ae0 AF0B0000 		.4byte	0xbaf
 8022 1ae4 15       		.uleb128 0x15
 8023 1ae5 5F0C0000 		.4byte	.LASF361
 8024 1ae9 28       		.byte	0x28
 8025 1aea 0D       		.byte	0xd
 8026 1aeb A80B0000 		.4byte	0xba8
 8027 1aef 05       		.uleb128 0x5
 8028 1af0 03       		.byte	0x3
 8029 1af1 00000000 		.4byte	midi_initialized
 8030 1af5 15       		.uleb128 0x15
 8031 1af6 E7090000 		.4byte	.LASF362
 8032 1afa 66       		.byte	0x66
 8033 1afb 12       		.byte	0x12
 8034 1afc B90B0000 		.4byte	0xbb9
 8035 1b00 05       		.uleb128 0x5
 8036 1b01 03       		.byte	0x3
 8037 1b02 00000000 		.4byte	midi_usb_mb
 8038 1b06 0C       		.uleb128 0xc
 8039 1b07 75010000 		.4byte	0x175
 8040 1b0b 161B0000 		.4byte	0x1b16
 8041 1b0f 0D       		.uleb128 0xd
 8042 1b10 43000000 		.4byte	0x43
 8043 1b14 FF       		.byte	0xff
 8044 1b15 00       		.byte	0
 8045 1b16 15       		.uleb128 0x15
 8046 1b17 0F0C0000 		.4byte	.LASF363
 8047 1b1b 68       		.byte	0x68
 8048 1b1c 12       		.byte	0x12
 8049 1b1d 061B0000 		.4byte	0x1b06
 8050 1b21 05       		.uleb128 0x5
 8051 1b22 03       		.byte	0x3
 8052 1b23 00000000 		.4byte	midi_usb_queue
 8053 1b27 15       		.uleb128 0x15
 8054 1b28 CA100000 		.4byte	.LASF364
 8055 1b2c 69       		.byte	0x69
 8056 1b2d 12       		.byte	0x12
 8057 1b2e EE000000 		.4byte	0xee
 8058 1b32 05       		.uleb128 0x5
 8059 1b33 03       		.byte	0x3
 8060 1b34 00000000 		.4byte	midi_usb_queue_fill
 8061 1b38 15       		.uleb128 0x15
ARM GAS  C:\Users\DEVELO~1\AppData\Local\Temp\ccBydanM.s 			page 143


 8062 1b39 AF090000 		.4byte	.LASF365
 8063 1b3d 6A       		.byte	0x6a
 8064 1b3e 12       		.byte	0x12
 8065 1b3f EE000000 		.4byte	0xee
 8066 1b43 05       		.uleb128 0x5
 8067 1b44 03       		.byte	0x3
 8068 1b45 00000000 		.4byte	midi_usb_queue_high_water
 8069 1b49 15       		.uleb128 0x15
 8070 1b4a 580D0000 		.4byte	.LASF366
 8071 1b4e 72       		.byte	0x72
 8072 1b4f 12       		.byte	0x12
 8073 1b50 B90B0000 		.4byte	0xbb9
 8074 1b54 05       		.uleb128 0x5
 8075 1b55 03       		.byte	0x3
 8076 1b56 00000000 		.4byte	midi_usb_rx_mb
 8077 1b5a 0C       		.uleb128 0xc
 8078 1b5b 75010000 		.4byte	0x175
 8079 1b5f 6A1B0000 		.4byte	0x1b6a
 8080 1b63 0D       		.uleb128 0xd
 8081 1b64 43000000 		.4byte	0x43
 8082 1b68 7F       		.byte	0x7f
 8083 1b69 00       		.byte	0
 8084 1b6a 15       		.uleb128 0x15
 8085 1b6b 4C050000 		.4byte	.LASF367
 8086 1b6f 74       		.byte	0x74
 8087 1b70 12       		.byte	0x12
 8088 1b71 5A1B0000 		.4byte	0x1b5a
 8089 1b75 05       		.uleb128 0x5
 8090 1b76 03       		.byte	0x3
 8091 1b77 00000000 		.4byte	midi_usb_rx_queue
 8092 1b7b 15       		.uleb128 0x15
 8093 1b7c 3F140000 		.4byte	.LASF368
 8094 1b80 75       		.byte	0x75
 8095 1b81 11       		.byte	0x11
 8096 1b82 EE000000 		.4byte	0xee
 8097 1b86 05       		.uleb128 0x5
 8098 1b87 03       		.byte	0x3
 8099 1b88 00000000 		.4byte	midi_usb_rx_queue_fill
 8100 1b8c 15       		.uleb128 0x15
 8101 1b8d 5D060000 		.4byte	.LASF369
 8102 1b91 76       		.byte	0x76
 8103 1b92 11       		.byte	0x11
 8104 1b93 EE000000 		.4byte	0xee
 8105 1b97 05       		.uleb128 0x5
 8106 1b98 03       		.byte	0x3
 8107 1b99 00000000 		.4byte	midi_usb_rx_queue_high_water
 8108 1b9d 2E       		.uleb128 0x2e
 8109 1b9e 871A0000 		.4byte	0x1a87
 8110 1ba2 77       		.byte	0x77
 8111 1ba3 13       		.byte	0x13
 8112 1ba4 05       		.uleb128 0x5
 8113 1ba5 03       		.byte	0x3
 8114 1ba6 00000000 		.4byte	midi_usb_rx_drops
 8115 1baa 33       		.uleb128 0x33
 8116 1bab 420A0000 		.4byte	.LASF370
 8117 1baf CC       		.byte	0xcc
 8118 1bb0 270B0000 		.4byte	0xb27
ARM GAS  C:\Users\DEVELO~1\AppData\Local\Temp\ccBydanM.s 			page 144


 8119 1bb4 05       		.uleb128 0x5
 8120 1bb5 03       		.byte	0x3
 8121 1bb6 00000000 		.4byte	tx_sem
 8122 1bba 33       		.uleb128 0x33
 8123 1bbb CF130000 		.4byte	.LASF371
 8124 1bbf CD       		.byte	0xcd
 8125 1bc0 270B0000 		.4byte	0xb27
 8126 1bc4 05       		.uleb128 0x5
 8127 1bc5 03       		.byte	0x3
 8128 1bc6 00000000 		.4byte	sof_sem
 8129 1bca 2E       		.uleb128 0x2e
 8130 1bcb 251A0000 		.4byte	0x1a25
 8131 1bcf D0       		.byte	0xd0
 8132 1bd0 11       		.byte	0x11
 8133 1bd1 05       		.uleb128 0x5
 8134 1bd2 03       		.byte	0x3
 8135 1bd3 00000000 		.4byte	midi_tx_stats
 8136 1bd7 2E       		.uleb128 0x2e
 8137 1bd8 7B1A0000 		.4byte	0x1a7b
 8138 1bdc D3       		.byte	0xd3
 8139 1bdd 11       		.byte	0x11
 8140 1bde 05       		.uleb128 0x5
 8141 1bdf 03       		.byte	0x3
 8142 1be0 00000000 		.4byte	midi_rx_stats
 8143 1be4 15       		.uleb128 0x15
 8144 1be5 A0050000 		.4byte	.LASF372
 8145 1be9 D6       		.byte	0xd6
 8146 1bea 14       		.byte	0x14
 8147 1beb A8190000 		.4byte	0x19a8
 8148 1bef 05       		.uleb128 0x5
 8149 1bf0 03       		.byte	0x3
 8150 1bf1 00000000 		.4byte	midi_rx_dest
 8151 1bf5 0C       		.uleb128 0xc
 8152 1bf6 39010000 		.4byte	0x139
 8153 1bfa 051C0000 		.4byte	0x1c05
 8154 1bfe 0D       		.uleb128 0xd
 8155 1bff 43000000 		.4byte	0x43
 8156 1c03 5D       		.byte	0x5d
 8157 1c04 00       		.byte	0
 8158 1c05 15       		.uleb128 0x15
 8159 1c06 7C050000 		.4byte	.LASF373
 8160 1c0a EF       		.byte	0xef
 8161 1c0b 08       		.byte	0x8
 8162 1c0c F51B0000 		.4byte	0x1bf5
 8163 1c10 05       		.uleb128 0x5
 8164 1c11 03       		.byte	0x3
 8165 1c12 00000000 		.4byte	waMidiUsbTx
 8166 1c16 24       		.uleb128 0x24
 8167 1c17 00030000 		.4byte	.LASF374
 8168 1c1b 18       		.byte	0x18
 8169 1c1c 6F       		.byte	0x6f
 8170 1c1d 75010000 		.4byte	0x175
 8171 1c21 351C0000 		.4byte	0x1c35
 8172 1c25 03       		.uleb128 0x3
 8173 1c26 351C0000 		.4byte	0x1c35
 8174 1c2a 03       		.uleb128 0x3
 8175 1c2b 75010000 		.4byte	0x175
ARM GAS  C:\Users\DEVELO~1\AppData\Local\Temp\ccBydanM.s 			page 145


 8176 1c2f 03       		.uleb128 0x3
 8177 1c30 BB030000 		.4byte	0x3bb
 8178 1c34 00       		.byte	0
 8179 1c35 06       		.uleb128 0x6
 8180 1c36 B90B0000 		.4byte	0xbb9
 8181 1c3a 2F       		.uleb128 0x2f
 8182 1c3b 5D110000 		.4byte	.LASF375
 8183 1c3f 19       		.byte	0x19
 8184 1c40 3F01     		.2byte	0x13f
 8185 1c42 0A       		.byte	0xa
 8186 1c43 2D000000 		.4byte	0x2d
 8187 1c47 601C0000 		.4byte	0x1c60
 8188 1c4b 03       		.uleb128 0x3
 8189 1c4c 601C0000 		.4byte	0x1c60
 8190 1c50 03       		.uleb128 0x3
 8191 1c51 E30B0000 		.4byte	0xbe3
 8192 1c55 03       		.uleb128 0x3
 8193 1c56 2D000000 		.4byte	0x2d
 8194 1c5a 03       		.uleb128 0x3
 8195 1c5b BB030000 		.4byte	0x3bb
 8196 1c5f 00       		.byte	0
 8197 1c60 06       		.uleb128 0x6
 8198 1c61 820D0000 		.4byte	0xd82
 8199 1c65 34       		.uleb128 0x34
 8200 1c66 5A100000 		.4byte	.LASF377
 8201 1c6a 14       		.byte	0x14
 8202 1c6b 5B       		.byte	0x5b
 8203 1c6c 7B1C0000 		.4byte	0x1c7b
 8204 1c70 03       		.uleb128 0x3
 8205 1c71 7B1C0000 		.4byte	0x1c7b
 8206 1c75 03       		.uleb128 0x3
 8207 1c76 99010000 		.4byte	0x199
 8208 1c7a 00       		.byte	0
 8209 1c7b 06       		.uleb128 0x6
 8210 1c7c 680A0000 		.4byte	0xa68
 8211 1c80 2F       		.uleb128 0x2f
 8212 1c81 AD050000 		.4byte	.LASF376
 8213 1c85 16       		.byte	0x16
 8214 1c86 2C01     		.2byte	0x12c
 8215 1c88 0D       		.byte	0xd
 8216 1c89 E8040000 		.4byte	0x4e8
 8217 1c8d AB1C0000 		.4byte	0x1cab
 8218 1c91 03       		.uleb128 0x3
 8219 1c92 ED040000 		.4byte	0x4ed
 8220 1c96 03       		.uleb128 0x3
 8221 1c97 2D000000 		.4byte	0x2d
 8222 1c9b 03       		.uleb128 0x3
 8223 1c9c 69010000 		.4byte	0x169
 8224 1ca0 03       		.uleb128 0x3
 8225 1ca1 3C0A0000 		.4byte	0xa3c
 8226 1ca5 03       		.uleb128 0x3
 8227 1ca6 ED040000 		.4byte	0x4ed
 8228 1caa 00       		.byte	0
 8229 1cab 34       		.uleb128 0x34
 8230 1cac 5E120000 		.4byte	.LASF378
 8231 1cb0 18       		.byte	0x18
 8232 1cb1 6C       		.byte	0x6c
ARM GAS  C:\Users\DEVELO~1\AppData\Local\Temp\ccBydanM.s 			page 146


 8233 1cb2 C61C0000 		.4byte	0x1cc6
 8234 1cb6 03       		.uleb128 0x3
 8235 1cb7 351C0000 		.4byte	0x1c35
 8236 1cbb 03       		.uleb128 0x3
 8237 1cbc A30B0000 		.4byte	0xba3
 8238 1cc0 03       		.uleb128 0x3
 8239 1cc1 2D000000 		.4byte	0x2d
 8240 1cc5 00       		.byte	0
 8241 1cc6 2F       		.uleb128 0x2f
 8242 1cc7 63150000 		.4byte	.LASF379
 8243 1ccb 1A       		.byte	0x1a
 8244 1ccc 8601     		.2byte	0x186
 8245 1cce 09       		.byte	0x9
 8246 1ccf 75010000 		.4byte	0x175
 8247 1cd3 E21C0000 		.4byte	0x1ce2
 8248 1cd7 03       		.uleb128 0x3
 8249 1cd8 E21C0000 		.4byte	0x1ce2
 8250 1cdc 03       		.uleb128 0x3
 8251 1cdd E71C0000 		.4byte	0x1ce7
 8252 1ce1 00       		.byte	0
 8253 1ce2 06       		.uleb128 0x6
 8254 1ce3 BE0D0000 		.4byte	0xdbe
 8255 1ce7 06       		.uleb128 0x6
 8256 1ce8 940E0000 		.4byte	0xe94
 8257 1cec 45       		.uleb128 0x45
 8258 1ced 41100000 		.4byte	.LASF380
 8259 1cf1 1C       		.byte	0x1c
 8260 1cf2 6702     		.2byte	0x267
 8261 1cf4 08       		.byte	0x8
 8262 1cf5 0E1D0000 		.4byte	0x1d0e
 8263 1cf9 03       		.uleb128 0x3
 8264 1cfa 90110000 		.4byte	0x1190
 8265 1cfe 03       		.uleb128 0x3
 8266 1cff 6B100000 		.4byte	0x106b
 8267 1d03 03       		.uleb128 0x3
 8268 1d04 E30B0000 		.4byte	0xbe3
 8269 1d08 03       		.uleb128 0x3
 8270 1d09 2D000000 		.4byte	0x2d
 8271 1d0d 00       		.byte	0
 8272 1d0e 24       		.uleb128 0x24
 8273 1d0f A6010000 		.4byte	.LASF381
 8274 1d13 14       		.byte	0x14
 8275 1d14 60       		.byte	0x60
 8276 1d15 75010000 		.4byte	0x175
 8277 1d19 281D0000 		.4byte	0x1d28
 8278 1d1d 03       		.uleb128 0x3
 8279 1d1e 7B1C0000 		.4byte	0x1c7b
 8280 1d22 03       		.uleb128 0x3
 8281 1d23 BB030000 		.4byte	0x3bb
 8282 1d27 00       		.byte	0
 8283 1d28 24       		.uleb128 0x24
 8284 1d29 B2120000 		.4byte	.LASF382
 8285 1d2d 18       		.byte	0x18
 8286 1d2e 75       		.byte	0x75
 8287 1d2f 75010000 		.4byte	0x175
 8288 1d33 471D0000 		.4byte	0x1d47
 8289 1d37 03       		.uleb128 0x3
ARM GAS  C:\Users\DEVELO~1\AppData\Local\Temp\ccBydanM.s 			page 147


 8290 1d38 351C0000 		.4byte	0x1c35
 8291 1d3c 03       		.uleb128 0x3
 8292 1d3d A30B0000 		.4byte	0xba3
 8293 1d41 03       		.uleb128 0x3
 8294 1d42 BB030000 		.4byte	0x3bb
 8295 1d46 00       		.byte	0
 8296 1d47 24       		.uleb128 0x24
 8297 1d48 AE080000 		.4byte	.LASF383
 8298 1d4c 18       		.byte	0x18
 8299 1d4d 71       		.byte	0x71
 8300 1d4e 75010000 		.4byte	0x175
 8301 1d52 611D0000 		.4byte	0x1d61
 8302 1d56 03       		.uleb128 0x3
 8303 1d57 351C0000 		.4byte	0x1c35
 8304 1d5b 03       		.uleb128 0x3
 8305 1d5c 75010000 		.4byte	0x175
 8306 1d60 00       		.byte	0
 8307 1d61 46       		.uleb128 0x46
 8308 1d62 D3110000 		.4byte	.LASF468
 8309 1d66 07       		.byte	0x7
 8310 1d67 FF02     		.2byte	0x2ff
 8311 1d69 06       		.byte	0x6
 8312 1d6a 00000000 		.4byte	.LFB481
 8313 1d6e 44000000 		.4byte	.LFE481-.LFB481
 8314 1d72 01       		.uleb128 0x1
 8315 1d73 9C       		.byte	0x9c
 8316 1d74 30       		.uleb128 0x30
 8317 1d75 DA0F0000 		.4byte	.LASF384
 8318 1d79 F802     		.2byte	0x2f8
 8319 1d7b 0A       		.byte	0xa
 8320 1d7c EE000000 		.4byte	0xee
 8321 1d80 00000000 		.4byte	.LFB480
 8322 1d84 14000000 		.4byte	.LFE480-.LFB480
 8323 1d88 01       		.uleb128 0x1
 8324 1d89 9C       		.byte	0x9c
 8325 1d8a 30       		.uleb128 0x30
 8326 1d8b 5E050000 		.4byte	.LASF385
 8327 1d8f F402     		.2byte	0x2f4
 8328 1d91 0A       		.byte	0xa
 8329 1d92 EE000000 		.4byte	0xee
 8330 1d96 00000000 		.4byte	.LFB479
 8331 1d9a 14000000 		.4byte	.LFE479-.LFB479
 8332 1d9e 01       		.uleb128 0x1
 8333 1d9f 9C       		.byte	0x9c
 8334 1da0 0B       		.uleb128 0xb
 8335 1da1 92090000 		.4byte	.LASF387
 8336 1da5 F002     		.2byte	0x2f0
 8337 1da7 00000000 		.4byte	.LFB478
 8338 1dab 24000000 		.4byte	.LFE478-.LFB478
 8339 1daf 01       		.uleb128 0x1
 8340 1db0 9C       		.byte	0x9c
 8341 1db1 D31D0000 		.4byte	0x1dd3
 8342 1db5 13       		.uleb128 0x13
 8343 1db6 C7030000 		.4byte	.LASF386
 8344 1dba F002     		.2byte	0x2f0
 8345 1dbc 24       		.byte	0x24
 8346 1dbd A8190000 		.4byte	0x19a8
ARM GAS  C:\Users\DEVELO~1\AppData\Local\Temp\ccBydanM.s 			page 148


 8347 1dc1 02       		.uleb128 0x2
 8348 1dc2 91       		.byte	0x91
 8349 1dc3 77       		.sleb128 -9
 8350 1dc4 05       		.uleb128 0x5
 8351 1dc5 636800   		.ascii	"ch\000"
 8352 1dc8 F002     		.2byte	0x2f0
 8353 1dca 32       		.byte	0x32
 8354 1dcb D1000000 		.4byte	0xd1
 8355 1dcf 02       		.uleb128 0x2
 8356 1dd0 91       		.byte	0x91
 8357 1dd1 76       		.sleb128 -10
 8358 1dd2 00       		.byte	0
 8359 1dd3 0B       		.uleb128 0xb
 8360 1dd4 33130000 		.4byte	.LASF388
 8361 1dd8 EC02     		.2byte	0x2ec
 8362 1dda 00000000 		.4byte	.LFB477
 8363 1dde 26000000 		.4byte	.LFE477-.LFB477
 8364 1de2 01       		.uleb128 0x1
 8365 1de3 9C       		.byte	0x9c
 8366 1de4 151E0000 		.4byte	0x1e15
 8367 1de8 13       		.uleb128 0x13
 8368 1de9 C7030000 		.4byte	.LASF386
 8369 1ded EC02     		.2byte	0x2ec
 8370 1def 24       		.byte	0x24
 8371 1df0 A8190000 		.4byte	0x19a8
 8372 1df4 02       		.uleb128 0x2
 8373 1df5 91       		.byte	0x91
 8374 1df6 77       		.sleb128 -9
 8375 1df7 05       		.uleb128 0x5
 8376 1df8 636800   		.ascii	"ch\000"
 8377 1dfb EC02     		.2byte	0x2ec
 8378 1dfd 32       		.byte	0x32
 8379 1dfe D1000000 		.4byte	0xd1
 8380 1e02 02       		.uleb128 0x2
 8381 1e03 91       		.byte	0x91
 8382 1e04 76       		.sleb128 -10
 8383 1e05 13       		.uleb128 0x13
 8384 1e06 2F090000 		.4byte	.LASF389
 8385 1e0a EC02     		.2byte	0x2ec
 8386 1e0c 3E       		.byte	0x3e
 8387 1e0d D1000000 		.4byte	0xd1
 8388 1e11 02       		.uleb128 0x2
 8389 1e12 91       		.byte	0x91
 8390 1e13 75       		.sleb128 -11
 8391 1e14 00       		.byte	0
 8392 1e15 0B       		.uleb128 0xb
 8393 1e16 43020000 		.4byte	.LASF390
 8394 1e1a E802     		.2byte	0x2e8
 8395 1e1c 00000000 		.4byte	.LFB476
 8396 1e20 24000000 		.4byte	.LFE476-.LFB476
 8397 1e24 01       		.uleb128 0x1
 8398 1e25 9C       		.byte	0x9c
 8399 1e26 481E0000 		.4byte	0x1e48
 8400 1e2a 13       		.uleb128 0x13
 8401 1e2b C7030000 		.4byte	.LASF386
 8402 1e2f E802     		.2byte	0x2e8
 8403 1e31 24       		.byte	0x24
ARM GAS  C:\Users\DEVELO~1\AppData\Local\Temp\ccBydanM.s 			page 149


 8404 1e32 A8190000 		.4byte	0x19a8
 8405 1e36 02       		.uleb128 0x2
 8406 1e37 91       		.byte	0x91
 8407 1e38 77       		.sleb128 -9
 8408 1e39 05       		.uleb128 0x5
 8409 1e3a 636800   		.ascii	"ch\000"
 8410 1e3d E802     		.2byte	0x2e8
 8411 1e3f 32       		.byte	0x32
 8412 1e40 D1000000 		.4byte	0xd1
 8413 1e44 02       		.uleb128 0x2
 8414 1e45 91       		.byte	0x91
 8415 1e46 76       		.sleb128 -10
 8416 1e47 00       		.byte	0
 8417 1e48 0B       		.uleb128 0xb
 8418 1e49 750E0000 		.4byte	.LASF391
 8419 1e4d E402     		.2byte	0x2e4
 8420 1e4f 00000000 		.4byte	.LFB475
 8421 1e53 24000000 		.4byte	.LFE475-.LFB475
 8422 1e57 01       		.uleb128 0x1
 8423 1e58 9C       		.byte	0x9c
 8424 1e59 7B1E0000 		.4byte	0x1e7b
 8425 1e5d 13       		.uleb128 0x13
 8426 1e5e C7030000 		.4byte	.LASF386
 8427 1e62 E402     		.2byte	0x2e4
 8428 1e64 25       		.byte	0x25
 8429 1e65 A8190000 		.4byte	0x19a8
 8430 1e69 02       		.uleb128 0x2
 8431 1e6a 91       		.byte	0x91
 8432 1e6b 77       		.sleb128 -9
 8433 1e6c 05       		.uleb128 0x5
 8434 1e6d 636800   		.ascii	"ch\000"
 8435 1e70 E402     		.2byte	0x2e4
 8436 1e72 33       		.byte	0x33
 8437 1e73 D1000000 		.4byte	0xd1
 8438 1e77 02       		.uleb128 0x2
 8439 1e78 91       		.byte	0x91
 8440 1e79 76       		.sleb128 -10
 8441 1e7a 00       		.byte	0
 8442 1e7b 0B       		.uleb128 0xb
 8443 1e7c 89140000 		.4byte	.LASF392
 8444 1e80 E002     		.2byte	0x2e0
 8445 1e82 00000000 		.4byte	.LFB474
 8446 1e86 24000000 		.4byte	.LFE474-.LFB474
 8447 1e8a 01       		.uleb128 0x1
 8448 1e8b 9C       		.byte	0x9c
 8449 1e8c AE1E0000 		.4byte	0x1eae
 8450 1e90 13       		.uleb128 0x13
 8451 1e91 C7030000 		.4byte	.LASF386
 8452 1e95 E002     		.2byte	0x2e0
 8453 1e97 25       		.byte	0x25
 8454 1e98 A8190000 		.4byte	0x19a8
 8455 1e9c 02       		.uleb128 0x2
 8456 1e9d 91       		.byte	0x91
 8457 1e9e 77       		.sleb128 -9
 8458 1e9f 05       		.uleb128 0x5
 8459 1ea0 636800   		.ascii	"ch\000"
 8460 1ea3 E002     		.2byte	0x2e0
ARM GAS  C:\Users\DEVELO~1\AppData\Local\Temp\ccBydanM.s 			page 150


 8461 1ea5 33       		.byte	0x33
 8462 1ea6 D1000000 		.4byte	0xd1
 8463 1eaa 02       		.uleb128 0x2
 8464 1eab 91       		.byte	0x91
 8465 1eac 76       		.sleb128 -10
 8466 1ead 00       		.byte	0
 8467 1eae 0B       		.uleb128 0xb
 8468 1eaf A40D0000 		.4byte	.LASF393
 8469 1eb3 DC02     		.2byte	0x2dc
 8470 1eb5 00000000 		.4byte	.LFB473
 8471 1eb9 30000000 		.4byte	.LFE473-.LFB473
 8472 1ebd 01       		.uleb128 0x1
 8473 1ebe 9C       		.byte	0x9c
 8474 1ebf EF1E0000 		.4byte	0x1eef
 8475 1ec3 13       		.uleb128 0x13
 8476 1ec4 C7030000 		.4byte	.LASF386
 8477 1ec8 DC02     		.2byte	0x2dc
 8478 1eca 25       		.byte	0x25
 8479 1ecb A8190000 		.4byte	0x19a8
 8480 1ecf 02       		.uleb128 0x2
 8481 1ed0 91       		.byte	0x91
 8482 1ed1 77       		.sleb128 -9
 8483 1ed2 05       		.uleb128 0x5
 8484 1ed3 636800   		.ascii	"ch\000"
 8485 1ed6 DC02     		.2byte	0x2dc
 8486 1ed8 33       		.byte	0x33
 8487 1ed9 D1000000 		.4byte	0xd1
 8488 1edd 02       		.uleb128 0x2
 8489 1ede 91       		.byte	0x91
 8490 1edf 76       		.sleb128 -10
 8491 1ee0 05       		.uleb128 0x5
 8492 1ee1 6F6E00   		.ascii	"on\000"
 8493 1ee4 DC02     		.2byte	0x2dc
 8494 1ee6 3C       		.byte	0x3c
 8495 1ee7 A80B0000 		.4byte	0xba8
 8496 1eeb 02       		.uleb128 0x2
 8497 1eec 91       		.byte	0x91
 8498 1eed 75       		.sleb128 -11
 8499 1eee 00       		.byte	0
 8500 1eef 0B       		.uleb128 0xb
 8501 1ef0 C40A0000 		.4byte	.LASF394
 8502 1ef4 D802     		.2byte	0x2d8
 8503 1ef6 00000000 		.4byte	.LFB472
 8504 1efa 24000000 		.4byte	.LFE472-.LFB472
 8505 1efe 01       		.uleb128 0x1
 8506 1eff 9C       		.byte	0x9c
 8507 1f00 221F0000 		.4byte	0x1f22
 8508 1f04 13       		.uleb128 0x13
 8509 1f05 C7030000 		.4byte	.LASF386
 8510 1f09 D802     		.2byte	0x2d8
 8511 1f0b 2D       		.byte	0x2d
 8512 1f0c A8190000 		.4byte	0x19a8
 8513 1f10 02       		.uleb128 0x2
 8514 1f11 91       		.byte	0x91
 8515 1f12 77       		.sleb128 -9
 8516 1f13 05       		.uleb128 0x5
 8517 1f14 636800   		.ascii	"ch\000"
ARM GAS  C:\Users\DEVELO~1\AppData\Local\Temp\ccBydanM.s 			page 151


 8518 1f17 D802     		.2byte	0x2d8
 8519 1f19 3B       		.byte	0x3b
 8520 1f1a D1000000 		.4byte	0xd1
 8521 1f1e 02       		.uleb128 0x2
 8522 1f1f 91       		.byte	0x91
 8523 1f20 76       		.sleb128 -10
 8524 1f21 00       		.byte	0
 8525 1f22 0B       		.uleb128 0xb
 8526 1f23 2C0E0000 		.4byte	.LASF395
 8527 1f27 D402     		.2byte	0x2d4
 8528 1f29 00000000 		.4byte	.LFB471
 8529 1f2d 24000000 		.4byte	.LFE471-.LFB471
 8530 1f31 01       		.uleb128 0x1
 8531 1f32 9C       		.byte	0x9c
 8532 1f33 551F0000 		.4byte	0x1f55
 8533 1f37 13       		.uleb128 0x13
 8534 1f38 C7030000 		.4byte	.LASF386
 8535 1f3c D402     		.2byte	0x2d4
 8536 1f3e 25       		.byte	0x25
 8537 1f3f A8190000 		.4byte	0x19a8
 8538 1f43 02       		.uleb128 0x2
 8539 1f44 91       		.byte	0x91
 8540 1f45 77       		.sleb128 -9
 8541 1f46 05       		.uleb128 0x5
 8542 1f47 636800   		.ascii	"ch\000"
 8543 1f4a D402     		.2byte	0x2d4
 8544 1f4c 33       		.byte	0x33
 8545 1f4d D1000000 		.4byte	0xd1
 8546 1f51 02       		.uleb128 0x2
 8547 1f52 91       		.byte	0x91
 8548 1f53 76       		.sleb128 -10
 8549 1f54 00       		.byte	0
 8550 1f55 1B       		.uleb128 0x1b
 8551 1f56 4D0F0000 		.4byte	.LASF417
 8552 1f5a CB02     		.2byte	0x2cb
 8553 1f5c 0D       		.byte	0xd
 8554 1f5d 00000000 		.4byte	.LFB470
 8555 1f61 5C000000 		.4byte	.LFE470-.LFB470
 8556 1f65 01       		.uleb128 0x1
 8557 1f66 9C       		.byte	0x9c
 8558 1f67 B61F0000 		.4byte	0x1fb6
 8559 1f6b 13       		.uleb128 0x13
 8560 1f6c C7030000 		.4byte	.LASF386
 8561 1f70 CB02     		.2byte	0x2cb
 8562 1f72 2E       		.byte	0x2e
 8563 1f73 A8190000 		.4byte	0x19a8
 8564 1f77 02       		.uleb128 0x2
 8565 1f78 91       		.byte	0x91
 8566 1f79 67       		.sleb128 -25
 8567 1f7a 05       		.uleb128 0x5
 8568 1f7b 636800   		.ascii	"ch\000"
 8569 1f7e CB02     		.2byte	0x2cb
 8570 1f80 3C       		.byte	0x3c
 8571 1f81 D1000000 		.4byte	0xd1
 8572 1f85 02       		.uleb128 0x2
 8573 1f86 91       		.byte	0x91
 8574 1f87 66       		.sleb128 -26
ARM GAS  C:\Users\DEVELO~1\AppData\Local\Temp\ccBydanM.s 			page 152


 8575 1f88 13       		.uleb128 0x13
 8576 1f89 EB100000 		.4byte	.LASF396
 8577 1f8d CB02     		.2byte	0x2cb
 8578 1f8f 48       		.byte	0x48
 8579 1f90 D1000000 		.4byte	0xd1
 8580 1f94 02       		.uleb128 0x2
 8581 1f95 91       		.byte	0x91
 8582 1f96 65       		.sleb128 -27
 8583 1f97 13       		.uleb128 0x13
 8584 1f98 10070000 		.4byte	.LASF397
 8585 1f9c CB02     		.2byte	0x2cb
 8586 1f9e 59       		.byte	0x59
 8587 1f9f D1000000 		.4byte	0xd1
 8588 1fa3 02       		.uleb128 0x2
 8589 1fa4 91       		.byte	0x91
 8590 1fa5 64       		.sleb128 -28
 8591 1fa6 07       		.uleb128 0x7
 8592 1fa7 6D736700 		.ascii	"msg\000"
 8593 1fab CC02     		.2byte	0x2cc
 8594 1fad 0B       		.byte	0xb
 8595 1fae B71A0000 		.4byte	0x1ab7
 8596 1fb2 02       		.uleb128 0x2
 8597 1fb3 91       		.byte	0x91
 8598 1fb4 6C       		.sleb128 -20
 8599 1fb5 00       		.byte	0
 8600 1fb6 0B       		.uleb128 0xb
 8601 1fb7 85010000 		.4byte	.LASF398
 8602 1fbb C502     		.2byte	0x2c5
 8603 1fbd 00000000 		.4byte	.LFB469
 8604 1fc1 24000000 		.4byte	.LFE469-.LFB469
 8605 1fc5 01       		.uleb128 0x1
 8606 1fc6 9C       		.byte	0x9c
 8607 1fc7 E61F0000 		.4byte	0x1fe6
 8608 1fcb 05       		.uleb128 0x5
 8609 1fcc 6400     		.ascii	"d\000"
 8610 1fce C502     		.2byte	0x2c5
 8611 1fd0 24       		.byte	0x24
 8612 1fd1 A8190000 		.4byte	0x19a8
 8613 1fd5 02       		.uleb128 0x2
 8614 1fd6 91       		.byte	0x91
 8615 1fd7 6F       		.sleb128 -17
 8616 1fd8 07       		.uleb128 0x7
 8617 1fd9 6D00     		.ascii	"m\000"
 8618 1fdb C602     		.2byte	0x2c6
 8619 1fdd 0B       		.byte	0xb
 8620 1fde E61F0000 		.4byte	0x1fe6
 8621 1fe2 02       		.uleb128 0x2
 8622 1fe3 91       		.byte	0x91
 8623 1fe4 74       		.sleb128 -12
 8624 1fe5 00       		.byte	0
 8625 1fe6 0C       		.uleb128 0xc
 8626 1fe7 D1000000 		.4byte	0xd1
 8627 1feb F61F0000 		.4byte	0x1ff6
 8628 1fef 0D       		.uleb128 0xd
 8629 1ff0 43000000 		.4byte	0x43
 8630 1ff4 00       		.byte	0
 8631 1ff5 00       		.byte	0
ARM GAS  C:\Users\DEVELO~1\AppData\Local\Temp\ccBydanM.s 			page 153


 8632 1ff6 0B       		.uleb128 0xb
 8633 1ff7 0C020000 		.4byte	.LASF399
 8634 1ffb C002     		.2byte	0x2c0
 8635 1ffd 00000000 		.4byte	.LFB468
 8636 2001 24000000 		.4byte	.LFE468-.LFB468
 8637 2005 01       		.uleb128 0x1
 8638 2006 9C       		.byte	0x9c
 8639 2007 26200000 		.4byte	0x2026
 8640 200b 05       		.uleb128 0x5
 8641 200c 6400     		.ascii	"d\000"
 8642 200e C002     		.2byte	0x2c0
 8643 2010 26       		.byte	0x26
 8644 2011 A8190000 		.4byte	0x19a8
 8645 2015 02       		.uleb128 0x2
 8646 2016 91       		.byte	0x91
 8647 2017 6F       		.sleb128 -17
 8648 2018 07       		.uleb128 0x7
 8649 2019 6D00     		.ascii	"m\000"
 8650 201b C102     		.2byte	0x2c1
 8651 201d 0B       		.byte	0xb
 8652 201e E61F0000 		.4byte	0x1fe6
 8653 2022 02       		.uleb128 0x2
 8654 2023 91       		.byte	0x91
 8655 2024 74       		.sleb128 -12
 8656 2025 00       		.byte	0
 8657 2026 0B       		.uleb128 0xb
 8658 2027 250C0000 		.4byte	.LASF400
 8659 202b BB02     		.2byte	0x2bb
 8660 202d 00000000 		.4byte	.LFB467
 8661 2031 24000000 		.4byte	.LFE467-.LFB467
 8662 2035 01       		.uleb128 0x1
 8663 2036 9C       		.byte	0x9c
 8664 2037 56200000 		.4byte	0x2056
 8665 203b 05       		.uleb128 0x5
 8666 203c 6400     		.ascii	"d\000"
 8667 203e BB02     		.2byte	0x2bb
 8668 2040 1C       		.byte	0x1c
 8669 2041 A8190000 		.4byte	0x19a8
 8670 2045 02       		.uleb128 0x2
 8671 2046 91       		.byte	0x91
 8672 2047 6F       		.sleb128 -17
 8673 2048 07       		.uleb128 0x7
 8674 2049 6D00     		.ascii	"m\000"
 8675 204b BC02     		.2byte	0x2bc
 8676 204d 0B       		.byte	0xb
 8677 204e E61F0000 		.4byte	0x1fe6
 8678 2052 02       		.uleb128 0x2
 8679 2053 91       		.byte	0x91
 8680 2054 74       		.sleb128 -12
 8681 2055 00       		.byte	0
 8682 2056 0B       		.uleb128 0xb
 8683 2057 7B150000 		.4byte	.LASF401
 8684 205b B602     		.2byte	0x2b6
 8685 205d 00000000 		.4byte	.LFB466
 8686 2061 24000000 		.4byte	.LFE466-.LFB466
 8687 2065 01       		.uleb128 0x1
 8688 2066 9C       		.byte	0x9c
ARM GAS  C:\Users\DEVELO~1\AppData\Local\Temp\ccBydanM.s 			page 154


 8689 2067 86200000 		.4byte	0x2086
 8690 206b 05       		.uleb128 0x5
 8691 206c 6400     		.ascii	"d\000"
 8692 206e B602     		.2byte	0x2b6
 8693 2070 20       		.byte	0x20
 8694 2071 A8190000 		.4byte	0x19a8
 8695 2075 02       		.uleb128 0x2
 8696 2076 91       		.byte	0x91
 8697 2077 6F       		.sleb128 -17
 8698 2078 07       		.uleb128 0x7
 8699 2079 6D00     		.ascii	"m\000"
 8700 207b B702     		.2byte	0x2b7
 8701 207d 0B       		.byte	0xb
 8702 207e E61F0000 		.4byte	0x1fe6
 8703 2082 02       		.uleb128 0x2
 8704 2083 91       		.byte	0x91
 8705 2084 74       		.sleb128 -12
 8706 2085 00       		.byte	0
 8707 2086 0B       		.uleb128 0xb
 8708 2087 FB0C0000 		.4byte	.LASF402
 8709 208b B102     		.2byte	0x2b1
 8710 208d 00000000 		.4byte	.LFB465
 8711 2091 24000000 		.4byte	.LFE465-.LFB465
 8712 2095 01       		.uleb128 0x1
 8713 2096 9C       		.byte	0x9c
 8714 2097 B6200000 		.4byte	0x20b6
 8715 209b 05       		.uleb128 0x5
 8716 209c 6400     		.ascii	"d\000"
 8717 209e B102     		.2byte	0x2b1
 8718 20a0 1D       		.byte	0x1d
 8719 20a1 A8190000 		.4byte	0x19a8
 8720 20a5 02       		.uleb128 0x2
 8721 20a6 91       		.byte	0x91
 8722 20a7 6F       		.sleb128 -17
 8723 20a8 07       		.uleb128 0x7
 8724 20a9 6D00     		.ascii	"m\000"
 8725 20ab B202     		.2byte	0x2b2
 8726 20ad 0B       		.byte	0xb
 8727 20ae E61F0000 		.4byte	0x1fe6
 8728 20b2 02       		.uleb128 0x2
 8729 20b3 91       		.byte	0x91
 8730 20b4 74       		.sleb128 -12
 8731 20b5 00       		.byte	0
 8732 20b6 0B       		.uleb128 0xb
 8733 20b7 1F120000 		.4byte	.LASF403
 8734 20bb AC02     		.2byte	0x2ac
 8735 20bd 00000000 		.4byte	.LFB464
 8736 20c1 24000000 		.4byte	.LFE464-.LFB464
 8737 20c5 01       		.uleb128 0x1
 8738 20c6 9C       		.byte	0x9c
 8739 20c7 E6200000 		.4byte	0x20e6
 8740 20cb 05       		.uleb128 0x5
 8741 20cc 6400     		.ascii	"d\000"
 8742 20ce AC02     		.2byte	0x2ac
 8743 20d0 1D       		.byte	0x1d
 8744 20d1 A8190000 		.4byte	0x19a8
 8745 20d5 02       		.uleb128 0x2
ARM GAS  C:\Users\DEVELO~1\AppData\Local\Temp\ccBydanM.s 			page 155


 8746 20d6 91       		.byte	0x91
 8747 20d7 6F       		.sleb128 -17
 8748 20d8 07       		.uleb128 0x7
 8749 20d9 6D00     		.ascii	"m\000"
 8750 20db AD02     		.2byte	0x2ad
 8751 20dd 0B       		.byte	0xb
 8752 20de E61F0000 		.4byte	0x1fe6
 8753 20e2 02       		.uleb128 0x2
 8754 20e3 91       		.byte	0x91
 8755 20e4 74       		.sleb128 -12
 8756 20e5 00       		.byte	0
 8757 20e6 0B       		.uleb128 0xb
 8758 20e7 15060000 		.4byte	.LASF404
 8759 20eb A702     		.2byte	0x2a7
 8760 20ed 00000000 		.4byte	.LFB463
 8761 20f1 24000000 		.4byte	.LFE463-.LFB463
 8762 20f5 01       		.uleb128 0x1
 8763 20f6 9C       		.byte	0x9c
 8764 20f7 16210000 		.4byte	0x2116
 8765 20fb 05       		.uleb128 0x5
 8766 20fc 6400     		.ascii	"d\000"
 8767 20fe A702     		.2byte	0x2a7
 8768 2100 24       		.byte	0x24
 8769 2101 A8190000 		.4byte	0x19a8
 8770 2105 02       		.uleb128 0x2
 8771 2106 91       		.byte	0x91
 8772 2107 6F       		.sleb128 -17
 8773 2108 07       		.uleb128 0x7
 8774 2109 6D00     		.ascii	"m\000"
 8775 210b A802     		.2byte	0x2a8
 8776 210d 0B       		.byte	0xb
 8777 210e E61F0000 		.4byte	0x1fe6
 8778 2112 02       		.uleb128 0x2
 8779 2113 91       		.byte	0x91
 8780 2114 74       		.sleb128 -12
 8781 2115 00       		.byte	0
 8782 2116 0B       		.uleb128 0xb
 8783 2117 FC100000 		.4byte	.LASF405
 8784 211b A202     		.2byte	0x2a2
 8785 211d 00000000 		.4byte	.LFB462
 8786 2121 34000000 		.4byte	.LFE462-.LFB462
 8787 2125 01       		.uleb128 0x1
 8788 2126 9C       		.byte	0x9c
 8789 2127 53210000 		.4byte	0x2153
 8790 212b 05       		.uleb128 0x5
 8791 212c 6400     		.ascii	"d\000"
 8792 212e A202     		.2byte	0x2a2
 8793 2130 23       		.byte	0x23
 8794 2131 A8190000 		.4byte	0x19a8
 8795 2135 02       		.uleb128 0x2
 8796 2136 91       		.byte	0x91
 8797 2137 6F       		.sleb128 -17
 8798 2138 05       		.uleb128 0x5
 8799 2139 7300     		.ascii	"s\000"
 8800 213b A202     		.2byte	0x2a2
 8801 213d 2D       		.byte	0x2d
 8802 213e D1000000 		.4byte	0xd1
ARM GAS  C:\Users\DEVELO~1\AppData\Local\Temp\ccBydanM.s 			page 156


 8803 2142 02       		.uleb128 0x2
 8804 2143 91       		.byte	0x91
 8805 2144 6E       		.sleb128 -18
 8806 2145 07       		.uleb128 0x7
 8807 2146 6D00     		.ascii	"m\000"
 8808 2148 A302     		.2byte	0x2a3
 8809 214a 0B       		.byte	0xb
 8810 214b 53210000 		.4byte	0x2153
 8811 214f 02       		.uleb128 0x2
 8812 2150 91       		.byte	0x91
 8813 2151 74       		.sleb128 -12
 8814 2152 00       		.byte	0
 8815 2153 0C       		.uleb128 0xc
 8816 2154 D1000000 		.4byte	0xd1
 8817 2158 63210000 		.4byte	0x2163
 8818 215c 0D       		.uleb128 0xd
 8819 215d 43000000 		.4byte	0x43
 8820 2161 01       		.byte	0x1
 8821 2162 00       		.byte	0
 8822 2163 0B       		.uleb128 0xb
 8823 2164 F4080000 		.4byte	.LASF406
 8824 2168 9C02     		.2byte	0x29c
 8825 216a 00000000 		.4byte	.LFB461
 8826 216e 4A000000 		.4byte	.LFE461-.LFB461
 8827 2172 01       		.uleb128 0x1
 8828 2173 9C       		.byte	0x9c
 8829 2174 BC210000 		.4byte	0x21bc
 8830 2178 05       		.uleb128 0x5
 8831 2179 6400     		.ascii	"d\000"
 8832 217b 9C02     		.2byte	0x29c
 8833 217d 25       		.byte	0x25
 8834 217e A8190000 		.4byte	0x19a8
 8835 2182 02       		.uleb128 0x2
 8836 2183 91       		.byte	0x91
 8837 2184 6F       		.sleb128 -17
 8838 2185 05       		.uleb128 0x5
 8839 2186 70313400 		.ascii	"p14\000"
 8840 218a 9C02     		.2byte	0x29c
 8841 218c 30       		.byte	0x30
 8842 218d EE000000 		.4byte	0xee
 8843 2191 02       		.uleb128 0x2
 8844 2192 91       		.byte	0x91
 8845 2193 6C       		.sleb128 -20
 8846 2194 07       		.uleb128 0x7
 8847 2195 6C00     		.ascii	"l\000"
 8848 2197 9D02     		.2byte	0x29d
 8849 2199 0B       		.byte	0xb
 8850 219a D1000000 		.4byte	0xd1
 8851 219e 02       		.uleb128 0x2
 8852 219f 91       		.byte	0x91
 8853 21a0 77       		.sleb128 -9
 8854 21a1 07       		.uleb128 0x7
 8855 21a2 6800     		.ascii	"h\000"
 8856 21a4 9D02     		.2byte	0x29d
 8857 21a6 21       		.byte	0x21
 8858 21a7 D1000000 		.4byte	0xd1
 8859 21ab 02       		.uleb128 0x2
ARM GAS  C:\Users\DEVELO~1\AppData\Local\Temp\ccBydanM.s 			page 157


 8860 21ac 91       		.byte	0x91
 8861 21ad 76       		.sleb128 -10
 8862 21ae 07       		.uleb128 0x7
 8863 21af 6D00     		.ascii	"m\000"
 8864 21b1 9E02     		.2byte	0x29e
 8865 21b3 0B       		.byte	0xb
 8866 21b4 B71A0000 		.4byte	0x1ab7
 8867 21b8 02       		.uleb128 0x2
 8868 21b9 91       		.byte	0x91
 8869 21ba 70       		.sleb128 -16
 8870 21bb 00       		.byte	0
 8871 21bc 0B       		.uleb128 0xb
 8872 21bd 17150000 		.4byte	.LASF407
 8873 21c1 9702     		.2byte	0x297
 8874 21c3 00000000 		.4byte	.LFB460
 8875 21c7 34000000 		.4byte	.LFE460-.LFB460
 8876 21cb 01       		.uleb128 0x1
 8877 21cc 9C       		.byte	0x9c
 8878 21cd FA210000 		.4byte	0x21fa
 8879 21d1 05       		.uleb128 0x5
 8880 21d2 6400     		.ascii	"d\000"
 8881 21d4 9702     		.2byte	0x297
 8882 21d6 29       		.byte	0x29
 8883 21d7 A8190000 		.4byte	0x19a8
 8884 21db 02       		.uleb128 0x2
 8885 21dc 91       		.byte	0x91
 8886 21dd 6F       		.sleb128 -17
 8887 21de 05       		.uleb128 0x5
 8888 21df 716600   		.ascii	"qf\000"
 8889 21e2 9702     		.2byte	0x297
 8890 21e4 33       		.byte	0x33
 8891 21e5 D1000000 		.4byte	0xd1
 8892 21e9 02       		.uleb128 0x2
 8893 21ea 91       		.byte	0x91
 8894 21eb 6E       		.sleb128 -18
 8895 21ec 07       		.uleb128 0x7
 8896 21ed 6D00     		.ascii	"m\000"
 8897 21ef 9802     		.2byte	0x298
 8898 21f1 0B       		.byte	0xb
 8899 21f2 53210000 		.4byte	0x2153
 8900 21f6 02       		.uleb128 0x2
 8901 21f7 91       		.byte	0x91
 8902 21f8 74       		.sleb128 -12
 8903 21f9 00       		.byte	0
 8904 21fa 0B       		.uleb128 0xb
 8905 21fb 83090000 		.4byte	.LASF408
 8906 21ff 9002     		.2byte	0x290
 8907 2201 00000000 		.4byte	.LFB459
 8908 2205 64000000 		.4byte	.LFE459-.LFB459
 8909 2209 01       		.uleb128 0x1
 8910 220a 9C       		.byte	0x9c
 8911 220b 70220000 		.4byte	0x2270
 8912 220f 05       		.uleb128 0x5
 8913 2210 6400     		.ascii	"d\000"
 8914 2212 9002     		.2byte	0x290
 8915 2214 21       		.byte	0x21
 8916 2215 A8190000 		.4byte	0x19a8
ARM GAS  C:\Users\DEVELO~1\AppData\Local\Temp\ccBydanM.s 			page 158


 8917 2219 02       		.uleb128 0x2
 8918 221a 91       		.byte	0x91
 8919 221b 6F       		.sleb128 -17
 8920 221c 05       		.uleb128 0x5
 8921 221d 636800   		.ascii	"ch\000"
 8922 2220 9002     		.2byte	0x290
 8923 2222 2B       		.byte	0x2b
 8924 2223 D1000000 		.4byte	0xd1
 8925 2227 02       		.uleb128 0x2
 8926 2228 91       		.byte	0x91
 8927 2229 6E       		.sleb128 -18
 8928 222a 05       		.uleb128 0x5
 8929 222b 76313400 		.ascii	"v14\000"
 8930 222f 9002     		.2byte	0x290
 8931 2231 36       		.byte	0x36
 8932 2232 E2000000 		.4byte	0xe2
 8933 2236 02       		.uleb128 0x2
 8934 2237 91       		.byte	0x91
 8935 2238 6C       		.sleb128 -20
 8936 2239 07       		.uleb128 0x7
 8937 223a 7500     		.ascii	"u\000"
 8938 223c 9102     		.2byte	0x291
 8939 223e 0C       		.byte	0xc
 8940 223f EE000000 		.4byte	0xee
 8941 2243 02       		.uleb128 0x2
 8942 2244 91       		.byte	0x91
 8943 2245 76       		.sleb128 -10
 8944 2246 07       		.uleb128 0x7
 8945 2247 6C00     		.ascii	"l\000"
 8946 2249 9202     		.2byte	0x292
 8947 224b 0B       		.byte	0xb
 8948 224c D1000000 		.4byte	0xd1
 8949 2250 02       		.uleb128 0x2
 8950 2251 91       		.byte	0x91
 8951 2252 75       		.sleb128 -11
 8952 2253 07       		.uleb128 0x7
 8953 2254 6D00     		.ascii	"m\000"
 8954 2256 9202     		.2byte	0x292
 8955 2258 15       		.byte	0x15
 8956 2259 D1000000 		.4byte	0xd1
 8957 225d 02       		.uleb128 0x2
 8958 225e 91       		.byte	0x91
 8959 225f 74       		.sleb128 -12
 8960 2260 07       		.uleb128 0x7
 8961 2261 6D736700 		.ascii	"msg\000"
 8962 2265 9302     		.2byte	0x293
 8963 2267 0B       		.byte	0xb
 8964 2268 B71A0000 		.4byte	0x1ab7
 8965 226c 02       		.uleb128 0x2
 8966 226d 91       		.byte	0x91
 8967 226e 70       		.sleb128 -16
 8968 226f 00       		.byte	0
 8969 2270 0B       		.uleb128 0xb
 8970 2271 80040000 		.4byte	.LASF409
 8971 2275 8B02     		.2byte	0x28b
 8972 2277 00000000 		.4byte	.LFB458
 8973 227b 46000000 		.4byte	.LFE458-.LFB458
ARM GAS  C:\Users\DEVELO~1\AppData\Local\Temp\ccBydanM.s 			page 159


 8974 227f 01       		.uleb128 0x1
 8975 2280 9C       		.byte	0x9c
 8976 2281 BB220000 		.4byte	0x22bb
 8977 2285 05       		.uleb128 0x5
 8978 2286 6400     		.ascii	"d\000"
 8979 2288 8B02     		.2byte	0x28b
 8980 228a 28       		.byte	0x28
 8981 228b A8190000 		.4byte	0x19a8
 8982 228f 02       		.uleb128 0x2
 8983 2290 91       		.byte	0x91
 8984 2291 6F       		.sleb128 -17
 8985 2292 05       		.uleb128 0x5
 8986 2293 636800   		.ascii	"ch\000"
 8987 2296 8B02     		.2byte	0x28b
 8988 2298 32       		.byte	0x32
 8989 2299 D1000000 		.4byte	0xd1
 8990 229d 02       		.uleb128 0x2
 8991 229e 91       		.byte	0x91
 8992 229f 6E       		.sleb128 -18
 8993 22a0 05       		.uleb128 0x5
 8994 22a1 7000     		.ascii	"p\000"
 8995 22a3 8B02     		.2byte	0x28b
 8996 22a5 3D       		.byte	0x3d
 8997 22a6 D1000000 		.4byte	0xd1
 8998 22aa 02       		.uleb128 0x2
 8999 22ab 91       		.byte	0x91
 9000 22ac 6D       		.sleb128 -19
 9001 22ad 07       		.uleb128 0x7
 9002 22ae 6D00     		.ascii	"m\000"
 9003 22b0 8C02     		.2byte	0x28c
 9004 22b2 0B       		.byte	0xb
 9005 22b3 53210000 		.4byte	0x2153
 9006 22b7 02       		.uleb128 0x2
 9007 22b8 91       		.byte	0x91
 9008 22b9 74       		.sleb128 -12
 9009 22ba 00       		.byte	0
 9010 22bb 0B       		.uleb128 0xb
 9011 22bc 2F020000 		.4byte	.LASF410
 9012 22c0 8602     		.2byte	0x286
 9013 22c2 00000000 		.4byte	.LFB457
 9014 22c6 46000000 		.4byte	.LFE457-.LFB457
 9015 22ca 01       		.uleb128 0x1
 9016 22cb 9C       		.byte	0x9c
 9017 22cc 07230000 		.4byte	0x2307
 9018 22d0 05       		.uleb128 0x5
 9019 22d1 6400     		.ascii	"d\000"
 9020 22d3 8602     		.2byte	0x286
 9021 22d5 26       		.byte	0x26
 9022 22d6 A8190000 		.4byte	0x19a8
 9023 22da 02       		.uleb128 0x2
 9024 22db 91       		.byte	0x91
 9025 22dc 6F       		.sleb128 -17
 9026 22dd 05       		.uleb128 0x5
 9027 22de 636800   		.ascii	"ch\000"
 9028 22e1 8602     		.2byte	0x286
 9029 22e3 30       		.byte	0x30
 9030 22e4 D1000000 		.4byte	0xd1
ARM GAS  C:\Users\DEVELO~1\AppData\Local\Temp\ccBydanM.s 			page 160


 9031 22e8 02       		.uleb128 0x2
 9032 22e9 91       		.byte	0x91
 9033 22ea 6E       		.sleb128 -18
 9034 22eb 05       		.uleb128 0x5
 9035 22ec 706700   		.ascii	"pg\000"
 9036 22ef 8602     		.2byte	0x286
 9037 22f1 3B       		.byte	0x3b
 9038 22f2 D1000000 		.4byte	0xd1
 9039 22f6 02       		.uleb128 0x2
 9040 22f7 91       		.byte	0x91
 9041 22f8 6D       		.sleb128 -19
 9042 22f9 07       		.uleb128 0x7
 9043 22fa 6D00     		.ascii	"m\000"
 9044 22fc 8702     		.2byte	0x287
 9045 22fe 0B       		.byte	0xb
 9046 22ff 53210000 		.4byte	0x2153
 9047 2303 02       		.uleb128 0x2
 9048 2304 91       		.byte	0x91
 9049 2305 74       		.sleb128 -12
 9050 2306 00       		.byte	0
 9051 2307 0B       		.uleb128 0xb
 9052 2308 0D060000 		.4byte	.LASF411
 9053 230c 8102     		.2byte	0x281
 9054 230e 00000000 		.4byte	.LFB456
 9055 2312 5C000000 		.4byte	.LFE456-.LFB456
 9056 2316 01       		.uleb128 0x1
 9057 2317 9C       		.byte	0x9c
 9058 2318 5F230000 		.4byte	0x235f
 9059 231c 05       		.uleb128 0x5
 9060 231d 6400     		.ascii	"d\000"
 9061 231f 8102     		.2byte	0x281
 9062 2321 1A       		.byte	0x1a
 9063 2322 A8190000 		.4byte	0x19a8
 9064 2326 02       		.uleb128 0x2
 9065 2327 91       		.byte	0x91
 9066 2328 67       		.sleb128 -25
 9067 2329 05       		.uleb128 0x5
 9068 232a 636800   		.ascii	"ch\000"
 9069 232d 8102     		.2byte	0x281
 9070 232f 24       		.byte	0x24
 9071 2330 D1000000 		.4byte	0xd1
 9072 2334 02       		.uleb128 0x2
 9073 2335 91       		.byte	0x91
 9074 2336 66       		.sleb128 -26
 9075 2337 05       		.uleb128 0x5
 9076 2338 6300     		.ascii	"c\000"
 9077 233a 8102     		.2byte	0x281
 9078 233c 2F       		.byte	0x2f
 9079 233d D1000000 		.4byte	0xd1
 9080 2341 02       		.uleb128 0x2
 9081 2342 91       		.byte	0x91
 9082 2343 65       		.sleb128 -27
 9083 2344 05       		.uleb128 0x5
 9084 2345 7600     		.ascii	"v\000"
 9085 2347 8102     		.2byte	0x281
 9086 2349 39       		.byte	0x39
 9087 234a D1000000 		.4byte	0xd1
ARM GAS  C:\Users\DEVELO~1\AppData\Local\Temp\ccBydanM.s 			page 161


 9088 234e 02       		.uleb128 0x2
 9089 234f 91       		.byte	0x91
 9090 2350 64       		.sleb128 -28
 9091 2351 07       		.uleb128 0x7
 9092 2352 6D00     		.ascii	"m\000"
 9093 2354 8202     		.2byte	0x282
 9094 2356 0B       		.byte	0xb
 9095 2357 B71A0000 		.4byte	0x1ab7
 9096 235b 02       		.uleb128 0x2
 9097 235c 91       		.byte	0x91
 9098 235d 6C       		.sleb128 -20
 9099 235e 00       		.byte	0
 9100 235f 0B       		.uleb128 0xb
 9101 2360 63130000 		.4byte	.LASF412
 9102 2364 7C02     		.2byte	0x27c
 9103 2366 00000000 		.4byte	.LFB455
 9104 236a 5C000000 		.4byte	.LFE455-.LFB455
 9105 236e 01       		.uleb128 0x1
 9106 236f 9C       		.byte	0x9c
 9107 2370 B7230000 		.4byte	0x23b7
 9108 2374 05       		.uleb128 0x5
 9109 2375 6400     		.ascii	"d\000"
 9110 2377 7C02     		.2byte	0x27c
 9111 2379 27       		.byte	0x27
 9112 237a A8190000 		.4byte	0x19a8
 9113 237e 02       		.uleb128 0x2
 9114 237f 91       		.byte	0x91
 9115 2380 67       		.sleb128 -25
 9116 2381 05       		.uleb128 0x5
 9117 2382 636800   		.ascii	"ch\000"
 9118 2385 7C02     		.2byte	0x27c
 9119 2387 31       		.byte	0x31
 9120 2388 D1000000 		.4byte	0xd1
 9121 238c 02       		.uleb128 0x2
 9122 238d 91       		.byte	0x91
 9123 238e 66       		.sleb128 -26
 9124 238f 05       		.uleb128 0x5
 9125 2390 6E00     		.ascii	"n\000"
 9126 2392 7C02     		.2byte	0x27c
 9127 2394 3C       		.byte	0x3c
 9128 2395 D1000000 		.4byte	0xd1
 9129 2399 02       		.uleb128 0x2
 9130 239a 91       		.byte	0x91
 9131 239b 65       		.sleb128 -27
 9132 239c 05       		.uleb128 0x5
 9133 239d 7000     		.ascii	"p\000"
 9134 239f 7C02     		.2byte	0x27c
 9135 23a1 46       		.byte	0x46
 9136 23a2 D1000000 		.4byte	0xd1
 9137 23a6 02       		.uleb128 0x2
 9138 23a7 91       		.byte	0x91
 9139 23a8 64       		.sleb128 -28
 9140 23a9 07       		.uleb128 0x7
 9141 23aa 6D00     		.ascii	"m\000"
 9142 23ac 7D02     		.2byte	0x27d
 9143 23ae 0B       		.byte	0xb
 9144 23af B71A0000 		.4byte	0x1ab7
ARM GAS  C:\Users\DEVELO~1\AppData\Local\Temp\ccBydanM.s 			page 162


 9145 23b3 02       		.uleb128 0x2
 9146 23b4 91       		.byte	0x91
 9147 23b5 6C       		.sleb128 -20
 9148 23b6 00       		.byte	0
 9149 23b7 0B       		.uleb128 0xb
 9150 23b8 14110000 		.4byte	.LASF413
 9151 23bc 7702     		.2byte	0x277
 9152 23be 00000000 		.4byte	.LFB454
 9153 23c2 5C000000 		.4byte	.LFE454-.LFB454
 9154 23c6 01       		.uleb128 0x1
 9155 23c7 9C       		.byte	0x9c
 9156 23c8 0F240000 		.4byte	0x240f
 9157 23cc 05       		.uleb128 0x5
 9158 23cd 6400     		.ascii	"d\000"
 9159 23cf 7702     		.2byte	0x277
 9160 23d1 20       		.byte	0x20
 9161 23d2 A8190000 		.4byte	0x19a8
 9162 23d6 02       		.uleb128 0x2
 9163 23d7 91       		.byte	0x91
 9164 23d8 67       		.sleb128 -25
 9165 23d9 05       		.uleb128 0x5
 9166 23da 636800   		.ascii	"ch\000"
 9167 23dd 7702     		.2byte	0x277
 9168 23df 2A       		.byte	0x2a
 9169 23e0 D1000000 		.4byte	0xd1
 9170 23e4 02       		.uleb128 0x2
 9171 23e5 91       		.byte	0x91
 9172 23e6 66       		.sleb128 -26
 9173 23e7 05       		.uleb128 0x5
 9174 23e8 6E00     		.ascii	"n\000"
 9175 23ea 7702     		.2byte	0x277
 9176 23ec 35       		.byte	0x35
 9177 23ed D1000000 		.4byte	0xd1
 9178 23f1 02       		.uleb128 0x2
 9179 23f2 91       		.byte	0x91
 9180 23f3 65       		.sleb128 -27
 9181 23f4 05       		.uleb128 0x5
 9182 23f5 7600     		.ascii	"v\000"
 9183 23f7 7702     		.2byte	0x277
 9184 23f9 3F       		.byte	0x3f
 9185 23fa D1000000 		.4byte	0xd1
 9186 23fe 02       		.uleb128 0x2
 9187 23ff 91       		.byte	0x91
 9188 2400 64       		.sleb128 -28
 9189 2401 07       		.uleb128 0x7
 9190 2402 6D00     		.ascii	"m\000"
 9191 2404 7802     		.2byte	0x278
 9192 2406 0B       		.byte	0xb
 9193 2407 B71A0000 		.4byte	0x1ab7
 9194 240b 02       		.uleb128 0x2
 9195 240c 91       		.byte	0x91
 9196 240d 6C       		.sleb128 -20
 9197 240e 00       		.byte	0
 9198 240f 0B       		.uleb128 0xb
 9199 2410 060E0000 		.4byte	.LASF414
 9200 2414 7102     		.2byte	0x271
 9201 2416 00000000 		.4byte	.LFB453
ARM GAS  C:\Users\DEVELO~1\AppData\Local\Temp\ccBydanM.s 			page 163


 9202 241a 72000000 		.4byte	.LFE453-.LFB453
 9203 241e 01       		.uleb128 0x1
 9204 241f 9C       		.byte	0x9c
 9205 2420 67240000 		.4byte	0x2467
 9206 2424 05       		.uleb128 0x5
 9207 2425 6400     		.ascii	"d\000"
 9208 2427 7102     		.2byte	0x271
 9209 2429 1F       		.byte	0x1f
 9210 242a A8190000 		.4byte	0x19a8
 9211 242e 02       		.uleb128 0x2
 9212 242f 91       		.byte	0x91
 9213 2430 67       		.sleb128 -25
 9214 2431 05       		.uleb128 0x5
 9215 2432 636800   		.ascii	"ch\000"
 9216 2435 7102     		.2byte	0x271
 9217 2437 29       		.byte	0x29
 9218 2438 D1000000 		.4byte	0xd1
 9219 243c 02       		.uleb128 0x2
 9220 243d 91       		.byte	0x91
 9221 243e 66       		.sleb128 -26
 9222 243f 05       		.uleb128 0x5
 9223 2440 6E00     		.ascii	"n\000"
 9224 2442 7102     		.2byte	0x271
 9225 2444 34       		.byte	0x34
 9226 2445 D1000000 		.4byte	0xd1
 9227 2449 02       		.uleb128 0x2
 9228 244a 91       		.byte	0x91
 9229 244b 65       		.sleb128 -27
 9230 244c 05       		.uleb128 0x5
 9231 244d 7600     		.ascii	"v\000"
 9232 244f 7102     		.2byte	0x271
 9233 2451 3E       		.byte	0x3e
 9234 2452 D1000000 		.4byte	0xd1
 9235 2456 02       		.uleb128 0x2
 9236 2457 91       		.byte	0x91
 9237 2458 64       		.sleb128 -28
 9238 2459 07       		.uleb128 0x7
 9239 245a 6D00     		.ascii	"m\000"
 9240 245c 7302     		.2byte	0x273
 9241 245e 0B       		.byte	0xb
 9242 245f B71A0000 		.4byte	0x1ab7
 9243 2463 02       		.uleb128 0x2
 9244 2464 91       		.byte	0x91
 9245 2465 6C       		.sleb128 -20
 9246 2466 00       		.byte	0
 9247 2467 30       		.uleb128 0x30
 9248 2468 34080000 		.4byte	.LASF415
 9249 246c 6902     		.2byte	0x269
 9250 246e 0D       		.byte	0xd
 9251 246f A8190000 		.4byte	0x19a8
 9252 2473 00000000 		.4byte	.LFB452
 9253 2477 14000000 		.4byte	.LFE452-.LFB452
 9254 247b 01       		.uleb128 0x1
 9255 247c 9C       		.byte	0x9c
 9256 247d 47       		.uleb128 0x47
 9257 247e FA030000 		.4byte	.LASF416
 9258 2482 07       		.byte	0x7
ARM GAS  C:\Users\DEVELO~1\AppData\Local\Temp\ccBydanM.s 			page 164


 9259 2483 5C02     		.2byte	0x25c
 9260 2485 06       		.byte	0x6
 9261 2486 00000000 		.4byte	.LFB451
 9262 248a 30000000 		.4byte	.LFE451-.LFB451
 9263 248e 01       		.uleb128 0x1
 9264 248f 9C       		.byte	0x9c
 9265 2490 A4240000 		.4byte	0x24a4
 9266 2494 13       		.uleb128 0x13
 9267 2495 C7030000 		.4byte	.LASF386
 9268 2499 5C02     		.2byte	0x25c
 9269 249b 2A       		.byte	0x2a
 9270 249c A8190000 		.4byte	0x19a8
 9271 24a0 02       		.uleb128 0x2
 9272 24a1 91       		.byte	0x91
 9273 24a2 77       		.sleb128 -9
 9274 24a3 00       		.byte	0
 9275 24a4 1B       		.uleb128 0x1b
 9276 24a5 25020000 		.4byte	.LASF418
 9277 24a9 5302     		.2byte	0x253
 9278 24ab 0D       		.byte	0xd
 9279 24ac 00000000 		.4byte	.LFB450
 9280 24b0 52000000 		.4byte	.LFE450-.LFB450
 9281 24b4 01       		.uleb128 0x1
 9282 24b5 9C       		.byte	0x9c
 9283 24b6 E2240000 		.4byte	0x24e2
 9284 24ba 05       		.uleb128 0x5
 9285 24bb 6400     		.ascii	"d\000"
 9286 24bd 5302     		.2byte	0x253
 9287 24bf 23       		.byte	0x23
 9288 24c0 A8190000 		.4byte	0x19a8
 9289 24c4 02       		.uleb128 0x2
 9290 24c5 91       		.byte	0x91
 9291 24c6 77       		.sleb128 -9
 9292 24c7 05       		.uleb128 0x5
 9293 24c8 6D00     		.ascii	"m\000"
 9294 24ca 5302     		.2byte	0x253
 9295 24cc 35       		.byte	0x35
 9296 24cd E30B0000 		.4byte	0xbe3
 9297 24d1 02       		.uleb128 0x2
 9298 24d2 91       		.byte	0x91
 9299 24d3 70       		.sleb128 -16
 9300 24d4 05       		.uleb128 0x5
 9301 24d5 6E00     		.ascii	"n\000"
 9302 24d7 5302     		.2byte	0x253
 9303 24d9 3F       		.byte	0x3f
 9304 24da 2D000000 		.4byte	0x2d
 9305 24de 02       		.uleb128 0x2
 9306 24df 91       		.byte	0x91
 9307 24e0 6C       		.sleb128 -20
 9308 24e1 00       		.byte	0
 9309 24e2 1B       		.uleb128 0x1b
 9310 24e3 56070000 		.4byte	.LASF419
 9311 24e7 0602     		.2byte	0x206
 9312 24e9 0D       		.byte	0xd
 9313 24ea 00000000 		.4byte	.LFB449
 9314 24ee A8030000 		.4byte	.LFE449-.LFB449
 9315 24f2 01       		.uleb128 0x1
ARM GAS  C:\Users\DEVELO~1\AppData\Local\Temp\ccBydanM.s 			page 165


 9316 24f3 9C       		.byte	0x9c
 9317 24f4 A9250000 		.4byte	0x25a9
 9318 24f8 05       		.uleb128 0x5
 9319 24f9 6D736700 		.ascii	"msg\000"
 9320 24fd 0602     		.2byte	0x206
 9321 24ff 25       		.byte	0x25
 9322 2500 E30B0000 		.4byte	0xbe3
 9323 2504 02       		.uleb128 0x2
 9324 2505 91       		.byte	0x91
 9325 2506 5C       		.sleb128 -36
 9326 2507 05       		.uleb128 0x5
 9327 2508 6C656E00 		.ascii	"len\000"
 9328 250c 0602     		.2byte	0x206
 9329 250e 31       		.byte	0x31
 9330 250f 2D000000 		.4byte	0x2d
 9331 2513 02       		.uleb128 0x2
 9332 2514 91       		.byte	0x91
 9333 2515 58       		.sleb128 -40
 9334 2516 18       		.uleb128 0x18
 9335 2517 E4000000 		.4byte	.LASF420
 9336 251b 0702     		.2byte	0x207
 9337 251d 0B       		.byte	0xb
 9338 251e 580A0000 		.4byte	0xa58
 9339 2522 02       		.uleb128 0x2
 9340 2523 91       		.byte	0x91
 9341 2524 60       		.sleb128 -32
 9342 2525 07       		.uleb128 0x7
 9343 2526 737400   		.ascii	"st\000"
 9344 2529 0802     		.2byte	0x208
 9345 252b 11       		.byte	0x11
 9346 252c DD000000 		.4byte	0xdd
 9347 2530 02       		.uleb128 0x2
 9348 2531 91       		.byte	0x91
 9349 2532 76       		.sleb128 -10
 9350 2533 18       		.uleb128 0x18
 9351 2534 AD140000 		.4byte	.LASF421
 9352 2538 0902     		.2byte	0x209
 9353 253a 11       		.byte	0x11
 9354 253b DD000000 		.4byte	0xdd
 9355 253f 02       		.uleb128 0x2
 9356 2540 91       		.byte	0x91
 9357 2541 75       		.sleb128 -11
 9358 2542 18       		.uleb128 0x18
 9359 2543 DC000000 		.4byte	.LASF422
 9360 2547 0B02     		.2byte	0x20b
 9361 2549 08       		.byte	0x8
 9362 254a A80B0000 		.4byte	0xba8
 9363 254e 02       		.uleb128 0x2
 9364 254f 91       		.byte	0x91
 9365 2550 77       		.sleb128 -9
 9366 2551 07       		.uleb128 0x7
 9367 2552 6D00     		.ascii	"m\000"
 9368 2554 4502     		.2byte	0x245
 9369 2556 09       		.byte	0x9
 9370 2557 75010000 		.4byte	0x175
 9371 255b 02       		.uleb128 0x2
 9372 255c 91       		.byte	0x91
ARM GAS  C:\Users\DEVELO~1\AppData\Local\Temp\ccBydanM.s 			page 166


 9373 255d 64       		.sleb128 -28
 9374 255e 1A       		.uleb128 0x1a
 9375 255f 0A020000 		.4byte	.LBB64
 9376 2563 FC000000 		.4byte	.LBE64-.LBB64
 9377 2567 07       		.uleb128 0x7
 9378 2568 6D3300   		.ascii	"m3\000"
 9379 256b 3702     		.2byte	0x237
 9380 256d 0B       		.byte	0xb
 9381 256e 75010000 		.4byte	0x175
 9382 2572 02       		.uleb128 0x2
 9383 2573 91       		.byte	0x91
 9384 2574 70       		.sleb128 -16
 9385 2575 35       		.uleb128 0x35
 9386 2576 4E020000 		.4byte	.LBB65
 9387 257a 1E000000 		.4byte	.LBE65-.LBB65
 9388 257e 90250000 		.4byte	0x2590
 9389 2582 07       		.uleb128 0x7
 9390 2583 6D00     		.ascii	"m\000"
 9391 2585 2502     		.2byte	0x225
 9392 2587 0F       		.byte	0xf
 9393 2588 75010000 		.4byte	0x175
 9394 258c 02       		.uleb128 0x2
 9395 258d 91       		.byte	0x91
 9396 258e 68       		.sleb128 -24
 9397 258f 00       		.byte	0
 9398 2590 1A       		.uleb128 0x1a
 9399 2591 BC020000 		.4byte	.LBB66
 9400 2595 28000000 		.4byte	.LBE66-.LBB66
 9401 2599 07       		.uleb128 0x7
 9402 259a 6D00     		.ascii	"m\000"
 9403 259c 3102     		.2byte	0x231
 9404 259e 0F       		.byte	0xf
 9405 259f 75010000 		.4byte	0x175
 9406 25a3 02       		.uleb128 0x2
 9407 25a4 91       		.byte	0x91
 9408 25a5 6C       		.sleb128 -20
 9409 25a6 00       		.byte	0
 9410 25a7 00       		.byte	0
 9411 25a8 00       		.byte	0
 9412 25a9 1B       		.uleb128 0x1b
 9413 25aa 130E0000 		.4byte	.LASF423
 9414 25ae D701     		.2byte	0x1d7
 9415 25b0 0D       		.byte	0xd
 9416 25b1 00000000 		.4byte	.LFB448
 9417 25b5 A0000000 		.4byte	.LFE448-.LFB448
 9418 25b9 01       		.uleb128 0x1
 9419 25ba 9C       		.byte	0x9c
 9420 25bb 15260000 		.4byte	0x2615
 9421 25bf 18       		.uleb128 0x18
 9422 25c0 E6070000 		.4byte	.LASF424
 9423 25c4 D801     		.2byte	0x1d8
 9424 25c6 12       		.byte	0x12
 9425 25c7 17010000 		.4byte	0x117
 9426 25cb 02       		.uleb128 0x2
 9427 25cc 91       		.byte	0x91
 9428 25cd 70       		.sleb128 -16
 9429 25ce 18       		.uleb128 0x18
ARM GAS  C:\Users\DEVELO~1\AppData\Local\Temp\ccBydanM.s 			page 167


 9430 25cf 2A120000 		.4byte	.LASF425
 9431 25d3 D901     		.2byte	0x1d9
 9432 25d5 0C       		.byte	0xc
 9433 25d6 06010000 		.4byte	0x106
 9434 25da 02       		.uleb128 0x2
 9435 25db 91       		.byte	0x91
 9436 25dc 74       		.sleb128 -12
 9437 25dd 07       		.uleb128 0x7
 9438 25de 72617700 		.ascii	"raw\000"
 9439 25e2 DA01     		.2byte	0x1da
 9440 25e4 09       		.byte	0x9
 9441 25e5 75010000 		.4byte	0x175
 9442 25e9 02       		.uleb128 0x2
 9443 25ea 91       		.byte	0x91
 9444 25eb 6C       		.sleb128 -20
 9445 25ec 1A       		.uleb128 0x1a
 9446 25ed 10000000 		.4byte	.LBB63
 9447 25f1 62000000 		.4byte	.LBE63-.LBB63
 9448 25f5 07       		.uleb128 0x7
 9449 25f6 706B7400 		.ascii	"pkt\000"
 9450 25fa E201     		.2byte	0x1e2
 9451 25fc 0D       		.byte	0xd
 9452 25fd 580A0000 		.4byte	0xa58
 9453 2601 02       		.uleb128 0x2
 9454 2602 91       		.byte	0x91
 9455 2603 68       		.sleb128 -24
 9456 2604 07       		.uleb128 0x7
 9457 2605 6D736700 		.ascii	"msg\000"
 9458 2609 E801     		.2byte	0x1e8
 9459 260b 10       		.byte	0x10
 9460 260c C71A0000 		.4byte	0x1ac7
 9461 2610 02       		.uleb128 0x2
 9462 2611 91       		.byte	0x91
 9463 2612 64       		.sleb128 -28
 9464 2613 00       		.byte	0
 9465 2614 00       		.byte	0
 9466 2615 1B       		.uleb128 0x1b
 9467 2616 B7060000 		.4byte	.LASF426
 9468 261a CF01     		.2byte	0x1cf
 9469 261c 0D       		.byte	0xd
 9470 261d 00000000 		.4byte	.LFB447
 9471 2621 40000000 		.4byte	.LFE447-.LFB447
 9472 2625 01       		.uleb128 0x1
 9473 2626 9C       		.byte	0x9c
 9474 2627 3B260000 		.4byte	0x263b
 9475 262b 05       		.uleb128 0x5
 9476 262c 6D736700 		.ascii	"msg\000"
 9477 2630 CF01     		.2byte	0x1cf
 9478 2632 38       		.byte	0x38
 9479 2633 3B260000 		.4byte	0x263b
 9480 2637 02       		.uleb128 0x2
 9481 2638 91       		.byte	0x91
 9482 2639 74       		.sleb128 -12
 9483 263a 00       		.byte	0
 9484 263b 06       		.uleb128 0x6
 9485 263c D31A0000 		.4byte	0x1ad3
 9486 2640 48       		.uleb128 0x48
ARM GAS  C:\Users\DEVELO~1\AppData\Local\Temp\ccBydanM.s 			page 168


 9487 2641 B0030000 		.4byte	.LASF446
 9488 2645 07       		.byte	0x7
 9489 2646 9101     		.2byte	0x191
 9490 2648 0D       		.byte	0xd
 9491 2649 A80B0000 		.4byte	0xba8
 9492 264d 00000000 		.4byte	.LFB446
 9493 2651 48010000 		.4byte	.LFE446-.LFB446
 9494 2655 01       		.uleb128 0x1
 9495 2656 9C       		.byte	0x9c
 9496 2657 89260000 		.4byte	0x2689
 9497 265b 05       		.uleb128 0x5
 9498 265c 706B7400 		.ascii	"pkt\000"
 9499 2660 9101     		.2byte	0x191
 9500 2662 32       		.byte	0x32
 9501 2663 E30B0000 		.4byte	0xbe3
 9502 2667 02       		.uleb128 0x2
 9503 2668 91       		.byte	0x91
 9504 2669 6C       		.sleb128 -20
 9505 266a 05       		.uleb128 0x5
 9506 266b 6F757400 		.ascii	"out\000"
 9507 266f 9101     		.2byte	0x191
 9508 2671 46       		.byte	0x46
 9509 2672 89260000 		.4byte	0x2689
 9510 2676 02       		.uleb128 0x2
 9511 2677 91       		.byte	0x91
 9512 2678 68       		.sleb128 -24
 9513 2679 07       		.uleb128 0x7
 9514 267a 63696E00 		.ascii	"cin\000"
 9515 267e 9601     		.2byte	0x196
 9516 2680 11       		.byte	0x11
 9517 2681 DD000000 		.4byte	0xdd
 9518 2685 02       		.uleb128 0x2
 9519 2686 91       		.byte	0x91
 9520 2687 77       		.sleb128 -9
 9521 2688 00       		.byte	0
 9522 2689 06       		.uleb128 0x6
 9523 268a C71A0000 		.4byte	0x1ac7
 9524 268e 1B       		.uleb128 0x1b
 9525 268f 200D0000 		.4byte	.LASF427
 9526 2693 7A01     		.2byte	0x17a
 9527 2695 0D       		.byte	0xd
 9528 2696 00000000 		.4byte	.LFB445
 9529 269a 7C000000 		.4byte	.LFE445-.LFB445
 9530 269e 01       		.uleb128 0x1
 9531 269f 9C       		.byte	0x9c
 9532 26a0 D6260000 		.4byte	0x26d6
 9533 26a4 05       		.uleb128 0x5
 9534 26a5 6D00     		.ascii	"m\000"
 9535 26a7 7A01     		.2byte	0x17a
 9536 26a9 23       		.byte	0x23
 9537 26aa 75010000 		.4byte	0x175
 9538 26ae 02       		.uleb128 0x2
 9539 26af 91       		.byte	0x91
 9540 26b0 6C       		.sleb128 -20
 9541 26b1 13       		.uleb128 0x13
 9542 26b2 720F0000 		.4byte	.LASF428
 9543 26b6 7A01     		.2byte	0x17a
ARM GAS  C:\Users\DEVELO~1\AppData\Local\Temp\ccBydanM.s 			page 169


 9544 26b8 2B       		.byte	0x2b
 9545 26b9 A80B0000 		.4byte	0xba8
 9546 26bd 02       		.uleb128 0x2
 9547 26be 91       		.byte	0x91
 9548 26bf 6B       		.sleb128 -21
 9549 26c0 49       		.uleb128 0x49
 9550 26c1 0C000000 		.4byte	.LLRL0
 9551 26c5 18       		.uleb128 0x18
 9552 26c6 FC0E0000 		.4byte	.LASF429
 9553 26ca 7D01     		.2byte	0x17d
 9554 26cc 0D       		.byte	0xd
 9555 26cd 75010000 		.4byte	0x175
 9556 26d1 02       		.uleb128 0x2
 9557 26d2 91       		.byte	0x91
 9558 26d3 74       		.sleb128 -12
 9559 26d4 00       		.byte	0
 9560 26d5 00       		.byte	0
 9561 26d6 1B       		.uleb128 0x1b
 9562 26d7 D7080000 		.4byte	.LASF430
 9563 26db 7001     		.2byte	0x170
 9564 26dd 0D       		.byte	0xd
 9565 26de 00000000 		.4byte	.LFB444
 9566 26e2 24000000 		.4byte	.LFE444-.LFB444
 9567 26e6 01       		.uleb128 0x1
 9568 26e7 9C       		.byte	0x9c
 9569 26e8 0B270000 		.4byte	0x270b
 9570 26ec 05       		.uleb128 0x5
 9571 26ed 6D736700 		.ascii	"msg\000"
 9572 26f1 7001     		.2byte	0x170
 9573 26f3 26       		.byte	0x26
 9574 26f4 E30B0000 		.4byte	0xbe3
 9575 26f8 02       		.uleb128 0x2
 9576 26f9 91       		.byte	0x91
 9577 26fa 74       		.sleb128 -12
 9578 26fb 05       		.uleb128 0x5
 9579 26fc 6C656E00 		.ascii	"len\000"
 9580 2700 7001     		.2byte	0x170
 9581 2702 32       		.byte	0x32
 9582 2703 2D000000 		.4byte	0x2d
 9583 2707 02       		.uleb128 0x2
 9584 2708 91       		.byte	0x91
 9585 2709 70       		.sleb128 -16
 9586 270a 00       		.byte	0
 9587 270b 4A       		.uleb128 0x4a
 9588 270c 060D0000 		.4byte	.LASF469
 9589 2710 07       		.byte	0x7
 9590 2711 5D01     		.2byte	0x15d
 9591 2713 06       		.byte	0x6
 9592 2714 A80B0000 		.4byte	0xba8
 9593 2718 00000000 		.4byte	.LFB443
 9594 271c 24000000 		.4byte	.LFE443-.LFB443
 9595 2720 01       		.uleb128 0x1
 9596 2721 9C       		.byte	0x9c
 9597 2722 36270000 		.4byte	0x2736
 9598 2726 18       		.uleb128 0x18
 9599 2727 01060000 		.4byte	.LASF431
 9600 272b 5E01     		.2byte	0x15e
ARM GAS  C:\Users\DEVELO~1\AppData\Local\Temp\ccBydanM.s 			page 170


 9601 272d 08       		.byte	0x8
 9602 272e A80B0000 		.4byte	0xba8
 9603 2732 02       		.uleb128 0x2
 9604 2733 91       		.byte	0x91
 9605 2734 77       		.sleb128 -9
 9606 2735 00       		.byte	0
 9607 2736 0B       		.uleb128 0xb
 9608 2737 55010000 		.4byte	.LASF432
 9609 273b 4501     		.2byte	0x145
 9610 273d 00000000 		.4byte	.LFB442
 9611 2741 C4000000 		.4byte	.LFE442-.LFB442
 9612 2745 01       		.uleb128 0x1
 9613 2746 9C       		.byte	0x9c
 9614 2747 5E270000 		.4byte	0x275e
 9615 274b 18       		.uleb128 0x18
 9616 274c 4C010000 		.4byte	.LASF433
 9617 2750 4E01     		.2byte	0x14e
 9618 2752 1D       		.byte	0x1d
 9619 2753 940E0000 		.4byte	0xe94
 9620 2757 05       		.uleb128 0x5
 9621 2758 03       		.byte	0x3
 9622 2759 00000000 		.4byte	uart_cfg.0
 9623 275d 00       		.byte	0
 9624 275e 1B       		.uleb128 0x1b
 9625 275f 89060000 		.4byte	.LASF434
 9626 2763 0001     		.2byte	0x100
 9627 2765 08       		.byte	0x8
 9628 2766 00000000 		.4byte	.LFB441
 9629 276a 68010000 		.4byte	.LFE441-.LFB441
 9630 276e 01       		.uleb128 0x1
 9631 276f 9C       		.byte	0x9c
 9632 2770 31280000 		.4byte	0x2831
 9633 2774 05       		.uleb128 0x5
 9634 2775 61726700 		.ascii	"arg\000"
 9635 2779 0001     		.2byte	0x100
 9636 277b 08       		.byte	0x8
 9637 277c ED040000 		.4byte	0x4ed
 9638 2780 03       		.uleb128 0x3
 9639 2781 91       		.byte	0x91
 9640 2782 947F     		.sleb128 -108
 9641 2784 07       		.uleb128 0x7
 9642 2785 62756600 		.ascii	"buf\000"
 9643 2789 0501     		.2byte	0x105
 9644 278b 0B       		.byte	0xb
 9645 278c 31280000 		.4byte	0x2831
 9646 2790 03       		.uleb128 0x3
 9647 2791 91       		.byte	0x91
 9648 2792 A07F     		.sleb128 -96
 9649 2794 07       		.uleb128 0x7
 9650 2795 6E00     		.ascii	"n\000"
 9651 2797 0601     		.2byte	0x106
 9652 2799 0A       		.byte	0xa
 9653 279a 2D000000 		.4byte	0x2d
 9654 279e 02       		.uleb128 0x2
 9655 279f 91       		.byte	0x91
 9656 27a0 74       		.sleb128 -12
 9657 27a1 1A       		.uleb128 0x1a
ARM GAS  C:\Users\DEVELO~1\AppData\Local\Temp\ccBydanM.s 			page 171


 9658 27a2 12000000 		.4byte	.LBB56
 9659 27a6 3E010000 		.4byte	.LBE56-.LBB56
 9660 27aa 07       		.uleb128 0x7
 9661 27ab 6D736700 		.ascii	"msg\000"
 9662 27af 0B01     		.2byte	0x10b
 9663 27b1 0B       		.byte	0xb
 9664 27b2 75010000 		.4byte	0x175
 9665 27b6 03       		.uleb128 0x3
 9666 27b7 91       		.byte	0x91
 9667 27b8 9C7F     		.sleb128 -100
 9668 27ba 07       		.uleb128 0x7
 9669 27bb 72657300 		.ascii	"res\000"
 9670 27bf 0C01     		.2byte	0x10c
 9671 27c1 0B       		.byte	0xb
 9672 27c2 75010000 		.4byte	0x175
 9673 27c6 02       		.uleb128 0x2
 9674 27c7 91       		.byte	0x91
 9675 27c8 70       		.sleb128 -16
 9676 27c9 35       		.uleb128 0x35
 9677 27ca 84000000 		.4byte	.LBB57
 9678 27ce 60000000 		.4byte	.LBE57-.LBB57
 9679 27d2 FE270000 		.4byte	0x27fe
 9680 27d6 18       		.uleb128 0x18
 9681 27d7 57110000 		.4byte	.LASF435
 9682 27db 1601     		.2byte	0x116
 9683 27dd 14       		.byte	0x14
 9684 27de B40B0000 		.4byte	0xbb4
 9685 27e2 02       		.uleb128 0x2
 9686 27e3 91       		.byte	0x91
 9687 27e4 67       		.sleb128 -25
 9688 27e5 1A       		.uleb128 0x1a
 9689 27e6 96000000 		.4byte	.LBB58
 9690 27ea 3A000000 		.4byte	.LBE58-.LBB58
 9691 27ee 07       		.uleb128 0x7
 9692 27ef 747700   		.ascii	"tw\000"
 9693 27f2 1801     		.2byte	0x118
 9694 27f4 1B       		.byte	0x1b
 9695 27f5 B6030000 		.4byte	0x3b6
 9696 27f9 02       		.uleb128 0x2
 9697 27fa 91       		.byte	0x91
 9698 27fb 60       		.sleb128 -32
 9699 27fc 00       		.byte	0
 9700 27fd 00       		.byte	0
 9701 27fe 1A       		.uleb128 0x1a
 9702 27ff EA000000 		.4byte	.LBB59
 9703 2803 66000000 		.4byte	.LBE59-.LBB59
 9704 2807 18       		.uleb128 0x18
 9705 2808 57110000 		.4byte	.LASF435
 9706 280c 2801     		.2byte	0x128
 9707 280e 12       		.byte	0x12
 9708 280f B40B0000 		.4byte	0xbb4
 9709 2813 02       		.uleb128 0x2
 9710 2814 91       		.byte	0x91
 9711 2815 6F       		.sleb128 -17
 9712 2816 1A       		.uleb128 0x1a
 9713 2817 04010000 		.4byte	.LBB60
 9714 281b 3A000000 		.4byte	.LBE60-.LBB60
ARM GAS  C:\Users\DEVELO~1\AppData\Local\Temp\ccBydanM.s 			page 172


 9715 281f 07       		.uleb128 0x7
 9716 2820 747700   		.ascii	"tw\000"
 9717 2823 2A01     		.2byte	0x12a
 9718 2825 19       		.byte	0x19
 9719 2826 B6030000 		.4byte	0x3b6
 9720 282a 02       		.uleb128 0x2
 9721 282b 91       		.byte	0x91
 9722 282c 68       		.sleb128 -24
 9723 282d 00       		.byte	0
 9724 282e 00       		.byte	0
 9725 282f 00       		.byte	0
 9726 2830 00       		.byte	0
 9727 2831 0C       		.uleb128 0xc
 9728 2832 D1000000 		.4byte	0xd1
 9729 2836 41280000 		.4byte	0x2841
 9730 283a 0D       		.uleb128 0xd
 9731 283b 43000000 		.4byte	0x43
 9732 283f 3F       		.byte	0x3f
 9733 2840 00       		.byte	0
 9734 2841 4B       		.uleb128 0x4b
 9735 2842 44090000 		.4byte	.LASF436
 9736 2846 07       		.byte	0x7
 9737 2847 A4       		.byte	0xa4
 9738 2848 06       		.byte	0x6
 9739 2849 00000000 		.4byte	.LFB440
 9740 284d DC000000 		.4byte	.LFE440-.LFB440
 9741 2851 01       		.uleb128 0x1
 9742 2852 9C       		.byte	0x9c
 9743 2853 B0280000 		.4byte	0x28b0
 9744 2857 21       		.uleb128 0x21
 9745 2858 E4000000 		.4byte	.LASF420
 9746 285c 07       		.byte	0x7
 9747 285d A4       		.byte	0xa4
 9748 285e 31       		.byte	0x31
 9749 285f E30B0000 		.4byte	0xbe3
 9750 2863 02       		.uleb128 0x2
 9751 2864 91       		.byte	0x91
 9752 2865 64       		.sleb128 -28
 9753 2866 1E       		.uleb128 0x1e
 9754 2867 6C656E00 		.ascii	"len\000"
 9755 286b 07       		.byte	0x7
 9756 286c A4       		.byte	0xa4
 9757 286d 40       		.byte	0x40
 9758 286e 2D000000 		.4byte	0x2d
 9759 2872 02       		.uleb128 0x2
 9760 2873 91       		.byte	0x91
 9761 2874 60       		.sleb128 -32
 9762 2875 15       		.uleb128 0x15
 9763 2876 2D000000 		.4byte	.LASF437
 9764 287a A9       		.byte	0xa9
 9765 287b 10       		.byte	0x10
 9766 287c 3E000000 		.4byte	0x3e
 9767 2880 02       		.uleb128 0x2
 9768 2881 91       		.byte	0x91
 9769 2882 70       		.sleb128 -16
 9770 2883 1A       		.uleb128 0x1a
 9771 2884 2E000000 		.4byte	.LBB54
ARM GAS  C:\Users\DEVELO~1\AppData\Local\Temp\ccBydanM.s 			page 173


 9772 2888 8E000000 		.4byte	.LBE54-.LBB54
 9773 288c 36       		.uleb128 0x36
 9774 288d 6900     		.ascii	"i\000"
 9775 288f B1       		.byte	0xb1
 9776 2890 0F       		.byte	0xf
 9777 2891 2D000000 		.4byte	0x2d
 9778 2895 02       		.uleb128 0x2
 9779 2896 91       		.byte	0x91
 9780 2897 74       		.sleb128 -12
 9781 2898 1A       		.uleb128 0x1a
 9782 2899 52000000 		.4byte	.LBB55
 9783 289d 56000000 		.4byte	.LBE55-.LBB55
 9784 28a1 36       		.uleb128 0x36
 9785 28a2 6D00     		.ascii	"m\000"
 9786 28a4 B6       		.byte	0xb6
 9787 28a5 0D       		.byte	0xd
 9788 28a6 75010000 		.4byte	0x175
 9789 28aa 02       		.uleb128 0x2
 9790 28ab 91       		.byte	0x91
 9791 28ac 6C       		.sleb128 -20
 9792 28ad 00       		.byte	0
 9793 28ae 00       		.byte	0
 9794 28af 00       		.byte	0
 9795 28b0 37       		.uleb128 0x37
 9796 28b1 02010000 		.4byte	.LASF438
 9797 28b5 07       		.byte	0x7
 9798 28b6 9D       		.byte	0x9d
 9799 28b7 00000000 		.4byte	.LFB439
 9800 28bb 34000000 		.4byte	.LFE439-.LFB439
 9801 28bf 01       		.uleb128 0x1
 9802 28c0 9C       		.byte	0x9c
 9803 28c1 E4280000 		.4byte	0x28e4
 9804 28c5 21       		.uleb128 0x21
 9805 28c6 53100000 		.4byte	.LASF92
 9806 28ca 07       		.byte	0x7
 9807 28cb 9D       		.byte	0x9d
 9808 28cc 35       		.byte	0x35
 9809 28cd E30B0000 		.4byte	0xbe3
 9810 28d1 02       		.uleb128 0x2
 9811 28d2 91       		.byte	0x91
 9812 28d3 74       		.sleb128 -12
 9813 28d4 1E       		.uleb128 0x1e
 9814 28d5 6C656E00 		.ascii	"len\000"
 9815 28d9 07       		.byte	0x7
 9816 28da 9D       		.byte	0x9d
 9817 28db 44       		.byte	0x44
 9818 28dc 2D000000 		.4byte	0x2d
 9819 28e0 02       		.uleb128 0x2
 9820 28e1 91       		.byte	0x91
 9821 28e2 70       		.sleb128 -16
 9822 28e3 00       		.byte	0
 9823 28e4 38       		.uleb128 0x38
 9824 28e5 E2120000 		.4byte	.LASF439
 9825 28e9 96       		.byte	0x96
 9826 28ea 00000000 		.4byte	.LFB438
 9827 28ee 24000000 		.4byte	.LFE438-.LFB438
 9828 28f2 01       		.uleb128 0x1
ARM GAS  C:\Users\DEVELO~1\AppData\Local\Temp\ccBydanM.s 			page 174


 9829 28f3 9C       		.byte	0x9c
 9830 28f4 38       		.uleb128 0x38
 9831 28f5 6B160000 		.4byte	.LASF440
 9832 28f9 8C       		.byte	0x8c
 9833 28fa 00000000 		.4byte	.LFB437
 9834 28fe 3C000000 		.4byte	.LFE437-.LFB437
 9835 2902 01       		.uleb128 0x1
 9836 2903 9C       		.byte	0x9c
 9837 2904 39       		.uleb128 0x39
 9838 2905 9C070000 		.4byte	.LASF441
 9839 2909 84       		.byte	0x84
 9840 290a 00000000 		.4byte	.LFB436
 9841 290e 28000000 		.4byte	.LFE436-.LFB436
 9842 2912 01       		.uleb128 0x1
 9843 2913 9C       		.byte	0x9c
 9844 2914 39       		.uleb128 0x39
 9845 2915 14000000 		.4byte	.LASF442
 9846 2919 79       		.byte	0x79
 9847 291a 00000000 		.4byte	.LFB435
 9848 291e 40000000 		.4byte	.LFE435-.LFB435
 9849 2922 01       		.uleb128 0x1
 9850 2923 9C       		.byte	0x9c
 9851 2924 4C       		.uleb128 0x4c
 9852 2925 94100000 		.4byte	.LASF443
 9853 2929 07       		.byte	0x7
 9854 292a 41       		.byte	0x41
 9855 292b 1C       		.byte	0x1c
 9856 292c 00000000 		.4byte	.LFB434
 9857 2930 14000000 		.4byte	.LFE434-.LFB434
 9858 2934 01       		.uleb128 0x1
 9859 2935 9C       		.byte	0x9c
 9860 2936 59290000 		.4byte	0x2959
 9861 293a 1E       		.uleb128 0x1e
 9862 293b 6D736700 		.ascii	"msg\000"
 9863 293f 07       		.byte	0x7
 9864 2940 41       		.byte	0x41
 9865 2941 41       		.byte	0x41
 9866 2942 E30B0000 		.4byte	0xbe3
 9867 2946 02       		.uleb128 0x2
 9868 2947 91       		.byte	0x91
 9869 2948 74       		.sleb128 -12
 9870 2949 1E       		.uleb128 0x1e
 9871 294a 6C656E00 		.ascii	"len\000"
 9872 294e 07       		.byte	0x7
 9873 294f 41       		.byte	0x41
 9874 2950 4D       		.byte	0x4d
 9875 2951 2D000000 		.4byte	0x2d
 9876 2955 02       		.uleb128 0x2
 9877 2956 91       		.byte	0x91
 9878 2957 70       		.sleb128 -16
 9879 2958 00       		.byte	0
 9880 2959 3A       		.uleb128 0x3a
 9881 295a BD0F0000 		.4byte	.LASF444
 9882 295e 07       		.byte	0x7
 9883 295f 3B       		.byte	0x3b
 9884 2960 00000000 		.4byte	.LFB433
 9885 2964 14000000 		.4byte	.LFE433-.LFB433
ARM GAS  C:\Users\DEVELO~1\AppData\Local\Temp\ccBydanM.s 			page 175


 9886 2968 01       		.uleb128 0x1
 9887 2969 9C       		.byte	0x9c
 9888 296a 8D290000 		.4byte	0x298d
 9889 296e 21       		.uleb128 0x21
 9890 296f 4C080000 		.4byte	.LASF445
 9891 2973 07       		.byte	0x7
 9892 2974 3B       		.byte	0x3b
 9893 2975 38       		.byte	0x38
 9894 2976 8E0D0000 		.4byte	0xd8e
 9895 297a 02       		.uleb128 0x2
 9896 297b 91       		.byte	0x91
 9897 297c 74       		.sleb128 -12
 9898 297d 1E       		.uleb128 0x1e
 9899 297e 6C656E00 		.ascii	"len\000"
 9900 2982 07       		.byte	0x7
 9901 2983 3B       		.byte	0x3b
 9902 2984 45       		.byte	0x45
 9903 2985 2D000000 		.4byte	0x2d
 9904 2989 02       		.uleb128 0x2
 9905 298a 91       		.byte	0x91
 9906 298b 70       		.sleb128 -16
 9907 298c 00       		.byte	0
 9908 298d 3B       		.uleb128 0x3b
 9909 298e AE0A0000 		.4byte	.LASF447
 9910 2992 07       		.byte	0x7
 9911 2993 2A       		.byte	0x2a
 9912 2994 14       		.byte	0x14
 9913 2995 A80B0000 		.4byte	0xba8
 9914 2999 00000000 		.4byte	.LFB432
 9915 299d 24000000 		.4byte	.LFE432-.LFB432
 9916 29a1 01       		.uleb128 0x1
 9917 29a2 9C       		.byte	0x9c
 9918 29a3 B6290000 		.4byte	0x29b6
 9919 29a7 15       		.uleb128 0x15
 9920 29a8 57110000 		.4byte	.LASF435
 9921 29ac 2B       		.byte	0x2b
 9922 29ad 08       		.byte	0x8
 9923 29ae A80B0000 		.4byte	0xba8
 9924 29b2 02       		.uleb128 0x2
 9925 29b3 91       		.byte	0x91
 9926 29b4 77       		.sleb128 -9
 9927 29b5 00       		.byte	0
 9928 29b6 25       		.uleb128 0x25
 9929 29b7 12040000 		.4byte	.LASF448
 9930 29bb 5E02     		.2byte	0x25e
 9931 29bd 00000000 		.4byte	.LFB353
 9932 29c1 0C000000 		.4byte	.LFE353-.LFB353
 9933 29c5 01       		.uleb128 0x1
 9934 29c6 9C       		.byte	0x9c
 9935 29c7 25       		.uleb128 0x25
 9936 29c8 AB0E0000 		.4byte	.LASF449
 9937 29cc 5302     		.2byte	0x253
 9938 29ce 00000000 		.4byte	.LFB352
 9939 29d2 0C000000 		.4byte	.LFE352-.LFB352
 9940 29d6 01       		.uleb128 0x1
 9941 29d7 9C       		.byte	0x9c
 9942 29d8 25       		.uleb128 0x25
ARM GAS  C:\Users\DEVELO~1\AppData\Local\Temp\ccBydanM.s 			page 176


 9943 29d9 EB000000 		.4byte	.LASF450
 9944 29dd 4802     		.2byte	0x248
 9945 29df 00000000 		.4byte	.LFB351
 9946 29e3 0C000000 		.4byte	.LFE351-.LFB351
 9947 29e7 01       		.uleb128 0x1
 9948 29e8 9C       		.byte	0x9c
 9949 29e9 25       		.uleb128 0x25
 9950 29ea BE100000 		.4byte	.LASF451
 9951 29ee 3D02     		.2byte	0x23d
 9952 29f0 00000000 		.4byte	.LFB350
 9953 29f4 0C000000 		.4byte	.LFE350-.LFB350
 9954 29f8 01       		.uleb128 0x1
 9955 29f9 9C       		.byte	0x9c
 9956 29fa 3B       		.uleb128 0x3b
 9957 29fb 3A010000 		.4byte	.LASF452
 9958 29ff 05       		.byte	0x5
 9959 2a00 D3       		.byte	0xd3
 9960 2a01 15       		.byte	0x15
 9961 2a02 75010000 		.4byte	0x175
 9962 2a06 00000000 		.4byte	.LFB269
 9963 2a0a 1E000000 		.4byte	.LFE269-.LFB269
 9964 2a0e 01       		.uleb128 0x1
 9965 2a0f 9C       		.byte	0x9c
 9966 2a10 332A0000 		.4byte	0x2a33
 9967 2a14 1E       		.uleb128 0x1e
 9968 2a15 62737000 		.ascii	"bsp\000"
 9969 2a19 05       		.byte	0x5
 9970 2a1a D3       		.byte	0xd3
 9971 2a1b 3B       		.byte	0x3b
 9972 2a1c 332A0000 		.4byte	0x2a33
 9973 2a20 02       		.uleb128 0x2
 9974 2a21 91       		.byte	0x91
 9975 2a22 74       		.sleb128 -12
 9976 2a23 21       		.uleb128 0x21
 9977 2a24 55060000 		.4byte	.LASF453
 9978 2a28 05       		.byte	0x5
 9979 2a29 D4       		.byte	0xd4
 9980 2a2a 35       		.byte	0x35
 9981 2a2b BB030000 		.4byte	0x3bb
 9982 2a2f 02       		.uleb128 0x2
 9983 2a30 91       		.byte	0x91
 9984 2a31 70       		.sleb128 -16
 9985 2a32 00       		.byte	0
 9986 2a33 06       		.uleb128 0x6
 9987 2a34 270B0000 		.4byte	0xb27
 9988 2a38 37       		.uleb128 0x37
 9989 2a39 970F0000 		.4byte	.LASF454
 9990 2a3d 05       		.byte	0x5
 9991 2a3e 7C       		.byte	0x7c
 9992 2a3f 00000000 		.4byte	.LFB265
 9993 2a43 26000000 		.4byte	.LFE265-.LFB265
 9994 2a47 01       		.uleb128 0x1
 9995 2a48 9C       		.byte	0x9c
 9996 2a49 6C2A0000 		.4byte	0x2a6c
 9997 2a4d 1E       		.uleb128 0x1e
 9998 2a4e 62737000 		.ascii	"bsp\000"
 9999 2a52 05       		.byte	0x5
ARM GAS  C:\Users\DEVELO~1\AppData\Local\Temp\ccBydanM.s 			page 177


 10000 2a53 7C       		.byte	0x7c
 10001 2a54 39       		.byte	0x39
 10002 2a55 332A0000 		.4byte	0x2a33
 10003 2a59 02       		.uleb128 0x2
 10004 2a5a 91       		.byte	0x91
 10005 2a5b 74       		.sleb128 -12
 10006 2a5c 21       		.uleb128 0x21
 10007 2a5d F3090000 		.4byte	.LASF455
 10008 2a61 05       		.byte	0x5
 10009 2a62 7C       		.byte	0x7c
 10010 2a63 43       		.byte	0x43
 10011 2a64 A80B0000 		.4byte	0xba8
 10012 2a68 02       		.uleb128 0x2
 10013 2a69 91       		.byte	0x91
 10014 2a6a 73       		.sleb128 -13
 10015 2a6b 00       		.byte	0
 10016 2a6c 3A       		.uleb128 0x3a
 10017 2a6d 9F120000 		.4byte	.LASF456
 10018 2a71 04       		.byte	0x4
 10019 2a72 A5       		.byte	0xa5
 10020 2a73 00000000 		.4byte	.LFB240
 10021 2a77 20000000 		.4byte	.LFE240-.LFB240
 10022 2a7b 01       		.uleb128 0x1
 10023 2a7c 9C       		.byte	0x9c
 10024 2a7d 912A0000 		.4byte	0x2a91
 10025 2a81 21       		.uleb128 0x21
 10026 2a82 100B0000 		.4byte	.LASF37
 10027 2a86 04       		.byte	0x4
 10028 2a87 A5       		.byte	0xa5
 10029 2a88 33       		.byte	0x33
 10030 2a89 88030000 		.4byte	0x388
 10031 2a8d 02       		.uleb128 0x2
 10032 2a8e 91       		.byte	0x91
 10033 2a8f 74       		.sleb128 -12
 10034 2a90 00       		.byte	0
 10035 2a91 26       		.uleb128 0x26
 10036 2a92 840F0000 		.4byte	.LASF457
 10037 2a96 D901     		.2byte	0x1d9
 10038 2a98 00000000 		.4byte	.LFB205
 10039 2a9c 20000000 		.4byte	.LFE205-.LFB205
 10040 2aa0 01       		.uleb128 0x1
 10041 2aa1 9C       		.byte	0x9c
 10042 2aa2 E22A0000 		.4byte	0x2ae2
 10043 2aa6 19       		.uleb128 0x19
 10044 2aa7 D12B0000 		.4byte	0x2bd1
 10045 2aab 0A000000 		.4byte	.LBB48
 10046 2aaf 0C000000 		.4byte	.LBE48-.LBB48
 10047 2ab3 01       		.byte	0x1
 10048 2ab4 DD01     		.2byte	0x1dd
 10049 2ab6 19       		.uleb128 0x19
 10050 2ab7 DF2B0000 		.4byte	0x2bdf
 10051 2abb 0A000000 		.4byte	.LBB50
 10052 2abf 0A000000 		.4byte	.LBE50-.LBB50
 10053 2ac3 03       		.byte	0x3
 10054 2ac4 6B03     		.2byte	0x36b
 10055 2ac6 19       		.uleb128 0x19
 10056 2ac7 ED2B0000 		.4byte	0x2bed
ARM GAS  C:\Users\DEVELO~1\AppData\Local\Temp\ccBydanM.s 			page 178


 10057 2acb 0A000000 		.4byte	.LBB52
 10058 2acf 08000000 		.4byte	.LBE52-.LBB52
 10059 2ad3 03       		.byte	0x3
 10060 2ad4 5203     		.2byte	0x352
 10061 2ad6 27       		.uleb128 0x27
 10062 2ad7 F72B0000 		.4byte	0x2bf7
 10063 2adb 02       		.uleb128 0x2
 10064 2adc 91       		.byte	0x91
 10065 2add 74       		.sleb128 -12
 10066 2ade 00       		.byte	0
 10067 2adf 00       		.byte	0
 10068 2ae0 00       		.byte	0
 10069 2ae1 00       		.byte	0
 10070 2ae2 26       		.uleb128 0x26
 10071 2ae3 2E140000 		.4byte	.LASF458
 10072 2ae7 C301     		.2byte	0x1c3
 10073 2ae9 00000000 		.4byte	.LFB204
 10074 2aed 20000000 		.4byte	.LFE204-.LFB204
 10075 2af1 01       		.uleb128 0x1
 10076 2af2 9C       		.byte	0x9c
 10077 2af3 332B0000 		.4byte	0x2b33
 10078 2af7 19       		.uleb128 0x19
 10079 2af8 D82B0000 		.4byte	0x2bd8
 10080 2afc 0A000000 		.4byte	.LBB42
 10081 2b00 0C000000 		.4byte	.LBE42-.LBB42
 10082 2b04 01       		.byte	0x1
 10083 2b05 C501     		.2byte	0x1c5
 10084 2b07 19       		.uleb128 0x19
 10085 2b08 E62B0000 		.4byte	0x2be6
 10086 2b0c 0A000000 		.4byte	.LBB44
 10087 2b10 0A000000 		.4byte	.LBE44-.LBB44
 10088 2b14 03       		.byte	0x3
 10089 2b15 6003     		.2byte	0x360
 10090 2b17 19       		.uleb128 0x19
 10091 2b18 ED2B0000 		.4byte	0x2bed
 10092 2b1c 0A000000 		.4byte	.LBB46
 10093 2b20 08000000 		.4byte	.LBE46-.LBB46
 10094 2b24 03       		.byte	0x3
 10095 2b25 3F03     		.2byte	0x33f
 10096 2b27 27       		.uleb128 0x27
 10097 2b28 F72B0000 		.4byte	0x2bf7
 10098 2b2c 02       		.uleb128 0x2
 10099 2b2d 91       		.byte	0x91
 10100 2b2e 74       		.sleb128 -12
 10101 2b2f 00       		.byte	0
 10102 2b30 00       		.byte	0
 10103 2b31 00       		.byte	0
 10104 2b32 00       		.byte	0
 10105 2b33 26       		.uleb128 0x26
 10106 2b34 81020000 		.4byte	.LASF459
 10107 2b38 A501     		.2byte	0x1a5
 10108 2b3a 00000000 		.4byte	.LFB203
 10109 2b3e 1E000000 		.4byte	.LFE203-.LFB203
 10110 2b42 01       		.uleb128 0x1
 10111 2b43 9C       		.byte	0x9c
 10112 2b44 7C2B0000 		.4byte	0x2b7c
 10113 2b48 4D       		.uleb128 0x4d
ARM GAS  C:\Users\DEVELO~1\AppData\Local\Temp\ccBydanM.s 			page 179


 10114 2b49 3B000000 		.4byte	.LASF470
 10115 2b4d 8C2B0000 		.4byte	0x2b8c
 10116 2b51 19       		.uleb128 0x19
 10117 2b52 DF2B0000 		.4byte	0x2bdf
 10118 2b56 0A000000 		.4byte	.LBB38
 10119 2b5a 0A000000 		.4byte	.LBE38-.LBB38
 10120 2b5e 01       		.byte	0x1
 10121 2b5f B201     		.2byte	0x1b2
 10122 2b61 19       		.uleb128 0x19
 10123 2b62 ED2B0000 		.4byte	0x2bed
 10124 2b66 0A000000 		.4byte	.LBB40
 10125 2b6a 08000000 		.4byte	.LBE40-.LBB40
 10126 2b6e 03       		.byte	0x3
 10127 2b6f 5203     		.2byte	0x352
 10128 2b71 27       		.uleb128 0x27
 10129 2b72 F72B0000 		.4byte	0x2bf7
 10130 2b76 02       		.uleb128 0x2
 10131 2b77 91       		.byte	0x91
 10132 2b78 74       		.sleb128 -12
 10133 2b79 00       		.byte	0
 10134 2b7a 00       		.byte	0
 10135 2b7b 00       		.byte	0
 10136 2b7c 0C       		.uleb128 0xc
 10137 2b7d 99030000 		.4byte	0x399
 10138 2b81 8C2B0000 		.4byte	0x2b8c
 10139 2b85 0D       		.uleb128 0xd
 10140 2b86 43000000 		.4byte	0x43
 10141 2b8a 0B       		.byte	0xb
 10142 2b8b 00       		.byte	0
 10143 2b8c 11       		.uleb128 0x11
 10144 2b8d 7C2B0000 		.4byte	0x2b7c
 10145 2b91 26       		.uleb128 0x26
 10146 2b92 F0030000 		.4byte	.LASF460
 10147 2b96 9701     		.2byte	0x197
 10148 2b98 00000000 		.4byte	.LFB202
 10149 2b9c 1E000000 		.4byte	.LFE202-.LFB202
 10150 2ba0 01       		.uleb128 0x1
 10151 2ba1 9C       		.byte	0x9c
 10152 2ba2 D12B0000 		.4byte	0x2bd1
 10153 2ba6 19       		.uleb128 0x19
 10154 2ba7 E62B0000 		.4byte	0x2be6
 10155 2bab 0A000000 		.4byte	.LBB34
 10156 2baf 0A000000 		.4byte	.LBE34-.LBB34
 10157 2bb3 01       		.byte	0x1
 10158 2bb4 9901     		.2byte	0x199
 10159 2bb6 19       		.uleb128 0x19
 10160 2bb7 ED2B0000 		.4byte	0x2bed
 10161 2bbb 0A000000 		.4byte	.LBB36
 10162 2bbf 08000000 		.4byte	.LBE36-.LBB36
 10163 2bc3 03       		.byte	0x3
 10164 2bc4 3F03     		.2byte	0x33f
 10165 2bc6 27       		.uleb128 0x27
 10166 2bc7 F72B0000 		.4byte	0x2bf7
 10167 2bcb 02       		.uleb128 0x2
 10168 2bcc 91       		.byte	0x91
 10169 2bcd 74       		.sleb128 -12
 10170 2bce 00       		.byte	0
ARM GAS  C:\Users\DEVELO~1\AppData\Local\Temp\ccBydanM.s 			page 180


 10171 2bcf 00       		.byte	0
 10172 2bd0 00       		.byte	0
 10173 2bd1 28       		.uleb128 0x28
 10174 2bd2 4A000000 		.4byte	.LASF461
 10175 2bd6 6903     		.2byte	0x369
 10176 2bd8 28       		.uleb128 0x28
 10177 2bd9 E1080000 		.4byte	.LASF462
 10178 2bdd 5E03     		.2byte	0x35e
 10179 2bdf 28       		.uleb128 0x28
 10180 2be0 880D0000 		.4byte	.LASF463
 10181 2be4 4F03     		.2byte	0x34f
 10182 2be6 28       		.uleb128 0x28
 10183 2be7 BE0E0000 		.4byte	.LASF464
 10184 2beb 3703     		.2byte	0x337
 10185 2bed 4E       		.uleb128 0x4e
 10186 2bee DC140000 		.4byte	.LASF471
 10187 2bf2 02       		.byte	0x2
 10188 2bf3 EB01     		.2byte	0x1eb
 10189 2bf5 1B       		.byte	0x1b
 10190 2bf6 03       		.byte	0x3
 10191 2bf7 4F       		.uleb128 0x4f
 10192 2bf8 CC040000 		.4byte	.LASF472
 10193 2bfc 02       		.byte	0x2
 10194 2bfd EB01     		.2byte	0x1eb
 10195 2bff 32       		.byte	0x32
 10196 2c00 06010000 		.4byte	0x106
 10197 2c04 00       		.byte	0
 10198 2c05 00       		.byte	0
 10199              		.section	.debug_abbrev,"",%progbits
 10200              	.Ldebug_abbrev0:
 10201 0000 01       		.uleb128 0x1
 10202 0001 0D       		.uleb128 0xd
 10203 0002 00       		.byte	0
 10204 0003 03       		.uleb128 0x3
 10205 0004 0E       		.uleb128 0xe
 10206 0005 3A       		.uleb128 0x3a
 10207 0006 0B       		.uleb128 0xb
 10208 0007 3B       		.uleb128 0x3b
 10209 0008 0B       		.uleb128 0xb
 10210 0009 39       		.uleb128 0x39
 10211 000a 0B       		.uleb128 0xb
 10212 000b 49       		.uleb128 0x49
 10213 000c 13       		.uleb128 0x13
 10214 000d 38       		.uleb128 0x38
 10215 000e 0B       		.uleb128 0xb
 10216 000f 00       		.byte	0
 10217 0010 00       		.byte	0
 10218 0011 02       		.uleb128 0x2
 10219 0012 0D       		.uleb128 0xd
 10220 0013 00       		.byte	0
 10221 0014 03       		.uleb128 0x3
 10222 0015 0E       		.uleb128 0xe
 10223 0016 3A       		.uleb128 0x3a
 10224 0017 0B       		.uleb128 0xb
 10225 0018 3B       		.uleb128 0x3b
 10226 0019 05       		.uleb128 0x5
 10227 001a 39       		.uleb128 0x39
ARM GAS  C:\Users\DEVELO~1\AppData\Local\Temp\ccBydanM.s 			page 181


 10228 001b 0B       		.uleb128 0xb
 10229 001c 49       		.uleb128 0x49
 10230 001d 13       		.uleb128 0x13
 10231 001e 38       		.uleb128 0x38
 10232 001f 0B       		.uleb128 0xb
 10233 0020 00       		.byte	0
 10234 0021 00       		.byte	0
 10235 0022 03       		.uleb128 0x3
 10236 0023 05       		.uleb128 0x5
 10237 0024 00       		.byte	0
 10238 0025 49       		.uleb128 0x49
 10239 0026 13       		.uleb128 0x13
 10240 0027 00       		.byte	0
 10241 0028 00       		.byte	0
 10242 0029 04       		.uleb128 0x4
 10243 002a 16       		.uleb128 0x16
 10244 002b 00       		.byte	0
 10245 002c 03       		.uleb128 0x3
 10246 002d 0E       		.uleb128 0xe
 10247 002e 3A       		.uleb128 0x3a
 10248 002f 0B       		.uleb128 0xb
 10249 0030 3B       		.uleb128 0x3b
 10250 0031 0B       		.uleb128 0xb
 10251 0032 39       		.uleb128 0x39
 10252 0033 0B       		.uleb128 0xb
 10253 0034 49       		.uleb128 0x49
 10254 0035 13       		.uleb128 0x13
 10255 0036 00       		.byte	0
 10256 0037 00       		.byte	0
 10257 0038 05       		.uleb128 0x5
 10258 0039 05       		.uleb128 0x5
 10259 003a 00       		.byte	0
 10260 003b 03       		.uleb128 0x3
 10261 003c 08       		.uleb128 0x8
 10262 003d 3A       		.uleb128 0x3a
 10263 003e 21       		.uleb128 0x21
 10264 003f 07       		.sleb128 7
 10265 0040 3B       		.uleb128 0x3b
 10266 0041 05       		.uleb128 0x5
 10267 0042 39       		.uleb128 0x39
 10268 0043 0B       		.uleb128 0xb
 10269 0044 49       		.uleb128 0x49
 10270 0045 13       		.uleb128 0x13
 10271 0046 02       		.uleb128 0x2
 10272 0047 18       		.uleb128 0x18
 10273 0048 00       		.byte	0
 10274 0049 00       		.byte	0
 10275 004a 06       		.uleb128 0x6
 10276 004b 0F       		.uleb128 0xf
 10277 004c 00       		.byte	0
 10278 004d 0B       		.uleb128 0xb
 10279 004e 21       		.uleb128 0x21
 10280 004f 04       		.sleb128 4
 10281 0050 49       		.uleb128 0x49
 10282 0051 13       		.uleb128 0x13
 10283 0052 00       		.byte	0
 10284 0053 00       		.byte	0
ARM GAS  C:\Users\DEVELO~1\AppData\Local\Temp\ccBydanM.s 			page 182


 10285 0054 07       		.uleb128 0x7
 10286 0055 34       		.uleb128 0x34
 10287 0056 00       		.byte	0
 10288 0057 03       		.uleb128 0x3
 10289 0058 08       		.uleb128 0x8
 10290 0059 3A       		.uleb128 0x3a
 10291 005a 21       		.uleb128 0x21
 10292 005b 07       		.sleb128 7
 10293 005c 3B       		.uleb128 0x3b
 10294 005d 05       		.uleb128 0x5
 10295 005e 39       		.uleb128 0x39
 10296 005f 0B       		.uleb128 0xb
 10297 0060 49       		.uleb128 0x49
 10298 0061 13       		.uleb128 0x13
 10299 0062 02       		.uleb128 0x2
 10300 0063 18       		.uleb128 0x18
 10301 0064 00       		.byte	0
 10302 0065 00       		.byte	0
 10303 0066 08       		.uleb128 0x8
 10304 0067 0D       		.uleb128 0xd
 10305 0068 00       		.byte	0
 10306 0069 03       		.uleb128 0x3
 10307 006a 0E       		.uleb128 0xe
 10308 006b 3A       		.uleb128 0x3a
 10309 006c 21       		.uleb128 0x21
 10310 006d 1E       		.sleb128 30
 10311 006e 3B       		.uleb128 0x3b
 10312 006f 0B       		.uleb128 0xb
 10313 0070 39       		.uleb128 0x39
 10314 0071 21       		.uleb128 0x21
 10315 0072 15       		.sleb128 21
 10316 0073 49       		.uleb128 0x49
 10317 0074 13       		.uleb128 0x13
 10318 0075 38       		.uleb128 0x38
 10319 0076 05       		.uleb128 0x5
 10320 0077 00       		.byte	0
 10321 0078 00       		.byte	0
 10322 0079 09       		.uleb128 0x9
 10323 007a 28       		.uleb128 0x28
 10324 007b 00       		.byte	0
 10325 007c 03       		.uleb128 0x3
 10326 007d 0E       		.uleb128 0xe
 10327 007e 1C       		.uleb128 0x1c
 10328 007f 0B       		.uleb128 0xb
 10329 0080 00       		.byte	0
 10330 0081 00       		.byte	0
 10331 0082 0A       		.uleb128 0xa
 10332 0083 0D       		.uleb128 0xd
 10333 0084 00       		.byte	0
 10334 0085 03       		.uleb128 0x3
 10335 0086 08       		.uleb128 0x8
 10336 0087 3A       		.uleb128 0x3a
 10337 0088 0B       		.uleb128 0xb
 10338 0089 3B       		.uleb128 0x3b
 10339 008a 05       		.uleb128 0x5
 10340 008b 39       		.uleb128 0x39
 10341 008c 0B       		.uleb128 0xb
ARM GAS  C:\Users\DEVELO~1\AppData\Local\Temp\ccBydanM.s 			page 183


 10342 008d 49       		.uleb128 0x49
 10343 008e 13       		.uleb128 0x13
 10344 008f 38       		.uleb128 0x38
 10345 0090 0B       		.uleb128 0xb
 10346 0091 00       		.byte	0
 10347 0092 00       		.byte	0
 10348 0093 0B       		.uleb128 0xb
 10349 0094 2E       		.uleb128 0x2e
 10350 0095 01       		.byte	0x1
 10351 0096 3F       		.uleb128 0x3f
 10352 0097 19       		.uleb128 0x19
 10353 0098 03       		.uleb128 0x3
 10354 0099 0E       		.uleb128 0xe
 10355 009a 3A       		.uleb128 0x3a
 10356 009b 21       		.uleb128 0x21
 10357 009c 07       		.sleb128 7
 10358 009d 3B       		.uleb128 0x3b
 10359 009e 05       		.uleb128 0x5
 10360 009f 39       		.uleb128 0x39
 10361 00a0 21       		.uleb128 0x21
 10362 00a1 06       		.sleb128 6
 10363 00a2 27       		.uleb128 0x27
 10364 00a3 19       		.uleb128 0x19
 10365 00a4 11       		.uleb128 0x11
 10366 00a5 01       		.uleb128 0x1
 10367 00a6 12       		.uleb128 0x12
 10368 00a7 06       		.uleb128 0x6
 10369 00a8 40       		.uleb128 0x40
 10370 00a9 18       		.uleb128 0x18
 10371 00aa 7C       		.uleb128 0x7c
 10372 00ab 19       		.uleb128 0x19
 10373 00ac 01       		.uleb128 0x1
 10374 00ad 13       		.uleb128 0x13
 10375 00ae 00       		.byte	0
 10376 00af 00       		.byte	0
 10377 00b0 0C       		.uleb128 0xc
 10378 00b1 01       		.uleb128 0x1
 10379 00b2 01       		.byte	0x1
 10380 00b3 49       		.uleb128 0x49
 10381 00b4 13       		.uleb128 0x13
 10382 00b5 01       		.uleb128 0x1
 10383 00b6 13       		.uleb128 0x13
 10384 00b7 00       		.byte	0
 10385 00b8 00       		.byte	0
 10386 00b9 0D       		.uleb128 0xd
 10387 00ba 21       		.uleb128 0x21
 10388 00bb 00       		.byte	0
 10389 00bc 49       		.uleb128 0x49
 10390 00bd 13       		.uleb128 0x13
 10391 00be 2F       		.uleb128 0x2f
 10392 00bf 0B       		.uleb128 0xb
 10393 00c0 00       		.byte	0
 10394 00c1 00       		.byte	0
 10395 00c2 0E       		.uleb128 0xe
 10396 00c3 0D       		.uleb128 0xd
 10397 00c4 00       		.byte	0
 10398 00c5 03       		.uleb128 0x3
ARM GAS  C:\Users\DEVELO~1\AppData\Local\Temp\ccBydanM.s 			page 184


 10399 00c6 08       		.uleb128 0x8
 10400 00c7 3A       		.uleb128 0x3a
 10401 00c8 0B       		.uleb128 0xb
 10402 00c9 3B       		.uleb128 0x3b
 10403 00ca 0B       		.uleb128 0xb
 10404 00cb 39       		.uleb128 0x39
 10405 00cc 0B       		.uleb128 0xb
 10406 00cd 49       		.uleb128 0x49
 10407 00ce 13       		.uleb128 0x13
 10408 00cf 38       		.uleb128 0x38
 10409 00d0 0B       		.uleb128 0xb
 10410 00d1 00       		.byte	0
 10411 00d2 00       		.byte	0
 10412 00d3 0F       		.uleb128 0xf
 10413 00d4 16       		.uleb128 0x16
 10414 00d5 00       		.byte	0
 10415 00d6 03       		.uleb128 0x3
 10416 00d7 0E       		.uleb128 0xe
 10417 00d8 3A       		.uleb128 0x3a
 10418 00d9 0B       		.uleb128 0xb
 10419 00da 3B       		.uleb128 0x3b
 10420 00db 05       		.uleb128 0x5
 10421 00dc 39       		.uleb128 0x39
 10422 00dd 0B       		.uleb128 0xb
 10423 00de 49       		.uleb128 0x49
 10424 00df 13       		.uleb128 0x13
 10425 00e0 00       		.byte	0
 10426 00e1 00       		.byte	0
 10427 00e2 10       		.uleb128 0x10
 10428 00e3 13       		.uleb128 0x13
 10429 00e4 01       		.byte	0x1
 10430 00e5 03       		.uleb128 0x3
 10431 00e6 0E       		.uleb128 0xe
 10432 00e7 0B       		.uleb128 0xb
 10433 00e8 0B       		.uleb128 0xb
 10434 00e9 3A       		.uleb128 0x3a
 10435 00ea 0B       		.uleb128 0xb
 10436 00eb 3B       		.uleb128 0x3b
 10437 00ec 0B       		.uleb128 0xb
 10438 00ed 39       		.uleb128 0x39
 10439 00ee 0B       		.uleb128 0xb
 10440 00ef 01       		.uleb128 0x1
 10441 00f0 13       		.uleb128 0x13
 10442 00f1 00       		.byte	0
 10443 00f2 00       		.byte	0
 10444 00f3 11       		.uleb128 0x11
 10445 00f4 26       		.uleb128 0x26
 10446 00f5 00       		.byte	0
 10447 00f6 49       		.uleb128 0x49
 10448 00f7 13       		.uleb128 0x13
 10449 00f8 00       		.byte	0
 10450 00f9 00       		.byte	0
 10451 00fa 12       		.uleb128 0x12
 10452 00fb 35       		.uleb128 0x35
 10453 00fc 00       		.byte	0
 10454 00fd 49       		.uleb128 0x49
 10455 00fe 13       		.uleb128 0x13
ARM GAS  C:\Users\DEVELO~1\AppData\Local\Temp\ccBydanM.s 			page 185


 10456 00ff 00       		.byte	0
 10457 0100 00       		.byte	0
 10458 0101 13       		.uleb128 0x13
 10459 0102 05       		.uleb128 0x5
 10460 0103 00       		.byte	0
 10461 0104 03       		.uleb128 0x3
 10462 0105 0E       		.uleb128 0xe
 10463 0106 3A       		.uleb128 0x3a
 10464 0107 21       		.uleb128 0x21
 10465 0108 07       		.sleb128 7
 10466 0109 3B       		.uleb128 0x3b
 10467 010a 05       		.uleb128 0x5
 10468 010b 39       		.uleb128 0x39
 10469 010c 0B       		.uleb128 0xb
 10470 010d 49       		.uleb128 0x49
 10471 010e 13       		.uleb128 0x13
 10472 010f 02       		.uleb128 0x2
 10473 0110 18       		.uleb128 0x18
 10474 0111 00       		.byte	0
 10475 0112 00       		.byte	0
 10476 0113 14       		.uleb128 0x14
 10477 0114 13       		.uleb128 0x13
 10478 0115 01       		.byte	0x1
 10479 0116 0B       		.uleb128 0xb
 10480 0117 0B       		.uleb128 0xb
 10481 0118 3A       		.uleb128 0x3a
 10482 0119 0B       		.uleb128 0xb
 10483 011a 3B       		.uleb128 0x3b
 10484 011b 0B       		.uleb128 0xb
 10485 011c 39       		.uleb128 0x39
 10486 011d 0B       		.uleb128 0xb
 10487 011e 01       		.uleb128 0x1
 10488 011f 13       		.uleb128 0x13
 10489 0120 00       		.byte	0
 10490 0121 00       		.byte	0
 10491 0122 15       		.uleb128 0x15
 10492 0123 34       		.uleb128 0x34
 10493 0124 00       		.byte	0
 10494 0125 03       		.uleb128 0x3
 10495 0126 0E       		.uleb128 0xe
 10496 0127 3A       		.uleb128 0x3a
 10497 0128 21       		.uleb128 0x21
 10498 0129 07       		.sleb128 7
 10499 012a 3B       		.uleb128 0x3b
 10500 012b 0B       		.uleb128 0xb
 10501 012c 39       		.uleb128 0x39
 10502 012d 0B       		.uleb128 0xb
 10503 012e 49       		.uleb128 0x49
 10504 012f 13       		.uleb128 0x13
 10505 0130 02       		.uleb128 0x2
 10506 0131 18       		.uleb128 0x18
 10507 0132 00       		.byte	0
 10508 0133 00       		.byte	0
 10509 0134 16       		.uleb128 0x16
 10510 0135 24       		.uleb128 0x24
 10511 0136 00       		.byte	0
 10512 0137 0B       		.uleb128 0xb
ARM GAS  C:\Users\DEVELO~1\AppData\Local\Temp\ccBydanM.s 			page 186


 10513 0138 0B       		.uleb128 0xb
 10514 0139 3E       		.uleb128 0x3e
 10515 013a 0B       		.uleb128 0xb
 10516 013b 03       		.uleb128 0x3
 10517 013c 0E       		.uleb128 0xe
 10518 013d 00       		.byte	0
 10519 013e 00       		.byte	0
 10520 013f 17       		.uleb128 0x17
 10521 0140 15       		.uleb128 0x15
 10522 0141 01       		.byte	0x1
 10523 0142 27       		.uleb128 0x27
 10524 0143 19       		.uleb128 0x19
 10525 0144 49       		.uleb128 0x49
 10526 0145 13       		.uleb128 0x13
 10527 0146 01       		.uleb128 0x1
 10528 0147 13       		.uleb128 0x13
 10529 0148 00       		.byte	0
 10530 0149 00       		.byte	0
 10531 014a 18       		.uleb128 0x18
 10532 014b 34       		.uleb128 0x34
 10533 014c 00       		.byte	0
 10534 014d 03       		.uleb128 0x3
 10535 014e 0E       		.uleb128 0xe
 10536 014f 3A       		.uleb128 0x3a
 10537 0150 21       		.uleb128 0x21
 10538 0151 07       		.sleb128 7
 10539 0152 3B       		.uleb128 0x3b
 10540 0153 05       		.uleb128 0x5
 10541 0154 39       		.uleb128 0x39
 10542 0155 0B       		.uleb128 0xb
 10543 0156 49       		.uleb128 0x49
 10544 0157 13       		.uleb128 0x13
 10545 0158 02       		.uleb128 0x2
 10546 0159 18       		.uleb128 0x18
 10547 015a 00       		.byte	0
 10548 015b 00       		.byte	0
 10549 015c 19       		.uleb128 0x19
 10550 015d 1D       		.uleb128 0x1d
 10551 015e 01       		.byte	0x1
 10552 015f 31       		.uleb128 0x31
 10553 0160 13       		.uleb128 0x13
 10554 0161 11       		.uleb128 0x11
 10555 0162 01       		.uleb128 0x1
 10556 0163 12       		.uleb128 0x12
 10557 0164 06       		.uleb128 0x6
 10558 0165 58       		.uleb128 0x58
 10559 0166 0B       		.uleb128 0xb
 10560 0167 59       		.uleb128 0x59
 10561 0168 05       		.uleb128 0x5
 10562 0169 57       		.uleb128 0x57
 10563 016a 21       		.uleb128 0x21
 10564 016b 03       		.sleb128 3
 10565 016c 00       		.byte	0
 10566 016d 00       		.byte	0
 10567 016e 1A       		.uleb128 0x1a
 10568 016f 0B       		.uleb128 0xb
 10569 0170 01       		.byte	0x1
ARM GAS  C:\Users\DEVELO~1\AppData\Local\Temp\ccBydanM.s 			page 187


 10570 0171 11       		.uleb128 0x11
 10571 0172 01       		.uleb128 0x1
 10572 0173 12       		.uleb128 0x12
 10573 0174 06       		.uleb128 0x6
 10574 0175 00       		.byte	0
 10575 0176 00       		.byte	0
 10576 0177 1B       		.uleb128 0x1b
 10577 0178 2E       		.uleb128 0x2e
 10578 0179 01       		.byte	0x1
 10579 017a 03       		.uleb128 0x3
 10580 017b 0E       		.uleb128 0xe
 10581 017c 3A       		.uleb128 0x3a
 10582 017d 21       		.uleb128 0x21
 10583 017e 07       		.sleb128 7
 10584 017f 3B       		.uleb128 0x3b
 10585 0180 05       		.uleb128 0x5
 10586 0181 39       		.uleb128 0x39
 10587 0182 0B       		.uleb128 0xb
 10588 0183 27       		.uleb128 0x27
 10589 0184 19       		.uleb128 0x19
 10590 0185 11       		.uleb128 0x11
 10591 0186 01       		.uleb128 0x1
 10592 0187 12       		.uleb128 0x12
 10593 0188 06       		.uleb128 0x6
 10594 0189 40       		.uleb128 0x40
 10595 018a 18       		.uleb128 0x18
 10596 018b 7C       		.uleb128 0x7c
 10597 018c 19       		.uleb128 0x19
 10598 018d 01       		.uleb128 0x1
 10599 018e 13       		.uleb128 0x13
 10600 018f 00       		.byte	0
 10601 0190 00       		.byte	0
 10602 0191 1C       		.uleb128 0x1c
 10603 0192 0D       		.uleb128 0xd
 10604 0193 00       		.byte	0
 10605 0194 03       		.uleb128 0x3
 10606 0195 0E       		.uleb128 0xe
 10607 0196 3A       		.uleb128 0x3a
 10608 0197 0B       		.uleb128 0xb
 10609 0198 3B       		.uleb128 0x3b
 10610 0199 0B       		.uleb128 0xb
 10611 019a 39       		.uleb128 0x39
 10612 019b 0B       		.uleb128 0xb
 10613 019c 49       		.uleb128 0x49
 10614 019d 13       		.uleb128 0x13
 10615 019e 00       		.byte	0
 10616 019f 00       		.byte	0
 10617 01a0 1D       		.uleb128 0x1d
 10618 01a1 13       		.uleb128 0x13
 10619 01a2 01       		.byte	0x1
 10620 01a3 0B       		.uleb128 0xb
 10621 01a4 0B       		.uleb128 0xb
 10622 01a5 3A       		.uleb128 0x3a
 10623 01a6 0B       		.uleb128 0xb
 10624 01a7 3B       		.uleb128 0x3b
 10625 01a8 05       		.uleb128 0x5
 10626 01a9 39       		.uleb128 0x39
ARM GAS  C:\Users\DEVELO~1\AppData\Local\Temp\ccBydanM.s 			page 188


 10627 01aa 21       		.uleb128 0x21
 10628 01ab 09       		.sleb128 9
 10629 01ac 01       		.uleb128 0x1
 10630 01ad 13       		.uleb128 0x13
 10631 01ae 00       		.byte	0
 10632 01af 00       		.byte	0
 10633 01b0 1E       		.uleb128 0x1e
 10634 01b1 05       		.uleb128 0x5
 10635 01b2 00       		.byte	0
 10636 01b3 03       		.uleb128 0x3
 10637 01b4 08       		.uleb128 0x8
 10638 01b5 3A       		.uleb128 0x3a
 10639 01b6 0B       		.uleb128 0xb
 10640 01b7 3B       		.uleb128 0x3b
 10641 01b8 0B       		.uleb128 0xb
 10642 01b9 39       		.uleb128 0x39
 10643 01ba 0B       		.uleb128 0xb
 10644 01bb 49       		.uleb128 0x49
 10645 01bc 13       		.uleb128 0x13
 10646 01bd 02       		.uleb128 0x2
 10647 01be 18       		.uleb128 0x18
 10648 01bf 00       		.byte	0
 10649 01c0 00       		.byte	0
 10650 01c1 1F       		.uleb128 0x1f
 10651 01c2 13       		.uleb128 0x13
 10652 01c3 01       		.byte	0x1
 10653 01c4 03       		.uleb128 0x3
 10654 01c5 0E       		.uleb128 0xe
 10655 01c6 0B       		.uleb128 0xb
 10656 01c7 0B       		.uleb128 0xb
 10657 01c8 3A       		.uleb128 0x3a
 10658 01c9 0B       		.uleb128 0xb
 10659 01ca 3B       		.uleb128 0x3b
 10660 01cb 05       		.uleb128 0x5
 10661 01cc 39       		.uleb128 0x39
 10662 01cd 0B       		.uleb128 0xb
 10663 01ce 01       		.uleb128 0x1
 10664 01cf 13       		.uleb128 0x13
 10665 01d0 00       		.byte	0
 10666 01d1 00       		.byte	0
 10667 01d2 20       		.uleb128 0x20
 10668 01d3 0D       		.uleb128 0xd
 10669 01d4 00       		.byte	0
 10670 01d5 03       		.uleb128 0x3
 10671 01d6 0E       		.uleb128 0xe
 10672 01d7 3A       		.uleb128 0x3a
 10673 01d8 21       		.uleb128 0x21
 10674 01d9 0D       		.sleb128 13
 10675 01da 3B       		.uleb128 0x3b
 10676 01db 05       		.uleb128 0x5
 10677 01dc 39       		.uleb128 0x39
 10678 01dd 0B       		.uleb128 0xb
 10679 01de 49       		.uleb128 0x49
 10680 01df 13       		.uleb128 0x13
 10681 01e0 00       		.byte	0
 10682 01e1 00       		.byte	0
 10683 01e2 21       		.uleb128 0x21
ARM GAS  C:\Users\DEVELO~1\AppData\Local\Temp\ccBydanM.s 			page 189


 10684 01e3 05       		.uleb128 0x5
 10685 01e4 00       		.byte	0
 10686 01e5 03       		.uleb128 0x3
 10687 01e6 0E       		.uleb128 0xe
 10688 01e7 3A       		.uleb128 0x3a
 10689 01e8 0B       		.uleb128 0xb
 10690 01e9 3B       		.uleb128 0x3b
 10691 01ea 0B       		.uleb128 0xb
 10692 01eb 39       		.uleb128 0x39
 10693 01ec 0B       		.uleb128 0xb
 10694 01ed 49       		.uleb128 0x49
 10695 01ee 13       		.uleb128 0x13
 10696 01ef 02       		.uleb128 0x2
 10697 01f0 18       		.uleb128 0x18
 10698 01f1 00       		.byte	0
 10699 01f2 00       		.byte	0
 10700 01f3 22       		.uleb128 0x22
 10701 01f4 15       		.uleb128 0x15
 10702 01f5 01       		.byte	0x1
 10703 01f6 27       		.uleb128 0x27
 10704 01f7 19       		.uleb128 0x19
 10705 01f8 01       		.uleb128 0x1
 10706 01f9 13       		.uleb128 0x13
 10707 01fa 00       		.byte	0
 10708 01fb 00       		.byte	0
 10709 01fc 23       		.uleb128 0x23
 10710 01fd 34       		.uleb128 0x34
 10711 01fe 00       		.byte	0
 10712 01ff 03       		.uleb128 0x3
 10713 0200 0E       		.uleb128 0xe
 10714 0201 3A       		.uleb128 0x3a
 10715 0202 0B       		.uleb128 0xb
 10716 0203 3B       		.uleb128 0x3b
 10717 0204 0B       		.uleb128 0xb
 10718 0205 39       		.uleb128 0x39
 10719 0206 0B       		.uleb128 0xb
 10720 0207 49       		.uleb128 0x49
 10721 0208 13       		.uleb128 0x13
 10722 0209 3F       		.uleb128 0x3f
 10723 020a 19       		.uleb128 0x19
 10724 020b 3C       		.uleb128 0x3c
 10725 020c 19       		.uleb128 0x19
 10726 020d 00       		.byte	0
 10727 020e 00       		.byte	0
 10728 020f 24       		.uleb128 0x24
 10729 0210 2E       		.uleb128 0x2e
 10730 0211 01       		.byte	0x1
 10731 0212 3F       		.uleb128 0x3f
 10732 0213 19       		.uleb128 0x19
 10733 0214 03       		.uleb128 0x3
 10734 0215 0E       		.uleb128 0xe
 10735 0216 3A       		.uleb128 0x3a
 10736 0217 0B       		.uleb128 0xb
 10737 0218 3B       		.uleb128 0x3b
 10738 0219 0B       		.uleb128 0xb
 10739 021a 39       		.uleb128 0x39
 10740 021b 21       		.uleb128 0x21
ARM GAS  C:\Users\DEVELO~1\AppData\Local\Temp\ccBydanM.s 			page 190


 10741 021c 09       		.sleb128 9
 10742 021d 27       		.uleb128 0x27
 10743 021e 19       		.uleb128 0x19
 10744 021f 49       		.uleb128 0x49
 10745 0220 13       		.uleb128 0x13
 10746 0221 3C       		.uleb128 0x3c
 10747 0222 19       		.uleb128 0x19
 10748 0223 01       		.uleb128 0x1
 10749 0224 13       		.uleb128 0x13
 10750 0225 00       		.byte	0
 10751 0226 00       		.byte	0
 10752 0227 25       		.uleb128 0x25
 10753 0228 2E       		.uleb128 0x2e
 10754 0229 00       		.byte	0
 10755 022a 03       		.uleb128 0x3
 10756 022b 0E       		.uleb128 0xe
 10757 022c 3A       		.uleb128 0x3a
 10758 022d 21       		.uleb128 0x21
 10759 022e 06       		.sleb128 6
 10760 022f 3B       		.uleb128 0x3b
 10761 0230 05       		.uleb128 0x5
 10762 0231 39       		.uleb128 0x39
 10763 0232 21       		.uleb128 0x21
 10764 0233 14       		.sleb128 20
 10765 0234 27       		.uleb128 0x27
 10766 0235 19       		.uleb128 0x19
 10767 0236 11       		.uleb128 0x11
 10768 0237 01       		.uleb128 0x1
 10769 0238 12       		.uleb128 0x12
 10770 0239 06       		.uleb128 0x6
 10771 023a 40       		.uleb128 0x40
 10772 023b 18       		.uleb128 0x18
 10773 023c 7C       		.uleb128 0x7c
 10774 023d 19       		.uleb128 0x19
 10775 023e 00       		.byte	0
 10776 023f 00       		.byte	0
 10777 0240 26       		.uleb128 0x26
 10778 0241 2E       		.uleb128 0x2e
 10779 0242 01       		.byte	0x1
 10780 0243 03       		.uleb128 0x3
 10781 0244 0E       		.uleb128 0xe
 10782 0245 3A       		.uleb128 0x3a
 10783 0246 21       		.uleb128 0x21
 10784 0247 01       		.sleb128 1
 10785 0248 3B       		.uleb128 0x3b
 10786 0249 05       		.uleb128 0x5
 10787 024a 39       		.uleb128 0x39
 10788 024b 21       		.uleb128 0x21
 10789 024c 14       		.sleb128 20
 10790 024d 27       		.uleb128 0x27
 10791 024e 19       		.uleb128 0x19
 10792 024f 11       		.uleb128 0x11
 10793 0250 01       		.uleb128 0x1
 10794 0251 12       		.uleb128 0x12
 10795 0252 06       		.uleb128 0x6
 10796 0253 40       		.uleb128 0x40
 10797 0254 18       		.uleb128 0x18
ARM GAS  C:\Users\DEVELO~1\AppData\Local\Temp\ccBydanM.s 			page 191


 10798 0255 7A       		.uleb128 0x7a
 10799 0256 19       		.uleb128 0x19
 10800 0257 01       		.uleb128 0x1
 10801 0258 13       		.uleb128 0x13
 10802 0259 00       		.byte	0
 10803 025a 00       		.byte	0
 10804 025b 27       		.uleb128 0x27
 10805 025c 05       		.uleb128 0x5
 10806 025d 00       		.byte	0
 10807 025e 31       		.uleb128 0x31
 10808 025f 13       		.uleb128 0x13
 10809 0260 02       		.uleb128 0x2
 10810 0261 18       		.uleb128 0x18
 10811 0262 00       		.byte	0
 10812 0263 00       		.byte	0
 10813 0264 28       		.uleb128 0x28
 10814 0265 2E       		.uleb128 0x2e
 10815 0266 00       		.byte	0
 10816 0267 03       		.uleb128 0x3
 10817 0268 0E       		.uleb128 0xe
 10818 0269 3A       		.uleb128 0x3a
 10819 026a 21       		.uleb128 0x21
 10820 026b 03       		.sleb128 3
 10821 026c 3B       		.uleb128 0x3b
 10822 026d 05       		.uleb128 0x5
 10823 026e 39       		.uleb128 0x39
 10824 026f 21       		.uleb128 0x21
 10825 0270 1B       		.sleb128 27
 10826 0271 27       		.uleb128 0x27
 10827 0272 19       		.uleb128 0x19
 10828 0273 20       		.uleb128 0x20
 10829 0274 21       		.uleb128 0x21
 10830 0275 03       		.sleb128 3
 10831 0276 00       		.byte	0
 10832 0277 00       		.byte	0
 10833 0278 29       		.uleb128 0x29
 10834 0279 17       		.uleb128 0x17
 10835 027a 01       		.byte	0x1
 10836 027b 0B       		.uleb128 0xb
 10837 027c 0B       		.uleb128 0xb
 10838 027d 3A       		.uleb128 0x3a
 10839 027e 0B       		.uleb128 0xb
 10840 027f 3B       		.uleb128 0x3b
 10841 0280 0B       		.uleb128 0xb
 10842 0281 39       		.uleb128 0x39
 10843 0282 21       		.uleb128 0x21
 10844 0283 03       		.sleb128 3
 10845 0284 01       		.uleb128 0x1
 10846 0285 13       		.uleb128 0x13
 10847 0286 00       		.byte	0
 10848 0287 00       		.byte	0
 10849 0288 2A       		.uleb128 0x2a
 10850 0289 0D       		.uleb128 0xd
 10851 028a 00       		.byte	0
 10852 028b 03       		.uleb128 0x3
 10853 028c 08       		.uleb128 0x8
 10854 028d 3A       		.uleb128 0x3a
ARM GAS  C:\Users\DEVELO~1\AppData\Local\Temp\ccBydanM.s 			page 192


 10855 028e 21       		.uleb128 0x21
 10856 028f 12       		.sleb128 18
 10857 0290 3B       		.uleb128 0x3b
 10858 0291 0B       		.uleb128 0xb
 10859 0292 39       		.uleb128 0x39
 10860 0293 21       		.uleb128 0x21
 10861 0294 07       		.sleb128 7
 10862 0295 49       		.uleb128 0x49
 10863 0296 13       		.uleb128 0x13
 10864 0297 00       		.byte	0
 10865 0298 00       		.byte	0
 10866 0299 2B       		.uleb128 0x2b
 10867 029a 0D       		.uleb128 0xd
 10868 029b 00       		.byte	0
 10869 029c 03       		.uleb128 0x3
 10870 029d 0E       		.uleb128 0xe
 10871 029e 3A       		.uleb128 0x3a
 10872 029f 21       		.uleb128 0x21
 10873 02a0 12       		.sleb128 18
 10874 02a1 3B       		.uleb128 0x3b
 10875 02a2 0B       		.uleb128 0xb
 10876 02a3 39       		.uleb128 0x39
 10877 02a4 21       		.uleb128 0x21
 10878 02a5 19       		.sleb128 25
 10879 02a6 49       		.uleb128 0x49
 10880 02a7 13       		.uleb128 0x13
 10881 02a8 0D       		.uleb128 0xd
 10882 02a9 0B       		.uleb128 0xb
 10883 02aa 6B       		.uleb128 0x6b
 10884 02ab 0B       		.uleb128 0xb
 10885 02ac 00       		.byte	0
 10886 02ad 00       		.byte	0
 10887 02ae 2C       		.uleb128 0x2c
 10888 02af 04       		.uleb128 0x4
 10889 02b0 01       		.byte	0x1
 10890 02b1 3E       		.uleb128 0x3e
 10891 02b2 21       		.uleb128 0x21
 10892 02b3 07       		.sleb128 7
 10893 02b4 0B       		.uleb128 0xb
 10894 02b5 21       		.uleb128 0x21
 10895 02b6 01       		.sleb128 1
 10896 02b7 49       		.uleb128 0x49
 10897 02b8 13       		.uleb128 0x13
 10898 02b9 3A       		.uleb128 0x3a
 10899 02ba 21       		.uleb128 0x21
 10900 02bb 1C       		.sleb128 28
 10901 02bc 3B       		.uleb128 0x3b
 10902 02bd 05       		.uleb128 0x5
 10903 02be 39       		.uleb128 0x39
 10904 02bf 21       		.uleb128 0x21
 10905 02c0 0E       		.sleb128 14
 10906 02c1 01       		.uleb128 0x1
 10907 02c2 13       		.uleb128 0x13
 10908 02c3 00       		.byte	0
 10909 02c4 00       		.byte	0
 10910 02c5 2D       		.uleb128 0x2d
 10911 02c6 0D       		.uleb128 0xd
ARM GAS  C:\Users\DEVELO~1\AppData\Local\Temp\ccBydanM.s 			page 193


 10912 02c7 00       		.byte	0
 10913 02c8 03       		.uleb128 0x3
 10914 02c9 08       		.uleb128 0x8
 10915 02ca 3A       		.uleb128 0x3a
 10916 02cb 21       		.uleb128 0x21
 10917 02cc 1E       		.sleb128 30
 10918 02cd 3B       		.uleb128 0x3b
 10919 02ce 0B       		.uleb128 0xb
 10920 02cf 39       		.uleb128 0x39
 10921 02d0 0B       		.uleb128 0xb
 10922 02d1 49       		.uleb128 0x49
 10923 02d2 13       		.uleb128 0x13
 10924 02d3 38       		.uleb128 0x38
 10925 02d4 05       		.uleb128 0x5
 10926 02d5 00       		.byte	0
 10927 02d6 00       		.byte	0
 10928 02d7 2E       		.uleb128 0x2e
 10929 02d8 34       		.uleb128 0x34
 10930 02d9 00       		.byte	0
 10931 02da 47       		.uleb128 0x47
 10932 02db 13       		.uleb128 0x13
 10933 02dc 3A       		.uleb128 0x3a
 10934 02dd 21       		.uleb128 0x21
 10935 02de 07       		.sleb128 7
 10936 02df 3B       		.uleb128 0x3b
 10937 02e0 0B       		.uleb128 0xb
 10938 02e1 39       		.uleb128 0x39
 10939 02e2 0B       		.uleb128 0xb
 10940 02e3 02       		.uleb128 0x2
 10941 02e4 18       		.uleb128 0x18
 10942 02e5 00       		.byte	0
 10943 02e6 00       		.byte	0
 10944 02e7 2F       		.uleb128 0x2f
 10945 02e8 2E       		.uleb128 0x2e
 10946 02e9 01       		.byte	0x1
 10947 02ea 3F       		.uleb128 0x3f
 10948 02eb 19       		.uleb128 0x19
 10949 02ec 03       		.uleb128 0x3
 10950 02ed 0E       		.uleb128 0xe
 10951 02ee 3A       		.uleb128 0x3a
 10952 02ef 0B       		.uleb128 0xb
 10953 02f0 3B       		.uleb128 0x3b
 10954 02f1 05       		.uleb128 0x5
 10955 02f2 39       		.uleb128 0x39
 10956 02f3 0B       		.uleb128 0xb
 10957 02f4 27       		.uleb128 0x27
 10958 02f5 19       		.uleb128 0x19
 10959 02f6 49       		.uleb128 0x49
 10960 02f7 13       		.uleb128 0x13
 10961 02f8 3C       		.uleb128 0x3c
 10962 02f9 19       		.uleb128 0x19
 10963 02fa 01       		.uleb128 0x1
 10964 02fb 13       		.uleb128 0x13
 10965 02fc 00       		.byte	0
 10966 02fd 00       		.byte	0
 10967 02fe 30       		.uleb128 0x30
 10968 02ff 2E       		.uleb128 0x2e
ARM GAS  C:\Users\DEVELO~1\AppData\Local\Temp\ccBydanM.s 			page 194


 10969 0300 00       		.byte	0
 10970 0301 3F       		.uleb128 0x3f
 10971 0302 19       		.uleb128 0x19
 10972 0303 03       		.uleb128 0x3
 10973 0304 0E       		.uleb128 0xe
 10974 0305 3A       		.uleb128 0x3a
 10975 0306 21       		.uleb128 0x21
 10976 0307 07       		.sleb128 7
 10977 0308 3B       		.uleb128 0x3b
 10978 0309 05       		.uleb128 0x5
 10979 030a 39       		.uleb128 0x39
 10980 030b 0B       		.uleb128 0xb
 10981 030c 27       		.uleb128 0x27
 10982 030d 19       		.uleb128 0x19
 10983 030e 49       		.uleb128 0x49
 10984 030f 13       		.uleb128 0x13
 10985 0310 11       		.uleb128 0x11
 10986 0311 01       		.uleb128 0x1
 10987 0312 12       		.uleb128 0x12
 10988 0313 06       		.uleb128 0x6
 10989 0314 40       		.uleb128 0x40
 10990 0315 18       		.uleb128 0x18
 10991 0316 7A       		.uleb128 0x7a
 10992 0317 19       		.uleb128 0x19
 10993 0318 00       		.byte	0
 10994 0319 00       		.byte	0
 10995 031a 31       		.uleb128 0x31
 10996 031b 34       		.uleb128 0x34
 10997 031c 00       		.byte	0
 10998 031d 03       		.uleb128 0x3
 10999 031e 08       		.uleb128 0x8
 11000 031f 3A       		.uleb128 0x3a
 11001 0320 0B       		.uleb128 0xb
 11002 0321 3B       		.uleb128 0x3b
 11003 0322 05       		.uleb128 0x5
 11004 0323 39       		.uleb128 0x39
 11005 0324 0B       		.uleb128 0xb
 11006 0325 49       		.uleb128 0x49
 11007 0326 13       		.uleb128 0x13
 11008 0327 3F       		.uleb128 0x3f
 11009 0328 19       		.uleb128 0x19
 11010 0329 3C       		.uleb128 0x3c
 11011 032a 19       		.uleb128 0x19
 11012 032b 00       		.byte	0
 11013 032c 00       		.byte	0
 11014 032d 32       		.uleb128 0x32
 11015 032e 04       		.uleb128 0x4
 11016 032f 01       		.byte	0x1
 11017 0330 3E       		.uleb128 0x3e
 11018 0331 21       		.uleb128 0x21
 11019 0332 07       		.sleb128 7
 11020 0333 0B       		.uleb128 0xb
 11021 0334 21       		.uleb128 0x21
 11022 0335 01       		.sleb128 1
 11023 0336 49       		.uleb128 0x49
 11024 0337 13       		.uleb128 0x13
 11025 0338 3A       		.uleb128 0x3a
ARM GAS  C:\Users\DEVELO~1\AppData\Local\Temp\ccBydanM.s 			page 195


 11026 0339 0B       		.uleb128 0xb
 11027 033a 3B       		.uleb128 0x3b
 11028 033b 0B       		.uleb128 0xb
 11029 033c 39       		.uleb128 0x39
 11030 033d 21       		.uleb128 0x21
 11031 033e 0E       		.sleb128 14
 11032 033f 01       		.uleb128 0x1
 11033 0340 13       		.uleb128 0x13
 11034 0341 00       		.byte	0
 11035 0342 00       		.byte	0
 11036 0343 33       		.uleb128 0x33
 11037 0344 34       		.uleb128 0x34
 11038 0345 00       		.byte	0
 11039 0346 03       		.uleb128 0x3
 11040 0347 0E       		.uleb128 0xe
 11041 0348 3A       		.uleb128 0x3a
 11042 0349 21       		.uleb128 0x21
 11043 034a 07       		.sleb128 7
 11044 034b 3B       		.uleb128 0x3b
 11045 034c 0B       		.uleb128 0xb
 11046 034d 39       		.uleb128 0x39
 11047 034e 21       		.uleb128 0x21
 11048 034f 14       		.sleb128 20
 11049 0350 49       		.uleb128 0x49
 11050 0351 13       		.uleb128 0x13
 11051 0352 3F       		.uleb128 0x3f
 11052 0353 19       		.uleb128 0x19
 11053 0354 02       		.uleb128 0x2
 11054 0355 18       		.uleb128 0x18
 11055 0356 00       		.byte	0
 11056 0357 00       		.byte	0
 11057 0358 34       		.uleb128 0x34
 11058 0359 2E       		.uleb128 0x2e
 11059 035a 01       		.byte	0x1
 11060 035b 3F       		.uleb128 0x3f
 11061 035c 19       		.uleb128 0x19
 11062 035d 03       		.uleb128 0x3
 11063 035e 0E       		.uleb128 0xe
 11064 035f 3A       		.uleb128 0x3a
 11065 0360 0B       		.uleb128 0xb
 11066 0361 3B       		.uleb128 0x3b
 11067 0362 0B       		.uleb128 0xb
 11068 0363 39       		.uleb128 0x39
 11069 0364 21       		.uleb128 0x21
 11070 0365 08       		.sleb128 8
 11071 0366 27       		.uleb128 0x27
 11072 0367 19       		.uleb128 0x19
 11073 0368 3C       		.uleb128 0x3c
 11074 0369 19       		.uleb128 0x19
 11075 036a 01       		.uleb128 0x1
 11076 036b 13       		.uleb128 0x13
 11077 036c 00       		.byte	0
 11078 036d 00       		.byte	0
 11079 036e 35       		.uleb128 0x35
 11080 036f 0B       		.uleb128 0xb
 11081 0370 01       		.byte	0x1
 11082 0371 11       		.uleb128 0x11
ARM GAS  C:\Users\DEVELO~1\AppData\Local\Temp\ccBydanM.s 			page 196


 11083 0372 01       		.uleb128 0x1
 11084 0373 12       		.uleb128 0x12
 11085 0374 06       		.uleb128 0x6
 11086 0375 01       		.uleb128 0x1
 11087 0376 13       		.uleb128 0x13
 11088 0377 00       		.byte	0
 11089 0378 00       		.byte	0
 11090 0379 36       		.uleb128 0x36
 11091 037a 34       		.uleb128 0x34
 11092 037b 00       		.byte	0
 11093 037c 03       		.uleb128 0x3
 11094 037d 08       		.uleb128 0x8
 11095 037e 3A       		.uleb128 0x3a
 11096 037f 21       		.uleb128 0x21
 11097 0380 07       		.sleb128 7
 11098 0381 3B       		.uleb128 0x3b
 11099 0382 0B       		.uleb128 0xb
 11100 0383 39       		.uleb128 0x39
 11101 0384 0B       		.uleb128 0xb
 11102 0385 49       		.uleb128 0x49
 11103 0386 13       		.uleb128 0x13
 11104 0387 02       		.uleb128 0x2
 11105 0388 18       		.uleb128 0x18
 11106 0389 00       		.byte	0
 11107 038a 00       		.byte	0
 11108 038b 37       		.uleb128 0x37
 11109 038c 2E       		.uleb128 0x2e
 11110 038d 01       		.byte	0x1
 11111 038e 03       		.uleb128 0x3
 11112 038f 0E       		.uleb128 0xe
 11113 0390 3A       		.uleb128 0x3a
 11114 0391 0B       		.uleb128 0xb
 11115 0392 3B       		.uleb128 0x3b
 11116 0393 0B       		.uleb128 0xb
 11117 0394 39       		.uleb128 0x39
 11118 0395 21       		.uleb128 0x21
 11119 0396 14       		.sleb128 20
 11120 0397 27       		.uleb128 0x27
 11121 0398 19       		.uleb128 0x19
 11122 0399 11       		.uleb128 0x11
 11123 039a 01       		.uleb128 0x1
 11124 039b 12       		.uleb128 0x12
 11125 039c 06       		.uleb128 0x6
 11126 039d 40       		.uleb128 0x40
 11127 039e 18       		.uleb128 0x18
 11128 039f 7C       		.uleb128 0x7c
 11129 03a0 19       		.uleb128 0x19
 11130 03a1 01       		.uleb128 0x1
 11131 03a2 13       		.uleb128 0x13
 11132 03a3 00       		.byte	0
 11133 03a4 00       		.byte	0
 11134 03a5 38       		.uleb128 0x38
 11135 03a6 2E       		.uleb128 0x2e
 11136 03a7 00       		.byte	0
 11137 03a8 03       		.uleb128 0x3
 11138 03a9 0E       		.uleb128 0xe
 11139 03aa 3A       		.uleb128 0x3a
ARM GAS  C:\Users\DEVELO~1\AppData\Local\Temp\ccBydanM.s 			page 197


 11140 03ab 21       		.uleb128 0x21
 11141 03ac 07       		.sleb128 7
 11142 03ad 3B       		.uleb128 0x3b
 11143 03ae 0B       		.uleb128 0xb
 11144 03af 39       		.uleb128 0x39
 11145 03b0 21       		.uleb128 0x21
 11146 03b1 14       		.sleb128 20
 11147 03b2 27       		.uleb128 0x27
 11148 03b3 19       		.uleb128 0x19
 11149 03b4 11       		.uleb128 0x11
 11150 03b5 01       		.uleb128 0x1
 11151 03b6 12       		.uleb128 0x12
 11152 03b7 06       		.uleb128 0x6
 11153 03b8 40       		.uleb128 0x40
 11154 03b9 18       		.uleb128 0x18
 11155 03ba 7A       		.uleb128 0x7a
 11156 03bb 19       		.uleb128 0x19
 11157 03bc 00       		.byte	0
 11158 03bd 00       		.byte	0
 11159 03be 39       		.uleb128 0x39
 11160 03bf 2E       		.uleb128 0x2e
 11161 03c0 00       		.byte	0
 11162 03c1 03       		.uleb128 0x3
 11163 03c2 0E       		.uleb128 0xe
 11164 03c3 3A       		.uleb128 0x3a
 11165 03c4 21       		.uleb128 0x21
 11166 03c5 07       		.sleb128 7
 11167 03c6 3B       		.uleb128 0x3b
 11168 03c7 0B       		.uleb128 0xb
 11169 03c8 39       		.uleb128 0x39
 11170 03c9 21       		.uleb128 0x21
 11171 03ca 14       		.sleb128 20
 11172 03cb 27       		.uleb128 0x27
 11173 03cc 19       		.uleb128 0x19
 11174 03cd 11       		.uleb128 0x11
 11175 03ce 01       		.uleb128 0x1
 11176 03cf 12       		.uleb128 0x12
 11177 03d0 06       		.uleb128 0x6
 11178 03d1 40       		.uleb128 0x40
 11179 03d2 18       		.uleb128 0x18
 11180 03d3 7C       		.uleb128 0x7c
 11181 03d4 19       		.uleb128 0x19
 11182 03d5 00       		.byte	0
 11183 03d6 00       		.byte	0
 11184 03d7 3A       		.uleb128 0x3a
 11185 03d8 2E       		.uleb128 0x2e
 11186 03d9 01       		.byte	0x1
 11187 03da 03       		.uleb128 0x3
 11188 03db 0E       		.uleb128 0xe
 11189 03dc 3A       		.uleb128 0x3a
 11190 03dd 0B       		.uleb128 0xb
 11191 03de 3B       		.uleb128 0x3b
 11192 03df 0B       		.uleb128 0xb
 11193 03e0 39       		.uleb128 0x39
 11194 03e1 21       		.uleb128 0x21
 11195 03e2 14       		.sleb128 20
 11196 03e3 27       		.uleb128 0x27
ARM GAS  C:\Users\DEVELO~1\AppData\Local\Temp\ccBydanM.s 			page 198


 11197 03e4 19       		.uleb128 0x19
 11198 03e5 11       		.uleb128 0x11
 11199 03e6 01       		.uleb128 0x1
 11200 03e7 12       		.uleb128 0x12
 11201 03e8 06       		.uleb128 0x6
 11202 03e9 40       		.uleb128 0x40
 11203 03ea 18       		.uleb128 0x18
 11204 03eb 7A       		.uleb128 0x7a
 11205 03ec 19       		.uleb128 0x19
 11206 03ed 01       		.uleb128 0x1
 11207 03ee 13       		.uleb128 0x13
 11208 03ef 00       		.byte	0
 11209 03f0 00       		.byte	0
 11210 03f1 3B       		.uleb128 0x3b
 11211 03f2 2E       		.uleb128 0x2e
 11212 03f3 01       		.byte	0x1
 11213 03f4 03       		.uleb128 0x3
 11214 03f5 0E       		.uleb128 0xe
 11215 03f6 3A       		.uleb128 0x3a
 11216 03f7 0B       		.uleb128 0xb
 11217 03f8 3B       		.uleb128 0x3b
 11218 03f9 0B       		.uleb128 0xb
 11219 03fa 39       		.uleb128 0x39
 11220 03fb 0B       		.uleb128 0xb
 11221 03fc 27       		.uleb128 0x27
 11222 03fd 19       		.uleb128 0x19
 11223 03fe 49       		.uleb128 0x49
 11224 03ff 13       		.uleb128 0x13
 11225 0400 11       		.uleb128 0x11
 11226 0401 01       		.uleb128 0x1
 11227 0402 12       		.uleb128 0x12
 11228 0403 06       		.uleb128 0x6
 11229 0404 40       		.uleb128 0x40
 11230 0405 18       		.uleb128 0x18
 11231 0406 7C       		.uleb128 0x7c
 11232 0407 19       		.uleb128 0x19
 11233 0408 01       		.uleb128 0x1
 11234 0409 13       		.uleb128 0x13
 11235 040a 00       		.byte	0
 11236 040b 00       		.byte	0
 11237 040c 3C       		.uleb128 0x3c
 11238 040d 11       		.uleb128 0x11
 11239 040e 01       		.byte	0x1
 11240 040f 25       		.uleb128 0x25
 11241 0410 0E       		.uleb128 0xe
 11242 0411 13       		.uleb128 0x13
 11243 0412 0B       		.uleb128 0xb
 11244 0413 03       		.uleb128 0x3
 11245 0414 0E       		.uleb128 0xe
 11246 0415 1B       		.uleb128 0x1b
 11247 0416 0E       		.uleb128 0xe
 11248 0417 55       		.uleb128 0x55
 11249 0418 17       		.uleb128 0x17
 11250 0419 11       		.uleb128 0x11
 11251 041a 01       		.uleb128 0x1
 11252 041b 10       		.uleb128 0x10
 11253 041c 17       		.uleb128 0x17
ARM GAS  C:\Users\DEVELO~1\AppData\Local\Temp\ccBydanM.s 			page 199


 11254 041d 00       		.byte	0
 11255 041e 00       		.byte	0
 11256 041f 3D       		.uleb128 0x3d
 11257 0420 24       		.uleb128 0x24
 11258 0421 00       		.byte	0
 11259 0422 0B       		.uleb128 0xb
 11260 0423 0B       		.uleb128 0xb
 11261 0424 3E       		.uleb128 0x3e
 11262 0425 0B       		.uleb128 0xb
 11263 0426 03       		.uleb128 0x3
 11264 0427 08       		.uleb128 0x8
 11265 0428 00       		.byte	0
 11266 0429 00       		.byte	0
 11267 042a 3E       		.uleb128 0x3e
 11268 042b 13       		.uleb128 0x13
 11269 042c 01       		.byte	0x1
 11270 042d 03       		.uleb128 0x3
 11271 042e 0E       		.uleb128 0xe
 11272 042f 0B       		.uleb128 0xb
 11273 0430 05       		.uleb128 0x5
 11274 0431 3A       		.uleb128 0x3a
 11275 0432 0B       		.uleb128 0xb
 11276 0433 3B       		.uleb128 0x3b
 11277 0434 05       		.uleb128 0x5
 11278 0435 39       		.uleb128 0x39
 11279 0436 0B       		.uleb128 0xb
 11280 0437 01       		.uleb128 0x1
 11281 0438 13       		.uleb128 0x13
 11282 0439 00       		.byte	0
 11283 043a 00       		.byte	0
 11284 043b 3F       		.uleb128 0x3f
 11285 043c 0F       		.uleb128 0xf
 11286 043d 00       		.byte	0
 11287 043e 0B       		.uleb128 0xb
 11288 043f 0B       		.uleb128 0xb
 11289 0440 00       		.byte	0
 11290 0441 00       		.byte	0
 11291 0442 40       		.uleb128 0x40
 11292 0443 13       		.uleb128 0x13
 11293 0444 01       		.byte	0x1
 11294 0445 0B       		.uleb128 0xb
 11295 0446 05       		.uleb128 0x5
 11296 0447 3A       		.uleb128 0x3a
 11297 0448 0B       		.uleb128 0xb
 11298 0449 3B       		.uleb128 0x3b
 11299 044a 0B       		.uleb128 0xb
 11300 044b 39       		.uleb128 0x39
 11301 044c 0B       		.uleb128 0xb
 11302 044d 01       		.uleb128 0x1
 11303 044e 13       		.uleb128 0x13
 11304 044f 00       		.byte	0
 11305 0450 00       		.byte	0
 11306 0451 41       		.uleb128 0x41
 11307 0452 26       		.uleb128 0x26
 11308 0453 00       		.byte	0
 11309 0454 00       		.byte	0
 11310 0455 00       		.byte	0
ARM GAS  C:\Users\DEVELO~1\AppData\Local\Temp\ccBydanM.s 			page 200


 11311 0456 42       		.uleb128 0x42
 11312 0457 13       		.uleb128 0x13
 11313 0458 01       		.byte	0x1
 11314 0459 0B       		.uleb128 0xb
 11315 045a 06       		.uleb128 0x6
 11316 045b 3A       		.uleb128 0x3a
 11317 045c 0B       		.uleb128 0xb
 11318 045d 3B       		.uleb128 0x3b
 11319 045e 0B       		.uleb128 0xb
 11320 045f 39       		.uleb128 0x39
 11321 0460 0B       		.uleb128 0xb
 11322 0461 01       		.uleb128 0x1
 11323 0462 13       		.uleb128 0x13
 11324 0463 00       		.byte	0
 11325 0464 00       		.byte	0
 11326 0465 43       		.uleb128 0x43
 11327 0466 21       		.uleb128 0x21
 11328 0467 00       		.byte	0
 11329 0468 49       		.uleb128 0x49
 11330 0469 13       		.uleb128 0x13
 11331 046a 2F       		.uleb128 0x2f
 11332 046b 05       		.uleb128 0x5
 11333 046c 00       		.byte	0
 11334 046d 00       		.byte	0
 11335 046e 44       		.uleb128 0x44
 11336 046f 34       		.uleb128 0x34
 11337 0470 00       		.byte	0
 11338 0471 03       		.uleb128 0x3
 11339 0472 0E       		.uleb128 0xe
 11340 0473 3A       		.uleb128 0x3a
 11341 0474 0B       		.uleb128 0xb
 11342 0475 3B       		.uleb128 0x3b
 11343 0476 05       		.uleb128 0x5
 11344 0477 39       		.uleb128 0x39
 11345 0478 0B       		.uleb128 0xb
 11346 0479 49       		.uleb128 0x49
 11347 047a 13       		.uleb128 0x13
 11348 047b 3F       		.uleb128 0x3f
 11349 047c 19       		.uleb128 0x19
 11350 047d 3C       		.uleb128 0x3c
 11351 047e 19       		.uleb128 0x19
 11352 047f 00       		.byte	0
 11353 0480 00       		.byte	0
 11354 0481 45       		.uleb128 0x45
 11355 0482 2E       		.uleb128 0x2e
 11356 0483 01       		.byte	0x1
 11357 0484 3F       		.uleb128 0x3f
 11358 0485 19       		.uleb128 0x19
 11359 0486 03       		.uleb128 0x3
 11360 0487 0E       		.uleb128 0xe
 11361 0488 3A       		.uleb128 0x3a
 11362 0489 0B       		.uleb128 0xb
 11363 048a 3B       		.uleb128 0x3b
 11364 048b 05       		.uleb128 0x5
 11365 048c 39       		.uleb128 0x39
 11366 048d 0B       		.uleb128 0xb
 11367 048e 27       		.uleb128 0x27
ARM GAS  C:\Users\DEVELO~1\AppData\Local\Temp\ccBydanM.s 			page 201


 11368 048f 19       		.uleb128 0x19
 11369 0490 3C       		.uleb128 0x3c
 11370 0491 19       		.uleb128 0x19
 11371 0492 01       		.uleb128 0x1
 11372 0493 13       		.uleb128 0x13
 11373 0494 00       		.byte	0
 11374 0495 00       		.byte	0
 11375 0496 46       		.uleb128 0x46
 11376 0497 2E       		.uleb128 0x2e
 11377 0498 00       		.byte	0
 11378 0499 3F       		.uleb128 0x3f
 11379 049a 19       		.uleb128 0x19
 11380 049b 03       		.uleb128 0x3
 11381 049c 0E       		.uleb128 0xe
 11382 049d 3A       		.uleb128 0x3a
 11383 049e 0B       		.uleb128 0xb
 11384 049f 3B       		.uleb128 0x3b
 11385 04a0 05       		.uleb128 0x5
 11386 04a1 39       		.uleb128 0x39
 11387 04a2 0B       		.uleb128 0xb
 11388 04a3 27       		.uleb128 0x27
 11389 04a4 19       		.uleb128 0x19
 11390 04a5 11       		.uleb128 0x11
 11391 04a6 01       		.uleb128 0x1
 11392 04a7 12       		.uleb128 0x12
 11393 04a8 06       		.uleb128 0x6
 11394 04a9 40       		.uleb128 0x40
 11395 04aa 18       		.uleb128 0x18
 11396 04ab 7A       		.uleb128 0x7a
 11397 04ac 19       		.uleb128 0x19
 11398 04ad 00       		.byte	0
 11399 04ae 00       		.byte	0
 11400 04af 47       		.uleb128 0x47
 11401 04b0 2E       		.uleb128 0x2e
 11402 04b1 01       		.byte	0x1
 11403 04b2 3F       		.uleb128 0x3f
 11404 04b3 19       		.uleb128 0x19
 11405 04b4 03       		.uleb128 0x3
 11406 04b5 0E       		.uleb128 0xe
 11407 04b6 3A       		.uleb128 0x3a
 11408 04b7 0B       		.uleb128 0xb
 11409 04b8 3B       		.uleb128 0x3b
 11410 04b9 05       		.uleb128 0x5
 11411 04ba 39       		.uleb128 0x39
 11412 04bb 0B       		.uleb128 0xb
 11413 04bc 27       		.uleb128 0x27
 11414 04bd 19       		.uleb128 0x19
 11415 04be 11       		.uleb128 0x11
 11416 04bf 01       		.uleb128 0x1
 11417 04c0 12       		.uleb128 0x12
 11418 04c1 06       		.uleb128 0x6
 11419 04c2 40       		.uleb128 0x40
 11420 04c3 18       		.uleb128 0x18
 11421 04c4 7A       		.uleb128 0x7a
 11422 04c5 19       		.uleb128 0x19
 11423 04c6 01       		.uleb128 0x1
 11424 04c7 13       		.uleb128 0x13
ARM GAS  C:\Users\DEVELO~1\AppData\Local\Temp\ccBydanM.s 			page 202


 11425 04c8 00       		.byte	0
 11426 04c9 00       		.byte	0
 11427 04ca 48       		.uleb128 0x48
 11428 04cb 2E       		.uleb128 0x2e
 11429 04cc 01       		.byte	0x1
 11430 04cd 03       		.uleb128 0x3
 11431 04ce 0E       		.uleb128 0xe
 11432 04cf 3A       		.uleb128 0x3a
 11433 04d0 0B       		.uleb128 0xb
 11434 04d1 3B       		.uleb128 0x3b
 11435 04d2 05       		.uleb128 0x5
 11436 04d3 39       		.uleb128 0x39
 11437 04d4 0B       		.uleb128 0xb
 11438 04d5 27       		.uleb128 0x27
 11439 04d6 19       		.uleb128 0x19
 11440 04d7 49       		.uleb128 0x49
 11441 04d8 13       		.uleb128 0x13
 11442 04d9 11       		.uleb128 0x11
 11443 04da 01       		.uleb128 0x1
 11444 04db 12       		.uleb128 0x12
 11445 04dc 06       		.uleb128 0x6
 11446 04dd 40       		.uleb128 0x40
 11447 04de 18       		.uleb128 0x18
 11448 04df 7A       		.uleb128 0x7a
 11449 04e0 19       		.uleb128 0x19
 11450 04e1 01       		.uleb128 0x1
 11451 04e2 13       		.uleb128 0x13
 11452 04e3 00       		.byte	0
 11453 04e4 00       		.byte	0
 11454 04e5 49       		.uleb128 0x49
 11455 04e6 0B       		.uleb128 0xb
 11456 04e7 01       		.byte	0x1
 11457 04e8 55       		.uleb128 0x55
 11458 04e9 17       		.uleb128 0x17
 11459 04ea 00       		.byte	0
 11460 04eb 00       		.byte	0
 11461 04ec 4A       		.uleb128 0x4a
 11462 04ed 2E       		.uleb128 0x2e
 11463 04ee 01       		.byte	0x1
 11464 04ef 3F       		.uleb128 0x3f
 11465 04f0 19       		.uleb128 0x19
 11466 04f1 03       		.uleb128 0x3
 11467 04f2 0E       		.uleb128 0xe
 11468 04f3 3A       		.uleb128 0x3a
 11469 04f4 0B       		.uleb128 0xb
 11470 04f5 3B       		.uleb128 0x3b
 11471 04f6 05       		.uleb128 0x5
 11472 04f7 39       		.uleb128 0x39
 11473 04f8 0B       		.uleb128 0xb
 11474 04f9 27       		.uleb128 0x27
 11475 04fa 19       		.uleb128 0x19
 11476 04fb 49       		.uleb128 0x49
 11477 04fc 13       		.uleb128 0x13
 11478 04fd 11       		.uleb128 0x11
 11479 04fe 01       		.uleb128 0x1
 11480 04ff 12       		.uleb128 0x12
 11481 0500 06       		.uleb128 0x6
ARM GAS  C:\Users\DEVELO~1\AppData\Local\Temp\ccBydanM.s 			page 203


 11482 0501 40       		.uleb128 0x40
 11483 0502 18       		.uleb128 0x18
 11484 0503 7C       		.uleb128 0x7c
 11485 0504 19       		.uleb128 0x19
 11486 0505 01       		.uleb128 0x1
 11487 0506 13       		.uleb128 0x13
 11488 0507 00       		.byte	0
 11489 0508 00       		.byte	0
 11490 0509 4B       		.uleb128 0x4b
 11491 050a 2E       		.uleb128 0x2e
 11492 050b 01       		.byte	0x1
 11493 050c 3F       		.uleb128 0x3f
 11494 050d 19       		.uleb128 0x19
 11495 050e 03       		.uleb128 0x3
 11496 050f 0E       		.uleb128 0xe
 11497 0510 3A       		.uleb128 0x3a
 11498 0511 0B       		.uleb128 0xb
 11499 0512 3B       		.uleb128 0x3b
 11500 0513 0B       		.uleb128 0xb
 11501 0514 39       		.uleb128 0x39
 11502 0515 0B       		.uleb128 0xb
 11503 0516 27       		.uleb128 0x27
 11504 0517 19       		.uleb128 0x19
 11505 0518 11       		.uleb128 0x11
 11506 0519 01       		.uleb128 0x1
 11507 051a 12       		.uleb128 0x12
 11508 051b 06       		.uleb128 0x6
 11509 051c 40       		.uleb128 0x40
 11510 051d 18       		.uleb128 0x18
 11511 051e 7C       		.uleb128 0x7c
 11512 051f 19       		.uleb128 0x19
 11513 0520 01       		.uleb128 0x1
 11514 0521 13       		.uleb128 0x13
 11515 0522 00       		.byte	0
 11516 0523 00       		.byte	0
 11517 0524 4C       		.uleb128 0x4c
 11518 0525 2E       		.uleb128 0x2e
 11519 0526 01       		.byte	0x1
 11520 0527 3F       		.uleb128 0x3f
 11521 0528 19       		.uleb128 0x19
 11522 0529 03       		.uleb128 0x3
 11523 052a 0E       		.uleb128 0xe
 11524 052b 3A       		.uleb128 0x3a
 11525 052c 0B       		.uleb128 0xb
 11526 052d 3B       		.uleb128 0x3b
 11527 052e 0B       		.uleb128 0xb
 11528 052f 39       		.uleb128 0x39
 11529 0530 0B       		.uleb128 0xb
 11530 0531 27       		.uleb128 0x27
 11531 0532 19       		.uleb128 0x19
 11532 0533 11       		.uleb128 0x11
 11533 0534 01       		.uleb128 0x1
 11534 0535 12       		.uleb128 0x12
 11535 0536 06       		.uleb128 0x6
 11536 0537 40       		.uleb128 0x40
 11537 0538 18       		.uleb128 0x18
 11538 0539 7A       		.uleb128 0x7a
ARM GAS  C:\Users\DEVELO~1\AppData\Local\Temp\ccBydanM.s 			page 204


 11539 053a 19       		.uleb128 0x19
 11540 053b 01       		.uleb128 0x1
 11541 053c 13       		.uleb128 0x13
 11542 053d 00       		.byte	0
 11543 053e 00       		.byte	0
 11544 053f 4D       		.uleb128 0x4d
 11545 0540 34       		.uleb128 0x34
 11546 0541 00       		.byte	0
 11547 0542 03       		.uleb128 0x3
 11548 0543 0E       		.uleb128 0xe
 11549 0544 49       		.uleb128 0x49
 11550 0545 13       		.uleb128 0x13
 11551 0546 34       		.uleb128 0x34
 11552 0547 19       		.uleb128 0x19
 11553 0548 00       		.byte	0
 11554 0549 00       		.byte	0
 11555 054a 4E       		.uleb128 0x4e
 11556 054b 2E       		.uleb128 0x2e
 11557 054c 01       		.byte	0x1
 11558 054d 03       		.uleb128 0x3
 11559 054e 0E       		.uleb128 0xe
 11560 054f 3A       		.uleb128 0x3a
 11561 0550 0B       		.uleb128 0xb
 11562 0551 3B       		.uleb128 0x3b
 11563 0552 05       		.uleb128 0x5
 11564 0553 39       		.uleb128 0x39
 11565 0554 0B       		.uleb128 0xb
 11566 0555 27       		.uleb128 0x27
 11567 0556 19       		.uleb128 0x19
 11568 0557 20       		.uleb128 0x20
 11569 0558 0B       		.uleb128 0xb
 11570 0559 00       		.byte	0
 11571 055a 00       		.byte	0
 11572 055b 4F       		.uleb128 0x4f
 11573 055c 05       		.uleb128 0x5
 11574 055d 00       		.byte	0
 11575 055e 03       		.uleb128 0x3
 11576 055f 0E       		.uleb128 0xe
 11577 0560 3A       		.uleb128 0x3a
 11578 0561 0B       		.uleb128 0xb
 11579 0562 3B       		.uleb128 0x3b
 11580 0563 05       		.uleb128 0x5
 11581 0564 39       		.uleb128 0x39
 11582 0565 0B       		.uleb128 0xb
 11583 0566 49       		.uleb128 0x49
 11584 0567 13       		.uleb128 0x13
 11585 0568 00       		.byte	0
 11586 0569 00       		.byte	0
 11587 056a 00       		.byte	0
 11588              		.section	.debug_aranges,"",%progbits
 11589 0000 FC010000 		.4byte	0x1fc
 11590 0004 0200     		.2byte	0x2
 11591 0006 00000000 		.4byte	.Ldebug_info0
 11592 000a 04       		.byte	0x4
 11593 000b 00       		.byte	0
 11594 000c 0000     		.2byte	0
 11595 000e 0000     		.2byte	0
ARM GAS  C:\Users\DEVELO~1\AppData\Local\Temp\ccBydanM.s 			page 205


 11596 0010 00000000 		.4byte	.LFB202
 11597 0014 1E000000 		.4byte	.LFE202-.LFB202
 11598 0018 00000000 		.4byte	.LFB203
 11599 001c 1E000000 		.4byte	.LFE203-.LFB203
 11600 0020 00000000 		.4byte	.LFB204
 11601 0024 20000000 		.4byte	.LFE204-.LFB204
 11602 0028 00000000 		.4byte	.LFB205
 11603 002c 20000000 		.4byte	.LFE205-.LFB205
 11604 0030 00000000 		.4byte	.LFB240
 11605 0034 20000000 		.4byte	.LFE240-.LFB240
 11606 0038 00000000 		.4byte	.LFB265
 11607 003c 26000000 		.4byte	.LFE265-.LFB265
 11608 0040 00000000 		.4byte	.LFB269
 11609 0044 1E000000 		.4byte	.LFE269-.LFB269
 11610 0048 00000000 		.4byte	.LFB350
 11611 004c 0C000000 		.4byte	.LFE350-.LFB350
 11612 0050 00000000 		.4byte	.LFB351
 11613 0054 0C000000 		.4byte	.LFE351-.LFB351
 11614 0058 00000000 		.4byte	.LFB352
 11615 005c 0C000000 		.4byte	.LFE352-.LFB352
 11616 0060 00000000 		.4byte	.LFB353
 11617 0064 0C000000 		.4byte	.LFE353-.LFB353
 11618 0068 00000000 		.4byte	.LFB432
 11619 006c 24000000 		.4byte	.LFE432-.LFB432
 11620 0070 00000000 		.4byte	.LFB433
 11621 0074 14000000 		.4byte	.LFE433-.LFB433
 11622 0078 00000000 		.4byte	.LFB434
 11623 007c 14000000 		.4byte	.LFE434-.LFB434
 11624 0080 00000000 		.4byte	.LFB435
 11625 0084 40000000 		.4byte	.LFE435-.LFB435
 11626 0088 00000000 		.4byte	.LFB436
 11627 008c 28000000 		.4byte	.LFE436-.LFB436
 11628 0090 00000000 		.4byte	.LFB437
 11629 0094 3C000000 		.4byte	.LFE437-.LFB437
 11630 0098 00000000 		.4byte	.LFB438
 11631 009c 24000000 		.4byte	.LFE438-.LFB438
 11632 00a0 00000000 		.4byte	.LFB439
 11633 00a4 34000000 		.4byte	.LFE439-.LFB439
 11634 00a8 00000000 		.4byte	.LFB440
 11635 00ac DC000000 		.4byte	.LFE440-.LFB440
 11636 00b0 00000000 		.4byte	.LFB441
 11637 00b4 68010000 		.4byte	.LFE441-.LFB441
 11638 00b8 00000000 		.4byte	.LFB442
 11639 00bc C4000000 		.4byte	.LFE442-.LFB442
 11640 00c0 00000000 		.4byte	.LFB443
 11641 00c4 24000000 		.4byte	.LFE443-.LFB443
 11642 00c8 00000000 		.4byte	.LFB444
 11643 00cc 24000000 		.4byte	.LFE444-.LFB444
 11644 00d0 00000000 		.4byte	.LFB445
 11645 00d4 7C000000 		.4byte	.LFE445-.LFB445
 11646 00d8 00000000 		.4byte	.LFB446
 11647 00dc 48010000 		.4byte	.LFE446-.LFB446
 11648 00e0 00000000 		.4byte	.LFB447
 11649 00e4 40000000 		.4byte	.LFE447-.LFB447
 11650 00e8 00000000 		.4byte	.LFB448
 11651 00ec A0000000 		.4byte	.LFE448-.LFB448
 11652 00f0 00000000 		.4byte	.LFB449
ARM GAS  C:\Users\DEVELO~1\AppData\Local\Temp\ccBydanM.s 			page 206


 11653 00f4 A8030000 		.4byte	.LFE449-.LFB449
 11654 00f8 00000000 		.4byte	.LFB450
 11655 00fc 52000000 		.4byte	.LFE450-.LFB450
 11656 0100 00000000 		.4byte	.LFB451
 11657 0104 30000000 		.4byte	.LFE451-.LFB451
 11658 0108 00000000 		.4byte	.LFB452
 11659 010c 14000000 		.4byte	.LFE452-.LFB452
 11660 0110 00000000 		.4byte	.LFB453
 11661 0114 72000000 		.4byte	.LFE453-.LFB453
 11662 0118 00000000 		.4byte	.LFB454
 11663 011c 5C000000 		.4byte	.LFE454-.LFB454
 11664 0120 00000000 		.4byte	.LFB455
 11665 0124 5C000000 		.4byte	.LFE455-.LFB455
 11666 0128 00000000 		.4byte	.LFB456
 11667 012c 5C000000 		.4byte	.LFE456-.LFB456
 11668 0130 00000000 		.4byte	.LFB457
 11669 0134 46000000 		.4byte	.LFE457-.LFB457
 11670 0138 00000000 		.4byte	.LFB458
 11671 013c 46000000 		.4byte	.LFE458-.LFB458
 11672 0140 00000000 		.4byte	.LFB459
 11673 0144 64000000 		.4byte	.LFE459-.LFB459
 11674 0148 00000000 		.4byte	.LFB460
 11675 014c 34000000 		.4byte	.LFE460-.LFB460
 11676 0150 00000000 		.4byte	.LFB461
 11677 0154 4A000000 		.4byte	.LFE461-.LFB461
 11678 0158 00000000 		.4byte	.LFB462
 11679 015c 34000000 		.4byte	.LFE462-.LFB462
 11680 0160 00000000 		.4byte	.LFB463
 11681 0164 24000000 		.4byte	.LFE463-.LFB463
 11682 0168 00000000 		.4byte	.LFB464
 11683 016c 24000000 		.4byte	.LFE464-.LFB464
 11684 0170 00000000 		.4byte	.LFB465
 11685 0174 24000000 		.4byte	.LFE465-.LFB465
 11686 0178 00000000 		.4byte	.LFB466
 11687 017c 24000000 		.4byte	.LFE466-.LFB466
 11688 0180 00000000 		.4byte	.LFB467
 11689 0184 24000000 		.4byte	.LFE467-.LFB467
 11690 0188 00000000 		.4byte	.LFB468
 11691 018c 24000000 		.4byte	.LFE468-.LFB468
 11692 0190 00000000 		.4byte	.LFB469
 11693 0194 24000000 		.4byte	.LFE469-.LFB469
 11694 0198 00000000 		.4byte	.LFB470
 11695 019c 5C000000 		.4byte	.LFE470-.LFB470
 11696 01a0 00000000 		.4byte	.LFB471
 11697 01a4 24000000 		.4byte	.LFE471-.LFB471
 11698 01a8 00000000 		.4byte	.LFB472
 11699 01ac 24000000 		.4byte	.LFE472-.LFB472
 11700 01b0 00000000 		.4byte	.LFB473
 11701 01b4 30000000 		.4byte	.LFE473-.LFB473
 11702 01b8 00000000 		.4byte	.LFB474
 11703 01bc 24000000 		.4byte	.LFE474-.LFB474
 11704 01c0 00000000 		.4byte	.LFB475
 11705 01c4 24000000 		.4byte	.LFE475-.LFB475
 11706 01c8 00000000 		.4byte	.LFB476
 11707 01cc 24000000 		.4byte	.LFE476-.LFB476
 11708 01d0 00000000 		.4byte	.LFB477
 11709 01d4 26000000 		.4byte	.LFE477-.LFB477
ARM GAS  C:\Users\DEVELO~1\AppData\Local\Temp\ccBydanM.s 			page 207


 11710 01d8 00000000 		.4byte	.LFB478
 11711 01dc 24000000 		.4byte	.LFE478-.LFB478
 11712 01e0 00000000 		.4byte	.LFB479
 11713 01e4 14000000 		.4byte	.LFE479-.LFB479
 11714 01e8 00000000 		.4byte	.LFB480
 11715 01ec 14000000 		.4byte	.LFE480-.LFB480
 11716 01f0 00000000 		.4byte	.LFB481
 11717 01f4 44000000 		.4byte	.LFE481-.LFB481
 11718 01f8 00000000 		.4byte	0
 11719 01fc 00000000 		.4byte	0
 11720              		.section	.debug_rnglists,"",%progbits
 11721              	.Ldebug_ranges0:
 11722 0000 89010000 		.4byte	.Ldebug_ranges3-.Ldebug_ranges2
 11723              	.Ldebug_ranges2:
 11724 0004 0500     		.2byte	0x5
 11725 0006 04       		.byte	0x4
 11726 0007 00       		.byte	0
 11727 0008 00000000 		.4byte	0
 11728              	.LLRL0:
 11729 000c 05       		.byte	0x5
 11730 000d 22000000 		.4byte	.LBB61
 11731 0011 04       		.byte	0x4
 11732 0012 00       		.uleb128 .LBB61-.LBB61
 11733 0013 32       		.uleb128 .LBE61-.LBB61
 11734 0014 04       		.byte	0x4
 11735 0015 34       		.uleb128 .LBB62-.LBB61
 11736 0016 38       		.uleb128 .LBE62-.LBB61
 11737 0017 00       		.byte	0
 11738              	.LLRL1:
 11739 0018 07       		.byte	0x7
 11740 0019 00000000 		.4byte	.LFB202
 11741 001d 1E       		.uleb128 .LFE202-.LFB202
 11742 001e 07       		.byte	0x7
 11743 001f 00000000 		.4byte	.LFB203
 11744 0023 1E       		.uleb128 .LFE203-.LFB203
 11745 0024 07       		.byte	0x7
 11746 0025 00000000 		.4byte	.LFB204
 11747 0029 20       		.uleb128 .LFE204-.LFB204
 11748 002a 07       		.byte	0x7
 11749 002b 00000000 		.4byte	.LFB205
 11750 002f 20       		.uleb128 .LFE205-.LFB205
 11751 0030 07       		.byte	0x7
 11752 0031 00000000 		.4byte	.LFB240
 11753 0035 20       		.uleb128 .LFE240-.LFB240
 11754 0036 07       		.byte	0x7
 11755 0037 00000000 		.4byte	.LFB265
 11756 003b 26       		.uleb128 .LFE265-.LFB265
 11757 003c 07       		.byte	0x7
 11758 003d 00000000 		.4byte	.LFB269
 11759 0041 1E       		.uleb128 .LFE269-.LFB269
 11760 0042 07       		.byte	0x7
 11761 0043 00000000 		.4byte	.LFB350
 11762 0047 0C       		.uleb128 .LFE350-.LFB350
 11763 0048 07       		.byte	0x7
 11764 0049 00000000 		.4byte	.LFB351
 11765 004d 0C       		.uleb128 .LFE351-.LFB351
 11766 004e 07       		.byte	0x7
ARM GAS  C:\Users\DEVELO~1\AppData\Local\Temp\ccBydanM.s 			page 208


 11767 004f 00000000 		.4byte	.LFB352
 11768 0053 0C       		.uleb128 .LFE352-.LFB352
 11769 0054 07       		.byte	0x7
 11770 0055 00000000 		.4byte	.LFB353
 11771 0059 0C       		.uleb128 .LFE353-.LFB353
 11772 005a 07       		.byte	0x7
 11773 005b 00000000 		.4byte	.LFB432
 11774 005f 24       		.uleb128 .LFE432-.LFB432
 11775 0060 07       		.byte	0x7
 11776 0061 00000000 		.4byte	.LFB433
 11777 0065 14       		.uleb128 .LFE433-.LFB433
 11778 0066 07       		.byte	0x7
 11779 0067 00000000 		.4byte	.LFB434
 11780 006b 14       		.uleb128 .LFE434-.LFB434
 11781 006c 07       		.byte	0x7
 11782 006d 00000000 		.4byte	.LFB435
 11783 0071 40       		.uleb128 .LFE435-.LFB435
 11784 0072 07       		.byte	0x7
 11785 0073 00000000 		.4byte	.LFB436
 11786 0077 28       		.uleb128 .LFE436-.LFB436
 11787 0078 07       		.byte	0x7
 11788 0079 00000000 		.4byte	.LFB437
 11789 007d 3C       		.uleb128 .LFE437-.LFB437
 11790 007e 07       		.byte	0x7
 11791 007f 00000000 		.4byte	.LFB438
 11792 0083 24       		.uleb128 .LFE438-.LFB438
 11793 0084 07       		.byte	0x7
 11794 0085 00000000 		.4byte	.LFB439
 11795 0089 34       		.uleb128 .LFE439-.LFB439
 11796 008a 07       		.byte	0x7
 11797 008b 00000000 		.4byte	.LFB440
 11798 008f DC01     		.uleb128 .LFE440-.LFB440
 11799 0091 07       		.byte	0x7
 11800 0092 00000000 		.4byte	.LFB441
 11801 0096 E802     		.uleb128 .LFE441-.LFB441
 11802 0098 07       		.byte	0x7
 11803 0099 00000000 		.4byte	.LFB442
 11804 009d C401     		.uleb128 .LFE442-.LFB442
 11805 009f 07       		.byte	0x7
 11806 00a0 00000000 		.4byte	.LFB443
 11807 00a4 24       		.uleb128 .LFE443-.LFB443
 11808 00a5 07       		.byte	0x7
 11809 00a6 00000000 		.4byte	.LFB444
 11810 00aa 24       		.uleb128 .LFE444-.LFB444
 11811 00ab 07       		.byte	0x7
 11812 00ac 00000000 		.4byte	.LFB445
 11813 00b0 7C       		.uleb128 .LFE445-.LFB445
 11814 00b1 07       		.byte	0x7
 11815 00b2 00000000 		.4byte	.LFB446
 11816 00b6 C802     		.uleb128 .LFE446-.LFB446
 11817 00b8 07       		.byte	0x7
 11818 00b9 00000000 		.4byte	.LFB447
 11819 00bd 40       		.uleb128 .LFE447-.LFB447
 11820 00be 07       		.byte	0x7
 11821 00bf 00000000 		.4byte	.LFB448
 11822 00c3 A001     		.uleb128 .LFE448-.LFB448
 11823 00c5 07       		.byte	0x7
ARM GAS  C:\Users\DEVELO~1\AppData\Local\Temp\ccBydanM.s 			page 209


 11824 00c6 00000000 		.4byte	.LFB449
 11825 00ca A807     		.uleb128 .LFE449-.LFB449
 11826 00cc 07       		.byte	0x7
 11827 00cd 00000000 		.4byte	.LFB450
 11828 00d1 52       		.uleb128 .LFE450-.LFB450
 11829 00d2 07       		.byte	0x7
 11830 00d3 00000000 		.4byte	.LFB451
 11831 00d7 30       		.uleb128 .LFE451-.LFB451
 11832 00d8 07       		.byte	0x7
 11833 00d9 00000000 		.4byte	.LFB452
 11834 00dd 14       		.uleb128 .LFE452-.LFB452
 11835 00de 07       		.byte	0x7
 11836 00df 00000000 		.4byte	.LFB453
 11837 00e3 72       		.uleb128 .LFE453-.LFB453
 11838 00e4 07       		.byte	0x7
 11839 00e5 00000000 		.4byte	.LFB454
 11840 00e9 5C       		.uleb128 .LFE454-.LFB454
 11841 00ea 07       		.byte	0x7
 11842 00eb 00000000 		.4byte	.LFB455
 11843 00ef 5C       		.uleb128 .LFE455-.LFB455
 11844 00f0 07       		.byte	0x7
 11845 00f1 00000000 		.4byte	.LFB456
 11846 00f5 5C       		.uleb128 .LFE456-.LFB456
 11847 00f6 07       		.byte	0x7
 11848 00f7 00000000 		.4byte	.LFB457
 11849 00fb 46       		.uleb128 .LFE457-.LFB457
 11850 00fc 07       		.byte	0x7
 11851 00fd 00000000 		.4byte	.LFB458
 11852 0101 46       		.uleb128 .LFE458-.LFB458
 11853 0102 07       		.byte	0x7
 11854 0103 00000000 		.4byte	.LFB459
 11855 0107 64       		.uleb128 .LFE459-.LFB459
 11856 0108 07       		.byte	0x7
 11857 0109 00000000 		.4byte	.LFB460
 11858 010d 34       		.uleb128 .LFE460-.LFB460
 11859 010e 07       		.byte	0x7
 11860 010f 00000000 		.4byte	.LFB461
 11861 0113 4A       		.uleb128 .LFE461-.LFB461
 11862 0114 07       		.byte	0x7
 11863 0115 00000000 		.4byte	.LFB462
 11864 0119 34       		.uleb128 .LFE462-.LFB462
 11865 011a 07       		.byte	0x7
 11866 011b 00000000 		.4byte	.LFB463
 11867 011f 24       		.uleb128 .LFE463-.LFB463
 11868 0120 07       		.byte	0x7
 11869 0121 00000000 		.4byte	.LFB464
 11870 0125 24       		.uleb128 .LFE464-.LFB464
 11871 0126 07       		.byte	0x7
 11872 0127 00000000 		.4byte	.LFB465
 11873 012b 24       		.uleb128 .LFE465-.LFB465
 11874 012c 07       		.byte	0x7
 11875 012d 00000000 		.4byte	.LFB466
 11876 0131 24       		.uleb128 .LFE466-.LFB466
 11877 0132 07       		.byte	0x7
 11878 0133 00000000 		.4byte	.LFB467
 11879 0137 24       		.uleb128 .LFE467-.LFB467
 11880 0138 07       		.byte	0x7
ARM GAS  C:\Users\DEVELO~1\AppData\Local\Temp\ccBydanM.s 			page 210


 11881 0139 00000000 		.4byte	.LFB468
 11882 013d 24       		.uleb128 .LFE468-.LFB468
 11883 013e 07       		.byte	0x7
 11884 013f 00000000 		.4byte	.LFB469
 11885 0143 24       		.uleb128 .LFE469-.LFB469
 11886 0144 07       		.byte	0x7
 11887 0145 00000000 		.4byte	.LFB470
 11888 0149 5C       		.uleb128 .LFE470-.LFB470
 11889 014a 07       		.byte	0x7
 11890 014b 00000000 		.4byte	.LFB471
 11891 014f 24       		.uleb128 .LFE471-.LFB471
 11892 0150 07       		.byte	0x7
 11893 0151 00000000 		.4byte	.LFB472
 11894 0155 24       		.uleb128 .LFE472-.LFB472
 11895 0156 07       		.byte	0x7
 11896 0157 00000000 		.4byte	.LFB473
 11897 015b 30       		.uleb128 .LFE473-.LFB473
 11898 015c 07       		.byte	0x7
 11899 015d 00000000 		.4byte	.LFB474
 11900 0161 24       		.uleb128 .LFE474-.LFB474
 11901 0162 07       		.byte	0x7
 11902 0163 00000000 		.4byte	.LFB475
 11903 0167 24       		.uleb128 .LFE475-.LFB475
 11904 0168 07       		.byte	0x7
 11905 0169 00000000 		.4byte	.LFB476
 11906 016d 24       		.uleb128 .LFE476-.LFB476
 11907 016e 07       		.byte	0x7
 11908 016f 00000000 		.4byte	.LFB477
 11909 0173 26       		.uleb128 .LFE477-.LFB477
 11910 0174 07       		.byte	0x7
 11911 0175 00000000 		.4byte	.LFB478
 11912 0179 24       		.uleb128 .LFE478-.LFB478
 11913 017a 07       		.byte	0x7
 11914 017b 00000000 		.4byte	.LFB479
 11915 017f 14       		.uleb128 .LFE479-.LFB479
 11916 0180 07       		.byte	0x7
 11917 0181 00000000 		.4byte	.LFB480
 11918 0185 14       		.uleb128 .LFE480-.LFB480
 11919 0186 07       		.byte	0x7
 11920 0187 00000000 		.4byte	.LFB481
 11921 018b 44       		.uleb128 .LFE481-.LFB481
 11922 018c 00       		.byte	0
 11923              	.Ldebug_ranges3:
 11924              		.section	.debug_line,"",%progbits
 11925              	.Ldebug_line0:
 11926 0000 61120000 		.section	.debug_str,"MS",%progbits,1
 11926      03002204 
 11926      00000201 
 11926      FB0E0D00 
 11926      01010101 
 11927              	.LASF116:
 11928 0000 73656E74 		.ascii	"sentmsg\000"
 11928      6D736700 
 11929              	.LASF98:
 11930 0008 706F7274 		.ascii	"port_intctx\000"
 11930      5F696E74 
 11930      63747800 
ARM GAS  C:\Users\DEVELO~1\AppData\Local\Temp\ccBydanM.s 			page 211


 11931              	.LASF442:
 11932 0014 6D696469 		.ascii	"midi_usb_queue_increment\000"
 11932      5F757362 
 11932      5F717565 
 11932      75655F69 
 11932      6E637265 
 11933              	.LASF437:
 11934 002d 7061636B 		.ascii	"packets\000"
 11934      65747300 
 11935              	.LASF167:
 11936 0035 6576656E 		.ascii	"event\000"
 11936      7400
 11937              	.LASF470:
 11938 003b 5F5F6675 		.ascii	"__func__\000"
 11938      6E635F5F 
 11938      00
 11939              	.LASF29:
 11940 0044 6D73675F 		.ascii	"msg_t\000"
 11940      7400
 11941              	.LASF461:
 11942 004a 706F7274 		.ascii	"port_unlock_from_isr\000"
 11942      5F756E6C 
 11942      6F636B5F 
 11942      66726F6D 
 11942      5F697372 
 11943              	.LASF219:
 11944 005f 5553425F 		.ascii	"USB_EVENT_UNCONFIGURED\000"
 11944      4556454E 
 11944      545F554E 
 11944      434F4E46 
 11944      49475552 
 11945              	.LASF352:
 11946 0076 7573625F 		.ascii	"usb_rx_drops\000"
 11946      72785F64 
 11946      726F7073 
 11946      00
 11947              	.LASF355:
 11948 0083 6D696469 		.ascii	"midi_rx_stats_t\000"
 11948      5F72785F 
 11948      73746174 
 11948      735F7400 
 11949              	.LASF263:
 11950 0093 44494550 		.ascii	"DIEPTXF0\000"
 11950      54584630 
 11950      00
 11951              	.LASF336:
 11952 009c 55534244 		.ascii	"USBD1\000"
 11952      3100
 11953              	.LASF165:
 11954 00a2 53657269 		.ascii	"SerialDriver\000"
 11954      616C4472 
 11954      69766572 
 11954      00
 11955              	.LASF175:
 11956 00af 53657269 		.ascii	"SerialConfig\000"
 11956      616C436F 
 11956      6E666967 
ARM GAS  C:\Users\DEVELO~1\AppData\Local\Temp\ccBydanM.s 			page 212


 11956      00
 11957              	.LASF5:
 11958 00bc 5F5F7569 		.ascii	"__uint8_t\000"
 11958      6E74385F 
 11958      7400
 11959              	.LASF117:
 11960 00c6 77747365 		.ascii	"wtsemp\000"
 11960      6D7000
 11961              	.LASF146:
 11962 00cd 5F426F6F 		.ascii	"_Bool\000"
 11962      6C00
 11963              	.LASF44:
 11964 00d3 6570656E 		.ascii	"epending\000"
 11964      64696E67 
 11964      00
 11965              	.LASF422:
 11966 00dc 69735F6E 		.ascii	"is_note\000"
 11966      6F746500 
 11967              	.LASF420:
 11968 00e4 7061636B 		.ascii	"packet\000"
 11968      657400
 11969              	.LASF450:
 11970 00eb 6F73616C 		.ascii	"osalSysUnlock\000"
 11970      53797355 
 11970      6E6C6F63 
 11970      6B00
 11971              	.LASF282:
 11972 00f9 72657376 		.ascii	"resvd700\000"
 11972      64373030 
 11972      00
 11973              	.LASF438:
 11974 0102 6D696469 		.ascii	"midi_usb_start_tx\000"
 11974      5F757362 
 11974      5F737461 
 11974      72745F74 
 11974      7800
 11975              	.LASF293:
 11976 0114 44564255 		.ascii	"DVBUSDIS\000"
 11976      53444953 
 11976      00
 11977              	.LASF177:
 11978 011d 696E7374 		.ascii	"instance_offset\000"
 11978      616E6365 
 11978      5F6F6666 
 11978      73657400 
 11979              	.LASF78:
 11980 012d 7072696F 		.ascii	"prio\000"
 11980      00
 11981              	.LASF200:
 11982 0132 75736265 		.ascii	"usbep_t\000"
 11982      705F7400 
 11983              	.LASF452:
 11984 013a 63684253 		.ascii	"chBSemWaitTimeout\000"
 11984      656D5761 
 11984      69745469 
 11984      6D656F75 
 11984      7400
ARM GAS  C:\Users\DEVELO~1\AppData\Local\Temp\ccBydanM.s 			page 213


 11985              	.LASF433:
 11986 014c 75617274 		.ascii	"uart_cfg\000"
 11986      5F636667 
 11986      00
 11987              	.LASF432:
 11988 0155 6D696469 		.ascii	"midi_init\000"
 11988      5F696E69 
 11988      7400
 11989              	.LASF173:
 11990 015f 68616C5F 		.ascii	"hal_serial_config\000"
 11990      73657269 
 11990      616C5F63 
 11990      6F6E6669 
 11990      6700
 11991              	.LASF179:
 11992 0171 72656164 		.ascii	"read\000"
 11992      00
 11993              	.LASF267:
 11994 0176 47434346 		.ascii	"GCCFG\000"
 11994      4700
 11995              	.LASF19:
 11996 017c 75696E74 		.ascii	"uint16_t\000"
 11996      31365F74 
 11996      00
 11997              	.LASF398:
 11998 0185 6D696469 		.ascii	"midi_system_reset\000"
 11998      5F737973 
 11998      74656D5F 
 11998      72657365 
 11998      7400
 11999              	.LASF334:
 12000 0197 736F665F 		.ascii	"sof_cb\000"
 12000      636200
 12001              	.LASF87:
 12002 019e 72747374 		.ascii	"rtstamp\000"
 12002      616D7000 
 12003              	.LASF381:
 12004 01a6 63685365 		.ascii	"chSemWaitTimeout\000"
 12004      6D576169 
 12004      7454696D 
 12004      656F7574 
 12004      00
 12005              	.LASF33:
 12006 01b7 636F7265 		.ascii	"core_id_t\000"
 12006      5F69645F 
 12006      7400
 12007              	.LASF72:
 12008 01c1 6E657874 		.ascii	"next\000"
 12008      00
 12009              	.LASF341:
 12010 01c6 6D696469 		.ascii	"midi_dest_t\000"
 12010      5F646573 
 12010      745F7400 
 12011              	.LASF270:
 12012 01d2 44494550 		.ascii	"DIEPTXF\000"
 12012      54584600 
 12013              	.LASF187:
ARM GAS  C:\Users\DEVELO~1\AppData\Local\Temp\ccBydanM.s 			page 214


 12014 01da 696E5F70 		.ascii	"in_params\000"
 12014      6172616D 
 12014      7300
 12015              	.LASF210:
 12016 01e4 5553425F 		.ascii	"USB_EP0_IN_WAITING_TX0\000"
 12016      4550305F 
 12016      494E5F57 
 12016      41495449 
 12016      4E475F54 
 12017              	.LASF109:
 12018 01fb 63685F74 		.ascii	"ch_threads_queue\000"
 12018      68726561 
 12018      64735F71 
 12018      75657565 
 12018      00
 12019              	.LASF399:
 12020 020c 6D696469 		.ascii	"midi_active_sensing\000"
 12020      5F616374 
 12020      6976655F 
 12020      73656E73 
 12020      696E6700 
 12021              	.LASF280:
 12022 0220 48505254 		.ascii	"HPRT\000"
 12022      00
 12023              	.LASF418:
 12024 0225 6D696469 		.ascii	"midi_send\000"
 12024      5F73656E 
 12024      6400
 12025              	.LASF410:
 12026 022f 6D696469 		.ascii	"midi_program_change\000"
 12026      5F70726F 
 12026      6772616D 
 12026      5F636861 
 12026      6E676500 
 12027              	.LASF390:
 12028 0243 6D696469 		.ascii	"midi_omni_mode_on\000"
 12028      5F6F6D6E 
 12028      695F6D6F 
 12028      64655F6F 
 12028      6E00
 12029              	.LASF234:
 12030 0255 4843494E 		.ascii	"HCINT\000"
 12030      5400
 12031              	.LASF89:
 12032 025b 74726163 		.ascii	"trace_event_t\000"
 12032      655F6576 
 12032      656E745F 
 12032      7400
 12033              	.LASF237:
 12034 0269 72657376 		.ascii	"resvd14\000"
 12034      64313400 
 12035              	.LASF276:
 12036 0271 48505458 		.ascii	"HPTXSTS\000"
 12036      53545300 
 12037              	.LASF288:
 12038 0279 444F4550 		.ascii	"DOEPMSK\000"
 12038      4D534B00 
ARM GAS  C:\Users\DEVELO~1\AppData\Local\Temp\ccBydanM.s 			page 215


 12039              	.LASF459:
 12040 0281 63685379 		.ascii	"chSysUnlock\000"
 12040      73556E6C 
 12040      6F636B00 
 12041              	.LASF34:
 12042 028d 74687265 		.ascii	"thread_t\000"
 12042      61645F74 
 12042      00
 12043              	.LASF100:
 12044 0296 63685F76 		.ascii	"ch_virtual_timers_list\000"
 12044      69727475 
 12044      616C5F74 
 12044      696D6572 
 12044      735F6C69 
 12045              	.LASF127:
 12046 02ad 6D61696E 		.ascii	"mainthread_end\000"
 12046      74687265 
 12046      61645F65 
 12046      6E6400
 12047              	.LASF20:
 12048 02bc 696E7433 		.ascii	"int32_t\000"
 12048      325F7400 
 12049              	.LASF360:
 12050 02c4 7573625F 		.ascii	"usb_midi_tx_ready\000"
 12050      6D696469 
 12050      5F74785F 
 12050      72656164 
 12050      7900
 12051              	.LASF67:
 12052 02d6 73797374 		.ascii	"systime_t\000"
 12052      696D655F 
 12052      7400
 12053              	.LASF61:
 12054 02e0 6D61736B 		.ascii	"mask\000"
 12054      00
 12055              	.LASF232:
 12056 02e5 48434348 		.ascii	"HCCHAR\000"
 12056      415200
 12057              	.LASF239:
 12058 02ec 72657376 		.ascii	"resvd1c\000"
 12058      64316300 
 12059              	.LASF277:
 12060 02f4 4841494E 		.ascii	"HAINT\000"
 12060      5400
 12061              	.LASF274:
 12062 02fa 48464E55 		.ascii	"HFNUM\000"
 12062      4D00
 12063              	.LASF374:
 12064 0300 63684D42 		.ascii	"chMBPostTimeout\000"
 12064      506F7374 
 12064      54696D65 
 12064      6F757400 
 12065              	.LASF158:
 12066 0310 716E6F74 		.ascii	"qnotify_t\000"
 12066      6966795F 
 12066      7400
 12067              	.LASF153:
ARM GAS  C:\Users\DEVELO~1\AppData\Local\Temp\ccBydanM.s 			page 216


 12068 031a 715F746F 		.ascii	"q_top\000"
 12068      7000
 12069              	.LASF225:
 12070 0320 75645F73 		.ascii	"ud_string\000"
 12070      7472696E 
 12070      6700
 12071              	.LASF41:
 12072 032a 72656673 		.ascii	"refs\000"
 12072      00
 12073              	.LASF192:
 12074 032f 65703065 		.ascii	"ep0endcb\000"
 12074      6E646362 
 12074      00
 12075              	.LASF286:
 12076 0338 72657376 		.ascii	"resvd80C\000"
 12076      64383043 
 12076      00
 12077              	.LASF76:
 12078 0341 63685F70 		.ascii	"ch_priority_queue_t\000"
 12078      72696F72 
 12078      6974795F 
 12078      71756575 
 12078      655F7400 
 12079              	.LASF45:
 12080 0355 6D74786C 		.ascii	"mtxlist\000"
 12080      69737400 
 12081              	.LASF253:
 12082 035d 474F5447 		.ascii	"GOTGCTL\000"
 12082      43544C00 
 12083              	.LASF228:
 12084 0365 75736265 		.ascii	"usbepcallback_t\000"
 12084      7063616C 
 12084      6C626163 
 12084      6B5F7400 
 12085              	.LASF249:
 12086 0375 444F4550 		.ascii	"DOEPCTL\000"
 12086      43544C00 
 12087              	.LASF52:
 12088 037d 76746C69 		.ascii	"vtlist\000"
 12088      737400
 12089              	.LASF339:
 12090 0384 4D494449 		.ascii	"MIDI_DEST_USB\000"
 12090      5F444553 
 12090      545F5553 
 12090      4200
 12091              	.LASF150:
 12092 0392 715F7761 		.ascii	"q_waiting\000"
 12092      6974696E 
 12092      6700
 12093              	.LASF51:
 12094 039c 726C6973 		.ascii	"rlist\000"
 12094      7400
 12095              	.LASF159:
 12096 03a2 696E7075 		.ascii	"input_queue_t\000"
 12096      745F7175 
 12096      6575655F 
 12096      7400
ARM GAS  C:\Users\DEVELO~1\AppData\Local\Temp\ccBydanM.s 			page 217


 12097              	.LASF446:
 12098 03b0 7573625F 		.ascii	"usb_midi_decode_packet\000"
 12098      6D696469 
 12098      5F646563 
 12098      6F64655F 
 12098      7061636B 
 12099              	.LASF386:
 12100 03c7 64657374 		.ascii	"dest\000"
 12100      00
 12101              	.LASF291:
 12102 03cc 72657376 		.ascii	"resvd820\000"
 12102      64383230 
 12102      00
 12103              	.LASF77:
 12104 03d5 63685F70 		.ascii	"ch_priority_queue\000"
 12104      72696F72 
 12104      6974795F 
 12104      71756575 
 12104      6500
 12105              	.LASF292:
 12106 03e7 72657376 		.ascii	"resvd824\000"
 12106      64383234 
 12106      00
 12107              	.LASF460:
 12108 03f0 63685379 		.ascii	"chSysLock\000"
 12108      734C6F63 
 12108      6B00
 12109              	.LASF416:
 12110 03fa 6D696469 		.ascii	"midi_set_rx_destination\000"
 12110      5F736574 
 12110      5F72785F 
 12110      64657374 
 12110      696E6174 
 12111              	.LASF448:
 12112 0412 6F73616C 		.ascii	"osalSysUnlockFromISR\000"
 12112      53797355 
 12112      6E6C6F63 
 12112      6B46726F 
 12112      6D495352 
 12113              	.LASF161:
 12114 0427 53445F55 		.ascii	"SD_UNINIT\000"
 12114      4E494E49 
 12114      5400
 12115              	.LASF28:
 12116 0431 74707269 		.ascii	"tprio_t\000"
 12116      6F5F7400 
 12117              	.LASF197:
 12118 0439 73617665 		.ascii	"saved_state\000"
 12118      645F7374 
 12118      61746500 
 12119              	.LASF295:
 12120 0445 72657376 		.ascii	"resvd830\000"
 12120      64383330 
 12120      00
 12121              	.LASF55:
 12122 044e 72666375 		.ascii	"rfcu\000"
 12122      00
ARM GAS  C:\Users\DEVELO~1\AppData\Local\Temp\ccBydanM.s 			page 218


 12123              	.LASF103:
 12124 0453 6C617374 		.ascii	"laststamp\000"
 12124      7374616D 
 12124      7000
 12125              	.LASF297:
 12126 045d 72657376 		.ascii	"resvd838\000"
 12126      64383338 
 12126      00
 12127              	.LASF193:
 12128 0466 73657475 		.ascii	"setup\000"
 12128      7000
 12129              	.LASF344:
 12130 046c 72745F66 		.ascii	"rt_f8_drops\000"
 12130      385F6472 
 12130      6F707300 
 12131              	.LASF246:
 12132 0478 44545846 		.ascii	"DTXFSTS\000"
 12132      53545300 
 12133              	.LASF409:
 12134 0480 6D696469 		.ascii	"midi_channel_pressure\000"
 12134      5F636861 
 12134      6E6E656C 
 12134      5F707265 
 12134      73737572 
 12135              	.LASF129:
 12136 0496 69646C65 		.ascii	"idlethread_end\000"
 12136      74687265 
 12136      61645F65 
 12136      6E6400
 12137              	.LASF86:
 12138 04a5 74797065 		.ascii	"type\000"
 12138      00
 12139              	.LASF255:
 12140 04aa 47414842 		.ascii	"GAHBCFG\000"
 12140      43464700 
 12141              	.LASF298:
 12142 04b2 72657376 		.ascii	"resvd83C\000"
 12142      64383343 
 12142      00
 12143              	.LASF299:
 12144 04bb 72657376 		.ascii	"resvd840\000"
 12144      64383430 
 12144      00
 12145              	.LASF131:
 12146 04c4 7466756E 		.ascii	"tfunc_t\000"
 12146      635F7400 
 12147              	.LASF472:
 12148 04cc 62617365 		.ascii	"basePri\000"
 12148      50726900 
 12149              	.LASF7:
 12150 04d4 5F5F696E 		.ascii	"__int16_t\000"
 12150      7431365F 
 12150      7400
 12151              	.LASF9:
 12152 04de 5F5F7569 		.ascii	"__uint16_t\000"
 12152      6E743136 
 12152      5F7400
ARM GAS  C:\Users\DEVELO~1\AppData\Local\Temp\ccBydanM.s 			page 219


 12153              	.LASF261:
 12154 04e9 47525853 		.ascii	"GRXSTSP\000"
 12154      54535000 
 12155              	.LASF260:
 12156 04f1 47525853 		.ascii	"GRXSTSR\000"
 12156      54535200 
 12157              	.LASF353:
 12158 04f9 7573625F 		.ascii	"usb_rx_decoded\000"
 12158      72785F64 
 12158      65636F64 
 12158      656400
 12159              	.LASF231:
 12160 0508 75736267 		.ascii	"usbgetdescriptor_t\000"
 12160      65746465 
 12160      73637269 
 12160      70746F72 
 12160      5F7400
 12161              	.LASF107:
 12162 051b 72656769 		.ascii	"registry_t\000"
 12162      73747279 
 12162      5F7400
 12163              	.LASF205:
 12164 0526 5553425F 		.ascii	"USB_ACTIVE\000"
 12164      41435449 
 12164      564500
 12165              	.LASF202:
 12166 0531 5553425F 		.ascii	"USB_STOP\000"
 12166      53544F50 
 12166      00
 12167              	.LASF248:
 12168 053a 73746D33 		.ascii	"stm32_otg_in_ep_t\000"
 12168      325F6F74 
 12168      675F696E 
 12168      5F65705F 
 12168      7400
 12169              	.LASF367:
 12170 054c 6D696469 		.ascii	"midi_usb_rx_queue\000"
 12170      5F757362 
 12170      5F72785F 
 12170      71756575 
 12170      6500
 12171              	.LASF385:
 12172 055e 6D696469 		.ascii	"midi_usb_queue_high_watermark\000"
 12172      5F757362 
 12172      5F717565 
 12172      75655F68 
 12172      6967685F 
 12173              	.LASF373:
 12174 057c 77614D69 		.ascii	"waMidiUsbTx\000"
 12174      64695573 
 12174      62547800 
 12175              	.LASF24:
 12176 0588 73746B61 		.ascii	"stkalign_t\000"
 12176      6C69676E 
 12176      5F7400
 12177              	.LASF307:
 12178 0593 72785F66 		.ascii	"rx_fifo_size\000"
ARM GAS  C:\Users\DEVELO~1\AppData\Local\Temp\ccBydanM.s 			page 220


 12178      69666F5F 
 12178      73697A65 
 12178      00
 12179              	.LASF372:
 12180 05a0 6D696469 		.ascii	"midi_rx_dest\000"
 12180      5F72785F 
 12180      64657374 
 12180      00
 12181              	.LASF376:
 12182 05ad 63685468 		.ascii	"chThdCreateStatic\000"
 12182      64437265 
 12182      61746553 
 12182      74617469 
 12182      6300
 12183              	.LASF321:
 12184 05bf 73657475 		.ascii	"setup_cb\000"
 12184      705F6362 
 12184      00
 12185              	.LASF6:
 12186 05c8 756E7369 		.ascii	"unsigned char\000"
 12186      676E6564 
 12186      20636861 
 12186      7200
 12187              	.LASF95:
 12188 05d6 52544F52 		.ascii	"RTOR\000"
 12188      00
 12189              	.LASF135:
 12190 05db 6576656E 		.ascii	"event_listener\000"
 12190      745F6C69 
 12190      7374656E 
 12190      657200
 12191              	.LASF124:
 12192 05ea 72656164 		.ascii	"ready_list_t\000"
 12192      795F6C69 
 12192      73745F74 
 12192      00
 12193              	.LASF49:
 12194 05f7 63685F74 		.ascii	"ch_thread\000"
 12194      68726561 
 12194      6400
 12195              	.LASF431:
 12196 0601 696E6974 		.ascii	"initialized\000"
 12196      69616C69 
 12196      7A656400 
 12197              	.LASF411:
 12198 060d 6D696469 		.ascii	"midi_cc\000"
 12198      5F636300 
 12199              	.LASF404:
 12200 0615 6D696469 		.ascii	"midi_tune_request\000"
 12200      5F74756E 
 12200      655F7265 
 12200      71756573 
 12200      7400
 12201              	.LASF351:
 12202 0627 7573625F 		.ascii	"usb_rx_enqueued\000"
 12202      72785F65 
 12202      6E717565 
ARM GAS  C:\Users\DEVELO~1\AppData\Local\Temp\ccBydanM.s 			page 221


 12202      75656400 
 12203              	.LASF66:
 12204 0637 73797374 		.ascii	"system_debug_t\000"
 12204      656D5F64 
 12204      65627567 
 12204      5F7400
 12205              	.LASF81:
 12206 0646 64656C74 		.ascii	"delta\000"
 12206      6100
 12207              	.LASF300:
 12208 064c 72657376 		.ascii	"resvd880\000"
 12208      64383830 
 12208      00
 12209              	.LASF453:
 12210 0655 74696D65 		.ascii	"timeout\000"
 12210      6F757400 
 12211              	.LASF369:
 12212 065d 6D696469 		.ascii	"midi_usb_rx_queue_high_water\000"
 12212      5F757362 
 12212      5F72785F 
 12212      71756575 
 12212      655F6869 
 12213              	.LASF22:
 12214 067a 75696E74 		.ascii	"uint64_t\000"
 12214      36345F74 
 12214      00
 12215              	.LASF317:
 12216 0683 7278636E 		.ascii	"rxcnt\000"
 12216      7400
 12217              	.LASF434:
 12218 0689 7468644D 		.ascii	"thdMidiUsbTx\000"
 12218      69646955 
 12218      73625478 
 12218      00
 12219              	.LASF141:
 12220 0696 63685F62 		.ascii	"ch_binary_semaphore\000"
 12220      696E6172 
 12220      795F7365 
 12220      6D617068 
 12220      6F726500 
 12221              	.LASF229:
 12222 06aa 75736265 		.ascii	"usbeventcb_t\000"
 12222      76656E74 
 12222      63625F74 
 12222      00
 12223              	.LASF426:
 12224 06b7 6D696469 		.ascii	"midi_dispatch_rx_message\000"
 12224      5F646973 
 12224      70617463 
 12224      685F7278 
 12224      5F6D6573 
 12225              	.LASF308:
 12226 06d0 6F74675F 		.ascii	"otg_ram_size\000"
 12226      72616D5F 
 12226      73697A65 
 12226      00
 12227              	.LASF310:
ARM GAS  C:\Users\DEVELO~1\AppData\Local\Temp\ccBydanM.s 			page 222


 12228 06dd 73746D33 		.ascii	"stm32_otg_params_t\000"
 12228      325F6F74 
 12228      675F7061 
 12228      72616D73 
 12228      5F7400
 12229              	.LASF302:
 12230 06f0 72657376 		.ascii	"resvdD00\000"
 12230      64443030 
 12230      00
 12231              	.LASF318:
 12232 06f9 72786275 		.ascii	"rxbuf\000"
 12232      6600
 12233              	.LASF258:
 12234 06ff 47494E54 		.ascii	"GINTSTS\000"
 12234      53545300 
 12235              	.LASF121:
 12236 0707 63685F6D 		.ascii	"ch_mutex\000"
 12236      75746578 
 12236      00
 12237              	.LASF397:
 12238 0710 76616C75 		.ascii	"value\000"
 12238      6500
 12239              	.LASF143:
 12240 0716 77727074 		.ascii	"wrptr\000"
 12240      7200
 12241              	.LASF350:
 12242 071c 6D696469 		.ascii	"midi_tx_stats\000"
 12242      5F74785F 
 12242      73746174 
 12242      7300
 12243              	.LASF287:
 12244 072a 44494550 		.ascii	"DIEPMSK\000"
 12244      4D534B00 
 12245              	.LASF331:
 12246 0732 6576656E 		.ascii	"event_cb\000"
 12246      745F6362 
 12246      00
 12247              	.LASF323:
 12248 073b 6F75745F 		.ascii	"out_cb\000"
 12248      636200
 12249              	.LASF278:
 12250 0742 4841494E 		.ascii	"HAINTMSK\000"
 12250      544D534B 
 12250      00
 12251              	.LASF188:
 12252 074b 6F75745F 		.ascii	"out_params\000"
 12252      70617261 
 12252      6D7300
 12253              	.LASF419:
 12254 0756 73656E64 		.ascii	"send_usb\000"
 12254      5F757362 
 12254      00
 12255              	.LASF91:
 12256 075f 73697A65 		.ascii	"size\000"
 12256      00
 12257              	.LASF101:
 12258 0764 646C6973 		.ascii	"dlist\000"
ARM GAS  C:\Users\DEVELO~1\AppData\Local\Temp\ccBydanM.s 			page 223


 12258      7400
 12259              	.LASF171:
 12260 076a 636C6F63 		.ascii	"clock\000"
 12260      6B00
 12261              	.LASF23:
 12262 0770 706F7274 		.ascii	"port_stkalign_t\000"
 12262      5F73746B 
 12262      616C6967 
 12262      6E5F7400 
 12263              	.LASF36:
 12264 0780 6F776E65 		.ascii	"owner\000"
 12264      7200
 12265              	.LASF242:
 12266 0786 72657376 		.ascii	"resvd4\000"
 12266      643400
 12267              	.LASF162:
 12268 078d 53445F53 		.ascii	"SD_STOP\000"
 12268      544F5000 
 12269              	.LASF4:
 12270 0795 73697A65 		.ascii	"size_t\000"
 12270      5F7400
 12271              	.LASF441:
 12272 079c 6D696469 		.ascii	"midi_usb_queue_decrement\000"
 12272      5F757362 
 12272      5F717565 
 12272      75655F64 
 12272      65637265 
 12273              	.LASF134:
 12274 07b5 6576656E 		.ascii	"event_listener_t\000"
 12274      745F6C69 
 12274      7374656E 
 12274      65725F74 
 12274      00
 12275              	.LASF53:
 12276 07c6 7265676C 		.ascii	"reglist\000"
 12276      69737400 
 12277              	.LASF17:
 12278 07ce 75696E74 		.ascii	"uint8_t\000"
 12278      385F7400 
 12279              	.LASF238:
 12280 07d6 72657376 		.ascii	"resvd18\000"
 12280      64313800 
 12281              	.LASF247:
 12282 07de 72657376 		.ascii	"resvd1C\000"
 12282      64314300 
 12283              	.LASF424:
 12284 07e6 6D61785F 		.ascii	"max_burst\000"
 12284      62757273 
 12284      7400
 12285              	.LASF74:
 12286 07f0 63685F71 		.ascii	"ch_queue\000"
 12286      75657565 
 12286      00
 12287              	.LASF296:
 12288 07f9 44494550 		.ascii	"DIEPEMPMSK\000"
 12288      454D504D 
 12288      534B00
ARM GAS  C:\Users\DEVELO~1\AppData\Local\Temp\ccBydanM.s 			page 224


 12289              	.LASF241:
 12290 0804 44494550 		.ascii	"DIEPCTL\000"
 12290      43544C00 
 12291              	.LASF198:
 12292 080c 6F746770 		.ascii	"otgparams\000"
 12292      6172616D 
 12292      7300
 12293              	.LASF114:
 12294 0816 65786974 		.ascii	"exitcode\000"
 12294      636F6465 
 12294      00
 12295              	.LASF327:
 12296 081f 6F75745F 		.ascii	"out_state\000"
 12296      73746174 
 12296      6500
 12297              	.LASF148:
 12298 0829 696F5F71 		.ascii	"io_queue_t\000"
 12298      75657565 
 12298      5F7400
 12299              	.LASF415:
 12300 0834 6D696469 		.ascii	"midi_get_rx_destination\000"
 12300      5F676574 
 12300      5F72785F 
 12300      64657374 
 12300      696E6174 
 12301              	.LASF445:
 12302 084c 61646472 		.ascii	"addr\000"
 12302      00
 12303              	.LASF59:
 12304 0851 72666375 		.ascii	"rfcu_mask_t\000"
 12304      5F6D6173 
 12304      6B5F7400 
 12305              	.LASF136:
 12306 085d 6C697374 		.ascii	"listener\000"
 12306      656E6572 
 12306      00
 12307              	.LASF265:
 12308 0866 72657376 		.ascii	"resvd30\000"
 12308      64333000 
 12309              	.LASF266:
 12310 086e 72657376 		.ascii	"resvd34\000"
 12310      64333400 
 12311              	.LASF294:
 12312 0876 44564255 		.ascii	"DVBUSPULSE\000"
 12312      5350554C 
 12312      534500
 12313              	.LASF176:
 12314 0881 53657269 		.ascii	"SerialDriverVMT\000"
 12314      616C4472 
 12314      69766572 
 12314      564D5400 
 12315              	.LASF214:
 12316 0891 5553425F 		.ascii	"USB_EP0_ERROR\000"
 12316      4550305F 
 12316      4552524F 
 12316      5200
 12317              	.LASF213:
ARM GAS  C:\Users\DEVELO~1\AppData\Local\Temp\ccBydanM.s 			page 225


 12318 089f 5553425F 		.ascii	"USB_EP0_OUT_RX\000"
 12318      4550305F 
 12318      4F55545F 
 12318      525800
 12319              	.LASF383:
 12320 08ae 63684D42 		.ascii	"chMBPostI\000"
 12320      506F7374 
 12320      4900
 12321              	.LASF304:
 12322 08b8 72657376 		.ascii	"resvdE04\000"
 12322      64453034 
 12322      00
 12323              	.LASF309:
 12324 08c1 6E756D5F 		.ascii	"num_endpoints\000"
 12324      656E6470 
 12324      6F696E74 
 12324      7300
 12325              	.LASF314:
 12326 08cf 746F7473 		.ascii	"totsize\000"
 12326      697A6500 
 12327              	.LASF430:
 12328 08d7 73656E64 		.ascii	"send_uart\000"
 12328      5F756172 
 12328      7400
 12329              	.LASF462:
 12330 08e1 706F7274 		.ascii	"port_lock_from_isr\000"
 12330      5F6C6F63 
 12330      6B5F6672 
 12330      6F6D5F69 
 12330      737200
 12331              	.LASF406:
 12332 08f4 6D696469 		.ascii	"midi_song_position\000"
 12332      5F736F6E 
 12332      675F706F 
 12332      73697469 
 12332      6F6E00
 12333              	.LASF112:
 12334 0907 70717565 		.ascii	"pqueue\000"
 12334      756500
 12335              	.LASF189:
 12336 090e 65703073 		.ascii	"ep0state\000"
 12336      74617465 
 12336      00
 12337              	.LASF111:
 12338 0917 6C697374 		.ascii	"list\000"
 12338      00
 12339              	.LASF325:
 12340 091c 6F75745F 		.ascii	"out_maxsize\000"
 12340      6D617873 
 12340      697A6500 
 12341              	.LASF113:
 12342 0928 7264796D 		.ascii	"rdymsg\000"
 12342      736700
 12343              	.LASF389:
 12344 092f 6E756D5F 		.ascii	"num_channels\000"
 12344      6368616E 
 12344      6E656C73 
ARM GAS  C:\Users\DEVELO~1\AppData\Local\Temp\ccBydanM.s 			page 226


 12344      00
 12345              	.LASF268:
 12346 093c 72657376 		.ascii	"resvd58\000"
 12346      64353800 
 12347              	.LASF436:
 12348 0944 6D696469 		.ascii	"midi_usb_rx_submit_from_isr\000"
 12348      5F757362 
 12348      5F72785F 
 12348      7375626D 
 12348      69745F66 
 12349              	.LASF315:
 12350 0960 55534249 		.ascii	"USBInEndpointState\000"
 12350      6E456E64 
 12350      706F696E 
 12350      74537461 
 12350      746500
 12351              	.LASF169:
 12352 0973 6F717565 		.ascii	"oqueue\000"
 12352      756500
 12353              	.LASF149:
 12354 097a 696F5F71 		.ascii	"io_queue\000"
 12354      75657565 
 12354      00
 12355              	.LASF408:
 12356 0983 6D696469 		.ascii	"midi_pitchbend\000"
 12356      5F706974 
 12356      63686265 
 12356      6E6400
 12357              	.LASF387:
 12358 0992 6D696469 		.ascii	"midi_poly_mode_on\000"
 12358      5F706F6C 
 12358      795F6D6F 
 12358      64655F6F 
 12358      6E00
 12359              	.LASF15:
 12360 09a4 5F5F7569 		.ascii	"__uint64_t\000"
 12360      6E743634 
 12360      5F7400
 12361              	.LASF365:
 12362 09af 6D696469 		.ascii	"midi_usb_queue_high_water\000"
 12362      5F757362 
 12362      5F717565 
 12362      75655F68 
 12362      6967685F 
 12363              	.LASF195:
 12364 09c9 61646472 		.ascii	"address\000"
 12364      65737300 
 12365              	.LASF42:
 12366 09d1 77616974 		.ascii	"waiting\000"
 12366      696E6700 
 12367              	.LASF215:
 12368 09d9 75736265 		.ascii	"usbep0state_t\000"
 12368      70307374 
 12368      6174655F 
 12368      7400
 12369              	.LASF362:
 12370 09e7 6D696469 		.ascii	"midi_usb_mb\000"
ARM GAS  C:\Users\DEVELO~1\AppData\Local\Temp\ccBydanM.s 			page 227


 12370      5F757362 
 12370      5F6D6200 
 12371              	.LASF455:
 12372 09f3 74616B65 		.ascii	"taken\000"
 12372      6E00
 12373              	.LASF152:
 12374 09f9 715F6275 		.ascii	"q_buffer\000"
 12374      66666572 
 12374      00
 12375              	.LASF99:
 12376 0a02 706F7274 		.ascii	"port_context\000"
 12376      5F636F6E 
 12376      74657874 
 12376      00
 12377              	.LASF233:
 12378 0a0f 72657376 		.ascii	"resvd8\000"
 12378      643800
 12379              	.LASF184:
 12380 0a16 55534244 		.ascii	"USBDriver\000"
 12380      72697665 
 12380      7200
 12381              	.LASF301:
 12382 0a20 72657376 		.ascii	"resvd8C0\000"
 12382      64384330 
 12382      00
 12383              	.LASF335:
 12384 0a29 55534243 		.ascii	"USBConfig\000"
 12384      6F6E6669 
 12384      6700
 12385              	.LASF244:
 12386 0a33 72657376 		.ascii	"resvdC\000"
 12386      644300
 12387              	.LASF27:
 12388 0a3a 74726566 		.ascii	"trefs_t\000"
 12388      735F7400 
 12389              	.LASF370:
 12390 0a42 74785F73 		.ascii	"tx_sem\000"
 12390      656D00
 12391              	.LASF69:
 12392 0a49 74696D65 		.ascii	"time_conv_t\000"
 12392      5F636F6E 
 12392      765F7400 
 12393              	.LASF328:
 12394 0a55 696E5F6D 		.ascii	"in_multiplier\000"
 12394      756C7469 
 12394      706C6965 
 12394      7200
 12395              	.LASF342:
 12396 0a63 74785F73 		.ascii	"tx_sent_immediate\000"
 12396      656E745F 
 12396      696D6D65 
 12396      64696174 
 12396      6500
 12397              	.LASF126:
 12398 0a75 6D61696E 		.ascii	"mainthread_base\000"
 12398      74687265 
 12398      61645F62 
ARM GAS  C:\Users\DEVELO~1\AppData\Local\Temp\ccBydanM.s 			page 228


 12398      61736500 
 12399              	.LASF25:
 12400 0a85 746D6F64 		.ascii	"tmode_t\000"
 12400      655F7400 
 12401              	.LASF359:
 12402 0a8d 6D696469 		.ascii	"midi_msg_t\000"
 12402      5F6D7367 
 12402      5F7400
 12403              	.LASF285:
 12404 0a98 44535453 		.ascii	"DSTS\000"
 12404      00
 12405              	.LASF333:
 12406 0a9d 72657175 		.ascii	"requests_hook_cb\000"
 12406      65737473 
 12406      5F686F6F 
 12406      6B5F6362 
 12406      00
 12407              	.LASF447:
 12408 0aae 6D696469 		.ascii	"midi_usb_ready\000"
 12408      5F757362 
 12408      5F726561 
 12408      647900
 12409              	.LASF311:
 12410 0abd 74787369 		.ascii	"txsize\000"
 12410      7A6500
 12411              	.LASF394:
 12412 0ac4 6D696469 		.ascii	"midi_reset_all_controllers\000"
 12412      5F726573 
 12412      65745F61 
 12412      6C6C5F63 
 12412      6F6E7472 
 12413              	.LASF354:
 12414 0adf 7573625F 		.ascii	"usb_rx_ignored\000"
 12414      72785F69 
 12414      676E6F72 
 12414      656400
 12415              	.LASF166:
 12416 0aee 68616C5F 		.ascii	"hal_serial_driver\000"
 12416      73657269 
 12416      616C5F64 
 12416      72697665 
 12416      7200
 12417              	.LASF203:
 12418 0b00 5553425F 		.ascii	"USB_READY\000"
 12418      52454144 
 12418      5900
 12419              	.LASF183:
 12420 0b0a 72656164 		.ascii	"readt\000"
 12420      7400
 12421              	.LASF37:
 12422 0b10 6E616D65 		.ascii	"name\000"
 12422      00
 12423              	.LASF64:
 12424 0b15 70616E69 		.ascii	"panic_msg\000"
 12424      635F6D73 
 12424      6700
 12425              	.LASF222:
ARM GAS  C:\Users\DEVELO~1\AppData\Local\Temp\ccBydanM.s 			page 229


 12426 0b1f 5553425F 		.ascii	"USB_EVENT_STALLED\000"
 12426      4556454E 
 12426      545F5354 
 12426      414C4C45 
 12426      4400
 12427              	.LASF316:
 12428 0b31 72787369 		.ascii	"rxsize\000"
 12428      7A6500
 12429              	.LASF93:
 12430 0b38 74726163 		.ascii	"trace_buffer_t\000"
 12430      655F6275 
 12430      66666572 
 12430      5F7400
 12431              	.LASF236:
 12432 0b47 48435453 		.ascii	"HCTSIZ\000"
 12432      495A00
 12433              	.LASF218:
 12434 0b4e 5553425F 		.ascii	"USB_EVENT_CONFIGURED\000"
 12434      4556454E 
 12434      545F434F 
 12434      4E464947 
 12434      55524544 
 12435              	.LASF79:
 12436 0b63 63685F64 		.ascii	"ch_delta_list_t\000"
 12436      656C7461 
 12436      5F6C6973 
 12436      745F7400 
 12437              	.LASF96:
 12438 0b73 50524553 		.ascii	"PRESC\000"
 12438      4300
 12439              	.LASF80:
 12440 0b79 63685F64 		.ascii	"ch_delta_list\000"
 12440      656C7461 
 12440      5F6C6973 
 12440      7400
 12441              	.LASF180:
 12442 0b87 70757474 		.ascii	"putt\000"
 12442      00
 12443              	.LASF145:
 12444 0b8c 72657365 		.ascii	"reset\000"
 12444      7400
 12445              	.LASF140:
 12446 0b92 6576656E 		.ascii	"event_source_t\000"
 12446      745F736F 
 12446      75726365 
 12446      5F7400
 12447              	.LASF271:
 12448 0ba1 72657376 		.ascii	"resvd140\000"
 12448      64313430 
 12448      00
 12449              	.LASF220:
 12450 0baa 5553425F 		.ascii	"USB_EVENT_SUSPEND\000"
 12450      4556454E 
 12450      545F5355 
 12450      5350454E 
 12450      4400
 12451              	.LASF147:
ARM GAS  C:\Users\DEVELO~1\AppData\Local\Temp\ccBydanM.s 			page 230


 12452 0bbc 6D61696C 		.ascii	"mailbox_t\000"
 12452      626F785F 
 12452      7400
 12453              	.LASF48:
 12454 0bc6 6F735F69 		.ascii	"os_instance_t\000"
 12454      6E737461 
 12454      6E63655F 
 12454      7400
 12455              	.LASF18:
 12456 0bd4 696E7431 		.ascii	"int16_t\000"
 12456      365F7400 
 12457              	.LASF10:
 12458 0bdc 73686F72 		.ascii	"short unsigned int\000"
 12458      7420756E 
 12458      7369676E 
 12458      65642069 
 12458      6E7400
 12459              	.LASF3:
 12460 0bef 7369676E 		.ascii	"signed char\000"
 12460      65642063 
 12460      68617200 
 12461              	.LASF105:
 12462 0bfb 63685F72 		.ascii	"ch_registry\000"
 12462      65676973 
 12462      74727900 
 12463              	.LASF123:
 12464 0c07 63757272 		.ascii	"current\000"
 12464      656E7400 
 12465              	.LASF363:
 12466 0c0f 6D696469 		.ascii	"midi_usb_queue\000"
 12466      5F757362 
 12466      5F717565 
 12466      756500
 12467              	.LASF194:
 12468 0c1e 73746174 		.ascii	"status\000"
 12468      757300
 12469              	.LASF400:
 12470 0c25 6D696469 		.ascii	"midi_stop\000"
 12470      5F73746F 
 12470      7000
 12471              	.LASF226:
 12472 0c2f 55534244 		.ascii	"USBDescriptor\000"
 12472      65736372 
 12472      6970746F 
 12472      7200
 12473              	.LASF102:
 12474 0c3d 6C617374 		.ascii	"lasttime\000"
 12474      74696D65 
 12474      00
 12475              	.LASF343:
 12476 0c46 74785F73 		.ascii	"tx_sent_batched\000"
 12476      656E745F 
 12476      62617463 
 12476      68656400 
 12477              	.LASF43:
 12478 0c56 6D736771 		.ascii	"msgqueue\000"
 12478      75657565 
ARM GAS  C:\Users\DEVELO~1\AppData\Local\Temp\ccBydanM.s 			page 231


 12478      00
 12479              	.LASF361:
 12480 0c5f 6D696469 		.ascii	"midi_initialized\000"
 12480      5F696E69 
 12480      7469616C 
 12480      697A6564 
 12480      00
 12481              	.LASF465:
 12482 0c70 474E5520 		.ascii	"GNU C17 11.3.1 20220712 -mcpu=cortex-m7 -mthumb -mf"
 12482      43313720 
 12482      31312E33 
 12482      2E312032 
 12482      30323230 
 12483 0ca3 6C6F6174 		.ascii	"loat-abi=soft -march=armv7e-m -ggdb -O0 -ffunction-"
 12483      2D616269 
 12483      3D736F66 
 12483      74202D6D 
 12483      61726368 
 12484 0cd6 73656374 		.ascii	"sections -fdata-sections -fno-common\000"
 12484      696F6E73 
 12484      202D6664 
 12484      6174612D 
 12484      73656374 
 12485              	.LASF402:
 12486 0cfb 6D696469 		.ascii	"midi_start\000"
 12486      5F737461 
 12486      727400
 12487              	.LASF469:
 12488 0d06 6D696469 		.ascii	"midi_is_initialized\000"
 12488      5F69735F 
 12488      696E6974 
 12488      69616C69 
 12488      7A656400 
 12489              	.LASF39:
 12490 0d1a 73746174 		.ascii	"state\000"
 12490      6500
 12491              	.LASF427:
 12492 0d20 706F7374 		.ascii	"post_mb_or_drop\000"
 12492      5F6D625F 
 12492      6F725F64 
 12492      726F7000 
 12493              	.LASF337:
 12494 0d30 4D494449 		.ascii	"MIDI_DEST_NONE\000"
 12494      5F444553 
 12494      545F4E4F 
 12494      4E4500
 12495              	.LASF38:
 12496 0d3f 77616261 		.ascii	"wabase\000"
 12496      736500
 12497              	.LASF84:
 12498 0d46 68616C74 		.ascii	"halt\000"
 12498      00
 12499              	.LASF120:
 12500 0d4b 63685F73 		.ascii	"ch_semaphore\000"
 12500      656D6170 
 12500      686F7265 
 12500      00
ARM GAS  C:\Users\DEVELO~1\AppData\Local\Temp\ccBydanM.s 			page 232


 12501              	.LASF366:
 12502 0d58 6D696469 		.ascii	"midi_usb_rx_mb\000"
 12502      5F757362 
 12502      5F72785F 
 12502      6D6200
 12503              	.LASF357:
 12504 0d67 6D696469 		.ascii	"midi_usb_rx_drops\000"
 12504      5F757362 
 12504      5F72785F 
 12504      64726F70 
 12504      7300
 12505              	.LASF245:
 12506 0d79 44494550 		.ascii	"DIEPTSIZ\000"
 12506      5453495A 
 12506      00
 12507              	.LASF47:
 12508 0d82 6D706F6F 		.ascii	"mpool\000"
 12508      6C00
 12509              	.LASF463:
 12510 0d88 706F7274 		.ascii	"port_unlock\000"
 12510      5F756E6C 
 12510      6F636B00 
 12511              	.LASF110:
 12512 0d94 74687265 		.ascii	"threads_queue_t\000"
 12512      6164735F 
 12512      71756575 
 12512      655F7400 
 12513              	.LASF393:
 12514 0da4 6D696469 		.ascii	"midi_local_control\000"
 12514      5F6C6F63 
 12514      616C5F63 
 12514      6F6E7472 
 12514      6F6C00
 12515              	.LASF88:
 12516 0db7 74696D65 		.ascii	"time\000"
 12516      00
 12517              	.LASF97:
 12518 0dbc 55534152 		.ascii	"USART_TypeDef\000"
 12518      545F5479 
 12518      70654465 
 12518      6600
 12519              	.LASF320:
 12520 0dca 65705F6D 		.ascii	"ep_mode\000"
 12520      6F646500 
 12521              	.LASF252:
 12522 0dd2 73746D33 		.ascii	"stm32_otg_out_ep_t\000"
 12522      325F6F74 
 12522      675F6F75 
 12522      745F6570 
 12522      5F7400
 12523              	.LASF71:
 12524 0de5 63685F6C 		.ascii	"ch_list\000"
 12524      69737400 
 12525              	.LASF12:
 12526 0ded 6C6F6E67 		.ascii	"long int\000"
 12526      20696E74 
 12526      00
ARM GAS  C:\Users\DEVELO~1\AppData\Local\Temp\ccBydanM.s 			page 233


 12527              	.LASF57:
 12528 0df6 6D61696E 		.ascii	"mainthread\000"
 12528      74687265 
 12528      616400
 12529              	.LASF191:
 12530 0e01 6570306E 		.ascii	"ep0n\000"
 12530      00
 12531              	.LASF414:
 12532 0e06 6D696469 		.ascii	"midi_note_on\000"
 12532      5F6E6F74 
 12532      655F6F6E 
 12532      00
 12533              	.LASF423:
 12534 0e13 6D696469 		.ascii	"midi_process_usb_rx\000"
 12534      5F70726F 
 12534      63657373 
 12534      5F757362 
 12534      5F727800 
 12535              	.LASF272:
 12536 0e27 48434647 		.ascii	"HCFG\000"
 12536      00
 12537              	.LASF395:
 12538 0e2c 6D696469 		.ascii	"midi_all_sound_off\000"
 12538      5F616C6C 
 12538      5F736F75 
 12538      6E645F6F 
 12538      666600
 12539              	.LASF181:
 12540 0e3f 67657474 		.ascii	"gett\000"
 12540      00
 12541              	.LASF115:
 12542 0e44 77747472 		.ascii	"wttrp\000"
 12542      7000
 12543              	.LASF155:
 12544 0e4a 715F7264 		.ascii	"q_rdptr\000"
 12544      70747200 
 12545              	.LASF254:
 12546 0e52 474F5447 		.ascii	"GOTGINT\000"
 12546      494E5400 
 12547              	.LASF178:
 12548 0e5a 77726974 		.ascii	"write\000"
 12548      6500
 12549              	.LASF168:
 12550 0e60 69717565 		.ascii	"iqueue\000"
 12550      756500
 12551              	.LASF322:
 12552 0e67 696E5F63 		.ascii	"in_cb\000"
 12552      6200
 12553              	.LASF250:
 12554 0e6d 444F4550 		.ascii	"DOEPINT\000"
 12554      494E5400 
 12555              	.LASF391:
 12556 0e75 6D696469 		.ascii	"midi_omni_mode_off\000"
 12556      5F6F6D6E 
 12556      695F6D6F 
 12556      64655F6F 
 12556      666600
ARM GAS  C:\Users\DEVELO~1\AppData\Local\Temp\ccBydanM.s 			page 234


 12557              	.LASF164:
 12558 0e88 73647374 		.ascii	"sdstate_t\000"
 12558      6174655F 
 12558      7400
 12559              	.LASF21:
 12560 0e92 75696E74 		.ascii	"uint32_t\000"
 12560      33325F74 
 12560      00
 12561              	.LASF230:
 12562 0e9b 75736272 		.ascii	"usbreqhandler_t\000"
 12562      65716861 
 12562      6E646C65 
 12562      725F7400 
 12563              	.LASF449:
 12564 0eab 6F73616C 		.ascii	"osalSysLockFromISR\000"
 12564      5379734C 
 12564      6F636B46 
 12564      726F6D49 
 12564      535200
 12565              	.LASF464:
 12566 0ebe 706F7274 		.ascii	"port_lock\000"
 12566      5F6C6F63 
 12566      6B00
 12567              	.LASF2:
 12568 0ec8 6C6F6E67 		.ascii	"long double\000"
 12568      20646F75 
 12568      626C6500 
 12569              	.LASF347:
 12570 0ed4 74785F6D 		.ascii	"tx_mb_drops\000"
 12570      625F6472 
 12570      6F707300 
 12571              	.LASF30:
 12572 0ee0 6576656E 		.ascii	"eventmask_t\000"
 12572      746D6173 
 12572      6B5F7400 
 12573              	.LASF216:
 12574 0eec 5553425F 		.ascii	"USB_EVENT_RESET\000"
 12574      4556454E 
 12574      545F5245 
 12574      53455400 
 12575              	.LASF429:
 12576 0efc 7468726F 		.ascii	"throwaway\000"
 12576      77617761 
 12576      7900
 12577              	.LASF204:
 12578 0f06 5553425F 		.ascii	"USB_SELECTED\000"
 12578      53454C45 
 12578      43544544 
 12578      00
 12579              	.LASF14:
 12580 0f13 6C6F6E67 		.ascii	"long unsigned int\000"
 12580      20756E73 
 12580      69676E65 
 12580      6420696E 
 12580      7400
 12581              	.LASF338:
 12582 0f25 4D494449 		.ascii	"MIDI_DEST_UART\000"
ARM GAS  C:\Users\DEVELO~1\AppData\Local\Temp\ccBydanM.s 			page 235


 12582      5F444553 
 12582      545F5541 
 12582      525400
 12583              	.LASF83:
 12584 0f34 72656173 		.ascii	"reason\000"
 12584      6F6E00
 12585              	.LASF217:
 12586 0f3b 5553425F 		.ascii	"USB_EVENT_ADDRESS\000"
 12586      4556454E 
 12586      545F4144 
 12586      44524553 
 12586      5300
 12587              	.LASF417:
 12588 0f4d 6D696469 		.ascii	"midi_channel_mode_cc\000"
 12588      5F636861 
 12588      6E6E656C 
 12588      5F6D6F64 
 12588      655F6363 
 12589              	.LASF223:
 12590 0f62 75736265 		.ascii	"usbevent_t\000"
 12590      76656E74 
 12590      5F7400
 12591              	.LASF65:
 12592 0f6d 63686172 		.ascii	"char\000"
 12592      00
 12593              	.LASF428:
 12594 0f72 666F7263 		.ascii	"force_drop_oldest\000"
 12594      655F6472 
 12594      6F705F6F 
 12594      6C646573 
 12594      7400
 12595              	.LASF457:
 12596 0f84 63685379 		.ascii	"chSysUnlockFromISR\000"
 12596      73556E6C 
 12596      6F636B46 
 12596      726F6D49 
 12596      535200
 12597              	.LASF454:
 12598 0f97 63684253 		.ascii	"chBSemObjectInit\000"
 12598      656D4F62 
 12598      6A656374 
 12598      496E6974 
 12598      00
 12599              	.LASF262:
 12600 0fa8 47525846 		.ascii	"GRXFSIZ\000"
 12600      53495A00 
 12601              	.LASF170:
 12602 0fb0 75736172 		.ascii	"usart\000"
 12602      7400
 12603              	.LASF157:
 12604 0fb6 715F6C69 		.ascii	"q_link\000"
 12604      6E6B00
 12605              	.LASF444:
 12606 0fbd 6D696469 		.ascii	"midi_usb_flush_tx_cache\000"
 12606      5F757362 
 12606      5F666C75 
 12606      73685F74 
ARM GAS  C:\Users\DEVELO~1\AppData\Local\Temp\ccBydanM.s 			page 236


 12606      785F6361 
 12607              	.LASF283:
 12608 0fd5 44434647 		.ascii	"DCFG\000"
 12608      00
 12609              	.LASF384:
 12610 0fda 6D696469 		.ascii	"midi_usb_rx_high_watermark\000"
 12610      5F757362 
 12610      5F72785F 
 12610      68696768 
 12610      5F776174 
 12611              	.LASF259:
 12612 0ff5 47494E54 		.ascii	"GINTMSK\000"
 12612      4D534B00 
 12613              	.LASF70:
 12614 0ffd 63685F6C 		.ascii	"ch_list_t\000"
 12614      6973745F 
 12614      7400
 12615              	.LASF264:
 12616 1007 484E5054 		.ascii	"HNPTXSTS\000"
 12616      58535453 
 12616      00
 12617              	.LASF196:
 12618 1010 636F6E66 		.ascii	"configuration\000"
 12618      69677572 
 12618      6174696F 
 12618      6E00
 12619              	.LASF73:
 12620 101e 63685F71 		.ascii	"ch_queue_t\000"
 12620      75657565 
 12620      5F7400
 12621              	.LASF212:
 12622 1029 5553425F 		.ascii	"USB_EP0_OUT_WAITING_STS\000"
 12622      4550305F 
 12622      4F55545F 
 12622      57414954 
 12622      494E475F 
 12623              	.LASF380:
 12624 1041 75736253 		.ascii	"usbStartTransmitI\000"
 12624      74617274 
 12624      5472616E 
 12624      736D6974 
 12624      4900
 12625              	.LASF92:
 12626 1053 62756666 		.ascii	"buffer\000"
 12626      657200
 12627              	.LASF377:
 12628 105a 63685365 		.ascii	"chSemObjectInit\000"
 12628      6D4F626A 
 12628      65637449 
 12628      6E697400 
 12629              	.LASF32:
 12630 106a 636E745F 		.ascii	"cnt_t\000"
 12630      7400
 12631              	.LASF190:
 12632 1070 6570306E 		.ascii	"ep0next\000"
 12632      65787400 
 12633              	.LASF172:
ARM GAS  C:\Users\DEVELO~1\AppData\Local\Temp\ccBydanM.s 			page 237


 12634 1078 72786D61 		.ascii	"rxmask\000"
 12634      736B00
 12635              	.LASF240:
 12636 107f 73746D33 		.ascii	"stm32_otg_host_chn_t\000"
 12636      325F6F74 
 12636      675F686F 
 12636      73745F63 
 12636      686E5F74 
 12637              	.LASF443:
 12638 1094 6D696469 		.ascii	"midi_internal_receive\000"
 12638      5F696E74 
 12638      65726E61 
 12638      6C5F7265 
 12638      63656976 
 12639              	.LASF208:
 12640 10aa 5553425F 		.ascii	"USB_EP0_STP_WAITING\000"
 12640      4550305F 
 12640      5354505F 
 12640      57414954 
 12640      494E4700 
 12641              	.LASF451:
 12642 10be 6F73616C 		.ascii	"osalSysLock\000"
 12642      5379734C 
 12642      6F636B00 
 12643              	.LASF364:
 12644 10ca 6D696469 		.ascii	"midi_usb_queue_fill\000"
 12644      5F757362 
 12644      5F717565 
 12644      75655F66 
 12644      696C6C00 
 12645              	.LASF58:
 12646 10de 74726163 		.ascii	"trace_buffer\000"
 12646      655F6275 
 12646      66666572 
 12646      00
 12647              	.LASF396:
 12648 10eb 636F6E74 		.ascii	"control\000"
 12648      726F6C00 
 12649              	.LASF235:
 12650 10f3 4843494E 		.ascii	"HCINTMSK\000"
 12650      544D534B 
 12650      00
 12651              	.LASF405:
 12652 10fc 6D696469 		.ascii	"midi_song_select\000"
 12652      5F736F6E 
 12652      675F7365 
 12652      6C656374 
 12652      00
 12653              	.LASF56:
 12654 110d 636F6E66 		.ascii	"config\000"
 12654      696700
 12655              	.LASF413:
 12656 1114 6D696469 		.ascii	"midi_note_off\000"
 12656      5F6E6F74 
 12656      655F6F66 
 12656      6600
 12657              	.LASF275:
ARM GAS  C:\Users\DEVELO~1\AppData\Local\Temp\ccBydanM.s 			page 238


 12658 1122 72657376 		.ascii	"resvd40C\000"
 12658      64343043 
 12658      00
 12659              	.LASF82:
 12660 112b 77746F62 		.ascii	"wtobjp\000"
 12660      6A7000
 12661              	.LASF130:
 12662 1132 6F735F69 		.ascii	"os_instance_config_t\000"
 12662      6E737461 
 12662      6E63655F 
 12662      636F6E66 
 12662      69675F74 
 12663              	.LASF156:
 12664 1147 715F6E6F 		.ascii	"q_notify\000"
 12664      74696679 
 12664      00
 12665              	.LASF118:
 12666 1150 77746D74 		.ascii	"wtmtxp\000"
 12666      787000
 12667              	.LASF435:
 12668 1157 72656164 		.ascii	"ready\000"
 12668      7900
 12669              	.LASF375:
 12670 115d 6F715772 		.ascii	"oqWriteTimeout\000"
 12670      69746554 
 12670      696D656F 
 12670      757400
 12671              	.LASF319:
 12672 116c 5553424F 		.ascii	"USBOutEndpointState\000"
 12672      7574456E 
 12672      64706F69 
 12672      6E745374 
 12672      61746500 
 12673              	.LASF279:
 12674 1180 72657376 		.ascii	"resvd41C\000"
 12674      64343143 
 12674      00
 12675              	.LASF68:
 12676 1189 73797369 		.ascii	"sysinterval_t\000"
 12676      6E746572 
 12676      76616C5F 
 12676      7400
 12677              	.LASF211:
 12678 1197 5553425F 		.ascii	"USB_EP0_IN_SENDING_STS\000"
 12678      4550305F 
 12678      494E5F53 
 12678      454E4449 
 12678      4E475F53 
 12679              	.LASF138:
 12680 11ae 77666C61 		.ascii	"wflags\000"
 12680      677300
 12681              	.LASF174:
 12682 11b5 73706565 		.ascii	"speed\000"
 12682      6400
 12683              	.LASF122:
 12684 11bb 63685F72 		.ascii	"ch_ready_list\000"
 12684      65616479 
ARM GAS  C:\Users\DEVELO~1\AppData\Local\Temp\ccBydanM.s 			page 239


 12684      5F6C6973 
 12684      7400
 12685              	.LASF11:
 12686 11c9 5F5F696E 		.ascii	"__int32_t\000"
 12686      7433325F 
 12686      7400
 12687              	.LASF468:
 12688 11d3 6D696469 		.ascii	"midi_stats_reset\000"
 12688      5F737461 
 12688      74735F72 
 12688      65736574 
 12688      00
 12689              	.LASF13:
 12690 11e4 5F5F7569 		.ascii	"__uint32_t\000"
 12690      6E743332 
 12690      5F7400
 12691              	.LASF63:
 12692 11ef 63685F73 		.ascii	"ch_system_debug\000"
 12692      79737465 
 12692      6D5F6465 
 12692      62756700 
 12693              	.LASF358:
 12694 11ff 64617461 		.ascii	"data\000"
 12694      00
 12695              	.LASF290:
 12696 1204 4441494E 		.ascii	"DAINTMSK\000"
 12696      544D534B 
 12696      00
 12697              	.LASF151:
 12698 120d 715F636F 		.ascii	"q_counter\000"
 12698      756E7465 
 12698      7200
 12699              	.LASF133:
 12700 1217 6D757465 		.ascii	"mutex_t\000"
 12700      785F7400 
 12701              	.LASF403:
 12702 121f 6D696469 		.ascii	"midi_clock\000"
 12702      5F636C6F 
 12702      636B00
 12703              	.LASF425:
 12704 122a 70726F63 		.ascii	"processed\000"
 12704      65737365 
 12704      6400
 12705              	.LASF330:
 12706 1234 55534245 		.ascii	"USBEndpointConfig\000"
 12706      6E64706F 
 12706      696E7443 
 12706      6F6E6669 
 12706      6700
 12707              	.LASF35:
 12708 1246 72717565 		.ascii	"rqueue\000"
 12708      756500
 12709              	.LASF281:
 12710 124d 72657376 		.ascii	"resvd444\000"
 12710      64343434 
 12710      00
 12711              	.LASF54:
ARM GAS  C:\Users\DEVELO~1\AppData\Local\Temp\ccBydanM.s 			page 240


 12712 1256 636F7265 		.ascii	"core_id\000"
 12712      5F696400 
 12713              	.LASF378:
 12714 125e 63684D42 		.ascii	"chMBObjectInit\000"
 12714      4F626A65 
 12714      6374496E 
 12714      697400
 12715              	.LASF106:
 12716 126d 71756575 		.ascii	"queue\000"
 12716      6500
 12717              	.LASF199:
 12718 1273 706D6E65 		.ascii	"pmnext\000"
 12718      787400
 12719              	.LASF356:
 12720 127a 6D696469 		.ascii	"midi_rx_stats\000"
 12720      5F72785F 
 12720      73746174 
 12720      7300
 12721              	.LASF16:
 12722 1288 6C6F6E67 		.ascii	"long long unsigned int\000"
 12722      206C6F6E 
 12722      6720756E 
 12722      7369676E 
 12722      65642069 
 12723              	.LASF456:
 12724 129f 63685265 		.ascii	"chRegSetThreadName\000"
 12724      67536574 
 12724      54687265 
 12724      61644E61 
 12724      6D6500
 12725              	.LASF382:
 12726 12b2 63684D42 		.ascii	"chMBFetchTimeout\000"
 12726      46657463 
 12726      6854696D 
 12726      656F7574 
 12726      00
 12727              	.LASF243:
 12728 12c3 44494550 		.ascii	"DIEPINT\000"
 12728      494E5400 
 12729              	.LASF128:
 12730 12cb 69646C65 		.ascii	"idlethread_base\000"
 12730      74687265 
 12730      61645F62 
 12730      61736500 
 12731              	.LASF119:
 12732 12db 65776D61 		.ascii	"ewmask\000"
 12732      736B00
 12733              	.LASF439:
 12734 12e2 6D696469 		.ascii	"midi_usb_rx_queue_decrement\000"
 12734      5F757362 
 12734      5F72785F 
 12734      71756575 
 12734      655F6465 
 12735              	.LASF139:
 12736 12fe 6576656E 		.ascii	"event_source\000"
 12736      745F736F 
 12736      75726365 
ARM GAS  C:\Users\DEVELO~1\AppData\Local\Temp\ccBydanM.s 			page 241


 12736      00
 12737              	.LASF466:
 12738 130b 6D696469 		.ascii	"midi/midi.c\000"
 12738      2F6D6964 
 12738      692E6300 
 12739              	.LASF26:
 12740 1317 74737461 		.ascii	"tstate_t\000"
 12740      74655F74 
 12740      00
 12741              	.LASF289:
 12742 1320 4441494E 		.ascii	"DAINT\000"
 12742      5400
 12743              	.LASF185:
 12744 1326 7472616E 		.ascii	"transmitting\000"
 12744      736D6974 
 12744      74696E67 
 12744      00
 12745              	.LASF388:
 12746 1333 6D696469 		.ascii	"midi_mono_mode_on\000"
 12746      5F6D6F6E 
 12746      6F5F6D6F 
 12746      64655F6F 
 12746      6E00
 12747              	.LASF90:
 12748 1345 73757370 		.ascii	"suspended\000"
 12748      656E6465 
 12748      6400
 12749              	.LASF207:
 12750 134f 75736273 		.ascii	"usbstate_t\000"
 12750      74617465 
 12750      5F7400
 12751              	.LASF251:
 12752 135a 444F4550 		.ascii	"DOEPTSIZ\000"
 12752      5453495A 
 12752      00
 12753              	.LASF412:
 12754 1363 6D696469 		.ascii	"midi_poly_aftertouch\000"
 12754      5F706F6C 
 12754      795F6166 
 12754      74657274 
 12754      6F756368 
 12755              	.LASF346:
 12756 1378 72745F6F 		.ascii	"rt_other_enq_fallback\000"
 12756      74686572 
 12756      5F656E71 
 12756      5F66616C 
 12756      6C626163 
 12757              	.LASF62:
 12758 138e 72666375 		.ascii	"rfcu_t\000"
 12758      5F7400
 12759              	.LASF345:
 12760 1395 72745F66 		.ascii	"rt_f8_burst_sent\000"
 12760      385F6275 
 12760      7273745F 
 12760      73656E74 
 12760      00
 12761              	.LASF142:
ARM GAS  C:\Users\DEVELO~1\AppData\Local\Temp\ccBydanM.s 			page 242


 12762 13a6 62696E61 		.ascii	"binary_semaphore_t\000"
 12762      72795F73 
 12762      656D6170 
 12762      686F7265 
 12762      5F7400
 12763              	.LASF104:
 12764 13b9 76697274 		.ascii	"virtual_timers_list_t\000"
 12764      75616C5F 
 12764      74696D65 
 12764      72735F6C 
 12764      6973745F 
 12765              	.LASF371:
 12766 13cf 736F665F 		.ascii	"sof_sem\000"
 12766      73656D00 
 12767              	.LASF340:
 12768 13d7 4D494449 		.ascii	"MIDI_DEST_BOTH\000"
 12768      5F444553 
 12768      545F424F 
 12768      544800
 12769              	.LASF348:
 12770 13e6 7573625F 		.ascii	"usb_not_ready_drops\000"
 12770      6E6F745F 
 12770      72656164 
 12770      795F6472 
 12770      6F707300 
 12771              	.LASF206:
 12772 13fa 5553425F 		.ascii	"USB_SUSPENDED\000"
 12772      53555350 
 12772      454E4445 
 12772      4400
 12773              	.LASF257:
 12774 1408 47525354 		.ascii	"GRSTCTL\000"
 12774      43544C00 
 12775              	.LASF182:
 12776 1410 77726974 		.ascii	"writet\000"
 12776      657400
 12777              	.LASF1:
 12778 1417 6C6F6E67 		.ascii	"long long int\000"
 12778      206C6F6E 
 12778      6720696E 
 12778      7400
 12779              	.LASF269:
 12780 1425 48505458 		.ascii	"HPTXFSIZ\000"
 12780      4653495A 
 12780      00
 12781              	.LASF458:
 12782 142e 63685379 		.ascii	"chSysLockFromISR\000"
 12782      734C6F63 
 12782      6B46726F 
 12782      6D495352 
 12782      00
 12783              	.LASF368:
 12784 143f 6D696469 		.ascii	"midi_usb_rx_queue_fill\000"
 12784      5F757362 
 12784      5F72785F 
 12784      71756575 
 12784      655F6669 
ARM GAS  C:\Users\DEVELO~1\AppData\Local\Temp\ccBydanM.s 			page 243


 12785              	.LASF312:
 12786 1456 7478636E 		.ascii	"txcnt\000"
 12786      7400
 12787              	.LASF332:
 12788 145c 6765745F 		.ascii	"get_descriptor_cb\000"
 12788      64657363 
 12788      72697074 
 12788      6F725F63 
 12788      6200
 12789              	.LASF31:
 12790 146e 6576656E 		.ascii	"eventflags_t\000"
 12790      74666C61 
 12790      67735F74 
 12790      00
 12791              	.LASF209:
 12792 147b 5553425F 		.ascii	"USB_EP0_IN_TX\000"
 12792      4550305F 
 12792      494E5F54 
 12792      5800
 12793              	.LASF392:
 12794 1489 6D696469 		.ascii	"midi_all_notes_off\000"
 12794      5F616C6C 
 12794      5F6E6F74 
 12794      65735F6F 
 12794      666600
 12795              	.LASF305:
 12796 149c 4649464F 		.ascii	"FIFO\000"
 12796      00
 12797              	.LASF132:
 12798 14a1 73656D61 		.ascii	"semaphore_t\000"
 12798      70686F72 
 12798      655F7400 
 12799              	.LASF421:
 12800 14ad 6361626C 		.ascii	"cable\000"
 12800      6500
 12801              	.LASF284:
 12802 14b3 4443544C 		.ascii	"DCTL\000"
 12802      00
 12803              	.LASF85:
 12804 14b8 75736572 		.ascii	"user\000"
 12804      00
 12805              	.LASF313:
 12806 14bd 74786275 		.ascii	"txbuf\000"
 12806      6600
 12807              	.LASF303:
 12808 14c3 50434743 		.ascii	"PCGCCTL\000"
 12808      43544C00 
 12809              	.LASF221:
 12810 14cb 5553425F 		.ascii	"USB_EVENT_WAKEUP\000"
 12810      4556454E 
 12810      545F5741 
 12810      4B455550 
 12810      00
 12811              	.LASF471:
 12812 14dc 5F5F7365 		.ascii	"__set_BASEPRI\000"
 12812      745F4241 
 12812      53455052 
ARM GAS  C:\Users\DEVELO~1\AppData\Local\Temp\ccBydanM.s 			page 244


 12812      4900
 12813              	.LASF144:
 12814 14ea 72647074 		.ascii	"rdptr\000"
 12814      7200
 12815              	.LASF329:
 12816 14f0 73657475 		.ascii	"setup_buf\000"
 12816      705F6275 
 12816      6600
 12817              	.LASF108:
 12818 14fa 74687265 		.ascii	"thread_reference_t\000"
 12818      61645F72 
 12818      65666572 
 12818      656E6365 
 12818      5F7400
 12819              	.LASF186:
 12820 150d 72656365 		.ascii	"receiving\000"
 12820      6976696E 
 12820      6700
 12821              	.LASF407:
 12822 1517 6D696469 		.ascii	"midi_mtc_quarter_frame\000"
 12822      5F6D7463 
 12822      5F717561 
 12822      72746572 
 12822      5F667261 
 12823              	.LASF125:
 12824 152e 63685F6F 		.ascii	"ch_os_instance_config\000"
 12824      735F696E 
 12824      7374616E 
 12824      63655F63 
 12824      6F6E6669 
 12825              	.LASF349:
 12826 1544 6D696469 		.ascii	"midi_tx_stats_t\000"
 12826      5F74785F 
 12826      73746174 
 12826      735F7400 
 12827              	.LASF50:
 12828 1554 63685F6F 		.ascii	"ch_os_instance\000"
 12828      735F696E 
 12828      7374616E 
 12828      636500
 12829              	.LASF379:
 12830 1563 73645374 		.ascii	"sdStart\000"
 12830      61727400 
 12831              	.LASF60:
 12832 156b 63685F72 		.ascii	"ch_rfcu\000"
 12832      66637500 
 12833              	.LASF154:
 12834 1573 715F7772 		.ascii	"q_wrptr\000"
 12834      70747200 
 12835              	.LASF401:
 12836 157b 6D696469 		.ascii	"midi_continue\000"
 12836      5F636F6E 
 12836      74696E75 
 12836      6500
 12837              	.LASF326:
 12838 1589 696E5F73 		.ascii	"in_state\000"
 12838      74617465 
ARM GAS  C:\Users\DEVELO~1\AppData\Local\Temp\ccBydanM.s 			page 245


 12838      00
 12839              	.LASF94:
 12840 1592 47545052 		.ascii	"GTPR\000"
 12840      00
 12841              	.LASF137:
 12842 1597 6576656E 		.ascii	"events\000"
 12842      747300
 12843              	.LASF0:
 12844 159e 756E7369 		.ascii	"unsigned int\000"
 12844      676E6564 
 12844      20696E74 
 12844      00
 12845              	.LASF273:
 12846 15ab 48464952 		.ascii	"HFIR\000"
 12846      00
 12847              	.LASF201:
 12848 15b0 5553425F 		.ascii	"USB_UNINIT\000"
 12848      554E494E 
 12848      495400
 12849              	.LASF467:
 12850 15bb 433A5C50 		.ascii	"C:\\PROJET\\ChibiOS project\\ChibiOS_21.11.4\\demos"
 12850      524F4A45 
 12850      545C4368 
 12850      6962694F 
 12850      53207072 
 12851 15ea 5C53544D 		.ascii	"\\STM32\\RT-STM32H743ZI_REV_XY-NUCLEO144_Quartz8M\000"
 12851      33325C52 
 12851      542D5354 
 12851      4D333248 
 12851      3734335A 
 12852              	.LASF8:
 12853 161a 73686F72 		.ascii	"short int\000"
 12853      7420696E 
 12853      7400
 12854              	.LASF227:
 12855 1624 75736263 		.ascii	"usbcallback_t\000"
 12855      616C6C62 
 12855      61636B5F 
 12855      7400
 12856              	.LASF256:
 12857 1632 47555342 		.ascii	"GUSBCFG\000"
 12857      43464700 
 12858              	.LASF75:
 12859 163a 70726576 		.ascii	"prev\000"
 12859      00
 12860              	.LASF160:
 12861 163f 6F757470 		.ascii	"output_queue_t\000"
 12861      75745F71 
 12861      75657565 
 12861      5F7400
 12862              	.LASF306:
 12863 164e 73746D33 		.ascii	"stm32_otg_t\000"
 12863      325F6F74 
 12863      675F7400 
 12864              	.LASF224:
 12865 165a 75645F73 		.ascii	"ud_size\000"
 12865      697A6500 
ARM GAS  C:\Users\DEVELO~1\AppData\Local\Temp\ccBydanM.s 			page 246


 12866              	.LASF46:
 12867 1662 7265616C 		.ascii	"realprio\000"
 12867      7072696F 
 12867      00
 12868              	.LASF440:
 12869 166b 6D696469 		.ascii	"midi_usb_rx_queue_increment_i\000"
 12869      5F757362 
 12869      5F72785F 
 12869      71756575 
 12869      655F696E 
 12870              	.LASF324:
 12871 1689 696E5F6D 		.ascii	"in_maxsize\000"
 12871      61787369 
 12871      7A6500
 12872              	.LASF40:
 12873 1694 666C6167 		.ascii	"flags\000"
 12873      7300
 12874              	.LASF163:
 12875 169a 53445F52 		.ascii	"SD_READY\000"
 12875      45414459 
 12875      00
 12876              		.ident	"GCC: (Arm GNU Toolchain 11.3.Rel1) 11.3.1 20220712"
ARM GAS  C:\Users\DEVELO~1\AppData\Local\Temp\ccBydanM.s 			page 247


DEFINED SYMBOLS
                            *ABS*:00000000 midi.c
C:\Users\DEVELO~1\AppData\Local\Temp\ccBydanM.s:18     .text.chSysLock:00000000 $t
C:\Users\DEVELO~1\AppData\Local\Temp\ccBydanM.s:23     .text.chSysLock:00000000 chSysLock
C:\Users\DEVELO~1\AppData\Local\Temp\ccBydanM.s:77     .text.chSysUnlock:00000000 $t
C:\Users\DEVELO~1\AppData\Local\Temp\ccBydanM.s:82     .text.chSysUnlock:00000000 chSysUnlock
C:\Users\DEVELO~1\AppData\Local\Temp\ccBydanM.s:133    .text.chSysLockFromISR:00000000 $t
C:\Users\DEVELO~1\AppData\Local\Temp\ccBydanM.s:138    .text.chSysLockFromISR:00000000 chSysLockFromISR
C:\Users\DEVELO~1\AppData\Local\Temp\ccBydanM.s:195    .text.chSysUnlockFromISR:00000000 $t
C:\Users\DEVELO~1\AppData\Local\Temp\ccBydanM.s:200    .text.chSysUnlockFromISR:00000000 chSysUnlockFromISR
C:\Users\DEVELO~1\AppData\Local\Temp\ccBydanM.s:257    .text.chRegSetThreadName:00000000 $t
C:\Users\DEVELO~1\AppData\Local\Temp\ccBydanM.s:262    .text.chRegSetThreadName:00000000 chRegSetThreadName
C:\Users\DEVELO~1\AppData\Local\Temp\ccBydanM.s:298    .text.chRegSetThreadName:0000001c $d
C:\Users\DEVELO~1\AppData\Local\Temp\ccBydanM.s:303    .text.chBSemObjectInit:00000000 $t
C:\Users\DEVELO~1\AppData\Local\Temp\ccBydanM.s:308    .text.chBSemObjectInit:00000000 chBSemObjectInit
C:\Users\DEVELO~1\AppData\Local\Temp\ccBydanM.s:348    .text.chBSemWaitTimeout:00000000 $t
C:\Users\DEVELO~1\AppData\Local\Temp\ccBydanM.s:353    .text.chBSemWaitTimeout:00000000 chBSemWaitTimeout
C:\Users\DEVELO~1\AppData\Local\Temp\ccBydanM.s:387    .text.osalSysLock:00000000 $t
C:\Users\DEVELO~1\AppData\Local\Temp\ccBydanM.s:392    .text.osalSysLock:00000000 osalSysLock
C:\Users\DEVELO~1\AppData\Local\Temp\ccBydanM.s:414    .text.osalSysUnlock:00000000 $t
C:\Users\DEVELO~1\AppData\Local\Temp\ccBydanM.s:419    .text.osalSysUnlock:00000000 osalSysUnlock
C:\Users\DEVELO~1\AppData\Local\Temp\ccBydanM.s:440    .text.osalSysLockFromISR:00000000 $t
C:\Users\DEVELO~1\AppData\Local\Temp\ccBydanM.s:445    .text.osalSysLockFromISR:00000000 osalSysLockFromISR
C:\Users\DEVELO~1\AppData\Local\Temp\ccBydanM.s:466    .text.osalSysUnlockFromISR:00000000 $t
C:\Users\DEVELO~1\AppData\Local\Temp\ccBydanM.s:471    .text.osalSysUnlockFromISR:00000000 osalSysUnlockFromISR
C:\Users\DEVELO~1\AppData\Local\Temp\ccBydanM.s:494    .bss.midi_initialized:00000000 midi_initialized
C:\Users\DEVELO~1\AppData\Local\Temp\ccBydanM.s:495    .bss.midi_initialized:00000000 $d
C:\Users\DEVELO~1\AppData\Local\Temp\ccBydanM.s:497    .text.midi_usb_ready:00000000 $t
C:\Users\DEVELO~1\AppData\Local\Temp\ccBydanM.s:502    .text.midi_usb_ready:00000000 midi_usb_ready
C:\Users\DEVELO~1\AppData\Local\Temp\ccBydanM.s:538    .text.midi_usb_ready:00000020 $d
C:\Users\DEVELO~1\AppData\Local\Temp\ccBydanM.s:543    .text.midi_usb_flush_tx_cache:00000000 $t
C:\Users\DEVELO~1\AppData\Local\Temp\ccBydanM.s:548    .text.midi_usb_flush_tx_cache:00000000 midi_usb_flush_tx_cache
C:\Users\DEVELO~1\AppData\Local\Temp\ccBydanM.s:579    .text.midi_internal_receive:00000000 $t
C:\Users\DEVELO~1\AppData\Local\Temp\ccBydanM.s:585    .text.midi_internal_receive:00000000 midi_internal_receive
C:\Users\DEVELO~1\AppData\Local\Temp\ccBydanM.s:616    .bss.midi_usb_mb:00000000 $d
C:\Users\DEVELO~1\AppData\Local\Temp\ccBydanM.s:619    .bss.midi_usb_mb:00000000 midi_usb_mb
C:\Users\DEVELO~1\AppData\Local\Temp\ccBydanM.s:622    .bss.midi_usb_queue:00000000 $d
C:\Users\DEVELO~1\AppData\Local\Temp\ccBydanM.s:625    .bss.midi_usb_queue:00000000 midi_usb_queue
C:\Users\DEVELO~1\AppData\Local\Temp\ccBydanM.s:628    .bss.midi_usb_queue_fill:00000000 $d
C:\Users\DEVELO~1\AppData\Local\Temp\ccBydanM.s:631    .bss.midi_usb_queue_fill:00000000 midi_usb_queue_fill
C:\Users\DEVELO~1\AppData\Local\Temp\ccBydanM.s:634    .bss.midi_usb_queue_high_water:00000000 $d
C:\Users\DEVELO~1\AppData\Local\Temp\ccBydanM.s:637    .bss.midi_usb_queue_high_water:00000000 midi_usb_queue_high_water
C:\Users\DEVELO~1\AppData\Local\Temp\ccBydanM.s:640    .bss.midi_usb_rx_mb:00000000 $d
C:\Users\DEVELO~1\AppData\Local\Temp\ccBydanM.s:643    .bss.midi_usb_rx_mb:00000000 midi_usb_rx_mb
C:\Users\DEVELO~1\AppData\Local\Temp\ccBydanM.s:646    .bss.midi_usb_rx_queue:00000000 $d
C:\Users\DEVELO~1\AppData\Local\Temp\ccBydanM.s:649    .bss.midi_usb_rx_queue:00000000 midi_usb_rx_queue
C:\Users\DEVELO~1\AppData\Local\Temp\ccBydanM.s:652    .bss.midi_usb_rx_queue_fill:00000000 $d
C:\Users\DEVELO~1\AppData\Local\Temp\ccBydanM.s:655    .bss.midi_usb_rx_queue_fill:00000000 midi_usb_rx_queue_fill
C:\Users\DEVELO~1\AppData\Local\Temp\ccBydanM.s:658    .bss.midi_usb_rx_queue_high_water:00000000 $d
C:\Users\DEVELO~1\AppData\Local\Temp\ccBydanM.s:661    .bss.midi_usb_rx_queue_high_water:00000000 midi_usb_rx_queue_high_water
C:\Users\DEVELO~1\AppData\Local\Temp\ccBydanM.s:668    .bss.midi_usb_rx_drops:00000000 midi_usb_rx_drops
C:\Users\DEVELO~1\AppData\Local\Temp\ccBydanM.s:665    .bss.midi_usb_rx_drops:00000000 $d
C:\Users\DEVELO~1\AppData\Local\Temp\ccBydanM.s:671    .text.midi_usb_queue_increment:00000000 $t
C:\Users\DEVELO~1\AppData\Local\Temp\ccBydanM.s:676    .text.midi_usb_queue_increment:00000000 midi_usb_queue_increment
C:\Users\DEVELO~1\AppData\Local\Temp\ccBydanM.s:725    .text.midi_usb_queue_increment:00000038 $d
C:\Users\DEVELO~1\AppData\Local\Temp\ccBydanM.s:731    .text.midi_usb_queue_decrement:00000000 $t
C:\Users\DEVELO~1\AppData\Local\Temp\ccBydanM.s:736    .text.midi_usb_queue_decrement:00000000 midi_usb_queue_decrement
ARM GAS  C:\Users\DEVELO~1\AppData\Local\Temp\ccBydanM.s 			page 248


C:\Users\DEVELO~1\AppData\Local\Temp\ccBydanM.s:772    .text.midi_usb_queue_decrement:00000024 $d
C:\Users\DEVELO~1\AppData\Local\Temp\ccBydanM.s:777    .text.midi_usb_rx_queue_increment_i:00000000 $t
C:\Users\DEVELO~1\AppData\Local\Temp\ccBydanM.s:782    .text.midi_usb_rx_queue_increment_i:00000000 midi_usb_rx_queue_increment_i
C:\Users\DEVELO~1\AppData\Local\Temp\ccBydanM.s:833    .text.midi_usb_rx_queue_increment_i:00000034 $d
C:\Users\DEVELO~1\AppData\Local\Temp\ccBydanM.s:839    .text.midi_usb_rx_queue_decrement:00000000 $t
C:\Users\DEVELO~1\AppData\Local\Temp\ccBydanM.s:844    .text.midi_usb_rx_queue_decrement:00000000 midi_usb_rx_queue_decrement
C:\Users\DEVELO~1\AppData\Local\Temp\ccBydanM.s:882    .text.midi_usb_rx_queue_decrement:00000020 $d
C:\Users\DEVELO~1\AppData\Local\Temp\ccBydanM.s:887    .text.midi_usb_start_tx:00000000 $t
C:\Users\DEVELO~1\AppData\Local\Temp\ccBydanM.s:892    .text.midi_usb_start_tx:00000000 midi_usb_start_tx
C:\Users\DEVELO~1\AppData\Local\Temp\ccBydanM.s:933    .text.midi_usb_start_tx:00000030 $d
C:\Users\DEVELO~1\AppData\Local\Temp\ccBydanM.s:938    .text.midi_usb_rx_submit_from_isr:00000000 $t
C:\Users\DEVELO~1\AppData\Local\Temp\ccBydanM.s:944    .text.midi_usb_rx_submit_from_isr:00000000 midi_usb_rx_submit_from_isr
C:\Users\DEVELO~1\AppData\Local\Temp\ccBydanM.s:1108   .text.midi_usb_rx_submit_from_isr:000000cc $d
C:\Users\DEVELO~1\AppData\Local\Temp\ccBydanM.s:1141   .bss.midi_rx_stats:00000000 midi_rx_stats
C:\Users\DEVELO~1\AppData\Local\Temp\ccBydanM.s:1120   .bss.tx_sem:00000000 tx_sem
C:\Users\DEVELO~1\AppData\Local\Temp\ccBydanM.s:1117   .bss.tx_sem:00000000 $d
C:\Users\DEVELO~1\AppData\Local\Temp\ccBydanM.s:1127   .bss.sof_sem:00000000 sof_sem
C:\Users\DEVELO~1\AppData\Local\Temp\ccBydanM.s:1124   .bss.sof_sem:00000000 $d
C:\Users\DEVELO~1\AppData\Local\Temp\ccBydanM.s:1134   .bss.midi_tx_stats:00000000 midi_tx_stats
C:\Users\DEVELO~1\AppData\Local\Temp\ccBydanM.s:1131   .bss.midi_tx_stats:00000000 $d
C:\Users\DEVELO~1\AppData\Local\Temp\ccBydanM.s:1138   .bss.midi_rx_stats:00000000 $d
C:\Users\DEVELO~1\AppData\Local\Temp\ccBydanM.s:1146   .data.midi_rx_dest:00000000 midi_rx_dest
C:\Users\DEVELO~1\AppData\Local\Temp\ccBydanM.s:1149   .bss.waMidiUsbTx:00000000 $d
C:\Users\DEVELO~1\AppData\Local\Temp\ccBydanM.s:1152   .bss.waMidiUsbTx:00000000 waMidiUsbTx
C:\Users\DEVELO~1\AppData\Local\Temp\ccBydanM.s:1155   .rodata:00000000 $d
C:\Users\DEVELO~1\AppData\Local\Temp\ccBydanM.s:1159   .text.thdMidiUsbTx:00000000 $t
C:\Users\DEVELO~1\AppData\Local\Temp\ccBydanM.s:1164   .text.thdMidiUsbTx:00000000 thdMidiUsbTx
C:\Users\DEVELO~1\AppData\Local\Temp\ccBydanM.s:2018   .text.midi_process_usb_rx:00000000 midi_process_usb_rx
C:\Users\DEVELO~1\AppData\Local\Temp\ccBydanM.s:1399   .text.thdMidiUsbTx:00000154 $d
C:\Users\DEVELO~1\AppData\Local\Temp\ccBydanM.s:1408   .text.midi_init:00000000 $t
C:\Users\DEVELO~1\AppData\Local\Temp\ccBydanM.s:1414   .text.midi_init:00000000 midi_init
C:\Users\DEVELO~1\AppData\Local\Temp\ccBydanM.s:1506   .text.midi_init:00000084 $d
C:\Users\DEVELO~1\AppData\Local\Temp\ccBydanM.s:4552   .rodata.uart_cfg.0:00000000 uart_cfg.0
C:\Users\DEVELO~1\AppData\Local\Temp\ccBydanM.s:1526   .text.midi_is_initialized:00000000 $t
C:\Users\DEVELO~1\AppData\Local\Temp\ccBydanM.s:1532   .text.midi_is_initialized:00000000 midi_is_initialized
C:\Users\DEVELO~1\AppData\Local\Temp\ccBydanM.s:1567   .text.midi_is_initialized:00000020 $d
C:\Users\DEVELO~1\AppData\Local\Temp\ccBydanM.s:1572   .text.send_uart:00000000 $t
C:\Users\DEVELO~1\AppData\Local\Temp\ccBydanM.s:1577   .text.send_uart:00000000 send_uart
C:\Users\DEVELO~1\AppData\Local\Temp\ccBydanM.s:1610   .text.send_uart:00000020 $d
C:\Users\DEVELO~1\AppData\Local\Temp\ccBydanM.s:1615   .text.post_mb_or_drop:00000000 $t
C:\Users\DEVELO~1\AppData\Local\Temp\ccBydanM.s:1620   .text.post_mb_or_drop:00000000 post_mb_or_drop
C:\Users\DEVELO~1\AppData\Local\Temp\ccBydanM.s:1715   .text.post_mb_or_drop:00000074 $d
C:\Users\DEVELO~1\AppData\Local\Temp\ccBydanM.s:1721   .text.usb_midi_decode_packet:00000000 $t
C:\Users\DEVELO~1\AppData\Local\Temp\ccBydanM.s:1726   .text.usb_midi_decode_packet:00000000 usb_midi_decode_packet
C:\Users\DEVELO~1\AppData\Local\Temp\ccBydanM.s:1765   .text.usb_midi_decode_packet:00000030 $d
C:\Users\DEVELO~1\AppData\Local\Temp\ccBydanM.s:1779   .text.usb_midi_decode_packet:00000068 $t
C:\Users\DEVELO~1\AppData\Local\Temp\ccBydanM.s:1945   .text.midi_dispatch_rx_message:00000000 $t
C:\Users\DEVELO~1\AppData\Local\Temp\ccBydanM.s:1950   .text.midi_dispatch_rx_message:00000000 midi_dispatch_rx_message
C:\Users\DEVELO~1\AppData\Local\Temp\ccBydanM.s:2008   .text.midi_dispatch_rx_message:0000003c $d
C:\Users\DEVELO~1\AppData\Local\Temp\ccBydanM.s:2013   .text.midi_process_usb_rx:00000000 $t
C:\Users\DEVELO~1\AppData\Local\Temp\ccBydanM.s:2138   .text.midi_process_usb_rx:00000098 $d
C:\Users\DEVELO~1\AppData\Local\Temp\ccBydanM.s:2144   .text.send_usb:00000000 $t
C:\Users\DEVELO~1\AppData\Local\Temp\ccBydanM.s:2149   .text.send_usb:00000000 send_usb
C:\Users\DEVELO~1\AppData\Local\Temp\ccBydanM.s:2821   .text.send_usb:000003a0 $d
C:\Users\DEVELO~1\AppData\Local\Temp\ccBydanM.s:2827   .text.midi_send:00000000 $t
C:\Users\DEVELO~1\AppData\Local\Temp\ccBydanM.s:2832   .text.midi_send:00000000 midi_send
C:\Users\DEVELO~1\AppData\Local\Temp\ccBydanM.s:2903   .text.midi_set_rx_destination:00000000 $t
ARM GAS  C:\Users\DEVELO~1\AppData\Local\Temp\ccBydanM.s 			page 249


C:\Users\DEVELO~1\AppData\Local\Temp\ccBydanM.s:2909   .text.midi_set_rx_destination:00000000 midi_set_rx_destination
C:\Users\DEVELO~1\AppData\Local\Temp\ccBydanM.s:2958   .text.midi_set_rx_destination:0000002c $d
C:\Users\DEVELO~1\AppData\Local\Temp\ccBydanM.s:2963   .text.midi_get_rx_destination:00000000 $t
C:\Users\DEVELO~1\AppData\Local\Temp\ccBydanM.s:2969   .text.midi_get_rx_destination:00000000 midi_get_rx_destination
C:\Users\DEVELO~1\AppData\Local\Temp\ccBydanM.s:2996   .text.midi_get_rx_destination:00000010 $d
C:\Users\DEVELO~1\AppData\Local\Temp\ccBydanM.s:3001   .text.midi_note_on:00000000 $t
C:\Users\DEVELO~1\AppData\Local\Temp\ccBydanM.s:3007   .text.midi_note_on:00000000 midi_note_on
C:\Users\DEVELO~1\AppData\Local\Temp\ccBydanM.s:3095   .text.midi_note_off:00000000 midi_note_off
C:\Users\DEVELO~1\AppData\Local\Temp\ccBydanM.s:3089   .text.midi_note_off:00000000 $t
C:\Users\DEVELO~1\AppData\Local\Temp\ccBydanM.s:3163   .text.midi_poly_aftertouch:00000000 $t
C:\Users\DEVELO~1\AppData\Local\Temp\ccBydanM.s:3169   .text.midi_poly_aftertouch:00000000 midi_poly_aftertouch
C:\Users\DEVELO~1\AppData\Local\Temp\ccBydanM.s:3237   .text.midi_cc:00000000 $t
C:\Users\DEVELO~1\AppData\Local\Temp\ccBydanM.s:3243   .text.midi_cc:00000000 midi_cc
C:\Users\DEVELO~1\AppData\Local\Temp\ccBydanM.s:3311   .text.midi_program_change:00000000 $t
C:\Users\DEVELO~1\AppData\Local\Temp\ccBydanM.s:3317   .text.midi_program_change:00000000 midi_program_change
C:\Users\DEVELO~1\AppData\Local\Temp\ccBydanM.s:3372   .text.midi_channel_pressure:00000000 $t
C:\Users\DEVELO~1\AppData\Local\Temp\ccBydanM.s:3378   .text.midi_channel_pressure:00000000 midi_channel_pressure
C:\Users\DEVELO~1\AppData\Local\Temp\ccBydanM.s:3433   .text.midi_pitchbend:00000000 $t
C:\Users\DEVELO~1\AppData\Local\Temp\ccBydanM.s:3439   .text.midi_pitchbend:00000000 midi_pitchbend
C:\Users\DEVELO~1\AppData\Local\Temp\ccBydanM.s:3511   .text.midi_mtc_quarter_frame:00000000 $t
C:\Users\DEVELO~1\AppData\Local\Temp\ccBydanM.s:3517   .text.midi_mtc_quarter_frame:00000000 midi_mtc_quarter_frame
C:\Users\DEVELO~1\AppData\Local\Temp\ccBydanM.s:3563   .text.midi_song_position:00000000 $t
C:\Users\DEVELO~1\AppData\Local\Temp\ccBydanM.s:3569   .text.midi_song_position:00000000 midi_song_position
C:\Users\DEVELO~1\AppData\Local\Temp\ccBydanM.s:3627   .text.midi_song_select:00000000 $t
C:\Users\DEVELO~1\AppData\Local\Temp\ccBydanM.s:3633   .text.midi_song_select:00000000 midi_song_select
C:\Users\DEVELO~1\AppData\Local\Temp\ccBydanM.s:3679   .text.midi_tune_request:00000000 $t
C:\Users\DEVELO~1\AppData\Local\Temp\ccBydanM.s:3685   .text.midi_tune_request:00000000 midi_tune_request
C:\Users\DEVELO~1\AppData\Local\Temp\ccBydanM.s:3722   .text.midi_clock:00000000 $t
C:\Users\DEVELO~1\AppData\Local\Temp\ccBydanM.s:3728   .text.midi_clock:00000000 midi_clock
C:\Users\DEVELO~1\AppData\Local\Temp\ccBydanM.s:3765   .text.midi_start:00000000 $t
C:\Users\DEVELO~1\AppData\Local\Temp\ccBydanM.s:3771   .text.midi_start:00000000 midi_start
C:\Users\DEVELO~1\AppData\Local\Temp\ccBydanM.s:3808   .text.midi_continue:00000000 $t
C:\Users\DEVELO~1\AppData\Local\Temp\ccBydanM.s:3814   .text.midi_continue:00000000 midi_continue
C:\Users\DEVELO~1\AppData\Local\Temp\ccBydanM.s:3851   .text.midi_stop:00000000 $t
C:\Users\DEVELO~1\AppData\Local\Temp\ccBydanM.s:3857   .text.midi_stop:00000000 midi_stop
C:\Users\DEVELO~1\AppData\Local\Temp\ccBydanM.s:3894   .text.midi_active_sensing:00000000 $t
C:\Users\DEVELO~1\AppData\Local\Temp\ccBydanM.s:3900   .text.midi_active_sensing:00000000 midi_active_sensing
C:\Users\DEVELO~1\AppData\Local\Temp\ccBydanM.s:3937   .text.midi_system_reset:00000000 $t
C:\Users\DEVELO~1\AppData\Local\Temp\ccBydanM.s:3943   .text.midi_system_reset:00000000 midi_system_reset
C:\Users\DEVELO~1\AppData\Local\Temp\ccBydanM.s:3980   .text.midi_channel_mode_cc:00000000 $t
C:\Users\DEVELO~1\AppData\Local\Temp\ccBydanM.s:3985   .text.midi_channel_mode_cc:00000000 midi_channel_mode_cc
C:\Users\DEVELO~1\AppData\Local\Temp\ccBydanM.s:4053   .text.midi_all_sound_off:00000000 $t
C:\Users\DEVELO~1\AppData\Local\Temp\ccBydanM.s:4059   .text.midi_all_sound_off:00000000 midi_all_sound_off
C:\Users\DEVELO~1\AppData\Local\Temp\ccBydanM.s:4096   .text.midi_reset_all_controllers:00000000 $t
C:\Users\DEVELO~1\AppData\Local\Temp\ccBydanM.s:4102   .text.midi_reset_all_controllers:00000000 midi_reset_all_controllers
C:\Users\DEVELO~1\AppData\Local\Temp\ccBydanM.s:4139   .text.midi_local_control:00000000 $t
C:\Users\DEVELO~1\AppData\Local\Temp\ccBydanM.s:4145   .text.midi_local_control:00000000 midi_local_control
C:\Users\DEVELO~1\AppData\Local\Temp\ccBydanM.s:4193   .text.midi_all_notes_off:00000000 $t
C:\Users\DEVELO~1\AppData\Local\Temp\ccBydanM.s:4199   .text.midi_all_notes_off:00000000 midi_all_notes_off
C:\Users\DEVELO~1\AppData\Local\Temp\ccBydanM.s:4236   .text.midi_omni_mode_off:00000000 $t
C:\Users\DEVELO~1\AppData\Local\Temp\ccBydanM.s:4242   .text.midi_omni_mode_off:00000000 midi_omni_mode_off
C:\Users\DEVELO~1\AppData\Local\Temp\ccBydanM.s:4279   .text.midi_omni_mode_on:00000000 $t
C:\Users\DEVELO~1\AppData\Local\Temp\ccBydanM.s:4285   .text.midi_omni_mode_on:00000000 midi_omni_mode_on
C:\Users\DEVELO~1\AppData\Local\Temp\ccBydanM.s:4322   .text.midi_mono_mode_on:00000000 $t
C:\Users\DEVELO~1\AppData\Local\Temp\ccBydanM.s:4328   .text.midi_mono_mode_on:00000000 midi_mono_mode_on
C:\Users\DEVELO~1\AppData\Local\Temp\ccBydanM.s:4366   .text.midi_poly_mode_on:00000000 $t
C:\Users\DEVELO~1\AppData\Local\Temp\ccBydanM.s:4372   .text.midi_poly_mode_on:00000000 midi_poly_mode_on
ARM GAS  C:\Users\DEVELO~1\AppData\Local\Temp\ccBydanM.s 			page 250


C:\Users\DEVELO~1\AppData\Local\Temp\ccBydanM.s:4409   .text.midi_usb_queue_high_watermark:00000000 $t
C:\Users\DEVELO~1\AppData\Local\Temp\ccBydanM.s:4415   .text.midi_usb_queue_high_watermark:00000000 midi_usb_queue_high_watermark
C:\Users\DEVELO~1\AppData\Local\Temp\ccBydanM.s:4442   .text.midi_usb_queue_high_watermark:00000010 $d
C:\Users\DEVELO~1\AppData\Local\Temp\ccBydanM.s:4447   .text.midi_usb_rx_high_watermark:00000000 $t
C:\Users\DEVELO~1\AppData\Local\Temp\ccBydanM.s:4453   .text.midi_usb_rx_high_watermark:00000000 midi_usb_rx_high_watermark
C:\Users\DEVELO~1\AppData\Local\Temp\ccBydanM.s:4480   .text.midi_usb_rx_high_watermark:00000010 $d
C:\Users\DEVELO~1\AppData\Local\Temp\ccBydanM.s:4485   .text.midi_stats_reset:00000000 $t
C:\Users\DEVELO~1\AppData\Local\Temp\ccBydanM.s:4491   .text.midi_stats_reset:00000000 midi_stats_reset
C:\Users\DEVELO~1\AppData\Local\Temp\ccBydanM.s:4542   .text.midi_stats_reset:00000038 $d
C:\Users\DEVELO~1\AppData\Local\Temp\ccBydanM.s:4549   .rodata.uart_cfg.0:00000000 $d

UNDEFINED SYMBOLS
ch0
chSemObjectInit
chSemWaitTimeout
usb_midi_tx_ready
usbStartTransmitI
USBD1
chMBPostI
chMBFetchTimeout
sdStart
chMBObjectInit
chThdCreateStatic
SD5
oqWriteTimeout
chMBPostTimeout
