ARM GAS  C:\Users\DEVELO~1\AppData\Local\Temp\ccBydanM.s 			page 1


   1              		.cpu cortex-m7
   2              		.arch armv7e-m
   3              		.fpu softvfp
   4              		.eabi_attribute 20, 1
   5              		.eabi_attribute 21, 1
   6              		.eabi_attribute 23, 3
   7              		.eabi_attribute 24, 1
   8              		.eabi_attribute 25, 1
   9              		.eabi_attribute 26, 1
  10              		.eabi_attribute 30, 6
  11              		.eabi_attribute 34, 1
  12              		.eabi_attribute 18, 4
  13              		.file	"midi.c"
  14              		.text
  15              	.Ltext0:
  16              		.cfi_sections	.debug_frame
  17              		.section	.text.chSysLock,"ax",%progbits
  18              		.align	1
  19              		.syntax unified
  20              		.thumb
  21              		.thumb_func
  22              		.type	chSysLock, %function
  23              	chSysLock:
  24              	.LFB202:
  25              		.file 1 "../../../os/rt/include/chsys.h"
  26              		.loc 1 407 36
  27              		.cfi_startproc
  28              		@ args = 0, pretend = 0, frame = 8
  29              		@ frame_needed = 1, uses_anonymous_args = 0
  30              		@ link register save eliminated.
  31 0000 80B4     		push	{r7}
  32              		.cfi_def_cfa_offset 4
  33              		.cfi_offset 7, -4
  34 0002 83B0     		sub	sp, sp, #12
  35              		.cfi_def_cfa_offset 16
  36 0004 00AF     		add	r7, sp, #0
  37              		.cfi_def_cfa_register 7
  38 0006 3023     		movs	r3, #48
  39 0008 7B60     		str	r3, [r7, #4]
  40              	.LBB34:
  41              	.LBB35:
  42              	.LBB36:
  43              	.LBB37:
  44              		.file 2 "../../../os/common/ext/ARM/CMSIS/Core/Include/cmsis_gcc.h"
  45              		.loc 2 493 3
  46 000a 7B68     		ldr	r3, [r7, #4]
  47              		.syntax unified
  48              	@ 493 "../../../os/common/ext/ARM/CMSIS/Core/Include/cmsis_gcc.h" 1
  49 000c 83F31188 		MSR basepri, r3
  50              	@ 0 "" 2
  51              		.loc 2 494 1
  52              		.thumb
  53              		.syntax unified
  54 0010 00BF     		nop
  55              	.LBE37:
  56              	.LBE36:
  57              		.file 3 "../../../os/common/ports/ARMv7-M/chcore.h"
ARM GAS  C:\Users\DEVELO~1\AppData\Local\Temp\ccBydanM.s 			page 2


  58              		.loc 3 840 1
  59 0012 00BF     		nop
  60              	.LBE35:
  61              	.LBE34:
  62              		.loc 1 412 1
  63 0014 00BF     		nop
  64 0016 0C37     		adds	r7, r7, #12
  65              		.cfi_def_cfa_offset 4
  66 0018 BD46     		mov	sp, r7
  67              		.cfi_def_cfa_register 13
  68              		@ sp needed
  69 001a 80BC     		pop	{r7}
  70              		.cfi_restore 7
  71              		.cfi_def_cfa_offset 0
  72 001c 7047     		bx	lr
  73              		.cfi_endproc
  74              	.LFE202:
  75              		.size	chSysLock, .-chSysLock
  76              		.section	.text.chSysUnlock,"ax",%progbits
  77              		.align	1
  78              		.syntax unified
  79              		.thumb
  80              		.thumb_func
  81              		.type	chSysUnlock, %function
  82              	chSysUnlock:
  83              	.LFB203:
  84              		.loc 1 421 38
  85              		.cfi_startproc
  86              		@ args = 0, pretend = 0, frame = 8
  87              		@ frame_needed = 1, uses_anonymous_args = 0
  88              		@ link register save eliminated.
  89 0000 80B4     		push	{r7}
  90              		.cfi_def_cfa_offset 4
  91              		.cfi_offset 7, -4
  92 0002 83B0     		sub	sp, sp, #12
  93              		.cfi_def_cfa_offset 16
  94 0004 00AF     		add	r7, sp, #0
  95              		.cfi_def_cfa_register 7
  96 0006 0023     		movs	r3, #0
  97 0008 7B60     		str	r3, [r7, #4]
  98              	.LBB38:
  99              	.LBB39:
 100              	.LBB40:
 101              	.LBB41:
 102              		.loc 2 493 3
 103 000a 7B68     		ldr	r3, [r7, #4]
 104              		.syntax unified
 105              	@ 493 "../../../os/common/ext/ARM/CMSIS/Core/Include/cmsis_gcc.h" 1
 106 000c 83F31188 		MSR basepri, r3
 107              	@ 0 "" 2
 108              		.loc 2 494 1
 109              		.thumb
 110              		.syntax unified
 111 0010 00BF     		nop
 112              	.LBE41:
 113              	.LBE40:
 114              		.loc 3 854 1
ARM GAS  C:\Users\DEVELO~1\AppData\Local\Temp\ccBydanM.s 			page 3


 115 0012 00BF     		nop
 116              	.LBE39:
 117              	.LBE38:
 118              		.loc 1 435 1
 119 0014 00BF     		nop
 120 0016 0C37     		adds	r7, r7, #12
 121              		.cfi_def_cfa_offset 4
 122 0018 BD46     		mov	sp, r7
 123              		.cfi_def_cfa_register 13
 124              		@ sp needed
 125 001a 80BC     		pop	{r7}
 126              		.cfi_restore 7
 127              		.cfi_def_cfa_offset 0
 128 001c 7047     		bx	lr
 129              		.cfi_endproc
 130              	.LFE203:
 131              		.size	chSysUnlock, .-chSysUnlock
 132              		.section	.text.chSysLockFromISR,"ax",%progbits
 133              		.align	1
 134              		.syntax unified
 135              		.thumb
 136              		.thumb_func
 137              		.type	chSysLockFromISR, %function
 138              	chSysLockFromISR:
 139              	.LFB204:
 140              		.loc 1 451 43
 141              		.cfi_startproc
 142              		@ args = 0, pretend = 0, frame = 8
 143              		@ frame_needed = 1, uses_anonymous_args = 0
 144              		@ link register save eliminated.
 145 0000 80B4     		push	{r7}
 146              		.cfi_def_cfa_offset 4
 147              		.cfi_offset 7, -4
 148 0002 83B0     		sub	sp, sp, #12
 149              		.cfi_def_cfa_offset 16
 150 0004 00AF     		add	r7, sp, #0
 151              		.cfi_def_cfa_register 7
 152 0006 3023     		movs	r3, #48
 153 0008 7B60     		str	r3, [r7, #4]
 154              	.LBB42:
 155              	.LBB43:
 156              	.LBB44:
 157              	.LBB45:
 158              	.LBB46:
 159              	.LBB47:
 160              		.loc 2 493 3
 161 000a 7B68     		ldr	r3, [r7, #4]
 162              		.syntax unified
 163              	@ 493 "../../../os/common/ext/ARM/CMSIS/Core/Include/cmsis_gcc.h" 1
 164 000c 83F31188 		MSR basepri, r3
 165              	@ 0 "" 2
 166              		.loc 2 494 1
 167              		.thumb
 168              		.syntax unified
 169 0010 00BF     		nop
 170              	.LBE47:
 171              	.LBE46:
ARM GAS  C:\Users\DEVELO~1\AppData\Local\Temp\ccBydanM.s 			page 4


 172              		.loc 3 840 1
 173 0012 00BF     		nop
 174              	.LBE45:
 175              	.LBE44:
 176              		.loc 3 865 1
 177 0014 00BF     		nop
 178              	.LBE43:
 179              	.LBE42:
 180              		.loc 1 456 1
 181 0016 00BF     		nop
 182 0018 0C37     		adds	r7, r7, #12
 183              		.cfi_def_cfa_offset 4
 184 001a BD46     		mov	sp, r7
 185              		.cfi_def_cfa_register 13
 186              		@ sp needed
 187 001c 80BC     		pop	{r7}
 188              		.cfi_restore 7
 189              		.cfi_def_cfa_offset 0
 190 001e 7047     		bx	lr
 191              		.cfi_endproc
 192              	.LFE204:
 193              		.size	chSysLockFromISR, .-chSysLockFromISR
 194              		.section	.text.chSysUnlockFromISR,"ax",%progbits
 195              		.align	1
 196              		.syntax unified
 197              		.thumb
 198              		.thumb_func
 199              		.type	chSysUnlockFromISR, %function
 200              	chSysUnlockFromISR:
 201              	.LFB205:
 202              		.loc 1 473 45
 203              		.cfi_startproc
 204              		@ args = 0, pretend = 0, frame = 8
 205              		@ frame_needed = 1, uses_anonymous_args = 0
 206              		@ link register save eliminated.
 207 0000 80B4     		push	{r7}
 208              		.cfi_def_cfa_offset 4
 209              		.cfi_offset 7, -4
 210 0002 83B0     		sub	sp, sp, #12
 211              		.cfi_def_cfa_offset 16
 212 0004 00AF     		add	r7, sp, #0
 213              		.cfi_def_cfa_register 7
 214 0006 0023     		movs	r3, #0
 215 0008 7B60     		str	r3, [r7, #4]
 216              	.LBB48:
 217              	.LBB49:
 218              	.LBB50:
 219              	.LBB51:
 220              	.LBB52:
 221              	.LBB53:
 222              		.loc 2 493 3
 223 000a 7B68     		ldr	r3, [r7, #4]
 224              		.syntax unified
 225              	@ 493 "../../../os/common/ext/ARM/CMSIS/Core/Include/cmsis_gcc.h" 1
 226 000c 83F31188 		MSR basepri, r3
 227              	@ 0 "" 2
 228              		.loc 2 494 1
ARM GAS  C:\Users\DEVELO~1\AppData\Local\Temp\ccBydanM.s 			page 5


 229              		.thumb
 230              		.syntax unified
 231 0010 00BF     		nop
 232              	.LBE53:
 233              	.LBE52:
 234              		.loc 3 854 1
 235 0012 00BF     		nop
 236              	.LBE51:
 237              	.LBE50:
 238              		.loc 3 876 1
 239 0014 00BF     		nop
 240              	.LBE49:
 241              	.LBE48:
 242              		.loc 1 478 1
 243 0016 00BF     		nop
 244 0018 0C37     		adds	r7, r7, #12
 245              		.cfi_def_cfa_offset 4
 246 001a BD46     		mov	sp, r7
 247              		.cfi_def_cfa_register 13
 248              		@ sp needed
 249 001c 80BC     		pop	{r7}
 250              		.cfi_restore 7
 251              		.cfi_def_cfa_offset 0
 252 001e 7047     		bx	lr
 253              		.cfi_endproc
 254              	.LFE205:
 255              		.size	chSysUnlockFromISR, .-chSysUnlockFromISR
 256              		.section	.text.chRegSetThreadName,"ax",%progbits
 257              		.align	1
 258              		.syntax unified
 259              		.thumb
 260              		.thumb_func
 261              		.type	chRegSetThreadName, %function
 262              	chRegSetThreadName:
 263              	.LFB240:
 264              		.file 4 "../../../os/rt/include/chregistry.h"
 265              		.loc 4 165 57
 266              		.cfi_startproc
 267              		@ args = 0, pretend = 0, frame = 8
 268              		@ frame_needed = 1, uses_anonymous_args = 0
 269              		@ link register save eliminated.
 270 0000 80B4     		push	{r7}
 271              		.cfi_def_cfa_offset 4
 272              		.cfi_offset 7, -4
 273 0002 83B0     		sub	sp, sp, #12
 274              		.cfi_def_cfa_offset 16
 275 0004 00AF     		add	r7, sp, #0
 276              		.cfi_def_cfa_register 7
 277 0006 7860     		str	r0, [r7, #4]
 278              		.loc 4 168 3
 279 0008 044B     		ldr	r3, .L6
 280 000a DB68     		ldr	r3, [r3, #12]
 281              		.loc 4 168 32
 282 000c 7A68     		ldr	r2, [r7, #4]
 283 000e DA61     		str	r2, [r3, #28]
 284              		.loc 4 172 1
 285 0010 00BF     		nop
ARM GAS  C:\Users\DEVELO~1\AppData\Local\Temp\ccBydanM.s 			page 6


 286 0012 0C37     		adds	r7, r7, #12
 287              		.cfi_def_cfa_offset 4
 288 0014 BD46     		mov	sp, r7
 289              		.cfi_def_cfa_register 13
 290              		@ sp needed
 291 0016 80BC     		pop	{r7}
 292              		.cfi_restore 7
 293              		.cfi_def_cfa_offset 0
 294 0018 7047     		bx	lr
 295              	.L7:
 296 001a 00BF     		.align	2
 297              	.L6:
 298 001c 00000000 		.word	ch0
 299              		.cfi_endproc
 300              	.LFE240:
 301              		.size	chRegSetThreadName, .-chRegSetThreadName
 302              		.section	.text.chBSemObjectInit,"ax",%progbits
 303              		.align	1
 304              		.syntax unified
 305              		.thumb
 306              		.thumb_func
 307              		.type	chBSemObjectInit, %function
 308              	chBSemObjectInit:
 309              	.LFB265:
 310              		.file 5 "../../../os/oslib/include/chbsem.h"
 311              		.loc 5 124 74
 312              		.cfi_startproc
 313              		@ args = 0, pretend = 0, frame = 8
 314              		@ frame_needed = 1, uses_anonymous_args = 0
 315 0000 80B5     		push	{r7, lr}
 316              		.cfi_def_cfa_offset 8
 317              		.cfi_offset 7, -8
 318              		.cfi_offset 14, -4
 319 0002 82B0     		sub	sp, sp, #8
 320              		.cfi_def_cfa_offset 16
 321 0004 00AF     		add	r7, sp, #0
 322              		.cfi_def_cfa_register 7
 323 0006 7860     		str	r0, [r7, #4]
 324 0008 0B46     		mov	r3, r1
 325 000a FB70     		strb	r3, [r7, #3]
 326              		.loc 5 126 3
 327 000c 7A68     		ldr	r2, [r7, #4]
 328              		.loc 5 126 47
 329 000e FB78     		ldrb	r3, [r7, #3]
 330 0010 83F00103 		eor	r3, r3, #1
 331 0014 DBB2     		uxtb	r3, r3
 332              		.loc 5 126 3
 333 0016 1946     		mov	r1, r3
 334 0018 1046     		mov	r0, r2
 335 001a FFF7FEFF 		bl	chSemObjectInit
 336              		.loc 5 127 1
 337 001e 00BF     		nop
 338 0020 0837     		adds	r7, r7, #8
 339              		.cfi_def_cfa_offset 8
 340 0022 BD46     		mov	sp, r7
 341              		.cfi_def_cfa_register 13
 342              		@ sp needed
ARM GAS  C:\Users\DEVELO~1\AppData\Local\Temp\ccBydanM.s 			page 7


 343 0024 80BD     		pop	{r7, pc}
 344              		.cfi_endproc
 345              	.LFE265:
 346              		.size	chBSemObjectInit, .-chBSemObjectInit
 347              		.section	.text.chBSemWaitTimeout,"ax",%progbits
 348              		.align	1
 349              		.syntax unified
 350              		.thumb
 351              		.thumb_func
 352              		.type	chBSemWaitTimeout, %function
 353              	chBSemWaitTimeout:
 354              	.LFB269:
 355              		.loc 5 212 62
 356              		.cfi_startproc
 357              		@ args = 0, pretend = 0, frame = 8
 358              		@ frame_needed = 1, uses_anonymous_args = 0
 359 0000 80B5     		push	{r7, lr}
 360              		.cfi_def_cfa_offset 8
 361              		.cfi_offset 7, -8
 362              		.cfi_offset 14, -4
 363 0002 82B0     		sub	sp, sp, #8
 364              		.cfi_def_cfa_offset 16
 365 0004 00AF     		add	r7, sp, #0
 366              		.cfi_def_cfa_register 7
 367 0006 7860     		str	r0, [r7, #4]
 368 0008 3960     		str	r1, [r7]
 369              		.loc 5 214 10
 370 000a 7B68     		ldr	r3, [r7, #4]
 371 000c 3968     		ldr	r1, [r7]
 372 000e 1846     		mov	r0, r3
 373 0010 FFF7FEFF 		bl	chSemWaitTimeout
 374 0014 0346     		mov	r3, r0
 375              		.loc 5 215 1
 376 0016 1846     		mov	r0, r3
 377 0018 0837     		adds	r7, r7, #8
 378              		.cfi_def_cfa_offset 8
 379 001a BD46     		mov	sp, r7
 380              		.cfi_def_cfa_register 13
 381              		@ sp needed
 382 001c 80BD     		pop	{r7, pc}
 383              		.cfi_endproc
 384              	.LFE269:
 385              		.size	chBSemWaitTimeout, .-chBSemWaitTimeout
 386              		.section	.text.osalSysLock,"ax",%progbits
 387              		.align	1
 388              		.syntax unified
 389              		.thumb
 390              		.thumb_func
 391              		.type	osalSysLock, %function
 392              	osalSysLock:
 393              	.LFB350:
 394              		.file 6 "../../../os/hal/osal/rt-nil/osal.h"
 395              		.loc 6 573 38
 396              		.cfi_startproc
 397              		@ args = 0, pretend = 0, frame = 0
 398              		@ frame_needed = 1, uses_anonymous_args = 0
 399 0000 80B5     		push	{r7, lr}
ARM GAS  C:\Users\DEVELO~1\AppData\Local\Temp\ccBydanM.s 			page 8


 400              		.cfi_def_cfa_offset 8
 401              		.cfi_offset 7, -8
 402              		.cfi_offset 14, -4
 403 0002 00AF     		add	r7, sp, #0
 404              		.cfi_def_cfa_register 7
 405              		.loc 6 575 3
 406 0004 FFF7FEFF 		bl	chSysLock
 407              		.loc 6 576 1
 408 0008 00BF     		nop
 409 000a 80BD     		pop	{r7, pc}
 410              		.cfi_endproc
 411              	.LFE350:
 412              		.size	osalSysLock, .-osalSysLock
 413              		.section	.text.osalSysUnlock,"ax",%progbits
 414              		.align	1
 415              		.syntax unified
 416              		.thumb
 417              		.thumb_func
 418              		.type	osalSysUnlock, %function
 419              	osalSysUnlock:
 420              	.LFB351:
 421              		.loc 6 584 40
 422              		.cfi_startproc
 423              		@ args = 0, pretend = 0, frame = 0
 424              		@ frame_needed = 1, uses_anonymous_args = 0
 425 0000 80B5     		push	{r7, lr}
 426              		.cfi_def_cfa_offset 8
 427              		.cfi_offset 7, -8
 428              		.cfi_offset 14, -4
 429 0002 00AF     		add	r7, sp, #0
 430              		.cfi_def_cfa_register 7
 431              		.loc 6 586 3
 432 0004 FFF7FEFF 		bl	chSysUnlock
 433              		.loc 6 587 1
 434 0008 00BF     		nop
 435 000a 80BD     		pop	{r7, pc}
 436              		.cfi_endproc
 437              	.LFE351:
 438              		.size	osalSysUnlock, .-osalSysUnlock
 439              		.section	.text.osalSysLockFromISR,"ax",%progbits
 440              		.align	1
 441              		.syntax unified
 442              		.thumb
 443              		.thumb_func
 444              		.type	osalSysLockFromISR, %function
 445              	osalSysLockFromISR:
 446              	.LFB352:
 447              		.loc 6 595 45
 448              		.cfi_startproc
 449              		@ args = 0, pretend = 0, frame = 0
 450              		@ frame_needed = 1, uses_anonymous_args = 0
 451 0000 80B5     		push	{r7, lr}
 452              		.cfi_def_cfa_offset 8
 453              		.cfi_offset 7, -8
 454              		.cfi_offset 14, -4
 455 0002 00AF     		add	r7, sp, #0
 456              		.cfi_def_cfa_register 7
ARM GAS  C:\Users\DEVELO~1\AppData\Local\Temp\ccBydanM.s 			page 9


 457              		.loc 6 597 3
 458 0004 FFF7FEFF 		bl	chSysLockFromISR
 459              		.loc 6 598 1
 460 0008 00BF     		nop
 461 000a 80BD     		pop	{r7, pc}
 462              		.cfi_endproc
 463              	.LFE352:
 464              		.size	osalSysLockFromISR, .-osalSysLockFromISR
 465              		.section	.text.osalSysUnlockFromISR,"ax",%progbits
 466              		.align	1
 467              		.syntax unified
 468              		.thumb
 469              		.thumb_func
 470              		.type	osalSysUnlockFromISR, %function
 471              	osalSysUnlockFromISR:
 472              	.LFB353:
 473              		.loc 6 606 47
 474              		.cfi_startproc
 475              		@ args = 0, pretend = 0, frame = 0
 476              		@ frame_needed = 1, uses_anonymous_args = 0
 477 0000 80B5     		push	{r7, lr}
 478              		.cfi_def_cfa_offset 8
 479              		.cfi_offset 7, -8
 480              		.cfi_offset 14, -4
 481 0002 00AF     		add	r7, sp, #0
 482              		.cfi_def_cfa_register 7
 483              		.loc 6 608 3
 484 0004 FFF7FEFF 		bl	chSysUnlockFromISR
 485              		.loc 6 609 1
 486 0008 00BF     		nop
 487 000a 80BD     		pop	{r7, pc}
 488              		.cfi_endproc
 489              	.LFE353:
 490              		.size	osalSysUnlockFromISR, .-osalSysUnlockFromISR
 491              		.section	.bss.midi_initialized,"aw",%nobits
 492              		.type	midi_initialized, %object
 493              		.size	midi_initialized, 1
 494              	midi_initialized:
 495 0000 00       		.space	1
 496              		.section	.text.midi_usb_ready,"ax",%progbits
 497              		.align	1
 498              		.syntax unified
 499              		.thumb
 500              		.thumb_func
 501              		.type	midi_usb_ready, %function
 502              	midi_usb_ready:
 503              	.LFB432:
 504              		.file 7 "midi/midi.c"
 505              		.loc 7 42 41
 506              		.cfi_startproc
 507              		@ args = 0, pretend = 0, frame = 8
 508              		@ frame_needed = 1, uses_anonymous_args = 0
 509 0000 80B5     		push	{r7, lr}
 510              		.cfi_def_cfa_offset 8
 511              		.cfi_offset 7, -8
 512              		.cfi_offset 14, -4
 513 0002 82B0     		sub	sp, sp, #8
ARM GAS  C:\Users\DEVELO~1\AppData\Local\Temp\ccBydanM.s 			page 10


 514              		.cfi_def_cfa_offset 16
 515 0004 00AF     		add	r7, sp, #0
 516              		.cfi_def_cfa_register 7
 517              		.loc 7 44 3
 518 0006 FFF7FEFF 		bl	osalSysLock
 519              		.loc 7 45 9
 520 000a 054B     		ldr	r3, .L17
 521 000c 1B78     		ldrb	r3, [r3]
 522 000e FB71     		strb	r3, [r7, #7]
 523              		.loc 7 46 3
 524 0010 FFF7FEFF 		bl	osalSysUnlock
 525              		.loc 7 47 10
 526 0014 FB79     		ldrb	r3, [r7, #7]	@ zero_extendqisi2
 527              		.loc 7 48 1
 528 0016 1846     		mov	r0, r3
 529 0018 0837     		adds	r7, r7, #8
 530              		.cfi_def_cfa_offset 8
 531 001a BD46     		mov	sp, r7
 532              		.cfi_def_cfa_register 13
 533              		@ sp needed
 534 001c 80BD     		pop	{r7, pc}
 535              	.L18:
 536 001e 00BF     		.align	2
 537              	.L17:
 538 0020 00000000 		.word	usb_midi_tx_ready
 539              		.cfi_endproc
 540              	.LFE432:
 541              		.size	midi_usb_ready, .-midi_usb_ready
 542              		.section	.text.midi_usb_flush_tx_cache,"ax",%progbits
 543              		.align	1
 544              		.syntax unified
 545              		.thumb
 546              		.thumb_func
 547              		.type	midi_usb_flush_tx_cache, %function
 548              	midi_usb_flush_tx_cache:
 549              	.LFB433:
 550              		.loc 7 59 74
 551              		.cfi_startproc
 552              		@ args = 0, pretend = 0, frame = 8
 553              		@ frame_needed = 1, uses_anonymous_args = 0
 554              		@ link register save eliminated.
 555 0000 80B4     		push	{r7}
 556              		.cfi_def_cfa_offset 4
 557              		.cfi_offset 7, -4
 558 0002 83B0     		sub	sp, sp, #12
 559              		.cfi_def_cfa_offset 16
 560 0004 00AF     		add	r7, sp, #0
 561              		.cfi_def_cfa_register 7
 562 0006 7860     		str	r0, [r7, #4]
 563 0008 3960     		str	r1, [r7]
 564              		.loc 7 61 1
 565 000a 00BF     		nop
 566 000c 0C37     		adds	r7, r7, #12
 567              		.cfi_def_cfa_offset 4
 568 000e BD46     		mov	sp, r7
 569              		.cfi_def_cfa_register 13
 570              		@ sp needed
ARM GAS  C:\Users\DEVELO~1\AppData\Local\Temp\ccBydanM.s 			page 11


 571 0010 80BC     		pop	{r7}
 572              		.cfi_restore 7
 573              		.cfi_def_cfa_offset 0
 574 0012 7047     		bx	lr
 575              		.cfi_endproc
 576              	.LFE433:
 577              		.size	midi_usb_flush_tx_cache, .-midi_usb_flush_tx_cache
 578              		.section	.text.midi_internal_receive,"ax",%progbits
 579              		.align	1
 580              		.weak	midi_internal_receive
 581              		.syntax unified
 582              		.thumb
 583              		.thumb_func
 584              		.type	midi_internal_receive, %function
 585              	midi_internal_receive:
 586              	.LFB434:
 587              		.loc 7 65 82
 588              		.cfi_startproc
 589              		@ args = 0, pretend = 0, frame = 8
 590              		@ frame_needed = 1, uses_anonymous_args = 0
 591              		@ link register save eliminated.
 592 0000 80B4     		push	{r7}
 593              		.cfi_def_cfa_offset 4
 594              		.cfi_offset 7, -4
 595 0002 83B0     		sub	sp, sp, #12
 596              		.cfi_def_cfa_offset 16
 597 0004 00AF     		add	r7, sp, #0
 598              		.cfi_def_cfa_register 7
 599 0006 7860     		str	r0, [r7, #4]
 600 0008 3960     		str	r1, [r7]
 601              		.loc 7 67 1
 602 000a 00BF     		nop
 603 000c 0C37     		adds	r7, r7, #12
 604              		.cfi_def_cfa_offset 4
 605 000e BD46     		mov	sp, r7
 606              		.cfi_def_cfa_register 13
 607              		@ sp needed
 608 0010 80BC     		pop	{r7}
 609              		.cfi_restore 7
 610              		.cfi_def_cfa_offset 0
 611 0012 7047     		bx	lr
 612              		.cfi_endproc
 613              	.LFE434:
 614              		.size	midi_internal_receive, .-midi_internal_receive
 615              		.section	.bss.midi_usb_mb,"aw",%nobits
 616              		.align	2
 617              		.type	midi_usb_mb, %object
 618              		.size	midi_usb_mb, 40
 619              	midi_usb_mb:
 620 0000 00000000 		.space	40
 620      00000000 
 620      00000000 
 620      00000000 
 620      00000000 
 621              		.section	.bss.midi_usb_queue,"aw",%nobits
 622              		.align	2
 623              		.type	midi_usb_queue, %object
ARM GAS  C:\Users\DEVELO~1\AppData\Local\Temp\ccBydanM.s 			page 12


 624              		.size	midi_usb_queue, 1024
 625              	midi_usb_queue:
 626 0000 00000000 		.space	1024
 626      00000000 
 626      00000000 
 626      00000000 
 626      00000000 
 627              		.section	.bss.midi_usb_queue_fill,"aw",%nobits
 628              		.align	1
 629              		.type	midi_usb_queue_fill, %object
 630              		.size	midi_usb_queue_fill, 2
 631              	midi_usb_queue_fill:
 632 0000 0000     		.space	2
 633              		.section	.bss.midi_usb_queue_high_water,"aw",%nobits
 634              		.align	1
 635              		.type	midi_usb_queue_high_water, %object
 636              		.size	midi_usb_queue_high_water, 2
 637              	midi_usb_queue_high_water:
 638 0000 0000     		.space	2
 639              		.section	.bss.midi_usb_rx_mb,"aw",%nobits
 640              		.align	2
 641              		.type	midi_usb_rx_mb, %object
 642              		.size	midi_usb_rx_mb, 40
 643              	midi_usb_rx_mb:
 644 0000 00000000 		.space	40
 644      00000000 
 644      00000000 
 644      00000000 
 644      00000000 
 645              		.section	.bss.midi_usb_rx_queue,"aw",%nobits
 646              		.align	2
 647              		.type	midi_usb_rx_queue, %object
 648              		.size	midi_usb_rx_queue, 512
 649              	midi_usb_rx_queue:
 650 0000 00000000 		.space	512
 650      00000000 
 650      00000000 
 650      00000000 
 650      00000000 
 651              		.section	.bss.midi_usb_rx_queue_fill,"aw",%nobits
 652              		.align	1
 653              		.type	midi_usb_rx_queue_fill, %object
 654              		.size	midi_usb_rx_queue_fill, 2
 655              	midi_usb_rx_queue_fill:
 656 0000 0000     		.space	2
 657              		.section	.bss.midi_usb_rx_queue_high_water,"aw",%nobits
 658              		.align	1
 659              		.type	midi_usb_rx_queue_high_water, %object
 660              		.size	midi_usb_rx_queue_high_water, 2
 661              	midi_usb_rx_queue_high_water:
 662 0000 0000     		.space	2
 663              		.global	midi_usb_rx_drops
 664              		.section	.bss.midi_usb_rx_drops,"aw",%nobits
 665              		.align	2
 666              		.type	midi_usb_rx_drops, %object
 667              		.size	midi_usb_rx_drops, 4
 668              	midi_usb_rx_drops:
ARM GAS  C:\Users\DEVELO~1\AppData\Local\Temp\ccBydanM.s 			page 13


 669 0000 00000000 		.space	4
 670              		.section	.text.midi_usb_queue_increment,"ax",%progbits
 671              		.align	1
 672              		.syntax unified
 673              		.thumb
 674              		.thumb_func
 675              		.type	midi_usb_queue_increment, %function
 676              	midi_usb_queue_increment:
 677              	.LFB435:
 678              		.loc 7 121 51
 679              		.cfi_startproc
 680              		@ args = 0, pretend = 0, frame = 0
 681              		@ frame_needed = 1, uses_anonymous_args = 0
 682 0000 80B5     		push	{r7, lr}
 683              		.cfi_def_cfa_offset 8
 684              		.cfi_offset 7, -8
 685              		.cfi_offset 14, -4
 686 0002 00AF     		add	r7, sp, #0
 687              		.cfi_def_cfa_register 7
 688              		.loc 7 122 3
 689 0004 FFF7FEFF 		bl	osalSysLock
 690              		.loc 7 123 27
 691 0008 0B4B     		ldr	r3, .L23
 692 000a 1B88     		ldrh	r3, [r3]
 693              		.loc 7 123 6
 694 000c FF2B     		cmp	r3, #255
 695 000e 0FD8     		bhi	.L22
 696              		.loc 7 124 24
 697 0010 094B     		ldr	r3, .L23
 698 0012 1B88     		ldrh	r3, [r3]
 699 0014 0133     		adds	r3, r3, #1
 700 0016 9AB2     		uxth	r2, r3
 701 0018 074B     		ldr	r3, .L23
 702 001a 1A80     		strh	r2, [r3]	@ movhi
 703              		.loc 7 125 29
 704 001c 064B     		ldr	r3, .L23
 705 001e 1A88     		ldrh	r2, [r3]
 706 0020 064B     		ldr	r3, .L23+4
 707 0022 1B88     		ldrh	r3, [r3]
 708              		.loc 7 125 8
 709 0024 9A42     		cmp	r2, r3
 710 0026 03D9     		bls	.L22
 711              		.loc 7 126 33
 712 0028 034B     		ldr	r3, .L23
 713 002a 1A88     		ldrh	r2, [r3]
 714 002c 034B     		ldr	r3, .L23+4
 715 002e 1A80     		strh	r2, [r3]	@ movhi
 716              	.L22:
 717              		.loc 7 129 3
 718 0030 FFF7FEFF 		bl	osalSysUnlock
 719              		.loc 7 130 1
 720 0034 00BF     		nop
 721 0036 80BD     		pop	{r7, pc}
 722              	.L24:
 723              		.align	2
 724              	.L23:
 725 0038 00000000 		.word	midi_usb_queue_fill
ARM GAS  C:\Users\DEVELO~1\AppData\Local\Temp\ccBydanM.s 			page 14


 726 003c 00000000 		.word	midi_usb_queue_high_water
 727              		.cfi_endproc
 728              	.LFE435:
 729              		.size	midi_usb_queue_increment, .-midi_usb_queue_increment
 730              		.section	.text.midi_usb_queue_decrement,"ax",%progbits
 731              		.align	1
 732              		.syntax unified
 733              		.thumb
 734              		.thumb_func
 735              		.type	midi_usb_queue_decrement, %function
 736              	midi_usb_queue_decrement:
 737              	.LFB436:
 738              		.loc 7 132 51
 739              		.cfi_startproc
 740              		@ args = 0, pretend = 0, frame = 0
 741              		@ frame_needed = 1, uses_anonymous_args = 0
 742 0000 80B5     		push	{r7, lr}
 743              		.cfi_def_cfa_offset 8
 744              		.cfi_offset 7, -8
 745              		.cfi_offset 14, -4
 746 0002 00AF     		add	r7, sp, #0
 747              		.cfi_def_cfa_register 7
 748              		.loc 7 133 3
 749 0004 FFF7FEFF 		bl	osalSysLock
 750              		.loc 7 134 27
 751 0008 064B     		ldr	r3, .L27
 752 000a 1B88     		ldrh	r3, [r3]
 753              		.loc 7 134 6
 754 000c 002B     		cmp	r3, #0
 755 000e 05D0     		beq	.L26
 756              		.loc 7 135 24
 757 0010 044B     		ldr	r3, .L27
 758 0012 1B88     		ldrh	r3, [r3]
 759 0014 013B     		subs	r3, r3, #1
 760 0016 9AB2     		uxth	r2, r3
 761 0018 024B     		ldr	r3, .L27
 762 001a 1A80     		strh	r2, [r3]	@ movhi
 763              	.L26:
 764              		.loc 7 137 3
 765 001c FFF7FEFF 		bl	osalSysUnlock
 766              		.loc 7 138 1
 767 0020 00BF     		nop
 768 0022 80BD     		pop	{r7, pc}
 769              	.L28:
 770              		.align	2
 771              	.L27:
 772 0024 00000000 		.word	midi_usb_queue_fill
 773              		.cfi_endproc
 774              	.LFE436:
 775              		.size	midi_usb_queue_decrement, .-midi_usb_queue_decrement
 776              		.section	.text.midi_usb_rx_queue_increment_i,"ax",%progbits
 777              		.align	1
 778              		.syntax unified
 779              		.thumb
 780              		.thumb_func
 781              		.type	midi_usb_rx_queue_increment_i, %function
 782              	midi_usb_rx_queue_increment_i:
ARM GAS  C:\Users\DEVELO~1\AppData\Local\Temp\ccBydanM.s 			page 15


 783              	.LFB437:
 784              		.loc 7 140 56
 785              		.cfi_startproc
 786              		@ args = 0, pretend = 0, frame = 0
 787              		@ frame_needed = 1, uses_anonymous_args = 0
 788              		@ link register save eliminated.
 789 0000 80B4     		push	{r7}
 790              		.cfi_def_cfa_offset 4
 791              		.cfi_offset 7, -4
 792 0002 00AF     		add	r7, sp, #0
 793              		.cfi_def_cfa_register 7
 794              		.loc 7 142 30
 795 0004 0B4B     		ldr	r3, .L32
 796 0006 1B88     		ldrh	r3, [r3]
 797              		.loc 7 142 6
 798 0008 7F2B     		cmp	r3, #127
 799 000a 0FD8     		bhi	.L31
 800              		.loc 7 143 27
 801 000c 094B     		ldr	r3, .L32
 802 000e 1B88     		ldrh	r3, [r3]
 803 0010 0133     		adds	r3, r3, #1
 804 0012 9AB2     		uxth	r2, r3
 805 0014 074B     		ldr	r3, .L32
 806 0016 1A80     		strh	r2, [r3]	@ movhi
 807              		.loc 7 144 32
 808 0018 064B     		ldr	r3, .L32
 809 001a 1A88     		ldrh	r2, [r3]
 810 001c 064B     		ldr	r3, .L32+4
 811 001e 1B88     		ldrh	r3, [r3]
 812              		.loc 7 144 8
 813 0020 9A42     		cmp	r2, r3
 814 0022 03D9     		bls	.L31
 815              		.loc 7 145 36
 816 0024 034B     		ldr	r3, .L32
 817 0026 1A88     		ldrh	r2, [r3]
 818 0028 034B     		ldr	r3, .L32+4
 819 002a 1A80     		strh	r2, [r3]	@ movhi
 820              	.L31:
 821              		.loc 7 148 1
 822 002c 00BF     		nop
 823 002e BD46     		mov	sp, r7
 824              		.cfi_def_cfa_register 13
 825              		@ sp needed
 826 0030 80BC     		pop	{r7}
 827              		.cfi_restore 7
 828              		.cfi_def_cfa_offset 0
 829 0032 7047     		bx	lr
 830              	.L33:
 831              		.align	2
 832              	.L32:
 833 0034 00000000 		.word	midi_usb_rx_queue_fill
 834 0038 00000000 		.word	midi_usb_rx_queue_high_water
 835              		.cfi_endproc
 836              	.LFE437:
 837              		.size	midi_usb_rx_queue_increment_i, .-midi_usb_rx_queue_increment_i
 838              		.section	.text.midi_usb_rx_queue_decrement,"ax",%progbits
 839              		.align	1
ARM GAS  C:\Users\DEVELO~1\AppData\Local\Temp\ccBydanM.s 			page 16


 840              		.syntax unified
 841              		.thumb
 842              		.thumb_func
 843              		.type	midi_usb_rx_queue_decrement, %function
 844              	midi_usb_rx_queue_decrement:
 845              	.LFB438:
 846              		.loc 7 150 54
 847              		.cfi_startproc
 848              		@ args = 0, pretend = 0, frame = 0
 849              		@ frame_needed = 1, uses_anonymous_args = 0
 850              		@ link register save eliminated.
 851 0000 80B4     		push	{r7}
 852              		.cfi_def_cfa_offset 4
 853              		.cfi_offset 7, -4
 854 0002 00AF     		add	r7, sp, #0
 855              		.cfi_def_cfa_register 7
 856              		.loc 7 152 30
 857 0004 064B     		ldr	r3, .L37
 858 0006 1B88     		ldrh	r3, [r3]
 859              		.loc 7 152 6
 860 0008 002B     		cmp	r3, #0
 861 000a 05D0     		beq	.L36
 862              		.loc 7 153 27
 863 000c 044B     		ldr	r3, .L37
 864 000e 1B88     		ldrh	r3, [r3]
 865 0010 013B     		subs	r3, r3, #1
 866 0012 9AB2     		uxth	r2, r3
 867 0014 024B     		ldr	r3, .L37
 868 0016 1A80     		strh	r2, [r3]	@ movhi
 869              	.L36:
 870              		.loc 7 155 1
 871 0018 00BF     		nop
 872 001a BD46     		mov	sp, r7
 873              		.cfi_def_cfa_register 13
 874              		@ sp needed
 875 001c 80BC     		pop	{r7}
 876              		.cfi_restore 7
 877              		.cfi_def_cfa_offset 0
 878 001e 7047     		bx	lr
 879              	.L38:
 880              		.align	2
 881              	.L37:
 882 0020 00000000 		.word	midi_usb_rx_queue_fill
 883              		.cfi_endproc
 884              	.LFE438:
 885              		.size	midi_usb_rx_queue_decrement, .-midi_usb_rx_queue_decrement
 886              		.section	.text.midi_usb_start_tx,"ax",%progbits
 887              		.align	1
 888              		.syntax unified
 889              		.thumb
 890              		.thumb_func
 891              		.type	midi_usb_start_tx, %function
 892              	midi_usb_start_tx:
 893              	.LFB439:
 894              		.loc 7 157 73
 895              		.cfi_startproc
 896              		@ args = 0, pretend = 0, frame = 8
ARM GAS  C:\Users\DEVELO~1\AppData\Local\Temp\ccBydanM.s 			page 17


 897              		@ frame_needed = 1, uses_anonymous_args = 0
 898 0000 80B5     		push	{r7, lr}
 899              		.cfi_def_cfa_offset 8
 900              		.cfi_offset 7, -8
 901              		.cfi_offset 14, -4
 902 0002 82B0     		sub	sp, sp, #8
 903              		.cfi_def_cfa_offset 16
 904 0004 00AF     		add	r7, sp, #0
 905              		.cfi_def_cfa_register 7
 906 0006 7860     		str	r0, [r7, #4]
 907 0008 3960     		str	r1, [r7]
 908              		.loc 7 158 3
 909 000a 3968     		ldr	r1, [r7]
 910 000c 7868     		ldr	r0, [r7, #4]
 911 000e FFF7FEFF 		bl	midi_usb_flush_tx_cache
 912              		.loc 7 159 3
 913 0012 FFF7FEFF 		bl	osalSysLock
 914              		.loc 7 160 3
 915 0016 3B68     		ldr	r3, [r7]
 916 0018 7A68     		ldr	r2, [r7, #4]
 917 001a 0221     		movs	r1, #2
 918 001c 0448     		ldr	r0, .L40
 919 001e FFF7FEFF 		bl	usbStartTransmitI
 920              		.loc 7 161 3
 921 0022 FFF7FEFF 		bl	osalSysUnlock
 922              		.loc 7 162 1
 923 0026 00BF     		nop
 924 0028 0837     		adds	r7, r7, #8
 925              		.cfi_def_cfa_offset 8
 926 002a BD46     		mov	sp, r7
 927              		.cfi_def_cfa_register 13
 928              		@ sp needed
 929 002c 80BD     		pop	{r7, pc}
 930              	.L41:
 931 002e 00BF     		.align	2
 932              	.L40:
 933 0030 00000000 		.word	USBD1
 934              		.cfi_endproc
 935              	.LFE439:
 936              		.size	midi_usb_start_tx, .-midi_usb_start_tx
 937              		.section	.text.midi_usb_rx_submit_from_isr,"ax",%progbits
 938              		.align	1
 939              		.global	midi_usb_rx_submit_from_isr
 940              		.syntax unified
 941              		.thumb
 942              		.thumb_func
 943              		.type	midi_usb_rx_submit_from_isr, %function
 944              	midi_usb_rx_submit_from_isr:
 945              	.LFB440:
 946              		.loc 7 164 69
 947              		.cfi_startproc
 948              		@ args = 0, pretend = 0, frame = 24
 949              		@ frame_needed = 1, uses_anonymous_args = 0
 950 0000 80B5     		push	{r7, lr}
 951              		.cfi_def_cfa_offset 8
 952              		.cfi_offset 7, -8
 953              		.cfi_offset 14, -4
ARM GAS  C:\Users\DEVELO~1\AppData\Local\Temp\ccBydanM.s 			page 18


 954 0002 86B0     		sub	sp, sp, #24
 955              		.cfi_def_cfa_offset 32
 956 0004 00AF     		add	r7, sp, #0
 957              		.cfi_def_cfa_register 7
 958 0006 7860     		str	r0, [r7, #4]
 959 0008 3960     		str	r1, [r7]
 960              		.loc 7 165 6
 961 000a 7B68     		ldr	r3, [r7, #4]
 962 000c 002B     		cmp	r3, #0
 963 000e 58D0     		beq	.L52
 964              		.loc 7 165 24 discriminator 1
 965 0010 3B68     		ldr	r3, [r7]
 966 0012 032B     		cmp	r3, #3
 967 0014 55D9     		bls	.L52
 968              		.loc 7 169 16
 969 0016 3B68     		ldr	r3, [r7]
 970 0018 9B08     		lsrs	r3, r3, #2
 971 001a 3B61     		str	r3, [r7, #16]
 972              		.loc 7 171 3
 973 001c FFF7FEFF 		bl	osalSysLockFromISR
 974              		.loc 7 172 21
 975 0020 2A4B     		ldr	r3, .L53
 976 0022 1B68     		ldr	r3, [r3]
 977              		.loc 7 172 6
 978 0024 002B     		cmp	r3, #0
 979 0026 02D1     		bne	.L46
 980              		.loc 7 173 5
 981 0028 FFF7FEFF 		bl	osalSysUnlockFromISR
 982              		.loc 7 174 5
 983 002c 4AE0     		b	.L42
 984              	.L46:
 985              	.LBB54:
 986              		.loc 7 177 15
 987 002e 0023     		movs	r3, #0
 988 0030 7B61     		str	r3, [r7, #20]
 989              		.loc 7 177 3
 990 0032 3FE0     		b	.L47
 991              	.L51:
 992              		.loc 7 178 32
 993 0034 264B     		ldr	r3, .L53+4
 994 0036 1B88     		ldrh	r3, [r3]
 995              		.loc 7 178 8
 996 0038 7F2B     		cmp	r3, #127
 997 003a 0AD9     		bls	.L48
 998              		.loc 7 179 24
 999 003c 254B     		ldr	r3, .L53+8
 1000 003e 1B68     		ldr	r3, [r3]
 1001 0040 0133     		adds	r3, r3, #1
 1002 0042 244A     		ldr	r2, .L53+8
 1003 0044 1360     		str	r3, [r2]
 1004              		.loc 7 180 20
 1005 0046 244B     		ldr	r3, .L53+12
 1006 0048 5B68     		ldr	r3, [r3, #4]
 1007              		.loc 7 180 33
 1008 004a 0133     		adds	r3, r3, #1
 1009 004c 224A     		ldr	r2, .L53+12
 1010 004e 5360     		str	r3, [r2, #4]
ARM GAS  C:\Users\DEVELO~1\AppData\Local\Temp\ccBydanM.s 			page 19


 1011 0050 2AE0     		b	.L49
 1012              	.L48:
 1013              	.LBB55:
 1014              		.loc 7 182 31
 1015 0052 7B68     		ldr	r3, [r7, #4]
 1016 0054 1B78     		ldrb	r3, [r3]	@ zero_extendqisi2
 1017              		.loc 7 182 35
 1018 0056 1A06     		lsls	r2, r3, #24
 1019              		.loc 7 183 31
 1020 0058 7B68     		ldr	r3, [r7, #4]
 1021 005a 0133     		adds	r3, r3, #1
 1022 005c 1B78     		ldrb	r3, [r3]	@ zero_extendqisi2
 1023              		.loc 7 183 35
 1024 005e 1B04     		lsls	r3, r3, #16
 1025              		.loc 7 182 42
 1026 0060 1A43     		orrs	r2, r2, r3
 1027              		.loc 7 184 31
 1028 0062 7B68     		ldr	r3, [r7, #4]
 1029 0064 0233     		adds	r3, r3, #2
 1030 0066 1B78     		ldrb	r3, [r3]	@ zero_extendqisi2
 1031              		.loc 7 184 35
 1032 0068 1B02     		lsls	r3, r3, #8
 1033              		.loc 7 183 42
 1034 006a 1343     		orrs	r3, r3, r2
 1035              		.loc 7 185 31
 1036 006c 7A68     		ldr	r2, [r7, #4]
 1037 006e 0332     		adds	r2, r2, #3
 1038 0070 1278     		ldrb	r2, [r2]	@ zero_extendqisi2
 1039              		.loc 7 182 13
 1040 0072 1343     		orrs	r3, r3, r2
 1041 0074 FB60     		str	r3, [r7, #12]
 1042              		.loc 7 187 11
 1043 0076 F968     		ldr	r1, [r7, #12]
 1044 0078 1448     		ldr	r0, .L53
 1045 007a FFF7FEFF 		bl	chMBPostI
 1046 007e 0346     		mov	r3, r0
 1047              		.loc 7 187 10
 1048 0080 002B     		cmp	r3, #0
 1049 0082 07D1     		bne	.L50
 1050              		.loc 7 188 9
 1051 0084 FFF7FEFF 		bl	midi_usb_rx_queue_increment_i
 1052              		.loc 7 189 22
 1053 0088 134B     		ldr	r3, .L53+12
 1054 008a 1B68     		ldr	r3, [r3]
 1055              		.loc 7 189 38
 1056 008c 0133     		adds	r3, r3, #1
 1057 008e 124A     		ldr	r2, .L53+12
 1058 0090 1360     		str	r3, [r2]
 1059 0092 09E0     		b	.L49
 1060              	.L50:
 1061              		.loc 7 191 26
 1062 0094 0F4B     		ldr	r3, .L53+8
 1063 0096 1B68     		ldr	r3, [r3]
 1064 0098 0133     		adds	r3, r3, #1
 1065 009a 0E4A     		ldr	r2, .L53+8
 1066 009c 1360     		str	r3, [r2]
 1067              		.loc 7 192 22
ARM GAS  C:\Users\DEVELO~1\AppData\Local\Temp\ccBydanM.s 			page 20


 1068 009e 0E4B     		ldr	r3, .L53+12
 1069 00a0 5B68     		ldr	r3, [r3, #4]
 1070              		.loc 7 192 35
 1071 00a2 0133     		adds	r3, r3, #1
 1072 00a4 0C4A     		ldr	r2, .L53+12
 1073 00a6 5360     		str	r3, [r2, #4]
 1074              	.L49:
 1075              	.LBE55:
 1076              		.loc 7 195 12 discriminator 2
 1077 00a8 7B68     		ldr	r3, [r7, #4]
 1078 00aa 0433     		adds	r3, r3, #4
 1079 00ac 7B60     		str	r3, [r7, #4]
 1080              		.loc 7 177 36 discriminator 2
 1081 00ae 7B69     		ldr	r3, [r7, #20]
 1082 00b0 0133     		adds	r3, r3, #1
 1083 00b2 7B61     		str	r3, [r7, #20]
 1084              	.L47:
 1085              		.loc 7 177 24 discriminator 1
 1086 00b4 7A69     		ldr	r2, [r7, #20]
 1087 00b6 3B69     		ldr	r3, [r7, #16]
 1088 00b8 9A42     		cmp	r2, r3
 1089 00ba BBD3     		bcc	.L51
 1090              	.LBE54:
 1091              		.loc 7 197 3
 1092 00bc FFF7FEFF 		bl	osalSysUnlockFromISR
 1093 00c0 00E0     		b	.L42
 1094              	.L52:
 1095              		.loc 7 166 5
 1096 00c2 00BF     		nop
 1097              	.L42:
 1098              		.loc 7 198 1
 1099 00c4 1837     		adds	r7, r7, #24
 1100              		.cfi_def_cfa_offset 8
 1101 00c6 BD46     		mov	sp, r7
 1102              		.cfi_def_cfa_register 13
 1103              		@ sp needed
 1104 00c8 80BD     		pop	{r7, pc}
 1105              	.L54:
 1106 00ca 00BF     		.align	2
 1107              	.L53:
 1108 00cc 00000000 		.word	midi_usb_rx_mb
 1109 00d0 00000000 		.word	midi_usb_rx_queue_fill
 1110 00d4 00000000 		.word	midi_usb_rx_drops
 1111 00d8 00000000 		.word	midi_rx_stats
 1112              		.cfi_endproc
 1113              	.LFE440:
 1114              		.size	midi_usb_rx_submit_from_isr, .-midi_usb_rx_submit_from_isr
 1115              		.global	tx_sem
 1116              		.section	.bss.tx_sem,"aw",%nobits
 1117              		.align	2
 1118              		.type	tx_sem, %object
 1119              		.size	tx_sem, 12
 1120              	tx_sem:
 1121 0000 00000000 		.space	12
 1121      00000000 
 1121      00000000 
 1122              		.global	sof_sem
ARM GAS  C:\Users\DEVELO~1\AppData\Local\Temp\ccBydanM.s 			page 21


 1123              		.section	.bss.sof_sem,"aw",%nobits
 1124              		.align	2
 1125              		.type	sof_sem, %object
 1126              		.size	sof_sem, 12
 1127              	sof_sem:
 1128 0000 00000000 		.space	12
 1128      00000000 
 1128      00000000 
 1129              		.global	midi_tx_stats
 1130              		.section	.bss.midi_tx_stats,"aw",%nobits
 1131              		.align	2
 1132              		.type	midi_tx_stats, %object
 1133              		.size	midi_tx_stats, 28
 1134              	midi_tx_stats:
 1135 0000 00000000 		.space	28
 1135      00000000 
 1135      00000000 
 1135      00000000 
 1135      00000000 
 1136              		.global	midi_rx_stats
 1137              		.section	.bss.midi_rx_stats,"aw",%nobits
 1138              		.align	2
 1139              		.type	midi_rx_stats, %object
 1140              		.size	midi_rx_stats, 16
 1141              	midi_rx_stats:
 1142 0000 00000000 		.space	16
 1142      00000000 
 1142      00000000 
 1142      00000000 
 1143              		.section	.data.midi_rx_dest,"aw"
 1144              		.type	midi_rx_dest, %object
 1145              		.size	midi_rx_dest, 1
 1146              	midi_rx_dest:
 1147 0000 03       		.byte	3
 1148              		.section	.bss.waMidiUsbTx,"aw",%nobits
 1149              		.align	3
 1150              		.type	waMidiUsbTx, %object
 1151              		.size	waMidiUsbTx, 752
 1152              	waMidiUsbTx:
 1153 0000 00000000 		.space	752
 1153      00000000 
 1153      00000000 
 1153      00000000 
 1153      00000000 
 1154              		.section	.rodata
 1155              		.align	2
 1156              	.LC0:
 1157 0000 4D494449 		.ascii	"MIDI_USB_TX\000"
 1157      5F555342 
 1157      5F545800 
 1158              		.section	.text.thdMidiUsbTx,"ax",%progbits
 1159              		.align	1
 1160              		.syntax unified
 1161              		.thumb
 1162              		.thumb_func
 1163              		.type	thdMidiUsbTx, %function
 1164              	thdMidiUsbTx:
ARM GAS  C:\Users\DEVELO~1\AppData\Local\Temp\ccBydanM.s 			page 22


 1165              	.LFB441:
 1166              		.loc 7 256 40
 1167              		.cfi_startproc
 1168              		@ args = 0, pretend = 0, frame = 104
 1169              		@ frame_needed = 1, uses_anonymous_args = 0
 1170 0000 80B5     		push	{r7, lr}
 1171              		.cfi_def_cfa_offset 8
 1172              		.cfi_offset 7, -8
 1173              		.cfi_offset 14, -4
 1174 0002 9AB0     		sub	sp, sp, #104
 1175              		.cfi_def_cfa_offset 112
 1176 0004 00AF     		add	r7, sp, #0
 1177              		.cfi_def_cfa_register 7
 1178 0006 7860     		str	r0, [r7, #4]
 1179              		.loc 7 259 3
 1180 0008 5248     		ldr	r0, .L65
 1181 000a FFF7FEFF 		bl	chRegSetThreadName
 1182              		.loc 7 262 10
 1183 000e 0023     		movs	r3, #0
 1184 0010 7B66     		str	r3, [r7, #100]
 1185              	.L64:
 1186              	.LBB56:
 1187              		.loc 7 265 5
 1188 0012 FFF7FEFF 		bl	midi_process_usb_rx
 1189              		.loc 7 268 17
 1190 0016 07F10C03 		add	r3, r7, #12
 1191 001a 0A22     		movs	r2, #10
 1192 001c 1946     		mov	r1, r3
 1193 001e 4E48     		ldr	r0, .L65+4
 1194 0020 FFF7FEFF 		bl	chMBFetchTimeout
 1195 0024 3866     		str	r0, [r7, #96]
 1196              		.loc 7 270 8
 1197 0026 3B6E     		ldr	r3, [r7, #96]
 1198 0028 002B     		cmp	r3, #0
 1199 002a 5BD1     		bne	.L56
 1200              		.loc 7 271 7
 1201 002c FFF7FEFF 		bl	midi_usb_queue_decrement
 1202              		.loc 7 272 33
 1203 0030 FB68     		ldr	r3, [r7, #12]
 1204 0032 1916     		asrs	r1, r3, #24
 1205              		.loc 7 272 12
 1206 0034 7B6E     		ldr	r3, [r7, #100]
 1207 0036 5A1C     		adds	r2, r3, #1
 1208 0038 7A66     		str	r2, [r7, #100]
 1209              		.loc 7 272 18
 1210 003a CAB2     		uxtb	r2, r1
 1211              		.loc 7 272 16
 1212 003c 6833     		adds	r3, r3, #104
 1213 003e 3B44     		add	r3, r3, r7
 1214 0040 03F8582C 		strb	r2, [r3, #-88]
 1215              		.loc 7 273 33
 1216 0044 FB68     		ldr	r3, [r7, #12]
 1217 0046 1914     		asrs	r1, r3, #16
 1218              		.loc 7 273 12
 1219 0048 7B6E     		ldr	r3, [r7, #100]
 1220 004a 5A1C     		adds	r2, r3, #1
 1221 004c 7A66     		str	r2, [r7, #100]
ARM GAS  C:\Users\DEVELO~1\AppData\Local\Temp\ccBydanM.s 			page 23


 1222              		.loc 7 273 18
 1223 004e CAB2     		uxtb	r2, r1
 1224              		.loc 7 273 16
 1225 0050 6833     		adds	r3, r3, #104
 1226 0052 3B44     		add	r3, r3, r7
 1227 0054 03F8582C 		strb	r2, [r3, #-88]
 1228              		.loc 7 274 33
 1229 0058 FB68     		ldr	r3, [r7, #12]
 1230 005a 1912     		asrs	r1, r3, #8
 1231              		.loc 7 274 12
 1232 005c 7B6E     		ldr	r3, [r7, #100]
 1233 005e 5A1C     		adds	r2, r3, #1
 1234 0060 7A66     		str	r2, [r7, #100]
 1235              		.loc 7 274 18
 1236 0062 CAB2     		uxtb	r2, r1
 1237              		.loc 7 274 16
 1238 0064 6833     		adds	r3, r3, #104
 1239 0066 3B44     		add	r3, r3, r7
 1240 0068 03F8582C 		strb	r2, [r3, #-88]
 1241              		.loc 7 275 18
 1242 006c F968     		ldr	r1, [r7, #12]
 1243              		.loc 7 275 12
 1244 006e 7B6E     		ldr	r3, [r7, #100]
 1245 0070 5A1C     		adds	r2, r3, #1
 1246 0072 7A66     		str	r2, [r7, #100]
 1247              		.loc 7 275 18
 1248 0074 CAB2     		uxtb	r2, r1
 1249              		.loc 7 275 16
 1250 0076 6833     		adds	r3, r3, #104
 1251 0078 3B44     		add	r3, r3, r7
 1252 007a 03F8582C 		strb	r2, [r3, #-88]
 1253              		.loc 7 277 10
 1254 007e 7B6E     		ldr	r3, [r7, #100]
 1255 0080 402B     		cmp	r3, #64
 1256 0082 C6D1     		bne	.L64
 1257              	.LBB57:
 1258              		.loc 7 278 28
 1259 0084 FFF7FEFF 		bl	midi_usb_ready
 1260 0088 0346     		mov	r3, r0
 1261 008a 87F85730 		strb	r3, [r7, #87]
 1262              		.loc 7 279 12
 1263 008e 97F85730 		ldrb	r3, [r7, #87]	@ zero_extendqisi2
 1264 0092 002B     		cmp	r3, #0
 1265 0094 1CD0     		beq	.L58
 1266              	.LBB58:
 1267              		.loc 7 280 27
 1268 0096 1423     		movs	r3, #20
 1269 0098 3B65     		str	r3, [r7, #80]
 1270              		.loc 7 281 15
 1271 009a 396D     		ldr	r1, [r7, #80]
 1272 009c 2F48     		ldr	r0, .L65+8
 1273 009e FFF7FEFF 		bl	chBSemWaitTimeout
 1274 00a2 0346     		mov	r3, r0
 1275              		.loc 7 281 14
 1276 00a4 002B     		cmp	r3, #0
 1277 00a6 0BD1     		bne	.L59
 1278              		.loc 7 282 13
ARM GAS  C:\Users\DEVELO~1\AppData\Local\Temp\ccBydanM.s 			page 24


 1279 00a8 07F11003 		add	r3, r7, #16
 1280 00ac 796E     		ldr	r1, [r7, #100]
 1281 00ae 1846     		mov	r0, r3
 1282 00b0 FFF7FEFF 		bl	midi_usb_start_tx
 1283              		.loc 7 283 26
 1284 00b4 2A4B     		ldr	r3, .L65+12
 1285 00b6 5B68     		ldr	r3, [r3, #4]
 1286              		.loc 7 283 42
 1287 00b8 0133     		adds	r3, r3, #1
 1288 00ba 294A     		ldr	r2, .L65+12
 1289 00bc 5360     		str	r3, [r2, #4]
 1290 00be 0EE0     		b	.L60
 1291              	.L59:
 1292              		.loc 7 286 47
 1293 00c0 274B     		ldr	r3, .L65+12
 1294 00c2 9A69     		ldr	r2, [r3, #24]
 1295              		.loc 7 286 52
 1296 00c4 7B6E     		ldr	r3, [r7, #100]
 1297 00c6 9B08     		lsrs	r3, r3, #2
 1298              		.loc 7 286 47
 1299 00c8 1344     		add	r3, r3, r2
 1300 00ca 254A     		ldr	r2, .L65+12
 1301 00cc 9361     		str	r3, [r2, #24]
 1302 00ce 06E0     		b	.L60
 1303              	.L58:
 1304              	.LBE58:
 1305              		.loc 7 289 45
 1306 00d0 234B     		ldr	r3, .L65+12
 1307 00d2 9A69     		ldr	r2, [r3, #24]
 1308              		.loc 7 289 50
 1309 00d4 7B6E     		ldr	r3, [r7, #100]
 1310 00d6 9B08     		lsrs	r3, r3, #2
 1311              		.loc 7 289 45
 1312 00d8 1344     		add	r3, r3, r2
 1313 00da 214A     		ldr	r2, .L65+12
 1314 00dc 9361     		str	r3, [r2, #24]
 1315              	.L60:
 1316              		.loc 7 291 11
 1317 00de 0023     		movs	r3, #0
 1318 00e0 7B66     		str	r3, [r7, #100]
 1319 00e2 96E7     		b	.L64
 1320              	.L56:
 1321              	.LBE57:
 1322              		.loc 7 293 15
 1323 00e4 7B6E     		ldr	r3, [r7, #100]
 1324 00e6 002B     		cmp	r3, #0
 1325 00e8 93D0     		beq	.L64
 1326              	.LBB59:
 1327              		.loc 7 295 7
 1328 00ea 0A21     		movs	r1, #10
 1329 00ec 1D48     		ldr	r0, .L65+16
 1330 00ee FFF7FEFF 		bl	chBSemWaitTimeout
 1331              		.loc 7 296 26
 1332 00f2 FFF7FEFF 		bl	midi_usb_ready
 1333 00f6 0346     		mov	r3, r0
 1334 00f8 87F85F30 		strb	r3, [r7, #95]
 1335              		.loc 7 297 10
ARM GAS  C:\Users\DEVELO~1\AppData\Local\Temp\ccBydanM.s 			page 25


 1336 00fc 97F85F30 		ldrb	r3, [r7, #95]	@ zero_extendqisi2
 1337 0100 002B     		cmp	r3, #0
 1338 0102 1CD0     		beq	.L61
 1339              	.LBB60:
 1340              		.loc 7 298 25
 1341 0104 1423     		movs	r3, #20
 1342 0106 BB65     		str	r3, [r7, #88]
 1343              		.loc 7 299 13
 1344 0108 B96D     		ldr	r1, [r7, #88]
 1345 010a 1448     		ldr	r0, .L65+8
 1346 010c FFF7FEFF 		bl	chBSemWaitTimeout
 1347 0110 0346     		mov	r3, r0
 1348              		.loc 7 299 12
 1349 0112 002B     		cmp	r3, #0
 1350 0114 0BD1     		bne	.L62
 1351              		.loc 7 300 11
 1352 0116 07F11003 		add	r3, r7, #16
 1353 011a 796E     		ldr	r1, [r7, #100]
 1354 011c 1846     		mov	r0, r3
 1355 011e FFF7FEFF 		bl	midi_usb_start_tx
 1356              		.loc 7 301 24
 1357 0122 0F4B     		ldr	r3, .L65+12
 1358 0124 5B68     		ldr	r3, [r3, #4]
 1359              		.loc 7 301 40
 1360 0126 0133     		adds	r3, r3, #1
 1361 0128 0D4A     		ldr	r2, .L65+12
 1362 012a 5360     		str	r3, [r2, #4]
 1363 012c 0EE0     		b	.L63
 1364              	.L62:
 1365              		.loc 7 303 45
 1366 012e 0C4B     		ldr	r3, .L65+12
 1367 0130 9A69     		ldr	r2, [r3, #24]
 1368              		.loc 7 303 50
 1369 0132 7B6E     		ldr	r3, [r7, #100]
 1370 0134 9B08     		lsrs	r3, r3, #2
 1371              		.loc 7 303 45
 1372 0136 1344     		add	r3, r3, r2
 1373 0138 094A     		ldr	r2, .L65+12
 1374 013a 9361     		str	r3, [r2, #24]
 1375 013c 06E0     		b	.L63
 1376              	.L61:
 1377              	.LBE60:
 1378              		.loc 7 306 43
 1379 013e 084B     		ldr	r3, .L65+12
 1380 0140 9A69     		ldr	r2, [r3, #24]
 1381              		.loc 7 306 48
 1382 0142 7B6E     		ldr	r3, [r7, #100]
 1383 0144 9B08     		lsrs	r3, r3, #2
 1384              		.loc 7 306 43
 1385 0146 1344     		add	r3, r3, r2
 1386 0148 054A     		ldr	r2, .L65+12
 1387 014a 9361     		str	r3, [r2, #24]
 1388              	.L63:
 1389              		.loc 7 308 9
 1390 014c 0023     		movs	r3, #0
 1391 014e 7B66     		str	r3, [r7, #100]
 1392              	.LBE59:
ARM GAS  C:\Users\DEVELO~1\AppData\Local\Temp\ccBydanM.s 			page 26


 1393              	.LBE56:
 1394              		.loc 7 264 16
 1395 0150 5FE7     		b	.L64
 1396              	.L66:
 1397 0152 00BF     		.align	2
 1398              	.L65:
 1399 0154 00000000 		.word	.LC0
 1400 0158 00000000 		.word	midi_usb_mb
 1401 015c 00000000 		.word	tx_sem
 1402 0160 00000000 		.word	midi_tx_stats
 1403 0164 00000000 		.word	sof_sem
 1404              		.cfi_endproc
 1405              	.LFE441:
 1406              		.size	thdMidiUsbTx, .-thdMidiUsbTx
 1407              		.section	.text.midi_init,"ax",%progbits
 1408              		.align	1
 1409              		.global	midi_init
 1410              		.syntax unified
 1411              		.thumb
 1412              		.thumb_func
 1413              		.type	midi_init, %function
 1414              	midi_init:
 1415              	.LFB442:
 1416              		.loc 7 325 22
 1417              		.cfi_startproc
 1418              		@ args = 0, pretend = 0, frame = 0
 1419              		@ frame_needed = 1, uses_anonymous_args = 0
 1420 0000 80B5     		push	{r7, lr}
 1421              		.cfi_def_cfa_offset 8
 1422              		.cfi_offset 7, -8
 1423              		.cfi_offset 14, -4
 1424 0002 82B0     		sub	sp, sp, #8
 1425              		.cfi_def_cfa_offset 16
 1426 0004 02AF     		add	r7, sp, #8
 1427              		.cfi_def_cfa 7, 8
 1428              		.loc 7 326 3
 1429 0006 FFF7FEFF 		bl	osalSysLock
 1430              		.loc 7 327 7
 1431 000a 1E4B     		ldr	r3, .L70
 1432 000c 1B78     		ldrb	r3, [r3]	@ zero_extendqisi2
 1433              		.loc 7 327 6
 1434 000e 002B     		cmp	r3, #0
 1435 0010 02D0     		beq	.L68
 1436              		.loc 7 328 5
 1437 0012 FFF7FEFF 		bl	osalSysUnlock
 1438              		.loc 7 329 5
 1439 0016 33E0     		b	.L67
 1440              	.L68:
 1441              		.loc 7 331 20
 1442 0018 1A4B     		ldr	r3, .L70
 1443 001a 0122     		movs	r2, #1
 1444 001c 1A70     		strb	r2, [r3]
 1445              		.loc 7 332 3
 1446 001e FFF7FEFF 		bl	osalSysUnlock
 1447              		.loc 7 335 3
 1448 0022 1949     		ldr	r1, .L70+4
 1449 0024 1948     		ldr	r0, .L70+8
ARM GAS  C:\Users\DEVELO~1\AppData\Local\Temp\ccBydanM.s 			page 27


 1450 0026 FFF7FEFF 		bl	sdStart
 1451              		.loc 7 336 23
 1452 002a 194B     		ldr	r3, .L70+12
 1453 002c 0022     		movs	r2, #0
 1454 002e 1A80     		strh	r2, [r3]	@ movhi
 1455              		.loc 7 337 29
 1456 0030 184B     		ldr	r3, .L70+16
 1457 0032 0022     		movs	r2, #0
 1458 0034 1A80     		strh	r2, [r3]	@ movhi
 1459              		.loc 7 338 26
 1460 0036 184B     		ldr	r3, .L70+20
 1461 0038 0022     		movs	r2, #0
 1462 003a 1A80     		strh	r2, [r3]	@ movhi
 1463              		.loc 7 339 32
 1464 003c 174B     		ldr	r3, .L70+24
 1465 003e 0022     		movs	r2, #0
 1466 0040 1A80     		strh	r2, [r3]	@ movhi
 1467              		.loc 7 340 21
 1468 0042 174B     		ldr	r3, .L70+28
 1469 0044 0022     		movs	r2, #0
 1470 0046 1A60     		str	r2, [r3]
 1471              		.loc 7 341 3
 1472 0048 4FF48072 		mov	r2, #256
 1473 004c 1549     		ldr	r1, .L70+32
 1474 004e 1648     		ldr	r0, .L70+36
 1475 0050 FFF7FEFF 		bl	chMBObjectInit
 1476              		.loc 7 342 3
 1477 0054 8022     		movs	r2, #128
 1478 0056 1549     		ldr	r1, .L70+40
 1479 0058 1548     		ldr	r0, .L70+44
 1480 005a FFF7FEFF 		bl	chMBObjectInit
 1481              		.loc 7 343 3
 1482 005e 0121     		movs	r1, #1
 1483 0060 1448     		ldr	r0, .L70+48
 1484 0062 FFF7FEFF 		bl	chBSemObjectInit
 1485              		.loc 7 344 3
 1486 0066 0121     		movs	r1, #1
 1487 0068 1348     		ldr	r0, .L70+52
 1488 006a FFF7FEFF 		bl	chBSemObjectInit
 1489              		.loc 7 345 3
 1490 006e 0023     		movs	r3, #0
 1491 0070 0093     		str	r3, [sp]
 1492 0072 124B     		ldr	r3, .L70+56
 1493 0074 8122     		movs	r2, #129
 1494 0076 4FF43C71 		mov	r1, #752
 1495 007a 1148     		ldr	r0, .L70+60
 1496 007c FFF7FEFF 		bl	chThdCreateStatic
 1497              	.L67:
 1498              		.loc 7 347 1
 1499 0080 BD46     		mov	sp, r7
 1500              		.cfi_def_cfa_register 13
 1501              		@ sp needed
 1502 0082 80BD     		pop	{r7, pc}
 1503              	.L71:
 1504              		.align	2
 1505              	.L70:
 1506 0084 00000000 		.word	midi_initialized
ARM GAS  C:\Users\DEVELO~1\AppData\Local\Temp\ccBydanM.s 			page 28


 1507 0088 00000000 		.word	uart_cfg.0
 1508 008c 00000000 		.word	SD5
 1509 0090 00000000 		.word	midi_usb_queue_fill
 1510 0094 00000000 		.word	midi_usb_queue_high_water
 1511 0098 00000000 		.word	midi_usb_rx_queue_fill
 1512 009c 00000000 		.word	midi_usb_rx_queue_high_water
 1513 00a0 00000000 		.word	midi_usb_rx_drops
 1514 00a4 00000000 		.word	midi_usb_queue
 1515 00a8 00000000 		.word	midi_usb_mb
 1516 00ac 00000000 		.word	midi_usb_rx_queue
 1517 00b0 00000000 		.word	midi_usb_rx_mb
 1518 00b4 00000000 		.word	tx_sem
 1519 00b8 00000000 		.word	sof_sem
 1520 00bc 00000000 		.word	thdMidiUsbTx
 1521 00c0 00000000 		.word	waMidiUsbTx
 1522              		.cfi_endproc
 1523              	.LFE442:
 1524              		.size	midi_init, .-midi_init
 1525              		.section	.text.midi_is_initialized,"ax",%progbits
 1526              		.align	1
 1527              		.global	midi_is_initialized
 1528              		.syntax unified
 1529              		.thumb
 1530              		.thumb_func
 1531              		.type	midi_is_initialized, %function
 1532              	midi_is_initialized:
 1533              	.LFB443:
 1534              		.loc 7 349 32
 1535              		.cfi_startproc
 1536              		@ args = 0, pretend = 0, frame = 8
 1537              		@ frame_needed = 1, uses_anonymous_args = 0
 1538 0000 80B5     		push	{r7, lr}
 1539              		.cfi_def_cfa_offset 8
 1540              		.cfi_offset 7, -8
 1541              		.cfi_offset 14, -4
 1542 0002 82B0     		sub	sp, sp, #8
 1543              		.cfi_def_cfa_offset 16
 1544 0004 00AF     		add	r7, sp, #0
 1545              		.cfi_def_cfa_register 7
 1546              		.loc 7 352 3
 1547 0006 FFF7FEFF 		bl	osalSysLock
 1548              		.loc 7 353 15
 1549 000a 054B     		ldr	r3, .L74
 1550 000c 1B78     		ldrb	r3, [r3]
 1551 000e FB71     		strb	r3, [r7, #7]
 1552              		.loc 7 354 3
 1553 0010 FFF7FEFF 		bl	osalSysUnlock
 1554              		.loc 7 356 10
 1555 0014 FB79     		ldrb	r3, [r7, #7]	@ zero_extendqisi2
 1556              		.loc 7 357 1
 1557 0016 1846     		mov	r0, r3
 1558 0018 0837     		adds	r7, r7, #8
 1559              		.cfi_def_cfa_offset 8
 1560 001a BD46     		mov	sp, r7
 1561              		.cfi_def_cfa_register 13
 1562              		@ sp needed
 1563 001c 80BD     		pop	{r7, pc}
ARM GAS  C:\Users\DEVELO~1\AppData\Local\Temp\ccBydanM.s 			page 29


 1564              	.L75:
 1565 001e 00BF     		.align	2
 1566              	.L74:
 1567 0020 00000000 		.word	midi_initialized
 1568              		.cfi_endproc
 1569              	.LFE443:
 1570              		.size	midi_is_initialized, .-midi_is_initialized
 1571              		.section	.text.send_uart,"ax",%progbits
 1572              		.align	1
 1573              		.syntax unified
 1574              		.thumb
 1575              		.thumb_func
 1576              		.type	send_uart, %function
 1577              	send_uart:
 1578              	.LFB444:
 1579              		.loc 7 368 55
 1580              		.cfi_startproc
 1581              		@ args = 0, pretend = 0, frame = 8
 1582              		@ frame_needed = 1, uses_anonymous_args = 0
 1583 0000 80B5     		push	{r7, lr}
 1584              		.cfi_def_cfa_offset 8
 1585              		.cfi_offset 7, -8
 1586              		.cfi_offset 14, -4
 1587 0002 82B0     		sub	sp, sp, #8
 1588              		.cfi_def_cfa_offset 16
 1589 0004 00AF     		add	r7, sp, #0
 1590              		.cfi_def_cfa_register 7
 1591 0006 7860     		str	r0, [r7, #4]
 1592 0008 3960     		str	r1, [r7]
 1593              		.loc 7 368 57
 1594 000a 4FF0FF33 		mov	r3, #-1
 1595 000e 3A68     		ldr	r2, [r7]
 1596 0010 7968     		ldr	r1, [r7, #4]
 1597 0012 0348     		ldr	r0, .L77
 1598 0014 FFF7FEFF 		bl	oqWriteTimeout
 1599              		.loc 7 368 87
 1600 0018 00BF     		nop
 1601 001a 0837     		adds	r7, r7, #8
 1602              		.cfi_def_cfa_offset 8
 1603 001c BD46     		mov	sp, r7
 1604              		.cfi_def_cfa_register 13
 1605              		@ sp needed
 1606 001e 80BD     		pop	{r7, pc}
 1607              	.L78:
 1608              		.align	2
 1609              	.L77:
 1610 0020 30000000 		.word	SD5+48
 1611              		.cfi_endproc
 1612              	.LFE444:
 1613              		.size	send_uart, .-send_uart
 1614              		.section	.text.post_mb_or_drop,"ax",%progbits
 1615              		.align	1
 1616              		.syntax unified
 1617              		.thumb
 1618              		.thumb_func
 1619              		.type	post_mb_or_drop, %function
 1620              	post_mb_or_drop:
ARM GAS  C:\Users\DEVELO~1\AppData\Local\Temp\ccBydanM.s 			page 30


 1621              	.LFB445:
 1622              		.loc 7 378 62
 1623              		.cfi_startproc
 1624              		@ args = 0, pretend = 0, frame = 16
 1625              		@ frame_needed = 1, uses_anonymous_args = 0
 1626 0000 80B5     		push	{r7, lr}
 1627              		.cfi_def_cfa_offset 8
 1628              		.cfi_offset 7, -8
 1629              		.cfi_offset 14, -4
 1630 0002 84B0     		sub	sp, sp, #16
 1631              		.cfi_def_cfa_offset 24
 1632 0004 00AF     		add	r7, sp, #0
 1633              		.cfi_def_cfa_register 7
 1634 0006 7860     		str	r0, [r7, #4]
 1635 0008 0B46     		mov	r3, r1
 1636 000a FB70     		strb	r3, [r7, #3]
 1637              		.loc 7 379 7
 1638 000c 0022     		movs	r2, #0
 1639 000e 7968     		ldr	r1, [r7, #4]
 1640 0010 1848     		ldr	r0, .L87
 1641 0012 FFF7FEFF 		bl	chMBPostTimeout
 1642 0016 0346     		mov	r3, r0
 1643              		.loc 7 379 6
 1644 0018 002B     		cmp	r3, #0
 1645 001a 25D0     		beq	.L80
 1646              		.loc 7 380 8
 1647 001c FB78     		ldrb	r3, [r7, #3]	@ zero_extendqisi2
 1648 001e 002B     		cmp	r3, #0
 1649 0020 1CD0     		beq	.L81
 1650              	.LBB61:
 1651              		.loc 7 382 11
 1652 0022 07F10C03 		add	r3, r7, #12
 1653 0026 0022     		movs	r2, #0
 1654 0028 1946     		mov	r1, r3
 1655 002a 1248     		ldr	r0, .L87
 1656 002c FFF7FEFF 		bl	chMBFetchTimeout
 1657 0030 0346     		mov	r3, r0
 1658              		.loc 7 382 10
 1659 0032 002B     		cmp	r3, #0
 1660 0034 01D1     		bne	.L82
 1661              		.loc 7 383 9
 1662 0036 FFF7FEFF 		bl	midi_usb_queue_decrement
 1663              	.L82:
 1664              		.loc 7 385 11
 1665 003a 0022     		movs	r2, #0
 1666 003c 7968     		ldr	r1, [r7, #4]
 1667 003e 0D48     		ldr	r0, .L87
 1668 0040 FFF7FEFF 		bl	chMBPostTimeout
 1669 0044 0346     		mov	r3, r0
 1670              		.loc 7 385 10
 1671 0046 002B     		cmp	r3, #0
 1672 0048 05D0     		beq	.L83
 1673              		.loc 7 386 22
 1674 004a 0B4B     		ldr	r3, .L87+4
 1675 004c 5B69     		ldr	r3, [r3, #20]
 1676              		.loc 7 386 34
 1677 004e 0133     		adds	r3, r3, #1
ARM GAS  C:\Users\DEVELO~1\AppData\Local\Temp\ccBydanM.s 			page 31


 1678 0050 094A     		ldr	r2, .L87+4
 1679 0052 5361     		str	r3, [r2, #20]
 1680              	.LBE61:
 1681              		.loc 7 395 1
 1682 0054 0AE0     		b	.L86
 1683              	.L83:
 1684              	.LBB62:
 1685              		.loc 7 388 9
 1686 0056 FFF7FEFF 		bl	midi_usb_queue_increment
 1687              	.LBE62:
 1688              		.loc 7 395 1
 1689 005a 07E0     		b	.L86
 1690              	.L81:
 1691              		.loc 7 390 20
 1692 005c 064B     		ldr	r3, .L87+4
 1693 005e 5B69     		ldr	r3, [r3, #20]
 1694              		.loc 7 390 32
 1695 0060 0133     		adds	r3, r3, #1
 1696 0062 054A     		ldr	r2, .L87+4
 1697 0064 5361     		str	r3, [r2, #20]
 1698              		.loc 7 395 1
 1699 0066 01E0     		b	.L86
 1700              	.L80:
 1701              		.loc 7 393 5
 1702 0068 FFF7FEFF 		bl	midi_usb_queue_increment
 1703              	.L86:
 1704              		.loc 7 395 1
 1705 006c 00BF     		nop
 1706 006e 1037     		adds	r7, r7, #16
 1707              		.cfi_def_cfa_offset 8
 1708 0070 BD46     		mov	sp, r7
 1709              		.cfi_def_cfa_register 13
 1710              		@ sp needed
 1711 0072 80BD     		pop	{r7, pc}
 1712              	.L88:
 1713              		.align	2
 1714              	.L87:
 1715 0074 00000000 		.word	midi_usb_mb
 1716 0078 00000000 		.word	midi_tx_stats
 1717              		.cfi_endproc
 1718              	.LFE445:
 1719              		.size	post_mb_or_drop, .-post_mb_or_drop
 1720              		.section	.text.usb_midi_decode_packet,"ax",%progbits
 1721              		.align	1
 1722              		.syntax unified
 1723              		.thumb
 1724              		.thumb_func
 1725              		.type	usb_midi_decode_packet, %function
 1726              	usb_midi_decode_packet:
 1727              	.LFB446:
 1728              		.loc 7 401 75
 1729              		.cfi_startproc
 1730              		@ args = 0, pretend = 0, frame = 16
 1731              		@ frame_needed = 1, uses_anonymous_args = 0
 1732              		@ link register save eliminated.
 1733 0000 80B4     		push	{r7}
 1734              		.cfi_def_cfa_offset 4
ARM GAS  C:\Users\DEVELO~1\AppData\Local\Temp\ccBydanM.s 			page 32


 1735              		.cfi_offset 7, -4
 1736 0002 85B0     		sub	sp, sp, #20
 1737              		.cfi_def_cfa_offset 24
 1738 0004 00AF     		add	r7, sp, #0
 1739              		.cfi_def_cfa_register 7
 1740 0006 7860     		str	r0, [r7, #4]
 1741 0008 3960     		str	r1, [r7]
 1742              		.loc 7 402 6
 1743 000a 3B68     		ldr	r3, [r7]
 1744 000c 002B     		cmp	r3, #0
 1745 000e 01D1     		bne	.L90
 1746              		.loc 7 403 12
 1747 0010 0023     		movs	r3, #0
 1748 0012 94E0     		b	.L91
 1749              	.L90:
 1750              		.loc 7 406 40
 1751 0014 7B68     		ldr	r3, [r7, #4]
 1752 0016 1B78     		ldrb	r3, [r3]	@ zero_extendqisi2
 1753              		.loc 7 406 17
 1754 0018 03F00F03 		and	r3, r3, #15
 1755 001c FB73     		strb	r3, [r7, #15]
 1756              		.loc 7 408 3
 1757 001e FB7B     		ldrb	r3, [r7, #15]	@ zero_extendqisi2
 1758 0020 023B     		subs	r3, r3, #2
 1759 0022 0D2B     		cmp	r3, #13
 1760 0024 00F28980 		bhi	.L101
 1761 0028 01A2     		adr	r2, .L94
 1762 002a 52F823F0 		ldr	pc, [r2, r3, lsl #2]
 1763 002e 00BF     		.p2align 2
 1764              	.L94:
 1765 0030 AF000000 		.word	.L98+1
 1766 0034 CD000000 		.word	.L97+1
 1767 0038 3B010000 		.word	.L101+1
 1768 003c 3B010000 		.word	.L101+1
 1769 0040 3B010000 		.word	.L101+1
 1770 0044 3B010000 		.word	.L101+1
 1771 0048 69000000 		.word	.L95+1
 1772 004c 69000000 		.word	.L95+1
 1773 0050 69000000 		.word	.L95+1
 1774 0054 69000000 		.word	.L95+1
 1775 0058 91000000 		.word	.L96+1
 1776 005c 91000000 		.word	.L96+1
 1777 0060 69000000 		.word	.L95+1
 1778 0064 F5000000 		.word	.L93+1
 1779              		.p2align 1
 1780              	.L95:
 1781              		.loc 7 414 16
 1782 0068 3B68     		ldr	r3, [r7]
 1783 006a 0322     		movs	r2, #3
 1784 006c DA70     		strb	r2, [r3, #3]
 1785              		.loc 7 415 25
 1786 006e 7B68     		ldr	r3, [r7, #4]
 1787 0070 0133     		adds	r3, r3, #1
 1788 0072 1A78     		ldrb	r2, [r3]	@ zero_extendqisi2
 1789              		.loc 7 415 20
 1790 0074 3B68     		ldr	r3, [r7]
 1791 0076 1A70     		strb	r2, [r3]
ARM GAS  C:\Users\DEVELO~1\AppData\Local\Temp\ccBydanM.s 			page 33


 1792              		.loc 7 416 25
 1793 0078 7B68     		ldr	r3, [r7, #4]
 1794 007a 0233     		adds	r3, r3, #2
 1795 007c 1A78     		ldrb	r2, [r3]	@ zero_extendqisi2
 1796              		.loc 7 416 20
 1797 007e 3B68     		ldr	r3, [r7]
 1798 0080 5A70     		strb	r2, [r3, #1]
 1799              		.loc 7 417 25
 1800 0082 7B68     		ldr	r3, [r7, #4]
 1801 0084 0333     		adds	r3, r3, #3
 1802 0086 1A78     		ldrb	r2, [r3]	@ zero_extendqisi2
 1803              		.loc 7 417 20
 1804 0088 3B68     		ldr	r3, [r7]
 1805 008a 9A70     		strb	r2, [r3, #2]
 1806              		.loc 7 418 14
 1807 008c 0123     		movs	r3, #1
 1808 008e 56E0     		b	.L91
 1809              	.L96:
 1810              		.loc 7 422 16
 1811 0090 3B68     		ldr	r3, [r7]
 1812 0092 0222     		movs	r2, #2
 1813 0094 DA70     		strb	r2, [r3, #3]
 1814              		.loc 7 423 25
 1815 0096 7B68     		ldr	r3, [r7, #4]
 1816 0098 0133     		adds	r3, r3, #1
 1817 009a 1A78     		ldrb	r2, [r3]	@ zero_extendqisi2
 1818              		.loc 7 423 20
 1819 009c 3B68     		ldr	r3, [r7]
 1820 009e 1A70     		strb	r2, [r3]
 1821              		.loc 7 424 25
 1822 00a0 7B68     		ldr	r3, [r7, #4]
 1823 00a2 0233     		adds	r3, r3, #2
 1824 00a4 1A78     		ldrb	r2, [r3]	@ zero_extendqisi2
 1825              		.loc 7 424 20
 1826 00a6 3B68     		ldr	r3, [r7]
 1827 00a8 5A70     		strb	r2, [r3, #1]
 1828              		.loc 7 425 14
 1829 00aa 0123     		movs	r3, #1
 1830 00ac 47E0     		b	.L91
 1831              	.L98:
 1832              		.loc 7 428 16
 1833 00ae 3B68     		ldr	r3, [r7]
 1834 00b0 0222     		movs	r2, #2
 1835 00b2 DA70     		strb	r2, [r3, #3]
 1836              		.loc 7 429 25
 1837 00b4 7B68     		ldr	r3, [r7, #4]
 1838 00b6 0133     		adds	r3, r3, #1
 1839 00b8 1A78     		ldrb	r2, [r3]	@ zero_extendqisi2
 1840              		.loc 7 429 20
 1841 00ba 3B68     		ldr	r3, [r7]
 1842 00bc 1A70     		strb	r2, [r3]
 1843              		.loc 7 430 25
 1844 00be 7B68     		ldr	r3, [r7, #4]
 1845 00c0 0233     		adds	r3, r3, #2
 1846 00c2 1A78     		ldrb	r2, [r3]	@ zero_extendqisi2
 1847              		.loc 7 430 20
 1848 00c4 3B68     		ldr	r3, [r7]
ARM GAS  C:\Users\DEVELO~1\AppData\Local\Temp\ccBydanM.s 			page 34


 1849 00c6 5A70     		strb	r2, [r3, #1]
 1850              		.loc 7 431 14
 1851 00c8 0123     		movs	r3, #1
 1852 00ca 38E0     		b	.L91
 1853              	.L97:
 1854              		.loc 7 434 16
 1855 00cc 3B68     		ldr	r3, [r7]
 1856 00ce 0322     		movs	r2, #3
 1857 00d0 DA70     		strb	r2, [r3, #3]
 1858              		.loc 7 435 25
 1859 00d2 7B68     		ldr	r3, [r7, #4]
 1860 00d4 0133     		adds	r3, r3, #1
 1861 00d6 1A78     		ldrb	r2, [r3]	@ zero_extendqisi2
 1862              		.loc 7 435 20
 1863 00d8 3B68     		ldr	r3, [r7]
 1864 00da 1A70     		strb	r2, [r3]
 1865              		.loc 7 436 25
 1866 00dc 7B68     		ldr	r3, [r7, #4]
 1867 00de 0233     		adds	r3, r3, #2
 1868 00e0 1A78     		ldrb	r2, [r3]	@ zero_extendqisi2
 1869              		.loc 7 436 20
 1870 00e2 3B68     		ldr	r3, [r7]
 1871 00e4 5A70     		strb	r2, [r3, #1]
 1872              		.loc 7 437 25
 1873 00e6 7B68     		ldr	r3, [r7, #4]
 1874 00e8 0333     		adds	r3, r3, #3
 1875 00ea 1A78     		ldrb	r2, [r3]	@ zero_extendqisi2
 1876              		.loc 7 437 20
 1877 00ec 3B68     		ldr	r3, [r7]
 1878 00ee 9A70     		strb	r2, [r3, #2]
 1879              		.loc 7 438 14
 1880 00f0 0123     		movs	r3, #1
 1881 00f2 24E0     		b	.L91
 1882              	.L93:
 1883              		.loc 7 441 18
 1884 00f4 7B68     		ldr	r3, [r7, #4]
 1885 00f6 0133     		adds	r3, r3, #1
 1886 00f8 1B78     		ldrb	r3, [r3]	@ zero_extendqisi2
 1887              		.loc 7 441 7
 1888 00fa F83B     		subs	r3, r3, #248
 1889 00fc 072B     		cmp	r3, #7
 1890 00fe 8CBF     		ite	hi
 1891 0100 0122     		movhi	r2, #1
 1892 0102 0022     		movls	r2, #0
 1893 0104 D2B2     		uxtb	r2, r2
 1894 0106 002A     		cmp	r2, #0
 1895 0108 15D1     		bne	.L99
 1896 010a DD22     		movs	r2, #221
 1897 010c 22FA03F3 		lsr	r3, r2, r3
 1898 0110 03F00103 		and	r3, r3, #1
 1899 0114 002B     		cmp	r3, #0
 1900 0116 14BF     		ite	ne
 1901 0118 0123     		movne	r3, #1
 1902 011a 0023     		moveq	r3, #0
 1903 011c DBB2     		uxtb	r3, r3
 1904 011e 002B     		cmp	r3, #0
 1905 0120 09D0     		beq	.L99
ARM GAS  C:\Users\DEVELO~1\AppData\Local\Temp\ccBydanM.s 			page 35


 1906              		.loc 7 448 20
 1907 0122 3B68     		ldr	r3, [r7]
 1908 0124 0122     		movs	r2, #1
 1909 0126 DA70     		strb	r2, [r3, #3]
 1910              		.loc 7 449 29
 1911 0128 7B68     		ldr	r3, [r7, #4]
 1912 012a 0133     		adds	r3, r3, #1
 1913 012c 1A78     		ldrb	r2, [r3]	@ zero_extendqisi2
 1914              		.loc 7 449 24
 1915 012e 3B68     		ldr	r3, [r7]
 1916 0130 1A70     		strb	r2, [r3]
 1917              		.loc 7 450 18
 1918 0132 0123     		movs	r3, #1
 1919 0134 03E0     		b	.L91
 1920              	.L99:
 1921              		.loc 7 452 18
 1922 0136 0023     		movs	r3, #0
 1923 0138 01E0     		b	.L91
 1924              	.L101:
 1925              		.loc 7 457 7
 1926 013a 00BF     		nop
 1927              		.loc 7 460 10
 1928 013c 0023     		movs	r3, #0
 1929              	.L91:
 1930              		.loc 7 461 1
 1931 013e 1846     		mov	r0, r3
 1932 0140 1437     		adds	r7, r7, #20
 1933              		.cfi_def_cfa_offset 4
 1934 0142 BD46     		mov	sp, r7
 1935              		.cfi_def_cfa_register 13
 1936              		@ sp needed
 1937 0144 80BC     		pop	{r7}
 1938              		.cfi_restore 7
 1939              		.cfi_def_cfa_offset 0
 1940 0146 7047     		bx	lr
 1941              		.cfi_endproc
 1942              	.LFE446:
 1943              		.size	usb_midi_decode_packet, .-usb_midi_decode_packet
 1944              		.section	.text.midi_dispatch_rx_message,"ax",%progbits
 1945              		.align	1
 1946              		.syntax unified
 1947              		.thumb
 1948              		.thumb_func
 1949              		.type	midi_dispatch_rx_message, %function
 1950              	midi_dispatch_rx_message:
 1951              	.LFB447:
 1952              		.loc 7 463 61
 1953              		.cfi_startproc
 1954              		@ args = 0, pretend = 0, frame = 8
 1955              		@ frame_needed = 1, uses_anonymous_args = 0
 1956 0000 80B5     		push	{r7, lr}
 1957              		.cfi_def_cfa_offset 8
 1958              		.cfi_offset 7, -8
 1959              		.cfi_offset 14, -4
 1960 0002 82B0     		sub	sp, sp, #8
 1961              		.cfi_def_cfa_offset 16
 1962 0004 00AF     		add	r7, sp, #0
ARM GAS  C:\Users\DEVELO~1\AppData\Local\Temp\ccBydanM.s 			page 36


 1963              		.cfi_def_cfa_register 7
 1964 0006 7860     		str	r0, [r7, #4]
 1965              		.loc 7 464 28
 1966 0008 7A68     		ldr	r2, [r7, #4]
 1967              		.loc 7 464 39
 1968 000a 7B68     		ldr	r3, [r7, #4]
 1969 000c DB78     		ldrb	r3, [r3, #3]	@ zero_extendqisi2
 1970              		.loc 7 464 3
 1971 000e 1946     		mov	r1, r3
 1972 0010 1046     		mov	r0, r2
 1973 0012 FFF7FEFF 		bl	midi_internal_receive
 1974              		.loc 7 466 21
 1975 0016 094B     		ldr	r3, .L106
 1976 0018 1B78     		ldrb	r3, [r3]	@ zero_extendqisi2
 1977              		.loc 7 466 6
 1978 001a 012B     		cmp	r3, #1
 1979 001c 03D0     		beq	.L103
 1980              		.loc 7 466 57 discriminator 1
 1981 001e 074B     		ldr	r3, .L106
 1982 0020 1B78     		ldrb	r3, [r3]	@ zero_extendqisi2
 1983              		.loc 7 466 40 discriminator 1
 1984 0022 032B     		cmp	r3, #3
 1985 0024 06D1     		bne	.L105
 1986              	.L103:
 1987              		.loc 7 467 18
 1988 0026 7A68     		ldr	r2, [r7, #4]
 1989              		.loc 7 467 29
 1990 0028 7B68     		ldr	r3, [r7, #4]
 1991 002a DB78     		ldrb	r3, [r3, #3]	@ zero_extendqisi2
 1992              		.loc 7 467 5
 1993 002c 1946     		mov	r1, r3
 1994 002e 1046     		mov	r0, r2
 1995 0030 FFF7FEFF 		bl	send_uart
 1996              	.L105:
 1997              		.loc 7 469 1
 1998 0034 00BF     		nop
 1999 0036 0837     		adds	r7, r7, #8
 2000              		.cfi_def_cfa_offset 8
 2001 0038 BD46     		mov	sp, r7
 2002              		.cfi_def_cfa_register 13
 2003              		@ sp needed
 2004 003a 80BD     		pop	{r7, pc}
 2005              	.L107:
 2006              		.align	2
 2007              	.L106:
 2008 003c 00000000 		.word	midi_rx_dest
 2009              		.cfi_endproc
 2010              	.LFE447:
 2011              		.size	midi_dispatch_rx_message, .-midi_dispatch_rx_message
 2012              		.section	.text.midi_process_usb_rx,"ax",%progbits
 2013              		.align	1
 2014              		.syntax unified
 2015              		.thumb
 2016              		.thumb_func
 2017              		.type	midi_process_usb_rx, %function
 2018              	midi_process_usb_rx:
 2019              	.LFB448:
ARM GAS  C:\Users\DEVELO~1\AppData\Local\Temp\ccBydanM.s 			page 37


 2020              		.loc 7 471 39
 2021              		.cfi_startproc
 2022              		@ args = 0, pretend = 0, frame = 24
 2023              		@ frame_needed = 1, uses_anonymous_args = 0
 2024 0000 80B5     		push	{r7, lr}
 2025              		.cfi_def_cfa_offset 8
 2026              		.cfi_offset 7, -8
 2027              		.cfi_offset 14, -4
 2028 0002 86B0     		sub	sp, sp, #24
 2029              		.cfi_def_cfa_offset 32
 2030 0004 00AF     		add	r7, sp, #0
 2031              		.cfi_def_cfa_register 7
 2032              		.loc 7 472 18
 2033 0006 1023     		movs	r3, #16
 2034 0008 3B61     		str	r3, [r7, #16]
 2035              		.loc 7 473 12
 2036 000a 0023     		movs	r3, #0
 2037 000c 7B61     		str	r3, [r7, #20]
 2038              		.loc 7 476 9
 2039 000e 30E0     		b	.L109
 2040              	.L113:
 2041              	.LBB63:
 2042              		.loc 7 478 5
 2043 0010 FFF7FEFF 		bl	osalSysLock
 2044              		.loc 7 479 5
 2045 0014 FFF7FEFF 		bl	midi_usb_rx_queue_decrement
 2046              		.loc 7 480 5
 2047 0018 FFF7FEFF 		bl	osalSysUnlock
 2048              		.loc 7 483 29
 2049 001c FB68     		ldr	r3, [r7, #12]
 2050 001e 1B16     		asrs	r3, r3, #24
 2051              		.loc 7 483 14
 2052 0020 DBB2     		uxtb	r3, r3
 2053              		.loc 7 483 12
 2054 0022 3B72     		strb	r3, [r7, #8]
 2055              		.loc 7 484 29
 2056 0024 FB68     		ldr	r3, [r7, #12]
 2057 0026 1B14     		asrs	r3, r3, #16
 2058              		.loc 7 484 14
 2059 0028 DBB2     		uxtb	r3, r3
 2060              		.loc 7 484 12
 2061 002a 7B72     		strb	r3, [r7, #9]
 2062              		.loc 7 485 29
 2063 002c FB68     		ldr	r3, [r7, #12]
 2064 002e 1B12     		asrs	r3, r3, #8
 2065              		.loc 7 485 14
 2066 0030 DBB2     		uxtb	r3, r3
 2067              		.loc 7 485 12
 2068 0032 BB72     		strb	r3, [r7, #10]
 2069              		.loc 7 486 14
 2070 0034 FB68     		ldr	r3, [r7, #12]
 2071 0036 DBB2     		uxtb	r3, r3
 2072              		.loc 7 486 12
 2073 0038 FB72     		strb	r3, [r7, #11]
 2074              		.loc 7 489 9
 2075 003a 3A1D     		adds	r2, r7, #4
 2076 003c 07F10803 		add	r3, r7, #8
ARM GAS  C:\Users\DEVELO~1\AppData\Local\Temp\ccBydanM.s 			page 38


 2077 0040 1146     		mov	r1, r2
 2078 0042 1846     		mov	r0, r3
 2079 0044 FFF7FEFF 		bl	usb_midi_decode_packet
 2080 0048 0346     		mov	r3, r0
 2081              		.loc 7 489 8
 2082 004a 002B     		cmp	r3, #0
 2083 004c 09D0     		beq	.L110
 2084              		.loc 7 490 7
 2085 004e 3B1D     		adds	r3, r7, #4
 2086 0050 1846     		mov	r0, r3
 2087 0052 FFF7FEFF 		bl	midi_dispatch_rx_message
 2088              		.loc 7 491 20
 2089 0056 104B     		ldr	r3, .L115
 2090 0058 9B68     		ldr	r3, [r3, #8]
 2091              		.loc 7 491 35
 2092 005a 0133     		adds	r3, r3, #1
 2093 005c 0E4A     		ldr	r2, .L115
 2094 005e 9360     		str	r3, [r2, #8]
 2095 0060 04E0     		b	.L111
 2096              	.L110:
 2097              		.loc 7 493 20
 2098 0062 0D4B     		ldr	r3, .L115
 2099 0064 DB68     		ldr	r3, [r3, #12]
 2100              		.loc 7 493 35
 2101 0066 0133     		adds	r3, r3, #1
 2102 0068 0B4A     		ldr	r2, .L115
 2103 006a D360     		str	r3, [r2, #12]
 2104              	.L111:
 2105              		.loc 7 496 14
 2106 006c 7B69     		ldr	r3, [r7, #20]
 2107 006e 0133     		adds	r3, r3, #1
 2108 0070 7B61     		str	r3, [r7, #20]
 2109              	.L109:
 2110              	.LBE63:
 2111              		.loc 7 476 34
 2112 0072 7A69     		ldr	r2, [r7, #20]
 2113 0074 3B69     		ldr	r3, [r7, #16]
 2114 0076 9A42     		cmp	r2, r3
 2115 0078 09D2     		bcs	.L114
 2116              		.loc 7 477 11 discriminator 1
 2117 007a 07F10C03 		add	r3, r7, #12
 2118 007e 0022     		movs	r2, #0
 2119 0080 1946     		mov	r1, r3
 2120 0082 0648     		ldr	r0, .L115+4
 2121 0084 FFF7FEFF 		bl	chMBFetchTimeout
 2122 0088 0346     		mov	r3, r0
 2123              		.loc 7 476 34 discriminator 1
 2124 008a 002B     		cmp	r3, #0
 2125 008c C0D0     		beq	.L113
 2126              	.L114:
 2127              		.loc 7 498 1
 2128 008e 00BF     		nop
 2129 0090 1837     		adds	r7, r7, #24
 2130              		.cfi_def_cfa_offset 8
 2131 0092 BD46     		mov	sp, r7
 2132              		.cfi_def_cfa_register 13
 2133              		@ sp needed
ARM GAS  C:\Users\DEVELO~1\AppData\Local\Temp\ccBydanM.s 			page 39


 2134 0094 80BD     		pop	{r7, pc}
 2135              	.L116:
 2136 0096 00BF     		.align	2
 2137              	.L115:
 2138 0098 00000000 		.word	midi_rx_stats
 2139 009c 00000000 		.word	midi_usb_rx_mb
 2140              		.cfi_endproc
 2141              	.LFE448:
 2142              		.size	midi_process_usb_rx, .-midi_process_usb_rx
 2143              		.section	.text.send_usb,"ax",%progbits
 2144              		.align	1
 2145              		.syntax unified
 2146              		.thumb
 2147              		.thumb_func
 2148              		.type	send_usb, %function
 2149              	send_usb:
 2150              	.LFB449:
 2151              		.loc 7 518 54
 2152              		.cfi_startproc
 2153              		@ args = 0, pretend = 0, frame = 32
 2154              		@ frame_needed = 1, uses_anonymous_args = 0
 2155 0000 80B5     		push	{r7, lr}
 2156              		.cfi_def_cfa_offset 8
 2157              		.cfi_offset 7, -8
 2158              		.cfi_offset 14, -4
 2159 0002 88B0     		sub	sp, sp, #32
 2160              		.cfi_def_cfa_offset 40
 2161 0004 00AF     		add	r7, sp, #0
 2162              		.cfi_def_cfa_register 7
 2163 0006 7860     		str	r0, [r7, #4]
 2164 0008 3960     		str	r1, [r7]
 2165              		.loc 7 519 11
 2166 000a 0023     		movs	r3, #0
 2167 000c BB60     		str	r3, [r7, #8]
 2168              		.loc 7 520 17
 2169 000e 7B68     		ldr	r3, [r7, #4]
 2170 0010 1B78     		ldrb	r3, [r3]
 2171 0012 BB77     		strb	r3, [r7, #30]
 2172              		.loc 7 521 17
 2173 0014 0023     		movs	r3, #0
 2174 0016 7B77     		strb	r3, [r7, #29]
 2175              		.loc 7 523 8
 2176 0018 0023     		movs	r3, #0
 2177 001a FB77     		strb	r3, [r7, #31]
 2178              		.loc 7 526 11
 2179 001c BB7F     		ldrb	r3, [r7, #30]	@ zero_extendqisi2
 2180 001e 03F0F003 		and	r3, r3, #240
 2181              		.loc 7 526 6
 2182 0022 802B     		cmp	r3, #128
 2183 0024 15D1     		bne	.L118
 2184              		.loc 7 526 25 discriminator 1
 2185 0026 3B68     		ldr	r3, [r7]
 2186 0028 022B     		cmp	r3, #2
 2187 002a 12D9     		bls	.L118
 2188              		.loc 7 526 46 discriminator 2
 2189 002c 7B7F     		ldrb	r3, [r7, #29]
 2190 002e 43F00803 		orr	r3, r3, #8
ARM GAS  C:\Users\DEVELO~1\AppData\Local\Temp\ccBydanM.s 			page 40


 2191 0032 DBB2     		uxtb	r3, r3
 2192 0034 3B72     		strb	r3, [r7, #8]
 2193              		.loc 7 526 72 discriminator 2
 2194 0036 7B68     		ldr	r3, [r7, #4]
 2195 0038 1B78     		ldrb	r3, [r3]	@ zero_extendqisi2
 2196              		.loc 7 526 68 discriminator 2
 2197 003a 7B72     		strb	r3, [r7, #9]
 2198              		.loc 7 526 90 discriminator 2
 2199 003c 7B68     		ldr	r3, [r7, #4]
 2200 003e 0133     		adds	r3, r3, #1
 2201 0040 1B78     		ldrb	r3, [r3]	@ zero_extendqisi2
 2202              		.loc 7 526 86 discriminator 2
 2203 0042 BB72     		strb	r3, [r7, #10]
 2204              		.loc 7 526 108 discriminator 2
 2205 0044 7B68     		ldr	r3, [r7, #4]
 2206 0046 0233     		adds	r3, r3, #2
 2207 0048 1B78     		ldrb	r3, [r3]	@ zero_extendqisi2
 2208              		.loc 7 526 104 discriminator 2
 2209 004a FB72     		strb	r3, [r7, #11]
 2210              		.loc 7 526 120 discriminator 2
 2211 004c 0123     		movs	r3, #1
 2212 004e FB77     		strb	r3, [r7, #31]
 2213 0050 78E1     		b	.L119
 2214              	.L118:
 2215              		.loc 7 527 16
 2216 0052 BB7F     		ldrb	r3, [r7, #30]	@ zero_extendqisi2
 2217 0054 03F0F003 		and	r3, r3, #240
 2218              		.loc 7 527 11
 2219 0058 902B     		cmp	r3, #144
 2220 005a 15D1     		bne	.L120
 2221              		.loc 7 527 30 discriminator 1
 2222 005c 3B68     		ldr	r3, [r7]
 2223 005e 022B     		cmp	r3, #2
 2224 0060 12D9     		bls	.L120
 2225              		.loc 7 527 51 discriminator 2
 2226 0062 7B7F     		ldrb	r3, [r7, #29]
 2227 0064 43F00903 		orr	r3, r3, #9
 2228 0068 DBB2     		uxtb	r3, r3
 2229 006a 3B72     		strb	r3, [r7, #8]
 2230              		.loc 7 527 77 discriminator 2
 2231 006c 7B68     		ldr	r3, [r7, #4]
 2232 006e 1B78     		ldrb	r3, [r3]	@ zero_extendqisi2
 2233              		.loc 7 527 73 discriminator 2
 2234 0070 7B72     		strb	r3, [r7, #9]
 2235              		.loc 7 527 95 discriminator 2
 2236 0072 7B68     		ldr	r3, [r7, #4]
 2237 0074 0133     		adds	r3, r3, #1
 2238 0076 1B78     		ldrb	r3, [r3]	@ zero_extendqisi2
 2239              		.loc 7 527 91 discriminator 2
 2240 0078 BB72     		strb	r3, [r7, #10]
 2241              		.loc 7 527 113 discriminator 2
 2242 007a 7B68     		ldr	r3, [r7, #4]
 2243 007c 0233     		adds	r3, r3, #2
 2244 007e 1B78     		ldrb	r3, [r3]	@ zero_extendqisi2
 2245              		.loc 7 527 109 discriminator 2
 2246 0080 FB72     		strb	r3, [r7, #11]
 2247              		.loc 7 527 125 discriminator 2
ARM GAS  C:\Users\DEVELO~1\AppData\Local\Temp\ccBydanM.s 			page 41


 2248 0082 0123     		movs	r3, #1
 2249 0084 FB77     		strb	r3, [r7, #31]
 2250 0086 5DE1     		b	.L119
 2251              	.L120:
 2252              		.loc 7 528 16
 2253 0088 BB7F     		ldrb	r3, [r7, #30]	@ zero_extendqisi2
 2254 008a 03F0F003 		and	r3, r3, #240
 2255              		.loc 7 528 11
 2256 008e A02B     		cmp	r3, #160
 2257 0090 13D1     		bne	.L121
 2258              		.loc 7 528 30 discriminator 1
 2259 0092 3B68     		ldr	r3, [r7]
 2260 0094 022B     		cmp	r3, #2
 2261 0096 10D9     		bls	.L121
 2262              		.loc 7 528 51 discriminator 2
 2263 0098 7B7F     		ldrb	r3, [r7, #29]
 2264 009a 43F00A03 		orr	r3, r3, #10
 2265 009e DBB2     		uxtb	r3, r3
 2266 00a0 3B72     		strb	r3, [r7, #8]
 2267              		.loc 7 528 77 discriminator 2
 2268 00a2 7B68     		ldr	r3, [r7, #4]
 2269 00a4 1B78     		ldrb	r3, [r3]	@ zero_extendqisi2
 2270              		.loc 7 528 73 discriminator 2
 2271 00a6 7B72     		strb	r3, [r7, #9]
 2272              		.loc 7 528 95 discriminator 2
 2273 00a8 7B68     		ldr	r3, [r7, #4]
 2274 00aa 0133     		adds	r3, r3, #1
 2275 00ac 1B78     		ldrb	r3, [r3]	@ zero_extendqisi2
 2276              		.loc 7 528 91 discriminator 2
 2277 00ae BB72     		strb	r3, [r7, #10]
 2278              		.loc 7 528 113 discriminator 2
 2279 00b0 7B68     		ldr	r3, [r7, #4]
 2280 00b2 0233     		adds	r3, r3, #2
 2281 00b4 1B78     		ldrb	r3, [r3]	@ zero_extendqisi2
 2282              		.loc 7 528 109 discriminator 2
 2283 00b6 FB72     		strb	r3, [r7, #11]
 2284 00b8 44E1     		b	.L119
 2285              	.L121:
 2286              		.loc 7 529 16
 2287 00ba BB7F     		ldrb	r3, [r7, #30]	@ zero_extendqisi2
 2288 00bc 03F0F003 		and	r3, r3, #240
 2289              		.loc 7 529 11
 2290 00c0 B02B     		cmp	r3, #176
 2291 00c2 13D1     		bne	.L122
 2292              		.loc 7 529 30 discriminator 1
 2293 00c4 3B68     		ldr	r3, [r7]
 2294 00c6 022B     		cmp	r3, #2
 2295 00c8 10D9     		bls	.L122
 2296              		.loc 7 529 51 discriminator 2
 2297 00ca 7B7F     		ldrb	r3, [r7, #29]
 2298 00cc 43F00B03 		orr	r3, r3, #11
 2299 00d0 DBB2     		uxtb	r3, r3
 2300 00d2 3B72     		strb	r3, [r7, #8]
 2301              		.loc 7 529 77 discriminator 2
 2302 00d4 7B68     		ldr	r3, [r7, #4]
 2303 00d6 1B78     		ldrb	r3, [r3]	@ zero_extendqisi2
 2304              		.loc 7 529 73 discriminator 2
ARM GAS  C:\Users\DEVELO~1\AppData\Local\Temp\ccBydanM.s 			page 42


 2305 00d8 7B72     		strb	r3, [r7, #9]
 2306              		.loc 7 529 95 discriminator 2
 2307 00da 7B68     		ldr	r3, [r7, #4]
 2308 00dc 0133     		adds	r3, r3, #1
 2309 00de 1B78     		ldrb	r3, [r3]	@ zero_extendqisi2
 2310              		.loc 7 529 91 discriminator 2
 2311 00e0 BB72     		strb	r3, [r7, #10]
 2312              		.loc 7 529 113 discriminator 2
 2313 00e2 7B68     		ldr	r3, [r7, #4]
 2314 00e4 0233     		adds	r3, r3, #2
 2315 00e6 1B78     		ldrb	r3, [r3]	@ zero_extendqisi2
 2316              		.loc 7 529 109 discriminator 2
 2317 00e8 FB72     		strb	r3, [r7, #11]
 2318 00ea 2BE1     		b	.L119
 2319              	.L122:
 2320              		.loc 7 530 16
 2321 00ec BB7F     		ldrb	r3, [r7, #30]	@ zero_extendqisi2
 2322 00ee 03F0F003 		and	r3, r3, #240
 2323              		.loc 7 530 11
 2324 00f2 E02B     		cmp	r3, #224
 2325 00f4 13D1     		bne	.L123
 2326              		.loc 7 530 30 discriminator 1
 2327 00f6 3B68     		ldr	r3, [r7]
 2328 00f8 022B     		cmp	r3, #2
 2329 00fa 10D9     		bls	.L123
 2330              		.loc 7 530 51 discriminator 2
 2331 00fc 7B7F     		ldrb	r3, [r7, #29]
 2332 00fe 43F00E03 		orr	r3, r3, #14
 2333 0102 DBB2     		uxtb	r3, r3
 2334 0104 3B72     		strb	r3, [r7, #8]
 2335              		.loc 7 530 77 discriminator 2
 2336 0106 7B68     		ldr	r3, [r7, #4]
 2337 0108 1B78     		ldrb	r3, [r3]	@ zero_extendqisi2
 2338              		.loc 7 530 73 discriminator 2
 2339 010a 7B72     		strb	r3, [r7, #9]
 2340              		.loc 7 530 95 discriminator 2
 2341 010c 7B68     		ldr	r3, [r7, #4]
 2342 010e 0133     		adds	r3, r3, #1
 2343 0110 1B78     		ldrb	r3, [r3]	@ zero_extendqisi2
 2344              		.loc 7 530 91 discriminator 2
 2345 0112 BB72     		strb	r3, [r7, #10]
 2346              		.loc 7 530 113 discriminator 2
 2347 0114 7B68     		ldr	r3, [r7, #4]
 2348 0116 0233     		adds	r3, r3, #2
 2349 0118 1B78     		ldrb	r3, [r3]	@ zero_extendqisi2
 2350              		.loc 7 530 109 discriminator 2
 2351 011a FB72     		strb	r3, [r7, #11]
 2352 011c 12E1     		b	.L119
 2353              	.L123:
 2354              		.loc 7 531 16
 2355 011e BB7F     		ldrb	r3, [r7, #30]	@ zero_extendqisi2
 2356 0120 03F0F003 		and	r3, r3, #240
 2357              		.loc 7 531 11
 2358 0124 C02B     		cmp	r3, #192
 2359 0126 11D1     		bne	.L124
 2360              		.loc 7 531 30 discriminator 1
 2361 0128 3B68     		ldr	r3, [r7]
ARM GAS  C:\Users\DEVELO~1\AppData\Local\Temp\ccBydanM.s 			page 43


 2362 012a 012B     		cmp	r3, #1
 2363 012c 0ED9     		bls	.L124
 2364              		.loc 7 531 51 discriminator 2
 2365 012e 7B7F     		ldrb	r3, [r7, #29]
 2366 0130 43F00C03 		orr	r3, r3, #12
 2367 0134 DBB2     		uxtb	r3, r3
 2368 0136 3B72     		strb	r3, [r7, #8]
 2369              		.loc 7 531 77 discriminator 2
 2370 0138 7B68     		ldr	r3, [r7, #4]
 2371 013a 1B78     		ldrb	r3, [r3]	@ zero_extendqisi2
 2372              		.loc 7 531 73 discriminator 2
 2373 013c 7B72     		strb	r3, [r7, #9]
 2374              		.loc 7 531 95 discriminator 2
 2375 013e 7B68     		ldr	r3, [r7, #4]
 2376 0140 0133     		adds	r3, r3, #1
 2377 0142 1B78     		ldrb	r3, [r3]	@ zero_extendqisi2
 2378              		.loc 7 531 91 discriminator 2
 2379 0144 BB72     		strb	r3, [r7, #10]
 2380              		.loc 7 531 109 discriminator 2
 2381 0146 0023     		movs	r3, #0
 2382 0148 FB72     		strb	r3, [r7, #11]
 2383 014a FBE0     		b	.L119
 2384              	.L124:
 2385              		.loc 7 532 16
 2386 014c BB7F     		ldrb	r3, [r7, #30]	@ zero_extendqisi2
 2387 014e 03F0F003 		and	r3, r3, #240
 2388              		.loc 7 532 11
 2389 0152 D02B     		cmp	r3, #208
 2390 0154 11D1     		bne	.L125
 2391              		.loc 7 532 30 discriminator 1
 2392 0156 3B68     		ldr	r3, [r7]
 2393 0158 012B     		cmp	r3, #1
 2394 015a 0ED9     		bls	.L125
 2395              		.loc 7 532 51 discriminator 2
 2396 015c 7B7F     		ldrb	r3, [r7, #29]
 2397 015e 43F00D03 		orr	r3, r3, #13
 2398 0162 DBB2     		uxtb	r3, r3
 2399 0164 3B72     		strb	r3, [r7, #8]
 2400              		.loc 7 532 77 discriminator 2
 2401 0166 7B68     		ldr	r3, [r7, #4]
 2402 0168 1B78     		ldrb	r3, [r3]	@ zero_extendqisi2
 2403              		.loc 7 532 73 discriminator 2
 2404 016a 7B72     		strb	r3, [r7, #9]
 2405              		.loc 7 532 95 discriminator 2
 2406 016c 7B68     		ldr	r3, [r7, #4]
 2407 016e 0133     		adds	r3, r3, #1
 2408 0170 1B78     		ldrb	r3, [r3]	@ zero_extendqisi2
 2409              		.loc 7 532 91 discriminator 2
 2410 0172 BB72     		strb	r3, [r7, #10]
 2411              		.loc 7 532 109 discriminator 2
 2412 0174 0023     		movs	r3, #0
 2413 0176 FB72     		strb	r3, [r7, #11]
 2414 0178 E4E0     		b	.L119
 2415              	.L125:
 2416              		.loc 7 535 11
 2417 017a BB7F     		ldrb	r3, [r7, #30]	@ zero_extendqisi2
 2418 017c F12B     		cmp	r3, #241
ARM GAS  C:\Users\DEVELO~1\AppData\Local\Temp\ccBydanM.s 			page 44


 2419 017e 0ED1     		bne	.L126
 2420              		.loc 7 535 21 discriminator 1
 2421 0180 3B68     		ldr	r3, [r7]
 2422 0182 012B     		cmp	r3, #1
 2423 0184 0BD9     		bls	.L126
 2424              		.loc 7 535 42 discriminator 2
 2425 0186 7B7F     		ldrb	r3, [r7, #29]
 2426 0188 43F00203 		orr	r3, r3, #2
 2427 018c DBB2     		uxtb	r3, r3
 2428 018e 3B72     		strb	r3, [r7, #8]
 2429              		.loc 7 535 64 discriminator 2
 2430 0190 F123     		movs	r3, #241
 2431 0192 7B72     		strb	r3, [r7, #9]
 2432              		.loc 7 535 84 discriminator 2
 2433 0194 7B68     		ldr	r3, [r7, #4]
 2434 0196 0133     		adds	r3, r3, #1
 2435 0198 1B78     		ldrb	r3, [r3]	@ zero_extendqisi2
 2436              		.loc 7 535 80 discriminator 2
 2437 019a BB72     		strb	r3, [r7, #10]
 2438 019c D2E0     		b	.L119
 2439              	.L126:
 2440              		.loc 7 536 11
 2441 019e BB7F     		ldrb	r3, [r7, #30]	@ zero_extendqisi2
 2442 01a0 F22B     		cmp	r3, #242
 2443 01a2 12D1     		bne	.L127
 2444              		.loc 7 536 21 discriminator 1
 2445 01a4 3B68     		ldr	r3, [r7]
 2446 01a6 022B     		cmp	r3, #2
 2447 01a8 0FD9     		bls	.L127
 2448              		.loc 7 536 42 discriminator 2
 2449 01aa 7B7F     		ldrb	r3, [r7, #29]
 2450 01ac 43F00303 		orr	r3, r3, #3
 2451 01b0 DBB2     		uxtb	r3, r3
 2452 01b2 3B72     		strb	r3, [r7, #8]
 2453              		.loc 7 536 64 discriminator 2
 2454 01b4 F223     		movs	r3, #242
 2455 01b6 7B72     		strb	r3, [r7, #9]
 2456              		.loc 7 536 84 discriminator 2
 2457 01b8 7B68     		ldr	r3, [r7, #4]
 2458 01ba 0133     		adds	r3, r3, #1
 2459 01bc 1B78     		ldrb	r3, [r3]	@ zero_extendqisi2
 2460              		.loc 7 536 80 discriminator 2
 2461 01be BB72     		strb	r3, [r7, #10]
 2462              		.loc 7 536 102 discriminator 2
 2463 01c0 7B68     		ldr	r3, [r7, #4]
 2464 01c2 0233     		adds	r3, r3, #2
 2465 01c4 1B78     		ldrb	r3, [r3]	@ zero_extendqisi2
 2466              		.loc 7 536 98 discriminator 2
 2467 01c6 FB72     		strb	r3, [r7, #11]
 2468 01c8 BCE0     		b	.L119
 2469              	.L127:
 2470              		.loc 7 537 11
 2471 01ca BB7F     		ldrb	r3, [r7, #30]	@ zero_extendqisi2
 2472 01cc F32B     		cmp	r3, #243
 2473 01ce 0ED1     		bne	.L128
 2474              		.loc 7 537 21 discriminator 1
 2475 01d0 3B68     		ldr	r3, [r7]
ARM GAS  C:\Users\DEVELO~1\AppData\Local\Temp\ccBydanM.s 			page 45


 2476 01d2 012B     		cmp	r3, #1
 2477 01d4 0BD9     		bls	.L128
 2478              		.loc 7 537 42 discriminator 2
 2479 01d6 7B7F     		ldrb	r3, [r7, #29]
 2480 01d8 43F00203 		orr	r3, r3, #2
 2481 01dc DBB2     		uxtb	r3, r3
 2482 01de 3B72     		strb	r3, [r7, #8]
 2483              		.loc 7 537 64 discriminator 2
 2484 01e0 F323     		movs	r3, #243
 2485 01e2 7B72     		strb	r3, [r7, #9]
 2486              		.loc 7 537 84 discriminator 2
 2487 01e4 7B68     		ldr	r3, [r7, #4]
 2488 01e6 0133     		adds	r3, r3, #1
 2489 01e8 1B78     		ldrb	r3, [r3]	@ zero_extendqisi2
 2490              		.loc 7 537 80 discriminator 2
 2491 01ea BB72     		strb	r3, [r7, #10]
 2492 01ec AAE0     		b	.L119
 2493              	.L128:
 2494              		.loc 7 538 11
 2495 01ee BB7F     		ldrb	r3, [r7, #30]	@ zero_extendqisi2
 2496 01f0 F62B     		cmp	r3, #246
 2497 01f2 07D1     		bne	.L129
 2498              		.loc 7 538 41 discriminator 1
 2499 01f4 7B7F     		ldrb	r3, [r7, #29]
 2500 01f6 43F00F03 		orr	r3, r3, #15
 2501 01fa DBB2     		uxtb	r3, r3
 2502 01fc 3B72     		strb	r3, [r7, #8]
 2503              		.loc 7 538 63 discriminator 1
 2504 01fe F623     		movs	r3, #246
 2505 0200 7B72     		strb	r3, [r7, #9]
 2506 0202 9FE0     		b	.L119
 2507              	.L129:
 2508              		.loc 7 541 11
 2509 0204 BB7F     		ldrb	r3, [r7, #30]	@ zero_extendqisi2
 2510 0206 F72B     		cmp	r3, #247
 2511 0208 7DD9     		bls	.L130
 2512              	.LBB64:
 2513              		.loc 7 542 14
 2514 020a 7B7F     		ldrb	r3, [r7, #29]
 2515 020c 43F00F03 		orr	r3, r3, #15
 2516 0210 DBB2     		uxtb	r3, r3
 2517 0212 3B72     		strb	r3, [r7, #8]
 2518              		.loc 7 542 36
 2519 0214 BB7F     		ldrb	r3, [r7, #30]
 2520 0216 7B72     		strb	r3, [r7, #9]
 2521              		.loc 7 544 8
 2522 0218 BB7F     		ldrb	r3, [r7, #30]	@ zero_extendqisi2
 2523 021a F82B     		cmp	r3, #248
 2524 021c 27D1     		bne	.L131
 2525              		.loc 7 545 11
 2526 021e FFF7FEFF 		bl	midi_usb_ready
 2527 0222 0346     		mov	r3, r0
 2528              		.loc 7 545 10
 2529 0224 002B     		cmp	r3, #0
 2530 0226 12D0     		beq	.L132
 2531              		.loc 7 545 31 discriminator 1
 2532 0228 0021     		movs	r1, #0
ARM GAS  C:\Users\DEVELO~1\AppData\Local\Temp\ccBydanM.s 			page 46


 2533 022a 5D48     		ldr	r0, .L147
 2534 022c FFF7FEFF 		bl	chBSemWaitTimeout
 2535 0230 0346     		mov	r3, r0
 2536              		.loc 7 545 28 discriminator 1
 2537 0232 002B     		cmp	r3, #0
 2538 0234 0BD1     		bne	.L132
 2539              		.loc 7 546 9
 2540 0236 07F10803 		add	r3, r7, #8
 2541 023a 0421     		movs	r1, #4
 2542 023c 1846     		mov	r0, r3
 2543 023e FFF7FEFF 		bl	midi_usb_start_tx
 2544              		.loc 7 547 22
 2545 0242 584B     		ldr	r3, .L147+4
 2546 0244 1B68     		ldr	r3, [r3]
 2547              		.loc 7 547 40
 2548 0246 0133     		adds	r3, r3, #1
 2549 0248 564A     		ldr	r2, .L147+4
 2550 024a 1360     		str	r3, [r2]
 2551              		.loc 7 552 7
 2552 024c A4E0     		b	.L117
 2553              	.L132:
 2554              	.LBB65:
 2555              		.loc 7 549 31
 2556 024e 3B7A     		ldrb	r3, [r7, #8]	@ zero_extendqisi2
 2557              		.loc 7 549 34
 2558 0250 1A06     		lsls	r2, r3, #24
 2559              		.loc 7 549 54
 2560 0252 7B7A     		ldrb	r3, [r7, #9]	@ zero_extendqisi2
 2561              		.loc 7 549 57
 2562 0254 1B04     		lsls	r3, r3, #16
 2563              		.loc 7 549 39
 2564 0256 1A43     		orrs	r2, r2, r3
 2565              		.loc 7 549 77
 2566 0258 BB7A     		ldrb	r3, [r7, #10]	@ zero_extendqisi2
 2567              		.loc 7 549 80
 2568 025a 1B02     		lsls	r3, r3, #8
 2569              		.loc 7 549 62
 2570 025c 1343     		orrs	r3, r3, r2
 2571              		.loc 7 549 91
 2572 025e FA7A     		ldrb	r2, [r7, #11]	@ zero_extendqisi2
 2573              		.loc 7 549 15
 2574 0260 1343     		orrs	r3, r3, r2
 2575 0262 3B61     		str	r3, [r7, #16]
 2576              		.loc 7 550 9
 2577 0264 0021     		movs	r1, #0
 2578 0266 3869     		ldr	r0, [r7, #16]
 2579 0268 FFF7FEFF 		bl	post_mb_or_drop
 2580              	.LBE65:
 2581              		.loc 7 552 7
 2582 026c 94E0     		b	.L117
 2583              	.L131:
 2584              		.loc 7 555 8
 2585 026e BB7F     		ldrb	r3, [r7, #30]	@ zero_extendqisi2
 2586 0270 FA2B     		cmp	r3, #250
 2587 0272 0BD0     		beq	.L135
 2588              		.loc 7 555 18 discriminator 1
 2589 0274 BB7F     		ldrb	r3, [r7, #30]	@ zero_extendqisi2
ARM GAS  C:\Users\DEVELO~1\AppData\Local\Temp\ccBydanM.s 			page 47


 2590 0276 FB2B     		cmp	r3, #251
 2591 0278 08D0     		beq	.L135
 2592              		.loc 7 555 30 discriminator 2
 2593 027a BB7F     		ldrb	r3, [r7, #30]	@ zero_extendqisi2
 2594 027c FC2B     		cmp	r3, #252
 2595 027e 05D0     		beq	.L135
 2596              		.loc 7 555 42 discriminator 3
 2597 0280 BB7F     		ldrb	r3, [r7, #30]	@ zero_extendqisi2
 2598 0282 FE2B     		cmp	r3, #254
 2599 0284 02D0     		beq	.L135
 2600              		.loc 7 555 54 discriminator 4
 2601 0286 BB7F     		ldrb	r3, [r7, #30]	@ zero_extendqisi2
 2602 0288 FF2B     		cmp	r3, #255
 2603 028a 2CD1     		bne	.L136
 2604              	.L135:
 2605              		.loc 7 556 11
 2606 028c FFF7FEFF 		bl	midi_usb_ready
 2607 0290 0346     		mov	r3, r0
 2608              		.loc 7 556 10
 2609 0292 002B     		cmp	r3, #0
 2610 0294 12D0     		beq	.L137
 2611              		.loc 7 556 31 discriminator 1
 2612 0296 0021     		movs	r1, #0
 2613 0298 4148     		ldr	r0, .L147
 2614 029a FFF7FEFF 		bl	chBSemWaitTimeout
 2615 029e 0346     		mov	r3, r0
 2616              		.loc 7 556 28 discriminator 1
 2617 02a0 002B     		cmp	r3, #0
 2618 02a2 0BD1     		bne	.L137
 2619              		.loc 7 557 9
 2620 02a4 07F10803 		add	r3, r7, #8
 2621 02a8 0421     		movs	r1, #4
 2622 02aa 1846     		mov	r0, r3
 2623 02ac FFF7FEFF 		bl	midi_usb_start_tx
 2624              		.loc 7 558 22
 2625 02b0 3C4B     		ldr	r3, .L147+4
 2626 02b2 1B68     		ldr	r3, [r3]
 2627              		.loc 7 558 40
 2628 02b4 0133     		adds	r3, r3, #1
 2629 02b6 3B4A     		ldr	r2, .L147+4
 2630 02b8 1360     		str	r3, [r2]
 2631              		.loc 7 564 7
 2632 02ba 6DE0     		b	.L117
 2633              	.L137:
 2634              	.LBB66:
 2635              		.loc 7 560 22
 2636 02bc 394B     		ldr	r3, .L147+4
 2637 02be 1B69     		ldr	r3, [r3, #16]
 2638              		.loc 7 560 44
 2639 02c0 0133     		adds	r3, r3, #1
 2640 02c2 384A     		ldr	r2, .L147+4
 2641 02c4 1361     		str	r3, [r2, #16]
 2642              		.loc 7 561 31
 2643 02c6 3B7A     		ldrb	r3, [r7, #8]	@ zero_extendqisi2
 2644              		.loc 7 561 34
 2645 02c8 1A06     		lsls	r2, r3, #24
 2646              		.loc 7 561 54
ARM GAS  C:\Users\DEVELO~1\AppData\Local\Temp\ccBydanM.s 			page 48


 2647 02ca 7B7A     		ldrb	r3, [r7, #9]	@ zero_extendqisi2
 2648              		.loc 7 561 57
 2649 02cc 1B04     		lsls	r3, r3, #16
 2650              		.loc 7 561 39
 2651 02ce 1A43     		orrs	r2, r2, r3
 2652              		.loc 7 561 77
 2653 02d0 BB7A     		ldrb	r3, [r7, #10]	@ zero_extendqisi2
 2654              		.loc 7 561 80
 2655 02d2 1B02     		lsls	r3, r3, #8
 2656              		.loc 7 561 62
 2657 02d4 1343     		orrs	r3, r3, r2
 2658              		.loc 7 561 91
 2659 02d6 FA7A     		ldrb	r2, [r7, #11]	@ zero_extendqisi2
 2660              		.loc 7 561 15
 2661 02d8 1343     		orrs	r3, r3, r2
 2662 02da 7B61     		str	r3, [r7, #20]
 2663              		.loc 7 562 9
 2664 02dc 0121     		movs	r1, #1
 2665 02de 7869     		ldr	r0, [r7, #20]
 2666 02e0 FFF7FEFF 		bl	post_mb_or_drop
 2667              	.LBE66:
 2668              		.loc 7 564 7
 2669 02e4 58E0     		b	.L117
 2670              	.L136:
 2671              		.loc 7 567 28
 2672 02e6 3B7A     		ldrb	r3, [r7, #8]	@ zero_extendqisi2
 2673              		.loc 7 567 31
 2674 02e8 1A06     		lsls	r2, r3, #24
 2675              		.loc 7 567 51
 2676 02ea 7B7A     		ldrb	r3, [r7, #9]	@ zero_extendqisi2
 2677              		.loc 7 567 54
 2678 02ec 1B04     		lsls	r3, r3, #16
 2679              		.loc 7 567 36
 2680 02ee 1A43     		orrs	r2, r2, r3
 2681              		.loc 7 567 74
 2682 02f0 BB7A     		ldrb	r3, [r7, #10]	@ zero_extendqisi2
 2683              		.loc 7 567 77
 2684 02f2 1B02     		lsls	r3, r3, #8
 2685              		.loc 7 567 59
 2686 02f4 1343     		orrs	r3, r3, r2
 2687              		.loc 7 567 88
 2688 02f6 FA7A     		ldrb	r2, [r7, #11]	@ zero_extendqisi2
 2689              		.loc 7 567 11
 2690 02f8 1343     		orrs	r3, r3, r2
 2691 02fa BB61     		str	r3, [r7, #24]
 2692              		.loc 7 568 5
 2693 02fc 0021     		movs	r1, #0
 2694 02fe B869     		ldr	r0, [r7, #24]
 2695 0300 FFF7FEFF 		bl	post_mb_or_drop
 2696              		.loc 7 569 5
 2697 0304 48E0     		b	.L117
 2698              	.L130:
 2699              	.LBE64:
 2700              		.loc 7 572 19
 2701 0306 7B7F     		ldrb	r3, [r7, #29]
 2702 0308 43F00F03 		orr	r3, r3, #15
 2703 030c DBB2     		uxtb	r3, r3
ARM GAS  C:\Users\DEVELO~1\AppData\Local\Temp\ccBydanM.s 			page 49


 2704 030e 3B72     		strb	r3, [r7, #8]
 2705              		.loc 7 572 41
 2706 0310 3B68     		ldr	r3, [r7]
 2707 0312 002B     		cmp	r3, #0
 2708 0314 02D0     		beq	.L139
 2709              		.loc 7 572 41 is_stmt 0 discriminator 1
 2710 0316 7B68     		ldr	r3, [r7, #4]
 2711 0318 1B78     		ldrb	r3, [r3]	@ zero_extendqisi2
 2712 031a 00E0     		b	.L140
 2713              	.L139:
 2714              		.loc 7 572 41 discriminator 2
 2715 031c 0023     		movs	r3, #0
 2716              	.L140:
 2717              		.loc 7 572 41 discriminator 4
 2718 031e 7B72     		strb	r3, [r7, #9]
 2719              		.loc 7 572 67 is_stmt 1 discriminator 4
 2720 0320 3B68     		ldr	r3, [r7]
 2721 0322 012B     		cmp	r3, #1
 2722 0324 03D9     		bls	.L141
 2723              		.loc 7 572 77 discriminator 5
 2724 0326 7B68     		ldr	r3, [r7, #4]
 2725 0328 0133     		adds	r3, r3, #1
 2726              		.loc 7 572 67 discriminator 5
 2727 032a 1B78     		ldrb	r3, [r3]	@ zero_extendqisi2
 2728 032c 00E0     		b	.L142
 2729              	.L141:
 2730              		.loc 7 572 67 is_stmt 0 discriminator 6
 2731 032e 0023     		movs	r3, #0
 2732              	.L142:
 2733              		.loc 7 572 67 discriminator 8
 2734 0330 BB72     		strb	r3, [r7, #10]
 2735              		.loc 7 572 93 is_stmt 1 discriminator 8
 2736 0332 3B68     		ldr	r3, [r7]
 2737 0334 022B     		cmp	r3, #2
 2738 0336 03D9     		bls	.L143
 2739              		.loc 7 572 103 discriminator 9
 2740 0338 7B68     		ldr	r3, [r7, #4]
 2741 033a 0233     		adds	r3, r3, #2
 2742              		.loc 7 572 93 discriminator 9
 2743 033c 1B78     		ldrb	r3, [r3]	@ zero_extendqisi2
 2744 033e 00E0     		b	.L144
 2745              	.L143:
 2746              		.loc 7 572 93 is_stmt 0 discriminator 10
 2747 0340 0023     		movs	r3, #0
 2748              	.L144:
 2749              		.loc 7 572 93 discriminator 12
 2750 0342 FB72     		strb	r3, [r7, #11]
 2751              	.L119:
 2752              		.loc 7 574 6 is_stmt 1
 2753 0344 FB7F     		ldrb	r3, [r7, #31]	@ zero_extendqisi2
 2754 0346 002B     		cmp	r3, #0
 2755 0348 17D0     		beq	.L145
 2756              		.loc 7 575 9
 2757 034a FFF7FEFF 		bl	midi_usb_ready
 2758 034e 0346     		mov	r3, r0
 2759              		.loc 7 575 8
 2760 0350 002B     		cmp	r3, #0
ARM GAS  C:\Users\DEVELO~1\AppData\Local\Temp\ccBydanM.s 			page 50


 2761 0352 12D0     		beq	.L145
 2762              		.loc 7 575 29 discriminator 1
 2763 0354 0021     		movs	r1, #0
 2764 0356 1248     		ldr	r0, .L147
 2765 0358 FFF7FEFF 		bl	chBSemWaitTimeout
 2766 035c 0346     		mov	r3, r0
 2767              		.loc 7 575 26 discriminator 1
 2768 035e 002B     		cmp	r3, #0
 2769 0360 0BD1     		bne	.L145
 2770              		.loc 7 576 7
 2771 0362 07F10803 		add	r3, r7, #8
 2772 0366 0421     		movs	r1, #4
 2773 0368 1846     		mov	r0, r3
 2774 036a FFF7FEFF 		bl	midi_usb_start_tx
 2775              		.loc 7 577 20
 2776 036e 0D4B     		ldr	r3, .L147+4
 2777 0370 1B68     		ldr	r3, [r3]
 2778              		.loc 7 577 38
 2779 0372 0133     		adds	r3, r3, #1
 2780 0374 0B4A     		ldr	r2, .L147+4
 2781 0376 1360     		str	r3, [r2]
 2782              		.loc 7 577 42
 2783 0378 0EE0     		b	.L117
 2784              	.L145:
 2785              		.loc 7 581 25
 2786 037a 3B7A     		ldrb	r3, [r7, #8]	@ zero_extendqisi2
 2787              		.loc 7 581 28
 2788 037c 1A06     		lsls	r2, r3, #24
 2789              		.loc 7 581 48
 2790 037e 7B7A     		ldrb	r3, [r7, #9]	@ zero_extendqisi2
 2791              		.loc 7 581 51
 2792 0380 1B04     		lsls	r3, r3, #16
 2793              		.loc 7 581 33
 2794 0382 1A43     		orrs	r2, r2, r3
 2795              		.loc 7 581 71
 2796 0384 BB7A     		ldrb	r3, [r7, #10]	@ zero_extendqisi2
 2797              		.loc 7 581 74
 2798 0386 1B02     		lsls	r3, r3, #8
 2799              		.loc 7 581 56
 2800 0388 1343     		orrs	r3, r3, r2
 2801              		.loc 7 581 85
 2802 038a FA7A     		ldrb	r2, [r7, #11]	@ zero_extendqisi2
 2803              		.loc 7 581 9
 2804 038c 1343     		orrs	r3, r3, r2
 2805 038e FB60     		str	r3, [r7, #12]
 2806              		.loc 7 582 3
 2807 0390 0021     		movs	r1, #0
 2808 0392 F868     		ldr	r0, [r7, #12]
 2809 0394 FFF7FEFF 		bl	post_mb_or_drop
 2810              	.L117:
 2811              		.loc 7 583 1
 2812 0398 2037     		adds	r7, r7, #32
 2813              		.cfi_def_cfa_offset 8
 2814 039a BD46     		mov	sp, r7
 2815              		.cfi_def_cfa_register 13
 2816              		@ sp needed
 2817 039c 80BD     		pop	{r7, pc}
ARM GAS  C:\Users\DEVELO~1\AppData\Local\Temp\ccBydanM.s 			page 51


 2818              	.L148:
 2819 039e 00BF     		.align	2
 2820              	.L147:
 2821 03a0 00000000 		.word	tx_sem
 2822 03a4 00000000 		.word	midi_tx_stats
 2823              		.cfi_endproc
 2824              	.LFE449:
 2825              		.size	send_usb, .-send_usb
 2826              		.section	.text.midi_send,"ax",%progbits
 2827              		.align	1
 2828              		.syntax unified
 2829              		.thumb
 2830              		.thumb_func
 2831              		.type	midi_send, %function
 2832              	midi_send:
 2833              	.LFB450:
 2834              		.loc 7 595 65
 2835              		.cfi_startproc
 2836              		@ args = 0, pretend = 0, frame = 16
 2837              		@ frame_needed = 1, uses_anonymous_args = 0
 2838 0000 80B5     		push	{r7, lr}
 2839              		.cfi_def_cfa_offset 8
 2840              		.cfi_offset 7, -8
 2841              		.cfi_offset 14, -4
 2842 0002 84B0     		sub	sp, sp, #16
 2843              		.cfi_def_cfa_offset 24
 2844 0004 00AF     		add	r7, sp, #0
 2845              		.cfi_def_cfa_register 7
 2846 0006 0346     		mov	r3, r0
 2847 0008 B960     		str	r1, [r7, #8]
 2848 000a 7A60     		str	r2, [r7, #4]
 2849 000c FB73     		strb	r3, [r7, #15]
 2850              		.loc 7 596 3
 2851 000e FB7B     		ldrb	r3, [r7, #15]	@ zero_extendqisi2
 2852 0010 032B     		cmp	r3, #3
 2853 0012 10D0     		beq	.L150
 2854 0014 032B     		cmp	r3, #3
 2855 0016 17DC     		bgt	.L155
 2856 0018 012B     		cmp	r3, #1
 2857 001a 02D0     		beq	.L152
 2858 001c 022B     		cmp	r3, #2
 2859 001e 05D0     		beq	.L153
 2860              		.loc 7 600 14
 2861 0020 12E0     		b	.L155
 2862              	.L152:
 2863              		.loc 7 597 26
 2864 0022 7968     		ldr	r1, [r7, #4]
 2865 0024 B868     		ldr	r0, [r7, #8]
 2866 0026 FFF7FEFF 		bl	send_uart
 2867              		.loc 7 597 42
 2868 002a 0EE0     		b	.L154
 2869              	.L153:
 2870              		.loc 7 598 26
 2871 002c 7968     		ldr	r1, [r7, #4]
 2872 002e B868     		ldr	r0, [r7, #8]
 2873 0030 FFF7FEFF 		bl	send_usb
 2874              		.loc 7 598 42
ARM GAS  C:\Users\DEVELO~1\AppData\Local\Temp\ccBydanM.s 			page 52


 2875 0034 09E0     		b	.L154
 2876              	.L150:
 2877              		.loc 7 599 26
 2878 0036 7968     		ldr	r1, [r7, #4]
 2879 0038 B868     		ldr	r0, [r7, #8]
 2880 003a FFF7FEFF 		bl	send_uart
 2881              		.loc 7 599 42
 2882 003e 7968     		ldr	r1, [r7, #4]
 2883 0040 B868     		ldr	r0, [r7, #8]
 2884 0042 FFF7FEFF 		bl	send_usb
 2885              		.loc 7 599 57
 2886 0046 00E0     		b	.L154
 2887              	.L155:
 2888              		.loc 7 600 14
 2889 0048 00BF     		nop
 2890              	.L154:
 2891              		.loc 7 602 1
 2892 004a 00BF     		nop
 2893 004c 1037     		adds	r7, r7, #16
 2894              		.cfi_def_cfa_offset 8
 2895 004e BD46     		mov	sp, r7
 2896              		.cfi_def_cfa_register 13
 2897              		@ sp needed
 2898 0050 80BD     		pop	{r7, pc}
 2899              		.cfi_endproc
 2900              	.LFE450:
 2901              		.size	midi_send, .-midi_send
 2902              		.section	.text.midi_set_rx_destination,"ax",%progbits
 2903              		.align	1
 2904              		.global	midi_set_rx_destination
 2905              		.syntax unified
 2906              		.thumb
 2907              		.thumb_func
 2908              		.type	midi_set_rx_destination, %function
 2909              	midi_set_rx_destination:
 2910              	.LFB451:
 2911              		.loc 7 604 48
 2912              		.cfi_startproc
 2913              		@ args = 0, pretend = 0, frame = 8
 2914              		@ frame_needed = 1, uses_anonymous_args = 0
 2915              		@ link register save eliminated.
 2916 0000 80B4     		push	{r7}
 2917              		.cfi_def_cfa_offset 4
 2918              		.cfi_offset 7, -4
 2919 0002 83B0     		sub	sp, sp, #12
 2920              		.cfi_def_cfa_offset 16
 2921 0004 00AF     		add	r7, sp, #0
 2922              		.cfi_def_cfa_register 7
 2923 0006 0346     		mov	r3, r0
 2924 0008 FB71     		strb	r3, [r7, #7]
 2925              		.loc 7 605 3
 2926 000a FB79     		ldrb	r3, [r7, #7]	@ zero_extendqisi2
 2927 000c 013B     		subs	r3, r3, #1
 2928 000e 022B     		cmp	r3, #2
 2929 0010 03D8     		bhi	.L157
 2930              		.loc 7 609 20
 2931 0012 064A     		ldr	r2, .L159
ARM GAS  C:\Users\DEVELO~1\AppData\Local\Temp\ccBydanM.s 			page 53


 2932 0014 FB79     		ldrb	r3, [r7, #7]
 2933 0016 1370     		strb	r3, [r2]
 2934              		.loc 7 610 7
 2935 0018 03E0     		b	.L158
 2936              	.L157:
 2937              		.loc 7 612 20
 2938 001a 044B     		ldr	r3, .L159
 2939 001c 0322     		movs	r2, #3
 2940 001e 1A70     		strb	r2, [r3]
 2941              		.loc 7 613 7
 2942 0020 00BF     		nop
 2943              	.L158:
 2944              		.loc 7 615 1
 2945 0022 00BF     		nop
 2946 0024 0C37     		adds	r7, r7, #12
 2947              		.cfi_def_cfa_offset 4
 2948 0026 BD46     		mov	sp, r7
 2949              		.cfi_def_cfa_register 13
 2950              		@ sp needed
 2951 0028 80BC     		pop	{r7}
 2952              		.cfi_restore 7
 2953              		.cfi_def_cfa_offset 0
 2954 002a 7047     		bx	lr
 2955              	.L160:
 2956              		.align	2
 2957              	.L159:
 2958 002c 00000000 		.word	midi_rx_dest
 2959              		.cfi_endproc
 2960              	.LFE451:
 2961              		.size	midi_set_rx_destination, .-midi_set_rx_destination
 2962              		.section	.text.midi_get_rx_destination,"ax",%progbits
 2963              		.align	1
 2964              		.global	midi_get_rx_destination
 2965              		.syntax unified
 2966              		.thumb
 2967              		.thumb_func
 2968              		.type	midi_get_rx_destination, %function
 2969              	midi_get_rx_destination:
 2970              	.LFB452:
 2971              		.loc 7 617 43
 2972              		.cfi_startproc
 2973              		@ args = 0, pretend = 0, frame = 0
 2974              		@ frame_needed = 1, uses_anonymous_args = 0
 2975              		@ link register save eliminated.
 2976 0000 80B4     		push	{r7}
 2977              		.cfi_def_cfa_offset 4
 2978              		.cfi_offset 7, -4
 2979 0002 00AF     		add	r7, sp, #0
 2980              		.cfi_def_cfa_register 7
 2981              		.loc 7 618 10
 2982 0004 024B     		ldr	r3, .L163
 2983 0006 1B78     		ldrb	r3, [r3]	@ zero_extendqisi2
 2984              		.loc 7 619 1
 2985 0008 1846     		mov	r0, r3
 2986 000a BD46     		mov	sp, r7
 2987              		.cfi_def_cfa_register 13
 2988              		@ sp needed
ARM GAS  C:\Users\DEVELO~1\AppData\Local\Temp\ccBydanM.s 			page 54


 2989 000c 80BC     		pop	{r7}
 2990              		.cfi_restore 7
 2991              		.cfi_def_cfa_offset 0
 2992 000e 7047     		bx	lr
 2993              	.L164:
 2994              		.align	2
 2995              	.L163:
 2996 0010 00000000 		.word	midi_rx_dest
 2997              		.cfi_endproc
 2998              	.LFE452:
 2999              		.size	midi_get_rx_destination, .-midi_get_rx_destination
 3000              		.section	.text.midi_note_on,"ax",%progbits
 3001              		.align	1
 3002              		.global	midi_note_on
 3003              		.syntax unified
 3004              		.thumb
 3005              		.thumb_func
 3006              		.type	midi_note_on, %function
 3007              	midi_note_on:
 3008              	.LFB453:
 3009              		.loc 7 625 64
 3010              		.cfi_startproc
 3011              		@ args = 0, pretend = 0, frame = 16
 3012              		@ frame_needed = 1, uses_anonymous_args = 0
 3013 0000 90B5     		push	{r4, r7, lr}
 3014              		.cfi_def_cfa_offset 12
 3015              		.cfi_offset 4, -12
 3016              		.cfi_offset 7, -8
 3017              		.cfi_offset 14, -4
 3018 0002 85B0     		sub	sp, sp, #20
 3019              		.cfi_def_cfa_offset 32
 3020 0004 00AF     		add	r7, sp, #0
 3021              		.cfi_def_cfa_register 7
 3022 0006 0446     		mov	r4, r0
 3023 0008 0846     		mov	r0, r1
 3024 000a 1146     		mov	r1, r2
 3025 000c 1A46     		mov	r2, r3
 3026 000e 2346     		mov	r3, r4
 3027 0010 FB71     		strb	r3, [r7, #7]
 3028 0012 0346     		mov	r3, r0
 3029 0014 BB71     		strb	r3, [r7, #6]
 3030 0016 0B46     		mov	r3, r1
 3031 0018 7B71     		strb	r3, [r7, #5]
 3032 001a 1346     		mov	r3, r2
 3033 001c 3B71     		strb	r3, [r7, #4]
 3034              		.loc 7 626 10
 3035 001e 3B79     		ldrb	r3, [r7, #4]	@ zero_extendqisi2
 3036 0020 03F07F03 		and	r3, r3, #127
 3037              		.loc 7 626 6
 3038 0024 002B     		cmp	r3, #0
 3039 0026 06D1     		bne	.L166
 3040              		.loc 7 626 23 discriminator 1
 3041 0028 7A79     		ldrb	r2, [r7, #5]	@ zero_extendqisi2
 3042 002a B979     		ldrb	r1, [r7, #6]	@ zero_extendqisi2
 3043 002c F879     		ldrb	r0, [r7, #7]	@ zero_extendqisi2
 3044 002e 0023     		movs	r3, #0
 3045 0030 FFF7FEFF 		bl	midi_note_off
ARM GAS  C:\Users\DEVELO~1\AppData\Local\Temp\ccBydanM.s 			page 55


 3046 0034 1AE0     		b	.L165
 3047              	.L166:
 3048              		.loc 7 627 36
 3049 0036 97F90630 		ldrsb	r3, [r7, #6]
 3050 003a 03F00F03 		and	r3, r3, #15
 3051 003e 5BB2     		sxtb	r3, r3
 3052              		.loc 7 627 32
 3053 0040 63F06F03 		orn	r3, r3, #111
 3054 0044 5BB2     		sxtb	r3, r3
 3055              		.loc 7 627 18
 3056 0046 DBB2     		uxtb	r3, r3
 3057              		.loc 7 627 11
 3058 0048 3B73     		strb	r3, [r7, #12]
 3059              		.loc 7 627 45
 3060 004a 7B79     		ldrb	r3, [r7, #5]
 3061 004c 03F07F03 		and	r3, r3, #127
 3062 0050 DBB2     		uxtb	r3, r3
 3063              		.loc 7 627 11
 3064 0052 7B73     		strb	r3, [r7, #13]
 3065              		.loc 7 627 64
 3066 0054 3B79     		ldrb	r3, [r7, #4]
 3067 0056 03F07F03 		and	r3, r3, #127
 3068 005a DBB2     		uxtb	r3, r3
 3069              		.loc 7 627 11
 3070 005c BB73     		strb	r3, [r7, #14]
 3071              		.loc 7 628 3
 3072 005e 07F10C01 		add	r1, r7, #12
 3073 0062 FB79     		ldrb	r3, [r7, #7]	@ zero_extendqisi2
 3074 0064 0322     		movs	r2, #3
 3075 0066 1846     		mov	r0, r3
 3076 0068 FFF7FEFF 		bl	midi_send
 3077              	.L165:
 3078              		.loc 7 629 1
 3079 006c 1437     		adds	r7, r7, #20
 3080              		.cfi_def_cfa_offset 12
 3081 006e BD46     		mov	sp, r7
 3082              		.cfi_def_cfa_register 13
 3083              		@ sp needed
 3084 0070 90BD     		pop	{r4, r7, pc}
 3085              		.cfi_endproc
 3086              	.LFE453:
 3087              		.size	midi_note_on, .-midi_note_on
 3088              		.section	.text.midi_note_off,"ax",%progbits
 3089              		.align	1
 3090              		.global	midi_note_off
 3091              		.syntax unified
 3092              		.thumb
 3093              		.thumb_func
 3094              		.type	midi_note_off, %function
 3095              	midi_note_off:
 3096              	.LFB454:
 3097              		.loc 7 631 65
 3098              		.cfi_startproc
 3099              		@ args = 0, pretend = 0, frame = 16
 3100              		@ frame_needed = 1, uses_anonymous_args = 0
 3101 0000 90B5     		push	{r4, r7, lr}
 3102              		.cfi_def_cfa_offset 12
ARM GAS  C:\Users\DEVELO~1\AppData\Local\Temp\ccBydanM.s 			page 56


 3103              		.cfi_offset 4, -12
 3104              		.cfi_offset 7, -8
 3105              		.cfi_offset 14, -4
 3106 0002 85B0     		sub	sp, sp, #20
 3107              		.cfi_def_cfa_offset 32
 3108 0004 00AF     		add	r7, sp, #0
 3109              		.cfi_def_cfa_register 7
 3110 0006 0446     		mov	r4, r0
 3111 0008 0846     		mov	r0, r1
 3112 000a 1146     		mov	r1, r2
 3113 000c 1A46     		mov	r2, r3
 3114 000e 2346     		mov	r3, r4
 3115 0010 FB71     		strb	r3, [r7, #7]
 3116 0012 0346     		mov	r3, r0
 3117 0014 BB71     		strb	r3, [r7, #6]
 3118 0016 0B46     		mov	r3, r1
 3119 0018 7B71     		strb	r3, [r7, #5]
 3120 001a 1346     		mov	r3, r2
 3121 001c 3B71     		strb	r3, [r7, #4]
 3122              		.loc 7 632 36
 3123 001e 97F90630 		ldrsb	r3, [r7, #6]
 3124 0022 03F00F03 		and	r3, r3, #15
 3125 0026 5BB2     		sxtb	r3, r3
 3126              		.loc 7 632 32
 3127 0028 63F07F03 		orn	r3, r3, #127
 3128 002c 5BB2     		sxtb	r3, r3
 3129              		.loc 7 632 18
 3130 002e DBB2     		uxtb	r3, r3
 3131              		.loc 7 632 11
 3132 0030 3B73     		strb	r3, [r7, #12]
 3133              		.loc 7 632 45
 3134 0032 7B79     		ldrb	r3, [r7, #5]
 3135 0034 03F07F03 		and	r3, r3, #127
 3136 0038 DBB2     		uxtb	r3, r3
 3137              		.loc 7 632 11
 3138 003a 7B73     		strb	r3, [r7, #13]
 3139              		.loc 7 632 64
 3140 003c 3B79     		ldrb	r3, [r7, #4]
 3141 003e 03F07F03 		and	r3, r3, #127
 3142 0042 DBB2     		uxtb	r3, r3
 3143              		.loc 7 632 11
 3144 0044 BB73     		strb	r3, [r7, #14]
 3145              		.loc 7 633 3
 3146 0046 07F10C01 		add	r1, r7, #12
 3147 004a FB79     		ldrb	r3, [r7, #7]	@ zero_extendqisi2
 3148 004c 0322     		movs	r2, #3
 3149 004e 1846     		mov	r0, r3
 3150 0050 FFF7FEFF 		bl	midi_send
 3151              		.loc 7 634 1
 3152 0054 00BF     		nop
 3153 0056 1437     		adds	r7, r7, #20
 3154              		.cfi_def_cfa_offset 12
 3155 0058 BD46     		mov	sp, r7
 3156              		.cfi_def_cfa_register 13
 3157              		@ sp needed
 3158 005a 90BD     		pop	{r4, r7, pc}
 3159              		.cfi_endproc
ARM GAS  C:\Users\DEVELO~1\AppData\Local\Temp\ccBydanM.s 			page 57


 3160              	.LFE454:
 3161              		.size	midi_note_off, .-midi_note_off
 3162              		.section	.text.midi_poly_aftertouch,"ax",%progbits
 3163              		.align	1
 3164              		.global	midi_poly_aftertouch
 3165              		.syntax unified
 3166              		.thumb
 3167              		.thumb_func
 3168              		.type	midi_poly_aftertouch, %function
 3169              	midi_poly_aftertouch:
 3170              	.LFB455:
 3171              		.loc 7 636 72
 3172              		.cfi_startproc
 3173              		@ args = 0, pretend = 0, frame = 16
 3174              		@ frame_needed = 1, uses_anonymous_args = 0
 3175 0000 90B5     		push	{r4, r7, lr}
 3176              		.cfi_def_cfa_offset 12
 3177              		.cfi_offset 4, -12
 3178              		.cfi_offset 7, -8
 3179              		.cfi_offset 14, -4
 3180 0002 85B0     		sub	sp, sp, #20
 3181              		.cfi_def_cfa_offset 32
 3182 0004 00AF     		add	r7, sp, #0
 3183              		.cfi_def_cfa_register 7
 3184 0006 0446     		mov	r4, r0
 3185 0008 0846     		mov	r0, r1
 3186 000a 1146     		mov	r1, r2
 3187 000c 1A46     		mov	r2, r3
 3188 000e 2346     		mov	r3, r4
 3189 0010 FB71     		strb	r3, [r7, #7]
 3190 0012 0346     		mov	r3, r0
 3191 0014 BB71     		strb	r3, [r7, #6]
 3192 0016 0B46     		mov	r3, r1
 3193 0018 7B71     		strb	r3, [r7, #5]
 3194 001a 1346     		mov	r3, r2
 3195 001c 3B71     		strb	r3, [r7, #4]
 3196              		.loc 7 637 36
 3197 001e 97F90630 		ldrsb	r3, [r7, #6]
 3198 0022 03F00F03 		and	r3, r3, #15
 3199 0026 5BB2     		sxtb	r3, r3
 3200              		.loc 7 637 32
 3201 0028 63F05F03 		orn	r3, r3, #95
 3202 002c 5BB2     		sxtb	r3, r3
 3203              		.loc 7 637 18
 3204 002e DBB2     		uxtb	r3, r3
 3205              		.loc 7 637 11
 3206 0030 3B73     		strb	r3, [r7, #12]
 3207              		.loc 7 637 45
 3208 0032 7B79     		ldrb	r3, [r7, #5]
 3209 0034 03F07F03 		and	r3, r3, #127
 3210 0038 DBB2     		uxtb	r3, r3
 3211              		.loc 7 637 11
 3212 003a 7B73     		strb	r3, [r7, #13]
 3213              		.loc 7 637 64
 3214 003c 3B79     		ldrb	r3, [r7, #4]
 3215 003e 03F07F03 		and	r3, r3, #127
 3216 0042 DBB2     		uxtb	r3, r3
ARM GAS  C:\Users\DEVELO~1\AppData\Local\Temp\ccBydanM.s 			page 58


 3217              		.loc 7 637 11
 3218 0044 BB73     		strb	r3, [r7, #14]
 3219              		.loc 7 638 3
 3220 0046 07F10C01 		add	r1, r7, #12
 3221 004a FB79     		ldrb	r3, [r7, #7]	@ zero_extendqisi2
 3222 004c 0322     		movs	r2, #3
 3223 004e 1846     		mov	r0, r3
 3224 0050 FFF7FEFF 		bl	midi_send
 3225              		.loc 7 639 1
 3226 0054 00BF     		nop
 3227 0056 1437     		adds	r7, r7, #20
 3228              		.cfi_def_cfa_offset 12
 3229 0058 BD46     		mov	sp, r7
 3230              		.cfi_def_cfa_register 13
 3231              		@ sp needed
 3232 005a 90BD     		pop	{r4, r7, pc}
 3233              		.cfi_endproc
 3234              	.LFE455:
 3235              		.size	midi_poly_aftertouch, .-midi_poly_aftertouch
 3236              		.section	.text.midi_cc,"ax",%progbits
 3237              		.align	1
 3238              		.global	midi_cc
 3239              		.syntax unified
 3240              		.thumb
 3241              		.thumb_func
 3242              		.type	midi_cc, %function
 3243              	midi_cc:
 3244              	.LFB456:
 3245              		.loc 7 641 59
 3246              		.cfi_startproc
 3247              		@ args = 0, pretend = 0, frame = 16
 3248              		@ frame_needed = 1, uses_anonymous_args = 0
 3249 0000 90B5     		push	{r4, r7, lr}
 3250              		.cfi_def_cfa_offset 12
 3251              		.cfi_offset 4, -12
 3252              		.cfi_offset 7, -8
 3253              		.cfi_offset 14, -4
 3254 0002 85B0     		sub	sp, sp, #20
 3255              		.cfi_def_cfa_offset 32
 3256 0004 00AF     		add	r7, sp, #0
 3257              		.cfi_def_cfa_register 7
 3258 0006 0446     		mov	r4, r0
 3259 0008 0846     		mov	r0, r1
 3260 000a 1146     		mov	r1, r2
 3261 000c 1A46     		mov	r2, r3
 3262 000e 2346     		mov	r3, r4
 3263 0010 FB71     		strb	r3, [r7, #7]
 3264 0012 0346     		mov	r3, r0
 3265 0014 BB71     		strb	r3, [r7, #6]
 3266 0016 0B46     		mov	r3, r1
 3267 0018 7B71     		strb	r3, [r7, #5]
 3268 001a 1346     		mov	r3, r2
 3269 001c 3B71     		strb	r3, [r7, #4]
 3270              		.loc 7 642 36
 3271 001e 97F90630 		ldrsb	r3, [r7, #6]
 3272 0022 03F00F03 		and	r3, r3, #15
 3273 0026 5BB2     		sxtb	r3, r3
ARM GAS  C:\Users\DEVELO~1\AppData\Local\Temp\ccBydanM.s 			page 59


 3274              		.loc 7 642 32
 3275 0028 63F04F03 		orn	r3, r3, #79
 3276 002c 5BB2     		sxtb	r3, r3
 3277              		.loc 7 642 18
 3278 002e DBB2     		uxtb	r3, r3
 3279              		.loc 7 642 11
 3280 0030 3B73     		strb	r3, [r7, #12]
 3281              		.loc 7 642 45
 3282 0032 7B79     		ldrb	r3, [r7, #5]
 3283 0034 03F07F03 		and	r3, r3, #127
 3284 0038 DBB2     		uxtb	r3, r3
 3285              		.loc 7 642 11
 3286 003a 7B73     		strb	r3, [r7, #13]
 3287              		.loc 7 642 64
 3288 003c 3B79     		ldrb	r3, [r7, #4]
 3289 003e 03F07F03 		and	r3, r3, #127
 3290 0042 DBB2     		uxtb	r3, r3
 3291              		.loc 7 642 11
 3292 0044 BB73     		strb	r3, [r7, #14]
 3293              		.loc 7 643 3
 3294 0046 07F10C01 		add	r1, r7, #12
 3295 004a FB79     		ldrb	r3, [r7, #7]	@ zero_extendqisi2
 3296 004c 0322     		movs	r2, #3
 3297 004e 1846     		mov	r0, r3
 3298 0050 FFF7FEFF 		bl	midi_send
 3299              		.loc 7 644 1
 3300 0054 00BF     		nop
 3301 0056 1437     		adds	r7, r7, #20
 3302              		.cfi_def_cfa_offset 12
 3303 0058 BD46     		mov	sp, r7
 3304              		.cfi_def_cfa_register 13
 3305              		@ sp needed
 3306 005a 90BD     		pop	{r4, r7, pc}
 3307              		.cfi_endproc
 3308              	.LFE456:
 3309              		.size	midi_cc, .-midi_cc
 3310              		.section	.text.midi_program_change,"ax",%progbits
 3311              		.align	1
 3312              		.global	midi_program_change
 3313              		.syntax unified
 3314              		.thumb
 3315              		.thumb_func
 3316              		.type	midi_program_change, %function
 3317              	midi_program_change:
 3318              	.LFB457:
 3319              		.loc 7 646 62
 3320              		.cfi_startproc
 3321              		@ args = 0, pretend = 0, frame = 16
 3322              		@ frame_needed = 1, uses_anonymous_args = 0
 3323 0000 80B5     		push	{r7, lr}
 3324              		.cfi_def_cfa_offset 8
 3325              		.cfi_offset 7, -8
 3326              		.cfi_offset 14, -4
 3327 0002 84B0     		sub	sp, sp, #16
 3328              		.cfi_def_cfa_offset 24
 3329 0004 00AF     		add	r7, sp, #0
 3330              		.cfi_def_cfa_register 7
ARM GAS  C:\Users\DEVELO~1\AppData\Local\Temp\ccBydanM.s 			page 60


 3331 0006 0346     		mov	r3, r0
 3332 0008 FB71     		strb	r3, [r7, #7]
 3333 000a 0B46     		mov	r3, r1
 3334 000c BB71     		strb	r3, [r7, #6]
 3335 000e 1346     		mov	r3, r2
 3336 0010 7B71     		strb	r3, [r7, #5]
 3337              		.loc 7 647 36
 3338 0012 97F90630 		ldrsb	r3, [r7, #6]
 3339 0016 03F00F03 		and	r3, r3, #15
 3340 001a 5BB2     		sxtb	r3, r3
 3341              		.loc 7 647 32
 3342 001c 63F03F03 		orn	r3, r3, #63
 3343 0020 5BB2     		sxtb	r3, r3
 3344              		.loc 7 647 18
 3345 0022 DBB2     		uxtb	r3, r3
 3346              		.loc 7 647 11
 3347 0024 3B73     		strb	r3, [r7, #12]
 3348              		.loc 7 647 45
 3349 0026 7B79     		ldrb	r3, [r7, #5]
 3350 0028 03F07F03 		and	r3, r3, #127
 3351 002c DBB2     		uxtb	r3, r3
 3352              		.loc 7 647 11
 3353 002e 7B73     		strb	r3, [r7, #13]
 3354              		.loc 7 648 3
 3355 0030 07F10C01 		add	r1, r7, #12
 3356 0034 FB79     		ldrb	r3, [r7, #7]	@ zero_extendqisi2
 3357 0036 0222     		movs	r2, #2
 3358 0038 1846     		mov	r0, r3
 3359 003a FFF7FEFF 		bl	midi_send
 3360              		.loc 7 649 1
 3361 003e 00BF     		nop
 3362 0040 1037     		adds	r7, r7, #16
 3363              		.cfi_def_cfa_offset 8
 3364 0042 BD46     		mov	sp, r7
 3365              		.cfi_def_cfa_register 13
 3366              		@ sp needed
 3367 0044 80BD     		pop	{r7, pc}
 3368              		.cfi_endproc
 3369              	.LFE457:
 3370              		.size	midi_program_change, .-midi_program_change
 3371              		.section	.text.midi_channel_pressure,"ax",%progbits
 3372              		.align	1
 3373              		.global	midi_channel_pressure
 3374              		.syntax unified
 3375              		.thumb
 3376              		.thumb_func
 3377              		.type	midi_channel_pressure, %function
 3378              	midi_channel_pressure:
 3379              	.LFB458:
 3380              		.loc 7 651 63
 3381              		.cfi_startproc
 3382              		@ args = 0, pretend = 0, frame = 16
 3383              		@ frame_needed = 1, uses_anonymous_args = 0
 3384 0000 80B5     		push	{r7, lr}
 3385              		.cfi_def_cfa_offset 8
 3386              		.cfi_offset 7, -8
 3387              		.cfi_offset 14, -4
ARM GAS  C:\Users\DEVELO~1\AppData\Local\Temp\ccBydanM.s 			page 61


 3388 0002 84B0     		sub	sp, sp, #16
 3389              		.cfi_def_cfa_offset 24
 3390 0004 00AF     		add	r7, sp, #0
 3391              		.cfi_def_cfa_register 7
 3392 0006 0346     		mov	r3, r0
 3393 0008 FB71     		strb	r3, [r7, #7]
 3394 000a 0B46     		mov	r3, r1
 3395 000c BB71     		strb	r3, [r7, #6]
 3396 000e 1346     		mov	r3, r2
 3397 0010 7B71     		strb	r3, [r7, #5]
 3398              		.loc 7 652 36
 3399 0012 97F90630 		ldrsb	r3, [r7, #6]
 3400 0016 03F00F03 		and	r3, r3, #15
 3401 001a 5BB2     		sxtb	r3, r3
 3402              		.loc 7 652 32
 3403 001c 63F02F03 		orn	r3, r3, #47
 3404 0020 5BB2     		sxtb	r3, r3
 3405              		.loc 7 652 18
 3406 0022 DBB2     		uxtb	r3, r3
 3407              		.loc 7 652 11
 3408 0024 3B73     		strb	r3, [r7, #12]
 3409              		.loc 7 652 45
 3410 0026 7B79     		ldrb	r3, [r7, #5]
 3411 0028 03F07F03 		and	r3, r3, #127
 3412 002c DBB2     		uxtb	r3, r3
 3413              		.loc 7 652 11
 3414 002e 7B73     		strb	r3, [r7, #13]
 3415              		.loc 7 653 3
 3416 0030 07F10C01 		add	r1, r7, #12
 3417 0034 FB79     		ldrb	r3, [r7, #7]	@ zero_extendqisi2
 3418 0036 0222     		movs	r2, #2
 3419 0038 1846     		mov	r0, r3
 3420 003a FFF7FEFF 		bl	midi_send
 3421              		.loc 7 654 1
 3422 003e 00BF     		nop
 3423 0040 1037     		adds	r7, r7, #16
 3424              		.cfi_def_cfa_offset 8
 3425 0042 BD46     		mov	sp, r7
 3426              		.cfi_def_cfa_register 13
 3427              		@ sp needed
 3428 0044 80BD     		pop	{r7, pc}
 3429              		.cfi_endproc
 3430              	.LFE458:
 3431              		.size	midi_channel_pressure, .-midi_channel_pressure
 3432              		.section	.text.midi_pitchbend,"ax",%progbits
 3433              		.align	1
 3434              		.global	midi_pitchbend
 3435              		.syntax unified
 3436              		.thumb
 3437              		.thumb_func
 3438              		.type	midi_pitchbend, %function
 3439              	midi_pitchbend:
 3440              	.LFB459:
 3441              		.loc 7 656 58
 3442              		.cfi_startproc
 3443              		@ args = 0, pretend = 0, frame = 16
 3444              		@ frame_needed = 1, uses_anonymous_args = 0
ARM GAS  C:\Users\DEVELO~1\AppData\Local\Temp\ccBydanM.s 			page 62


 3445 0000 80B5     		push	{r7, lr}
 3446              		.cfi_def_cfa_offset 8
 3447              		.cfi_offset 7, -8
 3448              		.cfi_offset 14, -4
 3449 0002 84B0     		sub	sp, sp, #16
 3450              		.cfi_def_cfa_offset 24
 3451 0004 00AF     		add	r7, sp, #0
 3452              		.cfi_def_cfa_register 7
 3453 0006 0346     		mov	r3, r0
 3454 0008 FB71     		strb	r3, [r7, #7]
 3455 000a 0B46     		mov	r3, r1
 3456 000c BB71     		strb	r3, [r7, #6]
 3457 000e 1346     		mov	r3, r2	@ movhi
 3458 0010 BB80     		strh	r3, [r7, #4]	@ movhi
 3459              		.loc 7 657 14
 3460 0012 BB88     		ldrh	r3, [r7, #4]
 3461              		.loc 7 657 12
 3462 0014 03F50053 		add	r3, r3, #8192
 3463 0018 FB81     		strh	r3, [r7, #14]	@ movhi
 3464              		.loc 7 658 14
 3465 001a FB89     		ldrh	r3, [r7, #14]	@ movhi
 3466 001c DBB2     		uxtb	r3, r3
 3467              		.loc 7 658 11
 3468 001e 03F07F03 		and	r3, r3, #127
 3469 0022 7B73     		strb	r3, [r7, #13]
 3470              		.loc 7 658 29
 3471 0024 FB89     		ldrh	r3, [r7, #14]
 3472 0026 DB09     		lsrs	r3, r3, #7
 3473 0028 9BB2     		uxth	r3, r3
 3474 002a DBB2     		uxtb	r3, r3
 3475              		.loc 7 658 21
 3476 002c 03F07F03 		and	r3, r3, #127
 3477 0030 3B73     		strb	r3, [r7, #12]
 3478              		.loc 7 659 38
 3479 0032 97F90630 		ldrsb	r3, [r7, #6]
 3480 0036 03F00F03 		and	r3, r3, #15
 3481 003a 5BB2     		sxtb	r3, r3
 3482              		.loc 7 659 34
 3483 003c 63F01F03 		orn	r3, r3, #31
 3484 0040 5BB2     		sxtb	r3, r3
 3485              		.loc 7 659 20
 3486 0042 DBB2     		uxtb	r3, r3
 3487              		.loc 7 659 11
 3488 0044 3B72     		strb	r3, [r7, #8]
 3489 0046 7B7B     		ldrb	r3, [r7, #13]
 3490 0048 7B72     		strb	r3, [r7, #9]
 3491 004a 3B7B     		ldrb	r3, [r7, #12]
 3492 004c BB72     		strb	r3, [r7, #10]
 3493              		.loc 7 660 3
 3494 004e 07F10801 		add	r1, r7, #8
 3495 0052 FB79     		ldrb	r3, [r7, #7]	@ zero_extendqisi2
 3496 0054 0322     		movs	r2, #3
 3497 0056 1846     		mov	r0, r3
 3498 0058 FFF7FEFF 		bl	midi_send
 3499              		.loc 7 661 1
 3500 005c 00BF     		nop
 3501 005e 1037     		adds	r7, r7, #16
ARM GAS  C:\Users\DEVELO~1\AppData\Local\Temp\ccBydanM.s 			page 63


 3502              		.cfi_def_cfa_offset 8
 3503 0060 BD46     		mov	sp, r7
 3504              		.cfi_def_cfa_register 13
 3505              		@ sp needed
 3506 0062 80BD     		pop	{r7, pc}
 3507              		.cfi_endproc
 3508              	.LFE459:
 3509              		.size	midi_pitchbend, .-midi_pitchbend
 3510              		.section	.text.midi_mtc_quarter_frame,"ax",%progbits
 3511              		.align	1
 3512              		.global	midi_mtc_quarter_frame
 3513              		.syntax unified
 3514              		.thumb
 3515              		.thumb_func
 3516              		.type	midi_mtc_quarter_frame, %function
 3517              	midi_mtc_quarter_frame:
 3518              	.LFB460:
 3519              		.loc 7 663 54
 3520              		.cfi_startproc
 3521              		@ args = 0, pretend = 0, frame = 16
 3522              		@ frame_needed = 1, uses_anonymous_args = 0
 3523 0000 80B5     		push	{r7, lr}
 3524              		.cfi_def_cfa_offset 8
 3525              		.cfi_offset 7, -8
 3526              		.cfi_offset 14, -4
 3527 0002 84B0     		sub	sp, sp, #16
 3528              		.cfi_def_cfa_offset 24
 3529 0004 00AF     		add	r7, sp, #0
 3530              		.cfi_def_cfa_register 7
 3531 0006 0346     		mov	r3, r0
 3532 0008 0A46     		mov	r2, r1
 3533 000a FB71     		strb	r3, [r7, #7]
 3534 000c 1346     		mov	r3, r2
 3535 000e BB71     		strb	r3, [r7, #6]
 3536              		.loc 7 664 11
 3537 0010 F123     		movs	r3, #241
 3538 0012 3B73     		strb	r3, [r7, #12]
 3539              		.loc 7 664 23
 3540 0014 BB79     		ldrb	r3, [r7, #6]
 3541 0016 03F07F03 		and	r3, r3, #127
 3542 001a DBB2     		uxtb	r3, r3
 3543              		.loc 7 664 11
 3544 001c 7B73     		strb	r3, [r7, #13]
 3545              		.loc 7 665 3
 3546 001e 07F10C01 		add	r1, r7, #12
 3547 0022 FB79     		ldrb	r3, [r7, #7]	@ zero_extendqisi2
 3548 0024 0222     		movs	r2, #2
 3549 0026 1846     		mov	r0, r3
 3550 0028 FFF7FEFF 		bl	midi_send
 3551              		.loc 7 666 1
 3552 002c 00BF     		nop
 3553 002e 1037     		adds	r7, r7, #16
 3554              		.cfi_def_cfa_offset 8
 3555 0030 BD46     		mov	sp, r7
 3556              		.cfi_def_cfa_register 13
 3557              		@ sp needed
 3558 0032 80BD     		pop	{r7, pc}
ARM GAS  C:\Users\DEVELO~1\AppData\Local\Temp\ccBydanM.s 			page 64


 3559              		.cfi_endproc
 3560              	.LFE460:
 3561              		.size	midi_mtc_quarter_frame, .-midi_mtc_quarter_frame
 3562              		.section	.text.midi_song_position,"ax",%progbits
 3563              		.align	1
 3564              		.global	midi_song_position
 3565              		.syntax unified
 3566              		.thumb
 3567              		.thumb_func
 3568              		.type	midi_song_position, %function
 3569              	midi_song_position:
 3570              	.LFB461:
 3571              		.loc 7 668 52
 3572              		.cfi_startproc
 3573              		@ args = 0, pretend = 0, frame = 16
 3574              		@ frame_needed = 1, uses_anonymous_args = 0
 3575 0000 80B5     		push	{r7, lr}
 3576              		.cfi_def_cfa_offset 8
 3577              		.cfi_offset 7, -8
 3578              		.cfi_offset 14, -4
 3579 0002 84B0     		sub	sp, sp, #16
 3580              		.cfi_def_cfa_offset 24
 3581 0004 00AF     		add	r7, sp, #0
 3582              		.cfi_def_cfa_register 7
 3583 0006 0346     		mov	r3, r0
 3584 0008 0A46     		mov	r2, r1
 3585 000a FB71     		strb	r3, [r7, #7]
 3586 000c 1346     		mov	r3, r2	@ movhi
 3587 000e BB80     		strh	r3, [r7, #4]	@ movhi
 3588              		.loc 7 669 26
 3589 0010 BB88     		ldrh	r3, [r7, #4]	@ movhi
 3590 0012 DBB2     		uxtb	r3, r3
 3591              		.loc 7 669 11
 3592 0014 03F07F03 		and	r3, r3, #127
 3593 0018 FB73     		strb	r3, [r7, #15]
 3594              		.loc 7 669 53
 3595 001a BB88     		ldrh	r3, [r7, #4]
 3596 001c DB09     		lsrs	r3, r3, #7
 3597 001e 9BB2     		uxth	r3, r3
 3598 0020 DBB2     		uxtb	r3, r3
 3599              		.loc 7 669 33
 3600 0022 03F07F03 		and	r3, r3, #127
 3601 0026 BB73     		strb	r3, [r7, #14]
 3602              		.loc 7 670 11
 3603 0028 F223     		movs	r3, #242
 3604 002a 3B72     		strb	r3, [r7, #8]
 3605 002c FB7B     		ldrb	r3, [r7, #15]
 3606 002e 7B72     		strb	r3, [r7, #9]
 3607 0030 BB7B     		ldrb	r3, [r7, #14]
 3608 0032 BB72     		strb	r3, [r7, #10]
 3609              		.loc 7 671 3
 3610 0034 07F10801 		add	r1, r7, #8
 3611 0038 FB79     		ldrb	r3, [r7, #7]	@ zero_extendqisi2
 3612 003a 0322     		movs	r2, #3
 3613 003c 1846     		mov	r0, r3
 3614 003e FFF7FEFF 		bl	midi_send
 3615              		.loc 7 672 1
ARM GAS  C:\Users\DEVELO~1\AppData\Local\Temp\ccBydanM.s 			page 65


 3616 0042 00BF     		nop
 3617 0044 1037     		adds	r7, r7, #16
 3618              		.cfi_def_cfa_offset 8
 3619 0046 BD46     		mov	sp, r7
 3620              		.cfi_def_cfa_register 13
 3621              		@ sp needed
 3622 0048 80BD     		pop	{r7, pc}
 3623              		.cfi_endproc
 3624              	.LFE461:
 3625              		.size	midi_song_position, .-midi_song_position
 3626              		.section	.text.midi_song_select,"ax",%progbits
 3627              		.align	1
 3628              		.global	midi_song_select
 3629              		.syntax unified
 3630              		.thumb
 3631              		.thumb_func
 3632              		.type	midi_song_select, %function
 3633              	midi_song_select:
 3634              	.LFB462:
 3635              		.loc 7 674 47
 3636              		.cfi_startproc
 3637              		@ args = 0, pretend = 0, frame = 16
 3638              		@ frame_needed = 1, uses_anonymous_args = 0
 3639 0000 80B5     		push	{r7, lr}
 3640              		.cfi_def_cfa_offset 8
 3641              		.cfi_offset 7, -8
 3642              		.cfi_offset 14, -4
 3643 0002 84B0     		sub	sp, sp, #16
 3644              		.cfi_def_cfa_offset 24
 3645 0004 00AF     		add	r7, sp, #0
 3646              		.cfi_def_cfa_register 7
 3647 0006 0346     		mov	r3, r0
 3648 0008 0A46     		mov	r2, r1
 3649 000a FB71     		strb	r3, [r7, #7]
 3650 000c 1346     		mov	r3, r2
 3651 000e BB71     		strb	r3, [r7, #6]
 3652              		.loc 7 675 11
 3653 0010 F323     		movs	r3, #243
 3654 0012 3B73     		strb	r3, [r7, #12]
 3655              		.loc 7 675 23
 3656 0014 BB79     		ldrb	r3, [r7, #6]
 3657 0016 03F07F03 		and	r3, r3, #127
 3658 001a DBB2     		uxtb	r3, r3
 3659              		.loc 7 675 11
 3660 001c 7B73     		strb	r3, [r7, #13]
 3661              		.loc 7 676 3
 3662 001e 07F10C01 		add	r1, r7, #12
 3663 0022 FB79     		ldrb	r3, [r7, #7]	@ zero_extendqisi2
 3664 0024 0222     		movs	r2, #2
 3665 0026 1846     		mov	r0, r3
 3666 0028 FFF7FEFF 		bl	midi_send
 3667              		.loc 7 677 1
 3668 002c 00BF     		nop
 3669 002e 1037     		adds	r7, r7, #16
 3670              		.cfi_def_cfa_offset 8
 3671 0030 BD46     		mov	sp, r7
 3672              		.cfi_def_cfa_register 13
ARM GAS  C:\Users\DEVELO~1\AppData\Local\Temp\ccBydanM.s 			page 66


 3673              		@ sp needed
 3674 0032 80BD     		pop	{r7, pc}
 3675              		.cfi_endproc
 3676              	.LFE462:
 3677              		.size	midi_song_select, .-midi_song_select
 3678              		.section	.text.midi_tune_request,"ax",%progbits
 3679              		.align	1
 3680              		.global	midi_tune_request
 3681              		.syntax unified
 3682              		.thumb
 3683              		.thumb_func
 3684              		.type	midi_tune_request, %function
 3685              	midi_tune_request:
 3686              	.LFB463:
 3687              		.loc 7 679 38
 3688              		.cfi_startproc
 3689              		@ args = 0, pretend = 0, frame = 16
 3690              		@ frame_needed = 1, uses_anonymous_args = 0
 3691 0000 80B5     		push	{r7, lr}
 3692              		.cfi_def_cfa_offset 8
 3693              		.cfi_offset 7, -8
 3694              		.cfi_offset 14, -4
 3695 0002 84B0     		sub	sp, sp, #16
 3696              		.cfi_def_cfa_offset 24
 3697 0004 00AF     		add	r7, sp, #0
 3698              		.cfi_def_cfa_register 7
 3699 0006 0346     		mov	r3, r0
 3700 0008 FB71     		strb	r3, [r7, #7]
 3701              		.loc 7 680 11
 3702 000a F623     		movs	r3, #246
 3703 000c 3B73     		strb	r3, [r7, #12]
 3704              		.loc 7 681 3
 3705 000e 07F10C01 		add	r1, r7, #12
 3706 0012 FB79     		ldrb	r3, [r7, #7]	@ zero_extendqisi2
 3707 0014 0122     		movs	r2, #1
 3708 0016 1846     		mov	r0, r3
 3709 0018 FFF7FEFF 		bl	midi_send
 3710              		.loc 7 682 1
 3711 001c 00BF     		nop
 3712 001e 1037     		adds	r7, r7, #16
 3713              		.cfi_def_cfa_offset 8
 3714 0020 BD46     		mov	sp, r7
 3715              		.cfi_def_cfa_register 13
 3716              		@ sp needed
 3717 0022 80BD     		pop	{r7, pc}
 3718              		.cfi_endproc
 3719              	.LFE463:
 3720              		.size	midi_tune_request, .-midi_tune_request
 3721              		.section	.text.midi_clock,"ax",%progbits
 3722              		.align	1
 3723              		.global	midi_clock
 3724              		.syntax unified
 3725              		.thumb
 3726              		.thumb_func
 3727              		.type	midi_clock, %function
 3728              	midi_clock:
 3729              	.LFB464:
ARM GAS  C:\Users\DEVELO~1\AppData\Local\Temp\ccBydanM.s 			page 67


 3730              		.loc 7 684 31
 3731              		.cfi_startproc
 3732              		@ args = 0, pretend = 0, frame = 16
 3733              		@ frame_needed = 1, uses_anonymous_args = 0
 3734 0000 80B5     		push	{r7, lr}
 3735              		.cfi_def_cfa_offset 8
 3736              		.cfi_offset 7, -8
 3737              		.cfi_offset 14, -4
 3738 0002 84B0     		sub	sp, sp, #16
 3739              		.cfi_def_cfa_offset 24
 3740 0004 00AF     		add	r7, sp, #0
 3741              		.cfi_def_cfa_register 7
 3742 0006 0346     		mov	r3, r0
 3743 0008 FB71     		strb	r3, [r7, #7]
 3744              		.loc 7 685 11
 3745 000a F823     		movs	r3, #248
 3746 000c 3B73     		strb	r3, [r7, #12]
 3747              		.loc 7 686 3
 3748 000e 07F10C01 		add	r1, r7, #12
 3749 0012 FB79     		ldrb	r3, [r7, #7]	@ zero_extendqisi2
 3750 0014 0122     		movs	r2, #1
 3751 0016 1846     		mov	r0, r3
 3752 0018 FFF7FEFF 		bl	midi_send
 3753              		.loc 7 687 1
 3754 001c 00BF     		nop
 3755 001e 1037     		adds	r7, r7, #16
 3756              		.cfi_def_cfa_offset 8
 3757 0020 BD46     		mov	sp, r7
 3758              		.cfi_def_cfa_register 13
 3759              		@ sp needed
 3760 0022 80BD     		pop	{r7, pc}
 3761              		.cfi_endproc
 3762              	.LFE464:
 3763              		.size	midi_clock, .-midi_clock
 3764              		.section	.text.midi_start,"ax",%progbits
 3765              		.align	1
 3766              		.global	midi_start
 3767              		.syntax unified
 3768              		.thumb
 3769              		.thumb_func
 3770              		.type	midi_start, %function
 3771              	midi_start:
 3772              	.LFB465:
 3773              		.loc 7 689 31
 3774              		.cfi_startproc
 3775              		@ args = 0, pretend = 0, frame = 16
 3776              		@ frame_needed = 1, uses_anonymous_args = 0
 3777 0000 80B5     		push	{r7, lr}
 3778              		.cfi_def_cfa_offset 8
 3779              		.cfi_offset 7, -8
 3780              		.cfi_offset 14, -4
 3781 0002 84B0     		sub	sp, sp, #16
 3782              		.cfi_def_cfa_offset 24
 3783 0004 00AF     		add	r7, sp, #0
 3784              		.cfi_def_cfa_register 7
 3785 0006 0346     		mov	r3, r0
 3786 0008 FB71     		strb	r3, [r7, #7]
ARM GAS  C:\Users\DEVELO~1\AppData\Local\Temp\ccBydanM.s 			page 68


 3787              		.loc 7 690 11
 3788 000a FA23     		movs	r3, #250
 3789 000c 3B73     		strb	r3, [r7, #12]
 3790              		.loc 7 691 3
 3791 000e 07F10C01 		add	r1, r7, #12
 3792 0012 FB79     		ldrb	r3, [r7, #7]	@ zero_extendqisi2
 3793 0014 0122     		movs	r2, #1
 3794 0016 1846     		mov	r0, r3
 3795 0018 FFF7FEFF 		bl	midi_send
 3796              		.loc 7 692 1
 3797 001c 00BF     		nop
 3798 001e 1037     		adds	r7, r7, #16
 3799              		.cfi_def_cfa_offset 8
 3800 0020 BD46     		mov	sp, r7
 3801              		.cfi_def_cfa_register 13
 3802              		@ sp needed
 3803 0022 80BD     		pop	{r7, pc}
 3804              		.cfi_endproc
 3805              	.LFE465:
 3806              		.size	midi_start, .-midi_start
 3807              		.section	.text.midi_continue,"ax",%progbits
 3808              		.align	1
 3809              		.global	midi_continue
 3810              		.syntax unified
 3811              		.thumb
 3812              		.thumb_func
 3813              		.type	midi_continue, %function
 3814              	midi_continue:
 3815              	.LFB466:
 3816              		.loc 7 694 34
 3817              		.cfi_startproc
 3818              		@ args = 0, pretend = 0, frame = 16
 3819              		@ frame_needed = 1, uses_anonymous_args = 0
 3820 0000 80B5     		push	{r7, lr}
 3821              		.cfi_def_cfa_offset 8
 3822              		.cfi_offset 7, -8
 3823              		.cfi_offset 14, -4
 3824 0002 84B0     		sub	sp, sp, #16
 3825              		.cfi_def_cfa_offset 24
 3826 0004 00AF     		add	r7, sp, #0
 3827              		.cfi_def_cfa_register 7
 3828 0006 0346     		mov	r3, r0
 3829 0008 FB71     		strb	r3, [r7, #7]
 3830              		.loc 7 695 11
 3831 000a FB23     		movs	r3, #251
 3832 000c 3B73     		strb	r3, [r7, #12]
 3833              		.loc 7 696 3
 3834 000e 07F10C01 		add	r1, r7, #12
 3835 0012 FB79     		ldrb	r3, [r7, #7]	@ zero_extendqisi2
 3836 0014 0122     		movs	r2, #1
 3837 0016 1846     		mov	r0, r3
 3838 0018 FFF7FEFF 		bl	midi_send
 3839              		.loc 7 697 1
 3840 001c 00BF     		nop
 3841 001e 1037     		adds	r7, r7, #16
 3842              		.cfi_def_cfa_offset 8
 3843 0020 BD46     		mov	sp, r7
ARM GAS  C:\Users\DEVELO~1\AppData\Local\Temp\ccBydanM.s 			page 69


 3844              		.cfi_def_cfa_register 13
 3845              		@ sp needed
 3846 0022 80BD     		pop	{r7, pc}
 3847              		.cfi_endproc
 3848              	.LFE466:
 3849              		.size	midi_continue, .-midi_continue
 3850              		.section	.text.midi_stop,"ax",%progbits
 3851              		.align	1
 3852              		.global	midi_stop
 3853              		.syntax unified
 3854              		.thumb
 3855              		.thumb_func
 3856              		.type	midi_stop, %function
 3857              	midi_stop:
 3858              	.LFB467:
 3859              		.loc 7 699 30
 3860              		.cfi_startproc
 3861              		@ args = 0, pretend = 0, frame = 16
 3862              		@ frame_needed = 1, uses_anonymous_args = 0
 3863 0000 80B5     		push	{r7, lr}
 3864              		.cfi_def_cfa_offset 8
 3865              		.cfi_offset 7, -8
 3866              		.cfi_offset 14, -4
 3867 0002 84B0     		sub	sp, sp, #16
 3868              		.cfi_def_cfa_offset 24
 3869 0004 00AF     		add	r7, sp, #0
 3870              		.cfi_def_cfa_register 7
 3871 0006 0346     		mov	r3, r0
 3872 0008 FB71     		strb	r3, [r7, #7]
 3873              		.loc 7 700 11
 3874 000a FC23     		movs	r3, #252
 3875 000c 3B73     		strb	r3, [r7, #12]
 3876              		.loc 7 701 3
 3877 000e 07F10C01 		add	r1, r7, #12
 3878 0012 FB79     		ldrb	r3, [r7, #7]	@ zero_extendqisi2
 3879 0014 0122     		movs	r2, #1
 3880 0016 1846     		mov	r0, r3
 3881 0018 FFF7FEFF 		bl	midi_send
 3882              		.loc 7 702 1
 3883 001c 00BF     		nop
 3884 001e 1037     		adds	r7, r7, #16
 3885              		.cfi_def_cfa_offset 8
 3886 0020 BD46     		mov	sp, r7
 3887              		.cfi_def_cfa_register 13
 3888              		@ sp needed
 3889 0022 80BD     		pop	{r7, pc}
 3890              		.cfi_endproc
 3891              	.LFE467:
 3892              		.size	midi_stop, .-midi_stop
 3893              		.section	.text.midi_active_sensing,"ax",%progbits
 3894              		.align	1
 3895              		.global	midi_active_sensing
 3896              		.syntax unified
 3897              		.thumb
 3898              		.thumb_func
 3899              		.type	midi_active_sensing, %function
 3900              	midi_active_sensing:
ARM GAS  C:\Users\DEVELO~1\AppData\Local\Temp\ccBydanM.s 			page 70


 3901              	.LFB468:
 3902              		.loc 7 704 40
 3903              		.cfi_startproc
 3904              		@ args = 0, pretend = 0, frame = 16
 3905              		@ frame_needed = 1, uses_anonymous_args = 0
 3906 0000 80B5     		push	{r7, lr}
 3907              		.cfi_def_cfa_offset 8
 3908              		.cfi_offset 7, -8
 3909              		.cfi_offset 14, -4
 3910 0002 84B0     		sub	sp, sp, #16
 3911              		.cfi_def_cfa_offset 24
 3912 0004 00AF     		add	r7, sp, #0
 3913              		.cfi_def_cfa_register 7
 3914 0006 0346     		mov	r3, r0
 3915 0008 FB71     		strb	r3, [r7, #7]
 3916              		.loc 7 705 11
 3917 000a FE23     		movs	r3, #254
 3918 000c 3B73     		strb	r3, [r7, #12]
 3919              		.loc 7 706 3
 3920 000e 07F10C01 		add	r1, r7, #12
 3921 0012 FB79     		ldrb	r3, [r7, #7]	@ zero_extendqisi2
 3922 0014 0122     		movs	r2, #1
 3923 0016 1846     		mov	r0, r3
 3924 0018 FFF7FEFF 		bl	midi_send
 3925              		.loc 7 707 1
 3926 001c 00BF     		nop
 3927 001e 1037     		adds	r7, r7, #16
 3928              		.cfi_def_cfa_offset 8
 3929 0020 BD46     		mov	sp, r7
 3930              		.cfi_def_cfa_register 13
 3931              		@ sp needed
 3932 0022 80BD     		pop	{r7, pc}
 3933              		.cfi_endproc
 3934              	.LFE468:
 3935              		.size	midi_active_sensing, .-midi_active_sensing
 3936              		.section	.text.midi_system_reset,"ax",%progbits
 3937              		.align	1
 3938              		.global	midi_system_reset
 3939              		.syntax unified
 3940              		.thumb
 3941              		.thumb_func
 3942              		.type	midi_system_reset, %function
 3943              	midi_system_reset:
 3944              	.LFB469:
 3945              		.loc 7 709 38
 3946              		.cfi_startproc
 3947              		@ args = 0, pretend = 0, frame = 16
 3948              		@ frame_needed = 1, uses_anonymous_args = 0
 3949 0000 80B5     		push	{r7, lr}
 3950              		.cfi_def_cfa_offset 8
 3951              		.cfi_offset 7, -8
 3952              		.cfi_offset 14, -4
 3953 0002 84B0     		sub	sp, sp, #16
 3954              		.cfi_def_cfa_offset 24
 3955 0004 00AF     		add	r7, sp, #0
 3956              		.cfi_def_cfa_register 7
 3957 0006 0346     		mov	r3, r0
ARM GAS  C:\Users\DEVELO~1\AppData\Local\Temp\ccBydanM.s 			page 71


 3958 0008 FB71     		strb	r3, [r7, #7]
 3959              		.loc 7 710 11
 3960 000a FF23     		movs	r3, #255
 3961 000c 3B73     		strb	r3, [r7, #12]
 3962              		.loc 7 711 3
 3963 000e 07F10C01 		add	r1, r7, #12
 3964 0012 FB79     		ldrb	r3, [r7, #7]	@ zero_extendqisi2
 3965 0014 0122     		movs	r2, #1
 3966 0016 1846     		mov	r0, r3
 3967 0018 FFF7FEFF 		bl	midi_send
 3968              		.loc 7 712 1
 3969 001c 00BF     		nop
 3970 001e 1037     		adds	r7, r7, #16
 3971              		.cfi_def_cfa_offset 8
 3972 0020 BD46     		mov	sp, r7
 3973              		.cfi_def_cfa_register 13
 3974              		@ sp needed
 3975 0022 80BD     		pop	{r7, pc}
 3976              		.cfi_endproc
 3977              	.LFE469:
 3978              		.size	midi_system_reset, .-midi_system_reset
 3979              		.section	.text.midi_channel_mode_cc,"ax",%progbits
 3980              		.align	1
 3981              		.syntax unified
 3982              		.thumb
 3983              		.thumb_func
 3984              		.type	midi_channel_mode_cc, %function
 3985              	midi_channel_mode_cc:
 3986              	.LFB470:
 3987              		.loc 7 715 96
 3988              		.cfi_startproc
 3989              		@ args = 0, pretend = 0, frame = 16
 3990              		@ frame_needed = 1, uses_anonymous_args = 0
 3991 0000 90B5     		push	{r4, r7, lr}
 3992              		.cfi_def_cfa_offset 12
 3993              		.cfi_offset 4, -12
 3994              		.cfi_offset 7, -8
 3995              		.cfi_offset 14, -4
 3996 0002 85B0     		sub	sp, sp, #20
 3997              		.cfi_def_cfa_offset 32
 3998 0004 00AF     		add	r7, sp, #0
 3999              		.cfi_def_cfa_register 7
 4000 0006 0446     		mov	r4, r0
 4001 0008 0846     		mov	r0, r1
 4002 000a 1146     		mov	r1, r2
 4003 000c 1A46     		mov	r2, r3
 4004 000e 2346     		mov	r3, r4
 4005 0010 FB71     		strb	r3, [r7, #7]
 4006 0012 0346     		mov	r3, r0
 4007 0014 BB71     		strb	r3, [r7, #6]
 4008 0016 0B46     		mov	r3, r1
 4009 0018 7B71     		strb	r3, [r7, #5]
 4010 001a 1346     		mov	r3, r2
 4011 001c 3B71     		strb	r3, [r7, #4]
 4012              		.loc 7 717 28
 4013 001e 97F90630 		ldrsb	r3, [r7, #6]
 4014 0022 03F00F03 		and	r3, r3, #15
ARM GAS  C:\Users\DEVELO~1\AppData\Local\Temp\ccBydanM.s 			page 72


 4015 0026 5BB2     		sxtb	r3, r3
 4016              		.loc 7 717 22
 4017 0028 63F04F03 		orn	r3, r3, #79
 4018 002c 5BB2     		sxtb	r3, r3
 4019              		.loc 7 717 7
 4020 002e DBB2     		uxtb	r3, r3
 4021              		.loc 7 716 11
 4022 0030 3B73     		strb	r3, [r7, #12]
 4023              		.loc 7 718 7
 4024 0032 7B79     		ldrb	r3, [r7, #5]
 4025 0034 03F07F03 		and	r3, r3, #127
 4026 0038 DBB2     		uxtb	r3, r3
 4027              		.loc 7 716 11
 4028 003a 7B73     		strb	r3, [r7, #13]
 4029              		.loc 7 719 7
 4030 003c 3B79     		ldrb	r3, [r7, #4]
 4031 003e 03F07F03 		and	r3, r3, #127
 4032 0042 DBB2     		uxtb	r3, r3
 4033              		.loc 7 716 11
 4034 0044 BB73     		strb	r3, [r7, #14]
 4035              		.loc 7 721 3
 4036 0046 07F10C01 		add	r1, r7, #12
 4037 004a FB79     		ldrb	r3, [r7, #7]	@ zero_extendqisi2
 4038 004c 0322     		movs	r2, #3
 4039 004e 1846     		mov	r0, r3
 4040 0050 FFF7FEFF 		bl	midi_send
 4041              		.loc 7 722 1
 4042 0054 00BF     		nop
 4043 0056 1437     		adds	r7, r7, #20
 4044              		.cfi_def_cfa_offset 12
 4045 0058 BD46     		mov	sp, r7
 4046              		.cfi_def_cfa_register 13
 4047              		@ sp needed
 4048 005a 90BD     		pop	{r4, r7, pc}
 4049              		.cfi_endproc
 4050              	.LFE470:
 4051              		.size	midi_channel_mode_cc, .-midi_channel_mode_cc
 4052              		.section	.text.midi_all_sound_off,"ax",%progbits
 4053              		.align	1
 4054              		.global	midi_all_sound_off
 4055              		.syntax unified
 4056              		.thumb
 4057              		.thumb_func
 4058              		.type	midi_all_sound_off, %function
 4059              	midi_all_sound_off:
 4060              	.LFB471:
 4061              		.loc 7 724 55
 4062              		.cfi_startproc
 4063              		@ args = 0, pretend = 0, frame = 8
 4064              		@ frame_needed = 1, uses_anonymous_args = 0
 4065 0000 80B5     		push	{r7, lr}
 4066              		.cfi_def_cfa_offset 8
 4067              		.cfi_offset 7, -8
 4068              		.cfi_offset 14, -4
 4069 0002 82B0     		sub	sp, sp, #8
 4070              		.cfi_def_cfa_offset 16
 4071 0004 00AF     		add	r7, sp, #0
ARM GAS  C:\Users\DEVELO~1\AppData\Local\Temp\ccBydanM.s 			page 73


 4072              		.cfi_def_cfa_register 7
 4073 0006 0346     		mov	r3, r0
 4074 0008 0A46     		mov	r2, r1
 4075 000a FB71     		strb	r3, [r7, #7]
 4076 000c 1346     		mov	r3, r2
 4077 000e BB71     		strb	r3, [r7, #6]
 4078              		.loc 7 725 3
 4079 0010 B979     		ldrb	r1, [r7, #6]	@ zero_extendqisi2
 4080 0012 F879     		ldrb	r0, [r7, #7]	@ zero_extendqisi2
 4081 0014 0023     		movs	r3, #0
 4082 0016 7822     		movs	r2, #120
 4083 0018 FFF7FEFF 		bl	midi_channel_mode_cc
 4084              		.loc 7 726 1
 4085 001c 00BF     		nop
 4086 001e 0837     		adds	r7, r7, #8
 4087              		.cfi_def_cfa_offset 8
 4088 0020 BD46     		mov	sp, r7
 4089              		.cfi_def_cfa_register 13
 4090              		@ sp needed
 4091 0022 80BD     		pop	{r7, pc}
 4092              		.cfi_endproc
 4093              	.LFE471:
 4094              		.size	midi_all_sound_off, .-midi_all_sound_off
 4095              		.section	.text.midi_reset_all_controllers,"ax",%progbits
 4096              		.align	1
 4097              		.global	midi_reset_all_controllers
 4098              		.syntax unified
 4099              		.thumb
 4100              		.thumb_func
 4101              		.type	midi_reset_all_controllers, %function
 4102              	midi_reset_all_controllers:
 4103              	.LFB472:
 4104              		.loc 7 728 63
 4105              		.cfi_startproc
 4106              		@ args = 0, pretend = 0, frame = 8
 4107              		@ frame_needed = 1, uses_anonymous_args = 0
 4108 0000 80B5     		push	{r7, lr}
 4109              		.cfi_def_cfa_offset 8
 4110              		.cfi_offset 7, -8
 4111              		.cfi_offset 14, -4
 4112 0002 82B0     		sub	sp, sp, #8
 4113              		.cfi_def_cfa_offset 16
 4114 0004 00AF     		add	r7, sp, #0
 4115              		.cfi_def_cfa_register 7
 4116 0006 0346     		mov	r3, r0
 4117 0008 0A46     		mov	r2, r1
 4118 000a FB71     		strb	r3, [r7, #7]
 4119 000c 1346     		mov	r3, r2
 4120 000e BB71     		strb	r3, [r7, #6]
 4121              		.loc 7 729 3
 4122 0010 B979     		ldrb	r1, [r7, #6]	@ zero_extendqisi2
 4123 0012 F879     		ldrb	r0, [r7, #7]	@ zero_extendqisi2
 4124 0014 0023     		movs	r3, #0
 4125 0016 7922     		movs	r2, #121
 4126 0018 FFF7FEFF 		bl	midi_channel_mode_cc
 4127              		.loc 7 730 1
 4128 001c 00BF     		nop
ARM GAS  C:\Users\DEVELO~1\AppData\Local\Temp\ccBydanM.s 			page 74


 4129 001e 0837     		adds	r7, r7, #8
 4130              		.cfi_def_cfa_offset 8
 4131 0020 BD46     		mov	sp, r7
 4132              		.cfi_def_cfa_register 13
 4133              		@ sp needed
 4134 0022 80BD     		pop	{r7, pc}
 4135              		.cfi_endproc
 4136              	.LFE472:
 4137              		.size	midi_reset_all_controllers, .-midi_reset_all_controllers
 4138              		.section	.text.midi_local_control,"ax",%progbits
 4139              		.align	1
 4140              		.global	midi_local_control
 4141              		.syntax unified
 4142              		.thumb
 4143              		.thumb_func
 4144              		.type	midi_local_control, %function
 4145              	midi_local_control:
 4146              	.LFB473:
 4147              		.loc 7 732 64
 4148              		.cfi_startproc
 4149              		@ args = 0, pretend = 0, frame = 8
 4150              		@ frame_needed = 1, uses_anonymous_args = 0
 4151 0000 80B5     		push	{r7, lr}
 4152              		.cfi_def_cfa_offset 8
 4153              		.cfi_offset 7, -8
 4154              		.cfi_offset 14, -4
 4155 0002 82B0     		sub	sp, sp, #8
 4156              		.cfi_def_cfa_offset 16
 4157 0004 00AF     		add	r7, sp, #0
 4158              		.cfi_def_cfa_register 7
 4159 0006 0346     		mov	r3, r0
 4160 0008 FB71     		strb	r3, [r7, #7]
 4161 000a 0B46     		mov	r3, r1
 4162 000c BB71     		strb	r3, [r7, #6]
 4163 000e 1346     		mov	r3, r2
 4164 0010 7B71     		strb	r3, [r7, #5]
 4165              		.loc 7 733 3
 4166 0012 7B79     		ldrb	r3, [r7, #5]	@ zero_extendqisi2
 4167 0014 002B     		cmp	r3, #0
 4168 0016 01D0     		beq	.L188
 4169              		.loc 7 733 3 is_stmt 0 discriminator 1
 4170 0018 7F23     		movs	r3, #127
 4171 001a 00E0     		b	.L189
 4172              	.L188:
 4173              		.loc 7 733 3 discriminator 2
 4174 001c 0023     		movs	r3, #0
 4175              	.L189:
 4176              		.loc 7 733 3 discriminator 4
 4177 001e B979     		ldrb	r1, [r7, #6]	@ zero_extendqisi2
 4178 0020 F879     		ldrb	r0, [r7, #7]	@ zero_extendqisi2
 4179 0022 7A22     		movs	r2, #122
 4180 0024 FFF7FEFF 		bl	midi_channel_mode_cc
 4181              		.loc 7 734 1 is_stmt 1 discriminator 4
 4182 0028 00BF     		nop
 4183 002a 0837     		adds	r7, r7, #8
 4184              		.cfi_def_cfa_offset 8
 4185 002c BD46     		mov	sp, r7
ARM GAS  C:\Users\DEVELO~1\AppData\Local\Temp\ccBydanM.s 			page 75


 4186              		.cfi_def_cfa_register 13
 4187              		@ sp needed
 4188 002e 80BD     		pop	{r7, pc}
 4189              		.cfi_endproc
 4190              	.LFE473:
 4191              		.size	midi_local_control, .-midi_local_control
 4192              		.section	.text.midi_all_notes_off,"ax",%progbits
 4193              		.align	1
 4194              		.global	midi_all_notes_off
 4195              		.syntax unified
 4196              		.thumb
 4197              		.thumb_func
 4198              		.type	midi_all_notes_off, %function
 4199              	midi_all_notes_off:
 4200              	.LFB474:
 4201              		.loc 7 736 55
 4202              		.cfi_startproc
 4203              		@ args = 0, pretend = 0, frame = 8
 4204              		@ frame_needed = 1, uses_anonymous_args = 0
 4205 0000 80B5     		push	{r7, lr}
 4206              		.cfi_def_cfa_offset 8
 4207              		.cfi_offset 7, -8
 4208              		.cfi_offset 14, -4
 4209 0002 82B0     		sub	sp, sp, #8
 4210              		.cfi_def_cfa_offset 16
 4211 0004 00AF     		add	r7, sp, #0
 4212              		.cfi_def_cfa_register 7
 4213 0006 0346     		mov	r3, r0
 4214 0008 0A46     		mov	r2, r1
 4215 000a FB71     		strb	r3, [r7, #7]
 4216 000c 1346     		mov	r3, r2
 4217 000e BB71     		strb	r3, [r7, #6]
 4218              		.loc 7 737 3
 4219 0010 B979     		ldrb	r1, [r7, #6]	@ zero_extendqisi2
 4220 0012 F879     		ldrb	r0, [r7, #7]	@ zero_extendqisi2
 4221 0014 0023     		movs	r3, #0
 4222 0016 7B22     		movs	r2, #123
 4223 0018 FFF7FEFF 		bl	midi_channel_mode_cc
 4224              		.loc 7 738 1
 4225 001c 00BF     		nop
 4226 001e 0837     		adds	r7, r7, #8
 4227              		.cfi_def_cfa_offset 8
 4228 0020 BD46     		mov	sp, r7
 4229              		.cfi_def_cfa_register 13
 4230              		@ sp needed
 4231 0022 80BD     		pop	{r7, pc}
 4232              		.cfi_endproc
 4233              	.LFE474:
 4234              		.size	midi_all_notes_off, .-midi_all_notes_off
 4235              		.section	.text.midi_omni_mode_off,"ax",%progbits
 4236              		.align	1
 4237              		.global	midi_omni_mode_off
 4238              		.syntax unified
 4239              		.thumb
 4240              		.thumb_func
 4241              		.type	midi_omni_mode_off, %function
 4242              	midi_omni_mode_off:
ARM GAS  C:\Users\DEVELO~1\AppData\Local\Temp\ccBydanM.s 			page 76


 4243              	.LFB475:
 4244              		.loc 7 740 55
 4245              		.cfi_startproc
 4246              		@ args = 0, pretend = 0, frame = 8
 4247              		@ frame_needed = 1, uses_anonymous_args = 0
 4248 0000 80B5     		push	{r7, lr}
 4249              		.cfi_def_cfa_offset 8
 4250              		.cfi_offset 7, -8
 4251              		.cfi_offset 14, -4
 4252 0002 82B0     		sub	sp, sp, #8
 4253              		.cfi_def_cfa_offset 16
 4254 0004 00AF     		add	r7, sp, #0
 4255              		.cfi_def_cfa_register 7
 4256 0006 0346     		mov	r3, r0
 4257 0008 0A46     		mov	r2, r1
 4258 000a FB71     		strb	r3, [r7, #7]
 4259 000c 1346     		mov	r3, r2
 4260 000e BB71     		strb	r3, [r7, #6]
 4261              		.loc 7 741 3
 4262 0010 B979     		ldrb	r1, [r7, #6]	@ zero_extendqisi2
 4263 0012 F879     		ldrb	r0, [r7, #7]	@ zero_extendqisi2
 4264 0014 0023     		movs	r3, #0
 4265 0016 7C22     		movs	r2, #124
 4266 0018 FFF7FEFF 		bl	midi_channel_mode_cc
 4267              		.loc 7 742 1
 4268 001c 00BF     		nop
 4269 001e 0837     		adds	r7, r7, #8
 4270              		.cfi_def_cfa_offset 8
 4271 0020 BD46     		mov	sp, r7
 4272              		.cfi_def_cfa_register 13
 4273              		@ sp needed
 4274 0022 80BD     		pop	{r7, pc}
 4275              		.cfi_endproc
 4276              	.LFE475:
 4277              		.size	midi_omni_mode_off, .-midi_omni_mode_off
 4278              		.section	.text.midi_omni_mode_on,"ax",%progbits
 4279              		.align	1
 4280              		.global	midi_omni_mode_on
 4281              		.syntax unified
 4282              		.thumb
 4283              		.thumb_func
 4284              		.type	midi_omni_mode_on, %function
 4285              	midi_omni_mode_on:
 4286              	.LFB476:
 4287              		.loc 7 744 54
 4288              		.cfi_startproc
 4289              		@ args = 0, pretend = 0, frame = 8
 4290              		@ frame_needed = 1, uses_anonymous_args = 0
 4291 0000 80B5     		push	{r7, lr}
 4292              		.cfi_def_cfa_offset 8
 4293              		.cfi_offset 7, -8
 4294              		.cfi_offset 14, -4
 4295 0002 82B0     		sub	sp, sp, #8
 4296              		.cfi_def_cfa_offset 16
 4297 0004 00AF     		add	r7, sp, #0
 4298              		.cfi_def_cfa_register 7
 4299 0006 0346     		mov	r3, r0
ARM GAS  C:\Users\DEVELO~1\AppData\Local\Temp\ccBydanM.s 			page 77


 4300 0008 0A46     		mov	r2, r1
 4301 000a FB71     		strb	r3, [r7, #7]
 4302 000c 1346     		mov	r3, r2
 4303 000e BB71     		strb	r3, [r7, #6]
 4304              		.loc 7 745 3
 4305 0010 B979     		ldrb	r1, [r7, #6]	@ zero_extendqisi2
 4306 0012 F879     		ldrb	r0, [r7, #7]	@ zero_extendqisi2
 4307 0014 0023     		movs	r3, #0
 4308 0016 7D22     		movs	r2, #125
 4309 0018 FFF7FEFF 		bl	midi_channel_mode_cc
 4310              		.loc 7 746 1
 4311 001c 00BF     		nop
 4312 001e 0837     		adds	r7, r7, #8
 4313              		.cfi_def_cfa_offset 8
 4314 0020 BD46     		mov	sp, r7
 4315              		.cfi_def_cfa_register 13
 4316              		@ sp needed
 4317 0022 80BD     		pop	{r7, pc}
 4318              		.cfi_endproc
 4319              	.LFE476:
 4320              		.size	midi_omni_mode_on, .-midi_omni_mode_on
 4321              		.section	.text.midi_mono_mode_on,"ax",%progbits
 4322              		.align	1
 4323              		.global	midi_mono_mode_on
 4324              		.syntax unified
 4325              		.thumb
 4326              		.thumb_func
 4327              		.type	midi_mono_mode_on, %function
 4328              	midi_mono_mode_on:
 4329              	.LFB477:
 4330              		.loc 7 748 76
 4331              		.cfi_startproc
 4332              		@ args = 0, pretend = 0, frame = 8
 4333              		@ frame_needed = 1, uses_anonymous_args = 0
 4334 0000 80B5     		push	{r7, lr}
 4335              		.cfi_def_cfa_offset 8
 4336              		.cfi_offset 7, -8
 4337              		.cfi_offset 14, -4
 4338 0002 82B0     		sub	sp, sp, #8
 4339              		.cfi_def_cfa_offset 16
 4340 0004 00AF     		add	r7, sp, #0
 4341              		.cfi_def_cfa_register 7
 4342 0006 0346     		mov	r3, r0
 4343 0008 FB71     		strb	r3, [r7, #7]
 4344 000a 0B46     		mov	r3, r1
 4345 000c BB71     		strb	r3, [r7, #6]
 4346 000e 1346     		mov	r3, r2
 4347 0010 7B71     		strb	r3, [r7, #5]
 4348              		.loc 7 749 3
 4349 0012 7B79     		ldrb	r3, [r7, #5]	@ zero_extendqisi2
 4350 0014 B979     		ldrb	r1, [r7, #6]	@ zero_extendqisi2
 4351 0016 F879     		ldrb	r0, [r7, #7]	@ zero_extendqisi2
 4352 0018 7E22     		movs	r2, #126
 4353 001a FFF7FEFF 		bl	midi_channel_mode_cc
 4354              		.loc 7 750 1
 4355 001e 00BF     		nop
 4356 0020 0837     		adds	r7, r7, #8
ARM GAS  C:\Users\DEVELO~1\AppData\Local\Temp\ccBydanM.s 			page 78


 4357              		.cfi_def_cfa_offset 8
 4358 0022 BD46     		mov	sp, r7
 4359              		.cfi_def_cfa_register 13
 4360              		@ sp needed
 4361 0024 80BD     		pop	{r7, pc}
 4362              		.cfi_endproc
 4363              	.LFE477:
 4364              		.size	midi_mono_mode_on, .-midi_mono_mode_on
 4365              		.section	.text.midi_poly_mode_on,"ax",%progbits
 4366              		.align	1
 4367              		.global	midi_poly_mode_on
 4368              		.syntax unified
 4369              		.thumb
 4370              		.thumb_func
 4371              		.type	midi_poly_mode_on, %function
 4372              	midi_poly_mode_on:
 4373              	.LFB478:
 4374              		.loc 7 752 54
 4375              		.cfi_startproc
 4376              		@ args = 0, pretend = 0, frame = 8
 4377              		@ frame_needed = 1, uses_anonymous_args = 0
 4378 0000 80B5     		push	{r7, lr}
 4379              		.cfi_def_cfa_offset 8
 4380              		.cfi_offset 7, -8
 4381              		.cfi_offset 14, -4
 4382 0002 82B0     		sub	sp, sp, #8
 4383              		.cfi_def_cfa_offset 16
 4384 0004 00AF     		add	r7, sp, #0
 4385              		.cfi_def_cfa_register 7
 4386 0006 0346     		mov	r3, r0
 4387 0008 0A46     		mov	r2, r1
 4388 000a FB71     		strb	r3, [r7, #7]
 4389 000c 1346     		mov	r3, r2
 4390 000e BB71     		strb	r3, [r7, #6]
 4391              		.loc 7 753 3
 4392 0010 B979     		ldrb	r1, [r7, #6]	@ zero_extendqisi2
 4393 0012 F879     		ldrb	r0, [r7, #7]	@ zero_extendqisi2
 4394 0014 0023     		movs	r3, #0
 4395 0016 7F22     		movs	r2, #127
 4396 0018 FFF7FEFF 		bl	midi_channel_mode_cc
 4397              		.loc 7 754 1
 4398 001c 00BF     		nop
 4399 001e 0837     		adds	r7, r7, #8
 4400              		.cfi_def_cfa_offset 8
 4401 0020 BD46     		mov	sp, r7
 4402              		.cfi_def_cfa_register 13
 4403              		@ sp needed
 4404 0022 80BD     		pop	{r7, pc}
 4405              		.cfi_endproc
 4406              	.LFE478:
 4407              		.size	midi_poly_mode_on, .-midi_poly_mode_on
 4408              		.section	.text.midi_usb_queue_high_watermark,"ax",%progbits
 4409              		.align	1
 4410              		.global	midi_usb_queue_high_watermark
 4411              		.syntax unified
 4412              		.thumb
 4413              		.thumb_func
ARM GAS  C:\Users\DEVELO~1\AppData\Local\Temp\ccBydanM.s 			page 79


 4414              		.type	midi_usb_queue_high_watermark, %function
 4415              	midi_usb_queue_high_watermark:
 4416              	.LFB479:
 4417              		.loc 7 756 46
 4418              		.cfi_startproc
 4419              		@ args = 0, pretend = 0, frame = 0
 4420              		@ frame_needed = 1, uses_anonymous_args = 0
 4421              		@ link register save eliminated.
 4422 0000 80B4     		push	{r7}
 4423              		.cfi_def_cfa_offset 4
 4424              		.cfi_offset 7, -4
 4425 0002 00AF     		add	r7, sp, #0
 4426              		.cfi_def_cfa_register 7
 4427              		.loc 7 757 10
 4428 0004 024B     		ldr	r3, .L197
 4429 0006 1B88     		ldrh	r3, [r3]
 4430              		.loc 7 758 1
 4431 0008 1846     		mov	r0, r3
 4432 000a BD46     		mov	sp, r7
 4433              		.cfi_def_cfa_register 13
 4434              		@ sp needed
 4435 000c 80BC     		pop	{r7}
 4436              		.cfi_restore 7
 4437              		.cfi_def_cfa_offset 0
 4438 000e 7047     		bx	lr
 4439              	.L198:
 4440              		.align	2
 4441              	.L197:
 4442 0010 00000000 		.word	midi_usb_queue_high_water
 4443              		.cfi_endproc
 4444              	.LFE479:
 4445              		.size	midi_usb_queue_high_watermark, .-midi_usb_queue_high_watermark
 4446              		.section	.text.midi_usb_rx_high_watermark,"ax",%progbits
 4447              		.align	1
 4448              		.global	midi_usb_rx_high_watermark
 4449              		.syntax unified
 4450              		.thumb
 4451              		.thumb_func
 4452              		.type	midi_usb_rx_high_watermark, %function
 4453              	midi_usb_rx_high_watermark:
 4454              	.LFB480:
 4455              		.loc 7 760 43
 4456              		.cfi_startproc
 4457              		@ args = 0, pretend = 0, frame = 0
 4458              		@ frame_needed = 1, uses_anonymous_args = 0
 4459              		@ link register save eliminated.
 4460 0000 80B4     		push	{r7}
 4461              		.cfi_def_cfa_offset 4
 4462              		.cfi_offset 7, -4
 4463 0002 00AF     		add	r7, sp, #0
 4464              		.cfi_def_cfa_register 7
 4465              		.loc 7 761 10
 4466 0004 024B     		ldr	r3, .L201
 4467 0006 1B88     		ldrh	r3, [r3]
 4468              		.loc 7 762 1
 4469 0008 1846     		mov	r0, r3
 4470 000a BD46     		mov	sp, r7
ARM GAS  C:\Users\DEVELO~1\AppData\Local\Temp\ccBydanM.s 			page 80


 4471              		.cfi_def_cfa_register 13
 4472              		@ sp needed
 4473 000c 80BC     		pop	{r7}
 4474              		.cfi_restore 7
 4475              		.cfi_def_cfa_offset 0
 4476 000e 7047     		bx	lr
 4477              	.L202:
 4478              		.align	2
 4479              	.L201:
 4480 0010 00000000 		.word	midi_usb_rx_queue_high_water
 4481              		.cfi_endproc
 4482              	.LFE480:
 4483              		.size	midi_usb_rx_high_watermark, .-midi_usb_rx_high_watermark
 4484              		.section	.text.midi_stats_reset,"ax",%progbits
 4485              		.align	1
 4486              		.global	midi_stats_reset
 4487              		.syntax unified
 4488              		.thumb
 4489              		.thumb_func
 4490              		.type	midi_stats_reset, %function
 4491              	midi_stats_reset:
 4492              	.LFB481:
 4493              		.loc 7 767 28
 4494              		.cfi_startproc
 4495              		@ args = 0, pretend = 0, frame = 48
 4496              		@ frame_needed = 1, uses_anonymous_args = 0
 4497              		@ link register save eliminated.
 4498 0000 80B4     		push	{r7}
 4499              		.cfi_def_cfa_offset 4
 4500              		.cfi_offset 7, -4
 4501 0002 8DB0     		sub	sp, sp, #52
 4502              		.cfi_def_cfa_offset 56
 4503 0004 00AF     		add	r7, sp, #0
 4504              		.cfi_def_cfa_register 7
 4505              		.loc 7 768 16
 4506 0006 0C4B     		ldr	r3, .L204
 4507 0008 1A46     		mov	r2, r3
 4508 000a 0023     		movs	r3, #0
 4509 000c 1360     		str	r3, [r2]
 4510 000e 5360     		str	r3, [r2, #4]
 4511 0010 9360     		str	r3, [r2, #8]
 4512 0012 D360     		str	r3, [r2, #12]
 4513 0014 1361     		str	r3, [r2, #16]
 4514 0016 5361     		str	r3, [r2, #20]
 4515 0018 9361     		str	r3, [r2, #24]
 4516              		.loc 7 769 16
 4517 001a 084B     		ldr	r3, .L204+4
 4518 001c 1A46     		mov	r2, r3
 4519 001e 0023     		movs	r3, #0
 4520 0020 1360     		str	r3, [r2]
 4521 0022 5360     		str	r3, [r2, #4]
 4522 0024 9360     		str	r3, [r2, #8]
 4523 0026 D360     		str	r3, [r2, #12]
 4524              		.loc 7 770 21
 4525 0028 054B     		ldr	r3, .L204+8
 4526 002a 0022     		movs	r2, #0
 4527 002c 1A60     		str	r2, [r3]
ARM GAS  C:\Users\DEVELO~1\AppData\Local\Temp\ccBydanM.s 			page 81


 4528              		.loc 7 771 1
 4529 002e 00BF     		nop
 4530 0030 3437     		adds	r7, r7, #52
 4531              		.cfi_def_cfa_offset 4
 4532 0032 BD46     		mov	sp, r7
 4533              		.cfi_def_cfa_register 13
 4534              		@ sp needed
 4535 0034 80BC     		pop	{r7}
 4536              		.cfi_restore 7
 4537              		.cfi_def_cfa_offset 0
 4538 0036 7047     		bx	lr
 4539              	.L205:
 4540              		.align	2
 4541              	.L204:
 4542 0038 00000000 		.word	midi_tx_stats
 4543 003c 00000000 		.word	midi_rx_stats
 4544 0040 00000000 		.word	midi_usb_rx_drops
 4545              		.cfi_endproc
 4546              	.LFE481:
 4547              		.size	midi_stats_reset, .-midi_stats_reset
 4548              		.section	.rodata.uart_cfg.0,"a"
 4549              		.align	2
 4550              		.type	uart_cfg.0, %object
 4551              		.size	uart_cfg.0, 16
 4552              	uart_cfg.0:
 4553 0000 127A0000 		.word	31250
 4554 0004 00000000 		.word	0
 4555 0008 00000000 		.word	0
 4556 000c 00000000 		.word	0
 4557              		.text
 4558              	.Letext0:
 4559              		.file 8 "c:\\chibistudio\\tools\\gnu tools arm embedded\\11.3 2022.08\\lib\\gcc\\arm-none-eabi\\11
 4560              		.file 9 "c:\\chibistudio\\tools\\gnu tools arm embedded\\11.3 2022.08\\arm-none-eabi\\include\\mac
 4561              		.file 10 "c:\\chibistudio\\tools\\gnu tools arm embedded\\11.3 2022.08\\arm-none-eabi\\include\\sy
 4562              		.file 11 "../../../os/common/ports/ARM-common/chtypes.h"
 4563              		.file 12 "../../../os/rt/include/chearly.h"
 4564              		.file 13 "../../../os/rt/include/chobjects.h"
 4565              		.file 14 "../../../os/rt/include/chrfcu.h"
 4566              		.file 15 "../../../os/rt/include/chdebug.h"
 4567              		.file 16 "../../../os/rt/include/chtime.h"
 4568              		.file 17 "../../../os/rt/include/chlists.h"
 4569              		.file 18 "../../../os/rt/include/chtrace.h"
 4570              		.file 19 "../../../os/common/ext/ST/STM32H7xx/stm32h743xx.h"
 4571              		.file 20 "../../../os/rt/include/chsem.h"
 4572              		.file 21 "../../../os/rt/include/chmtx.h"
 4573              		.file 22 "../../../os/rt/include/chthreads.h"
 4574              		.file 23 "../../../os/rt/include/chevents.h"
 4575              		.file 24 "../../../os/oslib/include/chmboxes.h"
 4576              		.file 25 "../../../os/hal/include/hal_queues.h"
 4577              		.file 26 "../../../os/hal/include/hal_serial.h"
 4578              		.file 27 "../../../os/hal/ports/STM32/LLD/USARTv3/hal_serial_lld.h"
 4579              		.file 28 "../../../os/hal/include/hal_usb.h"
 4580              		.file 29 "../../../os/hal/ports/STM32/LLD/OTGv1/hal_usb_lld.h"
 4581              		.file 30 "../../../os/hal/ports/STM32/LLD/OTGv1/stm32_otg.h"
 4582              		.file 31 "midi/midi.h"
 4583              		.file 32 "usb/usbcfg.h"