ARM GAS  C:\Users\DEVELO~1\AppData\Local\Temp\cckzLwTl.s 			page 1


   1              		.cpu cortex-m7
   2              		.arch armv7e-m
   3              		.fpu softvfp
   4              		.eabi_attribute 20, 1
   5              		.eabi_attribute 21, 1
   6              		.eabi_attribute 23, 3
   7              		.eabi_attribute 24, 1
   8              		.eabi_attribute 25, 1
   9              		.eabi_attribute 26, 1
  10              		.eabi_attribute 30, 6
  11              		.eabi_attribute 34, 1
  12              		.eabi_attribute 18, 4
  13              		.file	"nullstreams.c"
  14              		.text
  15              	.Ltext0:
  16              		.cfi_sections	.debug_frame
  17              		.section	.text.writes,"ax",%progbits
  18              		.align	1
  19              		.syntax unified
  20              		.thumb
  21              		.thumb_func
  22              		.type	writes, %function
  23              	writes:
  24              	.LFB432:
  25              		.file 1 "../../../os/hal/lib/streams/nullstreams.c"
  26              		.loc 1 45 61
  27              		.cfi_startproc
  28              		@ args = 0, pretend = 0, frame = 16
  29              		@ frame_needed = 1, uses_anonymous_args = 0
  30              		@ link register save eliminated.
  31 0000 80B4     		push	{r7}
  32              		.cfi_def_cfa_offset 4
  33              		.cfi_offset 7, -4
  34 0002 85B0     		sub	sp, sp, #20
  35              		.cfi_def_cfa_offset 24
  36 0004 00AF     		add	r7, sp, #0
  37              		.cfi_def_cfa_register 7
  38 0006 F860     		str	r0, [r7, #12]
  39 0008 B960     		str	r1, [r7, #8]
  40 000a 7A60     		str	r2, [r7, #4]
  41              		.loc 1 50 10
  42 000c 7B68     		ldr	r3, [r7, #4]
  43              		.loc 1 51 1
  44 000e 1846     		mov	r0, r3
  45 0010 1437     		adds	r7, r7, #20
  46              		.cfi_def_cfa_offset 4
  47 0012 BD46     		mov	sp, r7
  48              		.cfi_def_cfa_register 13
  49              		@ sp needed
  50 0014 80BC     		pop	{r7}
  51              		.cfi_restore 7
  52              		.cfi_def_cfa_offset 0
  53 0016 7047     		bx	lr
  54              		.cfi_endproc
  55              	.LFE432:
  56              		.size	writes, .-writes
  57              		.section	.text.reads,"ax",%progbits
ARM GAS  C:\Users\DEVELO~1\AppData\Local\Temp\cckzLwTl.s 			page 2


  58              		.align	1
  59              		.syntax unified
  60              		.thumb
  61              		.thumb_func
  62              		.type	reads, %function
  63              	reads:
  64              	.LFB433:
  65              		.loc 1 53 54
  66              		.cfi_startproc
  67              		@ args = 0, pretend = 0, frame = 16
  68              		@ frame_needed = 1, uses_anonymous_args = 0
  69              		@ link register save eliminated.
  70 0000 80B4     		push	{r7}
  71              		.cfi_def_cfa_offset 4
  72              		.cfi_offset 7, -4
  73 0002 85B0     		sub	sp, sp, #20
  74              		.cfi_def_cfa_offset 24
  75 0004 00AF     		add	r7, sp, #0
  76              		.cfi_def_cfa_register 7
  77 0006 F860     		str	r0, [r7, #12]
  78 0008 B960     		str	r1, [r7, #8]
  79 000a 7A60     		str	r2, [r7, #4]
  80              		.loc 1 59 10
  81 000c 0023     		movs	r3, #0
  82              		.loc 1 60 1
  83 000e 1846     		mov	r0, r3
  84 0010 1437     		adds	r7, r7, #20
  85              		.cfi_def_cfa_offset 4
  86 0012 BD46     		mov	sp, r7
  87              		.cfi_def_cfa_register 13
  88              		@ sp needed
  89 0014 80BC     		pop	{r7}
  90              		.cfi_restore 7
  91              		.cfi_def_cfa_offset 0
  92 0016 7047     		bx	lr
  93              		.cfi_endproc
  94              	.LFE433:
  95              		.size	reads, .-reads
  96              		.section	.text.put,"ax",%progbits
  97              		.align	1
  98              		.syntax unified
  99              		.thumb
 100              		.thumb_func
 101              		.type	put, %function
 102              	put:
 103              	.LFB434:
 104              		.loc 1 62 39
 105              		.cfi_startproc
 106              		@ args = 0, pretend = 0, frame = 8
 107              		@ frame_needed = 1, uses_anonymous_args = 0
 108              		@ link register save eliminated.
 109 0000 80B4     		push	{r7}
 110              		.cfi_def_cfa_offset 4
 111              		.cfi_offset 7, -4
 112 0002 83B0     		sub	sp, sp, #12
 113              		.cfi_def_cfa_offset 16
 114 0004 00AF     		add	r7, sp, #0
ARM GAS  C:\Users\DEVELO~1\AppData\Local\Temp\cckzLwTl.s 			page 3


 115              		.cfi_def_cfa_register 7
 116 0006 7860     		str	r0, [r7, #4]
 117 0008 0B46     		mov	r3, r1
 118 000a FB70     		strb	r3, [r7, #3]
 119              		.loc 1 67 10
 120 000c 0023     		movs	r3, #0
 121              		.loc 1 68 1
 122 000e 1846     		mov	r0, r3
 123 0010 0C37     		adds	r7, r7, #12
 124              		.cfi_def_cfa_offset 4
 125 0012 BD46     		mov	sp, r7
 126              		.cfi_def_cfa_register 13
 127              		@ sp needed
 128 0014 80BC     		pop	{r7}
 129              		.cfi_restore 7
 130              		.cfi_def_cfa_offset 0
 131 0016 7047     		bx	lr
 132              		.cfi_endproc
 133              	.LFE434:
 134              		.size	put, .-put
 135              		.section	.text.get,"ax",%progbits
 136              		.align	1
 137              		.syntax unified
 138              		.thumb
 139              		.thumb_func
 140              		.type	get, %function
 141              	get:
 142              	.LFB435:
 143              		.loc 1 70 28
 144              		.cfi_startproc
 145              		@ args = 0, pretend = 0, frame = 8
 146              		@ frame_needed = 1, uses_anonymous_args = 0
 147              		@ link register save eliminated.
 148 0000 80B4     		push	{r7}
 149              		.cfi_def_cfa_offset 4
 150              		.cfi_offset 7, -4
 151 0002 83B0     		sub	sp, sp, #12
 152              		.cfi_def_cfa_offset 16
 153 0004 00AF     		add	r7, sp, #0
 154              		.cfi_def_cfa_register 7
 155 0006 7860     		str	r0, [r7, #4]
 156              		.loc 1 74 10
 157 0008 0423     		movs	r3, #4
 158              		.loc 1 75 1
 159 000a 1846     		mov	r0, r3
 160 000c 0C37     		adds	r7, r7, #12
 161              		.cfi_def_cfa_offset 4
 162 000e BD46     		mov	sp, r7
 163              		.cfi_def_cfa_register 13
 164              		@ sp needed
 165 0010 80BC     		pop	{r7}
 166              		.cfi_restore 7
 167              		.cfi_def_cfa_offset 0
 168 0012 7047     		bx	lr
 169              		.cfi_endproc
 170              	.LFE435:
 171              		.size	get, .-get
ARM GAS  C:\Users\DEVELO~1\AppData\Local\Temp\cckzLwTl.s 			page 4


 172              		.section	.text.unget,"ax",%progbits
 173              		.align	1
 174              		.syntax unified
 175              		.thumb
 176              		.thumb_func
 177              		.type	unget, %function
 178              	unget:
 179              	.LFB436:
 180              		.loc 1 78 1
 181              		.cfi_startproc
 182              		@ args = 0, pretend = 0, frame = 8
 183              		@ frame_needed = 1, uses_anonymous_args = 0
 184              		@ link register save eliminated.
 185 0000 80B4     		push	{r7}
 186              		.cfi_def_cfa_offset 4
 187              		.cfi_offset 7, -4
 188 0002 83B0     		sub	sp, sp, #12
 189              		.cfi_def_cfa_offset 16
 190 0004 00AF     		add	r7, sp, #0
 191              		.cfi_def_cfa_register 7
 192 0006 7860     		str	r0, [r7, #4]
 193 0008 0B46     		mov	r3, r1
 194 000a FB70     		strb	r3, [r7, #3]
 195              		.loc 1 83 10
 196 000c 0023     		movs	r3, #0
 197              		.loc 1 84 1
 198 000e 1846     		mov	r0, r3
 199 0010 0C37     		adds	r7, r7, #12
 200              		.cfi_def_cfa_offset 4
 201 0012 BD46     		mov	sp, r7
 202              		.cfi_def_cfa_register 13
 203              		@ sp needed
 204 0014 80BC     		pop	{r7}
 205              		.cfi_restore 7
 206              		.cfi_def_cfa_offset 0
 207 0016 7047     		bx	lr
 208              		.cfi_endproc
 209              	.LFE436:
 210              		.size	unget, .-unget
 211              		.section	.rodata.vmt,"a"
 212              		.align	2
 213              		.type	vmt, %object
 214              		.size	vmt, 24
 215              	vmt:
 216 0000 00000000 		.word	0
 217 0004 00000000 		.word	writes
 218 0008 00000000 		.word	reads
 219 000c 00000000 		.word	put
 220 0010 00000000 		.word	get
 221 0014 00000000 		.word	unget
 222              		.section	.text.nullObjectInit,"ax",%progbits
 223              		.align	1
 224              		.global	nullObjectInit
 225              		.syntax unified
 226              		.thumb
 227              		.thumb_func
 228              		.type	nullObjectInit, %function
ARM GAS  C:\Users\DEVELO~1\AppData\Local\Temp\cckzLwTl.s 			page 5


 229              	nullObjectInit:
 230              	.LFB437:
 231              		.loc 1 97 38
 232              		.cfi_startproc
 233              		@ args = 0, pretend = 0, frame = 8
 234              		@ frame_needed = 1, uses_anonymous_args = 0
 235              		@ link register save eliminated.
 236 0000 80B4     		push	{r7}
 237              		.cfi_def_cfa_offset 4
 238              		.cfi_offset 7, -4
 239 0002 83B0     		sub	sp, sp, #12
 240              		.cfi_def_cfa_offset 16
 241 0004 00AF     		add	r7, sp, #0
 242              		.cfi_def_cfa_register 7
 243 0006 7860     		str	r0, [r7, #4]
 244              		.loc 1 99 12
 245 0008 7B68     		ldr	r3, [r7, #4]
 246 000a 034A     		ldr	r2, .L12
 247 000c 1A60     		str	r2, [r3]
 248              		.loc 1 100 1
 249 000e 00BF     		nop
 250 0010 0C37     		adds	r7, r7, #12
 251              		.cfi_def_cfa_offset 4
 252 0012 BD46     		mov	sp, r7
 253              		.cfi_def_cfa_register 13
 254              		@ sp needed
 255 0014 80BC     		pop	{r7}
 256              		.cfi_restore 7
 257              		.cfi_def_cfa_offset 0
 258 0016 7047     		bx	lr
 259              	.L13:
 260              		.align	2
 261              	.L12:
 262 0018 00000000 		.word	vmt
 263              		.cfi_endproc
 264              	.LFE437:
 265              		.size	nullObjectInit, .-nullObjectInit
 266              		.text
 267              	.Letext0:
 268              		.file 2 "c:\\chibistudio\\tools\\gnu tools arm embedded\\11.3 2022.08\\lib\\gcc\\arm-none-eabi\\11
 269              		.file 3 "c:\\chibistudio\\tools\\gnu tools arm embedded\\11.3 2022.08\\arm-none-eabi\\include\\mac
 270              		.file 4 "c:\\chibistudio\\tools\\gnu tools arm embedded\\11.3 2022.08\\arm-none-eabi\\include\\sys
 271              		.file 5 "../../../os/rt/include/chearly.h"
 272              		.file 6 "../../../os/hal/lib/streams/nullstreams.h"