ARM GAS  C:\Users\DEVELO~1\AppData\Local\Temp\cckzLwTl.s 			page 1


   1              		.cpu cortex-m7
   2              		.arch armv7e-m
   3              		.fpu softvfp
   4              		.eabi_attribute 20, 1
   5              		.eabi_attribute 21, 1
   6              		.eabi_attribute 23, 3
   7              		.eabi_attribute 24, 1
   8              		.eabi_attribute 25, 1
   9              		.eabi_attribute 26, 1
  10              		.eabi_attribute 30, 6
  11              		.eabi_attribute 34, 1
  12              		.eabi_attribute 18, 4
  13              		.file	"nullstreams.c"
  14              		.text
  15              	.Ltext0:
  16              		.cfi_sections	.debug_frame
  17              		.section	.text.writes,"ax",%progbits
  18              		.align	1
  19              		.syntax unified
  20              		.thumb
  21              		.thumb_func
  22              		.type	writes, %function
  23              	writes:
  24              	.LFB432:
  25              		.file 1 "../../../os/hal/lib/streams/nullstreams.c"
  26              		.loc 1 45 61
  27              		.cfi_startproc
  28              		@ args = 0, pretend = 0, frame = 16
  29              		@ frame_needed = 1, uses_anonymous_args = 0
  30              		@ link register save eliminated.
  31 0000 80B4     		push	{r7}
  32              		.cfi_def_cfa_offset 4
  33              		.cfi_offset 7, -4
  34 0002 85B0     		sub	sp, sp, #20
  35              		.cfi_def_cfa_offset 24
  36 0004 00AF     		add	r7, sp, #0
  37              		.cfi_def_cfa_register 7
  38 0006 F860     		str	r0, [r7, #12]
  39 0008 B960     		str	r1, [r7, #8]
  40 000a 7A60     		str	r2, [r7, #4]
  41              		.loc 1 50 10
  42 000c 7B68     		ldr	r3, [r7, #4]
  43              		.loc 1 51 1
  44 000e 1846     		mov	r0, r3
  45 0010 1437     		adds	r7, r7, #20
  46              		.cfi_def_cfa_offset 4
  47 0012 BD46     		mov	sp, r7
  48              		.cfi_def_cfa_register 13
  49              		@ sp needed
  50 0014 80BC     		pop	{r7}
  51              		.cfi_restore 7
  52              		.cfi_def_cfa_offset 0
  53 0016 7047     		bx	lr
  54              		.cfi_endproc
  55              	.LFE432:
  56              		.size	writes, .-writes
  57              		.section	.text.reads,"ax",%progbits
ARM GAS  C:\Users\DEVELO~1\AppData\Local\Temp\cckzLwTl.s 			page 2


  58              		.align	1
  59              		.syntax unified
  60              		.thumb
  61              		.thumb_func
  62              		.type	reads, %function
  63              	reads:
  64              	.LFB433:
  65              		.loc 1 53 54
  66              		.cfi_startproc
  67              		@ args = 0, pretend = 0, frame = 16
  68              		@ frame_needed = 1, uses_anonymous_args = 0
  69              		@ link register save eliminated.
  70 0000 80B4     		push	{r7}
  71              		.cfi_def_cfa_offset 4
  72              		.cfi_offset 7, -4
  73 0002 85B0     		sub	sp, sp, #20
  74              		.cfi_def_cfa_offset 24
  75 0004 00AF     		add	r7, sp, #0
  76              		.cfi_def_cfa_register 7
  77 0006 F860     		str	r0, [r7, #12]
  78 0008 B960     		str	r1, [r7, #8]
  79 000a 7A60     		str	r2, [r7, #4]
  80              		.loc 1 59 10
  81 000c 0023     		movs	r3, #0
  82              		.loc 1 60 1
  83 000e 1846     		mov	r0, r3
  84 0010 1437     		adds	r7, r7, #20
  85              		.cfi_def_cfa_offset 4
  86 0012 BD46     		mov	sp, r7
  87              		.cfi_def_cfa_register 13
  88              		@ sp needed
  89 0014 80BC     		pop	{r7}
  90              		.cfi_restore 7
  91              		.cfi_def_cfa_offset 0
  92 0016 7047     		bx	lr
  93              		.cfi_endproc
  94              	.LFE433:
  95              		.size	reads, .-reads
  96              		.section	.text.put,"ax",%progbits
  97              		.align	1
  98              		.syntax unified
  99              		.thumb
 100              		.thumb_func
 101              		.type	put, %function
 102              	put:
 103              	.LFB434:
 104              		.loc 1 62 39
 105              		.cfi_startproc
 106              		@ args = 0, pretend = 0, frame = 8
 107              		@ frame_needed = 1, uses_anonymous_args = 0
 108              		@ link register save eliminated.
 109 0000 80B4     		push	{r7}
 110              		.cfi_def_cfa_offset 4
 111              		.cfi_offset 7, -4
 112 0002 83B0     		sub	sp, sp, #12
 113              		.cfi_def_cfa_offset 16
 114 0004 00AF     		add	r7, sp, #0
ARM GAS  C:\Users\DEVELO~1\AppData\Local\Temp\cckzLwTl.s 			page 3


 115              		.cfi_def_cfa_register 7
 116 0006 7860     		str	r0, [r7, #4]
 117 0008 0B46     		mov	r3, r1
 118 000a FB70     		strb	r3, [r7, #3]
 119              		.loc 1 67 10
 120 000c 0023     		movs	r3, #0
 121              		.loc 1 68 1
 122 000e 1846     		mov	r0, r3
 123 0010 0C37     		adds	r7, r7, #12
 124              		.cfi_def_cfa_offset 4
 125 0012 BD46     		mov	sp, r7
 126              		.cfi_def_cfa_register 13
 127              		@ sp needed
 128 0014 80BC     		pop	{r7}
 129              		.cfi_restore 7
 130              		.cfi_def_cfa_offset 0
 131 0016 7047     		bx	lr
 132              		.cfi_endproc
 133              	.LFE434:
 134              		.size	put, .-put
 135              		.section	.text.get,"ax",%progbits
 136              		.align	1
 137              		.syntax unified
 138              		.thumb
 139              		.thumb_func
 140              		.type	get, %function
 141              	get:
 142              	.LFB435:
 143              		.loc 1 70 28
 144              		.cfi_startproc
 145              		@ args = 0, pretend = 0, frame = 8
 146              		@ frame_needed = 1, uses_anonymous_args = 0
 147              		@ link register save eliminated.
 148 0000 80B4     		push	{r7}
 149              		.cfi_def_cfa_offset 4
 150              		.cfi_offset 7, -4
 151 0002 83B0     		sub	sp, sp, #12
 152              		.cfi_def_cfa_offset 16
 153 0004 00AF     		add	r7, sp, #0
 154              		.cfi_def_cfa_register 7
 155 0006 7860     		str	r0, [r7, #4]
 156              		.loc 1 74 10
 157 0008 0423     		movs	r3, #4
 158              		.loc 1 75 1
 159 000a 1846     		mov	r0, r3
 160 000c 0C37     		adds	r7, r7, #12
 161              		.cfi_def_cfa_offset 4
 162 000e BD46     		mov	sp, r7
 163              		.cfi_def_cfa_register 13
 164              		@ sp needed
 165 0010 80BC     		pop	{r7}
 166              		.cfi_restore 7
 167              		.cfi_def_cfa_offset 0
 168 0012 7047     		bx	lr
 169              		.cfi_endproc
 170              	.LFE435:
 171              		.size	get, .-get
ARM GAS  C:\Users\DEVELO~1\AppData\Local\Temp\cckzLwTl.s 			page 4


 172              		.section	.text.unget,"ax",%progbits
 173              		.align	1
 174              		.syntax unified
 175              		.thumb
 176              		.thumb_func
 177              		.type	unget, %function
 178              	unget:
 179              	.LFB436:
 180              		.loc 1 78 1
 181              		.cfi_startproc
 182              		@ args = 0, pretend = 0, frame = 8
 183              		@ frame_needed = 1, uses_anonymous_args = 0
 184              		@ link register save eliminated.
 185 0000 80B4     		push	{r7}
 186              		.cfi_def_cfa_offset 4
 187              		.cfi_offset 7, -4
 188 0002 83B0     		sub	sp, sp, #12
 189              		.cfi_def_cfa_offset 16
 190 0004 00AF     		add	r7, sp, #0
 191              		.cfi_def_cfa_register 7
 192 0006 7860     		str	r0, [r7, #4]
 193 0008 0B46     		mov	r3, r1
 194 000a FB70     		strb	r3, [r7, #3]
 195              		.loc 1 83 10
 196 000c 0023     		movs	r3, #0
 197              		.loc 1 84 1
 198 000e 1846     		mov	r0, r3
 199 0010 0C37     		adds	r7, r7, #12
 200              		.cfi_def_cfa_offset 4
 201 0012 BD46     		mov	sp, r7
 202              		.cfi_def_cfa_register 13
 203              		@ sp needed
 204 0014 80BC     		pop	{r7}
 205              		.cfi_restore 7
 206              		.cfi_def_cfa_offset 0
 207 0016 7047     		bx	lr
 208              		.cfi_endproc
 209              	.LFE436:
 210              		.size	unget, .-unget
 211              		.section	.rodata.vmt,"a"
 212              		.align	2
 213              		.type	vmt, %object
 214              		.size	vmt, 24
 215              	vmt:
 216 0000 00000000 		.word	0
 217 0004 00000000 		.word	writes
 218 0008 00000000 		.word	reads
 219 000c 00000000 		.word	put
 220 0010 00000000 		.word	get
 221 0014 00000000 		.word	unget
 222              		.section	.text.nullObjectInit,"ax",%progbits
 223              		.align	1
 224              		.global	nullObjectInit
 225              		.syntax unified
 226              		.thumb
 227              		.thumb_func
 228              		.type	nullObjectInit, %function
ARM GAS  C:\Users\DEVELO~1\AppData\Local\Temp\cckzLwTl.s 			page 5


 229              	nullObjectInit:
 230              	.LFB437:
 231              		.loc 1 97 38
 232              		.cfi_startproc
 233              		@ args = 0, pretend = 0, frame = 8
 234              		@ frame_needed = 1, uses_anonymous_args = 0
 235              		@ link register save eliminated.
 236 0000 80B4     		push	{r7}
 237              		.cfi_def_cfa_offset 4
 238              		.cfi_offset 7, -4
 239 0002 83B0     		sub	sp, sp, #12
 240              		.cfi_def_cfa_offset 16
 241 0004 00AF     		add	r7, sp, #0
 242              		.cfi_def_cfa_register 7
 243 0006 7860     		str	r0, [r7, #4]
 244              		.loc 1 99 12
 245 0008 7B68     		ldr	r3, [r7, #4]
 246 000a 034A     		ldr	r2, .L12
 247 000c 1A60     		str	r2, [r3]
 248              		.loc 1 100 1
 249 000e 00BF     		nop
 250 0010 0C37     		adds	r7, r7, #12
 251              		.cfi_def_cfa_offset 4
 252 0012 BD46     		mov	sp, r7
 253              		.cfi_def_cfa_register 13
 254              		@ sp needed
 255 0014 80BC     		pop	{r7}
 256              		.cfi_restore 7
 257              		.cfi_def_cfa_offset 0
 258 0016 7047     		bx	lr
 259              	.L13:
 260              		.align	2
 261              	.L12:
 262 0018 00000000 		.word	vmt
 263              		.cfi_endproc
 264              	.LFE437:
 265              		.size	nullObjectInit, .-nullObjectInit
 266              		.text
 267              	.Letext0:
 268              		.file 2 "c:\\chibistudio\\tools\\gnu tools arm embedded\\11.3 2022.08\\lib\\gcc\\arm-none-eabi\\11
 269              		.file 3 "c:\\chibistudio\\tools\\gnu tools arm embedded\\11.3 2022.08\\arm-none-eabi\\include\\mac
 270              		.file 4 "c:\\chibistudio\\tools\\gnu tools arm embedded\\11.3 2022.08\\arm-none-eabi\\include\\sys
 271              		.file 5 "../../../os/rt/include/chearly.h"
 272              		.file 6 "../../../os/hal/lib/streams/nullstreams.h"
 273              		.section	.debug_info,"",%progbits
 274              	.Ldebug_info0:
 275 0000 FE020000 		.4byte	0x2fe
 276 0004 0500     		.2byte	0x5
 277 0006 01       		.byte	0x1
 278 0007 04       		.byte	0x4
 279 0008 00000000 		.4byte	.Ldebug_abbrev0
 280 000c 0C       		.uleb128 0xc
 281 000d 12010000 		.4byte	.LASF24
 282 0011 1D       		.byte	0x1d
 283 0012 A2010000 		.4byte	.LASF25
 284 0016 8B000000 		.4byte	.LASF26
 285 001a 0C000000 		.4byte	.LLRL0
ARM GAS  C:\Users\DEVELO~1\AppData\Local\Temp\cckzLwTl.s 			page 6


 286 001e 00000000 		.4byte	0
 287 0022 00000000 		.4byte	.Ldebug_line0
 288 0026 0D       		.uleb128 0xd
 289 0027 04       		.byte	0x4
 290 0028 05       		.byte	0x5
 291 0029 696E7400 		.ascii	"int\000"
 292 002d 05       		.uleb128 0x5
 293 002e 0A000000 		.4byte	.LASF4
 294 0032 02       		.byte	0x2
 295 0033 D1       		.byte	0xd1
 296 0034 17       		.byte	0x17
 297 0035 39000000 		.4byte	0x39
 298 0039 01       		.uleb128 0x1
 299 003a 04       		.byte	0x4
 300 003b 07       		.byte	0x7
 301 003c 29000000 		.4byte	.LASF0
 302 0040 01       		.uleb128 0x1
 303 0041 08       		.byte	0x8
 304 0042 05       		.byte	0x5
 305 0043 ED010000 		.4byte	.LASF1
 306 0047 01       		.uleb128 0x1
 307 0048 08       		.byte	0x8
 308 0049 04       		.byte	0x4
 309 004a 36000000 		.4byte	.LASF2
 310 004e 01       		.uleb128 0x1
 311 004f 01       		.byte	0x1
 312 0050 06       		.byte	0x6
 313 0051 58000000 		.4byte	.LASF3
 314 0055 05       		.uleb128 0x5
 315 0056 00000000 		.4byte	.LASF5
 316 005a 03       		.byte	0x3
 317 005b 2B       		.byte	0x2b
 318 005c 18       		.byte	0x18
 319 005d 61000000 		.4byte	0x61
 320 0061 01       		.uleb128 0x1
 321 0062 01       		.byte	0x1
 322 0063 08       		.byte	0x8
 323 0064 64000000 		.4byte	.LASF6
 324 0068 01       		.uleb128 0x1
 325 0069 02       		.byte	0x2
 326 006a 05       		.byte	0x5
 327 006b FB010000 		.4byte	.LASF7
 328 006f 01       		.uleb128 0x1
 329 0070 02       		.byte	0x2
 330 0071 07       		.byte	0x7
 331 0072 72000000 		.4byte	.LASF8
 332 0076 05       		.uleb128 0x5
 333 0077 1F000000 		.4byte	.LASF9
 334 007b 03       		.byte	0x3
 335 007c 4D       		.byte	0x4d
 336 007d 18       		.byte	0x18
 337 007e 82000000 		.4byte	0x82
 338 0082 01       		.uleb128 0x1
 339 0083 04       		.byte	0x4
 340 0084 05       		.byte	0x5
 341 0085 10020000 		.4byte	.LASF10
 342 0089 01       		.uleb128 0x1
ARM GAS  C:\Users\DEVELO~1\AppData\Local\Temp\cckzLwTl.s 			page 7


 343 008a 04       		.byte	0x4
 344 008b 07       		.byte	0x7
 345 008c EA000000 		.4byte	.LASF11
 346 0090 01       		.uleb128 0x1
 347 0091 08       		.byte	0x8
 348 0092 07       		.byte	0x7
 349 0093 1F020000 		.4byte	.LASF12
 350 0097 05       		.uleb128 0x5
 351 0098 D7010000 		.4byte	.LASF13
 352 009c 04       		.byte	0x4
 353 009d 18       		.byte	0x18
 354 009e 13       		.byte	0x13
 355 009f 55000000 		.4byte	0x55
 356 00a3 09       		.uleb128 0x9
 357 00a4 97000000 		.4byte	0x97
 358 00a8 05       		.uleb128 0x5
 359 00a9 E5010000 		.4byte	.LASF14
 360 00ad 04       		.byte	0x4
 361 00ae 2C       		.byte	0x2c
 362 00af 13       		.byte	0x13
 363 00b0 76000000 		.4byte	0x76
 364 00b4 05       		.uleb128 0x5
 365 00b5 DF010000 		.4byte	.LASF15
 366 00b9 05       		.byte	0x5
 367 00ba 58       		.byte	0x58
 368 00bb 19       		.byte	0x19
 369 00bc A8000000 		.4byte	0xa8
 370 00c0 01       		.uleb128 0x1
 371 00c1 01       		.byte	0x1
 372 00c2 08       		.byte	0x8
 373 00c3 D2010000 		.4byte	.LASF16
 374 00c7 0E       		.uleb128 0xe
 375 00c8 04       		.byte	0x4
 376 00c9 01       		.uleb128 0x1
 377 00ca 01       		.byte	0x1
 378 00cb 02       		.byte	0x2
 379 00cc 19020000 		.4byte	.LASF17
 380 00d0 04       		.uleb128 0x4
 381 00d1 97000000 		.4byte	0x97
 382 00d5 06       		.uleb128 0x6
 383 00d6 2D000000 		.4byte	0x2d
 384 00da EE000000 		.4byte	0xee
 385 00de 03       		.uleb128 0x3
 386 00df C7000000 		.4byte	0xc7
 387 00e3 03       		.uleb128 0x3
 388 00e4 EE000000 		.4byte	0xee
 389 00e8 03       		.uleb128 0x3
 390 00e9 2D000000 		.4byte	0x2d
 391 00ed 00       		.byte	0
 392 00ee 04       		.uleb128 0x4
 393 00ef A3000000 		.4byte	0xa3
 394 00f3 04       		.uleb128 0x4
 395 00f4 D5000000 		.4byte	0xd5
 396 00f8 06       		.uleb128 0x6
 397 00f9 2D000000 		.4byte	0x2d
 398 00fd 11010000 		.4byte	0x111
 399 0101 03       		.uleb128 0x3
ARM GAS  C:\Users\DEVELO~1\AppData\Local\Temp\cckzLwTl.s 			page 8


 400 0102 C7000000 		.4byte	0xc7
 401 0106 03       		.uleb128 0x3
 402 0107 D0000000 		.4byte	0xd0
 403 010b 03       		.uleb128 0x3
 404 010c 2D000000 		.4byte	0x2d
 405 0110 00       		.byte	0
 406 0111 04       		.uleb128 0x4
 407 0112 F8000000 		.4byte	0xf8
 408 0116 06       		.uleb128 0x6
 409 0117 B4000000 		.4byte	0xb4
 410 011b 2A010000 		.4byte	0x12a
 411 011f 03       		.uleb128 0x3
 412 0120 C7000000 		.4byte	0xc7
 413 0124 03       		.uleb128 0x3
 414 0125 97000000 		.4byte	0x97
 415 0129 00       		.byte	0
 416 012a 04       		.uleb128 0x4
 417 012b 16010000 		.4byte	0x116
 418 012f 06       		.uleb128 0x6
 419 0130 B4000000 		.4byte	0xb4
 420 0134 3E010000 		.4byte	0x13e
 421 0138 03       		.uleb128 0x3
 422 0139 C7000000 		.4byte	0xc7
 423 013d 00       		.byte	0
 424 013e 04       		.uleb128 0x4
 425 013f 2F010000 		.4byte	0x12f
 426 0143 0F       		.uleb128 0xf
 427 0144 11000000 		.4byte	.LASF27
 428 0148 18       		.byte	0x18
 429 0149 06       		.byte	0x6
 430 014a 35       		.byte	0x35
 431 014b 08       		.byte	0x8
 432 014c 91010000 		.4byte	0x191
 433 0150 07       		.uleb128 0x7
 434 0151 FC000000 		.4byte	.LASF18
 435 0155 2D000000 		.4byte	0x2d
 436 0159 00       		.byte	0
 437 015a 07       		.uleb128 0x7
 438 015b 85000000 		.4byte	.LASF19
 439 015f F3000000 		.4byte	0xf3
 440 0163 04       		.byte	0x4
 441 0164 07       		.uleb128 0x7
 442 0165 9D010000 		.4byte	.LASF20
 443 0169 11010000 		.4byte	0x111
 444 016d 08       		.byte	0x8
 445 016e 08       		.uleb128 0x8
 446 016f 70757400 		.ascii	"put\000"
 447 0173 36       		.byte	0x36
 448 0174 03       		.byte	0x3
 449 0175 2A010000 		.4byte	0x12a
 450 0179 0C       		.byte	0xc
 451 017a 08       		.uleb128 0x8
 452 017b 67657400 		.ascii	"get\000"
 453 017f 36       		.byte	0x36
 454 0180 03       		.byte	0x3
 455 0181 3E010000 		.4byte	0x13e
 456 0185 10       		.byte	0x10
ARM GAS  C:\Users\DEVELO~1\AppData\Local\Temp\cckzLwTl.s 			page 9


 457 0186 07       		.uleb128 0x7
 458 0187 CC010000 		.4byte	.LASF21
 459 018b 2A010000 		.4byte	0x12a
 460 018f 14       		.byte	0x14
 461 0190 00       		.byte	0
 462 0191 09       		.uleb128 0x9
 463 0192 43010000 		.4byte	0x143
 464 0196 10       		.uleb128 0x10
 465 0197 04       		.byte	0x4
 466 0198 06       		.byte	0x6
 467 0199 3E       		.byte	0x3e
 468 019a 09       		.byte	0x9
 469 019b AC010000 		.4byte	0x1ac
 470 019f 08       		.uleb128 0x8
 471 01a0 766D7400 		.ascii	"vmt\000"
 472 01a4 40       		.byte	0x40
 473 01a5 1F       		.byte	0x1f
 474 01a6 AC010000 		.4byte	0x1ac
 475 01aa 00       		.byte	0
 476 01ab 00       		.byte	0
 477 01ac 04       		.uleb128 0x4
 478 01ad 91010000 		.4byte	0x191
 479 01b1 05       		.uleb128 0x5
 480 01b2 05020000 		.4byte	.LASF22
 481 01b6 06       		.byte	0x6
 482 01b7 42       		.byte	0x42
 483 01b8 03       		.byte	0x3
 484 01b9 96010000 		.4byte	0x196
 485 01bd 11       		.uleb128 0x11
 486 01be 766D7400 		.ascii	"vmt\000"
 487 01c2 01       		.byte	0x1
 488 01c3 56       		.byte	0x56
 489 01c4 23       		.byte	0x23
 490 01c5 91010000 		.4byte	0x191
 491 01c9 05       		.uleb128 0x5
 492 01ca 03       		.byte	0x3
 493 01cb 00000000 		.4byte	vmt
 494 01cf 12       		.uleb128 0x12
 495 01d0 49000000 		.4byte	.LASF28
 496 01d4 01       		.byte	0x1
 497 01d5 61       		.byte	0x61
 498 01d6 06       		.byte	0x6
 499 01d7 00000000 		.4byte	.LFB437
 500 01db 1C000000 		.4byte	.LFE437-.LFB437
 501 01df 01       		.uleb128 0x1
 502 01e0 9C       		.byte	0x9c
 503 01e1 F4010000 		.4byte	0x1f4
 504 01e5 02       		.uleb128 0x2
 505 01e6 6E737000 		.ascii	"nsp\000"
 506 01ea 61       		.byte	0x61
 507 01eb 21       		.byte	0x21
 508 01ec F4010000 		.4byte	0x1f4
 509 01f0 02       		.uleb128 0x2
 510 01f1 91       		.byte	0x91
 511 01f2 74       		.sleb128 -12
 512 01f3 00       		.byte	0
 513 01f4 04       		.uleb128 0x4
ARM GAS  C:\Users\DEVELO~1\AppData\Local\Temp\cckzLwTl.s 			page 10


 514 01f5 B1010000 		.4byte	0x1b1
 515 01f9 0A       		.uleb128 0xa
 516 01fa CC010000 		.4byte	.LASF21
 517 01fe 4D       		.byte	0x4d
 518 01ff 0E       		.byte	0xe
 519 0200 B4000000 		.4byte	0xb4
 520 0204 00000000 		.4byte	.LFB436
 521 0208 18000000 		.4byte	.LFE436-.LFB436
 522 020c 01       		.uleb128 0x1
 523 020d 9C       		.byte	0x9c
 524 020e 2C020000 		.4byte	0x22c
 525 0212 02       		.uleb128 0x2
 526 0213 697000   		.ascii	"ip\000"
 527 0216 4D       		.byte	0x4d
 528 0217 1A       		.byte	0x1a
 529 0218 C7000000 		.4byte	0xc7
 530 021c 02       		.uleb128 0x2
 531 021d 91       		.byte	0x91
 532 021e 74       		.sleb128 -12
 533 021f 02       		.uleb128 0x2
 534 0220 6200     		.ascii	"b\000"
 535 0222 4D       		.byte	0x4d
 536 0223 26       		.byte	0x26
 537 0224 97000000 		.4byte	0x97
 538 0228 02       		.uleb128 0x2
 539 0229 91       		.byte	0x91
 540 022a 73       		.sleb128 -13
 541 022b 00       		.byte	0
 542 022c 0B       		.uleb128 0xb
 543 022d 67657400 		.ascii	"get\000"
 544 0231 46       		.byte	0x46
 545 0232 B4000000 		.4byte	0xb4
 546 0236 00000000 		.4byte	.LFB435
 547 023a 14000000 		.4byte	.LFE435-.LFB435
 548 023e 01       		.uleb128 0x1
 549 023f 9C       		.byte	0x9c
 550 0240 52020000 		.4byte	0x252
 551 0244 02       		.uleb128 0x2
 552 0245 697000   		.ascii	"ip\000"
 553 0248 46       		.byte	0x46
 554 0249 18       		.byte	0x18
 555 024a C7000000 		.4byte	0xc7
 556 024e 02       		.uleb128 0x2
 557 024f 91       		.byte	0x91
 558 0250 74       		.sleb128 -12
 559 0251 00       		.byte	0
 560 0252 0B       		.uleb128 0xb
 561 0253 70757400 		.ascii	"put\000"
 562 0257 3E       		.byte	0x3e
 563 0258 B4000000 		.4byte	0xb4
 564 025c 00000000 		.4byte	.LFB434
 565 0260 18000000 		.4byte	.LFE434-.LFB434
 566 0264 01       		.uleb128 0x1
 567 0265 9C       		.byte	0x9c
 568 0266 84020000 		.4byte	0x284
 569 026a 02       		.uleb128 0x2
 570 026b 697000   		.ascii	"ip\000"
ARM GAS  C:\Users\DEVELO~1\AppData\Local\Temp\cckzLwTl.s 			page 11


 571 026e 3E       		.byte	0x3e
 572 026f 18       		.byte	0x18
 573 0270 C7000000 		.4byte	0xc7
 574 0274 02       		.uleb128 0x2
 575 0275 91       		.byte	0x91
 576 0276 74       		.sleb128 -12
 577 0277 02       		.uleb128 0x2
 578 0278 6200     		.ascii	"b\000"
 579 027a 3E       		.byte	0x3e
 580 027b 24       		.byte	0x24
 581 027c 97000000 		.4byte	0x97
 582 0280 02       		.uleb128 0x2
 583 0281 91       		.byte	0x91
 584 0282 73       		.sleb128 -13
 585 0283 00       		.byte	0
 586 0284 0A       		.uleb128 0xa
 587 0285 0C010000 		.4byte	.LASF23
 588 0289 35       		.byte	0x35
 589 028a 0F       		.byte	0xf
 590 028b 2D000000 		.4byte	0x2d
 591 028f 00000000 		.4byte	.LFB433
 592 0293 18000000 		.4byte	.LFE433-.LFB433
 593 0297 01       		.uleb128 0x1
 594 0298 9C       		.byte	0x9c
 595 0299 C4020000 		.4byte	0x2c4
 596 029d 02       		.uleb128 0x2
 597 029e 697000   		.ascii	"ip\000"
 598 02a1 35       		.byte	0x35
 599 02a2 1B       		.byte	0x1b
 600 02a3 C7000000 		.4byte	0xc7
 601 02a7 02       		.uleb128 0x2
 602 02a8 91       		.byte	0x91
 603 02a9 74       		.sleb128 -12
 604 02aa 02       		.uleb128 0x2
 605 02ab 627000   		.ascii	"bp\000"
 606 02ae 35       		.byte	0x35
 607 02af 28       		.byte	0x28
 608 02b0 D0000000 		.4byte	0xd0
 609 02b4 02       		.uleb128 0x2
 610 02b5 91       		.byte	0x91
 611 02b6 70       		.sleb128 -16
 612 02b7 02       		.uleb128 0x2
 613 02b8 6E00     		.ascii	"n\000"
 614 02ba 35       		.byte	0x35
 615 02bb 33       		.byte	0x33
 616 02bc 2D000000 		.4byte	0x2d
 617 02c0 02       		.uleb128 0x2
 618 02c1 91       		.byte	0x91
 619 02c2 6C       		.sleb128 -20
 620 02c3 00       		.byte	0
 621 02c4 13       		.uleb128 0x13
 622 02c5 42000000 		.4byte	.LASF29
 623 02c9 01       		.byte	0x1
 624 02ca 2D       		.byte	0x2d
 625 02cb 0F       		.byte	0xf
 626 02cc 2D000000 		.4byte	0x2d
 627 02d0 00000000 		.4byte	.LFB432
ARM GAS  C:\Users\DEVELO~1\AppData\Local\Temp\cckzLwTl.s 			page 12


 628 02d4 18000000 		.4byte	.LFE432-.LFB432
 629 02d8 01       		.uleb128 0x1
 630 02d9 9C       		.byte	0x9c
 631 02da 02       		.uleb128 0x2
 632 02db 697000   		.ascii	"ip\000"
 633 02de 2D       		.byte	0x2d
 634 02df 1C       		.byte	0x1c
 635 02e0 C7000000 		.4byte	0xc7
 636 02e4 02       		.uleb128 0x2
 637 02e5 91       		.byte	0x91
 638 02e6 74       		.sleb128 -12
 639 02e7 02       		.uleb128 0x2
 640 02e8 627000   		.ascii	"bp\000"
 641 02eb 2D       		.byte	0x2d
 642 02ec 2F       		.byte	0x2f
 643 02ed EE000000 		.4byte	0xee
 644 02f1 02       		.uleb128 0x2
 645 02f2 91       		.byte	0x91
 646 02f3 70       		.sleb128 -16
 647 02f4 02       		.uleb128 0x2
 648 02f5 6E00     		.ascii	"n\000"
 649 02f7 2D       		.byte	0x2d
 650 02f8 3A       		.byte	0x3a
 651 02f9 2D000000 		.4byte	0x2d
 652 02fd 02       		.uleb128 0x2
 653 02fe 91       		.byte	0x91
 654 02ff 6C       		.sleb128 -20
 655 0300 00       		.byte	0
 656 0301 00       		.byte	0
 657              		.section	.debug_abbrev,"",%progbits
 658              	.Ldebug_abbrev0:
 659 0000 01       		.uleb128 0x1
 660 0001 24       		.uleb128 0x24
 661 0002 00       		.byte	0
 662 0003 0B       		.uleb128 0xb
 663 0004 0B       		.uleb128 0xb
 664 0005 3E       		.uleb128 0x3e
 665 0006 0B       		.uleb128 0xb
 666 0007 03       		.uleb128 0x3
 667 0008 0E       		.uleb128 0xe
 668 0009 00       		.byte	0
 669 000a 00       		.byte	0
 670 000b 02       		.uleb128 0x2
 671 000c 05       		.uleb128 0x5
 672 000d 00       		.byte	0
 673 000e 03       		.uleb128 0x3
 674 000f 08       		.uleb128 0x8
 675 0010 3A       		.uleb128 0x3a
 676 0011 21       		.uleb128 0x21
 677 0012 01       		.sleb128 1
 678 0013 3B       		.uleb128 0x3b
 679 0014 0B       		.uleb128 0xb
 680 0015 39       		.uleb128 0x39
 681 0016 0B       		.uleb128 0xb
 682 0017 49       		.uleb128 0x49
 683 0018 13       		.uleb128 0x13
 684 0019 02       		.uleb128 0x2
ARM GAS  C:\Users\DEVELO~1\AppData\Local\Temp\cckzLwTl.s 			page 13


 685 001a 18       		.uleb128 0x18
 686 001b 00       		.byte	0
 687 001c 00       		.byte	0
 688 001d 03       		.uleb128 0x3
 689 001e 05       		.uleb128 0x5
 690 001f 00       		.byte	0
 691 0020 49       		.uleb128 0x49
 692 0021 13       		.uleb128 0x13
 693 0022 00       		.byte	0
 694 0023 00       		.byte	0
 695 0024 04       		.uleb128 0x4
 696 0025 0F       		.uleb128 0xf
 697 0026 00       		.byte	0
 698 0027 0B       		.uleb128 0xb
 699 0028 21       		.uleb128 0x21
 700 0029 04       		.sleb128 4
 701 002a 49       		.uleb128 0x49
 702 002b 13       		.uleb128 0x13
 703 002c 00       		.byte	0
 704 002d 00       		.byte	0
 705 002e 05       		.uleb128 0x5
 706 002f 16       		.uleb128 0x16
 707 0030 00       		.byte	0
 708 0031 03       		.uleb128 0x3
 709 0032 0E       		.uleb128 0xe
 710 0033 3A       		.uleb128 0x3a
 711 0034 0B       		.uleb128 0xb
 712 0035 3B       		.uleb128 0x3b
 713 0036 0B       		.uleb128 0xb
 714 0037 39       		.uleb128 0x39
 715 0038 0B       		.uleb128 0xb
 716 0039 49       		.uleb128 0x49
 717 003a 13       		.uleb128 0x13
 718 003b 00       		.byte	0
 719 003c 00       		.byte	0
 720 003d 06       		.uleb128 0x6
 721 003e 15       		.uleb128 0x15
 722 003f 01       		.byte	0x1
 723 0040 27       		.uleb128 0x27
 724 0041 19       		.uleb128 0x19
 725 0042 49       		.uleb128 0x49
 726 0043 13       		.uleb128 0x13
 727 0044 01       		.uleb128 0x1
 728 0045 13       		.uleb128 0x13
 729 0046 00       		.byte	0
 730 0047 00       		.byte	0
 731 0048 07       		.uleb128 0x7
 732 0049 0D       		.uleb128 0xd
 733 004a 00       		.byte	0
 734 004b 03       		.uleb128 0x3
 735 004c 0E       		.uleb128 0xe
 736 004d 3A       		.uleb128 0x3a
 737 004e 21       		.uleb128 0x21
 738 004f 06       		.sleb128 6
 739 0050 3B       		.uleb128 0x3b
 740 0051 21       		.uleb128 0x21
 741 0052 36       		.sleb128 54
ARM GAS  C:\Users\DEVELO~1\AppData\Local\Temp\cckzLwTl.s 			page 14


 742 0053 39       		.uleb128 0x39
 743 0054 21       		.uleb128 0x21
 744 0055 03       		.sleb128 3
 745 0056 49       		.uleb128 0x49
 746 0057 13       		.uleb128 0x13
 747 0058 38       		.uleb128 0x38
 748 0059 0B       		.uleb128 0xb
 749 005a 00       		.byte	0
 750 005b 00       		.byte	0
 751 005c 08       		.uleb128 0x8
 752 005d 0D       		.uleb128 0xd
 753 005e 00       		.byte	0
 754 005f 03       		.uleb128 0x3
 755 0060 08       		.uleb128 0x8
 756 0061 3A       		.uleb128 0x3a
 757 0062 21       		.uleb128 0x21
 758 0063 06       		.sleb128 6
 759 0064 3B       		.uleb128 0x3b
 760 0065 0B       		.uleb128 0xb
 761 0066 39       		.uleb128 0x39
 762 0067 0B       		.uleb128 0xb
 763 0068 49       		.uleb128 0x49
 764 0069 13       		.uleb128 0x13
 765 006a 38       		.uleb128 0x38
 766 006b 0B       		.uleb128 0xb
 767 006c 00       		.byte	0
 768 006d 00       		.byte	0
 769 006e 09       		.uleb128 0x9
 770 006f 26       		.uleb128 0x26
 771 0070 00       		.byte	0
 772 0071 49       		.uleb128 0x49
 773 0072 13       		.uleb128 0x13
 774 0073 00       		.byte	0
 775 0074 00       		.byte	0
 776 0075 0A       		.uleb128 0xa
 777 0076 2E       		.uleb128 0x2e
 778 0077 01       		.byte	0x1
 779 0078 03       		.uleb128 0x3
 780 0079 0E       		.uleb128 0xe
 781 007a 3A       		.uleb128 0x3a
 782 007b 21       		.uleb128 0x21
 783 007c 01       		.sleb128 1
 784 007d 3B       		.uleb128 0x3b
 785 007e 0B       		.uleb128 0xb
 786 007f 39       		.uleb128 0x39
 787 0080 0B       		.uleb128 0xb
 788 0081 27       		.uleb128 0x27
 789 0082 19       		.uleb128 0x19
 790 0083 49       		.uleb128 0x49
 791 0084 13       		.uleb128 0x13
 792 0085 11       		.uleb128 0x11
 793 0086 01       		.uleb128 0x1
 794 0087 12       		.uleb128 0x12
 795 0088 06       		.uleb128 0x6
 796 0089 40       		.uleb128 0x40
 797 008a 18       		.uleb128 0x18
 798 008b 7A       		.uleb128 0x7a
ARM GAS  C:\Users\DEVELO~1\AppData\Local\Temp\cckzLwTl.s 			page 15


 799 008c 19       		.uleb128 0x19
 800 008d 01       		.uleb128 0x1
 801 008e 13       		.uleb128 0x13
 802 008f 00       		.byte	0
 803 0090 00       		.byte	0
 804 0091 0B       		.uleb128 0xb
 805 0092 2E       		.uleb128 0x2e
 806 0093 01       		.byte	0x1
 807 0094 03       		.uleb128 0x3
 808 0095 08       		.uleb128 0x8
 809 0096 3A       		.uleb128 0x3a
 810 0097 21       		.uleb128 0x21
 811 0098 01       		.sleb128 1
 812 0099 3B       		.uleb128 0x3b
 813 009a 0B       		.uleb128 0xb
 814 009b 39       		.uleb128 0x39
 815 009c 21       		.uleb128 0x21
 816 009d 0E       		.sleb128 14
 817 009e 27       		.uleb128 0x27
 818 009f 19       		.uleb128 0x19
 819 00a0 49       		.uleb128 0x49
 820 00a1 13       		.uleb128 0x13
 821 00a2 11       		.uleb128 0x11
 822 00a3 01       		.uleb128 0x1
 823 00a4 12       		.uleb128 0x12
 824 00a5 06       		.uleb128 0x6
 825 00a6 40       		.uleb128 0x40
 826 00a7 18       		.uleb128 0x18
 827 00a8 7A       		.uleb128 0x7a
 828 00a9 19       		.uleb128 0x19
 829 00aa 01       		.uleb128 0x1
 830 00ab 13       		.uleb128 0x13
 831 00ac 00       		.byte	0
 832 00ad 00       		.byte	0
 833 00ae 0C       		.uleb128 0xc
 834 00af 11       		.uleb128 0x11
 835 00b0 01       		.byte	0x1
 836 00b1 25       		.uleb128 0x25
 837 00b2 0E       		.uleb128 0xe
 838 00b3 13       		.uleb128 0x13
 839 00b4 0B       		.uleb128 0xb
 840 00b5 03       		.uleb128 0x3
 841 00b6 0E       		.uleb128 0xe
 842 00b7 1B       		.uleb128 0x1b
 843 00b8 0E       		.uleb128 0xe
 844 00b9 55       		.uleb128 0x55
 845 00ba 17       		.uleb128 0x17
 846 00bb 11       		.uleb128 0x11
 847 00bc 01       		.uleb128 0x1
 848 00bd 10       		.uleb128 0x10
 849 00be 17       		.uleb128 0x17
 850 00bf 00       		.byte	0
 851 00c0 00       		.byte	0
 852 00c1 0D       		.uleb128 0xd
 853 00c2 24       		.uleb128 0x24
 854 00c3 00       		.byte	0
 855 00c4 0B       		.uleb128 0xb
ARM GAS  C:\Users\DEVELO~1\AppData\Local\Temp\cckzLwTl.s 			page 16


 856 00c5 0B       		.uleb128 0xb
 857 00c6 3E       		.uleb128 0x3e
 858 00c7 0B       		.uleb128 0xb
 859 00c8 03       		.uleb128 0x3
 860 00c9 08       		.uleb128 0x8
 861 00ca 00       		.byte	0
 862 00cb 00       		.byte	0
 863 00cc 0E       		.uleb128 0xe
 864 00cd 0F       		.uleb128 0xf
 865 00ce 00       		.byte	0
 866 00cf 0B       		.uleb128 0xb
 867 00d0 0B       		.uleb128 0xb
 868 00d1 00       		.byte	0
 869 00d2 00       		.byte	0
 870 00d3 0F       		.uleb128 0xf
 871 00d4 13       		.uleb128 0x13
 872 00d5 01       		.byte	0x1
 873 00d6 03       		.uleb128 0x3
 874 00d7 0E       		.uleb128 0xe
 875 00d8 0B       		.uleb128 0xb
 876 00d9 0B       		.uleb128 0xb
 877 00da 3A       		.uleb128 0x3a
 878 00db 0B       		.uleb128 0xb
 879 00dc 3B       		.uleb128 0x3b
 880 00dd 0B       		.uleb128 0xb
 881 00de 39       		.uleb128 0x39
 882 00df 0B       		.uleb128 0xb
 883 00e0 01       		.uleb128 0x1
 884 00e1 13       		.uleb128 0x13
 885 00e2 00       		.byte	0
 886 00e3 00       		.byte	0
 887 00e4 10       		.uleb128 0x10
 888 00e5 13       		.uleb128 0x13
 889 00e6 01       		.byte	0x1
 890 00e7 0B       		.uleb128 0xb
 891 00e8 0B       		.uleb128 0xb
 892 00e9 3A       		.uleb128 0x3a
 893 00ea 0B       		.uleb128 0xb
 894 00eb 3B       		.uleb128 0x3b
 895 00ec 0B       		.uleb128 0xb
 896 00ed 39       		.uleb128 0x39
 897 00ee 0B       		.uleb128 0xb
 898 00ef 01       		.uleb128 0x1
 899 00f0 13       		.uleb128 0x13
 900 00f1 00       		.byte	0
 901 00f2 00       		.byte	0
 902 00f3 11       		.uleb128 0x11
 903 00f4 34       		.uleb128 0x34
 904 00f5 00       		.byte	0
 905 00f6 03       		.uleb128 0x3
 906 00f7 08       		.uleb128 0x8
 907 00f8 3A       		.uleb128 0x3a
 908 00f9 0B       		.uleb128 0xb
 909 00fa 3B       		.uleb128 0x3b
 910 00fb 0B       		.uleb128 0xb
 911 00fc 39       		.uleb128 0x39
 912 00fd 0B       		.uleb128 0xb
ARM GAS  C:\Users\DEVELO~1\AppData\Local\Temp\cckzLwTl.s 			page 17


 913 00fe 49       		.uleb128 0x49
 914 00ff 13       		.uleb128 0x13
 915 0100 02       		.uleb128 0x2
 916 0101 18       		.uleb128 0x18
 917 0102 00       		.byte	0
 918 0103 00       		.byte	0
 919 0104 12       		.uleb128 0x12
 920 0105 2E       		.uleb128 0x2e
 921 0106 01       		.byte	0x1
 922 0107 3F       		.uleb128 0x3f
 923 0108 19       		.uleb128 0x19
 924 0109 03       		.uleb128 0x3
 925 010a 0E       		.uleb128 0xe
 926 010b 3A       		.uleb128 0x3a
 927 010c 0B       		.uleb128 0xb
 928 010d 3B       		.uleb128 0x3b
 929 010e 0B       		.uleb128 0xb
 930 010f 39       		.uleb128 0x39
 931 0110 0B       		.uleb128 0xb
 932 0111 27       		.uleb128 0x27
 933 0112 19       		.uleb128 0x19
 934 0113 11       		.uleb128 0x11
 935 0114 01       		.uleb128 0x1
 936 0115 12       		.uleb128 0x12
 937 0116 06       		.uleb128 0x6
 938 0117 40       		.uleb128 0x40
 939 0118 18       		.uleb128 0x18
 940 0119 7A       		.uleb128 0x7a
 941 011a 19       		.uleb128 0x19
 942 011b 01       		.uleb128 0x1
 943 011c 13       		.uleb128 0x13
 944 011d 00       		.byte	0
 945 011e 00       		.byte	0
 946 011f 13       		.uleb128 0x13
 947 0120 2E       		.uleb128 0x2e
 948 0121 01       		.byte	0x1
 949 0122 03       		.uleb128 0x3
 950 0123 0E       		.uleb128 0xe
 951 0124 3A       		.uleb128 0x3a
 952 0125 0B       		.uleb128 0xb
 953 0126 3B       		.uleb128 0x3b
 954 0127 0B       		.uleb128 0xb
 955 0128 39       		.uleb128 0x39
 956 0129 0B       		.uleb128 0xb
 957 012a 27       		.uleb128 0x27
 958 012b 19       		.uleb128 0x19
 959 012c 49       		.uleb128 0x49
 960 012d 13       		.uleb128 0x13
 961 012e 11       		.uleb128 0x11
 962 012f 01       		.uleb128 0x1
 963 0130 12       		.uleb128 0x12
 964 0131 06       		.uleb128 0x6
 965 0132 40       		.uleb128 0x40
 966 0133 18       		.uleb128 0x18
 967 0134 7A       		.uleb128 0x7a
 968 0135 19       		.uleb128 0x19
 969 0136 00       		.byte	0
ARM GAS  C:\Users\DEVELO~1\AppData\Local\Temp\cckzLwTl.s 			page 18


 970 0137 00       		.byte	0
 971 0138 00       		.byte	0
 972              		.section	.debug_aranges,"",%progbits
 973 0000 44000000 		.4byte	0x44
 974 0004 0200     		.2byte	0x2
 975 0006 00000000 		.4byte	.Ldebug_info0
 976 000a 04       		.byte	0x4
 977 000b 00       		.byte	0
 978 000c 0000     		.2byte	0
 979 000e 0000     		.2byte	0
 980 0010 00000000 		.4byte	.LFB432
 981 0014 18000000 		.4byte	.LFE432-.LFB432
 982 0018 00000000 		.4byte	.LFB433
 983 001c 18000000 		.4byte	.LFE433-.LFB433
 984 0020 00000000 		.4byte	.LFB434
 985 0024 18000000 		.4byte	.LFE434-.LFB434
 986 0028 00000000 		.4byte	.LFB435
 987 002c 14000000 		.4byte	.LFE435-.LFB435
 988 0030 00000000 		.4byte	.LFB436
 989 0034 18000000 		.4byte	.LFE436-.LFB436
 990 0038 00000000 		.4byte	.LFB437
 991 003c 1C000000 		.4byte	.LFE437-.LFB437
 992 0040 00000000 		.4byte	0
 993 0044 00000000 		.4byte	0
 994              		.section	.debug_rnglists,"",%progbits
 995              	.Ldebug_ranges0:
 996 0000 2D000000 		.4byte	.Ldebug_ranges3-.Ldebug_ranges2
 997              	.Ldebug_ranges2:
 998 0004 0500     		.2byte	0x5
 999 0006 04       		.byte	0x4
 1000 0007 00       		.byte	0
 1001 0008 00000000 		.4byte	0
 1002              	.LLRL0:
 1003 000c 07       		.byte	0x7
 1004 000d 00000000 		.4byte	.LFB432
 1005 0011 18       		.uleb128 .LFE432-.LFB432
 1006 0012 07       		.byte	0x7
 1007 0013 00000000 		.4byte	.LFB433
 1008 0017 18       		.uleb128 .LFE433-.LFB433
 1009 0018 07       		.byte	0x7
 1010 0019 00000000 		.4byte	.LFB434
 1011 001d 18       		.uleb128 .LFE434-.LFB434
 1012 001e 07       		.byte	0x7
 1013 001f 00000000 		.4byte	.LFB435
 1014 0023 14       		.uleb128 .LFE435-.LFB435
 1015 0024 07       		.byte	0x7
 1016 0025 00000000 		.4byte	.LFB436
 1017 0029 18       		.uleb128 .LFE436-.LFB436
 1018 002a 07       		.byte	0x7
 1019 002b 00000000 		.4byte	.LFB437
 1020 002f 1C       		.uleb128 .LFE437-.LFB437
 1021 0030 00       		.byte	0
 1022              	.Ldebug_ranges3:
 1023              		.section	.debug_line,"",%progbits
 1024              	.Ldebug_line0:
 1025 0000 3D020000 		.section	.debug_str,"MS",%progbits,1
 1025      0300AA01 
ARM GAS  C:\Users\DEVELO~1\AppData\Local\Temp\cckzLwTl.s 			page 19


 1025      00000201 
 1025      FB0E0D00 
 1025      01010101 
 1026              	.LASF5:
 1027 0000 5F5F7569 		.ascii	"__uint8_t\000"
 1027      6E74385F 
 1027      7400
 1028              	.LASF4:
 1029 000a 73697A65 		.ascii	"size_t\000"
 1029      5F7400
 1030              	.LASF27:
 1031 0011 4E756C6C 		.ascii	"NullStreamVMT\000"
 1031      53747265 
 1031      616D564D 
 1031      5400
 1032              	.LASF9:
 1033 001f 5F5F696E 		.ascii	"__int32_t\000"
 1033      7433325F 
 1033      7400
 1034              	.LASF0:
 1035 0029 756E7369 		.ascii	"unsigned int\000"
 1035      676E6564 
 1035      20696E74 
 1035      00
 1036              	.LASF2:
 1037 0036 6C6F6E67 		.ascii	"long double\000"
 1037      20646F75 
 1037      626C6500 
 1038              	.LASF29:
 1039 0042 77726974 		.ascii	"writes\000"
 1039      657300
 1040              	.LASF28:
 1041 0049 6E756C6C 		.ascii	"nullObjectInit\000"
 1041      4F626A65 
 1041      6374496E 
 1041      697400
 1042              	.LASF3:
 1043 0058 7369676E 		.ascii	"signed char\000"
 1043      65642063 
 1043      68617200 
 1044              	.LASF6:
 1045 0064 756E7369 		.ascii	"unsigned char\000"
 1045      676E6564 
 1045      20636861 
 1045      7200
 1046              	.LASF8:
 1047 0072 73686F72 		.ascii	"short unsigned int\000"
 1047      7420756E 
 1047      7369676E 
 1047      65642069 
 1047      6E7400
 1048              	.LASF19:
 1049 0085 77726974 		.ascii	"write\000"
 1049      6500
 1050              	.LASF26:
 1051 008b 433A5C50 		.ascii	"C:\\PROJET\\ChibiOS project\\ChibiOS_21.11.4\\demos"
 1051      524F4A45 
ARM GAS  C:\Users\DEVELO~1\AppData\Local\Temp\cckzLwTl.s 			page 20


 1051      545C4368 
 1051      6962694F 
 1051      53207072 
 1052 00ba 5C53544D 		.ascii	"\\STM32\\RT-STM32H743ZI_REV_XY-NUCLEO144_Quartz8M\000"
 1052      33325C52 
 1052      542D5354 
 1052      4D333248 
 1052      3734335A 
 1053              	.LASF11:
 1054 00ea 6C6F6E67 		.ascii	"long unsigned int\000"
 1054      20756E73 
 1054      69676E65 
 1054      6420696E 
 1054      7400
 1055              	.LASF18:
 1056 00fc 696E7374 		.ascii	"instance_offset\000"
 1056      616E6365 
 1056      5F6F6666 
 1056      73657400 
 1057              	.LASF23:
 1058 010c 72656164 		.ascii	"reads\000"
 1058      7300
 1059              	.LASF24:
 1060 0112 474E5520 		.ascii	"GNU C17 11.3.1 20220712 -mcpu=cortex-m7 -mthumb -mf"
 1060      43313720 
 1060      31312E33 
 1060      2E312032 
 1060      30323230 
 1061 0145 6C6F6174 		.ascii	"loat-abi=soft -march=armv7e-m -ggdb -O0 -ffunction-"
 1061      2D616269 
 1061      3D736F66 
 1061      74202D6D 
 1061      61726368 
 1062 0178 73656374 		.ascii	"sections -fdata-sections -fno-common\000"
 1062      696F6E73 
 1062      202D6664 
 1062      6174612D 
 1062      73656374 
 1063              	.LASF20:
 1064 019d 72656164 		.ascii	"read\000"
 1064      00
 1065              	.LASF25:
 1066 01a2 2E2E2F2E 		.ascii	"../../../os/hal/lib/streams/nullstreams.c\000"
 1066      2E2F2E2E 
 1066      2F6F732F 
 1066      68616C2F 
 1066      6C69622F 
 1067              	.LASF21:
 1068 01cc 756E6765 		.ascii	"unget\000"
 1068      7400
 1069              	.LASF16:
 1070 01d2 63686172 		.ascii	"char\000"
 1070      00
 1071              	.LASF13:
 1072 01d7 75696E74 		.ascii	"uint8_t\000"
 1072      385F7400 
 1073              	.LASF15:
ARM GAS  C:\Users\DEVELO~1\AppData\Local\Temp\cckzLwTl.s 			page 21


 1074 01df 6D73675F 		.ascii	"msg_t\000"
 1074      7400
 1075              	.LASF14:
 1076 01e5 696E7433 		.ascii	"int32_t\000"
 1076      325F7400 
 1077              	.LASF1:
 1078 01ed 6C6F6E67 		.ascii	"long long int\000"
 1078      206C6F6E 
 1078      6720696E 
 1078      7400
 1079              	.LASF7:
 1080 01fb 73686F72 		.ascii	"short int\000"
 1080      7420696E 
 1080      7400
 1081              	.LASF22:
 1082 0205 4E756C6C 		.ascii	"NullStream\000"
 1082      53747265 
 1082      616D00
 1083              	.LASF10:
 1084 0210 6C6F6E67 		.ascii	"long int\000"
 1084      20696E74 
 1084      00
 1085              	.LASF17:
 1086 0219 5F426F6F 		.ascii	"_Bool\000"
 1086      6C00
 1087              	.LASF12:
 1088 021f 6C6F6E67 		.ascii	"long long unsigned int\000"
 1088      206C6F6E 
 1088      6720756E 
 1088      7369676E 
 1088      65642069 
 1089              		.ident	"GCC: (Arm GNU Toolchain 11.3.Rel1) 11.3.1 20220712"
ARM GAS  C:\Users\DEVELO~1\AppData\Local\Temp\cckzLwTl.s 			page 22


DEFINED SYMBOLS
                            *ABS*:00000000 nullstreams.c
C:\Users\DEVELO~1\AppData\Local\Temp\cckzLwTl.s:18     .text.writes:00000000 $t
C:\Users\DEVELO~1\AppData\Local\Temp\cckzLwTl.s:23     .text.writes:00000000 writes
C:\Users\DEVELO~1\AppData\Local\Temp\cckzLwTl.s:58     .text.reads:00000000 $t
C:\Users\DEVELO~1\AppData\Local\Temp\cckzLwTl.s:63     .text.reads:00000000 reads
C:\Users\DEVELO~1\AppData\Local\Temp\cckzLwTl.s:97     .text.put:00000000 $t
C:\Users\DEVELO~1\AppData\Local\Temp\cckzLwTl.s:102    .text.put:00000000 put
C:\Users\DEVELO~1\AppData\Local\Temp\cckzLwTl.s:136    .text.get:00000000 $t
C:\Users\DEVELO~1\AppData\Local\Temp\cckzLwTl.s:141    .text.get:00000000 get
C:\Users\DEVELO~1\AppData\Local\Temp\cckzLwTl.s:173    .text.unget:00000000 $t
C:\Users\DEVELO~1\AppData\Local\Temp\cckzLwTl.s:178    .text.unget:00000000 unget
C:\Users\DEVELO~1\AppData\Local\Temp\cckzLwTl.s:212    .rodata.vmt:00000000 $d
C:\Users\DEVELO~1\AppData\Local\Temp\cckzLwTl.s:215    .rodata.vmt:00000000 vmt
C:\Users\DEVELO~1\AppData\Local\Temp\cckzLwTl.s:223    .text.nullObjectInit:00000000 $t
C:\Users\DEVELO~1\AppData\Local\Temp\cckzLwTl.s:229    .text.nullObjectInit:00000000 nullObjectInit
C:\Users\DEVELO~1\AppData\Local\Temp\cckzLwTl.s:262    .text.nullObjectInit:00000018 $d

NO UNDEFINED SYMBOLS
