ARM GAS  C:\Users\DEVELO~1\AppData\Local\Temp\cc8S9u5R.s 			page 1


   1              		.cpu cortex-m7
   2              		.arch armv7e-m
   3              		.fpu softvfp
   4              		.eabi_attribute 20, 1
   5              		.eabi_attribute 21, 1
   6              		.eabi_attribute 23, 3
   7              		.eabi_attribute 24, 1
   8              		.eabi_attribute 25, 1
   9              		.eabi_attribute 26, 1
  10              		.eabi_attribute 30, 6
  11              		.eabi_attribute 34, 1
  12              		.eabi_attribute 18, 4
  13              		.file	"nvic.c"
  14              		.text
  15              	.Ltext0:
  16              		.cfi_sections	.debug_frame
  17              		.section	.text.nvicInit,"ax",%progbits
  18              		.align	1
  19              		.global	nvicInit
  20              		.syntax unified
  21              		.thumb
  22              		.thumb_func
  23              		.type	nvicInit, %function
  24              	nvicInit:
  25              	.LFB432:
  26              		.file 1 "../../../os/hal/ports/common/ARMCMx/nvic.c"
  27              		.loc 1 79 21
  28              		.cfi_startproc
  29              		@ args = 0, pretend = 0, frame = 8
  30              		@ frame_needed = 1, uses_anonymous_args = 0
  31              		@ link register save eliminated.
  32 0000 80B4     		push	{r7}
  33              		.cfi_def_cfa_offset 4
  34              		.cfi_offset 7, -4
  35 0002 83B0     		sub	sp, sp, #12
  36              		.cfi_def_cfa_offset 16
  37 0004 00AF     		add	r7, sp, #0
  38              		.cfi_def_cfa_register 7
  39              		.loc 1 84 22
  40 0006 4FF0E023 		mov	r3, #-536813568
  41              		.loc 1 84 12
  42 000a 5B68     		ldr	r3, [r3, #4]
  43 000c 3B60     		str	r3, [r7]
  44              	.LBB2:
  45              		.loc 1 87 17
  46 000e 0023     		movs	r3, #0
  47 0010 7B60     		str	r3, [r7, #4]
  48              		.loc 1 87 3
  49 0012 10E0     		b	.L2
  50              	.L3:
  51              		.loc 1 88 9 discriminator 3
  52 0014 0D4A     		ldr	r2, .L4
  53              		.loc 1 88 21 discriminator 3
  54 0016 7B68     		ldr	r3, [r7, #4]
  55 0018 2033     		adds	r3, r3, #32
  56 001a 4FF0FF31 		mov	r1, #-1
  57 001e 42F82310 		str	r1, [r2, r3, lsl #2]
ARM GAS  C:\Users\DEVELO~1\AppData\Local\Temp\cc8S9u5R.s 			page 2


  58              		.loc 1 89 9 discriminator 3
  59 0022 0A4A     		ldr	r2, .L4
  60              		.loc 1 89 21 discriminator 3
  61 0024 7B68     		ldr	r3, [r7, #4]
  62 0026 6033     		adds	r3, r3, #96
  63 0028 4FF0FF31 		mov	r1, #-1
  64 002c 42F82310 		str	r1, [r2, r3, lsl #2]
  65              		.loc 1 87 34 discriminator 3
  66 0030 7B68     		ldr	r3, [r7, #4]
  67 0032 0133     		adds	r3, r3, #1
  68 0034 7B60     		str	r3, [r7, #4]
  69              	.L2:
  70              		.loc 1 87 27 discriminator 1
  71 0036 7A68     		ldr	r2, [r7, #4]
  72 0038 3B68     		ldr	r3, [r7]
  73 003a 9A42     		cmp	r2, r3
  74 003c EAD9     		bls	.L3
  75              	.LBE2:
  76              		.loc 1 94 1
  77 003e 00BF     		nop
  78 0040 00BF     		nop
  79 0042 0C37     		adds	r7, r7, #12
  80              		.cfi_def_cfa_offset 4
  81 0044 BD46     		mov	sp, r7
  82              		.cfi_def_cfa_register 13
  83              		@ sp needed
  84 0046 80BC     		pop	{r7}
  85              		.cfi_restore 7
  86              		.cfi_def_cfa_offset 0
  87 0048 7047     		bx	lr
  88              	.L5:
  89 004a 00BF     		.align	2
  90              	.L4:
  91 004c 00E100E0 		.word	-536813312
  92              		.cfi_endproc
  93              	.LFE432:
  94              		.size	nvicInit, .-nvicInit
  95              		.section	.text.nvicEnableVector,"ax",%progbits
  96              		.align	1
  97              		.global	nvicEnableVector
  98              		.syntax unified
  99              		.thumb
 100              		.thumb_func
 101              		.type	nvicEnableVector, %function
 102              	nvicEnableVector:
 103              	.LFB433:
 104              		.loc 1 102 50
 105              		.cfi_startproc
 106              		@ args = 0, pretend = 0, frame = 8
 107              		@ frame_needed = 1, uses_anonymous_args = 0
 108              		@ link register save eliminated.
 109 0000 80B4     		push	{r7}
 110              		.cfi_def_cfa_offset 4
 111              		.cfi_offset 7, -4
 112 0002 83B0     		sub	sp, sp, #12
 113              		.cfi_def_cfa_offset 16
 114 0004 00AF     		add	r7, sp, #0
ARM GAS  C:\Users\DEVELO~1\AppData\Local\Temp\cc8S9u5R.s 			page 3


 115              		.cfi_def_cfa_register 7
 116 0006 7860     		str	r0, [r7, #4]
 117 0008 3960     		str	r1, [r7]
 118              		.loc 1 109 20
 119 000a 3B68     		ldr	r3, [r7]
 120 000c DBB2     		uxtb	r3, r3
 121              		.loc 1 109 7
 122 000e 124A     		ldr	r2, .L7
 123              		.loc 1 109 20
 124 0010 1B01     		lsls	r3, r3, #4
 125 0012 D9B2     		uxtb	r1, r3
 126              		.loc 1 109 18
 127 0014 7B68     		ldr	r3, [r7, #4]
 128 0016 1344     		add	r3, r3, r2
 129 0018 03F54073 		add	r3, r3, #768
 130 001c 0A46     		mov	r2, r1
 131 001e 1A70     		strb	r2, [r3]
 132              		.loc 1 111 36
 133 0020 7B68     		ldr	r3, [r7, #4]
 134 0022 03F01F02 		and	r2, r3, #31
 135              		.loc 1 111 7
 136 0026 0C49     		ldr	r1, .L7
 137              		.loc 1 111 18
 138 0028 7B68     		ldr	r3, [r7, #4]
 139 002a 5B09     		lsrs	r3, r3, #5
 140              		.loc 1 111 30
 141 002c 0120     		movs	r0, #1
 142 002e 00FA02F2 		lsl	r2, r0, r2
 143              		.loc 1 111 25
 144 0032 6033     		adds	r3, r3, #96
 145 0034 41F82320 		str	r2, [r1, r3, lsl #2]
 146              		.loc 1 112 36
 147 0038 7B68     		ldr	r3, [r7, #4]
 148 003a 03F01F02 		and	r2, r3, #31
 149              		.loc 1 112 7
 150 003e 0649     		ldr	r1, .L7
 151              		.loc 1 112 18
 152 0040 7B68     		ldr	r3, [r7, #4]
 153 0042 5B09     		lsrs	r3, r3, #5
 154              		.loc 1 112 30
 155 0044 0120     		movs	r0, #1
 156 0046 00FA02F2 		lsl	r2, r0, r2
 157              		.loc 1 112 25
 158 004a 41F82320 		str	r2, [r1, r3, lsl #2]
 159              		.loc 1 118 1
 160 004e 00BF     		nop
 161 0050 0C37     		adds	r7, r7, #12
 162              		.cfi_def_cfa_offset 4
 163 0052 BD46     		mov	sp, r7
 164              		.cfi_def_cfa_register 13
 165              		@ sp needed
 166 0054 80BC     		pop	{r7}
 167              		.cfi_restore 7
 168              		.cfi_def_cfa_offset 0
 169 0056 7047     		bx	lr
 170              	.L8:
 171              		.align	2
ARM GAS  C:\Users\DEVELO~1\AppData\Local\Temp\cc8S9u5R.s 			page 4


 172              	.L7:
 173 0058 00E100E0 		.word	-536813312
 174              		.cfi_endproc
 175              	.LFE433:
 176              		.size	nvicEnableVector, .-nvicEnableVector
 177              		.section	.text.nvicDisableVector,"ax",%progbits
 178              		.align	1
 179              		.global	nvicDisableVector
 180              		.syntax unified
 181              		.thumb
 182              		.thumb_func
 183              		.type	nvicDisableVector, %function
 184              	nvicDisableVector:
 185              	.LFB434:
 186              		.loc 1 125 36
 187              		.cfi_startproc
 188              		@ args = 0, pretend = 0, frame = 8
 189              		@ frame_needed = 1, uses_anonymous_args = 0
 190              		@ link register save eliminated.
 191 0000 80B4     		push	{r7}
 192              		.cfi_def_cfa_offset 4
 193              		.cfi_offset 7, -4
 194 0002 83B0     		sub	sp, sp, #12
 195              		.cfi_def_cfa_offset 16
 196 0004 00AF     		add	r7, sp, #0
 197              		.cfi_def_cfa_register 7
 198 0006 7860     		str	r0, [r7, #4]
 199              		.loc 1 127 36
 200 0008 7B68     		ldr	r3, [r7, #4]
 201 000a 03F01F02 		and	r2, r3, #31
 202              		.loc 1 127 7
 203 000e 1049     		ldr	r1, .L10
 204              		.loc 1 127 18
 205 0010 7B68     		ldr	r3, [r7, #4]
 206 0012 5B09     		lsrs	r3, r3, #5
 207              		.loc 1 127 30
 208 0014 0120     		movs	r0, #1
 209 0016 00FA02F2 		lsl	r2, r0, r2
 210              		.loc 1 127 25
 211 001a 2033     		adds	r3, r3, #32
 212 001c 41F82320 		str	r2, [r1, r3, lsl #2]
 213              		.loc 1 128 36
 214 0020 7B68     		ldr	r3, [r7, #4]
 215 0022 03F01F02 		and	r2, r3, #31
 216              		.loc 1 128 7
 217 0026 0A49     		ldr	r1, .L10
 218              		.loc 1 128 18
 219 0028 7B68     		ldr	r3, [r7, #4]
 220 002a 5B09     		lsrs	r3, r3, #5
 221              		.loc 1 128 30
 222 002c 0120     		movs	r0, #1
 223 002e 00FA02F2 		lsl	r2, r0, r2
 224              		.loc 1 128 25
 225 0032 6033     		adds	r3, r3, #96
 226 0034 41F82320 		str	r2, [r1, r3, lsl #2]
 227              		.loc 1 133 7
 228 0038 054A     		ldr	r2, .L10
ARM GAS  C:\Users\DEVELO~1\AppData\Local\Temp\cc8S9u5R.s 			page 5


 229              		.loc 1 133 18
 230 003a 7B68     		ldr	r3, [r7, #4]
 231 003c 1344     		add	r3, r3, r2
 232 003e 03F54073 		add	r3, r3, #768
 233 0042 0022     		movs	r2, #0
 234 0044 1A70     		strb	r2, [r3]
 235              		.loc 1 139 1
 236 0046 00BF     		nop
 237 0048 0C37     		adds	r7, r7, #12
 238              		.cfi_def_cfa_offset 4
 239 004a BD46     		mov	sp, r7
 240              		.cfi_def_cfa_register 13
 241              		@ sp needed
 242 004c 80BC     		pop	{r7}
 243              		.cfi_restore 7
 244              		.cfi_def_cfa_offset 0
 245 004e 7047     		bx	lr
 246              	.L11:
 247              		.align	2
 248              	.L10:
 249 0050 00E100E0 		.word	-536813312
 250              		.cfi_endproc
 251              	.LFE434:
 252              		.size	nvicDisableVector, .-nvicDisableVector
 253              		.section	.text.nvicSetSystemHandlerPriority,"ax",%progbits
 254              		.align	1
 255              		.global	nvicSetSystemHandlerPriority
 256              		.syntax unified
 257              		.thumb
 258              		.thumb_func
 259              		.type	nvicSetSystemHandlerPriority, %function
 260              	nvicSetSystemHandlerPriority:
 261              	.LFB435:
 262              		.loc 1 147 68
 263              		.cfi_startproc
 264              		@ args = 0, pretend = 0, frame = 8
 265              		@ frame_needed = 1, uses_anonymous_args = 0
 266              		@ link register save eliminated.
 267 0000 80B4     		push	{r7}
 268              		.cfi_def_cfa_offset 4
 269              		.cfi_offset 7, -4
 270 0002 83B0     		sub	sp, sp, #12
 271              		.cfi_def_cfa_offset 16
 272 0004 00AF     		add	r7, sp, #0
 273              		.cfi_def_cfa_register 7
 274 0006 7860     		str	r0, [r7, #4]
 275 0008 3960     		str	r1, [r7]
 276              		.loc 1 156 26
 277 000a 3B68     		ldr	r3, [r7]
 278 000c DBB2     		uxtb	r3, r3
 279              		.loc 1 156 6
 280 000e 064A     		ldr	r2, .L13
 281              		.loc 1 156 26
 282 0010 1B01     		lsls	r3, r3, #4
 283 0012 D9B2     		uxtb	r1, r3
 284              		.loc 1 156 24
 285 0014 7B68     		ldr	r3, [r7, #4]
ARM GAS  C:\Users\DEVELO~1\AppData\Local\Temp\cc8S9u5R.s 			page 6


 286 0016 1344     		add	r3, r3, r2
 287 0018 1833     		adds	r3, r3, #24
 288 001a 0A46     		mov	r2, r1
 289 001c 1A70     		strb	r2, [r3]
 290              		.loc 1 158 1
 291 001e 00BF     		nop
 292 0020 0C37     		adds	r7, r7, #12
 293              		.cfi_def_cfa_offset 4
 294 0022 BD46     		mov	sp, r7
 295              		.cfi_def_cfa_register 13
 296              		@ sp needed
 297 0024 80BC     		pop	{r7}
 298              		.cfi_restore 7
 299              		.cfi_def_cfa_offset 0
 300 0026 7047     		bx	lr
 301              	.L14:
 302              		.align	2
 303              	.L13:
 304 0028 00ED00E0 		.word	-536810240
 305              		.cfi_endproc
 306              	.LFE435:
 307              		.size	nvicSetSystemHandlerPriority, .-nvicSetSystemHandlerPriority
 308              		.section	.text.nvicClearPending,"ax",%progbits
 309              		.align	1
 310              		.global	nvicClearPending
 311              		.syntax unified
 312              		.thumb
 313              		.thumb_func
 314              		.type	nvicClearPending, %function
 315              	nvicClearPending:
 316              	.LFB436:
 317              		.loc 1 165 35
 318              		.cfi_startproc
 319              		@ args = 0, pretend = 0, frame = 8
 320              		@ frame_needed = 1, uses_anonymous_args = 0
 321              		@ link register save eliminated.
 322 0000 80B4     		push	{r7}
 323              		.cfi_def_cfa_offset 4
 324              		.cfi_offset 7, -4
 325 0002 83B0     		sub	sp, sp, #12
 326              		.cfi_def_cfa_offset 16
 327 0004 00AF     		add	r7, sp, #0
 328              		.cfi_def_cfa_register 7
 329 0006 7860     		str	r0, [r7, #4]
 330              		.loc 1 167 34
 331 0008 7B68     		ldr	r3, [r7, #4]
 332 000a 03F01F03 		and	r3, r3, #31
 333              		.loc 1 167 28
 334 000e 0122     		movs	r2, #1
 335 0010 02FA03F1 		lsl	r1, r2, r3
 336              		.loc 1 167 7
 337 0014 054A     		ldr	r2, .L16
 338              		.loc 1 167 18
 339 0016 7B68     		ldr	r3, [r7, #4]
 340 0018 5B09     		lsrs	r3, r3, #5
 341              		.loc 1 167 24
 342 001a 6033     		adds	r3, r3, #96
ARM GAS  C:\Users\DEVELO~1\AppData\Local\Temp\cc8S9u5R.s 			page 7


 343 001c 42F82310 		str	r1, [r2, r3, lsl #2]
 344              		.loc 1 168 1
 345 0020 00BF     		nop
 346 0022 0C37     		adds	r7, r7, #12
 347              		.cfi_def_cfa_offset 4
 348 0024 BD46     		mov	sp, r7
 349              		.cfi_def_cfa_register 13
 350              		@ sp needed
 351 0026 80BC     		pop	{r7}
 352              		.cfi_restore 7
 353              		.cfi_def_cfa_offset 0
 354 0028 7047     		bx	lr
 355              	.L17:
 356 002a 00BF     		.align	2
 357              	.L16:
 358 002c 00E100E0 		.word	-536813312
 359              		.cfi_endproc
 360              	.LFE436:
 361              		.size	nvicClearPending, .-nvicClearPending
 362              		.section	.text.nvicSetPending,"ax",%progbits
 363              		.align	1
 364              		.global	nvicSetPending
 365              		.syntax unified
 366              		.thumb
 367              		.thumb_func
 368              		.type	nvicSetPending, %function
 369              	nvicSetPending:
 370              	.LFB437:
 371              		.loc 1 175 33
 372              		.cfi_startproc
 373              		@ args = 0, pretend = 0, frame = 8
 374              		@ frame_needed = 1, uses_anonymous_args = 0
 375              		@ link register save eliminated.
 376 0000 80B4     		push	{r7}
 377              		.cfi_def_cfa_offset 4
 378              		.cfi_offset 7, -4
 379 0002 83B0     		sub	sp, sp, #12
 380              		.cfi_def_cfa_offset 16
 381 0004 00AF     		add	r7, sp, #0
 382              		.cfi_def_cfa_register 7
 383 0006 7860     		str	r0, [r7, #4]
 384              		.loc 1 177 34
 385 0008 7B68     		ldr	r3, [r7, #4]
 386 000a 03F01F03 		and	r3, r3, #31
 387              		.loc 1 177 28
 388 000e 0122     		movs	r2, #1
 389 0010 02FA03F1 		lsl	r1, r2, r3
 390              		.loc 1 177 7
 391 0014 054A     		ldr	r2, .L19
 392              		.loc 1 177 18
 393 0016 7B68     		ldr	r3, [r7, #4]
 394 0018 5B09     		lsrs	r3, r3, #5
 395              		.loc 1 177 24
 396 001a 4033     		adds	r3, r3, #64
 397 001c 42F82310 		str	r1, [r2, r3, lsl #2]
 398              		.loc 1 178 1
 399 0020 00BF     		nop
ARM GAS  C:\Users\DEVELO~1\AppData\Local\Temp\cc8S9u5R.s 			page 8


 400 0022 0C37     		adds	r7, r7, #12
 401              		.cfi_def_cfa_offset 4
 402 0024 BD46     		mov	sp, r7
 403              		.cfi_def_cfa_register 13
 404              		@ sp needed
 405 0026 80BC     		pop	{r7}
 406              		.cfi_restore 7
 407              		.cfi_def_cfa_offset 0
 408 0028 7047     		bx	lr
 409              	.L20:
 410 002a 00BF     		.align	2
 411              	.L19:
 412 002c 00E100E0 		.word	-536813312
 413              		.cfi_endproc
 414              	.LFE437:
 415              		.size	nvicSetPending, .-nvicSetPending
 416              		.text
 417              	.Letext0:
 418              		.file 2 "c:\\chibistudio\\tools\\gnu tools arm embedded\\11.3 2022.08\\arm-none-eabi\\include\\mac
 419              		.file 3 "c:\\chibistudio\\tools\\gnu tools arm embedded\\11.3 2022.08\\arm-none-eabi\\include\\sys
 420              		.file 4 "../../../os/common/ext/ARM/CMSIS/Core/Include/core_cm7.h"