ARM GAS  C:\Users\DEVELO~1\AppData\Local\Temp\cc8S9u5R.s 			page 1


   1              		.cpu cortex-m7
   2              		.arch armv7e-m
   3              		.fpu softvfp
   4              		.eabi_attribute 20, 1
   5              		.eabi_attribute 21, 1
   6              		.eabi_attribute 23, 3
   7              		.eabi_attribute 24, 1
   8              		.eabi_attribute 25, 1
   9              		.eabi_attribute 26, 1
  10              		.eabi_attribute 30, 6
  11              		.eabi_attribute 34, 1
  12              		.eabi_attribute 18, 4
  13              		.file	"nvic.c"
  14              		.text
  15              	.Ltext0:
  16              		.cfi_sections	.debug_frame
  17              		.section	.text.nvicInit,"ax",%progbits
  18              		.align	1
  19              		.global	nvicInit
  20              		.syntax unified
  21              		.thumb
  22              		.thumb_func
  23              		.type	nvicInit, %function
  24              	nvicInit:
  25              	.LFB432:
  26              		.file 1 "../../../os/hal/ports/common/ARMCMx/nvic.c"
  27              		.loc 1 79 21
  28              		.cfi_startproc
  29              		@ args = 0, pretend = 0, frame = 8
  30              		@ frame_needed = 1, uses_anonymous_args = 0
  31              		@ link register save eliminated.
  32 0000 80B4     		push	{r7}
  33              		.cfi_def_cfa_offset 4
  34              		.cfi_offset 7, -4
  35 0002 83B0     		sub	sp, sp, #12
  36              		.cfi_def_cfa_offset 16
  37 0004 00AF     		add	r7, sp, #0
  38              		.cfi_def_cfa_register 7
  39              		.loc 1 84 22
  40 0006 4FF0E023 		mov	r3, #-536813568
  41              		.loc 1 84 12
  42 000a 5B68     		ldr	r3, [r3, #4]
  43 000c 3B60     		str	r3, [r7]
  44              	.LBB2:
  45              		.loc 1 87 17
  46 000e 0023     		movs	r3, #0
  47 0010 7B60     		str	r3, [r7, #4]
  48              		.loc 1 87 3
  49 0012 10E0     		b	.L2
  50              	.L3:
  51              		.loc 1 88 9 discriminator 3
  52 0014 0D4A     		ldr	r2, .L4
  53              		.loc 1 88 21 discriminator 3
  54 0016 7B68     		ldr	r3, [r7, #4]
  55 0018 2033     		adds	r3, r3, #32
  56 001a 4FF0FF31 		mov	r1, #-1
  57 001e 42F82310 		str	r1, [r2, r3, lsl #2]
ARM GAS  C:\Users\DEVELO~1\AppData\Local\Temp\cc8S9u5R.s 			page 2


  58              		.loc 1 89 9 discriminator 3
  59 0022 0A4A     		ldr	r2, .L4
  60              		.loc 1 89 21 discriminator 3
  61 0024 7B68     		ldr	r3, [r7, #4]
  62 0026 6033     		adds	r3, r3, #96
  63 0028 4FF0FF31 		mov	r1, #-1
  64 002c 42F82310 		str	r1, [r2, r3, lsl #2]
  65              		.loc 1 87 34 discriminator 3
  66 0030 7B68     		ldr	r3, [r7, #4]
  67 0032 0133     		adds	r3, r3, #1
  68 0034 7B60     		str	r3, [r7, #4]
  69              	.L2:
  70              		.loc 1 87 27 discriminator 1
  71 0036 7A68     		ldr	r2, [r7, #4]
  72 0038 3B68     		ldr	r3, [r7]
  73 003a 9A42     		cmp	r2, r3
  74 003c EAD9     		bls	.L3
  75              	.LBE2:
  76              		.loc 1 94 1
  77 003e 00BF     		nop
  78 0040 00BF     		nop
  79 0042 0C37     		adds	r7, r7, #12
  80              		.cfi_def_cfa_offset 4
  81 0044 BD46     		mov	sp, r7
  82              		.cfi_def_cfa_register 13
  83              		@ sp needed
  84 0046 80BC     		pop	{r7}
  85              		.cfi_restore 7
  86              		.cfi_def_cfa_offset 0
  87 0048 7047     		bx	lr
  88              	.L5:
  89 004a 00BF     		.align	2
  90              	.L4:
  91 004c 00E100E0 		.word	-536813312
  92              		.cfi_endproc
  93              	.LFE432:
  94              		.size	nvicInit, .-nvicInit
  95              		.section	.text.nvicEnableVector,"ax",%progbits
  96              		.align	1
  97              		.global	nvicEnableVector
  98              		.syntax unified
  99              		.thumb
 100              		.thumb_func
 101              		.type	nvicEnableVector, %function
 102              	nvicEnableVector:
 103              	.LFB433:
 104              		.loc 1 102 50
 105              		.cfi_startproc
 106              		@ args = 0, pretend = 0, frame = 8
 107              		@ frame_needed = 1, uses_anonymous_args = 0
 108              		@ link register save eliminated.
 109 0000 80B4     		push	{r7}
 110              		.cfi_def_cfa_offset 4
 111              		.cfi_offset 7, -4
 112 0002 83B0     		sub	sp, sp, #12
 113              		.cfi_def_cfa_offset 16
 114 0004 00AF     		add	r7, sp, #0
ARM GAS  C:\Users\DEVELO~1\AppData\Local\Temp\cc8S9u5R.s 			page 3


 115              		.cfi_def_cfa_register 7
 116 0006 7860     		str	r0, [r7, #4]
 117 0008 3960     		str	r1, [r7]
 118              		.loc 1 109 20
 119 000a 3B68     		ldr	r3, [r7]
 120 000c DBB2     		uxtb	r3, r3
 121              		.loc 1 109 7
 122 000e 124A     		ldr	r2, .L7
 123              		.loc 1 109 20
 124 0010 1B01     		lsls	r3, r3, #4
 125 0012 D9B2     		uxtb	r1, r3
 126              		.loc 1 109 18
 127 0014 7B68     		ldr	r3, [r7, #4]
 128 0016 1344     		add	r3, r3, r2
 129 0018 03F54073 		add	r3, r3, #768
 130 001c 0A46     		mov	r2, r1
 131 001e 1A70     		strb	r2, [r3]
 132              		.loc 1 111 36
 133 0020 7B68     		ldr	r3, [r7, #4]
 134 0022 03F01F02 		and	r2, r3, #31
 135              		.loc 1 111 7
 136 0026 0C49     		ldr	r1, .L7
 137              		.loc 1 111 18
 138 0028 7B68     		ldr	r3, [r7, #4]
 139 002a 5B09     		lsrs	r3, r3, #5
 140              		.loc 1 111 30
 141 002c 0120     		movs	r0, #1
 142 002e 00FA02F2 		lsl	r2, r0, r2
 143              		.loc 1 111 25
 144 0032 6033     		adds	r3, r3, #96
 145 0034 41F82320 		str	r2, [r1, r3, lsl #2]
 146              		.loc 1 112 36
 147 0038 7B68     		ldr	r3, [r7, #4]
 148 003a 03F01F02 		and	r2, r3, #31
 149              		.loc 1 112 7
 150 003e 0649     		ldr	r1, .L7
 151              		.loc 1 112 18
 152 0040 7B68     		ldr	r3, [r7, #4]
 153 0042 5B09     		lsrs	r3, r3, #5
 154              		.loc 1 112 30
 155 0044 0120     		movs	r0, #1
 156 0046 00FA02F2 		lsl	r2, r0, r2
 157              		.loc 1 112 25
 158 004a 41F82320 		str	r2, [r1, r3, lsl #2]
 159              		.loc 1 118 1
 160 004e 00BF     		nop
 161 0050 0C37     		adds	r7, r7, #12
 162              		.cfi_def_cfa_offset 4
 163 0052 BD46     		mov	sp, r7
 164              		.cfi_def_cfa_register 13
 165              		@ sp needed
 166 0054 80BC     		pop	{r7}
 167              		.cfi_restore 7
 168              		.cfi_def_cfa_offset 0
 169 0056 7047     		bx	lr
 170              	.L8:
 171              		.align	2
ARM GAS  C:\Users\DEVELO~1\AppData\Local\Temp\cc8S9u5R.s 			page 4


 172              	.L7:
 173 0058 00E100E0 		.word	-536813312
 174              		.cfi_endproc
 175              	.LFE433:
 176              		.size	nvicEnableVector, .-nvicEnableVector
 177              		.section	.text.nvicDisableVector,"ax",%progbits
 178              		.align	1
 179              		.global	nvicDisableVector
 180              		.syntax unified
 181              		.thumb
 182              		.thumb_func
 183              		.type	nvicDisableVector, %function
 184              	nvicDisableVector:
 185              	.LFB434:
 186              		.loc 1 125 36
 187              		.cfi_startproc
 188              		@ args = 0, pretend = 0, frame = 8
 189              		@ frame_needed = 1, uses_anonymous_args = 0
 190              		@ link register save eliminated.
 191 0000 80B4     		push	{r7}
 192              		.cfi_def_cfa_offset 4
 193              		.cfi_offset 7, -4
 194 0002 83B0     		sub	sp, sp, #12
 195              		.cfi_def_cfa_offset 16
 196 0004 00AF     		add	r7, sp, #0
 197              		.cfi_def_cfa_register 7
 198 0006 7860     		str	r0, [r7, #4]
 199              		.loc 1 127 36
 200 0008 7B68     		ldr	r3, [r7, #4]
 201 000a 03F01F02 		and	r2, r3, #31
 202              		.loc 1 127 7
 203 000e 1049     		ldr	r1, .L10
 204              		.loc 1 127 18
 205 0010 7B68     		ldr	r3, [r7, #4]
 206 0012 5B09     		lsrs	r3, r3, #5
 207              		.loc 1 127 30
 208 0014 0120     		movs	r0, #1
 209 0016 00FA02F2 		lsl	r2, r0, r2
 210              		.loc 1 127 25
 211 001a 2033     		adds	r3, r3, #32
 212 001c 41F82320 		str	r2, [r1, r3, lsl #2]
 213              		.loc 1 128 36
 214 0020 7B68     		ldr	r3, [r7, #4]
 215 0022 03F01F02 		and	r2, r3, #31
 216              		.loc 1 128 7
 217 0026 0A49     		ldr	r1, .L10
 218              		.loc 1 128 18
 219 0028 7B68     		ldr	r3, [r7, #4]
 220 002a 5B09     		lsrs	r3, r3, #5
 221              		.loc 1 128 30
 222 002c 0120     		movs	r0, #1
 223 002e 00FA02F2 		lsl	r2, r0, r2
 224              		.loc 1 128 25
 225 0032 6033     		adds	r3, r3, #96
 226 0034 41F82320 		str	r2, [r1, r3, lsl #2]
 227              		.loc 1 133 7
 228 0038 054A     		ldr	r2, .L10
ARM GAS  C:\Users\DEVELO~1\AppData\Local\Temp\cc8S9u5R.s 			page 5


 229              		.loc 1 133 18
 230 003a 7B68     		ldr	r3, [r7, #4]
 231 003c 1344     		add	r3, r3, r2
 232 003e 03F54073 		add	r3, r3, #768
 233 0042 0022     		movs	r2, #0
 234 0044 1A70     		strb	r2, [r3]
 235              		.loc 1 139 1
 236 0046 00BF     		nop
 237 0048 0C37     		adds	r7, r7, #12
 238              		.cfi_def_cfa_offset 4
 239 004a BD46     		mov	sp, r7
 240              		.cfi_def_cfa_register 13
 241              		@ sp needed
 242 004c 80BC     		pop	{r7}
 243              		.cfi_restore 7
 244              		.cfi_def_cfa_offset 0
 245 004e 7047     		bx	lr
 246              	.L11:
 247              		.align	2
 248              	.L10:
 249 0050 00E100E0 		.word	-536813312
 250              		.cfi_endproc
 251              	.LFE434:
 252              		.size	nvicDisableVector, .-nvicDisableVector
 253              		.section	.text.nvicSetSystemHandlerPriority,"ax",%progbits
 254              		.align	1
 255              		.global	nvicSetSystemHandlerPriority
 256              		.syntax unified
 257              		.thumb
 258              		.thumb_func
 259              		.type	nvicSetSystemHandlerPriority, %function
 260              	nvicSetSystemHandlerPriority:
 261              	.LFB435:
 262              		.loc 1 147 68
 263              		.cfi_startproc
 264              		@ args = 0, pretend = 0, frame = 8
 265              		@ frame_needed = 1, uses_anonymous_args = 0
 266              		@ link register save eliminated.
 267 0000 80B4     		push	{r7}
 268              		.cfi_def_cfa_offset 4
 269              		.cfi_offset 7, -4
 270 0002 83B0     		sub	sp, sp, #12
 271              		.cfi_def_cfa_offset 16
 272 0004 00AF     		add	r7, sp, #0
 273              		.cfi_def_cfa_register 7
 274 0006 7860     		str	r0, [r7, #4]
 275 0008 3960     		str	r1, [r7]
 276              		.loc 1 156 26
 277 000a 3B68     		ldr	r3, [r7]
 278 000c DBB2     		uxtb	r3, r3
 279              		.loc 1 156 6
 280 000e 064A     		ldr	r2, .L13
 281              		.loc 1 156 26
 282 0010 1B01     		lsls	r3, r3, #4
 283 0012 D9B2     		uxtb	r1, r3
 284              		.loc 1 156 24
 285 0014 7B68     		ldr	r3, [r7, #4]
ARM GAS  C:\Users\DEVELO~1\AppData\Local\Temp\cc8S9u5R.s 			page 6


 286 0016 1344     		add	r3, r3, r2
 287 0018 1833     		adds	r3, r3, #24
 288 001a 0A46     		mov	r2, r1
 289 001c 1A70     		strb	r2, [r3]
 290              		.loc 1 158 1
 291 001e 00BF     		nop
 292 0020 0C37     		adds	r7, r7, #12
 293              		.cfi_def_cfa_offset 4
 294 0022 BD46     		mov	sp, r7
 295              		.cfi_def_cfa_register 13
 296              		@ sp needed
 297 0024 80BC     		pop	{r7}
 298              		.cfi_restore 7
 299              		.cfi_def_cfa_offset 0
 300 0026 7047     		bx	lr
 301              	.L14:
 302              		.align	2
 303              	.L13:
 304 0028 00ED00E0 		.word	-536810240
 305              		.cfi_endproc
 306              	.LFE435:
 307              		.size	nvicSetSystemHandlerPriority, .-nvicSetSystemHandlerPriority
 308              		.section	.text.nvicClearPending,"ax",%progbits
 309              		.align	1
 310              		.global	nvicClearPending
 311              		.syntax unified
 312              		.thumb
 313              		.thumb_func
 314              		.type	nvicClearPending, %function
 315              	nvicClearPending:
 316              	.LFB436:
 317              		.loc 1 165 35
 318              		.cfi_startproc
 319              		@ args = 0, pretend = 0, frame = 8
 320              		@ frame_needed = 1, uses_anonymous_args = 0
 321              		@ link register save eliminated.
 322 0000 80B4     		push	{r7}
 323              		.cfi_def_cfa_offset 4
 324              		.cfi_offset 7, -4
 325 0002 83B0     		sub	sp, sp, #12
 326              		.cfi_def_cfa_offset 16
 327 0004 00AF     		add	r7, sp, #0
 328              		.cfi_def_cfa_register 7
 329 0006 7860     		str	r0, [r7, #4]
 330              		.loc 1 167 34
 331 0008 7B68     		ldr	r3, [r7, #4]
 332 000a 03F01F03 		and	r3, r3, #31
 333              		.loc 1 167 28
 334 000e 0122     		movs	r2, #1
 335 0010 02FA03F1 		lsl	r1, r2, r3
 336              		.loc 1 167 7
 337 0014 054A     		ldr	r2, .L16
 338              		.loc 1 167 18
 339 0016 7B68     		ldr	r3, [r7, #4]
 340 0018 5B09     		lsrs	r3, r3, #5
 341              		.loc 1 167 24
 342 001a 6033     		adds	r3, r3, #96
ARM GAS  C:\Users\DEVELO~1\AppData\Local\Temp\cc8S9u5R.s 			page 7


 343 001c 42F82310 		str	r1, [r2, r3, lsl #2]
 344              		.loc 1 168 1
 345 0020 00BF     		nop
 346 0022 0C37     		adds	r7, r7, #12
 347              		.cfi_def_cfa_offset 4
 348 0024 BD46     		mov	sp, r7
 349              		.cfi_def_cfa_register 13
 350              		@ sp needed
 351 0026 80BC     		pop	{r7}
 352              		.cfi_restore 7
 353              		.cfi_def_cfa_offset 0
 354 0028 7047     		bx	lr
 355              	.L17:
 356 002a 00BF     		.align	2
 357              	.L16:
 358 002c 00E100E0 		.word	-536813312
 359              		.cfi_endproc
 360              	.LFE436:
 361              		.size	nvicClearPending, .-nvicClearPending
 362              		.section	.text.nvicSetPending,"ax",%progbits
 363              		.align	1
 364              		.global	nvicSetPending
 365              		.syntax unified
 366              		.thumb
 367              		.thumb_func
 368              		.type	nvicSetPending, %function
 369              	nvicSetPending:
 370              	.LFB437:
 371              		.loc 1 175 33
 372              		.cfi_startproc
 373              		@ args = 0, pretend = 0, frame = 8
 374              		@ frame_needed = 1, uses_anonymous_args = 0
 375              		@ link register save eliminated.
 376 0000 80B4     		push	{r7}
 377              		.cfi_def_cfa_offset 4
 378              		.cfi_offset 7, -4
 379 0002 83B0     		sub	sp, sp, #12
 380              		.cfi_def_cfa_offset 16
 381 0004 00AF     		add	r7, sp, #0
 382              		.cfi_def_cfa_register 7
 383 0006 7860     		str	r0, [r7, #4]
 384              		.loc 1 177 34
 385 0008 7B68     		ldr	r3, [r7, #4]
 386 000a 03F01F03 		and	r3, r3, #31
 387              		.loc 1 177 28
 388 000e 0122     		movs	r2, #1
 389 0010 02FA03F1 		lsl	r1, r2, r3
 390              		.loc 1 177 7
 391 0014 054A     		ldr	r2, .L19
 392              		.loc 1 177 18
 393 0016 7B68     		ldr	r3, [r7, #4]
 394 0018 5B09     		lsrs	r3, r3, #5
 395              		.loc 1 177 24
 396 001a 4033     		adds	r3, r3, #64
 397 001c 42F82310 		str	r1, [r2, r3, lsl #2]
 398              		.loc 1 178 1
 399 0020 00BF     		nop
ARM GAS  C:\Users\DEVELO~1\AppData\Local\Temp\cc8S9u5R.s 			page 8


 400 0022 0C37     		adds	r7, r7, #12
 401              		.cfi_def_cfa_offset 4
 402 0024 BD46     		mov	sp, r7
 403              		.cfi_def_cfa_register 13
 404              		@ sp needed
 405 0026 80BC     		pop	{r7}
 406              		.cfi_restore 7
 407              		.cfi_def_cfa_offset 0
 408 0028 7047     		bx	lr
 409              	.L20:
 410 002a 00BF     		.align	2
 411              	.L19:
 412 002c 00E100E0 		.word	-536813312
 413              		.cfi_endproc
 414              	.LFE437:
 415              		.size	nvicSetPending, .-nvicSetPending
 416              		.text
 417              	.Letext0:
 418              		.file 2 "c:\\chibistudio\\tools\\gnu tools arm embedded\\11.3 2022.08\\arm-none-eabi\\include\\mac
 419              		.file 3 "c:\\chibistudio\\tools\\gnu tools arm embedded\\11.3 2022.08\\arm-none-eabi\\include\\sys
 420              		.file 4 "../../../os/common/ext/ARM/CMSIS/Core/Include/core_cm7.h"
 421              		.section	.debug_info,"",%progbits
 422              	.Ldebug_info0:
 423 0000 53060000 		.4byte	0x653
 424 0004 0500     		.2byte	0x5
 425 0006 01       		.byte	0x1
 426 0007 04       		.byte	0x4
 427 0008 00000000 		.4byte	.Ldebug_abbrev0
 428 000c 10       		.uleb128 0x10
 429 000d 25000000 		.4byte	.LASF82
 430 0011 1D       		.byte	0x1d
 431 0012 94030000 		.4byte	.LASF83
 432 0016 E2000000 		.4byte	.LASF84
 433 001a 0C000000 		.4byte	.LLRL0
 434 001e 00000000 		.4byte	0
 435 0022 00000000 		.4byte	.Ldebug_line0
 436 0026 11       		.uleb128 0x11
 437 0027 04       		.byte	0x4
 438 0028 05       		.byte	0x5
 439 0029 696E7400 		.ascii	"int\000"
 440 002d 05       		.uleb128 0x5
 441 002e 04       		.byte	0x4
 442 002f 07       		.byte	0x7
 443 0030 D2030000 		.4byte	.LASF0
 444 0034 05       		.uleb128 0x5
 445 0035 08       		.byte	0x8
 446 0036 05       		.byte	0x5
 447 0037 EC010000 		.4byte	.LASF1
 448 003b 05       		.uleb128 0x5
 449 003c 08       		.byte	0x8
 450 003d 04       		.byte	0x4
 451 003e 47010000 		.4byte	.LASF2
 452 0042 05       		.uleb128 0x5
 453 0043 01       		.byte	0x1
 454 0044 06       		.byte	0x6
 455 0045 87020000 		.4byte	.LASF3
 456 0049 09       		.uleb128 0x9
ARM GAS  C:\Users\DEVELO~1\AppData\Local\Temp\cc8S9u5R.s 			page 9


 457 004a 0F020000 		.4byte	.LASF8
 458 004e 02       		.byte	0x2
 459 004f 2B       		.byte	0x2b
 460 0050 18       		.byte	0x18
 461 0051 55000000 		.4byte	0x55
 462 0055 05       		.uleb128 0x5
 463 0056 01       		.byte	0x1
 464 0057 08       		.byte	0x8
 465 0058 2E020000 		.4byte	.LASF4
 466 005c 05       		.uleb128 0x5
 467 005d 02       		.byte	0x2
 468 005e 05       		.byte	0x5
 469 005f B6000000 		.4byte	.LASF5
 470 0063 05       		.uleb128 0x5
 471 0064 02       		.byte	0x2
 472 0065 07       		.byte	0x7
 473 0066 DC020000 		.4byte	.LASF6
 474 006a 05       		.uleb128 0x5
 475 006b 04       		.byte	0x4
 476 006c 05       		.byte	0x5
 477 006d FF010000 		.4byte	.LASF7
 478 0071 09       		.uleb128 0x9
 479 0072 53010000 		.4byte	.LASF9
 480 0076 02       		.byte	0x2
 481 0077 4F       		.byte	0x4f
 482 0078 19       		.byte	0x19
 483 0079 7D000000 		.4byte	0x7d
 484 007d 05       		.uleb128 0x5
 485 007e 04       		.byte	0x4
 486 007f 07       		.byte	0x7
 487 0080 60030000 		.4byte	.LASF10
 488 0084 05       		.uleb128 0x5
 489 0085 08       		.byte	0x8
 490 0086 07       		.byte	0x7
 491 0087 98020000 		.4byte	.LASF11
 492 008b 09       		.uleb128 0x9
 493 008c 93010000 		.4byte	.LASF12
 494 0090 03       		.byte	0x3
 495 0091 18       		.byte	0x18
 496 0092 13       		.byte	0x13
 497 0093 49000000 		.4byte	0x49
 498 0097 06       		.uleb128 0x6
 499 0098 8B000000 		.4byte	0x8b
 500 009c 09       		.uleb128 0x9
 501 009d 39030000 		.4byte	.LASF13
 502 00a1 03       		.byte	0x3
 503 00a2 30       		.byte	0x30
 504 00a3 14       		.byte	0x14
 505 00a4 71000000 		.4byte	0x71
 506 00a8 06       		.uleb128 0x6
 507 00a9 9C000000 		.4byte	0x9c
 508 00ad 07       		.uleb128 0x7
 509 00ae A8000000 		.4byte	0xa8
 510 00b2 05       		.uleb128 0x5
 511 00b3 01       		.byte	0x1
 512 00b4 08       		.byte	0x8
 513 00b5 EF020000 		.4byte	.LASF14
ARM GAS  C:\Users\DEVELO~1\AppData\Local\Temp\cc8S9u5R.s 			page 10


 514 00b9 07       		.uleb128 0x7
 515 00ba B2000000 		.4byte	0xb2
 516 00be 0E       		.uleb128 0xe
 517 00bf 040E     		.2byte	0xe04
 518 00c1 A501     		.2byte	0x1a5
 519 00c3 6E010000 		.4byte	0x16e
 520 00c7 02       		.uleb128 0x2
 521 00c8 34030000 		.4byte	.LASF15
 522 00cc A701     		.2byte	0x1a7
 523 00ce 7E010000 		.4byte	0x17e
 524 00d2 00       		.byte	0
 525 00d3 02       		.uleb128 0x2
 526 00d4 C6000000 		.4byte	.LASF16
 527 00d8 A801     		.2byte	0x1a8
 528 00da 83010000 		.4byte	0x183
 529 00de 20       		.byte	0x20
 530 00df 02       		.uleb128 0x2
 531 00e0 CB020000 		.4byte	.LASF17
 532 00e4 A901     		.2byte	0x1a9
 533 00e6 7E010000 		.4byte	0x17e
 534 00ea 80       		.byte	0x80
 535 00eb 02       		.uleb128 0x2
 536 00ec DD010000 		.4byte	.LASF18
 537 00f0 AA01     		.2byte	0x1aa
 538 00f2 83010000 		.4byte	0x183
 539 00f6 A0       		.byte	0xa0
 540 00f7 01       		.uleb128 0x1
 541 00f8 12030000 		.4byte	.LASF19
 542 00fc AB01     		.2byte	0x1ab
 543 00fe 7E010000 		.4byte	0x17e
 544 0102 0001     		.2byte	0x100
 545 0104 01       		.uleb128 0x1
 546 0105 89010000 		.4byte	.LASF20
 547 0109 AC01     		.2byte	0x1ac
 548 010b 83010000 		.4byte	0x183
 549 010f 2001     		.2byte	0x120
 550 0111 01       		.uleb128 0x1
 551 0112 82020000 		.4byte	.LASF21
 552 0116 AD01     		.2byte	0x1ad
 553 0118 7E010000 		.4byte	0x17e
 554 011c 8001     		.2byte	0x180
 555 011e 01       		.uleb128 0x1
 556 011f 42030000 		.4byte	.LASF22
 557 0123 AE01     		.2byte	0x1ae
 558 0125 83010000 		.4byte	0x183
 559 0129 A001     		.2byte	0x1a0
 560 012b 01       		.uleb128 0x1
 561 012c 0F000000 		.4byte	.LASF23
 562 0130 AF01     		.2byte	0x1af
 563 0132 7E010000 		.4byte	0x17e
 564 0136 0002     		.2byte	0x200
 565 0138 01       		.uleb128 0x1
 566 0139 4C030000 		.4byte	.LASF24
 567 013d B001     		.2byte	0x1b0
 568 013f 93010000 		.4byte	0x193
 569 0143 2002     		.2byte	0x220
 570 0145 12       		.uleb128 0x12
ARM GAS  C:\Users\DEVELO~1\AppData\Local\Temp\cc8S9u5R.s 			page 11


 571 0146 495000   		.ascii	"IP\000"
 572 0149 04       		.byte	0x4
 573 014a B101     		.2byte	0x1b1
 574 014c 12       		.byte	0x12
 575 014d B3010000 		.4byte	0x1b3
 576 0151 0003     		.2byte	0x300
 577 0153 01       		.uleb128 0x1
 578 0154 56030000 		.4byte	.LASF25
 579 0158 B201     		.2byte	0x1b2
 580 015a B8010000 		.4byte	0x1b8
 581 015e F003     		.2byte	0x3f0
 582 0160 01       		.uleb128 0x1
 583 0161 BA010000 		.4byte	.LASF26
 584 0165 B301     		.2byte	0x1b3
 585 0167 A8000000 		.4byte	0xa8
 586 016b 000E     		.2byte	0xe00
 587 016d 00       		.byte	0
 588 016e 03       		.uleb128 0x3
 589 016f A8000000 		.4byte	0xa8
 590 0173 7E010000 		.4byte	0x17e
 591 0177 04       		.uleb128 0x4
 592 0178 2D000000 		.4byte	0x2d
 593 017c 07       		.byte	0x7
 594 017d 00       		.byte	0
 595 017e 06       		.uleb128 0x6
 596 017f 6E010000 		.4byte	0x16e
 597 0183 03       		.uleb128 0x3
 598 0184 9C000000 		.4byte	0x9c
 599 0188 93010000 		.4byte	0x193
 600 018c 04       		.uleb128 0x4
 601 018d 2D000000 		.4byte	0x2d
 602 0191 17       		.byte	0x17
 603 0192 00       		.byte	0
 604 0193 03       		.uleb128 0x3
 605 0194 9C000000 		.4byte	0x9c
 606 0198 A3010000 		.4byte	0x1a3
 607 019c 04       		.uleb128 0x4
 608 019d 2D000000 		.4byte	0x2d
 609 01a1 37       		.byte	0x37
 610 01a2 00       		.byte	0
 611 01a3 03       		.uleb128 0x3
 612 01a4 97000000 		.4byte	0x97
 613 01a8 B3010000 		.4byte	0x1b3
 614 01ac 04       		.uleb128 0x4
 615 01ad 2D000000 		.4byte	0x2d
 616 01b1 EF       		.byte	0xef
 617 01b2 00       		.byte	0
 618 01b3 06       		.uleb128 0x6
 619 01b4 A3010000 		.4byte	0x1a3
 620 01b8 03       		.uleb128 0x3
 621 01b9 9C000000 		.4byte	0x9c
 622 01bd C9010000 		.4byte	0x1c9
 623 01c1 13       		.uleb128 0x13
 624 01c2 2D000000 		.4byte	0x2d
 625 01c6 8302     		.2byte	0x283
 626 01c8 00       		.byte	0
 627 01c9 0B       		.uleb128 0xb
ARM GAS  C:\Users\DEVELO~1\AppData\Local\Temp\cc8S9u5R.s 			page 12


 628 01ca 78020000 		.4byte	.LASF27
 629 01ce B401     		.2byte	0x1b4
 630 01d0 04       		.byte	0x4
 631 01d1 BE000000 		.4byte	0xbe
 632 01d5 0E       		.uleb128 0xe
 633 01d6 AC02     		.2byte	0x2ac
 634 01d8 C701     		.2byte	0x1c7
 635 01da 4F040000 		.4byte	0x44f
 636 01de 02       		.uleb128 0x2
 637 01df 77010000 		.4byte	.LASF28
 638 01e3 C901     		.2byte	0x1c9
 639 01e5 AD000000 		.4byte	0xad
 640 01e9 00       		.byte	0
 641 01ea 02       		.uleb128 0x2
 642 01eb D8010000 		.4byte	.LASF29
 643 01ef CA01     		.2byte	0x1ca
 644 01f1 A8000000 		.4byte	0xa8
 645 01f5 04       		.byte	0x4
 646 01f6 02       		.uleb128 0x2
 647 01f7 FC020000 		.4byte	.LASF30
 648 01fb CB01     		.2byte	0x1cb
 649 01fd A8000000 		.4byte	0xa8
 650 0201 08       		.byte	0x8
 651 0202 02       		.uleb128 0x2
 652 0203 4C020000 		.4byte	.LASF31
 653 0207 CC01     		.2byte	0x1cc
 654 0209 A8000000 		.4byte	0xa8
 655 020d 0C       		.byte	0xc
 656 020e 0C       		.uleb128 0xc
 657 020f 53435200 		.ascii	"SCR\000"
 658 0213 CD01     		.2byte	0x1cd
 659 0215 A8000000 		.4byte	0xa8
 660 0219 10       		.byte	0x10
 661 021a 0C       		.uleb128 0xc
 662 021b 43435200 		.ascii	"CCR\000"
 663 021f CE01     		.2byte	0x1ce
 664 0221 A8000000 		.4byte	0xa8
 665 0225 14       		.byte	0x14
 666 0226 02       		.uleb128 0x2
 667 0227 93020000 		.4byte	.LASF32
 668 022b CF01     		.2byte	0x1cf
 669 022d 5F040000 		.4byte	0x45f
 670 0231 18       		.byte	0x18
 671 0232 02       		.uleb128 0x2
 672 0233 AF020000 		.4byte	.LASF33
 673 0237 D001     		.2byte	0x1d0
 674 0239 A8000000 		.4byte	0xa8
 675 023d 24       		.byte	0x24
 676 023e 02       		.uleb128 0x2
 677 023f 19020000 		.4byte	.LASF34
 678 0243 D101     		.2byte	0x1d1
 679 0245 A8000000 		.4byte	0xa8
 680 0249 28       		.byte	0x28
 681 024a 02       		.uleb128 0x2
 682 024b 2A030000 		.4byte	.LASF35
 683 024f D201     		.2byte	0x1d2
 684 0251 A8000000 		.4byte	0xa8
ARM GAS  C:\Users\DEVELO~1\AppData\Local\Temp\cc8S9u5R.s 			page 13


 685 0255 2C       		.byte	0x2c
 686 0256 02       		.uleb128 0x2
 687 0257 17030000 		.4byte	.LASF36
 688 025b D301     		.2byte	0x1d3
 689 025d A8000000 		.4byte	0xa8
 690 0261 30       		.byte	0x30
 691 0262 02       		.uleb128 0x2
 692 0263 B0000000 		.4byte	.LASF37
 693 0267 D401     		.2byte	0x1d4
 694 0269 A8000000 		.4byte	0xa8
 695 026d 34       		.byte	0x34
 696 026e 02       		.uleb128 0x2
 697 026f FA010000 		.4byte	.LASF38
 698 0273 D501     		.2byte	0x1d5
 699 0275 A8000000 		.4byte	0xa8
 700 0279 38       		.byte	0x38
 701 027a 02       		.uleb128 0x2
 702 027b C6030000 		.4byte	.LASF39
 703 027f D601     		.2byte	0x1d6
 704 0281 A8000000 		.4byte	0xa8
 705 0285 3C       		.byte	0x3c
 706 0286 02       		.uleb128 0x2
 707 0287 B5020000 		.4byte	.LASF40
 708 028b D701     		.2byte	0x1d7
 709 028d 79040000 		.4byte	0x479
 710 0291 40       		.byte	0x40
 711 0292 02       		.uleb128 0x2
 712 0293 CB030000 		.4byte	.LASF41
 713 0297 D801     		.2byte	0x1d8
 714 0299 AD000000 		.4byte	0xad
 715 029d 48       		.byte	0x48
 716 029e 02       		.uleb128 0x2
 717 029f BF010000 		.4byte	.LASF42
 718 02a3 D901     		.2byte	0x1d9
 719 02a5 AD000000 		.4byte	0xad
 720 02a9 4C       		.byte	0x4c
 721 02aa 02       		.uleb128 0x2
 722 02ab BF030000 		.4byte	.LASF43
 723 02af DA01     		.2byte	0x1da
 724 02b1 93040000 		.4byte	0x493
 725 02b5 50       		.byte	0x50
 726 02b6 02       		.uleb128 0x2
 727 02b7 44020000 		.4byte	.LASF44
 728 02bb DB01     		.2byte	0x1db
 729 02bd AD040000 		.4byte	0x4ad
 730 02c1 60       		.byte	0x60
 731 02c2 02       		.uleb128 0x2
 732 02c3 C6000000 		.4byte	.LASF16
 733 02c7 DC01     		.2byte	0x1dc
 734 02c9 B2040000 		.4byte	0x4b2
 735 02cd 74       		.byte	0x74
 736 02ce 02       		.uleb128 0x2
 737 02cf B4010000 		.4byte	.LASF45
 738 02d3 DD01     		.2byte	0x1dd
 739 02d5 AD000000 		.4byte	0xad
 740 02d9 78       		.byte	0x78
 741 02da 0C       		.uleb128 0xc
ARM GAS  C:\Users\DEVELO~1\AppData\Local\Temp\cc8S9u5R.s 			page 14


 742 02db 43545200 		.ascii	"CTR\000"
 743 02df DE01     		.2byte	0x1de
 744 02e1 AD000000 		.4byte	0xad
 745 02e5 7C       		.byte	0x7c
 746 02e6 02       		.uleb128 0x2
 747 02e7 08020000 		.4byte	.LASF46
 748 02eb DF01     		.2byte	0x1df
 749 02ed AD000000 		.4byte	0xad
 750 02f1 80       		.byte	0x80
 751 02f2 02       		.uleb128 0x2
 752 02f3 D5020000 		.4byte	.LASF47
 753 02f7 E001     		.2byte	0x1e0
 754 02f9 A8000000 		.4byte	0xa8
 755 02fd 84       		.byte	0x84
 756 02fe 02       		.uleb128 0x2
 757 02ff DF030000 		.4byte	.LASF48
 758 0303 E101     		.2byte	0x1e1
 759 0305 A8000000 		.4byte	0xa8
 760 0309 88       		.byte	0x88
 761 030a 02       		.uleb128 0x2
 762 030b 42030000 		.4byte	.LASF22
 763 030f E201     		.2byte	0x1e2
 764 0311 C2040000 		.4byte	0x4c2
 765 0315 8C       		.byte	0x8c
 766 0316 01       		.uleb128 0x1
 767 0317 BA010000 		.4byte	.LASF26
 768 031b E301     		.2byte	0x1e3
 769 031d A8000000 		.4byte	0xa8
 770 0321 0002     		.2byte	0x200
 771 0323 01       		.uleb128 0x1
 772 0324 4C030000 		.4byte	.LASF24
 773 0328 E401     		.2byte	0x1e4
 774 032a D2040000 		.4byte	0x4d2
 775 032e 0402     		.2byte	0x204
 776 0330 01       		.uleb128 0x1
 777 0331 D2010000 		.4byte	.LASF49
 778 0335 E501     		.2byte	0x1e5
 779 0337 AD000000 		.4byte	0xad
 780 033b 4002     		.2byte	0x240
 781 033d 01       		.uleb128 0x1
 782 033e 7D010000 		.4byte	.LASF50
 783 0342 E601     		.2byte	0x1e6
 784 0344 AD000000 		.4byte	0xad
 785 0348 4402     		.2byte	0x244
 786 034a 01       		.uleb128 0x1
 787 034b 83010000 		.4byte	.LASF51
 788 034f E701     		.2byte	0x1e7
 789 0351 AD000000 		.4byte	0xad
 790 0355 4802     		.2byte	0x248
 791 0357 01       		.uleb128 0x1
 792 0358 56030000 		.4byte	.LASF25
 793 035c E801     		.2byte	0x1e8
 794 035e B2040000 		.4byte	0x4b2
 795 0362 4C02     		.2byte	0x24c
 796 0364 01       		.uleb128 0x1
 797 0365 1E020000 		.4byte	.LASF52
 798 0369 E901     		.2byte	0x1e9
ARM GAS  C:\Users\DEVELO~1\AppData\Local\Temp\cc8S9u5R.s 			page 15


 799 036b A8000000 		.4byte	0xa8
 800 036f 5002     		.2byte	0x250
 801 0371 01       		.uleb128 0x1
 802 0372 AA010000 		.4byte	.LASF53
 803 0376 EA01     		.2byte	0x1ea
 804 0378 B2040000 		.4byte	0x4b2
 805 037c 5402     		.2byte	0x254
 806 037e 01       		.uleb128 0x1
 807 037f 3C020000 		.4byte	.LASF54
 808 0383 EB01     		.2byte	0x1eb
 809 0385 A8000000 		.4byte	0xa8
 810 0389 5802     		.2byte	0x258
 811 038b 01       		.uleb128 0x1
 812 038c 26020000 		.4byte	.LASF55
 813 0390 EC01     		.2byte	0x1ec
 814 0392 A8000000 		.4byte	0xa8
 815 0396 5C02     		.2byte	0x25c
 816 0398 01       		.uleb128 0x1
 817 0399 41010000 		.4byte	.LASF56
 818 039d ED01     		.2byte	0x1ed
 819 039f A8000000 		.4byte	0xa8
 820 03a3 6002     		.2byte	0x260
 821 03a5 01       		.uleb128 0x1
 822 03a6 F4020000 		.4byte	.LASF57
 823 03aa EE01     		.2byte	0x1ee
 824 03ac A8000000 		.4byte	0xa8
 825 03b0 6402     		.2byte	0x264
 826 03b2 01       		.uleb128 0x1
 827 03b3 C3020000 		.4byte	.LASF58
 828 03b7 EF01     		.2byte	0x1ef
 829 03b9 A8000000 		.4byte	0xa8
 830 03bd 6802     		.2byte	0x268
 831 03bf 01       		.uleb128 0x1
 832 03c0 09000000 		.4byte	.LASF59
 833 03c4 F001     		.2byte	0x1f0
 834 03c6 A8000000 		.4byte	0xa8
 835 03ca 6C02     		.2byte	0x26c
 836 03cc 01       		.uleb128 0x1
 837 03cd 5E010000 		.4byte	.LASF60
 838 03d1 F101     		.2byte	0x1f1
 839 03d3 A8000000 		.4byte	0xa8
 840 03d7 7002     		.2byte	0x270
 841 03d9 01       		.uleb128 0x1
 842 03da 86030000 		.4byte	.LASF61
 843 03de F201     		.2byte	0x1f2
 844 03e0 A8000000 		.4byte	0xa8
 845 03e4 7402     		.2byte	0x274
 846 03e6 01       		.uleb128 0x1
 847 03e7 72030000 		.4byte	.LASF62
 848 03eb F301     		.2byte	0x1f3
 849 03ed E2040000 		.4byte	0x4e2
 850 03f1 7802     		.2byte	0x278
 851 03f3 01       		.uleb128 0x1
 852 03f4 BC020000 		.4byte	.LASF63
 853 03f8 F401     		.2byte	0x1f4
 854 03fa A8000000 		.4byte	0xa8
 855 03fe 9002     		.2byte	0x290
ARM GAS  C:\Users\DEVELO~1\AppData\Local\Temp\cc8S9u5R.s 			page 16


 856 0400 01       		.uleb128 0x1
 857 0401 EA030000 		.4byte	.LASF64
 858 0405 F501     		.2byte	0x1f5
 859 0407 A8000000 		.4byte	0xa8
 860 040b 9402     		.2byte	0x294
 861 040d 01       		.uleb128 0x1
 862 040e 67010000 		.4byte	.LASF65
 863 0412 F601     		.2byte	0x1f6
 864 0414 A8000000 		.4byte	0xa8
 865 0418 9802     		.2byte	0x298
 866 041a 01       		.uleb128 0x1
 867 041b 2F030000 		.4byte	.LASF66
 868 041f F701     		.2byte	0x1f7
 869 0421 A8000000 		.4byte	0xa8
 870 0425 9C02     		.2byte	0x29c
 871 0427 01       		.uleb128 0x1
 872 0428 8D030000 		.4byte	.LASF67
 873 042c F801     		.2byte	0x1f8
 874 042e A8000000 		.4byte	0xa8
 875 0432 A002     		.2byte	0x2a0
 876 0434 01       		.uleb128 0x1
 877 0435 7C030000 		.4byte	.LASF68
 878 0439 F901     		.2byte	0x1f9
 879 043b B2040000 		.4byte	0x4b2
 880 043f A402     		.2byte	0x2a4
 881 0441 01       		.uleb128 0x1
 882 0442 E6010000 		.4byte	.LASF69
 883 0446 FA01     		.2byte	0x1fa
 884 0448 A8000000 		.4byte	0xa8
 885 044c A802     		.2byte	0x2a8
 886 044e 00       		.byte	0
 887 044f 03       		.uleb128 0x3
 888 0450 97000000 		.4byte	0x97
 889 0454 5F040000 		.4byte	0x45f
 890 0458 04       		.uleb128 0x4
 891 0459 2D000000 		.4byte	0x2d
 892 045d 0B       		.byte	0xb
 893 045e 00       		.byte	0
 894 045f 06       		.uleb128 0x6
 895 0460 4F040000 		.4byte	0x44f
 896 0464 03       		.uleb128 0x3
 897 0465 AD000000 		.4byte	0xad
 898 0469 74040000 		.4byte	0x474
 899 046d 04       		.uleb128 0x4
 900 046e 2D000000 		.4byte	0x2d
 901 0472 01       		.byte	0x1
 902 0473 00       		.byte	0
 903 0474 07       		.uleb128 0x7
 904 0475 64040000 		.4byte	0x464
 905 0479 06       		.uleb128 0x6
 906 047a 74040000 		.4byte	0x474
 907 047e 03       		.uleb128 0x3
 908 047f AD000000 		.4byte	0xad
 909 0483 8E040000 		.4byte	0x48e
 910 0487 04       		.uleb128 0x4
 911 0488 2D000000 		.4byte	0x2d
 912 048c 03       		.byte	0x3
ARM GAS  C:\Users\DEVELO~1\AppData\Local\Temp\cc8S9u5R.s 			page 17


 913 048d 00       		.byte	0
 914 048e 07       		.uleb128 0x7
 915 048f 7E040000 		.4byte	0x47e
 916 0493 06       		.uleb128 0x6
 917 0494 8E040000 		.4byte	0x48e
 918 0498 03       		.uleb128 0x3
 919 0499 AD000000 		.4byte	0xad
 920 049d A8040000 		.4byte	0x4a8
 921 04a1 04       		.uleb128 0x4
 922 04a2 2D000000 		.4byte	0x2d
 923 04a6 04       		.byte	0x4
 924 04a7 00       		.byte	0
 925 04a8 07       		.uleb128 0x7
 926 04a9 98040000 		.4byte	0x498
 927 04ad 06       		.uleb128 0x6
 928 04ae A8040000 		.4byte	0x4a8
 929 04b2 03       		.uleb128 0x3
 930 04b3 9C000000 		.4byte	0x9c
 931 04b7 C2040000 		.4byte	0x4c2
 932 04bb 04       		.uleb128 0x4
 933 04bc 2D000000 		.4byte	0x2d
 934 04c0 00       		.byte	0
 935 04c1 00       		.byte	0
 936 04c2 03       		.uleb128 0x3
 937 04c3 9C000000 		.4byte	0x9c
 938 04c7 D2040000 		.4byte	0x4d2
 939 04cb 04       		.uleb128 0x4
 940 04cc 2D000000 		.4byte	0x2d
 941 04d0 5C       		.byte	0x5c
 942 04d1 00       		.byte	0
 943 04d2 03       		.uleb128 0x3
 944 04d3 9C000000 		.4byte	0x9c
 945 04d7 E2040000 		.4byte	0x4e2
 946 04db 04       		.uleb128 0x4
 947 04dc 2D000000 		.4byte	0x2d
 948 04e0 0E       		.byte	0xe
 949 04e1 00       		.byte	0
 950 04e2 03       		.uleb128 0x3
 951 04e3 9C000000 		.4byte	0x9c
 952 04e7 F2040000 		.4byte	0x4f2
 953 04eb 04       		.uleb128 0x4
 954 04ec 2D000000 		.4byte	0x2d
 955 04f0 05       		.byte	0x5
 956 04f1 00       		.byte	0
 957 04f2 0B       		.uleb128 0xb
 958 04f3 00000000 		.4byte	.LASF70
 959 04f7 FB01     		.2byte	0x1fb
 960 04f9 03       		.byte	0x3
 961 04fa D5010000 		.4byte	0x1d5
 962 04fe 14       		.uleb128 0x14
 963 04ff 0C       		.byte	0xc
 964 0500 04       		.byte	0x4
 965 0501 9903     		.2byte	0x399
 966 0503 09       		.byte	0x9
 967 0504 2D050000 		.4byte	0x52d
 968 0508 02       		.uleb128 0x2
 969 0509 C6000000 		.4byte	.LASF16
ARM GAS  C:\Users\DEVELO~1\AppData\Local\Temp\cc8S9u5R.s 			page 18


 970 050d 9B03     		.2byte	0x39b
 971 050f B2040000 		.4byte	0x4b2
 972 0513 00       		.byte	0
 973 0514 02       		.uleb128 0x2
 974 0515 D0020000 		.4byte	.LASF71
 975 0519 9C03     		.2byte	0x39c
 976 051b AD000000 		.4byte	0xad
 977 051f 04       		.byte	0x4
 978 0520 02       		.uleb128 0x2
 979 0521 C0000000 		.4byte	.LASF72
 980 0525 9D03     		.2byte	0x39d
 981 0527 A8000000 		.4byte	0xa8
 982 052b 08       		.byte	0x8
 983 052c 00       		.byte	0
 984 052d 0B       		.uleb128 0xb
 985 052e C6010000 		.4byte	.LASF73
 986 0532 9E03     		.2byte	0x39e
 987 0534 03       		.byte	0x3
 988 0535 FE040000 		.4byte	0x4fe
 989 0539 05       		.uleb128 0x5
 990 053a 01       		.byte	0x1
 991 053b 02       		.byte	0x2
 992 053c 1C030000 		.4byte	.LASF74
 993 0540 08       		.uleb128 0x8
 994 0541 9B010000 		.4byte	.LASF75
 995 0545 AF       		.byte	0xaf
 996 0546 00000000 		.4byte	.LFB437
 997 054a 30000000 		.4byte	.LFE437-.LFB437
 998 054e 01       		.uleb128 0x1
 999 054f 9C       		.byte	0x9c
 1000 0550 61050000 		.4byte	0x561
 1001 0554 0A       		.uleb128 0xa
 1002 0555 6E00     		.ascii	"n\000"
 1003 0557 AF       		.byte	0xaf
 1004 0558 1E       		.byte	0x1e
 1005 0559 9C000000 		.4byte	0x9c
 1006 055d 02       		.uleb128 0x2
 1007 055e 91       		.byte	0x91
 1008 055f 74       		.sleb128 -12
 1009 0560 00       		.byte	0
 1010 0561 08       		.uleb128 0x8
 1011 0562 01030000 		.4byte	.LASF76
 1012 0566 A5       		.byte	0xa5
 1013 0567 00000000 		.4byte	.LFB436
 1014 056b 30000000 		.4byte	.LFE436-.LFB436
 1015 056f 01       		.uleb128 0x1
 1016 0570 9C       		.byte	0x9c
 1017 0571 82050000 		.4byte	0x582
 1018 0575 0A       		.uleb128 0xa
 1019 0576 6E00     		.ascii	"n\000"
 1020 0578 A5       		.byte	0xa5
 1021 0579 20       		.byte	0x20
 1022 057a 9C000000 		.4byte	0x9c
 1023 057e 02       		.uleb128 0x2
 1024 057f 91       		.byte	0x91
 1025 0580 74       		.sleb128 -12
 1026 0581 00       		.byte	0
ARM GAS  C:\Users\DEVELO~1\AppData\Local\Temp\cc8S9u5R.s 			page 19


 1027 0582 08       		.uleb128 0x8
 1028 0583 5B020000 		.4byte	.LASF77
 1029 0587 93       		.byte	0x93
 1030 0588 00000000 		.4byte	.LFB435
 1031 058c 2C000000 		.4byte	.LFE435-.LFB435
 1032 0590 01       		.uleb128 0x1
 1033 0591 9C       		.byte	0x9c
 1034 0592 BC050000 		.4byte	0x5bc
 1035 0596 0D       		.uleb128 0xd
 1036 0597 22030000 		.4byte	.LASF78
 1037 059b 93       		.byte	0x93
 1038 059c 2C       		.byte	0x2c
 1039 059d 9C000000 		.4byte	0x9c
 1040 05a1 02       		.uleb128 0x2
 1041 05a2 91       		.byte	0x91
 1042 05a3 74       		.sleb128 -12
 1043 05a4 0D       		.uleb128 0xd
 1044 05a5 E5030000 		.4byte	.LASF79
 1045 05a9 93       		.byte	0x93
 1046 05aa 3E       		.byte	0x3e
 1047 05ab 9C000000 		.4byte	0x9c
 1048 05af 02       		.uleb128 0x2
 1049 05b0 91       		.byte	0x91
 1050 05b1 70       		.sleb128 -16
 1051 05b2 15       		.uleb128 0x15
 1052 05b3 52020000 		.4byte	.LASF85
 1053 05b7 CC050000 		.4byte	0x5cc
 1054 05bb 00       		.byte	0
 1055 05bc 03       		.uleb128 0x3
 1056 05bd B9000000 		.4byte	0xb9
 1057 05c1 CC050000 		.4byte	0x5cc
 1058 05c5 04       		.uleb128 0x4
 1059 05c6 2D000000 		.4byte	0x2d
 1060 05ca 1C       		.byte	0x1c
 1061 05cb 00       		.byte	0
 1062 05cc 07       		.uleb128 0x7
 1063 05cd BC050000 		.4byte	0x5bc
 1064 05d1 08       		.uleb128 0x8
 1065 05d2 D0000000 		.4byte	.LASF80
 1066 05d6 7D       		.byte	0x7d
 1067 05d7 00000000 		.4byte	.LFB434
 1068 05db 54000000 		.4byte	.LFE434-.LFB434
 1069 05df 01       		.uleb128 0x1
 1070 05e0 9C       		.byte	0x9c
 1071 05e1 F2050000 		.4byte	0x5f2
 1072 05e5 0A       		.uleb128 0xa
 1073 05e6 6E00     		.ascii	"n\000"
 1074 05e8 7D       		.byte	0x7d
 1075 05e9 21       		.byte	0x21
 1076 05ea 9C000000 		.4byte	0x9c
 1077 05ee 02       		.uleb128 0x2
 1078 05ef 91       		.byte	0x91
 1079 05f0 74       		.sleb128 -12
 1080 05f1 00       		.byte	0
 1081 05f2 08       		.uleb128 0x8
 1082 05f3 14000000 		.4byte	.LASF81
 1083 05f7 66       		.byte	0x66
ARM GAS  C:\Users\DEVELO~1\AppData\Local\Temp\cc8S9u5R.s 			page 20


 1084 05f8 00000000 		.4byte	.LFB433
 1085 05fc 5C000000 		.4byte	.LFE433-.LFB433
 1086 0600 01       		.uleb128 0x1
 1087 0601 9C       		.byte	0x9c
 1088 0602 21060000 		.4byte	0x621
 1089 0606 0A       		.uleb128 0xa
 1090 0607 6E00     		.ascii	"n\000"
 1091 0609 66       		.byte	0x66
 1092 060a 20       		.byte	0x20
 1093 060b 9C000000 		.4byte	0x9c
 1094 060f 02       		.uleb128 0x2
 1095 0610 91       		.byte	0x91
 1096 0611 74       		.sleb128 -12
 1097 0612 0D       		.uleb128 0xd
 1098 0613 E5030000 		.4byte	.LASF79
 1099 0617 66       		.byte	0x66
 1100 0618 2C       		.byte	0x2c
 1101 0619 9C000000 		.4byte	0x9c
 1102 061d 02       		.uleb128 0x2
 1103 061e 91       		.byte	0x91
 1104 061f 70       		.sleb128 -16
 1105 0620 00       		.byte	0
 1106 0621 16       		.uleb128 0x16
 1107 0622 6E010000 		.4byte	.LASF86
 1108 0626 01       		.byte	0x1
 1109 0627 4F       		.byte	0x4f
 1110 0628 06       		.byte	0x6
 1111 0629 00000000 		.4byte	.LFB432
 1112 062d 50000000 		.4byte	.LFE432-.LFB432
 1113 0631 01       		.uleb128 0x1
 1114 0632 9C       		.byte	0x9c
 1115 0633 0F       		.uleb128 0xf
 1116 0634 6E00     		.ascii	"n\000"
 1117 0636 54       		.byte	0x54
 1118 0637 0C       		.byte	0xc
 1119 0638 9C000000 		.4byte	0x9c
 1120 063c 02       		.uleb128 0x2
 1121 063d 91       		.byte	0x91
 1122 063e 70       		.sleb128 -16
 1123 063f 17       		.uleb128 0x17
 1124 0640 0E000000 		.4byte	.LBB2
 1125 0644 30000000 		.4byte	.LBE2-.LBB2
 1126 0648 0F       		.uleb128 0xf
 1127 0649 6900     		.ascii	"i\000"
 1128 064b 57       		.byte	0x57
 1129 064c 11       		.byte	0x11
 1130 064d 9C000000 		.4byte	0x9c
 1131 0651 02       		.uleb128 0x2
 1132 0652 91       		.byte	0x91
 1133 0653 74       		.sleb128 -12
 1134 0654 00       		.byte	0
 1135 0655 00       		.byte	0
 1136 0656 00       		.byte	0
 1137              		.section	.debug_abbrev,"",%progbits
 1138              	.Ldebug_abbrev0:
 1139 0000 01       		.uleb128 0x1
 1140 0001 0D       		.uleb128 0xd
ARM GAS  C:\Users\DEVELO~1\AppData\Local\Temp\cc8S9u5R.s 			page 21


 1141 0002 00       		.byte	0
 1142 0003 03       		.uleb128 0x3
 1143 0004 0E       		.uleb128 0xe
 1144 0005 3A       		.uleb128 0x3a
 1145 0006 21       		.uleb128 0x21
 1146 0007 04       		.sleb128 4
 1147 0008 3B       		.uleb128 0x3b
 1148 0009 05       		.uleb128 0x5
 1149 000a 39       		.uleb128 0x39
 1150 000b 21       		.uleb128 0x21
 1151 000c 12       		.sleb128 18
 1152 000d 49       		.uleb128 0x49
 1153 000e 13       		.uleb128 0x13
 1154 000f 38       		.uleb128 0x38
 1155 0010 05       		.uleb128 0x5
 1156 0011 00       		.byte	0
 1157 0012 00       		.byte	0
 1158 0013 02       		.uleb128 0x2
 1159 0014 0D       		.uleb128 0xd
 1160 0015 00       		.byte	0
 1161 0016 03       		.uleb128 0x3
 1162 0017 0E       		.uleb128 0xe
 1163 0018 3A       		.uleb128 0x3a
 1164 0019 21       		.uleb128 0x21
 1165 001a 04       		.sleb128 4
 1166 001b 3B       		.uleb128 0x3b
 1167 001c 05       		.uleb128 0x5
 1168 001d 39       		.uleb128 0x39
 1169 001e 21       		.uleb128 0x21
 1170 001f 12       		.sleb128 18
 1171 0020 49       		.uleb128 0x49
 1172 0021 13       		.uleb128 0x13
 1173 0022 38       		.uleb128 0x38
 1174 0023 0B       		.uleb128 0xb
 1175 0024 00       		.byte	0
 1176 0025 00       		.byte	0
 1177 0026 03       		.uleb128 0x3
 1178 0027 01       		.uleb128 0x1
 1179 0028 01       		.byte	0x1
 1180 0029 49       		.uleb128 0x49
 1181 002a 13       		.uleb128 0x13
 1182 002b 01       		.uleb128 0x1
 1183 002c 13       		.uleb128 0x13
 1184 002d 00       		.byte	0
 1185 002e 00       		.byte	0
 1186 002f 04       		.uleb128 0x4
 1187 0030 21       		.uleb128 0x21
 1188 0031 00       		.byte	0
 1189 0032 49       		.uleb128 0x49
 1190 0033 13       		.uleb128 0x13
 1191 0034 2F       		.uleb128 0x2f
 1192 0035 0B       		.uleb128 0xb
 1193 0036 00       		.byte	0
 1194 0037 00       		.byte	0
 1195 0038 05       		.uleb128 0x5
 1196 0039 24       		.uleb128 0x24
 1197 003a 00       		.byte	0
ARM GAS  C:\Users\DEVELO~1\AppData\Local\Temp\cc8S9u5R.s 			page 22


 1198 003b 0B       		.uleb128 0xb
 1199 003c 0B       		.uleb128 0xb
 1200 003d 3E       		.uleb128 0x3e
 1201 003e 0B       		.uleb128 0xb
 1202 003f 03       		.uleb128 0x3
 1203 0040 0E       		.uleb128 0xe
 1204 0041 00       		.byte	0
 1205 0042 00       		.byte	0
 1206 0043 06       		.uleb128 0x6
 1207 0044 35       		.uleb128 0x35
 1208 0045 00       		.byte	0
 1209 0046 49       		.uleb128 0x49
 1210 0047 13       		.uleb128 0x13
 1211 0048 00       		.byte	0
 1212 0049 00       		.byte	0
 1213 004a 07       		.uleb128 0x7
 1214 004b 26       		.uleb128 0x26
 1215 004c 00       		.byte	0
 1216 004d 49       		.uleb128 0x49
 1217 004e 13       		.uleb128 0x13
 1218 004f 00       		.byte	0
 1219 0050 00       		.byte	0
 1220 0051 08       		.uleb128 0x8
 1221 0052 2E       		.uleb128 0x2e
 1222 0053 01       		.byte	0x1
 1223 0054 3F       		.uleb128 0x3f
 1224 0055 19       		.uleb128 0x19
 1225 0056 03       		.uleb128 0x3
 1226 0057 0E       		.uleb128 0xe
 1227 0058 3A       		.uleb128 0x3a
 1228 0059 21       		.uleb128 0x21
 1229 005a 01       		.sleb128 1
 1230 005b 3B       		.uleb128 0x3b
 1231 005c 0B       		.uleb128 0xb
 1232 005d 39       		.uleb128 0x39
 1233 005e 21       		.uleb128 0x21
 1234 005f 06       		.sleb128 6
 1235 0060 27       		.uleb128 0x27
 1236 0061 19       		.uleb128 0x19
 1237 0062 11       		.uleb128 0x11
 1238 0063 01       		.uleb128 0x1
 1239 0064 12       		.uleb128 0x12
 1240 0065 06       		.uleb128 0x6
 1241 0066 40       		.uleb128 0x40
 1242 0067 18       		.uleb128 0x18
 1243 0068 7A       		.uleb128 0x7a
 1244 0069 19       		.uleb128 0x19
 1245 006a 01       		.uleb128 0x1
 1246 006b 13       		.uleb128 0x13
 1247 006c 00       		.byte	0
 1248 006d 00       		.byte	0
 1249 006e 09       		.uleb128 0x9
 1250 006f 16       		.uleb128 0x16
 1251 0070 00       		.byte	0
 1252 0071 03       		.uleb128 0x3
 1253 0072 0E       		.uleb128 0xe
 1254 0073 3A       		.uleb128 0x3a
ARM GAS  C:\Users\DEVELO~1\AppData\Local\Temp\cc8S9u5R.s 			page 23


 1255 0074 0B       		.uleb128 0xb
 1256 0075 3B       		.uleb128 0x3b
 1257 0076 0B       		.uleb128 0xb
 1258 0077 39       		.uleb128 0x39
 1259 0078 0B       		.uleb128 0xb
 1260 0079 49       		.uleb128 0x49
 1261 007a 13       		.uleb128 0x13
 1262 007b 00       		.byte	0
 1263 007c 00       		.byte	0
 1264 007d 0A       		.uleb128 0xa
 1265 007e 05       		.uleb128 0x5
 1266 007f 00       		.byte	0
 1267 0080 03       		.uleb128 0x3
 1268 0081 08       		.uleb128 0x8
 1269 0082 3A       		.uleb128 0x3a
 1270 0083 21       		.uleb128 0x21
 1271 0084 01       		.sleb128 1
 1272 0085 3B       		.uleb128 0x3b
 1273 0086 0B       		.uleb128 0xb
 1274 0087 39       		.uleb128 0x39
 1275 0088 0B       		.uleb128 0xb
 1276 0089 49       		.uleb128 0x49
 1277 008a 13       		.uleb128 0x13
 1278 008b 02       		.uleb128 0x2
 1279 008c 18       		.uleb128 0x18
 1280 008d 00       		.byte	0
 1281 008e 00       		.byte	0
 1282 008f 0B       		.uleb128 0xb
 1283 0090 16       		.uleb128 0x16
 1284 0091 00       		.byte	0
 1285 0092 03       		.uleb128 0x3
 1286 0093 0E       		.uleb128 0xe
 1287 0094 3A       		.uleb128 0x3a
 1288 0095 21       		.uleb128 0x21
 1289 0096 04       		.sleb128 4
 1290 0097 3B       		.uleb128 0x3b
 1291 0098 05       		.uleb128 0x5
 1292 0099 39       		.uleb128 0x39
 1293 009a 0B       		.uleb128 0xb
 1294 009b 49       		.uleb128 0x49
 1295 009c 13       		.uleb128 0x13
 1296 009d 00       		.byte	0
 1297 009e 00       		.byte	0
 1298 009f 0C       		.uleb128 0xc
 1299 00a0 0D       		.uleb128 0xd
 1300 00a1 00       		.byte	0
 1301 00a2 03       		.uleb128 0x3
 1302 00a3 08       		.uleb128 0x8
 1303 00a4 3A       		.uleb128 0x3a
 1304 00a5 21       		.uleb128 0x21
 1305 00a6 04       		.sleb128 4
 1306 00a7 3B       		.uleb128 0x3b
 1307 00a8 05       		.uleb128 0x5
 1308 00a9 39       		.uleb128 0x39
 1309 00aa 21       		.uleb128 0x21
 1310 00ab 12       		.sleb128 18
 1311 00ac 49       		.uleb128 0x49
ARM GAS  C:\Users\DEVELO~1\AppData\Local\Temp\cc8S9u5R.s 			page 24


 1312 00ad 13       		.uleb128 0x13
 1313 00ae 38       		.uleb128 0x38
 1314 00af 0B       		.uleb128 0xb
 1315 00b0 00       		.byte	0
 1316 00b1 00       		.byte	0
 1317 00b2 0D       		.uleb128 0xd
 1318 00b3 05       		.uleb128 0x5
 1319 00b4 00       		.byte	0
 1320 00b5 03       		.uleb128 0x3
 1321 00b6 0E       		.uleb128 0xe
 1322 00b7 3A       		.uleb128 0x3a
 1323 00b8 21       		.uleb128 0x21
 1324 00b9 01       		.sleb128 1
 1325 00ba 3B       		.uleb128 0x3b
 1326 00bb 0B       		.uleb128 0xb
 1327 00bc 39       		.uleb128 0x39
 1328 00bd 0B       		.uleb128 0xb
 1329 00be 49       		.uleb128 0x49
 1330 00bf 13       		.uleb128 0x13
 1331 00c0 02       		.uleb128 0x2
 1332 00c1 18       		.uleb128 0x18
 1333 00c2 00       		.byte	0
 1334 00c3 00       		.byte	0
 1335 00c4 0E       		.uleb128 0xe
 1336 00c5 13       		.uleb128 0x13
 1337 00c6 01       		.byte	0x1
 1338 00c7 0B       		.uleb128 0xb
 1339 00c8 05       		.uleb128 0x5
 1340 00c9 3A       		.uleb128 0x3a
 1341 00ca 21       		.uleb128 0x21
 1342 00cb 04       		.sleb128 4
 1343 00cc 3B       		.uleb128 0x3b
 1344 00cd 05       		.uleb128 0x5
 1345 00ce 39       		.uleb128 0x39
 1346 00cf 21       		.uleb128 0x21
 1347 00d0 09       		.sleb128 9
 1348 00d1 01       		.uleb128 0x1
 1349 00d2 13       		.uleb128 0x13
 1350 00d3 00       		.byte	0
 1351 00d4 00       		.byte	0
 1352 00d5 0F       		.uleb128 0xf
 1353 00d6 34       		.uleb128 0x34
 1354 00d7 00       		.byte	0
 1355 00d8 03       		.uleb128 0x3
 1356 00d9 08       		.uleb128 0x8
 1357 00da 3A       		.uleb128 0x3a
 1358 00db 21       		.uleb128 0x21
 1359 00dc 01       		.sleb128 1
 1360 00dd 3B       		.uleb128 0x3b
 1361 00de 0B       		.uleb128 0xb
 1362 00df 39       		.uleb128 0x39
 1363 00e0 0B       		.uleb128 0xb
 1364 00e1 49       		.uleb128 0x49
 1365 00e2 13       		.uleb128 0x13
 1366 00e3 02       		.uleb128 0x2
 1367 00e4 18       		.uleb128 0x18
 1368 00e5 00       		.byte	0
ARM GAS  C:\Users\DEVELO~1\AppData\Local\Temp\cc8S9u5R.s 			page 25


 1369 00e6 00       		.byte	0
 1370 00e7 10       		.uleb128 0x10
 1371 00e8 11       		.uleb128 0x11
 1372 00e9 01       		.byte	0x1
 1373 00ea 25       		.uleb128 0x25
 1374 00eb 0E       		.uleb128 0xe
 1375 00ec 13       		.uleb128 0x13
 1376 00ed 0B       		.uleb128 0xb
 1377 00ee 03       		.uleb128 0x3
 1378 00ef 0E       		.uleb128 0xe
 1379 00f0 1B       		.uleb128 0x1b
 1380 00f1 0E       		.uleb128 0xe
 1381 00f2 55       		.uleb128 0x55
 1382 00f3 17       		.uleb128 0x17
 1383 00f4 11       		.uleb128 0x11
 1384 00f5 01       		.uleb128 0x1
 1385 00f6 10       		.uleb128 0x10
 1386 00f7 17       		.uleb128 0x17
 1387 00f8 00       		.byte	0
 1388 00f9 00       		.byte	0
 1389 00fa 11       		.uleb128 0x11
 1390 00fb 24       		.uleb128 0x24
 1391 00fc 00       		.byte	0
 1392 00fd 0B       		.uleb128 0xb
 1393 00fe 0B       		.uleb128 0xb
 1394 00ff 3E       		.uleb128 0x3e
 1395 0100 0B       		.uleb128 0xb
 1396 0101 03       		.uleb128 0x3
 1397 0102 08       		.uleb128 0x8
 1398 0103 00       		.byte	0
 1399 0104 00       		.byte	0
 1400 0105 12       		.uleb128 0x12
 1401 0106 0D       		.uleb128 0xd
 1402 0107 00       		.byte	0
 1403 0108 03       		.uleb128 0x3
 1404 0109 08       		.uleb128 0x8
 1405 010a 3A       		.uleb128 0x3a
 1406 010b 0B       		.uleb128 0xb
 1407 010c 3B       		.uleb128 0x3b
 1408 010d 05       		.uleb128 0x5
 1409 010e 39       		.uleb128 0x39
 1410 010f 0B       		.uleb128 0xb
 1411 0110 49       		.uleb128 0x49
 1412 0111 13       		.uleb128 0x13
 1413 0112 38       		.uleb128 0x38
 1414 0113 05       		.uleb128 0x5
 1415 0114 00       		.byte	0
 1416 0115 00       		.byte	0
 1417 0116 13       		.uleb128 0x13
 1418 0117 21       		.uleb128 0x21
 1419 0118 00       		.byte	0
 1420 0119 49       		.uleb128 0x49
 1421 011a 13       		.uleb128 0x13
 1422 011b 2F       		.uleb128 0x2f
 1423 011c 05       		.uleb128 0x5
 1424 011d 00       		.byte	0
 1425 011e 00       		.byte	0
ARM GAS  C:\Users\DEVELO~1\AppData\Local\Temp\cc8S9u5R.s 			page 26


 1426 011f 14       		.uleb128 0x14
 1427 0120 13       		.uleb128 0x13
 1428 0121 01       		.byte	0x1
 1429 0122 0B       		.uleb128 0xb
 1430 0123 0B       		.uleb128 0xb
 1431 0124 3A       		.uleb128 0x3a
 1432 0125 0B       		.uleb128 0xb
 1433 0126 3B       		.uleb128 0x3b
 1434 0127 05       		.uleb128 0x5
 1435 0128 39       		.uleb128 0x39
 1436 0129 0B       		.uleb128 0xb
 1437 012a 01       		.uleb128 0x1
 1438 012b 13       		.uleb128 0x13
 1439 012c 00       		.byte	0
 1440 012d 00       		.byte	0
 1441 012e 15       		.uleb128 0x15
 1442 012f 34       		.uleb128 0x34
 1443 0130 00       		.byte	0
 1444 0131 03       		.uleb128 0x3
 1445 0132 0E       		.uleb128 0xe
 1446 0133 49       		.uleb128 0x49
 1447 0134 13       		.uleb128 0x13
 1448 0135 34       		.uleb128 0x34
 1449 0136 19       		.uleb128 0x19
 1450 0137 00       		.byte	0
 1451 0138 00       		.byte	0
 1452 0139 16       		.uleb128 0x16
 1453 013a 2E       		.uleb128 0x2e
 1454 013b 01       		.byte	0x1
 1455 013c 3F       		.uleb128 0x3f
 1456 013d 19       		.uleb128 0x19
 1457 013e 03       		.uleb128 0x3
 1458 013f 0E       		.uleb128 0xe
 1459 0140 3A       		.uleb128 0x3a
 1460 0141 0B       		.uleb128 0xb
 1461 0142 3B       		.uleb128 0x3b
 1462 0143 0B       		.uleb128 0xb
 1463 0144 39       		.uleb128 0x39
 1464 0145 0B       		.uleb128 0xb
 1465 0146 27       		.uleb128 0x27
 1466 0147 19       		.uleb128 0x19
 1467 0148 11       		.uleb128 0x11
 1468 0149 01       		.uleb128 0x1
 1469 014a 12       		.uleb128 0x12
 1470 014b 06       		.uleb128 0x6
 1471 014c 40       		.uleb128 0x40
 1472 014d 18       		.uleb128 0x18
 1473 014e 7A       		.uleb128 0x7a
 1474 014f 19       		.uleb128 0x19
 1475 0150 00       		.byte	0
 1476 0151 00       		.byte	0
 1477 0152 17       		.uleb128 0x17
 1478 0153 0B       		.uleb128 0xb
 1479 0154 01       		.byte	0x1
 1480 0155 11       		.uleb128 0x11
 1481 0156 01       		.uleb128 0x1
 1482 0157 12       		.uleb128 0x12
ARM GAS  C:\Users\DEVELO~1\AppData\Local\Temp\cc8S9u5R.s 			page 27


 1483 0158 06       		.uleb128 0x6
 1484 0159 00       		.byte	0
 1485 015a 00       		.byte	0
 1486 015b 00       		.byte	0
 1487              		.section	.debug_aranges,"",%progbits
 1488 0000 44000000 		.4byte	0x44
 1489 0004 0200     		.2byte	0x2
 1490 0006 00000000 		.4byte	.Ldebug_info0
 1491 000a 04       		.byte	0x4
 1492 000b 00       		.byte	0
 1493 000c 0000     		.2byte	0
 1494 000e 0000     		.2byte	0
 1495 0010 00000000 		.4byte	.LFB432
 1496 0014 50000000 		.4byte	.LFE432-.LFB432
 1497 0018 00000000 		.4byte	.LFB433
 1498 001c 5C000000 		.4byte	.LFE433-.LFB433
 1499 0020 00000000 		.4byte	.LFB434
 1500 0024 54000000 		.4byte	.LFE434-.LFB434
 1501 0028 00000000 		.4byte	.LFB435
 1502 002c 2C000000 		.4byte	.LFE435-.LFB435
 1503 0030 00000000 		.4byte	.LFB436
 1504 0034 30000000 		.4byte	.LFE436-.LFB436
 1505 0038 00000000 		.4byte	.LFB437
 1506 003c 30000000 		.4byte	.LFE437-.LFB437
 1507 0040 00000000 		.4byte	0
 1508 0044 00000000 		.4byte	0
 1509              		.section	.debug_rnglists,"",%progbits
 1510              	.Ldebug_ranges0:
 1511 0000 2D000000 		.4byte	.Ldebug_ranges3-.Ldebug_ranges2
 1512              	.Ldebug_ranges2:
 1513 0004 0500     		.2byte	0x5
 1514 0006 04       		.byte	0x4
 1515 0007 00       		.byte	0
 1516 0008 00000000 		.4byte	0
 1517              	.LLRL0:
 1518 000c 07       		.byte	0x7
 1519 000d 00000000 		.4byte	.LFB432
 1520 0011 50       		.uleb128 .LFE432-.LFB432
 1521 0012 07       		.byte	0x7
 1522 0013 00000000 		.4byte	.LFB433
 1523 0017 5C       		.uleb128 .LFE433-.LFB433
 1524 0018 07       		.byte	0x7
 1525 0019 00000000 		.4byte	.LFB434
 1526 001d 54       		.uleb128 .LFE434-.LFB434
 1527 001e 07       		.byte	0x7
 1528 001f 00000000 		.4byte	.LFB435
 1529 0023 2C       		.uleb128 .LFE435-.LFB435
 1530 0024 07       		.byte	0x7
 1531 0025 00000000 		.4byte	.LFB436
 1532 0029 30       		.uleb128 .LFE436-.LFB436
 1533 002a 07       		.byte	0x7
 1534 002b 00000000 		.4byte	.LFB437
 1535 002f 30       		.uleb128 .LFE437-.LFB437
 1536 0030 00       		.byte	0
 1537              	.Ldebug_ranges3:
 1538              		.section	.debug_line,"",%progbits
 1539              	.Ldebug_line0:
ARM GAS  C:\Users\DEVELO~1\AppData\Local\Temp\cc8S9u5R.s 			page 28


 1540 0000 7A020000 		.section	.debug_str,"MS",%progbits,1
 1540      03004801 
 1540      00000201 
 1540      FB0E0D00 
 1540      01010101 
 1541              	.LASF70:
 1542 0000 5343425F 		.ascii	"SCB_Type\000"
 1542      54797065 
 1542      00
 1543              	.LASF59:
 1544 0009 44434353 		.ascii	"DCCSW\000"
 1544      5700
 1545              	.LASF23:
 1546 000f 49414252 		.ascii	"IABR\000"
 1546      00
 1547              	.LASF81:
 1548 0014 6E766963 		.ascii	"nvicEnableVector\000"
 1548      456E6162 
 1548      6C655665 
 1548      63746F72 
 1548      00
 1549              	.LASF82:
 1550 0025 474E5520 		.ascii	"GNU C17 11.3.1 20220712 -mcpu=cortex-m7 -mthumb -mf"
 1550      43313720 
 1550      31312E33 
 1550      2E312032 
 1550      30323230 
 1551 0058 6C6F6174 		.ascii	"loat-abi=soft -march=armv7e-m -ggdb -O0 -ffunction-"
 1551      2D616269 
 1551      3D736F66 
 1551      74202D6D 
 1551      61726368 
 1552 008b 73656374 		.ascii	"sections -fdata-sections -fno-common\000"
 1552      696F6E73 
 1552      202D6664 
 1552      6174612D 
 1552      73656374 
 1553              	.LASF37:
 1554 00b0 4D4D4641 		.ascii	"MMFAR\000"
 1554      5200
 1555              	.LASF5:
 1556 00b6 73686F72 		.ascii	"short int\000"
 1556      7420696E 
 1556      7400
 1557              	.LASF72:
 1558 00c0 4143544C 		.ascii	"ACTLR\000"
 1558      5200
 1559              	.LASF16:
 1560 00c6 52455345 		.ascii	"RESERVED0\000"
 1560      52564544 
 1560      3000
 1561              	.LASF80:
 1562 00d0 6E766963 		.ascii	"nvicDisableVector\000"
 1562      44697361 
 1562      626C6556 
 1562      6563746F 
 1562      7200
ARM GAS  C:\Users\DEVELO~1\AppData\Local\Temp\cc8S9u5R.s 			page 29


 1563              	.LASF84:
 1564 00e2 433A5C50 		.ascii	"C:\\PROJET\\ChibiOS project\\ChibiOS_21.11.4\\demos"
 1564      524F4A45 
 1564      545C4368 
 1564      6962694F 
 1564      53207072 
 1565 0111 5C53544D 		.ascii	"\\STM32\\RT-STM32H743ZI_REV_XY-NUCLEO144_Quartz8M\000"
 1565      33325C52 
 1565      542D5354 
 1565      4D333248 
 1565      3734335A 
 1566              	.LASF56:
 1567 0141 44434953 		.ascii	"DCISW\000"
 1567      5700
 1568              	.LASF2:
 1569 0147 6C6F6E67 		.ascii	"long double\000"
 1569      20646F75 
 1569      626C6500 
 1570              	.LASF9:
 1571 0153 5F5F7569 		.ascii	"__uint32_t\000"
 1571      6E743332 
 1571      5F7400
 1572              	.LASF60:
 1573 015e 44434349 		.ascii	"DCCIMVAC\000"
 1573      4D564143 
 1573      00
 1574              	.LASF65:
 1575 0167 41484250 		.ascii	"AHBPCR\000"
 1575      435200
 1576              	.LASF86:
 1577 016e 6E766963 		.ascii	"nvicInit\000"
 1577      496E6974 
 1577      00
 1578              	.LASF28:
 1579 0177 43505549 		.ascii	"CPUID\000"
 1579      4400
 1580              	.LASF50:
 1581 017d 4D564652 		.ascii	"MVFR1\000"
 1581      3100
 1582              	.LASF51:
 1583 0183 4D564652 		.ascii	"MVFR2\000"
 1583      3200
 1584              	.LASF20:
 1585 0189 52455345 		.ascii	"RESERVED2\000"
 1585      52564544 
 1585      3200
 1586              	.LASF12:
 1587 0193 75696E74 		.ascii	"uint8_t\000"
 1587      385F7400 
 1588              	.LASF75:
 1589 019b 6E766963 		.ascii	"nvicSetPending\000"
 1589      53657450 
 1589      656E6469 
 1589      6E6700
 1590              	.LASF53:
 1591 01aa 52455345 		.ascii	"RESERVED6\000"
 1591      52564544 
ARM GAS  C:\Users\DEVELO~1\AppData\Local\Temp\cc8S9u5R.s 			page 30


 1591      3600
 1592              	.LASF45:
 1593 01b4 434C4944 		.ascii	"CLIDR\000"
 1593      5200
 1594              	.LASF26:
 1595 01ba 53544952 		.ascii	"STIR\000"
 1595      00
 1596              	.LASF42:
 1597 01bf 49445F41 		.ascii	"ID_AFR\000"
 1597      465200
 1598              	.LASF73:
 1599 01c6 53436E53 		.ascii	"SCnSCB_Type\000"
 1599      43425F54 
 1599      79706500 
 1600              	.LASF49:
 1601 01d2 4D564652 		.ascii	"MVFR0\000"
 1601      3000
 1602              	.LASF29:
 1603 01d8 49435352 		.ascii	"ICSR\000"
 1603      00
 1604              	.LASF18:
 1605 01dd 52534552 		.ascii	"RSERVED1\000"
 1605      56454431 
 1605      00
 1606              	.LASF69:
 1607 01e6 41424653 		.ascii	"ABFSR\000"
 1607      5200
 1608              	.LASF1:
 1609 01ec 6C6F6E67 		.ascii	"long long int\000"
 1609      206C6F6E 
 1609      6720696E 
 1609      7400
 1610              	.LASF38:
 1611 01fa 42464152 		.ascii	"BFAR\000"
 1611      00
 1612              	.LASF7:
 1613 01ff 6C6F6E67 		.ascii	"long int\000"
 1613      20696E74 
 1613      00
 1614              	.LASF46:
 1615 0208 43435349 		.ascii	"CCSIDR\000"
 1615      445200
 1616              	.LASF8:
 1617 020f 5F5F7569 		.ascii	"__uint8_t\000"
 1617      6E74385F 
 1617      7400
 1618              	.LASF34:
 1619 0219 43465352 		.ascii	"CFSR\000"
 1619      00
 1620              	.LASF52:
 1621 021e 49434941 		.ascii	"ICIALLU\000"
 1621      4C4C5500 
 1622              	.LASF55:
 1623 0226 4443494D 		.ascii	"DCIMVAC\000"
 1623      56414300 
 1624              	.LASF4:
 1625 022e 756E7369 		.ascii	"unsigned char\000"
ARM GAS  C:\Users\DEVELO~1\AppData\Local\Temp\cc8S9u5R.s 			page 31


 1625      676E6564 
 1625      20636861 
 1625      7200
 1626              	.LASF54:
 1627 023c 4943494D 		.ascii	"ICIMVAU\000"
 1627      56415500 
 1628              	.LASF44:
 1629 0244 49445F49 		.ascii	"ID_ISAR\000"
 1629      53415200 
 1630              	.LASF31:
 1631 024c 41495243 		.ascii	"AIRCR\000"
 1631      5200
 1632              	.LASF85:
 1633 0252 5F5F6675 		.ascii	"__func__\000"
 1633      6E635F5F 
 1633      00
 1634              	.LASF77:
 1635 025b 6E766963 		.ascii	"nvicSetSystemHandlerPriority\000"
 1635      53657453 
 1635      79737465 
 1635      6D48616E 
 1635      646C6572 
 1636              	.LASF27:
 1637 0278 4E564943 		.ascii	"NVIC_Type\000"
 1637      5F547970 
 1637      6500
 1638              	.LASF21:
 1639 0282 49435052 		.ascii	"ICPR\000"
 1639      00
 1640              	.LASF3:
 1641 0287 7369676E 		.ascii	"signed char\000"
 1641      65642063 
 1641      68617200 
 1642              	.LASF32:
 1643 0293 53485052 		.ascii	"SHPR\000"
 1643      00
 1644              	.LASF11:
 1645 0298 6C6F6E67 		.ascii	"long long unsigned int\000"
 1645      206C6F6E 
 1645      6720756E 
 1645      7369676E 
 1645      65642069 
 1646              	.LASF33:
 1647 02af 53484353 		.ascii	"SHCSR\000"
 1647      5200
 1648              	.LASF40:
 1649 02b5 49445F50 		.ascii	"ID_PFR\000"
 1649      465200
 1650              	.LASF63:
 1651 02bc 4954434D 		.ascii	"ITCMCR\000"
 1651      435200
 1652              	.LASF58:
 1653 02c3 4443434D 		.ascii	"DCCMVAC\000"
 1653      56414300 
 1654              	.LASF17:
 1655 02cb 49434552 		.ascii	"ICER\000"
 1655      00
ARM GAS  C:\Users\DEVELO~1\AppData\Local\Temp\cc8S9u5R.s 			page 32


 1656              	.LASF71:
 1657 02d0 49435452 		.ascii	"ICTR\000"
 1657      00
 1658              	.LASF47:
 1659 02d5 43535345 		.ascii	"CSSELR\000"
 1659      4C5200
 1660              	.LASF6:
 1661 02dc 73686F72 		.ascii	"short unsigned int\000"
 1661      7420756E 
 1661      7369676E 
 1661      65642069 
 1661      6E7400
 1662              	.LASF14:
 1663 02ef 63686172 		.ascii	"char\000"
 1663      00
 1664              	.LASF57:
 1665 02f4 4443434D 		.ascii	"DCCMVAU\000"
 1665      56415500 
 1666              	.LASF30:
 1667 02fc 56544F52 		.ascii	"VTOR\000"
 1667      00
 1668              	.LASF76:
 1669 0301 6E766963 		.ascii	"nvicClearPending\000"
 1669      436C6561 
 1669      7250656E 
 1669      64696E67 
 1669      00
 1670              	.LASF19:
 1671 0312 49535052 		.ascii	"ISPR\000"
 1671      00
 1672              	.LASF36:
 1673 0317 44465352 		.ascii	"DFSR\000"
 1673      00
 1674              	.LASF74:
 1675 031c 5F426F6F 		.ascii	"_Bool\000"
 1675      6C00
 1676              	.LASF78:
 1677 0322 68616E64 		.ascii	"handler\000"
 1677      6C657200 
 1678              	.LASF35:
 1679 032a 48465352 		.ascii	"HFSR\000"
 1679      00
 1680              	.LASF66:
 1681 032f 43414352 		.ascii	"CACR\000"
 1681      00
 1682              	.LASF15:
 1683 0334 49534552 		.ascii	"ISER\000"
 1683      00
 1684              	.LASF13:
 1685 0339 75696E74 		.ascii	"uint32_t\000"
 1685      33325F74 
 1685      00
 1686              	.LASF22:
 1687 0342 52455345 		.ascii	"RESERVED3\000"
 1687      52564544 
 1687      3300
 1688              	.LASF24:
ARM GAS  C:\Users\DEVELO~1\AppData\Local\Temp\cc8S9u5R.s 			page 33


 1689 034c 52455345 		.ascii	"RESERVED4\000"
 1689      52564544 
 1689      3400
 1690              	.LASF25:
 1691 0356 52455345 		.ascii	"RESERVED5\000"
 1691      52564544 
 1691      3500
 1692              	.LASF10:
 1693 0360 6C6F6E67 		.ascii	"long unsigned int\000"
 1693      20756E73 
 1693      69676E65 
 1693      6420696E 
 1693      7400
 1694              	.LASF62:
 1695 0372 52455345 		.ascii	"RESERVED7\000"
 1695      52564544 
 1695      3700
 1696              	.LASF68:
 1697 037c 52455345 		.ascii	"RESERVED8\000"
 1697      52564544 
 1697      3800
 1698              	.LASF61:
 1699 0386 44434349 		.ascii	"DCCISW\000"
 1699      535700
 1700              	.LASF67:
 1701 038d 41484253 		.ascii	"AHBSCR\000"
 1701      435200
 1702              	.LASF83:
 1703 0394 2E2E2F2E 		.ascii	"../../../os/hal/ports/common/ARMCMx/nvic.c\000"
 1703      2E2F2E2E 
 1703      2F6F732F 
 1703      68616C2F 
 1703      706F7274 
 1704              	.LASF43:
 1705 03bf 49445F4D 		.ascii	"ID_MFR\000"
 1705      465200
 1706              	.LASF39:
 1707 03c6 41465352 		.ascii	"AFSR\000"
 1707      00
 1708              	.LASF41:
 1709 03cb 49445F44 		.ascii	"ID_DFR\000"
 1709      465200
 1710              	.LASF0:
 1711 03d2 756E7369 		.ascii	"unsigned int\000"
 1711      676E6564 
 1711      20696E74 
 1711      00
 1712              	.LASF48:
 1713 03df 43504143 		.ascii	"CPACR\000"
 1713      5200
 1714              	.LASF79:
 1715 03e5 7072696F 		.ascii	"prio\000"
 1715      00
 1716              	.LASF64:
 1717 03ea 4454434D 		.ascii	"DTCMCR\000"
 1717      435200
 1718              		.ident	"GCC: (Arm GNU Toolchain 11.3.Rel1) 11.3.1 20220712"
ARM GAS  C:\Users\DEVELO~1\AppData\Local\Temp\cc8S9u5R.s 			page 34


ARM GAS  C:\Users\DEVELO~1\AppData\Local\Temp\cc8S9u5R.s 			page 35


DEFINED SYMBOLS
                            *ABS*:00000000 nvic.c
C:\Users\DEVELO~1\AppData\Local\Temp\cc8S9u5R.s:18     .text.nvicInit:00000000 $t
C:\Users\DEVELO~1\AppData\Local\Temp\cc8S9u5R.s:24     .text.nvicInit:00000000 nvicInit
C:\Users\DEVELO~1\AppData\Local\Temp\cc8S9u5R.s:91     .text.nvicInit:0000004c $d
C:\Users\DEVELO~1\AppData\Local\Temp\cc8S9u5R.s:96     .text.nvicEnableVector:00000000 $t
C:\Users\DEVELO~1\AppData\Local\Temp\cc8S9u5R.s:102    .text.nvicEnableVector:00000000 nvicEnableVector
C:\Users\DEVELO~1\AppData\Local\Temp\cc8S9u5R.s:173    .text.nvicEnableVector:00000058 $d
C:\Users\DEVELO~1\AppData\Local\Temp\cc8S9u5R.s:178    .text.nvicDisableVector:00000000 $t
C:\Users\DEVELO~1\AppData\Local\Temp\cc8S9u5R.s:184    .text.nvicDisableVector:00000000 nvicDisableVector
C:\Users\DEVELO~1\AppData\Local\Temp\cc8S9u5R.s:249    .text.nvicDisableVector:00000050 $d
C:\Users\DEVELO~1\AppData\Local\Temp\cc8S9u5R.s:254    .text.nvicSetSystemHandlerPriority:00000000 $t
C:\Users\DEVELO~1\AppData\Local\Temp\cc8S9u5R.s:260    .text.nvicSetSystemHandlerPriority:00000000 nvicSetSystemHandlerPriority
C:\Users\DEVELO~1\AppData\Local\Temp\cc8S9u5R.s:304    .text.nvicSetSystemHandlerPriority:00000028 $d
C:\Users\DEVELO~1\AppData\Local\Temp\cc8S9u5R.s:309    .text.nvicClearPending:00000000 $t
C:\Users\DEVELO~1\AppData\Local\Temp\cc8S9u5R.s:315    .text.nvicClearPending:00000000 nvicClearPending
C:\Users\DEVELO~1\AppData\Local\Temp\cc8S9u5R.s:358    .text.nvicClearPending:0000002c $d
C:\Users\DEVELO~1\AppData\Local\Temp\cc8S9u5R.s:363    .text.nvicSetPending:00000000 $t
C:\Users\DEVELO~1\AppData\Local\Temp\cc8S9u5R.s:369    .text.nvicSetPending:00000000 nvicSetPending
C:\Users\DEVELO~1\AppData\Local\Temp\cc8S9u5R.s:412    .text.nvicSetPending:0000002c $d

NO UNDEFINED SYMBOLS
