ARM GAS  C:\Users\DEVELO~1\AppData\Local\Temp\ccadvWfV.s 			page 1


   1              		.cpu cortex-m7
   2              		.arch armv7e-m
   3              		.fpu softvfp
   4              		.eabi_attribute 20, 1
   5              		.eabi_attribute 21, 1
   6              		.eabi_attribute 23, 3
   7              		.eabi_attribute 24, 1
   8              		.eabi_attribute 25, 1
   9              		.eabi_attribute 26, 1
  10              		.eabi_attribute 30, 6
  11              		.eabi_attribute 34, 1
  12              		.eabi_attribute 18, 4
  13              		.file	"oop_base_object.c"
  14              		.text
  15              	.Ltext0:
  16              		.cfi_sections	.debug_frame
  17              		.section	.text.__bo_objinit_impl,"ax",%progbits
  18              		.align	1
  19              		.global	__bo_objinit_impl
  20              		.syntax unified
  21              		.thumb
  22              		.thumb_func
  23              		.type	__bo_objinit_impl, %function
  24              	__bo_objinit_impl:
  25              	.LFB381:
  26              		.file 1 "../../../os/common/oop/src/oop_base_object.c"
  27              		.loc 1 76 52
  28              		.cfi_startproc
  29              		@ args = 0, pretend = 0, frame = 16
  30              		@ frame_needed = 1, uses_anonymous_args = 0
  31              		@ link register save eliminated.
  32 0000 80B4     		push	{r7}
  33              		.cfi_def_cfa_offset 4
  34              		.cfi_offset 7, -4
  35 0002 85B0     		sub	sp, sp, #20
  36              		.cfi_def_cfa_offset 24
  37 0004 00AF     		add	r7, sp, #0
  38              		.cfi_def_cfa_register 7
  39 0006 7860     		str	r0, [r7, #4]
  40 0008 3960     		str	r1, [r7]
  41              		.loc 1 77 18
  42 000a 7B68     		ldr	r3, [r7, #4]
  43 000c FB60     		str	r3, [r7, #12]
  44              		.loc 1 80 13
  45 000e FB68     		ldr	r3, [r7, #12]
  46 0010 3A68     		ldr	r2, [r7]
  47 0012 1A60     		str	r2, [r3]
  48              		.loc 1 84 10
  49 0014 FB68     		ldr	r3, [r7, #12]
  50              		.loc 1 85 1
  51 0016 1846     		mov	r0, r3
  52 0018 1437     		adds	r7, r7, #20
  53              		.cfi_def_cfa_offset 4
  54 001a BD46     		mov	sp, r7
  55              		.cfi_def_cfa_register 13
  56              		@ sp needed
  57 001c 80BC     		pop	{r7}
ARM GAS  C:\Users\DEVELO~1\AppData\Local\Temp\ccadvWfV.s 			page 2


  58              		.cfi_restore 7
  59              		.cfi_def_cfa_offset 0
  60 001e 7047     		bx	lr
  61              		.cfi_endproc
  62              	.LFE381:
  63              		.size	__bo_objinit_impl, .-__bo_objinit_impl
  64              		.section	.text.__bo_dispose_impl,"ax",%progbits
  65              		.align	1
  66              		.global	__bo_dispose_impl
  67              		.syntax unified
  68              		.thumb
  69              		.thumb_func
  70              		.type	__bo_dispose_impl, %function
  71              	__bo_dispose_impl:
  72              	.LFB382:
  73              		.loc 1 97 34
  74              		.cfi_startproc
  75              		@ args = 0, pretend = 0, frame = 16
  76              		@ frame_needed = 1, uses_anonymous_args = 0
  77              		@ link register save eliminated.
  78 0000 80B4     		push	{r7}
  79              		.cfi_def_cfa_offset 4
  80              		.cfi_offset 7, -4
  81 0002 85B0     		sub	sp, sp, #20
  82              		.cfi_def_cfa_offset 24
  83 0004 00AF     		add	r7, sp, #0
  84              		.cfi_def_cfa_register 7
  85 0006 7860     		str	r0, [r7, #4]
  86              		.loc 1 98 18
  87 0008 7B68     		ldr	r3, [r7, #4]
  88 000a FB60     		str	r3, [r7, #12]
  89              		.loc 1 102 1
  90 000c 00BF     		nop
  91 000e 1437     		adds	r7, r7, #20
  92              		.cfi_def_cfa_offset 4
  93 0010 BD46     		mov	sp, r7
  94              		.cfi_def_cfa_register 13
  95              		@ sp needed
  96 0012 80BC     		pop	{r7}
  97              		.cfi_restore 7
  98              		.cfi_def_cfa_offset 0
  99 0014 7047     		bx	lr
 100              		.cfi_endproc
 101              	.LFE382:
 102              		.size	__bo_dispose_impl, .-__bo_dispose_impl
 103              		.text
 104              	.Letext0:
 105              		.file 2 "../../../os/common/oop/include/oop_base_object.h"