ARM GAS  C:\Users\DEVELO~1\AppData\Local\Temp\ccQDbmtk.s 			page 1


   1              		.cpu cortex-m7
   2              		.arch armv7e-m
   3              		.fpu softvfp
   4              		.eabi_attribute 20, 1
   5              		.eabi_attribute 21, 1
   6              		.eabi_attribute 23, 3
   7              		.eabi_attribute 24, 1
   8              		.eabi_attribute 25, 1
   9              		.eabi_attribute 26, 1
  10              		.eabi_attribute 30, 6
  11              		.eabi_attribute 34, 1
  12              		.eabi_attribute 18, 4
  13              		.file	"oslib_test_sequence_001.c"
  14              		.text
  15              	.Ltext0:
  16              		.cfi_sections	.debug_frame
  17              		.section	.rodata
  18              		.align	2
  19              	.LC0:
  20 0000 257500   		.ascii	"%u\000"
  21              		.section	.text.test_printn,"ax",%progbits
  22              		.align	1
  23              		.syntax unified
  24              		.thumb
  25              		.thumb_func
  26              		.type	test_printn, %function
  27              	test_printn:
  28              	.LFB433:
  29              		.file 1 "../../../os/test/include/ch_test.h"
  30              		.loc 1 357 44
  31              		.cfi_startproc
  32              		@ args = 0, pretend = 0, frame = 8
  33              		@ frame_needed = 1, uses_anonymous_args = 0
  34 0000 80B5     		push	{r7, lr}
  35              		.cfi_def_cfa_offset 8
  36              		.cfi_offset 7, -8
  37              		.cfi_offset 14, -4
  38 0002 82B0     		sub	sp, sp, #8
  39              		.cfi_def_cfa_offset 16
  40 0004 00AF     		add	r7, sp, #0
  41              		.cfi_def_cfa_register 7
  42 0006 7860     		str	r0, [r7, #4]
  43              		.loc 1 359 3
  44 0008 7968     		ldr	r1, [r7, #4]
  45 000a 0348     		ldr	r0, .L2
  46 000c FFF7FEFF 		bl	test_printf
  47              		.loc 1 360 1
  48 0010 00BF     		nop
  49 0012 0837     		adds	r7, r7, #8
  50              		.cfi_def_cfa_offset 8
  51 0014 BD46     		mov	sp, r7
  52              		.cfi_def_cfa_register 13
  53              		@ sp needed
  54 0016 80BD     		pop	{r7, pc}
  55              	.L3:
  56              		.align	2
  57              	.L2:
ARM GAS  C:\Users\DEVELO~1\AppData\Local\Temp\ccQDbmtk.s 			page 2


  58 0018 00000000 		.word	.LC0
  59              		.cfi_endproc
  60              	.LFE433:
  61              		.size	test_printn, .-test_printn
  62              		.section	.rodata
  63 0003 00       		.align	2
  64              	.LC1:
  65 0004 257300   		.ascii	"%s\000"
  66              		.section	.text.test_print,"ax",%progbits
  67              		.align	1
  68              		.syntax unified
  69              		.thumb
  70              		.thumb_func
  71              		.type	test_print, %function
  72              	test_print:
  73              	.LFB434:
  74              		.loc 1 369 49
  75              		.cfi_startproc
  76              		@ args = 0, pretend = 0, frame = 8
  77              		@ frame_needed = 1, uses_anonymous_args = 0
  78 0000 80B5     		push	{r7, lr}
  79              		.cfi_def_cfa_offset 8
  80              		.cfi_offset 7, -8
  81              		.cfi_offset 14, -4
  82 0002 82B0     		sub	sp, sp, #8
  83              		.cfi_def_cfa_offset 16
  84 0004 00AF     		add	r7, sp, #0
  85              		.cfi_def_cfa_register 7
  86 0006 7860     		str	r0, [r7, #4]
  87              		.loc 1 371 3
  88 0008 7968     		ldr	r1, [r7, #4]
  89 000a 0348     		ldr	r0, .L5
  90 000c FFF7FEFF 		bl	test_printf
  91              		.loc 1 372 1
  92 0010 00BF     		nop
  93 0012 0837     		adds	r7, r7, #8
  94              		.cfi_def_cfa_offset 8
  95 0014 BD46     		mov	sp, r7
  96              		.cfi_def_cfa_register 13
  97              		@ sp needed
  98 0016 80BD     		pop	{r7, pc}
  99              	.L6:
 100              		.align	2
 101              	.L5:
 102 0018 04000000 		.word	.LC1
 103              		.cfi_endproc
 104              	.LFE434:
 105              		.size	test_print, .-test_print
 106              		.section	.rodata
 107 0007 00       		.align	2
 108              	.LC2:
 109 0008 25730D0A 		.ascii	"%s\015\012\000"
 109      00
 110              		.section	.text.test_println,"ax",%progbits
 111              		.align	1
 112              		.syntax unified
 113              		.thumb
ARM GAS  C:\Users\DEVELO~1\AppData\Local\Temp\ccQDbmtk.s 			page 3


 114              		.thumb_func
 115              		.type	test_println, %function
 116              	test_println:
 117              	.LFB435:
 118              		.loc 1 381 51
 119              		.cfi_startproc
 120              		@ args = 0, pretend = 0, frame = 8
 121              		@ frame_needed = 1, uses_anonymous_args = 0
 122 0000 80B5     		push	{r7, lr}
 123              		.cfi_def_cfa_offset 8
 124              		.cfi_offset 7, -8
 125              		.cfi_offset 14, -4
 126 0002 82B0     		sub	sp, sp, #8
 127              		.cfi_def_cfa_offset 16
 128 0004 00AF     		add	r7, sp, #0
 129              		.cfi_def_cfa_register 7
 130 0006 7860     		str	r0, [r7, #4]
 131              		.loc 1 383 3
 132 0008 7968     		ldr	r1, [r7, #4]
 133 000a 0348     		ldr	r0, .L8
 134 000c FFF7FEFF 		bl	test_printf
 135              		.loc 1 384 1
 136 0010 00BF     		nop
 137 0012 0837     		adds	r7, r7, #8
 138              		.cfi_def_cfa_offset 8
 139 0014 BD46     		mov	sp, r7
 140              		.cfi_def_cfa_register 13
 141              		@ sp needed
 142 0016 80BD     		pop	{r7, pc}
 143              	.L9:
 144              		.align	2
 145              	.L8:
 146 0018 08000000 		.word	.LC2
 147              		.cfi_endproc
 148              	.LFE435:
 149              		.size	test_println, .-test_println
 150              		.section	.rodata
 151 000d 000000   		.align	2
 152              	.LC3:
 153 0010 2D2D2D20 		.ascii	"--- Architecture:                       \000"
 153      41726368 
 153      69746563 
 153      74757265 
 153      3A202020 
 154 0039 000000   		.align	2
 155              	.LC4:
 156 003c 41524D76 		.ascii	"ARMv7E-M\000"
 156      37452D4D 
 156      00
 157 0045 000000   		.align	2
 158              	.LC5:
 159 0048 2D2D2D20 		.ascii	"--- Core Variant:                       \000"
 159      436F7265 
 159      20566172 
 159      69616E74 
 159      3A202020 
 160 0071 000000   		.align	2
ARM GAS  C:\Users\DEVELO~1\AppData\Local\Temp\ccQDbmtk.s 			page 4


 161              	.LC6:
 162 0074 436F7274 		.ascii	"Cortex-M7\000"
 162      65782D4D 
 162      3700
 163 007e 0000     		.align	2
 164              	.LC7:
 165 0080 2D2D2D20 		.ascii	"--- Compiler:                           \000"
 165      436F6D70 
 165      696C6572 
 165      3A202020 
 165      20202020 
 166 00a9 000000   		.align	2
 167              	.LC8:
 168 00ac 47434320 		.ascii	"GCC 11.3.1 20220712\000"
 168      31312E33 
 168      2E312032 
 168      30323230 
 168      37313200 
 169              		.align	2
 170              	.LC9:
 171 00c0 2D2D2D20 		.ascii	"--- Port Info:                          \000"
 171      506F7274 
 171      20496E66 
 171      6F3A2020 
 171      20202020 
 172 00e9 000000   		.align	2
 173              	.LC10:
 174 00ec 41647661 		.ascii	"Advanced kernel mode\000"
 174      6E636564 
 174      206B6572 
 174      6E656C20 
 174      6D6F6465 
 175 0101 000000   		.align	2
 176              	.LC11:
 177 0104 2D2D2D20 		.ascii	"--- Natural alignment:                  \000"
 177      4E617475 
 177      72616C20 
 177      616C6967 
 177      6E6D656E 
 178 012d 000000   		.align	2
 179              	.LC12:
 180 0130 00       		.ascii	"\000"
 181 0131 000000   		.align	2
 182              	.LC13:
 183 0134 2D2D2D20 		.ascii	"--- Stack alignment:                    \000"
 183      53746163 
 183      6B20616C 
 183      69676E6D 
 183      656E743A 
 184 015d 000000   		.align	2
 185              	.LC14:
 186 0160 2D2D2D20 		.ascii	"--- Working area alignment:             \000"
 186      576F726B 
 186      696E6720 
 186      61726561 
 186      20616C69 
 187              		.section	.text.oslib_test_001_001_execute,"ax",%progbits
ARM GAS  C:\Users\DEVELO~1\AppData\Local\Temp\ccQDbmtk.s 			page 5


 188              		.align	1
 189              		.syntax unified
 190              		.thumb
 191              		.thumb_func
 192              		.type	oslib_test_001_001_execute, %function
 193              	oslib_test_001_001_execute:
 194              	.LFB436:
 195              		.file 2 "../../../test/oslib/source/test/oslib_test_sequence_001.c"
 196              		.loc 2 60 46
 197              		.cfi_startproc
 198              		@ args = 0, pretend = 0, frame = 0
 199              		@ frame_needed = 1, uses_anonymous_args = 0
 200 0000 80B5     		push	{r7, lr}
 201              		.cfi_def_cfa_offset 8
 202              		.cfi_offset 7, -8
 203              		.cfi_offset 14, -4
 204 0002 00AF     		add	r7, sp, #0
 205              		.cfi_def_cfa_register 7
 206              		.loc 2 63 3
 207 0004 1B4B     		ldr	r3, .L11
 208 0006 0122     		movs	r2, #1
 209 0008 1A60     		str	r2, [r3]
 210              		.loc 2 66 5
 211 000a 1B48     		ldr	r0, .L11+4
 212 000c FFF7FEFF 		bl	test_print
 213              		.loc 2 67 5
 214 0010 1A48     		ldr	r0, .L11+8
 215 0012 FFF7FEFF 		bl	test_println
 216              		.loc 2 70 5
 217 0016 1A48     		ldr	r0, .L11+12
 218 0018 FFF7FEFF 		bl	test_print
 219              		.loc 2 71 5
 220 001c 1948     		ldr	r0, .L11+16
 221 001e FFF7FEFF 		bl	test_println
 222              		.loc 2 74 5
 223 0022 1948     		ldr	r0, .L11+20
 224 0024 FFF7FEFF 		bl	test_print
 225              		.loc 2 75 5
 226 0028 1848     		ldr	r0, .L11+24
 227 002a FFF7FEFF 		bl	test_println
 228              		.loc 2 78 5
 229 002e 1848     		ldr	r0, .L11+28
 230 0030 FFF7FEFF 		bl	test_print
 231              		.loc 2 79 5
 232 0034 1748     		ldr	r0, .L11+32
 233 0036 FFF7FEFF 		bl	test_println
 234              		.loc 2 82 5
 235 003a 1748     		ldr	r0, .L11+36
 236 003c FFF7FEFF 		bl	test_print
 237              		.loc 2 83 5
 238 0040 0420     		movs	r0, #4
 239 0042 FFF7FEFF 		bl	test_printn
 240              		.loc 2 84 5
 241 0046 1548     		ldr	r0, .L11+40
 242 0048 FFF7FEFF 		bl	test_println
 243              		.loc 2 87 5
 244 004c 1448     		ldr	r0, .L11+44
ARM GAS  C:\Users\DEVELO~1\AppData\Local\Temp\ccQDbmtk.s 			page 6


 245 004e FFF7FEFF 		bl	test_print
 246              		.loc 2 88 5
 247 0052 0820     		movs	r0, #8
 248 0054 FFF7FEFF 		bl	test_printn
 249              		.loc 2 89 5
 250 0058 1048     		ldr	r0, .L11+40
 251 005a FFF7FEFF 		bl	test_println
 252              		.loc 2 92 5
 253 005e 1148     		ldr	r0, .L11+48
 254 0060 FFF7FEFF 		bl	test_print
 255              		.loc 2 93 5
 256 0064 0820     		movs	r0, #8
 257 0066 FFF7FEFF 		bl	test_printn
 258              		.loc 2 94 5
 259 006a 0C48     		ldr	r0, .L11+40
 260 006c FFF7FEFF 		bl	test_println
 261              		.loc 2 98 1
 262 0070 00BF     		nop
 263 0072 80BD     		pop	{r7, pc}
 264              	.L12:
 265              		.align	2
 266              	.L11:
 267 0074 00000000 		.word	chtest
 268 0078 10000000 		.word	.LC3
 269 007c 3C000000 		.word	.LC4
 270 0080 48000000 		.word	.LC5
 271 0084 74000000 		.word	.LC6
 272 0088 80000000 		.word	.LC7
 273 008c AC000000 		.word	.LC8
 274 0090 C0000000 		.word	.LC9
 275 0094 EC000000 		.word	.LC10
 276 0098 04010000 		.word	.LC11
 277 009c 30010000 		.word	.LC12
 278 00a0 34010000 		.word	.LC13
 279 00a4 60010000 		.word	.LC14
 280              		.cfi_endproc
 281              	.LFE436:
 282              		.size	oslib_test_001_001_execute, .-oslib_test_001_001_execute
 283              		.section	.rodata
 284 0189 000000   		.align	2
 285              	.LC15:
 286 018c 506F7274 		.ascii	"Port Info\000"
 286      20496E66 
 286      6F00
 287              		.section	.rodata.oslib_test_001_001,"a"
 288              		.align	2
 289              		.type	oslib_test_001_001, %object
 290              		.size	oslib_test_001_001, 16
 291              	oslib_test_001_001:
 292 0000 8C010000 		.word	.LC15
 293 0004 00000000 		.word	0
 294 0008 00000000 		.word	0
 295 000c 00000000 		.word	oslib_test_001_001_execute
 296              		.section	.rodata
 297 0196 0000     		.align	2
 298              	.LC16:
 299 0198 2D2D2D20 		.ascii	"--- Product:                            ChibiOS/LIB"
ARM GAS  C:\Users\DEVELO~1\AppData\Local\Temp\ccQDbmtk.s 			page 7


 299      50726F64 
 299      7563743A 
 299      20202020 
 299      20202020 
 300 01cb 00       		.ascii	"\000"
 301              		.align	2
 302              	.LC17:
 303 01cc 2D2D2D20 		.ascii	"--- Stable Flag:                        \000"
 303      53746162 
 303      6C652046 
 303      6C61673A 
 303      20202020 
 304 01f5 000000   		.align	2
 305              	.LC18:
 306 01f8 2D2D2D20 		.ascii	"--- Version String:                     \000"
 306      56657273 
 306      696F6E20 
 306      53747269 
 306      6E673A20 
 307 0221 000000   		.align	2
 308              	.LC19:
 309 0224 312E332E 		.ascii	"1.3.2\000"
 309      3200
 310 022a 0000     		.align	2
 311              	.LC20:
 312 022c 2D2D2D20 		.ascii	"--- Major Number:                       \000"
 312      4D616A6F 
 312      72204E75 
 312      6D626572 
 312      3A202020 
 313 0255 000000   		.align	2
 314              	.LC21:
 315 0258 2D2D2D20 		.ascii	"--- Minor Number:                       \000"
 315      4D696E6F 
 315      72204E75 
 315      6D626572 
 315      3A202020 
 316 0281 000000   		.align	2
 317              	.LC22:
 318 0284 2D2D2D20 		.ascii	"--- Patch Number:                       \000"
 318      50617463 
 318      68204E75 
 318      6D626572 
 318      3A202020 
 319              		.section	.text.oslib_test_001_002_execute,"ax",%progbits
 320              		.align	1
 321              		.syntax unified
 322              		.thumb
 323              		.thumb_func
 324              		.type	oslib_test_001_002_execute, %function
 325              	oslib_test_001_002_execute:
 326              	.LFB437:
 327              		.loc 2 118 46
 328              		.cfi_startproc
 329              		@ args = 0, pretend = 0, frame = 0
 330              		@ frame_needed = 1, uses_anonymous_args = 0
 331 0000 80B5     		push	{r7, lr}
ARM GAS  C:\Users\DEVELO~1\AppData\Local\Temp\ccQDbmtk.s 			page 8


 332              		.cfi_def_cfa_offset 8
 333              		.cfi_offset 7, -8
 334              		.cfi_offset 14, -4
 335 0002 00AF     		add	r7, sp, #0
 336              		.cfi_def_cfa_register 7
 337              		.loc 2 121 3
 338 0004 184B     		ldr	r3, .L14
 339 0006 0122     		movs	r2, #1
 340 0008 1A60     		str	r2, [r3]
 341              		.loc 2 123 5
 342 000a 1848     		ldr	r0, .L14+4
 343 000c FFF7FEFF 		bl	test_println
 344              		.loc 2 124 5
 345 0010 1748     		ldr	r0, .L14+8
 346 0012 FFF7FEFF 		bl	test_print
 347              		.loc 2 125 5
 348 0016 0120     		movs	r0, #1
 349 0018 FFF7FEFF 		bl	test_printn
 350              		.loc 2 126 5
 351 001c 1548     		ldr	r0, .L14+12
 352 001e FFF7FEFF 		bl	test_println
 353              		.loc 2 127 5
 354 0022 1548     		ldr	r0, .L14+16
 355 0024 FFF7FEFF 		bl	test_print
 356              		.loc 2 128 5
 357 0028 1448     		ldr	r0, .L14+20
 358 002a FFF7FEFF 		bl	test_println
 359              		.loc 2 129 5
 360 002e 1448     		ldr	r0, .L14+24
 361 0030 FFF7FEFF 		bl	test_print
 362              		.loc 2 130 5
 363 0034 0120     		movs	r0, #1
 364 0036 FFF7FEFF 		bl	test_printn
 365              		.loc 2 131 5
 366 003a 0E48     		ldr	r0, .L14+12
 367 003c FFF7FEFF 		bl	test_println
 368              		.loc 2 132 5
 369 0040 1048     		ldr	r0, .L14+28
 370 0042 FFF7FEFF 		bl	test_print
 371              		.loc 2 133 5
 372 0046 0320     		movs	r0, #3
 373 0048 FFF7FEFF 		bl	test_printn
 374              		.loc 2 134 5
 375 004c 0948     		ldr	r0, .L14+12
 376 004e FFF7FEFF 		bl	test_println
 377              		.loc 2 135 5
 378 0052 0D48     		ldr	r0, .L14+32
 379 0054 FFF7FEFF 		bl	test_print
 380              		.loc 2 136 5
 381 0058 0220     		movs	r0, #2
 382 005a FFF7FEFF 		bl	test_printn
 383              		.loc 2 137 5
 384 005e 0548     		ldr	r0, .L14+12
 385 0060 FFF7FEFF 		bl	test_println
 386              		.loc 2 140 1
 387 0064 00BF     		nop
 388 0066 80BD     		pop	{r7, pc}
ARM GAS  C:\Users\DEVELO~1\AppData\Local\Temp\ccQDbmtk.s 			page 9


 389              	.L15:
 390              		.align	2
 391              	.L14:
 392 0068 00000000 		.word	chtest
 393 006c 98010000 		.word	.LC16
 394 0070 CC010000 		.word	.LC17
 395 0074 30010000 		.word	.LC12
 396 0078 F8010000 		.word	.LC18
 397 007c 24020000 		.word	.LC19
 398 0080 2C020000 		.word	.LC20
 399 0084 58020000 		.word	.LC21
 400 0088 84020000 		.word	.LC22
 401              		.cfi_endproc
 402              	.LFE437:
 403              		.size	oslib_test_001_002_execute, .-oslib_test_001_002_execute
 404              		.section	.rodata
 405 02ad 000000   		.align	2
 406              	.LC23:
 407 02b0 4F53204C 		.ascii	"OS Library Info\000"
 407      69627261 
 407      72792049 
 407      6E666F00 
 408              		.section	.rodata.oslib_test_001_002,"a"
 409              		.align	2
 410              		.type	oslib_test_001_002, %object
 411              		.size	oslib_test_001_002, 16
 412              	oslib_test_001_002:
 413 0000 B0020000 		.word	.LC23
 414 0004 00000000 		.word	0
 415 0008 00000000 		.word	0
 416 000c 00000000 		.word	oslib_test_001_002_execute
 417              		.section	.rodata
 418              		.align	2
 419              	.LC24:
 420 02c0 2D2D2D20 		.ascii	"--- CH_CFG_USE_MAILBOXES:               \000"
 420      43485F43 
 420      46475F55 
 420      53455F4D 
 420      41494C42 
 421 02e9 000000   		.align	2
 422              	.LC25:
 423 02ec 2D2D2D20 		.ascii	"--- CH_CFG_USE_MEMCORE:                 \000"
 423      43485F43 
 423      46475F55 
 423      53455F4D 
 423      454D434F 
 424 0315 000000   		.align	2
 425              	.LC26:
 426 0318 2D2D2D20 		.ascii	"--- CH_CFG_USE_HEAP:                    \000"
 426      43485F43 
 426      46475F55 
 426      53455F48 
 426      4541503A 
 427 0341 000000   		.align	2
 428              	.LC27:
 429 0344 2D2D2D20 		.ascii	"--- CH_CFG_USE_MEMPOOLS:                \000"
 429      43485F43 
ARM GAS  C:\Users\DEVELO~1\AppData\Local\Temp\ccQDbmtk.s 			page 10


 429      46475F55 
 429      53455F4D 
 429      454D504F 
 430 036d 000000   		.align	2
 431              	.LC28:
 432 0370 2D2D2D20 		.ascii	"--- CH_CFG_USE_OBJ_FIFOS:               \000"
 432      43485F43 
 432      46475F55 
 432      53455F4F 
 432      424A5F46 
 433 0399 000000   		.align	2
 434              	.LC29:
 435 039c 2D2D2D20 		.ascii	"--- CH_CFG_USE_PIPES:                   \000"
 435      43485F43 
 435      46475F55 
 435      53455F50 
 435      49504553 
 436 03c5 000000   		.align	2
 437              	.LC30:
 438 03c8 2D2D2D20 		.ascii	"--- CH_CFG_USE_OBJ_CACHES:              \000"
 438      43485F43 
 438      46475F55 
 438      53455F4F 
 438      424A5F43 
 439 03f1 000000   		.align	2
 440              	.LC31:
 441 03f4 2D2D2D20 		.ascii	"--- CH_CFG_USE_DELEGATES:               \000"
 441      43485F43 
 441      46475F55 
 441      53455F44 
 441      454C4547 
 442 041d 000000   		.align	2
 443              	.LC32:
 444 0420 2D2D2D20 		.ascii	"--- CH_CFG_USE_FACTORY:                 \000"
 444      43485F43 
 444      46475F55 
 444      53455F46 
 444      4143544F 
 445 0449 000000   		.align	2
 446              	.LC33:
 447 044c 2D2D2D20 		.ascii	"--- CH_CFG_FACTORY_MAX_NAMES_LENGTH:    \000"
 447      43485F43 
 447      46475F46 
 447      4143544F 
 447      52595F4D 
 448 0475 000000   		.align	2
 449              	.LC34:
 450 0478 2D2D2D20 		.ascii	"--- CH_CFG_FACTORY_OBJECTS_REGISTRY:    \000"
 450      43485F43 
 450      46475F46 
 450      4143544F 
 450      52595F4F 
 451 04a1 000000   		.align	2
 452              	.LC35:
 453 04a4 2D2D2D20 		.ascii	"--- CH_CFG_FACTORY_GENERIC_BUFFERS:     \000"
 453      43485F43 
 453      46475F46 
ARM GAS  C:\Users\DEVELO~1\AppData\Local\Temp\ccQDbmtk.s 			page 11


 453      4143544F 
 453      52595F47 
 454 04cd 000000   		.align	2
 455              	.LC36:
 456 04d0 2D2D2D20 		.ascii	"--- CH_CFG_FACTORY_SEMAPHORES:          \000"
 456      43485F43 
 456      46475F46 
 456      4143544F 
 456      52595F53 
 457 04f9 000000   		.align	2
 458              	.LC37:
 459 04fc 2D2D2D20 		.ascii	"--- CH_CFG_FACTORY_MAILBOXES:           \000"
 459      43485F43 
 459      46475F46 
 459      4143544F 
 459      52595F4D 
 460 0525 000000   		.align	2
 461              	.LC38:
 462 0528 2D2D2D20 		.ascii	"--- CH_CFG_FACTORY_OBJ_FIFOS:           \000"
 462      43485F43 
 462      46475F46 
 462      4143544F 
 462      52595F4F 
 463 0551 000000   		.align	2
 464              	.LC39:
 465 0554 2D2D2D20 		.ascii	"--- CH_CFG_FACTORY_PIPES:               \000"
 465      43485F43 
 465      46475F46 
 465      4143544F 
 465      52595F50 
 466              		.section	.text.oslib_test_001_003_execute,"ax",%progbits
 467              		.align	1
 468              		.syntax unified
 469              		.thumb
 470              		.thumb_func
 471              		.type	oslib_test_001_003_execute, %function
 472              	oslib_test_001_003_execute:
 473              	.LFB438:
 474              		.loc 2 160 46
 475              		.cfi_startproc
 476              		@ args = 0, pretend = 0, frame = 0
 477              		@ frame_needed = 1, uses_anonymous_args = 0
 478 0000 80B5     		push	{r7, lr}
 479              		.cfi_def_cfa_offset 8
 480              		.cfi_offset 7, -8
 481              		.cfi_offset 14, -4
 482 0002 00AF     		add	r7, sp, #0
 483              		.cfi_def_cfa_register 7
 484              		.loc 2 163 3
 485 0004 4A4B     		ldr	r3, .L17
 486 0006 0122     		movs	r2, #1
 487 0008 1A60     		str	r2, [r3]
 488              		.loc 2 165 5
 489 000a 4A48     		ldr	r0, .L17+4
 490 000c FFF7FEFF 		bl	test_print
 491              		.loc 2 166 5
 492 0010 0120     		movs	r0, #1
ARM GAS  C:\Users\DEVELO~1\AppData\Local\Temp\ccQDbmtk.s 			page 12


 493 0012 FFF7FEFF 		bl	test_printn
 494              		.loc 2 167 5
 495 0016 4848     		ldr	r0, .L17+8
 496 0018 FFF7FEFF 		bl	test_println
 497              		.loc 2 168 5
 498 001c 4748     		ldr	r0, .L17+12
 499 001e FFF7FEFF 		bl	test_print
 500              		.loc 2 169 5
 501 0022 0120     		movs	r0, #1
 502 0024 FFF7FEFF 		bl	test_printn
 503              		.loc 2 170 5
 504 0028 4348     		ldr	r0, .L17+8
 505 002a FFF7FEFF 		bl	test_println
 506              		.loc 2 171 5
 507 002e 4448     		ldr	r0, .L17+16
 508 0030 FFF7FEFF 		bl	test_print
 509              		.loc 2 172 5
 510 0034 0120     		movs	r0, #1
 511 0036 FFF7FEFF 		bl	test_printn
 512              		.loc 2 173 5
 513 003a 3F48     		ldr	r0, .L17+8
 514 003c FFF7FEFF 		bl	test_println
 515              		.loc 2 174 5
 516 0040 4048     		ldr	r0, .L17+20
 517 0042 FFF7FEFF 		bl	test_print
 518              		.loc 2 175 5
 519 0046 0120     		movs	r0, #1
 520 0048 FFF7FEFF 		bl	test_printn
 521              		.loc 2 176 5
 522 004c 3A48     		ldr	r0, .L17+8
 523 004e FFF7FEFF 		bl	test_println
 524              		.loc 2 177 5
 525 0052 3D48     		ldr	r0, .L17+24
 526 0054 FFF7FEFF 		bl	test_print
 527              		.loc 2 178 5
 528 0058 0120     		movs	r0, #1
 529 005a FFF7FEFF 		bl	test_printn
 530              		.loc 2 179 5
 531 005e 3648     		ldr	r0, .L17+8
 532 0060 FFF7FEFF 		bl	test_println
 533              		.loc 2 180 5
 534 0064 3948     		ldr	r0, .L17+28
 535 0066 FFF7FEFF 		bl	test_print
 536              		.loc 2 181 5
 537 006a 0120     		movs	r0, #1
 538 006c FFF7FEFF 		bl	test_printn
 539              		.loc 2 182 5
 540 0070 3148     		ldr	r0, .L17+8
 541 0072 FFF7FEFF 		bl	test_println
 542              		.loc 2 183 5
 543 0076 3648     		ldr	r0, .L17+32
 544 0078 FFF7FEFF 		bl	test_print
 545              		.loc 2 184 5
 546 007c 0120     		movs	r0, #1
 547 007e FFF7FEFF 		bl	test_printn
 548              		.loc 2 185 5
 549 0082 2D48     		ldr	r0, .L17+8
ARM GAS  C:\Users\DEVELO~1\AppData\Local\Temp\ccQDbmtk.s 			page 13


 550 0084 FFF7FEFF 		bl	test_println
 551              		.loc 2 186 5
 552 0088 3248     		ldr	r0, .L17+36
 553 008a FFF7FEFF 		bl	test_print
 554              		.loc 2 187 5
 555 008e 0120     		movs	r0, #1
 556 0090 FFF7FEFF 		bl	test_printn
 557              		.loc 2 188 5
 558 0094 2848     		ldr	r0, .L17+8
 559 0096 FFF7FEFF 		bl	test_println
 560              		.loc 2 189 5
 561 009a 2F48     		ldr	r0, .L17+40
 562 009c FFF7FEFF 		bl	test_print
 563              		.loc 2 190 5
 564 00a0 0120     		movs	r0, #1
 565 00a2 FFF7FEFF 		bl	test_printn
 566              		.loc 2 191 5
 567 00a6 2448     		ldr	r0, .L17+8
 568 00a8 FFF7FEFF 		bl	test_println
 569              		.loc 2 192 5
 570 00ac 2B48     		ldr	r0, .L17+44
 571 00ae FFF7FEFF 		bl	test_print
 572              		.loc 2 193 5
 573 00b2 0820     		movs	r0, #8
 574 00b4 FFF7FEFF 		bl	test_printn
 575              		.loc 2 194 5
 576 00b8 1F48     		ldr	r0, .L17+8
 577 00ba FFF7FEFF 		bl	test_println
 578              		.loc 2 195 5
 579 00be 2848     		ldr	r0, .L17+48
 580 00c0 FFF7FEFF 		bl	test_print
 581              		.loc 2 196 5
 582 00c4 0120     		movs	r0, #1
 583 00c6 FFF7FEFF 		bl	test_printn
 584              		.loc 2 197 5
 585 00ca 1B48     		ldr	r0, .L17+8
 586 00cc FFF7FEFF 		bl	test_println
 587              		.loc 2 198 5
 588 00d0 2448     		ldr	r0, .L17+52
 589 00d2 FFF7FEFF 		bl	test_print
 590              		.loc 2 199 5
 591 00d6 0120     		movs	r0, #1
 592 00d8 FFF7FEFF 		bl	test_printn
 593              		.loc 2 200 5
 594 00dc 1648     		ldr	r0, .L17+8
 595 00de FFF7FEFF 		bl	test_println
 596              		.loc 2 201 5
 597 00e2 2148     		ldr	r0, .L17+56
 598 00e4 FFF7FEFF 		bl	test_print
 599              		.loc 2 202 5
 600 00e8 0120     		movs	r0, #1
 601 00ea FFF7FEFF 		bl	test_printn
 602              		.loc 2 203 5
 603 00ee 1248     		ldr	r0, .L17+8
 604 00f0 FFF7FEFF 		bl	test_println
 605              		.loc 2 204 5
 606 00f4 1D48     		ldr	r0, .L17+60
ARM GAS  C:\Users\DEVELO~1\AppData\Local\Temp\ccQDbmtk.s 			page 14


 607 00f6 FFF7FEFF 		bl	test_print
 608              		.loc 2 205 5
 609 00fa 0120     		movs	r0, #1
 610 00fc FFF7FEFF 		bl	test_printn
 611              		.loc 2 206 5
 612 0100 0D48     		ldr	r0, .L17+8
 613 0102 FFF7FEFF 		bl	test_println
 614              		.loc 2 207 5
 615 0106 1A48     		ldr	r0, .L17+64
 616 0108 FFF7FEFF 		bl	test_print
 617              		.loc 2 208 5
 618 010c 0120     		movs	r0, #1
 619 010e FFF7FEFF 		bl	test_printn
 620              		.loc 2 209 5
 621 0112 0948     		ldr	r0, .L17+8
 622 0114 FFF7FEFF 		bl	test_println
 623              		.loc 2 210 5
 624 0118 1648     		ldr	r0, .L17+68
 625 011a FFF7FEFF 		bl	test_print
 626              		.loc 2 211 5
 627 011e 0120     		movs	r0, #1
 628 0120 FFF7FEFF 		bl	test_printn
 629              		.loc 2 212 5
 630 0124 0448     		ldr	r0, .L17+8
 631 0126 FFF7FEFF 		bl	test_println
 632              		.loc 2 215 1
 633 012a 00BF     		nop
 634 012c 80BD     		pop	{r7, pc}
 635              	.L18:
 636 012e 00BF     		.align	2
 637              	.L17:
 638 0130 00000000 		.word	chtest
 639 0134 C0020000 		.word	.LC24
 640 0138 30010000 		.word	.LC12
 641 013c EC020000 		.word	.LC25
 642 0140 18030000 		.word	.LC26
 643 0144 44030000 		.word	.LC27
 644 0148 70030000 		.word	.LC28
 645 014c 9C030000 		.word	.LC29
 646 0150 C8030000 		.word	.LC30
 647 0154 F4030000 		.word	.LC31
 648 0158 20040000 		.word	.LC32
 649 015c 4C040000 		.word	.LC33
 650 0160 78040000 		.word	.LC34
 651 0164 A4040000 		.word	.LC35
 652 0168 D0040000 		.word	.LC36
 653 016c FC040000 		.word	.LC37
 654 0170 28050000 		.word	.LC38
 655 0174 54050000 		.word	.LC39
 656              		.cfi_endproc
 657              	.LFE438:
 658              		.size	oslib_test_001_003_execute, .-oslib_test_001_003_execute
 659              		.section	.rodata
 660 057d 000000   		.align	2
 661              	.LC40:
 662 0580 4F53204C 		.ascii	"OS Library Settings\000"
 662      69627261 
ARM GAS  C:\Users\DEVELO~1\AppData\Local\Temp\ccQDbmtk.s 			page 15


 662      72792053 
 662      65747469 
 662      6E677300 
 663              		.section	.rodata.oslib_test_001_003,"a"
 664              		.align	2
 665              		.type	oslib_test_001_003, %object
 666              		.size	oslib_test_001_003, 16
 667              	oslib_test_001_003:
 668 0000 80050000 		.word	.LC40
 669 0004 00000000 		.word	0
 670 0008 00000000 		.word	0
 671 000c 00000000 		.word	oslib_test_001_003_execute
 672              		.global	oslib_test_sequence_001_array
 673              		.section	.rodata.oslib_test_sequence_001_array,"a"
 674              		.align	2
 675              		.type	oslib_test_sequence_001_array, %object
 676              		.size	oslib_test_sequence_001_array, 16
 677              	oslib_test_sequence_001_array:
 678 0000 00000000 		.word	oslib_test_001_001
 679 0004 00000000 		.word	oslib_test_001_002
 680 0008 00000000 		.word	oslib_test_001_003
 681 000c 00000000 		.word	0
 682              		.global	oslib_test_sequence_001
 683              		.section	.rodata
 684              		.align	2
 685              	.LC41:
 686 0594 496E666F 		.ascii	"Information\000"
 686      726D6174 
 686      696F6E00 
 687              		.section	.rodata.oslib_test_sequence_001,"a"
 688              		.align	2
 689              		.type	oslib_test_sequence_001, %object
 690              		.size	oslib_test_sequence_001, 8
 691              	oslib_test_sequence_001:
 692 0000 94050000 		.word	.LC41
 693 0004 00000000 		.word	oslib_test_sequence_001_array
 694              		.text
 695              	.Letext0:
 696              		.file 3 "c:\\chibistudio\\tools\\gnu tools arm embedded\\11.3 2022.08\\lib\\gcc\\arm-none-eabi\\11
 697              		.file 4 "c:\\chibistudio\\tools\\gnu tools arm embedded\\11.3 2022.08\\arm-none-eabi\\include\\mac
 698              		.file 5 "c:\\chibistudio\\tools\\gnu tools arm embedded\\11.3 2022.08\\arm-none-eabi\\include\\sys
 699              		.file 6 "../../../os/rt/include/chearly.h"
 700              		.file 7 "../../../os/hal/include/hal_streams.h"
 701              		.file 8 "../../../test/oslib/source/test/oslib_test_sequence_001.h"