ARM GAS  C:\Users\DEVELO~1\AppData\Local\Temp\ccREfGBA.s 			page 1


   1              		.cpu cortex-m7
   2              		.arch armv7e-m
   3              		.fpu softvfp
   4              		.eabi_attribute 20, 1
   5              		.eabi_attribute 21, 1
   6              		.eabi_attribute 23, 3
   7              		.eabi_attribute 24, 1
   8              		.eabi_attribute 25, 1
   9              		.eabi_attribute 26, 1
  10              		.eabi_attribute 30, 6
  11              		.eabi_attribute 34, 1
  12              		.eabi_attribute 18, 4
  13              		.file	"oslib_test_sequence_007.c"
  14              		.text
  15              	.Ltext0:
  16              		.cfi_sections	.debug_frame
  17              		.section	.text.chPoolObjectInit,"ax",%progbits
  18              		.align	1
  19              		.syntax unified
  20              		.thumb
  21              		.thumb_func
  22              		.type	chPoolObjectInit, %function
  23              	chPoolObjectInit:
  24              	.LFB286:
  25              		.file 1 "../../../os/oslib/include/chmempools.h"
  26              		.loc 1 191 60
  27              		.cfi_startproc
  28              		@ args = 0, pretend = 0, frame = 16
  29              		@ frame_needed = 1, uses_anonymous_args = 0
  30 0000 80B5     		push	{r7, lr}
  31              		.cfi_def_cfa_offset 8
  32              		.cfi_offset 7, -8
  33              		.cfi_offset 14, -4
  34 0002 84B0     		sub	sp, sp, #16
  35              		.cfi_def_cfa_offset 24
  36 0004 00AF     		add	r7, sp, #0
  37              		.cfi_def_cfa_register 7
  38 0006 F860     		str	r0, [r7, #12]
  39 0008 B960     		str	r1, [r7, #8]
  40 000a 7A60     		str	r2, [r7, #4]
  41              		.loc 1 193 3
  42 000c 7B68     		ldr	r3, [r7, #4]
  43 000e 0422     		movs	r2, #4
  44 0010 B968     		ldr	r1, [r7, #8]
  45 0012 F868     		ldr	r0, [r7, #12]
  46 0014 FFF7FEFF 		bl	chPoolObjectInitAligned
  47              		.loc 1 194 1
  48 0018 00BF     		nop
  49 001a 1037     		adds	r7, r7, #16
  50              		.cfi_def_cfa_offset 8
  51 001c BD46     		mov	sp, r7
  52              		.cfi_def_cfa_register 13
  53              		@ sp needed
  54 001e 80BD     		pop	{r7, pc}
  55              		.cfi_endproc
  56              	.LFE286:
  57              		.size	chPoolObjectInit, .-chPoolObjectInit
ARM GAS  C:\Users\DEVELO~1\AppData\Local\Temp\ccREfGBA.s 			page 2


  58              		.section	.text.chGuardedPoolObjectInit,"ax",%progbits
  59              		.align	1
  60              		.syntax unified
  61              		.thumb
  62              		.thumb_func
  63              		.type	chGuardedPoolObjectInit, %function
  64              	chGuardedPoolObjectInit:
  65              	.LFB289:
  66              		.loc 1 246 57
  67              		.cfi_startproc
  68              		@ args = 0, pretend = 0, frame = 8
  69              		@ frame_needed = 1, uses_anonymous_args = 0
  70 0000 80B5     		push	{r7, lr}
  71              		.cfi_def_cfa_offset 8
  72              		.cfi_offset 7, -8
  73              		.cfi_offset 14, -4
  74 0002 82B0     		sub	sp, sp, #8
  75              		.cfi_def_cfa_offset 16
  76 0004 00AF     		add	r7, sp, #0
  77              		.cfi_def_cfa_register 7
  78 0006 7860     		str	r0, [r7, #4]
  79 0008 3960     		str	r1, [r7]
  80              		.loc 1 248 3
  81 000a 0422     		movs	r2, #4
  82 000c 3968     		ldr	r1, [r7]
  83 000e 7868     		ldr	r0, [r7, #4]
  84 0010 FFF7FEFF 		bl	chGuardedPoolObjectInitAligned
  85              		.loc 1 249 1
  86 0014 00BF     		nop
  87 0016 0837     		adds	r7, r7, #8
  88              		.cfi_def_cfa_offset 8
  89 0018 BD46     		mov	sp, r7
  90              		.cfi_def_cfa_register 13
  91              		@ sp needed
  92 001a 80BD     		pop	{r7, pc}
  93              		.cfi_endproc
  94              	.LFE289:
  95              		.size	chGuardedPoolObjectInit, .-chGuardedPoolObjectInit
  96              		.section	.bss.objects,"aw",%nobits
  97              		.align	2
  98              		.type	objects, %object
  99              		.size	objects, 16
 100              	objects:
 101 0000 00000000 		.space	16
 101      00000000 
 101      00000000 
 101      00000000 
 102              		.section	.data.mp1,"aw"
 103              		.align	2
 104              		.type	mp1, %object
 105              		.size	mp1, 16
 106              	mp1:
 107 0000 00000000 		.word	0
 108 0004 04000000 		.word	4
 109 0008 04000000 		.word	4
 110 000c 00000000 		.word	0
 111              		.section	.data.gmp1,"aw"
ARM GAS  C:\Users\DEVELO~1\AppData\Local\Temp\ccREfGBA.s 			page 3


 112              		.align	2
 113              		.type	gmp1, %object
 114              		.size	gmp1, 28
 115              	gmp1:
 116 0000 00000000 		.word	gmp1
 117 0004 00000000 		.word	gmp1
 118 0008 00000000 		.word	0
 119 000c 00000000 		.word	0
 120 0010 04000000 		.word	4
 121 0014 04000000 		.word	4
 122 0018 00000000 		.word	0
 123              		.section	.text.null_provider,"ax",%progbits
 124              		.align	1
 125              		.syntax unified
 126              		.thumb
 127              		.thumb_func
 128              		.type	null_provider, %function
 129              	null_provider:
 130              	.LFB436:
 131              		.file 2 "../../../test/oslib/source/test/oslib_test_sequence_007.c"
 132              		.loc 2 60 57
 133              		.cfi_startproc
 134              		@ args = 0, pretend = 0, frame = 8
 135              		@ frame_needed = 1, uses_anonymous_args = 0
 136              		@ link register save eliminated.
 137 0000 80B4     		push	{r7}
 138              		.cfi_def_cfa_offset 4
 139              		.cfi_offset 7, -4
 140 0002 83B0     		sub	sp, sp, #12
 141              		.cfi_def_cfa_offset 16
 142 0004 00AF     		add	r7, sp, #0
 143              		.cfi_def_cfa_register 7
 144 0006 7860     		str	r0, [r7, #4]
 145 0008 3960     		str	r1, [r7]
 146              		.loc 2 65 10
 147 000a 0023     		movs	r3, #0
 148              		.loc 2 66 1
 149 000c 1846     		mov	r0, r3
 150 000e 0C37     		adds	r7, r7, #12
 151              		.cfi_def_cfa_offset 4
 152 0010 BD46     		mov	sp, r7
 153              		.cfi_def_cfa_register 13
 154              		@ sp needed
 155 0012 80BC     		pop	{r7}
 156              		.cfi_restore 7
 157              		.cfi_def_cfa_offset 0
 158 0014 7047     		bx	lr
 159              		.cfi_endproc
 160              	.LFE436:
 161              		.size	null_provider, .-null_provider
 162              		.section	.text.oslib_test_007_001_setup,"ax",%progbits
 163              		.align	1
 164              		.syntax unified
 165              		.thumb
 166              		.thumb_func
 167              		.type	oslib_test_007_001_setup, %function
 168              	oslib_test_007_001_setup:
ARM GAS  C:\Users\DEVELO~1\AppData\Local\Temp\ccREfGBA.s 			page 4


 169              	.LFB437:
 170              		.loc 2 91 44
 171              		.cfi_startproc
 172              		@ args = 0, pretend = 0, frame = 0
 173              		@ frame_needed = 1, uses_anonymous_args = 0
 174 0000 80B5     		push	{r7, lr}
 175              		.cfi_def_cfa_offset 8
 176              		.cfi_offset 7, -8
 177              		.cfi_offset 14, -4
 178 0002 00AF     		add	r7, sp, #0
 179              		.cfi_def_cfa_register 7
 180              		.loc 2 92 3
 181 0004 0022     		movs	r2, #0
 182 0006 0421     		movs	r1, #4
 183 0008 0248     		ldr	r0, .L6
 184 000a FFF7FEFF 		bl	chPoolObjectInit
 185              		.loc 2 93 1
 186 000e 00BF     		nop
 187 0010 80BD     		pop	{r7, pc}
 188              	.L7:
 189 0012 00BF     		.align	2
 190              	.L6:
 191 0014 00000000 		.word	mp1
 192              		.cfi_endproc
 193              	.LFE437:
 194              		.size	oslib_test_007_001_setup, .-oslib_test_007_001_setup
 195              		.section	.rodata
 196              		.align	2
 197              	.LC0:
 198 0000 6C697374 		.ascii	"list empty\000"
 198      20656D70 
 198      747900
 199 000b 00       		.align	2
 200              	.LC1:
 201 000c 6C697374 		.ascii	"list not empty\000"
 201      206E6F74 
 201      20656D70 
 201      747900
 202 001b 00       		.align	2
 203              	.LC2:
 204 001c 70726F76 		.ascii	"provider returned memory\000"
 204      69646572 
 204      20726574 
 204      75726E65 
 204      64206D65 
 205              		.section	.text.oslib_test_007_001_execute,"ax",%progbits
 206              		.align	1
 207              		.syntax unified
 208              		.thumb
 209              		.thumb_func
 210              		.type	oslib_test_007_001_execute, %function
 211              	oslib_test_007_001_execute:
 212              	.LFB438:
 213              		.loc 2 95 46
 214              		.cfi_startproc
 215              		@ args = 0, pretend = 0, frame = 8
 216              		@ frame_needed = 1, uses_anonymous_args = 0
ARM GAS  C:\Users\DEVELO~1\AppData\Local\Temp\ccREfGBA.s 			page 5


 217 0000 80B5     		push	{r7, lr}
 218              		.cfi_def_cfa_offset 8
 219              		.cfi_offset 7, -8
 220              		.cfi_offset 14, -4
 221 0002 82B0     		sub	sp, sp, #8
 222              		.cfi_def_cfa_offset 16
 223 0004 00AF     		add	r7, sp, #0
 224              		.cfi_def_cfa_register 7
 225              		.loc 2 99 3
 226 0006 4A4B     		ldr	r3, .L20
 227 0008 0122     		movs	r2, #1
 228 000a 1A60     		str	r2, [r3]
 229              		.loc 2 101 5
 230 000c 0422     		movs	r2, #4
 231 000e 4949     		ldr	r1, .L20+4
 232 0010 4948     		ldr	r0, .L20+8
 233 0012 FFF7FEFF 		bl	chPoolLoadArray
 234              		.loc 2 106 3
 235 0016 464B     		ldr	r3, .L20
 236 0018 0222     		movs	r2, #2
 237 001a 1A60     		str	r2, [r3]
 238              		.loc 2 108 12
 239 001c 0023     		movs	r3, #0
 240 001e 7B60     		str	r3, [r7, #4]
 241              		.loc 2 108 5
 242 0020 12E0     		b	.L9
 243              	.L12:
 244              		.loc 2 109 7
 245 0022 4548     		ldr	r0, .L20+8
 246 0024 FFF7FEFF 		bl	chPoolAlloc
 247 0028 0346     		mov	r3, r0
 248 002a 002B     		cmp	r3, #0
 249 002c 14BF     		ite	ne
 250 002e 0123     		movne	r3, #1
 251 0030 0023     		moveq	r3, #0
 252 0032 DBB2     		uxtb	r3, r3
 253 0034 4149     		ldr	r1, .L20+12
 254 0036 1846     		mov	r0, r3
 255 0038 FFF7FEFF 		bl	__test_assert
 256 003c 0346     		mov	r3, r0
 257 003e 002B     		cmp	r3, #0
 258 0040 72D1     		bne	.L8
 259              		.loc 2 108 40 discriminator 2
 260 0042 7B68     		ldr	r3, [r7, #4]
 261 0044 0133     		adds	r3, r3, #1
 262 0046 7B60     		str	r3, [r7, #4]
 263              	.L9:
 264              		.loc 2 108 19 discriminator 1
 265 0048 7B68     		ldr	r3, [r7, #4]
 266 004a 032B     		cmp	r3, #3
 267 004c E9D9     		bls	.L12
 268              		.loc 2 114 3
 269 004e 384B     		ldr	r3, .L20
 270 0050 0322     		movs	r2, #3
 271 0052 1A60     		str	r2, [r3]
 272              		.loc 2 116 5
 273 0054 3848     		ldr	r0, .L20+8
ARM GAS  C:\Users\DEVELO~1\AppData\Local\Temp\ccREfGBA.s 			page 6


 274 0056 FFF7FEFF 		bl	chPoolAlloc
 275 005a 0346     		mov	r3, r0
 276 005c 002B     		cmp	r3, #0
 277 005e 0CBF     		ite	eq
 278 0060 0123     		moveq	r3, #1
 279 0062 0023     		movne	r3, #0
 280 0064 DBB2     		uxtb	r3, r3
 281 0066 3649     		ldr	r1, .L20+16
 282 0068 1846     		mov	r0, r3
 283 006a FFF7FEFF 		bl	__test_assert
 284 006e 0346     		mov	r3, r0
 285 0070 002B     		cmp	r3, #0
 286 0072 59D1     		bne	.L8
 287              		.loc 2 121 3
 288 0074 2E4B     		ldr	r3, .L20
 289 0076 0422     		movs	r2, #4
 290 0078 1A60     		str	r2, [r3]
 291              		.loc 2 123 12
 292 007a 0023     		movs	r3, #0
 293 007c 7B60     		str	r3, [r7, #4]
 294              		.loc 2 123 5
 295 007e 0AE0     		b	.L14
 296              	.L15:
 297              		.loc 2 124 24 discriminator 3
 298 0080 7B68     		ldr	r3, [r7, #4]
 299 0082 9B00     		lsls	r3, r3, #2
 300 0084 2B4A     		ldr	r2, .L20+4
 301 0086 1344     		add	r3, r3, r2
 302              		.loc 2 124 7 discriminator 3
 303 0088 1946     		mov	r1, r3
 304 008a 2B48     		ldr	r0, .L20+8
 305 008c FFF7FEFF 		bl	chPoolFree
 306              		.loc 2 123 40 discriminator 3
 307 0090 7B68     		ldr	r3, [r7, #4]
 308 0092 0133     		adds	r3, r3, #1
 309 0094 7B60     		str	r3, [r7, #4]
 310              	.L14:
 311              		.loc 2 123 19 discriminator 1
 312 0096 7B68     		ldr	r3, [r7, #4]
 313 0098 032B     		cmp	r3, #3
 314 009a F1D9     		bls	.L15
 315              		.loc 2 129 3
 316 009c 244B     		ldr	r3, .L20
 317 009e 0522     		movs	r2, #5
 318 00a0 1A60     		str	r2, [r3]
 319              		.loc 2 131 12
 320 00a2 0023     		movs	r3, #0
 321 00a4 7B60     		str	r3, [r7, #4]
 322              		.loc 2 131 5
 323 00a6 12E0     		b	.L16
 324              	.L18:
 325              		.loc 2 132 7
 326 00a8 2348     		ldr	r0, .L20+8
 327 00aa FFF7FEFF 		bl	chPoolAlloc
 328 00ae 0346     		mov	r3, r0
 329 00b0 002B     		cmp	r3, #0
 330 00b2 14BF     		ite	ne
ARM GAS  C:\Users\DEVELO~1\AppData\Local\Temp\ccREfGBA.s 			page 7


 331 00b4 0123     		movne	r3, #1
 332 00b6 0023     		moveq	r3, #0
 333 00b8 DBB2     		uxtb	r3, r3
 334 00ba 2049     		ldr	r1, .L20+12
 335 00bc 1846     		mov	r0, r3
 336 00be FFF7FEFF 		bl	__test_assert
 337 00c2 0346     		mov	r3, r0
 338 00c4 002B     		cmp	r3, #0
 339 00c6 2FD1     		bne	.L8
 340              		.loc 2 131 40 discriminator 2
 341 00c8 7B68     		ldr	r3, [r7, #4]
 342 00ca 0133     		adds	r3, r3, #1
 343 00cc 7B60     		str	r3, [r7, #4]
 344              	.L16:
 345              		.loc 2 131 19 discriminator 1
 346 00ce 7B68     		ldr	r3, [r7, #4]
 347 00d0 032B     		cmp	r3, #3
 348 00d2 E9D9     		bls	.L18
 349              		.loc 2 137 3
 350 00d4 164B     		ldr	r3, .L20
 351 00d6 0622     		movs	r2, #6
 352 00d8 1A60     		str	r2, [r3]
 353              		.loc 2 139 5
 354 00da 1748     		ldr	r0, .L20+8
 355 00dc FFF7FEFF 		bl	chPoolAlloc
 356 00e0 0346     		mov	r3, r0
 357 00e2 002B     		cmp	r3, #0
 358 00e4 0CBF     		ite	eq
 359 00e6 0123     		moveq	r3, #1
 360 00e8 0023     		movne	r3, #0
 361 00ea DBB2     		uxtb	r3, r3
 362 00ec 1449     		ldr	r1, .L20+16
 363 00ee 1846     		mov	r0, r3
 364 00f0 FFF7FEFF 		bl	__test_assert
 365 00f4 0346     		mov	r3, r0
 366 00f6 002B     		cmp	r3, #0
 367 00f8 16D1     		bne	.L8
 368              		.loc 2 145 3
 369 00fa 0D4B     		ldr	r3, .L20
 370 00fc 0722     		movs	r2, #7
 371 00fe 1A60     		str	r2, [r3]
 372              		.loc 2 147 5
 373 0100 104A     		ldr	r2, .L20+20
 374 0102 0421     		movs	r1, #4
 375 0104 0C48     		ldr	r0, .L20+8
 376 0106 FFF7FEFF 		bl	chPoolObjectInit
 377              		.loc 2 148 5
 378 010a 0B48     		ldr	r0, .L20+8
 379 010c FFF7FEFF 		bl	chPoolAlloc
 380 0110 0346     		mov	r3, r0
 381 0112 002B     		cmp	r3, #0
 382 0114 0CBF     		ite	eq
 383 0116 0123     		moveq	r3, #1
 384 0118 0023     		movne	r3, #0
 385 011a DBB2     		uxtb	r3, r3
 386 011c 0A49     		ldr	r1, .L20+24
 387 011e 1846     		mov	r0, r3
ARM GAS  C:\Users\DEVELO~1\AppData\Local\Temp\ccREfGBA.s 			page 8


 388 0120 FFF7FEFF 		bl	__test_assert
 389 0124 0346     		mov	r3, r0
 390 0126 002B     		cmp	r3, #0
 391              	.L8:
 392              		.loc 2 151 1
 393 0128 0837     		adds	r7, r7, #8
 394              		.cfi_def_cfa_offset 8
 395 012a BD46     		mov	sp, r7
 396              		.cfi_def_cfa_register 13
 397              		@ sp needed
 398 012c 80BD     		pop	{r7, pc}
 399              	.L21:
 400 012e 00BF     		.align	2
 401              	.L20:
 402 0130 00000000 		.word	chtest
 403 0134 00000000 		.word	objects
 404 0138 00000000 		.word	mp1
 405 013c 00000000 		.word	.LC0
 406 0140 0C000000 		.word	.LC1
 407 0144 00000000 		.word	null_provider
 408 0148 1C000000 		.word	.LC2
 409              		.cfi_endproc
 410              	.LFE438:
 411              		.size	oslib_test_007_001_execute, .-oslib_test_007_001_execute
 412              		.section	.rodata
 413 0035 000000   		.align	2
 414              	.LC3:
 415 0038 4C6F6164 		.ascii	"Loading and emptying a memory pool\000"
 415      696E6720 
 415      616E6420 
 415      656D7074 
 415      79696E67 
 416              		.section	.rodata.oslib_test_007_001,"a"
 417              		.align	2
 418              		.type	oslib_test_007_001, %object
 419              		.size	oslib_test_007_001, 16
 420              	oslib_test_007_001:
 421 0000 38000000 		.word	.LC3
 422 0004 00000000 		.word	oslib_test_007_001_setup
 423 0008 00000000 		.word	0
 424 000c 00000000 		.word	oslib_test_007_001_execute
 425              		.section	.text.oslib_test_007_002_setup,"ax",%progbits
 426              		.align	1
 427              		.syntax unified
 428              		.thumb
 429              		.thumb_func
 430              		.type	oslib_test_007_002_setup, %function
 431              	oslib_test_007_002_setup:
 432              	.LFB439:
 433              		.loc 2 185 44
 434              		.cfi_startproc
 435              		@ args = 0, pretend = 0, frame = 0
 436              		@ frame_needed = 1, uses_anonymous_args = 0
 437 0000 80B5     		push	{r7, lr}
 438              		.cfi_def_cfa_offset 8
 439              		.cfi_offset 7, -8
 440              		.cfi_offset 14, -4
ARM GAS  C:\Users\DEVELO~1\AppData\Local\Temp\ccREfGBA.s 			page 9


 441 0002 00AF     		add	r7, sp, #0
 442              		.cfi_def_cfa_register 7
 443              		.loc 2 186 3
 444 0004 0421     		movs	r1, #4
 445 0006 0248     		ldr	r0, .L23
 446 0008 FFF7FEFF 		bl	chGuardedPoolObjectInit
 447              		.loc 2 187 1
 448 000c 00BF     		nop
 449 000e 80BD     		pop	{r7, pc}
 450              	.L24:
 451              		.align	2
 452              	.L23:
 453 0010 00000000 		.word	gmp1
 454              		.cfi_endproc
 455              	.LFE439:
 456              		.size	oslib_test_007_002_setup, .-oslib_test_007_002_setup
 457              		.section	.text.oslib_test_007_002_execute,"ax",%progbits
 458              		.align	1
 459              		.syntax unified
 460              		.thumb
 461              		.thumb_func
 462              		.type	oslib_test_007_002_execute, %function
 463              	oslib_test_007_002_execute:
 464              	.LFB440:
 465              		.loc 2 189 46
 466              		.cfi_startproc
 467              		@ args = 0, pretend = 0, frame = 8
 468              		@ frame_needed = 1, uses_anonymous_args = 0
 469 0000 80B5     		push	{r7, lr}
 470              		.cfi_def_cfa_offset 8
 471              		.cfi_offset 7, -8
 472              		.cfi_offset 14, -4
 473 0002 82B0     		sub	sp, sp, #8
 474              		.cfi_def_cfa_offset 16
 475 0004 00AF     		add	r7, sp, #0
 476              		.cfi_def_cfa_register 7
 477              		.loc 2 194 3
 478 0006 404B     		ldr	r3, .L36
 479 0008 0122     		movs	r2, #1
 480 000a 1A60     		str	r2, [r3]
 481              		.loc 2 196 5
 482 000c 0422     		movs	r2, #4
 483 000e 3F49     		ldr	r1, .L36+4
 484 0010 3F48     		ldr	r0, .L36+8
 485 0012 FFF7FEFF 		bl	chGuardedPoolLoadArray
 486              		.loc 2 201 3
 487 0016 3C4B     		ldr	r3, .L36
 488 0018 0222     		movs	r2, #2
 489 001a 1A60     		str	r2, [r3]
 490              		.loc 2 203 12
 491 001c 0023     		movs	r3, #0
 492 001e 7B60     		str	r3, [r7, #4]
 493              		.loc 2 203 5
 494 0020 13E0     		b	.L26
 495              	.L29:
 496              		.loc 2 204 7
 497 0022 0021     		movs	r1, #0
ARM GAS  C:\Users\DEVELO~1\AppData\Local\Temp\ccREfGBA.s 			page 10


 498 0024 3A48     		ldr	r0, .L36+8
 499 0026 FFF7FEFF 		bl	chGuardedPoolAllocTimeout
 500 002a 0346     		mov	r3, r0
 501 002c 002B     		cmp	r3, #0
 502 002e 14BF     		ite	ne
 503 0030 0123     		movne	r3, #1
 504 0032 0023     		moveq	r3, #0
 505 0034 DBB2     		uxtb	r3, r3
 506 0036 3749     		ldr	r1, .L36+12
 507 0038 1846     		mov	r0, r3
 508 003a FFF7FEFF 		bl	__test_assert
 509 003e 0346     		mov	r3, r0
 510 0040 002B     		cmp	r3, #0
 511 0042 5DD1     		bne	.L25
 512              		.loc 2 203 40 discriminator 2
 513 0044 7B68     		ldr	r3, [r7, #4]
 514 0046 0133     		adds	r3, r3, #1
 515 0048 7B60     		str	r3, [r7, #4]
 516              	.L26:
 517              		.loc 2 203 19 discriminator 1
 518 004a 7B68     		ldr	r3, [r7, #4]
 519 004c 032B     		cmp	r3, #3
 520 004e E8D9     		bls	.L29
 521              		.loc 2 209 3
 522 0050 2D4B     		ldr	r3, .L36
 523 0052 0322     		movs	r2, #3
 524 0054 1A60     		str	r2, [r3]
 525              		.loc 2 211 5
 526 0056 0021     		movs	r1, #0
 527 0058 2D48     		ldr	r0, .L36+8
 528 005a FFF7FEFF 		bl	chGuardedPoolAllocTimeout
 529 005e 0346     		mov	r3, r0
 530 0060 002B     		cmp	r3, #0
 531 0062 0CBF     		ite	eq
 532 0064 0123     		moveq	r3, #1
 533 0066 0023     		movne	r3, #0
 534 0068 DBB2     		uxtb	r3, r3
 535 006a 2B49     		ldr	r1, .L36+16
 536 006c 1846     		mov	r0, r3
 537 006e FFF7FEFF 		bl	__test_assert
 538 0072 0346     		mov	r3, r0
 539 0074 002B     		cmp	r3, #0
 540 0076 43D1     		bne	.L25
 541              		.loc 2 217 3
 542 0078 234B     		ldr	r3, .L36
 543 007a 0422     		movs	r2, #4
 544 007c 1A60     		str	r2, [r3]
 545              		.loc 2 219 12
 546 007e 0023     		movs	r3, #0
 547 0080 7B60     		str	r3, [r7, #4]
 548              		.loc 2 219 5
 549 0082 0AE0     		b	.L31
 550              	.L32:
 551              		.loc 2 220 32 discriminator 3
 552 0084 7B68     		ldr	r3, [r7, #4]
 553 0086 9B00     		lsls	r3, r3, #2
 554 0088 204A     		ldr	r2, .L36+4
ARM GAS  C:\Users\DEVELO~1\AppData\Local\Temp\ccREfGBA.s 			page 11


 555 008a 1344     		add	r3, r3, r2
 556              		.loc 2 220 7 discriminator 3
 557 008c 1946     		mov	r1, r3
 558 008e 2048     		ldr	r0, .L36+8
 559 0090 FFF7FEFF 		bl	chGuardedPoolFree
 560              		.loc 2 219 40 discriminator 3
 561 0094 7B68     		ldr	r3, [r7, #4]
 562 0096 0133     		adds	r3, r3, #1
 563 0098 7B60     		str	r3, [r7, #4]
 564              	.L31:
 565              		.loc 2 219 19 discriminator 1
 566 009a 7B68     		ldr	r3, [r7, #4]
 567 009c 032B     		cmp	r3, #3
 568 009e F1D9     		bls	.L32
 569              		.loc 2 226 3
 570 00a0 194B     		ldr	r3, .L36
 571 00a2 0522     		movs	r2, #5
 572 00a4 1A60     		str	r2, [r3]
 573              		.loc 2 228 12
 574 00a6 0023     		movs	r3, #0
 575 00a8 7B60     		str	r3, [r7, #4]
 576              		.loc 2 228 5
 577 00aa 13E0     		b	.L33
 578              	.L35:
 579              		.loc 2 229 7
 580 00ac 0021     		movs	r1, #0
 581 00ae 1848     		ldr	r0, .L36+8
 582 00b0 FFF7FEFF 		bl	chGuardedPoolAllocTimeout
 583 00b4 0346     		mov	r3, r0
 584 00b6 002B     		cmp	r3, #0
 585 00b8 14BF     		ite	ne
 586 00ba 0123     		movne	r3, #1
 587 00bc 0023     		moveq	r3, #0
 588 00be DBB2     		uxtb	r3, r3
 589 00c0 1449     		ldr	r1, .L36+12
 590 00c2 1846     		mov	r0, r3
 591 00c4 FFF7FEFF 		bl	__test_assert
 592 00c8 0346     		mov	r3, r0
 593 00ca 002B     		cmp	r3, #0
 594 00cc 18D1     		bne	.L25
 595              		.loc 2 228 40 discriminator 2
 596 00ce 7B68     		ldr	r3, [r7, #4]
 597 00d0 0133     		adds	r3, r3, #1
 598 00d2 7B60     		str	r3, [r7, #4]
 599              	.L33:
 600              		.loc 2 228 19 discriminator 1
 601 00d4 7B68     		ldr	r3, [r7, #4]
 602 00d6 032B     		cmp	r3, #3
 603 00d8 E8D9     		bls	.L35
 604              		.loc 2 234 3
 605 00da 0B4B     		ldr	r3, .L36
 606 00dc 0622     		movs	r2, #6
 607 00de 1A60     		str	r2, [r3]
 608              		.loc 2 236 5
 609 00e0 0021     		movs	r1, #0
 610 00e2 0B48     		ldr	r0, .L36+8
 611 00e4 FFF7FEFF 		bl	chGuardedPoolAllocTimeout
ARM GAS  C:\Users\DEVELO~1\AppData\Local\Temp\ccREfGBA.s 			page 12


 612 00e8 0346     		mov	r3, r0
 613 00ea 002B     		cmp	r3, #0
 614 00ec 0CBF     		ite	eq
 615 00ee 0123     		moveq	r3, #1
 616 00f0 0023     		movne	r3, #0
 617 00f2 DBB2     		uxtb	r3, r3
 618 00f4 0849     		ldr	r1, .L36+16
 619 00f6 1846     		mov	r0, r3
 620 00f8 FFF7FEFF 		bl	__test_assert
 621 00fc 0346     		mov	r3, r0
 622 00fe 002B     		cmp	r3, #0
 623              	.L25:
 624              		.loc 2 239 1
 625 0100 0837     		adds	r7, r7, #8
 626              		.cfi_def_cfa_offset 8
 627 0102 BD46     		mov	sp, r7
 628              		.cfi_def_cfa_register 13
 629              		@ sp needed
 630 0104 80BD     		pop	{r7, pc}
 631              	.L37:
 632 0106 00BF     		.align	2
 633              	.L36:
 634 0108 00000000 		.word	chtest
 635 010c 00000000 		.word	objects
 636 0110 00000000 		.word	gmp1
 637 0114 00000000 		.word	.LC0
 638 0118 0C000000 		.word	.LC1
 639              		.cfi_endproc
 640              	.LFE440:
 641              		.size	oslib_test_007_002_execute, .-oslib_test_007_002_execute
 642              		.section	.rodata
 643 005b 00       		.align	2
 644              	.LC4:
 645 005c 4C6F6164 		.ascii	"Loading and emptying a guarded memory pool without "
 645      696E6720 
 645      616E6420 
 645      656D7074 
 645      79696E67 
 646 008f 77616974 		.ascii	"waiting\000"
 646      696E6700 
 647              		.section	.rodata.oslib_test_007_002,"a"
 648              		.align	2
 649              		.type	oslib_test_007_002, %object
 650              		.size	oslib_test_007_002, 16
 651              	oslib_test_007_002:
 652 0000 5C000000 		.word	.LC4
 653 0004 00000000 		.word	oslib_test_007_002_setup
 654 0008 00000000 		.word	0
 655 000c 00000000 		.word	oslib_test_007_002_execute
 656              		.section	.text.oslib_test_007_003_setup,"ax",%progbits
 657              		.align	1
 658              		.syntax unified
 659              		.thumb
 660              		.thumb_func
 661              		.type	oslib_test_007_003_setup, %function
 662              	oslib_test_007_003_setup:
 663              	.LFB441:
ARM GAS  C:\Users\DEVELO~1\AppData\Local\Temp\ccREfGBA.s 			page 13


 664              		.loc 2 268 44
 665              		.cfi_startproc
 666              		@ args = 0, pretend = 0, frame = 0
 667              		@ frame_needed = 1, uses_anonymous_args = 0
 668 0000 80B5     		push	{r7, lr}
 669              		.cfi_def_cfa_offset 8
 670              		.cfi_offset 7, -8
 671              		.cfi_offset 14, -4
 672 0002 00AF     		add	r7, sp, #0
 673              		.cfi_def_cfa_register 7
 674              		.loc 2 269 3
 675 0004 0421     		movs	r1, #4
 676 0006 0248     		ldr	r0, .L39
 677 0008 FFF7FEFF 		bl	chGuardedPoolObjectInit
 678              		.loc 2 270 1
 679 000c 00BF     		nop
 680 000e 80BD     		pop	{r7, pc}
 681              	.L40:
 682              		.align	2
 683              	.L39:
 684 0010 00000000 		.word	gmp1
 685              		.cfi_endproc
 686              	.LFE441:
 687              		.size	oslib_test_007_003_setup, .-oslib_test_007_003_setup
 688              		.section	.text.oslib_test_007_003_execute,"ax",%progbits
 689              		.align	1
 690              		.syntax unified
 691              		.thumb
 692              		.thumb_func
 693              		.type	oslib_test_007_003_execute, %function
 694              	oslib_test_007_003_execute:
 695              	.LFB442:
 696              		.loc 2 272 46
 697              		.cfi_startproc
 698              		@ args = 0, pretend = 0, frame = 0
 699              		@ frame_needed = 1, uses_anonymous_args = 0
 700 0000 80B5     		push	{r7, lr}
 701              		.cfi_def_cfa_offset 8
 702              		.cfi_offset 7, -8
 703              		.cfi_offset 14, -4
 704 0002 00AF     		add	r7, sp, #0
 705              		.cfi_def_cfa_register 7
 706              		.loc 2 276 3
 707 0004 0A4B     		ldr	r3, .L43
 708 0006 0122     		movs	r2, #1
 709 0008 1A60     		str	r2, [r3]
 710              		.loc 2 278 5
 711 000a 4FF47A71 		mov	r1, #1000
 712 000e 0948     		ldr	r0, .L43+4
 713 0010 FFF7FEFF 		bl	chGuardedPoolAllocTimeout
 714 0014 0346     		mov	r3, r0
 715 0016 002B     		cmp	r3, #0
 716 0018 0CBF     		ite	eq
 717 001a 0123     		moveq	r3, #1
 718 001c 0023     		movne	r3, #0
 719 001e DBB2     		uxtb	r3, r3
 720 0020 0549     		ldr	r1, .L43+8
ARM GAS  C:\Users\DEVELO~1\AppData\Local\Temp\ccREfGBA.s 			page 14


 721 0022 1846     		mov	r0, r3
 722 0024 FFF7FEFF 		bl	__test_assert
 723 0028 0346     		mov	r3, r0
 724 002a 002B     		cmp	r3, #0
 725              		.loc 2 281 1
 726 002c 80BD     		pop	{r7, pc}
 727              	.L44:
 728 002e 00BF     		.align	2
 729              	.L43:
 730 0030 00000000 		.word	chtest
 731 0034 00000000 		.word	gmp1
 732 0038 0C000000 		.word	.LC1
 733              		.cfi_endproc
 734              	.LFE442:
 735              		.size	oslib_test_007_003_execute, .-oslib_test_007_003_execute
 736              		.section	.rodata
 737 0097 00       		.align	2
 738              	.LC5:
 739 0098 47756172 		.ascii	"Guarded Memory Pools timeout\000"
 739      64656420 
 739      4D656D6F 
 739      72792050 
 739      6F6F6C73 
 740              		.section	.rodata.oslib_test_007_003,"a"
 741              		.align	2
 742              		.type	oslib_test_007_003, %object
 743              		.size	oslib_test_007_003, 16
 744              	oslib_test_007_003:
 745 0000 98000000 		.word	.LC5
 746 0004 00000000 		.word	oslib_test_007_003_setup
 747 0008 00000000 		.word	0
 748 000c 00000000 		.word	oslib_test_007_003_execute
 749              		.global	oslib_test_sequence_007_array
 750              		.section	.rodata.oslib_test_sequence_007_array,"a"
 751              		.align	2
 752              		.type	oslib_test_sequence_007_array, %object
 753              		.size	oslib_test_sequence_007_array, 16
 754              	oslib_test_sequence_007_array:
 755 0000 00000000 		.word	oslib_test_007_001
 756 0004 00000000 		.word	oslib_test_007_002
 757 0008 00000000 		.word	oslib_test_007_003
 758 000c 00000000 		.word	0
 759              		.global	oslib_test_sequence_007
 760              		.section	.rodata
 761 00b5 000000   		.align	2
 762              	.LC6:
 763 00b8 4D656D6F 		.ascii	"Memory Pools\000"
 763      72792050 
 763      6F6F6C73 
 763      00
 764              		.section	.rodata.oslib_test_sequence_007,"a"
 765              		.align	2
 766              		.type	oslib_test_sequence_007, %object
 767              		.size	oslib_test_sequence_007, 8
 768              	oslib_test_sequence_007:
 769 0000 B8000000 		.word	.LC6
 770 0004 00000000 		.word	oslib_test_sequence_007_array
ARM GAS  C:\Users\DEVELO~1\AppData\Local\Temp\ccREfGBA.s 			page 15


 771              		.text
 772              	.Letext0:
 773              		.file 3 "c:\\chibistudio\\tools\\gnu tools arm embedded\\11.3 2022.08\\lib\\gcc\\arm-none-eabi\\11
 774              		.file 4 "c:\\chibistudio\\tools\\gnu tools arm embedded\\11.3 2022.08\\arm-none-eabi\\include\\mac
 775              		.file 5 "c:\\chibistudio\\tools\\gnu tools arm embedded\\11.3 2022.08\\arm-none-eabi\\include\\sys
 776              		.file 6 "../../../os/rt/include/chearly.h"
 777              		.file 7 "../../../os/rt/include/chtime.h"
 778              		.file 8 "../../../os/rt/include/chlists.h"
 779              		.file 9 "../../../os/rt/include/chsem.h"
 780              		.file 10 "../../../os/oslib/include/chmemcore.h"
 781              		.file 11 "../../../os/hal/include/hal_streams.h"
 782              		.file 12 "../../../os/test/include/ch_test.h"
 783              		.file 13 "../../../test/oslib/source/test/oslib_test_sequence_007.h"