ARM GAS  C:\Users\DEVELO~1\AppData\Local\Temp\ccjH4SDq.s 			page 1


   1              		.cpu cortex-m7
   2              		.arch armv7e-m
   3              		.fpu softvfp
   4              		.eabi_attribute 20, 1
   5              		.eabi_attribute 21, 1
   6              		.eabi_attribute 23, 3
   7              		.eabi_attribute 24, 1
   8              		.eabi_attribute 25, 1
   9              		.eabi_attribute 26, 1
  10              		.eabi_attribute 30, 6
  11              		.eabi_attribute 34, 1
  12              		.eabi_attribute 18, 4
  13              		.file	"oslib_test_sequence_006.c"
  14              		.text
  15              	.Ltext0:
  16              		.cfi_sections	.debug_frame
  17              		.section	.text.chSysLock,"ax",%progbits
  18              		.align	1
  19              		.syntax unified
  20              		.thumb
  21              		.thumb_func
  22              		.type	chSysLock, %function
  23              	chSysLock:
  24              	.LFB202:
  25              		.file 1 "../../../os/rt/include/chsys.h"
  26              		.loc 1 407 36
  27              		.cfi_startproc
  28              		@ args = 0, pretend = 0, frame = 8
  29              		@ frame_needed = 1, uses_anonymous_args = 0
  30              		@ link register save eliminated.
  31 0000 80B4     		push	{r7}
  32              		.cfi_def_cfa_offset 4
  33              		.cfi_offset 7, -4
  34 0002 83B0     		sub	sp, sp, #12
  35              		.cfi_def_cfa_offset 16
  36 0004 00AF     		add	r7, sp, #0
  37              		.cfi_def_cfa_register 7
  38 0006 3023     		movs	r3, #48
  39 0008 7B60     		str	r3, [r7, #4]
  40              	.LBB14:
  41              	.LBB15:
  42              	.LBB16:
  43              	.LBB17:
  44              		.file 2 "../../../os/common/ext/ARM/CMSIS/Core/Include/cmsis_gcc.h"
  45              		.loc 2 493 3
  46 000a 7B68     		ldr	r3, [r7, #4]
  47              		.syntax unified
  48              	@ 493 "../../../os/common/ext/ARM/CMSIS/Core/Include/cmsis_gcc.h" 1
  49 000c 83F31188 		MSR basepri, r3
  50              	@ 0 "" 2
  51              		.loc 2 494 1
  52              		.thumb
  53              		.syntax unified
  54 0010 00BF     		nop
  55              	.LBE17:
  56              	.LBE16:
  57              		.file 3 "../../../os/common/ports/ARMv7-M/chcore.h"
ARM GAS  C:\Users\DEVELO~1\AppData\Local\Temp\ccjH4SDq.s 			page 2


  58              		.loc 3 840 1
  59 0012 00BF     		nop
  60              	.LBE15:
  61              	.LBE14:
  62              		.loc 1 412 1
  63 0014 00BF     		nop
  64 0016 0C37     		adds	r7, r7, #12
  65              		.cfi_def_cfa_offset 4
  66 0018 BD46     		mov	sp, r7
  67              		.cfi_def_cfa_register 13
  68              		@ sp needed
  69 001a 80BC     		pop	{r7}
  70              		.cfi_restore 7
  71              		.cfi_def_cfa_offset 0
  72 001c 7047     		bx	lr
  73              		.cfi_endproc
  74              	.LFE202:
  75              		.size	chSysLock, .-chSysLock
  76              		.section	.text.chSysUnlock,"ax",%progbits
  77              		.align	1
  78              		.syntax unified
  79              		.thumb
  80              		.thumb_func
  81              		.type	chSysUnlock, %function
  82              	chSysUnlock:
  83              	.LFB203:
  84              		.loc 1 421 38
  85              		.cfi_startproc
  86              		@ args = 0, pretend = 0, frame = 8
  87              		@ frame_needed = 1, uses_anonymous_args = 0
  88              		@ link register save eliminated.
  89 0000 80B4     		push	{r7}
  90              		.cfi_def_cfa_offset 4
  91              		.cfi_offset 7, -4
  92 0002 83B0     		sub	sp, sp, #12
  93              		.cfi_def_cfa_offset 16
  94 0004 00AF     		add	r7, sp, #0
  95              		.cfi_def_cfa_register 7
  96 0006 0023     		movs	r3, #0
  97 0008 7B60     		str	r3, [r7, #4]
  98              	.LBB18:
  99              	.LBB19:
 100              	.LBB20:
 101              	.LBB21:
 102              		.loc 2 493 3
 103 000a 7B68     		ldr	r3, [r7, #4]
 104              		.syntax unified
 105              	@ 493 "../../../os/common/ext/ARM/CMSIS/Core/Include/cmsis_gcc.h" 1
 106 000c 83F31188 		MSR basepri, r3
 107              	@ 0 "" 2
 108              		.loc 2 494 1
 109              		.thumb
 110              		.syntax unified
 111 0010 00BF     		nop
 112              	.LBE21:
 113              	.LBE20:
 114              		.loc 3 854 1
ARM GAS  C:\Users\DEVELO~1\AppData\Local\Temp\ccjH4SDq.s 			page 3


 115 0012 00BF     		nop
 116              	.LBE19:
 117              	.LBE18:
 118              		.loc 1 435 1
 119 0014 00BF     		nop
 120 0016 0C37     		adds	r7, r7, #12
 121              		.cfi_def_cfa_offset 4
 122 0018 BD46     		mov	sp, r7
 123              		.cfi_def_cfa_register 13
 124              		@ sp needed
 125 001a 80BC     		pop	{r7}
 126              		.cfi_restore 7
 127              		.cfi_def_cfa_offset 0
 128 001c 7047     		bx	lr
 129              		.cfi_endproc
 130              	.LFE203:
 131              		.size	chSysUnlock, .-chSysUnlock
 132              		.section	.text.chCacheReleaseObject,"ax",%progbits
 133              		.align	1
 134              		.syntax unified
 135              		.thumb
 136              		.thumb_func
 137              		.type	chCacheReleaseObject, %function
 138              	chCacheReleaseObject:
 139              	.LFB318:
 140              		.file 4 "../../../os/oslib/include/chobjcaches.h"
 141              		.loc 4 296 60
 142              		.cfi_startproc
 143              		@ args = 0, pretend = 0, frame = 8
 144              		@ frame_needed = 1, uses_anonymous_args = 0
 145 0000 80B5     		push	{r7, lr}
 146              		.cfi_def_cfa_offset 8
 147              		.cfi_offset 7, -8
 148              		.cfi_offset 14, -4
 149 0002 82B0     		sub	sp, sp, #8
 150              		.cfi_def_cfa_offset 16
 151 0004 00AF     		add	r7, sp, #0
 152              		.cfi_def_cfa_register 7
 153 0006 7860     		str	r0, [r7, #4]
 154 0008 3960     		str	r1, [r7]
 155              		.loc 4 298 3
 156 000a FFF7FEFF 		bl	chSysLock
 157              		.loc 4 299 3
 158 000e 3968     		ldr	r1, [r7]
 159 0010 7868     		ldr	r0, [r7, #4]
 160 0012 FFF7FEFF 		bl	chCacheReleaseObjectI
 161              		.loc 4 300 3
 162 0016 FFF7FEFF 		bl	chSchRescheduleS
 163              		.loc 4 301 3
 164 001a FFF7FEFF 		bl	chSysUnlock
 165              		.loc 4 302 1
 166 001e 00BF     		nop
 167 0020 0837     		adds	r7, r7, #8
 168              		.cfi_def_cfa_offset 8
 169 0022 BD46     		mov	sp, r7
 170              		.cfi_def_cfa_register 13
 171              		@ sp needed
ARM GAS  C:\Users\DEVELO~1\AppData\Local\Temp\ccjH4SDq.s 			page 4


 172 0024 80BD     		pop	{r7, pc}
 173              		.cfi_endproc
 174              	.LFE318:
 175              		.size	chCacheReleaseObject, .-chCacheReleaseObject
 176              		.section	.bss.hash_headers,"aw",%nobits
 177              		.align	2
 178              		.type	hash_headers, %object
 179              		.size	hash_headers, 64
 180              	hash_headers:
 181 0000 00000000 		.space	64
 181      00000000 
 181      00000000 
 181      00000000 
 181      00000000 
 182              		.section	.bss.objects,"aw",%nobits
 183              		.align	2
 184              		.type	objects, %object
 185              		.size	objects, 240
 186              	objects:
 187 0000 00000000 		.space	240
 187      00000000 
 187      00000000 
 187      00000000 
 187      00000000 
 188              		.section	.bss.cache1,"aw",%nobits
 189              		.align	2
 190              		.type	cache1, %object
 191              		.size	cache1, 68
 192              	cache1:
 193 0000 00000000 		.space	68
 193      00000000 
 193      00000000 
 193      00000000 
 193      00000000 
 194              		.section	.text.obj_read,"ax",%progbits
 195              		.align	1
 196              		.syntax unified
 197              		.thumb
 198              		.thumb_func
 199              		.type	obj_read, %function
 200              	obj_read:
 201              	.LFB436:
 202              		.file 5 "../../../test/oslib/source/test/oslib_test_sequence_006.c"
 203              		.loc 5 67 34
 204              		.cfi_startproc
 205              		@ args = 0, pretend = 0, frame = 16
 206              		@ frame_needed = 1, uses_anonymous_args = 0
 207 0000 80B5     		push	{r7, lr}
 208              		.cfi_def_cfa_offset 8
 209              		.cfi_offset 7, -8
 210              		.cfi_offset 14, -4
 211 0002 84B0     		sub	sp, sp, #16
 212              		.cfi_def_cfa_offset 24
 213 0004 00AF     		add	r7, sp, #0
 214              		.cfi_def_cfa_register 7
 215 0006 F860     		str	r0, [r7, #12]
 216 0008 B960     		str	r1, [r7, #8]
ARM GAS  C:\Users\DEVELO~1\AppData\Local\Temp\ccjH4SDq.s 			page 5


 217 000a 1346     		mov	r3, r2
 218 000c FB71     		strb	r3, [r7, #7]
 219              		.loc 5 69 29
 220 000e BB68     		ldr	r3, [r7, #8]
 221 0010 5B69     		ldr	r3, [r3, #20]
 222              		.loc 5 69 3
 223 0012 DBB2     		uxtb	r3, r3
 224 0014 6133     		adds	r3, r3, #97
 225 0016 DBB2     		uxtb	r3, r3
 226 0018 1846     		mov	r0, r3
 227 001a FFF7FEFF 		bl	test_emit_token
 228              		.loc 5 71 19
 229 001e BB68     		ldr	r3, [r7, #8]
 230 0020 5B6A     		ldr	r3, [r3, #36]
 231 0022 23F00802 		bic	r2, r3, #8
 232 0026 BB68     		ldr	r3, [r7, #8]
 233 0028 5A62     		str	r2, [r3, #36]
 234              		.loc 5 73 6
 235 002a FB79     		ldrb	r3, [r7, #7]	@ zero_extendqisi2
 236 002c 002B     		cmp	r3, #0
 237 002e 03D0     		beq	.L5
 238              		.loc 5 74 5
 239 0030 B968     		ldr	r1, [r7, #8]
 240 0032 F868     		ldr	r0, [r7, #12]
 241 0034 FFF7FEFF 		bl	chCacheReleaseObject
 242              	.L5:
 243              		.loc 5 77 10
 244 0038 0023     		movs	r3, #0
 245              		.loc 5 78 1
 246 003a 1846     		mov	r0, r3
 247 003c 1037     		adds	r7, r7, #16
 248              		.cfi_def_cfa_offset 8
 249 003e BD46     		mov	sp, r7
 250              		.cfi_def_cfa_register 13
 251              		@ sp needed
 252 0040 80BD     		pop	{r7, pc}
 253              		.cfi_endproc
 254              	.LFE436:
 255              		.size	obj_read, .-obj_read
 256              		.section	.text.obj_write,"ax",%progbits
 257              		.align	1
 258              		.syntax unified
 259              		.thumb
 260              		.thumb_func
 261              		.type	obj_write, %function
 262              	obj_write:
 263              	.LFB437:
 264              		.loc 5 82 35
 265              		.cfi_startproc
 266              		@ args = 0, pretend = 0, frame = 16
 267              		@ frame_needed = 1, uses_anonymous_args = 0
 268 0000 80B5     		push	{r7, lr}
 269              		.cfi_def_cfa_offset 8
 270              		.cfi_offset 7, -8
 271              		.cfi_offset 14, -4
 272 0002 84B0     		sub	sp, sp, #16
 273              		.cfi_def_cfa_offset 24
ARM GAS  C:\Users\DEVELO~1\AppData\Local\Temp\ccjH4SDq.s 			page 6


 274 0004 00AF     		add	r7, sp, #0
 275              		.cfi_def_cfa_register 7
 276 0006 F860     		str	r0, [r7, #12]
 277 0008 B960     		str	r1, [r7, #8]
 278 000a 1346     		mov	r3, r2
 279 000c FB71     		strb	r3, [r7, #7]
 280              		.loc 5 86 29
 281 000e BB68     		ldr	r3, [r7, #8]
 282 0010 5B69     		ldr	r3, [r3, #20]
 283              		.loc 5 86 3
 284 0012 DBB2     		uxtb	r3, r3
 285 0014 4133     		adds	r3, r3, #65
 286 0016 DBB2     		uxtb	r3, r3
 287 0018 1846     		mov	r0, r3
 288 001a FFF7FEFF 		bl	test_emit_token
 289              		.loc 5 88 10
 290 001e 0023     		movs	r3, #0
 291              		.loc 5 89 1
 292 0020 1846     		mov	r0, r3
 293 0022 1037     		adds	r7, r7, #16
 294              		.cfi_def_cfa_offset 8
 295 0024 BD46     		mov	sp, r7
 296              		.cfi_def_cfa_register 13
 297              		@ sp needed
 298 0026 80BD     		pop	{r7, pc}
 299              		.cfi_endproc
 300              	.LFE437:
 301              		.size	obj_write, .-obj_write
 302              		.section	.rodata
 303              		.align	2
 304              	.LC0:
 305 0000 6E6F7420 		.ascii	"not in hash\000"
 305      696E2068 
 305      61736800 
 306              		.align	2
 307              	.LC1:
 308 000c 73686F75 		.ascii	"should not be in sync\000"
 308      6C64206E 
 308      6F742062 
 308      6520696E 
 308      2073796E 
 309 0022 0000     		.align	2
 310              	.LC2:
 311 0024 756E6578 		.ascii	"unexpected tokens\000"
 311      70656374 
 311      65642074 
 311      6F6B656E 
 311      7300
 312 0036 0000     		.align	2
 313              	.LC3:
 314 0038 00       		.ascii	"\000"
 315 0039 000000   		.align	2
 316              	.LC4:
 317 003c 696E2073 		.ascii	"in sync\000"
 317      796E6300 
 318              		.align	2
 319              	.LC5:
ARM GAS  C:\Users\DEVELO~1\AppData\Local\Temp\ccjH4SDq.s 			page 7


 320 0044 72657475 		.ascii	"returned error\000"
 320      726E6564 
 320      20657272 
 320      6F7200
 321 0053 00       		.align	2
 322              	.LC6:
 323 0054 6E6F7420 		.ascii	"not in sync\000"
 323      696E2073 
 323      796E6300 
 324              		.align	2
 325              	.LC7:
 326 0060 61626364 		.ascii	"abcdefgh\000"
 326      65666768 
 326      00
 327              		.section	.text.oslib_test_006_001_execute,"ax",%progbits
 328              		.align	1
 329              		.syntax unified
 330              		.thumb
 331              		.thumb_func
 332              		.type	oslib_test_006_001_execute, %function
 333              	oslib_test_006_001_execute:
 334              	.LFB438:
 335              		.loc 5 113 46
 336              		.cfi_startproc
 337              		@ args = 0, pretend = 0, frame = 48
 338              		@ frame_needed = 1, uses_anonymous_args = 0
 339 0000 80B5     		push	{r7, lr}
 340              		.cfi_def_cfa_offset 8
 341              		.cfi_offset 7, -8
 342              		.cfi_offset 14, -4
 343 0002 90B0     		sub	sp, sp, #64
 344              		.cfi_def_cfa_offset 72
 345 0004 04AF     		add	r7, sp, #16
 346              		.cfi_def_cfa 7, 56
 347              		.loc 5 116 3
 348 0006 6A4B     		ldr	r3, .L41
 349 0008 0122     		movs	r2, #1
 350 000a 1A60     		str	r2, [r3]
 351              		.loc 5 118 5
 352 000c 694B     		ldr	r3, .L41+4
 353 000e 0393     		str	r3, [sp, #12]
 354 0010 694B     		ldr	r3, .L41+8
 355 0012 0293     		str	r3, [sp, #8]
 356 0014 694B     		ldr	r3, .L41+12
 357 0016 0193     		str	r3, [sp, #4]
 358 0018 3C23     		movs	r3, #60
 359 001a 0093     		str	r3, [sp]
 360 001c 0423     		movs	r3, #4
 361 001e 684A     		ldr	r2, .L41+16
 362 0020 0821     		movs	r1, #8
 363 0022 6848     		ldr	r0, .L41+20
 364 0024 FFF7FEFF 		bl	chCacheObjectInit
 365              		.loc 5 130 3
 366 0028 614B     		ldr	r3, .L41
 367 002a 0222     		movs	r2, #2
 368 002c 1A60     		str	r2, [r3]
 369              	.LBB22:
ARM GAS  C:\Users\DEVELO~1\AppData\Local\Temp\ccjH4SDq.s 			page 8


 370              		.loc 5 134 12
 371 002e 0023     		movs	r3, #0
 372 0030 FB62     		str	r3, [r7, #44]
 373              		.loc 5 134 5
 374 0032 2EE0     		b	.L10
 375              	.L14:
 376              	.LBB23:
 377              		.loc 5 135 28
 378 0034 FA6A     		ldr	r2, [r7, #44]
 379 0036 0021     		movs	r1, #0
 380 0038 6248     		ldr	r0, .L41+20
 381 003a FFF7FEFF 		bl	chCacheGetObject
 382 003e 3860     		str	r0, [r7]
 383              		.loc 5 137 7
 384 0040 3B68     		ldr	r3, [r7]
 385 0042 5B6A     		ldr	r3, [r3, #36]
 386 0044 03F00203 		and	r3, r3, #2
 387 0048 002B     		cmp	r3, #0
 388 004a 14BF     		ite	ne
 389 004c 0123     		movne	r3, #1
 390 004e 0023     		moveq	r3, #0
 391 0050 DBB2     		uxtb	r3, r3
 392 0052 5D49     		ldr	r1, .L41+24
 393 0054 1846     		mov	r0, r3
 394 0056 FFF7FEFF 		bl	__test_assert
 395 005a 0346     		mov	r3, r0
 396 005c 002B     		cmp	r3, #0
 397 005e 40F0B881 		bne	.L9
 398              		.loc 5 138 7
 399 0062 3B68     		ldr	r3, [r7]
 400 0064 5B6A     		ldr	r3, [r3, #36]
 401 0066 03F00803 		and	r3, r3, #8
 402 006a 002B     		cmp	r3, #0
 403 006c 14BF     		ite	ne
 404 006e 0123     		movne	r3, #1
 405 0070 0023     		moveq	r3, #0
 406 0072 DBB2     		uxtb	r3, r3
 407 0074 5549     		ldr	r1, .L41+28
 408 0076 1846     		mov	r0, r3
 409 0078 FFF7FEFF 		bl	__test_assert
 410 007c 0346     		mov	r3, r0
 411 007e 002B     		cmp	r3, #0
 412 0080 40F0A781 		bne	.L9
 413              		.loc 5 140 7 discriminator 2
 414 0084 3968     		ldr	r1, [r7]
 415 0086 4F48     		ldr	r0, .L41+20
 416 0088 FFF7FEFF 		bl	chCacheReleaseObject
 417              	.LBE23:
 418              		.loc 5 134 41 discriminator 2
 419 008c FB6A     		ldr	r3, [r7, #44]
 420 008e 0133     		adds	r3, r3, #1
 421 0090 FB62     		str	r3, [r7, #44]
 422              	.L10:
 423              		.loc 5 134 19 discriminator 1
 424 0092 FB6A     		ldr	r3, [r7, #44]
 425 0094 072B     		cmp	r3, #7
 426 0096 CDD9     		bls	.L14
ARM GAS  C:\Users\DEVELO~1\AppData\Local\Temp\ccjH4SDq.s 			page 9


 427              		.loc 5 143 5
 428 0098 4D49     		ldr	r1, .L41+32
 429 009a 4E48     		ldr	r0, .L41+36
 430 009c FFF7FEFF 		bl	__test_assert_sequence
 431 00a0 0346     		mov	r3, r0
 432 00a2 002B     		cmp	r3, #0
 433 00a4 40F09581 		bne	.L9
 434              	.LBE22:
 435              		.loc 5 149 3
 436 00a8 414B     		ldr	r3, .L41
 437 00aa 0322     		movs	r2, #3
 438 00ac 1A60     		str	r2, [r3]
 439              	.LBB24:
 440              		.loc 5 154 12
 441 00ae 0023     		movs	r3, #0
 442 00b0 BB62     		str	r3, [r7, #40]
 443              		.loc 5 154 5
 444 00b2 6BE0     		b	.L16
 445              	.L22:
 446              	.LBB25:
 447              		.loc 5 155 27
 448 00b4 BA6A     		ldr	r2, [r7, #40]
 449 00b6 0021     		movs	r1, #0
 450 00b8 4248     		ldr	r0, .L41+20
 451 00ba FFF7FEFF 		bl	chCacheGetObject
 452 00be B860     		str	r0, [r7, #8]
 453              		.loc 5 157 7
 454 00c0 BB68     		ldr	r3, [r7, #8]
 455 00c2 5B6A     		ldr	r3, [r3, #36]
 456 00c4 03F00203 		and	r3, r3, #2
 457 00c8 002B     		cmp	r3, #0
 458 00ca 14BF     		ite	ne
 459 00cc 0123     		movne	r3, #1
 460 00ce 0023     		moveq	r3, #0
 461 00d0 DBB2     		uxtb	r3, r3
 462 00d2 3D49     		ldr	r1, .L41+24
 463 00d4 1846     		mov	r0, r3
 464 00d6 FFF7FEFF 		bl	__test_assert
 465 00da 0346     		mov	r3, r0
 466 00dc 002B     		cmp	r3, #0
 467 00de 40F07881 		bne	.L9
 468              		.loc 5 158 7
 469 00e2 BB68     		ldr	r3, [r7, #8]
 470 00e4 5B6A     		ldr	r3, [r3, #36]
 471 00e6 03F00803 		and	r3, r3, #8
 472 00ea 002B     		cmp	r3, #0
 473 00ec 14BF     		ite	ne
 474 00ee 0123     		movne	r3, #1
 475 00f0 0023     		moveq	r3, #0
 476 00f2 DBB2     		uxtb	r3, r3
 477 00f4 3849     		ldr	r1, .L41+40
 478 00f6 1846     		mov	r0, r3
 479 00f8 FFF7FEFF 		bl	__test_assert
 480 00fc 0346     		mov	r3, r0
 481 00fe 002B     		cmp	r3, #0
 482 0100 40F06781 		bne	.L9
 483              		.loc 5 160 15
ARM GAS  C:\Users\DEVELO~1\AppData\Local\Temp\ccjH4SDq.s 			page 10


 484 0104 0022     		movs	r2, #0
 485 0106 B968     		ldr	r1, [r7, #8]
 486 0108 2E48     		ldr	r0, .L41+20
 487 010a FFF7FEFF 		bl	chCacheReadObject
 488 010e 0346     		mov	r3, r0
 489 0110 FB71     		strb	r3, [r7, #7]
 490              		.loc 5 162 7
 491 0112 FB79     		ldrb	r3, [r7, #7]	@ zero_extendqisi2
 492 0114 002B     		cmp	r3, #0
 493 0116 14BF     		ite	ne
 494 0118 0123     		movne	r3, #1
 495 011a 0023     		moveq	r3, #0
 496 011c DBB2     		uxtb	r3, r3
 497 011e 83F00103 		eor	r3, r3, #1
 498 0122 DBB2     		uxtb	r3, r3
 499 0124 03F00103 		and	r3, r3, #1
 500 0128 DBB2     		uxtb	r3, r3
 501 012a 2C49     		ldr	r1, .L41+44
 502 012c 1846     		mov	r0, r3
 503 012e FFF7FEFF 		bl	__test_assert
 504 0132 0346     		mov	r3, r0
 505 0134 002B     		cmp	r3, #0
 506 0136 40F04C81 		bne	.L9
 507              		.loc 5 163 7
 508 013a BB68     		ldr	r3, [r7, #8]
 509 013c 5B6A     		ldr	r3, [r3, #36]
 510 013e 03F00203 		and	r3, r3, #2
 511 0142 002B     		cmp	r3, #0
 512 0144 14BF     		ite	ne
 513 0146 0123     		movne	r3, #1
 514 0148 0023     		moveq	r3, #0
 515 014a DBB2     		uxtb	r3, r3
 516 014c 1E49     		ldr	r1, .L41+24
 517 014e 1846     		mov	r0, r3
 518 0150 FFF7FEFF 		bl	__test_assert
 519 0154 0346     		mov	r3, r0
 520 0156 002B     		cmp	r3, #0
 521 0158 40F03B81 		bne	.L9
 522              		.loc 5 164 7
 523 015c BB68     		ldr	r3, [r7, #8]
 524 015e 5B6A     		ldr	r3, [r3, #36]
 525 0160 03F00803 		and	r3, r3, #8
 526 0164 002B     		cmp	r3, #0
 527 0166 0CBF     		ite	eq
 528 0168 0123     		moveq	r3, #1
 529 016a 0023     		movne	r3, #0
 530 016c DBB2     		uxtb	r3, r3
 531 016e 1C49     		ldr	r1, .L41+48
 532 0170 1846     		mov	r0, r3
 533 0172 FFF7FEFF 		bl	__test_assert
 534 0176 0346     		mov	r3, r0
 535 0178 002B     		cmp	r3, #0
 536 017a 40F02A81 		bne	.L9
 537              		.loc 5 166 7 discriminator 2
 538 017e B968     		ldr	r1, [r7, #8]
 539 0180 1048     		ldr	r0, .L41+20
 540 0182 FFF7FEFF 		bl	chCacheReleaseObject
ARM GAS  C:\Users\DEVELO~1\AppData\Local\Temp\ccjH4SDq.s 			page 11


 541              	.LBE25:
 542              		.loc 5 154 41 discriminator 2
 543 0186 BB6A     		ldr	r3, [r7, #40]
 544 0188 0133     		adds	r3, r3, #1
 545 018a BB62     		str	r3, [r7, #40]
 546              	.L16:
 547              		.loc 5 154 19 discriminator 1
 548 018c BB6A     		ldr	r3, [r7, #40]
 549 018e 072B     		cmp	r3, #7
 550 0190 90D9     		bls	.L22
 551              		.loc 5 169 5
 552 0192 0F49     		ldr	r1, .L41+32
 553 0194 1348     		ldr	r0, .L41+52
 554 0196 FFF7FEFF 		bl	__test_assert_sequence
 555 019a 0346     		mov	r3, r0
 556 019c 002B     		cmp	r3, #0
 557 019e 40F01881 		bne	.L9
 558              	.LBE24:
 559              		.loc 5 175 3
 560 01a2 034B     		ldr	r3, .L41
 561 01a4 0422     		movs	r2, #4
 562 01a6 1A60     		str	r2, [r3]
 563              	.LBB26:
 564              		.loc 5 180 12
 565 01a8 0023     		movs	r3, #0
 566 01aa 7B62     		str	r3, [r7, #36]
 567              		.loc 5 180 5
 568 01ac 8EE0     		b	.L24
 569              	.L42:
 570 01ae 00BF     		.align	2
 571              	.L41:
 572 01b0 00000000 		.word	chtest
 573 01b4 00000000 		.word	obj_write
 574 01b8 00000000 		.word	obj_read
 575 01bc 00000000 		.word	objects
 576 01c0 00000000 		.word	hash_headers
 577 01c4 00000000 		.word	cache1
 578 01c8 00000000 		.word	.LC0
 579 01cc 0C000000 		.word	.LC1
 580 01d0 24000000 		.word	.LC2
 581 01d4 38000000 		.word	.LC3
 582 01d8 3C000000 		.word	.LC4
 583 01dc 44000000 		.word	.LC5
 584 01e0 54000000 		.word	.LC6
 585 01e4 60000000 		.word	.LC7
 586              	.L30:
 587              	.LBB27:
 588              		.loc 5 181 27
 589 01e8 7A6A     		ldr	r2, [r7, #36]
 590 01ea 0021     		movs	r1, #0
 591 01ec 7A48     		ldr	r0, .L43
 592 01ee FFF7FEFF 		bl	chCacheGetObject
 593 01f2 3861     		str	r0, [r7, #16]
 594              		.loc 5 183 7
 595 01f4 3B69     		ldr	r3, [r7, #16]
 596 01f6 5B6A     		ldr	r3, [r3, #36]
 597 01f8 03F00203 		and	r3, r3, #2
ARM GAS  C:\Users\DEVELO~1\AppData\Local\Temp\ccjH4SDq.s 			page 12


 598 01fc 002B     		cmp	r3, #0
 599 01fe 14BF     		ite	ne
 600 0200 0123     		movne	r3, #1
 601 0202 0023     		moveq	r3, #0
 602 0204 DBB2     		uxtb	r3, r3
 603 0206 7549     		ldr	r1, .L43+4
 604 0208 1846     		mov	r0, r3
 605 020a FFF7FEFF 		bl	__test_assert
 606 020e 0346     		mov	r3, r0
 607 0210 002B     		cmp	r3, #0
 608 0212 40F0DE80 		bne	.L9
 609              		.loc 5 184 7
 610 0216 3B69     		ldr	r3, [r7, #16]
 611 0218 5B6A     		ldr	r3, [r3, #36]
 612 021a 03F00803 		and	r3, r3, #8
 613 021e 002B     		cmp	r3, #0
 614 0220 14BF     		ite	ne
 615 0222 0123     		movne	r3, #1
 616 0224 0023     		moveq	r3, #0
 617 0226 DBB2     		uxtb	r3, r3
 618 0228 6D49     		ldr	r1, .L43+8
 619 022a 1846     		mov	r0, r3
 620 022c FFF7FEFF 		bl	__test_assert
 621 0230 0346     		mov	r3, r0
 622 0232 002B     		cmp	r3, #0
 623 0234 40F0CD80 		bne	.L9
 624              		.loc 5 186 15
 625 0238 0122     		movs	r2, #1
 626 023a 3969     		ldr	r1, [r7, #16]
 627 023c 6648     		ldr	r0, .L43
 628 023e FFF7FEFF 		bl	chCacheReadObject
 629 0242 0346     		mov	r3, r0
 630 0244 FB73     		strb	r3, [r7, #15]
 631              		.loc 5 188 7
 632 0246 FB7B     		ldrb	r3, [r7, #15]	@ zero_extendqisi2
 633 0248 002B     		cmp	r3, #0
 634 024a 14BF     		ite	ne
 635 024c 0123     		movne	r3, #1
 636 024e 0023     		moveq	r3, #0
 637 0250 DBB2     		uxtb	r3, r3
 638 0252 83F00103 		eor	r3, r3, #1
 639 0256 DBB2     		uxtb	r3, r3
 640 0258 03F00103 		and	r3, r3, #1
 641 025c DBB2     		uxtb	r3, r3
 642 025e 6149     		ldr	r1, .L43+12
 643 0260 1846     		mov	r0, r3
 644 0262 FFF7FEFF 		bl	__test_assert
 645 0266 0346     		mov	r3, r0
 646 0268 002B     		cmp	r3, #0
 647 026a 40F0B280 		bne	.L9
 648              		.loc 5 190 14
 649 026e 7A6A     		ldr	r2, [r7, #36]
 650 0270 0021     		movs	r1, #0
 651 0272 5948     		ldr	r0, .L43
 652 0274 FFF7FEFF 		bl	chCacheGetObject
 653 0278 3861     		str	r0, [r7, #16]
 654              		.loc 5 192 7
ARM GAS  C:\Users\DEVELO~1\AppData\Local\Temp\ccjH4SDq.s 			page 13


 655 027a 3B69     		ldr	r3, [r7, #16]
 656 027c 5B6A     		ldr	r3, [r3, #36]
 657 027e 03F00203 		and	r3, r3, #2
 658 0282 002B     		cmp	r3, #0
 659 0284 14BF     		ite	ne
 660 0286 0123     		movne	r3, #1
 661 0288 0023     		moveq	r3, #0
 662 028a DBB2     		uxtb	r3, r3
 663 028c 5349     		ldr	r1, .L43+4
 664 028e 1846     		mov	r0, r3
 665 0290 FFF7FEFF 		bl	__test_assert
 666 0294 0346     		mov	r3, r0
 667 0296 002B     		cmp	r3, #0
 668 0298 40F09B80 		bne	.L9
 669              		.loc 5 193 7
 670 029c 3B69     		ldr	r3, [r7, #16]
 671 029e 5B6A     		ldr	r3, [r3, #36]
 672 02a0 03F00803 		and	r3, r3, #8
 673 02a4 002B     		cmp	r3, #0
 674 02a6 0CBF     		ite	eq
 675 02a8 0123     		moveq	r3, #1
 676 02aa 0023     		movne	r3, #0
 677 02ac DBB2     		uxtb	r3, r3
 678 02ae 4E49     		ldr	r1, .L43+16
 679 02b0 1846     		mov	r0, r3
 680 02b2 FFF7FEFF 		bl	__test_assert
 681 02b6 0346     		mov	r3, r0
 682 02b8 002B     		cmp	r3, #0
 683 02ba 40F08A80 		bne	.L9
 684              		.loc 5 195 7 discriminator 2
 685 02be 3969     		ldr	r1, [r7, #16]
 686 02c0 4548     		ldr	r0, .L43
 687 02c2 FFF7FEFF 		bl	chCacheReleaseObject
 688              	.LBE27:
 689              		.loc 5 180 41 discriminator 2
 690 02c6 7B6A     		ldr	r3, [r7, #36]
 691 02c8 0133     		adds	r3, r3, #1
 692 02ca 7B62     		str	r3, [r7, #36]
 693              	.L24:
 694              		.loc 5 180 19 discriminator 1
 695 02cc 7B6A     		ldr	r3, [r7, #36]
 696 02ce 072B     		cmp	r3, #7
 697 02d0 8AD9     		bls	.L30
 698              		.loc 5 198 5
 699 02d2 4649     		ldr	r1, .L43+20
 700 02d4 4648     		ldr	r0, .L43+24
 701 02d6 FFF7FEFF 		bl	__test_assert_sequence
 702 02da 0346     		mov	r3, r0
 703 02dc 002B     		cmp	r3, #0
 704 02de 78D1     		bne	.L9
 705              	.LBE26:
 706              		.loc 5 203 3
 707 02e0 444B     		ldr	r3, .L43+28
 708 02e2 0522     		movs	r2, #5
 709 02e4 1A60     		str	r2, [r3]
 710              	.LBB28:
 711              		.loc 5 207 12
ARM GAS  C:\Users\DEVELO~1\AppData\Local\Temp\ccjH4SDq.s 			page 14


 712 02e6 0423     		movs	r3, #4
 713 02e8 3B62     		str	r3, [r7, #32]
 714              		.loc 5 207 5
 715 02ea 2CE0     		b	.L32
 716              	.L35:
 717              	.LBB29:
 718              		.loc 5 208 27
 719 02ec 3A6A     		ldr	r2, [r7, #32]
 720 02ee 0021     		movs	r1, #0
 721 02f0 3948     		ldr	r0, .L43
 722 02f2 FFF7FEFF 		bl	chCacheGetObject
 723 02f6 7861     		str	r0, [r7, #20]
 724              		.loc 5 210 7
 725 02f8 7B69     		ldr	r3, [r7, #20]
 726 02fa 5B6A     		ldr	r3, [r3, #36]
 727 02fc 03F00203 		and	r3, r3, #2
 728 0300 002B     		cmp	r3, #0
 729 0302 14BF     		ite	ne
 730 0304 0123     		movne	r3, #1
 731 0306 0023     		moveq	r3, #0
 732 0308 DBB2     		uxtb	r3, r3
 733 030a 3449     		ldr	r1, .L43+4
 734 030c 1846     		mov	r0, r3
 735 030e FFF7FEFF 		bl	__test_assert
 736 0312 0346     		mov	r3, r0
 737 0314 002B     		cmp	r3, #0
 738 0316 5CD1     		bne	.L9
 739              		.loc 5 211 7
 740 0318 7B69     		ldr	r3, [r7, #20]
 741 031a 5B6A     		ldr	r3, [r3, #36]
 742 031c 03F00803 		and	r3, r3, #8
 743 0320 002B     		cmp	r3, #0
 744 0322 0CBF     		ite	eq
 745 0324 0123     		moveq	r3, #1
 746 0326 0023     		movne	r3, #0
 747 0328 DBB2     		uxtb	r3, r3
 748 032a 2F49     		ldr	r1, .L43+16
 749 032c 1846     		mov	r0, r3
 750 032e FFF7FEFF 		bl	__test_assert
 751 0332 0346     		mov	r3, r0
 752 0334 002B     		cmp	r3, #0
 753 0336 4CD1     		bne	.L9
 754              		.loc 5 213 7 discriminator 2
 755 0338 7969     		ldr	r1, [r7, #20]
 756 033a 2748     		ldr	r0, .L43
 757 033c FFF7FEFF 		bl	chCacheReleaseObject
 758              	.LBE29:
 759              		.loc 5 207 51 discriminator 2
 760 0340 3B6A     		ldr	r3, [r7, #32]
 761 0342 0133     		adds	r3, r3, #1
 762 0344 3B62     		str	r3, [r7, #32]
 763              	.L32:
 764              		.loc 5 207 29 discriminator 1
 765 0346 3B6A     		ldr	r3, [r7, #32]
 766 0348 072B     		cmp	r3, #7
 767 034a CFD9     		bls	.L35
 768              		.loc 5 216 5
ARM GAS  C:\Users\DEVELO~1\AppData\Local\Temp\ccjH4SDq.s 			page 15


 769 034c 2749     		ldr	r1, .L43+20
 770 034e 2A48     		ldr	r0, .L43+32
 771 0350 FFF7FEFF 		bl	__test_assert_sequence
 772 0354 0346     		mov	r3, r0
 773 0356 002B     		cmp	r3, #0
 774 0358 3BD1     		bne	.L9
 775              	.LBE28:
 776              		.loc 5 221 3
 777 035a 264B     		ldr	r3, .L43+28
 778 035c 0622     		movs	r2, #6
 779 035e 1A60     		str	r2, [r3]
 780              	.LBB30:
 781              		.loc 5 225 12
 782 0360 0023     		movs	r3, #0
 783 0362 FB61     		str	r3, [r7, #28]
 784              		.loc 5 225 5
 785 0364 2CE0     		b	.L37
 786              	.L40:
 787              	.LBB31:
 788              		.loc 5 226 27
 789 0366 FA69     		ldr	r2, [r7, #28]
 790 0368 0021     		movs	r1, #0
 791 036a 1B48     		ldr	r0, .L43
 792 036c FFF7FEFF 		bl	chCacheGetObject
 793 0370 B861     		str	r0, [r7, #24]
 794              		.loc 5 228 7
 795 0372 BB69     		ldr	r3, [r7, #24]
 796 0374 5B6A     		ldr	r3, [r3, #36]
 797 0376 03F00203 		and	r3, r3, #2
 798 037a 002B     		cmp	r3, #0
 799 037c 14BF     		ite	ne
 800 037e 0123     		movne	r3, #1
 801 0380 0023     		moveq	r3, #0
 802 0382 DBB2     		uxtb	r3, r3
 803 0384 1549     		ldr	r1, .L43+4
 804 0386 1846     		mov	r0, r3
 805 0388 FFF7FEFF 		bl	__test_assert
 806 038c 0346     		mov	r3, r0
 807 038e 002B     		cmp	r3, #0
 808 0390 1FD1     		bne	.L9
 809              		.loc 5 229 7
 810 0392 BB69     		ldr	r3, [r7, #24]
 811 0394 5B6A     		ldr	r3, [r3, #36]
 812 0396 03F00803 		and	r3, r3, #8
 813 039a 002B     		cmp	r3, #0
 814 039c 14BF     		ite	ne
 815 039e 0123     		movne	r3, #1
 816 03a0 0023     		moveq	r3, #0
 817 03a2 DBB2     		uxtb	r3, r3
 818 03a4 0E49     		ldr	r1, .L43+8
 819 03a6 1846     		mov	r0, r3
 820 03a8 FFF7FEFF 		bl	__test_assert
 821 03ac 0346     		mov	r3, r0
 822 03ae 002B     		cmp	r3, #0
 823 03b0 0FD1     		bne	.L9
 824              		.loc 5 231 7 discriminator 2
 825 03b2 B969     		ldr	r1, [r7, #24]
ARM GAS  C:\Users\DEVELO~1\AppData\Local\Temp\ccjH4SDq.s 			page 16


 826 03b4 0848     		ldr	r0, .L43
 827 03b6 FFF7FEFF 		bl	chCacheReleaseObject
 828              	.LBE31:
 829              		.loc 5 225 35 discriminator 2
 830 03ba FB69     		ldr	r3, [r7, #28]
 831 03bc 0133     		adds	r3, r3, #1
 832 03be FB61     		str	r3, [r7, #28]
 833              	.L37:
 834              		.loc 5 225 19 discriminator 1
 835 03c0 FB69     		ldr	r3, [r7, #28]
 836 03c2 032B     		cmp	r3, #3
 837 03c4 CFD9     		bls	.L40
 838              		.loc 5 234 5
 839 03c6 0949     		ldr	r1, .L43+20
 840 03c8 0B48     		ldr	r0, .L43+32
 841 03ca FFF7FEFF 		bl	__test_assert_sequence
 842 03ce 0346     		mov	r3, r0
 843 03d0 002B     		cmp	r3, #0
 844              	.L9:
 845              	.LBE30:
 846              		.loc 5 237 1
 847 03d2 3037     		adds	r7, r7, #48
 848              		.cfi_def_cfa_offset 8
 849 03d4 BD46     		mov	sp, r7
 850              		.cfi_def_cfa_register 13
 851              		@ sp needed
 852 03d6 80BD     		pop	{r7, pc}
 853              	.L44:
 854              		.align	2
 855              	.L43:
 856 03d8 00000000 		.word	cache1
 857 03dc 00000000 		.word	.LC0
 858 03e0 3C000000 		.word	.LC4
 859 03e4 44000000 		.word	.LC5
 860 03e8 54000000 		.word	.LC6
 861 03ec 24000000 		.word	.LC2
 862 03f0 60000000 		.word	.LC7
 863 03f4 00000000 		.word	chtest
 864 03f8 38000000 		.word	.LC3
 865              		.cfi_endproc
 866              	.LFE438:
 867              		.size	oslib_test_006_001_execute, .-oslib_test_006_001_execute
 868              		.section	.rodata
 869 0069 000000   		.align	2
 870              	.LC8:
 871 006c 43616368 		.ascii	"Cache initialization\000"
 871      6520696E 
 871      69746961 
 871      6C697A61 
 871      74696F6E 
 872              		.section	.rodata.oslib_test_006_001,"a"
 873              		.align	2
 874              		.type	oslib_test_006_001, %object
 875              		.size	oslib_test_006_001, 16
 876              	oslib_test_006_001:
 877 0000 6C000000 		.word	.LC8
 878 0004 00000000 		.word	0
ARM GAS  C:\Users\DEVELO~1\AppData\Local\Temp\ccjH4SDq.s 			page 17


 879 0008 00000000 		.word	0
 880 000c 00000000 		.word	oslib_test_006_001_execute
 881              		.global	oslib_test_sequence_006_array
 882              		.section	.rodata.oslib_test_sequence_006_array,"a"
 883              		.align	2
 884              		.type	oslib_test_sequence_006_array, %object
 885              		.size	oslib_test_sequence_006_array, 8
 886              	oslib_test_sequence_006_array:
 887 0000 00000000 		.word	oslib_test_006_001
 888 0004 00000000 		.word	0
 889              		.global	oslib_test_sequence_006
 890              		.section	.rodata
 891 0081 000000   		.align	2
 892              	.LC9:
 893 0084 4F626A65 		.ascii	"Objects Caches\000"
 893      63747320 
 893      43616368 
 893      657300
 894              		.section	.rodata.oslib_test_sequence_006,"a"
 895              		.align	2
 896              		.type	oslib_test_sequence_006, %object
 897              		.size	oslib_test_sequence_006, 8
 898              	oslib_test_sequence_006:
 899 0000 84000000 		.word	.LC9
 900 0004 00000000 		.word	oslib_test_sequence_006_array
 901              		.text
 902              	.Letext0:
 903              		.file 6 "c:\\chibistudio\\tools\\gnu tools arm embedded\\11.3 2022.08\\lib\\gcc\\arm-none-eabi\\11
 904              		.file 7 "c:\\chibistudio\\tools\\gnu tools arm embedded\\11.3 2022.08\\arm-none-eabi\\include\\mac
 905              		.file 8 "c:\\chibistudio\\tools\\gnu tools arm embedded\\11.3 2022.08\\arm-none-eabi\\include\\sys
 906              		.file 9 "../../../os/rt/include/chearly.h"
 907              		.file 10 "../../../os/rt/include/chlists.h"
 908              		.file 11 "../../../os/rt/include/chsem.h"
 909              		.file 12 "../../../os/hal/include/hal_streams.h"
 910              		.file 13 "../../../os/test/include/ch_test.h"
 911              		.file 14 "../../../test/oslib/source/test/oslib_test_sequence_006.h"
 912              		.file 15 "../../../os/rt/include/chschd.h"