ARM GAS  C:\Users\DEVELO~1\AppData\Local\Temp\ccjH4SDq.s 			page 1


   1              		.cpu cortex-m7
   2              		.arch armv7e-m
   3              		.fpu softvfp
   4              		.eabi_attribute 20, 1
   5              		.eabi_attribute 21, 1
   6              		.eabi_attribute 23, 3
   7              		.eabi_attribute 24, 1
   8              		.eabi_attribute 25, 1
   9              		.eabi_attribute 26, 1
  10              		.eabi_attribute 30, 6
  11              		.eabi_attribute 34, 1
  12              		.eabi_attribute 18, 4
  13              		.file	"oslib_test_sequence_006.c"
  14              		.text
  15              	.Ltext0:
  16              		.cfi_sections	.debug_frame
  17              		.section	.text.chSysLock,"ax",%progbits
  18              		.align	1
  19              		.syntax unified
  20              		.thumb
  21              		.thumb_func
  22              		.type	chSysLock, %function
  23              	chSysLock:
  24              	.LFB202:
  25              		.file 1 "../../../os/rt/include/chsys.h"
  26              		.loc 1 407 36
  27              		.cfi_startproc
  28              		@ args = 0, pretend = 0, frame = 8
  29              		@ frame_needed = 1, uses_anonymous_args = 0
  30              		@ link register save eliminated.
  31 0000 80B4     		push	{r7}
  32              		.cfi_def_cfa_offset 4
  33              		.cfi_offset 7, -4
  34 0002 83B0     		sub	sp, sp, #12
  35              		.cfi_def_cfa_offset 16
  36 0004 00AF     		add	r7, sp, #0
  37              		.cfi_def_cfa_register 7
  38 0006 3023     		movs	r3, #48
  39 0008 7B60     		str	r3, [r7, #4]
  40              	.LBB14:
  41              	.LBB15:
  42              	.LBB16:
  43              	.LBB17:
  44              		.file 2 "../../../os/common/ext/ARM/CMSIS/Core/Include/cmsis_gcc.h"
  45              		.loc 2 493 3
  46 000a 7B68     		ldr	r3, [r7, #4]
  47              		.syntax unified
  48              	@ 493 "../../../os/common/ext/ARM/CMSIS/Core/Include/cmsis_gcc.h" 1
  49 000c 83F31188 		MSR basepri, r3
  50              	@ 0 "" 2
  51              		.loc 2 494 1
  52              		.thumb
  53              		.syntax unified
  54 0010 00BF     		nop
  55              	.LBE17:
  56              	.LBE16:
  57              		.file 3 "../../../os/common/ports/ARMv7-M/chcore.h"
ARM GAS  C:\Users\DEVELO~1\AppData\Local\Temp\ccjH4SDq.s 			page 2


  58              		.loc 3 840 1
  59 0012 00BF     		nop
  60              	.LBE15:
  61              	.LBE14:
  62              		.loc 1 412 1
  63 0014 00BF     		nop
  64 0016 0C37     		adds	r7, r7, #12
  65              		.cfi_def_cfa_offset 4
  66 0018 BD46     		mov	sp, r7
  67              		.cfi_def_cfa_register 13
  68              		@ sp needed
  69 001a 80BC     		pop	{r7}
  70              		.cfi_restore 7
  71              		.cfi_def_cfa_offset 0
  72 001c 7047     		bx	lr
  73              		.cfi_endproc
  74              	.LFE202:
  75              		.size	chSysLock, .-chSysLock
  76              		.section	.text.chSysUnlock,"ax",%progbits
  77              		.align	1
  78              		.syntax unified
  79              		.thumb
  80              		.thumb_func
  81              		.type	chSysUnlock, %function
  82              	chSysUnlock:
  83              	.LFB203:
  84              		.loc 1 421 38
  85              		.cfi_startproc
  86              		@ args = 0, pretend = 0, frame = 8
  87              		@ frame_needed = 1, uses_anonymous_args = 0
  88              		@ link register save eliminated.
  89 0000 80B4     		push	{r7}
  90              		.cfi_def_cfa_offset 4
  91              		.cfi_offset 7, -4
  92 0002 83B0     		sub	sp, sp, #12
  93              		.cfi_def_cfa_offset 16
  94 0004 00AF     		add	r7, sp, #0
  95              		.cfi_def_cfa_register 7
  96 0006 0023     		movs	r3, #0
  97 0008 7B60     		str	r3, [r7, #4]
  98              	.LBB18:
  99              	.LBB19:
 100              	.LBB20:
 101              	.LBB21:
 102              		.loc 2 493 3
 103 000a 7B68     		ldr	r3, [r7, #4]
 104              		.syntax unified
 105              	@ 493 "../../../os/common/ext/ARM/CMSIS/Core/Include/cmsis_gcc.h" 1
 106 000c 83F31188 		MSR basepri, r3
 107              	@ 0 "" 2
 108              		.loc 2 494 1
 109              		.thumb
 110              		.syntax unified
 111 0010 00BF     		nop
 112              	.LBE21:
 113              	.LBE20:
 114              		.loc 3 854 1
ARM GAS  C:\Users\DEVELO~1\AppData\Local\Temp\ccjH4SDq.s 			page 3


 115 0012 00BF     		nop
 116              	.LBE19:
 117              	.LBE18:
 118              		.loc 1 435 1
 119 0014 00BF     		nop
 120 0016 0C37     		adds	r7, r7, #12
 121              		.cfi_def_cfa_offset 4
 122 0018 BD46     		mov	sp, r7
 123              		.cfi_def_cfa_register 13
 124              		@ sp needed
 125 001a 80BC     		pop	{r7}
 126              		.cfi_restore 7
 127              		.cfi_def_cfa_offset 0
 128 001c 7047     		bx	lr
 129              		.cfi_endproc
 130              	.LFE203:
 131              		.size	chSysUnlock, .-chSysUnlock
 132              		.section	.text.chCacheReleaseObject,"ax",%progbits
 133              		.align	1
 134              		.syntax unified
 135              		.thumb
 136              		.thumb_func
 137              		.type	chCacheReleaseObject, %function
 138              	chCacheReleaseObject:
 139              	.LFB318:
 140              		.file 4 "../../../os/oslib/include/chobjcaches.h"
 141              		.loc 4 296 60
 142              		.cfi_startproc
 143              		@ args = 0, pretend = 0, frame = 8
 144              		@ frame_needed = 1, uses_anonymous_args = 0
 145 0000 80B5     		push	{r7, lr}
 146              		.cfi_def_cfa_offset 8
 147              		.cfi_offset 7, -8
 148              		.cfi_offset 14, -4
 149 0002 82B0     		sub	sp, sp, #8
 150              		.cfi_def_cfa_offset 16
 151 0004 00AF     		add	r7, sp, #0
 152              		.cfi_def_cfa_register 7
 153 0006 7860     		str	r0, [r7, #4]
 154 0008 3960     		str	r1, [r7]
 155              		.loc 4 298 3
 156 000a FFF7FEFF 		bl	chSysLock
 157              		.loc 4 299 3
 158 000e 3968     		ldr	r1, [r7]
 159 0010 7868     		ldr	r0, [r7, #4]
 160 0012 FFF7FEFF 		bl	chCacheReleaseObjectI
 161              		.loc 4 300 3
 162 0016 FFF7FEFF 		bl	chSchRescheduleS
 163              		.loc 4 301 3
 164 001a FFF7FEFF 		bl	chSysUnlock
 165              		.loc 4 302 1
 166 001e 00BF     		nop
 167 0020 0837     		adds	r7, r7, #8
 168              		.cfi_def_cfa_offset 8
 169 0022 BD46     		mov	sp, r7
 170              		.cfi_def_cfa_register 13
 171              		@ sp needed
ARM GAS  C:\Users\DEVELO~1\AppData\Local\Temp\ccjH4SDq.s 			page 4


 172 0024 80BD     		pop	{r7, pc}
 173              		.cfi_endproc
 174              	.LFE318:
 175              		.size	chCacheReleaseObject, .-chCacheReleaseObject
 176              		.section	.bss.hash_headers,"aw",%nobits
 177              		.align	2
 178              		.type	hash_headers, %object
 179              		.size	hash_headers, 64
 180              	hash_headers:
 181 0000 00000000 		.space	64
 181      00000000 
 181      00000000 
 181      00000000 
 181      00000000 
 182              		.section	.bss.objects,"aw",%nobits
 183              		.align	2
 184              		.type	objects, %object
 185              		.size	objects, 240
 186              	objects:
 187 0000 00000000 		.space	240
 187      00000000 
 187      00000000 
 187      00000000 
 187      00000000 
 188              		.section	.bss.cache1,"aw",%nobits
 189              		.align	2
 190              		.type	cache1, %object
 191              		.size	cache1, 68
 192              	cache1:
 193 0000 00000000 		.space	68
 193      00000000 
 193      00000000 
 193      00000000 
 193      00000000 
 194              		.section	.text.obj_read,"ax",%progbits
 195              		.align	1
 196              		.syntax unified
 197              		.thumb
 198              		.thumb_func
 199              		.type	obj_read, %function
 200              	obj_read:
 201              	.LFB436:
 202              		.file 5 "../../../test/oslib/source/test/oslib_test_sequence_006.c"
 203              		.loc 5 67 34
 204              		.cfi_startproc
 205              		@ args = 0, pretend = 0, frame = 16
 206              		@ frame_needed = 1, uses_anonymous_args = 0
 207 0000 80B5     		push	{r7, lr}
 208              		.cfi_def_cfa_offset 8
 209              		.cfi_offset 7, -8
 210              		.cfi_offset 14, -4
 211 0002 84B0     		sub	sp, sp, #16
 212              		.cfi_def_cfa_offset 24
 213 0004 00AF     		add	r7, sp, #0
 214              		.cfi_def_cfa_register 7
 215 0006 F860     		str	r0, [r7, #12]
 216 0008 B960     		str	r1, [r7, #8]
ARM GAS  C:\Users\DEVELO~1\AppData\Local\Temp\ccjH4SDq.s 			page 5


 217 000a 1346     		mov	r3, r2
 218 000c FB71     		strb	r3, [r7, #7]
 219              		.loc 5 69 29
 220 000e BB68     		ldr	r3, [r7, #8]
 221 0010 5B69     		ldr	r3, [r3, #20]
 222              		.loc 5 69 3
 223 0012 DBB2     		uxtb	r3, r3
 224 0014 6133     		adds	r3, r3, #97
 225 0016 DBB2     		uxtb	r3, r3
 226 0018 1846     		mov	r0, r3
 227 001a FFF7FEFF 		bl	test_emit_token
 228              		.loc 5 71 19
 229 001e BB68     		ldr	r3, [r7, #8]
 230 0020 5B6A     		ldr	r3, [r3, #36]
 231 0022 23F00802 		bic	r2, r3, #8
 232 0026 BB68     		ldr	r3, [r7, #8]
 233 0028 5A62     		str	r2, [r3, #36]
 234              		.loc 5 73 6
 235 002a FB79     		ldrb	r3, [r7, #7]	@ zero_extendqisi2
 236 002c 002B     		cmp	r3, #0
 237 002e 03D0     		beq	.L5
 238              		.loc 5 74 5
 239 0030 B968     		ldr	r1, [r7, #8]
 240 0032 F868     		ldr	r0, [r7, #12]
 241 0034 FFF7FEFF 		bl	chCacheReleaseObject
 242              	.L5:
 243              		.loc 5 77 10
 244 0038 0023     		movs	r3, #0
 245              		.loc 5 78 1
 246 003a 1846     		mov	r0, r3
 247 003c 1037     		adds	r7, r7, #16
 248              		.cfi_def_cfa_offset 8
 249 003e BD46     		mov	sp, r7
 250              		.cfi_def_cfa_register 13
 251              		@ sp needed
 252 0040 80BD     		pop	{r7, pc}
 253              		.cfi_endproc
 254              	.LFE436:
 255              		.size	obj_read, .-obj_read
 256              		.section	.text.obj_write,"ax",%progbits
 257              		.align	1
 258              		.syntax unified
 259              		.thumb
 260              		.thumb_func
 261              		.type	obj_write, %function
 262              	obj_write:
 263              	.LFB437:
 264              		.loc 5 82 35
 265              		.cfi_startproc
 266              		@ args = 0, pretend = 0, frame = 16
 267              		@ frame_needed = 1, uses_anonymous_args = 0
 268 0000 80B5     		push	{r7, lr}
 269              		.cfi_def_cfa_offset 8
 270              		.cfi_offset 7, -8
 271              		.cfi_offset 14, -4
 272 0002 84B0     		sub	sp, sp, #16
 273              		.cfi_def_cfa_offset 24
ARM GAS  C:\Users\DEVELO~1\AppData\Local\Temp\ccjH4SDq.s 			page 6


 274 0004 00AF     		add	r7, sp, #0
 275              		.cfi_def_cfa_register 7
 276 0006 F860     		str	r0, [r7, #12]
 277 0008 B960     		str	r1, [r7, #8]
 278 000a 1346     		mov	r3, r2
 279 000c FB71     		strb	r3, [r7, #7]
 280              		.loc 5 86 29
 281 000e BB68     		ldr	r3, [r7, #8]
 282 0010 5B69     		ldr	r3, [r3, #20]
 283              		.loc 5 86 3
 284 0012 DBB2     		uxtb	r3, r3
 285 0014 4133     		adds	r3, r3, #65
 286 0016 DBB2     		uxtb	r3, r3
 287 0018 1846     		mov	r0, r3
 288 001a FFF7FEFF 		bl	test_emit_token
 289              		.loc 5 88 10
 290 001e 0023     		movs	r3, #0
 291              		.loc 5 89 1
 292 0020 1846     		mov	r0, r3
 293 0022 1037     		adds	r7, r7, #16
 294              		.cfi_def_cfa_offset 8
 295 0024 BD46     		mov	sp, r7
 296              		.cfi_def_cfa_register 13
 297              		@ sp needed
 298 0026 80BD     		pop	{r7, pc}
 299              		.cfi_endproc
 300              	.LFE437:
 301              		.size	obj_write, .-obj_write
 302              		.section	.rodata
 303              		.align	2
 304              	.LC0:
 305 0000 6E6F7420 		.ascii	"not in hash\000"
 305      696E2068 
 305      61736800 
 306              		.align	2
 307              	.LC1:
 308 000c 73686F75 		.ascii	"should not be in sync\000"
 308      6C64206E 
 308      6F742062 
 308      6520696E 
 308      2073796E 
 309 0022 0000     		.align	2
 310              	.LC2:
 311 0024 756E6578 		.ascii	"unexpected tokens\000"
 311      70656374 
 311      65642074 
 311      6F6B656E 
 311      7300
 312 0036 0000     		.align	2
 313              	.LC3:
 314 0038 00       		.ascii	"\000"
 315 0039 000000   		.align	2
 316              	.LC4:
 317 003c 696E2073 		.ascii	"in sync\000"
 317      796E6300 
 318              		.align	2
 319              	.LC5:
ARM GAS  C:\Users\DEVELO~1\AppData\Local\Temp\ccjH4SDq.s 			page 7


 320 0044 72657475 		.ascii	"returned error\000"
 320      726E6564 
 320      20657272 
 320      6F7200
 321 0053 00       		.align	2
 322              	.LC6:
 323 0054 6E6F7420 		.ascii	"not in sync\000"
 323      696E2073 
 323      796E6300 
 324              		.align	2
 325              	.LC7:
 326 0060 61626364 		.ascii	"abcdefgh\000"
 326      65666768 
 326      00
 327              		.section	.text.oslib_test_006_001_execute,"ax",%progbits
 328              		.align	1
 329              		.syntax unified
 330              		.thumb
 331              		.thumb_func
 332              		.type	oslib_test_006_001_execute, %function
 333              	oslib_test_006_001_execute:
 334              	.LFB438:
 335              		.loc 5 113 46
 336              		.cfi_startproc
 337              		@ args = 0, pretend = 0, frame = 48
 338              		@ frame_needed = 1, uses_anonymous_args = 0
 339 0000 80B5     		push	{r7, lr}
 340              		.cfi_def_cfa_offset 8
 341              		.cfi_offset 7, -8
 342              		.cfi_offset 14, -4
 343 0002 90B0     		sub	sp, sp, #64
 344              		.cfi_def_cfa_offset 72
 345 0004 04AF     		add	r7, sp, #16
 346              		.cfi_def_cfa 7, 56
 347              		.loc 5 116 3
 348 0006 6A4B     		ldr	r3, .L41
 349 0008 0122     		movs	r2, #1
 350 000a 1A60     		str	r2, [r3]
 351              		.loc 5 118 5
 352 000c 694B     		ldr	r3, .L41+4
 353 000e 0393     		str	r3, [sp, #12]
 354 0010 694B     		ldr	r3, .L41+8
 355 0012 0293     		str	r3, [sp, #8]
 356 0014 694B     		ldr	r3, .L41+12
 357 0016 0193     		str	r3, [sp, #4]
 358 0018 3C23     		movs	r3, #60
 359 001a 0093     		str	r3, [sp]
 360 001c 0423     		movs	r3, #4
 361 001e 684A     		ldr	r2, .L41+16
 362 0020 0821     		movs	r1, #8
 363 0022 6848     		ldr	r0, .L41+20
 364 0024 FFF7FEFF 		bl	chCacheObjectInit
 365              		.loc 5 130 3
 366 0028 614B     		ldr	r3, .L41
 367 002a 0222     		movs	r2, #2
 368 002c 1A60     		str	r2, [r3]
 369              	.LBB22:
ARM GAS  C:\Users\DEVELO~1\AppData\Local\Temp\ccjH4SDq.s 			page 8


 370              		.loc 5 134 12
 371 002e 0023     		movs	r3, #0
 372 0030 FB62     		str	r3, [r7, #44]
 373              		.loc 5 134 5
 374 0032 2EE0     		b	.L10
 375              	.L14:
 376              	.LBB23:
 377              		.loc 5 135 28
 378 0034 FA6A     		ldr	r2, [r7, #44]
 379 0036 0021     		movs	r1, #0
 380 0038 6248     		ldr	r0, .L41+20
 381 003a FFF7FEFF 		bl	chCacheGetObject
 382 003e 3860     		str	r0, [r7]
 383              		.loc 5 137 7
 384 0040 3B68     		ldr	r3, [r7]
 385 0042 5B6A     		ldr	r3, [r3, #36]
 386 0044 03F00203 		and	r3, r3, #2
 387 0048 002B     		cmp	r3, #0
 388 004a 14BF     		ite	ne
 389 004c 0123     		movne	r3, #1
 390 004e 0023     		moveq	r3, #0
 391 0050 DBB2     		uxtb	r3, r3
 392 0052 5D49     		ldr	r1, .L41+24
 393 0054 1846     		mov	r0, r3
 394 0056 FFF7FEFF 		bl	__test_assert
 395 005a 0346     		mov	r3, r0
 396 005c 002B     		cmp	r3, #0
 397 005e 40F0B881 		bne	.L9
 398              		.loc 5 138 7
 399 0062 3B68     		ldr	r3, [r7]
 400 0064 5B6A     		ldr	r3, [r3, #36]
 401 0066 03F00803 		and	r3, r3, #8
 402 006a 002B     		cmp	r3, #0
 403 006c 14BF     		ite	ne
 404 006e 0123     		movne	r3, #1
 405 0070 0023     		moveq	r3, #0
 406 0072 DBB2     		uxtb	r3, r3
 407 0074 5549     		ldr	r1, .L41+28
 408 0076 1846     		mov	r0, r3
 409 0078 FFF7FEFF 		bl	__test_assert
 410 007c 0346     		mov	r3, r0
 411 007e 002B     		cmp	r3, #0
 412 0080 40F0A781 		bne	.L9
 413              		.loc 5 140 7 discriminator 2
 414 0084 3968     		ldr	r1, [r7]
 415 0086 4F48     		ldr	r0, .L41+20
 416 0088 FFF7FEFF 		bl	chCacheReleaseObject
 417              	.LBE23:
 418              		.loc 5 134 41 discriminator 2
 419 008c FB6A     		ldr	r3, [r7, #44]
 420 008e 0133     		adds	r3, r3, #1
 421 0090 FB62     		str	r3, [r7, #44]
 422              	.L10:
 423              		.loc 5 134 19 discriminator 1
 424 0092 FB6A     		ldr	r3, [r7, #44]
 425 0094 072B     		cmp	r3, #7
 426 0096 CDD9     		bls	.L14
ARM GAS  C:\Users\DEVELO~1\AppData\Local\Temp\ccjH4SDq.s 			page 9


 427              		.loc 5 143 5
 428 0098 4D49     		ldr	r1, .L41+32
 429 009a 4E48     		ldr	r0, .L41+36
 430 009c FFF7FEFF 		bl	__test_assert_sequence
 431 00a0 0346     		mov	r3, r0
 432 00a2 002B     		cmp	r3, #0
 433 00a4 40F09581 		bne	.L9
 434              	.LBE22:
 435              		.loc 5 149 3
 436 00a8 414B     		ldr	r3, .L41
 437 00aa 0322     		movs	r2, #3
 438 00ac 1A60     		str	r2, [r3]
 439              	.LBB24:
 440              		.loc 5 154 12
 441 00ae 0023     		movs	r3, #0
 442 00b0 BB62     		str	r3, [r7, #40]
 443              		.loc 5 154 5
 444 00b2 6BE0     		b	.L16
 445              	.L22:
 446              	.LBB25:
 447              		.loc 5 155 27
 448 00b4 BA6A     		ldr	r2, [r7, #40]
 449 00b6 0021     		movs	r1, #0
 450 00b8 4248     		ldr	r0, .L41+20
 451 00ba FFF7FEFF 		bl	chCacheGetObject
 452 00be B860     		str	r0, [r7, #8]
 453              		.loc 5 157 7
 454 00c0 BB68     		ldr	r3, [r7, #8]
 455 00c2 5B6A     		ldr	r3, [r3, #36]
 456 00c4 03F00203 		and	r3, r3, #2
 457 00c8 002B     		cmp	r3, #0
 458 00ca 14BF     		ite	ne
 459 00cc 0123     		movne	r3, #1
 460 00ce 0023     		moveq	r3, #0
 461 00d0 DBB2     		uxtb	r3, r3
 462 00d2 3D49     		ldr	r1, .L41+24
 463 00d4 1846     		mov	r0, r3
 464 00d6 FFF7FEFF 		bl	__test_assert
 465 00da 0346     		mov	r3, r0
 466 00dc 002B     		cmp	r3, #0
 467 00de 40F07881 		bne	.L9
 468              		.loc 5 158 7
 469 00e2 BB68     		ldr	r3, [r7, #8]
 470 00e4 5B6A     		ldr	r3, [r3, #36]
 471 00e6 03F00803 		and	r3, r3, #8
 472 00ea 002B     		cmp	r3, #0
 473 00ec 14BF     		ite	ne
 474 00ee 0123     		movne	r3, #1
 475 00f0 0023     		moveq	r3, #0
 476 00f2 DBB2     		uxtb	r3, r3
 477 00f4 3849     		ldr	r1, .L41+40
 478 00f6 1846     		mov	r0, r3
 479 00f8 FFF7FEFF 		bl	__test_assert
 480 00fc 0346     		mov	r3, r0
 481 00fe 002B     		cmp	r3, #0
 482 0100 40F06781 		bne	.L9
 483              		.loc 5 160 15
ARM GAS  C:\Users\DEVELO~1\AppData\Local\Temp\ccjH4SDq.s 			page 10


 484 0104 0022     		movs	r2, #0
 485 0106 B968     		ldr	r1, [r7, #8]
 486 0108 2E48     		ldr	r0, .L41+20
 487 010a FFF7FEFF 		bl	chCacheReadObject
 488 010e 0346     		mov	r3, r0
 489 0110 FB71     		strb	r3, [r7, #7]
 490              		.loc 5 162 7
 491 0112 FB79     		ldrb	r3, [r7, #7]	@ zero_extendqisi2
 492 0114 002B     		cmp	r3, #0
 493 0116 14BF     		ite	ne
 494 0118 0123     		movne	r3, #1
 495 011a 0023     		moveq	r3, #0
 496 011c DBB2     		uxtb	r3, r3
 497 011e 83F00103 		eor	r3, r3, #1
 498 0122 DBB2     		uxtb	r3, r3
 499 0124 03F00103 		and	r3, r3, #1
 500 0128 DBB2     		uxtb	r3, r3
 501 012a 2C49     		ldr	r1, .L41+44
 502 012c 1846     		mov	r0, r3
 503 012e FFF7FEFF 		bl	__test_assert
 504 0132 0346     		mov	r3, r0
 505 0134 002B     		cmp	r3, #0
 506 0136 40F04C81 		bne	.L9
 507              		.loc 5 163 7
 508 013a BB68     		ldr	r3, [r7, #8]
 509 013c 5B6A     		ldr	r3, [r3, #36]
 510 013e 03F00203 		and	r3, r3, #2
 511 0142 002B     		cmp	r3, #0
 512 0144 14BF     		ite	ne
 513 0146 0123     		movne	r3, #1
 514 0148 0023     		moveq	r3, #0
 515 014a DBB2     		uxtb	r3, r3
 516 014c 1E49     		ldr	r1, .L41+24
 517 014e 1846     		mov	r0, r3
 518 0150 FFF7FEFF 		bl	__test_assert
 519 0154 0346     		mov	r3, r0
 520 0156 002B     		cmp	r3, #0
 521 0158 40F03B81 		bne	.L9
 522              		.loc 5 164 7
 523 015c BB68     		ldr	r3, [r7, #8]
 524 015e 5B6A     		ldr	r3, [r3, #36]
 525 0160 03F00803 		and	r3, r3, #8
 526 0164 002B     		cmp	r3, #0
 527 0166 0CBF     		ite	eq
 528 0168 0123     		moveq	r3, #1
 529 016a 0023     		movne	r3, #0
 530 016c DBB2     		uxtb	r3, r3
 531 016e 1C49     		ldr	r1, .L41+48
 532 0170 1846     		mov	r0, r3
 533 0172 FFF7FEFF 		bl	__test_assert
 534 0176 0346     		mov	r3, r0
 535 0178 002B     		cmp	r3, #0
 536 017a 40F02A81 		bne	.L9
 537              		.loc 5 166 7 discriminator 2
 538 017e B968     		ldr	r1, [r7, #8]
 539 0180 1048     		ldr	r0, .L41+20
 540 0182 FFF7FEFF 		bl	chCacheReleaseObject
ARM GAS  C:\Users\DEVELO~1\AppData\Local\Temp\ccjH4SDq.s 			page 11


 541              	.LBE25:
 542              		.loc 5 154 41 discriminator 2
 543 0186 BB6A     		ldr	r3, [r7, #40]
 544 0188 0133     		adds	r3, r3, #1
 545 018a BB62     		str	r3, [r7, #40]
 546              	.L16:
 547              		.loc 5 154 19 discriminator 1
 548 018c BB6A     		ldr	r3, [r7, #40]
 549 018e 072B     		cmp	r3, #7
 550 0190 90D9     		bls	.L22
 551              		.loc 5 169 5
 552 0192 0F49     		ldr	r1, .L41+32
 553 0194 1348     		ldr	r0, .L41+52
 554 0196 FFF7FEFF 		bl	__test_assert_sequence
 555 019a 0346     		mov	r3, r0
 556 019c 002B     		cmp	r3, #0
 557 019e 40F01881 		bne	.L9
 558              	.LBE24:
 559              		.loc 5 175 3
 560 01a2 034B     		ldr	r3, .L41
 561 01a4 0422     		movs	r2, #4
 562 01a6 1A60     		str	r2, [r3]
 563              	.LBB26:
 564              		.loc 5 180 12
 565 01a8 0023     		movs	r3, #0
 566 01aa 7B62     		str	r3, [r7, #36]
 567              		.loc 5 180 5
 568 01ac 8EE0     		b	.L24
 569              	.L42:
 570 01ae 00BF     		.align	2
 571              	.L41:
 572 01b0 00000000 		.word	chtest
 573 01b4 00000000 		.word	obj_write
 574 01b8 00000000 		.word	obj_read
 575 01bc 00000000 		.word	objects
 576 01c0 00000000 		.word	hash_headers
 577 01c4 00000000 		.word	cache1
 578 01c8 00000000 		.word	.LC0
 579 01cc 0C000000 		.word	.LC1
 580 01d0 24000000 		.word	.LC2
 581 01d4 38000000 		.word	.LC3
 582 01d8 3C000000 		.word	.LC4
 583 01dc 44000000 		.word	.LC5
 584 01e0 54000000 		.word	.LC6
 585 01e4 60000000 		.word	.LC7
 586              	.L30:
 587              	.LBB27:
 588              		.loc 5 181 27
 589 01e8 7A6A     		ldr	r2, [r7, #36]
 590 01ea 0021     		movs	r1, #0
 591 01ec 7A48     		ldr	r0, .L43
 592 01ee FFF7FEFF 		bl	chCacheGetObject
 593 01f2 3861     		str	r0, [r7, #16]
 594              		.loc 5 183 7
 595 01f4 3B69     		ldr	r3, [r7, #16]
 596 01f6 5B6A     		ldr	r3, [r3, #36]
 597 01f8 03F00203 		and	r3, r3, #2
ARM GAS  C:\Users\DEVELO~1\AppData\Local\Temp\ccjH4SDq.s 			page 12


 598 01fc 002B     		cmp	r3, #0
 599 01fe 14BF     		ite	ne
 600 0200 0123     		movne	r3, #1
 601 0202 0023     		moveq	r3, #0
 602 0204 DBB2     		uxtb	r3, r3
 603 0206 7549     		ldr	r1, .L43+4
 604 0208 1846     		mov	r0, r3
 605 020a FFF7FEFF 		bl	__test_assert
 606 020e 0346     		mov	r3, r0
 607 0210 002B     		cmp	r3, #0
 608 0212 40F0DE80 		bne	.L9
 609              		.loc 5 184 7
 610 0216 3B69     		ldr	r3, [r7, #16]
 611 0218 5B6A     		ldr	r3, [r3, #36]
 612 021a 03F00803 		and	r3, r3, #8
 613 021e 002B     		cmp	r3, #0
 614 0220 14BF     		ite	ne
 615 0222 0123     		movne	r3, #1
 616 0224 0023     		moveq	r3, #0
 617 0226 DBB2     		uxtb	r3, r3
 618 0228 6D49     		ldr	r1, .L43+8
 619 022a 1846     		mov	r0, r3
 620 022c FFF7FEFF 		bl	__test_assert
 621 0230 0346     		mov	r3, r0
 622 0232 002B     		cmp	r3, #0
 623 0234 40F0CD80 		bne	.L9
 624              		.loc 5 186 15
 625 0238 0122     		movs	r2, #1
 626 023a 3969     		ldr	r1, [r7, #16]
 627 023c 6648     		ldr	r0, .L43
 628 023e FFF7FEFF 		bl	chCacheReadObject
 629 0242 0346     		mov	r3, r0
 630 0244 FB73     		strb	r3, [r7, #15]
 631              		.loc 5 188 7
 632 0246 FB7B     		ldrb	r3, [r7, #15]	@ zero_extendqisi2
 633 0248 002B     		cmp	r3, #0
 634 024a 14BF     		ite	ne
 635 024c 0123     		movne	r3, #1
 636 024e 0023     		moveq	r3, #0
 637 0250 DBB2     		uxtb	r3, r3
 638 0252 83F00103 		eor	r3, r3, #1
 639 0256 DBB2     		uxtb	r3, r3
 640 0258 03F00103 		and	r3, r3, #1
 641 025c DBB2     		uxtb	r3, r3
 642 025e 6149     		ldr	r1, .L43+12
 643 0260 1846     		mov	r0, r3
 644 0262 FFF7FEFF 		bl	__test_assert
 645 0266 0346     		mov	r3, r0
 646 0268 002B     		cmp	r3, #0
 647 026a 40F0B280 		bne	.L9
 648              		.loc 5 190 14
 649 026e 7A6A     		ldr	r2, [r7, #36]
 650 0270 0021     		movs	r1, #0
 651 0272 5948     		ldr	r0, .L43
 652 0274 FFF7FEFF 		bl	chCacheGetObject
 653 0278 3861     		str	r0, [r7, #16]
 654              		.loc 5 192 7
ARM GAS  C:\Users\DEVELO~1\AppData\Local\Temp\ccjH4SDq.s 			page 13


 655 027a 3B69     		ldr	r3, [r7, #16]
 656 027c 5B6A     		ldr	r3, [r3, #36]
 657 027e 03F00203 		and	r3, r3, #2
 658 0282 002B     		cmp	r3, #0
 659 0284 14BF     		ite	ne
 660 0286 0123     		movne	r3, #1
 661 0288 0023     		moveq	r3, #0
 662 028a DBB2     		uxtb	r3, r3
 663 028c 5349     		ldr	r1, .L43+4
 664 028e 1846     		mov	r0, r3
 665 0290 FFF7FEFF 		bl	__test_assert
 666 0294 0346     		mov	r3, r0
 667 0296 002B     		cmp	r3, #0
 668 0298 40F09B80 		bne	.L9
 669              		.loc 5 193 7
 670 029c 3B69     		ldr	r3, [r7, #16]
 671 029e 5B6A     		ldr	r3, [r3, #36]
 672 02a0 03F00803 		and	r3, r3, #8
 673 02a4 002B     		cmp	r3, #0
 674 02a6 0CBF     		ite	eq
 675 02a8 0123     		moveq	r3, #1
 676 02aa 0023     		movne	r3, #0
 677 02ac DBB2     		uxtb	r3, r3
 678 02ae 4E49     		ldr	r1, .L43+16
 679 02b0 1846     		mov	r0, r3
 680 02b2 FFF7FEFF 		bl	__test_assert
 681 02b6 0346     		mov	r3, r0
 682 02b8 002B     		cmp	r3, #0
 683 02ba 40F08A80 		bne	.L9
 684              		.loc 5 195 7 discriminator 2
 685 02be 3969     		ldr	r1, [r7, #16]
 686 02c0 4548     		ldr	r0, .L43
 687 02c2 FFF7FEFF 		bl	chCacheReleaseObject
 688              	.LBE27:
 689              		.loc 5 180 41 discriminator 2
 690 02c6 7B6A     		ldr	r3, [r7, #36]
 691 02c8 0133     		adds	r3, r3, #1
 692 02ca 7B62     		str	r3, [r7, #36]
 693              	.L24:
 694              		.loc 5 180 19 discriminator 1
 695 02cc 7B6A     		ldr	r3, [r7, #36]
 696 02ce 072B     		cmp	r3, #7
 697 02d0 8AD9     		bls	.L30
 698              		.loc 5 198 5
 699 02d2 4649     		ldr	r1, .L43+20
 700 02d4 4648     		ldr	r0, .L43+24
 701 02d6 FFF7FEFF 		bl	__test_assert_sequence
 702 02da 0346     		mov	r3, r0
 703 02dc 002B     		cmp	r3, #0
 704 02de 78D1     		bne	.L9
 705              	.LBE26:
 706              		.loc 5 203 3
 707 02e0 444B     		ldr	r3, .L43+28
 708 02e2 0522     		movs	r2, #5
 709 02e4 1A60     		str	r2, [r3]
 710              	.LBB28:
 711              		.loc 5 207 12
ARM GAS  C:\Users\DEVELO~1\AppData\Local\Temp\ccjH4SDq.s 			page 14


 712 02e6 0423     		movs	r3, #4
 713 02e8 3B62     		str	r3, [r7, #32]
 714              		.loc 5 207 5
 715 02ea 2CE0     		b	.L32
 716              	.L35:
 717              	.LBB29:
 718              		.loc 5 208 27
 719 02ec 3A6A     		ldr	r2, [r7, #32]
 720 02ee 0021     		movs	r1, #0
 721 02f0 3948     		ldr	r0, .L43
 722 02f2 FFF7FEFF 		bl	chCacheGetObject
 723 02f6 7861     		str	r0, [r7, #20]
 724              		.loc 5 210 7
 725 02f8 7B69     		ldr	r3, [r7, #20]
 726 02fa 5B6A     		ldr	r3, [r3, #36]
 727 02fc 03F00203 		and	r3, r3, #2
 728 0300 002B     		cmp	r3, #0
 729 0302 14BF     		ite	ne
 730 0304 0123     		movne	r3, #1
 731 0306 0023     		moveq	r3, #0
 732 0308 DBB2     		uxtb	r3, r3
 733 030a 3449     		ldr	r1, .L43+4
 734 030c 1846     		mov	r0, r3
 735 030e FFF7FEFF 		bl	__test_assert
 736 0312 0346     		mov	r3, r0
 737 0314 002B     		cmp	r3, #0
 738 0316 5CD1     		bne	.L9
 739              		.loc 5 211 7
 740 0318 7B69     		ldr	r3, [r7, #20]
 741 031a 5B6A     		ldr	r3, [r3, #36]
 742 031c 03F00803 		and	r3, r3, #8
 743 0320 002B     		cmp	r3, #0
 744 0322 0CBF     		ite	eq
 745 0324 0123     		moveq	r3, #1
 746 0326 0023     		movne	r3, #0
 747 0328 DBB2     		uxtb	r3, r3
 748 032a 2F49     		ldr	r1, .L43+16
 749 032c 1846     		mov	r0, r3
 750 032e FFF7FEFF 		bl	__test_assert
 751 0332 0346     		mov	r3, r0
 752 0334 002B     		cmp	r3, #0
 753 0336 4CD1     		bne	.L9
 754              		.loc 5 213 7 discriminator 2
 755 0338 7969     		ldr	r1, [r7, #20]
 756 033a 2748     		ldr	r0, .L43
 757 033c FFF7FEFF 		bl	chCacheReleaseObject
 758              	.LBE29:
 759              		.loc 5 207 51 discriminator 2
 760 0340 3B6A     		ldr	r3, [r7, #32]
 761 0342 0133     		adds	r3, r3, #1
 762 0344 3B62     		str	r3, [r7, #32]
 763              	.L32:
 764              		.loc 5 207 29 discriminator 1
 765 0346 3B6A     		ldr	r3, [r7, #32]
 766 0348 072B     		cmp	r3, #7
 767 034a CFD9     		bls	.L35
 768              		.loc 5 216 5
ARM GAS  C:\Users\DEVELO~1\AppData\Local\Temp\ccjH4SDq.s 			page 15


 769 034c 2749     		ldr	r1, .L43+20
 770 034e 2A48     		ldr	r0, .L43+32
 771 0350 FFF7FEFF 		bl	__test_assert_sequence
 772 0354 0346     		mov	r3, r0
 773 0356 002B     		cmp	r3, #0
 774 0358 3BD1     		bne	.L9
 775              	.LBE28:
 776              		.loc 5 221 3
 777 035a 264B     		ldr	r3, .L43+28
 778 035c 0622     		movs	r2, #6
 779 035e 1A60     		str	r2, [r3]
 780              	.LBB30:
 781              		.loc 5 225 12
 782 0360 0023     		movs	r3, #0
 783 0362 FB61     		str	r3, [r7, #28]
 784              		.loc 5 225 5
 785 0364 2CE0     		b	.L37
 786              	.L40:
 787              	.LBB31:
 788              		.loc 5 226 27
 789 0366 FA69     		ldr	r2, [r7, #28]
 790 0368 0021     		movs	r1, #0
 791 036a 1B48     		ldr	r0, .L43
 792 036c FFF7FEFF 		bl	chCacheGetObject
 793 0370 B861     		str	r0, [r7, #24]
 794              		.loc 5 228 7
 795 0372 BB69     		ldr	r3, [r7, #24]
 796 0374 5B6A     		ldr	r3, [r3, #36]
 797 0376 03F00203 		and	r3, r3, #2
 798 037a 002B     		cmp	r3, #0
 799 037c 14BF     		ite	ne
 800 037e 0123     		movne	r3, #1
 801 0380 0023     		moveq	r3, #0
 802 0382 DBB2     		uxtb	r3, r3
 803 0384 1549     		ldr	r1, .L43+4
 804 0386 1846     		mov	r0, r3
 805 0388 FFF7FEFF 		bl	__test_assert
 806 038c 0346     		mov	r3, r0
 807 038e 002B     		cmp	r3, #0
 808 0390 1FD1     		bne	.L9
 809              		.loc 5 229 7
 810 0392 BB69     		ldr	r3, [r7, #24]
 811 0394 5B6A     		ldr	r3, [r3, #36]
 812 0396 03F00803 		and	r3, r3, #8
 813 039a 002B     		cmp	r3, #0
 814 039c 14BF     		ite	ne
 815 039e 0123     		movne	r3, #1
 816 03a0 0023     		moveq	r3, #0
 817 03a2 DBB2     		uxtb	r3, r3
 818 03a4 0E49     		ldr	r1, .L43+8
 819 03a6 1846     		mov	r0, r3
 820 03a8 FFF7FEFF 		bl	__test_assert
 821 03ac 0346     		mov	r3, r0
 822 03ae 002B     		cmp	r3, #0
 823 03b0 0FD1     		bne	.L9
 824              		.loc 5 231 7 discriminator 2
 825 03b2 B969     		ldr	r1, [r7, #24]
ARM GAS  C:\Users\DEVELO~1\AppData\Local\Temp\ccjH4SDq.s 			page 16


 826 03b4 0848     		ldr	r0, .L43
 827 03b6 FFF7FEFF 		bl	chCacheReleaseObject
 828              	.LBE31:
 829              		.loc 5 225 35 discriminator 2
 830 03ba FB69     		ldr	r3, [r7, #28]
 831 03bc 0133     		adds	r3, r3, #1
 832 03be FB61     		str	r3, [r7, #28]
 833              	.L37:
 834              		.loc 5 225 19 discriminator 1
 835 03c0 FB69     		ldr	r3, [r7, #28]
 836 03c2 032B     		cmp	r3, #3
 837 03c4 CFD9     		bls	.L40
 838              		.loc 5 234 5
 839 03c6 0949     		ldr	r1, .L43+20
 840 03c8 0B48     		ldr	r0, .L43+32
 841 03ca FFF7FEFF 		bl	__test_assert_sequence
 842 03ce 0346     		mov	r3, r0
 843 03d0 002B     		cmp	r3, #0
 844              	.L9:
 845              	.LBE30:
 846              		.loc 5 237 1
 847 03d2 3037     		adds	r7, r7, #48
 848              		.cfi_def_cfa_offset 8
 849 03d4 BD46     		mov	sp, r7
 850              		.cfi_def_cfa_register 13
 851              		@ sp needed
 852 03d6 80BD     		pop	{r7, pc}
 853              	.L44:
 854              		.align	2
 855              	.L43:
 856 03d8 00000000 		.word	cache1
 857 03dc 00000000 		.word	.LC0
 858 03e0 3C000000 		.word	.LC4
 859 03e4 44000000 		.word	.LC5
 860 03e8 54000000 		.word	.LC6
 861 03ec 24000000 		.word	.LC2
 862 03f0 60000000 		.word	.LC7
 863 03f4 00000000 		.word	chtest
 864 03f8 38000000 		.word	.LC3
 865              		.cfi_endproc
 866              	.LFE438:
 867              		.size	oslib_test_006_001_execute, .-oslib_test_006_001_execute
 868              		.section	.rodata
 869 0069 000000   		.align	2
 870              	.LC8:
 871 006c 43616368 		.ascii	"Cache initialization\000"
 871      6520696E 
 871      69746961 
 871      6C697A61 
 871      74696F6E 
 872              		.section	.rodata.oslib_test_006_001,"a"
 873              		.align	2
 874              		.type	oslib_test_006_001, %object
 875              		.size	oslib_test_006_001, 16
 876              	oslib_test_006_001:
 877 0000 6C000000 		.word	.LC8
 878 0004 00000000 		.word	0
ARM GAS  C:\Users\DEVELO~1\AppData\Local\Temp\ccjH4SDq.s 			page 17


 879 0008 00000000 		.word	0
 880 000c 00000000 		.word	oslib_test_006_001_execute
 881              		.global	oslib_test_sequence_006_array
 882              		.section	.rodata.oslib_test_sequence_006_array,"a"
 883              		.align	2
 884              		.type	oslib_test_sequence_006_array, %object
 885              		.size	oslib_test_sequence_006_array, 8
 886              	oslib_test_sequence_006_array:
 887 0000 00000000 		.word	oslib_test_006_001
 888 0004 00000000 		.word	0
 889              		.global	oslib_test_sequence_006
 890              		.section	.rodata
 891 0081 000000   		.align	2
 892              	.LC9:
 893 0084 4F626A65 		.ascii	"Objects Caches\000"
 893      63747320 
 893      43616368 
 893      657300
 894              		.section	.rodata.oslib_test_sequence_006,"a"
 895              		.align	2
 896              		.type	oslib_test_sequence_006, %object
 897              		.size	oslib_test_sequence_006, 8
 898              	oslib_test_sequence_006:
 899 0000 84000000 		.word	.LC9
 900 0004 00000000 		.word	oslib_test_sequence_006_array
 901              		.text
 902              	.Letext0:
 903              		.file 6 "c:\\chibistudio\\tools\\gnu tools arm embedded\\11.3 2022.08\\lib\\gcc\\arm-none-eabi\\11
 904              		.file 7 "c:\\chibistudio\\tools\\gnu tools arm embedded\\11.3 2022.08\\arm-none-eabi\\include\\mac
 905              		.file 8 "c:\\chibistudio\\tools\\gnu tools arm embedded\\11.3 2022.08\\arm-none-eabi\\include\\sys
 906              		.file 9 "../../../os/rt/include/chearly.h"
 907              		.file 10 "../../../os/rt/include/chlists.h"
 908              		.file 11 "../../../os/rt/include/chsem.h"
 909              		.file 12 "../../../os/hal/include/hal_streams.h"
 910              		.file 13 "../../../os/test/include/ch_test.h"
 911              		.file 14 "../../../test/oslib/source/test/oslib_test_sequence_006.h"
 912              		.file 15 "../../../os/rt/include/chschd.h"
 913              		.section	.debug_info,"",%progbits
 914              	.Ldebug_info0:
 915 0000 260A0000 		.4byte	0xa26
 916 0004 0500     		.2byte	0x5
 917 0006 01       		.byte	0x1
 918 0007 04       		.byte	0x4
 919 0008 00000000 		.4byte	.Ldebug_abbrev0
 920 000c 1A       		.uleb128 0x1a
 921 000d 5E000000 		.4byte	.LASF108
 922 0011 1D       		.byte	0x1d
 923 0012 70030000 		.4byte	.LASF109
 924 0016 49050000 		.4byte	.LASF110
 925 001a 0C000000 		.4byte	.LLRL0
 926 001e 00000000 		.4byte	0
 927 0022 00000000 		.4byte	.Ldebug_line0
 928 0026 1B       		.uleb128 0x1b
 929 0027 04       		.byte	0x4
 930 0028 05       		.byte	0x5
 931 0029 696E7400 		.ascii	"int\000"
 932 002d 03       		.uleb128 0x3
ARM GAS  C:\Users\DEVELO~1\AppData\Local\Temp\ccjH4SDq.s 			page 18


 933 002e FB000000 		.4byte	.LASF4
 934 0032 06       		.byte	0x6
 935 0033 D1       		.byte	0xd1
 936 0034 17       		.byte	0x17
 937 0035 39000000 		.4byte	0x39
 938 0039 05       		.uleb128 0x5
 939 003a 04       		.byte	0x4
 940 003b 07       		.byte	0x7
 941 003c D7030000 		.4byte	.LASF0
 942 0040 05       		.uleb128 0x5
 943 0041 08       		.byte	0x8
 944 0042 05       		.byte	0x5
 945 0043 66020000 		.4byte	.LASF1
 946 0047 05       		.uleb128 0x5
 947 0048 08       		.byte	0x8
 948 0049 04       		.byte	0x4
 949 004a 00000000 		.4byte	.LASF2
 950 004e 05       		.uleb128 0x5
 951 004f 01       		.byte	0x1
 952 0050 06       		.byte	0x6
 953 0051 64030000 		.4byte	.LASF3
 954 0055 03       		.uleb128 0x3
 955 0056 AB020000 		.4byte	.LASF5
 956 005a 07       		.byte	0x7
 957 005b 2B       		.byte	0x2b
 958 005c 18       		.byte	0x18
 959 005d 61000000 		.4byte	0x61
 960 0061 05       		.uleb128 0x5
 961 0062 01       		.byte	0x1
 962 0063 08       		.byte	0x8
 963 0064 0F030000 		.4byte	.LASF6
 964 0068 05       		.uleb128 0x5
 965 0069 02       		.byte	0x2
 966 006a 05       		.byte	0x5
 967 006b F1000000 		.4byte	.LASF7
 968 006f 05       		.uleb128 0x5
 969 0070 02       		.byte	0x2
 970 0071 07       		.byte	0x7
 971 0072 14040000 		.4byte	.LASF8
 972 0076 03       		.uleb128 0x3
 973 0077 55030000 		.4byte	.LASF9
 974 007b 07       		.byte	0x7
 975 007c 4D       		.byte	0x4d
 976 007d 18       		.byte	0x18
 977 007e 82000000 		.4byte	0x82
 978 0082 05       		.uleb128 0x5
 979 0083 04       		.byte	0x4
 980 0084 05       		.byte	0x5
 981 0085 2E030000 		.4byte	.LASF10
 982 0089 03       		.uleb128 0x3
 983 008a DD020000 		.4byte	.LASF11
 984 008e 07       		.byte	0x7
 985 008f 4F       		.byte	0x4f
 986 0090 19       		.byte	0x19
 987 0091 95000000 		.4byte	0x95
 988 0095 05       		.uleb128 0x5
 989 0096 04       		.byte	0x4
ARM GAS  C:\Users\DEVELO~1\AppData\Local\Temp\ccjH4SDq.s 			page 19


 990 0097 07       		.byte	0x7
 991 0098 EA030000 		.4byte	.LASF12
 992 009c 05       		.uleb128 0x5
 993 009d 08       		.byte	0x8
 994 009e 07       		.byte	0x7
 995 009f AA030000 		.4byte	.LASF13
 996 00a3 03       		.uleb128 0x3
 997 00a4 C2010000 		.4byte	.LASF14
 998 00a8 08       		.byte	0x8
 999 00a9 18       		.byte	0x18
 1000 00aa 13       		.byte	0x13
 1001 00ab 55000000 		.4byte	0x55
 1002 00af 07       		.uleb128 0x7
 1003 00b0 A3000000 		.4byte	0xa3
 1004 00b4 03       		.uleb128 0x3
 1005 00b5 96040000 		.4byte	.LASF15
 1006 00b9 08       		.byte	0x8
 1007 00ba 2C       		.byte	0x2c
 1008 00bb 13       		.byte	0x13
 1009 00bc 76000000 		.4byte	0x76
 1010 00c0 03       		.uleb128 0x3
 1011 00c1 C1030000 		.4byte	.LASF16
 1012 00c5 08       		.byte	0x8
 1013 00c6 30       		.byte	0x30
 1014 00c7 14       		.byte	0x14
 1015 00c8 89000000 		.4byte	0x89
 1016 00cc 03       		.uleb128 0x3
 1017 00cd 09060000 		.4byte	.LASF17
 1018 00d1 09       		.byte	0x9
 1019 00d2 58       		.byte	0x58
 1020 00d3 19       		.byte	0x19
 1021 00d4 B4000000 		.4byte	0xb4
 1022 00d8 03       		.uleb128 0x3
 1023 00d9 9E040000 		.4byte	.LASF18
 1024 00dd 09       		.byte	0x9
 1025 00de 5C       		.byte	0x5c
 1026 00df 19       		.byte	0x19
 1027 00e0 B4000000 		.4byte	0xb4
 1028 00e4 03       		.uleb128 0x3
 1029 00e5 77040000 		.4byte	.LASF19
 1030 00e9 09       		.byte	0x9
 1031 00ea 5D       		.byte	0x5d
 1032 00eb 19       		.byte	0x19
 1033 00ec C0000000 		.4byte	0xc0
 1034 00f0 04       		.uleb128 0x4
 1035 00f1 FC000000 		.4byte	0xfc
 1036 00f5 05       		.uleb128 0x5
 1037 00f6 01       		.byte	0x1
 1038 00f7 08       		.byte	0x8
 1039 00f8 68040000 		.4byte	.LASF20
 1040 00fc 07       		.uleb128 0x7
 1041 00fd F5000000 		.4byte	0xf5
 1042 0101 03       		.uleb128 0x3
 1043 0102 DB010000 		.4byte	.LASF21
 1044 0106 0A       		.byte	0xa
 1045 0107 3F       		.byte	0x3f
 1046 0108 19       		.byte	0x19
ARM GAS  C:\Users\DEVELO~1\AppData\Local\Temp\ccjH4SDq.s 			page 20


 1047 0109 0D010000 		.4byte	0x10d
 1048 010d 08       		.uleb128 0x8
 1049 010e 40050000 		.4byte	.LASF24
 1050 0112 08       		.byte	0x8
 1051 0113 0A       		.byte	0xa
 1052 0114 45       		.byte	0x45
 1053 0115 08       		.byte	0x8
 1054 0116 35010000 		.4byte	0x135
 1055 011a 01       		.uleb128 0x1
 1056 011b 0F060000 		.4byte	.LASF22
 1057 011f 0A       		.byte	0xa
 1058 0120 46       		.byte	0x46
 1059 0121 1A       		.byte	0x1a
 1060 0122 35010000 		.4byte	0x135
 1061 0126 00       		.byte	0
 1062 0127 01       		.uleb128 0x1
 1063 0128 5F030000 		.4byte	.LASF23
 1064 012c 0A       		.byte	0xa
 1065 012d 47       		.byte	0x47
 1066 012e 1A       		.byte	0x1a
 1067 012f 35010000 		.4byte	0x135
 1068 0133 04       		.byte	0x4
 1069 0134 00       		.byte	0
 1070 0135 04       		.uleb128 0x4
 1071 0136 01010000 		.4byte	0x101
 1072 013a 1C       		.uleb128 0x1c
 1073 013b 04       		.byte	0x4
 1074 013c 08       		.uleb128 0x8
 1075 013d 09050000 		.4byte	.LASF25
 1076 0141 0C       		.byte	0xc
 1077 0142 0B       		.byte	0xb
 1078 0143 34       		.byte	0x34
 1079 0144 10       		.byte	0x10
 1080 0145 64010000 		.4byte	0x164
 1081 0149 01       		.uleb128 0x1
 1082 014a 1B010000 		.4byte	.LASF26
 1083 014e 0B       		.byte	0xb
 1084 014f 35       		.byte	0x35
 1085 0150 19       		.byte	0x19
 1086 0151 01010000 		.4byte	0x101
 1087 0155 00       		.byte	0
 1088 0156 0D       		.uleb128 0xd
 1089 0157 636E7400 		.ascii	"cnt\000"
 1090 015b 0B       		.byte	0xb
 1091 015c 37       		.byte	0x37
 1092 015d 19       		.byte	0x19
 1093 015e D8000000 		.4byte	0xd8
 1094 0162 08       		.byte	0x8
 1095 0163 00       		.byte	0
 1096 0164 03       		.uleb128 0x3
 1097 0165 F5010000 		.4byte	.LASF27
 1098 0169 0B       		.byte	0xb
 1099 016a 38       		.byte	0x38
 1100 016b 03       		.byte	0x3
 1101 016c 3C010000 		.4byte	0x13c
 1102 0170 05       		.uleb128 0x5
 1103 0171 01       		.byte	0x1
ARM GAS  C:\Users\DEVELO~1\AppData\Local\Temp\ccjH4SDq.s 			page 21


 1104 0172 02       		.byte	0x2
 1105 0173 B6040000 		.4byte	.LASF28
 1106 0177 04       		.uleb128 0x4
 1107 0178 A3000000 		.4byte	0xa3
 1108 017c 03       		.uleb128 0x3
 1109 017d 74020000 		.4byte	.LASF29
 1110 0181 04       		.byte	0x4
 1111 0182 44       		.byte	0x44
 1112 0183 12       		.byte	0x12
 1113 0184 C0000000 		.4byte	0xc0
 1114 0188 03       		.uleb128 0x3
 1115 0189 B6050000 		.4byte	.LASF30
 1116 018d 04       		.byte	0x4
 1117 018e 49       		.byte	0x49
 1118 018f 22       		.byte	0x22
 1119 0190 94010000 		.4byte	0x194
 1120 0194 08       		.uleb128 0x8
 1121 0195 02040000 		.4byte	.LASF31
 1122 0199 08       		.byte	0x8
 1123 019a 04       		.byte	0x4
 1124 019b 75       		.byte	0x75
 1125 019c 08       		.byte	0x8
 1126 019d BC010000 		.4byte	0x1bc
 1127 01a1 01       		.uleb128 0x1
 1128 01a2 4B030000 		.4byte	.LASF32
 1129 01a6 04       		.byte	0x4
 1130 01a7 79       		.byte	0x79
 1131 01a8 1A       		.byte	0x1a
 1132 01a9 64030000 		.4byte	0x364
 1133 01ad 00       		.byte	0
 1134 01ae 01       		.uleb128 0x1
 1135 01af 35040000 		.4byte	.LASF33
 1136 01b3 04       		.byte	0x4
 1137 01b4 7D       		.byte	0x7d
 1138 01b5 1A       		.byte	0x1a
 1139 01b6 64030000 		.4byte	0x364
 1140 01ba 04       		.byte	0x4
 1141 01bb 00       		.byte	0
 1142 01bc 03       		.uleb128 0x3
 1143 01bd 29050000 		.4byte	.LASF34
 1144 01c1 04       		.byte	0x4
 1145 01c2 4E       		.byte	0x4e
 1146 01c3 21       		.byte	0x21
 1147 01c4 C8010000 		.4byte	0x1c8
 1148 01c8 08       		.uleb128 0x8
 1149 01c9 F1020000 		.4byte	.LASF35
 1150 01cd 10       		.byte	0x10
 1151 01ce 04       		.byte	0x4
 1152 01cf 83       		.byte	0x83
 1153 01d0 08       		.byte	0x8
 1154 01d1 0A020000 		.4byte	0x20a
 1155 01d5 01       		.uleb128 0x1
 1156 01d6 4B030000 		.4byte	.LASF32
 1157 01da 04       		.byte	0x4
 1158 01db 87       		.byte	0x87
 1159 01dc 1A       		.byte	0x1a
 1160 01dd 64030000 		.4byte	0x364
ARM GAS  C:\Users\DEVELO~1\AppData\Local\Temp\ccjH4SDq.s 			page 22


 1161 01e1 00       		.byte	0
 1162 01e2 01       		.uleb128 0x1
 1163 01e3 35040000 		.4byte	.LASF33
 1164 01e7 04       		.byte	0x4
 1165 01e8 8B       		.byte	0x8b
 1166 01e9 1A       		.byte	0x1a
 1167 01ea 64030000 		.4byte	0x364
 1168 01ee 04       		.byte	0x4
 1169 01ef 01       		.uleb128 0x1
 1170 01f0 16050000 		.4byte	.LASF36
 1171 01f4 04       		.byte	0x4
 1172 01f5 8F       		.byte	0x8f
 1173 01f6 1A       		.byte	0x1a
 1174 01f7 64030000 		.4byte	0x364
 1175 01fb 08       		.byte	0x8
 1176 01fc 01       		.uleb128 0x1
 1177 01fd DA050000 		.4byte	.LASF37
 1178 0201 04       		.byte	0x4
 1179 0202 93       		.byte	0x93
 1180 0203 1A       		.byte	0x1a
 1181 0204 64030000 		.4byte	0x364
 1182 0208 0C       		.byte	0xc
 1183 0209 00       		.byte	0
 1184 020a 03       		.uleb128 0x3
 1185 020b 66010000 		.4byte	.LASF38
 1186 020f 04       		.byte	0x4
 1187 0210 53       		.byte	0x53
 1188 0211 1D       		.byte	0x1d
 1189 0212 16020000 		.4byte	0x216
 1190 0216 08       		.uleb128 0x8
 1191 0217 0E010000 		.4byte	.LASF39
 1192 021b 2C       		.byte	0x2c
 1193 021c 04       		.byte	0x4
 1194 021d 99       		.byte	0x99
 1195 021e 08       		.byte	0x8
 1196 021f 99020000 		.4byte	0x299
 1197 0223 01       		.uleb128 0x1
 1198 0224 4B030000 		.4byte	.LASF32
 1199 0228 04       		.byte	0x4
 1200 0229 9D       		.byte	0x9d
 1201 022a 1A       		.byte	0x1a
 1202 022b 64030000 		.4byte	0x364
 1203 022f 00       		.byte	0
 1204 0230 01       		.uleb128 0x1
 1205 0231 35040000 		.4byte	.LASF33
 1206 0235 04       		.byte	0x4
 1207 0236 A1       		.byte	0xa1
 1208 0237 1A       		.byte	0x1a
 1209 0238 64030000 		.4byte	0x364
 1210 023c 04       		.byte	0x4
 1211 023d 01       		.uleb128 0x1
 1212 023e 16050000 		.4byte	.LASF36
 1213 0242 04       		.byte	0x4
 1214 0243 A5       		.byte	0xa5
 1215 0244 1A       		.byte	0x1a
 1216 0245 64030000 		.4byte	0x364
 1217 0249 08       		.byte	0x8
ARM GAS  C:\Users\DEVELO~1\AppData\Local\Temp\ccjH4SDq.s 			page 23


 1218 024a 01       		.uleb128 0x1
 1219 024b DA050000 		.4byte	.LASF37
 1220 024f 04       		.byte	0x4
 1221 0250 A9       		.byte	0xa9
 1222 0251 1A       		.byte	0x1a
 1223 0252 64030000 		.4byte	0x364
 1224 0256 0C       		.byte	0xc
 1225 0257 01       		.uleb128 0x1
 1226 0258 48010000 		.4byte	.LASF40
 1227 025c 04       		.byte	0x4
 1228 025d AD       		.byte	0xad
 1229 025e 19       		.byte	0x19
 1230 025f C0000000 		.4byte	0xc0
 1231 0263 10       		.byte	0x10
 1232 0264 01       		.uleb128 0x1
 1233 0265 D5020000 		.4byte	.LASF41
 1234 0269 04       		.byte	0x4
 1235 026a B1       		.byte	0xb1
 1236 026b 19       		.byte	0x19
 1237 026c C0000000 		.4byte	0xc0
 1238 0270 14       		.byte	0x14
 1239 0271 01       		.uleb128 0x1
 1240 0272 07030000 		.4byte	.LASF42
 1241 0276 04       		.byte	0x4
 1242 0277 B5       		.byte	0xb5
 1243 0278 19       		.byte	0x19
 1244 0279 64010000 		.4byte	0x164
 1245 027d 18       		.byte	0x18
 1246 027e 01       		.uleb128 0x1
 1247 027f 29010000 		.4byte	.LASF43
 1248 0283 04       		.byte	0x4
 1249 0284 B9       		.byte	0xb9
 1250 0285 19       		.byte	0x19
 1251 0286 7C010000 		.4byte	0x17c
 1252 028a 24       		.byte	0x24
 1253 028b 01       		.uleb128 0x1
 1254 028c D5050000 		.4byte	.LASF44
 1255 0290 04       		.byte	0x4
 1256 0291 BF       		.byte	0xbf
 1257 0292 1A       		.byte	0x1a
 1258 0293 3A010000 		.4byte	0x13a
 1259 0297 28       		.byte	0x28
 1260 0298 00       		.byte	0
 1261 0299 03       		.uleb128 0x3
 1262 029a A1010000 		.4byte	.LASF45
 1263 029e 04       		.byte	0x4
 1264 029f 58       		.byte	0x58
 1265 02a0 21       		.byte	0x21
 1266 02a1 A5020000 		.4byte	0x2a5
 1267 02a5 08       		.uleb128 0x8
 1268 02a6 B1010000 		.4byte	.LASF46
 1269 02aa 44       		.byte	0x44
 1270 02ab 04       		.byte	0x4
 1271 02ac C5       		.byte	0xc5
 1272 02ad 08       		.byte	0x8
 1273 02ae 35030000 		.4byte	0x335
 1274 02b2 01       		.uleb128 0x1
ARM GAS  C:\Users\DEVELO~1\AppData\Local\Temp\ccjH4SDq.s 			page 24


 1275 02b3 D1030000 		.4byte	.LASF47
 1276 02b7 04       		.byte	0x4
 1277 02b8 C9       		.byte	0xc9
 1278 02b9 19       		.byte	0x19
 1279 02ba E4000000 		.4byte	0xe4
 1280 02be 00       		.byte	0
 1281 02bf 01       		.uleb128 0x1
 1282 02c0 E4030000 		.4byte	.LASF48
 1283 02c4 04       		.byte	0x4
 1284 02c5 CD       		.byte	0xcd
 1285 02c6 1A       		.byte	0x1a
 1286 02c7 75030000 		.4byte	0x375
 1287 02cb 04       		.byte	0x4
 1288 02cc 01       		.uleb128 0x1
 1289 02cd 1F050000 		.4byte	.LASF49
 1290 02d1 04       		.byte	0x4
 1291 02d2 D1       		.byte	0xd1
 1292 02d3 19       		.byte	0x19
 1293 02d4 E4000000 		.4byte	0xe4
 1294 02d8 08       		.byte	0x8
 1295 02d9 01       		.uleb128 0x1
 1296 02da 0E020000 		.4byte	.LASF50
 1297 02de 04       		.byte	0x4
 1298 02df D5       		.byte	0xd5
 1299 02e0 19       		.byte	0x19
 1300 02e1 2D000000 		.4byte	0x2d
 1301 02e5 0C       		.byte	0xc
 1302 02e6 01       		.uleb128 0x1
 1303 02e7 35000000 		.4byte	.LASF51
 1304 02eb 04       		.byte	0x4
 1305 02ec D9       		.byte	0xd9
 1306 02ed 1A       		.byte	0x1a
 1307 02ee 3A010000 		.4byte	0x13a
 1308 02f2 10       		.byte	0x10
 1309 02f3 0D       		.uleb128 0xd
 1310 02f4 6C727500 		.ascii	"lru\000"
 1311 02f8 04       		.byte	0x4
 1312 02f9 DD       		.byte	0xdd
 1313 02fa 19       		.byte	0x19
 1314 02fb BC010000 		.4byte	0x1bc
 1315 02ff 14       		.byte	0x14
 1316 0300 01       		.uleb128 0x1
 1317 0301 6D040000 		.4byte	.LASF52
 1318 0305 04       		.byte	0x4
 1319 0306 E1       		.byte	0xe1
 1320 0307 19       		.byte	0x19
 1321 0308 64010000 		.4byte	0x164
 1322 030c 24       		.byte	0x24
 1323 030d 01       		.uleb128 0x1
 1324 030e 56000000 		.4byte	.LASF53
 1325 0312 04       		.byte	0x4
 1326 0313 E5       		.byte	0xe5
 1327 0314 19       		.byte	0x19
 1328 0315 64010000 		.4byte	0x164
 1329 0319 30       		.byte	0x30
 1330 031a 01       		.uleb128 0x1
 1331 031b FC030000 		.4byte	.LASF54
ARM GAS  C:\Users\DEVELO~1\AppData\Local\Temp\ccjH4SDq.s 			page 25


 1332 031f 04       		.byte	0x4
 1333 0320 E9       		.byte	0xe9
 1334 0321 19       		.byte	0x19
 1335 0322 35030000 		.4byte	0x335
 1336 0326 3C       		.byte	0x3c
 1337 0327 01       		.uleb128 0x1
 1338 0328 CA030000 		.4byte	.LASF55
 1339 032c 04       		.byte	0x4
 1340 032d ED       		.byte	0xed
 1341 032e 19       		.byte	0x19
 1342 032f 69030000 		.4byte	0x369
 1343 0333 40       		.byte	0x40
 1344 0334 00       		.byte	0
 1345 0335 03       		.uleb128 0x3
 1346 0336 3F040000 		.4byte	.LASF56
 1347 033a 04       		.byte	0x4
 1348 033b 62       		.byte	0x62
 1349 033c 10       		.byte	0x10
 1350 033d 41030000 		.4byte	0x341
 1351 0341 04       		.uleb128 0x4
 1352 0342 46030000 		.4byte	0x346
 1353 0346 09       		.uleb128 0x9
 1354 0347 70010000 		.4byte	0x170
 1355 034b 5F030000 		.4byte	0x35f
 1356 034f 02       		.uleb128 0x2
 1357 0350 5F030000 		.4byte	0x35f
 1358 0354 02       		.uleb128 0x2
 1359 0355 64030000 		.4byte	0x364
 1360 0359 02       		.uleb128 0x2
 1361 035a 70010000 		.4byte	0x170
 1362 035e 00       		.byte	0
 1363 035f 04       		.uleb128 0x4
 1364 0360 99020000 		.4byte	0x299
 1365 0364 04       		.uleb128 0x4
 1366 0365 0A020000 		.4byte	0x20a
 1367 0369 03       		.uleb128 0x3
 1368 036a 41020000 		.4byte	.LASF57
 1369 036e 04       		.byte	0x4
 1370 036f 6E       		.byte	0x6e
 1371 0370 10       		.byte	0x10
 1372 0371 41030000 		.4byte	0x341
 1373 0375 04       		.uleb128 0x4
 1374 0376 88010000 		.4byte	0x188
 1375 037a 08       		.uleb128 0x8
 1376 037b 14060000 		.4byte	.LASF58
 1377 037f 14       		.byte	0x14
 1378 0380 0C       		.byte	0xc
 1379 0381 4F       		.byte	0x4f
 1380 0382 08       		.byte	0x8
 1381 0383 C9030000 		.4byte	0x3c9
 1382 0387 01       		.uleb128 0x1
 1383 0388 7F020000 		.4byte	.LASF59
 1384 038c 0C       		.byte	0xc
 1385 038d 50       		.byte	0x50
 1386 038e 03       		.byte	0x3
 1387 038f 2D000000 		.4byte	0x2d
 1388 0393 00       		.byte	0
ARM GAS  C:\Users\DEVELO~1\AppData\Local\Temp\ccjH4SDq.s 			page 26


 1389 0394 01       		.uleb128 0x1
 1390 0395 2F000000 		.4byte	.LASF60
 1391 0399 0C       		.byte	0xc
 1392 039a 50       		.byte	0x50
 1393 039b 03       		.byte	0x3
 1394 039c EC030000 		.4byte	0x3ec
 1395 03a0 04       		.byte	0x4
 1396 03a1 01       		.uleb128 0x1
 1397 03a2 61020000 		.4byte	.LASF61
 1398 03a6 0C       		.byte	0xc
 1399 03a7 50       		.byte	0x50
 1400 03a8 03       		.byte	0x3
 1401 03a9 0A040000 		.4byte	0x40a
 1402 03ad 08       		.byte	0x8
 1403 03ae 0D       		.uleb128 0xd
 1404 03af 70757400 		.ascii	"put\000"
 1405 03b3 0C       		.byte	0xc
 1406 03b4 50       		.byte	0x50
 1407 03b5 03       		.byte	0x3
 1408 03b6 23040000 		.4byte	0x423
 1409 03ba 0C       		.byte	0xc
 1410 03bb 0D       		.uleb128 0xd
 1411 03bc 67657400 		.ascii	"get\000"
 1412 03c0 0C       		.byte	0xc
 1413 03c1 50       		.byte	0x50
 1414 03c2 03       		.byte	0x3
 1415 03c3 37040000 		.4byte	0x437
 1416 03c7 10       		.byte	0x10
 1417 03c8 00       		.byte	0
 1418 03c9 07       		.uleb128 0x7
 1419 03ca 7A030000 		.4byte	0x37a
 1420 03ce 09       		.uleb128 0x9
 1421 03cf 2D000000 		.4byte	0x2d
 1422 03d3 E7030000 		.4byte	0x3e7
 1423 03d7 02       		.uleb128 0x2
 1424 03d8 3A010000 		.4byte	0x13a
 1425 03dc 02       		.uleb128 0x2
 1426 03dd E7030000 		.4byte	0x3e7
 1427 03e1 02       		.uleb128 0x2
 1428 03e2 2D000000 		.4byte	0x2d
 1429 03e6 00       		.byte	0
 1430 03e7 04       		.uleb128 0x4
 1431 03e8 AF000000 		.4byte	0xaf
 1432 03ec 04       		.uleb128 0x4
 1433 03ed CE030000 		.4byte	0x3ce
 1434 03f1 09       		.uleb128 0x9
 1435 03f2 2D000000 		.4byte	0x2d
 1436 03f6 0A040000 		.4byte	0x40a
 1437 03fa 02       		.uleb128 0x2
 1438 03fb 3A010000 		.4byte	0x13a
 1439 03ff 02       		.uleb128 0x2
 1440 0400 77010000 		.4byte	0x177
 1441 0404 02       		.uleb128 0x2
 1442 0405 2D000000 		.4byte	0x2d
 1443 0409 00       		.byte	0
 1444 040a 04       		.uleb128 0x4
 1445 040b F1030000 		.4byte	0x3f1
ARM GAS  C:\Users\DEVELO~1\AppData\Local\Temp\ccjH4SDq.s 			page 27


 1446 040f 09       		.uleb128 0x9
 1447 0410 CC000000 		.4byte	0xcc
 1448 0414 23040000 		.4byte	0x423
 1449 0418 02       		.uleb128 0x2
 1450 0419 3A010000 		.4byte	0x13a
 1451 041d 02       		.uleb128 0x2
 1452 041e A3000000 		.4byte	0xa3
 1453 0422 00       		.byte	0
 1454 0423 04       		.uleb128 0x4
 1455 0424 0F040000 		.4byte	0x40f
 1456 0428 09       		.uleb128 0x9
 1457 0429 CC000000 		.4byte	0xcc
 1458 042d 37040000 		.4byte	0x437
 1459 0431 02       		.uleb128 0x2
 1460 0432 3A010000 		.4byte	0x13a
 1461 0436 00       		.byte	0
 1462 0437 04       		.uleb128 0x4
 1463 0438 28040000 		.4byte	0x428
 1464 043c 0E       		.uleb128 0xe
 1465 043d 04       		.byte	0x4
 1466 043e 0C       		.byte	0xc
 1467 043f 5A       		.byte	0x5a
 1468 0440 52040000 		.4byte	0x452
 1469 0444 0D       		.uleb128 0xd
 1470 0445 766D7400 		.ascii	"vmt\000"
 1471 0449 0C       		.byte	0xc
 1472 044a 5C       		.byte	0x5c
 1473 044b 29       		.byte	0x29
 1474 044c 52040000 		.4byte	0x452
 1475 0450 00       		.byte	0
 1476 0451 00       		.byte	0
 1477 0452 04       		.uleb128 0x4
 1478 0453 C9030000 		.4byte	0x3c9
 1479 0457 03       		.uleb128 0x3
 1480 0458 33010000 		.4byte	.LASF62
 1481 045c 0C       		.byte	0xc
 1482 045d 5E       		.byte	0x5e
 1483 045e 03       		.byte	0x3
 1484 045f 3C040000 		.4byte	0x43c
 1485 0463 03       		.uleb128 0x3
 1486 0464 E6010000 		.4byte	.LASF63
 1487 0468 0D       		.byte	0xd
 1488 0469 7D       		.byte	0x7d
 1489 046a 0F       		.byte	0xf
 1490 046b 6F040000 		.4byte	0x46f
 1491 046f 04       		.uleb128 0x4
 1492 0470 74040000 		.4byte	0x474
 1493 0474 09       		.uleb128 0x9
 1494 0475 26000000 		.4byte	0x26
 1495 0479 83040000 		.4byte	0x483
 1496 047d 02       		.uleb128 0x2
 1497 047e 26000000 		.4byte	0x26
 1498 0482 00       		.byte	0
 1499 0483 0E       		.uleb128 0xe
 1500 0484 28       		.byte	0x28
 1501 0485 0D       		.byte	0xd
 1502 0486 82       		.byte	0x82
ARM GAS  C:\Users\DEVELO~1\AppData\Local\Temp\ccjH4SDq.s 			page 28


 1503 0487 F4040000 		.4byte	0x4f4
 1504 048b 01       		.uleb128 0x1
 1505 048c 01020000 		.4byte	.LASF64
 1506 0490 0D       		.byte	0xd
 1507 0491 86       		.byte	0x86
 1508 0492 15       		.byte	0x15
 1509 0493 39000000 		.4byte	0x39
 1510 0497 00       		.byte	0
 1511 0498 01       		.uleb128 0x1
 1512 0499 02010000 		.4byte	.LASF65
 1513 049d 0D       		.byte	0xd
 1514 049e 8A       		.byte	0x8a
 1515 049f 15       		.byte	0x15
 1516 04a0 70010000 		.4byte	0x170
 1517 04a4 04       		.byte	0x4
 1518 04a5 01       		.uleb128 0x1
 1519 04a6 40030000 		.4byte	.LASF66
 1520 04aa 0D       		.byte	0xd
 1521 04ab 8E       		.byte	0x8e
 1522 04ac 15       		.byte	0x15
 1523 04ad 70010000 		.4byte	0x170
 1524 04b1 05       		.byte	0x5
 1525 04b2 01       		.uleb128 0x1
 1526 04b3 8F020000 		.4byte	.LASF67
 1527 04b7 0D       		.byte	0xd
 1528 04b8 92       		.byte	0x92
 1529 04b9 16       		.byte	0x16
 1530 04ba F0000000 		.4byte	0xf0
 1531 04be 08       		.byte	0x8
 1532 04bf 01       		.uleb128 0x1
 1533 04c0 9F020000 		.4byte	.LASF68
 1534 04c4 0D       		.byte	0xd
 1535 04c5 96       		.byte	0x96
 1536 04c6 16       		.byte	0x16
 1537 04c7 F4040000 		.4byte	0x4f4
 1538 04cb 0C       		.byte	0xc
 1539 04cc 01       		.uleb128 0x1
 1540 04cd 29020000 		.4byte	.LASF69
 1541 04d1 0D       		.byte	0xd
 1542 04d2 9A       		.byte	0x9a
 1543 04d3 15       		.byte	0x15
 1544 04d4 F9040000 		.4byte	0x4f9
 1545 04d8 10       		.byte	0x10
 1546 04d9 01       		.uleb128 0x1
 1547 04da 21010000 		.4byte	.LASF70
 1548 04de 0D       		.byte	0xd
 1549 04df 9E       		.byte	0x9e
 1550 04e0 15       		.byte	0x15
 1551 04e1 63040000 		.4byte	0x463
 1552 04e5 20       		.byte	0x20
 1553 04e6 01       		.uleb128 0x1
 1554 04e7 A4020000 		.4byte	.LASF71
 1555 04eb 0D       		.byte	0xd
 1556 04ec A3       		.byte	0xa3
 1557 04ed 19       		.byte	0x19
 1558 04ee 09050000 		.4byte	0x509
 1559 04f2 24       		.byte	0x24
ARM GAS  C:\Users\DEVELO~1\AppData\Local\Temp\ccjH4SDq.s 			page 29


 1560 04f3 00       		.byte	0
 1561 04f4 04       		.uleb128 0x4
 1562 04f5 F5000000 		.4byte	0xf5
 1563 04f9 0A       		.uleb128 0xa
 1564 04fa F5000000 		.4byte	0xf5
 1565 04fe 09050000 		.4byte	0x509
 1566 0502 0B       		.uleb128 0xb
 1567 0503 39000000 		.4byte	0x39
 1568 0507 0F       		.byte	0xf
 1569 0508 00       		.byte	0
 1570 0509 04       		.uleb128 0x4
 1571 050a 57040000 		.4byte	0x457
 1572 050e 03       		.uleb128 0x3
 1573 050f 12000000 		.4byte	.LASF72
 1574 0513 0D       		.byte	0xd
 1575 0514 A5       		.byte	0xa5
 1576 0515 03       		.byte	0x3
 1577 0516 83040000 		.4byte	0x483
 1578 051a 0E       		.uleb128 0xe
 1579 051b 10       		.byte	0x10
 1580 051c 0D       		.byte	0xd
 1581 051d AA       		.byte	0xaa
 1582 051e 57050000 		.4byte	0x557
 1583 0522 01       		.uleb128 0x1
 1584 0523 02030000 		.4byte	.LASF73
 1585 0527 0D       		.byte	0xd
 1586 0528 AB       		.byte	0xab
 1587 0529 0F       		.byte	0xf
 1588 052a F0000000 		.4byte	0xf0
 1589 052e 00       		.byte	0
 1590 052f 01       		.uleb128 0x1
 1591 0530 4D020000 		.4byte	.LASF74
 1592 0534 0D       		.byte	0xd
 1593 0535 AC       		.byte	0xac
 1594 0536 0A       		.byte	0xa
 1595 0537 58050000 		.4byte	0x558
 1596 053b 04       		.byte	0x4
 1597 053c 01       		.uleb128 0x1
 1598 053d E8020000 		.4byte	.LASF75
 1599 0541 0D       		.byte	0xd
 1600 0542 AD       		.byte	0xad
 1601 0543 0A       		.byte	0xa
 1602 0544 58050000 		.4byte	0x558
 1603 0548 08       		.byte	0x8
 1604 0549 01       		.uleb128 0x1
 1605 054a E9000000 		.4byte	.LASF76
 1606 054e 0D       		.byte	0xd
 1607 054f AE       		.byte	0xae
 1608 0550 0A       		.byte	0xa
 1609 0551 58050000 		.4byte	0x558
 1610 0555 0C       		.byte	0xc
 1611 0556 00       		.byte	0
 1612 0557 1D       		.uleb128 0x1d
 1613 0558 04       		.uleb128 0x4
 1614 0559 57050000 		.4byte	0x557
 1615 055d 03       		.uleb128 0x3
 1616 055e 24000000 		.4byte	.LASF77
ARM GAS  C:\Users\DEVELO~1\AppData\Local\Temp\ccjH4SDq.s 			page 30


 1617 0562 0D       		.byte	0xd
 1618 0563 AF       		.byte	0xaf
 1619 0564 03       		.byte	0x3
 1620 0565 1A050000 		.4byte	0x51a
 1621 0569 07       		.uleb128 0x7
 1622 056a 5D050000 		.4byte	0x55d
 1623 056e 0E       		.uleb128 0xe
 1624 056f 08       		.byte	0x8
 1625 0570 0D       		.byte	0xd
 1626 0571 B4       		.byte	0xb4
 1627 0572 91050000 		.4byte	0x591
 1628 0576 01       		.uleb128 0x1
 1629 0577 02030000 		.4byte	.LASF73
 1630 057b 0D       		.byte	0xd
 1631 057c B5       		.byte	0xb5
 1632 057d 16       		.byte	0x16
 1633 057e F0000000 		.4byte	0xf0
 1634 0582 00       		.byte	0
 1635 0583 01       		.uleb128 0x1
 1636 0584 0C000000 		.4byte	.LASF78
 1637 0588 0D       		.byte	0xd
 1638 0589 B6       		.byte	0xb6
 1639 058a 1E       		.byte	0x1e
 1640 058b 91050000 		.4byte	0x591
 1641 058f 04       		.byte	0x4
 1642 0590 00       		.byte	0
 1643 0591 04       		.uleb128 0x4
 1644 0592 9B050000 		.4byte	0x59b
 1645 0596 04       		.uleb128 0x4
 1646 0597 69050000 		.4byte	0x569
 1647 059b 07       		.uleb128 0x7
 1648 059c 96050000 		.4byte	0x596
 1649 05a0 03       		.uleb128 0x3
 1650 05a1 F3050000 		.4byte	.LASF79
 1651 05a5 0D       		.byte	0xd
 1652 05a6 B7       		.byte	0xb7
 1653 05a7 03       		.byte	0x3
 1654 05a8 6E050000 		.4byte	0x56e
 1655 05ac 07       		.uleb128 0x7
 1656 05ad A0050000 		.4byte	0x5a0
 1657 05b1 1E       		.uleb128 0x1e
 1658 05b2 39050000 		.4byte	.LASF80
 1659 05b6 0D       		.byte	0xd
 1660 05b7 2901     		.2byte	0x129
 1661 05b9 1A       		.byte	0x1a
 1662 05ba 0E050000 		.4byte	0x50e
 1663 05be 1F       		.uleb128 0x1f
 1664 05bf 7E040000 		.4byte	.LASF81
 1665 05c3 0E       		.byte	0xe
 1666 05c4 19       		.byte	0x19
 1667 05c5 1D       		.byte	0x1d
 1668 05c6 AC050000 		.4byte	0x5ac
 1669 05ca 0E       		.uleb128 0xe
 1670 05cb 3C       		.byte	0x3c
 1671 05cc 05       		.byte	0x5
 1672 05cd 38       		.byte	0x38
 1673 05ce ED050000 		.4byte	0x5ed
ARM GAS  C:\Users\DEVELO~1\AppData\Local\Temp\ccjH4SDq.s 			page 31


 1674 05d2 01       		.uleb128 0x1
 1675 05d3 9A010000 		.4byte	.LASF82
 1676 05d7 05       		.byte	0x5
 1677 05d8 39       		.byte	0x39
 1678 05d9 15       		.byte	0x15
 1679 05da 0A020000 		.4byte	0x20a
 1680 05de 00       		.byte	0
 1681 05df 01       		.uleb128 0x1
 1682 05e0 C8040000 		.4byte	.LASF83
 1683 05e4 05       		.byte	0x5
 1684 05e5 3A       		.byte	0x3a
 1685 05e6 15       		.byte	0x15
 1686 05e7 ED050000 		.4byte	0x5ed
 1687 05eb 2C       		.byte	0x2c
 1688 05ec 00       		.byte	0
 1689 05ed 0A       		.uleb128 0xa
 1690 05ee A3000000 		.4byte	0xa3
 1691 05f2 FD050000 		.4byte	0x5fd
 1692 05f6 0B       		.uleb128 0xb
 1693 05f7 39000000 		.4byte	0x39
 1694 05fb 0F       		.byte	0xf
 1695 05fc 00       		.byte	0
 1696 05fd 03       		.uleb128 0x3
 1697 05fe ED040000 		.4byte	.LASF84
 1698 0602 05       		.byte	0x5
 1699 0603 3B       		.byte	0x3b
 1700 0604 03       		.byte	0x3
 1701 0605 CA050000 		.4byte	0x5ca
 1702 0609 0A       		.uleb128 0xa
 1703 060a 88010000 		.4byte	0x188
 1704 060e 19060000 		.4byte	0x619
 1705 0612 0B       		.uleb128 0xb
 1706 0613 39000000 		.4byte	0x39
 1707 0617 07       		.byte	0x7
 1708 0618 00       		.byte	0
 1709 0619 06       		.uleb128 0x6
 1710 061a C8020000 		.4byte	.LASF85
 1711 061e 3D       		.byte	0x3d
 1712 061f 19       		.byte	0x19
 1713 0620 09060000 		.4byte	0x609
 1714 0624 05       		.uleb128 0x5
 1715 0625 03       		.byte	0x3
 1716 0626 00000000 		.4byte	hash_headers
 1717 062a 0A       		.uleb128 0xa
 1718 062b FD050000 		.4byte	0x5fd
 1719 062f 3A060000 		.4byte	0x63a
 1720 0633 0B       		.uleb128 0xb
 1721 0634 39000000 		.4byte	0x39
 1722 0638 03       		.byte	0x3
 1723 0639 00       		.byte	0
 1724 063a 06       		.uleb128 0x6
 1725 063b A8050000 		.4byte	.LASF86
 1726 063f 3E       		.byte	0x3e
 1727 0640 18       		.byte	0x18
 1728 0641 2A060000 		.4byte	0x62a
 1729 0645 05       		.uleb128 0x5
 1730 0646 03       		.byte	0x3
ARM GAS  C:\Users\DEVELO~1\AppData\Local\Temp\ccjH4SDq.s 			page 32


 1731 0647 00000000 		.4byte	objects
 1732 064b 06       		.uleb128 0x6
 1733 064c 02060000 		.4byte	.LASF87
 1734 0650 3F       		.byte	0x3f
 1735 0651 18       		.byte	0x18
 1736 0652 99020000 		.4byte	0x299
 1737 0656 05       		.uleb128 0x5
 1738 0657 03       		.byte	0x3
 1739 0658 00000000 		.4byte	cache1
 1740 065c 06       		.uleb128 0x6
 1741 065d B5020000 		.4byte	.LASF88
 1742 0661 EF       		.byte	0xef
 1743 0662 19       		.byte	0x19
 1744 0663 69050000 		.4byte	0x569
 1745 0667 05       		.uleb128 0x5
 1746 0668 03       		.byte	0x3
 1747 0669 00000000 		.4byte	oslib_test_006_001
 1748 066d 0A       		.uleb128 0xa
 1749 066e 9B050000 		.4byte	0x59b
 1750 0672 7D060000 		.4byte	0x67d
 1751 0676 0B       		.uleb128 0xb
 1752 0677 39000000 		.4byte	0x39
 1753 067b 01       		.byte	0x1
 1754 067c 00       		.byte	0
 1755 067d 07       		.uleb128 0x7
 1756 067e 6D060000 		.4byte	0x66d
 1757 0682 20       		.uleb128 0x20
 1758 0683 4A040000 		.4byte	.LASF89
 1759 0687 05       		.byte	0x5
 1760 0688 FD       		.byte	0xfd
 1761 0689 1A       		.byte	0x1a
 1762 068a 7D060000 		.4byte	0x67d
 1763 068e 05       		.uleb128 0x5
 1764 068f 03       		.byte	0x3
 1765 0690 00000000 		.4byte	oslib_test_sequence_006_array
 1766 0694 21       		.uleb128 0x21
 1767 0695 BE050000 		.4byte	0x5be
 1768 0699 05       		.byte	0x5
 1769 069a 0501     		.2byte	0x105
 1770 069c 16       		.byte	0x16
 1771 069d 05       		.uleb128 0x5
 1772 069e 03       		.byte	0x3
 1773 069f 00000000 		.4byte	oslib_test_sequence_006
 1774 06a3 10       		.uleb128 0x10
 1775 06a4 A4040000 		.4byte	.LASF90
 1776 06a8 04       		.byte	0x4
 1777 06a9 0801     		.2byte	0x108
 1778 06ab 08       		.byte	0x8
 1779 06ac 70010000 		.4byte	0x170
 1780 06b0 C4060000 		.4byte	0x6c4
 1781 06b4 02       		.uleb128 0x2
 1782 06b5 5F030000 		.4byte	0x35f
 1783 06b9 02       		.uleb128 0x2
 1784 06ba 64030000 		.4byte	0x364
 1785 06be 02       		.uleb128 0x2
 1786 06bf 70010000 		.4byte	0x170
 1787 06c3 00       		.byte	0
ARM GAS  C:\Users\DEVELO~1\AppData\Local\Temp\ccjH4SDq.s 			page 33


 1788 06c4 10       		.uleb128 0x10
 1789 06c5 D6040000 		.4byte	.LASF91
 1790 06c9 0D       		.byte	0xd
 1791 06ca 3101     		.2byte	0x131
 1792 06cc 08       		.byte	0x8
 1793 06cd 70010000 		.4byte	0x170
 1794 06d1 E0060000 		.4byte	0x6e0
 1795 06d5 02       		.uleb128 0x2
 1796 06d6 F4040000 		.4byte	0x4f4
 1797 06da 02       		.uleb128 0x2
 1798 06db F0000000 		.4byte	0xf0
 1799 06df 00       		.byte	0
 1800 06e0 10       		.uleb128 0x10
 1801 06e1 53020000 		.4byte	.LASF92
 1802 06e5 0D       		.byte	0xd
 1803 06e6 3001     		.2byte	0x130
 1804 06e8 08       		.byte	0x8
 1805 06e9 70010000 		.4byte	0x170
 1806 06ed FC060000 		.4byte	0x6fc
 1807 06f1 02       		.uleb128 0x2
 1808 06f2 70010000 		.4byte	0x170
 1809 06f6 02       		.uleb128 0x2
 1810 06f7 F0000000 		.4byte	0xf0
 1811 06fb 00       		.byte	0
 1812 06fc 10       		.uleb128 0x10
 1813 06fd CA010000 		.4byte	.LASF93
 1814 0701 04       		.byte	0x4
 1815 0702 0301     		.2byte	0x103
 1816 0704 10       		.byte	0x10
 1817 0705 64030000 		.4byte	0x364
 1818 0709 1D070000 		.4byte	0x71d
 1819 070d 02       		.uleb128 0x2
 1820 070e 5F030000 		.4byte	0x35f
 1821 0712 02       		.uleb128 0x2
 1822 0713 C0000000 		.4byte	0xc0
 1823 0717 02       		.uleb128 0x2
 1824 0718 C0000000 		.4byte	0xc0
 1825 071c 00       		.byte	0
 1826 071d 22       		.uleb128 0x22
 1827 071e 88010000 		.4byte	.LASF94
 1828 0722 04       		.byte	0x4
 1829 0723 FB       		.byte	0xfb
 1830 0724 08       		.byte	0x8
 1831 0725 52070000 		.4byte	0x752
 1832 0729 02       		.uleb128 0x2
 1833 072a 5F030000 		.4byte	0x35f
 1834 072e 02       		.uleb128 0x2
 1835 072f E4000000 		.4byte	0xe4
 1836 0733 02       		.uleb128 0x2
 1837 0734 75030000 		.4byte	0x375
 1838 0738 02       		.uleb128 0x2
 1839 0739 E4000000 		.4byte	0xe4
 1840 073d 02       		.uleb128 0x2
 1841 073e 2D000000 		.4byte	0x2d
 1842 0742 02       		.uleb128 0x2
 1843 0743 3A010000 		.4byte	0x13a
 1844 0747 02       		.uleb128 0x2
ARM GAS  C:\Users\DEVELO~1\AppData\Local\Temp\ccjH4SDq.s 			page 34


 1845 0748 35030000 		.4byte	0x335
 1846 074c 02       		.uleb128 0x2
 1847 074d 69030000 		.4byte	0x369
 1848 0751 00       		.byte	0
 1849 0752 23       		.uleb128 0x23
 1850 0753 1D030000 		.4byte	.LASF111
 1851 0757 0F       		.byte	0xf
 1852 0758 9B       		.byte	0x9b
 1853 0759 08       		.byte	0x8
 1854 075a 14       		.uleb128 0x14
 1855 075b 72010000 		.4byte	.LASF95
 1856 075f 04       		.byte	0x4
 1857 0760 0601     		.2byte	0x106
 1858 0762 71070000 		.4byte	0x771
 1859 0766 02       		.uleb128 0x2
 1860 0767 5F030000 		.4byte	0x35f
 1861 076b 02       		.uleb128 0x2
 1862 076c 64030000 		.4byte	0x364
 1863 0770 00       		.byte	0
 1864 0771 14       		.uleb128 0x14
 1865 0772 E3050000 		.4byte	.LASF96
 1866 0776 0D       		.byte	0xd
 1867 0777 3A01     		.2byte	0x13a
 1868 0779 83070000 		.4byte	0x783
 1869 077d 02       		.uleb128 0x2
 1870 077e F5000000 		.4byte	0xf5
 1871 0782 00       		.byte	0
 1872 0783 24       		.uleb128 0x24
 1873 0784 3B000000 		.4byte	.LASF102
 1874 0788 05       		.byte	0x5
 1875 0789 71       		.byte	0x71
 1876 078a 0D       		.byte	0xd
 1877 078b 00000000 		.4byte	.LFB438
 1878 078f FC030000 		.4byte	.LFE438-.LFB438
 1879 0793 01       		.uleb128 0x1
 1880 0794 9C       		.byte	0x9c
 1881 0795 A7080000 		.4byte	0x8a7
 1882 0799 11       		.uleb128 0x11
 1883 079a 2E000000 		.4byte	.LBB22
 1884 079e 7A000000 		.4byte	.LBE22-.LBB22
 1885 07a2 CA070000 		.4byte	0x7ca
 1886 07a6 0F       		.uleb128 0xf
 1887 07a7 6900     		.ascii	"i\000"
 1888 07a9 84       		.byte	0x84
 1889 07aa C0000000 		.4byte	0xc0
 1890 07ae 02       		.uleb128 0x2
 1891 07af 91       		.byte	0x91
 1892 07b0 74       		.sleb128 -12
 1893 07b1 0C       		.uleb128 0xc
 1894 07b2 34000000 		.4byte	.LBB23
 1895 07b6 58000000 		.4byte	.LBE23-.LBB23
 1896 07ba 06       		.uleb128 0x6
 1897 07bb 24050000 		.4byte	.LASF97
 1898 07bf 87       		.byte	0x87
 1899 07c0 15       		.byte	0x15
 1900 07c1 64030000 		.4byte	0x364
 1901 07c5 02       		.uleb128 0x2
ARM GAS  C:\Users\DEVELO~1\AppData\Local\Temp\ccjH4SDq.s 			page 35


 1902 07c6 91       		.byte	0x91
 1903 07c7 48       		.sleb128 -56
 1904 07c8 00       		.byte	0
 1905 07c9 00       		.byte	0
 1906 07ca 11       		.uleb128 0x11
 1907 07cb AE000000 		.4byte	.LBB24
 1908 07cf F4000000 		.4byte	.LBE24-.LBB24
 1909 07d3 09080000 		.4byte	0x809
 1910 07d7 0F       		.uleb128 0xf
 1911 07d8 6900     		.ascii	"i\000"
 1912 07da 97       		.byte	0x97
 1913 07db C0000000 		.4byte	0xc0
 1914 07df 02       		.uleb128 0x2
 1915 07e0 91       		.byte	0x91
 1916 07e1 70       		.sleb128 -16
 1917 07e2 06       		.uleb128 0x6
 1918 07e3 B0050000 		.4byte	.LASF98
 1919 07e7 98       		.byte	0x98
 1920 07e8 0A       		.byte	0xa
 1921 07e9 70010000 		.4byte	0x170
 1922 07ed 02       		.uleb128 0x2
 1923 07ee 91       		.byte	0x91
 1924 07ef 4F       		.sleb128 -49
 1925 07f0 0C       		.uleb128 0xc
 1926 07f1 B4000000 		.4byte	.LBB25
 1927 07f5 D2000000 		.4byte	.LBE25-.LBB25
 1928 07f9 06       		.uleb128 0x6
 1929 07fa 24050000 		.4byte	.LASF97
 1930 07fe 9B       		.byte	0x9b
 1931 07ff 14       		.byte	0x14
 1932 0800 64030000 		.4byte	0x364
 1933 0804 02       		.uleb128 0x2
 1934 0805 91       		.byte	0x91
 1935 0806 50       		.sleb128 -48
 1936 0807 00       		.byte	0
 1937 0808 00       		.byte	0
 1938 0809 11       		.uleb128 0x11
 1939 080a A8010000 		.4byte	.LBB26
 1940 080e 38010000 		.4byte	.LBE26-.LBB26
 1941 0812 48080000 		.4byte	0x848
 1942 0816 0F       		.uleb128 0xf
 1943 0817 6900     		.ascii	"i\000"
 1944 0819 B1       		.byte	0xb1
 1945 081a C0000000 		.4byte	0xc0
 1946 081e 02       		.uleb128 0x2
 1947 081f 91       		.byte	0x91
 1948 0820 6C       		.sleb128 -20
 1949 0821 06       		.uleb128 0x6
 1950 0822 B0050000 		.4byte	.LASF98
 1951 0826 B2       		.byte	0xb2
 1952 0827 0A       		.byte	0xa
 1953 0828 70010000 		.4byte	0x170
 1954 082c 02       		.uleb128 0x2
 1955 082d 91       		.byte	0x91
 1956 082e 57       		.sleb128 -41
 1957 082f 0C       		.uleb128 0xc
 1958 0830 E8010000 		.4byte	.LBB27
ARM GAS  C:\Users\DEVELO~1\AppData\Local\Temp\ccjH4SDq.s 			page 36


 1959 0834 DE000000 		.4byte	.LBE27-.LBB27
 1960 0838 06       		.uleb128 0x6
 1961 0839 24050000 		.4byte	.LASF97
 1962 083d B5       		.byte	0xb5
 1963 083e 14       		.byte	0x14
 1964 083f 64030000 		.4byte	0x364
 1965 0843 02       		.uleb128 0x2
 1966 0844 91       		.byte	0x91
 1967 0845 58       		.sleb128 -40
 1968 0846 00       		.byte	0
 1969 0847 00       		.byte	0
 1970 0848 11       		.uleb128 0x11
 1971 0849 E6020000 		.4byte	.LBB28
 1972 084d 74000000 		.4byte	.LBE28-.LBB28
 1973 0851 79080000 		.4byte	0x879
 1974 0855 0F       		.uleb128 0xf
 1975 0856 6900     		.ascii	"i\000"
 1976 0858 CD       		.byte	0xcd
 1977 0859 C0000000 		.4byte	0xc0
 1978 085d 02       		.uleb128 0x2
 1979 085e 91       		.byte	0x91
 1980 085f 68       		.sleb128 -24
 1981 0860 0C       		.uleb128 0xc
 1982 0861 EC020000 		.4byte	.LBB29
 1983 0865 54000000 		.4byte	.LBE29-.LBB29
 1984 0869 06       		.uleb128 0x6
 1985 086a 24050000 		.4byte	.LASF97
 1986 086e D0       		.byte	0xd0
 1987 086f 14       		.byte	0x14
 1988 0870 64030000 		.4byte	0x364
 1989 0874 02       		.uleb128 0x2
 1990 0875 91       		.byte	0x91
 1991 0876 5C       		.sleb128 -36
 1992 0877 00       		.byte	0
 1993 0878 00       		.byte	0
 1994 0879 0C       		.uleb128 0xc
 1995 087a 60030000 		.4byte	.LBB30
 1996 087e 72000000 		.4byte	.LBE30-.LBB30
 1997 0882 0F       		.uleb128 0xf
 1998 0883 6900     		.ascii	"i\000"
 1999 0885 DF       		.byte	0xdf
 2000 0886 C0000000 		.4byte	0xc0
 2001 088a 02       		.uleb128 0x2
 2002 088b 91       		.byte	0x91
 2003 088c 64       		.sleb128 -28
 2004 088d 0C       		.uleb128 0xc
 2005 088e 66030000 		.4byte	.LBB31
 2006 0892 54000000 		.4byte	.LBE31-.LBB31
 2007 0896 06       		.uleb128 0x6
 2008 0897 24050000 		.4byte	.LASF97
 2009 089b E2       		.byte	0xe2
 2010 089c 14       		.byte	0x14
 2011 089d 64030000 		.4byte	0x364
 2012 08a1 02       		.uleb128 0x2
 2013 08a2 91       		.byte	0x91
 2014 08a3 60       		.sleb128 -32
 2015 08a4 00       		.byte	0
ARM GAS  C:\Users\DEVELO~1\AppData\Local\Temp\ccjH4SDq.s 			page 37


 2016 08a5 00       		.byte	0
 2017 08a6 00       		.byte	0
 2018 08a7 15       		.uleb128 0x15
 2019 08a8 37020000 		.4byte	.LASF100
 2020 08ac 50       		.byte	0x50
 2021 08ad 70010000 		.4byte	0x170
 2022 08b1 00000000 		.4byte	.LFB437
 2023 08b5 28000000 		.4byte	.LFE437-.LFB437
 2024 08b9 01       		.uleb128 0x1
 2025 08ba 9C       		.byte	0x9c
 2026 08bb EA080000 		.4byte	0x8ea
 2027 08bf 16       		.uleb128 0x16
 2028 08c0 6F637000 		.ascii	"ocp\000"
 2029 08c4 50       		.byte	0x50
 2030 08c5 28       		.byte	0x28
 2031 08c6 5F030000 		.4byte	0x35f
 2032 08ca 02       		.uleb128 0x2
 2033 08cb 91       		.byte	0x91
 2034 08cc 74       		.sleb128 -12
 2035 08cd 12       		.uleb128 0x12
 2036 08ce 24050000 		.4byte	.LASF97
 2037 08d2 51       		.byte	0x51
 2038 08d3 24       		.byte	0x24
 2039 08d4 64030000 		.4byte	0x364
 2040 08d8 02       		.uleb128 0x2
 2041 08d9 91       		.byte	0x91
 2042 08da 70       		.sleb128 -16
 2043 08db 12       		.uleb128 0x12
 2044 08dc 2F040000 		.4byte	.LASF99
 2045 08e0 52       		.byte	0x52
 2046 08e1 1C       		.byte	0x1c
 2047 08e2 70010000 		.4byte	0x170
 2048 08e6 02       		.uleb128 0x2
 2049 08e7 91       		.byte	0x91
 2050 08e8 6F       		.sleb128 -17
 2051 08e9 00       		.byte	0
 2052 08ea 15       		.uleb128 0x15
 2053 08eb CD040000 		.4byte	.LASF101
 2054 08ef 41       		.byte	0x41
 2055 08f0 70010000 		.4byte	0x170
 2056 08f4 00000000 		.4byte	.LFB436
 2057 08f8 42000000 		.4byte	.LFE436-.LFB436
 2058 08fc 01       		.uleb128 0x1
 2059 08fd 9C       		.byte	0x9c
 2060 08fe 2D090000 		.4byte	0x92d
 2061 0902 16       		.uleb128 0x16
 2062 0903 6F637000 		.ascii	"ocp\000"
 2063 0907 41       		.byte	0x41
 2064 0908 27       		.byte	0x27
 2065 0909 5F030000 		.4byte	0x35f
 2066 090d 02       		.uleb128 0x2
 2067 090e 91       		.byte	0x91
 2068 090f 74       		.sleb128 -12
 2069 0910 12       		.uleb128 0x12
 2070 0911 24050000 		.4byte	.LASF97
 2071 0915 42       		.byte	0x42
 2072 0916 23       		.byte	0x23
ARM GAS  C:\Users\DEVELO~1\AppData\Local\Temp\ccjH4SDq.s 			page 38


 2073 0917 64030000 		.4byte	0x364
 2074 091b 02       		.uleb128 0x2
 2075 091c 91       		.byte	0x91
 2076 091d 70       		.sleb128 -16
 2077 091e 12       		.uleb128 0x12
 2078 091f 2F040000 		.4byte	.LASF99
 2079 0923 43       		.byte	0x43
 2080 0924 1B       		.byte	0x1b
 2081 0925 70010000 		.4byte	0x170
 2082 0929 02       		.uleb128 0x2
 2083 092a 91       		.byte	0x91
 2084 092b 6F       		.sleb128 -17
 2085 092c 00       		.byte	0
 2086 092d 25       		.uleb128 0x25
 2087 092e 14020000 		.4byte	.LASF103
 2088 0932 04       		.byte	0x4
 2089 0933 2701     		.2byte	0x127
 2090 0935 14       		.byte	0x14
 2091 0936 00000000 		.4byte	.LFB318
 2092 093a 26000000 		.4byte	.LFE318-.LFB318
 2093 093e 01       		.uleb128 0x1
 2094 093f 9C       		.byte	0x9c
 2095 0940 65090000 		.4byte	0x965
 2096 0944 26       		.uleb128 0x26
 2097 0945 6F637000 		.ascii	"ocp\000"
 2098 0949 04       		.byte	0x4
 2099 094a 2701     		.2byte	0x127
 2100 094c 3A       		.byte	0x3a
 2101 094d 5F030000 		.4byte	0x35f
 2102 0951 02       		.uleb128 0x2
 2103 0952 91       		.byte	0x91
 2104 0953 74       		.sleb128 -12
 2105 0954 27       		.uleb128 0x27
 2106 0955 24050000 		.4byte	.LASF97
 2107 0959 04       		.byte	0x4
 2108 095a 2801     		.2byte	0x128
 2109 095c 36       		.byte	0x36
 2110 095d 64030000 		.4byte	0x364
 2111 0961 02       		.uleb128 0x2
 2112 0962 91       		.byte	0x91
 2113 0963 70       		.sleb128 -16
 2114 0964 00       		.byte	0
 2115 0965 17       		.uleb128 0x17
 2116 0966 FD040000 		.4byte	.LASF104
 2117 096a A501     		.2byte	0x1a5
 2118 096c 00000000 		.4byte	.LFB203
 2119 0970 1E000000 		.4byte	.LFE203-.LFB203
 2120 0974 01       		.uleb128 0x1
 2121 0975 9C       		.byte	0x9c
 2122 0976 AE090000 		.4byte	0x9ae
 2123 097a 28       		.uleb128 0x28
 2124 097b 37030000 		.4byte	.LASF112
 2125 097f BE090000 		.4byte	0x9be
 2126 0983 13       		.uleb128 0x13
 2127 0984 030A0000 		.4byte	0xa03
 2128 0988 0A000000 		.4byte	.LBB18
 2129 098c 0A000000 		.4byte	.LBE18-.LBB18
ARM GAS  C:\Users\DEVELO~1\AppData\Local\Temp\ccjH4SDq.s 			page 39


 2130 0990 01       		.byte	0x1
 2131 0991 B201     		.2byte	0x1b2
 2132 0993 13       		.uleb128 0x13
 2133 0994 110A0000 		.4byte	0xa11
 2134 0998 0A000000 		.4byte	.LBB20
 2135 099c 08000000 		.4byte	.LBE20-.LBB20
 2136 09a0 03       		.byte	0x3
 2137 09a1 5203     		.2byte	0x352
 2138 09a3 18       		.uleb128 0x18
 2139 09a4 1B0A0000 		.4byte	0xa1b
 2140 09a8 02       		.uleb128 0x2
 2141 09a9 91       		.byte	0x91
 2142 09aa 74       		.sleb128 -12
 2143 09ab 00       		.byte	0
 2144 09ac 00       		.byte	0
 2145 09ad 00       		.byte	0
 2146 09ae 0A       		.uleb128 0xa
 2147 09af FC000000 		.4byte	0xfc
 2148 09b3 BE090000 		.4byte	0x9be
 2149 09b7 0B       		.uleb128 0xb
 2150 09b8 39000000 		.4byte	0x39
 2151 09bc 0B       		.byte	0xb
 2152 09bd 00       		.byte	0
 2153 09be 07       		.uleb128 0x7
 2154 09bf AE090000 		.4byte	0x9ae
 2155 09c3 17       		.uleb128 0x17
 2156 09c4 5C010000 		.4byte	.LASF105
 2157 09c8 9701     		.2byte	0x197
 2158 09ca 00000000 		.4byte	.LFB202
 2159 09ce 1E000000 		.4byte	.LFE202-.LFB202
 2160 09d2 01       		.uleb128 0x1
 2161 09d3 9C       		.byte	0x9c
 2162 09d4 030A0000 		.4byte	0xa03
 2163 09d8 13       		.uleb128 0x13
 2164 09d9 0A0A0000 		.4byte	0xa0a
 2165 09dd 0A000000 		.4byte	.LBB14
 2166 09e1 0A000000 		.4byte	.LBE14-.LBB14
 2167 09e5 01       		.byte	0x1
 2168 09e6 9901     		.2byte	0x199
 2169 09e8 13       		.uleb128 0x13
 2170 09e9 110A0000 		.4byte	0xa11
 2171 09ed 0A000000 		.4byte	.LBB16
 2172 09f1 08000000 		.4byte	.LBE16-.LBB16
 2173 09f5 03       		.byte	0x3
 2174 09f6 3F03     		.2byte	0x33f
 2175 09f8 18       		.uleb128 0x18
 2176 09f9 1B0A0000 		.4byte	0xa1b
 2177 09fd 02       		.uleb128 0x2
 2178 09fe 91       		.byte	0x91
 2179 09ff 74       		.sleb128 -12
 2180 0a00 00       		.byte	0
 2181 0a01 00       		.byte	0
 2182 0a02 00       		.byte	0
 2183 0a03 19       		.uleb128 0x19
 2184 0a04 BC040000 		.4byte	.LASF106
 2185 0a08 4F03     		.2byte	0x34f
 2186 0a0a 19       		.uleb128 0x19
ARM GAS  C:\Users\DEVELO~1\AppData\Local\Temp\ccjH4SDq.s 			page 40


 2187 0a0b 52010000 		.4byte	.LASF107
 2188 0a0f 3703     		.2byte	0x337
 2189 0a11 29       		.uleb128 0x29
 2190 0a12 C7050000 		.4byte	.LASF113
 2191 0a16 02       		.byte	0x2
 2192 0a17 EB01     		.2byte	0x1eb
 2193 0a19 1B       		.byte	0x1b
 2194 0a1a 03       		.byte	0x3
 2195 0a1b 2A       		.uleb128 0x2a
 2196 0a1c 27040000 		.4byte	.LASF114
 2197 0a20 02       		.byte	0x2
 2198 0a21 EB01     		.2byte	0x1eb
 2199 0a23 32       		.byte	0x32
 2200 0a24 C0000000 		.4byte	0xc0
 2201 0a28 00       		.byte	0
 2202 0a29 00       		.byte	0
 2203              		.section	.debug_abbrev,"",%progbits
 2204              	.Ldebug_abbrev0:
 2205 0000 01       		.uleb128 0x1
 2206 0001 0D       		.uleb128 0xd
 2207 0002 00       		.byte	0
 2208 0003 03       		.uleb128 0x3
 2209 0004 0E       		.uleb128 0xe
 2210 0005 3A       		.uleb128 0x3a
 2211 0006 0B       		.uleb128 0xb
 2212 0007 3B       		.uleb128 0x3b
 2213 0008 0B       		.uleb128 0xb
 2214 0009 39       		.uleb128 0x39
 2215 000a 0B       		.uleb128 0xb
 2216 000b 49       		.uleb128 0x49
 2217 000c 13       		.uleb128 0x13
 2218 000d 38       		.uleb128 0x38
 2219 000e 0B       		.uleb128 0xb
 2220 000f 00       		.byte	0
 2221 0010 00       		.byte	0
 2222 0011 02       		.uleb128 0x2
 2223 0012 05       		.uleb128 0x5
 2224 0013 00       		.byte	0
 2225 0014 49       		.uleb128 0x49
 2226 0015 13       		.uleb128 0x13
 2227 0016 00       		.byte	0
 2228 0017 00       		.byte	0
 2229 0018 03       		.uleb128 0x3
 2230 0019 16       		.uleb128 0x16
 2231 001a 00       		.byte	0
 2232 001b 03       		.uleb128 0x3
 2233 001c 0E       		.uleb128 0xe
 2234 001d 3A       		.uleb128 0x3a
 2235 001e 0B       		.uleb128 0xb
 2236 001f 3B       		.uleb128 0x3b
 2237 0020 0B       		.uleb128 0xb
 2238 0021 39       		.uleb128 0x39
 2239 0022 0B       		.uleb128 0xb
 2240 0023 49       		.uleb128 0x49
 2241 0024 13       		.uleb128 0x13
 2242 0025 00       		.byte	0
 2243 0026 00       		.byte	0
ARM GAS  C:\Users\DEVELO~1\AppData\Local\Temp\ccjH4SDq.s 			page 41


 2244 0027 04       		.uleb128 0x4
 2245 0028 0F       		.uleb128 0xf
 2246 0029 00       		.byte	0
 2247 002a 0B       		.uleb128 0xb
 2248 002b 21       		.uleb128 0x21
 2249 002c 04       		.sleb128 4
 2250 002d 49       		.uleb128 0x49
 2251 002e 13       		.uleb128 0x13
 2252 002f 00       		.byte	0
 2253 0030 00       		.byte	0
 2254 0031 05       		.uleb128 0x5
 2255 0032 24       		.uleb128 0x24
 2256 0033 00       		.byte	0
 2257 0034 0B       		.uleb128 0xb
 2258 0035 0B       		.uleb128 0xb
 2259 0036 3E       		.uleb128 0x3e
 2260 0037 0B       		.uleb128 0xb
 2261 0038 03       		.uleb128 0x3
 2262 0039 0E       		.uleb128 0xe
 2263 003a 00       		.byte	0
 2264 003b 00       		.byte	0
 2265 003c 06       		.uleb128 0x6
 2266 003d 34       		.uleb128 0x34
 2267 003e 00       		.byte	0
 2268 003f 03       		.uleb128 0x3
 2269 0040 0E       		.uleb128 0xe
 2270 0041 3A       		.uleb128 0x3a
 2271 0042 21       		.uleb128 0x21
 2272 0043 05       		.sleb128 5
 2273 0044 3B       		.uleb128 0x3b
 2274 0045 0B       		.uleb128 0xb
 2275 0046 39       		.uleb128 0x39
 2276 0047 0B       		.uleb128 0xb
 2277 0048 49       		.uleb128 0x49
 2278 0049 13       		.uleb128 0x13
 2279 004a 02       		.uleb128 0x2
 2280 004b 18       		.uleb128 0x18
 2281 004c 00       		.byte	0
 2282 004d 00       		.byte	0
 2283 004e 07       		.uleb128 0x7
 2284 004f 26       		.uleb128 0x26
 2285 0050 00       		.byte	0
 2286 0051 49       		.uleb128 0x49
 2287 0052 13       		.uleb128 0x13
 2288 0053 00       		.byte	0
 2289 0054 00       		.byte	0
 2290 0055 08       		.uleb128 0x8
 2291 0056 13       		.uleb128 0x13
 2292 0057 01       		.byte	0x1
 2293 0058 03       		.uleb128 0x3
 2294 0059 0E       		.uleb128 0xe
 2295 005a 0B       		.uleb128 0xb
 2296 005b 0B       		.uleb128 0xb
 2297 005c 3A       		.uleb128 0x3a
 2298 005d 0B       		.uleb128 0xb
 2299 005e 3B       		.uleb128 0x3b
 2300 005f 0B       		.uleb128 0xb
ARM GAS  C:\Users\DEVELO~1\AppData\Local\Temp\ccjH4SDq.s 			page 42


 2301 0060 39       		.uleb128 0x39
 2302 0061 0B       		.uleb128 0xb
 2303 0062 01       		.uleb128 0x1
 2304 0063 13       		.uleb128 0x13
 2305 0064 00       		.byte	0
 2306 0065 00       		.byte	0
 2307 0066 09       		.uleb128 0x9
 2308 0067 15       		.uleb128 0x15
 2309 0068 01       		.byte	0x1
 2310 0069 27       		.uleb128 0x27
 2311 006a 19       		.uleb128 0x19
 2312 006b 49       		.uleb128 0x49
 2313 006c 13       		.uleb128 0x13
 2314 006d 01       		.uleb128 0x1
 2315 006e 13       		.uleb128 0x13
 2316 006f 00       		.byte	0
 2317 0070 00       		.byte	0
 2318 0071 0A       		.uleb128 0xa
 2319 0072 01       		.uleb128 0x1
 2320 0073 01       		.byte	0x1
 2321 0074 49       		.uleb128 0x49
 2322 0075 13       		.uleb128 0x13
 2323 0076 01       		.uleb128 0x1
 2324 0077 13       		.uleb128 0x13
 2325 0078 00       		.byte	0
 2326 0079 00       		.byte	0
 2327 007a 0B       		.uleb128 0xb
 2328 007b 21       		.uleb128 0x21
 2329 007c 00       		.byte	0
 2330 007d 49       		.uleb128 0x49
 2331 007e 13       		.uleb128 0x13
 2332 007f 2F       		.uleb128 0x2f
 2333 0080 0B       		.uleb128 0xb
 2334 0081 00       		.byte	0
 2335 0082 00       		.byte	0
 2336 0083 0C       		.uleb128 0xc
 2337 0084 0B       		.uleb128 0xb
 2338 0085 01       		.byte	0x1
 2339 0086 11       		.uleb128 0x11
 2340 0087 01       		.uleb128 0x1
 2341 0088 12       		.uleb128 0x12
 2342 0089 06       		.uleb128 0x6
 2343 008a 00       		.byte	0
 2344 008b 00       		.byte	0
 2345 008c 0D       		.uleb128 0xd
 2346 008d 0D       		.uleb128 0xd
 2347 008e 00       		.byte	0
 2348 008f 03       		.uleb128 0x3
 2349 0090 08       		.uleb128 0x8
 2350 0091 3A       		.uleb128 0x3a
 2351 0092 0B       		.uleb128 0xb
 2352 0093 3B       		.uleb128 0x3b
 2353 0094 0B       		.uleb128 0xb
 2354 0095 39       		.uleb128 0x39
 2355 0096 0B       		.uleb128 0xb
 2356 0097 49       		.uleb128 0x49
 2357 0098 13       		.uleb128 0x13
ARM GAS  C:\Users\DEVELO~1\AppData\Local\Temp\ccjH4SDq.s 			page 43


 2358 0099 38       		.uleb128 0x38
 2359 009a 0B       		.uleb128 0xb
 2360 009b 00       		.byte	0
 2361 009c 00       		.byte	0
 2362 009d 0E       		.uleb128 0xe
 2363 009e 13       		.uleb128 0x13
 2364 009f 01       		.byte	0x1
 2365 00a0 0B       		.uleb128 0xb
 2366 00a1 0B       		.uleb128 0xb
 2367 00a2 3A       		.uleb128 0x3a
 2368 00a3 0B       		.uleb128 0xb
 2369 00a4 3B       		.uleb128 0x3b
 2370 00a5 0B       		.uleb128 0xb
 2371 00a6 39       		.uleb128 0x39
 2372 00a7 21       		.uleb128 0x21
 2373 00a8 09       		.sleb128 9
 2374 00a9 01       		.uleb128 0x1
 2375 00aa 13       		.uleb128 0x13
 2376 00ab 00       		.byte	0
 2377 00ac 00       		.byte	0
 2378 00ad 0F       		.uleb128 0xf
 2379 00ae 34       		.uleb128 0x34
 2380 00af 00       		.byte	0
 2381 00b0 03       		.uleb128 0x3
 2382 00b1 08       		.uleb128 0x8
 2383 00b2 3A       		.uleb128 0x3a
 2384 00b3 21       		.uleb128 0x21
 2385 00b4 05       		.sleb128 5
 2386 00b5 3B       		.uleb128 0x3b
 2387 00b6 0B       		.uleb128 0xb
 2388 00b7 39       		.uleb128 0x39
 2389 00b8 21       		.uleb128 0x21
 2390 00b9 0E       		.sleb128 14
 2391 00ba 49       		.uleb128 0x49
 2392 00bb 13       		.uleb128 0x13
 2393 00bc 02       		.uleb128 0x2
 2394 00bd 18       		.uleb128 0x18
 2395 00be 00       		.byte	0
 2396 00bf 00       		.byte	0
 2397 00c0 10       		.uleb128 0x10
 2398 00c1 2E       		.uleb128 0x2e
 2399 00c2 01       		.byte	0x1
 2400 00c3 3F       		.uleb128 0x3f
 2401 00c4 19       		.uleb128 0x19
 2402 00c5 03       		.uleb128 0x3
 2403 00c6 0E       		.uleb128 0xe
 2404 00c7 3A       		.uleb128 0x3a
 2405 00c8 0B       		.uleb128 0xb
 2406 00c9 3B       		.uleb128 0x3b
 2407 00ca 05       		.uleb128 0x5
 2408 00cb 39       		.uleb128 0x39
 2409 00cc 0B       		.uleb128 0xb
 2410 00cd 27       		.uleb128 0x27
 2411 00ce 19       		.uleb128 0x19
 2412 00cf 49       		.uleb128 0x49
 2413 00d0 13       		.uleb128 0x13
 2414 00d1 3C       		.uleb128 0x3c
ARM GAS  C:\Users\DEVELO~1\AppData\Local\Temp\ccjH4SDq.s 			page 44


 2415 00d2 19       		.uleb128 0x19
 2416 00d3 01       		.uleb128 0x1
 2417 00d4 13       		.uleb128 0x13
 2418 00d5 00       		.byte	0
 2419 00d6 00       		.byte	0
 2420 00d7 11       		.uleb128 0x11
 2421 00d8 0B       		.uleb128 0xb
 2422 00d9 01       		.byte	0x1
 2423 00da 11       		.uleb128 0x11
 2424 00db 01       		.uleb128 0x1
 2425 00dc 12       		.uleb128 0x12
 2426 00dd 06       		.uleb128 0x6
 2427 00de 01       		.uleb128 0x1
 2428 00df 13       		.uleb128 0x13
 2429 00e0 00       		.byte	0
 2430 00e1 00       		.byte	0
 2431 00e2 12       		.uleb128 0x12
 2432 00e3 05       		.uleb128 0x5
 2433 00e4 00       		.byte	0
 2434 00e5 03       		.uleb128 0x3
 2435 00e6 0E       		.uleb128 0xe
 2436 00e7 3A       		.uleb128 0x3a
 2437 00e8 21       		.uleb128 0x21
 2438 00e9 05       		.sleb128 5
 2439 00ea 3B       		.uleb128 0x3b
 2440 00eb 0B       		.uleb128 0xb
 2441 00ec 39       		.uleb128 0x39
 2442 00ed 0B       		.uleb128 0xb
 2443 00ee 49       		.uleb128 0x49
 2444 00ef 13       		.uleb128 0x13
 2445 00f0 02       		.uleb128 0x2
 2446 00f1 18       		.uleb128 0x18
 2447 00f2 00       		.byte	0
 2448 00f3 00       		.byte	0
 2449 00f4 13       		.uleb128 0x13
 2450 00f5 1D       		.uleb128 0x1d
 2451 00f6 01       		.byte	0x1
 2452 00f7 31       		.uleb128 0x31
 2453 00f8 13       		.uleb128 0x13
 2454 00f9 11       		.uleb128 0x11
 2455 00fa 01       		.uleb128 0x1
 2456 00fb 12       		.uleb128 0x12
 2457 00fc 06       		.uleb128 0x6
 2458 00fd 58       		.uleb128 0x58
 2459 00fe 0B       		.uleb128 0xb
 2460 00ff 59       		.uleb128 0x59
 2461 0100 05       		.uleb128 0x5
 2462 0101 57       		.uleb128 0x57
 2463 0102 21       		.uleb128 0x21
 2464 0103 03       		.sleb128 3
 2465 0104 00       		.byte	0
 2466 0105 00       		.byte	0
 2467 0106 14       		.uleb128 0x14
 2468 0107 2E       		.uleb128 0x2e
 2469 0108 01       		.byte	0x1
 2470 0109 3F       		.uleb128 0x3f
 2471 010a 19       		.uleb128 0x19
ARM GAS  C:\Users\DEVELO~1\AppData\Local\Temp\ccjH4SDq.s 			page 45


 2472 010b 03       		.uleb128 0x3
 2473 010c 0E       		.uleb128 0xe
 2474 010d 3A       		.uleb128 0x3a
 2475 010e 0B       		.uleb128 0xb
 2476 010f 3B       		.uleb128 0x3b
 2477 0110 05       		.uleb128 0x5
 2478 0111 39       		.uleb128 0x39
 2479 0112 21       		.uleb128 0x21
 2480 0113 08       		.sleb128 8
 2481 0114 27       		.uleb128 0x27
 2482 0115 19       		.uleb128 0x19
 2483 0116 3C       		.uleb128 0x3c
 2484 0117 19       		.uleb128 0x19
 2485 0118 01       		.uleb128 0x1
 2486 0119 13       		.uleb128 0x13
 2487 011a 00       		.byte	0
 2488 011b 00       		.byte	0
 2489 011c 15       		.uleb128 0x15
 2490 011d 2E       		.uleb128 0x2e
 2491 011e 01       		.byte	0x1
 2492 011f 03       		.uleb128 0x3
 2493 0120 0E       		.uleb128 0xe
 2494 0121 3A       		.uleb128 0x3a
 2495 0122 21       		.uleb128 0x21
 2496 0123 05       		.sleb128 5
 2497 0124 3B       		.uleb128 0x3b
 2498 0125 0B       		.uleb128 0xb
 2499 0126 39       		.uleb128 0x39
 2500 0127 21       		.uleb128 0x21
 2501 0128 0D       		.sleb128 13
 2502 0129 27       		.uleb128 0x27
 2503 012a 19       		.uleb128 0x19
 2504 012b 49       		.uleb128 0x49
 2505 012c 13       		.uleb128 0x13
 2506 012d 11       		.uleb128 0x11
 2507 012e 01       		.uleb128 0x1
 2508 012f 12       		.uleb128 0x12
 2509 0130 06       		.uleb128 0x6
 2510 0131 40       		.uleb128 0x40
 2511 0132 18       		.uleb128 0x18
 2512 0133 7C       		.uleb128 0x7c
 2513 0134 19       		.uleb128 0x19
 2514 0135 01       		.uleb128 0x1
 2515 0136 13       		.uleb128 0x13
 2516 0137 00       		.byte	0
 2517 0138 00       		.byte	0
 2518 0139 16       		.uleb128 0x16
 2519 013a 05       		.uleb128 0x5
 2520 013b 00       		.byte	0
 2521 013c 03       		.uleb128 0x3
 2522 013d 08       		.uleb128 0x8
 2523 013e 3A       		.uleb128 0x3a
 2524 013f 21       		.uleb128 0x21
 2525 0140 05       		.sleb128 5
 2526 0141 3B       		.uleb128 0x3b
 2527 0142 0B       		.uleb128 0xb
 2528 0143 39       		.uleb128 0x39
ARM GAS  C:\Users\DEVELO~1\AppData\Local\Temp\ccjH4SDq.s 			page 46


 2529 0144 0B       		.uleb128 0xb
 2530 0145 49       		.uleb128 0x49
 2531 0146 13       		.uleb128 0x13
 2532 0147 02       		.uleb128 0x2
 2533 0148 18       		.uleb128 0x18
 2534 0149 00       		.byte	0
 2535 014a 00       		.byte	0
 2536 014b 17       		.uleb128 0x17
 2537 014c 2E       		.uleb128 0x2e
 2538 014d 01       		.byte	0x1
 2539 014e 03       		.uleb128 0x3
 2540 014f 0E       		.uleb128 0xe
 2541 0150 3A       		.uleb128 0x3a
 2542 0151 21       		.uleb128 0x21
 2543 0152 01       		.sleb128 1
 2544 0153 3B       		.uleb128 0x3b
 2545 0154 05       		.uleb128 0x5
 2546 0155 39       		.uleb128 0x39
 2547 0156 21       		.uleb128 0x21
 2548 0157 14       		.sleb128 20
 2549 0158 27       		.uleb128 0x27
 2550 0159 19       		.uleb128 0x19
 2551 015a 11       		.uleb128 0x11
 2552 015b 01       		.uleb128 0x1
 2553 015c 12       		.uleb128 0x12
 2554 015d 06       		.uleb128 0x6
 2555 015e 40       		.uleb128 0x40
 2556 015f 18       		.uleb128 0x18
 2557 0160 7A       		.uleb128 0x7a
 2558 0161 19       		.uleb128 0x19
 2559 0162 01       		.uleb128 0x1
 2560 0163 13       		.uleb128 0x13
 2561 0164 00       		.byte	0
 2562 0165 00       		.byte	0
 2563 0166 18       		.uleb128 0x18
 2564 0167 05       		.uleb128 0x5
 2565 0168 00       		.byte	0
 2566 0169 31       		.uleb128 0x31
 2567 016a 13       		.uleb128 0x13
 2568 016b 02       		.uleb128 0x2
 2569 016c 18       		.uleb128 0x18
 2570 016d 00       		.byte	0
 2571 016e 00       		.byte	0
 2572 016f 19       		.uleb128 0x19
 2573 0170 2E       		.uleb128 0x2e
 2574 0171 00       		.byte	0
 2575 0172 03       		.uleb128 0x3
 2576 0173 0E       		.uleb128 0xe
 2577 0174 3A       		.uleb128 0x3a
 2578 0175 21       		.uleb128 0x21
 2579 0176 03       		.sleb128 3
 2580 0177 3B       		.uleb128 0x3b
 2581 0178 05       		.uleb128 0x5
 2582 0179 39       		.uleb128 0x39
 2583 017a 21       		.uleb128 0x21
 2584 017b 1B       		.sleb128 27
 2585 017c 27       		.uleb128 0x27
ARM GAS  C:\Users\DEVELO~1\AppData\Local\Temp\ccjH4SDq.s 			page 47


 2586 017d 19       		.uleb128 0x19
 2587 017e 20       		.uleb128 0x20
 2588 017f 21       		.uleb128 0x21
 2589 0180 03       		.sleb128 3
 2590 0181 00       		.byte	0
 2591 0182 00       		.byte	0
 2592 0183 1A       		.uleb128 0x1a
 2593 0184 11       		.uleb128 0x11
 2594 0185 01       		.byte	0x1
 2595 0186 25       		.uleb128 0x25
 2596 0187 0E       		.uleb128 0xe
 2597 0188 13       		.uleb128 0x13
 2598 0189 0B       		.uleb128 0xb
 2599 018a 03       		.uleb128 0x3
 2600 018b 0E       		.uleb128 0xe
 2601 018c 1B       		.uleb128 0x1b
 2602 018d 0E       		.uleb128 0xe
 2603 018e 55       		.uleb128 0x55
 2604 018f 17       		.uleb128 0x17
 2605 0190 11       		.uleb128 0x11
 2606 0191 01       		.uleb128 0x1
 2607 0192 10       		.uleb128 0x10
 2608 0193 17       		.uleb128 0x17
 2609 0194 00       		.byte	0
 2610 0195 00       		.byte	0
 2611 0196 1B       		.uleb128 0x1b
 2612 0197 24       		.uleb128 0x24
 2613 0198 00       		.byte	0
 2614 0199 0B       		.uleb128 0xb
 2615 019a 0B       		.uleb128 0xb
 2616 019b 3E       		.uleb128 0x3e
 2617 019c 0B       		.uleb128 0xb
 2618 019d 03       		.uleb128 0x3
 2619 019e 08       		.uleb128 0x8
 2620 019f 00       		.byte	0
 2621 01a0 00       		.byte	0
 2622 01a1 1C       		.uleb128 0x1c
 2623 01a2 0F       		.uleb128 0xf
 2624 01a3 00       		.byte	0
 2625 01a4 0B       		.uleb128 0xb
 2626 01a5 0B       		.uleb128 0xb
 2627 01a6 00       		.byte	0
 2628 01a7 00       		.byte	0
 2629 01a8 1D       		.uleb128 0x1d
 2630 01a9 15       		.uleb128 0x15
 2631 01aa 00       		.byte	0
 2632 01ab 27       		.uleb128 0x27
 2633 01ac 19       		.uleb128 0x19
 2634 01ad 00       		.byte	0
 2635 01ae 00       		.byte	0
 2636 01af 1E       		.uleb128 0x1e
 2637 01b0 34       		.uleb128 0x34
 2638 01b1 00       		.byte	0
 2639 01b2 03       		.uleb128 0x3
 2640 01b3 0E       		.uleb128 0xe
 2641 01b4 3A       		.uleb128 0x3a
 2642 01b5 0B       		.uleb128 0xb
ARM GAS  C:\Users\DEVELO~1\AppData\Local\Temp\ccjH4SDq.s 			page 48


 2643 01b6 3B       		.uleb128 0x3b
 2644 01b7 05       		.uleb128 0x5
 2645 01b8 39       		.uleb128 0x39
 2646 01b9 0B       		.uleb128 0xb
 2647 01ba 49       		.uleb128 0x49
 2648 01bb 13       		.uleb128 0x13
 2649 01bc 3F       		.uleb128 0x3f
 2650 01bd 19       		.uleb128 0x19
 2651 01be 3C       		.uleb128 0x3c
 2652 01bf 19       		.uleb128 0x19
 2653 01c0 00       		.byte	0
 2654 01c1 00       		.byte	0
 2655 01c2 1F       		.uleb128 0x1f
 2656 01c3 34       		.uleb128 0x34
 2657 01c4 00       		.byte	0
 2658 01c5 03       		.uleb128 0x3
 2659 01c6 0E       		.uleb128 0xe
 2660 01c7 3A       		.uleb128 0x3a
 2661 01c8 0B       		.uleb128 0xb
 2662 01c9 3B       		.uleb128 0x3b
 2663 01ca 0B       		.uleb128 0xb
 2664 01cb 39       		.uleb128 0x39
 2665 01cc 0B       		.uleb128 0xb
 2666 01cd 49       		.uleb128 0x49
 2667 01ce 13       		.uleb128 0x13
 2668 01cf 3F       		.uleb128 0x3f
 2669 01d0 19       		.uleb128 0x19
 2670 01d1 3C       		.uleb128 0x3c
 2671 01d2 19       		.uleb128 0x19
 2672 01d3 00       		.byte	0
 2673 01d4 00       		.byte	0
 2674 01d5 20       		.uleb128 0x20
 2675 01d6 34       		.uleb128 0x34
 2676 01d7 00       		.byte	0
 2677 01d8 03       		.uleb128 0x3
 2678 01d9 0E       		.uleb128 0xe
 2679 01da 3A       		.uleb128 0x3a
 2680 01db 0B       		.uleb128 0xb
 2681 01dc 3B       		.uleb128 0x3b
 2682 01dd 0B       		.uleb128 0xb
 2683 01de 39       		.uleb128 0x39
 2684 01df 0B       		.uleb128 0xb
 2685 01e0 49       		.uleb128 0x49
 2686 01e1 13       		.uleb128 0x13
 2687 01e2 3F       		.uleb128 0x3f
 2688 01e3 19       		.uleb128 0x19
 2689 01e4 02       		.uleb128 0x2
 2690 01e5 18       		.uleb128 0x18
 2691 01e6 00       		.byte	0
 2692 01e7 00       		.byte	0
 2693 01e8 21       		.uleb128 0x21
 2694 01e9 34       		.uleb128 0x34
 2695 01ea 00       		.byte	0
 2696 01eb 47       		.uleb128 0x47
 2697 01ec 13       		.uleb128 0x13
 2698 01ed 3A       		.uleb128 0x3a
 2699 01ee 0B       		.uleb128 0xb
ARM GAS  C:\Users\DEVELO~1\AppData\Local\Temp\ccjH4SDq.s 			page 49


 2700 01ef 3B       		.uleb128 0x3b
 2701 01f0 05       		.uleb128 0x5
 2702 01f1 39       		.uleb128 0x39
 2703 01f2 0B       		.uleb128 0xb
 2704 01f3 02       		.uleb128 0x2
 2705 01f4 18       		.uleb128 0x18
 2706 01f5 00       		.byte	0
 2707 01f6 00       		.byte	0
 2708 01f7 22       		.uleb128 0x22
 2709 01f8 2E       		.uleb128 0x2e
 2710 01f9 01       		.byte	0x1
 2711 01fa 3F       		.uleb128 0x3f
 2712 01fb 19       		.uleb128 0x19
 2713 01fc 03       		.uleb128 0x3
 2714 01fd 0E       		.uleb128 0xe
 2715 01fe 3A       		.uleb128 0x3a
 2716 01ff 0B       		.uleb128 0xb
 2717 0200 3B       		.uleb128 0x3b
 2718 0201 0B       		.uleb128 0xb
 2719 0202 39       		.uleb128 0x39
 2720 0203 0B       		.uleb128 0xb
 2721 0204 27       		.uleb128 0x27
 2722 0205 19       		.uleb128 0x19
 2723 0206 3C       		.uleb128 0x3c
 2724 0207 19       		.uleb128 0x19
 2725 0208 01       		.uleb128 0x1
 2726 0209 13       		.uleb128 0x13
 2727 020a 00       		.byte	0
 2728 020b 00       		.byte	0
 2729 020c 23       		.uleb128 0x23
 2730 020d 2E       		.uleb128 0x2e
 2731 020e 00       		.byte	0
 2732 020f 3F       		.uleb128 0x3f
 2733 0210 19       		.uleb128 0x19
 2734 0211 03       		.uleb128 0x3
 2735 0212 0E       		.uleb128 0xe
 2736 0213 3A       		.uleb128 0x3a
 2737 0214 0B       		.uleb128 0xb
 2738 0215 3B       		.uleb128 0x3b
 2739 0216 0B       		.uleb128 0xb
 2740 0217 39       		.uleb128 0x39
 2741 0218 0B       		.uleb128 0xb
 2742 0219 27       		.uleb128 0x27
 2743 021a 19       		.uleb128 0x19
 2744 021b 3C       		.uleb128 0x3c
 2745 021c 19       		.uleb128 0x19
 2746 021d 00       		.byte	0
 2747 021e 00       		.byte	0
 2748 021f 24       		.uleb128 0x24
 2749 0220 2E       		.uleb128 0x2e
 2750 0221 01       		.byte	0x1
 2751 0222 03       		.uleb128 0x3
 2752 0223 0E       		.uleb128 0xe
 2753 0224 3A       		.uleb128 0x3a
 2754 0225 0B       		.uleb128 0xb
 2755 0226 3B       		.uleb128 0x3b
 2756 0227 0B       		.uleb128 0xb
ARM GAS  C:\Users\DEVELO~1\AppData\Local\Temp\ccjH4SDq.s 			page 50


 2757 0228 39       		.uleb128 0x39
 2758 0229 0B       		.uleb128 0xb
 2759 022a 27       		.uleb128 0x27
 2760 022b 19       		.uleb128 0x19
 2761 022c 11       		.uleb128 0x11
 2762 022d 01       		.uleb128 0x1
 2763 022e 12       		.uleb128 0x12
 2764 022f 06       		.uleb128 0x6
 2765 0230 40       		.uleb128 0x40
 2766 0231 18       		.uleb128 0x18
 2767 0232 7C       		.uleb128 0x7c
 2768 0233 19       		.uleb128 0x19
 2769 0234 01       		.uleb128 0x1
 2770 0235 13       		.uleb128 0x13
 2771 0236 00       		.byte	0
 2772 0237 00       		.byte	0
 2773 0238 25       		.uleb128 0x25
 2774 0239 2E       		.uleb128 0x2e
 2775 023a 01       		.byte	0x1
 2776 023b 03       		.uleb128 0x3
 2777 023c 0E       		.uleb128 0xe
 2778 023d 3A       		.uleb128 0x3a
 2779 023e 0B       		.uleb128 0xb
 2780 023f 3B       		.uleb128 0x3b
 2781 0240 05       		.uleb128 0x5
 2782 0241 39       		.uleb128 0x39
 2783 0242 0B       		.uleb128 0xb
 2784 0243 27       		.uleb128 0x27
 2785 0244 19       		.uleb128 0x19
 2786 0245 11       		.uleb128 0x11
 2787 0246 01       		.uleb128 0x1
 2788 0247 12       		.uleb128 0x12
 2789 0248 06       		.uleb128 0x6
 2790 0249 40       		.uleb128 0x40
 2791 024a 18       		.uleb128 0x18
 2792 024b 7C       		.uleb128 0x7c
 2793 024c 19       		.uleb128 0x19
 2794 024d 01       		.uleb128 0x1
 2795 024e 13       		.uleb128 0x13
 2796 024f 00       		.byte	0
 2797 0250 00       		.byte	0
 2798 0251 26       		.uleb128 0x26
 2799 0252 05       		.uleb128 0x5
 2800 0253 00       		.byte	0
 2801 0254 03       		.uleb128 0x3
 2802 0255 08       		.uleb128 0x8
 2803 0256 3A       		.uleb128 0x3a
 2804 0257 0B       		.uleb128 0xb
 2805 0258 3B       		.uleb128 0x3b
 2806 0259 05       		.uleb128 0x5
 2807 025a 39       		.uleb128 0x39
 2808 025b 0B       		.uleb128 0xb
 2809 025c 49       		.uleb128 0x49
 2810 025d 13       		.uleb128 0x13
 2811 025e 02       		.uleb128 0x2
 2812 025f 18       		.uleb128 0x18
 2813 0260 00       		.byte	0
ARM GAS  C:\Users\DEVELO~1\AppData\Local\Temp\ccjH4SDq.s 			page 51


 2814 0261 00       		.byte	0
 2815 0262 27       		.uleb128 0x27
 2816 0263 05       		.uleb128 0x5
 2817 0264 00       		.byte	0
 2818 0265 03       		.uleb128 0x3
 2819 0266 0E       		.uleb128 0xe
 2820 0267 3A       		.uleb128 0x3a
 2821 0268 0B       		.uleb128 0xb
 2822 0269 3B       		.uleb128 0x3b
 2823 026a 05       		.uleb128 0x5
 2824 026b 39       		.uleb128 0x39
 2825 026c 0B       		.uleb128 0xb
 2826 026d 49       		.uleb128 0x49
 2827 026e 13       		.uleb128 0x13
 2828 026f 02       		.uleb128 0x2
 2829 0270 18       		.uleb128 0x18
 2830 0271 00       		.byte	0
 2831 0272 00       		.byte	0
 2832 0273 28       		.uleb128 0x28
 2833 0274 34       		.uleb128 0x34
 2834 0275 00       		.byte	0
 2835 0276 03       		.uleb128 0x3
 2836 0277 0E       		.uleb128 0xe
 2837 0278 49       		.uleb128 0x49
 2838 0279 13       		.uleb128 0x13
 2839 027a 34       		.uleb128 0x34
 2840 027b 19       		.uleb128 0x19
 2841 027c 00       		.byte	0
 2842 027d 00       		.byte	0
 2843 027e 29       		.uleb128 0x29
 2844 027f 2E       		.uleb128 0x2e
 2845 0280 01       		.byte	0x1
 2846 0281 03       		.uleb128 0x3
 2847 0282 0E       		.uleb128 0xe
 2848 0283 3A       		.uleb128 0x3a
 2849 0284 0B       		.uleb128 0xb
 2850 0285 3B       		.uleb128 0x3b
 2851 0286 05       		.uleb128 0x5
 2852 0287 39       		.uleb128 0x39
 2853 0288 0B       		.uleb128 0xb
 2854 0289 27       		.uleb128 0x27
 2855 028a 19       		.uleb128 0x19
 2856 028b 20       		.uleb128 0x20
 2857 028c 0B       		.uleb128 0xb
 2858 028d 00       		.byte	0
 2859 028e 00       		.byte	0
 2860 028f 2A       		.uleb128 0x2a
 2861 0290 05       		.uleb128 0x5
 2862 0291 00       		.byte	0
 2863 0292 03       		.uleb128 0x3
 2864 0293 0E       		.uleb128 0xe
 2865 0294 3A       		.uleb128 0x3a
 2866 0295 0B       		.uleb128 0xb
 2867 0296 3B       		.uleb128 0x3b
 2868 0297 05       		.uleb128 0x5
 2869 0298 39       		.uleb128 0x39
 2870 0299 0B       		.uleb128 0xb
ARM GAS  C:\Users\DEVELO~1\AppData\Local\Temp\ccjH4SDq.s 			page 52


 2871 029a 49       		.uleb128 0x49
 2872 029b 13       		.uleb128 0x13
 2873 029c 00       		.byte	0
 2874 029d 00       		.byte	0
 2875 029e 00       		.byte	0
 2876              		.section	.debug_aranges,"",%progbits
 2877 0000 44000000 		.4byte	0x44
 2878 0004 0200     		.2byte	0x2
 2879 0006 00000000 		.4byte	.Ldebug_info0
 2880 000a 04       		.byte	0x4
 2881 000b 00       		.byte	0
 2882 000c 0000     		.2byte	0
 2883 000e 0000     		.2byte	0
 2884 0010 00000000 		.4byte	.LFB202
 2885 0014 1E000000 		.4byte	.LFE202-.LFB202
 2886 0018 00000000 		.4byte	.LFB203
 2887 001c 1E000000 		.4byte	.LFE203-.LFB203
 2888 0020 00000000 		.4byte	.LFB318
 2889 0024 26000000 		.4byte	.LFE318-.LFB318
 2890 0028 00000000 		.4byte	.LFB436
 2891 002c 42000000 		.4byte	.LFE436-.LFB436
 2892 0030 00000000 		.4byte	.LFB437
 2893 0034 28000000 		.4byte	.LFE437-.LFB437
 2894 0038 00000000 		.4byte	.LFB438
 2895 003c FC030000 		.4byte	.LFE438-.LFB438
 2896 0040 00000000 		.4byte	0
 2897 0044 00000000 		.4byte	0
 2898              		.section	.debug_rnglists,"",%progbits
 2899              	.Ldebug_ranges0:
 2900 0000 2E000000 		.4byte	.Ldebug_ranges3-.Ldebug_ranges2
 2901              	.Ldebug_ranges2:
 2902 0004 0500     		.2byte	0x5
 2903 0006 04       		.byte	0x4
 2904 0007 00       		.byte	0
 2905 0008 00000000 		.4byte	0
 2906              	.LLRL0:
 2907 000c 07       		.byte	0x7
 2908 000d 00000000 		.4byte	.LFB202
 2909 0011 1E       		.uleb128 .LFE202-.LFB202
 2910 0012 07       		.byte	0x7
 2911 0013 00000000 		.4byte	.LFB203
 2912 0017 1E       		.uleb128 .LFE203-.LFB203
 2913 0018 07       		.byte	0x7
 2914 0019 00000000 		.4byte	.LFB318
 2915 001d 26       		.uleb128 .LFE318-.LFB318
 2916 001e 07       		.byte	0x7
 2917 001f 00000000 		.4byte	.LFB436
 2918 0023 42       		.uleb128 .LFE436-.LFB436
 2919 0024 07       		.byte	0x7
 2920 0025 00000000 		.4byte	.LFB437
 2921 0029 28       		.uleb128 .LFE437-.LFB437
 2922 002a 07       		.byte	0x7
 2923 002b 00000000 		.4byte	.LFB438
 2924 002f FC07     		.uleb128 .LFE438-.LFB438
 2925 0031 00       		.byte	0
 2926              	.Ldebug_ranges3:
 2927              		.section	.debug_line,"",%progbits
ARM GAS  C:\Users\DEVELO~1\AppData\Local\Temp\ccjH4SDq.s 			page 53


 2928              	.Ldebug_line0:
 2929 0000 AA040000 		.section	.debug_str,"MS",%progbits,1
 2929      0300D902 
 2929      00000201 
 2929      FB0E0D00 
 2929      01010101 
 2930              	.LASF2:
 2931 0000 6C6F6E67 		.ascii	"long double\000"
 2931      20646F75 
 2931      626C6500 
 2932              	.LASF78:
 2933 000c 63617365 		.ascii	"cases\000"
 2933      7300
 2934              	.LASF72:
 2935 0012 63685F74 		.ascii	"ch_test_context_t\000"
 2935      6573745F 
 2935      636F6E74 
 2935      6578745F 
 2935      7400
 2936              	.LASF77:
 2937 0024 74657374 		.ascii	"testcase_t\000"
 2937      63617365 
 2937      5F7400
 2938              	.LASF60:
 2939 002f 77726974 		.ascii	"write\000"
 2939      6500
 2940              	.LASF51:
 2941 0035 6F626A76 		.ascii	"objvp\000"
 2941      7000
 2942              	.LASF102:
 2943 003b 6F736C69 		.ascii	"oslib_test_006_001_execute\000"
 2943      625F7465 
 2943      73745F30 
 2943      30365F30 
 2943      30315F65 
 2944              	.LASF53:
 2945 0056 6C72755F 		.ascii	"lru_sem\000"
 2945      73656D00 
 2946              	.LASF108:
 2947 005e 474E5520 		.ascii	"GNU C17 11.3.1 20220712 -mcpu=cortex-m7 -mthumb -mf"
 2947      43313720 
 2947      31312E33 
 2947      2E312032 
 2947      30323230 
 2948 0091 6C6F6174 		.ascii	"loat-abi=soft -march=armv7e-m -ggdb -O0 -ffunction-"
 2948      2D616269 
 2948      3D736F66 
 2948      74202D6D 
 2948      61726368 
 2949 00c4 73656374 		.ascii	"sections -fdata-sections -fno-common\000"
 2949      696F6E73 
 2949      202D6664 
 2949      6174612D 
 2949      73656374 
 2950              	.LASF76:
 2951 00e9 65786563 		.ascii	"execute\000"
 2951      75746500 
ARM GAS  C:\Users\DEVELO~1\AppData\Local\Temp\ccjH4SDq.s 			page 54


 2952              	.LASF7:
 2953 00f1 73686F72 		.ascii	"short int\000"
 2953      7420696E 
 2953      7400
 2954              	.LASF4:
 2955 00fb 73697A65 		.ascii	"size_t\000"
 2955      5F7400
 2956              	.LASF65:
 2957 0102 676C6F62 		.ascii	"global_fail\000"
 2957      616C5F66 
 2957      61696C00 
 2958              	.LASF39:
 2959 010e 63685F6F 		.ascii	"ch_oc_object\000"
 2959      635F6F62 
 2959      6A656374 
 2959      00
 2960              	.LASF26:
 2961 011b 71756575 		.ascii	"queue\000"
 2961      6500
 2962              	.LASF70:
 2963 0121 70757463 		.ascii	"putchar\000"
 2963      68617200 
 2964              	.LASF43:
 2965 0129 6F626A5F 		.ascii	"obj_flags\000"
 2965      666C6167 
 2965      7300
 2966              	.LASF62:
 2967 0133 42617365 		.ascii	"BaseSequentialStream\000"
 2967      53657175 
 2967      656E7469 
 2967      616C5374 
 2967      7265616D 
 2968              	.LASF40:
 2969 0148 6F626A5F 		.ascii	"obj_group\000"
 2969      67726F75 
 2969      7000
 2970              	.LASF107:
 2971 0152 706F7274 		.ascii	"port_lock\000"
 2971      5F6C6F63 
 2971      6B00
 2972              	.LASF105:
 2973 015c 63685379 		.ascii	"chSysLock\000"
 2973      734C6F63 
 2973      6B00
 2974              	.LASF38:
 2975 0166 6F635F6F 		.ascii	"oc_object_t\000"
 2975      626A6563 
 2975      745F7400 
 2976              	.LASF95:
 2977 0172 63684361 		.ascii	"chCacheReleaseObjectI\000"
 2977      63686552 
 2977      656C6561 
 2977      73654F62 
 2977      6A656374 
 2978              	.LASF94:
 2979 0188 63684361 		.ascii	"chCacheObjectInit\000"
 2979      6368654F 
ARM GAS  C:\Users\DEVELO~1\AppData\Local\Temp\ccjH4SDq.s 			page 55


 2979      626A6563 
 2979      74496E69 
 2979      7400
 2980              	.LASF82:
 2981 019a 68656164 		.ascii	"header\000"
 2981      657200
 2982              	.LASF45:
 2983 01a1 6F626A65 		.ascii	"objects_cache_t\000"
 2983      6374735F 
 2983      63616368 
 2983      655F7400 
 2984              	.LASF46:
 2985 01b1 63685F6F 		.ascii	"ch_objects_cache\000"
 2985      626A6563 
 2985      74735F63 
 2985      61636865 
 2985      00
 2986              	.LASF14:
 2987 01c2 75696E74 		.ascii	"uint8_t\000"
 2987      385F7400 
 2988              	.LASF93:
 2989 01ca 63684361 		.ascii	"chCacheGetObject\000"
 2989      63686547 
 2989      65744F62 
 2989      6A656374 
 2989      00
 2990              	.LASF21:
 2991 01db 63685F71 		.ascii	"ch_queue_t\000"
 2991      75657565 
 2991      5F7400
 2992              	.LASF63:
 2993 01e6 74657374 		.ascii	"test_putchar_t\000"
 2993      5F707574 
 2993      63686172 
 2993      5F7400
 2994              	.LASF27:
 2995 01f5 73656D61 		.ascii	"semaphore_t\000"
 2995      70686F72 
 2995      655F7400 
 2996              	.LASF64:
 2997 0201 63757272 		.ascii	"current_step\000"
 2997      656E745F 
 2997      73746570 
 2997      00
 2998              	.LASF50:
 2999 020e 6F626A73 		.ascii	"objsz\000"
 2999      7A00
 3000              	.LASF103:
 3001 0214 63684361 		.ascii	"chCacheReleaseObject\000"
 3001      63686552 
 3001      656C6561 
 3001      73654F62 
 3001      6A656374 
 3002              	.LASF69:
 3003 0229 746F6B65 		.ascii	"tokens_buffer\000"
 3003      6E735F62 
 3003      75666665 
ARM GAS  C:\Users\DEVELO~1\AppData\Local\Temp\ccjH4SDq.s 			page 56


 3003      7200
 3004              	.LASF100:
 3005 0237 6F626A5F 		.ascii	"obj_write\000"
 3005      77726974 
 3005      6500
 3006              	.LASF57:
 3007 0241 6F635F77 		.ascii	"oc_writef_t\000"
 3007      72697465 
 3007      665F7400 
 3008              	.LASF74:
 3009 024d 73657475 		.ascii	"setup\000"
 3009      7000
 3010              	.LASF92:
 3011 0253 5F5F7465 		.ascii	"__test_assert\000"
 3011      73745F61 
 3011      73736572 
 3011      7400
 3012              	.LASF61:
 3013 0261 72656164 		.ascii	"read\000"
 3013      00
 3014              	.LASF1:
 3015 0266 6C6F6E67 		.ascii	"long long int\000"
 3015      206C6F6E 
 3015      6720696E 
 3015      7400
 3016              	.LASF29:
 3017 0274 6F635F66 		.ascii	"oc_flags_t\000"
 3017      6C616773 
 3017      5F7400
 3018              	.LASF59:
 3019 027f 696E7374 		.ascii	"instance_offset\000"
 3019      616E6365 
 3019      5F6F6666 
 3019      73657400 
 3020              	.LASF67:
 3021 028f 6661696C 		.ascii	"failure_message\000"
 3021      7572655F 
 3021      6D657373 
 3021      61676500 
 3022              	.LASF68:
 3023 029f 746F6B70 		.ascii	"tokp\000"
 3023      00
 3024              	.LASF71:
 3025 02a4 73747265 		.ascii	"stream\000"
 3025      616D00
 3026              	.LASF5:
 3027 02ab 5F5F7569 		.ascii	"__uint8_t\000"
 3027      6E74385F 
 3027      7400
 3028              	.LASF88:
 3029 02b5 6F736C69 		.ascii	"oslib_test_006_001\000"
 3029      625F7465 
 3029      73745F30 
 3029      30365F30 
 3029      303100
 3030              	.LASF85:
 3031 02c8 68617368 		.ascii	"hash_headers\000"
ARM GAS  C:\Users\DEVELO~1\AppData\Local\Temp\ccjH4SDq.s 			page 57


 3031      5F686561 
 3031      64657273 
 3031      00
 3032              	.LASF41:
 3033 02d5 6F626A5F 		.ascii	"obj_key\000"
 3033      6B657900 
 3034              	.LASF11:
 3035 02dd 5F5F7569 		.ascii	"__uint32_t\000"
 3035      6E743332 
 3035      5F7400
 3036              	.LASF75:
 3037 02e8 74656172 		.ascii	"teardown\000"
 3037      646F776E 
 3037      00
 3038              	.LASF35:
 3039 02f1 63685F6F 		.ascii	"ch_oc_lru_header\000"
 3039      635F6C72 
 3039      755F6865 
 3039      61646572 
 3039      00
 3040              	.LASF73:
 3041 0302 6E616D65 		.ascii	"name\000"
 3041      00
 3042              	.LASF42:
 3043 0307 6F626A5F 		.ascii	"obj_sem\000"
 3043      73656D00 
 3044              	.LASF6:
 3045 030f 756E7369 		.ascii	"unsigned char\000"
 3045      676E6564 
 3045      20636861 
 3045      7200
 3046              	.LASF111:
 3047 031d 63685363 		.ascii	"chSchRescheduleS\000"
 3047      68526573 
 3047      63686564 
 3047      756C6553 
 3047      00
 3048              	.LASF10:
 3049 032e 6C6F6E67 		.ascii	"long int\000"
 3049      20696E74 
 3049      00
 3050              	.LASF112:
 3051 0337 5F5F6675 		.ascii	"__func__\000"
 3051      6E635F5F 
 3051      00
 3052              	.LASF66:
 3053 0340 6C6F6361 		.ascii	"local_fail\000"
 3053      6C5F6661 
 3053      696C00
 3054              	.LASF32:
 3055 034b 68617368 		.ascii	"hash_next\000"
 3055      5F6E6578 
 3055      7400
 3056              	.LASF9:
 3057 0355 5F5F696E 		.ascii	"__int32_t\000"
 3057      7433325F 
 3057      7400
ARM GAS  C:\Users\DEVELO~1\AppData\Local\Temp\ccjH4SDq.s 			page 58


 3058              	.LASF23:
 3059 035f 70726576 		.ascii	"prev\000"
 3059      00
 3060              	.LASF3:
 3061 0364 7369676E 		.ascii	"signed char\000"
 3061      65642063 
 3061      68617200 
 3062              	.LASF109:
 3063 0370 2E2E2F2E 		.ascii	"../../../test/oslib/source/test/oslib_test_sequence"
 3063      2E2F2E2E 
 3063      2F746573 
 3063      742F6F73 
 3063      6C69622F 
 3064 03a3 5F303036 		.ascii	"_006.c\000"
 3064      2E6300
 3065              	.LASF13:
 3066 03aa 6C6F6E67 		.ascii	"long long unsigned int\000"
 3066      206C6F6E 
 3066      6720756E 
 3066      7369676E 
 3066      65642069 
 3067              	.LASF16:
 3068 03c1 75696E74 		.ascii	"uint32_t\000"
 3068      33325F74 
 3068      00
 3069              	.LASF55:
 3070 03ca 77726974 		.ascii	"writef\000"
 3070      656600
 3071              	.LASF47:
 3072 03d1 68617368 		.ascii	"hashn\000"
 3072      6E00
 3073              	.LASF0:
 3074 03d7 756E7369 		.ascii	"unsigned int\000"
 3074      676E6564 
 3074      20696E74 
 3074      00
 3075              	.LASF48:
 3076 03e4 68617368 		.ascii	"hashp\000"
 3076      7000
 3077              	.LASF12:
 3078 03ea 6C6F6E67 		.ascii	"long unsigned int\000"
 3078      20756E73 
 3078      69676E65 
 3078      6420696E 
 3078      7400
 3079              	.LASF54:
 3080 03fc 72656164 		.ascii	"readf\000"
 3080      6600
 3081              	.LASF31:
 3082 0402 63685F6F 		.ascii	"ch_oc_hash_header\000"
 3082      635F6861 
 3082      73685F68 
 3082      65616465 
 3082      7200
 3083              	.LASF8:
 3084 0414 73686F72 		.ascii	"short unsigned int\000"
 3084      7420756E 
ARM GAS  C:\Users\DEVELO~1\AppData\Local\Temp\ccjH4SDq.s 			page 59


 3084      7369676E 
 3084      65642069 
 3084      6E7400
 3085              	.LASF114:
 3086 0427 62617365 		.ascii	"basePri\000"
 3086      50726900 
 3087              	.LASF99:
 3088 042f 6173796E 		.ascii	"async\000"
 3088      6300
 3089              	.LASF33:
 3090 0435 68617368 		.ascii	"hash_prev\000"
 3090      5F707265 
 3090      7600
 3091              	.LASF56:
 3092 043f 6F635F72 		.ascii	"oc_readf_t\000"
 3092      65616466 
 3092      5F7400
 3093              	.LASF89:
 3094 044a 6F736C69 		.ascii	"oslib_test_sequence_006_array\000"
 3094      625F7465 
 3094      73745F73 
 3094      65717565 
 3094      6E63655F 
 3095              	.LASF20:
 3096 0468 63686172 		.ascii	"char\000"
 3096      00
 3097              	.LASF52:
 3098 046d 63616368 		.ascii	"cache_sem\000"
 3098      655F7365 
 3098      6D00
 3099              	.LASF19:
 3100 0477 75636E74 		.ascii	"ucnt_t\000"
 3100      5F7400
 3101              	.LASF81:
 3102 047e 6F736C69 		.ascii	"oslib_test_sequence_006\000"
 3102      625F7465 
 3102      73745F73 
 3102      65717565 
 3102      6E63655F 
 3103              	.LASF15:
 3104 0496 696E7433 		.ascii	"int32_t\000"
 3104      325F7400 
 3105              	.LASF18:
 3106 049e 636E745F 		.ascii	"cnt_t\000"
 3106      7400
 3107              	.LASF90:
 3108 04a4 63684361 		.ascii	"chCacheReadObject\000"
 3108      63686552 
 3108      6561644F 
 3108      626A6563 
 3108      7400
 3109              	.LASF28:
 3110 04b6 5F426F6F 		.ascii	"_Bool\000"
 3110      6C00
 3111              	.LASF106:
 3112 04bc 706F7274 		.ascii	"port_unlock\000"
 3112      5F756E6C 
ARM GAS  C:\Users\DEVELO~1\AppData\Local\Temp\ccjH4SDq.s 			page 60


 3112      6F636B00 
 3113              	.LASF83:
 3114 04c8 64617461 		.ascii	"data\000"
 3114      00
 3115              	.LASF101:
 3116 04cd 6F626A5F 		.ascii	"obj_read\000"
 3116      72656164 
 3116      00
 3117              	.LASF91:
 3118 04d6 5F5F7465 		.ascii	"__test_assert_sequence\000"
 3118      73745F61 
 3118      73736572 
 3118      745F7365 
 3118      7175656E 
 3119              	.LASF84:
 3120 04ed 63616368 		.ascii	"cached_object_t\000"
 3120      65645F6F 
 3120      626A6563 
 3120      745F7400 
 3121              	.LASF104:
 3122 04fd 63685379 		.ascii	"chSysUnlock\000"
 3122      73556E6C 
 3122      6F636B00 
 3123              	.LASF25:
 3124 0509 63685F73 		.ascii	"ch_semaphore\000"
 3124      656D6170 
 3124      686F7265 
 3124      00
 3125              	.LASF36:
 3126 0516 6C72755F 		.ascii	"lru_next\000"
 3126      6E657874 
 3126      00
 3127              	.LASF49:
 3128 051f 6F626A6E 		.ascii	"objn\000"
 3128      00
 3129              	.LASF97:
 3130 0524 6F626A70 		.ascii	"objp\000"
 3130      00
 3131              	.LASF34:
 3132 0529 6F635F6C 		.ascii	"oc_lru_header_t\000"
 3132      72755F68 
 3132      65616465 
 3132      725F7400 
 3133              	.LASF80:
 3134 0539 63687465 		.ascii	"chtest\000"
 3134      737400
 3135              	.LASF24:
 3136 0540 63685F71 		.ascii	"ch_queue\000"
 3136      75657565 
 3136      00
 3137              	.LASF110:
 3138 0549 433A5C50 		.ascii	"C:\\PROJET\\ChibiOS project\\ChibiOS_21.11.4\\demos"
 3138      524F4A45 
 3138      545C4368 
 3138      6962694F 
 3138      53207072 
 3139 0578 5C53544D 		.ascii	"\\STM32\\RT-STM32H743ZI_REV_XY-NUCLEO144_Quartz8M\000"
ARM GAS  C:\Users\DEVELO~1\AppData\Local\Temp\ccjH4SDq.s 			page 61


 3139      33325C52 
 3139      542D5354 
 3139      4D333248 
 3139      3734335A 
 3140              	.LASF86:
 3141 05a8 6F626A65 		.ascii	"objects\000"
 3141      63747300 
 3142              	.LASF98:
 3143 05b0 6572726F 		.ascii	"error\000"
 3143      7200
 3144              	.LASF30:
 3145 05b6 6F635F68 		.ascii	"oc_hash_header_t\000"
 3145      6173685F 
 3145      68656164 
 3145      65725F74 
 3145      00
 3146              	.LASF113:
 3147 05c7 5F5F7365 		.ascii	"__set_BASEPRI\000"
 3147      745F4241 
 3147      53455052 
 3147      4900
 3148              	.LASF44:
 3149 05d5 64707472 		.ascii	"dptr\000"
 3149      00
 3150              	.LASF37:
 3151 05da 6C72755F 		.ascii	"lru_prev\000"
 3151      70726576 
 3151      00
 3152              	.LASF96:
 3153 05e3 74657374 		.ascii	"test_emit_token\000"
 3153      5F656D69 
 3153      745F746F 
 3153      6B656E00 
 3154              	.LASF79:
 3155 05f3 74657374 		.ascii	"testsequence_t\000"
 3155      73657175 
 3155      656E6365 
 3155      5F7400
 3156              	.LASF87:
 3157 0602 63616368 		.ascii	"cache1\000"
 3157      653100
 3158              	.LASF17:
 3159 0609 6D73675F 		.ascii	"msg_t\000"
 3159      7400
 3160              	.LASF22:
 3161 060f 6E657874 		.ascii	"next\000"
 3161      00
 3162              	.LASF58:
 3163 0614 42617365 		.ascii	"BaseSequentialStreamVMT\000"
 3163      53657175 
 3163      656E7469 
 3163      616C5374 
 3163      7265616D 
 3164              		.ident	"GCC: (Arm GNU Toolchain 11.3.Rel1) 11.3.1 20220712"
ARM GAS  C:\Users\DEVELO~1\AppData\Local\Temp\ccjH4SDq.s 			page 62


DEFINED SYMBOLS
                            *ABS*:00000000 oslib_test_sequence_006.c
C:\Users\DEVELO~1\AppData\Local\Temp\ccjH4SDq.s:18     .text.chSysLock:00000000 $t
C:\Users\DEVELO~1\AppData\Local\Temp\ccjH4SDq.s:23     .text.chSysLock:00000000 chSysLock
C:\Users\DEVELO~1\AppData\Local\Temp\ccjH4SDq.s:77     .text.chSysUnlock:00000000 $t
C:\Users\DEVELO~1\AppData\Local\Temp\ccjH4SDq.s:82     .text.chSysUnlock:00000000 chSysUnlock
C:\Users\DEVELO~1\AppData\Local\Temp\ccjH4SDq.s:133    .text.chCacheReleaseObject:00000000 $t
C:\Users\DEVELO~1\AppData\Local\Temp\ccjH4SDq.s:138    .text.chCacheReleaseObject:00000000 chCacheReleaseObject
C:\Users\DEVELO~1\AppData\Local\Temp\ccjH4SDq.s:177    .bss.hash_headers:00000000 $d
C:\Users\DEVELO~1\AppData\Local\Temp\ccjH4SDq.s:180    .bss.hash_headers:00000000 hash_headers
C:\Users\DEVELO~1\AppData\Local\Temp\ccjH4SDq.s:183    .bss.objects:00000000 $d
C:\Users\DEVELO~1\AppData\Local\Temp\ccjH4SDq.s:186    .bss.objects:00000000 objects
C:\Users\DEVELO~1\AppData\Local\Temp\ccjH4SDq.s:189    .bss.cache1:00000000 $d
C:\Users\DEVELO~1\AppData\Local\Temp\ccjH4SDq.s:192    .bss.cache1:00000000 cache1
C:\Users\DEVELO~1\AppData\Local\Temp\ccjH4SDq.s:195    .text.obj_read:00000000 $t
C:\Users\DEVELO~1\AppData\Local\Temp\ccjH4SDq.s:200    .text.obj_read:00000000 obj_read
C:\Users\DEVELO~1\AppData\Local\Temp\ccjH4SDq.s:257    .text.obj_write:00000000 $t
C:\Users\DEVELO~1\AppData\Local\Temp\ccjH4SDq.s:262    .text.obj_write:00000000 obj_write
C:\Users\DEVELO~1\AppData\Local\Temp\ccjH4SDq.s:303    .rodata:00000000 $d
C:\Users\DEVELO~1\AppData\Local\Temp\ccjH4SDq.s:328    .text.oslib_test_006_001_execute:00000000 $t
C:\Users\DEVELO~1\AppData\Local\Temp\ccjH4SDq.s:333    .text.oslib_test_006_001_execute:00000000 oslib_test_006_001_execute
C:\Users\DEVELO~1\AppData\Local\Temp\ccjH4SDq.s:572    .text.oslib_test_006_001_execute:000001b0 $d
C:\Users\DEVELO~1\AppData\Local\Temp\ccjH4SDq.s:589    .text.oslib_test_006_001_execute:000001e8 $t
C:\Users\DEVELO~1\AppData\Local\Temp\ccjH4SDq.s:856    .text.oslib_test_006_001_execute:000003d8 $d
C:\Users\DEVELO~1\AppData\Local\Temp\ccjH4SDq.s:873    .rodata.oslib_test_006_001:00000000 $d
C:\Users\DEVELO~1\AppData\Local\Temp\ccjH4SDq.s:876    .rodata.oslib_test_006_001:00000000 oslib_test_006_001
C:\Users\DEVELO~1\AppData\Local\Temp\ccjH4SDq.s:886    .rodata.oslib_test_sequence_006_array:00000000 oslib_test_sequence_006_array
C:\Users\DEVELO~1\AppData\Local\Temp\ccjH4SDq.s:883    .rodata.oslib_test_sequence_006_array:00000000 $d
C:\Users\DEVELO~1\AppData\Local\Temp\ccjH4SDq.s:898    .rodata.oslib_test_sequence_006:00000000 oslib_test_sequence_006
C:\Users\DEVELO~1\AppData\Local\Temp\ccjH4SDq.s:895    .rodata.oslib_test_sequence_006:00000000 $d

UNDEFINED SYMBOLS
chCacheReleaseObjectI
chSchRescheduleS
test_emit_token
chCacheObjectInit
chCacheGetObject
__test_assert
__test_assert_sequence
chCacheReadObject
chtest
