ARM GAS  C:\Users\DEVELO~1\AppData\Local\Temp\ccB1Xwvd.s 			page 1


   1              		.cpu cortex-m7
   2              		.arch armv7e-m
   3              		.fpu softvfp
   4              		.eabi_attribute 20, 1
   5              		.eabi_attribute 21, 1
   6              		.eabi_attribute 23, 3
   7              		.eabi_attribute 24, 1
   8              		.eabi_attribute 25, 1
   9              		.eabi_attribute 26, 1
  10              		.eabi_attribute 30, 6
  11              		.eabi_attribute 34, 1
  12              		.eabi_attribute 18, 4
  13              		.file	"oslib_test_sequence_003.c"
  14              		.text
  15              	.Ltext0:
  16              		.cfi_sections	.debug_frame
  17              		.section	.text.chPipeResume,"ax",%progbits
  18              		.align	1
  19              		.syntax unified
  20              		.thumb
  21              		.thumb_func
  22              		.type	chPipeResume, %function
  23              	chPipeResume:
  24              	.LFB317:
  25              		.file 1 "../../../os/oslib/include/chpipes.h"
  26              		.loc 1 199 45
  27              		.cfi_startproc
  28              		@ args = 0, pretend = 0, frame = 8
  29              		@ frame_needed = 1, uses_anonymous_args = 0
  30              		@ link register save eliminated.
  31 0000 80B4     		push	{r7}
  32              		.cfi_def_cfa_offset 4
  33              		.cfi_offset 7, -4
  34 0002 83B0     		sub	sp, sp, #12
  35              		.cfi_def_cfa_offset 16
  36 0004 00AF     		add	r7, sp, #0
  37              		.cfi_def_cfa_register 7
  38 0006 7860     		str	r0, [r7, #4]
  39              		.loc 1 201 13
  40 0008 7B68     		ldr	r3, [r7, #4]
  41 000a 0022     		movs	r2, #0
  42 000c 1A75     		strb	r2, [r3, #20]
  43              		.loc 1 202 1
  44 000e 00BF     		nop
  45 0010 0C37     		adds	r7, r7, #12
  46              		.cfi_def_cfa_offset 4
  47 0012 BD46     		mov	sp, r7
  48              		.cfi_def_cfa_register 13
  49              		@ sp needed
  50 0014 80BC     		pop	{r7}
  51              		.cfi_restore 7
  52              		.cfi_def_cfa_offset 0
  53 0016 7047     		bx	lr
  54              		.cfi_endproc
  55              	.LFE317:
  56              		.size	chPipeResume, .-chPipeResume
  57              		.section	.bss.buffer,"aw",%nobits
ARM GAS  C:\Users\DEVELO~1\AppData\Local\Temp\ccB1Xwvd.s 			page 2


  58              		.align	2
  59              		.type	buffer, %object
  60              		.size	buffer, 16
  61              	buffer:
  62 0000 00000000 		.space	16
  62      00000000 
  62      00000000 
  62      00000000 
  63              		.section	.data.pipe1,"aw"
  64              		.align	2
  65              		.type	pipe1, %object
  66              		.size	pipe1, 80
  67              	pipe1:
  68 0000 00000000 		.word	buffer
  69 0004 10000000 		.word	buffer+16
  70 0008 00000000 		.word	buffer
  71 000c 00000000 		.word	buffer
  72 0010 00000000 		.word	0
  73 0014 00       		.byte	0
  74 0015 000000   		.space	3
  75 0018 00000000 		.word	0
  76 001c 00000000 		.word	0
  77 0020 20000000 		.word	pipe1+32
  78 0024 20000000 		.word	pipe1+32
  79 0028 00000000 		.word	0
  80 002c 00000000 		.word	0
  81 0030 30000000 		.word	pipe1+48
  82 0034 30000000 		.word	pipe1+48
  83 0038 00000000 		.word	0
  84 003c 00000000 		.word	0
  85 0040 40000000 		.word	pipe1+64
  86 0044 40000000 		.word	pipe1+64
  87 0048 00000000 		.word	0
  88 004c 00000000 		.word	0
  89              		.section	.rodata.pipe_pattern,"a"
  90              		.align	2
  91              		.type	pipe_pattern, %object
  92              		.size	pipe_pattern, 17
  93              	pipe_pattern:
  94 0000 30313233 		.ascii	"0123456789ABCDEF\000"
  94      34353637 
  94      38394142 
  94      43444546 
  94      00
  95              		.section	.text.oslib_test_003_001_setup,"ax",%progbits
  96              		.align	1
  97              		.syntax unified
  98              		.thumb
  99              		.thumb_func
 100              		.type	oslib_test_003_001_setup, %function
 101              	oslib_test_003_001_setup:
 102              	.LFB436:
 103              		.file 2 "../../../test/oslib/source/test/oslib_test_sequence_003.c"
 104              		.loc 2 88 44
 105              		.cfi_startproc
 106              		@ args = 0, pretend = 0, frame = 0
 107              		@ frame_needed = 1, uses_anonymous_args = 0
ARM GAS  C:\Users\DEVELO~1\AppData\Local\Temp\ccB1Xwvd.s 			page 3


 108 0000 80B5     		push	{r7, lr}
 109              		.cfi_def_cfa_offset 8
 110              		.cfi_offset 7, -8
 111              		.cfi_offset 14, -4
 112 0002 00AF     		add	r7, sp, #0
 113              		.cfi_def_cfa_register 7
 114              		.loc 2 89 3
 115 0004 1022     		movs	r2, #16
 116 0006 0349     		ldr	r1, .L3
 117 0008 0348     		ldr	r0, .L3+4
 118 000a FFF7FEFF 		bl	chPipeObjectInit
 119              		.loc 2 90 1
 120 000e 00BF     		nop
 121 0010 80BD     		pop	{r7, pc}
 122              	.L4:
 123 0012 00BF     		.align	2
 124              	.L3:
 125 0014 00000000 		.word	buffer
 126 0018 00000000 		.word	pipe1
 127              		.cfi_endproc
 128              	.LFE436:
 129              		.size	oslib_test_003_001_setup, .-oslib_test_003_001_setup
 130              		.section	.rodata
 131              		.align	2
 132              	.LC0:
 133 0000 696E7661 		.ascii	"invalid pipe state\000"
 133      6C696420 
 133      70697065 
 133      20737461 
 133      746500
 134 0013 00       		.align	2
 135              	.LC1:
 136 0014 6E6F7420 		.ascii	"not reset\000"
 136      72657365 
 136      7400
 137 001e 0000     		.align	2
 138              	.LC2:
 139 0020 77726F6E 		.ascii	"wrong size\000"
 139      67207369 
 139      7A6500
 140 002b 00       		.align	2
 141              	.LC3:
 142 002c 636F6E74 		.ascii	"content mismatch\000"
 142      656E7420 
 142      6D69736D 
 142      61746368 
 142      00
 143              		.section	.text.oslib_test_003_001_execute,"ax",%progbits
 144              		.align	1
 145              		.syntax unified
 146              		.thumb
 147              		.thumb_func
 148              		.type	oslib_test_003_001_execute, %function
 149              	oslib_test_003_001_execute:
 150              	.LFB437:
 151              		.loc 2 92 46
 152              		.cfi_startproc
ARM GAS  C:\Users\DEVELO~1\AppData\Local\Temp\ccB1Xwvd.s 			page 4


 153              		@ args = 0, pretend = 0, frame = 144
 154              		@ frame_needed = 1, uses_anonymous_args = 0
 155 0000 80B5     		push	{r7, lr}
 156              		.cfi_def_cfa_offset 8
 157              		.cfi_offset 7, -8
 158              		.cfi_offset 14, -4
 159 0002 A4B0     		sub	sp, sp, #144
 160              		.cfi_def_cfa_offset 152
 161 0004 00AF     		add	r7, sp, #0
 162              		.cfi_def_cfa_register 7
 163              		.loc 2 95 3
 164 0006 8F4B     		ldr	r3, .L77
 165 0008 0122     		movs	r2, #1
 166 000a 1A60     		str	r2, [r3]
 167              		.loc 2 97 5
 168 000c 8E48     		ldr	r0, .L77+4
 169 000e FFF7FEFF 		bl	chPipeReset
 170              		.loc 2 99 5
 171 0012 8D4B     		ldr	r3, .L77+4
 172 0014 DA68     		ldr	r2, [r3, #12]
 173 0016 8C4B     		ldr	r3, .L77+4
 174 0018 1B68     		ldr	r3, [r3]
 175 001a 9A42     		cmp	r2, r3
 176 001c 0BD1     		bne	.L6
 177              		.loc 2 99 5 is_stmt 0 discriminator 1
 178 001e 8A4B     		ldr	r3, .L77+4
 179 0020 9A68     		ldr	r2, [r3, #8]
 180 0022 894B     		ldr	r3, .L77+4
 181 0024 1B68     		ldr	r3, [r3]
 182 0026 9A42     		cmp	r2, r3
 183 0028 05D1     		bne	.L6
 184              		.loc 2 99 5 discriminator 3
 185 002a 874B     		ldr	r3, .L77+4
 186 002c 1B69     		ldr	r3, [r3, #16]
 187 002e 002B     		cmp	r3, #0
 188 0030 01D1     		bne	.L6
 189              		.loc 2 99 5 discriminator 5
 190 0032 0123     		movs	r3, #1
 191 0034 00E0     		b	.L7
 192              	.L6:
 193              		.loc 2 99 5 discriminator 6
 194 0036 0023     		movs	r3, #0
 195              	.L7:
 196              		.loc 2 99 5 discriminator 8
 197 0038 03F00103 		and	r3, r3, #1
 198 003c DBB2     		uxtb	r3, r3
 199 003e 8349     		ldr	r1, .L77+8
 200 0040 1846     		mov	r0, r3
 201 0042 FFF7FEFF 		bl	__test_assert
 202 0046 0346     		mov	r3, r0
 203 0048 002B     		cmp	r3, #0
 204 004a 40F03383 		bne	.L5
 205              		.loc 2 107 3 is_stmt 1
 206 004e 7D4B     		ldr	r3, .L77
 207 0050 0222     		movs	r2, #2
 208 0052 1A60     		str	r2, [r3]
 209              	.LBB2:
ARM GAS  C:\Users\DEVELO~1\AppData\Local\Temp\ccB1Xwvd.s 			page 5


 210              		.loc 2 111 9
 211 0054 0023     		movs	r3, #0
 212 0056 1022     		movs	r2, #16
 213 0058 7D49     		ldr	r1, .L77+12
 214 005a 7B48     		ldr	r0, .L77+4
 215 005c FFF7FEFF 		bl	chPipeWriteTimeout
 216 0060 C7F88C00 		str	r0, [r7, #140]
 217              		.loc 2 112 5
 218 0064 D7F88C30 		ldr	r3, [r7, #140]
 219 0068 002B     		cmp	r3, #0
 220 006a 0CBF     		ite	eq
 221 006c 0123     		moveq	r3, #1
 222 006e 0023     		movne	r3, #0
 223 0070 DBB2     		uxtb	r3, r3
 224 0072 7849     		ldr	r1, .L77+16
 225 0074 1846     		mov	r0, r3
 226 0076 FFF7FEFF 		bl	__test_assert
 227 007a 0346     		mov	r3, r0
 228 007c 002B     		cmp	r3, #0
 229 007e 40F01983 		bne	.L5
 230              		.loc 2 113 5
 231 0082 714B     		ldr	r3, .L77+4
 232 0084 DA68     		ldr	r2, [r3, #12]
 233 0086 704B     		ldr	r3, .L77+4
 234 0088 1B68     		ldr	r3, [r3]
 235 008a 9A42     		cmp	r2, r3
 236 008c 0BD1     		bne	.L11
 237              		.loc 2 113 5 is_stmt 0 discriminator 1
 238 008e 6E4B     		ldr	r3, .L77+4
 239 0090 9A68     		ldr	r2, [r3, #8]
 240 0092 6D4B     		ldr	r3, .L77+4
 241 0094 1B68     		ldr	r3, [r3]
 242 0096 9A42     		cmp	r2, r3
 243 0098 05D1     		bne	.L11
 244              		.loc 2 113 5 discriminator 3
 245 009a 6B4B     		ldr	r3, .L77+4
 246 009c 1B69     		ldr	r3, [r3, #16]
 247 009e 002B     		cmp	r3, #0
 248 00a0 01D1     		bne	.L11
 249              		.loc 2 113 5 discriminator 5
 250 00a2 0123     		movs	r3, #1
 251 00a4 00E0     		b	.L12
 252              	.L11:
 253              		.loc 2 113 5 discriminator 6
 254 00a6 0023     		movs	r3, #0
 255              	.L12:
 256              		.loc 2 113 5 discriminator 8
 257 00a8 03F00103 		and	r3, r3, #1
 258 00ac DBB2     		uxtb	r3, r3
 259 00ae 6749     		ldr	r1, .L77+8
 260 00b0 1846     		mov	r0, r3
 261 00b2 FFF7FEFF 		bl	__test_assert
 262 00b6 0346     		mov	r3, r0
 263 00b8 002B     		cmp	r3, #0
 264 00ba 40F0FB82 		bne	.L5
 265              	.LBE2:
 266              		.loc 2 121 3 is_stmt 1
ARM GAS  C:\Users\DEVELO~1\AppData\Local\Temp\ccB1Xwvd.s 			page 6


 267 00be 614B     		ldr	r3, .L77
 268 00c0 0322     		movs	r2, #3
 269 00c2 1A60     		str	r2, [r3]
 270              	.LBB3:
 271              		.loc 2 126 9
 272 00c4 07F15001 		add	r1, r7, #80
 273 00c8 0023     		movs	r3, #0
 274 00ca 1022     		movs	r2, #16
 275 00cc 5E48     		ldr	r0, .L77+4
 276 00ce FFF7FEFF 		bl	chPipeReadTimeout
 277 00d2 C7F88800 		str	r0, [r7, #136]
 278              		.loc 2 127 5
 279 00d6 D7F88830 		ldr	r3, [r7, #136]
 280 00da 002B     		cmp	r3, #0
 281 00dc 0CBF     		ite	eq
 282 00de 0123     		moveq	r3, #1
 283 00e0 0023     		movne	r3, #0
 284 00e2 DBB2     		uxtb	r3, r3
 285 00e4 5B49     		ldr	r1, .L77+16
 286 00e6 1846     		mov	r0, r3
 287 00e8 FFF7FEFF 		bl	__test_assert
 288 00ec 0346     		mov	r3, r0
 289 00ee 002B     		cmp	r3, #0
 290 00f0 40F0E082 		bne	.L5
 291              		.loc 2 128 5
 292 00f4 544B     		ldr	r3, .L77+4
 293 00f6 DA68     		ldr	r2, [r3, #12]
 294 00f8 534B     		ldr	r3, .L77+4
 295 00fa 1B68     		ldr	r3, [r3]
 296 00fc 9A42     		cmp	r2, r3
 297 00fe 0BD1     		bne	.L16
 298              		.loc 2 128 5 is_stmt 0 discriminator 1
 299 0100 514B     		ldr	r3, .L77+4
 300 0102 9A68     		ldr	r2, [r3, #8]
 301 0104 504B     		ldr	r3, .L77+4
 302 0106 1B68     		ldr	r3, [r3]
 303 0108 9A42     		cmp	r2, r3
 304 010a 05D1     		bne	.L16
 305              		.loc 2 128 5 discriminator 3
 306 010c 4E4B     		ldr	r3, .L77+4
 307 010e 1B69     		ldr	r3, [r3, #16]
 308 0110 002B     		cmp	r3, #0
 309 0112 01D1     		bne	.L16
 310              		.loc 2 128 5 discriminator 5
 311 0114 0123     		movs	r3, #1
 312 0116 00E0     		b	.L17
 313              	.L16:
 314              		.loc 2 128 5 discriminator 6
 315 0118 0023     		movs	r3, #0
 316              	.L17:
 317              		.loc 2 128 5 discriminator 8
 318 011a 03F00103 		and	r3, r3, #1
 319 011e DBB2     		uxtb	r3, r3
 320 0120 4A49     		ldr	r1, .L77+8
 321 0122 1846     		mov	r0, r3
 322 0124 FFF7FEFF 		bl	__test_assert
 323 0128 0346     		mov	r3, r0
ARM GAS  C:\Users\DEVELO~1\AppData\Local\Temp\ccB1Xwvd.s 			page 7


 324 012a 002B     		cmp	r3, #0
 325 012c 40F0C282 		bne	.L5
 326              	.LBE3:
 327              		.loc 2 136 3 is_stmt 1
 328 0130 444B     		ldr	r3, .L77
 329 0132 0422     		movs	r2, #4
 330 0134 1A60     		str	r2, [r3]
 331              		.loc 2 138 5
 332 0136 4448     		ldr	r0, .L77+4
 333 0138 FFF7FEFF 		bl	chPipeResume
 334              		.loc 2 139 5
 335 013c 424B     		ldr	r3, .L77+4
 336 013e DA68     		ldr	r2, [r3, #12]
 337 0140 414B     		ldr	r3, .L77+4
 338 0142 1B68     		ldr	r3, [r3]
 339 0144 9A42     		cmp	r2, r3
 340 0146 0BD1     		bne	.L20
 341              		.loc 2 139 5 is_stmt 0 discriminator 1
 342 0148 3F4B     		ldr	r3, .L77+4
 343 014a 9A68     		ldr	r2, [r3, #8]
 344 014c 3E4B     		ldr	r3, .L77+4
 345 014e 1B68     		ldr	r3, [r3]
 346 0150 9A42     		cmp	r2, r3
 347 0152 05D1     		bne	.L20
 348              		.loc 2 139 5 discriminator 3
 349 0154 3C4B     		ldr	r3, .L77+4
 350 0156 1B69     		ldr	r3, [r3, #16]
 351 0158 002B     		cmp	r3, #0
 352 015a 01D1     		bne	.L20
 353              		.loc 2 139 5 discriminator 5
 354 015c 0123     		movs	r3, #1
 355 015e 00E0     		b	.L21
 356              	.L20:
 357              		.loc 2 139 5 discriminator 6
 358 0160 0023     		movs	r3, #0
 359              	.L21:
 360              		.loc 2 139 5 discriminator 8
 361 0162 03F00103 		and	r3, r3, #1
 362 0166 DBB2     		uxtb	r3, r3
 363 0168 3849     		ldr	r1, .L77+8
 364 016a 1846     		mov	r0, r3
 365 016c FFF7FEFF 		bl	__test_assert
 366 0170 0346     		mov	r3, r0
 367 0172 002B     		cmp	r3, #0
 368 0174 40F09E82 		bne	.L5
 369              		.loc 2 147 3 is_stmt 1
 370 0178 324B     		ldr	r3, .L77
 371 017a 0522     		movs	r2, #5
 372 017c 1A60     		str	r2, [r3]
 373              	.LBB4:
 374              		.loc 2 151 9
 375 017e 0023     		movs	r3, #0
 376 0180 1022     		movs	r2, #16
 377 0182 3349     		ldr	r1, .L77+12
 378 0184 3048     		ldr	r0, .L77+4
 379 0186 FFF7FEFF 		bl	chPipeWriteTimeout
 380 018a C7F88400 		str	r0, [r7, #132]
ARM GAS  C:\Users\DEVELO~1\AppData\Local\Temp\ccB1Xwvd.s 			page 8


 381              		.loc 2 152 5
 382 018e D7F88430 		ldr	r3, [r7, #132]
 383 0192 102B     		cmp	r3, #16
 384 0194 0CBF     		ite	eq
 385 0196 0123     		moveq	r3, #1
 386 0198 0023     		movne	r3, #0
 387 019a DBB2     		uxtb	r3, r3
 388 019c 2E49     		ldr	r1, .L77+20
 389 019e 1846     		mov	r0, r3
 390 01a0 FFF7FEFF 		bl	__test_assert
 391 01a4 0346     		mov	r3, r0
 392 01a6 002B     		cmp	r3, #0
 393 01a8 40F08482 		bne	.L5
 394              		.loc 2 153 5
 395 01ac 264B     		ldr	r3, .L77+4
 396 01ae DA68     		ldr	r2, [r3, #12]
 397 01b0 254B     		ldr	r3, .L77+4
 398 01b2 1B68     		ldr	r3, [r3]
 399 01b4 9A42     		cmp	r2, r3
 400 01b6 0BD1     		bne	.L24
 401              		.loc 2 153 5 is_stmt 0 discriminator 1
 402 01b8 234B     		ldr	r3, .L77+4
 403 01ba 9A68     		ldr	r2, [r3, #8]
 404 01bc 224B     		ldr	r3, .L77+4
 405 01be 1B68     		ldr	r3, [r3]
 406 01c0 9A42     		cmp	r2, r3
 407 01c2 05D1     		bne	.L24
 408              		.loc 2 153 5 discriminator 3
 409 01c4 204B     		ldr	r3, .L77+4
 410 01c6 1B69     		ldr	r3, [r3, #16]
 411 01c8 102B     		cmp	r3, #16
 412 01ca 01D1     		bne	.L24
 413              		.loc 2 153 5 discriminator 5
 414 01cc 0123     		movs	r3, #1
 415 01ce 00E0     		b	.L25
 416              	.L24:
 417              		.loc 2 153 5 discriminator 6
 418 01d0 0023     		movs	r3, #0
 419              	.L25:
 420              		.loc 2 153 5 discriminator 8
 421 01d2 03F00103 		and	r3, r3, #1
 422 01d6 DBB2     		uxtb	r3, r3
 423 01d8 1C49     		ldr	r1, .L77+8
 424 01da 1846     		mov	r0, r3
 425 01dc FFF7FEFF 		bl	__test_assert
 426 01e0 0346     		mov	r3, r0
 427 01e2 002B     		cmp	r3, #0
 428 01e4 40F06682 		bne	.L5
 429              	.LBE4:
 430              		.loc 2 161 3 is_stmt 1
 431 01e8 164B     		ldr	r3, .L77
 432 01ea 0622     		movs	r2, #6
 433 01ec 1A60     		str	r2, [r3]
 434              	.LBB5:
 435              		.loc 2 166 9
 436 01ee 07F14001 		add	r1, r7, #64
 437 01f2 0023     		movs	r3, #0
ARM GAS  C:\Users\DEVELO~1\AppData\Local\Temp\ccB1Xwvd.s 			page 9


 438 01f4 1022     		movs	r2, #16
 439 01f6 1448     		ldr	r0, .L77+4
 440 01f8 FFF7FEFF 		bl	chPipeReadTimeout
 441 01fc C7F88000 		str	r0, [r7, #128]
 442              		.loc 2 167 5
 443 0200 D7F88030 		ldr	r3, [r7, #128]
 444 0204 102B     		cmp	r3, #16
 445 0206 0CBF     		ite	eq
 446 0208 0123     		moveq	r3, #1
 447 020a 0023     		movne	r3, #0
 448 020c DBB2     		uxtb	r3, r3
 449 020e 1249     		ldr	r1, .L77+20
 450 0210 1846     		mov	r0, r3
 451 0212 FFF7FEFF 		bl	__test_assert
 452 0216 0346     		mov	r3, r0
 453 0218 002B     		cmp	r3, #0
 454 021a 40F04B82 		bne	.L5
 455              		.loc 2 168 5
 456 021e 0A4B     		ldr	r3, .L77+4
 457 0220 DA68     		ldr	r2, [r3, #12]
 458 0222 094B     		ldr	r3, .L77+4
 459 0224 1B68     		ldr	r3, [r3]
 460 0226 9A42     		cmp	r2, r3
 461 0228 18D1     		bne	.L29
 462              		.loc 2 168 5 is_stmt 0 discriminator 1
 463 022a 074B     		ldr	r3, .L77+4
 464 022c 9A68     		ldr	r2, [r3, #8]
 465 022e 064B     		ldr	r3, .L77+4
 466 0230 1B68     		ldr	r3, [r3]
 467 0232 9A42     		cmp	r2, r3
 468 0234 12D1     		bne	.L29
 469              		.loc 2 168 5 discriminator 3
 470 0236 044B     		ldr	r3, .L77+4
 471 0238 1B69     		ldr	r3, [r3, #16]
 472 023a 002B     		cmp	r3, #0
 473 023c 0ED1     		bne	.L29
 474              		.loc 2 168 5 discriminator 5
 475 023e 0123     		movs	r3, #1
 476 0240 0DE0     		b	.L30
 477              	.L78:
 478 0242 00BF     		.align	2
 479              	.L77:
 480 0244 00000000 		.word	chtest
 481 0248 00000000 		.word	pipe1
 482 024c 00000000 		.word	.LC0
 483 0250 00000000 		.word	pipe_pattern
 484 0254 14000000 		.word	.LC1
 485 0258 20000000 		.word	.LC2
 486              	.L29:
 487              		.loc 2 168 5 discriminator 6
 488 025c 0023     		movs	r3, #0
 489              	.L30:
 490              		.loc 2 168 5 discriminator 8
 491 025e 03F00103 		and	r3, r3, #1
 492 0262 DBB2     		uxtb	r3, r3
 493 0264 7F49     		ldr	r1, .L79
 494 0266 1846     		mov	r0, r3
ARM GAS  C:\Users\DEVELO~1\AppData\Local\Temp\ccB1Xwvd.s 			page 10


 495 0268 FFF7FEFF 		bl	__test_assert
 496 026c 0346     		mov	r3, r0
 497 026e 002B     		cmp	r3, #0
 498 0270 40F02082 		bne	.L5
 499              		.loc 2 172 5 is_stmt 1
 500 0274 07F14003 		add	r3, r7, #64
 501 0278 1022     		movs	r2, #16
 502 027a 1946     		mov	r1, r3
 503 027c 7A48     		ldr	r0, .L79+4
 504 027e FFF7FEFF 		bl	memcmp
 505 0282 0346     		mov	r3, r0
 506 0284 002B     		cmp	r3, #0
 507 0286 0CBF     		ite	eq
 508 0288 0123     		moveq	r3, #1
 509 028a 0023     		movne	r3, #0
 510 028c DBB2     		uxtb	r3, r3
 511 028e 7749     		ldr	r1, .L79+8
 512 0290 1846     		mov	r0, r3
 513 0292 FFF7FEFF 		bl	__test_assert
 514 0296 0346     		mov	r3, r0
 515 0298 002B     		cmp	r3, #0
 516 029a 40F00B82 		bne	.L5
 517              	.LBE5:
 518              		.loc 2 177 3
 519 029e 744B     		ldr	r3, .L79+12
 520 02a0 0722     		movs	r2, #7
 521 02a2 1A60     		str	r2, [r3]
 522              	.LBB6:
 523              		.loc 2 181 9
 524 02a4 0023     		movs	r3, #0
 525 02a6 0422     		movs	r2, #4
 526 02a8 6F49     		ldr	r1, .L79+4
 527 02aa 7248     		ldr	r0, .L79+16
 528 02ac FFF7FEFF 		bl	chPipeWriteTimeout
 529 02b0 F867     		str	r0, [r7, #124]
 530              		.loc 2 182 5
 531 02b2 FB6F     		ldr	r3, [r7, #124]
 532 02b4 042B     		cmp	r3, #4
 533 02b6 0CBF     		ite	eq
 534 02b8 0123     		moveq	r3, #1
 535 02ba 0023     		movne	r3, #0
 536 02bc DBB2     		uxtb	r3, r3
 537 02be 6E49     		ldr	r1, .L79+20
 538 02c0 1846     		mov	r0, r3
 539 02c2 FFF7FEFF 		bl	__test_assert
 540 02c6 0346     		mov	r3, r0
 541 02c8 002B     		cmp	r3, #0
 542 02ca 40F0F381 		bne	.L5
 543              		.loc 2 183 5
 544 02ce 694B     		ldr	r3, .L79+16
 545 02d0 DA68     		ldr	r2, [r3, #12]
 546 02d2 684B     		ldr	r3, .L79+16
 547 02d4 9B68     		ldr	r3, [r3, #8]
 548 02d6 9A42     		cmp	r2, r3
 549 02d8 0BD0     		beq	.L35
 550              		.loc 2 183 5 is_stmt 0 discriminator 1
 551 02da 664B     		ldr	r3, .L79+16
ARM GAS  C:\Users\DEVELO~1\AppData\Local\Temp\ccB1Xwvd.s 			page 11


 552 02dc DA68     		ldr	r2, [r3, #12]
 553 02de 654B     		ldr	r3, .L79+16
 554 02e0 1B68     		ldr	r3, [r3]
 555 02e2 9A42     		cmp	r2, r3
 556 02e4 05D1     		bne	.L35
 557              		.loc 2 183 5 discriminator 3
 558 02e6 634B     		ldr	r3, .L79+16
 559 02e8 1B69     		ldr	r3, [r3, #16]
 560 02ea 042B     		cmp	r3, #4
 561 02ec 01D1     		bne	.L35
 562              		.loc 2 183 5 discriminator 5
 563 02ee 0123     		movs	r3, #1
 564 02f0 00E0     		b	.L36
 565              	.L35:
 566              		.loc 2 183 5 discriminator 6
 567 02f2 0023     		movs	r3, #0
 568              	.L36:
 569              		.loc 2 183 5 discriminator 8
 570 02f4 03F00103 		and	r3, r3, #1
 571 02f8 DBB2     		uxtb	r3, r3
 572 02fa 5A49     		ldr	r1, .L79
 573 02fc 1846     		mov	r0, r3
 574 02fe FFF7FEFF 		bl	__test_assert
 575 0302 0346     		mov	r3, r0
 576 0304 002B     		cmp	r3, #0
 577 0306 40F0D581 		bne	.L5
 578              	.LBE6:
 579              		.loc 2 191 3 is_stmt 1
 580 030a 594B     		ldr	r3, .L79+12
 581 030c 0822     		movs	r2, #8
 582 030e 1A60     		str	r2, [r3]
 583              	.LBB7:
 584              		.loc 2 195 9
 585 0310 0023     		movs	r3, #0
 586 0312 0C22     		movs	r2, #12
 587 0314 5449     		ldr	r1, .L79+4
 588 0316 5748     		ldr	r0, .L79+16
 589 0318 FFF7FEFF 		bl	chPipeWriteTimeout
 590 031c B867     		str	r0, [r7, #120]
 591              		.loc 2 196 5
 592 031e BB6F     		ldr	r3, [r7, #120]
 593 0320 0C2B     		cmp	r3, #12
 594 0322 0CBF     		ite	eq
 595 0324 0123     		moveq	r3, #1
 596 0326 0023     		movne	r3, #0
 597 0328 DBB2     		uxtb	r3, r3
 598 032a 5349     		ldr	r1, .L79+20
 599 032c 1846     		mov	r0, r3
 600 032e FFF7FEFF 		bl	__test_assert
 601 0332 0346     		mov	r3, r0
 602 0334 002B     		cmp	r3, #0
 603 0336 40F0BD81 		bne	.L5
 604              		.loc 2 197 5
 605 033a 4E4B     		ldr	r3, .L79+16
 606 033c DA68     		ldr	r2, [r3, #12]
 607 033e 4D4B     		ldr	r3, .L79+16
 608 0340 1B68     		ldr	r3, [r3]
ARM GAS  C:\Users\DEVELO~1\AppData\Local\Temp\ccB1Xwvd.s 			page 12


 609 0342 9A42     		cmp	r2, r3
 610 0344 0BD1     		bne	.L39
 611              		.loc 2 197 5 is_stmt 0 discriminator 1
 612 0346 4B4B     		ldr	r3, .L79+16
 613 0348 9A68     		ldr	r2, [r3, #8]
 614 034a 4A4B     		ldr	r3, .L79+16
 615 034c 1B68     		ldr	r3, [r3]
 616 034e 9A42     		cmp	r2, r3
 617 0350 05D1     		bne	.L39
 618              		.loc 2 197 5 discriminator 3
 619 0352 484B     		ldr	r3, .L79+16
 620 0354 1B69     		ldr	r3, [r3, #16]
 621 0356 102B     		cmp	r3, #16
 622 0358 01D1     		bne	.L39
 623              		.loc 2 197 5 discriminator 5
 624 035a 0123     		movs	r3, #1
 625 035c 00E0     		b	.L40
 626              	.L39:
 627              		.loc 2 197 5 discriminator 6
 628 035e 0023     		movs	r3, #0
 629              	.L40:
 630              		.loc 2 197 5 discriminator 8
 631 0360 03F00103 		and	r3, r3, #1
 632 0364 DBB2     		uxtb	r3, r3
 633 0366 3F49     		ldr	r1, .L79
 634 0368 1846     		mov	r0, r3
 635 036a FFF7FEFF 		bl	__test_assert
 636 036e 0346     		mov	r3, r0
 637 0370 002B     		cmp	r3, #0
 638 0372 40F09F81 		bne	.L5
 639              	.LBE7:
 640              		.loc 2 205 3 is_stmt 1
 641 0376 3E4B     		ldr	r3, .L79+12
 642 0378 0922     		movs	r2, #9
 643 037a 1A60     		str	r2, [r3]
 644              	.LBB8:
 645              		.loc 2 210 9
 646 037c 07F13001 		add	r1, r7, #48
 647 0380 0023     		movs	r3, #0
 648 0382 0422     		movs	r2, #4
 649 0384 3B48     		ldr	r0, .L79+16
 650 0386 FFF7FEFF 		bl	chPipeReadTimeout
 651 038a 7867     		str	r0, [r7, #116]
 652              		.loc 2 211 5
 653 038c 7B6F     		ldr	r3, [r7, #116]
 654 038e 042B     		cmp	r3, #4
 655 0390 0CBF     		ite	eq
 656 0392 0123     		moveq	r3, #1
 657 0394 0023     		movne	r3, #0
 658 0396 DBB2     		uxtb	r3, r3
 659 0398 3749     		ldr	r1, .L79+20
 660 039a 1846     		mov	r0, r3
 661 039c FFF7FEFF 		bl	__test_assert
 662 03a0 0346     		mov	r3, r0
 663 03a2 002B     		cmp	r3, #0
 664 03a4 40F08681 		bne	.L5
 665              		.loc 2 212 5
ARM GAS  C:\Users\DEVELO~1\AppData\Local\Temp\ccB1Xwvd.s 			page 13


 666 03a8 324B     		ldr	r3, .L79+16
 667 03aa DA68     		ldr	r2, [r3, #12]
 668 03ac 314B     		ldr	r3, .L79+16
 669 03ae 1B68     		ldr	r3, [r3]
 670 03b0 9A42     		cmp	r2, r3
 671 03b2 0BD0     		beq	.L44
 672              		.loc 2 212 5 is_stmt 0 discriminator 1
 673 03b4 2F4B     		ldr	r3, .L79+16
 674 03b6 9A68     		ldr	r2, [r3, #8]
 675 03b8 2E4B     		ldr	r3, .L79+16
 676 03ba 1B68     		ldr	r3, [r3]
 677 03bc 9A42     		cmp	r2, r3
 678 03be 05D1     		bne	.L44
 679              		.loc 2 212 5 discriminator 3
 680 03c0 2C4B     		ldr	r3, .L79+16
 681 03c2 1B69     		ldr	r3, [r3, #16]
 682 03c4 0C2B     		cmp	r3, #12
 683 03c6 01D1     		bne	.L44
 684              		.loc 2 212 5 discriminator 5
 685 03c8 0123     		movs	r3, #1
 686 03ca 00E0     		b	.L45
 687              	.L44:
 688              		.loc 2 212 5 discriminator 6
 689 03cc 0023     		movs	r3, #0
 690              	.L45:
 691              		.loc 2 212 5 discriminator 8
 692 03ce 03F00103 		and	r3, r3, #1
 693 03d2 DBB2     		uxtb	r3, r3
 694 03d4 2349     		ldr	r1, .L79
 695 03d6 1846     		mov	r0, r3
 696 03d8 FFF7FEFF 		bl	__test_assert
 697 03dc 0346     		mov	r3, r0
 698 03de 002B     		cmp	r3, #0
 699 03e0 40F06881 		bne	.L5
 700              		.loc 2 216 5 is_stmt 1
 701 03e4 07F13003 		add	r3, r7, #48
 702 03e8 0422     		movs	r2, #4
 703 03ea 1946     		mov	r1, r3
 704 03ec 1E48     		ldr	r0, .L79+4
 705 03ee FFF7FEFF 		bl	memcmp
 706 03f2 0346     		mov	r3, r0
 707 03f4 002B     		cmp	r3, #0
 708 03f6 0CBF     		ite	eq
 709 03f8 0123     		moveq	r3, #1
 710 03fa 0023     		movne	r3, #0
 711 03fc DBB2     		uxtb	r3, r3
 712 03fe 1B49     		ldr	r1, .L79+8
 713 0400 1846     		mov	r0, r3
 714 0402 FFF7FEFF 		bl	__test_assert
 715 0406 0346     		mov	r3, r0
 716 0408 002B     		cmp	r3, #0
 717 040a 40F05381 		bne	.L5
 718              	.LBE8:
 719              		.loc 2 221 3
 720 040e 184B     		ldr	r3, .L79+12
 721 0410 0A22     		movs	r2, #10
 722 0412 1A60     		str	r2, [r3]
ARM GAS  C:\Users\DEVELO~1\AppData\Local\Temp\ccB1Xwvd.s 			page 14


 723              	.LBB9:
 724              		.loc 2 226 9
 725 0414 07F12001 		add	r1, r7, #32
 726 0418 0023     		movs	r3, #0
 727 041a 0C22     		movs	r2, #12
 728 041c 1548     		ldr	r0, .L79+16
 729 041e FFF7FEFF 		bl	chPipeReadTimeout
 730 0422 3867     		str	r0, [r7, #112]
 731              		.loc 2 227 5
 732 0424 3B6F     		ldr	r3, [r7, #112]
 733 0426 0C2B     		cmp	r3, #12
 734 0428 0CBF     		ite	eq
 735 042a 0123     		moveq	r3, #1
 736 042c 0023     		movne	r3, #0
 737 042e DBB2     		uxtb	r3, r3
 738 0430 1149     		ldr	r1, .L79+20
 739 0432 1846     		mov	r0, r3
 740 0434 FFF7FEFF 		bl	__test_assert
 741 0438 0346     		mov	r3, r0
 742 043a 002B     		cmp	r3, #0
 743 043c 40F03A81 		bne	.L5
 744              		.loc 2 228 5
 745 0440 0C4B     		ldr	r3, .L79+16
 746 0442 DA68     		ldr	r2, [r3, #12]
 747 0444 0B4B     		ldr	r3, .L79+16
 748 0446 1B68     		ldr	r3, [r3]
 749 0448 9A42     		cmp	r2, r3
 750 044a 17D1     		bne	.L51
 751              		.loc 2 228 5 is_stmt 0 discriminator 1
 752 044c 094B     		ldr	r3, .L79+16
 753 044e 9A68     		ldr	r2, [r3, #8]
 754 0450 084B     		ldr	r3, .L79+16
 755 0452 1B68     		ldr	r3, [r3]
 756 0454 9A42     		cmp	r2, r3
 757 0456 11D1     		bne	.L51
 758              		.loc 2 228 5 discriminator 3
 759 0458 064B     		ldr	r3, .L79+16
 760 045a 1B69     		ldr	r3, [r3, #16]
 761 045c 002B     		cmp	r3, #0
 762 045e 0DD1     		bne	.L51
 763              		.loc 2 228 5 discriminator 5
 764 0460 0123     		movs	r3, #1
 765 0462 0CE0     		b	.L52
 766              	.L80:
 767              		.align	2
 768              	.L79:
 769 0464 00000000 		.word	.LC0
 770 0468 00000000 		.word	pipe_pattern
 771 046c 2C000000 		.word	.LC3
 772 0470 00000000 		.word	chtest
 773 0474 00000000 		.word	pipe1
 774 0478 20000000 		.word	.LC2
 775              	.L51:
 776              		.loc 2 228 5 discriminator 6
 777 047c 0023     		movs	r3, #0
 778              	.L52:
 779              		.loc 2 228 5 discriminator 8
ARM GAS  C:\Users\DEVELO~1\AppData\Local\Temp\ccB1Xwvd.s 			page 15


 780 047e 03F00103 		and	r3, r3, #1
 781 0482 DBB2     		uxtb	r3, r3
 782 0484 8D49     		ldr	r1, .L81
 783 0486 1846     		mov	r0, r3
 784 0488 FFF7FEFF 		bl	__test_assert
 785 048c 0346     		mov	r3, r0
 786 048e 002B     		cmp	r3, #0
 787 0490 40F01081 		bne	.L5
 788              		.loc 2 232 5 is_stmt 1
 789 0494 07F12003 		add	r3, r7, #32
 790 0498 0C22     		movs	r2, #12
 791 049a 1946     		mov	r1, r3
 792 049c 8848     		ldr	r0, .L81+4
 793 049e FFF7FEFF 		bl	memcmp
 794 04a2 0346     		mov	r3, r0
 795 04a4 002B     		cmp	r3, #0
 796 04a6 0CBF     		ite	eq
 797 04a8 0123     		moveq	r3, #1
 798 04aa 0023     		movne	r3, #0
 799 04ac DBB2     		uxtb	r3, r3
 800 04ae 8549     		ldr	r1, .L81+8
 801 04b0 1846     		mov	r0, r3
 802 04b2 FFF7FEFF 		bl	__test_assert
 803 04b6 0346     		mov	r3, r0
 804 04b8 002B     		cmp	r3, #0
 805 04ba 40F0FB80 		bne	.L5
 806              	.LBE9:
 807              		.loc 2 237 3
 808 04be 824B     		ldr	r3, .L81+12
 809 04c0 0B22     		movs	r2, #11
 810 04c2 1A60     		str	r2, [r3]
 811              	.LBB10:
 812              		.loc 2 241 9
 813 04c4 0023     		movs	r3, #0
 814 04c6 0522     		movs	r2, #5
 815 04c8 7D49     		ldr	r1, .L81+4
 816 04ca 8048     		ldr	r0, .L81+16
 817 04cc FFF7FEFF 		bl	chPipeWriteTimeout
 818 04d0 F866     		str	r0, [r7, #108]
 819              		.loc 2 242 5
 820 04d2 FB6E     		ldr	r3, [r7, #108]
 821 04d4 052B     		cmp	r3, #5
 822 04d6 0CBF     		ite	eq
 823 04d8 0123     		moveq	r3, #1
 824 04da 0023     		movne	r3, #0
 825 04dc DBB2     		uxtb	r3, r3
 826 04de 7C49     		ldr	r1, .L81+20
 827 04e0 1846     		mov	r0, r3
 828 04e2 FFF7FEFF 		bl	__test_assert
 829 04e6 0346     		mov	r3, r0
 830 04e8 002B     		cmp	r3, #0
 831 04ea 40F0E380 		bne	.L5
 832              		.loc 2 243 5
 833 04ee 774B     		ldr	r3, .L81+16
 834 04f0 DA68     		ldr	r2, [r3, #12]
 835 04f2 764B     		ldr	r3, .L81+16
 836 04f4 9B68     		ldr	r3, [r3, #8]
ARM GAS  C:\Users\DEVELO~1\AppData\Local\Temp\ccB1Xwvd.s 			page 16


 837 04f6 9A42     		cmp	r2, r3
 838 04f8 0BD0     		beq	.L57
 839              		.loc 2 243 5 is_stmt 0 discriminator 1
 840 04fa 744B     		ldr	r3, .L81+16
 841 04fc DA68     		ldr	r2, [r3, #12]
 842 04fe 734B     		ldr	r3, .L81+16
 843 0500 1B68     		ldr	r3, [r3]
 844 0502 9A42     		cmp	r2, r3
 845 0504 05D1     		bne	.L57
 846              		.loc 2 243 5 discriminator 3
 847 0506 714B     		ldr	r3, .L81+16
 848 0508 1B69     		ldr	r3, [r3, #16]
 849 050a 052B     		cmp	r3, #5
 850 050c 01D1     		bne	.L57
 851              		.loc 2 243 5 discriminator 5
 852 050e 0123     		movs	r3, #1
 853 0510 00E0     		b	.L58
 854              	.L57:
 855              		.loc 2 243 5 discriminator 6
 856 0512 0023     		movs	r3, #0
 857              	.L58:
 858              		.loc 2 243 5 discriminator 8
 859 0514 03F00103 		and	r3, r3, #1
 860 0518 DBB2     		uxtb	r3, r3
 861 051a 6849     		ldr	r1, .L81
 862 051c 1846     		mov	r0, r3
 863 051e FFF7FEFF 		bl	__test_assert
 864 0522 0346     		mov	r3, r0
 865 0524 002B     		cmp	r3, #0
 866 0526 40F0C580 		bne	.L5
 867              	.LBE10:
 868              		.loc 2 251 3 is_stmt 1
 869 052a 674B     		ldr	r3, .L81+12
 870 052c 0C22     		movs	r2, #12
 871 052e 1A60     		str	r2, [r3]
 872              	.LBB11:
 873              		.loc 2 256 9
 874 0530 07F11001 		add	r1, r7, #16
 875 0534 0023     		movs	r3, #0
 876 0536 0522     		movs	r2, #5
 877 0538 6448     		ldr	r0, .L81+16
 878 053a FFF7FEFF 		bl	chPipeReadTimeout
 879 053e B866     		str	r0, [r7, #104]
 880              		.loc 2 257 5
 881 0540 BB6E     		ldr	r3, [r7, #104]
 882 0542 052B     		cmp	r3, #5
 883 0544 0CBF     		ite	eq
 884 0546 0123     		moveq	r3, #1
 885 0548 0023     		movne	r3, #0
 886 054a DBB2     		uxtb	r3, r3
 887 054c 6049     		ldr	r1, .L81+20
 888 054e 1846     		mov	r0, r3
 889 0550 FFF7FEFF 		bl	__test_assert
 890 0554 0346     		mov	r3, r0
 891 0556 002B     		cmp	r3, #0
 892 0558 40F0AC80 		bne	.L5
 893              		.loc 2 258 5
ARM GAS  C:\Users\DEVELO~1\AppData\Local\Temp\ccB1Xwvd.s 			page 17


 894 055c 5B4B     		ldr	r3, .L81+16
 895 055e DA68     		ldr	r2, [r3, #12]
 896 0560 5A4B     		ldr	r3, .L81+16
 897 0562 9B68     		ldr	r3, [r3, #8]
 898 0564 9A42     		cmp	r2, r3
 899 0566 0BD1     		bne	.L62
 900              		.loc 2 258 5 is_stmt 0 discriminator 1
 901 0568 584B     		ldr	r3, .L81+16
 902 056a 9A68     		ldr	r2, [r3, #8]
 903 056c 574B     		ldr	r3, .L81+16
 904 056e 1B68     		ldr	r3, [r3]
 905 0570 9A42     		cmp	r2, r3
 906 0572 05D0     		beq	.L62
 907              		.loc 2 258 5 discriminator 3
 908 0574 554B     		ldr	r3, .L81+16
 909 0576 1B69     		ldr	r3, [r3, #16]
 910 0578 002B     		cmp	r3, #0
 911 057a 01D1     		bne	.L62
 912              		.loc 2 258 5 discriminator 5
 913 057c 0123     		movs	r3, #1
 914 057e 00E0     		b	.L63
 915              	.L62:
 916              		.loc 2 258 5 discriminator 6
 917 0580 0023     		movs	r3, #0
 918              	.L63:
 919              		.loc 2 258 5 discriminator 8
 920 0582 03F00103 		and	r3, r3, #1
 921 0586 DBB2     		uxtb	r3, r3
 922 0588 4C49     		ldr	r1, .L81
 923 058a 1846     		mov	r0, r3
 924 058c FFF7FEFF 		bl	__test_assert
 925 0590 0346     		mov	r3, r0
 926 0592 002B     		cmp	r3, #0
 927 0594 40F08E80 		bne	.L5
 928              		.loc 2 262 5 is_stmt 1
 929 0598 07F11003 		add	r3, r7, #16
 930 059c 0522     		movs	r2, #5
 931 059e 1946     		mov	r1, r3
 932 05a0 4748     		ldr	r0, .L81+4
 933 05a2 FFF7FEFF 		bl	memcmp
 934 05a6 0346     		mov	r3, r0
 935 05a8 002B     		cmp	r3, #0
 936 05aa 0CBF     		ite	eq
 937 05ac 0123     		moveq	r3, #1
 938 05ae 0023     		movne	r3, #0
 939 05b0 DBB2     		uxtb	r3, r3
 940 05b2 4449     		ldr	r1, .L81+8
 941 05b4 1846     		mov	r0, r3
 942 05b6 FFF7FEFF 		bl	__test_assert
 943 05ba 0346     		mov	r3, r0
 944 05bc 002B     		cmp	r3, #0
 945 05be 79D1     		bne	.L5
 946              	.LBE11:
 947              		.loc 2 267 3
 948 05c0 414B     		ldr	r3, .L81+12
 949 05c2 0D22     		movs	r2, #13
 950 05c4 1A60     		str	r2, [r3]
ARM GAS  C:\Users\DEVELO~1\AppData\Local\Temp\ccB1Xwvd.s 			page 18


 951              	.LBB12:
 952              		.loc 2 271 9
 953 05c6 0023     		movs	r3, #0
 954 05c8 1022     		movs	r2, #16
 955 05ca 3D49     		ldr	r1, .L81+4
 956 05cc 3F48     		ldr	r0, .L81+16
 957 05ce FFF7FEFF 		bl	chPipeWriteTimeout
 958 05d2 7866     		str	r0, [r7, #100]
 959              		.loc 2 272 5
 960 05d4 7B6E     		ldr	r3, [r7, #100]
 961 05d6 102B     		cmp	r3, #16
 962 05d8 0CBF     		ite	eq
 963 05da 0123     		moveq	r3, #1
 964 05dc 0023     		movne	r3, #0
 965 05de DBB2     		uxtb	r3, r3
 966 05e0 3B49     		ldr	r1, .L81+20
 967 05e2 1846     		mov	r0, r3
 968 05e4 FFF7FEFF 		bl	__test_assert
 969 05e8 0346     		mov	r3, r0
 970 05ea 002B     		cmp	r3, #0
 971 05ec 62D1     		bne	.L5
 972              		.loc 2 273 5
 973 05ee 374B     		ldr	r3, .L81+16
 974 05f0 DA68     		ldr	r2, [r3, #12]
 975 05f2 364B     		ldr	r3, .L81+16
 976 05f4 9B68     		ldr	r3, [r3, #8]
 977 05f6 9A42     		cmp	r2, r3
 978 05f8 0BD1     		bne	.L68
 979              		.loc 2 273 5 is_stmt 0 discriminator 1
 980 05fa 344B     		ldr	r3, .L81+16
 981 05fc 9A68     		ldr	r2, [r3, #8]
 982 05fe 334B     		ldr	r3, .L81+16
 983 0600 1B68     		ldr	r3, [r3]
 984 0602 9A42     		cmp	r2, r3
 985 0604 05D0     		beq	.L68
 986              		.loc 2 273 5 discriminator 3
 987 0606 314B     		ldr	r3, .L81+16
 988 0608 1B69     		ldr	r3, [r3, #16]
 989 060a 102B     		cmp	r3, #16
 990 060c 01D1     		bne	.L68
 991              		.loc 2 273 5 discriminator 5
 992 060e 0123     		movs	r3, #1
 993 0610 00E0     		b	.L69
 994              	.L68:
 995              		.loc 2 273 5 discriminator 6
 996 0612 0023     		movs	r3, #0
 997              	.L69:
 998              		.loc 2 273 5 discriminator 8
 999 0614 03F00103 		and	r3, r3, #1
 1000 0618 DBB2     		uxtb	r3, r3
 1001 061a 2849     		ldr	r1, .L81
 1002 061c 1846     		mov	r0, r3
 1003 061e FFF7FEFF 		bl	__test_assert
 1004 0622 0346     		mov	r3, r0
 1005 0624 002B     		cmp	r3, #0
 1006 0626 45D1     		bne	.L5
 1007              	.LBE12:
ARM GAS  C:\Users\DEVELO~1\AppData\Local\Temp\ccB1Xwvd.s 			page 19


 1008              		.loc 2 281 3 is_stmt 1
 1009 0628 274B     		ldr	r3, .L81+12
 1010 062a 0E22     		movs	r2, #14
 1011 062c 1A60     		str	r2, [r3]
 1012              	.LBB13:
 1013              		.loc 2 286 9
 1014 062e 3946     		mov	r1, r7
 1015 0630 0023     		movs	r3, #0
 1016 0632 1022     		movs	r2, #16
 1017 0634 2548     		ldr	r0, .L81+16
 1018 0636 FFF7FEFF 		bl	chPipeReadTimeout
 1019 063a 3866     		str	r0, [r7, #96]
 1020              		.loc 2 287 5
 1021 063c 3B6E     		ldr	r3, [r7, #96]
 1022 063e 102B     		cmp	r3, #16
 1023 0640 0CBF     		ite	eq
 1024 0642 0123     		moveq	r3, #1
 1025 0644 0023     		movne	r3, #0
 1026 0646 DBB2     		uxtb	r3, r3
 1027 0648 2149     		ldr	r1, .L81+20
 1028 064a 1846     		mov	r0, r3
 1029 064c FFF7FEFF 		bl	__test_assert
 1030 0650 0346     		mov	r3, r0
 1031 0652 002B     		cmp	r3, #0
 1032 0654 2ED1     		bne	.L5
 1033              		.loc 2 288 5
 1034 0656 1D4B     		ldr	r3, .L81+16
 1035 0658 DA68     		ldr	r2, [r3, #12]
 1036 065a 1C4B     		ldr	r3, .L81+16
 1037 065c 9B68     		ldr	r3, [r3, #8]
 1038 065e 9A42     		cmp	r2, r3
 1039 0660 0BD1     		bne	.L73
 1040              		.loc 2 288 5 is_stmt 0 discriminator 1
 1041 0662 1A4B     		ldr	r3, .L81+16
 1042 0664 9A68     		ldr	r2, [r3, #8]
 1043 0666 194B     		ldr	r3, .L81+16
 1044 0668 1B68     		ldr	r3, [r3]
 1045 066a 9A42     		cmp	r2, r3
 1046 066c 05D0     		beq	.L73
 1047              		.loc 2 288 5 discriminator 3
 1048 066e 174B     		ldr	r3, .L81+16
 1049 0670 1B69     		ldr	r3, [r3, #16]
 1050 0672 002B     		cmp	r3, #0
 1051 0674 01D1     		bne	.L73
 1052              		.loc 2 288 5 discriminator 5
 1053 0676 0123     		movs	r3, #1
 1054 0678 00E0     		b	.L74
 1055              	.L73:
 1056              		.loc 2 288 5 discriminator 6
 1057 067a 0023     		movs	r3, #0
 1058              	.L74:
 1059              		.loc 2 288 5 discriminator 8
 1060 067c 03F00103 		and	r3, r3, #1
 1061 0680 DBB2     		uxtb	r3, r3
 1062 0682 0E49     		ldr	r1, .L81
 1063 0684 1846     		mov	r0, r3
 1064 0686 FFF7FEFF 		bl	__test_assert
ARM GAS  C:\Users\DEVELO~1\AppData\Local\Temp\ccB1Xwvd.s 			page 20


 1065 068a 0346     		mov	r3, r0
 1066 068c 002B     		cmp	r3, #0
 1067 068e 11D1     		bne	.L5
 1068              		.loc 2 292 5 is_stmt 1
 1069 0690 3B46     		mov	r3, r7
 1070 0692 1022     		movs	r2, #16
 1071 0694 1946     		mov	r1, r3
 1072 0696 0A48     		ldr	r0, .L81+4
 1073 0698 FFF7FEFF 		bl	memcmp
 1074 069c 0346     		mov	r3, r0
 1075 069e 002B     		cmp	r3, #0
 1076 06a0 0CBF     		ite	eq
 1077 06a2 0123     		moveq	r3, #1
 1078 06a4 0023     		movne	r3, #0
 1079 06a6 DBB2     		uxtb	r3, r3
 1080 06a8 0649     		ldr	r1, .L81+8
 1081 06aa 1846     		mov	r0, r3
 1082 06ac FFF7FEFF 		bl	__test_assert
 1083 06b0 0346     		mov	r3, r0
 1084 06b2 002B     		cmp	r3, #0
 1085              	.L5:
 1086              	.LBE13:
 1087              		.loc 2 295 1
 1088 06b4 9037     		adds	r7, r7, #144
 1089              		.cfi_def_cfa_offset 8
 1090 06b6 BD46     		mov	sp, r7
 1091              		.cfi_def_cfa_register 13
 1092              		@ sp needed
 1093 06b8 80BD     		pop	{r7, pc}
 1094              	.L82:
 1095 06ba 00BF     		.align	2
 1096              	.L81:
 1097 06bc 00000000 		.word	.LC0
 1098 06c0 00000000 		.word	pipe_pattern
 1099 06c4 2C000000 		.word	.LC3
 1100 06c8 00000000 		.word	chtest
 1101 06cc 00000000 		.word	pipe1
 1102 06d0 20000000 		.word	.LC2
 1103              		.cfi_endproc
 1104              	.LFE437:
 1105              		.size	oslib_test_003_001_execute, .-oslib_test_003_001_execute
 1106              		.section	.rodata
 1107 003d 000000   		.align	2
 1108              	.LC4:
 1109 0040 50697065 		.ascii	"Pipes normal API, non-blocking tests\000"
 1109      73206E6F 
 1109      726D616C 
 1109      20415049 
 1109      2C206E6F 
 1110              		.section	.rodata.oslib_test_003_001,"a"
 1111              		.align	2
 1112              		.type	oslib_test_003_001, %object
 1113              		.size	oslib_test_003_001, 16
 1114              	oslib_test_003_001:
 1115 0000 40000000 		.word	.LC4
 1116 0004 00000000 		.word	oslib_test_003_001_setup
 1117 0008 00000000 		.word	0
ARM GAS  C:\Users\DEVELO~1\AppData\Local\Temp\ccB1Xwvd.s 			page 21


 1118 000c 00000000 		.word	oslib_test_003_001_execute
 1119              		.section	.text.oslib_test_003_002_setup,"ax",%progbits
 1120              		.align	1
 1121              		.syntax unified
 1122              		.thumb
 1123              		.thumb_func
 1124              		.type	oslib_test_003_002_setup, %function
 1125              	oslib_test_003_002_setup:
 1126              	.LFB438:
 1127              		.loc 2 316 44
 1128              		.cfi_startproc
 1129              		@ args = 0, pretend = 0, frame = 0
 1130              		@ frame_needed = 1, uses_anonymous_args = 0
 1131 0000 80B5     		push	{r7, lr}
 1132              		.cfi_def_cfa_offset 8
 1133              		.cfi_offset 7, -8
 1134              		.cfi_offset 14, -4
 1135 0002 00AF     		add	r7, sp, #0
 1136              		.cfi_def_cfa_register 7
 1137              		.loc 2 317 3
 1138 0004 0822     		movs	r2, #8
 1139 0006 0349     		ldr	r1, .L84
 1140 0008 0348     		ldr	r0, .L84+4
 1141 000a FFF7FEFF 		bl	chPipeObjectInit
 1142              		.loc 2 318 1
 1143 000e 00BF     		nop
 1144 0010 80BD     		pop	{r7, pc}
 1145              	.L85:
 1146 0012 00BF     		.align	2
 1147              	.L84:
 1148 0014 00000000 		.word	buffer
 1149 0018 00000000 		.word	pipe1
 1150              		.cfi_endproc
 1151              	.LFE438:
 1152              		.size	oslib_test_003_002_setup, .-oslib_test_003_002_setup
 1153              		.section	.text.oslib_test_003_002_execute,"ax",%progbits
 1154              		.align	1
 1155              		.syntax unified
 1156              		.thumb
 1157              		.thumb_func
 1158              		.type	oslib_test_003_002_execute, %function
 1159              	oslib_test_003_002_execute:
 1160              	.LFB439:
 1161              		.loc 2 320 46
 1162              		.cfi_startproc
 1163              		@ args = 0, pretend = 0, frame = 24
 1164              		@ frame_needed = 1, uses_anonymous_args = 0
 1165 0000 80B5     		push	{r7, lr}
 1166              		.cfi_def_cfa_offset 8
 1167              		.cfi_offset 7, -8
 1168              		.cfi_offset 14, -4
 1169 0002 86B0     		sub	sp, sp, #24
 1170              		.cfi_def_cfa_offset 32
 1171 0004 00AF     		add	r7, sp, #0
 1172              		.cfi_def_cfa_register 7
 1173              		.loc 2 323 3
 1174 0006 354B     		ldr	r3, .L97
ARM GAS  C:\Users\DEVELO~1\AppData\Local\Temp\ccB1Xwvd.s 			page 22


 1175 0008 0122     		movs	r2, #1
 1176 000a 1A60     		str	r2, [r3]
 1177              	.LBB14:
 1178              		.loc 2 328 9
 1179 000c 3946     		mov	r1, r7
 1180 000e 0023     		movs	r3, #0
 1181 0010 1022     		movs	r2, #16
 1182 0012 3348     		ldr	r0, .L97+4
 1183 0014 FFF7FEFF 		bl	chPipeReadTimeout
 1184 0018 7861     		str	r0, [r7, #20]
 1185              		.loc 2 329 5
 1186 001a 7B69     		ldr	r3, [r7, #20]
 1187 001c 002B     		cmp	r3, #0
 1188 001e 0CBF     		ite	eq
 1189 0020 0123     		moveq	r3, #1
 1190 0022 0023     		movne	r3, #0
 1191 0024 DBB2     		uxtb	r3, r3
 1192 0026 2F49     		ldr	r1, .L97+8
 1193 0028 1846     		mov	r0, r3
 1194 002a FFF7FEFF 		bl	__test_assert
 1195 002e 0346     		mov	r3, r0
 1196 0030 002B     		cmp	r3, #0
 1197 0032 4FD1     		bne	.L86
 1198              		.loc 2 330 5
 1199 0034 2A4B     		ldr	r3, .L97+4
 1200 0036 DA68     		ldr	r2, [r3, #12]
 1201 0038 294B     		ldr	r3, .L97+4
 1202 003a 1B68     		ldr	r3, [r3]
 1203 003c 9A42     		cmp	r2, r3
 1204 003e 0BD1     		bne	.L89
 1205              		.loc 2 330 5 is_stmt 0 discriminator 1
 1206 0040 274B     		ldr	r3, .L97+4
 1207 0042 9A68     		ldr	r2, [r3, #8]
 1208 0044 264B     		ldr	r3, .L97+4
 1209 0046 1B68     		ldr	r3, [r3]
 1210 0048 9A42     		cmp	r2, r3
 1211 004a 05D1     		bne	.L89
 1212              		.loc 2 330 5 discriminator 3
 1213 004c 244B     		ldr	r3, .L97+4
 1214 004e 1B69     		ldr	r3, [r3, #16]
 1215 0050 002B     		cmp	r3, #0
 1216 0052 01D1     		bne	.L89
 1217              		.loc 2 330 5 discriminator 5
 1218 0054 0123     		movs	r3, #1
 1219 0056 00E0     		b	.L90
 1220              	.L89:
 1221              		.loc 2 330 5 discriminator 6
 1222 0058 0023     		movs	r3, #0
 1223              	.L90:
 1224              		.loc 2 330 5 discriminator 8
 1225 005a 03F00103 		and	r3, r3, #1
 1226 005e DBB2     		uxtb	r3, r3
 1227 0060 2149     		ldr	r1, .L97+12
 1228 0062 1846     		mov	r0, r3
 1229 0064 FFF7FEFF 		bl	__test_assert
 1230 0068 0346     		mov	r3, r0
 1231 006a 002B     		cmp	r3, #0
ARM GAS  C:\Users\DEVELO~1\AppData\Local\Temp\ccB1Xwvd.s 			page 23


 1232 006c 32D1     		bne	.L86
 1233              	.LBE14:
 1234              		.loc 2 338 3 is_stmt 1
 1235 006e 1B4B     		ldr	r3, .L97
 1236 0070 0222     		movs	r2, #2
 1237 0072 1A60     		str	r2, [r3]
 1238              	.LBB15:
 1239              		.loc 2 342 9
 1240 0074 0023     		movs	r3, #0
 1241 0076 1022     		movs	r2, #16
 1242 0078 1C49     		ldr	r1, .L97+16
 1243 007a 1948     		ldr	r0, .L97+4
 1244 007c FFF7FEFF 		bl	chPipeWriteTimeout
 1245 0080 3861     		str	r0, [r7, #16]
 1246              		.loc 2 343 5
 1247 0082 3B69     		ldr	r3, [r7, #16]
 1248 0084 082B     		cmp	r3, #8
 1249 0086 0CBF     		ite	eq
 1250 0088 0123     		moveq	r3, #1
 1251 008a 0023     		movne	r3, #0
 1252 008c DBB2     		uxtb	r3, r3
 1253 008e 1549     		ldr	r1, .L97+8
 1254 0090 1846     		mov	r0, r3
 1255 0092 FFF7FEFF 		bl	__test_assert
 1256 0096 0346     		mov	r3, r0
 1257 0098 002B     		cmp	r3, #0
 1258 009a 1BD1     		bne	.L86
 1259              		.loc 2 344 5
 1260 009c 104B     		ldr	r3, .L97+4
 1261 009e DA68     		ldr	r2, [r3, #12]
 1262 00a0 0F4B     		ldr	r3, .L97+4
 1263 00a2 9B68     		ldr	r3, [r3, #8]
 1264 00a4 9A42     		cmp	r2, r3
 1265 00a6 0BD1     		bne	.L95
 1266              		.loc 2 344 5 is_stmt 0 discriminator 1
 1267 00a8 0D4B     		ldr	r3, .L97+4
 1268 00aa 9A68     		ldr	r2, [r3, #8]
 1269 00ac 0C4B     		ldr	r3, .L97+4
 1270 00ae 1B68     		ldr	r3, [r3]
 1271 00b0 9A42     		cmp	r2, r3
 1272 00b2 05D1     		bne	.L95
 1273              		.loc 2 344 5 discriminator 3
 1274 00b4 0A4B     		ldr	r3, .L97+4
 1275 00b6 1B69     		ldr	r3, [r3, #16]
 1276 00b8 082B     		cmp	r3, #8
 1277 00ba 01D1     		bne	.L95
 1278              		.loc 2 344 5 discriminator 5
 1279 00bc 0123     		movs	r3, #1
 1280 00be 00E0     		b	.L96
 1281              	.L95:
 1282              		.loc 2 344 5 discriminator 6
 1283 00c0 0023     		movs	r3, #0
 1284              	.L96:
 1285              		.loc 2 344 5 discriminator 8
 1286 00c2 03F00103 		and	r3, r3, #1
 1287 00c6 DBB2     		uxtb	r3, r3
 1288 00c8 0749     		ldr	r1, .L97+12
ARM GAS  C:\Users\DEVELO~1\AppData\Local\Temp\ccB1Xwvd.s 			page 24


 1289 00ca 1846     		mov	r0, r3
 1290 00cc FFF7FEFF 		bl	__test_assert
 1291 00d0 0346     		mov	r3, r0
 1292 00d2 002B     		cmp	r3, #0
 1293              	.L86:
 1294              	.LBE15:
 1295              		.loc 2 350 1 is_stmt 1
 1296 00d4 1837     		adds	r7, r7, #24
 1297              		.cfi_def_cfa_offset 8
 1298 00d6 BD46     		mov	sp, r7
 1299              		.cfi_def_cfa_register 13
 1300              		@ sp needed
 1301 00d8 80BD     		pop	{r7, pc}
 1302              	.L98:
 1303 00da 00BF     		.align	2
 1304              	.L97:
 1305 00dc 00000000 		.word	chtest
 1306 00e0 00000000 		.word	pipe1
 1307 00e4 20000000 		.word	.LC2
 1308 00e8 00000000 		.word	.LC0
 1309 00ec 00000000 		.word	pipe_pattern
 1310              		.cfi_endproc
 1311              	.LFE439:
 1312              		.size	oslib_test_003_002_execute, .-oslib_test_003_002_execute
 1313              		.section	.rodata
 1314 0065 000000   		.align	2
 1315              	.LC5:
 1316 0068 50697065 		.ascii	"Pipe timeouts\000"
 1316      2074696D 
 1316      656F7574 
 1316      7300
 1317              		.section	.rodata.oslib_test_003_002,"a"
 1318              		.align	2
 1319              		.type	oslib_test_003_002, %object
 1320              		.size	oslib_test_003_002, 16
 1321              	oslib_test_003_002:
 1322 0000 68000000 		.word	.LC5
 1323 0004 00000000 		.word	oslib_test_003_002_setup
 1324 0008 00000000 		.word	0
 1325 000c 00000000 		.word	oslib_test_003_002_execute
 1326              		.global	oslib_test_sequence_003_array
 1327              		.section	.rodata.oslib_test_sequence_003_array,"a"
 1328              		.align	2
 1329              		.type	oslib_test_sequence_003_array, %object
 1330              		.size	oslib_test_sequence_003_array, 12
 1331              	oslib_test_sequence_003_array:
 1332 0000 00000000 		.word	oslib_test_003_001
 1333 0004 00000000 		.word	oslib_test_003_002
 1334 0008 00000000 		.word	0
 1335              		.global	oslib_test_sequence_003
 1336              		.section	.rodata
 1337 0076 0000     		.align	2
 1338              	.LC6:
 1339 0078 50697065 		.ascii	"Pipes\000"
 1339      7300
 1340              		.section	.rodata.oslib_test_sequence_003,"a"
 1341              		.align	2
ARM GAS  C:\Users\DEVELO~1\AppData\Local\Temp\ccB1Xwvd.s 			page 25


 1342              		.type	oslib_test_sequence_003, %object
 1343              		.size	oslib_test_sequence_003, 8
 1344              	oslib_test_sequence_003:
 1345 0000 78000000 		.word	.LC6
 1346 0004 00000000 		.word	oslib_test_sequence_003_array
 1347              		.text
 1348              	.Letext0:
 1349              		.file 3 "c:\\chibistudio\\tools\\gnu tools arm embedded\\11.3 2022.08\\lib\\gcc\\arm-none-eabi\\11
 1350              		.file 4 "c:\\chibistudio\\tools\\gnu tools arm embedded\\11.3 2022.08\\arm-none-eabi\\include\\mac
 1351              		.file 5 "c:\\chibistudio\\tools\\gnu tools arm embedded\\11.3 2022.08\\arm-none-eabi\\include\\sys
 1352              		.file 6 "../../../os/common/ports/ARM-common/chtypes.h"
 1353              		.file 7 "../../../os/rt/include/chearly.h"
 1354              		.file 8 "../../../os/rt/include/chobjects.h"
 1355              		.file 9 "../../../os/rt/include/chrfcu.h"
 1356              		.file 10 "../../../os/rt/include/chdebug.h"
 1357              		.file 11 "../../../os/rt/include/chtime.h"
 1358              		.file 12 "../../../os/rt/include/chlists.h"
 1359              		.file 13 "../../../os/rt/include/chtrace.h"
 1360              		.file 14 "../../../os/common/ports/ARMv7-M/chcore.h"
 1361              		.file 15 "../../../os/rt/include/chsem.h"
 1362              		.file 16 "../../../os/rt/include/chmtx.h"
 1363              		.file 17 "../../../os/hal/include/hal_streams.h"
 1364              		.file 18 "../../../os/test/include/ch_test.h"
 1365              		.file 19 "../../../test/oslib/source/test/oslib_test_sequence_003.h"
 1366              		.file 20 "c:\\chibistudio\\tools\\gnu tools arm embedded\\11.3 2022.08\\arm-none-eabi\\include\\st