ARM GAS  C:\Users\DEVELO~1\AppData\Local\Temp\cc3dswDP.s 			page 1


   1              		.cpu cortex-m7
   2              		.arch armv7e-m
   3              		.fpu softvfp
   4              		.eabi_attribute 20, 1
   5              		.eabi_attribute 21, 1
   6              		.eabi_attribute 23, 3
   7              		.eabi_attribute 24, 1
   8              		.eabi_attribute 25, 1
   9              		.eabi_attribute 26, 1
  10              		.eabi_attribute 30, 6
  11              		.eabi_attribute 34, 1
  12              		.eabi_attribute 18, 4
  13              		.file	"rt_test_sequence_005.c"
  14              		.text
  15              	.Ltext0:
  16              		.cfi_sections	.debug_frame
  17              		.section	.text.chTimeAddX,"ax",%progbits
  18              		.align	1
  19              		.syntax unified
  20              		.thumb
  21              		.thumb_func
  22              		.type	chTimeAddX, %function
  23              	chTimeAddX:
  24              	.LFB8:
  25              		.file 1 "../../../os/rt/include/chtime.h"
  26              		.loc 1 443 60
  27              		.cfi_startproc
  28              		@ args = 0, pretend = 0, frame = 8
  29              		@ frame_needed = 1, uses_anonymous_args = 0
  30              		@ link register save eliminated.
  31 0000 80B4     		push	{r7}
  32              		.cfi_def_cfa_offset 4
  33              		.cfi_offset 7, -4
  34 0002 83B0     		sub	sp, sp, #12
  35              		.cfi_def_cfa_offset 16
  36 0004 00AF     		add	r7, sp, #0
  37              		.cfi_def_cfa_register 7
  38 0006 7860     		str	r0, [r7, #4]
  39 0008 3960     		str	r1, [r7]
  40              		.loc 1 449 18
  41 000a 7A68     		ldr	r2, [r7, #4]
  42 000c 3B68     		ldr	r3, [r7]
  43 000e 1344     		add	r3, r3, r2
  44              		.loc 1 450 1
  45 0010 1846     		mov	r0, r3
  46 0012 0C37     		adds	r7, r7, #12
  47              		.cfi_def_cfa_offset 4
  48 0014 BD46     		mov	sp, r7
  49              		.cfi_def_cfa_register 13
  50              		@ sp needed
  51 0016 80BC     		pop	{r7}
  52              		.cfi_restore 7
  53              		.cfi_def_cfa_offset 0
  54 0018 7047     		bx	lr
  55              		.cfi_endproc
  56              	.LFE8:
  57              		.size	chTimeAddX, .-chTimeAddX
ARM GAS  C:\Users\DEVELO~1\AppData\Local\Temp\cc3dswDP.s 			page 2


  58              		.section	.text.port_timer_get_time,"ax",%progbits
  59              		.align	1
  60              		.syntax unified
  61              		.thumb
  62              		.thumb_func
  63              		.type	port_timer_get_time, %function
  64              	port_timer_get_time:
  65              	.LFB196:
  66              		.file 2 "../../../os/hal/osal/rt-nil/chcore_timer.h"
  67              		.loc 2 111 51
  68              		.cfi_startproc
  69              		@ args = 0, pretend = 0, frame = 0
  70              		@ frame_needed = 1, uses_anonymous_args = 0
  71 0000 80B5     		push	{r7, lr}
  72              		.cfi_def_cfa_offset 8
  73              		.cfi_offset 7, -8
  74              		.cfi_offset 14, -4
  75 0002 00AF     		add	r7, sp, #0
  76              		.cfi_def_cfa_register 7
  77              		.loc 2 113 10
  78 0004 FFF7FEFF 		bl	stGetCounter
  79 0008 0346     		mov	r3, r0
  80              		.loc 2 114 1
  81 000a 1846     		mov	r0, r3
  82 000c 80BD     		pop	{r7, pc}
  83              		.cfi_endproc
  84              	.LFE196:
  85              		.size	port_timer_get_time, .-port_timer_get_time
  86              		.section	.text.chSysLock,"ax",%progbits
  87              		.align	1
  88              		.syntax unified
  89              		.thumb
  90              		.thumb_func
  91              		.type	chSysLock, %function
  92              	chSysLock:
  93              	.LFB202:
  94              		.file 3 "../../../os/rt/include/chsys.h"
  95              		.loc 3 407 36
  96              		.cfi_startproc
  97              		@ args = 0, pretend = 0, frame = 8
  98              		@ frame_needed = 1, uses_anonymous_args = 0
  99              		@ link register save eliminated.
 100 0000 80B4     		push	{r7}
 101              		.cfi_def_cfa_offset 4
 102              		.cfi_offset 7, -4
 103 0002 83B0     		sub	sp, sp, #12
 104              		.cfi_def_cfa_offset 16
 105 0004 00AF     		add	r7, sp, #0
 106              		.cfi_def_cfa_register 7
 107 0006 3023     		movs	r3, #48
 108 0008 7B60     		str	r3, [r7, #4]
 109              	.LBB14:
 110              	.LBB15:
 111              	.LBB16:
 112              	.LBB17:
 113              		.file 4 "../../../os/common/ext/ARM/CMSIS/Core/Include/cmsis_gcc.h"
 114              		.loc 4 493 3
ARM GAS  C:\Users\DEVELO~1\AppData\Local\Temp\cc3dswDP.s 			page 3


 115 000a 7B68     		ldr	r3, [r7, #4]
 116              		.syntax unified
 117              	@ 493 "../../../os/common/ext/ARM/CMSIS/Core/Include/cmsis_gcc.h" 1
 118 000c 83F31188 		MSR basepri, r3
 119              	@ 0 "" 2
 120              		.loc 4 494 1
 121              		.thumb
 122              		.syntax unified
 123 0010 00BF     		nop
 124              	.LBE17:
 125              	.LBE16:
 126              		.file 5 "../../../os/common/ports/ARMv7-M/chcore.h"
 127              		.loc 5 840 1
 128 0012 00BF     		nop
 129              	.LBE15:
 130              	.LBE14:
 131              		.loc 3 412 1
 132 0014 00BF     		nop
 133 0016 0C37     		adds	r7, r7, #12
 134              		.cfi_def_cfa_offset 4
 135 0018 BD46     		mov	sp, r7
 136              		.cfi_def_cfa_register 13
 137              		@ sp needed
 138 001a 80BC     		pop	{r7}
 139              		.cfi_restore 7
 140              		.cfi_def_cfa_offset 0
 141 001c 7047     		bx	lr
 142              		.cfi_endproc
 143              	.LFE202:
 144              		.size	chSysLock, .-chSysLock
 145              		.section	.text.chSysUnlock,"ax",%progbits
 146              		.align	1
 147              		.syntax unified
 148              		.thumb
 149              		.thumb_func
 150              		.type	chSysUnlock, %function
 151              	chSysUnlock:
 152              	.LFB203:
 153              		.loc 3 421 38
 154              		.cfi_startproc
 155              		@ args = 0, pretend = 0, frame = 8
 156              		@ frame_needed = 1, uses_anonymous_args = 0
 157              		@ link register save eliminated.
 158 0000 80B4     		push	{r7}
 159              		.cfi_def_cfa_offset 4
 160              		.cfi_offset 7, -4
 161 0002 83B0     		sub	sp, sp, #12
 162              		.cfi_def_cfa_offset 16
 163 0004 00AF     		add	r7, sp, #0
 164              		.cfi_def_cfa_register 7
 165 0006 0023     		movs	r3, #0
 166 0008 7B60     		str	r3, [r7, #4]
 167              	.LBB18:
 168              	.LBB19:
 169              	.LBB20:
 170              	.LBB21:
 171              		.loc 4 493 3
ARM GAS  C:\Users\DEVELO~1\AppData\Local\Temp\cc3dswDP.s 			page 4


 172 000a 7B68     		ldr	r3, [r7, #4]
 173              		.syntax unified
 174              	@ 493 "../../../os/common/ext/ARM/CMSIS/Core/Include/cmsis_gcc.h" 1
 175 000c 83F31188 		MSR basepri, r3
 176              	@ 0 "" 2
 177              		.loc 4 494 1
 178              		.thumb
 179              		.syntax unified
 180 0010 00BF     		nop
 181              	.LBE21:
 182              	.LBE20:
 183              		.loc 5 854 1
 184 0012 00BF     		nop
 185              	.LBE19:
 186              	.LBE18:
 187              		.loc 3 435 1
 188 0014 00BF     		nop
 189 0016 0C37     		adds	r7, r7, #12
 190              		.cfi_def_cfa_offset 4
 191 0018 BD46     		mov	sp, r7
 192              		.cfi_def_cfa_register 13
 193              		@ sp needed
 194 001a 80BC     		pop	{r7}
 195              		.cfi_restore 7
 196              		.cfi_def_cfa_offset 0
 197 001c 7047     		bx	lr
 198              		.cfi_endproc
 199              	.LFE203:
 200              		.size	chSysUnlock, .-chSysUnlock
 201              		.section	.text.chVTGetSystemTimeX,"ax",%progbits
 202              		.align	1
 203              		.syntax unified
 204              		.thumb
 205              		.thumb_func
 206              		.type	chVTGetSystemTimeX, %function
 207              	chVTGetSystemTimeX:
 208              	.LFB209:
 209              		.file 6 "../../../os/rt/include/chvt.h"
 210              		.loc 6 122 50
 211              		.cfi_startproc
 212              		@ args = 0, pretend = 0, frame = 0
 213              		@ frame_needed = 1, uses_anonymous_args = 0
 214 0000 80B5     		push	{r7, lr}
 215              		.cfi_def_cfa_offset 8
 216              		.cfi_offset 7, -8
 217              		.cfi_offset 14, -4
 218 0002 00AF     		add	r7, sp, #0
 219              		.cfi_def_cfa_register 7
 220              		.loc 6 127 10
 221 0004 FFF7FEFF 		bl	port_timer_get_time
 222 0008 0346     		mov	r3, r0
 223              		.loc 6 129 1
 224 000a 1846     		mov	r0, r3
 225 000c 80BD     		pop	{r7, pc}
 226              		.cfi_endproc
 227              	.LFE209:
 228              		.size	chVTGetSystemTimeX, .-chVTGetSystemTimeX
ARM GAS  C:\Users\DEVELO~1\AppData\Local\Temp\cc3dswDP.s 			page 5


 229              		.section	.text.chThdGetSelfX,"ax",%progbits
 230              		.align	1
 231              		.syntax unified
 232              		.thumb
 233              		.thumb_func
 234              		.type	chThdGetSelfX, %function
 235              	chThdGetSelfX:
 236              	.LFB229:
 237              		.file 7 "../../../os/rt/include/chthreads.h"
 238              		.loc 7 341 45
 239              		.cfi_startproc
 240              		@ args = 0, pretend = 0, frame = 0
 241              		@ frame_needed = 1, uses_anonymous_args = 0
 242              		@ link register save eliminated.
 243 0000 80B4     		push	{r7}
 244              		.cfi_def_cfa_offset 4
 245              		.cfi_offset 7, -4
 246 0002 00AF     		add	r7, sp, #0
 247              		.cfi_def_cfa_register 7
 248              		.loc 7 343 10
 249 0004 024B     		ldr	r3, .L11
 250 0006 DB68     		ldr	r3, [r3, #12]
 251              		.loc 7 344 1
 252 0008 1846     		mov	r0, r3
 253 000a BD46     		mov	sp, r7
 254              		.cfi_def_cfa_register 13
 255              		@ sp needed
 256 000c 80BC     		pop	{r7}
 257              		.cfi_restore 7
 258              		.cfi_def_cfa_offset 0
 259 000e 7047     		bx	lr
 260              	.L12:
 261              		.align	2
 262              	.L11:
 263 0010 00000000 		.word	ch0
 264              		.cfi_endproc
 265              	.LFE229:
 266              		.size	chThdGetSelfX, .-chThdGetSelfX
 267              		.section	.text.chThdGetPriorityX,"ax",%progbits
 268              		.align	1
 269              		.syntax unified
 270              		.thumb
 271              		.thumb_func
 272              		.type	chThdGetPriorityX, %function
 273              	chThdGetPriorityX:
 274              	.LFB230:
 275              		.loc 7 354 47
 276              		.cfi_startproc
 277              		@ args = 0, pretend = 0, frame = 0
 278              		@ frame_needed = 1, uses_anonymous_args = 0
 279 0000 80B5     		push	{r7, lr}
 280              		.cfi_def_cfa_offset 8
 281              		.cfi_offset 7, -8
 282              		.cfi_offset 14, -4
 283 0002 00AF     		add	r7, sp, #0
 284              		.cfi_def_cfa_register 7
 285              		.loc 7 356 10
ARM GAS  C:\Users\DEVELO~1\AppData\Local\Temp\cc3dswDP.s 			page 6


 286 0004 FFF7FEFF 		bl	chThdGetSelfX
 287 0008 0346     		mov	r3, r0
 288              		.loc 7 356 37
 289 000a 9B68     		ldr	r3, [r3, #8]
 290              		.loc 7 357 1
 291 000c 1846     		mov	r0, r3
 292 000e 80BD     		pop	{r7, pc}
 293              		.cfi_endproc
 294              	.LFE230:
 295              		.size	chThdGetPriorityX, .-chThdGetPriorityX
 296              		.section	.text.thread,"ax",%progbits
 297              		.align	1
 298              		.syntax unified
 299              		.thumb
 300              		.thumb_func
 301              		.type	thread, %function
 302              	thread:
 303              	.LFB436:
 304              		.file 8 "../../../test/rt/source/test/rt_test_sequence_005.c"
 305              		.loc 8 44 32
 306              		.cfi_startproc
 307              		@ args = 0, pretend = 0, frame = 8
 308              		@ frame_needed = 1, uses_anonymous_args = 0
 309 0000 80B5     		push	{r7, lr}
 310              		.cfi_def_cfa_offset 8
 311              		.cfi_offset 7, -8
 312              		.cfi_offset 14, -4
 313 0002 82B0     		sub	sp, sp, #8
 314              		.cfi_def_cfa_offset 16
 315 0004 00AF     		add	r7, sp, #0
 316              		.cfi_def_cfa_register 7
 317 0006 7860     		str	r0, [r7, #4]
 318              		.loc 8 46 3
 319 0008 7B68     		ldr	r3, [r7, #4]
 320 000a 1B78     		ldrb	r3, [r3]	@ zero_extendqisi2
 321 000c 1846     		mov	r0, r3
 322 000e FFF7FEFF 		bl	test_emit_token
 323              		.loc 8 47 1
 324 0012 00BF     		nop
 325 0014 0837     		adds	r7, r7, #8
 326              		.cfi_def_cfa_offset 8
 327 0016 BD46     		mov	sp, r7
 328              		.cfi_def_cfa_register 13
 329              		@ sp needed
 330 0018 80BD     		pop	{r7, pc}
 331              		.cfi_endproc
 332              	.LFE436:
 333              		.size	thread, .-thread
 334              		.section	.rodata
 335              		.align	2
 336              	.LC0:
 337 0000 6F757420 		.ascii	"out of time window\000"
 337      6F662074 
 337      696D6520 
 337      77696E64 
 337      6F7700
 338              		.section	.text.rt_test_005_001_execute,"ax",%progbits
ARM GAS  C:\Users\DEVELO~1\AppData\Local\Temp\cc3dswDP.s 			page 7


 339              		.align	1
 340              		.syntax unified
 341              		.thumb
 342              		.thumb_func
 343              		.type	rt_test_005_001_execute, %function
 344              	rt_test_005_001_execute:
 345              	.LFB437:
 346              		.loc 8 76 43
 347              		.cfi_startproc
 348              		@ args = 0, pretend = 0, frame = 8
 349              		@ frame_needed = 1, uses_anonymous_args = 0
 350 0000 90B5     		push	{r4, r7, lr}
 351              		.cfi_def_cfa_offset 12
 352              		.cfi_offset 4, -12
 353              		.cfi_offset 7, -8
 354              		.cfi_offset 14, -4
 355 0002 83B0     		sub	sp, sp, #12
 356              		.cfi_def_cfa_offset 24
 357 0004 00AF     		add	r7, sp, #0
 358              		.cfi_def_cfa_register 7
 359              		.loc 8 82 3
 360 0006 4B4B     		ldr	r3, .L22
 361 0008 0122     		movs	r2, #1
 362 000a 1A60     		str	r2, [r3]
 363              		.loc 8 84 12
 364 000c FFF7FEFF 		bl	chVTGetSystemTimeX
 365 0010 7860     		str	r0, [r7, #4]
 366              		.loc 8 85 5
 367 0012 6420     		movs	r0, #100
 368 0014 FFF7FEFF 		bl	chThdSleep
 369              		.loc 8 86 5
 370 0018 6421     		movs	r1, #100
 371 001a 7868     		ldr	r0, [r7, #4]
 372 001c FFF7FEFF 		bl	chTimeAddX
 373 0020 0446     		mov	r4, r0
 374 0022 6721     		movs	r1, #103
 375 0024 7868     		ldr	r0, [r7, #4]
 376 0026 FFF7FEFF 		bl	chTimeAddX
 377 002a 0346     		mov	r3, r0
 378 002c 424A     		ldr	r2, .L22+4
 379 002e 1946     		mov	r1, r3
 380 0030 2046     		mov	r0, r4
 381 0032 FFF7FEFF 		bl	__test_assert_time_window
 382 0036 0346     		mov	r3, r0
 383 0038 002B     		cmp	r3, #0
 384 003a 78D1     		bne	.L16
 385              		.loc 8 95 3
 386 003c 3D4B     		ldr	r3, .L22
 387 003e 0222     		movs	r2, #2
 388 0040 1A60     		str	r2, [r3]
 389              		.loc 8 97 12
 390 0042 FFF7FEFF 		bl	chVTGetSystemTimeX
 391 0046 7860     		str	r0, [r7, #4]
 392              		.loc 8 98 5
 393 0048 4FF47A70 		mov	r0, #1000
 394 004c FFF7FEFF 		bl	chThdSleep
 395              		.loc 8 99 5
ARM GAS  C:\Users\DEVELO~1\AppData\Local\Temp\cc3dswDP.s 			page 8


 396 0050 4FF47A71 		mov	r1, #1000
 397 0054 7868     		ldr	r0, [r7, #4]
 398 0056 FFF7FEFF 		bl	chTimeAddX
 399 005a 0446     		mov	r4, r0
 400 005c 40F2EB31 		movw	r1, #1003
 401 0060 7868     		ldr	r0, [r7, #4]
 402 0062 FFF7FEFF 		bl	chTimeAddX
 403 0066 0346     		mov	r3, r0
 404 0068 334A     		ldr	r2, .L22+4
 405 006a 1946     		mov	r1, r3
 406 006c 2046     		mov	r0, r4
 407 006e FFF7FEFF 		bl	__test_assert_time_window
 408 0072 0346     		mov	r3, r0
 409 0074 002B     		cmp	r3, #0
 410 0076 5AD1     		bne	.L16
 411              		.loc 8 108 3
 412 0078 2E4B     		ldr	r3, .L22
 413 007a 0322     		movs	r2, #3
 414 007c 1A60     		str	r2, [r3]
 415              		.loc 8 110 12
 416 007e FFF7FEFF 		bl	chVTGetSystemTimeX
 417 0082 7860     		str	r0, [r7, #4]
 418              		.loc 8 111 5
 419 0084 4FF47A70 		mov	r0, #1000
 420 0088 FFF7FEFF 		bl	chThdSleep
 421              		.loc 8 112 5
 422 008c 4FF47A71 		mov	r1, #1000
 423 0090 7868     		ldr	r0, [r7, #4]
 424 0092 FFF7FEFF 		bl	chTimeAddX
 425 0096 0446     		mov	r4, r0
 426 0098 40F2EB31 		movw	r1, #1003
 427 009c 7868     		ldr	r0, [r7, #4]
 428 009e FFF7FEFF 		bl	chTimeAddX
 429 00a2 0346     		mov	r3, r0
 430 00a4 244A     		ldr	r2, .L22+4
 431 00a6 1946     		mov	r1, r3
 432 00a8 2046     		mov	r0, r4
 433 00aa FFF7FEFF 		bl	__test_assert_time_window
 434 00ae 0346     		mov	r3, r0
 435 00b0 002B     		cmp	r3, #0
 436 00b2 3CD1     		bne	.L16
 437              		.loc 8 120 3
 438 00b4 1F4B     		ldr	r3, .L22
 439 00b6 0422     		movs	r2, #4
 440 00b8 1A60     		str	r2, [r3]
 441              		.loc 8 122 12
 442 00ba FFF7FEFF 		bl	chVTGetSystemTimeX
 443 00be 7860     		str	r0, [r7, #4]
 444              		.loc 8 123 5
 445 00c0 42F21070 		movw	r0, #10000
 446 00c4 FFF7FEFF 		bl	chThdSleep
 447              		.loc 8 124 5
 448 00c8 42F21071 		movw	r1, #10000
 449 00cc 7868     		ldr	r0, [r7, #4]
 450 00ce FFF7FEFF 		bl	chTimeAddX
 451 00d2 0446     		mov	r4, r0
 452 00d4 42F21371 		movw	r1, #10003
ARM GAS  C:\Users\DEVELO~1\AppData\Local\Temp\cc3dswDP.s 			page 9


 453 00d8 7868     		ldr	r0, [r7, #4]
 454 00da FFF7FEFF 		bl	chTimeAddX
 455 00de 0346     		mov	r3, r0
 456 00e0 154A     		ldr	r2, .L22+4
 457 00e2 1946     		mov	r1, r3
 458 00e4 2046     		mov	r0, r4
 459 00e6 FFF7FEFF 		bl	__test_assert_time_window
 460 00ea 0346     		mov	r3, r0
 461 00ec 002B     		cmp	r3, #0
 462 00ee 1ED1     		bne	.L16
 463              		.loc 8 132 3
 464 00f0 104B     		ldr	r3, .L22
 465 00f2 0522     		movs	r2, #5
 466 00f4 1A60     		str	r2, [r3]
 467              		.loc 8 134 12
 468 00f6 FFF7FEFF 		bl	chVTGetSystemTimeX
 469 00fa 7860     		str	r0, [r7, #4]
 470              		.loc 8 135 5
 471 00fc 6421     		movs	r1, #100
 472 00fe 7868     		ldr	r0, [r7, #4]
 473 0100 FFF7FEFF 		bl	chTimeAddX
 474 0104 0346     		mov	r3, r0
 475 0106 1846     		mov	r0, r3
 476 0108 FFF7FEFF 		bl	chThdSleepUntil
 477              		.loc 8 136 5
 478 010c 6421     		movs	r1, #100
 479 010e 7868     		ldr	r0, [r7, #4]
 480 0110 FFF7FEFF 		bl	chTimeAddX
 481 0114 0446     		mov	r4, r0
 482 0116 6721     		movs	r1, #103
 483 0118 7868     		ldr	r0, [r7, #4]
 484 011a FFF7FEFF 		bl	chTimeAddX
 485 011e 0346     		mov	r3, r0
 486 0120 054A     		ldr	r2, .L22+4
 487 0122 1946     		mov	r1, r3
 488 0124 2046     		mov	r0, r4
 489 0126 FFF7FEFF 		bl	__test_assert_time_window
 490 012a 0346     		mov	r3, r0
 491 012c 002B     		cmp	r3, #0
 492              	.L16:
 493              		.loc 8 141 1
 494 012e 0C37     		adds	r7, r7, #12
 495              		.cfi_def_cfa_offset 12
 496 0130 BD46     		mov	sp, r7
 497              		.cfi_def_cfa_register 13
 498              		@ sp needed
 499 0132 90BD     		pop	{r4, r7, pc}
 500              	.L23:
 501              		.align	2
 502              	.L22:
 503 0134 00000000 		.word	chtest
 504 0138 00000000 		.word	.LC0
 505              		.cfi_endproc
 506              	.LFE437:
 507              		.size	rt_test_005_001_execute, .-rt_test_005_001_execute
 508              		.section	.rodata
 509 0013 00       		.align	2
ARM GAS  C:\Users\DEVELO~1\AppData\Local\Temp\cc3dswDP.s 			page 10


 510              	.LC1:
 511 0014 54687265 		.ascii	"Thread Sleep functionality\000"
 511      61642053 
 511      6C656570 
 511      2066756E 
 511      6374696F 
 512              		.section	.rodata.rt_test_005_001,"a"
 513              		.align	2
 514              		.type	rt_test_005_001, %object
 515              		.size	rt_test_005_001, 16
 516              	rt_test_005_001:
 517 0000 14000000 		.word	.LC1
 518 0004 00000000 		.word	0
 519 0008 00000000 		.word	0
 520 000c 00000000 		.word	rt_test_005_001_execute
 521              		.section	.rodata
 522 002f 00       		.align	2
 523              	.LC2:
 524 0030 4500     		.ascii	"E\000"
 525 0032 0000     		.align	2
 526              	.LC3:
 527 0034 4400     		.ascii	"D\000"
 528 0036 0000     		.align	2
 529              	.LC4:
 530 0038 4300     		.ascii	"C\000"
 531 003a 0000     		.align	2
 532              	.LC5:
 533 003c 4200     		.ascii	"B\000"
 534 003e 0000     		.align	2
 535              	.LC6:
 536 0040 4100     		.ascii	"A\000"
 537 0042 0000     		.align	2
 538              	.LC7:
 539 0044 696E7661 		.ascii	"invalid sequence\000"
 539      6C696420 
 539      73657175 
 539      656E6365 
 539      00
 540 0055 000000   		.align	2
 541              	.LC8:
 542 0058 41424344 		.ascii	"ABCDE\000"
 542      4500
 543              		.section	.text.rt_test_005_002_execute,"ax",%progbits
 544              		.align	1
 545              		.syntax unified
 546              		.thumb
 547              		.thumb_func
 548              		.type	rt_test_005_002_execute, %function
 549              	rt_test_005_002_execute:
 550              	.LFB438:
 551              		.loc 8 168 43
 552              		.cfi_startproc
 553              		@ args = 0, pretend = 0, frame = 0
 554              		@ frame_needed = 1, uses_anonymous_args = 0
 555 0000 90B5     		push	{r4, r7, lr}
 556              		.cfi_def_cfa_offset 12
 557              		.cfi_offset 4, -12
ARM GAS  C:\Users\DEVELO~1\AppData\Local\Temp\cc3dswDP.s 			page 11


 558              		.cfi_offset 7, -8
 559              		.cfi_offset 14, -4
 560 0002 83B0     		sub	sp, sp, #12
 561              		.cfi_def_cfa_offset 24
 562 0004 02AF     		add	r7, sp, #8
 563              		.cfi_def_cfa 7, 16
 564              		.loc 8 172 3
 565 0006 934B     		ldr	r3, .L28
 566 0008 0122     		movs	r2, #1
 567 000a 1A60     		str	r2, [r3]
 568              		.loc 8 174 38
 569 000c 924B     		ldr	r3, .L28+4
 570 000e 1C68     		ldr	r4, [r3]
 571              		.loc 8 174 52
 572 0010 FFF7FEFF 		bl	chThdGetPriorityX
 573 0014 0346     		mov	r3, r0
 574              		.loc 8 174 18
 575 0016 5A1F     		subs	r2, r3, #5
 576 0018 904B     		ldr	r3, .L28+8
 577 001a 0093     		str	r3, [sp]
 578 001c 904B     		ldr	r3, .L28+12
 579 001e 4FF4D871 		mov	r1, #432
 580 0022 2046     		mov	r0, r4
 581 0024 FFF7FEFF 		bl	chThdCreateStatic
 582 0028 0346     		mov	r3, r0
 583              		.loc 8 174 16
 584 002a 8E4A     		ldr	r2, .L28+16
 585 002c 1360     		str	r3, [r2]
 586              		.loc 8 175 38
 587 002e 8A4B     		ldr	r3, .L28+4
 588 0030 5C68     		ldr	r4, [r3, #4]
 589              		.loc 8 175 52
 590 0032 FFF7FEFF 		bl	chThdGetPriorityX
 591 0036 0346     		mov	r3, r0
 592              		.loc 8 175 18
 593 0038 1A1F     		subs	r2, r3, #4
 594 003a 8B4B     		ldr	r3, .L28+20
 595 003c 0093     		str	r3, [sp]
 596 003e 884B     		ldr	r3, .L28+12
 597 0040 4FF4D871 		mov	r1, #432
 598 0044 2046     		mov	r0, r4
 599 0046 FFF7FEFF 		bl	chThdCreateStatic
 600 004a 0346     		mov	r3, r0
 601              		.loc 8 175 16
 602 004c 854A     		ldr	r2, .L28+16
 603 004e 5360     		str	r3, [r2, #4]
 604              		.loc 8 176 38
 605 0050 814B     		ldr	r3, .L28+4
 606 0052 9C68     		ldr	r4, [r3, #8]
 607              		.loc 8 176 52
 608 0054 FFF7FEFF 		bl	chThdGetPriorityX
 609 0058 0346     		mov	r3, r0
 610              		.loc 8 176 18
 611 005a DA1E     		subs	r2, r3, #3
 612 005c 834B     		ldr	r3, .L28+24
 613 005e 0093     		str	r3, [sp]
 614 0060 7F4B     		ldr	r3, .L28+12
ARM GAS  C:\Users\DEVELO~1\AppData\Local\Temp\cc3dswDP.s 			page 12


 615 0062 4FF4D871 		mov	r1, #432
 616 0066 2046     		mov	r0, r4
 617 0068 FFF7FEFF 		bl	chThdCreateStatic
 618 006c 0346     		mov	r3, r0
 619              		.loc 8 176 16
 620 006e 7D4A     		ldr	r2, .L28+16
 621 0070 9360     		str	r3, [r2, #8]
 622              		.loc 8 177 38
 623 0072 794B     		ldr	r3, .L28+4
 624 0074 DC68     		ldr	r4, [r3, #12]
 625              		.loc 8 177 52
 626 0076 FFF7FEFF 		bl	chThdGetPriorityX
 627 007a 0346     		mov	r3, r0
 628              		.loc 8 177 18
 629 007c 9A1E     		subs	r2, r3, #2
 630 007e 7C4B     		ldr	r3, .L28+28
 631 0080 0093     		str	r3, [sp]
 632 0082 774B     		ldr	r3, .L28+12
 633 0084 4FF4D871 		mov	r1, #432
 634 0088 2046     		mov	r0, r4
 635 008a FFF7FEFF 		bl	chThdCreateStatic
 636 008e 0346     		mov	r3, r0
 637              		.loc 8 177 16
 638 0090 744A     		ldr	r2, .L28+16
 639 0092 D360     		str	r3, [r2, #12]
 640              		.loc 8 178 38
 641 0094 704B     		ldr	r3, .L28+4
 642 0096 1C69     		ldr	r4, [r3, #16]
 643              		.loc 8 178 52
 644 0098 FFF7FEFF 		bl	chThdGetPriorityX
 645 009c 0346     		mov	r3, r0
 646              		.loc 8 178 18
 647 009e 5A1E     		subs	r2, r3, #1
 648 00a0 744B     		ldr	r3, .L28+32
 649 00a2 0093     		str	r3, [sp]
 650 00a4 6E4B     		ldr	r3, .L28+12
 651 00a6 4FF4D871 		mov	r1, #432
 652 00aa 2046     		mov	r0, r4
 653 00ac FFF7FEFF 		bl	chThdCreateStatic
 654 00b0 0346     		mov	r3, r0
 655              		.loc 8 178 16
 656 00b2 6C4A     		ldr	r2, .L28+16
 657 00b4 1361     		str	r3, [r2, #16]
 658              		.loc 8 179 5
 659 00b6 FFF7FEFF 		bl	test_wait_threads
 660              		.loc 8 180 5
 661 00ba 6F49     		ldr	r1, .L28+36
 662 00bc 6F48     		ldr	r0, .L28+40
 663 00be FFF7FEFF 		bl	__test_assert_sequence
 664 00c2 0346     		mov	r3, r0
 665 00c4 002B     		cmp	r3, #0
 666 00c6 40F0C180 		bne	.L24
 667              		.loc 8 186 3
 668 00ca 624B     		ldr	r3, .L28
 669 00cc 0222     		movs	r2, #2
 670 00ce 1A60     		str	r2, [r3]
 671              		.loc 8 188 38
ARM GAS  C:\Users\DEVELO~1\AppData\Local\Temp\cc3dswDP.s 			page 13


 672 00d0 614B     		ldr	r3, .L28+4
 673 00d2 1C69     		ldr	r4, [r3, #16]
 674              		.loc 8 188 52
 675 00d4 FFF7FEFF 		bl	chThdGetPriorityX
 676 00d8 0346     		mov	r3, r0
 677              		.loc 8 188 18
 678 00da 5A1E     		subs	r2, r3, #1
 679 00dc 654B     		ldr	r3, .L28+32
 680 00de 0093     		str	r3, [sp]
 681 00e0 5F4B     		ldr	r3, .L28+12
 682 00e2 4FF4D871 		mov	r1, #432
 683 00e6 2046     		mov	r0, r4
 684 00e8 FFF7FEFF 		bl	chThdCreateStatic
 685 00ec 0346     		mov	r3, r0
 686              		.loc 8 188 16
 687 00ee 5D4A     		ldr	r2, .L28+16
 688 00f0 1361     		str	r3, [r2, #16]
 689              		.loc 8 189 38
 690 00f2 594B     		ldr	r3, .L28+4
 691 00f4 DC68     		ldr	r4, [r3, #12]
 692              		.loc 8 189 52
 693 00f6 FFF7FEFF 		bl	chThdGetPriorityX
 694 00fa 0346     		mov	r3, r0
 695              		.loc 8 189 18
 696 00fc 9A1E     		subs	r2, r3, #2
 697 00fe 5C4B     		ldr	r3, .L28+28
 698 0100 0093     		str	r3, [sp]
 699 0102 574B     		ldr	r3, .L28+12
 700 0104 4FF4D871 		mov	r1, #432
 701 0108 2046     		mov	r0, r4
 702 010a FFF7FEFF 		bl	chThdCreateStatic
 703 010e 0346     		mov	r3, r0
 704              		.loc 8 189 16
 705 0110 544A     		ldr	r2, .L28+16
 706 0112 D360     		str	r3, [r2, #12]
 707              		.loc 8 190 38
 708 0114 504B     		ldr	r3, .L28+4
 709 0116 9C68     		ldr	r4, [r3, #8]
 710              		.loc 8 190 52
 711 0118 FFF7FEFF 		bl	chThdGetPriorityX
 712 011c 0346     		mov	r3, r0
 713              		.loc 8 190 18
 714 011e DA1E     		subs	r2, r3, #3
 715 0120 524B     		ldr	r3, .L28+24
 716 0122 0093     		str	r3, [sp]
 717 0124 4E4B     		ldr	r3, .L28+12
 718 0126 4FF4D871 		mov	r1, #432
 719 012a 2046     		mov	r0, r4
 720 012c FFF7FEFF 		bl	chThdCreateStatic
 721 0130 0346     		mov	r3, r0
 722              		.loc 8 190 16
 723 0132 4C4A     		ldr	r2, .L28+16
 724 0134 9360     		str	r3, [r2, #8]
 725              		.loc 8 191 38
 726 0136 484B     		ldr	r3, .L28+4
 727 0138 5C68     		ldr	r4, [r3, #4]
 728              		.loc 8 191 52
ARM GAS  C:\Users\DEVELO~1\AppData\Local\Temp\cc3dswDP.s 			page 14


 729 013a FFF7FEFF 		bl	chThdGetPriorityX
 730 013e 0346     		mov	r3, r0
 731              		.loc 8 191 18
 732 0140 1A1F     		subs	r2, r3, #4
 733 0142 494B     		ldr	r3, .L28+20
 734 0144 0093     		str	r3, [sp]
 735 0146 464B     		ldr	r3, .L28+12
 736 0148 4FF4D871 		mov	r1, #432
 737 014c 2046     		mov	r0, r4
 738 014e FFF7FEFF 		bl	chThdCreateStatic
 739 0152 0346     		mov	r3, r0
 740              		.loc 8 191 16
 741 0154 434A     		ldr	r2, .L28+16
 742 0156 5360     		str	r3, [r2, #4]
 743              		.loc 8 192 38
 744 0158 3F4B     		ldr	r3, .L28+4
 745 015a 1C68     		ldr	r4, [r3]
 746              		.loc 8 192 52
 747 015c FFF7FEFF 		bl	chThdGetPriorityX
 748 0160 0346     		mov	r3, r0
 749              		.loc 8 192 18
 750 0162 5A1F     		subs	r2, r3, #5
 751 0164 3D4B     		ldr	r3, .L28+8
 752 0166 0093     		str	r3, [sp]
 753 0168 3D4B     		ldr	r3, .L28+12
 754 016a 4FF4D871 		mov	r1, #432
 755 016e 2046     		mov	r0, r4
 756 0170 FFF7FEFF 		bl	chThdCreateStatic
 757 0174 0346     		mov	r3, r0
 758              		.loc 8 192 16
 759 0176 3B4A     		ldr	r2, .L28+16
 760 0178 1360     		str	r3, [r2]
 761              		.loc 8 193 5
 762 017a FFF7FEFF 		bl	test_wait_threads
 763              		.loc 8 194 5
 764 017e 3E49     		ldr	r1, .L28+36
 765 0180 3E48     		ldr	r0, .L28+40
 766 0182 FFF7FEFF 		bl	__test_assert_sequence
 767 0186 0346     		mov	r3, r0
 768 0188 002B     		cmp	r3, #0
 769 018a 5FD1     		bne	.L24
 770              		.loc 8 200 3
 771 018c 314B     		ldr	r3, .L28
 772 018e 0322     		movs	r2, #3
 773 0190 1A60     		str	r2, [r3]
 774              		.loc 8 202 38
 775 0192 314B     		ldr	r3, .L28+4
 776 0194 5C68     		ldr	r4, [r3, #4]
 777              		.loc 8 202 52
 778 0196 FFF7FEFF 		bl	chThdGetPriorityX
 779 019a 0346     		mov	r3, r0
 780              		.loc 8 202 18
 781 019c 1A1F     		subs	r2, r3, #4
 782 019e 324B     		ldr	r3, .L28+20
 783 01a0 0093     		str	r3, [sp]
 784 01a2 2F4B     		ldr	r3, .L28+12
 785 01a4 4FF4D871 		mov	r1, #432
ARM GAS  C:\Users\DEVELO~1\AppData\Local\Temp\cc3dswDP.s 			page 15


 786 01a8 2046     		mov	r0, r4
 787 01aa FFF7FEFF 		bl	chThdCreateStatic
 788 01ae 0346     		mov	r3, r0
 789              		.loc 8 202 16
 790 01b0 2C4A     		ldr	r2, .L28+16
 791 01b2 5360     		str	r3, [r2, #4]
 792              		.loc 8 203 38
 793 01b4 284B     		ldr	r3, .L28+4
 794 01b6 1C68     		ldr	r4, [r3]
 795              		.loc 8 203 52
 796 01b8 FFF7FEFF 		bl	chThdGetPriorityX
 797 01bc 0346     		mov	r3, r0
 798              		.loc 8 203 18
 799 01be 5A1F     		subs	r2, r3, #5
 800 01c0 264B     		ldr	r3, .L28+8
 801 01c2 0093     		str	r3, [sp]
 802 01c4 264B     		ldr	r3, .L28+12
 803 01c6 4FF4D871 		mov	r1, #432
 804 01ca 2046     		mov	r0, r4
 805 01cc FFF7FEFF 		bl	chThdCreateStatic
 806 01d0 0346     		mov	r3, r0
 807              		.loc 8 203 16
 808 01d2 244A     		ldr	r2, .L28+16
 809 01d4 1360     		str	r3, [r2]
 810              		.loc 8 204 38
 811 01d6 204B     		ldr	r3, .L28+4
 812 01d8 1C69     		ldr	r4, [r3, #16]
 813              		.loc 8 204 52
 814 01da FFF7FEFF 		bl	chThdGetPriorityX
 815 01de 0346     		mov	r3, r0
 816              		.loc 8 204 18
 817 01e0 5A1E     		subs	r2, r3, #1
 818 01e2 244B     		ldr	r3, .L28+32
 819 01e4 0093     		str	r3, [sp]
 820 01e6 1E4B     		ldr	r3, .L28+12
 821 01e8 4FF4D871 		mov	r1, #432
 822 01ec 2046     		mov	r0, r4
 823 01ee FFF7FEFF 		bl	chThdCreateStatic
 824 01f2 0346     		mov	r3, r0
 825              		.loc 8 204 16
 826 01f4 1B4A     		ldr	r2, .L28+16
 827 01f6 1361     		str	r3, [r2, #16]
 828              		.loc 8 205 38
 829 01f8 174B     		ldr	r3, .L28+4
 830 01fa DC68     		ldr	r4, [r3, #12]
 831              		.loc 8 205 52
 832 01fc FFF7FEFF 		bl	chThdGetPriorityX
 833 0200 0346     		mov	r3, r0
 834              		.loc 8 205 18
 835 0202 9A1E     		subs	r2, r3, #2
 836 0204 1A4B     		ldr	r3, .L28+28
 837 0206 0093     		str	r3, [sp]
 838 0208 154B     		ldr	r3, .L28+12
 839 020a 4FF4D871 		mov	r1, #432
 840 020e 2046     		mov	r0, r4
 841 0210 FFF7FEFF 		bl	chThdCreateStatic
 842 0214 0346     		mov	r3, r0
ARM GAS  C:\Users\DEVELO~1\AppData\Local\Temp\cc3dswDP.s 			page 16


 843              		.loc 8 205 16
 844 0216 134A     		ldr	r2, .L28+16
 845 0218 D360     		str	r3, [r2, #12]
 846              		.loc 8 206 38
 847 021a 0F4B     		ldr	r3, .L28+4
 848 021c 9C68     		ldr	r4, [r3, #8]
 849              		.loc 8 206 52
 850 021e FFF7FEFF 		bl	chThdGetPriorityX
 851 0222 0346     		mov	r3, r0
 852              		.loc 8 206 18
 853 0224 DA1E     		subs	r2, r3, #3
 854 0226 114B     		ldr	r3, .L28+24
 855 0228 0093     		str	r3, [sp]
 856 022a 0D4B     		ldr	r3, .L28+12
 857 022c 4FF4D871 		mov	r1, #432
 858 0230 2046     		mov	r0, r4
 859 0232 FFF7FEFF 		bl	chThdCreateStatic
 860 0236 0346     		mov	r3, r0
 861              		.loc 8 206 16
 862 0238 0A4A     		ldr	r2, .L28+16
 863 023a 9360     		str	r3, [r2, #8]
 864              		.loc 8 207 5
 865 023c FFF7FEFF 		bl	test_wait_threads
 866              		.loc 8 208 5
 867 0240 0D49     		ldr	r1, .L28+36
 868 0242 0E48     		ldr	r0, .L28+40
 869 0244 FFF7FEFF 		bl	__test_assert_sequence
 870 0248 0346     		mov	r3, r0
 871 024a 002B     		cmp	r3, #0
 872              	.L24:
 873              		.loc 8 211 1
 874 024c 0437     		adds	r7, r7, #4
 875              		.cfi_def_cfa_offset 12
 876 024e BD46     		mov	sp, r7
 877              		.cfi_def_cfa_register 13
 878              		@ sp needed
 879 0250 90BD     		pop	{r4, r7, pc}
 880              	.L29:
 881 0252 00BF     		.align	2
 882              	.L28:
 883 0254 00000000 		.word	chtest
 884 0258 00000000 		.word	wa
 885 025c 30000000 		.word	.LC2
 886 0260 00000000 		.word	thread
 887 0264 00000000 		.word	threads
 888 0268 34000000 		.word	.LC3
 889 026c 38000000 		.word	.LC4
 890 0270 3C000000 		.word	.LC5
 891 0274 40000000 		.word	.LC6
 892 0278 44000000 		.word	.LC7
 893 027c 58000000 		.word	.LC8
 894              		.cfi_endproc
 895              	.LFE438:
 896              		.size	rt_test_005_002_execute, .-rt_test_005_002_execute
 897              		.section	.rodata
 898 005e 0000     		.align	2
 899              	.LC9:
ARM GAS  C:\Users\DEVELO~1\AppData\Local\Temp\cc3dswDP.s 			page 17


 900 0060 52656164 		.ascii	"Ready List functionality, threads priority order\000"
 900      79204C69 
 900      73742066 
 900      756E6374 
 900      696F6E61 
 901              		.section	.rodata.rt_test_005_002,"a"
 902              		.align	2
 903              		.type	rt_test_005_002, %object
 904              		.size	rt_test_005_002, 16
 905              	rt_test_005_002:
 906 0000 60000000 		.word	.LC9
 907 0004 00000000 		.word	0
 908 0008 00000000 		.word	0
 909 000c 00000000 		.word	rt_test_005_002_execute
 910              		.section	.rodata
 911 0091 000000   		.align	2
 912              	.LC10:
 913 0094 756E6578 		.ascii	"unexpected returned priority level\000"
 913      70656374 
 913      65642072 
 913      65747572 
 913      6E656420 
 914 00b7 00       		.align	2
 915              	.LC11:
 916 00b8 756E6578 		.ascii	"unexpected priority level\000"
 916      70656374 
 916      65642070 
 916      72696F72 
 916      69747920 
 917              		.section	.text.rt_test_005_003_execute,"ax",%progbits
 918              		.align	1
 919              		.syntax unified
 920              		.thumb
 921              		.thumb_func
 922              		.type	rt_test_005_003_execute, %function
 923              	rt_test_005_003_execute:
 924              	.LFB439:
 925              		.loc 8 235 43
 926              		.cfi_startproc
 927              		@ args = 0, pretend = 0, frame = 8
 928              		@ frame_needed = 1, uses_anonymous_args = 0
 929 0000 80B5     		push	{r7, lr}
 930              		.cfi_def_cfa_offset 8
 931              		.cfi_offset 7, -8
 932              		.cfi_offset 14, -4
 933 0002 82B0     		sub	sp, sp, #8
 934              		.cfi_def_cfa_offset 16
 935 0004 00AF     		add	r7, sp, #0
 936              		.cfi_def_cfa_register 7
 937              		.loc 8 240 3
 938 0006 294B     		ldr	r3, .L35
 939 0008 0122     		movs	r2, #1
 940 000a 1A60     		str	r2, [r3]
 941              		.loc 8 242 12
 942 000c FFF7FEFF 		bl	chThdGetPriorityX
 943 0010 7860     		str	r0, [r7, #4]
 944              		.loc 8 243 10
ARM GAS  C:\Users\DEVELO~1\AppData\Local\Temp\cc3dswDP.s 			page 18


 945 0012 7B68     		ldr	r3, [r7, #4]
 946 0014 0133     		adds	r3, r3, #1
 947 0016 1846     		mov	r0, r3
 948 0018 FFF7FEFF 		bl	chThdSetPriority
 949 001c 3860     		str	r0, [r7]
 950              		.loc 8 244 5
 951 001e 3A68     		ldr	r2, [r7]
 952 0020 7B68     		ldr	r3, [r7, #4]
 953 0022 9A42     		cmp	r2, r3
 954 0024 0CBF     		ite	eq
 955 0026 0123     		moveq	r3, #1
 956 0028 0023     		movne	r3, #0
 957 002a DBB2     		uxtb	r3, r3
 958 002c 2049     		ldr	r1, .L35+4
 959 002e 1846     		mov	r0, r3
 960 0030 FFF7FEFF 		bl	__test_assert
 961 0034 0346     		mov	r3, r0
 962 0036 002B     		cmp	r3, #0
 963 0038 35D1     		bne	.L30
 964              		.loc 8 245 5
 965 003a FFF7FEFF 		bl	chThdGetPriorityX
 966 003e 0246     		mov	r2, r0
 967 0040 7B68     		ldr	r3, [r7, #4]
 968 0042 0133     		adds	r3, r3, #1
 969 0044 9A42     		cmp	r2, r3
 970 0046 0CBF     		ite	eq
 971 0048 0123     		moveq	r3, #1
 972 004a 0023     		movne	r3, #0
 973 004c DBB2     		uxtb	r3, r3
 974 004e 1949     		ldr	r1, .L35+8
 975 0050 1846     		mov	r0, r3
 976 0052 FFF7FEFF 		bl	__test_assert
 977 0056 0346     		mov	r3, r0
 978 0058 002B     		cmp	r3, #0
 979 005a 24D1     		bne	.L30
 980              		.loc 8 251 3
 981 005c 134B     		ldr	r3, .L35
 982 005e 0222     		movs	r2, #2
 983 0060 1A60     		str	r2, [r3]
 984              		.loc 8 253 10
 985 0062 3868     		ldr	r0, [r7]
 986 0064 FFF7FEFF 		bl	chThdSetPriority
 987 0068 3860     		str	r0, [r7]
 988              		.loc 8 254 5
 989 006a 7B68     		ldr	r3, [r7, #4]
 990 006c 0133     		adds	r3, r3, #1
 991 006e 3A68     		ldr	r2, [r7]
 992 0070 9A42     		cmp	r2, r3
 993 0072 0CBF     		ite	eq
 994 0074 0123     		moveq	r3, #1
 995 0076 0023     		movne	r3, #0
 996 0078 DBB2     		uxtb	r3, r3
 997 007a 0D49     		ldr	r1, .L35+4
 998 007c 1846     		mov	r0, r3
 999 007e FFF7FEFF 		bl	__test_assert
 1000 0082 0346     		mov	r3, r0
 1001 0084 002B     		cmp	r3, #0
ARM GAS  C:\Users\DEVELO~1\AppData\Local\Temp\cc3dswDP.s 			page 19


 1002 0086 0ED1     		bne	.L30
 1003              		.loc 8 255 5
 1004 0088 FFF7FEFF 		bl	chThdGetPriorityX
 1005 008c 0246     		mov	r2, r0
 1006 008e 7B68     		ldr	r3, [r7, #4]
 1007 0090 9342     		cmp	r3, r2
 1008 0092 0CBF     		ite	eq
 1009 0094 0123     		moveq	r3, #1
 1010 0096 0023     		movne	r3, #0
 1011 0098 DBB2     		uxtb	r3, r3
 1012 009a 0649     		ldr	r1, .L35+8
 1013 009c 1846     		mov	r0, r3
 1014 009e FFF7FEFF 		bl	__test_assert
 1015 00a2 0346     		mov	r3, r0
 1016 00a4 002B     		cmp	r3, #0
 1017              	.L30:
 1018              		.loc 8 258 1
 1019 00a6 0837     		adds	r7, r7, #8
 1020              		.cfi_def_cfa_offset 8
 1021 00a8 BD46     		mov	sp, r7
 1022              		.cfi_def_cfa_register 13
 1023              		@ sp needed
 1024 00aa 80BD     		pop	{r7, pc}
 1025              	.L36:
 1026              		.align	2
 1027              	.L35:
 1028 00ac 00000000 		.word	chtest
 1029 00b0 94000000 		.word	.LC10
 1030 00b4 B8000000 		.word	.LC11
 1031              		.cfi_endproc
 1032              	.LFE439:
 1033              		.size	rt_test_005_003_execute, .-rt_test_005_003_execute
 1034              		.section	.rodata
 1035 00d2 0000     		.align	2
 1036              	.LC12:
 1037 00d4 5072696F 		.ascii	"Priority change test\000"
 1037      72697479 
 1037      20636861 
 1037      6E676520 
 1037      74657374 
 1038              		.section	.rodata.rt_test_005_003,"a"
 1039              		.align	2
 1040              		.type	rt_test_005_003, %object
 1041              		.size	rt_test_005_003, 16
 1042              	rt_test_005_003:
 1043 0000 D4000000 		.word	.LC12
 1044 0004 00000000 		.word	0
 1045 0008 00000000 		.word	0
 1046 000c 00000000 		.word	rt_test_005_003_execute
 1047              		.section	.rodata
 1048 00e9 000000   		.align	2
 1049              	.LC13:
 1050 00ec 756E6578 		.ascii	"unexpected returned real priority level\000"
 1050      70656374 
 1050      65642072 
 1050      65747572 
 1050      6E656420 
ARM GAS  C:\Users\DEVELO~1\AppData\Local\Temp\cc3dswDP.s 			page 20


 1051              		.align	2
 1052              	.LC14:
 1053 0114 756E6578 		.ascii	"unexpected real priority level\000"
 1053      70656374 
 1053      65642072 
 1053      65616C20 
 1053      7072696F 
 1054              		.section	.text.rt_test_005_004_execute,"ax",%progbits
 1055              		.align	1
 1056              		.syntax unified
 1057              		.thumb
 1058              		.thumb_func
 1059              		.type	rt_test_005_004_execute, %function
 1060              	rt_test_005_004_execute:
 1061              	.LFB440:
 1062              		.loc 8 290 43
 1063              		.cfi_startproc
 1064              		@ args = 0, pretend = 0, frame = 8
 1065              		@ frame_needed = 1, uses_anonymous_args = 0
 1066 0000 80B5     		push	{r7, lr}
 1067              		.cfi_def_cfa_offset 8
 1068              		.cfi_offset 7, -8
 1069              		.cfi_offset 14, -4
 1070 0002 82B0     		sub	sp, sp, #8
 1071              		.cfi_def_cfa_offset 16
 1072 0004 00AF     		add	r7, sp, #0
 1073              		.cfi_def_cfa_register 7
 1074              		.loc 8 294 3
 1075 0006 544B     		ldr	r3, .L46
 1076 0008 0122     		movs	r2, #1
 1077 000a 1A60     		str	r2, [r3]
 1078              		.loc 8 296 12
 1079 000c FFF7FEFF 		bl	chThdGetPriorityX
 1080 0010 7860     		str	r0, [r7, #4]
 1081              		.loc 8 297 5
 1082 0012 FFF7FEFF 		bl	chThdGetSelfX
 1083 0016 0346     		mov	r3, r0
 1084              		.loc 8 297 38
 1085 0018 9A68     		ldr	r2, [r3, #8]
 1086 001a 0232     		adds	r2, r2, #2
 1087 001c 9A60     		str	r2, [r3, #8]
 1088              		.loc 8 298 5
 1089 001e FFF7FEFF 		bl	chThdGetPriorityX
 1090 0022 0246     		mov	r2, r0
 1091 0024 7B68     		ldr	r3, [r7, #4]
 1092 0026 0233     		adds	r3, r3, #2
 1093 0028 9A42     		cmp	r2, r3
 1094 002a 0CBF     		ite	eq
 1095 002c 0123     		moveq	r3, #1
 1096 002e 0023     		movne	r3, #0
 1097 0030 DBB2     		uxtb	r3, r3
 1098 0032 4A49     		ldr	r1, .L46+4
 1099 0034 1846     		mov	r0, r3
 1100 0036 FFF7FEFF 		bl	__test_assert
 1101 003a 0346     		mov	r3, r0
 1102 003c 002B     		cmp	r3, #0
 1103 003e 40F08880 		bne	.L37
ARM GAS  C:\Users\DEVELO~1\AppData\Local\Temp\cc3dswDP.s 			page 21


 1104              		.loc 8 304 3
 1105 0042 454B     		ldr	r3, .L46
 1106 0044 0222     		movs	r2, #2
 1107 0046 1A60     		str	r2, [r3]
 1108              		.loc 8 306 10
 1109 0048 7B68     		ldr	r3, [r7, #4]
 1110 004a 0133     		adds	r3, r3, #1
 1111 004c 1846     		mov	r0, r3
 1112 004e FFF7FEFF 		bl	chThdSetPriority
 1113 0052 3860     		str	r0, [r7]
 1114              		.loc 8 307 5
 1115 0054 3A68     		ldr	r2, [r7]
 1116 0056 7B68     		ldr	r3, [r7, #4]
 1117 0058 9A42     		cmp	r2, r3
 1118 005a 0CBF     		ite	eq
 1119 005c 0123     		moveq	r3, #1
 1120 005e 0023     		movne	r3, #0
 1121 0060 DBB2     		uxtb	r3, r3
 1122 0062 3F49     		ldr	r1, .L46+8
 1123 0064 1846     		mov	r0, r3
 1124 0066 FFF7FEFF 		bl	__test_assert
 1125 006a 0346     		mov	r3, r0
 1126 006c 002B     		cmp	r3, #0
 1127 006e 70D1     		bne	.L37
 1128              		.loc 8 308 5
 1129 0070 FFF7FEFF 		bl	chThdGetSelfX
 1130 0074 0346     		mov	r3, r0
 1131 0076 9A68     		ldr	r2, [r3, #8]
 1132 0078 7B68     		ldr	r3, [r7, #4]
 1133 007a 0233     		adds	r3, r3, #2
 1134 007c 9A42     		cmp	r2, r3
 1135 007e 0CBF     		ite	eq
 1136 0080 0123     		moveq	r3, #1
 1137 0082 0023     		movne	r3, #0
 1138 0084 DBB2     		uxtb	r3, r3
 1139 0086 3549     		ldr	r1, .L46+4
 1140 0088 1846     		mov	r0, r3
 1141 008a FFF7FEFF 		bl	__test_assert
 1142 008e 0346     		mov	r3, r0
 1143 0090 002B     		cmp	r3, #0
 1144 0092 5ED1     		bne	.L37
 1145              		.loc 8 309 5
 1146 0094 FFF7FEFF 		bl	chThdGetSelfX
 1147 0098 0346     		mov	r3, r0
 1148 009a 1A6C     		ldr	r2, [r3, #64]
 1149 009c 7B68     		ldr	r3, [r7, #4]
 1150 009e 0133     		adds	r3, r3, #1
 1151 00a0 9A42     		cmp	r2, r3
 1152 00a2 0CBF     		ite	eq
 1153 00a4 0123     		moveq	r3, #1
 1154 00a6 0023     		movne	r3, #0
 1155 00a8 DBB2     		uxtb	r3, r3
 1156 00aa 2E49     		ldr	r1, .L46+12
 1157 00ac 1846     		mov	r0, r3
 1158 00ae FFF7FEFF 		bl	__test_assert
 1159 00b2 0346     		mov	r3, r0
 1160 00b4 002B     		cmp	r3, #0
ARM GAS  C:\Users\DEVELO~1\AppData\Local\Temp\cc3dswDP.s 			page 22


 1161 00b6 4CD1     		bne	.L37
 1162              		.loc 8 314 3
 1163 00b8 274B     		ldr	r3, .L46
 1164 00ba 0322     		movs	r2, #3
 1165 00bc 1A60     		str	r2, [r3]
 1166              		.loc 8 316 10
 1167 00be 7B68     		ldr	r3, [r7, #4]
 1168 00c0 0333     		adds	r3, r3, #3
 1169 00c2 1846     		mov	r0, r3
 1170 00c4 FFF7FEFF 		bl	chThdSetPriority
 1171 00c8 3860     		str	r0, [r7]
 1172              		.loc 8 317 5
 1173 00ca 7B68     		ldr	r3, [r7, #4]
 1174 00cc 0133     		adds	r3, r3, #1
 1175 00ce 3A68     		ldr	r2, [r7]
 1176 00d0 9A42     		cmp	r2, r3
 1177 00d2 0CBF     		ite	eq
 1178 00d4 0123     		moveq	r3, #1
 1179 00d6 0023     		movne	r3, #0
 1180 00d8 DBB2     		uxtb	r3, r3
 1181 00da 2149     		ldr	r1, .L46+8
 1182 00dc 1846     		mov	r0, r3
 1183 00de FFF7FEFF 		bl	__test_assert
 1184 00e2 0346     		mov	r3, r0
 1185 00e4 002B     		cmp	r3, #0
 1186 00e6 34D1     		bne	.L37
 1187              		.loc 8 318 5
 1188 00e8 FFF7FEFF 		bl	chThdGetSelfX
 1189 00ec 0346     		mov	r3, r0
 1190 00ee 9A68     		ldr	r2, [r3, #8]
 1191 00f0 7B68     		ldr	r3, [r7, #4]
 1192 00f2 0333     		adds	r3, r3, #3
 1193 00f4 9A42     		cmp	r2, r3
 1194 00f6 0CBF     		ite	eq
 1195 00f8 0123     		moveq	r3, #1
 1196 00fa 0023     		movne	r3, #0
 1197 00fc DBB2     		uxtb	r3, r3
 1198 00fe 1749     		ldr	r1, .L46+4
 1199 0100 1846     		mov	r0, r3
 1200 0102 FFF7FEFF 		bl	__test_assert
 1201 0106 0346     		mov	r3, r0
 1202 0108 002B     		cmp	r3, #0
 1203 010a 22D1     		bne	.L37
 1204              		.loc 8 319 5
 1205 010c FFF7FEFF 		bl	chThdGetSelfX
 1206 0110 0346     		mov	r3, r0
 1207 0112 1A6C     		ldr	r2, [r3, #64]
 1208 0114 7B68     		ldr	r3, [r7, #4]
 1209 0116 0333     		adds	r3, r3, #3
 1210 0118 9A42     		cmp	r2, r3
 1211 011a 0CBF     		ite	eq
 1212 011c 0123     		moveq	r3, #1
 1213 011e 0023     		movne	r3, #0
 1214 0120 DBB2     		uxtb	r3, r3
 1215 0122 1149     		ldr	r1, .L46+16
 1216 0124 1846     		mov	r0, r3
 1217 0126 FFF7FEFF 		bl	__test_assert
ARM GAS  C:\Users\DEVELO~1\AppData\Local\Temp\cc3dswDP.s 			page 23


 1218 012a 0346     		mov	r3, r0
 1219 012c 002B     		cmp	r3, #0
 1220 012e 10D1     		bne	.L37
 1221              		.loc 8 324 3
 1222 0130 094B     		ldr	r3, .L46
 1223 0132 0422     		movs	r2, #4
 1224 0134 1A60     		str	r2, [r3]
 1225              		.loc 8 326 5
 1226 0136 FFF7FEFF 		bl	chSysLock
 1227              		.loc 8 327 5
 1228 013a FFF7FEFF 		bl	chThdGetSelfX
 1229 013e 0246     		mov	r2, r0
 1230              		.loc 8 327 38
 1231 0140 7B68     		ldr	r3, [r7, #4]
 1232 0142 9360     		str	r3, [r2, #8]
 1233              		.loc 8 328 5
 1234 0144 FFF7FEFF 		bl	chThdGetSelfX
 1235 0148 0246     		mov	r2, r0
 1236              		.loc 8 328 31
 1237 014a 7B68     		ldr	r3, [r7, #4]
 1238 014c 1364     		str	r3, [r2, #64]
 1239              		.loc 8 329 5
 1240 014e FFF7FEFF 		bl	chSysUnlock
 1241              	.L37:
 1242              		.loc 8 332 1
 1243 0152 0837     		adds	r7, r7, #8
 1244              		.cfi_def_cfa_offset 8
 1245 0154 BD46     		mov	sp, r7
 1246              		.cfi_def_cfa_register 13
 1247              		@ sp needed
 1248 0156 80BD     		pop	{r7, pc}
 1249              	.L47:
 1250              		.align	2
 1251              	.L46:
 1252 0158 00000000 		.word	chtest
 1253 015c B8000000 		.word	.LC11
 1254 0160 94000000 		.word	.LC10
 1255 0164 EC000000 		.word	.LC13
 1256 0168 14010000 		.word	.LC14
 1257              		.cfi_endproc
 1258              	.LFE440:
 1259              		.size	rt_test_005_004_execute, .-rt_test_005_004_execute
 1260              		.section	.rodata
 1261 0133 00       		.align	2
 1262              	.LC15:
 1263 0134 5072696F 		.ascii	"Priority change test with Priority Inheritance\000"
 1263      72697479 
 1263      20636861 
 1263      6E676520 
 1263      74657374 
 1264              		.section	.rodata.rt_test_005_004,"a"
 1265              		.align	2
 1266              		.type	rt_test_005_004, %object
 1267              		.size	rt_test_005_004, 16
 1268              	rt_test_005_004:
 1269 0000 34010000 		.word	.LC15
 1270 0004 00000000 		.word	0
ARM GAS  C:\Users\DEVELO~1\AppData\Local\Temp\cc3dswDP.s 			page 24


 1271 0008 00000000 		.word	0
 1272 000c 00000000 		.word	rt_test_005_004_execute
 1273              		.global	rt_test_sequence_005_array
 1274              		.section	.rodata.rt_test_sequence_005_array,"a"
 1275              		.align	2
 1276              		.type	rt_test_sequence_005_array, %object
 1277              		.size	rt_test_sequence_005_array, 20
 1278              	rt_test_sequence_005_array:
 1279 0000 00000000 		.word	rt_test_005_001
 1280 0004 00000000 		.word	rt_test_005_002
 1281 0008 00000000 		.word	rt_test_005_003
 1282 000c 00000000 		.word	rt_test_005_004
 1283 0010 00000000 		.word	0
 1284              		.global	rt_test_sequence_005
 1285              		.section	.rodata
 1286 0163 00       		.align	2
 1287              	.LC16:
 1288 0164 54687265 		.ascii	"Threads Functionality\000"
 1288      61647320 
 1288      46756E63 
 1288      74696F6E 
 1288      616C6974 
 1289              		.section	.rodata.rt_test_sequence_005,"a"
 1290              		.align	2
 1291              		.type	rt_test_sequence_005, %object
 1292              		.size	rt_test_sequence_005, 8
 1293              	rt_test_sequence_005:
 1294 0000 64010000 		.word	.LC16
 1295 0004 00000000 		.word	rt_test_sequence_005_array
 1296              		.text
 1297              	.Letext0:
 1298              		.file 9 "c:\\chibistudio\\tools\\gnu tools arm embedded\\11.3 2022.08\\lib\\gcc\\arm-none-eabi\\11
 1299              		.file 10 "c:\\chibistudio\\tools\\gnu tools arm embedded\\11.3 2022.08\\arm-none-eabi\\include\\ma
 1300              		.file 11 "c:\\chibistudio\\tools\\gnu tools arm embedded\\11.3 2022.08\\arm-none-eabi\\include\\sy
 1301              		.file 12 "../../../os/common/ports/ARM-common/chtypes.h"
 1302              		.file 13 "../../../os/rt/include/chearly.h"
 1303              		.file 14 "../../../os/rt/include/chobjects.h"
 1304              		.file 15 "../../../os/rt/include/chrfcu.h"
 1305              		.file 16 "../../../os/rt/include/chdebug.h"
 1306              		.file 17 "../../../os/rt/include/chlists.h"
 1307              		.file 18 "../../../os/rt/include/chtrace.h"
 1308              		.file 19 "../../../os/rt/include/chsem.h"
 1309              		.file 20 "../../../os/rt/include/chmtx.h"
 1310              		.file 21 "../../../os/hal/include/hal_streams.h"
 1311              		.file 22 "../../../os/test/include/ch_test.h"
 1312              		.file 23 "../../../test/rt/source/test/rt_test_sequence_005.h"
 1313              		.file 24 "../../../test/rt/source/test/rt_test_root.h"
 1314              		.file 25 "../../../os/hal/include/hal_st.h"
 1315              		.section	.debug_info,"",%progbits
 1316              	.Ldebug_info0:
 1317 0000 1A0F0000 		.4byte	0xf1a
 1318 0004 0500     		.2byte	0x5
 1319 0006 01       		.byte	0x1
 1320 0007 04       		.byte	0x4
 1321 0008 00000000 		.4byte	.Ldebug_abbrev0
 1322 000c 23       		.uleb128 0x23
 1323 000d 21010000 		.4byte	.LASF177
ARM GAS  C:\Users\DEVELO~1\AppData\Local\Temp\cc3dswDP.s 			page 25


 1324 0011 1D       		.byte	0x1d
 1325 0012 56050000 		.4byte	.LASF178
 1326 0016 5B030000 		.4byte	.LASF179
 1327 001a 0C000000 		.4byte	.LLRL0
 1328 001e 00000000 		.4byte	0
 1329 0022 00000000 		.4byte	.Ldebug_line0
 1330 0026 24       		.uleb128 0x24
 1331 0027 04       		.byte	0x4
 1332 0028 05       		.byte	0x5
 1333 0029 696E7400 		.ascii	"int\000"
 1334 002d 02       		.uleb128 0x2
 1335 002e 15000000 		.4byte	.LASF4
 1336 0032 09       		.byte	0x9
 1337 0033 D1       		.byte	0xd1
 1338 0034 17       		.byte	0x17
 1339 0035 39000000 		.4byte	0x39
 1340 0039 07       		.uleb128 0x7
 1341 003a 04       		.byte	0x4
 1342 003b 07       		.byte	0x7
 1343 003c FA020000 		.4byte	.LASF0
 1344 0040 07       		.uleb128 0x7
 1345 0041 08       		.byte	0x8
 1346 0042 05       		.byte	0x5
 1347 0043 B8000000 		.4byte	.LASF1
 1348 0047 07       		.uleb128 0x7
 1349 0048 08       		.byte	0x8
 1350 0049 04       		.byte	0x4
 1351 004a 8D070000 		.4byte	.LASF2
 1352 004e 07       		.uleb128 0x7
 1353 004f 01       		.byte	0x1
 1354 0050 06       		.byte	0x6
 1355 0051 C6000000 		.4byte	.LASF3
 1356 0055 02       		.uleb128 0x2
 1357 0056 40000000 		.4byte	.LASF5
 1358 005a 0A       		.byte	0xa
 1359 005b 2B       		.byte	0x2b
 1360 005c 18       		.byte	0x18
 1361 005d 61000000 		.4byte	0x61
 1362 0061 07       		.uleb128 0x7
 1363 0062 01       		.byte	0x1
 1364 0063 08       		.byte	0x8
 1365 0064 88060000 		.4byte	.LASF6
 1366 0068 07       		.uleb128 0x7
 1367 0069 02       		.byte	0x2
 1368 006a 05       		.byte	0x5
 1369 006b 6C040000 		.4byte	.LASF7
 1370 006f 02       		.uleb128 0x2
 1371 0070 AC070000 		.4byte	.LASF8
 1372 0074 0A       		.byte	0xa
 1373 0075 39       		.byte	0x39
 1374 0076 19       		.byte	0x19
 1375 0077 7B000000 		.4byte	0x7b
 1376 007b 07       		.uleb128 0x7
 1377 007c 02       		.byte	0x2
 1378 007d 07       		.byte	0x7
 1379 007e D6030000 		.4byte	.LASF9
 1380 0082 02       		.uleb128 0x2
ARM GAS  C:\Users\DEVELO~1\AppData\Local\Temp\cc3dswDP.s 			page 26


 1381 0083 76040000 		.4byte	.LASF10
 1382 0087 0A       		.byte	0xa
 1383 0088 4D       		.byte	0x4d
 1384 0089 18       		.byte	0x18
 1385 008a 8E000000 		.4byte	0x8e
 1386 008e 07       		.uleb128 0x7
 1387 008f 04       		.byte	0x4
 1388 0090 05       		.byte	0x5
 1389 0091 67000000 		.4byte	.LASF11
 1390 0095 02       		.uleb128 0x2
 1391 0096 8B020000 		.4byte	.LASF12
 1392 009a 0A       		.byte	0xa
 1393 009b 4F       		.byte	0x4f
 1394 009c 19       		.byte	0x19
 1395 009d A1000000 		.4byte	0xa1
 1396 00a1 07       		.uleb128 0x7
 1397 00a2 04       		.byte	0x4
 1398 00a3 07       		.byte	0x7
 1399 00a4 D2000000 		.4byte	.LASF13
 1400 00a8 02       		.uleb128 0x2
 1401 00a9 21060000 		.4byte	.LASF14
 1402 00ad 0A       		.byte	0xa
 1403 00ae 69       		.byte	0x69
 1404 00af 19       		.byte	0x19
 1405 00b0 B4000000 		.4byte	0xb4
 1406 00b4 07       		.uleb128 0x7
 1407 00b5 08       		.byte	0x8
 1408 00b6 07       		.byte	0x7
 1409 00b7 F2000000 		.4byte	.LASF15
 1410 00bb 02       		.uleb128 0x2
 1411 00bc C1080000 		.4byte	.LASF16
 1412 00c0 0B       		.byte	0xb
 1413 00c1 18       		.byte	0x18
 1414 00c2 13       		.byte	0x13
 1415 00c3 55000000 		.4byte	0x55
 1416 00c7 0A       		.uleb128 0xa
 1417 00c8 BB000000 		.4byte	0xbb
 1418 00cc 02       		.uleb128 0x2
 1419 00cd 59020000 		.4byte	.LASF17
 1420 00d1 0B       		.byte	0xb
 1421 00d2 24       		.byte	0x24
 1422 00d3 14       		.byte	0x14
 1423 00d4 6F000000 		.4byte	0x6f
 1424 00d8 02       		.uleb128 0x2
 1425 00d9 80060000 		.4byte	.LASF18
 1426 00dd 0B       		.byte	0xb
 1427 00de 2C       		.byte	0x2c
 1428 00df 13       		.byte	0x13
 1429 00e0 82000000 		.4byte	0x82
 1430 00e4 02       		.uleb128 0x2
 1431 00e5 60070000 		.4byte	.LASF19
 1432 00e9 0B       		.byte	0xb
 1433 00ea 30       		.byte	0x30
 1434 00eb 14       		.byte	0x14
 1435 00ec 95000000 		.4byte	0x95
 1436 00f0 02       		.uleb128 0x2
 1437 00f1 97050000 		.4byte	.LASF20
ARM GAS  C:\Users\DEVELO~1\AppData\Local\Temp\cc3dswDP.s 			page 27


 1438 00f5 0B       		.byte	0xb
 1439 00f6 3C       		.byte	0x3c
 1440 00f7 14       		.byte	0x14
 1441 00f8 A8000000 		.4byte	0xa8
 1442 00fc 1B       		.uleb128 0x1b
 1443 00fd F0000000 		.4byte	0xf0
 1444 0101 02       		.uleb128 0x2
 1445 0102 70070000 		.4byte	.LASF21
 1446 0106 0C       		.byte	0xc
 1447 0107 48       		.byte	0x48
 1448 0108 1D       		.byte	0x1d
 1449 0109 F0000000 		.4byte	0xf0
 1450 010d 02       		.uleb128 0x2
 1451 010e A6040000 		.4byte	.LASF22
 1452 0112 0D       		.byte	0xd
 1453 0113 50       		.byte	0x50
 1454 0114 19       		.byte	0x19
 1455 0115 01010000 		.4byte	0x101
 1456 0119 02       		.uleb128 0x2
 1457 011a 3A040000 		.4byte	.LASF23
 1458 011e 0D       		.byte	0xd
 1459 011f 53       		.byte	0x53
 1460 0120 19       		.byte	0x19
 1461 0121 BB000000 		.4byte	0xbb
 1462 0125 02       		.uleb128 0x2
 1463 0126 10020000 		.4byte	.LASF24
 1464 012a 0D       		.byte	0xd
 1465 012b 54       		.byte	0x54
 1466 012c 19       		.byte	0x19
 1467 012d BB000000 		.4byte	0xbb
 1468 0131 02       		.uleb128 0x2
 1469 0132 41060000 		.4byte	.LASF25
 1470 0136 0D       		.byte	0xd
 1471 0137 55       		.byte	0x55
 1472 0138 19       		.byte	0x19
 1473 0139 BB000000 		.4byte	0xbb
 1474 013d 02       		.uleb128 0x2
 1475 013e 5B060000 		.4byte	.LASF26
 1476 0142 0D       		.byte	0xd
 1477 0143 57       		.byte	0x57
 1478 0144 19       		.byte	0x19
 1479 0145 E4000000 		.4byte	0xe4
 1480 0149 02       		.uleb128 0x2
 1481 014a 16040000 		.4byte	.LASF27
 1482 014e 0D       		.byte	0xd
 1483 014f 58       		.byte	0x58
 1484 0150 19       		.byte	0x19
 1485 0151 D8000000 		.4byte	0xd8
 1486 0155 02       		.uleb128 0x2
 1487 0156 60040000 		.4byte	.LASF28
 1488 015a 0D       		.byte	0xd
 1489 015b 5A       		.byte	0x5a
 1490 015c 19       		.byte	0x19
 1491 015d E4000000 		.4byte	0xe4
 1492 0161 02       		.uleb128 0x2
 1493 0162 F4020000 		.4byte	.LASF29
 1494 0166 0D       		.byte	0xd
ARM GAS  C:\Users\DEVELO~1\AppData\Local\Temp\cc3dswDP.s 			page 28


 1495 0167 5C       		.byte	0x5c
 1496 0168 19       		.byte	0x19
 1497 0169 D8000000 		.4byte	0xd8
 1498 016d 02       		.uleb128 0x2
 1499 016e 37060000 		.4byte	.LASF30
 1500 0172 0D       		.byte	0xd
 1501 0173 80       		.byte	0x80
 1502 0174 12       		.byte	0x12
 1503 0175 39000000 		.4byte	0x39
 1504 0179 02       		.uleb128 0x2
 1505 017a CF070000 		.4byte	.LASF31
 1506 017e 0D       		.byte	0xd
 1507 017f 85       		.byte	0x85
 1508 0180 1A       		.byte	0x1a
 1509 0181 85010000 		.4byte	0x185
 1510 0185 08       		.uleb128 0x8
 1511 0186 FC030000 		.4byte	.LASF46
 1512 018a 48       		.byte	0x48
 1513 018b 0E       		.byte	0xe
 1514 018c 9C       		.byte	0x9c
 1515 018d 08       		.byte	0x8
 1516 018e 62020000 		.4byte	0x262
 1517 0192 06       		.uleb128 0x6
 1518 0193 68647200 		.ascii	"hdr\000"
 1519 0197 0E       		.byte	0xe
 1520 0198 AD       		.byte	0xad
 1521 0199 05       		.byte	0x5
 1522 019a 29070000 		.4byte	0x729
 1523 019e 00       		.byte	0
 1524 019f 06       		.uleb128 0x6
 1525 01a0 63747800 		.ascii	"ctx\000"
 1526 01a4 0E       		.byte	0xe
 1527 01a5 B1       		.byte	0xb1
 1528 01a6 21       		.byte	0x21
 1529 01a7 94060000 		.4byte	0x694
 1530 01ab 0C       		.byte	0xc
 1531 01ac 01       		.uleb128 0x1
 1532 01ad 4B030000 		.4byte	.LASF32
 1533 01b1 0E       		.byte	0xe
 1534 01b2 B6       		.byte	0xb6
 1535 01b3 21       		.byte	0x21
 1536 01b4 B4030000 		.4byte	0x3b4
 1537 01b8 10       		.byte	0x10
 1538 01b9 01       		.uleb128 0x1
 1539 01ba 80070000 		.4byte	.LASF33
 1540 01be 0E       		.byte	0xe
 1541 01bf BB       		.byte	0xbb
 1542 01c0 22       		.byte	0x22
 1543 01c1 2B080000 		.4byte	0x82b
 1544 01c5 18       		.byte	0x18
 1545 01c6 01       		.uleb128 0x1
 1546 01c7 C6030000 		.4byte	.LASF34
 1547 01cb 0E       		.byte	0xe
 1548 01cc C0       		.byte	0xc0
 1549 01cd 22       		.byte	0x22
 1550 01ce 42030000 		.4byte	0x342
 1551 01d2 1C       		.byte	0x1c
ARM GAS  C:\Users\DEVELO~1\AppData\Local\Temp\cc3dswDP.s 			page 29


 1552 01d3 01       		.uleb128 0x1
 1553 01d4 99070000 		.4byte	.LASF35
 1554 01d8 0E       		.byte	0xe
 1555 01d9 C9       		.byte	0xc9
 1556 01da 22       		.byte	0x22
 1557 01db 30080000 		.4byte	0x830
 1558 01df 20       		.byte	0x20
 1559 01e0 01       		.uleb128 0x1
 1560 01e1 D5010000 		.4byte	.LASF36
 1561 01e5 0E       		.byte	0xe
 1562 01e6 CE       		.byte	0xce
 1563 01e7 21       		.byte	0x21
 1564 01e8 25010000 		.4byte	0x125
 1565 01ec 24       		.byte	0x24
 1566 01ed 01       		.uleb128 0x1
 1567 01ee C9080000 		.4byte	.LASF37
 1568 01f2 0E       		.byte	0xe
 1569 01f3 D2       		.byte	0xd2
 1570 01f4 21       		.byte	0x21
 1571 01f5 19010000 		.4byte	0x119
 1572 01f9 25       		.byte	0x25
 1573 01fa 01       		.uleb128 0x1
 1574 01fb 49060000 		.4byte	.LASF38
 1575 01ff 0E       		.byte	0xe
 1576 0200 D7       		.byte	0xd7
 1577 0201 21       		.byte	0x21
 1578 0202 31010000 		.4byte	0x131
 1579 0206 26       		.byte	0x26
 1580 0207 09       		.uleb128 0x9
 1581 0208 7500     		.ascii	"u\000"
 1582 020a 0E       		.byte	0xe
 1583 020b 2801     		.2byte	0x128
 1584 020d 21       		.byte	0x21
 1585 020e 56070000 		.4byte	0x756
 1586 0212 28       		.byte	0x28
 1587 0213 05       		.uleb128 0x5
 1588 0214 A6020000 		.4byte	.LASF39
 1589 0218 2D01     		.2byte	0x12d
 1590 021a 21       		.byte	0x21
 1591 021b 88030000 		.4byte	0x388
 1592 021f 2C       		.byte	0x2c
 1593 0220 05       		.uleb128 0x5
 1594 0221 9D040000 		.4byte	.LASF40
 1595 0225 3301     		.2byte	0x133
 1596 0227 21       		.byte	0x21
 1597 0228 B4030000 		.4byte	0x3b4
 1598 022c 30       		.byte	0x30
 1599 022d 05       		.uleb128 0x5
 1600 022e 1C040000 		.4byte	.LASF41
 1601 0232 3901     		.2byte	0x139
 1602 0234 21       		.byte	0x21
 1603 0235 55010000 		.4byte	0x155
 1604 0239 38       		.byte	0x38
 1605 023a 05       		.uleb128 0x5
 1606 023b 26090000 		.4byte	.LASF42
 1607 023f 4001     		.2byte	0x140
 1608 0241 22       		.byte	0x22
ARM GAS  C:\Users\DEVELO~1\AppData\Local\Temp\cc3dswDP.s 			page 30


 1609 0242 26080000 		.4byte	0x826
 1610 0246 3C       		.byte	0x3c
 1611 0247 05       		.uleb128 0x5
 1612 0248 E6040000 		.4byte	.LASF43
 1613 024c 4401     		.2byte	0x144
 1614 024e 21       		.byte	0x21
 1615 024f 3D010000 		.4byte	0x13d
 1616 0253 40       		.byte	0x40
 1617 0254 05       		.uleb128 0x5
 1618 0255 7E080000 		.4byte	.LASF44
 1619 0259 4B01     		.2byte	0x14b
 1620 025b 22       		.byte	0x22
 1621 025c A2040000 		.4byte	0x4a2
 1622 0260 44       		.byte	0x44
 1623 0261 00       		.byte	0
 1624 0262 02       		.uleb128 0x2
 1625 0263 23080000 		.4byte	.LASF45
 1626 0267 0D       		.byte	0xd
 1627 0268 8A       		.byte	0x8a
 1628 0269 1F       		.byte	0x1f
 1629 026a 6E020000 		.4byte	0x26e
 1630 026e 25       		.uleb128 0x25
 1631 026f 14080000 		.4byte	.LASF47
 1632 0273 9008     		.2byte	0x890
 1633 0275 0E       		.byte	0xe
 1634 0276 8A01     		.2byte	0x18a
 1635 0278 08       		.byte	0x8
 1636 0279 F4020000 		.4byte	0x2f4
 1637 027d 05       		.uleb128 0x5
 1638 027e AD080000 		.4byte	.LASF48
 1639 0282 8E01     		.2byte	0x18e
 1640 0284 21       		.byte	0x21
 1641 0285 5E080000 		.4byte	0x85e
 1642 0289 00       		.byte	0
 1643 028a 05       		.uleb128 0x5
 1644 028b 5B000000 		.4byte	.LASF49
 1645 028f 9201     		.2byte	0x192
 1646 0291 21       		.byte	0x21
 1647 0292 EA060000 		.4byte	0x6ea
 1648 0296 10       		.byte	0x10
 1649 0297 05       		.uleb128 0x5
 1650 0298 31080000 		.4byte	.LASF50
 1651 029c 9901     		.2byte	0x199
 1652 029e 21       		.byte	0x21
 1653 029f 11070000 		.4byte	0x711
 1654 02a3 28       		.byte	0x28
 1655 02a4 05       		.uleb128 0x5
 1656 02a5 EC020000 		.4byte	.LASF51
 1657 02a9 9E01     		.2byte	0x19e
 1658 02ab 21       		.byte	0x21
 1659 02ac 6D010000 		.4byte	0x16d
 1660 02b0 30       		.byte	0x30
 1661 02b1 05       		.uleb128 0x5
 1662 02b2 23000000 		.4byte	.LASF52
 1663 02b6 A401     		.2byte	0x1a4
 1664 02b8 21       		.byte	0x21
 1665 02b9 1B030000 		.4byte	0x31b
ARM GAS  C:\Users\DEVELO~1\AppData\Local\Temp\cc3dswDP.s 			page 31


 1666 02bd 34       		.byte	0x34
 1667 02be 05       		.uleb128 0x5
 1668 02bf A5070000 		.4byte	.LASF53
 1669 02c3 A901     		.2byte	0x1a9
 1670 02c5 22       		.byte	0x22
 1671 02c6 C9080000 		.4byte	0x8c9
 1672 02ca 38       		.byte	0x38
 1673 02cb 05       		.uleb128 0x5
 1674 02cc 8C000000 		.4byte	.LASF54
 1675 02d0 AD01     		.2byte	0x1ad
 1676 02d2 21       		.byte	0x21
 1677 02d3 79010000 		.4byte	0x179
 1678 02d7 3C       		.byte	0x3c
 1679 02d8 09       		.uleb128 0x9
 1680 02d9 64626700 		.ascii	"dbg\000"
 1681 02dd 0E       		.byte	0xe
 1682 02de B101     		.2byte	0x1b1
 1683 02e0 21       		.byte	0x21
 1684 02e1 58030000 		.4byte	0x358
 1685 02e5 84       		.byte	0x84
 1686 02e6 05       		.uleb128 0x5
 1687 02e7 19020000 		.4byte	.LASF55
 1688 02eb B601     		.2byte	0x1b6
 1689 02ed 21       		.byte	0x21
 1690 02ee 02060000 		.4byte	0x602
 1691 02f2 88       		.byte	0x88
 1692 02f3 00       		.byte	0
 1693 02f4 02       		.uleb128 0x2
 1694 02f5 EF040000 		.4byte	.LASF56
 1695 02f9 0F       		.byte	0xf
 1696 02fa 3F       		.byte	0x3f
 1697 02fb 12       		.byte	0x12
 1698 02fc E4000000 		.4byte	0xe4
 1699 0300 08       		.uleb128 0x8
 1700 0301 26020000 		.4byte	.LASF57
 1701 0305 04       		.byte	0x4
 1702 0306 0F       		.byte	0xf
 1703 0307 44       		.byte	0x44
 1704 0308 10       		.byte	0x10
 1705 0309 1B030000 		.4byte	0x31b
 1706 030d 01       		.uleb128 0x1
 1707 030e 96020000 		.4byte	.LASF58
 1708 0312 0F       		.byte	0xf
 1709 0313 48       		.byte	0x48
 1710 0314 21       		.byte	0x21
 1711 0315 F4020000 		.4byte	0x2f4
 1712 0319 00       		.byte	0
 1713 031a 00       		.byte	0
 1714 031b 02       		.uleb128 0x2
 1715 031c 80040000 		.4byte	.LASF59
 1716 0320 0F       		.byte	0xf
 1717 0321 49       		.byte	0x49
 1718 0322 03       		.byte	0x3
 1719 0323 00030000 		.4byte	0x300
 1720 0327 08       		.uleb128 0x8
 1721 0328 6A060000 		.4byte	.LASF60
 1722 032c 04       		.byte	0x4
ARM GAS  C:\Users\DEVELO~1\AppData\Local\Temp\cc3dswDP.s 			page 32


 1723 032d 10       		.byte	0x10
 1724 032e 3E       		.byte	0x3e
 1725 032f 10       		.byte	0x10
 1726 0330 42030000 		.4byte	0x342
 1727 0334 01       		.uleb128 0x1
 1728 0335 03080000 		.4byte	.LASF61
 1729 0339 10       		.byte	0x10
 1730 033a 46       		.byte	0x46
 1731 033b 24       		.byte	0x24
 1732 033c 47030000 		.4byte	0x347
 1733 0340 00       		.byte	0
 1734 0341 00       		.byte	0
 1735 0342 03       		.uleb128 0x3
 1736 0343 53030000 		.4byte	0x353
 1737 0347 1B       		.uleb128 0x1b
 1738 0348 42030000 		.4byte	0x342
 1739 034c 07       		.uleb128 0x7
 1740 034d 01       		.byte	0x1
 1741 034e 08       		.byte	0x8
 1742 034f A0070000 		.4byte	.LASF62
 1743 0353 0A       		.uleb128 0xa
 1744 0354 4C030000 		.4byte	0x34c
 1745 0358 02       		.uleb128 0x2
 1746 0359 36030000 		.4byte	.LASF63
 1747 035d 10       		.byte	0x10
 1748 035e 51       		.byte	0x51
 1749 035f 03       		.byte	0x3
 1750 0360 27030000 		.4byte	0x327
 1751 0364 02       		.uleb128 0x2
 1752 0365 DE070000 		.4byte	.LASF64
 1753 0369 01       		.byte	0x1
 1754 036a 6D       		.byte	0x6d
 1755 036b 12       		.byte	0x12
 1756 036c E4000000 		.4byte	0xe4
 1757 0370 02       		.uleb128 0x2
 1758 0371 2E020000 		.4byte	.LASF65
 1759 0375 01       		.byte	0x1
 1760 0376 79       		.byte	0x79
 1761 0377 12       		.byte	0x12
 1762 0378 E4000000 		.4byte	0xe4
 1763 037c 02       		.uleb128 0x2
 1764 037d BA030000 		.4byte	.LASF66
 1765 0381 01       		.byte	0x1
 1766 0382 9B       		.byte	0x9b
 1767 0383 12       		.byte	0x12
 1768 0384 F0000000 		.4byte	0xf0
 1769 0388 02       		.uleb128 0x2
 1770 0389 42050000 		.4byte	.LASF67
 1771 038d 11       		.byte	0x11
 1772 038e 32       		.byte	0x32
 1773 038f 18       		.byte	0x18
 1774 0390 94030000 		.4byte	0x394
 1775 0394 08       		.uleb128 0x8
 1776 0395 4A040000 		.4byte	.LASF68
 1777 0399 04       		.byte	0x4
 1778 039a 11       		.byte	0x11
 1779 039b 38       		.byte	0x38
ARM GAS  C:\Users\DEVELO~1\AppData\Local\Temp\cc3dswDP.s 			page 33


 1780 039c 08       		.byte	0x8
 1781 039d AF030000 		.4byte	0x3af
 1782 03a1 01       		.uleb128 0x1
 1783 03a2 A5000000 		.4byte	.LASF69
 1784 03a6 11       		.byte	0x11
 1785 03a7 39       		.byte	0x39
 1786 03a8 1A       		.byte	0x1a
 1787 03a9 AF030000 		.4byte	0x3af
 1788 03ad 00       		.byte	0
 1789 03ae 00       		.byte	0
 1790 03af 03       		.uleb128 0x3
 1791 03b0 88030000 		.4byte	0x388
 1792 03b4 02       		.uleb128 0x2
 1793 03b5 9B020000 		.4byte	.LASF70
 1794 03b9 11       		.byte	0x11
 1795 03ba 3F       		.byte	0x3f
 1796 03bb 19       		.byte	0x19
 1797 03bc C0030000 		.4byte	0x3c0
 1798 03c0 08       		.uleb128 0x8
 1799 03c1 48020000 		.4byte	.LASF71
 1800 03c5 08       		.byte	0x8
 1801 03c6 11       		.byte	0x11
 1802 03c7 45       		.byte	0x45
 1803 03c8 08       		.byte	0x8
 1804 03c9 E8030000 		.4byte	0x3e8
 1805 03cd 01       		.uleb128 0x1
 1806 03ce A5000000 		.4byte	.LASF69
 1807 03d2 11       		.byte	0x11
 1808 03d3 46       		.byte	0x46
 1809 03d4 1A       		.byte	0x1a
 1810 03d5 E8030000 		.4byte	0x3e8
 1811 03d9 00       		.byte	0
 1812 03da 01       		.uleb128 0x1
 1813 03db 4A000000 		.4byte	.LASF72
 1814 03df 11       		.byte	0x11
 1815 03e0 47       		.byte	0x47
 1816 03e1 1A       		.byte	0x1a
 1817 03e2 E8030000 		.4byte	0x3e8
 1818 03e6 04       		.byte	0x4
 1819 03e7 00       		.byte	0
 1820 03e8 03       		.uleb128 0x3
 1821 03e9 B4030000 		.4byte	0x3b4
 1822 03ed 02       		.uleb128 0x2
 1823 03ee EF070000 		.4byte	.LASF73
 1824 03f2 11       		.byte	0x11
 1825 03f3 4E       		.byte	0x4e
 1826 03f4 22       		.byte	0x22
 1827 03f5 F9030000 		.4byte	0x3f9
 1828 03f9 08       		.uleb128 0x8
 1829 03fa 39080000 		.4byte	.LASF74
 1830 03fe 0C       		.byte	0xc
 1831 03ff 11       		.byte	0x11
 1832 0400 55       		.byte	0x55
 1833 0401 08       		.byte	0x8
 1834 0402 2E040000 		.4byte	0x42e
 1835 0406 01       		.uleb128 0x1
 1836 0407 A5000000 		.4byte	.LASF69
ARM GAS  C:\Users\DEVELO~1\AppData\Local\Temp\cc3dswDP.s 			page 34


 1837 040b 11       		.byte	0x11
 1838 040c 56       		.byte	0x56
 1839 040d 1A       		.byte	0x1a
 1840 040e 2E040000 		.4byte	0x42e
 1841 0412 00       		.byte	0
 1842 0413 01       		.uleb128 0x1
 1843 0414 4A000000 		.4byte	.LASF72
 1844 0418 11       		.byte	0x11
 1845 0419 57       		.byte	0x57
 1846 041a 1A       		.byte	0x1a
 1847 041b 2E040000 		.4byte	0x42e
 1848 041f 04       		.byte	0x4
 1849 0420 01       		.uleb128 0x1
 1850 0421 F2050000 		.4byte	.LASF75
 1851 0425 11       		.byte	0x11
 1852 0426 58       		.byte	0x58
 1853 0427 19       		.byte	0x19
 1854 0428 3D010000 		.4byte	0x13d
 1855 042c 08       		.byte	0x8
 1856 042d 00       		.byte	0
 1857 042e 03       		.uleb128 0x3
 1858 042f ED030000 		.4byte	0x3ed
 1859 0433 02       		.uleb128 0x2
 1860 0434 5F080000 		.4byte	.LASF76
 1861 0438 11       		.byte	0x11
 1862 0439 5F       		.byte	0x5f
 1863 043a 1E       		.byte	0x1e
 1864 043b 3F040000 		.4byte	0x43f
 1865 043f 08       		.uleb128 0x8
 1866 0440 E4000000 		.4byte	.LASF77
 1867 0444 0C       		.byte	0xc
 1868 0445 11       		.byte	0x11
 1869 0446 64       		.byte	0x64
 1870 0447 08       		.byte	0x8
 1871 0448 74040000 		.4byte	0x474
 1872 044c 01       		.uleb128 0x1
 1873 044d A5000000 		.4byte	.LASF69
 1874 0451 11       		.byte	0x11
 1875 0452 65       		.byte	0x65
 1876 0453 1A       		.byte	0x1a
 1877 0454 74040000 		.4byte	0x474
 1878 0458 00       		.byte	0
 1879 0459 01       		.uleb128 0x1
 1880 045a 4A000000 		.4byte	.LASF72
 1881 045e 11       		.byte	0x11
 1882 045f 66       		.byte	0x66
 1883 0460 1A       		.byte	0x1a
 1884 0461 74040000 		.4byte	0x474
 1885 0465 04       		.byte	0x4
 1886 0466 01       		.uleb128 0x1
 1887 0467 9F000000 		.4byte	.LASF78
 1888 046b 11       		.byte	0x11
 1889 046c 67       		.byte	0x67
 1890 046d 19       		.byte	0x19
 1891 046e 70030000 		.4byte	0x370
 1892 0472 08       		.byte	0x8
 1893 0473 00       		.byte	0
ARM GAS  C:\Users\DEVELO~1\AppData\Local\Temp\cc3dswDP.s 			page 35


 1894 0474 03       		.uleb128 0x3
 1895 0475 33040000 		.4byte	0x433
 1896 0479 0B       		.uleb128 0xb
 1897 047a 08       		.byte	0x8
 1898 047b 12       		.byte	0x12
 1899 047c 83       		.byte	0x83
 1900 047d 05       		.byte	0x5
 1901 047e 9D040000 		.4byte	0x49d
 1902 0482 06       		.uleb128 0x6
 1903 0483 6E747000 		.ascii	"ntp\000"
 1904 0487 12       		.byte	0x12
 1905 0488 87       		.byte	0x87
 1906 0489 1E       		.byte	0x1e
 1907 048a 9D040000 		.4byte	0x49d
 1908 048e 00       		.byte	0
 1909 048f 01       		.uleb128 0x1
 1910 0490 F5060000 		.4byte	.LASF79
 1911 0494 12       		.byte	0x12
 1912 0495 8B       		.byte	0x8b
 1913 0496 1E       		.byte	0x1e
 1914 0497 A2040000 		.4byte	0x4a2
 1915 049b 04       		.byte	0x4
 1916 049c 00       		.byte	0
 1917 049d 03       		.uleb128 0x3
 1918 049e 79010000 		.4byte	0x179
 1919 04a2 26       		.uleb128 0x26
 1920 04a3 04       		.byte	0x4
 1921 04a4 0A       		.uleb128 0xa
 1922 04a5 A2040000 		.4byte	0x4a2
 1923 04a9 0B       		.uleb128 0xb
 1924 04aa 08       		.byte	0x8
 1925 04ab 12       		.byte	0x12
 1926 04ac 90       		.byte	0x90
 1927 04ad 05       		.byte	0x5
 1928 04ae CC040000 		.4byte	0x4cc
 1929 04b2 06       		.uleb128 0x6
 1930 04b3 747000   		.ascii	"tp\000"
 1931 04b6 12       		.byte	0x12
 1932 04b7 94       		.byte	0x94
 1933 04b8 1E       		.byte	0x1e
 1934 04b9 9D040000 		.4byte	0x49d
 1935 04bd 00       		.byte	0
 1936 04be 06       		.uleb128 0x6
 1937 04bf 6D736700 		.ascii	"msg\000"
 1938 04c3 12       		.byte	0x12
 1939 04c4 98       		.byte	0x98
 1940 04c5 1D       		.byte	0x1d
 1941 04c6 49010000 		.4byte	0x149
 1942 04ca 04       		.byte	0x4
 1943 04cb 00       		.byte	0
 1944 04cc 0B       		.uleb128 0xb
 1945 04cd 04       		.byte	0x4
 1946 04ce 12       		.byte	0x12
 1947 04cf 9D       		.byte	0x9d
 1948 04d0 05       		.byte	0x5
 1949 04d1 E3040000 		.4byte	0x4e3
 1950 04d5 01       		.uleb128 0x1
ARM GAS  C:\Users\DEVELO~1\AppData\Local\Temp\cc3dswDP.s 			page 36


 1951 04d6 C6030000 		.4byte	.LASF34
 1952 04da 12       		.byte	0x12
 1953 04db A1       		.byte	0xa1
 1954 04dc 1E       		.byte	0x1e
 1955 04dd 42030000 		.4byte	0x342
 1956 04e1 00       		.byte	0
 1957 04e2 00       		.byte	0
 1958 04e3 0B       		.uleb128 0xb
 1959 04e4 04       		.byte	0x4
 1960 04e5 12       		.byte	0x12
 1961 04e6 A6       		.byte	0xa6
 1962 04e7 05       		.byte	0x5
 1963 04e8 FA040000 		.4byte	0x4fa
 1964 04ec 01       		.uleb128 0x1
 1965 04ed 23070000 		.4byte	.LASF80
 1966 04f1 12       		.byte	0x12
 1967 04f2 AA       		.byte	0xaa
 1968 04f3 1E       		.byte	0x1e
 1969 04f4 42030000 		.4byte	0x342
 1970 04f8 00       		.byte	0
 1971 04f9 00       		.byte	0
 1972 04fa 0B       		.uleb128 0xb
 1973 04fb 08       		.byte	0x8
 1974 04fc 12       		.byte	0x12
 1975 04fd AF       		.byte	0xaf
 1976 04fe 05       		.byte	0x5
 1977 04ff 1E050000 		.4byte	0x51e
 1978 0503 06       		.uleb128 0x6
 1979 0504 75703100 		.ascii	"up1\000"
 1980 0508 12       		.byte	0x12
 1981 0509 B3       		.byte	0xb3
 1982 050a 1E       		.byte	0x1e
 1983 050b A2040000 		.4byte	0x4a2
 1984 050f 00       		.byte	0
 1985 0510 06       		.uleb128 0x6
 1986 0511 75703200 		.ascii	"up2\000"
 1987 0515 12       		.byte	0x12
 1988 0516 B7       		.byte	0xb7
 1989 0517 1E       		.byte	0x1e
 1990 0518 A2040000 		.4byte	0x4a2
 1991 051c 04       		.byte	0x4
 1992 051d 00       		.byte	0
 1993 051e 15       		.uleb128 0x15
 1994 051f 08       		.byte	0x8
 1995 0520 12       		.byte	0x12
 1996 0521 7F       		.byte	0x7f
 1997 0522 5C050000 		.4byte	0x55c
 1998 0526 16       		.uleb128 0x16
 1999 0527 737700   		.ascii	"sw\000"
 2000 052a 8C       		.byte	0x8c
 2001 052b 79040000 		.4byte	0x479
 2002 052f 16       		.uleb128 0x16
 2003 0530 72647900 		.ascii	"rdy\000"
 2004 0534 99       		.byte	0x99
 2005 0535 A9040000 		.4byte	0x4a9
 2006 0539 16       		.uleb128 0x16
 2007 053a 69737200 		.ascii	"isr\000"
ARM GAS  C:\Users\DEVELO~1\AppData\Local\Temp\cc3dswDP.s 			page 37


 2008 053e A2       		.byte	0xa2
 2009 053f CC040000 		.4byte	0x4cc
 2010 0543 0C       		.uleb128 0xc
 2011 0544 7E000000 		.4byte	.LASF81
 2012 0548 12       		.byte	0x12
 2013 0549 AB       		.byte	0xab
 2014 054a 07       		.byte	0x7
 2015 054b E3040000 		.4byte	0x4e3
 2016 054f 0C       		.uleb128 0xc
 2017 0550 4E060000 		.4byte	.LASF82
 2018 0554 12       		.byte	0x12
 2019 0555 B8       		.byte	0xb8
 2020 0556 07       		.byte	0x7
 2021 0557 FA040000 		.4byte	0x4fa
 2022 055b 00       		.byte	0
 2023 055c 0B       		.uleb128 0xb
 2024 055d 10       		.byte	0x10
 2025 055e 12       		.byte	0x12
 2026 055f 6C       		.byte	0x6c
 2027 0560 09       		.byte	0x9
 2028 0561 A2050000 		.4byte	0x5a2
 2029 0565 17       		.uleb128 0x17
 2030 0566 62000000 		.4byte	.LASF83
 2031 056a 70       		.byte	0x70
 2032 056b E4000000 		.4byte	0xe4
 2033 056f 03       		.byte	0x3
 2034 0570 00       		.byte	0
 2035 0571 17       		.uleb128 0x17
 2036 0572 D5010000 		.4byte	.LASF36
 2037 0576 74       		.byte	0x74
 2038 0577 E4000000 		.4byte	0xe4
 2039 057b 05       		.byte	0x5
 2040 057c 03       		.byte	0x3
 2041 057d 17       		.uleb128 0x17
 2042 057e CE040000 		.4byte	.LASF84
 2043 0582 7A       		.byte	0x7a
 2044 0583 E4000000 		.4byte	0xe4
 2045 0587 18       		.byte	0x18
 2046 0588 08       		.byte	0x8
 2047 0589 01       		.uleb128 0x1
 2048 058a ED050000 		.4byte	.LASF85
 2049 058e 12       		.byte	0x12
 2050 058f 7E       		.byte	0x7e
 2051 0590 19       		.byte	0x19
 2052 0591 64030000 		.4byte	0x364
 2053 0595 04       		.byte	0x4
 2054 0596 06       		.uleb128 0x6
 2055 0597 7500     		.ascii	"u\000"
 2056 0599 12       		.byte	0x12
 2057 059a B9       		.byte	0xb9
 2058 059b 05       		.byte	0x5
 2059 059c 1E050000 		.4byte	0x51e
 2060 05a0 08       		.byte	0x8
 2061 05a1 00       		.byte	0
 2062 05a2 02       		.uleb128 0x2
 2063 05a3 70000000 		.4byte	.LASF86
 2064 05a7 12       		.byte	0x12
ARM GAS  C:\Users\DEVELO~1\AppData\Local\Temp\cc3dswDP.s 			page 38


 2065 05a8 BA       		.byte	0xba
 2066 05a9 03       		.byte	0x3
 2067 05aa 5C050000 		.4byte	0x55c
 2068 05ae 27       		.uleb128 0x27
 2069 05af 0808     		.2byte	0x808
 2070 05b1 12       		.byte	0x12
 2071 05b2 C0       		.byte	0xc0
 2072 05b3 09       		.byte	0x9
 2073 05b4 ED050000 		.4byte	0x5ed
 2074 05b8 01       		.uleb128 0x1
 2075 05b9 4C050000 		.4byte	.LASF87
 2076 05bd 12       		.byte	0x12
 2077 05be C4       		.byte	0xc4
 2078 05bf 19       		.byte	0x19
 2079 05c0 CC000000 		.4byte	0xcc
 2080 05c4 00       		.byte	0
 2081 05c5 01       		.uleb128 0x1
 2082 05c6 D1030000 		.4byte	.LASF88
 2083 05ca 12       		.byte	0x12
 2084 05cb C8       		.byte	0xc8
 2085 05cc 19       		.byte	0x19
 2086 05cd CC000000 		.4byte	0xcc
 2087 05d1 02       		.byte	0x2
 2088 05d2 06       		.uleb128 0x6
 2089 05d3 70747200 		.ascii	"ptr\000"
 2090 05d7 12       		.byte	0x12
 2091 05d8 CC       		.byte	0xcc
 2092 05d9 1A       		.byte	0x1a
 2093 05da ED050000 		.4byte	0x5ed
 2094 05de 04       		.byte	0x4
 2095 05df 01       		.uleb128 0x1
 2096 05e0 E8070000 		.4byte	.LASF89
 2097 05e4 12       		.byte	0x12
 2098 05e5 D0       		.byte	0xd0
 2099 05e6 19       		.byte	0x19
 2100 05e7 F2050000 		.4byte	0x5f2
 2101 05eb 08       		.byte	0x8
 2102 05ec 00       		.byte	0
 2103 05ed 03       		.uleb128 0x3
 2104 05ee A2050000 		.4byte	0x5a2
 2105 05f2 0D       		.uleb128 0xd
 2106 05f3 A2050000 		.4byte	0x5a2
 2107 05f7 02060000 		.4byte	0x602
 2108 05fb 0E       		.uleb128 0xe
 2109 05fc 39000000 		.4byte	0x39
 2110 0600 7F       		.byte	0x7f
 2111 0601 00       		.byte	0
 2112 0602 02       		.uleb128 0x2
 2113 0603 62020000 		.4byte	.LASF90
 2114 0607 12       		.byte	0x12
 2115 0608 D1       		.byte	0xd1
 2116 0609 03       		.byte	0x3
 2117 060a AE050000 		.4byte	0x5ae
 2118 060e 12       		.uleb128 0x12
 2119 060f 4F000000 		.4byte	.LASF91
 2120 0613 24       		.byte	0x24
 2121 0614 05       		.byte	0x5
ARM GAS  C:\Users\DEVELO~1\AppData\Local\Temp\cc3dswDP.s 			page 39


 2122 0615 E001     		.2byte	0x1e0
 2123 0617 08       		.byte	0x8
 2124 0618 94060000 		.4byte	0x694
 2125 061c 09       		.uleb128 0x9
 2126 061d 723400   		.ascii	"r4\000"
 2127 0620 05       		.byte	0x5
 2128 0621 F901     		.2byte	0x1f9
 2129 0623 11       		.byte	0x11
 2130 0624 E4000000 		.4byte	0xe4
 2131 0628 00       		.byte	0
 2132 0629 09       		.uleb128 0x9
 2133 062a 723500   		.ascii	"r5\000"
 2134 062d 05       		.byte	0x5
 2135 062e FA01     		.2byte	0x1fa
 2136 0630 11       		.byte	0x11
 2137 0631 E4000000 		.4byte	0xe4
 2138 0635 04       		.byte	0x4
 2139 0636 09       		.uleb128 0x9
 2140 0637 723600   		.ascii	"r6\000"
 2141 063a 05       		.byte	0x5
 2142 063b FB01     		.2byte	0x1fb
 2143 063d 11       		.byte	0x11
 2144 063e E4000000 		.4byte	0xe4
 2145 0642 08       		.byte	0x8
 2146 0643 09       		.uleb128 0x9
 2147 0644 723700   		.ascii	"r7\000"
 2148 0647 05       		.byte	0x5
 2149 0648 FC01     		.2byte	0x1fc
 2150 064a 11       		.byte	0x11
 2151 064b E4000000 		.4byte	0xe4
 2152 064f 0C       		.byte	0xc
 2153 0650 09       		.uleb128 0x9
 2154 0651 723800   		.ascii	"r8\000"
 2155 0654 05       		.byte	0x5
 2156 0655 FD01     		.2byte	0x1fd
 2157 0657 11       		.byte	0x11
 2158 0658 E4000000 		.4byte	0xe4
 2159 065c 10       		.byte	0x10
 2160 065d 09       		.uleb128 0x9
 2161 065e 723900   		.ascii	"r9\000"
 2162 0661 05       		.byte	0x5
 2163 0662 FE01     		.2byte	0x1fe
 2164 0664 11       		.byte	0x11
 2165 0665 E4000000 		.4byte	0xe4
 2166 0669 14       		.byte	0x14
 2167 066a 09       		.uleb128 0x9
 2168 066b 72313000 		.ascii	"r10\000"
 2169 066f 05       		.byte	0x5
 2170 0670 FF01     		.2byte	0x1ff
 2171 0672 11       		.byte	0x11
 2172 0673 E4000000 		.4byte	0xe4
 2173 0677 18       		.byte	0x18
 2174 0678 09       		.uleb128 0x9
 2175 0679 72313100 		.ascii	"r11\000"
 2176 067d 05       		.byte	0x5
 2177 067e 0002     		.2byte	0x200
 2178 0680 11       		.byte	0x11
ARM GAS  C:\Users\DEVELO~1\AppData\Local\Temp\cc3dswDP.s 			page 40


 2179 0681 E4000000 		.4byte	0xe4
 2180 0685 1C       		.byte	0x1c
 2181 0686 09       		.uleb128 0x9
 2182 0687 6C7200   		.ascii	"lr\000"
 2183 068a 05       		.byte	0x5
 2184 068b 0102     		.2byte	0x201
 2185 068d 11       		.byte	0x11
 2186 068e E4000000 		.4byte	0xe4
 2187 0692 20       		.byte	0x20
 2188 0693 00       		.byte	0
 2189 0694 12       		.uleb128 0x12
 2190 0695 C8050000 		.4byte	.LASF92
 2191 0699 04       		.byte	0x4
 2192 069a 05       		.byte	0x5
 2193 069b 0A02     		.2byte	0x20a
 2194 069d 08       		.byte	0x8
 2195 069e B0060000 		.4byte	0x6b0
 2196 06a2 09       		.uleb128 0x9
 2197 06a3 737000   		.ascii	"sp\000"
 2198 06a6 05       		.byte	0x5
 2199 06a7 0B02     		.2byte	0x20b
 2200 06a9 1A       		.byte	0x1a
 2201 06aa B0060000 		.4byte	0x6b0
 2202 06ae 00       		.byte	0
 2203 06af 00       		.byte	0
 2204 06b0 03       		.uleb128 0x3
 2205 06b1 0E060000 		.4byte	0x60e
 2206 06b5 08       		.uleb128 0x8
 2207 06b6 1D050000 		.4byte	.LASF93
 2208 06ba 18       		.byte	0x18
 2209 06bb 0E       		.byte	0xe
 2210 06bc 64       		.byte	0x64
 2211 06bd 10       		.byte	0x10
 2212 06be EA060000 		.4byte	0x6ea
 2213 06c2 01       		.uleb128 0x1
 2214 06c3 D8070000 		.4byte	.LASF94
 2215 06c7 0E       		.byte	0xe
 2216 06c8 68       		.byte	0x68
 2217 06c9 21       		.byte	0x21
 2218 06ca 33040000 		.4byte	0x433
 2219 06ce 00       		.byte	0
 2220 06cf 01       		.uleb128 0x1
 2221 06d0 E4060000 		.4byte	.LASF95
 2222 06d4 0E       		.byte	0xe
 2223 06d5 73       		.byte	0x73
 2224 06d6 21       		.byte	0x21
 2225 06d7 64030000 		.4byte	0x364
 2226 06db 0C       		.byte	0xc
 2227 06dc 01       		.uleb128 0x1
 2228 06dd D6040000 		.4byte	.LASF96
 2229 06e1 0E       		.byte	0xe
 2230 06e2 79       		.byte	0x79
 2231 06e3 21       		.byte	0x21
 2232 06e4 FC000000 		.4byte	0xfc
 2233 06e8 10       		.byte	0x10
 2234 06e9 00       		.byte	0
 2235 06ea 02       		.uleb128 0x2
ARM GAS  C:\Users\DEVELO~1\AppData\Local\Temp\cc3dswDP.s 			page 41


 2236 06eb 87040000 		.4byte	.LASF97
 2237 06ef 0E       		.byte	0xe
 2238 06f0 7B       		.byte	0x7b
 2239 06f1 03       		.byte	0x3
 2240 06f2 B5060000 		.4byte	0x6b5
 2241 06f6 08       		.uleb128 0x8
 2242 06f7 76020000 		.4byte	.LASF98
 2243 06fb 08       		.byte	0x8
 2244 06fc 0E       		.byte	0xe
 2245 06fd 80       		.byte	0x80
 2246 06fe 10       		.byte	0x10
 2247 06ff 11070000 		.4byte	0x711
 2248 0703 01       		.uleb128 0x1
 2249 0704 CB030000 		.4byte	.LASF99
 2250 0708 0E       		.byte	0xe
 2251 0709 84       		.byte	0x84
 2252 070a 21       		.byte	0x21
 2253 070b B4030000 		.4byte	0x3b4
 2254 070f 00       		.byte	0
 2255 0710 00       		.byte	0
 2256 0711 02       		.uleb128 0x2
 2257 0712 3D070000 		.4byte	.LASF100
 2258 0716 0E       		.byte	0xe
 2259 0717 85       		.byte	0x85
 2260 0718 03       		.byte	0x3
 2261 0719 F6060000 		.4byte	0x6f6
 2262 071d 02       		.uleb128 0x2
 2263 071e 0A050000 		.4byte	.LASF101
 2264 0722 0E       		.byte	0xe
 2265 0723 8A       		.byte	0x8a
 2266 0724 14       		.byte	0x14
 2267 0725 9D040000 		.4byte	0x49d
 2268 0729 15       		.uleb128 0x15
 2269 072a 0C       		.byte	0xc
 2270 072b 0E       		.byte	0xe
 2271 072c A0       		.byte	0xa0
 2272 072d 56070000 		.4byte	0x756
 2273 0731 0C       		.uleb128 0xc
 2274 0732 08090000 		.4byte	.LASF102
 2275 0736 0E       		.byte	0xe
 2276 0737 A4       		.byte	0xa4
 2277 0738 21       		.byte	0x21
 2278 0739 88030000 		.4byte	0x388
 2279 073d 0C       		.uleb128 0xc
 2280 073e CB030000 		.4byte	.LASF99
 2281 0742 0E       		.byte	0xe
 2282 0743 A8       		.byte	0xa8
 2283 0744 21       		.byte	0x21
 2284 0745 B4030000 		.4byte	0x3b4
 2285 0749 0C       		.uleb128 0xc
 2286 074a 0D080000 		.4byte	.LASF103
 2287 074e 0E       		.byte	0xe
 2288 074f AC       		.byte	0xac
 2289 0750 21       		.byte	0x21
 2290 0751 ED030000 		.4byte	0x3ed
 2291 0755 00       		.byte	0
 2292 0756 15       		.uleb128 0x15
ARM GAS  C:\Users\DEVELO~1\AppData\Local\Temp\cc3dswDP.s 			page 42


 2293 0757 04       		.byte	0x4
 2294 0758 0E       		.byte	0xe
 2295 0759 EB       		.byte	0xeb
 2296 075a BF070000 		.4byte	0x7bf
 2297 075e 0C       		.uleb128 0xc
 2298 075f 1C000000 		.4byte	.LASF104
 2299 0763 0E       		.byte	0xe
 2300 0764 F2       		.byte	0xf2
 2301 0765 21       		.byte	0x21
 2302 0766 49010000 		.4byte	0x149
 2303 076a 0C       		.uleb128 0xc
 2304 076b 83000000 		.4byte	.LASF105
 2305 076f 0E       		.byte	0xe
 2306 0770 F9       		.byte	0xf9
 2307 0771 21       		.byte	0x21
 2308 0772 49010000 		.4byte	0x149
 2309 0776 0F       		.uleb128 0xf
 2310 0777 F5060000 		.4byte	.LASF79
 2311 077b 0001     		.2byte	0x100
 2312 077d 22       		.byte	0x22
 2313 077e A2040000 		.4byte	0x4a2
 2314 0782 0F       		.uleb128 0xf
 2315 0783 45030000 		.4byte	.LASF106
 2316 0787 0701     		.2byte	0x107
 2317 0789 22       		.byte	0x22
 2318 078a BF070000 		.4byte	0x7bf
 2319 078e 0F       		.uleb128 0xf
 2320 078f 97000000 		.4byte	.LASF107
 2321 0793 0C01     		.2byte	0x10c
 2322 0795 21       		.byte	0x21
 2323 0796 49010000 		.4byte	0x149
 2324 079a 0F       		.uleb128 0xf
 2325 079b 2F030000 		.4byte	.LASF108
 2326 079f 1501     		.2byte	0x115
 2327 07a1 22       		.byte	0x22
 2328 07a2 EC070000 		.4byte	0x7ec
 2329 07a6 0F       		.uleb128 0xf
 2330 07a7 69070000 		.4byte	.LASF109
 2331 07ab 1E01     		.2byte	0x11e
 2332 07ad 22       		.byte	0x22
 2333 07ae 26080000 		.4byte	0x826
 2334 07b2 0F       		.uleb128 0xf
 2335 07b3 FC060000 		.4byte	.LASF110
 2336 07b7 2601     		.2byte	0x126
 2337 07b9 21       		.byte	0x21
 2338 07ba 55010000 		.4byte	0x155
 2339 07be 00       		.byte	0
 2340 07bf 03       		.uleb128 0x3
 2341 07c0 1D070000 		.4byte	0x71d
 2342 07c4 08       		.uleb128 0x8
 2343 07c5 2A070000 		.4byte	.LASF111
 2344 07c9 0C       		.byte	0xc
 2345 07ca 13       		.byte	0x13
 2346 07cb 34       		.byte	0x34
 2347 07cc 10       		.byte	0x10
 2348 07cd EC070000 		.4byte	0x7ec
 2349 07d1 01       		.uleb128 0x1
ARM GAS  C:\Users\DEVELO~1\AppData\Local\Temp\cc3dswDP.s 			page 43


 2350 07d2 CB030000 		.4byte	.LASF99
 2351 07d6 13       		.byte	0x13
 2352 07d7 35       		.byte	0x35
 2353 07d8 19       		.byte	0x19
 2354 07d9 B4030000 		.4byte	0x3b4
 2355 07dd 00       		.byte	0
 2356 07de 06       		.uleb128 0x6
 2357 07df 636E7400 		.ascii	"cnt\000"
 2358 07e3 13       		.byte	0x13
 2359 07e4 37       		.byte	0x37
 2360 07e5 19       		.byte	0x19
 2361 07e6 61010000 		.4byte	0x161
 2362 07ea 08       		.byte	0x8
 2363 07eb 00       		.byte	0
 2364 07ec 03       		.uleb128 0x3
 2365 07ed C4070000 		.4byte	0x7c4
 2366 07f1 08       		.uleb128 0x8
 2367 07f2 A4080000 		.4byte	.LASF112
 2368 07f6 10       		.byte	0x10
 2369 07f7 14       		.byte	0x14
 2370 07f8 39       		.byte	0x39
 2371 07f9 08       		.byte	0x8
 2372 07fa 26080000 		.4byte	0x826
 2373 07fe 01       		.uleb128 0x1
 2374 07ff CB030000 		.4byte	.LASF99
 2375 0803 14       		.byte	0x14
 2376 0804 3A       		.byte	0x3a
 2377 0805 19       		.byte	0x19
 2378 0806 B4030000 		.4byte	0x3b4
 2379 080a 00       		.byte	0
 2380 080b 01       		.uleb128 0x1
 2381 080c 80070000 		.4byte	.LASF33
 2382 0810 14       		.byte	0x14
 2383 0811 3C       		.byte	0x3c
 2384 0812 1A       		.byte	0x1a
 2385 0813 9D040000 		.4byte	0x49d
 2386 0817 08       		.byte	0x8
 2387 0818 01       		.uleb128 0x1
 2388 0819 A5000000 		.4byte	.LASF69
 2389 081d 14       		.byte	0x14
 2390 081e 3E       		.byte	0x3e
 2391 081f 1A       		.byte	0x1a
 2392 0820 03090000 		.4byte	0x903
 2393 0824 0C       		.byte	0xc
 2394 0825 00       		.byte	0
 2395 0826 03       		.uleb128 0x3
 2396 0827 F1070000 		.4byte	0x7f1
 2397 082b 03       		.uleb128 0x3
 2398 082c 62020000 		.4byte	0x262
 2399 0830 03       		.uleb128 0x3
 2400 0831 0D010000 		.4byte	0x10d
 2401 0835 12       		.uleb128 0x12
 2402 0836 52040000 		.4byte	.LASF113
 2403 083a 10       		.byte	0x10
 2404 083b 0E       		.byte	0xe
 2405 083c 5C01     		.2byte	0x15c
 2406 083e 10       		.byte	0x10
ARM GAS  C:\Users\DEVELO~1\AppData\Local\Temp\cc3dswDP.s 			page 44


 2407 083f 5E080000 		.4byte	0x85e
 2408 0843 05       		.uleb128 0x5
 2409 0844 0D080000 		.4byte	.LASF103
 2410 0848 6101     		.2byte	0x161
 2411 084a 21       		.byte	0x21
 2412 084b ED030000 		.4byte	0x3ed
 2413 084f 00       		.byte	0
 2414 0850 05       		.uleb128 0x5
 2415 0851 07060000 		.4byte	.LASF114
 2416 0855 6501     		.2byte	0x165
 2417 0857 22       		.byte	0x22
 2418 0858 9D040000 		.4byte	0x49d
 2419 085c 0C       		.byte	0xc
 2420 085d 00       		.byte	0
 2421 085e 1C       		.uleb128 0x1c
 2422 085f 08000000 		.4byte	.LASF115
 2423 0863 6601     		.2byte	0x166
 2424 0865 35080000 		.4byte	0x835
 2425 0869 12       		.uleb128 0x12
 2426 086a B2050000 		.4byte	.LASF116
 2427 086e 14       		.byte	0x14
 2428 086f 0E       		.byte	0xe
 2429 0870 6B01     		.2byte	0x16b
 2430 0872 10       		.byte	0x10
 2431 0873 B9080000 		.4byte	0x8b9
 2432 0877 05       		.uleb128 0x5
 2433 0878 C6030000 		.4byte	.LASF34
 2434 087c 6F01     		.2byte	0x16f
 2435 087e 22       		.byte	0x22
 2436 087f 42030000 		.4byte	0x342
 2437 0883 00       		.byte	0
 2438 0884 05       		.uleb128 0x5
 2439 0885 AE020000 		.4byte	.LASF117
 2440 0889 7501     		.2byte	0x175
 2441 088b 22       		.byte	0x22
 2442 088c 30080000 		.4byte	0x830
 2443 0890 04       		.byte	0x4
 2444 0891 05       		.uleb128 0x5
 2445 0892 6F080000 		.4byte	.LASF118
 2446 0896 7901     		.2byte	0x179
 2447 0898 22       		.byte	0x22
 2448 0899 30080000 		.4byte	0x830
 2449 089d 08       		.byte	0x8
 2450 089e 05       		.uleb128 0x5
 2451 089f 1F030000 		.4byte	.LASF119
 2452 08a3 7F01     		.2byte	0x17f
 2453 08a5 22       		.byte	0x22
 2454 08a6 30080000 		.4byte	0x830
 2455 08aa 0C       		.byte	0xc
 2456 08ab 05       		.uleb128 0x5
 2457 08ac 17090000 		.4byte	.LASF120
 2458 08b0 8301     		.2byte	0x183
 2459 08b2 22       		.byte	0x22
 2460 08b3 30080000 		.4byte	0x830
 2461 08b7 10       		.byte	0x10
 2462 08b8 00       		.byte	0
 2463 08b9 1C       		.uleb128 0x1c
ARM GAS  C:\Users\DEVELO~1\AppData\Local\Temp\cc3dswDP.s 			page 45


 2464 08ba 84080000 		.4byte	.LASF121
 2465 08be 8501     		.2byte	0x185
 2466 08c0 69080000 		.4byte	0x869
 2467 08c4 0A       		.uleb128 0xa
 2468 08c5 B9080000 		.4byte	0x8b9
 2469 08c9 03       		.uleb128 0x3
 2470 08ca C4080000 		.4byte	0x8c4
 2471 08ce 28       		.uleb128 0x28
 2472 08cf 63683000 		.ascii	"ch0\000"
 2473 08d3 03       		.byte	0x3
 2474 08d4 4101     		.2byte	0x141
 2475 08d6 16       		.byte	0x16
 2476 08d7 62020000 		.4byte	0x262
 2477 08db 02       		.uleb128 0x2
 2478 08dc 00000000 		.4byte	.LASF122
 2479 08e0 07       		.byte	0x7
 2480 08e1 34       		.byte	0x34
 2481 08e2 10       		.byte	0x10
 2482 08e3 E7080000 		.4byte	0x8e7
 2483 08e7 03       		.uleb128 0x3
 2484 08e8 EC080000 		.4byte	0x8ec
 2485 08ec 29       		.uleb128 0x29
 2486 08ed F7080000 		.4byte	0x8f7
 2487 08f1 04       		.uleb128 0x4
 2488 08f2 A2040000 		.4byte	0x4a2
 2489 08f6 00       		.byte	0
 2490 08f7 02       		.uleb128 0x2
 2491 08f8 BE020000 		.4byte	.LASF123
 2492 08fc 14       		.byte	0x14
 2493 08fd 34       		.byte	0x34
 2494 08fe 19       		.byte	0x19
 2495 08ff F1070000 		.4byte	0x7f1
 2496 0903 03       		.uleb128 0x3
 2497 0904 F7080000 		.4byte	0x8f7
 2498 0908 07       		.uleb128 0x7
 2499 0909 01       		.byte	0x1
 2500 090a 02       		.byte	0x2
 2501 090b 7A060000 		.4byte	.LASF124
 2502 090f 03       		.uleb128 0x3
 2503 0910 BB000000 		.4byte	0xbb
 2504 0914 08       		.uleb128 0x8
 2505 0915 B7070000 		.4byte	.LASF125
 2506 0919 14       		.byte	0x14
 2507 091a 15       		.byte	0x15
 2508 091b 4F       		.byte	0x4f
 2509 091c 08       		.byte	0x8
 2510 091d 63090000 		.4byte	0x963
 2511 0921 01       		.uleb128 0x1
 2512 0922 F8080000 		.4byte	.LASF126
 2513 0926 15       		.byte	0x15
 2514 0927 50       		.byte	0x50
 2515 0928 03       		.byte	0x3
 2516 0929 2D000000 		.4byte	0x2d
 2517 092d 00       		.byte	0
 2518 092e 01       		.uleb128 0x1
 2519 092f E0040000 		.4byte	.LASF127
 2520 0933 15       		.byte	0x15
ARM GAS  C:\Users\DEVELO~1\AppData\Local\Temp\cc3dswDP.s 			page 46


 2521 0934 50       		.byte	0x50
 2522 0935 03       		.byte	0x3
 2523 0936 86090000 		.4byte	0x986
 2524 093a 04       		.byte	0x4
 2525 093b 01       		.uleb128 0x1
 2526 093c CF080000 		.4byte	.LASF128
 2527 0940 15       		.byte	0x15
 2528 0941 50       		.byte	0x50
 2529 0942 03       		.byte	0x3
 2530 0943 A4090000 		.4byte	0x9a4
 2531 0947 08       		.byte	0x8
 2532 0948 06       		.uleb128 0x6
 2533 0949 70757400 		.ascii	"put\000"
 2534 094d 15       		.byte	0x15
 2535 094e 50       		.byte	0x50
 2536 094f 03       		.byte	0x3
 2537 0950 BD090000 		.4byte	0x9bd
 2538 0954 0C       		.byte	0xc
 2539 0955 06       		.uleb128 0x6
 2540 0956 67657400 		.ascii	"get\000"
 2541 095a 15       		.byte	0x15
 2542 095b 50       		.byte	0x50
 2543 095c 03       		.byte	0x3
 2544 095d D1090000 		.4byte	0x9d1
 2545 0961 10       		.byte	0x10
 2546 0962 00       		.byte	0
 2547 0963 0A       		.uleb128 0xa
 2548 0964 14090000 		.4byte	0x914
 2549 0968 10       		.uleb128 0x10
 2550 0969 2D000000 		.4byte	0x2d
 2551 096d 81090000 		.4byte	0x981
 2552 0971 04       		.uleb128 0x4
 2553 0972 A2040000 		.4byte	0x4a2
 2554 0976 04       		.uleb128 0x4
 2555 0977 81090000 		.4byte	0x981
 2556 097b 04       		.uleb128 0x4
 2557 097c 2D000000 		.4byte	0x2d
 2558 0980 00       		.byte	0
 2559 0981 03       		.uleb128 0x3
 2560 0982 C7000000 		.4byte	0xc7
 2561 0986 03       		.uleb128 0x3
 2562 0987 68090000 		.4byte	0x968
 2563 098b 10       		.uleb128 0x10
 2564 098c 2D000000 		.4byte	0x2d
 2565 0990 A4090000 		.4byte	0x9a4
 2566 0994 04       		.uleb128 0x4
 2567 0995 A2040000 		.4byte	0x4a2
 2568 0999 04       		.uleb128 0x4
 2569 099a 0F090000 		.4byte	0x90f
 2570 099e 04       		.uleb128 0x4
 2571 099f 2D000000 		.4byte	0x2d
 2572 09a3 00       		.byte	0
 2573 09a4 03       		.uleb128 0x3
 2574 09a5 8B090000 		.4byte	0x98b
 2575 09a9 10       		.uleb128 0x10
 2576 09aa 49010000 		.4byte	0x149
 2577 09ae BD090000 		.4byte	0x9bd
ARM GAS  C:\Users\DEVELO~1\AppData\Local\Temp\cc3dswDP.s 			page 47


 2578 09b2 04       		.uleb128 0x4
 2579 09b3 A2040000 		.4byte	0x4a2
 2580 09b7 04       		.uleb128 0x4
 2581 09b8 BB000000 		.4byte	0xbb
 2582 09bc 00       		.byte	0
 2583 09bd 03       		.uleb128 0x3
 2584 09be A9090000 		.4byte	0x9a9
 2585 09c2 10       		.uleb128 0x10
 2586 09c3 49010000 		.4byte	0x149
 2587 09c7 D1090000 		.4byte	0x9d1
 2588 09cb 04       		.uleb128 0x4
 2589 09cc A2040000 		.4byte	0x4a2
 2590 09d0 00       		.byte	0
 2591 09d1 03       		.uleb128 0x3
 2592 09d2 C2090000 		.4byte	0x9c2
 2593 09d6 0B       		.uleb128 0xb
 2594 09d7 04       		.byte	0x4
 2595 09d8 15       		.byte	0x15
 2596 09d9 5A       		.byte	0x5a
 2597 09da 09       		.byte	0x9
 2598 09db ED090000 		.4byte	0x9ed
 2599 09df 06       		.uleb128 0x6
 2600 09e0 766D7400 		.ascii	"vmt\000"
 2601 09e4 15       		.byte	0x15
 2602 09e5 5C       		.byte	0x5c
 2603 09e6 29       		.byte	0x29
 2604 09e7 ED090000 		.4byte	0x9ed
 2605 09eb 00       		.byte	0
 2606 09ec 00       		.byte	0
 2607 09ed 03       		.uleb128 0x3
 2608 09ee 63090000 		.4byte	0x963
 2609 09f2 02       		.uleb128 0x2
 2610 09f3 C6020000 		.4byte	.LASF129
 2611 09f7 15       		.byte	0x15
 2612 09f8 5E       		.byte	0x5e
 2613 09f9 03       		.byte	0x3
 2614 09fa D6090000 		.4byte	0x9d6
 2615 09fe 02       		.uleb128 0x2
 2616 09ff FB040000 		.4byte	.LASF130
 2617 0a03 16       		.byte	0x16
 2618 0a04 7D       		.byte	0x7d
 2619 0a05 0F       		.byte	0xf
 2620 0a06 0A0A0000 		.4byte	0xa0a
 2621 0a0a 03       		.uleb128 0x3
 2622 0a0b 0F0A0000 		.4byte	0xa0f
 2623 0a0f 10       		.uleb128 0x10
 2624 0a10 26000000 		.4byte	0x26
 2625 0a14 1E0A0000 		.4byte	0xa1e
 2626 0a18 04       		.uleb128 0x4
 2627 0a19 26000000 		.4byte	0x26
 2628 0a1d 00       		.byte	0
 2629 0a1e 0B       		.uleb128 0xb
 2630 0a1f 28       		.byte	0x28
 2631 0a20 16       		.byte	0x16
 2632 0a21 82       		.byte	0x82
 2633 0a22 09       		.byte	0x9
 2634 0a23 900A0000 		.4byte	0xa90
ARM GAS  C:\Users\DEVELO~1\AppData\Local\Temp\cc3dswDP.s 			page 48


 2635 0a27 01       		.uleb128 0x1
 2636 0a28 8A050000 		.4byte	.LASF131
 2637 0a2c 16       		.byte	0x16
 2638 0a2d 86       		.byte	0x86
 2639 0a2e 15       		.byte	0x15
 2640 0a2f 39000000 		.4byte	0x39
 2641 0a33 00       		.byte	0
 2642 0a34 01       		.uleb128 0x1
 2643 0a35 EA010000 		.4byte	.LASF132
 2644 0a39 16       		.byte	0x16
 2645 0a3a 8A       		.byte	0x8a
 2646 0a3b 15       		.byte	0x15
 2647 0a3c 08090000 		.4byte	0x908
 2648 0a40 04       		.byte	0x4
 2649 0a41 01       		.uleb128 0x1
 2650 0a42 16060000 		.4byte	.LASF133
 2651 0a46 16       		.byte	0x16
 2652 0a47 8E       		.byte	0x8e
 2653 0a48 15       		.byte	0x15
 2654 0a49 08090000 		.4byte	0x908
 2655 0a4d 05       		.byte	0x5
 2656 0a4e 01       		.uleb128 0x1
 2657 0a4f 06040000 		.4byte	.LASF134
 2658 0a53 16       		.byte	0x16
 2659 0a54 92       		.byte	0x92
 2660 0a55 16       		.byte	0x16
 2661 0a56 42030000 		.4byte	0x342
 2662 0a5a 08       		.byte	0x8
 2663 0a5b 01       		.uleb128 0x1
 2664 0a5c 71020000 		.4byte	.LASF135
 2665 0a60 16       		.byte	0x16
 2666 0a61 96       		.byte	0x96
 2667 0a62 16       		.byte	0x16
 2668 0a63 900A0000 		.4byte	0xa90
 2669 0a67 0C       		.byte	0xc
 2670 0a68 01       		.uleb128 0x1
 2671 0a69 AA000000 		.4byte	.LASF136
 2672 0a6d 16       		.byte	0x16
 2673 0a6e 9A       		.byte	0x9a
 2674 0a6f 15       		.byte	0x15
 2675 0a70 950A0000 		.4byte	0xa95
 2676 0a74 10       		.byte	0x10
 2677 0a75 01       		.uleb128 0x1
 2678 0a76 51020000 		.4byte	.LASF137
 2679 0a7a 16       		.byte	0x16
 2680 0a7b 9E       		.byte	0x9e
 2681 0a7c 15       		.byte	0x15
 2682 0a7d FE090000 		.4byte	0x9fe
 2683 0a81 20       		.byte	0x20
 2684 0a82 01       		.uleb128 0x1
 2685 0a83 86070000 		.4byte	.LASF138
 2686 0a87 16       		.byte	0x16
 2687 0a88 A3       		.byte	0xa3
 2688 0a89 19       		.byte	0x19
 2689 0a8a A50A0000 		.4byte	0xaa5
 2690 0a8e 24       		.byte	0x24
 2691 0a8f 00       		.byte	0
ARM GAS  C:\Users\DEVELO~1\AppData\Local\Temp\cc3dswDP.s 			page 49


 2692 0a90 03       		.uleb128 0x3
 2693 0a91 4C030000 		.4byte	0x34c
 2694 0a95 0D       		.uleb128 0xd
 2695 0a96 4C030000 		.4byte	0x34c
 2696 0a9a A50A0000 		.4byte	0xaa5
 2697 0a9e 0E       		.uleb128 0xe
 2698 0a9f 39000000 		.4byte	0x39
 2699 0aa3 0F       		.byte	0xf
 2700 0aa4 00       		.byte	0
 2701 0aa5 03       		.uleb128 0x3
 2702 0aa6 F2090000 		.4byte	0x9f2
 2703 0aaa 02       		.uleb128 0x2
 2704 0aab C3010000 		.4byte	.LASF139
 2705 0aaf 16       		.byte	0x16
 2706 0ab0 A5       		.byte	0xa5
 2707 0ab1 03       		.byte	0x3
 2708 0ab2 1E0A0000 		.4byte	0xa1e
 2709 0ab6 0B       		.uleb128 0xb
 2710 0ab7 10       		.byte	0x10
 2711 0ab8 16       		.byte	0x16
 2712 0ab9 AA       		.byte	0xaa
 2713 0aba 09       		.byte	0x9
 2714 0abb F40A0000 		.4byte	0xaf4
 2715 0abf 01       		.uleb128 0x1
 2716 0ac0 C6030000 		.4byte	.LASF34
 2717 0ac4 16       		.byte	0x16
 2718 0ac5 AB       		.byte	0xab
 2719 0ac6 0F       		.byte	0xf
 2720 0ac7 42030000 		.4byte	0x342
 2721 0acb 00       		.byte	0
 2722 0acc 01       		.uleb128 0x1
 2723 0acd E7050000 		.4byte	.LASF140
 2724 0ad1 16       		.byte	0x16
 2725 0ad2 AC       		.byte	0xac
 2726 0ad3 0A       		.byte	0xa
 2727 0ad4 F50A0000 		.4byte	0xaf5
 2728 0ad8 04       		.byte	0x4
 2729 0ad9 01       		.uleb128 0x1
 2730 0ada 52030000 		.4byte	.LASF141
 2731 0ade 16       		.byte	0x16
 2732 0adf AD       		.byte	0xad
 2733 0ae0 0A       		.byte	0xa
 2734 0ae1 F50A0000 		.4byte	0xaf5
 2735 0ae5 08       		.byte	0x8
 2736 0ae6 01       		.uleb128 0x1
 2737 0ae7 53060000 		.4byte	.LASF142
 2738 0aeb 16       		.byte	0x16
 2739 0aec AE       		.byte	0xae
 2740 0aed 0A       		.byte	0xa
 2741 0aee F50A0000 		.4byte	0xaf5
 2742 0af2 0C       		.byte	0xc
 2743 0af3 00       		.byte	0
 2744 0af4 2A       		.uleb128 0x2a
 2745 0af5 03       		.uleb128 0x3
 2746 0af6 F40A0000 		.4byte	0xaf4
 2747 0afa 02       		.uleb128 0x2
 2748 0afb B1040000 		.4byte	.LASF143
ARM GAS  C:\Users\DEVELO~1\AppData\Local\Temp\cc3dswDP.s 			page 50


 2749 0aff 16       		.byte	0x16
 2750 0b00 AF       		.byte	0xaf
 2751 0b01 03       		.byte	0x3
 2752 0b02 B60A0000 		.4byte	0xab6
 2753 0b06 0A       		.uleb128 0xa
 2754 0b07 FA0A0000 		.4byte	0xafa
 2755 0b0b 0B       		.uleb128 0xb
 2756 0b0c 08       		.byte	0x8
 2757 0b0d 16       		.byte	0x16
 2758 0b0e B4       		.byte	0xb4
 2759 0b0f 09       		.byte	0x9
 2760 0b10 2F0B0000 		.4byte	0xb2f
 2761 0b14 01       		.uleb128 0x1
 2762 0b15 C6030000 		.4byte	.LASF34
 2763 0b19 16       		.byte	0x16
 2764 0b1a B5       		.byte	0xb5
 2765 0b1b 16       		.byte	0x16
 2766 0b1c 42030000 		.4byte	0x342
 2767 0b20 00       		.byte	0
 2768 0b21 01       		.uleb128 0x1
 2769 0b22 37070000 		.4byte	.LASF144
 2770 0b26 16       		.byte	0x16
 2771 0b27 B6       		.byte	0xb6
 2772 0b28 1E       		.byte	0x1e
 2773 0b29 2F0B0000 		.4byte	0xb2f
 2774 0b2d 04       		.byte	0x4
 2775 0b2e 00       		.byte	0
 2776 0b2f 03       		.uleb128 0x3
 2777 0b30 390B0000 		.4byte	0xb39
 2778 0b34 03       		.uleb128 0x3
 2779 0b35 060B0000 		.4byte	0xb06
 2780 0b39 0A       		.uleb128 0xa
 2781 0b3a 340B0000 		.4byte	0xb34
 2782 0b3e 02       		.uleb128 0x2
 2783 0b3f DB010000 		.4byte	.LASF145
 2784 0b43 16       		.byte	0x16
 2785 0b44 B7       		.byte	0xb7
 2786 0b45 03       		.byte	0x3
 2787 0b46 0B0B0000 		.4byte	0xb0b
 2788 0b4a 0A       		.uleb128 0xa
 2789 0b4b 3E0B0000 		.4byte	0xb3e
 2790 0b4f 2B       		.uleb128 0x2b
 2791 0b50 0F060000 		.4byte	.LASF146
 2792 0b54 16       		.byte	0x16
 2793 0b55 2901     		.2byte	0x129
 2794 0b57 1A       		.byte	0x1a
 2795 0b58 AA0A0000 		.4byte	0xaaa
 2796 0b5c 1D       		.uleb128 0x1d
 2797 0b5d 25040000 		.4byte	.LASF147
 2798 0b61 17       		.byte	0x17
 2799 0b62 19       		.byte	0x19
 2800 0b63 1D       		.byte	0x1d
 2801 0b64 4A0B0000 		.4byte	0xb4a
 2802 0b68 0D       		.uleb128 0xd
 2803 0b69 9D040000 		.4byte	0x49d
 2804 0b6d 780B0000 		.4byte	0xb78
 2805 0b71 0E       		.uleb128 0xe
ARM GAS  C:\Users\DEVELO~1\AppData\Local\Temp\cc3dswDP.s 			page 51


 2806 0b72 39000000 		.4byte	0x39
 2807 0b76 04       		.byte	0x4
 2808 0b77 00       		.byte	0
 2809 0b78 1D       		.uleb128 0x1d
 2810 0b79 ED060000 		.4byte	.LASF148
 2811 0b7d 18       		.byte	0x18
 2812 0b7e 5F       		.byte	0x5f
 2813 0b7f 12       		.byte	0x12
 2814 0b80 680B0000 		.4byte	0xb68
 2815 0b84 0D       		.uleb128 0xd
 2816 0b85 A4040000 		.4byte	0x4a4
 2817 0b89 940B0000 		.4byte	0xb94
 2818 0b8d 0E       		.uleb128 0xe
 2819 0b8e 39000000 		.4byte	0x39
 2820 0b92 04       		.byte	0x4
 2821 0b93 00       		.byte	0
 2822 0b94 0A       		.uleb128 0xa
 2823 0b95 840B0000 		.4byte	0xb84
 2824 0b99 2C       		.uleb128 0x2c
 2825 0b9a 776100   		.ascii	"wa\000"
 2826 0b9d 18       		.byte	0x18
 2827 0b9e 60       		.byte	0x60
 2828 0b9f 18       		.byte	0x18
 2829 0ba0 940B0000 		.4byte	0xb94
 2830 0ba4 13       		.uleb128 0x13
 2831 0ba5 96060000 		.4byte	.LASF149
 2832 0ba9 8F       		.byte	0x8f
 2833 0baa 19       		.byte	0x19
 2834 0bab 060B0000 		.4byte	0xb06
 2835 0baf 05       		.uleb128 0x5
 2836 0bb0 03       		.byte	0x3
 2837 0bb1 00000000 		.4byte	rt_test_005_001
 2838 0bb5 13       		.uleb128 0x13
 2839 0bb6 A6060000 		.4byte	.LASF150
 2840 0bba D5       		.byte	0xd5
 2841 0bbb 19       		.byte	0x19
 2842 0bbc 060B0000 		.4byte	0xb06
 2843 0bc0 05       		.uleb128 0x5
 2844 0bc1 03       		.byte	0x3
 2845 0bc2 00000000 		.4byte	rt_test_005_002
 2846 0bc6 18       		.uleb128 0x18
 2847 0bc7 B6060000 		.4byte	.LASF151
 2848 0bcb 0401     		.2byte	0x104
 2849 0bcd 19       		.byte	0x19
 2850 0bce 060B0000 		.4byte	0xb06
 2851 0bd2 05       		.uleb128 0x5
 2852 0bd3 03       		.byte	0x3
 2853 0bd4 00000000 		.4byte	rt_test_005_003
 2854 0bd8 18       		.uleb128 0x18
 2855 0bd9 C6060000 		.4byte	.LASF152
 2856 0bdd 4E01     		.2byte	0x14e
 2857 0bdf 19       		.byte	0x19
 2858 0be0 060B0000 		.4byte	0xb06
 2859 0be4 05       		.uleb128 0x5
 2860 0be5 03       		.byte	0x3
 2861 0be6 00000000 		.4byte	rt_test_005_004
 2862 0bea 0D       		.uleb128 0xd
ARM GAS  C:\Users\DEVELO~1\AppData\Local\Temp\cc3dswDP.s 			page 52


 2863 0beb 390B0000 		.4byte	0xb39
 2864 0bef FA0B0000 		.4byte	0xbfa
 2865 0bf3 0E       		.uleb128 0xe
 2866 0bf4 39000000 		.4byte	0x39
 2867 0bf8 04       		.byte	0x4
 2868 0bf9 00       		.byte	0
 2869 0bfa 0A       		.uleb128 0xa
 2870 0bfb EA0B0000 		.4byte	0xbea
 2871 0bff 2D       		.uleb128 0x2d
 2872 0c00 2E090000 		.4byte	.LASF153
 2873 0c04 08       		.byte	0x8
 2874 0c05 5D01     		.2byte	0x15d
 2875 0c07 1A       		.byte	0x1a
 2876 0c08 FA0B0000 		.4byte	0xbfa
 2877 0c0c 05       		.uleb128 0x5
 2878 0c0d 03       		.byte	0x3
 2879 0c0e 00000000 		.4byte	rt_test_sequence_005_array
 2880 0c12 2E       		.uleb128 0x2e
 2881 0c13 5C0B0000 		.4byte	0xb5c
 2882 0c17 08       		.byte	0x8
 2883 0c18 6A01     		.2byte	0x16a
 2884 0c1a 16       		.byte	0x16
 2885 0c1b 05       		.uleb128 0x5
 2886 0c1c 03       		.byte	0x3
 2887 0c1d 00000000 		.4byte	rt_test_sequence_005
 2888 0c21 11       		.uleb128 0x11
 2889 0c22 D6060000 		.4byte	.LASF154
 2890 0c26 16       		.byte	0x16
 2891 0c27 3001     		.2byte	0x130
 2892 0c29 08       		.byte	0x8
 2893 0c2a 08090000 		.4byte	0x908
 2894 0c2e 3D0C0000 		.4byte	0xc3d
 2895 0c32 04       		.uleb128 0x4
 2896 0c33 08090000 		.4byte	0x908
 2897 0c37 04       		.uleb128 0x4
 2898 0c38 42030000 		.4byte	0x342
 2899 0c3c 00       		.byte	0
 2900 0c3d 11       		.uleb128 0x11
 2901 0c3e DB020000 		.4byte	.LASF155
 2902 0c42 07       		.byte	0x7
 2903 0c43 3801     		.2byte	0x138
 2904 0c45 0B       		.byte	0xb
 2905 0c46 3D010000 		.4byte	0x13d
 2906 0c4a 540C0000 		.4byte	0xc54
 2907 0c4e 04       		.uleb128 0x4
 2908 0c4f 3D010000 		.4byte	0x13d
 2909 0c53 00       		.byte	0
 2910 0c54 11       		.uleb128 0x11
 2911 0c55 AC010000 		.4byte	.LASF156
 2912 0c59 16       		.byte	0x16
 2913 0c5a 3101     		.2byte	0x131
 2914 0c5c 08       		.byte	0x8
 2915 0c5d 08090000 		.4byte	0x908
 2916 0c61 700C0000 		.4byte	0xc70
 2917 0c65 04       		.uleb128 0x4
 2918 0c66 900A0000 		.4byte	0xa90
 2919 0c6a 04       		.uleb128 0x4
ARM GAS  C:\Users\DEVELO~1\AppData\Local\Temp\cc3dswDP.s 			page 53


 2920 0c6b 42030000 		.4byte	0x342
 2921 0c6f 00       		.byte	0
 2922 0c70 2F       		.uleb128 0x2f
 2923 0c71 A0050000 		.4byte	.LASF180
 2924 0c75 18       		.byte	0x18
 2925 0c76 64       		.byte	0x64
 2926 0c77 06       		.byte	0x6
 2927 0c78 11       		.uleb128 0x11
 2928 0c79 BC040000 		.4byte	.LASF157
 2929 0c7d 07       		.byte	0x7
 2930 0c7e 2C01     		.2byte	0x12c
 2931 0c80 0D       		.byte	0xd
 2932 0c81 9D040000 		.4byte	0x49d
 2933 0c85 A30C0000 		.4byte	0xca3
 2934 0c89 04       		.uleb128 0x4
 2935 0c8a A2040000 		.4byte	0x4a2
 2936 0c8e 04       		.uleb128 0x4
 2937 0c8f 2D000000 		.4byte	0x2d
 2938 0c93 04       		.uleb128 0x4
 2939 0c94 3D010000 		.4byte	0x13d
 2940 0c98 04       		.uleb128 0x4
 2941 0c99 DB080000 		.4byte	0x8db
 2942 0c9d 04       		.uleb128 0x4
 2943 0c9e A2040000 		.4byte	0x4a2
 2944 0ca2 00       		.byte	0
 2945 0ca3 30       		.uleb128 0x30
 2946 0ca4 03070000 		.4byte	.LASF181
 2947 0ca8 19       		.byte	0x19
 2948 0ca9 4B       		.byte	0x4b
 2949 0caa 0D       		.byte	0xd
 2950 0cab 64030000 		.4byte	0x364
 2951 0caf 19       		.uleb128 0x19
 2952 0cb0 F7050000 		.4byte	.LASF159
 2953 0cb4 07       		.byte	0x7
 2954 0cb5 4301     		.2byte	0x143
 2955 0cb7 C10C0000 		.4byte	0xcc1
 2956 0cbb 04       		.uleb128 0x4
 2957 0cbc 64030000 		.4byte	0x364
 2958 0cc0 00       		.byte	0
 2959 0cc1 11       		.uleb128 0x11
 2960 0cc2 F6010000 		.4byte	.LASF158
 2961 0cc6 16       		.byte	0x16
 2962 0cc7 3301     		.2byte	0x133
 2963 0cc9 08       		.byte	0x8
 2964 0cca 08090000 		.4byte	0x908
 2965 0cce E20C0000 		.4byte	0xce2
 2966 0cd2 04       		.uleb128 0x4
 2967 0cd3 64030000 		.4byte	0x364
 2968 0cd7 04       		.uleb128 0x4
 2969 0cd8 64030000 		.4byte	0x364
 2970 0cdc 04       		.uleb128 0x4
 2971 0cdd 42030000 		.4byte	0x342
 2972 0ce1 00       		.byte	0
 2973 0ce2 19       		.uleb128 0x19
 2974 0ce3 99080000 		.4byte	.LASF160
 2975 0ce7 07       		.byte	0x7
 2976 0ce8 4201     		.2byte	0x142
ARM GAS  C:\Users\DEVELO~1\AppData\Local\Temp\cc3dswDP.s 			page 54


 2977 0cea F40C0000 		.4byte	0xcf4
 2978 0cee 04       		.uleb128 0x4
 2979 0cef 70030000 		.4byte	0x370
 2980 0cf3 00       		.byte	0
 2981 0cf4 19       		.uleb128 0x19
 2982 0cf5 09010000 		.4byte	.LASF161
 2983 0cf9 16       		.byte	0x16
 2984 0cfa 3A01     		.2byte	0x13a
 2985 0cfc 060D0000 		.4byte	0xd06
 2986 0d00 04       		.uleb128 0x4
 2987 0d01 4C030000 		.4byte	0x34c
 2988 0d05 00       		.byte	0
 2989 0d06 31       		.uleb128 0x31
 2990 0d07 D4080000 		.4byte	.LASF162
 2991 0d0b 08       		.byte	0x8
 2992 0d0c 2201     		.2byte	0x122
 2993 0d0e 0D       		.byte	0xd
 2994 0d0f 00000000 		.4byte	.LFB440
 2995 0d13 6C010000 		.4byte	.LFE440-.LFB440
 2996 0d17 01       		.uleb128 0x1
 2997 0d18 9C       		.byte	0x9c
 2998 0d19 3C0D0000 		.4byte	0xd3c
 2999 0d1d 18       		.uleb128 0x18
 3000 0d1e F2050000 		.4byte	.LASF75
 3001 0d22 2301     		.2byte	0x123
 3002 0d24 0B       		.byte	0xb
 3003 0d25 3D010000 		.4byte	0x13d
 3004 0d29 02       		.uleb128 0x2
 3005 0d2a 91       		.byte	0x91
 3006 0d2b 74       		.sleb128 -12
 3007 0d2c 32       		.uleb128 0x32
 3008 0d2d 703100   		.ascii	"p1\000"
 3009 0d30 08       		.byte	0x8
 3010 0d31 2301     		.2byte	0x123
 3011 0d33 11       		.byte	0x11
 3012 0d34 3D010000 		.4byte	0x13d
 3013 0d38 02       		.uleb128 0x2
 3014 0d39 91       		.byte	0x91
 3015 0d3a 70       		.sleb128 -16
 3016 0d3b 00       		.byte	0
 3017 0d3c 1A       		.uleb128 0x1a
 3018 0d3d 28000000 		.4byte	.LASF163
 3019 0d41 EB       		.byte	0xeb
 3020 0d42 0D       		.byte	0xd
 3021 0d43 00000000 		.4byte	.LFB439
 3022 0d47 B8000000 		.4byte	.LFE439-.LFB439
 3023 0d4b 01       		.uleb128 0x1
 3024 0d4c 9C       		.byte	0x9c
 3025 0d4d 6E0D0000 		.4byte	0xd6e
 3026 0d51 13       		.uleb128 0x13
 3027 0d52 F2050000 		.4byte	.LASF75
 3028 0d56 EC       		.byte	0xec
 3029 0d57 0B       		.byte	0xb
 3030 0d58 3D010000 		.4byte	0x13d
 3031 0d5c 02       		.uleb128 0x2
 3032 0d5d 91       		.byte	0x91
 3033 0d5e 74       		.sleb128 -12
ARM GAS  C:\Users\DEVELO~1\AppData\Local\Temp\cc3dswDP.s 			page 55


 3034 0d5f 33       		.uleb128 0x33
 3035 0d60 703100   		.ascii	"p1\000"
 3036 0d63 08       		.byte	0x8
 3037 0d64 EC       		.byte	0xec
 3038 0d65 11       		.byte	0x11
 3039 0d66 3D010000 		.4byte	0x13d
 3040 0d6a 02       		.uleb128 0x2
 3041 0d6b 91       		.byte	0x91
 3042 0d6c 70       		.sleb128 -16
 3043 0d6d 00       		.byte	0
 3044 0d6e 34       		.uleb128 0x34
 3045 0d6f 48070000 		.4byte	.LASF182
 3046 0d73 08       		.byte	0x8
 3047 0d74 A8       		.byte	0xa8
 3048 0d75 0D       		.byte	0xd
 3049 0d76 00000000 		.4byte	.LFB438
 3050 0d7a 80020000 		.4byte	.LFE438-.LFB438
 3051 0d7e 01       		.uleb128 0x1
 3052 0d7f 9C       		.byte	0x9c
 3053 0d80 1A       		.uleb128 0x1a
 3054 0d81 07030000 		.4byte	.LASF164
 3055 0d85 4C       		.byte	0x4c
 3056 0d86 0D       		.byte	0xd
 3057 0d87 00000000 		.4byte	.LFB437
 3058 0d8b 3C010000 		.4byte	.LFE437-.LFB437
 3059 0d8f 01       		.uleb128 0x1
 3060 0d90 9C       		.byte	0x9c
 3061 0d91 A40D0000 		.4byte	0xda4
 3062 0d95 13       		.uleb128 0x13
 3063 0d96 ED050000 		.4byte	.LASF85
 3064 0d9a 4D       		.byte	0x4d
 3065 0d9b 0D       		.byte	0xd
 3066 0d9c 64030000 		.4byte	0x364
 3067 0da0 02       		.uleb128 0x2
 3068 0da1 91       		.byte	0x91
 3069 0da2 6C       		.sleb128 -20
 3070 0da3 00       		.byte	0
 3071 0da4 1A       		.uleb128 0x1a
 3072 0da5 63060000 		.4byte	.LASF165
 3073 0da9 2C       		.byte	0x2c
 3074 0daa 08       		.byte	0x8
 3075 0dab 00000000 		.4byte	.LFB436
 3076 0daf 1A000000 		.4byte	.LFE436-.LFB436
 3077 0db3 01       		.uleb128 0x1
 3078 0db4 9C       		.byte	0x9c
 3079 0db5 C70D0000 		.4byte	0xdc7
 3080 0db9 35       		.uleb128 0x35
 3081 0dba 7000     		.ascii	"p\000"
 3082 0dbc 08       		.byte	0x8
 3083 0dbd 2C       		.byte	0x2c
 3084 0dbe 08       		.byte	0x8
 3085 0dbf A2040000 		.4byte	0x4a2
 3086 0dc3 02       		.uleb128 0x2
 3087 0dc4 91       		.byte	0x91
 3088 0dc5 74       		.sleb128 -12
 3089 0dc6 00       		.byte	0
 3090 0dc7 36       		.uleb128 0x36
ARM GAS  C:\Users\DEVELO~1\AppData\Local\Temp\cc3dswDP.s 			page 56


 3091 0dc8 D5050000 		.4byte	.LASF166
 3092 0dcc 07       		.byte	0x7
 3093 0dcd 6201     		.2byte	0x162
 3094 0dcf 17       		.byte	0x17
 3095 0dd0 3D010000 		.4byte	0x13d
 3096 0dd4 00000000 		.4byte	.LFB230
 3097 0dd8 10000000 		.4byte	.LFE230-.LFB230
 3098 0ddc 01       		.uleb128 0x1
 3099 0ddd 9C       		.byte	0x9c
 3100 0dde 37       		.uleb128 0x37
 3101 0ddf B3080000 		.4byte	.LASF167
 3102 0de3 07       		.byte	0x7
 3103 0de4 5501     		.2byte	0x155
 3104 0de6 19       		.byte	0x19
 3105 0de7 9D040000 		.4byte	0x49d
 3106 0deb 00000000 		.4byte	.LFB229
 3107 0def 14000000 		.4byte	.LFE229-.LFB229
 3108 0df3 01       		.uleb128 0x1
 3109 0df4 9C       		.byte	0x9c
 3110 0df5 1E       		.uleb128 0x1e
 3111 0df6 E9030000 		.4byte	.LASF168
 3112 0dfa 06       		.byte	0x6
 3113 0dfb 7A       		.byte	0x7a
 3114 0dfc 64030000 		.4byte	0x364
 3115 0e00 00000000 		.4byte	.LFB209
 3116 0e04 0E000000 		.4byte	.LFE209-.LFB209
 3117 0e08 01       		.uleb128 0x1
 3118 0e09 9C       		.byte	0x9c
 3119 0e0a 1F       		.uleb128 0x1f
 3120 0e0b EC080000 		.4byte	.LASF169
 3121 0e0f A501     		.2byte	0x1a5
 3122 0e11 00000000 		.4byte	.LFB203
 3123 0e15 1E000000 		.4byte	.LFE203-.LFB203
 3124 0e19 01       		.uleb128 0x1
 3125 0e1a 9C       		.byte	0x9c
 3126 0e1b 530E0000 		.4byte	0xe53
 3127 0e1f 38       		.uleb128 0x38
 3128 0e20 10070000 		.4byte	.LASF183
 3129 0e24 630E0000 		.4byte	0xe63
 3130 0e28 14       		.uleb128 0x14
 3131 0e29 BD0E0000 		.4byte	0xebd
 3132 0e2d 0A000000 		.4byte	.LBB18
 3133 0e31 0A000000 		.4byte	.LBE18-.LBB18
 3134 0e35 03       		.byte	0x3
 3135 0e36 B201     		.2byte	0x1b2
 3136 0e38 14       		.uleb128 0x14
 3137 0e39 CB0E0000 		.4byte	0xecb
 3138 0e3d 0A000000 		.4byte	.LBB20
 3139 0e41 08000000 		.4byte	.LBE20-.LBB20
 3140 0e45 05       		.byte	0x5
 3141 0e46 5203     		.2byte	0x352
 3142 0e48 20       		.uleb128 0x20
 3143 0e49 D90E0000 		.4byte	0xed9
 3144 0e4d 02       		.uleb128 0x2
 3145 0e4e 91       		.byte	0x91
 3146 0e4f 74       		.sleb128 -12
 3147 0e50 00       		.byte	0
ARM GAS  C:\Users\DEVELO~1\AppData\Local\Temp\cc3dswDP.s 			page 57


 3148 0e51 00       		.byte	0
 3149 0e52 00       		.byte	0
 3150 0e53 0D       		.uleb128 0xd
 3151 0e54 53030000 		.4byte	0x353
 3152 0e58 630E0000 		.4byte	0xe63
 3153 0e5c 0E       		.uleb128 0xe
 3154 0e5d 39000000 		.4byte	0x39
 3155 0e61 0B       		.byte	0xb
 3156 0e62 00       		.byte	0
 3157 0e63 0A       		.uleb128 0xa
 3158 0e64 530E0000 		.4byte	0xe53
 3159 0e68 1F       		.uleb128 0x1f
 3160 0e69 19070000 		.4byte	.LASF170
 3161 0e6d 9701     		.2byte	0x197
 3162 0e6f 00000000 		.4byte	.LFB202
 3163 0e73 1E000000 		.4byte	.LFE202-.LFB202
 3164 0e77 01       		.uleb128 0x1
 3165 0e78 9C       		.byte	0x9c
 3166 0e79 A80E0000 		.4byte	0xea8
 3167 0e7d 14       		.uleb128 0x14
 3168 0e7e C40E0000 		.4byte	0xec4
 3169 0e82 0A000000 		.4byte	.LBB14
 3170 0e86 0A000000 		.4byte	.LBE14-.LBB14
 3171 0e8a 03       		.byte	0x3
 3172 0e8b 9901     		.2byte	0x199
 3173 0e8d 14       		.uleb128 0x14
 3174 0e8e CB0E0000 		.4byte	0xecb
 3175 0e92 0A000000 		.4byte	.LBB16
 3176 0e96 08000000 		.4byte	.LBE16-.LBB16
 3177 0e9a 05       		.byte	0x5
 3178 0e9b 3F03     		.2byte	0x33f
 3179 0e9d 20       		.uleb128 0x20
 3180 0e9e D90E0000 		.4byte	0xed9
 3181 0ea2 02       		.uleb128 0x2
 3182 0ea3 91       		.byte	0x91
 3183 0ea4 74       		.sleb128 -12
 3184 0ea5 00       		.byte	0
 3185 0ea6 00       		.byte	0
 3186 0ea7 00       		.byte	0
 3187 0ea8 1E       		.uleb128 0x1e
 3188 0ea9 4B080000 		.4byte	.LASF171
 3189 0ead 02       		.byte	0x2
 3190 0eae 6F       		.byte	0x6f
 3191 0eaf 64030000 		.4byte	0x364
 3192 0eb3 00000000 		.4byte	.LFB196
 3193 0eb7 0E000000 		.4byte	.LFE196-.LFB196
 3194 0ebb 01       		.uleb128 0x1
 3195 0ebc 9C       		.byte	0x9c
 3196 0ebd 21       		.uleb128 0x21
 3197 0ebe 3C020000 		.4byte	.LASF172
 3198 0ec2 4F03     		.2byte	0x34f
 3199 0ec4 21       		.uleb128 0x21
 3200 0ec5 0D090000 		.4byte	.LASF173
 3201 0ec9 3703     		.2byte	0x337
 3202 0ecb 39       		.uleb128 0x39
 3203 0ecc 34050000 		.4byte	.LASF184
 3204 0ed0 04       		.byte	0x4
ARM GAS  C:\Users\DEVELO~1\AppData\Local\Temp\cc3dswDP.s 			page 58


 3205 0ed1 EB01     		.2byte	0x1eb
 3206 0ed3 1B       		.byte	0x1b
 3207 0ed4 03       		.byte	0x3
 3208 0ed5 E70E0000 		.4byte	0xee7
 3209 0ed9 3A       		.uleb128 0x3a
 3210 0eda 19010000 		.4byte	.LASF185
 3211 0ede 04       		.byte	0x4
 3212 0edf EB01     		.2byte	0x1eb
 3213 0ee1 32       		.byte	0x32
 3214 0ee2 E4000000 		.4byte	0xe4
 3215 0ee6 00       		.byte	0
 3216 0ee7 3B       		.uleb128 0x3b
 3217 0ee8 2C060000 		.4byte	.LASF174
 3218 0eec 01       		.byte	0x1
 3219 0eed BA01     		.2byte	0x1ba
 3220 0eef 19       		.byte	0x19
 3221 0ef0 64030000 		.4byte	0x364
 3222 0ef4 00000000 		.4byte	.LFB8
 3223 0ef8 1A000000 		.4byte	.LFE8-.LFB8
 3224 0efc 01       		.uleb128 0x1
 3225 0efd 9C       		.byte	0x9c
 3226 0efe 22       		.uleb128 0x22
 3227 0eff 42040000 		.4byte	.LASF175
 3228 0f03 BA01     		.2byte	0x1ba
 3229 0f05 2E       		.byte	0x2e
 3230 0f06 64030000 		.4byte	0x364
 3231 0f0a 02       		.uleb128 0x2
 3232 0f0b 91       		.byte	0x91
 3233 0f0c 74       		.sleb128 -12
 3234 0f0d 22       		.uleb128 0x22
 3235 0f0e 82020000 		.4byte	.LASF176
 3236 0f12 BB01     		.2byte	0x1bb
 3237 0f14 32       		.byte	0x32
 3238 0f15 70030000 		.4byte	0x370
 3239 0f19 02       		.uleb128 0x2
 3240 0f1a 91       		.byte	0x91
 3241 0f1b 70       		.sleb128 -16
 3242 0f1c 00       		.byte	0
 3243 0f1d 00       		.byte	0
 3244              		.section	.debug_abbrev,"",%progbits
 3245              	.Ldebug_abbrev0:
 3246 0000 01       		.uleb128 0x1
 3247 0001 0D       		.uleb128 0xd
 3248 0002 00       		.byte	0
 3249 0003 03       		.uleb128 0x3
 3250 0004 0E       		.uleb128 0xe
 3251 0005 3A       		.uleb128 0x3a
 3252 0006 0B       		.uleb128 0xb
 3253 0007 3B       		.uleb128 0x3b
 3254 0008 0B       		.uleb128 0xb
 3255 0009 39       		.uleb128 0x39
 3256 000a 0B       		.uleb128 0xb
 3257 000b 49       		.uleb128 0x49
 3258 000c 13       		.uleb128 0x13
 3259 000d 38       		.uleb128 0x38
 3260 000e 0B       		.uleb128 0xb
 3261 000f 00       		.byte	0
ARM GAS  C:\Users\DEVELO~1\AppData\Local\Temp\cc3dswDP.s 			page 59


 3262 0010 00       		.byte	0
 3263 0011 02       		.uleb128 0x2
 3264 0012 16       		.uleb128 0x16
 3265 0013 00       		.byte	0
 3266 0014 03       		.uleb128 0x3
 3267 0015 0E       		.uleb128 0xe
 3268 0016 3A       		.uleb128 0x3a
 3269 0017 0B       		.uleb128 0xb
 3270 0018 3B       		.uleb128 0x3b
 3271 0019 0B       		.uleb128 0xb
 3272 001a 39       		.uleb128 0x39
 3273 001b 0B       		.uleb128 0xb
 3274 001c 49       		.uleb128 0x49
 3275 001d 13       		.uleb128 0x13
 3276 001e 00       		.byte	0
 3277 001f 00       		.byte	0
 3278 0020 03       		.uleb128 0x3
 3279 0021 0F       		.uleb128 0xf
 3280 0022 00       		.byte	0
 3281 0023 0B       		.uleb128 0xb
 3282 0024 21       		.uleb128 0x21
 3283 0025 04       		.sleb128 4
 3284 0026 49       		.uleb128 0x49
 3285 0027 13       		.uleb128 0x13
 3286 0028 00       		.byte	0
 3287 0029 00       		.byte	0
 3288 002a 04       		.uleb128 0x4
 3289 002b 05       		.uleb128 0x5
 3290 002c 00       		.byte	0
 3291 002d 49       		.uleb128 0x49
 3292 002e 13       		.uleb128 0x13
 3293 002f 00       		.byte	0
 3294 0030 00       		.byte	0
 3295 0031 05       		.uleb128 0x5
 3296 0032 0D       		.uleb128 0xd
 3297 0033 00       		.byte	0
 3298 0034 03       		.uleb128 0x3
 3299 0035 0E       		.uleb128 0xe
 3300 0036 3A       		.uleb128 0x3a
 3301 0037 21       		.uleb128 0x21
 3302 0038 0E       		.sleb128 14
 3303 0039 3B       		.uleb128 0x3b
 3304 003a 05       		.uleb128 0x5
 3305 003b 39       		.uleb128 0x39
 3306 003c 0B       		.uleb128 0xb
 3307 003d 49       		.uleb128 0x49
 3308 003e 13       		.uleb128 0x13
 3309 003f 38       		.uleb128 0x38
 3310 0040 0B       		.uleb128 0xb
 3311 0041 00       		.byte	0
 3312 0042 00       		.byte	0
 3313 0043 06       		.uleb128 0x6
 3314 0044 0D       		.uleb128 0xd
 3315 0045 00       		.byte	0
 3316 0046 03       		.uleb128 0x3
 3317 0047 08       		.uleb128 0x8
 3318 0048 3A       		.uleb128 0x3a
ARM GAS  C:\Users\DEVELO~1\AppData\Local\Temp\cc3dswDP.s 			page 60


 3319 0049 0B       		.uleb128 0xb
 3320 004a 3B       		.uleb128 0x3b
 3321 004b 0B       		.uleb128 0xb
 3322 004c 39       		.uleb128 0x39
 3323 004d 0B       		.uleb128 0xb
 3324 004e 49       		.uleb128 0x49
 3325 004f 13       		.uleb128 0x13
 3326 0050 38       		.uleb128 0x38
 3327 0051 0B       		.uleb128 0xb
 3328 0052 00       		.byte	0
 3329 0053 00       		.byte	0
 3330 0054 07       		.uleb128 0x7
 3331 0055 24       		.uleb128 0x24
 3332 0056 00       		.byte	0
 3333 0057 0B       		.uleb128 0xb
 3334 0058 0B       		.uleb128 0xb
 3335 0059 3E       		.uleb128 0x3e
 3336 005a 0B       		.uleb128 0xb
 3337 005b 03       		.uleb128 0x3
 3338 005c 0E       		.uleb128 0xe
 3339 005d 00       		.byte	0
 3340 005e 00       		.byte	0
 3341 005f 08       		.uleb128 0x8
 3342 0060 13       		.uleb128 0x13
 3343 0061 01       		.byte	0x1
 3344 0062 03       		.uleb128 0x3
 3345 0063 0E       		.uleb128 0xe
 3346 0064 0B       		.uleb128 0xb
 3347 0065 0B       		.uleb128 0xb
 3348 0066 3A       		.uleb128 0x3a
 3349 0067 0B       		.uleb128 0xb
 3350 0068 3B       		.uleb128 0x3b
 3351 0069 0B       		.uleb128 0xb
 3352 006a 39       		.uleb128 0x39
 3353 006b 0B       		.uleb128 0xb
 3354 006c 01       		.uleb128 0x1
 3355 006d 13       		.uleb128 0x13
 3356 006e 00       		.byte	0
 3357 006f 00       		.byte	0
 3358 0070 09       		.uleb128 0x9
 3359 0071 0D       		.uleb128 0xd
 3360 0072 00       		.byte	0
 3361 0073 03       		.uleb128 0x3
 3362 0074 08       		.uleb128 0x8
 3363 0075 3A       		.uleb128 0x3a
 3364 0076 0B       		.uleb128 0xb
 3365 0077 3B       		.uleb128 0x3b
 3366 0078 05       		.uleb128 0x5
 3367 0079 39       		.uleb128 0x39
 3368 007a 0B       		.uleb128 0xb
 3369 007b 49       		.uleb128 0x49
 3370 007c 13       		.uleb128 0x13
 3371 007d 38       		.uleb128 0x38
 3372 007e 0B       		.uleb128 0xb
 3373 007f 00       		.byte	0
 3374 0080 00       		.byte	0
 3375 0081 0A       		.uleb128 0xa
ARM GAS  C:\Users\DEVELO~1\AppData\Local\Temp\cc3dswDP.s 			page 61


 3376 0082 26       		.uleb128 0x26
 3377 0083 00       		.byte	0
 3378 0084 49       		.uleb128 0x49
 3379 0085 13       		.uleb128 0x13
 3380 0086 00       		.byte	0
 3381 0087 00       		.byte	0
 3382 0088 0B       		.uleb128 0xb
 3383 0089 13       		.uleb128 0x13
 3384 008a 01       		.byte	0x1
 3385 008b 0B       		.uleb128 0xb
 3386 008c 0B       		.uleb128 0xb
 3387 008d 3A       		.uleb128 0x3a
 3388 008e 0B       		.uleb128 0xb
 3389 008f 3B       		.uleb128 0x3b
 3390 0090 0B       		.uleb128 0xb
 3391 0091 39       		.uleb128 0x39
 3392 0092 0B       		.uleb128 0xb
 3393 0093 01       		.uleb128 0x1
 3394 0094 13       		.uleb128 0x13
 3395 0095 00       		.byte	0
 3396 0096 00       		.byte	0
 3397 0097 0C       		.uleb128 0xc
 3398 0098 0D       		.uleb128 0xd
 3399 0099 00       		.byte	0
 3400 009a 03       		.uleb128 0x3
 3401 009b 0E       		.uleb128 0xe
 3402 009c 3A       		.uleb128 0x3a
 3403 009d 0B       		.uleb128 0xb
 3404 009e 3B       		.uleb128 0x3b
 3405 009f 0B       		.uleb128 0xb
 3406 00a0 39       		.uleb128 0x39
 3407 00a1 0B       		.uleb128 0xb
 3408 00a2 49       		.uleb128 0x49
 3409 00a3 13       		.uleb128 0x13
 3410 00a4 00       		.byte	0
 3411 00a5 00       		.byte	0
 3412 00a6 0D       		.uleb128 0xd
 3413 00a7 01       		.uleb128 0x1
 3414 00a8 01       		.byte	0x1
 3415 00a9 49       		.uleb128 0x49
 3416 00aa 13       		.uleb128 0x13
 3417 00ab 01       		.uleb128 0x1
 3418 00ac 13       		.uleb128 0x13
 3419 00ad 00       		.byte	0
 3420 00ae 00       		.byte	0
 3421 00af 0E       		.uleb128 0xe
 3422 00b0 21       		.uleb128 0x21
 3423 00b1 00       		.byte	0
 3424 00b2 49       		.uleb128 0x49
 3425 00b3 13       		.uleb128 0x13
 3426 00b4 2F       		.uleb128 0x2f
 3427 00b5 0B       		.uleb128 0xb
 3428 00b6 00       		.byte	0
 3429 00b7 00       		.byte	0
 3430 00b8 0F       		.uleb128 0xf
 3431 00b9 0D       		.uleb128 0xd
 3432 00ba 00       		.byte	0
ARM GAS  C:\Users\DEVELO~1\AppData\Local\Temp\cc3dswDP.s 			page 62


 3433 00bb 03       		.uleb128 0x3
 3434 00bc 0E       		.uleb128 0xe
 3435 00bd 3A       		.uleb128 0x3a
 3436 00be 21       		.uleb128 0x21
 3437 00bf 0E       		.sleb128 14
 3438 00c0 3B       		.uleb128 0x3b
 3439 00c1 05       		.uleb128 0x5
 3440 00c2 39       		.uleb128 0x39
 3441 00c3 0B       		.uleb128 0xb
 3442 00c4 49       		.uleb128 0x49
 3443 00c5 13       		.uleb128 0x13
 3444 00c6 00       		.byte	0
 3445 00c7 00       		.byte	0
 3446 00c8 10       		.uleb128 0x10
 3447 00c9 15       		.uleb128 0x15
 3448 00ca 01       		.byte	0x1
 3449 00cb 27       		.uleb128 0x27
 3450 00cc 19       		.uleb128 0x19
 3451 00cd 49       		.uleb128 0x49
 3452 00ce 13       		.uleb128 0x13
 3453 00cf 01       		.uleb128 0x1
 3454 00d0 13       		.uleb128 0x13
 3455 00d1 00       		.byte	0
 3456 00d2 00       		.byte	0
 3457 00d3 11       		.uleb128 0x11
 3458 00d4 2E       		.uleb128 0x2e
 3459 00d5 01       		.byte	0x1
 3460 00d6 3F       		.uleb128 0x3f
 3461 00d7 19       		.uleb128 0x19
 3462 00d8 03       		.uleb128 0x3
 3463 00d9 0E       		.uleb128 0xe
 3464 00da 3A       		.uleb128 0x3a
 3465 00db 0B       		.uleb128 0xb
 3466 00dc 3B       		.uleb128 0x3b
 3467 00dd 05       		.uleb128 0x5
 3468 00de 39       		.uleb128 0x39
 3469 00df 0B       		.uleb128 0xb
 3470 00e0 27       		.uleb128 0x27
 3471 00e1 19       		.uleb128 0x19
 3472 00e2 49       		.uleb128 0x49
 3473 00e3 13       		.uleb128 0x13
 3474 00e4 3C       		.uleb128 0x3c
 3475 00e5 19       		.uleb128 0x19
 3476 00e6 01       		.uleb128 0x1
 3477 00e7 13       		.uleb128 0x13
 3478 00e8 00       		.byte	0
 3479 00e9 00       		.byte	0
 3480 00ea 12       		.uleb128 0x12
 3481 00eb 13       		.uleb128 0x13
 3482 00ec 01       		.byte	0x1
 3483 00ed 03       		.uleb128 0x3
 3484 00ee 0E       		.uleb128 0xe
 3485 00ef 0B       		.uleb128 0xb
 3486 00f0 0B       		.uleb128 0xb
 3487 00f1 3A       		.uleb128 0x3a
 3488 00f2 0B       		.uleb128 0xb
 3489 00f3 3B       		.uleb128 0x3b
ARM GAS  C:\Users\DEVELO~1\AppData\Local\Temp\cc3dswDP.s 			page 63


 3490 00f4 05       		.uleb128 0x5
 3491 00f5 39       		.uleb128 0x39
 3492 00f6 0B       		.uleb128 0xb
 3493 00f7 01       		.uleb128 0x1
 3494 00f8 13       		.uleb128 0x13
 3495 00f9 00       		.byte	0
 3496 00fa 00       		.byte	0
 3497 00fb 13       		.uleb128 0x13
 3498 00fc 34       		.uleb128 0x34
 3499 00fd 00       		.byte	0
 3500 00fe 03       		.uleb128 0x3
 3501 00ff 0E       		.uleb128 0xe
 3502 0100 3A       		.uleb128 0x3a
 3503 0101 21       		.uleb128 0x21
 3504 0102 08       		.sleb128 8
 3505 0103 3B       		.uleb128 0x3b
 3506 0104 0B       		.uleb128 0xb
 3507 0105 39       		.uleb128 0x39
 3508 0106 0B       		.uleb128 0xb
 3509 0107 49       		.uleb128 0x49
 3510 0108 13       		.uleb128 0x13
 3511 0109 02       		.uleb128 0x2
 3512 010a 18       		.uleb128 0x18
 3513 010b 00       		.byte	0
 3514 010c 00       		.byte	0
 3515 010d 14       		.uleb128 0x14
 3516 010e 1D       		.uleb128 0x1d
 3517 010f 01       		.byte	0x1
 3518 0110 31       		.uleb128 0x31
 3519 0111 13       		.uleb128 0x13
 3520 0112 11       		.uleb128 0x11
 3521 0113 01       		.uleb128 0x1
 3522 0114 12       		.uleb128 0x12
 3523 0115 06       		.uleb128 0x6
 3524 0116 58       		.uleb128 0x58
 3525 0117 0B       		.uleb128 0xb
 3526 0118 59       		.uleb128 0x59
 3527 0119 05       		.uleb128 0x5
 3528 011a 57       		.uleb128 0x57
 3529 011b 21       		.uleb128 0x21
 3530 011c 03       		.sleb128 3
 3531 011d 00       		.byte	0
 3532 011e 00       		.byte	0
 3533 011f 15       		.uleb128 0x15
 3534 0120 17       		.uleb128 0x17
 3535 0121 01       		.byte	0x1
 3536 0122 0B       		.uleb128 0xb
 3537 0123 0B       		.uleb128 0xb
 3538 0124 3A       		.uleb128 0x3a
 3539 0125 0B       		.uleb128 0xb
 3540 0126 3B       		.uleb128 0x3b
 3541 0127 0B       		.uleb128 0xb
 3542 0128 39       		.uleb128 0x39
 3543 0129 21       		.uleb128 0x21
 3544 012a 03       		.sleb128 3
 3545 012b 01       		.uleb128 0x1
 3546 012c 13       		.uleb128 0x13
ARM GAS  C:\Users\DEVELO~1\AppData\Local\Temp\cc3dswDP.s 			page 64


 3547 012d 00       		.byte	0
 3548 012e 00       		.byte	0
 3549 012f 16       		.uleb128 0x16
 3550 0130 0D       		.uleb128 0xd
 3551 0131 00       		.byte	0
 3552 0132 03       		.uleb128 0x3
 3553 0133 08       		.uleb128 0x8
 3554 0134 3A       		.uleb128 0x3a
 3555 0135 21       		.uleb128 0x21
 3556 0136 12       		.sleb128 18
 3557 0137 3B       		.uleb128 0x3b
 3558 0138 0B       		.uleb128 0xb
 3559 0139 39       		.uleb128 0x39
 3560 013a 21       		.uleb128 0x21
 3561 013b 07       		.sleb128 7
 3562 013c 49       		.uleb128 0x49
 3563 013d 13       		.uleb128 0x13
 3564 013e 00       		.byte	0
 3565 013f 00       		.byte	0
 3566 0140 17       		.uleb128 0x17
 3567 0141 0D       		.uleb128 0xd
 3568 0142 00       		.byte	0
 3569 0143 03       		.uleb128 0x3
 3570 0144 0E       		.uleb128 0xe
 3571 0145 3A       		.uleb128 0x3a
 3572 0146 21       		.uleb128 0x21
 3573 0147 12       		.sleb128 18
 3574 0148 3B       		.uleb128 0x3b
 3575 0149 0B       		.uleb128 0xb
 3576 014a 39       		.uleb128 0x39
 3577 014b 21       		.uleb128 0x21
 3578 014c 19       		.sleb128 25
 3579 014d 49       		.uleb128 0x49
 3580 014e 13       		.uleb128 0x13
 3581 014f 0D       		.uleb128 0xd
 3582 0150 0B       		.uleb128 0xb
 3583 0151 6B       		.uleb128 0x6b
 3584 0152 0B       		.uleb128 0xb
 3585 0153 00       		.byte	0
 3586 0154 00       		.byte	0
 3587 0155 18       		.uleb128 0x18
 3588 0156 34       		.uleb128 0x34
 3589 0157 00       		.byte	0
 3590 0158 03       		.uleb128 0x3
 3591 0159 0E       		.uleb128 0xe
 3592 015a 3A       		.uleb128 0x3a
 3593 015b 21       		.uleb128 0x21
 3594 015c 08       		.sleb128 8
 3595 015d 3B       		.uleb128 0x3b
 3596 015e 05       		.uleb128 0x5
 3597 015f 39       		.uleb128 0x39
 3598 0160 0B       		.uleb128 0xb
 3599 0161 49       		.uleb128 0x49
 3600 0162 13       		.uleb128 0x13
 3601 0163 02       		.uleb128 0x2
 3602 0164 18       		.uleb128 0x18
 3603 0165 00       		.byte	0
ARM GAS  C:\Users\DEVELO~1\AppData\Local\Temp\cc3dswDP.s 			page 65


 3604 0166 00       		.byte	0
 3605 0167 19       		.uleb128 0x19
 3606 0168 2E       		.uleb128 0x2e
 3607 0169 01       		.byte	0x1
 3608 016a 3F       		.uleb128 0x3f
 3609 016b 19       		.uleb128 0x19
 3610 016c 03       		.uleb128 0x3
 3611 016d 0E       		.uleb128 0xe
 3612 016e 3A       		.uleb128 0x3a
 3613 016f 0B       		.uleb128 0xb
 3614 0170 3B       		.uleb128 0x3b
 3615 0171 05       		.uleb128 0x5
 3616 0172 39       		.uleb128 0x39
 3617 0173 21       		.uleb128 0x21
 3618 0174 08       		.sleb128 8
 3619 0175 27       		.uleb128 0x27
 3620 0176 19       		.uleb128 0x19
 3621 0177 3C       		.uleb128 0x3c
 3622 0178 19       		.uleb128 0x19
 3623 0179 01       		.uleb128 0x1
 3624 017a 13       		.uleb128 0x13
 3625 017b 00       		.byte	0
 3626 017c 00       		.byte	0
 3627 017d 1A       		.uleb128 0x1a
 3628 017e 2E       		.uleb128 0x2e
 3629 017f 01       		.byte	0x1
 3630 0180 03       		.uleb128 0x3
 3631 0181 0E       		.uleb128 0xe
 3632 0182 3A       		.uleb128 0x3a
 3633 0183 21       		.uleb128 0x21
 3634 0184 08       		.sleb128 8
 3635 0185 3B       		.uleb128 0x3b
 3636 0186 0B       		.uleb128 0xb
 3637 0187 39       		.uleb128 0x39
 3638 0188 0B       		.uleb128 0xb
 3639 0189 27       		.uleb128 0x27
 3640 018a 19       		.uleb128 0x19
 3641 018b 11       		.uleb128 0x11
 3642 018c 01       		.uleb128 0x1
 3643 018d 12       		.uleb128 0x12
 3644 018e 06       		.uleb128 0x6
 3645 018f 40       		.uleb128 0x40
 3646 0190 18       		.uleb128 0x18
 3647 0191 7C       		.uleb128 0x7c
 3648 0192 19       		.uleb128 0x19
 3649 0193 01       		.uleb128 0x1
 3650 0194 13       		.uleb128 0x13
 3651 0195 00       		.byte	0
 3652 0196 00       		.byte	0
 3653 0197 1B       		.uleb128 0x1b
 3654 0198 35       		.uleb128 0x35
 3655 0199 00       		.byte	0
 3656 019a 49       		.uleb128 0x49
 3657 019b 13       		.uleb128 0x13
 3658 019c 00       		.byte	0
 3659 019d 00       		.byte	0
 3660 019e 1C       		.uleb128 0x1c
ARM GAS  C:\Users\DEVELO~1\AppData\Local\Temp\cc3dswDP.s 			page 66


 3661 019f 16       		.uleb128 0x16
 3662 01a0 00       		.byte	0
 3663 01a1 03       		.uleb128 0x3
 3664 01a2 0E       		.uleb128 0xe
 3665 01a3 3A       		.uleb128 0x3a
 3666 01a4 21       		.uleb128 0x21
 3667 01a5 0E       		.sleb128 14
 3668 01a6 3B       		.uleb128 0x3b
 3669 01a7 05       		.uleb128 0x5
 3670 01a8 39       		.uleb128 0x39
 3671 01a9 21       		.uleb128 0x21
 3672 01aa 03       		.sleb128 3
 3673 01ab 49       		.uleb128 0x49
 3674 01ac 13       		.uleb128 0x13
 3675 01ad 00       		.byte	0
 3676 01ae 00       		.byte	0
 3677 01af 1D       		.uleb128 0x1d
 3678 01b0 34       		.uleb128 0x34
 3679 01b1 00       		.byte	0
 3680 01b2 03       		.uleb128 0x3
 3681 01b3 0E       		.uleb128 0xe
 3682 01b4 3A       		.uleb128 0x3a
 3683 01b5 0B       		.uleb128 0xb
 3684 01b6 3B       		.uleb128 0x3b
 3685 01b7 0B       		.uleb128 0xb
 3686 01b8 39       		.uleb128 0x39
 3687 01b9 0B       		.uleb128 0xb
 3688 01ba 49       		.uleb128 0x49
 3689 01bb 13       		.uleb128 0x13
 3690 01bc 3F       		.uleb128 0x3f
 3691 01bd 19       		.uleb128 0x19
 3692 01be 3C       		.uleb128 0x3c
 3693 01bf 19       		.uleb128 0x19
 3694 01c0 00       		.byte	0
 3695 01c1 00       		.byte	0
 3696 01c2 1E       		.uleb128 0x1e
 3697 01c3 2E       		.uleb128 0x2e
 3698 01c4 00       		.byte	0
 3699 01c5 03       		.uleb128 0x3
 3700 01c6 0E       		.uleb128 0xe
 3701 01c7 3A       		.uleb128 0x3a
 3702 01c8 0B       		.uleb128 0xb
 3703 01c9 3B       		.uleb128 0x3b
 3704 01ca 0B       		.uleb128 0xb
 3705 01cb 39       		.uleb128 0x39
 3706 01cc 21       		.uleb128 0x21
 3707 01cd 19       		.sleb128 25
 3708 01ce 27       		.uleb128 0x27
 3709 01cf 19       		.uleb128 0x19
 3710 01d0 49       		.uleb128 0x49
 3711 01d1 13       		.uleb128 0x13
 3712 01d2 11       		.uleb128 0x11
 3713 01d3 01       		.uleb128 0x1
 3714 01d4 12       		.uleb128 0x12
 3715 01d5 06       		.uleb128 0x6
 3716 01d6 40       		.uleb128 0x40
 3717 01d7 18       		.uleb128 0x18
ARM GAS  C:\Users\DEVELO~1\AppData\Local\Temp\cc3dswDP.s 			page 67


 3718 01d8 7C       		.uleb128 0x7c
 3719 01d9 19       		.uleb128 0x19
 3720 01da 00       		.byte	0
 3721 01db 00       		.byte	0
 3722 01dc 1F       		.uleb128 0x1f
 3723 01dd 2E       		.uleb128 0x2e
 3724 01de 01       		.byte	0x1
 3725 01df 03       		.uleb128 0x3
 3726 01e0 0E       		.uleb128 0xe
 3727 01e1 3A       		.uleb128 0x3a
 3728 01e2 21       		.uleb128 0x21
 3729 01e3 03       		.sleb128 3
 3730 01e4 3B       		.uleb128 0x3b
 3731 01e5 05       		.uleb128 0x5
 3732 01e6 39       		.uleb128 0x39
 3733 01e7 21       		.uleb128 0x21
 3734 01e8 14       		.sleb128 20
 3735 01e9 27       		.uleb128 0x27
 3736 01ea 19       		.uleb128 0x19
 3737 01eb 11       		.uleb128 0x11
 3738 01ec 01       		.uleb128 0x1
 3739 01ed 12       		.uleb128 0x12
 3740 01ee 06       		.uleb128 0x6
 3741 01ef 40       		.uleb128 0x40
 3742 01f0 18       		.uleb128 0x18
 3743 01f1 7A       		.uleb128 0x7a
 3744 01f2 19       		.uleb128 0x19
 3745 01f3 01       		.uleb128 0x1
 3746 01f4 13       		.uleb128 0x13
 3747 01f5 00       		.byte	0
 3748 01f6 00       		.byte	0
 3749 01f7 20       		.uleb128 0x20
 3750 01f8 05       		.uleb128 0x5
 3751 01f9 00       		.byte	0
 3752 01fa 31       		.uleb128 0x31
 3753 01fb 13       		.uleb128 0x13
 3754 01fc 02       		.uleb128 0x2
 3755 01fd 18       		.uleb128 0x18
 3756 01fe 00       		.byte	0
 3757 01ff 00       		.byte	0
 3758 0200 21       		.uleb128 0x21
 3759 0201 2E       		.uleb128 0x2e
 3760 0202 00       		.byte	0
 3761 0203 03       		.uleb128 0x3
 3762 0204 0E       		.uleb128 0xe
 3763 0205 3A       		.uleb128 0x3a
 3764 0206 21       		.uleb128 0x21
 3765 0207 05       		.sleb128 5
 3766 0208 3B       		.uleb128 0x3b
 3767 0209 05       		.uleb128 0x5
 3768 020a 39       		.uleb128 0x39
 3769 020b 21       		.uleb128 0x21
 3770 020c 1B       		.sleb128 27
 3771 020d 27       		.uleb128 0x27
 3772 020e 19       		.uleb128 0x19
 3773 020f 20       		.uleb128 0x20
 3774 0210 21       		.uleb128 0x21
ARM GAS  C:\Users\DEVELO~1\AppData\Local\Temp\cc3dswDP.s 			page 68


 3775 0211 03       		.sleb128 3
 3776 0212 00       		.byte	0
 3777 0213 00       		.byte	0
 3778 0214 22       		.uleb128 0x22
 3779 0215 05       		.uleb128 0x5
 3780 0216 00       		.byte	0
 3781 0217 03       		.uleb128 0x3
 3782 0218 0E       		.uleb128 0xe
 3783 0219 3A       		.uleb128 0x3a
 3784 021a 21       		.uleb128 0x21
 3785 021b 01       		.sleb128 1
 3786 021c 3B       		.uleb128 0x3b
 3787 021d 05       		.uleb128 0x5
 3788 021e 39       		.uleb128 0x39
 3789 021f 0B       		.uleb128 0xb
 3790 0220 49       		.uleb128 0x49
 3791 0221 13       		.uleb128 0x13
 3792 0222 02       		.uleb128 0x2
 3793 0223 18       		.uleb128 0x18
 3794 0224 00       		.byte	0
 3795 0225 00       		.byte	0
 3796 0226 23       		.uleb128 0x23
 3797 0227 11       		.uleb128 0x11
 3798 0228 01       		.byte	0x1
 3799 0229 25       		.uleb128 0x25
 3800 022a 0E       		.uleb128 0xe
 3801 022b 13       		.uleb128 0x13
 3802 022c 0B       		.uleb128 0xb
 3803 022d 03       		.uleb128 0x3
 3804 022e 0E       		.uleb128 0xe
 3805 022f 1B       		.uleb128 0x1b
 3806 0230 0E       		.uleb128 0xe
 3807 0231 55       		.uleb128 0x55
 3808 0232 17       		.uleb128 0x17
 3809 0233 11       		.uleb128 0x11
 3810 0234 01       		.uleb128 0x1
 3811 0235 10       		.uleb128 0x10
 3812 0236 17       		.uleb128 0x17
 3813 0237 00       		.byte	0
 3814 0238 00       		.byte	0
 3815 0239 24       		.uleb128 0x24
 3816 023a 24       		.uleb128 0x24
 3817 023b 00       		.byte	0
 3818 023c 0B       		.uleb128 0xb
 3819 023d 0B       		.uleb128 0xb
 3820 023e 3E       		.uleb128 0x3e
 3821 023f 0B       		.uleb128 0xb
 3822 0240 03       		.uleb128 0x3
 3823 0241 08       		.uleb128 0x8
 3824 0242 00       		.byte	0
 3825 0243 00       		.byte	0
 3826 0244 25       		.uleb128 0x25
 3827 0245 13       		.uleb128 0x13
 3828 0246 01       		.byte	0x1
 3829 0247 03       		.uleb128 0x3
 3830 0248 0E       		.uleb128 0xe
 3831 0249 0B       		.uleb128 0xb
ARM GAS  C:\Users\DEVELO~1\AppData\Local\Temp\cc3dswDP.s 			page 69


 3832 024a 05       		.uleb128 0x5
 3833 024b 3A       		.uleb128 0x3a
 3834 024c 0B       		.uleb128 0xb
 3835 024d 3B       		.uleb128 0x3b
 3836 024e 05       		.uleb128 0x5
 3837 024f 39       		.uleb128 0x39
 3838 0250 0B       		.uleb128 0xb
 3839 0251 01       		.uleb128 0x1
 3840 0252 13       		.uleb128 0x13
 3841 0253 00       		.byte	0
 3842 0254 00       		.byte	0
 3843 0255 26       		.uleb128 0x26
 3844 0256 0F       		.uleb128 0xf
 3845 0257 00       		.byte	0
 3846 0258 0B       		.uleb128 0xb
 3847 0259 0B       		.uleb128 0xb
 3848 025a 00       		.byte	0
 3849 025b 00       		.byte	0
 3850 025c 27       		.uleb128 0x27
 3851 025d 13       		.uleb128 0x13
 3852 025e 01       		.byte	0x1
 3853 025f 0B       		.uleb128 0xb
 3854 0260 05       		.uleb128 0x5
 3855 0261 3A       		.uleb128 0x3a
 3856 0262 0B       		.uleb128 0xb
 3857 0263 3B       		.uleb128 0x3b
 3858 0264 0B       		.uleb128 0xb
 3859 0265 39       		.uleb128 0x39
 3860 0266 0B       		.uleb128 0xb
 3861 0267 01       		.uleb128 0x1
 3862 0268 13       		.uleb128 0x13
 3863 0269 00       		.byte	0
 3864 026a 00       		.byte	0
 3865 026b 28       		.uleb128 0x28
 3866 026c 34       		.uleb128 0x34
 3867 026d 00       		.byte	0
 3868 026e 03       		.uleb128 0x3
 3869 026f 08       		.uleb128 0x8
 3870 0270 3A       		.uleb128 0x3a
 3871 0271 0B       		.uleb128 0xb
 3872 0272 3B       		.uleb128 0x3b
 3873 0273 05       		.uleb128 0x5
 3874 0274 39       		.uleb128 0x39
 3875 0275 0B       		.uleb128 0xb
 3876 0276 49       		.uleb128 0x49
 3877 0277 13       		.uleb128 0x13
 3878 0278 3F       		.uleb128 0x3f
 3879 0279 19       		.uleb128 0x19
 3880 027a 3C       		.uleb128 0x3c
 3881 027b 19       		.uleb128 0x19
 3882 027c 00       		.byte	0
 3883 027d 00       		.byte	0
 3884 027e 29       		.uleb128 0x29
 3885 027f 15       		.uleb128 0x15
 3886 0280 01       		.byte	0x1
 3887 0281 27       		.uleb128 0x27
 3888 0282 19       		.uleb128 0x19
ARM GAS  C:\Users\DEVELO~1\AppData\Local\Temp\cc3dswDP.s 			page 70


 3889 0283 01       		.uleb128 0x1
 3890 0284 13       		.uleb128 0x13
 3891 0285 00       		.byte	0
 3892 0286 00       		.byte	0
 3893 0287 2A       		.uleb128 0x2a
 3894 0288 15       		.uleb128 0x15
 3895 0289 00       		.byte	0
 3896 028a 27       		.uleb128 0x27
 3897 028b 19       		.uleb128 0x19
 3898 028c 00       		.byte	0
 3899 028d 00       		.byte	0
 3900 028e 2B       		.uleb128 0x2b
 3901 028f 34       		.uleb128 0x34
 3902 0290 00       		.byte	0
 3903 0291 03       		.uleb128 0x3
 3904 0292 0E       		.uleb128 0xe
 3905 0293 3A       		.uleb128 0x3a
 3906 0294 0B       		.uleb128 0xb
 3907 0295 3B       		.uleb128 0x3b
 3908 0296 05       		.uleb128 0x5
 3909 0297 39       		.uleb128 0x39
 3910 0298 0B       		.uleb128 0xb
 3911 0299 49       		.uleb128 0x49
 3912 029a 13       		.uleb128 0x13
 3913 029b 3F       		.uleb128 0x3f
 3914 029c 19       		.uleb128 0x19
 3915 029d 3C       		.uleb128 0x3c
 3916 029e 19       		.uleb128 0x19
 3917 029f 00       		.byte	0
 3918 02a0 00       		.byte	0
 3919 02a1 2C       		.uleb128 0x2c
 3920 02a2 34       		.uleb128 0x34
 3921 02a3 00       		.byte	0
 3922 02a4 03       		.uleb128 0x3
 3923 02a5 08       		.uleb128 0x8
 3924 02a6 3A       		.uleb128 0x3a
 3925 02a7 0B       		.uleb128 0xb
 3926 02a8 3B       		.uleb128 0x3b
 3927 02a9 0B       		.uleb128 0xb
 3928 02aa 39       		.uleb128 0x39
 3929 02ab 0B       		.uleb128 0xb
 3930 02ac 49       		.uleb128 0x49
 3931 02ad 13       		.uleb128 0x13
 3932 02ae 3F       		.uleb128 0x3f
 3933 02af 19       		.uleb128 0x19
 3934 02b0 3C       		.uleb128 0x3c
 3935 02b1 19       		.uleb128 0x19
 3936 02b2 00       		.byte	0
 3937 02b3 00       		.byte	0
 3938 02b4 2D       		.uleb128 0x2d
 3939 02b5 34       		.uleb128 0x34
 3940 02b6 00       		.byte	0
 3941 02b7 03       		.uleb128 0x3
 3942 02b8 0E       		.uleb128 0xe
 3943 02b9 3A       		.uleb128 0x3a
 3944 02ba 0B       		.uleb128 0xb
 3945 02bb 3B       		.uleb128 0x3b
ARM GAS  C:\Users\DEVELO~1\AppData\Local\Temp\cc3dswDP.s 			page 71


 3946 02bc 05       		.uleb128 0x5
 3947 02bd 39       		.uleb128 0x39
 3948 02be 0B       		.uleb128 0xb
 3949 02bf 49       		.uleb128 0x49
 3950 02c0 13       		.uleb128 0x13
 3951 02c1 3F       		.uleb128 0x3f
 3952 02c2 19       		.uleb128 0x19
 3953 02c3 02       		.uleb128 0x2
 3954 02c4 18       		.uleb128 0x18
 3955 02c5 00       		.byte	0
 3956 02c6 00       		.byte	0
 3957 02c7 2E       		.uleb128 0x2e
 3958 02c8 34       		.uleb128 0x34
 3959 02c9 00       		.byte	0
 3960 02ca 47       		.uleb128 0x47
 3961 02cb 13       		.uleb128 0x13
 3962 02cc 3A       		.uleb128 0x3a
 3963 02cd 0B       		.uleb128 0xb
 3964 02ce 3B       		.uleb128 0x3b
 3965 02cf 05       		.uleb128 0x5
 3966 02d0 39       		.uleb128 0x39
 3967 02d1 0B       		.uleb128 0xb
 3968 02d2 02       		.uleb128 0x2
 3969 02d3 18       		.uleb128 0x18
 3970 02d4 00       		.byte	0
 3971 02d5 00       		.byte	0
 3972 02d6 2F       		.uleb128 0x2f
 3973 02d7 2E       		.uleb128 0x2e
 3974 02d8 00       		.byte	0
 3975 02d9 3F       		.uleb128 0x3f
 3976 02da 19       		.uleb128 0x19
 3977 02db 03       		.uleb128 0x3
 3978 02dc 0E       		.uleb128 0xe
 3979 02dd 3A       		.uleb128 0x3a
 3980 02de 0B       		.uleb128 0xb
 3981 02df 3B       		.uleb128 0x3b
 3982 02e0 0B       		.uleb128 0xb
 3983 02e1 39       		.uleb128 0x39
 3984 02e2 0B       		.uleb128 0xb
 3985 02e3 27       		.uleb128 0x27
 3986 02e4 19       		.uleb128 0x19
 3987 02e5 3C       		.uleb128 0x3c
 3988 02e6 19       		.uleb128 0x19
 3989 02e7 00       		.byte	0
 3990 02e8 00       		.byte	0
 3991 02e9 30       		.uleb128 0x30
 3992 02ea 2E       		.uleb128 0x2e
 3993 02eb 00       		.byte	0
 3994 02ec 3F       		.uleb128 0x3f
 3995 02ed 19       		.uleb128 0x19
 3996 02ee 03       		.uleb128 0x3
 3997 02ef 0E       		.uleb128 0xe
 3998 02f0 3A       		.uleb128 0x3a
 3999 02f1 0B       		.uleb128 0xb
 4000 02f2 3B       		.uleb128 0x3b
 4001 02f3 0B       		.uleb128 0xb
 4002 02f4 39       		.uleb128 0x39
ARM GAS  C:\Users\DEVELO~1\AppData\Local\Temp\cc3dswDP.s 			page 72


 4003 02f5 0B       		.uleb128 0xb
 4004 02f6 27       		.uleb128 0x27
 4005 02f7 19       		.uleb128 0x19
 4006 02f8 49       		.uleb128 0x49
 4007 02f9 13       		.uleb128 0x13
 4008 02fa 3C       		.uleb128 0x3c
 4009 02fb 19       		.uleb128 0x19
 4010 02fc 00       		.byte	0
 4011 02fd 00       		.byte	0
 4012 02fe 31       		.uleb128 0x31
 4013 02ff 2E       		.uleb128 0x2e
 4014 0300 01       		.byte	0x1
 4015 0301 03       		.uleb128 0x3
 4016 0302 0E       		.uleb128 0xe
 4017 0303 3A       		.uleb128 0x3a
 4018 0304 0B       		.uleb128 0xb
 4019 0305 3B       		.uleb128 0x3b
 4020 0306 05       		.uleb128 0x5
 4021 0307 39       		.uleb128 0x39
 4022 0308 0B       		.uleb128 0xb
 4023 0309 27       		.uleb128 0x27
 4024 030a 19       		.uleb128 0x19
 4025 030b 11       		.uleb128 0x11
 4026 030c 01       		.uleb128 0x1
 4027 030d 12       		.uleb128 0x12
 4028 030e 06       		.uleb128 0x6
 4029 030f 40       		.uleb128 0x40
 4030 0310 18       		.uleb128 0x18
 4031 0311 7C       		.uleb128 0x7c
 4032 0312 19       		.uleb128 0x19
 4033 0313 01       		.uleb128 0x1
 4034 0314 13       		.uleb128 0x13
 4035 0315 00       		.byte	0
 4036 0316 00       		.byte	0
 4037 0317 32       		.uleb128 0x32
 4038 0318 34       		.uleb128 0x34
 4039 0319 00       		.byte	0
 4040 031a 03       		.uleb128 0x3
 4041 031b 08       		.uleb128 0x8
 4042 031c 3A       		.uleb128 0x3a
 4043 031d 0B       		.uleb128 0xb
 4044 031e 3B       		.uleb128 0x3b
 4045 031f 05       		.uleb128 0x5
 4046 0320 39       		.uleb128 0x39
 4047 0321 0B       		.uleb128 0xb
 4048 0322 49       		.uleb128 0x49
 4049 0323 13       		.uleb128 0x13
 4050 0324 02       		.uleb128 0x2
 4051 0325 18       		.uleb128 0x18
 4052 0326 00       		.byte	0
 4053 0327 00       		.byte	0
 4054 0328 33       		.uleb128 0x33
 4055 0329 34       		.uleb128 0x34
 4056 032a 00       		.byte	0
 4057 032b 03       		.uleb128 0x3
 4058 032c 08       		.uleb128 0x8
 4059 032d 3A       		.uleb128 0x3a
ARM GAS  C:\Users\DEVELO~1\AppData\Local\Temp\cc3dswDP.s 			page 73


 4060 032e 0B       		.uleb128 0xb
 4061 032f 3B       		.uleb128 0x3b
 4062 0330 0B       		.uleb128 0xb
 4063 0331 39       		.uleb128 0x39
 4064 0332 0B       		.uleb128 0xb
 4065 0333 49       		.uleb128 0x49
 4066 0334 13       		.uleb128 0x13
 4067 0335 02       		.uleb128 0x2
 4068 0336 18       		.uleb128 0x18
 4069 0337 00       		.byte	0
 4070 0338 00       		.byte	0
 4071 0339 34       		.uleb128 0x34
 4072 033a 2E       		.uleb128 0x2e
 4073 033b 00       		.byte	0
 4074 033c 03       		.uleb128 0x3
 4075 033d 0E       		.uleb128 0xe
 4076 033e 3A       		.uleb128 0x3a
 4077 033f 0B       		.uleb128 0xb
 4078 0340 3B       		.uleb128 0x3b
 4079 0341 0B       		.uleb128 0xb
 4080 0342 39       		.uleb128 0x39
 4081 0343 0B       		.uleb128 0xb
 4082 0344 27       		.uleb128 0x27
 4083 0345 19       		.uleb128 0x19
 4084 0346 11       		.uleb128 0x11
 4085 0347 01       		.uleb128 0x1
 4086 0348 12       		.uleb128 0x12
 4087 0349 06       		.uleb128 0x6
 4088 034a 40       		.uleb128 0x40
 4089 034b 18       		.uleb128 0x18
 4090 034c 7C       		.uleb128 0x7c
 4091 034d 19       		.uleb128 0x19
 4092 034e 00       		.byte	0
 4093 034f 00       		.byte	0
 4094 0350 35       		.uleb128 0x35
 4095 0351 05       		.uleb128 0x5
 4096 0352 00       		.byte	0
 4097 0353 03       		.uleb128 0x3
 4098 0354 08       		.uleb128 0x8
 4099 0355 3A       		.uleb128 0x3a
 4100 0356 0B       		.uleb128 0xb
 4101 0357 3B       		.uleb128 0x3b
 4102 0358 0B       		.uleb128 0xb
 4103 0359 39       		.uleb128 0x39
 4104 035a 0B       		.uleb128 0xb
 4105 035b 49       		.uleb128 0x49
 4106 035c 13       		.uleb128 0x13
 4107 035d 02       		.uleb128 0x2
 4108 035e 18       		.uleb128 0x18
 4109 035f 00       		.byte	0
 4110 0360 00       		.byte	0
 4111 0361 36       		.uleb128 0x36
 4112 0362 2E       		.uleb128 0x2e
 4113 0363 00       		.byte	0
 4114 0364 03       		.uleb128 0x3
 4115 0365 0E       		.uleb128 0xe
 4116 0366 3A       		.uleb128 0x3a
ARM GAS  C:\Users\DEVELO~1\AppData\Local\Temp\cc3dswDP.s 			page 74


 4117 0367 0B       		.uleb128 0xb
 4118 0368 3B       		.uleb128 0x3b
 4119 0369 05       		.uleb128 0x5
 4120 036a 39       		.uleb128 0x39
 4121 036b 0B       		.uleb128 0xb
 4122 036c 27       		.uleb128 0x27
 4123 036d 19       		.uleb128 0x19
 4124 036e 49       		.uleb128 0x49
 4125 036f 13       		.uleb128 0x13
 4126 0370 11       		.uleb128 0x11
 4127 0371 01       		.uleb128 0x1
 4128 0372 12       		.uleb128 0x12
 4129 0373 06       		.uleb128 0x6
 4130 0374 40       		.uleb128 0x40
 4131 0375 18       		.uleb128 0x18
 4132 0376 7C       		.uleb128 0x7c
 4133 0377 19       		.uleb128 0x19
 4134 0378 00       		.byte	0
 4135 0379 00       		.byte	0
 4136 037a 37       		.uleb128 0x37
 4137 037b 2E       		.uleb128 0x2e
 4138 037c 00       		.byte	0
 4139 037d 03       		.uleb128 0x3
 4140 037e 0E       		.uleb128 0xe
 4141 037f 3A       		.uleb128 0x3a
 4142 0380 0B       		.uleb128 0xb
 4143 0381 3B       		.uleb128 0x3b
 4144 0382 05       		.uleb128 0x5
 4145 0383 39       		.uleb128 0x39
 4146 0384 0B       		.uleb128 0xb
 4147 0385 27       		.uleb128 0x27
 4148 0386 19       		.uleb128 0x19
 4149 0387 49       		.uleb128 0x49
 4150 0388 13       		.uleb128 0x13
 4151 0389 11       		.uleb128 0x11
 4152 038a 01       		.uleb128 0x1
 4153 038b 12       		.uleb128 0x12
 4154 038c 06       		.uleb128 0x6
 4155 038d 40       		.uleb128 0x40
 4156 038e 18       		.uleb128 0x18
 4157 038f 7A       		.uleb128 0x7a
 4158 0390 19       		.uleb128 0x19
 4159 0391 00       		.byte	0
 4160 0392 00       		.byte	0
 4161 0393 38       		.uleb128 0x38
 4162 0394 34       		.uleb128 0x34
 4163 0395 00       		.byte	0
 4164 0396 03       		.uleb128 0x3
 4165 0397 0E       		.uleb128 0xe
 4166 0398 49       		.uleb128 0x49
 4167 0399 13       		.uleb128 0x13
 4168 039a 34       		.uleb128 0x34
 4169 039b 19       		.uleb128 0x19
 4170 039c 00       		.byte	0
 4171 039d 00       		.byte	0
 4172 039e 39       		.uleb128 0x39
 4173 039f 2E       		.uleb128 0x2e
ARM GAS  C:\Users\DEVELO~1\AppData\Local\Temp\cc3dswDP.s 			page 75


 4174 03a0 01       		.byte	0x1
 4175 03a1 03       		.uleb128 0x3
 4176 03a2 0E       		.uleb128 0xe
 4177 03a3 3A       		.uleb128 0x3a
 4178 03a4 0B       		.uleb128 0xb
 4179 03a5 3B       		.uleb128 0x3b
 4180 03a6 05       		.uleb128 0x5
 4181 03a7 39       		.uleb128 0x39
 4182 03a8 0B       		.uleb128 0xb
 4183 03a9 27       		.uleb128 0x27
 4184 03aa 19       		.uleb128 0x19
 4185 03ab 20       		.uleb128 0x20
 4186 03ac 0B       		.uleb128 0xb
 4187 03ad 01       		.uleb128 0x1
 4188 03ae 13       		.uleb128 0x13
 4189 03af 00       		.byte	0
 4190 03b0 00       		.byte	0
 4191 03b1 3A       		.uleb128 0x3a
 4192 03b2 05       		.uleb128 0x5
 4193 03b3 00       		.byte	0
 4194 03b4 03       		.uleb128 0x3
 4195 03b5 0E       		.uleb128 0xe
 4196 03b6 3A       		.uleb128 0x3a
 4197 03b7 0B       		.uleb128 0xb
 4198 03b8 3B       		.uleb128 0x3b
 4199 03b9 05       		.uleb128 0x5
 4200 03ba 39       		.uleb128 0x39
 4201 03bb 0B       		.uleb128 0xb
 4202 03bc 49       		.uleb128 0x49
 4203 03bd 13       		.uleb128 0x13
 4204 03be 00       		.byte	0
 4205 03bf 00       		.byte	0
 4206 03c0 3B       		.uleb128 0x3b
 4207 03c1 2E       		.uleb128 0x2e
 4208 03c2 01       		.byte	0x1
 4209 03c3 03       		.uleb128 0x3
 4210 03c4 0E       		.uleb128 0xe
 4211 03c5 3A       		.uleb128 0x3a
 4212 03c6 0B       		.uleb128 0xb
 4213 03c7 3B       		.uleb128 0x3b
 4214 03c8 05       		.uleb128 0x5
 4215 03c9 39       		.uleb128 0x39
 4216 03ca 0B       		.uleb128 0xb
 4217 03cb 27       		.uleb128 0x27
 4218 03cc 19       		.uleb128 0x19
 4219 03cd 49       		.uleb128 0x49
 4220 03ce 13       		.uleb128 0x13
 4221 03cf 11       		.uleb128 0x11
 4222 03d0 01       		.uleb128 0x1
 4223 03d1 12       		.uleb128 0x12
 4224 03d2 06       		.uleb128 0x6
 4225 03d3 40       		.uleb128 0x40
 4226 03d4 18       		.uleb128 0x18
 4227 03d5 7A       		.uleb128 0x7a
 4228 03d6 19       		.uleb128 0x19
 4229 03d7 00       		.byte	0
 4230 03d8 00       		.byte	0
ARM GAS  C:\Users\DEVELO~1\AppData\Local\Temp\cc3dswDP.s 			page 76


 4231 03d9 00       		.byte	0
 4232              		.section	.debug_aranges,"",%progbits
 4233 0000 74000000 		.4byte	0x74
 4234 0004 0200     		.2byte	0x2
 4235 0006 00000000 		.4byte	.Ldebug_info0
 4236 000a 04       		.byte	0x4
 4237 000b 00       		.byte	0
 4238 000c 0000     		.2byte	0
 4239 000e 0000     		.2byte	0
 4240 0010 00000000 		.4byte	.LFB8
 4241 0014 1A000000 		.4byte	.LFE8-.LFB8
 4242 0018 00000000 		.4byte	.LFB196
 4243 001c 0E000000 		.4byte	.LFE196-.LFB196
 4244 0020 00000000 		.4byte	.LFB202
 4245 0024 1E000000 		.4byte	.LFE202-.LFB202
 4246 0028 00000000 		.4byte	.LFB203
 4247 002c 1E000000 		.4byte	.LFE203-.LFB203
 4248 0030 00000000 		.4byte	.LFB209
 4249 0034 0E000000 		.4byte	.LFE209-.LFB209
 4250 0038 00000000 		.4byte	.LFB229
 4251 003c 14000000 		.4byte	.LFE229-.LFB229
 4252 0040 00000000 		.4byte	.LFB230
 4253 0044 10000000 		.4byte	.LFE230-.LFB230
 4254 0048 00000000 		.4byte	.LFB436
 4255 004c 1A000000 		.4byte	.LFE436-.LFB436
 4256 0050 00000000 		.4byte	.LFB437
 4257 0054 3C010000 		.4byte	.LFE437-.LFB437
 4258 0058 00000000 		.4byte	.LFB438
 4259 005c 80020000 		.4byte	.LFE438-.LFB438
 4260 0060 00000000 		.4byte	.LFB439
 4261 0064 B8000000 		.4byte	.LFE439-.LFB439
 4262 0068 00000000 		.4byte	.LFB440
 4263 006c 6C010000 		.4byte	.LFE440-.LFB440
 4264 0070 00000000 		.4byte	0
 4265 0074 00000000 		.4byte	0
 4266              		.section	.debug_rnglists,"",%progbits
 4267              	.Ldebug_ranges0:
 4268 0000 55000000 		.4byte	.Ldebug_ranges3-.Ldebug_ranges2
 4269              	.Ldebug_ranges2:
 4270 0004 0500     		.2byte	0x5
 4271 0006 04       		.byte	0x4
 4272 0007 00       		.byte	0
 4273 0008 00000000 		.4byte	0
 4274              	.LLRL0:
 4275 000c 07       		.byte	0x7
 4276 000d 00000000 		.4byte	.LFB8
 4277 0011 1A       		.uleb128 .LFE8-.LFB8
 4278 0012 07       		.byte	0x7
 4279 0013 00000000 		.4byte	.LFB196
 4280 0017 0E       		.uleb128 .LFE196-.LFB196
 4281 0018 07       		.byte	0x7
 4282 0019 00000000 		.4byte	.LFB202
 4283 001d 1E       		.uleb128 .LFE202-.LFB202
 4284 001e 07       		.byte	0x7
 4285 001f 00000000 		.4byte	.LFB203
 4286 0023 1E       		.uleb128 .LFE203-.LFB203
 4287 0024 07       		.byte	0x7
ARM GAS  C:\Users\DEVELO~1\AppData\Local\Temp\cc3dswDP.s 			page 77


 4288 0025 00000000 		.4byte	.LFB209
 4289 0029 0E       		.uleb128 .LFE209-.LFB209
 4290 002a 07       		.byte	0x7
 4291 002b 00000000 		.4byte	.LFB229
 4292 002f 14       		.uleb128 .LFE229-.LFB229
 4293 0030 07       		.byte	0x7
 4294 0031 00000000 		.4byte	.LFB230
 4295 0035 10       		.uleb128 .LFE230-.LFB230
 4296 0036 07       		.byte	0x7
 4297 0037 00000000 		.4byte	.LFB436
 4298 003b 1A       		.uleb128 .LFE436-.LFB436
 4299 003c 07       		.byte	0x7
 4300 003d 00000000 		.4byte	.LFB437
 4301 0041 BC02     		.uleb128 .LFE437-.LFB437
 4302 0043 07       		.byte	0x7
 4303 0044 00000000 		.4byte	.LFB438
 4304 0048 8005     		.uleb128 .LFE438-.LFB438
 4305 004a 07       		.byte	0x7
 4306 004b 00000000 		.4byte	.LFB439
 4307 004f B801     		.uleb128 .LFE439-.LFB439
 4308 0051 07       		.byte	0x7
 4309 0052 00000000 		.4byte	.LFB440
 4310 0056 EC02     		.uleb128 .LFE440-.LFB440
 4311 0058 00       		.byte	0
 4312              	.Ldebug_ranges3:
 4313              		.section	.debug_line,"",%progbits
 4314              	.Ldebug_line0:
 4315 0000 28060000 		.section	.debug_str,"MS",%progbits,1
 4315      03007B03 
 4315      00000201 
 4315      FB0E0D00 
 4315      01010101 
 4316              	.LASF122:
 4317 0000 7466756E 		.ascii	"tfunc_t\000"
 4317      635F7400 
 4318              	.LASF115:
 4319 0008 72656164 		.ascii	"ready_list_t\000"
 4319      795F6C69 
 4319      73745F74 
 4319      00
 4320              	.LASF4:
 4321 0015 73697A65 		.ascii	"size_t\000"
 4321      5F7400
 4322              	.LASF104:
 4323 001c 7264796D 		.ascii	"rdymsg\000"
 4323      736700
 4324              	.LASF52:
 4325 0023 72666375 		.ascii	"rfcu\000"
 4325      00
 4326              	.LASF163:
 4327 0028 72745F74 		.ascii	"rt_test_005_003_execute\000"
 4327      6573745F 
 4327      3030355F 
 4327      3030335F 
 4327      65786563 
 4328              	.LASF5:
 4329 0040 5F5F7569 		.ascii	"__uint8_t\000"
ARM GAS  C:\Users\DEVELO~1\AppData\Local\Temp\cc3dswDP.s 			page 78


 4329      6E74385F 
 4329      7400
 4330              	.LASF72:
 4331 004a 70726576 		.ascii	"prev\000"
 4331      00
 4332              	.LASF91:
 4333 004f 706F7274 		.ascii	"port_intctx\000"
 4333      5F696E74 
 4333      63747800 
 4334              	.LASF49:
 4335 005b 76746C69 		.ascii	"vtlist\000"
 4335      737400
 4336              	.LASF83:
 4337 0062 74797065 		.ascii	"type\000"
 4337      00
 4338              	.LASF11:
 4339 0067 6C6F6E67 		.ascii	"long int\000"
 4339      20696E74 
 4339      00
 4340              	.LASF86:
 4341 0070 74726163 		.ascii	"trace_event_t\000"
 4341      655F6576 
 4341      656E745F 
 4341      7400
 4342              	.LASF81:
 4343 007e 68616C74 		.ascii	"halt\000"
 4343      00
 4344              	.LASF105:
 4345 0083 65786974 		.ascii	"exitcode\000"
 4345      636F6465 
 4345      00
 4346              	.LASF54:
 4347 008c 6D61696E 		.ascii	"mainthread\000"
 4347      74687265 
 4347      616400
 4348              	.LASF107:
 4349 0097 73656E74 		.ascii	"sentmsg\000"
 4349      6D736700 
 4350              	.LASF78:
 4351 009f 64656C74 		.ascii	"delta\000"
 4351      6100
 4352              	.LASF69:
 4353 00a5 6E657874 		.ascii	"next\000"
 4353      00
 4354              	.LASF136:
 4355 00aa 746F6B65 		.ascii	"tokens_buffer\000"
 4355      6E735F62 
 4355      75666665 
 4355      7200
 4356              	.LASF1:
 4357 00b8 6C6F6E67 		.ascii	"long long int\000"
 4357      206C6F6E 
 4357      6720696E 
 4357      7400
 4358              	.LASF3:
 4359 00c6 7369676E 		.ascii	"signed char\000"
 4359      65642063 
ARM GAS  C:\Users\DEVELO~1\AppData\Local\Temp\cc3dswDP.s 			page 79


 4359      68617200 
 4360              	.LASF13:
 4361 00d2 6C6F6E67 		.ascii	"long unsigned int\000"
 4361      20756E73 
 4361      69676E65 
 4361      6420696E 
 4361      7400
 4362              	.LASF77:
 4363 00e4 63685F64 		.ascii	"ch_delta_list\000"
 4363      656C7461 
 4363      5F6C6973 
 4363      7400
 4364              	.LASF15:
 4365 00f2 6C6F6E67 		.ascii	"long long unsigned int\000"
 4365      206C6F6E 
 4365      6720756E 
 4365      7369676E 
 4365      65642069 
 4366              	.LASF161:
 4367 0109 74657374 		.ascii	"test_emit_token\000"
 4367      5F656D69 
 4367      745F746F 
 4367      6B656E00 
 4368              	.LASF185:
 4369 0119 62617365 		.ascii	"basePri\000"
 4369      50726900 
 4370              	.LASF177:
 4371 0121 474E5520 		.ascii	"GNU C17 11.3.1 20220712 -mcpu=cortex-m7 -mthumb -mf"
 4371      43313720 
 4371      31312E33 
 4371      2E312032 
 4371      30323230 
 4372 0154 6C6F6174 		.ascii	"loat-abi=soft -march=armv7e-m -ggdb -O0 -ffunction-"
 4372      2D616269 
 4372      3D736F66 
 4372      74202D6D 
 4372      61726368 
 4373 0187 73656374 		.ascii	"sections -fdata-sections -fno-common\000"
 4373      696F6E73 
 4373      202D6664 
 4373      6174612D 
 4373      73656374 
 4374              	.LASF156:
 4375 01ac 5F5F7465 		.ascii	"__test_assert_sequence\000"
 4375      73745F61 
 4375      73736572 
 4375      745F7365 
 4375      7175656E 
 4376              	.LASF139:
 4377 01c3 63685F74 		.ascii	"ch_test_context_t\000"
 4377      6573745F 
 4377      636F6E74 
 4377      6578745F 
 4377      7400
 4378              	.LASF36:
 4379 01d5 73746174 		.ascii	"state\000"
 4379      6500
ARM GAS  C:\Users\DEVELO~1\AppData\Local\Temp\cc3dswDP.s 			page 80


 4380              	.LASF145:
 4381 01db 74657374 		.ascii	"testsequence_t\000"
 4381      73657175 
 4381      656E6365 
 4381      5F7400
 4382              	.LASF132:
 4383 01ea 676C6F62 		.ascii	"global_fail\000"
 4383      616C5F66 
 4383      61696C00 
 4384              	.LASF158:
 4385 01f6 5F5F7465 		.ascii	"__test_assert_time_window\000"
 4385      73745F61 
 4385      73736572 
 4385      745F7469 
 4385      6D655F77 
 4386              	.LASF24:
 4387 0210 74737461 		.ascii	"tstate_t\000"
 4387      74655F74 
 4387      00
 4388              	.LASF55:
 4389 0219 74726163 		.ascii	"trace_buffer\000"
 4389      655F6275 
 4389      66666572 
 4389      00
 4390              	.LASF57:
 4391 0226 63685F72 		.ascii	"ch_rfcu\000"
 4391      66637500 
 4392              	.LASF65:
 4393 022e 73797369 		.ascii	"sysinterval_t\000"
 4393      6E746572 
 4393      76616C5F 
 4393      7400
 4394              	.LASF172:
 4395 023c 706F7274 		.ascii	"port_unlock\000"
 4395      5F756E6C 
 4395      6F636B00 
 4396              	.LASF71:
 4397 0248 63685F71 		.ascii	"ch_queue\000"
 4397      75657565 
 4397      00
 4398              	.LASF137:
 4399 0251 70757463 		.ascii	"putchar\000"
 4399      68617200 
 4400              	.LASF17:
 4401 0259 75696E74 		.ascii	"uint16_t\000"
 4401      31365F74 
 4401      00
 4402              	.LASF90:
 4403 0262 74726163 		.ascii	"trace_buffer_t\000"
 4403      655F6275 
 4403      66666572 
 4403      5F7400
 4404              	.LASF135:
 4405 0271 746F6B70 		.ascii	"tokp\000"
 4405      00
 4406              	.LASF98:
 4407 0276 63685F72 		.ascii	"ch_registry\000"
ARM GAS  C:\Users\DEVELO~1\AppData\Local\Temp\cc3dswDP.s 			page 81


 4407      65676973 
 4407      74727900 
 4408              	.LASF176:
 4409 0282 696E7465 		.ascii	"interval\000"
 4409      7276616C 
 4409      00
 4410              	.LASF12:
 4411 028b 5F5F7569 		.ascii	"__uint32_t\000"
 4411      6E743332 
 4411      5F7400
 4412              	.LASF58:
 4413 0296 6D61736B 		.ascii	"mask\000"
 4413      00
 4414              	.LASF70:
 4415 029b 63685F71 		.ascii	"ch_queue_t\000"
 4415      75657565 
 4415      5F7400
 4416              	.LASF39:
 4417 02a6 77616974 		.ascii	"waiting\000"
 4417      696E6700 
 4418              	.LASF117:
 4419 02ae 6D61696E 		.ascii	"mainthread_base\000"
 4419      74687265 
 4419      61645F62 
 4419      61736500 
 4420              	.LASF123:
 4421 02be 6D757465 		.ascii	"mutex_t\000"
 4421      785F7400 
 4422              	.LASF129:
 4423 02c6 42617365 		.ascii	"BaseSequentialStream\000"
 4423      53657175 
 4423      656E7469 
 4423      616C5374 
 4423      7265616D 
 4424              	.LASF155:
 4425 02db 63685468 		.ascii	"chThdSetPriority\000"
 4425      64536574 
 4425      5072696F 
 4425      72697479 
 4425      00
 4426              	.LASF51:
 4427 02ec 636F7265 		.ascii	"core_id\000"
 4427      5F696400 
 4428              	.LASF29:
 4429 02f4 636E745F 		.ascii	"cnt_t\000"
 4429      7400
 4430              	.LASF0:
 4431 02fa 756E7369 		.ascii	"unsigned int\000"
 4431      676E6564 
 4431      20696E74 
 4431      00
 4432              	.LASF164:
 4433 0307 72745F74 		.ascii	"rt_test_005_001_execute\000"
 4433      6573745F 
 4433      3030355F 
 4433      3030315F 
 4433      65786563 
ARM GAS  C:\Users\DEVELO~1\AppData\Local\Temp\cc3dswDP.s 			page 82


 4434              	.LASF119:
 4435 031f 69646C65 		.ascii	"idlethread_base\000"
 4435      74687265 
 4435      61645F62 
 4435      61736500 
 4436              	.LASF108:
 4437 032f 77747365 		.ascii	"wtsemp\000"
 4437      6D7000
 4438              	.LASF63:
 4439 0336 73797374 		.ascii	"system_debug_t\000"
 4439      656D5F64 
 4439      65627567 
 4439      5F7400
 4440              	.LASF106:
 4441 0345 77747472 		.ascii	"wttrp\000"
 4441      7000
 4442              	.LASF32:
 4443 034b 72717565 		.ascii	"rqueue\000"
 4443      756500
 4444              	.LASF141:
 4445 0352 74656172 		.ascii	"teardown\000"
 4445      646F776E 
 4445      00
 4446              	.LASF179:
 4447 035b 433A5C50 		.ascii	"C:\\PROJET\\ChibiOS project\\ChibiOS_21.11.4\\demos"
 4447      524F4A45 
 4447      545C4368 
 4447      6962694F 
 4447      53207072 
 4448 038a 5C53544D 		.ascii	"\\STM32\\RT-STM32H743ZI_REV_XY-NUCLEO144_Quartz8M\000"
 4448      33325C52 
 4448      542D5354 
 4448      4D333248 
 4448      3734335A 
 4449              	.LASF66:
 4450 03ba 74696D65 		.ascii	"time_conv_t\000"
 4450      5F636F6E 
 4450      765F7400 
 4451              	.LASF34:
 4452 03c6 6E616D65 		.ascii	"name\000"
 4452      00
 4453              	.LASF99:
 4454 03cb 71756575 		.ascii	"queue\000"
 4454      6500
 4455              	.LASF88:
 4456 03d1 73697A65 		.ascii	"size\000"
 4456      00
 4457              	.LASF9:
 4458 03d6 73686F72 		.ascii	"short unsigned int\000"
 4458      7420756E 
 4458      7369676E 
 4458      65642069 
 4458      6E7400
 4459              	.LASF168:
 4460 03e9 63685654 		.ascii	"chVTGetSystemTimeX\000"
 4460      47657453 
 4460      79737465 
ARM GAS  C:\Users\DEVELO~1\AppData\Local\Temp\cc3dswDP.s 			page 83


 4460      6D54696D 
 4460      655800
 4461              	.LASF46:
 4462 03fc 63685F74 		.ascii	"ch_thread\000"
 4462      68726561 
 4462      6400
 4463              	.LASF134:
 4464 0406 6661696C 		.ascii	"failure_message\000"
 4464      7572655F 
 4464      6D657373 
 4464      61676500 
 4465              	.LASF27:
 4466 0416 6D73675F 		.ascii	"msg_t\000"
 4466      7400
 4467              	.LASF41:
 4468 041c 6570656E 		.ascii	"epending\000"
 4468      64696E67 
 4468      00
 4469              	.LASF147:
 4470 0425 72745F74 		.ascii	"rt_test_sequence_005\000"
 4470      6573745F 
 4470      73657175 
 4470      656E6365 
 4470      5F303035 
 4471              	.LASF23:
 4472 043a 746D6F64 		.ascii	"tmode_t\000"
 4472      655F7400 
 4473              	.LASF175:
 4474 0442 73797374 		.ascii	"systime\000"
 4474      696D6500 
 4475              	.LASF68:
 4476 044a 63685F6C 		.ascii	"ch_list\000"
 4476      69737400 
 4477              	.LASF113:
 4478 0452 63685F72 		.ascii	"ch_ready_list\000"
 4478      65616479 
 4478      5F6C6973 
 4478      7400
 4479              	.LASF28:
 4480 0460 6576656E 		.ascii	"eventmask_t\000"
 4480      746D6173 
 4480      6B5F7400 
 4481              	.LASF7:
 4482 046c 73686F72 		.ascii	"short int\000"
 4482      7420696E 
 4482      7400
 4483              	.LASF10:
 4484 0476 5F5F696E 		.ascii	"__int32_t\000"
 4484      7433325F 
 4484      7400
 4485              	.LASF59:
 4486 0480 72666375 		.ascii	"rfcu_t\000"
 4486      5F7400
 4487              	.LASF97:
 4488 0487 76697274 		.ascii	"virtual_timers_list_t\000"
 4488      75616C5F 
 4488      74696D65 
ARM GAS  C:\Users\DEVELO~1\AppData\Local\Temp\cc3dswDP.s 			page 84


 4488      72735F6C 
 4488      6973745F 
 4489              	.LASF40:
 4490 049d 6D736771 		.ascii	"msgqueue\000"
 4490      75657565 
 4490      00
 4491              	.LASF22:
 4492 04a6 73746B61 		.ascii	"stkalign_t\000"
 4492      6C69676E 
 4492      5F7400
 4493              	.LASF143:
 4494 04b1 74657374 		.ascii	"testcase_t\000"
 4494      63617365 
 4494      5F7400
 4495              	.LASF157:
 4496 04bc 63685468 		.ascii	"chThdCreateStatic\000"
 4496      64437265 
 4496      61746553 
 4496      74617469 
 4496      6300
 4497              	.LASF84:
 4498 04ce 72747374 		.ascii	"rtstamp\000"
 4498      616D7000 
 4499              	.LASF96:
 4500 04d6 6C617374 		.ascii	"laststamp\000"
 4500      7374616D 
 4500      7000
 4501              	.LASF127:
 4502 04e0 77726974 		.ascii	"write\000"
 4502      6500
 4503              	.LASF43:
 4504 04e6 7265616C 		.ascii	"realprio\000"
 4504      7072696F 
 4504      00
 4505              	.LASF56:
 4506 04ef 72666375 		.ascii	"rfcu_mask_t\000"
 4506      5F6D6173 
 4506      6B5F7400 
 4507              	.LASF130:
 4508 04fb 74657374 		.ascii	"test_putchar_t\000"
 4508      5F707574 
 4508      63686172 
 4508      5F7400
 4509              	.LASF101:
 4510 050a 74687265 		.ascii	"thread_reference_t\000"
 4510      61645F72 
 4510      65666572 
 4510      656E6365 
 4510      5F7400
 4511              	.LASF93:
 4512 051d 63685F76 		.ascii	"ch_virtual_timers_list\000"
 4512      69727475 
 4512      616C5F74 
 4512      696D6572 
 4512      735F6C69 
 4513              	.LASF184:
 4514 0534 5F5F7365 		.ascii	"__set_BASEPRI\000"
ARM GAS  C:\Users\DEVELO~1\AppData\Local\Temp\cc3dswDP.s 			page 85


 4514      745F4241 
 4514      53455052 
 4514      4900
 4515              	.LASF67:
 4516 0542 63685F6C 		.ascii	"ch_list_t\000"
 4516      6973745F 
 4516      7400
 4517              	.LASF87:
 4518 054c 73757370 		.ascii	"suspended\000"
 4518      656E6465 
 4518      6400
 4519              	.LASF178:
 4520 0556 2E2E2F2E 		.ascii	"../../../test/rt/source/test/rt_test_sequence_005.c"
 4520      2E2F2E2E 
 4520      2F746573 
 4520      742F7274 
 4520      2F736F75 
 4521 0589 00       		.ascii	"\000"
 4522              	.LASF131:
 4523 058a 63757272 		.ascii	"current_step\000"
 4523      656E745F 
 4523      73746570 
 4523      00
 4524              	.LASF20:
 4525 0597 75696E74 		.ascii	"uint64_t\000"
 4525      36345F74 
 4525      00
 4526              	.LASF180:
 4527 05a0 74657374 		.ascii	"test_wait_threads\000"
 4527      5F776169 
 4527      745F7468 
 4527      72656164 
 4527      7300
 4528              	.LASF116:
 4529 05b2 63685F6F 		.ascii	"ch_os_instance_config\000"
 4529      735F696E 
 4529      7374616E 
 4529      63655F63 
 4529      6F6E6669 
 4530              	.LASF92:
 4531 05c8 706F7274 		.ascii	"port_context\000"
 4531      5F636F6E 
 4531      74657874 
 4531      00
 4532              	.LASF166:
 4533 05d5 63685468 		.ascii	"chThdGetPriorityX\000"
 4533      64476574 
 4533      5072696F 
 4533      72697479 
 4533      5800
 4534              	.LASF140:
 4535 05e7 73657475 		.ascii	"setup\000"
 4535      7000
 4536              	.LASF85:
 4537 05ed 74696D65 		.ascii	"time\000"
 4537      00
 4538              	.LASF75:
ARM GAS  C:\Users\DEVELO~1\AppData\Local\Temp\cc3dswDP.s 			page 86


 4539 05f2 7072696F 		.ascii	"prio\000"
 4539      00
 4540              	.LASF159:
 4541 05f7 63685468 		.ascii	"chThdSleepUntil\000"
 4541      64536C65 
 4541      6570556E 
 4541      74696C00 
 4542              	.LASF114:
 4543 0607 63757272 		.ascii	"current\000"
 4543      656E7400 
 4544              	.LASF146:
 4545 060f 63687465 		.ascii	"chtest\000"
 4545      737400
 4546              	.LASF133:
 4547 0616 6C6F6361 		.ascii	"local_fail\000"
 4547      6C5F6661 
 4547      696C00
 4548              	.LASF14:
 4549 0621 5F5F7569 		.ascii	"__uint64_t\000"
 4549      6E743634 
 4549      5F7400
 4550              	.LASF174:
 4551 062c 63685469 		.ascii	"chTimeAddX\000"
 4551      6D654164 
 4551      645800
 4552              	.LASF30:
 4553 0637 636F7265 		.ascii	"core_id_t\000"
 4553      5F69645F 
 4553      7400
 4554              	.LASF25:
 4555 0641 74726566 		.ascii	"trefs_t\000"
 4555      735F7400 
 4556              	.LASF38:
 4557 0649 72656673 		.ascii	"refs\000"
 4557      00
 4558              	.LASF82:
 4559 064e 75736572 		.ascii	"user\000"
 4559      00
 4560              	.LASF142:
 4561 0653 65786563 		.ascii	"execute\000"
 4561      75746500 
 4562              	.LASF26:
 4563 065b 74707269 		.ascii	"tprio_t\000"
 4563      6F5F7400 
 4564              	.LASF165:
 4565 0663 74687265 		.ascii	"thread\000"
 4565      616400
 4566              	.LASF60:
 4567 066a 63685F73 		.ascii	"ch_system_debug\000"
 4567      79737465 
 4567      6D5F6465 
 4567      62756700 
 4568              	.LASF124:
 4569 067a 5F426F6F 		.ascii	"_Bool\000"
 4569      6C00
 4570              	.LASF18:
 4571 0680 696E7433 		.ascii	"int32_t\000"
ARM GAS  C:\Users\DEVELO~1\AppData\Local\Temp\cc3dswDP.s 			page 87


 4571      325F7400 
 4572              	.LASF6:
 4573 0688 756E7369 		.ascii	"unsigned char\000"
 4573      676E6564 
 4573      20636861 
 4573      7200
 4574              	.LASF149:
 4575 0696 72745F74 		.ascii	"rt_test_005_001\000"
 4575      6573745F 
 4575      3030355F 
 4575      30303100 
 4576              	.LASF150:
 4577 06a6 72745F74 		.ascii	"rt_test_005_002\000"
 4577      6573745F 
 4577      3030355F 
 4577      30303200 
 4578              	.LASF151:
 4579 06b6 72745F74 		.ascii	"rt_test_005_003\000"
 4579      6573745F 
 4579      3030355F 
 4579      30303300 
 4580              	.LASF152:
 4581 06c6 72745F74 		.ascii	"rt_test_005_004\000"
 4581      6573745F 
 4581      3030355F 
 4581      30303400 
 4582              	.LASF154:
 4583 06d6 5F5F7465 		.ascii	"__test_assert\000"
 4583      73745F61 
 4583      73736572 
 4583      7400
 4584              	.LASF95:
 4585 06e4 6C617374 		.ascii	"lasttime\000"
 4585      74696D65 
 4585      00
 4586              	.LASF148:
 4587 06ed 74687265 		.ascii	"threads\000"
 4587      61647300 
 4588              	.LASF79:
 4589 06f5 77746F62 		.ascii	"wtobjp\000"
 4589      6A7000
 4590              	.LASF110:
 4591 06fc 65776D61 		.ascii	"ewmask\000"
 4591      736B00
 4592              	.LASF181:
 4593 0703 73744765 		.ascii	"stGetCounter\000"
 4593      74436F75 
 4593      6E746572 
 4593      00
 4594              	.LASF183:
 4595 0710 5F5F6675 		.ascii	"__func__\000"
 4595      6E635F5F 
 4595      00
 4596              	.LASF170:
 4597 0719 63685379 		.ascii	"chSysLock\000"
 4597      734C6F63 
 4597      6B00
ARM GAS  C:\Users\DEVELO~1\AppData\Local\Temp\cc3dswDP.s 			page 88


 4598              	.LASF80:
 4599 0723 72656173 		.ascii	"reason\000"
 4599      6F6E00
 4600              	.LASF111:
 4601 072a 63685F73 		.ascii	"ch_semaphore\000"
 4601      656D6170 
 4601      686F7265 
 4601      00
 4602              	.LASF144:
 4603 0737 63617365 		.ascii	"cases\000"
 4603      7300
 4604              	.LASF100:
 4605 073d 72656769 		.ascii	"registry_t\000"
 4605      73747279 
 4605      5F7400
 4606              	.LASF182:
 4607 0748 72745F74 		.ascii	"rt_test_005_002_execute\000"
 4607      6573745F 
 4607      3030355F 
 4607      3030325F 
 4607      65786563 
 4608              	.LASF19:
 4609 0760 75696E74 		.ascii	"uint32_t\000"
 4609      33325F74 
 4609      00
 4610              	.LASF109:
 4611 0769 77746D74 		.ascii	"wtmtxp\000"
 4611      787000
 4612              	.LASF21:
 4613 0770 706F7274 		.ascii	"port_stkalign_t\000"
 4613      5F73746B 
 4613      616C6967 
 4613      6E5F7400 
 4614              	.LASF33:
 4615 0780 6F776E65 		.ascii	"owner\000"
 4615      7200
 4616              	.LASF138:
 4617 0786 73747265 		.ascii	"stream\000"
 4617      616D00
 4618              	.LASF2:
 4619 078d 6C6F6E67 		.ascii	"long double\000"
 4619      20646F75 
 4619      626C6500 
 4620              	.LASF35:
 4621 0799 77616261 		.ascii	"wabase\000"
 4621      736500
 4622              	.LASF62:
 4623 07a0 63686172 		.ascii	"char\000"
 4623      00
 4624              	.LASF53:
 4625 07a5 636F6E66 		.ascii	"config\000"
 4625      696700
 4626              	.LASF8:
 4627 07ac 5F5F7569 		.ascii	"__uint16_t\000"
 4627      6E743136 
 4627      5F7400
 4628              	.LASF125:
ARM GAS  C:\Users\DEVELO~1\AppData\Local\Temp\cc3dswDP.s 			page 89


 4629 07b7 42617365 		.ascii	"BaseSequentialStreamVMT\000"
 4629      53657175 
 4629      656E7469 
 4629      616C5374 
 4629      7265616D 
 4630              	.LASF31:
 4631 07cf 74687265 		.ascii	"thread_t\000"
 4631      61645F74 
 4631      00
 4632              	.LASF94:
 4633 07d8 646C6973 		.ascii	"dlist\000"
 4633      7400
 4634              	.LASF64:
 4635 07de 73797374 		.ascii	"systime_t\000"
 4635      696D655F 
 4635      7400
 4636              	.LASF89:
 4637 07e8 62756666 		.ascii	"buffer\000"
 4637      657200
 4638              	.LASF73:
 4639 07ef 63685F70 		.ascii	"ch_priority_queue_t\000"
 4639      72696F72 
 4639      6974795F 
 4639      71756575 
 4639      655F7400 
 4640              	.LASF61:
 4641 0803 70616E69 		.ascii	"panic_msg\000"
 4641      635F6D73 
 4641      6700
 4642              	.LASF103:
 4643 080d 70717565 		.ascii	"pqueue\000"
 4643      756500
 4644              	.LASF47:
 4645 0814 63685F6F 		.ascii	"ch_os_instance\000"
 4645      735F696E 
 4645      7374616E 
 4645      636500
 4646              	.LASF45:
 4647 0823 6F735F69 		.ascii	"os_instance_t\000"
 4647      6E737461 
 4647      6E63655F 
 4647      7400
 4648              	.LASF50:
 4649 0831 7265676C 		.ascii	"reglist\000"
 4649      69737400 
 4650              	.LASF74:
 4651 0839 63685F70 		.ascii	"ch_priority_queue\000"
 4651      72696F72 
 4651      6974795F 
 4651      71756575 
 4651      6500
 4652              	.LASF171:
 4653 084b 706F7274 		.ascii	"port_timer_get_time\000"
 4653      5F74696D 
 4653      65725F67 
 4653      65745F74 
 4653      696D6500 
ARM GAS  C:\Users\DEVELO~1\AppData\Local\Temp\cc3dswDP.s 			page 90


 4654              	.LASF76:
 4655 085f 63685F64 		.ascii	"ch_delta_list_t\000"
 4655      656C7461 
 4655      5F6C6973 
 4655      745F7400 
 4656              	.LASF118:
 4657 086f 6D61696E 		.ascii	"mainthread_end\000"
 4657      74687265 
 4657      61645F65 
 4657      6E6400
 4658              	.LASF44:
 4659 087e 6D706F6F 		.ascii	"mpool\000"
 4659      6C00
 4660              	.LASF121:
 4661 0884 6F735F69 		.ascii	"os_instance_config_t\000"
 4661      6E737461 
 4661      6E63655F 
 4661      636F6E66 
 4661      69675F74 
 4662              	.LASF160:
 4663 0899 63685468 		.ascii	"chThdSleep\000"
 4663      64536C65 
 4663      657000
 4664              	.LASF112:
 4665 08a4 63685F6D 		.ascii	"ch_mutex\000"
 4665      75746578 
 4665      00
 4666              	.LASF48:
 4667 08ad 726C6973 		.ascii	"rlist\000"
 4667      7400
 4668              	.LASF167:
 4669 08b3 63685468 		.ascii	"chThdGetSelfX\000"
 4669      64476574 
 4669      53656C66 
 4669      5800
 4670              	.LASF16:
 4671 08c1 75696E74 		.ascii	"uint8_t\000"
 4671      385F7400 
 4672              	.LASF37:
 4673 08c9 666C6167 		.ascii	"flags\000"
 4673      7300
 4674              	.LASF128:
 4675 08cf 72656164 		.ascii	"read\000"
 4675      00
 4676              	.LASF162:
 4677 08d4 72745F74 		.ascii	"rt_test_005_004_execute\000"
 4677      6573745F 
 4677      3030355F 
 4677      3030345F 
 4677      65786563 
 4678              	.LASF169:
 4679 08ec 63685379 		.ascii	"chSysUnlock\000"
 4679      73556E6C 
 4679      6F636B00 
 4680              	.LASF126:
 4681 08f8 696E7374 		.ascii	"instance_offset\000"
 4681      616E6365 
ARM GAS  C:\Users\DEVELO~1\AppData\Local\Temp\cc3dswDP.s 			page 91


 4681      5F6F6666 
 4681      73657400 
 4682              	.LASF102:
 4683 0908 6C697374 		.ascii	"list\000"
 4683      00
 4684              	.LASF173:
 4685 090d 706F7274 		.ascii	"port_lock\000"
 4685      5F6C6F63 
 4685      6B00
 4686              	.LASF120:
 4687 0917 69646C65 		.ascii	"idlethread_end\000"
 4687      74687265 
 4687      61645F65 
 4687      6E6400
 4688              	.LASF42:
 4689 0926 6D74786C 		.ascii	"mtxlist\000"
 4689      69737400 
 4690              	.LASF153:
 4691 092e 72745F74 		.ascii	"rt_test_sequence_005_array\000"
 4691      6573745F 
 4691      73657175 
 4691      656E6365 
 4691      5F303035 
 4692              		.ident	"GCC: (Arm GNU Toolchain 11.3.Rel1) 11.3.1 20220712"
ARM GAS  C:\Users\DEVELO~1\AppData\Local\Temp\cc3dswDP.s 			page 92


DEFINED SYMBOLS
                            *ABS*:00000000 rt_test_sequence_005.c
C:\Users\DEVELO~1\AppData\Local\Temp\cc3dswDP.s:18     .text.chTimeAddX:00000000 $t
C:\Users\DEVELO~1\AppData\Local\Temp\cc3dswDP.s:23     .text.chTimeAddX:00000000 chTimeAddX
C:\Users\DEVELO~1\AppData\Local\Temp\cc3dswDP.s:59     .text.port_timer_get_time:00000000 $t
C:\Users\DEVELO~1\AppData\Local\Temp\cc3dswDP.s:64     .text.port_timer_get_time:00000000 port_timer_get_time
C:\Users\DEVELO~1\AppData\Local\Temp\cc3dswDP.s:87     .text.chSysLock:00000000 $t
C:\Users\DEVELO~1\AppData\Local\Temp\cc3dswDP.s:92     .text.chSysLock:00000000 chSysLock
C:\Users\DEVELO~1\AppData\Local\Temp\cc3dswDP.s:146    .text.chSysUnlock:00000000 $t
C:\Users\DEVELO~1\AppData\Local\Temp\cc3dswDP.s:151    .text.chSysUnlock:00000000 chSysUnlock
C:\Users\DEVELO~1\AppData\Local\Temp\cc3dswDP.s:202    .text.chVTGetSystemTimeX:00000000 $t
C:\Users\DEVELO~1\AppData\Local\Temp\cc3dswDP.s:207    .text.chVTGetSystemTimeX:00000000 chVTGetSystemTimeX
C:\Users\DEVELO~1\AppData\Local\Temp\cc3dswDP.s:230    .text.chThdGetSelfX:00000000 $t
C:\Users\DEVELO~1\AppData\Local\Temp\cc3dswDP.s:235    .text.chThdGetSelfX:00000000 chThdGetSelfX
C:\Users\DEVELO~1\AppData\Local\Temp\cc3dswDP.s:263    .text.chThdGetSelfX:00000010 $d
C:\Users\DEVELO~1\AppData\Local\Temp\cc3dswDP.s:268    .text.chThdGetPriorityX:00000000 $t
C:\Users\DEVELO~1\AppData\Local\Temp\cc3dswDP.s:273    .text.chThdGetPriorityX:00000000 chThdGetPriorityX
C:\Users\DEVELO~1\AppData\Local\Temp\cc3dswDP.s:297    .text.thread:00000000 $t
C:\Users\DEVELO~1\AppData\Local\Temp\cc3dswDP.s:302    .text.thread:00000000 thread
C:\Users\DEVELO~1\AppData\Local\Temp\cc3dswDP.s:335    .rodata:00000000 $d
C:\Users\DEVELO~1\AppData\Local\Temp\cc3dswDP.s:339    .text.rt_test_005_001_execute:00000000 $t
C:\Users\DEVELO~1\AppData\Local\Temp\cc3dswDP.s:344    .text.rt_test_005_001_execute:00000000 rt_test_005_001_execute
C:\Users\DEVELO~1\AppData\Local\Temp\cc3dswDP.s:503    .text.rt_test_005_001_execute:00000134 $d
C:\Users\DEVELO~1\AppData\Local\Temp\cc3dswDP.s:513    .rodata.rt_test_005_001:00000000 $d
C:\Users\DEVELO~1\AppData\Local\Temp\cc3dswDP.s:516    .rodata.rt_test_005_001:00000000 rt_test_005_001
C:\Users\DEVELO~1\AppData\Local\Temp\cc3dswDP.s:544    .text.rt_test_005_002_execute:00000000 $t
C:\Users\DEVELO~1\AppData\Local\Temp\cc3dswDP.s:549    .text.rt_test_005_002_execute:00000000 rt_test_005_002_execute
C:\Users\DEVELO~1\AppData\Local\Temp\cc3dswDP.s:883    .text.rt_test_005_002_execute:00000254 $d
C:\Users\DEVELO~1\AppData\Local\Temp\cc3dswDP.s:902    .rodata.rt_test_005_002:00000000 $d
C:\Users\DEVELO~1\AppData\Local\Temp\cc3dswDP.s:905    .rodata.rt_test_005_002:00000000 rt_test_005_002
C:\Users\DEVELO~1\AppData\Local\Temp\cc3dswDP.s:918    .text.rt_test_005_003_execute:00000000 $t
C:\Users\DEVELO~1\AppData\Local\Temp\cc3dswDP.s:923    .text.rt_test_005_003_execute:00000000 rt_test_005_003_execute
C:\Users\DEVELO~1\AppData\Local\Temp\cc3dswDP.s:1028   .text.rt_test_005_003_execute:000000ac $d
C:\Users\DEVELO~1\AppData\Local\Temp\cc3dswDP.s:1039   .rodata.rt_test_005_003:00000000 $d
C:\Users\DEVELO~1\AppData\Local\Temp\cc3dswDP.s:1042   .rodata.rt_test_005_003:00000000 rt_test_005_003
C:\Users\DEVELO~1\AppData\Local\Temp\cc3dswDP.s:1055   .text.rt_test_005_004_execute:00000000 $t
C:\Users\DEVELO~1\AppData\Local\Temp\cc3dswDP.s:1060   .text.rt_test_005_004_execute:00000000 rt_test_005_004_execute
C:\Users\DEVELO~1\AppData\Local\Temp\cc3dswDP.s:1252   .text.rt_test_005_004_execute:00000158 $d
C:\Users\DEVELO~1\AppData\Local\Temp\cc3dswDP.s:1265   .rodata.rt_test_005_004:00000000 $d
C:\Users\DEVELO~1\AppData\Local\Temp\cc3dswDP.s:1268   .rodata.rt_test_005_004:00000000 rt_test_005_004
C:\Users\DEVELO~1\AppData\Local\Temp\cc3dswDP.s:1278   .rodata.rt_test_sequence_005_array:00000000 rt_test_sequence_005_array
C:\Users\DEVELO~1\AppData\Local\Temp\cc3dswDP.s:1275   .rodata.rt_test_sequence_005_array:00000000 $d
C:\Users\DEVELO~1\AppData\Local\Temp\cc3dswDP.s:1293   .rodata.rt_test_sequence_005:00000000 rt_test_sequence_005
C:\Users\DEVELO~1\AppData\Local\Temp\cc3dswDP.s:1290   .rodata.rt_test_sequence_005:00000000 $d

UNDEFINED SYMBOLS
stGetCounter
ch0
test_emit_token
chThdSleep
__test_assert_time_window
chThdSleepUntil
chtest
chThdCreateStatic
test_wait_threads
__test_assert_sequence
wa
ARM GAS  C:\Users\DEVELO~1\AppData\Local\Temp\cc3dswDP.s 			page 93


threads
chThdSetPriority
__test_assert
