ARM GAS  C:\Users\DEVELO~1\AppData\Local\Temp\ccZ9dFx3.s 			page 1


   1              		.cpu cortex-m7
   2              		.arch armv7e-m
   3              		.fpu softvfp
   4              		.eabi_attribute 20, 1
   5              		.eabi_attribute 21, 1
   6              		.eabi_attribute 23, 3
   7              		.eabi_attribute 24, 1
   8              		.eabi_attribute 25, 1
   9              		.eabi_attribute 26, 1
  10              		.eabi_attribute 30, 6
  11              		.eabi_attribute 34, 1
  12              		.eabi_attribute 18, 4
  13              		.file	"rt_test_sequence_007.c"
  14              		.text
  15              	.Ltext0:
  16              		.cfi_sections	.debug_frame
  17              		.section	.text.chTimeAddX,"ax",%progbits
  18              		.align	1
  19              		.syntax unified
  20              		.thumb
  21              		.thumb_func
  22              		.type	chTimeAddX, %function
  23              	chTimeAddX:
  24              	.LFB8:
  25              		.file 1 "../../../os/rt/include/chtime.h"
  26              		.loc 1 443 60
  27              		.cfi_startproc
  28              		@ args = 0, pretend = 0, frame = 8
  29              		@ frame_needed = 1, uses_anonymous_args = 0
  30              		@ link register save eliminated.
  31 0000 80B4     		push	{r7}
  32              		.cfi_def_cfa_offset 4
  33              		.cfi_offset 7, -4
  34 0002 83B0     		sub	sp, sp, #12
  35              		.cfi_def_cfa_offset 16
  36 0004 00AF     		add	r7, sp, #0
  37              		.cfi_def_cfa_register 7
  38 0006 7860     		str	r0, [r7, #4]
  39 0008 3960     		str	r1, [r7]
  40              		.loc 1 449 18
  41 000a 7A68     		ldr	r2, [r7, #4]
  42 000c 3B68     		ldr	r3, [r7]
  43 000e 1344     		add	r3, r3, r2
  44              		.loc 1 450 1
  45 0010 1846     		mov	r0, r3
  46 0012 0C37     		adds	r7, r7, #12
  47              		.cfi_def_cfa_offset 4
  48 0014 BD46     		mov	sp, r7
  49              		.cfi_def_cfa_register 13
  50              		@ sp needed
  51 0016 80BC     		pop	{r7}
  52              		.cfi_restore 7
  53              		.cfi_def_cfa_offset 0
  54 0018 7047     		bx	lr
  55              		.cfi_endproc
  56              	.LFE8:
  57              		.size	chTimeAddX, .-chTimeAddX
ARM GAS  C:\Users\DEVELO~1\AppData\Local\Temp\ccZ9dFx3.s 			page 2


  58              		.section	.text.ch_queue_isempty,"ax",%progbits
  59              		.align	1
  60              		.syntax unified
  61              		.thumb
  62              		.thumb_func
  63              		.type	ch_queue_isempty, %function
  64              	ch_queue_isempty:
  65              	.LFB20:
  66              		.file 2 "../../../os/rt/include/chlists.h"
  67              		.loc 2 236 59
  68              		.cfi_startproc
  69              		@ args = 0, pretend = 0, frame = 8
  70              		@ frame_needed = 1, uses_anonymous_args = 0
  71              		@ link register save eliminated.
  72 0000 80B4     		push	{r7}
  73              		.cfi_def_cfa_offset 4
  74              		.cfi_offset 7, -4
  75 0002 83B0     		sub	sp, sp, #12
  76              		.cfi_def_cfa_offset 16
  77 0004 00AF     		add	r7, sp, #0
  78              		.cfi_def_cfa_register 7
  79 0006 7860     		str	r0, [r7, #4]
  80              		.loc 2 238 19
  81 0008 7B68     		ldr	r3, [r7, #4]
  82 000a 1B68     		ldr	r3, [r3]
  83              		.loc 2 238 10
  84 000c 7A68     		ldr	r2, [r7, #4]
  85 000e 9A42     		cmp	r2, r3
  86 0010 0CBF     		ite	eq
  87 0012 0123     		moveq	r3, #1
  88 0014 0023     		movne	r3, #0
  89 0016 DBB2     		uxtb	r3, r3
  90              		.loc 2 239 1
  91 0018 1846     		mov	r0, r3
  92 001a 0C37     		adds	r7, r7, #12
  93              		.cfi_def_cfa_offset 4
  94 001c BD46     		mov	sp, r7
  95              		.cfi_def_cfa_register 13
  96              		@ sp needed
  97 001e 80BC     		pop	{r7}
  98              		.cfi_restore 7
  99              		.cfi_def_cfa_offset 0
 100 0020 7047     		bx	lr
 101              		.cfi_endproc
 102              	.LFE20:
 103              		.size	ch_queue_isempty, .-ch_queue_isempty
 104              		.section	.text.chSysLock,"ax",%progbits
 105              		.align	1
 106              		.syntax unified
 107              		.thumb
 108              		.thumb_func
 109              		.type	chSysLock, %function
 110              	chSysLock:
 111              	.LFB202:
 112              		.file 3 "../../../os/rt/include/chsys.h"
 113              		.loc 3 407 36
 114              		.cfi_startproc
ARM GAS  C:\Users\DEVELO~1\AppData\Local\Temp\ccZ9dFx3.s 			page 3


 115              		@ args = 0, pretend = 0, frame = 8
 116              		@ frame_needed = 1, uses_anonymous_args = 0
 117              		@ link register save eliminated.
 118 0000 80B4     		push	{r7}
 119              		.cfi_def_cfa_offset 4
 120              		.cfi_offset 7, -4
 121 0002 83B0     		sub	sp, sp, #12
 122              		.cfi_def_cfa_offset 16
 123 0004 00AF     		add	r7, sp, #0
 124              		.cfi_def_cfa_register 7
 125 0006 3023     		movs	r3, #48
 126 0008 7B60     		str	r3, [r7, #4]
 127              	.LBB14:
 128              	.LBB15:
 129              	.LBB16:
 130              	.LBB17:
 131              		.file 4 "../../../os/common/ext/ARM/CMSIS/Core/Include/cmsis_gcc.h"
 132              		.loc 4 493 3
 133 000a 7B68     		ldr	r3, [r7, #4]
 134              		.syntax unified
 135              	@ 493 "../../../os/common/ext/ARM/CMSIS/Core/Include/cmsis_gcc.h" 1
 136 000c 83F31188 		MSR basepri, r3
 137              	@ 0 "" 2
 138              		.loc 4 494 1
 139              		.thumb
 140              		.syntax unified
 141 0010 00BF     		nop
 142              	.LBE17:
 143              	.LBE16:
 144              		.file 5 "../../../os/common/ports/ARMv7-M/chcore.h"
 145              		.loc 5 840 1
 146 0012 00BF     		nop
 147              	.LBE15:
 148              	.LBE14:
 149              		.loc 3 412 1
 150 0014 00BF     		nop
 151 0016 0C37     		adds	r7, r7, #12
 152              		.cfi_def_cfa_offset 4
 153 0018 BD46     		mov	sp, r7
 154              		.cfi_def_cfa_register 13
 155              		@ sp needed
 156 001a 80BC     		pop	{r7}
 157              		.cfi_restore 7
 158              		.cfi_def_cfa_offset 0
 159 001c 7047     		bx	lr
 160              		.cfi_endproc
 161              	.LFE202:
 162              		.size	chSysLock, .-chSysLock
 163              		.section	.text.chSysUnlock,"ax",%progbits
 164              		.align	1
 165              		.syntax unified
 166              		.thumb
 167              		.thumb_func
 168              		.type	chSysUnlock, %function
 169              	chSysUnlock:
 170              	.LFB203:
 171              		.loc 3 421 38
ARM GAS  C:\Users\DEVELO~1\AppData\Local\Temp\ccZ9dFx3.s 			page 4


 172              		.cfi_startproc
 173              		@ args = 0, pretend = 0, frame = 8
 174              		@ frame_needed = 1, uses_anonymous_args = 0
 175              		@ link register save eliminated.
 176 0000 80B4     		push	{r7}
 177              		.cfi_def_cfa_offset 4
 178              		.cfi_offset 7, -4
 179 0002 83B0     		sub	sp, sp, #12
 180              		.cfi_def_cfa_offset 16
 181 0004 00AF     		add	r7, sp, #0
 182              		.cfi_def_cfa_register 7
 183 0006 0023     		movs	r3, #0
 184 0008 7B60     		str	r3, [r7, #4]
 185              	.LBB18:
 186              	.LBB19:
 187              	.LBB20:
 188              	.LBB21:
 189              		.loc 4 493 3
 190 000a 7B68     		ldr	r3, [r7, #4]
 191              		.syntax unified
 192              	@ 493 "../../../os/common/ext/ARM/CMSIS/Core/Include/cmsis_gcc.h" 1
 193 000c 83F31188 		MSR basepri, r3
 194              	@ 0 "" 2
 195              		.loc 4 494 1
 196              		.thumb
 197              		.syntax unified
 198 0010 00BF     		nop
 199              	.LBE21:
 200              	.LBE20:
 201              		.loc 5 854 1
 202 0012 00BF     		nop
 203              	.LBE19:
 204              	.LBE18:
 205              		.loc 3 435 1
 206 0014 00BF     		nop
 207 0016 0C37     		adds	r7, r7, #12
 208              		.cfi_def_cfa_offset 4
 209 0018 BD46     		mov	sp, r7
 210              		.cfi_def_cfa_register 13
 211              		@ sp needed
 212 001a 80BC     		pop	{r7}
 213              		.cfi_restore 7
 214              		.cfi_def_cfa_offset 0
 215 001c 7047     		bx	lr
 216              		.cfi_endproc
 217              	.LFE203:
 218              		.size	chSysUnlock, .-chSysUnlock
 219              		.section	.text.chThdGetSelfX,"ax",%progbits
 220              		.align	1
 221              		.syntax unified
 222              		.thumb
 223              		.thumb_func
 224              		.type	chThdGetSelfX, %function
 225              	chThdGetSelfX:
 226              	.LFB229:
 227              		.file 6 "../../../os/rt/include/chthreads.h"
 228              		.loc 6 341 45
ARM GAS  C:\Users\DEVELO~1\AppData\Local\Temp\ccZ9dFx3.s 			page 5


 229              		.cfi_startproc
 230              		@ args = 0, pretend = 0, frame = 0
 231              		@ frame_needed = 1, uses_anonymous_args = 0
 232              		@ link register save eliminated.
 233 0000 80B4     		push	{r7}
 234              		.cfi_def_cfa_offset 4
 235              		.cfi_offset 7, -4
 236 0002 00AF     		add	r7, sp, #0
 237              		.cfi_def_cfa_register 7
 238              		.loc 6 343 10
 239 0004 024B     		ldr	r3, .L9
 240 0006 DB68     		ldr	r3, [r3, #12]
 241              		.loc 6 344 1
 242 0008 1846     		mov	r0, r3
 243 000a BD46     		mov	sp, r7
 244              		.cfi_def_cfa_register 13
 245              		@ sp needed
 246 000c 80BC     		pop	{r7}
 247              		.cfi_restore 7
 248              		.cfi_def_cfa_offset 0
 249 000e 7047     		bx	lr
 250              	.L10:
 251              		.align	2
 252              	.L9:
 253 0010 00000000 		.word	ch0
 254              		.cfi_endproc
 255              	.LFE229:
 256              		.size	chThdGetSelfX, .-chThdGetSelfX
 257              		.section	.text.chThdGetPriorityX,"ax",%progbits
 258              		.align	1
 259              		.syntax unified
 260              		.thumb
 261              		.thumb_func
 262              		.type	chThdGetPriorityX, %function
 263              	chThdGetPriorityX:
 264              	.LFB230:
 265              		.loc 6 354 47
 266              		.cfi_startproc
 267              		@ args = 0, pretend = 0, frame = 0
 268              		@ frame_needed = 1, uses_anonymous_args = 0
 269 0000 80B5     		push	{r7, lr}
 270              		.cfi_def_cfa_offset 8
 271              		.cfi_offset 7, -8
 272              		.cfi_offset 14, -4
 273 0002 00AF     		add	r7, sp, #0
 274              		.cfi_def_cfa_register 7
 275              		.loc 6 356 10
 276 0004 FFF7FEFF 		bl	chThdGetSelfX
 277 0008 0346     		mov	r3, r0
 278              		.loc 6 356 37
 279 000a 9B68     		ldr	r3, [r3, #8]
 280              		.loc 6 357 1
 281 000c 1846     		mov	r0, r3
 282 000e 80BD     		pop	{r7, pc}
 283              		.cfi_endproc
 284              	.LFE230:
 285              		.size	chThdGetPriorityX, .-chThdGetPriorityX
ARM GAS  C:\Users\DEVELO~1\AppData\Local\Temp\ccZ9dFx3.s 			page 6


 286              		.section	.text.chSemReset,"ax",%progbits
 287              		.align	1
 288              		.syntax unified
 289              		.thumb
 290              		.thumb_func
 291              		.type	chSemReset, %function
 292              	chSemReset:
 293              	.LFB243:
 294              		.file 7 "../../../os/rt/include/chsem.h"
 295              		.loc 7 123 57
 296              		.cfi_startproc
 297              		@ args = 0, pretend = 0, frame = 8
 298              		@ frame_needed = 1, uses_anonymous_args = 0
 299 0000 80B5     		push	{r7, lr}
 300              		.cfi_def_cfa_offset 8
 301              		.cfi_offset 7, -8
 302              		.cfi_offset 14, -4
 303 0002 82B0     		sub	sp, sp, #8
 304              		.cfi_def_cfa_offset 16
 305 0004 00AF     		add	r7, sp, #0
 306              		.cfi_def_cfa_register 7
 307 0006 7860     		str	r0, [r7, #4]
 308 0008 3960     		str	r1, [r7]
 309              		.loc 7 125 3
 310 000a 6FF00102 		mvn	r2, #1
 311 000e 3968     		ldr	r1, [r7]
 312 0010 7868     		ldr	r0, [r7, #4]
 313 0012 FFF7FEFF 		bl	chSemResetWithMessage
 314              		.loc 7 126 1
 315 0016 00BF     		nop
 316 0018 0837     		adds	r7, r7, #8
 317              		.cfi_def_cfa_offset 8
 318 001a BD46     		mov	sp, r7
 319              		.cfi_def_cfa_register 13
 320              		@ sp needed
 321 001c 80BD     		pop	{r7, pc}
 322              		.cfi_endproc
 323              	.LFE243:
 324              		.size	chSemReset, .-chSemReset
 325              		.section	.text.chSemGetCounterI,"ax",%progbits
 326              		.align	1
 327              		.syntax unified
 328              		.thumb
 329              		.thumb_func
 330              		.type	chSemGetCounterI, %function
 331              	chSemGetCounterI:
 332              	.LFB247:
 333              		.loc 7 189 61
 334              		.cfi_startproc
 335              		@ args = 0, pretend = 0, frame = 8
 336              		@ frame_needed = 1, uses_anonymous_args = 0
 337              		@ link register save eliminated.
 338 0000 80B4     		push	{r7}
 339              		.cfi_def_cfa_offset 4
 340              		.cfi_offset 7, -4
 341 0002 83B0     		sub	sp, sp, #12
 342              		.cfi_def_cfa_offset 16
ARM GAS  C:\Users\DEVELO~1\AppData\Local\Temp\ccZ9dFx3.s 			page 7


 343 0004 00AF     		add	r7, sp, #0
 344              		.cfi_def_cfa_register 7
 345 0006 7860     		str	r0, [r7, #4]
 346              		.loc 7 193 12
 347 0008 7B68     		ldr	r3, [r7, #4]
 348 000a 9B68     		ldr	r3, [r3, #8]
 349              		.loc 7 194 1
 350 000c 1846     		mov	r0, r3
 351 000e 0C37     		adds	r7, r7, #12
 352              		.cfi_def_cfa_offset 4
 353 0010 BD46     		mov	sp, r7
 354              		.cfi_def_cfa_register 13
 355              		@ sp needed
 356 0012 80BC     		pop	{r7}
 357              		.cfi_restore 7
 358              		.cfi_def_cfa_offset 0
 359 0014 7047     		bx	lr
 360              		.cfi_endproc
 361              	.LFE247:
 362              		.size	chSemGetCounterI, .-chSemGetCounterI
 363              		.section	.text.chBSemObjectInit,"ax",%progbits
 364              		.align	1
 365              		.syntax unified
 366              		.thumb
 367              		.thumb_func
 368              		.type	chBSemObjectInit, %function
 369              	chBSemObjectInit:
 370              	.LFB265:
 371              		.file 8 "../../../os/oslib/include/chbsem.h"
 372              		.loc 8 124 74
 373              		.cfi_startproc
 374              		@ args = 0, pretend = 0, frame = 8
 375              		@ frame_needed = 1, uses_anonymous_args = 0
 376 0000 80B5     		push	{r7, lr}
 377              		.cfi_def_cfa_offset 8
 378              		.cfi_offset 7, -8
 379              		.cfi_offset 14, -4
 380 0002 82B0     		sub	sp, sp, #8
 381              		.cfi_def_cfa_offset 16
 382 0004 00AF     		add	r7, sp, #0
 383              		.cfi_def_cfa_register 7
 384 0006 7860     		str	r0, [r7, #4]
 385 0008 0B46     		mov	r3, r1
 386 000a FB70     		strb	r3, [r7, #3]
 387              		.loc 8 126 3
 388 000c 7A68     		ldr	r2, [r7, #4]
 389              		.loc 8 126 47
 390 000e FB78     		ldrb	r3, [r7, #3]
 391 0010 83F00103 		eor	r3, r3, #1
 392 0014 DBB2     		uxtb	r3, r3
 393              		.loc 8 126 3
 394 0016 1946     		mov	r1, r3
 395 0018 1046     		mov	r0, r2
 396 001a FFF7FEFF 		bl	chSemObjectInit
 397              		.loc 8 127 1
 398 001e 00BF     		nop
 399 0020 0837     		adds	r7, r7, #8
ARM GAS  C:\Users\DEVELO~1\AppData\Local\Temp\ccZ9dFx3.s 			page 8


 400              		.cfi_def_cfa_offset 8
 401 0022 BD46     		mov	sp, r7
 402              		.cfi_def_cfa_register 13
 403              		@ sp needed
 404 0024 80BD     		pop	{r7, pc}
 405              		.cfi_endproc
 406              	.LFE265:
 407              		.size	chBSemObjectInit, .-chBSemObjectInit
 408              		.section	.text.chBSemWait,"ax",%progbits
 409              		.align	1
 410              		.syntax unified
 411              		.thumb
 412              		.thumb_func
 413              		.type	chBSemWait, %function
 414              	chBSemWait:
 415              	.LFB266:
 416              		.loc 8 141 57
 417              		.cfi_startproc
 418              		@ args = 0, pretend = 0, frame = 8
 419              		@ frame_needed = 1, uses_anonymous_args = 0
 420 0000 80B5     		push	{r7, lr}
 421              		.cfi_def_cfa_offset 8
 422              		.cfi_offset 7, -8
 423              		.cfi_offset 14, -4
 424 0002 82B0     		sub	sp, sp, #8
 425              		.cfi_def_cfa_offset 16
 426 0004 00AF     		add	r7, sp, #0
 427              		.cfi_def_cfa_register 7
 428 0006 7860     		str	r0, [r7, #4]
 429              		.loc 8 143 10
 430 0008 7B68     		ldr	r3, [r7, #4]
 431 000a 1846     		mov	r0, r3
 432 000c FFF7FEFF 		bl	chSemWait
 433 0010 0346     		mov	r3, r0
 434              		.loc 8 144 1
 435 0012 1846     		mov	r0, r3
 436 0014 0837     		adds	r7, r7, #8
 437              		.cfi_def_cfa_offset 8
 438 0016 BD46     		mov	sp, r7
 439              		.cfi_def_cfa_register 13
 440              		@ sp needed
 441 0018 80BD     		pop	{r7, pc}
 442              		.cfi_endproc
 443              	.LFE266:
 444              		.size	chBSemWait, .-chBSemWait
 445              		.section	.text.chBSemReset,"ax",%progbits
 446              		.align	1
 447              		.syntax unified
 448              		.thumb
 449              		.thumb_func
 450              		.type	chBSemReset, %function
 451              	chBSemReset:
 452              	.LFB271:
 453              		.loc 8 253 69
 454              		.cfi_startproc
 455              		@ args = 0, pretend = 0, frame = 8
 456              		@ frame_needed = 1, uses_anonymous_args = 0
ARM GAS  C:\Users\DEVELO~1\AppData\Local\Temp\ccZ9dFx3.s 			page 9


 457 0000 80B5     		push	{r7, lr}
 458              		.cfi_def_cfa_offset 8
 459              		.cfi_offset 7, -8
 460              		.cfi_offset 14, -4
 461 0002 82B0     		sub	sp, sp, #8
 462              		.cfi_def_cfa_offset 16
 463 0004 00AF     		add	r7, sp, #0
 464              		.cfi_def_cfa_register 7
 465 0006 7860     		str	r0, [r7, #4]
 466 0008 0B46     		mov	r3, r1
 467 000a FB70     		strb	r3, [r7, #3]
 468              		.loc 8 255 3
 469 000c 7A68     		ldr	r2, [r7, #4]
 470              		.loc 8 255 42
 471 000e FB78     		ldrb	r3, [r7, #3]
 472 0010 83F00103 		eor	r3, r3, #1
 473 0014 DBB2     		uxtb	r3, r3
 474              		.loc 8 255 3
 475 0016 1946     		mov	r1, r3
 476 0018 1046     		mov	r0, r2
 477 001a FFF7FEFF 		bl	chSemReset
 478              		.loc 8 256 1
 479 001e 00BF     		nop
 480 0020 0837     		adds	r7, r7, #8
 481              		.cfi_def_cfa_offset 8
 482 0022 BD46     		mov	sp, r7
 483              		.cfi_def_cfa_register 13
 484              		@ sp needed
 485 0024 80BD     		pop	{r7, pc}
 486              		.cfi_endproc
 487              	.LFE271:
 488              		.size	chBSemReset, .-chBSemReset
 489              		.section	.text.chBSemSignalI,"ax",%progbits
 490              		.align	1
 491              		.syntax unified
 492              		.thumb
 493              		.thumb_func
 494              		.type	chBSemSignalI, %function
 495              	chBSemSignalI:
 496              	.LFB272:
 497              		.loc 8 266 59
 498              		.cfi_startproc
 499              		@ args = 0, pretend = 0, frame = 8
 500              		@ frame_needed = 1, uses_anonymous_args = 0
 501 0000 80B5     		push	{r7, lr}
 502              		.cfi_def_cfa_offset 8
 503              		.cfi_offset 7, -8
 504              		.cfi_offset 14, -4
 505 0002 82B0     		sub	sp, sp, #8
 506              		.cfi_def_cfa_offset 16
 507 0004 00AF     		add	r7, sp, #0
 508              		.cfi_def_cfa_register 7
 509 0006 7860     		str	r0, [r7, #4]
 510              		.loc 8 270 15
 511 0008 7B68     		ldr	r3, [r7, #4]
 512 000a 9B68     		ldr	r3, [r3, #8]
 513              		.loc 8 270 6
ARM GAS  C:\Users\DEVELO~1\AppData\Local\Temp\ccZ9dFx3.s 			page 10


 514 000c 002B     		cmp	r3, #0
 515 000e 03DC     		bgt	.L22
 516              		.loc 8 271 5
 517 0010 7B68     		ldr	r3, [r7, #4]
 518 0012 1846     		mov	r0, r3
 519 0014 FFF7FEFF 		bl	chSemSignalI
 520              	.L22:
 521              		.loc 8 273 1
 522 0018 00BF     		nop
 523 001a 0837     		adds	r7, r7, #8
 524              		.cfi_def_cfa_offset 8
 525 001c BD46     		mov	sp, r7
 526              		.cfi_def_cfa_register 13
 527              		@ sp needed
 528 001e 80BD     		pop	{r7, pc}
 529              		.cfi_endproc
 530              	.LFE272:
 531              		.size	chBSemSignalI, .-chBSemSignalI
 532              		.section	.text.chBSemSignal,"ax",%progbits
 533              		.align	1
 534              		.syntax unified
 535              		.thumb
 536              		.thumb_func
 537              		.type	chBSemSignal, %function
 538              	chBSemSignal:
 539              	.LFB273:
 540              		.loc 8 282 58
 541              		.cfi_startproc
 542              		@ args = 0, pretend = 0, frame = 8
 543              		@ frame_needed = 1, uses_anonymous_args = 0
 544 0000 80B5     		push	{r7, lr}
 545              		.cfi_def_cfa_offset 8
 546              		.cfi_offset 7, -8
 547              		.cfi_offset 14, -4
 548 0002 82B0     		sub	sp, sp, #8
 549              		.cfi_def_cfa_offset 16
 550 0004 00AF     		add	r7, sp, #0
 551              		.cfi_def_cfa_register 7
 552 0006 7860     		str	r0, [r7, #4]
 553              		.loc 8 284 3
 554 0008 FFF7FEFF 		bl	chSysLock
 555              		.loc 8 285 3
 556 000c 7868     		ldr	r0, [r7, #4]
 557 000e FFF7FEFF 		bl	chBSemSignalI
 558              		.loc 8 286 3
 559 0012 FFF7FEFF 		bl	chSchRescheduleS
 560              		.loc 8 287 3
 561 0016 FFF7FEFF 		bl	chSysUnlock
 562              		.loc 8 288 1
 563 001a 00BF     		nop
 564 001c 0837     		adds	r7, r7, #8
 565              		.cfi_def_cfa_offset 8
 566 001e BD46     		mov	sp, r7
 567              		.cfi_def_cfa_register 13
 568              		@ sp needed
 569 0020 80BD     		pop	{r7, pc}
 570              		.cfi_endproc
ARM GAS  C:\Users\DEVELO~1\AppData\Local\Temp\ccZ9dFx3.s 			page 11


 571              	.LFE273:
 572              		.size	chBSemSignal, .-chBSemSignal
 573              		.section	.text.chBSemGetStateI,"ax",%progbits
 574              		.align	1
 575              		.syntax unified
 576              		.thumb
 577              		.thumb_func
 578              		.type	chBSemGetStateI, %function
 579              	chBSemGetStateI:
 580              	.LFB274:
 581              		.loc 8 300 67
 582              		.cfi_startproc
 583              		@ args = 0, pretend = 0, frame = 8
 584              		@ frame_needed = 1, uses_anonymous_args = 0
 585              		@ link register save eliminated.
 586 0000 80B4     		push	{r7}
 587              		.cfi_def_cfa_offset 4
 588              		.cfi_offset 7, -4
 589 0002 83B0     		sub	sp, sp, #12
 590              		.cfi_def_cfa_offset 16
 591 0004 00AF     		add	r7, sp, #0
 592              		.cfi_def_cfa_register 7
 593 0006 7860     		str	r0, [r7, #4]
 594              		.loc 8 304 19
 595 0008 7B68     		ldr	r3, [r7, #4]
 596 000a 9B68     		ldr	r3, [r3, #8]
 597              		.loc 8 304 44
 598 000c 002B     		cmp	r3, #0
 599 000e D4BF     		ite	le
 600 0010 0123     		movle	r3, #1
 601 0012 0023     		movgt	r3, #0
 602 0014 DBB2     		uxtb	r3, r3
 603              		.loc 8 305 1
 604 0016 1846     		mov	r0, r3
 605 0018 0C37     		adds	r7, r7, #12
 606              		.cfi_def_cfa_offset 4
 607 001a BD46     		mov	sp, r7
 608              		.cfi_def_cfa_register 13
 609              		@ sp needed
 610 001c 80BC     		pop	{r7}
 611              		.cfi_restore 7
 612              		.cfi_def_cfa_offset 0
 613 001e 7047     		bx	lr
 614              		.cfi_endproc
 615              	.LFE274:
 616              		.size	chBSemGetStateI, .-chBSemGetStateI
 617              		.section	.text.osalSysLock,"ax",%progbits
 618              		.align	1
 619              		.syntax unified
 620              		.thumb
 621              		.thumb_func
 622              		.type	osalSysLock, %function
 623              	osalSysLock:
 624              	.LFB350:
 625              		.file 9 "../../../os/hal/osal/rt-nil/osal.h"
 626              		.loc 9 573 38
 627              		.cfi_startproc
ARM GAS  C:\Users\DEVELO~1\AppData\Local\Temp\ccZ9dFx3.s 			page 12


 628              		@ args = 0, pretend = 0, frame = 0
 629              		@ frame_needed = 1, uses_anonymous_args = 0
 630 0000 80B5     		push	{r7, lr}
 631              		.cfi_def_cfa_offset 8
 632              		.cfi_offset 7, -8
 633              		.cfi_offset 14, -4
 634 0002 00AF     		add	r7, sp, #0
 635              		.cfi_def_cfa_register 7
 636              		.loc 9 575 3
 637 0004 FFF7FEFF 		bl	chSysLock
 638              		.loc 9 576 1
 639 0008 00BF     		nop
 640 000a 80BD     		pop	{r7, pc}
 641              		.cfi_endproc
 642              	.LFE350:
 643              		.size	osalSysLock, .-osalSysLock
 644              		.section	.text.osalSysUnlock,"ax",%progbits
 645              		.align	1
 646              		.syntax unified
 647              		.thumb
 648              		.thumb_func
 649              		.type	osalSysUnlock, %function
 650              	osalSysUnlock:
 651              	.LFB351:
 652              		.loc 9 584 40
 653              		.cfi_startproc
 654              		@ args = 0, pretend = 0, frame = 0
 655              		@ frame_needed = 1, uses_anonymous_args = 0
 656 0000 80B5     		push	{r7, lr}
 657              		.cfi_def_cfa_offset 8
 658              		.cfi_offset 7, -8
 659              		.cfi_offset 14, -4
 660 0002 00AF     		add	r7, sp, #0
 661              		.cfi_def_cfa_register 7
 662              		.loc 9 586 3
 663 0004 FFF7FEFF 		bl	chSysUnlock
 664              		.loc 9 587 1
 665 0008 00BF     		nop
 666 000a 80BD     		pop	{r7, pc}
 667              		.cfi_endproc
 668              	.LFE351:
 669              		.size	osalSysUnlock, .-osalSysUnlock
 670              		.section	.bss.sem1,"aw",%nobits
 671              		.align	2
 672              		.type	sem1, %object
 673              		.size	sem1, 12
 674              	sem1:
 675 0000 00000000 		.space	12
 675      00000000 
 675      00000000 
 676              		.section	.text.thread1,"ax",%progbits
 677              		.align	1
 678              		.syntax unified
 679              		.thumb
 680              		.thumb_func
 681              		.type	thread1, %function
 682              	thread1:
ARM GAS  C:\Users\DEVELO~1\AppData\Local\Temp\ccZ9dFx3.s 			page 13


 683              	.LFB436:
 684              		.file 10 "../../../test/rt/source/test/rt_test_sequence_007.c"
 685              		.loc 10 58 33
 686              		.cfi_startproc
 687              		@ args = 0, pretend = 0, frame = 8
 688              		@ frame_needed = 1, uses_anonymous_args = 0
 689 0000 80B5     		push	{r7, lr}
 690              		.cfi_def_cfa_offset 8
 691              		.cfi_offset 7, -8
 692              		.cfi_offset 14, -4
 693 0002 82B0     		sub	sp, sp, #8
 694              		.cfi_def_cfa_offset 16
 695 0004 00AF     		add	r7, sp, #0
 696              		.cfi_def_cfa_register 7
 697 0006 7860     		str	r0, [r7, #4]
 698              		.loc 10 60 3
 699 0008 0548     		ldr	r0, .L29
 700 000a FFF7FEFF 		bl	chSemWait
 701              		.loc 10 61 3
 702 000e 7B68     		ldr	r3, [r7, #4]
 703 0010 1B78     		ldrb	r3, [r3]	@ zero_extendqisi2
 704 0012 1846     		mov	r0, r3
 705 0014 FFF7FEFF 		bl	test_emit_token
 706              		.loc 10 62 1
 707 0018 00BF     		nop
 708 001a 0837     		adds	r7, r7, #8
 709              		.cfi_def_cfa_offset 8
 710 001c BD46     		mov	sp, r7
 711              		.cfi_def_cfa_register 13
 712              		@ sp needed
 713 001e 80BD     		pop	{r7, pc}
 714              	.L30:
 715              		.align	2
 716              	.L29:
 717 0020 00000000 		.word	sem1
 718              		.cfi_endproc
 719              	.LFE436:
 720              		.size	thread1, .-thread1
 721              		.section	.text.thread2,"ax",%progbits
 722              		.align	1
 723              		.syntax unified
 724              		.thumb
 725              		.thumb_func
 726              		.type	thread2, %function
 727              	thread2:
 728              	.LFB437:
 729              		.loc 10 64 33
 730              		.cfi_startproc
 731              		@ args = 0, pretend = 0, frame = 8
 732              		@ frame_needed = 1, uses_anonymous_args = 0
 733 0000 80B5     		push	{r7, lr}
 734              		.cfi_def_cfa_offset 8
 735              		.cfi_offset 7, -8
 736              		.cfi_offset 14, -4
 737 0002 82B0     		sub	sp, sp, #8
 738              		.cfi_def_cfa_offset 16
 739 0004 00AF     		add	r7, sp, #0
ARM GAS  C:\Users\DEVELO~1\AppData\Local\Temp\ccZ9dFx3.s 			page 14


 740              		.cfi_def_cfa_register 7
 741 0006 7860     		str	r0, [r7, #4]
 742              		.loc 10 67 3
 743 0008 4FF4FA70 		mov	r0, #500
 744 000c FFF7FEFF 		bl	chThdSleep
 745              		.loc 10 68 3
 746 0010 FFF7FEFF 		bl	chSysLock
 747              		.loc 10 69 3
 748 0014 0548     		ldr	r0, .L32
 749 0016 FFF7FEFF 		bl	chSemSignalI
 750              		.loc 10 70 3
 751 001a FFF7FEFF 		bl	chSchRescheduleS
 752              		.loc 10 71 3
 753 001e FFF7FEFF 		bl	chSysUnlock
 754              		.loc 10 72 1
 755 0022 00BF     		nop
 756 0024 0837     		adds	r7, r7, #8
 757              		.cfi_def_cfa_offset 8
 758 0026 BD46     		mov	sp, r7
 759              		.cfi_def_cfa_register 13
 760              		@ sp needed
 761 0028 80BD     		pop	{r7, pc}
 762              	.L33:
 763 002a 00BF     		.align	2
 764              	.L32:
 765 002c 00000000 		.word	sem1
 766              		.cfi_endproc
 767              	.LFE437:
 768              		.size	thread2, .-thread2
 769              		.section	.text.thread3,"ax",%progbits
 770              		.align	1
 771              		.syntax unified
 772              		.thumb
 773              		.thumb_func
 774              		.type	thread3, %function
 775              	thread3:
 776              	.LFB438:
 777              		.loc 10 74 33
 778              		.cfi_startproc
 779              		@ args = 0, pretend = 0, frame = 8
 780              		@ frame_needed = 1, uses_anonymous_args = 0
 781 0000 80B5     		push	{r7, lr}
 782              		.cfi_def_cfa_offset 8
 783              		.cfi_offset 7, -8
 784              		.cfi_offset 14, -4
 785 0002 82B0     		sub	sp, sp, #8
 786              		.cfi_def_cfa_offset 16
 787 0004 00AF     		add	r7, sp, #0
 788              		.cfi_def_cfa_register 7
 789 0006 7860     		str	r0, [r7, #4]
 790              		.loc 10 77 3
 791 0008 0448     		ldr	r0, .L35
 792 000a FFF7FEFF 		bl	chSemWait
 793              		.loc 10 78 3
 794 000e 0348     		ldr	r0, .L35
 795 0010 FFF7FEFF 		bl	chSemSignal
 796              		.loc 10 79 1
ARM GAS  C:\Users\DEVELO~1\AppData\Local\Temp\ccZ9dFx3.s 			page 15


 797 0014 00BF     		nop
 798 0016 0837     		adds	r7, r7, #8
 799              		.cfi_def_cfa_offset 8
 800 0018 BD46     		mov	sp, r7
 801              		.cfi_def_cfa_register 13
 802              		@ sp needed
 803 001a 80BD     		pop	{r7, pc}
 804              	.L36:
 805              		.align	2
 806              	.L35:
 807 001c 00000000 		.word	sem1
 808              		.cfi_endproc
 809              	.LFE438:
 810              		.size	thread3, .-thread3
 811              		.section	.text.thread4,"ax",%progbits
 812              		.align	1
 813              		.syntax unified
 814              		.thumb
 815              		.thumb_func
 816              		.type	thread4, %function
 817              	thread4:
 818              	.LFB439:
 819              		.loc 10 81 33
 820              		.cfi_startproc
 821              		@ args = 0, pretend = 0, frame = 8
 822              		@ frame_needed = 1, uses_anonymous_args = 0
 823 0000 80B5     		push	{r7, lr}
 824              		.cfi_def_cfa_offset 8
 825              		.cfi_offset 7, -8
 826              		.cfi_offset 14, -4
 827 0002 82B0     		sub	sp, sp, #8
 828              		.cfi_def_cfa_offset 16
 829 0004 00AF     		add	r7, sp, #0
 830              		.cfi_def_cfa_register 7
 831 0006 7860     		str	r0, [r7, #4]
 832              		.loc 10 83 3
 833 0008 7868     		ldr	r0, [r7, #4]
 834 000a FFF7FEFF 		bl	chBSemSignal
 835              		.loc 10 84 1
 836 000e 00BF     		nop
 837 0010 0837     		adds	r7, r7, #8
 838              		.cfi_def_cfa_offset 8
 839 0012 BD46     		mov	sp, r7
 840              		.cfi_def_cfa_register 13
 841              		@ sp needed
 842 0014 80BD     		pop	{r7, pc}
 843              		.cfi_endproc
 844              	.LFE439:
 845              		.size	thread4, .-thread4
 846              		.section	.text.rt_test_007_001_setup,"ax",%progbits
 847              		.align	1
 848              		.syntax unified
 849              		.thumb
 850              		.thumb_func
 851              		.type	rt_test_007_001_setup, %function
 852              	rt_test_007_001_setup:
 853              	.LFB440:
ARM GAS  C:\Users\DEVELO~1\AppData\Local\Temp\ccZ9dFx3.s 			page 16


 854              		.loc 10 107 41
 855              		.cfi_startproc
 856              		@ args = 0, pretend = 0, frame = 0
 857              		@ frame_needed = 1, uses_anonymous_args = 0
 858 0000 80B5     		push	{r7, lr}
 859              		.cfi_def_cfa_offset 8
 860              		.cfi_offset 7, -8
 861              		.cfi_offset 14, -4
 862 0002 00AF     		add	r7, sp, #0
 863              		.cfi_def_cfa_register 7
 864              		.loc 10 108 3
 865 0004 0121     		movs	r1, #1
 866 0006 0248     		ldr	r0, .L39
 867 0008 FFF7FEFF 		bl	chSemObjectInit
 868              		.loc 10 109 1
 869 000c 00BF     		nop
 870 000e 80BD     		pop	{r7, pc}
 871              	.L40:
 872              		.align	2
 873              	.L39:
 874 0010 00000000 		.word	sem1
 875              		.cfi_endproc
 876              	.LFE440:
 877              		.size	rt_test_007_001_setup, .-rt_test_007_001_setup
 878              		.section	.text.rt_test_007_001_teardown,"ax",%progbits
 879              		.align	1
 880              		.syntax unified
 881              		.thumb
 882              		.thumb_func
 883              		.type	rt_test_007_001_teardown, %function
 884              	rt_test_007_001_teardown:
 885              	.LFB441:
 886              		.loc 10 111 44
 887              		.cfi_startproc
 888              		@ args = 0, pretend = 0, frame = 0
 889              		@ frame_needed = 1, uses_anonymous_args = 0
 890 0000 80B5     		push	{r7, lr}
 891              		.cfi_def_cfa_offset 8
 892              		.cfi_offset 7, -8
 893              		.cfi_offset 14, -4
 894 0002 00AF     		add	r7, sp, #0
 895              		.cfi_def_cfa_register 7
 896              		.loc 10 112 3
 897 0004 0021     		movs	r1, #0
 898 0006 0248     		ldr	r0, .L42
 899 0008 FFF7FEFF 		bl	chSemReset
 900              		.loc 10 113 1
 901 000c 00BF     		nop
 902 000e 80BD     		pop	{r7, pc}
 903              	.L43:
 904              		.align	2
 905              	.L42:
 906 0010 00000000 		.word	sem1
 907              		.cfi_endproc
 908              	.LFE441:
 909              		.size	rt_test_007_001_teardown, .-rt_test_007_001_teardown
 910              		.section	.rodata
ARM GAS  C:\Users\DEVELO~1\AppData\Local\Temp\ccZ9dFx3.s 			page 17


 911              		.align	2
 912              	.LC0:
 913 0000 77726F6E 		.ascii	"wrong counter value\000"
 913      6720636F 
 913      756E7465 
 913      72207661 
 913      6C756500 
 914              		.align	2
 915              	.LC1:
 916 0014 77726F6E 		.ascii	"wrong returned message\000"
 916      67207265 
 916      7475726E 
 916      6564206D 
 916      65737361 
 917              		.section	.text.rt_test_007_001_execute,"ax",%progbits
 918              		.align	1
 919              		.syntax unified
 920              		.thumb
 921              		.thumb_func
 922              		.type	rt_test_007_001_execute, %function
 923              	rt_test_007_001_execute:
 924              	.LFB442:
 925              		.loc 10 115 43
 926              		.cfi_startproc
 927              		@ args = 0, pretend = 0, frame = 8
 928              		@ frame_needed = 1, uses_anonymous_args = 0
 929 0000 80B5     		push	{r7, lr}
 930              		.cfi_def_cfa_offset 8
 931              		.cfi_offset 7, -8
 932              		.cfi_offset 14, -4
 933 0002 82B0     		sub	sp, sp, #8
 934              		.cfi_def_cfa_offset 16
 935 0004 00AF     		add	r7, sp, #0
 936              		.cfi_def_cfa_register 7
 937              		.loc 10 119 3
 938 0006 344B     		ldr	r3, .L50
 939 0008 0122     		movs	r2, #1
 940 000a 1A60     		str	r2, [r3]
 941              	.LBB22:
 942              		.loc 10 123 11
 943 000c 3348     		ldr	r0, .L50+4
 944 000e FFF7FEFF 		bl	chSemWait
 945 0012 7860     		str	r0, [r7, #4]
 946              		.loc 10 124 5
 947 0014 FFF7FEFF 		bl	osalSysLock
 948 0018 3048     		ldr	r0, .L50+4
 949 001a FFF7FEFF 		bl	chSemGetCounterI
 950 001e 0346     		mov	r3, r0
 951 0020 002B     		cmp	r3, #0
 952 0022 0CBF     		ite	eq
 953 0024 0123     		moveq	r3, #1
 954 0026 0023     		movne	r3, #0
 955 0028 DBB2     		uxtb	r3, r3
 956 002a 2D49     		ldr	r1, .L50+8
 957 002c 1846     		mov	r0, r3
 958 002e FFF7FEFF 		bl	__test_assert
 959 0032 0346     		mov	r3, r0
ARM GAS  C:\Users\DEVELO~1\AppData\Local\Temp\ccZ9dFx3.s 			page 18


 960 0034 002B     		cmp	r3, #0
 961 0036 02D0     		beq	.L45
 962              		.loc 10 124 5 is_stmt 0 discriminator 1
 963 0038 FFF7FEFF 		bl	osalSysUnlock
 964 003c 49E0     		b	.L44
 965              	.L45:
 966              		.loc 10 124 5 discriminator 2
 967 003e FFF7FEFF 		bl	osalSysUnlock
 968              		.loc 10 125 5 is_stmt 1 discriminator 2
 969 0042 7B68     		ldr	r3, [r7, #4]
 970 0044 002B     		cmp	r3, #0
 971 0046 0CBF     		ite	eq
 972 0048 0123     		moveq	r3, #1
 973 004a 0023     		movne	r3, #0
 974 004c DBB2     		uxtb	r3, r3
 975 004e 2549     		ldr	r1, .L50+12
 976 0050 1846     		mov	r0, r3
 977 0052 FFF7FEFF 		bl	__test_assert
 978 0056 0346     		mov	r3, r0
 979 0058 002B     		cmp	r3, #0
 980 005a 3AD1     		bne	.L44
 981              	.LBE22:
 982              		.loc 10 131 3
 983 005c 1E4B     		ldr	r3, .L50
 984 005e 0222     		movs	r2, #2
 985 0060 1A60     		str	r2, [r3]
 986              		.loc 10 133 5
 987 0062 1E48     		ldr	r0, .L50+4
 988 0064 FFF7FEFF 		bl	chSemSignal
 989              		.loc 10 134 5
 990 0068 FFF7FEFF 		bl	osalSysLock
 991 006c 1B48     		ldr	r0, .L50+4
 992 006e FFF7FEFF 		bl	chSemGetCounterI
 993 0072 0346     		mov	r3, r0
 994 0074 012B     		cmp	r3, #1
 995 0076 0CBF     		ite	eq
 996 0078 0123     		moveq	r3, #1
 997 007a 0023     		movne	r3, #0
 998 007c DBB2     		uxtb	r3, r3
 999 007e 1849     		ldr	r1, .L50+8
 1000 0080 1846     		mov	r0, r3
 1001 0082 FFF7FEFF 		bl	__test_assert
 1002 0086 0346     		mov	r3, r0
 1003 0088 002B     		cmp	r3, #0
 1004 008a 02D0     		beq	.L48
 1005              		.loc 10 134 5 is_stmt 0 discriminator 1
 1006 008c FFF7FEFF 		bl	osalSysUnlock
 1007 0090 1FE0     		b	.L44
 1008              	.L48:
 1009              		.loc 10 134 5 discriminator 2
 1010 0092 FFF7FEFF 		bl	osalSysUnlock
 1011              		.loc 10 140 3 is_stmt 1 discriminator 2
 1012 0096 104B     		ldr	r3, .L50
 1013 0098 0322     		movs	r2, #3
 1014 009a 1A60     		str	r2, [r3]
 1015              		.loc 10 142 5 discriminator 2
 1016 009c 0221     		movs	r1, #2
ARM GAS  C:\Users\DEVELO~1\AppData\Local\Temp\ccZ9dFx3.s 			page 19


 1017 009e 0F48     		ldr	r0, .L50+4
 1018 00a0 FFF7FEFF 		bl	chSemReset
 1019              		.loc 10 143 5 discriminator 2
 1020 00a4 FFF7FEFF 		bl	osalSysLock
 1021 00a8 0C48     		ldr	r0, .L50+4
 1022 00aa FFF7FEFF 		bl	chSemGetCounterI
 1023 00ae 0346     		mov	r3, r0
 1024 00b0 022B     		cmp	r3, #2
 1025 00b2 0CBF     		ite	eq
 1026 00b4 0123     		moveq	r3, #1
 1027 00b6 0023     		movne	r3, #0
 1028 00b8 DBB2     		uxtb	r3, r3
 1029 00ba 0949     		ldr	r1, .L50+8
 1030 00bc 1846     		mov	r0, r3
 1031 00be FFF7FEFF 		bl	__test_assert
 1032 00c2 0346     		mov	r3, r0
 1033 00c4 002B     		cmp	r3, #0
 1034 00c6 02D0     		beq	.L49
 1035              		.loc 10 143 5 is_stmt 0 discriminator 1
 1036 00c8 FFF7FEFF 		bl	osalSysUnlock
 1037 00cc 01E0     		b	.L44
 1038              	.L49:
 1039              		.loc 10 143 5 discriminator 2
 1040 00ce FFF7FEFF 		bl	osalSysUnlock
 1041              	.L44:
 1042              		.loc 10 146 1 is_stmt 1
 1043 00d2 0837     		adds	r7, r7, #8
 1044              		.cfi_def_cfa_offset 8
 1045 00d4 BD46     		mov	sp, r7
 1046              		.cfi_def_cfa_register 13
 1047              		@ sp needed
 1048 00d6 80BD     		pop	{r7, pc}
 1049              	.L51:
 1050              		.align	2
 1051              	.L50:
 1052 00d8 00000000 		.word	chtest
 1053 00dc 00000000 		.word	sem1
 1054 00e0 00000000 		.word	.LC0
 1055 00e4 14000000 		.word	.LC1
 1056              		.cfi_endproc
 1057              	.LFE442:
 1058              		.size	rt_test_007_001_execute, .-rt_test_007_001_execute
 1059              		.section	.rodata
 1060 002b 00       		.align	2
 1061              	.LC2:
 1062 002c 53656D61 		.ascii	"Semaphore primitives, no state change\000"
 1062      70686F72 
 1062      65207072 
 1062      696D6974 
 1062      69766573 
 1063              		.section	.rodata.rt_test_007_001,"a"
 1064              		.align	2
 1065              		.type	rt_test_007_001, %object
 1066              		.size	rt_test_007_001, 16
 1067              	rt_test_007_001:
 1068 0000 2C000000 		.word	.LC2
 1069 0004 00000000 		.word	rt_test_007_001_setup
ARM GAS  C:\Users\DEVELO~1\AppData\Local\Temp\ccZ9dFx3.s 			page 20


 1070 0008 00000000 		.word	rt_test_007_001_teardown
 1071 000c 00000000 		.word	rt_test_007_001_execute
 1072              		.section	.text.rt_test_007_002_setup,"ax",%progbits
 1073              		.align	1
 1074              		.syntax unified
 1075              		.thumb
 1076              		.thumb_func
 1077              		.type	rt_test_007_002_setup, %function
 1078              	rt_test_007_002_setup:
 1079              	.LFB443:
 1080              		.loc 10 173 41
 1081              		.cfi_startproc
 1082              		@ args = 0, pretend = 0, frame = 0
 1083              		@ frame_needed = 1, uses_anonymous_args = 0
 1084 0000 80B5     		push	{r7, lr}
 1085              		.cfi_def_cfa_offset 8
 1086              		.cfi_offset 7, -8
 1087              		.cfi_offset 14, -4
 1088 0002 00AF     		add	r7, sp, #0
 1089              		.cfi_def_cfa_register 7
 1090              		.loc 10 174 3
 1091 0004 0021     		movs	r1, #0
 1092 0006 0248     		ldr	r0, .L53
 1093 0008 FFF7FEFF 		bl	chSemObjectInit
 1094              		.loc 10 175 1
 1095 000c 00BF     		nop
 1096 000e 80BD     		pop	{r7, pc}
 1097              	.L54:
 1098              		.align	2
 1099              	.L53:
 1100 0010 00000000 		.word	sem1
 1101              		.cfi_endproc
 1102              	.LFE443:
 1103              		.size	rt_test_007_002_setup, .-rt_test_007_002_setup
 1104              		.section	.rodata
 1105 0052 0000     		.align	2
 1106              	.LC3:
 1107 0054 4100     		.ascii	"A\000"
 1108 0056 0000     		.align	2
 1109              	.LC4:
 1110 0058 4200     		.ascii	"B\000"
 1111 005a 0000     		.align	2
 1112              	.LC5:
 1113 005c 4300     		.ascii	"C\000"
 1114 005e 0000     		.align	2
 1115              	.LC6:
 1116 0060 4400     		.ascii	"D\000"
 1117 0062 0000     		.align	2
 1118              	.LC7:
 1119 0064 4500     		.ascii	"E\000"
 1120 0066 0000     		.align	2
 1121              	.LC8:
 1122 0068 696E7661 		.ascii	"invalid sequence\000"
 1122      6C696420 
 1122      73657175 
 1122      656E6365 
 1122      00
ARM GAS  C:\Users\DEVELO~1\AppData\Local\Temp\ccZ9dFx3.s 			page 21


 1123 0079 000000   		.align	2
 1124              	.LC9:
 1125 007c 41424344 		.ascii	"ABCDE\000"
 1125      4500
 1126              		.section	.text.rt_test_007_002_execute,"ax",%progbits
 1127              		.align	1
 1128              		.syntax unified
 1129              		.thumb
 1130              		.thumb_func
 1131              		.type	rt_test_007_002_execute, %function
 1132              	rt_test_007_002_execute:
 1133              	.LFB444:
 1134              		.loc 10 177 43
 1135              		.cfi_startproc
 1136              		@ args = 0, pretend = 0, frame = 0
 1137              		@ frame_needed = 1, uses_anonymous_args = 0
 1138 0000 90B5     		push	{r4, r7, lr}
 1139              		.cfi_def_cfa_offset 12
 1140              		.cfi_offset 4, -12
 1141              		.cfi_offset 7, -8
 1142              		.cfi_offset 14, -4
 1143 0002 83B0     		sub	sp, sp, #12
 1144              		.cfi_def_cfa_offset 24
 1145 0004 02AF     		add	r7, sp, #8
 1146              		.cfi_def_cfa 7, 16
 1147              		.loc 10 182 3
 1148 0006 3A4B     		ldr	r3, .L57
 1149 0008 0122     		movs	r2, #1
 1150 000a 1A60     		str	r2, [r3]
 1151              		.loc 10 184 38
 1152 000c 394B     		ldr	r3, .L57+4
 1153 000e 1C68     		ldr	r4, [r3]
 1154              		.loc 10 184 52
 1155 0010 FFF7FEFF 		bl	chThdGetPriorityX
 1156 0014 0346     		mov	r3, r0
 1157              		.loc 10 184 18
 1158 0016 5A1D     		adds	r2, r3, #5
 1159 0018 374B     		ldr	r3, .L57+8
 1160 001a 0093     		str	r3, [sp]
 1161 001c 374B     		ldr	r3, .L57+12
 1162 001e 4FF4D871 		mov	r1, #432
 1163 0022 2046     		mov	r0, r4
 1164 0024 FFF7FEFF 		bl	chThdCreateStatic
 1165 0028 0346     		mov	r3, r0
 1166              		.loc 10 184 16
 1167 002a 354A     		ldr	r2, .L57+16
 1168 002c 1360     		str	r3, [r2]
 1169              		.loc 10 185 38
 1170 002e 314B     		ldr	r3, .L57+4
 1171 0030 5C68     		ldr	r4, [r3, #4]
 1172              		.loc 10 185 52
 1173 0032 FFF7FEFF 		bl	chThdGetPriorityX
 1174 0036 0346     		mov	r3, r0
 1175              		.loc 10 185 18
 1176 0038 5A1C     		adds	r2, r3, #1
 1177 003a 324B     		ldr	r3, .L57+20
 1178 003c 0093     		str	r3, [sp]
ARM GAS  C:\Users\DEVELO~1\AppData\Local\Temp\ccZ9dFx3.s 			page 22


 1179 003e 2F4B     		ldr	r3, .L57+12
 1180 0040 4FF4D871 		mov	r1, #432
 1181 0044 2046     		mov	r0, r4
 1182 0046 FFF7FEFF 		bl	chThdCreateStatic
 1183 004a 0346     		mov	r3, r0
 1184              		.loc 10 185 16
 1185 004c 2C4A     		ldr	r2, .L57+16
 1186 004e 5360     		str	r3, [r2, #4]
 1187              		.loc 10 186 38
 1188 0050 284B     		ldr	r3, .L57+4
 1189 0052 9C68     		ldr	r4, [r3, #8]
 1190              		.loc 10 186 52
 1191 0054 FFF7FEFF 		bl	chThdGetPriorityX
 1192 0058 0346     		mov	r3, r0
 1193              		.loc 10 186 18
 1194 005a DA1C     		adds	r2, r3, #3
 1195 005c 2A4B     		ldr	r3, .L57+24
 1196 005e 0093     		str	r3, [sp]
 1197 0060 264B     		ldr	r3, .L57+12
 1198 0062 4FF4D871 		mov	r1, #432
 1199 0066 2046     		mov	r0, r4
 1200 0068 FFF7FEFF 		bl	chThdCreateStatic
 1201 006c 0346     		mov	r3, r0
 1202              		.loc 10 186 16
 1203 006e 244A     		ldr	r2, .L57+16
 1204 0070 9360     		str	r3, [r2, #8]
 1205              		.loc 10 187 38
 1206 0072 204B     		ldr	r3, .L57+4
 1207 0074 DC68     		ldr	r4, [r3, #12]
 1208              		.loc 10 187 52
 1209 0076 FFF7FEFF 		bl	chThdGetPriorityX
 1210 007a 0346     		mov	r3, r0
 1211              		.loc 10 187 18
 1212 007c 1A1D     		adds	r2, r3, #4
 1213 007e 234B     		ldr	r3, .L57+28
 1214 0080 0093     		str	r3, [sp]
 1215 0082 1E4B     		ldr	r3, .L57+12
 1216 0084 4FF4D871 		mov	r1, #432
 1217 0088 2046     		mov	r0, r4
 1218 008a FFF7FEFF 		bl	chThdCreateStatic
 1219 008e 0346     		mov	r3, r0
 1220              		.loc 10 187 16
 1221 0090 1B4A     		ldr	r2, .L57+16
 1222 0092 D360     		str	r3, [r2, #12]
 1223              		.loc 10 188 38
 1224 0094 174B     		ldr	r3, .L57+4
 1225 0096 1C69     		ldr	r4, [r3, #16]
 1226              		.loc 10 188 52
 1227 0098 FFF7FEFF 		bl	chThdGetPriorityX
 1228 009c 0346     		mov	r3, r0
 1229              		.loc 10 188 18
 1230 009e 9A1C     		adds	r2, r3, #2
 1231 00a0 1B4B     		ldr	r3, .L57+32
 1232 00a2 0093     		str	r3, [sp]
 1233 00a4 154B     		ldr	r3, .L57+12
 1234 00a6 4FF4D871 		mov	r1, #432
 1235 00aa 2046     		mov	r0, r4
ARM GAS  C:\Users\DEVELO~1\AppData\Local\Temp\ccZ9dFx3.s 			page 23


 1236 00ac FFF7FEFF 		bl	chThdCreateStatic
 1237 00b0 0346     		mov	r3, r0
 1238              		.loc 10 188 16
 1239 00b2 134A     		ldr	r2, .L57+16
 1240 00b4 1361     		str	r3, [r2, #16]
 1241              		.loc 10 194 3
 1242 00b6 0E4B     		ldr	r3, .L57
 1243 00b8 0222     		movs	r2, #2
 1244 00ba 1A60     		str	r2, [r3]
 1245              		.loc 10 196 5
 1246 00bc 1548     		ldr	r0, .L57+36
 1247 00be FFF7FEFF 		bl	chSemSignal
 1248              		.loc 10 197 5
 1249 00c2 1448     		ldr	r0, .L57+36
 1250 00c4 FFF7FEFF 		bl	chSemSignal
 1251              		.loc 10 198 5
 1252 00c8 1248     		ldr	r0, .L57+36
 1253 00ca FFF7FEFF 		bl	chSemSignal
 1254              		.loc 10 199 5
 1255 00ce 1148     		ldr	r0, .L57+36
 1256 00d0 FFF7FEFF 		bl	chSemSignal
 1257              		.loc 10 200 5
 1258 00d4 0F48     		ldr	r0, .L57+36
 1259 00d6 FFF7FEFF 		bl	chSemSignal
 1260              		.loc 10 201 5
 1261 00da FFF7FEFF 		bl	test_wait_threads
 1262              		.loc 10 205 5
 1263 00de 0E49     		ldr	r1, .L57+40
 1264 00e0 0E48     		ldr	r0, .L57+44
 1265 00e2 FFF7FEFF 		bl	__test_assert_sequence
 1266 00e6 0346     		mov	r3, r0
 1267 00e8 002B     		cmp	r3, #0
 1268              		.loc 10 209 1
 1269 00ea 0437     		adds	r7, r7, #4
 1270              		.cfi_def_cfa_offset 12
 1271 00ec BD46     		mov	sp, r7
 1272              		.cfi_def_cfa_register 13
 1273              		@ sp needed
 1274 00ee 90BD     		pop	{r4, r7, pc}
 1275              	.L58:
 1276              		.align	2
 1277              	.L57:
 1278 00f0 00000000 		.word	chtest
 1279 00f4 00000000 		.word	wa
 1280 00f8 54000000 		.word	.LC3
 1281 00fc 00000000 		.word	thread1
 1282 0100 00000000 		.word	threads
 1283 0104 58000000 		.word	.LC4
 1284 0108 5C000000 		.word	.LC5
 1285 010c 60000000 		.word	.LC6
 1286 0110 64000000 		.word	.LC7
 1287 0114 00000000 		.word	sem1
 1288 0118 68000000 		.word	.LC8
 1289 011c 7C000000 		.word	.LC9
 1290              		.cfi_endproc
 1291              	.LFE444:
 1292              		.size	rt_test_007_002_execute, .-rt_test_007_002_execute
ARM GAS  C:\Users\DEVELO~1\AppData\Local\Temp\ccZ9dFx3.s 			page 24


 1293              		.section	.rodata
 1294 0082 0000     		.align	2
 1295              	.LC10:
 1296 0084 53656D61 		.ascii	"Semaphore enqueuing test\000"
 1296      70686F72 
 1296      6520656E 
 1296      71756575 
 1296      696E6720 
 1297              		.section	.rodata.rt_test_007_002,"a"
 1298              		.align	2
 1299              		.type	rt_test_007_002, %object
 1300              		.size	rt_test_007_002, 16
 1301              	rt_test_007_002:
 1302 0000 84000000 		.word	.LC10
 1303 0004 00000000 		.word	rt_test_007_002_setup
 1304 0008 00000000 		.word	0
 1305 000c 00000000 		.word	rt_test_007_002_execute
 1306              		.section	.text.rt_test_007_003_setup,"ax",%progbits
 1307              		.align	1
 1308              		.syntax unified
 1309              		.thumb
 1310              		.thumb_func
 1311              		.type	rt_test_007_003_setup, %function
 1312              	rt_test_007_003_setup:
 1313              	.LFB445:
 1314              		.loc 10 235 41
 1315              		.cfi_startproc
 1316              		@ args = 0, pretend = 0, frame = 0
 1317              		@ frame_needed = 1, uses_anonymous_args = 0
 1318 0000 80B5     		push	{r7, lr}
 1319              		.cfi_def_cfa_offset 8
 1320              		.cfi_offset 7, -8
 1321              		.cfi_offset 14, -4
 1322 0002 00AF     		add	r7, sp, #0
 1323              		.cfi_def_cfa_register 7
 1324              		.loc 10 236 3
 1325 0004 0021     		movs	r1, #0
 1326 0006 0248     		ldr	r0, .L60
 1327 0008 FFF7FEFF 		bl	chSemObjectInit
 1328              		.loc 10 237 1
 1329 000c 00BF     		nop
 1330 000e 80BD     		pop	{r7, pc}
 1331              	.L61:
 1332              		.align	2
 1333              	.L60:
 1334 0010 00000000 		.word	sem1
 1335              		.cfi_endproc
 1336              	.LFE445:
 1337              		.size	rt_test_007_003_setup, .-rt_test_007_003_setup
 1338              		.section	.rodata
 1339 009d 000000   		.align	2
 1340              	.LC11:
 1341 00a0 77726F6E 		.ascii	"wrong wake-up message\000"
 1341      67207761 
 1341      6B652D75 
 1341      70206D65 
 1341      73736167 
ARM GAS  C:\Users\DEVELO~1\AppData\Local\Temp\ccZ9dFx3.s 			page 25


 1342 00b6 0000     		.align	2
 1343              	.LC12:
 1344 00b8 71756575 		.ascii	"queue not empty\000"
 1344      65206E6F 
 1344      7420656D 
 1344      70747900 
 1345              		.align	2
 1346              	.LC13:
 1347 00c8 636F756E 		.ascii	"counter not zero\000"
 1347      74657220 
 1347      6E6F7420 
 1347      7A65726F 
 1347      00
 1348 00d9 000000   		.align	2
 1349              	.LC14:
 1350 00dc 6F757420 		.ascii	"out of time window\000"
 1350      6F662074 
 1350      696D6520 
 1350      77696E64 
 1350      6F7700
 1351              		.section	.text.rt_test_007_003_execute,"ax",%progbits
 1352              		.align	1
 1353              		.syntax unified
 1354              		.thumb
 1355              		.thumb_func
 1356              		.type	rt_test_007_003_execute, %function
 1357              	rt_test_007_003_execute:
 1358              	.LFB446:
 1359              		.loc 10 239 43
 1360              		.cfi_startproc
 1361              		@ args = 0, pretend = 0, frame = 16
 1362              		@ frame_needed = 1, uses_anonymous_args = 0
 1363 0000 90B5     		push	{r4, r7, lr}
 1364              		.cfi_def_cfa_offset 12
 1365              		.cfi_offset 4, -12
 1366              		.cfi_offset 7, -8
 1367              		.cfi_offset 14, -4
 1368 0002 87B0     		sub	sp, sp, #28
 1369              		.cfi_def_cfa_offset 40
 1370 0004 02AF     		add	r7, sp, #8
 1371              		.cfi_def_cfa 7, 32
 1372              		.loc 10 245 3
 1373 0006 694B     		ldr	r3, .L76
 1374 0008 0122     		movs	r2, #1
 1375 000a 1A60     		str	r2, [r3]
 1376              		.loc 10 247 11
 1377 000c 0021     		movs	r1, #0
 1378 000e 6848     		ldr	r0, .L76+4
 1379 0010 FFF7FEFF 		bl	chSemWaitTimeout
 1380 0014 B860     		str	r0, [r7, #8]
 1381              		.loc 10 248 5
 1382 0016 BB68     		ldr	r3, [r7, #8]
 1383 0018 B3F1FF3F 		cmp	r3, #-1
 1384 001c 0CBF     		ite	eq
 1385 001e 0123     		moveq	r3, #1
 1386 0020 0023     		movne	r3, #0
 1387 0022 DBB2     		uxtb	r3, r3
ARM GAS  C:\Users\DEVELO~1\AppData\Local\Temp\ccZ9dFx3.s 			page 26


 1388 0024 6349     		ldr	r1, .L76+8
 1389 0026 1846     		mov	r0, r3
 1390 0028 FFF7FEFF 		bl	__test_assert
 1391 002c 0346     		mov	r3, r0
 1392 002e 002B     		cmp	r3, #0
 1393 0030 40F0B980 		bne	.L62
 1394              		.loc 10 249 5
 1395 0034 5E48     		ldr	r0, .L76+4
 1396 0036 FFF7FEFF 		bl	ch_queue_isempty
 1397 003a 0346     		mov	r3, r0
 1398 003c 5E49     		ldr	r1, .L76+12
 1399 003e 1846     		mov	r0, r3
 1400 0040 FFF7FEFF 		bl	__test_assert
 1401 0044 0346     		mov	r3, r0
 1402 0046 002B     		cmp	r3, #0
 1403 0048 40F0AD80 		bne	.L62
 1404              		.loc 10 250 5
 1405 004c 584B     		ldr	r3, .L76+4
 1406 004e 9B68     		ldr	r3, [r3, #8]
 1407 0050 002B     		cmp	r3, #0
 1408 0052 0CBF     		ite	eq
 1409 0054 0123     		moveq	r3, #1
 1410 0056 0023     		movne	r3, #0
 1411 0058 DBB2     		uxtb	r3, r3
 1412 005a 5849     		ldr	r1, .L76+16
 1413 005c 1846     		mov	r0, r3
 1414 005e FFF7FEFF 		bl	__test_assert
 1415 0062 0346     		mov	r3, r0
 1416 0064 002B     		cmp	r3, #0
 1417 0066 40F09E80 		bne	.L62
 1418              		.loc 10 255 3
 1419 006a 504B     		ldr	r3, .L76
 1420 006c 0222     		movs	r2, #2
 1421 006e 1A60     		str	r2, [r3]
 1422              		.loc 10 257 38
 1423 0070 534B     		ldr	r3, .L76+20
 1424 0072 1C68     		ldr	r4, [r3]
 1425              		.loc 10 257 52
 1426 0074 FFF7FEFF 		bl	chThdGetPriorityX
 1427 0078 0346     		mov	r3, r0
 1428              		.loc 10 257 18
 1429 007a 5A1E     		subs	r2, r3, #1
 1430 007c 0023     		movs	r3, #0
 1431 007e 0093     		str	r3, [sp]
 1432 0080 504B     		ldr	r3, .L76+24
 1433 0082 4FF4D871 		mov	r1, #432
 1434 0086 2046     		mov	r0, r4
 1435 0088 FFF7FEFF 		bl	chThdCreateStatic
 1436 008c 0346     		mov	r3, r0
 1437              		.loc 10 257 16
 1438 008e 4E4A     		ldr	r2, .L76+28
 1439 0090 1360     		str	r3, [r2]
 1440              		.loc 10 259 11
 1441 0092 41F28831 		movw	r1, #5000
 1442 0096 4648     		ldr	r0, .L76+4
 1443 0098 FFF7FEFF 		bl	chSemWaitTimeout
 1444 009c B860     		str	r0, [r7, #8]
ARM GAS  C:\Users\DEVELO~1\AppData\Local\Temp\ccZ9dFx3.s 			page 27


 1445              		.loc 10 260 5
 1446 009e FFF7FEFF 		bl	test_wait_threads
 1447              		.loc 10 261 5
 1448 00a2 BB68     		ldr	r3, [r7, #8]
 1449 00a4 002B     		cmp	r3, #0
 1450 00a6 0CBF     		ite	eq
 1451 00a8 0123     		moveq	r3, #1
 1452 00aa 0023     		movne	r3, #0
 1453 00ac DBB2     		uxtb	r3, r3
 1454 00ae 4149     		ldr	r1, .L76+8
 1455 00b0 1846     		mov	r0, r3
 1456 00b2 FFF7FEFF 		bl	__test_assert
 1457 00b6 0346     		mov	r3, r0
 1458 00b8 002B     		cmp	r3, #0
 1459 00ba 74D1     		bne	.L62
 1460              		.loc 10 262 5
 1461 00bc 3C48     		ldr	r0, .L76+4
 1462 00be FFF7FEFF 		bl	ch_queue_isempty
 1463 00c2 0346     		mov	r3, r0
 1464 00c4 3C49     		ldr	r1, .L76+12
 1465 00c6 1846     		mov	r0, r3
 1466 00c8 FFF7FEFF 		bl	__test_assert
 1467 00cc 0346     		mov	r3, r0
 1468 00ce 002B     		cmp	r3, #0
 1469 00d0 69D1     		bne	.L62
 1470              		.loc 10 263 5
 1471 00d2 374B     		ldr	r3, .L76+4
 1472 00d4 9B68     		ldr	r3, [r3, #8]
 1473 00d6 002B     		cmp	r3, #0
 1474 00d8 0CBF     		ite	eq
 1475 00da 0123     		moveq	r3, #1
 1476 00dc 0023     		movne	r3, #0
 1477 00de DBB2     		uxtb	r3, r3
 1478 00e0 3649     		ldr	r1, .L76+16
 1479 00e2 1846     		mov	r0, r3
 1480 00e4 FFF7FEFF 		bl	__test_assert
 1481 00e8 0346     		mov	r3, r0
 1482 00ea 002B     		cmp	r3, #0
 1483 00ec 5BD1     		bne	.L62
 1484              		.loc 10 268 3
 1485 00ee 2F4B     		ldr	r3, .L76
 1486 00f0 0322     		movs	r2, #3
 1487 00f2 1A60     		str	r2, [r3]
 1488              		.loc 10 270 19
 1489 00f4 FFF7FEFF 		bl	test_wait_tick
 1490 00f8 0346     		mov	r3, r0
 1491 00fa 40F6C411 		movw	r1, #2500
 1492 00fe 1846     		mov	r0, r3
 1493 0100 FFF7FEFF 		bl	chTimeAddX
 1494 0104 7860     		str	r0, [r7, #4]
 1495              		.loc 10 271 12
 1496 0106 0023     		movs	r3, #0
 1497 0108 FB60     		str	r3, [r7, #12]
 1498              		.loc 10 271 5
 1499 010a 36E0     		b	.L70
 1500              	.L74:
 1501              		.loc 10 272 7
ARM GAS  C:\Users\DEVELO~1\AppData\Local\Temp\ccZ9dFx3.s 			page 28


 1502 010c FB68     		ldr	r3, [r7, #12]
 1503 010e DBB2     		uxtb	r3, r3
 1504 0110 4133     		adds	r3, r3, #65
 1505 0112 DBB2     		uxtb	r3, r3
 1506 0114 1846     		mov	r0, r3
 1507 0116 FFF7FEFF 		bl	test_emit_token
 1508              		.loc 10 273 13
 1509 011a 4FF4FA71 		mov	r1, #500
 1510 011e 2448     		ldr	r0, .L76+4
 1511 0120 FFF7FEFF 		bl	chSemWaitTimeout
 1512 0124 B860     		str	r0, [r7, #8]
 1513              		.loc 10 274 7
 1514 0126 BB68     		ldr	r3, [r7, #8]
 1515 0128 B3F1FF3F 		cmp	r3, #-1
 1516 012c 0CBF     		ite	eq
 1517 012e 0123     		moveq	r3, #1
 1518 0130 0023     		movne	r3, #0
 1519 0132 DBB2     		uxtb	r3, r3
 1520 0134 1F49     		ldr	r1, .L76+8
 1521 0136 1846     		mov	r0, r3
 1522 0138 FFF7FEFF 		bl	__test_assert
 1523 013c 0346     		mov	r3, r0
 1524 013e 002B     		cmp	r3, #0
 1525 0140 31D1     		bne	.L62
 1526              		.loc 10 275 7
 1527 0142 1B48     		ldr	r0, .L76+4
 1528 0144 FFF7FEFF 		bl	ch_queue_isempty
 1529 0148 0346     		mov	r3, r0
 1530 014a 1B49     		ldr	r1, .L76+12
 1531 014c 1846     		mov	r0, r3
 1532 014e FFF7FEFF 		bl	__test_assert
 1533 0152 0346     		mov	r3, r0
 1534 0154 002B     		cmp	r3, #0
 1535 0156 26D1     		bne	.L62
 1536              		.loc 10 276 7
 1537 0158 154B     		ldr	r3, .L76+4
 1538 015a 9B68     		ldr	r3, [r3, #8]
 1539 015c 002B     		cmp	r3, #0
 1540 015e 0CBF     		ite	eq
 1541 0160 0123     		moveq	r3, #1
 1542 0162 0023     		movne	r3, #0
 1543 0164 DBB2     		uxtb	r3, r3
 1544 0166 1549     		ldr	r1, .L76+16
 1545 0168 1846     		mov	r0, r3
 1546 016a FFF7FEFF 		bl	__test_assert
 1547 016e 0346     		mov	r3, r0
 1548 0170 002B     		cmp	r3, #0
 1549 0172 18D1     		bne	.L62
 1550              		.loc 10 271 25 discriminator 2
 1551 0174 FB68     		ldr	r3, [r7, #12]
 1552 0176 0133     		adds	r3, r3, #1
 1553 0178 FB60     		str	r3, [r7, #12]
 1554              	.L70:
 1555              		.loc 10 271 19 discriminator 1
 1556 017a FB68     		ldr	r3, [r7, #12]
 1557 017c 042B     		cmp	r3, #4
 1558 017e C5D9     		bls	.L74
ARM GAS  C:\Users\DEVELO~1\AppData\Local\Temp\ccZ9dFx3.s 			page 29


 1559              		.loc 10 278 5
 1560 0180 1249     		ldr	r1, .L76+32
 1561 0182 1348     		ldr	r0, .L76+36
 1562 0184 FFF7FEFF 		bl	__test_assert_sequence
 1563 0188 0346     		mov	r3, r0
 1564 018a 002B     		cmp	r3, #0
 1565 018c 0BD1     		bne	.L62
 1566              		.loc 10 279 5
 1567 018e 1421     		movs	r1, #20
 1568 0190 7868     		ldr	r0, [r7, #4]
 1569 0192 FFF7FEFF 		bl	chTimeAddX
 1570 0196 0346     		mov	r3, r0
 1571 0198 0E4A     		ldr	r2, .L76+40
 1572 019a 1946     		mov	r1, r3
 1573 019c 7868     		ldr	r0, [r7, #4]
 1574 019e FFF7FEFF 		bl	__test_assert_time_window
 1575 01a2 0346     		mov	r3, r0
 1576 01a4 002B     		cmp	r3, #0
 1577              	.L62:
 1578              		.loc 10 284 1
 1579 01a6 1437     		adds	r7, r7, #20
 1580              		.cfi_def_cfa_offset 12
 1581 01a8 BD46     		mov	sp, r7
 1582              		.cfi_def_cfa_register 13
 1583              		@ sp needed
 1584 01aa 90BD     		pop	{r4, r7, pc}
 1585              	.L77:
 1586              		.align	2
 1587              	.L76:
 1588 01ac 00000000 		.word	chtest
 1589 01b0 00000000 		.word	sem1
 1590 01b4 A0000000 		.word	.LC11
 1591 01b8 B8000000 		.word	.LC12
 1592 01bc C8000000 		.word	.LC13
 1593 01c0 00000000 		.word	wa
 1594 01c4 00000000 		.word	thread2
 1595 01c8 00000000 		.word	threads
 1596 01cc 68000000 		.word	.LC8
 1597 01d0 7C000000 		.word	.LC9
 1598 01d4 DC000000 		.word	.LC14
 1599              		.cfi_endproc
 1600              	.LFE446:
 1601              		.size	rt_test_007_003_execute, .-rt_test_007_003_execute
 1602              		.section	.rodata
 1603 00ef 00       		.align	2
 1604              	.LC15:
 1605 00f0 53656D61 		.ascii	"Semaphore timeout test\000"
 1605      70686F72 
 1605      65207469 
 1605      6D656F75 
 1605      74207465 
 1606              		.section	.rodata.rt_test_007_003,"a"
 1607              		.align	2
 1608              		.type	rt_test_007_003, %object
 1609              		.size	rt_test_007_003, 16
 1610              	rt_test_007_003:
 1611 0000 F0000000 		.word	.LC15
ARM GAS  C:\Users\DEVELO~1\AppData\Local\Temp\ccZ9dFx3.s 			page 30


 1612 0004 00000000 		.word	rt_test_007_003_setup
 1613 0008 00000000 		.word	0
 1614 000c 00000000 		.word	rt_test_007_003_execute
 1615              		.section	.text.rt_test_007_004_setup,"ax",%progbits
 1616              		.align	1
 1617              		.syntax unified
 1618              		.thumb
 1619              		.thumb_func
 1620              		.type	rt_test_007_004_setup, %function
 1621              	rt_test_007_004_setup:
 1622              	.LFB447:
 1623              		.loc 10 307 41
 1624              		.cfi_startproc
 1625              		@ args = 0, pretend = 0, frame = 0
 1626              		@ frame_needed = 1, uses_anonymous_args = 0
 1627 0000 80B5     		push	{r7, lr}
 1628              		.cfi_def_cfa_offset 8
 1629              		.cfi_offset 7, -8
 1630              		.cfi_offset 14, -4
 1631 0002 00AF     		add	r7, sp, #0
 1632              		.cfi_def_cfa_register 7
 1633              		.loc 10 308 3
 1634 0004 0021     		movs	r1, #0
 1635 0006 0248     		ldr	r0, .L79
 1636 0008 FFF7FEFF 		bl	chSemObjectInit
 1637              		.loc 10 309 1
 1638 000c 00BF     		nop
 1639 000e 80BD     		pop	{r7, pc}
 1640              	.L80:
 1641              		.align	2
 1642              	.L79:
 1643 0010 00000000 		.word	sem1
 1644              		.cfi_endproc
 1645              	.LFE447:
 1646              		.size	rt_test_007_004_setup, .-rt_test_007_004_setup
 1647              		.section	.rodata
 1648 0107 00       		.align	2
 1649              	.LC16:
 1650 0108 696E7661 		.ascii	"invalid counter\000"
 1650      6C696420 
 1650      636F756E 
 1650      74657200 
 1651              		.section	.text.rt_test_007_004_execute,"ax",%progbits
 1652              		.align	1
 1653              		.syntax unified
 1654              		.thumb
 1655              		.thumb_func
 1656              		.type	rt_test_007_004_execute, %function
 1657              	rt_test_007_004_execute:
 1658              	.LFB448:
 1659              		.loc 10 311 43
 1660              		.cfi_startproc
 1661              		@ args = 0, pretend = 0, frame = 0
 1662              		@ frame_needed = 1, uses_anonymous_args = 0
 1663 0000 90B5     		push	{r4, r7, lr}
 1664              		.cfi_def_cfa_offset 12
 1665              		.cfi_offset 4, -12
ARM GAS  C:\Users\DEVELO~1\AppData\Local\Temp\ccZ9dFx3.s 			page 31


 1666              		.cfi_offset 7, -8
 1667              		.cfi_offset 14, -4
 1668 0002 83B0     		sub	sp, sp, #12
 1669              		.cfi_def_cfa_offset 24
 1670 0004 02AF     		add	r7, sp, #8
 1671              		.cfi_def_cfa 7, 16
 1672              		.loc 10 314 3
 1673 0006 214B     		ldr	r3, .L84
 1674 0008 0122     		movs	r2, #1
 1675 000a 1A60     		str	r2, [r3]
 1676              		.loc 10 316 38
 1677 000c 204B     		ldr	r3, .L84+4
 1678 000e 1C68     		ldr	r4, [r3]
 1679              		.loc 10 316 52
 1680 0010 FFF7FEFF 		bl	chThdGetPriorityX
 1681 0014 0346     		mov	r3, r0
 1682              		.loc 10 316 18
 1683 0016 5A1C     		adds	r2, r3, #1
 1684 0018 1E4B     		ldr	r3, .L84+8
 1685 001a 0093     		str	r3, [sp]
 1686 001c 1E4B     		ldr	r3, .L84+12
 1687 001e 4FF4D871 		mov	r1, #432
 1688 0022 2046     		mov	r0, r4
 1689 0024 FFF7FEFF 		bl	chThdCreateStatic
 1690 0028 0346     		mov	r3, r0
 1691              		.loc 10 316 16
 1692 002a 1C4A     		ldr	r2, .L84+16
 1693 002c 1360     		str	r3, [r2]
 1694              		.loc 10 322 3
 1695 002e 174B     		ldr	r3, .L84
 1696 0030 0222     		movs	r2, #2
 1697 0032 1A60     		str	r2, [r3]
 1698              		.loc 10 324 5
 1699 0034 FFF7FEFF 		bl	chSysLock
 1700              		.loc 10 325 5
 1701 0038 0221     		movs	r1, #2
 1702 003a 1948     		ldr	r0, .L84+20
 1703 003c FFF7FEFF 		bl	chSemAddCounterI
 1704              		.loc 10 326 5
 1705 0040 FFF7FEFF 		bl	chSchRescheduleS
 1706              		.loc 10 327 5
 1707 0044 FFF7FEFF 		bl	chSysUnlock
 1708              		.loc 10 328 5
 1709 0048 FFF7FEFF 		bl	test_wait_threads
 1710              		.loc 10 329 5
 1711 004c FFF7FEFF 		bl	osalSysLock
 1712 0050 1348     		ldr	r0, .L84+20
 1713 0052 FFF7FEFF 		bl	chSemGetCounterI
 1714 0056 0346     		mov	r3, r0
 1715 0058 012B     		cmp	r3, #1
 1716 005a 0CBF     		ite	eq
 1717 005c 0123     		moveq	r3, #1
 1718 005e 0023     		movne	r3, #0
 1719 0060 DBB2     		uxtb	r3, r3
 1720 0062 1049     		ldr	r1, .L84+24
 1721 0064 1846     		mov	r0, r3
 1722 0066 FFF7FEFF 		bl	__test_assert
ARM GAS  C:\Users\DEVELO~1\AppData\Local\Temp\ccZ9dFx3.s 			page 32


 1723 006a 0346     		mov	r3, r0
 1724 006c 002B     		cmp	r3, #0
 1725 006e 02D0     		beq	.L82
 1726              		.loc 10 329 5 is_stmt 0 discriminator 1
 1727 0070 FFF7FEFF 		bl	osalSysUnlock
 1728 0074 07E0     		b	.L81
 1729              	.L82:
 1730              		.loc 10 329 5 discriminator 2
 1731 0076 FFF7FEFF 		bl	osalSysUnlock
 1732              		.loc 10 330 5 is_stmt 1 discriminator 2
 1733 007a 0B49     		ldr	r1, .L84+28
 1734 007c 0548     		ldr	r0, .L84+8
 1735 007e FFF7FEFF 		bl	__test_assert_sequence
 1736 0082 0346     		mov	r3, r0
 1737 0084 002B     		cmp	r3, #0
 1738              	.L81:
 1739              		.loc 10 333 1
 1740 0086 0437     		adds	r7, r7, #4
 1741              		.cfi_def_cfa_offset 12
 1742 0088 BD46     		mov	sp, r7
 1743              		.cfi_def_cfa_register 13
 1744              		@ sp needed
 1745 008a 90BD     		pop	{r4, r7, pc}
 1746              	.L85:
 1747              		.align	2
 1748              	.L84:
 1749 008c 00000000 		.word	chtest
 1750 0090 00000000 		.word	wa
 1751 0094 54000000 		.word	.LC3
 1752 0098 00000000 		.word	thread1
 1753 009c 00000000 		.word	threads
 1754 00a0 00000000 		.word	sem1
 1755 00a4 08010000 		.word	.LC16
 1756 00a8 68000000 		.word	.LC8
 1757              		.cfi_endproc
 1758              	.LFE448:
 1759              		.size	rt_test_007_004_execute, .-rt_test_007_004_execute
 1760              		.section	.rodata
 1761              		.align	2
 1762              	.LC17:
 1763 0118 54657374 		.ascii	"Testing chSemAddCounterI() functionality\000"
 1763      696E6720 
 1763      63685365 
 1763      6D416464 
 1763      436F756E 
 1764              		.section	.rodata.rt_test_007_004,"a"
 1765              		.align	2
 1766              		.type	rt_test_007_004, %object
 1767              		.size	rt_test_007_004, 16
 1768              	rt_test_007_004:
 1769 0000 18010000 		.word	.LC17
 1770 0004 00000000 		.word	rt_test_007_004_setup
 1771 0008 00000000 		.word	0
 1772 000c 00000000 		.word	rt_test_007_004_execute
 1773              		.section	.text.rt_test_007_005_setup,"ax",%progbits
 1774              		.align	1
 1775              		.syntax unified
ARM GAS  C:\Users\DEVELO~1\AppData\Local\Temp\ccZ9dFx3.s 			page 33


 1776              		.thumb
 1777              		.thumb_func
 1778              		.type	rt_test_007_005_setup, %function
 1779              	rt_test_007_005_setup:
 1780              	.LFB449:
 1781              		.loc 10 365 41
 1782              		.cfi_startproc
 1783              		@ args = 0, pretend = 0, frame = 0
 1784              		@ frame_needed = 1, uses_anonymous_args = 0
 1785 0000 80B5     		push	{r7, lr}
 1786              		.cfi_def_cfa_offset 8
 1787              		.cfi_offset 7, -8
 1788              		.cfi_offset 14, -4
 1789 0002 00AF     		add	r7, sp, #0
 1790              		.cfi_def_cfa_register 7
 1791              		.loc 10 366 3
 1792 0004 0021     		movs	r1, #0
 1793 0006 0248     		ldr	r0, .L87
 1794 0008 FFF7FEFF 		bl	chSemObjectInit
 1795              		.loc 10 367 1
 1796 000c 00BF     		nop
 1797 000e 80BD     		pop	{r7, pc}
 1798              	.L88:
 1799              		.align	2
 1800              	.L87:
 1801 0010 00000000 		.word	sem1
 1802              		.cfi_endproc
 1803              	.LFE449:
 1804              		.size	rt_test_007_005_setup, .-rt_test_007_005_setup
 1805              		.section	.text.rt_test_007_005_teardown,"ax",%progbits
 1806              		.align	1
 1807              		.syntax unified
 1808              		.thumb
 1809              		.thumb_func
 1810              		.type	rt_test_007_005_teardown, %function
 1811              	rt_test_007_005_teardown:
 1812              	.LFB450:
 1813              		.loc 10 369 44
 1814              		.cfi_startproc
 1815              		@ args = 0, pretend = 0, frame = 0
 1816              		@ frame_needed = 1, uses_anonymous_args = 0
 1817 0000 80B5     		push	{r7, lr}
 1818              		.cfi_def_cfa_offset 8
 1819              		.cfi_offset 7, -8
 1820              		.cfi_offset 14, -4
 1821 0002 00AF     		add	r7, sp, #0
 1822              		.cfi_def_cfa_register 7
 1823              		.loc 10 370 3
 1824 0004 FFF7FEFF 		bl	test_wait_threads
 1825              		.loc 10 371 1
 1826 0008 00BF     		nop
 1827 000a 80BD     		pop	{r7, pc}
 1828              		.cfi_endproc
 1829              	.LFE450:
 1830              		.size	rt_test_007_005_teardown, .-rt_test_007_005_teardown
 1831              		.section	.text.rt_test_007_005_execute,"ax",%progbits
 1832              		.align	1
ARM GAS  C:\Users\DEVELO~1\AppData\Local\Temp\ccZ9dFx3.s 			page 34


 1833              		.syntax unified
 1834              		.thumb
 1835              		.thumb_func
 1836              		.type	rt_test_007_005_execute, %function
 1837              	rt_test_007_005_execute:
 1838              	.LFB451:
 1839              		.loc 10 373 43
 1840              		.cfi_startproc
 1841              		@ args = 0, pretend = 0, frame = 0
 1842              		@ frame_needed = 1, uses_anonymous_args = 0
 1843 0000 90B5     		push	{r4, r7, lr}
 1844              		.cfi_def_cfa_offset 12
 1845              		.cfi_offset 4, -12
 1846              		.cfi_offset 7, -8
 1847              		.cfi_offset 14, -4
 1848 0002 83B0     		sub	sp, sp, #12
 1849              		.cfi_def_cfa_offset 24
 1850 0004 02AF     		add	r7, sp, #8
 1851              		.cfi_def_cfa 7, 16
 1852              		.loc 10 377 3
 1853 0006 2B4B     		ldr	r3, .L95
 1854 0008 0122     		movs	r2, #1
 1855 000a 1A60     		str	r2, [r3]
 1856              		.loc 10 379 38
 1857 000c 2A4B     		ldr	r3, .L95+4
 1858 000e 1C68     		ldr	r4, [r3]
 1859              		.loc 10 379 52
 1860 0010 FFF7FEFF 		bl	chThdGetPriorityX
 1861 0014 0346     		mov	r3, r0
 1862              		.loc 10 379 18
 1863 0016 5A1C     		adds	r2, r3, #1
 1864 0018 0023     		movs	r3, #0
 1865 001a 0093     		str	r3, [sp]
 1866 001c 274B     		ldr	r3, .L95+8
 1867 001e 4FF4D871 		mov	r1, #432
 1868 0022 2046     		mov	r0, r4
 1869 0024 FFF7FEFF 		bl	chThdCreateStatic
 1870 0028 0346     		mov	r3, r0
 1871              		.loc 10 379 16
 1872 002a 254A     		ldr	r2, .L95+12
 1873 002c 1360     		str	r3, [r2]
 1874              		.loc 10 386 3
 1875 002e 214B     		ldr	r3, .L95
 1876 0030 0222     		movs	r2, #2
 1877 0032 1A60     		str	r2, [r3]
 1878              		.loc 10 388 5
 1879 0034 2349     		ldr	r1, .L95+16
 1880 0036 2348     		ldr	r0, .L95+16
 1881 0038 FFF7FEFF 		bl	chSemSignalWait
 1882              		.loc 10 389 5
 1883 003c 2148     		ldr	r0, .L95+16
 1884 003e FFF7FEFF 		bl	ch_queue_isempty
 1885 0042 0346     		mov	r3, r0
 1886 0044 2049     		ldr	r1, .L95+20
 1887 0046 1846     		mov	r0, r3
 1888 0048 FFF7FEFF 		bl	__test_assert
 1889 004c 0346     		mov	r3, r0
ARM GAS  C:\Users\DEVELO~1\AppData\Local\Temp\ccZ9dFx3.s 			page 35


 1890 004e 002B     		cmp	r3, #0
 1891 0050 2CD1     		bne	.L90
 1892              		.loc 10 390 5
 1893 0052 1C4B     		ldr	r3, .L95+16
 1894 0054 9B68     		ldr	r3, [r3, #8]
 1895 0056 002B     		cmp	r3, #0
 1896 0058 0CBF     		ite	eq
 1897 005a 0123     		moveq	r3, #1
 1898 005c 0023     		movne	r3, #0
 1899 005e DBB2     		uxtb	r3, r3
 1900 0060 1A49     		ldr	r1, .L95+24
 1901 0062 1846     		mov	r0, r3
 1902 0064 FFF7FEFF 		bl	__test_assert
 1903 0068 0346     		mov	r3, r0
 1904 006a 002B     		cmp	r3, #0
 1905 006c 1ED1     		bne	.L90
 1906              		.loc 10 397 3
 1907 006e 114B     		ldr	r3, .L95
 1908 0070 0322     		movs	r2, #3
 1909 0072 1A60     		str	r2, [r3]
 1910              		.loc 10 399 5
 1911 0074 1349     		ldr	r1, .L95+16
 1912 0076 1348     		ldr	r0, .L95+16
 1913 0078 FFF7FEFF 		bl	chSemSignalWait
 1914              		.loc 10 400 5
 1915 007c 1148     		ldr	r0, .L95+16
 1916 007e FFF7FEFF 		bl	ch_queue_isempty
 1917 0082 0346     		mov	r3, r0
 1918 0084 1049     		ldr	r1, .L95+20
 1919 0086 1846     		mov	r0, r3
 1920 0088 FFF7FEFF 		bl	__test_assert
 1921 008c 0346     		mov	r3, r0
 1922 008e 002B     		cmp	r3, #0
 1923 0090 0CD1     		bne	.L90
 1924              		.loc 10 401 5
 1925 0092 0C4B     		ldr	r3, .L95+16
 1926 0094 9B68     		ldr	r3, [r3, #8]
 1927 0096 002B     		cmp	r3, #0
 1928 0098 0CBF     		ite	eq
 1929 009a 0123     		moveq	r3, #1
 1930 009c 0023     		movne	r3, #0
 1931 009e DBB2     		uxtb	r3, r3
 1932 00a0 0A49     		ldr	r1, .L95+24
 1933 00a2 1846     		mov	r0, r3
 1934 00a4 FFF7FEFF 		bl	__test_assert
 1935 00a8 0346     		mov	r3, r0
 1936 00aa 002B     		cmp	r3, #0
 1937              	.L90:
 1938              		.loc 10 404 1
 1939 00ac 0437     		adds	r7, r7, #4
 1940              		.cfi_def_cfa_offset 12
 1941 00ae BD46     		mov	sp, r7
 1942              		.cfi_def_cfa_register 13
 1943              		@ sp needed
 1944 00b0 90BD     		pop	{r4, r7, pc}
 1945              	.L96:
 1946 00b2 00BF     		.align	2
ARM GAS  C:\Users\DEVELO~1\AppData\Local\Temp\ccZ9dFx3.s 			page 36


 1947              	.L95:
 1948 00b4 00000000 		.word	chtest
 1949 00b8 00000000 		.word	wa
 1950 00bc 00000000 		.word	thread3
 1951 00c0 00000000 		.word	threads
 1952 00c4 00000000 		.word	sem1
 1953 00c8 B8000000 		.word	.LC12
 1954 00cc C8000000 		.word	.LC13
 1955              		.cfi_endproc
 1956              	.LFE451:
 1957              		.size	rt_test_007_005_execute, .-rt_test_007_005_execute
 1958              		.section	.rodata
 1959 0141 000000   		.align	2
 1960              	.LC18:
 1961 0144 54657374 		.ascii	"Testing chSemWaitSignal() functionality\000"
 1961      696E6720 
 1961      63685365 
 1961      6D576169 
 1961      74536967 
 1962              		.section	.rodata.rt_test_007_005,"a"
 1963              		.align	2
 1964              		.type	rt_test_007_005, %object
 1965              		.size	rt_test_007_005, 16
 1966              	rt_test_007_005:
 1967 0000 44010000 		.word	.LC18
 1968 0004 00000000 		.word	rt_test_007_005_setup
 1969 0008 00000000 		.word	rt_test_007_005_teardown
 1970 000c 00000000 		.word	rt_test_007_005_execute
 1971              		.section	.text.rt_test_007_006_teardown,"ax",%progbits
 1972              		.align	1
 1973              		.syntax unified
 1974              		.thumb
 1975              		.thumb_func
 1976              		.type	rt_test_007_006_teardown, %function
 1977              	rt_test_007_006_teardown:
 1978              	.LFB452:
 1979              		.loc 10 437 44
 1980              		.cfi_startproc
 1981              		@ args = 0, pretend = 0, frame = 0
 1982              		@ frame_needed = 1, uses_anonymous_args = 0
 1983 0000 80B5     		push	{r7, lr}
 1984              		.cfi_def_cfa_offset 8
 1985              		.cfi_offset 7, -8
 1986              		.cfi_offset 14, -4
 1987 0002 00AF     		add	r7, sp, #0
 1988              		.cfi_def_cfa_register 7
 1989              		.loc 10 438 3
 1990 0004 FFF7FEFF 		bl	test_wait_threads
 1991              		.loc 10 439 1
 1992 0008 00BF     		nop
 1993 000a 80BD     		pop	{r7, pc}
 1994              		.cfi_endproc
 1995              	.LFE452:
 1996              		.size	rt_test_007_006_teardown, .-rt_test_007_006_teardown
 1997              		.section	.rodata
 1998              		.align	2
 1999              	.LC19:
ARM GAS  C:\Users\DEVELO~1\AppData\Local\Temp\ccZ9dFx3.s 			page 37


 2000 016c 6E6F7420 		.ascii	"not taken\000"
 2000      74616B65 
 2000      6E00
 2001 0176 0000     		.align	2
 2002              	.LC20:
 2003 0178 756E6578 		.ascii	"unexpected message\000"
 2003      70656374 
 2003      6564206D 
 2003      65737361 
 2003      676500
 2004 018b 00       		.align	2
 2005              	.LC21:
 2006 018c 7374696C 		.ascii	"still taken\000"
 2006      6C207461 
 2006      6B656E00 
 2007              		.align	2
 2008              	.LC22:
 2009 0198 756E6578 		.ascii	"unexpected counter\000"
 2009      70656374 
 2009      65642063 
 2009      6F756E74 
 2009      657200
 2010 01ab 00       		.align	2
 2011              	.LC23:
 2012 01ac 74616B65 		.ascii	"taken\000"
 2012      6E00
 2013              		.section	.text.rt_test_007_006_execute,"ax",%progbits
 2014              		.align	1
 2015              		.syntax unified
 2016              		.thumb
 2017              		.thumb_func
 2018              		.type	rt_test_007_006_execute, %function
 2019              	rt_test_007_006_execute:
 2020              	.LFB453:
 2021              		.loc 10 441 43
 2022              		.cfi_startproc
 2023              		@ args = 0, pretend = 0, frame = 16
 2024              		@ frame_needed = 1, uses_anonymous_args = 0
 2025 0000 90B5     		push	{r4, r7, lr}
 2026              		.cfi_def_cfa_offset 12
 2027              		.cfi_offset 4, -12
 2028              		.cfi_offset 7, -8
 2029              		.cfi_offset 14, -4
 2030 0002 87B0     		sub	sp, sp, #28
 2031              		.cfi_def_cfa_offset 40
 2032 0004 02AF     		add	r7, sp, #8
 2033              		.cfi_def_cfa 7, 32
 2034              		.loc 10 447 3
 2035 0006 774B     		ldr	r3, .L109
 2036 0008 0122     		movs	r2, #1
 2037 000a 1A60     		str	r2, [r3]
 2038              		.loc 10 449 5
 2039 000c 3B46     		mov	r3, r7
 2040 000e 0121     		movs	r1, #1
 2041 0010 1846     		mov	r0, r3
 2042 0012 FFF7FEFF 		bl	chBSemObjectInit
 2043              		.loc 10 450 5
ARM GAS  C:\Users\DEVELO~1\AppData\Local\Temp\ccZ9dFx3.s 			page 38


 2044 0016 FFF7FEFF 		bl	osalSysLock
 2045 001a 3B46     		mov	r3, r7
 2046 001c 1846     		mov	r0, r3
 2047 001e FFF7FEFF 		bl	chBSemGetStateI
 2048 0022 0346     		mov	r3, r0
 2049 0024 7049     		ldr	r1, .L109+4
 2050 0026 1846     		mov	r0, r3
 2051 0028 FFF7FEFF 		bl	__test_assert
 2052 002c 0346     		mov	r3, r0
 2053 002e 002B     		cmp	r3, #0
 2054 0030 02D0     		beq	.L99
 2055              		.loc 10 450 5 is_stmt 0 discriminator 1
 2056 0032 FFF7FEFF 		bl	osalSysUnlock
 2057 0036 D2E0     		b	.L98
 2058              	.L99:
 2059              		.loc 10 450 5 discriminator 2
 2060 0038 FFF7FEFF 		bl	osalSysUnlock
 2061              		.loc 10 456 3 is_stmt 1 discriminator 2
 2062 003c 694B     		ldr	r3, .L109
 2063 003e 0222     		movs	r2, #2
 2064 0040 1A60     		str	r2, [r3]
 2065              		.loc 10 458 5 discriminator 2
 2066 0042 3B46     		mov	r3, r7
 2067 0044 0121     		movs	r1, #1
 2068 0046 1846     		mov	r0, r3
 2069 0048 FFF7FEFF 		bl	chBSemReset
 2070              		.loc 10 459 5 discriminator 2
 2071 004c FFF7FEFF 		bl	osalSysLock
 2072 0050 3B46     		mov	r3, r7
 2073 0052 1846     		mov	r0, r3
 2074 0054 FFF7FEFF 		bl	chBSemGetStateI
 2075 0058 0346     		mov	r3, r0
 2076 005a 6349     		ldr	r1, .L109+4
 2077 005c 1846     		mov	r0, r3
 2078 005e FFF7FEFF 		bl	__test_assert
 2079 0062 0346     		mov	r3, r0
 2080 0064 002B     		cmp	r3, #0
 2081 0066 02D0     		beq	.L101
 2082              		.loc 10 459 5 is_stmt 0 discriminator 1
 2083 0068 FFF7FEFF 		bl	osalSysUnlock
 2084 006c B7E0     		b	.L98
 2085              	.L101:
 2086              		.loc 10 459 5 discriminator 2
 2087 006e FFF7FEFF 		bl	osalSysUnlock
 2088              		.loc 10 464 3 is_stmt 1 discriminator 2
 2089 0072 5C4B     		ldr	r3, .L109
 2090 0074 0322     		movs	r2, #3
 2091 0076 1A60     		str	r2, [r3]
 2092              		.loc 10 466 38 discriminator 2
 2093 0078 5C4B     		ldr	r3, .L109+8
 2094 007a 1C68     		ldr	r4, [r3]
 2095              		.loc 10 467 36 discriminator 2
 2096 007c FFF7FEFF 		bl	chThdGetPriorityX
 2097 0080 0346     		mov	r3, r0
 2098              		.loc 10 466 18 discriminator 2
 2099 0082 5A1E     		subs	r2, r3, #1
 2100 0084 3B46     		mov	r3, r7
ARM GAS  C:\Users\DEVELO~1\AppData\Local\Temp\ccZ9dFx3.s 			page 39


 2101 0086 0093     		str	r3, [sp]
 2102 0088 594B     		ldr	r3, .L109+12
 2103 008a 4FF4D871 		mov	r1, #432
 2104 008e 2046     		mov	r0, r4
 2105 0090 FFF7FEFF 		bl	chThdCreateStatic
 2106 0094 0346     		mov	r3, r0
 2107              		.loc 10 466 16 discriminator 2
 2108 0096 574A     		ldr	r2, .L109+16
 2109 0098 1360     		str	r3, [r2]
 2110              		.loc 10 473 3 discriminator 2
 2111 009a 524B     		ldr	r3, .L109
 2112 009c 0422     		movs	r2, #4
 2113 009e 1A60     		str	r2, [r3]
 2114              		.loc 10 475 11 discriminator 2
 2115 00a0 3B46     		mov	r3, r7
 2116 00a2 1846     		mov	r0, r3
 2117 00a4 FFF7FEFF 		bl	chBSemWait
 2118 00a8 F860     		str	r0, [r7, #12]
 2119              		.loc 10 476 5 discriminator 2
 2120 00aa FFF7FEFF 		bl	osalSysLock
 2121 00ae 3B46     		mov	r3, r7
 2122 00b0 1846     		mov	r0, r3
 2123 00b2 FFF7FEFF 		bl	chBSemGetStateI
 2124 00b6 0346     		mov	r3, r0
 2125 00b8 4B49     		ldr	r1, .L109+4
 2126 00ba 1846     		mov	r0, r3
 2127 00bc FFF7FEFF 		bl	__test_assert
 2128 00c0 0346     		mov	r3, r0
 2129 00c2 002B     		cmp	r3, #0
 2130 00c4 02D0     		beq	.L102
 2131              		.loc 10 476 5 is_stmt 0 discriminator 1
 2132 00c6 FFF7FEFF 		bl	osalSysUnlock
 2133 00ca 88E0     		b	.L98
 2134              	.L102:
 2135              		.loc 10 476 5 discriminator 2
 2136 00cc FFF7FEFF 		bl	osalSysUnlock
 2137              		.loc 10 477 5 is_stmt 1 discriminator 2
 2138 00d0 FB68     		ldr	r3, [r7, #12]
 2139 00d2 002B     		cmp	r3, #0
 2140 00d4 0CBF     		ite	eq
 2141 00d6 0123     		moveq	r3, #1
 2142 00d8 0023     		movne	r3, #0
 2143 00da DBB2     		uxtb	r3, r3
 2144 00dc 4649     		ldr	r1, .L109+20
 2145 00de 1846     		mov	r0, r3
 2146 00e0 FFF7FEFF 		bl	__test_assert
 2147 00e4 0346     		mov	r3, r0
 2148 00e6 002B     		cmp	r3, #0
 2149 00e8 79D1     		bne	.L98
 2150              		.loc 10 484 3
 2151 00ea 3E4B     		ldr	r3, .L109
 2152 00ec 0522     		movs	r2, #5
 2153 00ee 1A60     		str	r2, [r3]
 2154              		.loc 10 486 5
 2155 00f0 3B46     		mov	r3, r7
 2156 00f2 1846     		mov	r0, r3
 2157 00f4 FFF7FEFF 		bl	chBSemSignal
ARM GAS  C:\Users\DEVELO~1\AppData\Local\Temp\ccZ9dFx3.s 			page 40


 2158              		.loc 10 487 5
 2159 00f8 FFF7FEFF 		bl	osalSysLock
 2160 00fc 3B46     		mov	r3, r7
 2161 00fe 1846     		mov	r0, r3
 2162 0100 FFF7FEFF 		bl	chBSemGetStateI
 2163 0104 0346     		mov	r3, r0
 2164 0106 002B     		cmp	r3, #0
 2165 0108 14BF     		ite	ne
 2166 010a 0123     		movne	r3, #1
 2167 010c 0023     		moveq	r3, #0
 2168 010e DBB2     		uxtb	r3, r3
 2169 0110 83F00103 		eor	r3, r3, #1
 2170 0114 DBB2     		uxtb	r3, r3
 2171 0116 03F00103 		and	r3, r3, #1
 2172 011a DBB2     		uxtb	r3, r3
 2173 011c 3749     		ldr	r1, .L109+24
 2174 011e 1846     		mov	r0, r3
 2175 0120 FFF7FEFF 		bl	__test_assert
 2176 0124 0346     		mov	r3, r0
 2177 0126 002B     		cmp	r3, #0
 2178 0128 02D0     		beq	.L104
 2179              		.loc 10 487 5 is_stmt 0 discriminator 1
 2180 012a FFF7FEFF 		bl	osalSysUnlock
 2181 012e 56E0     		b	.L98
 2182              	.L104:
 2183              		.loc 10 487 5 discriminator 2
 2184 0130 FFF7FEFF 		bl	osalSysUnlock
 2185              		.loc 10 488 5 is_stmt 1 discriminator 2
 2186 0134 FFF7FEFF 		bl	osalSysLock
 2187 0138 3B46     		mov	r3, r7
 2188 013a 1846     		mov	r0, r3
 2189 013c FFF7FEFF 		bl	chSemGetCounterI
 2190 0140 0346     		mov	r3, r0
 2191 0142 012B     		cmp	r3, #1
 2192 0144 0CBF     		ite	eq
 2193 0146 0123     		moveq	r3, #1
 2194 0148 0023     		movne	r3, #0
 2195 014a DBB2     		uxtb	r3, r3
 2196 014c 2C49     		ldr	r1, .L109+28
 2197 014e 1846     		mov	r0, r3
 2198 0150 FFF7FEFF 		bl	__test_assert
 2199 0154 0346     		mov	r3, r0
 2200 0156 002B     		cmp	r3, #0
 2201 0158 02D0     		beq	.L105
 2202              		.loc 10 488 5 is_stmt 0 discriminator 1
 2203 015a FFF7FEFF 		bl	osalSysUnlock
 2204 015e 3EE0     		b	.L98
 2205              	.L105:
 2206              		.loc 10 488 5 discriminator 2
 2207 0160 FFF7FEFF 		bl	osalSysUnlock
 2208              		.loc 10 494 3 is_stmt 1 discriminator 2
 2209 0164 1F4B     		ldr	r3, .L109
 2210 0166 0622     		movs	r2, #6
 2211 0168 1A60     		str	r2, [r3]
 2212              		.loc 10 496 5 discriminator 2
 2213 016a 3B46     		mov	r3, r7
 2214 016c 1846     		mov	r0, r3
ARM GAS  C:\Users\DEVELO~1\AppData\Local\Temp\ccZ9dFx3.s 			page 41


 2215 016e FFF7FEFF 		bl	chBSemSignal
 2216              		.loc 10 497 5 discriminator 2
 2217 0172 FFF7FEFF 		bl	osalSysLock
 2218 0176 3B46     		mov	r3, r7
 2219 0178 1846     		mov	r0, r3
 2220 017a FFF7FEFF 		bl	chBSemGetStateI
 2221 017e 0346     		mov	r3, r0
 2222 0180 002B     		cmp	r3, #0
 2223 0182 14BF     		ite	ne
 2224 0184 0123     		movne	r3, #1
 2225 0186 0023     		moveq	r3, #0
 2226 0188 DBB2     		uxtb	r3, r3
 2227 018a 83F00103 		eor	r3, r3, #1
 2228 018e DBB2     		uxtb	r3, r3
 2229 0190 03F00103 		and	r3, r3, #1
 2230 0194 DBB2     		uxtb	r3, r3
 2231 0196 1B49     		ldr	r1, .L109+32
 2232 0198 1846     		mov	r0, r3
 2233 019a FFF7FEFF 		bl	__test_assert
 2234 019e 0346     		mov	r3, r0
 2235 01a0 002B     		cmp	r3, #0
 2236 01a2 02D0     		beq	.L106
 2237              		.loc 10 497 5 is_stmt 0 discriminator 1
 2238 01a4 FFF7FEFF 		bl	osalSysUnlock
 2239 01a8 19E0     		b	.L98
 2240              	.L106:
 2241              		.loc 10 497 5 discriminator 2
 2242 01aa FFF7FEFF 		bl	osalSysUnlock
 2243              		.loc 10 498 5 is_stmt 1 discriminator 2
 2244 01ae FFF7FEFF 		bl	osalSysLock
 2245 01b2 3B46     		mov	r3, r7
 2246 01b4 1846     		mov	r0, r3
 2247 01b6 FFF7FEFF 		bl	chSemGetCounterI
 2248 01ba 0346     		mov	r3, r0
 2249 01bc 012B     		cmp	r3, #1
 2250 01be 0CBF     		ite	eq
 2251 01c0 0123     		moveq	r3, #1
 2252 01c2 0023     		movne	r3, #0
 2253 01c4 DBB2     		uxtb	r3, r3
 2254 01c6 0E49     		ldr	r1, .L109+28
 2255 01c8 1846     		mov	r0, r3
 2256 01ca FFF7FEFF 		bl	__test_assert
 2257 01ce 0346     		mov	r3, r0
 2258 01d0 002B     		cmp	r3, #0
 2259 01d2 02D0     		beq	.L107
 2260              		.loc 10 498 5 is_stmt 0 discriminator 1
 2261 01d4 FFF7FEFF 		bl	osalSysUnlock
 2262 01d8 01E0     		b	.L98
 2263              	.L107:
 2264              		.loc 10 498 5 discriminator 2
 2265 01da FFF7FEFF 		bl	osalSysUnlock
 2266              	.L98:
 2267              		.loc 10 501 1 is_stmt 1
 2268 01de 1437     		adds	r7, r7, #20
 2269              		.cfi_def_cfa_offset 12
 2270 01e0 BD46     		mov	sp, r7
 2271              		.cfi_def_cfa_register 13
ARM GAS  C:\Users\DEVELO~1\AppData\Local\Temp\ccZ9dFx3.s 			page 42


 2272              		@ sp needed
 2273 01e2 90BD     		pop	{r4, r7, pc}
 2274              	.L110:
 2275              		.align	2
 2276              	.L109:
 2277 01e4 00000000 		.word	chtest
 2278 01e8 6C010000 		.word	.LC19
 2279 01ec 00000000 		.word	wa
 2280 01f0 00000000 		.word	thread4
 2281 01f4 00000000 		.word	threads
 2282 01f8 78010000 		.word	.LC20
 2283 01fc 8C010000 		.word	.LC21
 2284 0200 98010000 		.word	.LC22
 2285 0204 AC010000 		.word	.LC23
 2286              		.cfi_endproc
 2287              	.LFE453:
 2288              		.size	rt_test_007_006_execute, .-rt_test_007_006_execute
 2289              		.section	.rodata
 2290 01b2 0000     		.align	2
 2291              	.LC24:
 2292 01b4 54657374 		.ascii	"Testing Binary Semaphores special case\000"
 2292      696E6720 
 2292      42696E61 
 2292      72792053 
 2292      656D6170 
 2293              		.section	.rodata.rt_test_007_006,"a"
 2294              		.align	2
 2295              		.type	rt_test_007_006, %object
 2296              		.size	rt_test_007_006, 16
 2297              	rt_test_007_006:
 2298 0000 B4010000 		.word	.LC24
 2299 0004 00000000 		.word	0
 2300 0008 00000000 		.word	rt_test_007_006_teardown
 2301 000c 00000000 		.word	rt_test_007_006_execute
 2302              		.global	rt_test_sequence_007_array
 2303              		.section	.rodata.rt_test_sequence_007_array,"a"
 2304              		.align	2
 2305              		.type	rt_test_sequence_007_array, %object
 2306              		.size	rt_test_sequence_007_array, 28
 2307              	rt_test_sequence_007_array:
 2308 0000 00000000 		.word	rt_test_007_001
 2309 0004 00000000 		.word	rt_test_007_002
 2310 0008 00000000 		.word	rt_test_007_003
 2311 000c 00000000 		.word	rt_test_007_004
 2312 0010 00000000 		.word	rt_test_007_005
 2313 0014 00000000 		.word	rt_test_007_006
 2314 0018 00000000 		.word	0
 2315              		.global	rt_test_sequence_007
 2316              		.section	.rodata
 2317 01db 00       		.align	2
 2318              	.LC25:
 2319 01dc 436F756E 		.ascii	"Counter Semaphores\000"
 2319      74657220 
 2319      53656D61 
 2319      70686F72 
 2319      657300
 2320              		.section	.rodata.rt_test_sequence_007,"a"
ARM GAS  C:\Users\DEVELO~1\AppData\Local\Temp\ccZ9dFx3.s 			page 43


 2321              		.align	2
 2322              		.type	rt_test_sequence_007, %object
 2323              		.size	rt_test_sequence_007, 8
 2324              	rt_test_sequence_007:
 2325 0000 DC010000 		.word	.LC25
 2326 0004 00000000 		.word	rt_test_sequence_007_array
 2327              		.text
 2328              	.Letext0:
 2329              		.file 11 "c:\\chibistudio\\tools\\gnu tools arm embedded\\11.3 2022.08\\lib\\gcc\\arm-none-eabi\\1
 2330              		.file 12 "c:\\chibistudio\\tools\\gnu tools arm embedded\\11.3 2022.08\\arm-none-eabi\\include\\ma
 2331              		.file 13 "c:\\chibistudio\\tools\\gnu tools arm embedded\\11.3 2022.08\\arm-none-eabi\\include\\sy
 2332              		.file 14 "../../../os/common/ports/ARM-common/chtypes.h"
 2333              		.file 15 "../../../os/rt/include/chearly.h"
 2334              		.file 16 "../../../os/rt/include/chobjects.h"
 2335              		.file 17 "../../../os/rt/include/chrfcu.h"
 2336              		.file 18 "../../../os/rt/include/chdebug.h"
 2337              		.file 19 "../../../os/rt/include/chtrace.h"
 2338              		.file 20 "../../../os/rt/include/chmtx.h"
 2339              		.file 21 "../../../os/hal/include/hal_streams.h"
 2340              		.file 22 "../../../os/test/include/ch_test.h"
 2341              		.file 23 "../../../test/rt/source/test/rt_test_sequence_007.h"
 2342              		.file 24 "../../../test/rt/source/test/rt_test_root.h"
 2343              		.file 25 "../../../os/rt/include/chschd.h"