ARM GAS  C:\Users\DEVELO~1\AppData\Local\Temp\ccyh9n5w.s 			page 1


   1              		.cpu cortex-m7
   2              		.arch armv7e-m
   3              		.fpu softvfp
   4              		.eabi_attribute 20, 1
   5              		.eabi_attribute 21, 1
   6              		.eabi_attribute 23, 3
   7              		.eabi_attribute 24, 1
   8              		.eabi_attribute 25, 1
   9              		.eabi_attribute 26, 1
  10              		.eabi_attribute 30, 6
  11              		.eabi_attribute 34, 1
  12              		.eabi_attribute 18, 4
  13              		.file	"rt_test_sequence_011.c"
  14              		.text
  15              	.Ltext0:
  16              		.cfi_sections	.debug_frame
  17              		.section	.text.chThdGetSelfX,"ax",%progbits
  18              		.align	1
  19              		.syntax unified
  20              		.thumb
  21              		.thumb_func
  22              		.type	chThdGetSelfX, %function
  23              	chThdGetSelfX:
  24              	.LFB229:
  25              		.file 1 "../../../os/rt/include/chthreads.h"
  26              		.loc 1 341 45
  27              		.cfi_startproc
  28              		@ args = 0, pretend = 0, frame = 0
  29              		@ frame_needed = 1, uses_anonymous_args = 0
  30              		@ link register save eliminated.
  31 0000 80B4     		push	{r7}
  32              		.cfi_def_cfa_offset 4
  33              		.cfi_offset 7, -4
  34 0002 00AF     		add	r7, sp, #0
  35              		.cfi_def_cfa_register 7
  36              		.loc 1 343 10
  37 0004 024B     		ldr	r3, .L3
  38 0006 DB68     		ldr	r3, [r3, #12]
  39              		.loc 1 344 1
  40 0008 1846     		mov	r0, r3
  41 000a BD46     		mov	sp, r7
  42              		.cfi_def_cfa_register 13
  43              		@ sp needed
  44 000c 80BC     		pop	{r7}
  45              		.cfi_restore 7
  46              		.cfi_def_cfa_offset 0
  47 000e 7047     		bx	lr
  48              	.L4:
  49              		.align	2
  50              	.L3:
  51 0010 00000000 		.word	ch0
  52              		.cfi_endproc
  53              	.LFE229:
  54              		.size	chThdGetSelfX, .-chThdGetSelfX
  55              		.section	.text.chThdGetPriorityX,"ax",%progbits
  56              		.align	1
  57              		.syntax unified
ARM GAS  C:\Users\DEVELO~1\AppData\Local\Temp\ccyh9n5w.s 			page 2


  58              		.thumb
  59              		.thumb_func
  60              		.type	chThdGetPriorityX, %function
  61              	chThdGetPriorityX:
  62              	.LFB230:
  63              		.loc 1 354 47
  64              		.cfi_startproc
  65              		@ args = 0, pretend = 0, frame = 0
  66              		@ frame_needed = 1, uses_anonymous_args = 0
  67 0000 80B5     		push	{r7, lr}
  68              		.cfi_def_cfa_offset 8
  69              		.cfi_offset 7, -8
  70              		.cfi_offset 14, -4
  71 0002 00AF     		add	r7, sp, #0
  72              		.cfi_def_cfa_register 7
  73              		.loc 1 356 10
  74 0004 FFF7FEFF 		bl	chThdGetSelfX
  75 0008 0346     		mov	r3, r0
  76              		.loc 1 356 37
  77 000a 9B68     		ldr	r3, [r3, #8]
  78              		.loc 1 357 1
  79 000c 1846     		mov	r0, r3
  80 000e 80BD     		pop	{r7, pc}
  81              		.cfi_endproc
  82              	.LFE230:
  83              		.size	chThdGetPriorityX, .-chThdGetPriorityX
  84              		.section	.text.chPoolObjectInit,"ax",%progbits
  85              		.align	1
  86              		.syntax unified
  87              		.thumb
  88              		.thumb_func
  89              		.type	chPoolObjectInit, %function
  90              	chPoolObjectInit:
  91              	.LFB286:
  92              		.file 2 "../../../os/oslib/include/chmempools.h"
  93              		.loc 2 191 60
  94              		.cfi_startproc
  95              		@ args = 0, pretend = 0, frame = 16
  96              		@ frame_needed = 1, uses_anonymous_args = 0
  97 0000 80B5     		push	{r7, lr}
  98              		.cfi_def_cfa_offset 8
  99              		.cfi_offset 7, -8
 100              		.cfi_offset 14, -4
 101 0002 84B0     		sub	sp, sp, #16
 102              		.cfi_def_cfa_offset 24
 103 0004 00AF     		add	r7, sp, #0
 104              		.cfi_def_cfa_register 7
 105 0006 F860     		str	r0, [r7, #12]
 106 0008 B960     		str	r1, [r7, #8]
 107 000a 7A60     		str	r2, [r7, #4]
 108              		.loc 2 193 3
 109 000c 7B68     		ldr	r3, [r7, #4]
 110 000e 0422     		movs	r2, #4
 111 0010 B968     		ldr	r1, [r7, #8]
 112 0012 F868     		ldr	r0, [r7, #12]
 113 0014 FFF7FEFF 		bl	chPoolObjectInitAligned
 114              		.loc 2 194 1
ARM GAS  C:\Users\DEVELO~1\AppData\Local\Temp\ccyh9n5w.s 			page 3


 115 0018 00BF     		nop
 116 001a 1037     		adds	r7, r7, #16
 117              		.cfi_def_cfa_offset 8
 118 001c BD46     		mov	sp, r7
 119              		.cfi_def_cfa_register 13
 120              		@ sp needed
 121 001e 80BD     		pop	{r7, pc}
 122              		.cfi_endproc
 123              	.LFE286:
 124              		.size	chPoolObjectInit, .-chPoolObjectInit
 125              		.section	.bss.heap1,"aw",%nobits
 126              		.align	2
 127              		.type	heap1, %object
 128              		.size	heap1, 28
 129              	heap1:
 130 0000 00000000 		.space	28
 130      00000000 
 130      00000000 
 130      00000000 
 130      00000000 
 131              		.section	.bss.mp1,"aw",%nobits
 132              		.align	2
 133              		.type	mp1, %object
 134              		.size	mp1, 16
 135              	mp1:
 136 0000 00000000 		.space	16
 136      00000000 
 136      00000000 
 136      00000000 
 137              		.section	.text.dyn_thread1,"ax",%progbits
 138              		.align	1
 139              		.syntax unified
 140              		.thumb
 141              		.thumb_func
 142              		.type	dyn_thread1, %function
 143              	dyn_thread1:
 144              	.LFB436:
 145              		.file 3 "../../../test/rt/source/test/rt_test_sequence_011.c"
 146              		.loc 3 57 37
 147              		.cfi_startproc
 148              		@ args = 0, pretend = 0, frame = 8
 149              		@ frame_needed = 1, uses_anonymous_args = 0
 150 0000 80B5     		push	{r7, lr}
 151              		.cfi_def_cfa_offset 8
 152              		.cfi_offset 7, -8
 153              		.cfi_offset 14, -4
 154 0002 82B0     		sub	sp, sp, #8
 155              		.cfi_def_cfa_offset 16
 156 0004 00AF     		add	r7, sp, #0
 157              		.cfi_def_cfa_register 7
 158 0006 7860     		str	r0, [r7, #4]
 159              		.loc 3 59 3
 160 0008 7B68     		ldr	r3, [r7, #4]
 161 000a 1B78     		ldrb	r3, [r3]	@ zero_extendqisi2
 162 000c 1846     		mov	r0, r3
 163 000e FFF7FEFF 		bl	test_emit_token
 164              		.loc 3 60 1
ARM GAS  C:\Users\DEVELO~1\AppData\Local\Temp\ccyh9n5w.s 			page 4


 165 0012 00BF     		nop
 166 0014 0837     		adds	r7, r7, #8
 167              		.cfi_def_cfa_offset 8
 168 0016 BD46     		mov	sp, r7
 169              		.cfi_def_cfa_register 13
 170              		@ sp needed
 171 0018 80BD     		pop	{r7, pc}
 172              		.cfi_endproc
 173              	.LFE436:
 174              		.size	dyn_thread1, .-dyn_thread1
 175              		.section	.text.rt_test_011_001_setup,"ax",%progbits
 176              		.align	1
 177              		.syntax unified
 178              		.thumb
 179              		.thumb_func
 180              		.type	rt_test_011_001_setup, %function
 181              	rt_test_011_001_setup:
 182              	.LFB437:
 183              		.loc 3 94 41
 184              		.cfi_startproc
 185              		@ args = 0, pretend = 0, frame = 0
 186              		@ frame_needed = 1, uses_anonymous_args = 0
 187 0000 80B5     		push	{r7, lr}
 188              		.cfi_def_cfa_offset 8
 189              		.cfi_offset 7, -8
 190              		.cfi_offset 14, -4
 191 0002 00AF     		add	r7, sp, #0
 192              		.cfi_def_cfa_register 7
 193              		.loc 3 95 3
 194 0004 4FF40762 		mov	r2, #2160
 195 0008 0249     		ldr	r1, .L10
 196 000a 0348     		ldr	r0, .L10+4
 197 000c FFF7FEFF 		bl	chHeapObjectInit
 198              		.loc 3 96 1
 199 0010 00BF     		nop
 200 0012 80BD     		pop	{r7, pc}
 201              	.L11:
 202              		.align	2
 203              	.L10:
 204 0014 00000000 		.word	test_buffer
 205 0018 00000000 		.word	heap1
 206              		.cfi_endproc
 207              	.LFE437:
 208              		.size	rt_test_011_001_setup, .-rt_test_011_001_setup
 209              		.section	.rodata
 210              		.align	2
 211              	.LC0:
 212 0000 68656170 		.ascii	"heap fragmented\000"
 212      20667261 
 212      676D656E 
 212      74656400 
 213              		.align	2
 214              	.LC1:
 215 0010 64796E31 		.ascii	"dyn1\000"
 215      00
 216 0015 000000   		.align	2
 217              	.LC2:
ARM GAS  C:\Users\DEVELO~1\AppData\Local\Temp\ccyh9n5w.s 			page 5


 218 0018 4100     		.ascii	"A\000"
 219 001a 0000     		.align	2
 220              	.LC3:
 221 001c 74687265 		.ascii	"thread creation failed\000"
 221      61642063 
 221      72656174 
 221      696F6E20 
 221      6661696C 
 222 0033 00       		.align	2
 223              	.LC4:
 224 0034 64796E32 		.ascii	"dyn2\000"
 224      00
 225 0039 000000   		.align	2
 226              	.LC5:
 227 003c 4200     		.ascii	"B\000"
 228 003e 0000     		.align	2
 229              	.LC6:
 230 0040 64796E33 		.ascii	"dyn3\000"
 230      00
 231 0045 000000   		.align	2
 232              	.LC7:
 233 0048 4300     		.ascii	"C\000"
 234 004a 0000     		.align	2
 235              	.LC8:
 236 004c 74687265 		.ascii	"thread creation not failed\000"
 236      61642063 
 236      72656174 
 236      696F6E20 
 236      6E6F7420 
 237 0067 00       		.align	2
 238              	.LC9:
 239 0068 696E7661 		.ascii	"invalid sequence\000"
 239      6C696420 
 239      73657175 
 239      656E6365 
 239      00
 240 0079 000000   		.align	2
 241              	.LC10:
 242 007c 414200   		.ascii	"AB\000"
 243 007f 00       		.align	2
 244              	.LC11:
 245 0080 66726167 		.ascii	"fragmentation changed\000"
 245      6D656E74 
 245      6174696F 
 245      6E206368 
 245      616E6765 
 246 0096 0000     		.align	2
 247              	.LC12:
 248 0098 746F7461 		.ascii	"total free space changed\000"
 248      6C206672 
 248      65652073 
 248      70616365 
 248      20636861 
 249 00b1 000000   		.align	2
 250              	.LC13:
 251 00b4 6C617267 		.ascii	"largest fragment size changed\000"
 251      65737420 
ARM GAS  C:\Users\DEVELO~1\AppData\Local\Temp\ccyh9n5w.s 			page 6


 251      66726167 
 251      6D656E74 
 251      2073697A 
 252              		.section	.text.rt_test_011_001_execute,"ax",%progbits
 253              		.align	1
 254              		.syntax unified
 255              		.thumb
 256              		.thumb_func
 257              		.type	rt_test_011_001_execute, %function
 258              	rt_test_011_001_execute:
 259              	.LFB438:
 260              		.loc 3 98 43
 261              		.cfi_startproc
 262              		@ args = 0, pretend = 0, frame = 32
 263              		@ frame_needed = 1, uses_anonymous_args = 0
 264 0000 80B5     		push	{r7, lr}
 265              		.cfi_def_cfa_offset 8
 266              		.cfi_offset 7, -8
 267              		.cfi_offset 14, -4
 268 0002 8AB0     		sub	sp, sp, #40
 269              		.cfi_def_cfa_offset 48
 270 0004 02AF     		add	r7, sp, #8
 271              		.cfi_def_cfa 7, 40
 272              		.loc 3 104 3
 273 0006 614B     		ldr	r3, .L23
 274 0008 0122     		movs	r2, #1
 275 000a 1A60     		str	r2, [r3]
 276              		.loc 3 106 12
 277 000c FFF7FEFF 		bl	chThdGetPriorityX
 278 0010 F861     		str	r0, [r7, #28]
 279              		.loc 3 111 3
 280 0012 5E4B     		ldr	r3, .L23
 281 0014 0222     		movs	r2, #2
 282 0016 1A60     		str	r2, [r3]
 283              		.loc 3 113 10
 284 0018 07F10C02 		add	r2, r7, #12
 285 001c 07F11003 		add	r3, r7, #16
 286 0020 1946     		mov	r1, r3
 287 0022 5B48     		ldr	r0, .L23+4
 288 0024 FFF7FEFF 		bl	chHeapStatus
 289 0028 B861     		str	r0, [r7, #24]
 290              		.loc 3 114 5
 291 002a BB69     		ldr	r3, [r7, #24]
 292 002c 012B     		cmp	r3, #1
 293 002e 0CBF     		ite	eq
 294 0030 0123     		moveq	r3, #1
 295 0032 0023     		movne	r3, #0
 296 0034 DBB2     		uxtb	r3, r3
 297 0036 5749     		ldr	r1, .L23+8
 298 0038 1846     		mov	r0, r3
 299 003a FFF7FEFF 		bl	__test_assert
 300 003e 0346     		mov	r3, r0
 301 0040 002B     		cmp	r3, #0
 302 0042 40F0A080 		bne	.L12
 303              		.loc 3 119 3
 304 0046 514B     		ldr	r3, .L23
 305 0048 0322     		movs	r2, #3
ARM GAS  C:\Users\DEVELO~1\AppData\Local\Temp\ccyh9n5w.s 			page 7


 306 004a 1A60     		str	r2, [r3]
 307              		.loc 3 121 18
 308 004c FB69     		ldr	r3, [r7, #28]
 309 004e 013B     		subs	r3, r3, #1
 310 0050 514A     		ldr	r2, .L23+12
 311 0052 0192     		str	r2, [sp, #4]
 312 0054 514A     		ldr	r2, .L23+16
 313 0056 0092     		str	r2, [sp]
 314 0058 514A     		ldr	r2, .L23+20
 315 005a 4FF4D871 		mov	r1, #432
 316 005e 4C48     		ldr	r0, .L23+4
 317 0060 FFF7FEFF 		bl	chThdCreateFromHeap
 318 0064 0346     		mov	r3, r0
 319              		.loc 3 121 16
 320 0066 4F4A     		ldr	r2, .L23+24
 321 0068 1360     		str	r3, [r2]
 322              		.loc 3 125 5
 323 006a 4E4B     		ldr	r3, .L23+24
 324 006c 1B68     		ldr	r3, [r3]
 325 006e 002B     		cmp	r3, #0
 326 0070 14BF     		ite	ne
 327 0072 0123     		movne	r3, #1
 328 0074 0023     		moveq	r3, #0
 329 0076 DBB2     		uxtb	r3, r3
 330 0078 4B49     		ldr	r1, .L23+28
 331 007a 1846     		mov	r0, r3
 332 007c FFF7FEFF 		bl	__test_assert
 333 0080 0346     		mov	r3, r0
 334 0082 002B     		cmp	r3, #0
 335 0084 7FD1     		bne	.L12
 336              		.loc 3 130 3
 337 0086 414B     		ldr	r3, .L23
 338 0088 0422     		movs	r2, #4
 339 008a 1A60     		str	r2, [r3]
 340              		.loc 3 132 18
 341 008c FB69     		ldr	r3, [r7, #28]
 342 008e 023B     		subs	r3, r3, #2
 343 0090 464A     		ldr	r2, .L23+32
 344 0092 0192     		str	r2, [sp, #4]
 345 0094 414A     		ldr	r2, .L23+16
 346 0096 0092     		str	r2, [sp]
 347 0098 454A     		ldr	r2, .L23+36
 348 009a 4FF4D871 		mov	r1, #432
 349 009e 3C48     		ldr	r0, .L23+4
 350 00a0 FFF7FEFF 		bl	chThdCreateFromHeap
 351 00a4 0346     		mov	r3, r0
 352              		.loc 3 132 16
 353 00a6 3F4A     		ldr	r2, .L23+24
 354 00a8 5360     		str	r3, [r2, #4]
 355              		.loc 3 136 5
 356 00aa 3E4B     		ldr	r3, .L23+24
 357 00ac 5B68     		ldr	r3, [r3, #4]
 358 00ae 002B     		cmp	r3, #0
 359 00b0 14BF     		ite	ne
 360 00b2 0123     		movne	r3, #1
 361 00b4 0023     		moveq	r3, #0
 362 00b6 DBB2     		uxtb	r3, r3
ARM GAS  C:\Users\DEVELO~1\AppData\Local\Temp\ccyh9n5w.s 			page 8


 363 00b8 3B49     		ldr	r1, .L23+28
 364 00ba 1846     		mov	r0, r3
 365 00bc FFF7FEFF 		bl	__test_assert
 366 00c0 0346     		mov	r3, r0
 367 00c2 002B     		cmp	r3, #0
 368 00c4 5FD1     		bne	.L12
 369              		.loc 3 141 3
 370 00c6 314B     		ldr	r3, .L23
 371 00c8 0522     		movs	r2, #5
 372 00ca 1A60     		str	r2, [r3]
 373              		.loc 3 143 18
 374 00cc FB69     		ldr	r3, [r7, #28]
 375 00ce 033B     		subs	r3, r3, #3
 376 00d0 384A     		ldr	r2, .L23+40
 377 00d2 0192     		str	r2, [sp, #4]
 378 00d4 314A     		ldr	r2, .L23+16
 379 00d6 0092     		str	r2, [sp]
 380 00d8 374A     		ldr	r2, .L23+44
 381 00da 4FF00041 		mov	r1, #-2147483648
 382 00de 2C48     		ldr	r0, .L23+4
 383 00e0 FFF7FEFF 		bl	chThdCreateFromHeap
 384 00e4 0346     		mov	r3, r0
 385              		.loc 3 143 16
 386 00e6 2F4A     		ldr	r2, .L23+24
 387 00e8 9360     		str	r3, [r2, #8]
 388              		.loc 3 147 5
 389 00ea 2E4B     		ldr	r3, .L23+24
 390 00ec 9B68     		ldr	r3, [r3, #8]
 391 00ee 002B     		cmp	r3, #0
 392 00f0 0CBF     		ite	eq
 393 00f2 0123     		moveq	r3, #1
 394 00f4 0023     		movne	r3, #0
 395 00f6 DBB2     		uxtb	r3, r3
 396 00f8 3049     		ldr	r1, .L23+48
 397 00fa 1846     		mov	r0, r3
 398 00fc FFF7FEFF 		bl	__test_assert
 399 0100 0346     		mov	r3, r0
 400 0102 002B     		cmp	r3, #0
 401 0104 3FD1     		bne	.L12
 402              		.loc 3 153 3
 403 0106 214B     		ldr	r3, .L23
 404 0108 0622     		movs	r2, #6
 405 010a 1A60     		str	r2, [r3]
 406              		.loc 3 155 5
 407 010c FFF7FEFF 		bl	test_wait_threads
 408              		.loc 3 156 5
 409 0110 2B49     		ldr	r1, .L23+52
 410 0112 2C48     		ldr	r0, .L23+56
 411 0114 FFF7FEFF 		bl	__test_assert_sequence
 412 0118 0346     		mov	r3, r0
 413 011a 002B     		cmp	r3, #0
 414 011c 33D1     		bne	.L12
 415              		.loc 3 161 3
 416 011e 1B4B     		ldr	r3, .L23
 417 0120 0722     		movs	r2, #7
 418 0122 1A60     		str	r2, [r3]
 419              		.loc 3 163 10
ARM GAS  C:\Users\DEVELO~1\AppData\Local\Temp\ccyh9n5w.s 			page 9


 420 0124 3A1D     		adds	r2, r7, #4
 421 0126 07F10803 		add	r3, r7, #8
 422 012a 1946     		mov	r1, r3
 423 012c 1848     		ldr	r0, .L23+4
 424 012e FFF7FEFF 		bl	chHeapStatus
 425 0132 7861     		str	r0, [r7, #20]
 426              		.loc 3 164 5
 427 0134 BA69     		ldr	r2, [r7, #24]
 428 0136 7B69     		ldr	r3, [r7, #20]
 429 0138 9A42     		cmp	r2, r3
 430 013a 0CBF     		ite	eq
 431 013c 0123     		moveq	r3, #1
 432 013e 0023     		movne	r3, #0
 433 0140 DBB2     		uxtb	r3, r3
 434 0142 2149     		ldr	r1, .L23+60
 435 0144 1846     		mov	r0, r3
 436 0146 FFF7FEFF 		bl	__test_assert
 437 014a 0346     		mov	r3, r0
 438 014c 002B     		cmp	r3, #0
 439 014e 1AD1     		bne	.L12
 440              		.loc 3 165 5
 441 0150 3A69     		ldr	r2, [r7, #16]
 442 0152 BB68     		ldr	r3, [r7, #8]
 443 0154 9A42     		cmp	r2, r3
 444 0156 0CBF     		ite	eq
 445 0158 0123     		moveq	r3, #1
 446 015a 0023     		movne	r3, #0
 447 015c DBB2     		uxtb	r3, r3
 448 015e 1B49     		ldr	r1, .L23+64
 449 0160 1846     		mov	r0, r3
 450 0162 FFF7FEFF 		bl	__test_assert
 451 0166 0346     		mov	r3, r0
 452 0168 002B     		cmp	r3, #0
 453 016a 0CD1     		bne	.L12
 454              		.loc 3 166 5
 455 016c FA68     		ldr	r2, [r7, #12]
 456 016e 7B68     		ldr	r3, [r7, #4]
 457 0170 9A42     		cmp	r2, r3
 458 0172 0CBF     		ite	eq
 459 0174 0123     		moveq	r3, #1
 460 0176 0023     		movne	r3, #0
 461 0178 DBB2     		uxtb	r3, r3
 462 017a 1549     		ldr	r1, .L23+68
 463 017c 1846     		mov	r0, r3
 464 017e FFF7FEFF 		bl	__test_assert
 465 0182 0346     		mov	r3, r0
 466 0184 002B     		cmp	r3, #0
 467              	.L12:
 468              		.loc 3 169 1
 469 0186 2037     		adds	r7, r7, #32
 470              		.cfi_def_cfa_offset 8
 471 0188 BD46     		mov	sp, r7
 472              		.cfi_def_cfa_register 13
 473              		@ sp needed
 474 018a 80BD     		pop	{r7, pc}
 475              	.L24:
 476              		.align	2
ARM GAS  C:\Users\DEVELO~1\AppData\Local\Temp\ccyh9n5w.s 			page 10


 477              	.L23:
 478 018c 00000000 		.word	chtest
 479 0190 00000000 		.word	heap1
 480 0194 00000000 		.word	.LC0
 481 0198 18000000 		.word	.LC2
 482 019c 00000000 		.word	dyn_thread1
 483 01a0 10000000 		.word	.LC1
 484 01a4 00000000 		.word	threads
 485 01a8 1C000000 		.word	.LC3
 486 01ac 3C000000 		.word	.LC5
 487 01b0 34000000 		.word	.LC4
 488 01b4 48000000 		.word	.LC7
 489 01b8 40000000 		.word	.LC6
 490 01bc 4C000000 		.word	.LC8
 491 01c0 68000000 		.word	.LC9
 492 01c4 7C000000 		.word	.LC10
 493 01c8 80000000 		.word	.LC11
 494 01cc 98000000 		.word	.LC12
 495 01d0 B4000000 		.word	.LC13
 496              		.cfi_endproc
 497              	.LFE438:
 498              		.size	rt_test_011_001_execute, .-rt_test_011_001_execute
 499              		.section	.rodata
 500 00d2 0000     		.align	2
 501              	.LC14:
 502 00d4 54687265 		.ascii	"Threads creation from Memory Heap\000"
 502      61647320 
 502      63726561 
 502      74696F6E 
 502      2066726F 
 503              		.section	.rodata.rt_test_011_001,"a"
 504              		.align	2
 505              		.type	rt_test_011_001, %object
 506              		.size	rt_test_011_001, 16
 507              	rt_test_011_001:
 508 0000 D4000000 		.word	.LC14
 509 0004 00000000 		.word	rt_test_011_001_setup
 510 0008 00000000 		.word	0
 511 000c 00000000 		.word	rt_test_011_001_execute
 512              		.section	.text.rt_test_011_002_setup,"ax",%progbits
 513              		.align	1
 514              		.syntax unified
 515              		.thumb
 516              		.thumb_func
 517              		.type	rt_test_011_002_setup, %function
 518              	rt_test_011_002_setup:
 519              	.LFB439:
 520              		.loc 3 205 41
 521              		.cfi_startproc
 522              		@ args = 0, pretend = 0, frame = 0
 523              		@ frame_needed = 1, uses_anonymous_args = 0
 524 0000 80B5     		push	{r7, lr}
 525              		.cfi_def_cfa_offset 8
 526              		.cfi_offset 7, -8
 527              		.cfi_offset 14, -4
 528 0002 00AF     		add	r7, sp, #0
 529              		.cfi_def_cfa_register 7
ARM GAS  C:\Users\DEVELO~1\AppData\Local\Temp\ccyh9n5w.s 			page 11


 530              		.loc 3 206 3
 531 0004 0022     		movs	r2, #0
 532 0006 4FF4D871 		mov	r1, #432
 533 000a 0248     		ldr	r0, .L26
 534 000c FFF7FEFF 		bl	chPoolObjectInit
 535              		.loc 3 207 1
 536 0010 00BF     		nop
 537 0012 80BD     		pop	{r7, pc}
 538              	.L27:
 539              		.align	2
 540              	.L26:
 541 0014 00000000 		.word	mp1
 542              		.cfi_endproc
 543              	.LFE439:
 544              		.size	rt_test_011_002_setup, .-rt_test_011_002_setup
 545              		.section	.rodata
 546 00f6 0000     		.align	2
 547              	.LC15:
 548 00f8 64796E34 		.ascii	"dyn4\000"
 548      00
 549 00fd 000000   		.align	2
 550              	.LC16:
 551 0100 4400     		.ascii	"D\000"
 552 0102 0000     		.align	2
 553              	.LC17:
 554 0104 64796E35 		.ascii	"dyn5\000"
 554      00
 555 0109 000000   		.align	2
 556              	.LC18:
 557 010c 4500     		.ascii	"E\000"
 558 010e 0000     		.align	2
 559              	.LC19:
 560 0110 41424344 		.ascii	"ABCD\000"
 560      00
 561 0115 000000   		.align	2
 562              	.LC20:
 563 0118 706F6F6C 		.ascii	"pool list empty\000"
 563      206C6973 
 563      7420656D 
 563      70747900 
 564              		.align	2
 565              	.LC21:
 566 0128 706F6F6C 		.ascii	"pool list not empty\000"
 566      206C6973 
 566      74206E6F 
 566      7420656D 
 566      70747900 
 567              		.section	.text.rt_test_011_002_execute,"ax",%progbits
 568              		.align	1
 569              		.syntax unified
 570              		.thumb
 571              		.thumb_func
 572              		.type	rt_test_011_002_execute, %function
 573              	rt_test_011_002_execute:
 574              	.LFB440:
 575              		.loc 3 209 43
 576              		.cfi_startproc
ARM GAS  C:\Users\DEVELO~1\AppData\Local\Temp\ccyh9n5w.s 			page 12


 577              		@ args = 0, pretend = 0, frame = 8
 578              		@ frame_needed = 1, uses_anonymous_args = 0
 579 0000 80B5     		push	{r7, lr}
 580              		.cfi_def_cfa_offset 8
 581              		.cfi_offset 7, -8
 582              		.cfi_offset 14, -4
 583 0002 84B0     		sub	sp, sp, #16
 584              		.cfi_def_cfa_offset 24
 585 0004 02AF     		add	r7, sp, #8
 586              		.cfi_def_cfa 7, 16
 587              		.loc 3 214 3
 588 0006 604B     		ldr	r3, .L40
 589 0008 0122     		movs	r2, #1
 590 000a 1A60     		str	r2, [r3]
 591              		.loc 3 216 12
 592 000c 0023     		movs	r3, #0
 593 000e 7B60     		str	r3, [r7, #4]
 594              		.loc 3 216 5
 595 0010 0AE0     		b	.L29
 596              	.L30:
 597              		.loc 3 217 26 discriminator 3
 598 0012 5E4A     		ldr	r2, .L40+4
 599 0014 7B68     		ldr	r3, [r7, #4]
 600 0016 52F82330 		ldr	r3, [r2, r3, lsl #2]
 601              		.loc 3 217 7 discriminator 3
 602 001a 1946     		mov	r1, r3
 603 001c 5C48     		ldr	r0, .L40+8
 604 001e FFF7FEFF 		bl	chPoolFree
 605              		.loc 3 216 25 discriminator 3
 606 0022 7B68     		ldr	r3, [r7, #4]
 607 0024 0133     		adds	r3, r3, #1
 608 0026 7B60     		str	r3, [r7, #4]
 609              	.L29:
 610              		.loc 3 216 19 discriminator 1
 611 0028 7B68     		ldr	r3, [r7, #4]
 612 002a 032B     		cmp	r3, #3
 613 002c F1D9     		bls	.L30
 614              		.loc 3 222 3
 615 002e 564B     		ldr	r3, .L40
 616 0030 0222     		movs	r2, #2
 617 0032 1A60     		str	r2, [r3]
 618              		.loc 3 224 12
 619 0034 FFF7FEFF 		bl	chThdGetPriorityX
 620 0038 3860     		str	r0, [r7]
 621              		.loc 3 229 3
 622 003a 534B     		ldr	r3, .L40
 623 003c 0322     		movs	r2, #3
 624 003e 1A60     		str	r2, [r3]
 625              		.loc 3 231 18
 626 0040 3B68     		ldr	r3, [r7]
 627 0042 5A1E     		subs	r2, r3, #1
 628 0044 534B     		ldr	r3, .L40+12
 629 0046 0093     		str	r3, [sp]
 630 0048 534B     		ldr	r3, .L40+16
 631 004a 5449     		ldr	r1, .L40+20
 632 004c 5048     		ldr	r0, .L40+8
 633 004e FFF7FEFF 		bl	chThdCreateFromMemoryPool
ARM GAS  C:\Users\DEVELO~1\AppData\Local\Temp\ccyh9n5w.s 			page 13


 634 0052 0346     		mov	r3, r0
 635              		.loc 3 231 16
 636 0054 524A     		ldr	r2, .L40+24
 637 0056 1360     		str	r3, [r2]
 638              		.loc 3 232 18
 639 0058 3B68     		ldr	r3, [r7]
 640 005a 9A1E     		subs	r2, r3, #2
 641 005c 514B     		ldr	r3, .L40+28
 642 005e 0093     		str	r3, [sp]
 643 0060 4D4B     		ldr	r3, .L40+16
 644 0062 5149     		ldr	r1, .L40+32
 645 0064 4A48     		ldr	r0, .L40+8
 646 0066 FFF7FEFF 		bl	chThdCreateFromMemoryPool
 647 006a 0346     		mov	r3, r0
 648              		.loc 3 232 16
 649 006c 4C4A     		ldr	r2, .L40+24
 650 006e 5360     		str	r3, [r2, #4]
 651              		.loc 3 233 18
 652 0070 3B68     		ldr	r3, [r7]
 653 0072 DA1E     		subs	r2, r3, #3
 654 0074 4D4B     		ldr	r3, .L40+36
 655 0076 0093     		str	r3, [sp]
 656 0078 474B     		ldr	r3, .L40+16
 657 007a 4D49     		ldr	r1, .L40+40
 658 007c 4448     		ldr	r0, .L40+8
 659 007e FFF7FEFF 		bl	chThdCreateFromMemoryPool
 660 0082 0346     		mov	r3, r0
 661              		.loc 3 233 16
 662 0084 464A     		ldr	r2, .L40+24
 663 0086 9360     		str	r3, [r2, #8]
 664              		.loc 3 234 18
 665 0088 3B68     		ldr	r3, [r7]
 666 008a 1A1F     		subs	r2, r3, #4
 667 008c 494B     		ldr	r3, .L40+44
 668 008e 0093     		str	r3, [sp]
 669 0090 414B     		ldr	r3, .L40+16
 670 0092 4949     		ldr	r1, .L40+48
 671 0094 3E48     		ldr	r0, .L40+8
 672 0096 FFF7FEFF 		bl	chThdCreateFromMemoryPool
 673 009a 0346     		mov	r3, r0
 674              		.loc 3 234 16
 675 009c 404A     		ldr	r2, .L40+24
 676 009e D360     		str	r3, [r2, #12]
 677              		.loc 3 235 18
 678 00a0 3B68     		ldr	r3, [r7]
 679 00a2 5A1F     		subs	r2, r3, #5
 680 00a4 454B     		ldr	r3, .L40+52
 681 00a6 0093     		str	r3, [sp]
 682 00a8 3B4B     		ldr	r3, .L40+16
 683 00aa 4549     		ldr	r1, .L40+56
 684 00ac 3848     		ldr	r0, .L40+8
 685 00ae FFF7FEFF 		bl	chThdCreateFromMemoryPool
 686 00b2 0346     		mov	r3, r0
 687              		.loc 3 235 16
 688 00b4 3A4A     		ldr	r2, .L40+24
 689 00b6 1361     		str	r3, [r2, #16]
 690              		.loc 3 240 3
ARM GAS  C:\Users\DEVELO~1\AppData\Local\Temp\ccyh9n5w.s 			page 14


 691 00b8 334B     		ldr	r3, .L40
 692 00ba 0422     		movs	r2, #4
 693 00bc 1A60     		str	r2, [r3]
 694              		.loc 3 242 5
 695 00be 384B     		ldr	r3, .L40+24
 696 00c0 1B68     		ldr	r3, [r3]
 697 00c2 002B     		cmp	r3, #0
 698 00c4 0DD0     		beq	.L31
 699              		.loc 3 242 5 is_stmt 0 discriminator 1
 700 00c6 364B     		ldr	r3, .L40+24
 701 00c8 5B68     		ldr	r3, [r3, #4]
 702 00ca 002B     		cmp	r3, #0
 703 00cc 09D0     		beq	.L31
 704              		.loc 3 242 5 discriminator 3
 705 00ce 344B     		ldr	r3, .L40+24
 706 00d0 9B68     		ldr	r3, [r3, #8]
 707 00d2 002B     		cmp	r3, #0
 708 00d4 05D0     		beq	.L31
 709              		.loc 3 242 5 discriminator 5
 710 00d6 324B     		ldr	r3, .L40+24
 711 00d8 DB68     		ldr	r3, [r3, #12]
 712 00da 002B     		cmp	r3, #0
 713 00dc 01D0     		beq	.L31
 714              		.loc 3 242 5 discriminator 7
 715 00de 0123     		movs	r3, #1
 716 00e0 00E0     		b	.L32
 717              	.L31:
 718              		.loc 3 242 5 discriminator 8
 719 00e2 0023     		movs	r3, #0
 720              	.L32:
 721              		.loc 3 242 5 discriminator 10
 722 00e4 03F00103 		and	r3, r3, #1
 723 00e8 DBB2     		uxtb	r3, r3
 724 00ea 3649     		ldr	r1, .L40+60
 725 00ec 1846     		mov	r0, r3
 726 00ee FFF7FEFF 		bl	__test_assert
 727 00f2 0346     		mov	r3, r0
 728 00f4 002B     		cmp	r3, #0
 729 00f6 44D1     		bne	.L28
 730              		.loc 3 247 5 is_stmt 1
 731 00f8 294B     		ldr	r3, .L40+24
 732 00fa 1B69     		ldr	r3, [r3, #16]
 733 00fc 002B     		cmp	r3, #0
 734 00fe 0CBF     		ite	eq
 735 0100 0123     		moveq	r3, #1
 736 0102 0023     		movne	r3, #0
 737 0104 DBB2     		uxtb	r3, r3
 738 0106 3049     		ldr	r1, .L40+64
 739 0108 1846     		mov	r0, r3
 740 010a FFF7FEFF 		bl	__test_assert
 741 010e 0346     		mov	r3, r0
 742 0110 002B     		cmp	r3, #0
 743 0112 36D1     		bne	.L28
 744              		.loc 3 254 3
 745 0114 1C4B     		ldr	r3, .L40
 746 0116 0522     		movs	r2, #5
 747 0118 1A60     		str	r2, [r3]
ARM GAS  C:\Users\DEVELO~1\AppData\Local\Temp\ccyh9n5w.s 			page 15


 748              		.loc 3 256 5
 749 011a FFF7FEFF 		bl	test_wait_threads
 750              		.loc 3 257 5
 751 011e 2B49     		ldr	r1, .L40+68
 752 0120 2B48     		ldr	r0, .L40+72
 753 0122 FFF7FEFF 		bl	__test_assert_sequence
 754 0126 0346     		mov	r3, r0
 755 0128 002B     		cmp	r3, #0
 756 012a 2AD1     		bne	.L28
 757              		.loc 3 262 3
 758 012c 164B     		ldr	r3, .L40
 759 012e 0622     		movs	r2, #6
 760 0130 1A60     		str	r2, [r3]
 761              		.loc 3 264 12
 762 0132 0023     		movs	r3, #0
 763 0134 7B60     		str	r3, [r7, #4]
 764              		.loc 3 264 5
 765 0136 12E0     		b	.L37
 766              	.L39:
 767              		.loc 3 265 7
 768 0138 1548     		ldr	r0, .L40+8
 769 013a FFF7FEFF 		bl	chPoolAlloc
 770 013e 0346     		mov	r3, r0
 771 0140 002B     		cmp	r3, #0
 772 0142 14BF     		ite	ne
 773 0144 0123     		movne	r3, #1
 774 0146 0023     		moveq	r3, #0
 775 0148 DBB2     		uxtb	r3, r3
 776 014a 2249     		ldr	r1, .L40+76
 777 014c 1846     		mov	r0, r3
 778 014e FFF7FEFF 		bl	__test_assert
 779 0152 0346     		mov	r3, r0
 780 0154 002B     		cmp	r3, #0
 781 0156 14D1     		bne	.L28
 782              		.loc 3 264 25 discriminator 2
 783 0158 7B68     		ldr	r3, [r7, #4]
 784 015a 0133     		adds	r3, r3, #1
 785 015c 7B60     		str	r3, [r7, #4]
 786              	.L37:
 787              		.loc 3 264 19 discriminator 1
 788 015e 7B68     		ldr	r3, [r7, #4]
 789 0160 032B     		cmp	r3, #3
 790 0162 E9D9     		bls	.L39
 791              		.loc 3 266 5
 792 0164 0A48     		ldr	r0, .L40+8
 793 0166 FFF7FEFF 		bl	chPoolAlloc
 794 016a 0346     		mov	r3, r0
 795 016c 002B     		cmp	r3, #0
 796 016e 0CBF     		ite	eq
 797 0170 0123     		moveq	r3, #1
 798 0172 0023     		movne	r3, #0
 799 0174 DBB2     		uxtb	r3, r3
 800 0176 1849     		ldr	r1, .L40+80
 801 0178 1846     		mov	r0, r3
 802 017a FFF7FEFF 		bl	__test_assert
 803 017e 0346     		mov	r3, r0
 804 0180 002B     		cmp	r3, #0
ARM GAS  C:\Users\DEVELO~1\AppData\Local\Temp\ccyh9n5w.s 			page 16


 805              	.L28:
 806              		.loc 3 269 1
 807 0182 0837     		adds	r7, r7, #8
 808              		.cfi_def_cfa_offset 8
 809 0184 BD46     		mov	sp, r7
 810              		.cfi_def_cfa_register 13
 811              		@ sp needed
 812 0186 80BD     		pop	{r7, pc}
 813              	.L41:
 814              		.align	2
 815              	.L40:
 816 0188 00000000 		.word	chtest
 817 018c 00000000 		.word	wa
 818 0190 00000000 		.word	mp1
 819 0194 18000000 		.word	.LC2
 820 0198 00000000 		.word	dyn_thread1
 821 019c 10000000 		.word	.LC1
 822 01a0 00000000 		.word	threads
 823 01a4 3C000000 		.word	.LC5
 824 01a8 34000000 		.word	.LC4
 825 01ac 48000000 		.word	.LC7
 826 01b0 40000000 		.word	.LC6
 827 01b4 00010000 		.word	.LC16
 828 01b8 F8000000 		.word	.LC15
 829 01bc 0C010000 		.word	.LC18
 830 01c0 04010000 		.word	.LC17
 831 01c4 1C000000 		.word	.LC3
 832 01c8 4C000000 		.word	.LC8
 833 01cc 68000000 		.word	.LC9
 834 01d0 10010000 		.word	.LC19
 835 01d4 18010000 		.word	.LC20
 836 01d8 28010000 		.word	.LC21
 837              		.cfi_endproc
 838              	.LFE440:
 839              		.size	rt_test_011_002_execute, .-rt_test_011_002_execute
 840              		.section	.rodata
 841              		.align	2
 842              	.LC22:
 843 013c 54687265 		.ascii	"Threads creation from Memory Pool\000"
 843      61647320 
 843      63726561 
 843      74696F6E 
 843      2066726F 
 844              		.section	.rodata.rt_test_011_002,"a"
 845              		.align	2
 846              		.type	rt_test_011_002, %object
 847              		.size	rt_test_011_002, 16
 848              	rt_test_011_002:
 849 0000 3C010000 		.word	.LC22
 850 0004 00000000 		.word	rt_test_011_002_setup
 851 0008 00000000 		.word	0
 852 000c 00000000 		.word	rt_test_011_002_execute
 853              		.global	rt_test_sequence_011_array
 854              		.section	.rodata.rt_test_sequence_011_array,"a"
 855              		.align	2
 856              		.type	rt_test_sequence_011_array, %object
 857              		.size	rt_test_sequence_011_array, 12
ARM GAS  C:\Users\DEVELO~1\AppData\Local\Temp\ccyh9n5w.s 			page 17


 858              	rt_test_sequence_011_array:
 859 0000 00000000 		.word	rt_test_011_001
 860 0004 00000000 		.word	rt_test_011_002
 861 0008 00000000 		.word	0
 862              		.global	rt_test_sequence_011
 863              		.section	.rodata
 864 015e 0000     		.align	2
 865              	.LC23:
 866 0160 44796E61 		.ascii	"Dynamic threads\000"
 866      6D696320 
 866      74687265 
 866      61647300 
 867              		.section	.rodata.rt_test_sequence_011,"a"
 868              		.align	2
 869              		.type	rt_test_sequence_011, %object
 870              		.size	rt_test_sequence_011, 8
 871              	rt_test_sequence_011:
 872 0000 60010000 		.word	.LC23
 873 0004 00000000 		.word	rt_test_sequence_011_array
 874              		.text
 875              	.Letext0:
 876              		.file 4 "c:\\chibistudio\\tools\\gnu tools arm embedded\\11.3 2022.08\\lib\\gcc\\arm-none-eabi\\11
 877              		.file 5 "c:\\chibistudio\\tools\\gnu tools arm embedded\\11.3 2022.08\\arm-none-eabi\\include\\mac
 878              		.file 6 "c:\\chibistudio\\tools\\gnu tools arm embedded\\11.3 2022.08\\arm-none-eabi\\include\\sys
 879              		.file 7 "../../../os/common/ports/ARM-common/chtypes.h"
 880              		.file 8 "../../../os/rt/include/chearly.h"
 881              		.file 9 "../../../os/rt/include/chobjects.h"
 882              		.file 10 "../../../os/rt/include/chrfcu.h"
 883              		.file 11 "../../../os/rt/include/chdebug.h"
 884              		.file 12 "../../../os/rt/include/chtime.h"
 885              		.file 13 "../../../os/rt/include/chlists.h"
 886              		.file 14 "../../../os/rt/include/chtrace.h"
 887              		.file 15 "../../../os/common/ports/ARMv7-M/chcore.h"
 888              		.file 16 "../../../os/rt/include/chsem.h"
 889              		.file 17 "../../../os/rt/include/chmtx.h"
 890              		.file 18 "../../../os/oslib/include/chmemcore.h"
 891              		.file 19 "../../../os/oslib/include/chmemheaps.h"
 892              		.file 20 "../../../os/hal/include/hal_streams.h"
 893              		.file 21 "../../../os/test/include/ch_test.h"
 894              		.file 22 "../../../test/rt/source/test/rt_test_sequence_011.h"
 895              		.file 23 "../../../test/rt/source/test/rt_test_root.h"
 896              		.file 24 "../../../os/rt/include/chsys.h"
 897              		.file 25 "../../../os/rt/include/chdynamic.h"
 898              		.section	.debug_info,"",%progbits
 899              	.Ldebug_info0:
 900 0000 41100000 		.4byte	0x1041
 901 0004 0500     		.2byte	0x5
 902 0006 01       		.byte	0x1
 903 0007 04       		.byte	0x4
 904 0008 00000000 		.4byte	.Ldebug_abbrev0
 905 000c 21       		.uleb128 0x21
 906 000d 19080000 		.4byte	.LASF190
 907 0011 1D       		.byte	0x1d
 908 0012 D8000000 		.4byte	.LASF191
 909 0016 00030000 		.4byte	.LASF192
 910 001a 0C000000 		.4byte	.LLRL0
 911 001e 00000000 		.4byte	0
ARM GAS  C:\Users\DEVELO~1\AppData\Local\Temp\ccyh9n5w.s 			page 18


 912 0022 00000000 		.4byte	.Ldebug_line0
 913 0026 22       		.uleb128 0x22
 914 0027 04       		.byte	0x4
 915 0028 05       		.byte	0x5
 916 0029 696E7400 		.ascii	"int\000"
 917 002d 02       		.uleb128 0x2
 918 002e 15000000 		.4byte	.LASF4
 919 0032 04       		.byte	0x4
 920 0033 D1       		.byte	0xd1
 921 0034 17       		.byte	0x17
 922 0035 39000000 		.4byte	0x39
 923 0039 09       		.uleb128 0x9
 924 003a 04       		.byte	0x4
 925 003b 07       		.byte	0x7
 926 003c B7020000 		.4byte	.LASF0
 927 0040 09       		.uleb128 0x9
 928 0041 08       		.byte	0x8
 929 0042 05       		.byte	0x5
 930 0043 0C010000 		.4byte	.LASF1
 931 0047 09       		.uleb128 0x9
 932 0048 08       		.byte	0x8
 933 0049 04       		.byte	0x4
 934 004a FC060000 		.4byte	.LASF2
 935 004e 09       		.uleb128 0x9
 936 004f 01       		.byte	0x1
 937 0050 06       		.byte	0x6
 938 0051 1A010000 		.4byte	.LASF3
 939 0055 02       		.uleb128 0x2
 940 0056 28000000 		.4byte	.LASF5
 941 005a 05       		.byte	0x5
 942 005b 2B       		.byte	0x2b
 943 005c 18       		.byte	0x18
 944 005d 61000000 		.4byte	0x61
 945 0061 09       		.uleb128 0x9
 946 0062 01       		.byte	0x1
 947 0063 08       		.byte	0x8
 948 0064 2D060000 		.4byte	.LASF6
 949 0068 09       		.uleb128 0x9
 950 0069 02       		.byte	0x2
 951 006a 05       		.byte	0x5
 952 006b 11040000 		.4byte	.LASF7
 953 006f 02       		.uleb128 0x2
 954 0070 30070000 		.4byte	.LASF8
 955 0074 05       		.byte	0x5
 956 0075 39       		.byte	0x39
 957 0076 19       		.byte	0x19
 958 0077 7B000000 		.4byte	0x7b
 959 007b 09       		.uleb128 0x9
 960 007c 02       		.byte	0x2
 961 007d 07       		.byte	0x7
 962 007e 83030000 		.4byte	.LASF9
 963 0082 02       		.uleb128 0x2
 964 0083 1B040000 		.4byte	.LASF10
 965 0087 05       		.byte	0x5
 966 0088 4D       		.byte	0x4d
 967 0089 18       		.byte	0x18
 968 008a 8E000000 		.4byte	0x8e
ARM GAS  C:\Users\DEVELO~1\AppData\Local\Temp\ccyh9n5w.s 			page 19


 969 008e 09       		.uleb128 0x9
 970 008f 04       		.byte	0x4
 971 0090 05       		.byte	0x5
 972 0091 5E000000 		.4byte	.LASF11
 973 0095 02       		.uleb128 0x2
 974 0096 4B020000 		.4byte	.LASF12
 975 009a 05       		.byte	0x5
 976 009b 4F       		.byte	0x4f
 977 009c 19       		.byte	0x19
 978 009d A1000000 		.4byte	0xa1
 979 00a1 09       		.uleb128 0x9
 980 00a2 04       		.byte	0x4
 981 00a3 07       		.byte	0x7
 982 00a4 26010000 		.4byte	.LASF13
 983 00a8 02       		.uleb128 0x2
 984 00a9 9A050000 		.4byte	.LASF14
 985 00ad 05       		.byte	0x5
 986 00ae 69       		.byte	0x69
 987 00af 19       		.byte	0x19
 988 00b0 B4000000 		.4byte	0xb4
 989 00b4 09       		.uleb128 0x9
 990 00b5 08       		.byte	0x8
 991 00b6 07       		.byte	0x7
 992 00b7 FD010000 		.4byte	.LASF15
 993 00bb 02       		.uleb128 0x2
 994 00bc D2080000 		.4byte	.LASF16
 995 00c0 06       		.byte	0x6
 996 00c1 18       		.byte	0x18
 997 00c2 13       		.byte	0x13
 998 00c3 55000000 		.4byte	0x55
 999 00c7 0B       		.uleb128 0xb
 1000 00c8 BB000000 		.4byte	0xbb
 1001 00cc 02       		.uleb128 0x2
 1002 00cd F4010000 		.4byte	.LASF17
 1003 00d1 06       		.byte	0x6
 1004 00d2 24       		.byte	0x24
 1005 00d3 14       		.byte	0x14
 1006 00d4 6F000000 		.4byte	0x6f
 1007 00d8 02       		.uleb128 0x2
 1008 00d9 25060000 		.4byte	.LASF18
 1009 00dd 06       		.byte	0x6
 1010 00de 2C       		.byte	0x2c
 1011 00df 13       		.byte	0x13
 1012 00e0 82000000 		.4byte	0x82
 1013 00e4 02       		.uleb128 0x2
 1014 00e5 D1060000 		.4byte	.LASF19
 1015 00e9 06       		.byte	0x6
 1016 00ea 30       		.byte	0x30
 1017 00eb 14       		.byte	0x14
 1018 00ec 95000000 		.4byte	0x95
 1019 00f0 02       		.uleb128 0x2
 1020 00f1 03050000 		.4byte	.LASF20
 1021 00f5 06       		.byte	0x6
 1022 00f6 3C       		.byte	0x3c
 1023 00f7 14       		.byte	0x14
 1024 00f8 A8000000 		.4byte	0xa8
 1025 00fc 1B       		.uleb128 0x1b
ARM GAS  C:\Users\DEVELO~1\AppData\Local\Temp\ccyh9n5w.s 			page 20


 1026 00fd F0000000 		.4byte	0xf0
 1027 0101 02       		.uleb128 0x2
 1028 0102 E1060000 		.4byte	.LASF21
 1029 0106 07       		.byte	0x7
 1030 0107 48       		.byte	0x48
 1031 0108 1D       		.byte	0x1d
 1032 0109 F0000000 		.4byte	0xf0
 1033 010d 02       		.uleb128 0x2
 1034 010e 3B040000 		.4byte	.LASF22
 1035 0112 08       		.byte	0x8
 1036 0113 50       		.byte	0x50
 1037 0114 19       		.byte	0x19
 1038 0115 01010000 		.4byte	0x101
 1039 0119 02       		.uleb128 0x2
 1040 011a D6030000 		.4byte	.LASF23
 1041 011e 08       		.byte	0x8
 1042 011f 53       		.byte	0x53
 1043 0120 19       		.byte	0x19
 1044 0121 BB000000 		.4byte	0xbb
 1045 0125 02       		.uleb128 0x2
 1046 0126 B4010000 		.4byte	.LASF24
 1047 012a 08       		.byte	0x8
 1048 012b 54       		.byte	0x54
 1049 012c 19       		.byte	0x19
 1050 012d BB000000 		.4byte	0xbb
 1051 0131 02       		.uleb128 0x2
 1052 0132 B4050000 		.4byte	.LASF25
 1053 0136 08       		.byte	0x8
 1054 0137 55       		.byte	0x55
 1055 0138 19       		.byte	0x19
 1056 0139 BB000000 		.4byte	0xbb
 1057 013d 02       		.uleb128 0x2
 1058 013e 02060000 		.4byte	.LASF26
 1059 0142 08       		.byte	0x8
 1060 0143 57       		.byte	0x57
 1061 0144 19       		.byte	0x19
 1062 0145 E4000000 		.4byte	0xe4
 1063 0149 02       		.uleb128 0x2
 1064 014a BB030000 		.4byte	.LASF27
 1065 014e 08       		.byte	0x8
 1066 014f 58       		.byte	0x58
 1067 0150 19       		.byte	0x19
 1068 0151 D8000000 		.4byte	0xd8
 1069 0155 02       		.uleb128 0x2
 1070 0156 05040000 		.4byte	.LASF28
 1071 015a 08       		.byte	0x8
 1072 015b 5A       		.byte	0x5a
 1073 015c 19       		.byte	0x19
 1074 015d E4000000 		.4byte	0xe4
 1075 0161 02       		.uleb128 0x2
 1076 0162 A8020000 		.4byte	.LASF29
 1077 0166 08       		.byte	0x8
 1078 0167 5C       		.byte	0x5c
 1079 0168 19       		.byte	0x19
 1080 0169 D8000000 		.4byte	0xd8
 1081 016d 02       		.uleb128 0x2
 1082 016e AA050000 		.4byte	.LASF30
ARM GAS  C:\Users\DEVELO~1\AppData\Local\Temp\ccyh9n5w.s 			page 21


 1083 0172 08       		.byte	0x8
 1084 0173 80       		.byte	0x80
 1085 0174 12       		.byte	0x12
 1086 0175 39000000 		.4byte	0x39
 1087 0179 02       		.uleb128 0x2
 1088 017a 3B070000 		.4byte	.LASF31
 1089 017e 08       		.byte	0x8
 1090 017f 85       		.byte	0x85
 1091 0180 1A       		.byte	0x1a
 1092 0181 85010000 		.4byte	0x185
 1093 0185 06       		.uleb128 0x6
 1094 0186 96030000 		.4byte	.LASF46
 1095 018a 48       		.byte	0x48
 1096 018b 09       		.byte	0x9
 1097 018c 9C       		.byte	0x9c
 1098 018d 08       		.byte	0x8
 1099 018e 62020000 		.4byte	0x262
 1100 0192 07       		.uleb128 0x7
 1101 0193 68647200 		.ascii	"hdr\000"
 1102 0197 09       		.byte	0x9
 1103 0198 AD       		.byte	0xad
 1104 0199 05       		.byte	0x5
 1105 019a 1D070000 		.4byte	0x71d
 1106 019e 00       		.byte	0
 1107 019f 07       		.uleb128 0x7
 1108 01a0 63747800 		.ascii	"ctx\000"
 1109 01a4 09       		.byte	0x9
 1110 01a5 B1       		.byte	0xb1
 1111 01a6 21       		.byte	0x21
 1112 01a7 88060000 		.4byte	0x688
 1113 01ab 0C       		.byte	0xc
 1114 01ac 01       		.uleb128 0x1
 1115 01ad F0020000 		.4byte	.LASF32
 1116 01b1 09       		.byte	0x9
 1117 01b2 B6       		.byte	0xb6
 1118 01b3 21       		.byte	0x21
 1119 01b4 A8030000 		.4byte	0x3a8
 1120 01b8 10       		.byte	0x10
 1121 01b9 01       		.uleb128 0x1
 1122 01ba F1060000 		.4byte	.LASF33
 1123 01be 09       		.byte	0x9
 1124 01bf BB       		.byte	0xbb
 1125 01c0 22       		.byte	0x22
 1126 01c1 1F080000 		.4byte	0x81f
 1127 01c5 18       		.byte	0x18
 1128 01c6 01       		.uleb128 0x1
 1129 01c7 6D030000 		.4byte	.LASF34
 1130 01cb 09       		.byte	0x9
 1131 01cc C0       		.byte	0xc0
 1132 01cd 22       		.byte	0x22
 1133 01ce 42030000 		.4byte	0x342
 1134 01d2 1C       		.byte	0x1c
 1135 01d3 01       		.uleb128 0x1
 1136 01d4 08070000 		.4byte	.LASF35
 1137 01d8 09       		.byte	0x9
 1138 01d9 C9       		.byte	0xc9
 1139 01da 22       		.byte	0x22
ARM GAS  C:\Users\DEVELO~1\AppData\Local\Temp\ccyh9n5w.s 			page 22


 1140 01db 24080000 		.4byte	0x824
 1141 01df 20       		.byte	0x20
 1142 01e0 01       		.uleb128 0x1
 1143 01e1 7F010000 		.4byte	.LASF36
 1144 01e5 09       		.byte	0x9
 1145 01e6 CE       		.byte	0xce
 1146 01e7 21       		.byte	0x21
 1147 01e8 25010000 		.4byte	0x125
 1148 01ec 24       		.byte	0x24
 1149 01ed 01       		.uleb128 0x1
 1150 01ee F1080000 		.4byte	.LASF37
 1151 01f2 09       		.byte	0x9
 1152 01f3 D2       		.byte	0xd2
 1153 01f4 21       		.byte	0x21
 1154 01f5 19010000 		.4byte	0x119
 1155 01f9 25       		.byte	0x25
 1156 01fa 01       		.uleb128 0x1
 1157 01fb C4050000 		.4byte	.LASF38
 1158 01ff 09       		.byte	0x9
 1159 0200 D7       		.byte	0xd7
 1160 0201 21       		.byte	0x21
 1161 0202 31010000 		.4byte	0x131
 1162 0206 26       		.byte	0x26
 1163 0207 0A       		.uleb128 0xa
 1164 0208 7500     		.ascii	"u\000"
 1165 020a 09       		.byte	0x9
 1166 020b 2801     		.2byte	0x128
 1167 020d 21       		.byte	0x21
 1168 020e 4A070000 		.4byte	0x74a
 1169 0212 28       		.byte	0x28
 1170 0213 05       		.uleb128 0x5
 1171 0214 66020000 		.4byte	.LASF39
 1172 0218 2D01     		.2byte	0x12d
 1173 021a 21       		.byte	0x21
 1174 021b 7C030000 		.4byte	0x37c
 1175 021f 2C       		.byte	0x2c
 1176 0220 05       		.uleb128 0x5
 1177 0221 AE020000 		.4byte	.LASF40
 1178 0225 3301     		.2byte	0x133
 1179 0227 21       		.byte	0x21
 1180 0228 A8030000 		.4byte	0x3a8
 1181 022c 30       		.byte	0x30
 1182 022d 05       		.uleb128 0x5
 1183 022e C1030000 		.4byte	.LASF41
 1184 0232 3901     		.2byte	0x139
 1185 0234 21       		.byte	0x21
 1186 0235 55010000 		.4byte	0x155
 1187 0239 38       		.byte	0x38
 1188 023a 05       		.uleb128 0x5
 1189 023b 44090000 		.4byte	.LASF42
 1190 023f 4001     		.2byte	0x140
 1191 0241 22       		.byte	0x22
 1192 0242 1A080000 		.4byte	0x81a
 1193 0246 3C       		.byte	0x3c
 1194 0247 05       		.uleb128 0x5
 1195 0248 7A040000 		.4byte	.LASF43
 1196 024c 4401     		.2byte	0x144
ARM GAS  C:\Users\DEVELO~1\AppData\Local\Temp\ccyh9n5w.s 			page 23


 1197 024e 21       		.byte	0x21
 1198 024f 3D010000 		.4byte	0x13d
 1199 0253 40       		.byte	0x40
 1200 0254 05       		.uleb128 0x5
 1201 0255 78030000 		.4byte	.LASF44
 1202 0259 4B01     		.2byte	0x14b
 1203 025b 22       		.byte	0x22
 1204 025c 96040000 		.4byte	0x496
 1205 0260 44       		.byte	0x44
 1206 0261 00       		.byte	0
 1207 0262 02       		.uleb128 0x2
 1208 0263 A3070000 		.4byte	.LASF45
 1209 0267 08       		.byte	0x8
 1210 0268 8A       		.byte	0x8a
 1211 0269 1F       		.byte	0x1f
 1212 026a 6E020000 		.4byte	0x26e
 1213 026e 23       		.uleb128 0x23
 1214 026f 94070000 		.4byte	.LASF47
 1215 0273 9008     		.2byte	0x890
 1216 0275 09       		.byte	0x9
 1217 0276 8A01     		.2byte	0x18a
 1218 0278 08       		.byte	0x8
 1219 0279 F4020000 		.4byte	0x2f4
 1220 027d 05       		.uleb128 0x5
 1221 027e BE080000 		.4byte	.LASF48
 1222 0282 8E01     		.2byte	0x18e
 1223 0284 21       		.byte	0x21
 1224 0285 52080000 		.4byte	0x852
 1225 0289 00       		.byte	0
 1226 028a 05       		.uleb128 0x5
 1227 028b 49000000 		.4byte	.LASF49
 1228 028f 9201     		.2byte	0x192
 1229 0291 21       		.byte	0x21
 1230 0292 DE060000 		.4byte	0x6de
 1231 0296 10       		.byte	0x10
 1232 0297 05       		.uleb128 0x5
 1233 0298 BA070000 		.4byte	.LASF50
 1234 029c 9901     		.2byte	0x199
 1235 029e 21       		.byte	0x21
 1236 029f 05070000 		.4byte	0x705
 1237 02a3 28       		.byte	0x28
 1238 02a4 05       		.uleb128 0x5
 1239 02a5 8C060000 		.4byte	.LASF51
 1240 02a9 9E01     		.2byte	0x19e
 1241 02ab 21       		.byte	0x21
 1242 02ac 6D010000 		.4byte	0x16d
 1243 02b0 30       		.byte	0x30
 1244 02b1 05       		.uleb128 0x5
 1245 02b2 23000000 		.4byte	.LASF52
 1246 02b6 A401     		.2byte	0x1a4
 1247 02b8 21       		.byte	0x21
 1248 02b9 1B030000 		.4byte	0x31b
 1249 02bd 34       		.byte	0x34
 1250 02be 05       		.uleb128 0x5
 1251 02bf 14070000 		.4byte	.LASF53
 1252 02c3 A901     		.2byte	0x1a9
 1253 02c5 22       		.byte	0x22
ARM GAS  C:\Users\DEVELO~1\AppData\Local\Temp\ccyh9n5w.s 			page 24


 1254 02c6 BD080000 		.4byte	0x8bd
 1255 02ca 38       		.byte	0x38
 1256 02cb 05       		.uleb128 0x5
 1257 02cc B0030000 		.4byte	.LASF54
 1258 02d0 AD01     		.2byte	0x1ad
 1259 02d2 21       		.byte	0x21
 1260 02d3 79010000 		.4byte	0x179
 1261 02d7 3C       		.byte	0x3c
 1262 02d8 0A       		.uleb128 0xa
 1263 02d9 64626700 		.ascii	"dbg\000"
 1264 02dd 09       		.byte	0x9
 1265 02de B101     		.2byte	0x1b1
 1266 02e0 21       		.byte	0x21
 1267 02e1 58030000 		.4byte	0x358
 1268 02e5 84       		.byte	0x84
 1269 02e6 05       		.uleb128 0x5
 1270 02e7 13090000 		.4byte	.LASF55
 1271 02eb B601     		.2byte	0x1b6
 1272 02ed 21       		.byte	0x21
 1273 02ee F6050000 		.4byte	0x5f6
 1274 02f2 88       		.byte	0x88
 1275 02f3 00       		.byte	0
 1276 02f4 02       		.uleb128 0x2
 1277 02f5 83040000 		.4byte	.LASF56
 1278 02f9 0A       		.byte	0xa
 1279 02fa 3F       		.byte	0x3f
 1280 02fb 12       		.byte	0x12
 1281 02fc E4000000 		.4byte	0xe4
 1282 0300 06       		.uleb128 0x6
 1283 0301 BC050000 		.4byte	.LASF57
 1284 0305 04       		.byte	0x4
 1285 0306 0A       		.byte	0xa
 1286 0307 44       		.byte	0x44
 1287 0308 10       		.byte	0x10
 1288 0309 1B030000 		.4byte	0x31b
 1289 030d 01       		.uleb128 0x1
 1290 030e 56020000 		.4byte	.LASF58
 1291 0312 0A       		.byte	0xa
 1292 0313 48       		.byte	0x48
 1293 0314 21       		.byte	0x21
 1294 0315 F4020000 		.4byte	0x2f4
 1295 0319 00       		.byte	0
 1296 031a 00       		.byte	0
 1297 031b 02       		.uleb128 0x2
 1298 031c 47060000 		.4byte	.LASF59
 1299 0320 0A       		.byte	0xa
 1300 0321 49       		.byte	0x49
 1301 0322 03       		.byte	0x3
 1302 0323 00030000 		.4byte	0x300
 1303 0327 06       		.uleb128 0x6
 1304 0328 0F060000 		.4byte	.LASF60
 1305 032c 04       		.byte	0x4
 1306 032d 0B       		.byte	0xb
 1307 032e 3E       		.byte	0x3e
 1308 032f 10       		.byte	0x10
 1309 0330 42030000 		.4byte	0x342
 1310 0334 01       		.uleb128 0x1
ARM GAS  C:\Users\DEVELO~1\AppData\Local\Temp\ccyh9n5w.s 			page 25


 1311 0335 83070000 		.4byte	.LASF61
 1312 0339 0B       		.byte	0xb
 1313 033a 46       		.byte	0x46
 1314 033b 24       		.byte	0x24
 1315 033c 47030000 		.4byte	0x347
 1316 0340 00       		.byte	0
 1317 0341 00       		.byte	0
 1318 0342 04       		.uleb128 0x4
 1319 0343 53030000 		.4byte	0x353
 1320 0347 1B       		.uleb128 0x1b
 1321 0348 42030000 		.4byte	0x342
 1322 034c 09       		.uleb128 0x9
 1323 034d 01       		.byte	0x1
 1324 034e 08       		.byte	0x8
 1325 034f 0F070000 		.4byte	.LASF62
 1326 0353 0B       		.uleb128 0xb
 1327 0354 4C030000 		.4byte	0x34c
 1328 0358 02       		.uleb128 0x2
 1329 0359 DB020000 		.4byte	.LASF63
 1330 035d 0B       		.byte	0xb
 1331 035e 51       		.byte	0x51
 1332 035f 03       		.byte	0x3
 1333 0360 27030000 		.4byte	0x327
 1334 0364 02       		.uleb128 0x2
 1335 0365 57070000 		.4byte	.LASF64
 1336 0369 0C       		.byte	0xc
 1337 036a 6D       		.byte	0x6d
 1338 036b 12       		.byte	0x12
 1339 036c E4000000 		.4byte	0xe4
 1340 0370 02       		.uleb128 0x2
 1341 0371 9A020000 		.4byte	.LASF65
 1342 0375 0C       		.byte	0xc
 1343 0376 79       		.byte	0x79
 1344 0377 12       		.byte	0x12
 1345 0378 E4000000 		.4byte	0xe4
 1346 037c 02       		.uleb128 0x2
 1347 037d C8040000 		.4byte	.LASF66
 1348 0381 0D       		.byte	0xd
 1349 0382 32       		.byte	0x32
 1350 0383 18       		.byte	0x18
 1351 0384 88030000 		.4byte	0x388
 1352 0388 06       		.uleb128 0x6
 1353 0389 DE030000 		.4byte	.LASF67
 1354 038d 04       		.byte	0x4
 1355 038e 0D       		.byte	0xd
 1356 038f 38       		.byte	0x38
 1357 0390 08       		.byte	0x8
 1358 0391 A3030000 		.4byte	0x3a3
 1359 0395 01       		.uleb128 0x1
 1360 0396 D3000000 		.4byte	.LASF68
 1361 039a 0D       		.byte	0xd
 1362 039b 39       		.byte	0x39
 1363 039c 1A       		.byte	0x1a
 1364 039d A3030000 		.4byte	0x3a3
 1365 03a1 00       		.byte	0
 1366 03a2 00       		.byte	0
 1367 03a3 04       		.uleb128 0x4
ARM GAS  C:\Users\DEVELO~1\AppData\Local\Temp\ccyh9n5w.s 			page 26


 1368 03a4 7C030000 		.4byte	0x37c
 1369 03a8 02       		.uleb128 0x2
 1370 03a9 5B020000 		.4byte	.LASF69
 1371 03ad 0D       		.byte	0xd
 1372 03ae 3F       		.byte	0x3f
 1373 03af 19       		.byte	0x19
 1374 03b0 B4030000 		.4byte	0x3b4
 1375 03b4 06       		.uleb128 0x6
 1376 03b5 E3010000 		.4byte	.LASF70
 1377 03b9 08       		.byte	0x8
 1378 03ba 0D       		.byte	0xd
 1379 03bb 45       		.byte	0x45
 1380 03bc 08       		.byte	0x8
 1381 03bd DC030000 		.4byte	0x3dc
 1382 03c1 01       		.uleb128 0x1
 1383 03c2 D3000000 		.4byte	.LASF68
 1384 03c6 0D       		.byte	0xd
 1385 03c7 46       		.byte	0x46
 1386 03c8 1A       		.byte	0x1a
 1387 03c9 DC030000 		.4byte	0x3dc
 1388 03cd 00       		.byte	0
 1389 03ce 01       		.uleb128 0x1
 1390 03cf 32000000 		.4byte	.LASF71
 1391 03d3 0D       		.byte	0xd
 1392 03d4 47       		.byte	0x47
 1393 03d5 1A       		.byte	0x1a
 1394 03d6 DC030000 		.4byte	0x3dc
 1395 03da 04       		.byte	0x4
 1396 03db 00       		.byte	0
 1397 03dc 04       		.uleb128 0x4
 1398 03dd A8030000 		.4byte	0x3a8
 1399 03e1 02       		.uleb128 0x2
 1400 03e2 6F070000 		.4byte	.LASF72
 1401 03e6 0D       		.byte	0xd
 1402 03e7 4E       		.byte	0x4e
 1403 03e8 22       		.byte	0x22
 1404 03e9 ED030000 		.4byte	0x3ed
 1405 03ed 06       		.uleb128 0x6
 1406 03ee E1070000 		.4byte	.LASF73
 1407 03f2 0C       		.byte	0xc
 1408 03f3 0D       		.byte	0xd
 1409 03f4 55       		.byte	0x55
 1410 03f5 08       		.byte	0x8
 1411 03f6 22040000 		.4byte	0x422
 1412 03fa 01       		.uleb128 0x1
 1413 03fb D3000000 		.4byte	.LASF68
 1414 03ff 0D       		.byte	0xd
 1415 0400 56       		.byte	0x56
 1416 0401 1A       		.byte	0x1a
 1417 0402 22040000 		.4byte	0x422
 1418 0406 00       		.byte	0
 1419 0407 01       		.uleb128 0x1
 1420 0408 32000000 		.4byte	.LASF71
 1421 040c 0D       		.byte	0xd
 1422 040d 57       		.byte	0x57
 1423 040e 1A       		.byte	0x1a
 1424 040f 22040000 		.4byte	0x422
ARM GAS  C:\Users\DEVELO~1\AppData\Local\Temp\ccyh9n5w.s 			page 27


 1425 0413 04       		.byte	0x4
 1426 0414 01       		.uleb128 0x1
 1427 0415 7B050000 		.4byte	.LASF74
 1428 0419 0D       		.byte	0xd
 1429 041a 58       		.byte	0x58
 1430 041b 19       		.byte	0x19
 1431 041c 3D010000 		.4byte	0x13d
 1432 0420 08       		.byte	0x8
 1433 0421 00       		.byte	0
 1434 0422 04       		.uleb128 0x4
 1435 0423 E1030000 		.4byte	0x3e1
 1436 0427 02       		.uleb128 0x2
 1437 0428 F3070000 		.4byte	.LASF75
 1438 042c 0D       		.byte	0xd
 1439 042d 5F       		.byte	0x5f
 1440 042e 1E       		.byte	0x1e
 1441 042f 33040000 		.4byte	0x433
 1442 0433 06       		.uleb128 0x6
 1443 0434 38010000 		.4byte	.LASF76
 1444 0438 0C       		.byte	0xc
 1445 0439 0D       		.byte	0xd
 1446 043a 64       		.byte	0x64
 1447 043b 08       		.byte	0x8
 1448 043c 68040000 		.4byte	0x468
 1449 0440 01       		.uleb128 0x1
 1450 0441 D3000000 		.4byte	.LASF68
 1451 0445 0D       		.byte	0xd
 1452 0446 65       		.byte	0x65
 1453 0447 1A       		.byte	0x1a
 1454 0448 68040000 		.4byte	0x468
 1455 044c 00       		.byte	0
 1456 044d 01       		.uleb128 0x1
 1457 044e 32000000 		.4byte	.LASF71
 1458 0452 0D       		.byte	0xd
 1459 0453 66       		.byte	0x66
 1460 0454 1A       		.byte	0x1a
 1461 0455 68040000 		.4byte	0x468
 1462 0459 04       		.byte	0x4
 1463 045a 01       		.uleb128 0x1
 1464 045b CD000000 		.4byte	.LASF77
 1465 045f 0D       		.byte	0xd
 1466 0460 67       		.byte	0x67
 1467 0461 19       		.byte	0x19
 1468 0462 70030000 		.4byte	0x370
 1469 0466 08       		.byte	0x8
 1470 0467 00       		.byte	0
 1471 0468 04       		.uleb128 0x4
 1472 0469 27040000 		.4byte	0x427
 1473 046d 08       		.uleb128 0x8
 1474 046e 08       		.byte	0x8
 1475 046f 0E       		.byte	0xe
 1476 0470 83       		.byte	0x83
 1477 0471 05       		.byte	0x5
 1478 0472 91040000 		.4byte	0x491
 1479 0476 07       		.uleb128 0x7
 1480 0477 6E747000 		.ascii	"ntp\000"
 1481 047b 0E       		.byte	0xe
ARM GAS  C:\Users\DEVELO~1\AppData\Local\Temp\ccyh9n5w.s 			page 28


 1482 047c 87       		.byte	0x87
 1483 047d 1E       		.byte	0x1e
 1484 047e 91040000 		.4byte	0x491
 1485 0482 00       		.byte	0
 1486 0483 01       		.uleb128 0x1
 1487 0484 FC080000 		.4byte	.LASF78
 1488 0488 0E       		.byte	0xe
 1489 0489 8B       		.byte	0x8b
 1490 048a 1E       		.byte	0x1e
 1491 048b 96040000 		.4byte	0x496
 1492 048f 04       		.byte	0x4
 1493 0490 00       		.byte	0
 1494 0491 04       		.uleb128 0x4
 1495 0492 79010000 		.4byte	0x179
 1496 0496 24       		.uleb128 0x24
 1497 0497 04       		.byte	0x4
 1498 0498 0B       		.uleb128 0xb
 1499 0499 96040000 		.4byte	0x496
 1500 049d 08       		.uleb128 0x8
 1501 049e 08       		.byte	0x8
 1502 049f 0E       		.byte	0xe
 1503 04a0 90       		.byte	0x90
 1504 04a1 05       		.byte	0x5
 1505 04a2 C0040000 		.4byte	0x4c0
 1506 04a6 07       		.uleb128 0x7
 1507 04a7 747000   		.ascii	"tp\000"
 1508 04aa 0E       		.byte	0xe
 1509 04ab 94       		.byte	0x94
 1510 04ac 1E       		.byte	0x1e
 1511 04ad 91040000 		.4byte	0x491
 1512 04b1 00       		.byte	0
 1513 04b2 07       		.uleb128 0x7
 1514 04b3 6D736700 		.ascii	"msg\000"
 1515 04b7 0E       		.byte	0xe
 1516 04b8 98       		.byte	0x98
 1517 04b9 1D       		.byte	0x1d
 1518 04ba 49010000 		.4byte	0x149
 1519 04be 04       		.byte	0x4
 1520 04bf 00       		.byte	0
 1521 04c0 08       		.uleb128 0x8
 1522 04c1 04       		.byte	0x4
 1523 04c2 0E       		.byte	0xe
 1524 04c3 9D       		.byte	0x9d
 1525 04c4 05       		.byte	0x5
 1526 04c5 D7040000 		.4byte	0x4d7
 1527 04c9 01       		.uleb128 0x1
 1528 04ca 6D030000 		.4byte	.LASF34
 1529 04ce 0E       		.byte	0xe
 1530 04cf A1       		.byte	0xa1
 1531 04d0 1E       		.byte	0x1e
 1532 04d1 42030000 		.4byte	0x342
 1533 04d5 00       		.byte	0
 1534 04d6 00       		.byte	0
 1535 04d7 08       		.uleb128 0x8
 1536 04d8 04       		.byte	0x4
 1537 04d9 0E       		.byte	0xe
 1538 04da A6       		.byte	0xa6
ARM GAS  C:\Users\DEVELO~1\AppData\Local\Temp\ccyh9n5w.s 			page 29


 1539 04db 05       		.byte	0x5
 1540 04dc EE040000 		.4byte	0x4ee
 1541 04e0 01       		.uleb128 0x1
 1542 04e1 94060000 		.4byte	.LASF79
 1543 04e5 0E       		.byte	0xe
 1544 04e6 AA       		.byte	0xaa
 1545 04e7 1E       		.byte	0x1e
 1546 04e8 42030000 		.4byte	0x342
 1547 04ec 00       		.byte	0
 1548 04ed 00       		.byte	0
 1549 04ee 08       		.uleb128 0x8
 1550 04ef 08       		.byte	0x8
 1551 04f0 0E       		.byte	0xe
 1552 04f1 AF       		.byte	0xaf
 1553 04f2 05       		.byte	0x5
 1554 04f3 12050000 		.4byte	0x512
 1555 04f7 07       		.uleb128 0x7
 1556 04f8 75703100 		.ascii	"up1\000"
 1557 04fc 0E       		.byte	0xe
 1558 04fd B3       		.byte	0xb3
 1559 04fe 1E       		.byte	0x1e
 1560 04ff 96040000 		.4byte	0x496
 1561 0503 00       		.byte	0
 1562 0504 07       		.uleb128 0x7
 1563 0505 75703200 		.ascii	"up2\000"
 1564 0509 0E       		.byte	0xe
 1565 050a B7       		.byte	0xb7
 1566 050b 1E       		.byte	0x1e
 1567 050c 96040000 		.4byte	0x496
 1568 0510 04       		.byte	0x4
 1569 0511 00       		.byte	0
 1570 0512 16       		.uleb128 0x16
 1571 0513 08       		.byte	0x8
 1572 0514 0E       		.byte	0xe
 1573 0515 7F       		.byte	0x7f
 1574 0516 50050000 		.4byte	0x550
 1575 051a 17       		.uleb128 0x17
 1576 051b 737700   		.ascii	"sw\000"
 1577 051e 8C       		.byte	0x8c
 1578 051f 6D040000 		.4byte	0x46d
 1579 0523 17       		.uleb128 0x17
 1580 0524 72647900 		.ascii	"rdy\000"
 1581 0528 99       		.byte	0x99
 1582 0529 9D040000 		.4byte	0x49d
 1583 052d 17       		.uleb128 0x17
 1584 052e 69737200 		.ascii	"isr\000"
 1585 0532 A2       		.byte	0xa2
 1586 0533 C0040000 		.4byte	0x4c0
 1587 0537 0C       		.uleb128 0xc
 1588 0538 A1000000 		.4byte	.LASF80
 1589 053c 0E       		.byte	0xe
 1590 053d AB       		.byte	0xab
 1591 053e 07       		.byte	0x7
 1592 053f D7040000 		.4byte	0x4d7
 1593 0543 0C       		.uleb128 0xc
 1594 0544 0A060000 		.4byte	.LASF81
 1595 0548 0E       		.byte	0xe
ARM GAS  C:\Users\DEVELO~1\AppData\Local\Temp\ccyh9n5w.s 			page 30


 1596 0549 B8       		.byte	0xb8
 1597 054a 07       		.byte	0x7
 1598 054b EE040000 		.4byte	0x4ee
 1599 054f 00       		.byte	0
 1600 0550 08       		.uleb128 0x8
 1601 0551 10       		.byte	0x10
 1602 0552 0E       		.byte	0xe
 1603 0553 6C       		.byte	0x6c
 1604 0554 09       		.byte	0x9
 1605 0555 96050000 		.4byte	0x596
 1606 0559 18       		.uleb128 0x18
 1607 055a 59000000 		.4byte	.LASF82
 1608 055e 70       		.byte	0x70
 1609 055f E4000000 		.4byte	0xe4
 1610 0563 03       		.byte	0x3
 1611 0564 00       		.byte	0
 1612 0565 18       		.uleb128 0x18
 1613 0566 7F010000 		.4byte	.LASF36
 1614 056a 74       		.byte	0x74
 1615 056b E4000000 		.4byte	0xe4
 1616 056f 05       		.byte	0x5
 1617 0570 03       		.byte	0x3
 1618 0571 18       		.uleb128 0x18
 1619 0572 62040000 		.4byte	.LASF83
 1620 0576 7A       		.byte	0x7a
 1621 0577 E4000000 		.4byte	0xe4
 1622 057b 18       		.byte	0x18
 1623 057c 08       		.byte	0x8
 1624 057d 01       		.uleb128 0x1
 1625 057e 76050000 		.4byte	.LASF84
 1626 0582 0E       		.byte	0xe
 1627 0583 7E       		.byte	0x7e
 1628 0584 19       		.byte	0x19
 1629 0585 64030000 		.4byte	0x364
 1630 0589 04       		.byte	0x4
 1631 058a 07       		.uleb128 0x7
 1632 058b 7500     		.ascii	"u\000"
 1633 058d 0E       		.byte	0xe
 1634 058e B9       		.byte	0xb9
 1635 058f 05       		.byte	0x5
 1636 0590 12050000 		.4byte	0x512
 1637 0594 08       		.byte	0x8
 1638 0595 00       		.byte	0
 1639 0596 02       		.uleb128 0x2
 1640 0597 67000000 		.4byte	.LASF85
 1641 059b 0E       		.byte	0xe
 1642 059c BA       		.byte	0xba
 1643 059d 03       		.byte	0x3
 1644 059e 50050000 		.4byte	0x550
 1645 05a2 25       		.uleb128 0x25
 1646 05a3 0808     		.2byte	0x808
 1647 05a5 0E       		.byte	0xe
 1648 05a6 C0       		.byte	0xc0
 1649 05a7 09       		.byte	0x9
 1650 05a8 E1050000 		.4byte	0x5e1
 1651 05ac 01       		.uleb128 0x1
 1652 05ad 97000000 		.4byte	.LASF86
ARM GAS  C:\Users\DEVELO~1\AppData\Local\Temp\ccyh9n5w.s 			page 31


 1653 05b1 0E       		.byte	0xe
 1654 05b2 C4       		.byte	0xc4
 1655 05b3 19       		.byte	0x19
 1656 05b4 CC000000 		.4byte	0xcc
 1657 05b8 00       		.byte	0
 1658 05b9 01       		.uleb128 0x1
 1659 05ba 7E030000 		.4byte	.LASF87
 1660 05be 0E       		.byte	0xe
 1661 05bf C8       		.byte	0xc8
 1662 05c0 19       		.byte	0x19
 1663 05c1 CC000000 		.4byte	0xcc
 1664 05c5 02       		.byte	0x2
 1665 05c6 07       		.uleb128 0x7
 1666 05c7 70747200 		.ascii	"ptr\000"
 1667 05cb 0E       		.byte	0xe
 1668 05cc CC       		.byte	0xcc
 1669 05cd 1A       		.byte	0x1a
 1670 05ce E1050000 		.4byte	0x5e1
 1671 05d2 04       		.byte	0x4
 1672 05d3 01       		.uleb128 0x1
 1673 05d4 34020000 		.4byte	.LASF88
 1674 05d8 0E       		.byte	0xe
 1675 05d9 D0       		.byte	0xd0
 1676 05da 19       		.byte	0x19
 1677 05db E6050000 		.4byte	0x5e6
 1678 05df 08       		.byte	0x8
 1679 05e0 00       		.byte	0
 1680 05e1 04       		.uleb128 0x4
 1681 05e2 96050000 		.4byte	0x596
 1682 05e6 0F       		.uleb128 0xf
 1683 05e7 96050000 		.4byte	0x596
 1684 05eb F6050000 		.4byte	0x5f6
 1685 05ef 11       		.uleb128 0x11
 1686 05f0 39000000 		.4byte	0x39
 1687 05f4 7F       		.byte	0x7f
 1688 05f5 00       		.byte	0
 1689 05f6 02       		.uleb128 0x2
 1690 05f7 14020000 		.4byte	.LASF89
 1691 05fb 0E       		.byte	0xe
 1692 05fc D1       		.byte	0xd1
 1693 05fd 03       		.byte	0x3
 1694 05fe A2050000 		.4byte	0x5a2
 1695 0602 12       		.uleb128 0x12
 1696 0603 37000000 		.4byte	.LASF90
 1697 0607 24       		.byte	0x24
 1698 0608 0F       		.byte	0xf
 1699 0609 E001     		.2byte	0x1e0
 1700 060b 08       		.byte	0x8
 1701 060c 88060000 		.4byte	0x688
 1702 0610 0A       		.uleb128 0xa
 1703 0611 723400   		.ascii	"r4\000"
 1704 0614 0F       		.byte	0xf
 1705 0615 F901     		.2byte	0x1f9
 1706 0617 11       		.byte	0x11
 1707 0618 E4000000 		.4byte	0xe4
 1708 061c 00       		.byte	0
 1709 061d 0A       		.uleb128 0xa
ARM GAS  C:\Users\DEVELO~1\AppData\Local\Temp\ccyh9n5w.s 			page 32


 1710 061e 723500   		.ascii	"r5\000"
 1711 0621 0F       		.byte	0xf
 1712 0622 FA01     		.2byte	0x1fa
 1713 0624 11       		.byte	0x11
 1714 0625 E4000000 		.4byte	0xe4
 1715 0629 04       		.byte	0x4
 1716 062a 0A       		.uleb128 0xa
 1717 062b 723600   		.ascii	"r6\000"
 1718 062e 0F       		.byte	0xf
 1719 062f FB01     		.2byte	0x1fb
 1720 0631 11       		.byte	0x11
 1721 0632 E4000000 		.4byte	0xe4
 1722 0636 08       		.byte	0x8
 1723 0637 0A       		.uleb128 0xa
 1724 0638 723700   		.ascii	"r7\000"
 1725 063b 0F       		.byte	0xf
 1726 063c FC01     		.2byte	0x1fc
 1727 063e 11       		.byte	0x11
 1728 063f E4000000 		.4byte	0xe4
 1729 0643 0C       		.byte	0xc
 1730 0644 0A       		.uleb128 0xa
 1731 0645 723800   		.ascii	"r8\000"
 1732 0648 0F       		.byte	0xf
 1733 0649 FD01     		.2byte	0x1fd
 1734 064b 11       		.byte	0x11
 1735 064c E4000000 		.4byte	0xe4
 1736 0650 10       		.byte	0x10
 1737 0651 0A       		.uleb128 0xa
 1738 0652 723900   		.ascii	"r9\000"
 1739 0655 0F       		.byte	0xf
 1740 0656 FE01     		.2byte	0x1fe
 1741 0658 11       		.byte	0x11
 1742 0659 E4000000 		.4byte	0xe4
 1743 065d 14       		.byte	0x14
 1744 065e 0A       		.uleb128 0xa
 1745 065f 72313000 		.ascii	"r10\000"
 1746 0663 0F       		.byte	0xf
 1747 0664 FF01     		.2byte	0x1ff
 1748 0666 11       		.byte	0x11
 1749 0667 E4000000 		.4byte	0xe4
 1750 066b 18       		.byte	0x18
 1751 066c 0A       		.uleb128 0xa
 1752 066d 72313100 		.ascii	"r11\000"
 1753 0671 0F       		.byte	0xf
 1754 0672 0002     		.2byte	0x200
 1755 0674 11       		.byte	0x11
 1756 0675 E4000000 		.4byte	0xe4
 1757 0679 1C       		.byte	0x1c
 1758 067a 0A       		.uleb128 0xa
 1759 067b 6C7200   		.ascii	"lr\000"
 1760 067e 0F       		.byte	0xf
 1761 067f 0102     		.2byte	0x201
 1762 0681 11       		.byte	0x11
 1763 0682 E4000000 		.4byte	0xe4
 1764 0686 20       		.byte	0x20
 1765 0687 00       		.byte	0
 1766 0688 12       		.uleb128 0x12
ARM GAS  C:\Users\DEVELO~1\AppData\Local\Temp\ccyh9n5w.s 			page 33


 1767 0689 49050000 		.4byte	.LASF91
 1768 068d 04       		.byte	0x4
 1769 068e 0F       		.byte	0xf
 1770 068f 0A02     		.2byte	0x20a
 1771 0691 08       		.byte	0x8
 1772 0692 A4060000 		.4byte	0x6a4
 1773 0696 0A       		.uleb128 0xa
 1774 0697 737000   		.ascii	"sp\000"
 1775 069a 0F       		.byte	0xf
 1776 069b 0B02     		.2byte	0x20b
 1777 069d 1A       		.byte	0x1a
 1778 069e A4060000 		.4byte	0x6a4
 1779 06a2 00       		.byte	0
 1780 06a3 00       		.byte	0
 1781 06a4 04       		.uleb128 0x4
 1782 06a5 02060000 		.4byte	0x602
 1783 06a9 06       		.uleb128 0x6
 1784 06aa B1040000 		.4byte	.LASF92
 1785 06ae 18       		.byte	0x18
 1786 06af 09       		.byte	0x9
 1787 06b0 64       		.byte	0x64
 1788 06b1 10       		.byte	0x10
 1789 06b2 DE060000 		.4byte	0x6de
 1790 06b6 01       		.uleb128 0x1
 1791 06b7 51070000 		.4byte	.LASF93
 1792 06bb 09       		.byte	0x9
 1793 06bc 68       		.byte	0x68
 1794 06bd 21       		.byte	0x21
 1795 06be 27040000 		.4byte	0x427
 1796 06c2 00       		.byte	0
 1797 06c3 01       		.uleb128 0x1
 1798 06c4 5C060000 		.4byte	.LASF94
 1799 06c8 09       		.byte	0x9
 1800 06c9 73       		.byte	0x73
 1801 06ca 21       		.byte	0x21
 1802 06cb 64030000 		.4byte	0x364
 1803 06cf 0C       		.byte	0xc
 1804 06d0 01       		.uleb128 0x1
 1805 06d1 6A040000 		.4byte	.LASF95
 1806 06d5 09       		.byte	0x9
 1807 06d6 79       		.byte	0x79
 1808 06d7 21       		.byte	0x21
 1809 06d8 FC000000 		.4byte	0xfc
 1810 06dc 10       		.byte	0x10
 1811 06dd 00       		.byte	0
 1812 06de 02       		.uleb128 0x2
 1813 06df 25040000 		.4byte	.LASF96
 1814 06e3 09       		.byte	0x9
 1815 06e4 7B       		.byte	0x7b
 1816 06e5 03       		.byte	0x3
 1817 06e6 A9060000 		.4byte	0x6a9
 1818 06ea 06       		.uleb128 0x6
 1819 06eb 28020000 		.4byte	.LASF97
 1820 06ef 08       		.byte	0x8
 1821 06f0 09       		.byte	0x9
 1822 06f1 80       		.byte	0x80
 1823 06f2 10       		.byte	0x10
ARM GAS  C:\Users\DEVELO~1\AppData\Local\Temp\ccyh9n5w.s 			page 34


 1824 06f3 05070000 		.4byte	0x705
 1825 06f7 01       		.uleb128 0x1
 1826 06f8 72030000 		.4byte	.LASF98
 1827 06fc 09       		.byte	0x9
 1828 06fd 84       		.byte	0x84
 1829 06fe 21       		.byte	0x21
 1830 06ff A8030000 		.4byte	0x3a8
 1831 0703 00       		.byte	0
 1832 0704 00       		.byte	0
 1833 0705 02       		.uleb128 0x2
 1834 0706 AE060000 		.4byte	.LASF99
 1835 070a 09       		.byte	0x9
 1836 070b 85       		.byte	0x85
 1837 070c 03       		.byte	0x3
 1838 070d EA060000 		.4byte	0x6ea
 1839 0711 02       		.uleb128 0x2
 1840 0712 9E040000 		.4byte	.LASF100
 1841 0716 09       		.byte	0x9
 1842 0717 8A       		.byte	0x8a
 1843 0718 14       		.byte	0x14
 1844 0719 91040000 		.4byte	0x491
 1845 071d 16       		.uleb128 0x16
 1846 071e 0C       		.byte	0xc
 1847 071f 09       		.byte	0x9
 1848 0720 A0       		.byte	0xa0
 1849 0721 4A070000 		.4byte	0x74a
 1850 0725 0C       		.uleb128 0xc
 1851 0726 30090000 		.4byte	.LASF101
 1852 072a 09       		.byte	0x9
 1853 072b A4       		.byte	0xa4
 1854 072c 21       		.byte	0x21
 1855 072d 7C030000 		.4byte	0x37c
 1856 0731 0C       		.uleb128 0xc
 1857 0732 72030000 		.4byte	.LASF98
 1858 0736 09       		.byte	0x9
 1859 0737 A8       		.byte	0xa8
 1860 0738 21       		.byte	0x21
 1861 0739 A8030000 		.4byte	0x3a8
 1862 073d 0C       		.uleb128 0xc
 1863 073e 8D070000 		.4byte	.LASF102
 1864 0742 09       		.byte	0x9
 1865 0743 AC       		.byte	0xac
 1866 0744 21       		.byte	0x21
 1867 0745 E1030000 		.4byte	0x3e1
 1868 0749 00       		.byte	0
 1869 074a 16       		.uleb128 0x16
 1870 074b 04       		.byte	0x4
 1871 074c 09       		.byte	0x9
 1872 074d EB       		.byte	0xeb
 1873 074e B3070000 		.4byte	0x7b3
 1874 0752 0C       		.uleb128 0xc
 1875 0753 1C000000 		.4byte	.LASF103
 1876 0757 09       		.byte	0x9
 1877 0758 F2       		.byte	0xf2
 1878 0759 21       		.byte	0x21
 1879 075a 49010000 		.4byte	0x149
 1880 075e 0C       		.uleb128 0xc
ARM GAS  C:\Users\DEVELO~1\AppData\Local\Temp\ccyh9n5w.s 			page 35


 1881 075f A6000000 		.4byte	.LASF104
 1882 0763 09       		.byte	0x9
 1883 0764 F9       		.byte	0xf9
 1884 0765 21       		.byte	0x21
 1885 0766 49010000 		.4byte	0x149
 1886 076a 10       		.uleb128 0x10
 1887 076b FC080000 		.4byte	.LASF78
 1888 076f 0001     		.2byte	0x100
 1889 0771 22       		.byte	0x22
 1890 0772 96040000 		.4byte	0x496
 1891 0776 10       		.uleb128 0x10
 1892 0777 EA020000 		.4byte	.LASF105
 1893 077b 0701     		.2byte	0x107
 1894 077d 22       		.byte	0x22
 1895 077e B3070000 		.4byte	0x7b3
 1896 0782 10       		.uleb128 0x10
 1897 0783 C5000000 		.4byte	.LASF106
 1898 0787 0C01     		.2byte	0x10c
 1899 0789 21       		.byte	0x21
 1900 078a 49010000 		.4byte	0x149
 1901 078e 10       		.uleb128 0x10
 1902 078f D4020000 		.4byte	.LASF107
 1903 0793 1501     		.2byte	0x115
 1904 0795 22       		.byte	0x22
 1905 0796 E0070000 		.4byte	0x7e0
 1906 079a 10       		.uleb128 0x10
 1907 079b DA060000 		.4byte	.LASF108
 1908 079f 1E01     		.2byte	0x11e
 1909 07a1 22       		.byte	0x22
 1910 07a2 1A080000 		.4byte	0x81a
 1911 07a6 10       		.uleb128 0x10
 1912 07a7 6D060000 		.4byte	.LASF109
 1913 07ab 2601     		.2byte	0x126
 1914 07ad 21       		.byte	0x21
 1915 07ae 55010000 		.4byte	0x155
 1916 07b2 00       		.byte	0
 1917 07b3 04       		.uleb128 0x4
 1918 07b4 11070000 		.4byte	0x711
 1919 07b8 06       		.uleb128 0x6
 1920 07b9 9B060000 		.4byte	.LASF110
 1921 07bd 0C       		.byte	0xc
 1922 07be 10       		.byte	0x10
 1923 07bf 34       		.byte	0x34
 1924 07c0 10       		.byte	0x10
 1925 07c1 E0070000 		.4byte	0x7e0
 1926 07c5 01       		.uleb128 0x1
 1927 07c6 72030000 		.4byte	.LASF98
 1928 07ca 10       		.byte	0x10
 1929 07cb 35       		.byte	0x35
 1930 07cc 19       		.byte	0x19
 1931 07cd A8030000 		.4byte	0x3a8
 1932 07d1 00       		.byte	0
 1933 07d2 07       		.uleb128 0x7
 1934 07d3 636E7400 		.ascii	"cnt\000"
 1935 07d7 10       		.byte	0x10
 1936 07d8 37       		.byte	0x37
 1937 07d9 19       		.byte	0x19
ARM GAS  C:\Users\DEVELO~1\AppData\Local\Temp\ccyh9n5w.s 			page 36


 1938 07da 61010000 		.4byte	0x161
 1939 07de 08       		.byte	0x8
 1940 07df 00       		.byte	0
 1941 07e0 04       		.uleb128 0x4
 1942 07e1 B8070000 		.4byte	0x7b8
 1943 07e5 06       		.uleb128 0x6
 1944 07e6 B1070000 		.4byte	.LASF111
 1945 07ea 10       		.byte	0x10
 1946 07eb 11       		.byte	0x11
 1947 07ec 39       		.byte	0x39
 1948 07ed 08       		.byte	0x8
 1949 07ee 1A080000 		.4byte	0x81a
 1950 07f2 01       		.uleb128 0x1
 1951 07f3 72030000 		.4byte	.LASF98
 1952 07f7 11       		.byte	0x11
 1953 07f8 3A       		.byte	0x3a
 1954 07f9 19       		.byte	0x19
 1955 07fa A8030000 		.4byte	0x3a8
 1956 07fe 00       		.byte	0
 1957 07ff 01       		.uleb128 0x1
 1958 0800 F1060000 		.4byte	.LASF33
 1959 0804 11       		.byte	0x11
 1960 0805 3C       		.byte	0x3c
 1961 0806 1A       		.byte	0x1a
 1962 0807 91040000 		.4byte	0x491
 1963 080b 08       		.byte	0x8
 1964 080c 01       		.uleb128 0x1
 1965 080d D3000000 		.4byte	.LASF68
 1966 0811 11       		.byte	0x11
 1967 0812 3E       		.byte	0x3e
 1968 0813 1A       		.byte	0x1a
 1969 0814 F7080000 		.4byte	0x8f7
 1970 0818 0C       		.byte	0xc
 1971 0819 00       		.byte	0
 1972 081a 04       		.uleb128 0x4
 1973 081b E5070000 		.4byte	0x7e5
 1974 081f 04       		.uleb128 0x4
 1975 0820 62020000 		.4byte	0x262
 1976 0824 04       		.uleb128 0x4
 1977 0825 0D010000 		.4byte	0x10d
 1978 0829 12       		.uleb128 0x12
 1979 082a F7030000 		.4byte	.LASF112
 1980 082e 10       		.byte	0x10
 1981 082f 09       		.byte	0x9
 1982 0830 5C01     		.2byte	0x15c
 1983 0832 10       		.byte	0x10
 1984 0833 52080000 		.4byte	0x852
 1985 0837 05       		.uleb128 0x5
 1986 0838 8D070000 		.4byte	.LASF102
 1987 083c 6101     		.2byte	0x161
 1988 083e 21       		.byte	0x21
 1989 083f E1030000 		.4byte	0x3e1
 1990 0843 00       		.byte	0
 1991 0844 05       		.uleb128 0x5
 1992 0845 80050000 		.4byte	.LASF113
 1993 0849 6501     		.2byte	0x165
 1994 084b 22       		.byte	0x22
ARM GAS  C:\Users\DEVELO~1\AppData\Local\Temp\ccyh9n5w.s 			page 37


 1995 084c 91040000 		.4byte	0x491
 1996 0850 0C       		.byte	0xc
 1997 0851 00       		.byte	0
 1998 0852 1C       		.uleb128 0x1c
 1999 0853 08000000 		.4byte	.LASF114
 2000 0857 6601     		.2byte	0x166
 2001 0859 29080000 		.4byte	0x829
 2002 085d 12       		.uleb128 0x12
 2003 085e 33050000 		.4byte	.LASF115
 2004 0862 14       		.byte	0x14
 2005 0863 09       		.byte	0x9
 2006 0864 6B01     		.2byte	0x16b
 2007 0866 10       		.byte	0x10
 2008 0867 AD080000 		.4byte	0x8ad
 2009 086b 05       		.uleb128 0x5
 2010 086c 6D030000 		.4byte	.LASF34
 2011 0870 6F01     		.2byte	0x16f
 2012 0872 22       		.byte	0x22
 2013 0873 42030000 		.4byte	0x342
 2014 0877 00       		.byte	0
 2015 0878 05       		.uleb128 0x5
 2016 0879 7C020000 		.4byte	.LASF116
 2017 087d 7501     		.2byte	0x175
 2018 087f 22       		.byte	0x22
 2019 0880 24080000 		.4byte	0x824
 2020 0884 04       		.byte	0x4
 2021 0885 05       		.uleb128 0x5
 2022 0886 03080000 		.4byte	.LASF117
 2023 088a 7901     		.2byte	0x179
 2024 088c 22       		.byte	0x22
 2025 088d 24080000 		.4byte	0x824
 2026 0891 08       		.byte	0x8
 2027 0892 05       		.uleb128 0x5
 2028 0893 C4020000 		.4byte	.LASF118
 2029 0897 7F01     		.2byte	0x17f
 2030 0899 22       		.byte	0x22
 2031 089a 24080000 		.4byte	0x824
 2032 089e 0C       		.byte	0xc
 2033 089f 05       		.uleb128 0x5
 2034 08a0 35090000 		.4byte	.LASF119
 2035 08a4 8301     		.2byte	0x183
 2036 08a6 22       		.byte	0x22
 2037 08a7 24080000 		.4byte	0x824
 2038 08ab 10       		.byte	0x10
 2039 08ac 00       		.byte	0
 2040 08ad 1C       		.uleb128 0x1c
 2041 08ae 75000000 		.4byte	.LASF120
 2042 08b2 8501     		.2byte	0x185
 2043 08b4 5D080000 		.4byte	0x85d
 2044 08b8 0B       		.uleb128 0xb
 2045 08b9 AD080000 		.4byte	0x8ad
 2046 08bd 04       		.uleb128 0x4
 2047 08be B8080000 		.4byte	0x8b8
 2048 08c2 26       		.uleb128 0x26
 2049 08c3 63683000 		.ascii	"ch0\000"
 2050 08c7 18       		.byte	0x18
 2051 08c8 4101     		.2byte	0x141
ARM GAS  C:\Users\DEVELO~1\AppData\Local\Temp\ccyh9n5w.s 			page 38


 2052 08ca 16       		.byte	0x16
 2053 08cb 62020000 		.4byte	0x262
 2054 08cf 02       		.uleb128 0x2
 2055 08d0 00000000 		.4byte	.LASF121
 2056 08d4 01       		.byte	0x1
 2057 08d5 34       		.byte	0x34
 2058 08d6 10       		.byte	0x10
 2059 08d7 DB080000 		.4byte	0x8db
 2060 08db 04       		.uleb128 0x4
 2061 08dc E0080000 		.4byte	0x8e0
 2062 08e0 27       		.uleb128 0x27
 2063 08e1 EB080000 		.4byte	0x8eb
 2064 08e5 03       		.uleb128 0x3
 2065 08e6 96040000 		.4byte	0x496
 2066 08ea 00       		.byte	0
 2067 08eb 02       		.uleb128 0x2
 2068 08ec 8C020000 		.4byte	.LASF122
 2069 08f0 11       		.byte	0x11
 2070 08f1 34       		.byte	0x34
 2071 08f2 19       		.byte	0x19
 2072 08f3 E5070000 		.4byte	0x7e5
 2073 08f7 04       		.uleb128 0x4
 2074 08f8 EB080000 		.4byte	0x8eb
 2075 08fc 09       		.uleb128 0x9
 2076 08fd 01       		.byte	0x1
 2077 08fe 02       		.byte	0x2
 2078 08ff 1F060000 		.4byte	.LASF123
 2079 0903 02       		.uleb128 0x2
 2080 0904 8A000000 		.4byte	.LASF124
 2081 0908 12       		.byte	0x12
 2082 0909 47       		.byte	0x47
 2083 090a 11       		.byte	0x11
 2084 090b 0F090000 		.4byte	0x90f
 2085 090f 04       		.uleb128 0x4
 2086 0910 14090000 		.4byte	0x914
 2087 0914 0E       		.uleb128 0xe
 2088 0915 96040000 		.4byte	0x496
 2089 0919 28090000 		.4byte	0x928
 2090 091d 03       		.uleb128 0x3
 2091 091e 2D000000 		.4byte	0x2d
 2092 0922 03       		.uleb128 0x3
 2093 0923 39000000 		.4byte	0x39
 2094 0927 00       		.byte	0
 2095 0928 02       		.uleb128 0x2
 2096 0929 68050000 		.4byte	.LASF125
 2097 092d 12       		.byte	0x12
 2098 092e 4C       		.byte	0x4c
 2099 092f 11       		.byte	0x11
 2100 0930 34090000 		.4byte	0x934
 2101 0934 04       		.uleb128 0x4
 2102 0935 39090000 		.4byte	0x939
 2103 0939 0E       		.uleb128 0xe
 2104 093a 96040000 		.4byte	0x496
 2105 093e 52090000 		.4byte	0x952
 2106 0942 03       		.uleb128 0x3
 2107 0943 2D000000 		.4byte	0x2d
 2108 0947 03       		.uleb128 0x3
ARM GAS  C:\Users\DEVELO~1\AppData\Local\Temp\ccyh9n5w.s 			page 39


 2109 0948 39000000 		.4byte	0x39
 2110 094c 03       		.uleb128 0x3
 2111 094d 2D000000 		.4byte	0x2d
 2112 0951 00       		.byte	0
 2113 0952 04       		.uleb128 0x4
 2114 0953 BB000000 		.4byte	0xbb
 2115 0957 02       		.uleb128 0x2
 2116 0958 D5010000 		.4byte	.LASF126
 2117 095c 13       		.byte	0x13
 2118 095d 48       		.byte	0x48
 2119 095e 1C       		.byte	0x1c
 2120 095f 63090000 		.4byte	0x963
 2121 0963 06       		.uleb128 0x6
 2122 0964 7D090000 		.4byte	.LASF127
 2123 0968 1C       		.byte	0x1c
 2124 0969 13       		.byte	0x13
 2125 096a 60       		.byte	0x60
 2126 096b 08       		.byte	0x8
 2127 096c 98090000 		.4byte	0x998
 2128 0970 01       		.uleb128 0x1
 2129 0971 50000000 		.4byte	.LASF128
 2130 0975 13       		.byte	0x13
 2131 0976 61       		.byte	0x61
 2132 0977 19       		.byte	0x19
 2133 0978 28090000 		.4byte	0x928
 2134 097c 00       		.byte	0
 2135 097d 01       		.uleb128 0x1
 2136 097e 55090000 		.4byte	.LASF129
 2137 0982 13       		.byte	0x13
 2138 0983 63       		.byte	0x63
 2139 0984 19       		.byte	0x19
 2140 0985 98090000 		.4byte	0x998
 2141 0989 04       		.byte	0x4
 2142 098a 07       		.uleb128 0x7
 2143 098b 6D747800 		.ascii	"mtx\000"
 2144 098f 13       		.byte	0x13
 2145 0990 65       		.byte	0x65
 2146 0991 19       		.byte	0x19
 2147 0992 EB080000 		.4byte	0x8eb
 2148 0996 0C       		.byte	0xc
 2149 0997 00       		.byte	0
 2150 0998 02       		.uleb128 0x2
 2151 0999 61070000 		.4byte	.LASF130
 2152 099d 13       		.byte	0x13
 2153 099e 4D       		.byte	0x4d
 2154 099f 1B       		.byte	0x1b
 2155 09a0 A4090000 		.4byte	0x9a4
 2156 09a4 28       		.uleb128 0x28
 2157 09a5 3B060000 		.4byte	.LASF193
 2158 09a9 08       		.byte	0x8
 2159 09aa 13       		.byte	0x13
 2160 09ab 52       		.byte	0x52
 2161 09ac 07       		.byte	0x7
 2162 09ad CA090000 		.4byte	0x9ca
 2163 09b1 0C       		.uleb128 0xc
 2164 09b2 DC070000 		.4byte	.LASF131
 2165 09b6 13       		.byte	0x13
ARM GAS  C:\Users\DEVELO~1\AppData\Local\Temp\ccyh9n5w.s 			page 40


 2166 09b7 56       		.byte	0x56
 2167 09b8 05       		.byte	0x5
 2168 09b9 CA090000 		.4byte	0x9ca
 2169 09bd 0C       		.uleb128 0xc
 2170 09be A5050000 		.4byte	.LASF132
 2171 09c2 13       		.byte	0x13
 2172 09c3 5A       		.byte	0x5a
 2173 09c4 05       		.byte	0x5
 2174 09c5 F3090000 		.4byte	0x9f3
 2175 09c9 00       		.byte	0
 2176 09ca 08       		.uleb128 0x8
 2177 09cb 08       		.byte	0x8
 2178 09cc 13       		.byte	0x13
 2179 09cd 53       		.byte	0x53
 2180 09ce 03       		.byte	0x3
 2181 09cf EE090000 		.4byte	0x9ee
 2182 09d3 01       		.uleb128 0x1
 2183 09d4 D3000000 		.4byte	.LASF68
 2184 09d8 13       		.byte	0x13
 2185 09d9 54       		.byte	0x54
 2186 09da 1A       		.byte	0x1a
 2187 09db EE090000 		.4byte	0x9ee
 2188 09df 00       		.byte	0
 2189 09e0 01       		.uleb128 0x1
 2190 09e1 43000000 		.4byte	.LASF133
 2191 09e5 13       		.byte	0x13
 2192 09e6 55       		.byte	0x55
 2193 09e7 19       		.byte	0x19
 2194 09e8 2D000000 		.4byte	0x2d
 2195 09ec 04       		.byte	0x4
 2196 09ed 00       		.byte	0
 2197 09ee 04       		.uleb128 0x4
 2198 09ef 98090000 		.4byte	0x998
 2199 09f3 08       		.uleb128 0x8
 2200 09f4 08       		.byte	0x8
 2201 09f5 13       		.byte	0x13
 2202 09f6 57       		.byte	0x57
 2203 09f7 03       		.byte	0x3
 2204 09f8 170A0000 		.4byte	0xa17
 2205 09fc 01       		.uleb128 0x1
 2206 09fd F7060000 		.4byte	.LASF134
 2207 0a01 13       		.byte	0x13
 2208 0a02 58       		.byte	0x58
 2209 0a03 1A       		.byte	0x1a
 2210 0a04 170A0000 		.4byte	0xa17
 2211 0a08 00       		.byte	0
 2212 0a09 01       		.uleb128 0x1
 2213 0a0a 7E030000 		.4byte	.LASF87
 2214 0a0e 13       		.byte	0x13
 2215 0a0f 59       		.byte	0x59
 2216 0a10 19       		.byte	0x19
 2217 0a11 2D000000 		.4byte	0x2d
 2218 0a15 04       		.byte	0x4
 2219 0a16 00       		.byte	0
 2220 0a17 04       		.uleb128 0x4
 2221 0a18 57090000 		.4byte	0x957
 2222 0a1c 06       		.uleb128 0x6
ARM GAS  C:\Users\DEVELO~1\AppData\Local\Temp\ccyh9n5w.s 			page 41


 2223 0a1d A4080000 		.4byte	.LASF135
 2224 0a21 04       		.byte	0x4
 2225 0a22 02       		.byte	0x2
 2226 0a23 38       		.byte	0x38
 2227 0a24 08       		.byte	0x8
 2228 0a25 370A0000 		.4byte	0xa37
 2229 0a29 01       		.uleb128 0x1
 2230 0a2a D3000000 		.4byte	.LASF68
 2231 0a2e 02       		.byte	0x2
 2232 0a2f 39       		.byte	0x39
 2233 0a30 1A       		.byte	0x1a
 2234 0a31 370A0000 		.4byte	0xa37
 2235 0a35 00       		.byte	0
 2236 0a36 00       		.byte	0
 2237 0a37 04       		.uleb128 0x4
 2238 0a38 1C0A0000 		.4byte	0xa1c
 2239 0a3c 08       		.uleb128 0x8
 2240 0a3d 10       		.byte	0x10
 2241 0a3e 02       		.byte	0x2
 2242 0a3f 40       		.byte	0x40
 2243 0a40 09       		.byte	0x9
 2244 0a41 7A0A0000 		.4byte	0xa7a
 2245 0a45 01       		.uleb128 0x1
 2246 0a46 D3000000 		.4byte	.LASF68
 2247 0a4a 02       		.byte	0x2
 2248 0a4b 41       		.byte	0x41
 2249 0a4c 1A       		.byte	0x1a
 2250 0a4d 370A0000 		.4byte	0xa37
 2251 0a51 00       		.byte	0
 2252 0a52 01       		.uleb128 0x1
 2253 0a53 56050000 		.4byte	.LASF136
 2254 0a57 02       		.byte	0x2
 2255 0a58 42       		.byte	0x42
 2256 0a59 19       		.byte	0x19
 2257 0a5a 2D000000 		.4byte	0x2d
 2258 0a5e 04       		.byte	0x4
 2259 0a5f 01       		.uleb128 0x1
 2260 0a60 94020000 		.4byte	.LASF137
 2261 0a64 02       		.byte	0x2
 2262 0a65 44       		.byte	0x44
 2263 0a66 19       		.byte	0x19
 2264 0a67 39000000 		.4byte	0x39
 2265 0a6b 08       		.byte	0x8
 2266 0a6c 01       		.uleb128 0x1
 2267 0a6d 50000000 		.4byte	.LASF128
 2268 0a71 02       		.byte	0x2
 2269 0a72 45       		.byte	0x45
 2270 0a73 19       		.byte	0x19
 2271 0a74 03090000 		.4byte	0x903
 2272 0a78 0C       		.byte	0xc
 2273 0a79 00       		.byte	0
 2274 0a7a 02       		.uleb128 0x2
 2275 0a7b 5F030000 		.4byte	.LASF138
 2276 0a7f 02       		.byte	0x2
 2277 0a80 47       		.byte	0x47
 2278 0a81 03       		.byte	0x3
 2279 0a82 3C0A0000 		.4byte	0xa3c
ARM GAS  C:\Users\DEVELO~1\AppData\Local\Temp\ccyh9n5w.s 			page 42


 2280 0a86 06       		.uleb128 0x6
 2281 0a87 74060000 		.4byte	.LASF139
 2282 0a8b 14       		.byte	0x14
 2283 0a8c 14       		.byte	0x14
 2284 0a8d 4F       		.byte	0x4f
 2285 0a8e 08       		.byte	0x8
 2286 0a8f D50A0000 		.4byte	0xad5
 2287 0a93 01       		.uleb128 0x1
 2288 0a94 20090000 		.4byte	.LASF140
 2289 0a98 14       		.byte	0x14
 2290 0a99 50       		.byte	0x50
 2291 0a9a 03       		.byte	0x3
 2292 0a9b 2D000000 		.4byte	0x2d
 2293 0a9f 00       		.byte	0
 2294 0aa0 01       		.uleb128 0x1
 2295 0aa1 74040000 		.4byte	.LASF141
 2296 0aa5 14       		.byte	0x14
 2297 0aa6 50       		.byte	0x50
 2298 0aa7 03       		.byte	0x3
 2299 0aa8 F80A0000 		.4byte	0xaf8
 2300 0aac 04       		.byte	0x4
 2301 0aad 01       		.uleb128 0x1
 2302 0aae F7080000 		.4byte	.LASF142
 2303 0ab2 14       		.byte	0x14
 2304 0ab3 50       		.byte	0x50
 2305 0ab4 03       		.byte	0x3
 2306 0ab5 160B0000 		.4byte	0xb16
 2307 0ab9 08       		.byte	0x8
 2308 0aba 07       		.uleb128 0x7
 2309 0abb 70757400 		.ascii	"put\000"
 2310 0abf 14       		.byte	0x14
 2311 0ac0 50       		.byte	0x50
 2312 0ac1 03       		.byte	0x3
 2313 0ac2 2F0B0000 		.4byte	0xb2f
 2314 0ac6 0C       		.byte	0xc
 2315 0ac7 07       		.uleb128 0x7
 2316 0ac8 67657400 		.ascii	"get\000"
 2317 0acc 14       		.byte	0x14
 2318 0acd 50       		.byte	0x50
 2319 0ace 03       		.byte	0x3
 2320 0acf 430B0000 		.4byte	0xb43
 2321 0ad3 10       		.byte	0x10
 2322 0ad4 00       		.byte	0
 2323 0ad5 0B       		.uleb128 0xb
 2324 0ad6 860A0000 		.4byte	0xa86
 2325 0ada 0E       		.uleb128 0xe
 2326 0adb 2D000000 		.4byte	0x2d
 2327 0adf F30A0000 		.4byte	0xaf3
 2328 0ae3 03       		.uleb128 0x3
 2329 0ae4 96040000 		.4byte	0x496
 2330 0ae8 03       		.uleb128 0x3
 2331 0ae9 F30A0000 		.4byte	0xaf3
 2332 0aed 03       		.uleb128 0x3
 2333 0aee 2D000000 		.4byte	0x2d
 2334 0af2 00       		.byte	0
 2335 0af3 04       		.uleb128 0x4
 2336 0af4 C7000000 		.4byte	0xc7
ARM GAS  C:\Users\DEVELO~1\AppData\Local\Temp\ccyh9n5w.s 			page 43


 2337 0af8 04       		.uleb128 0x4
 2338 0af9 DA0A0000 		.4byte	0xada
 2339 0afd 0E       		.uleb128 0xe
 2340 0afe 2D000000 		.4byte	0x2d
 2341 0b02 160B0000 		.4byte	0xb16
 2342 0b06 03       		.uleb128 0x3
 2343 0b07 96040000 		.4byte	0x496
 2344 0b0b 03       		.uleb128 0x3
 2345 0b0c 52090000 		.4byte	0x952
 2346 0b10 03       		.uleb128 0x3
 2347 0b11 2D000000 		.4byte	0x2d
 2348 0b15 00       		.byte	0
 2349 0b16 04       		.uleb128 0x4
 2350 0b17 FD0A0000 		.4byte	0xafd
 2351 0b1b 0E       		.uleb128 0xe
 2352 0b1c 49010000 		.4byte	0x149
 2353 0b20 2F0B0000 		.4byte	0xb2f
 2354 0b24 03       		.uleb128 0x3
 2355 0b25 96040000 		.4byte	0x496
 2356 0b29 03       		.uleb128 0x3
 2357 0b2a BB000000 		.4byte	0xbb
 2358 0b2e 00       		.byte	0
 2359 0b2f 04       		.uleb128 0x4
 2360 0b30 1B0B0000 		.4byte	0xb1b
 2361 0b34 0E       		.uleb128 0xe
 2362 0b35 49010000 		.4byte	0x149
 2363 0b39 430B0000 		.4byte	0xb43
 2364 0b3d 03       		.uleb128 0x3
 2365 0b3e 96040000 		.4byte	0x496
 2366 0b42 00       		.byte	0
 2367 0b43 04       		.uleb128 0x4
 2368 0b44 340B0000 		.4byte	0xb34
 2369 0b48 08       		.uleb128 0x8
 2370 0b49 04       		.byte	0x4
 2371 0b4a 14       		.byte	0x14
 2372 0b4b 5A       		.byte	0x5a
 2373 0b4c 09       		.byte	0x9
 2374 0b4d 5F0B0000 		.4byte	0xb5f
 2375 0b51 07       		.uleb128 0x7
 2376 0b52 766D7400 		.ascii	"vmt\000"
 2377 0b56 14       		.byte	0x14
 2378 0b57 5C       		.byte	0x5c
 2379 0b58 29       		.byte	0x29
 2380 0b59 5F0B0000 		.4byte	0xb5f
 2381 0b5d 00       		.byte	0
 2382 0b5e 00       		.byte	0
 2383 0b5f 04       		.uleb128 0x4
 2384 0b60 D50A0000 		.4byte	0xad5
 2385 0b64 02       		.uleb128 0x2
 2386 0b65 1B070000 		.4byte	.LASF143
 2387 0b69 14       		.byte	0x14
 2388 0b6a 5E       		.byte	0x5e
 2389 0b6b 03       		.byte	0x3
 2390 0b6c 480B0000 		.4byte	0xb48
 2391 0b70 02       		.uleb128 0x2
 2392 0b71 8F040000 		.4byte	.LASF144
 2393 0b75 15       		.byte	0x15
ARM GAS  C:\Users\DEVELO~1\AppData\Local\Temp\ccyh9n5w.s 			page 44


 2394 0b76 7D       		.byte	0x7d
 2395 0b77 0F       		.byte	0xf
 2396 0b78 7C0B0000 		.4byte	0xb7c
 2397 0b7c 04       		.uleb128 0x4
 2398 0b7d 810B0000 		.4byte	0xb81
 2399 0b81 0E       		.uleb128 0xe
 2400 0b82 26000000 		.4byte	0x26
 2401 0b86 900B0000 		.4byte	0xb90
 2402 0b8a 03       		.uleb128 0x3
 2403 0b8b 26000000 		.4byte	0x26
 2404 0b8f 00       		.byte	0
 2405 0b90 08       		.uleb128 0x8
 2406 0b91 28       		.byte	0x28
 2407 0b92 15       		.byte	0x15
 2408 0b93 82       		.byte	0x82
 2409 0b94 09       		.byte	0x9
 2410 0b95 020C0000 		.4byte	0xc02
 2411 0b99 01       		.uleb128 0x1
 2412 0b9a F6040000 		.4byte	.LASF145
 2413 0b9e 15       		.byte	0x15
 2414 0b9f 86       		.byte	0x86
 2415 0ba0 15       		.byte	0x15
 2416 0ba1 39000000 		.4byte	0x39
 2417 0ba5 00       		.byte	0
 2418 0ba6 01       		.uleb128 0x1
 2419 0ba7 A8010000 		.4byte	.LASF146
 2420 0bab 15       		.byte	0x15
 2421 0bac 8A       		.byte	0x8a
 2422 0bad 15       		.byte	0x15
 2423 0bae FC080000 		.4byte	0x8fc
 2424 0bb2 04       		.byte	0x4
 2425 0bb3 01       		.uleb128 0x1
 2426 0bb4 8F050000 		.4byte	.LASF147
 2427 0bb8 15       		.byte	0x15
 2428 0bb9 8E       		.byte	0x8e
 2429 0bba 15       		.byte	0x15
 2430 0bbb FC080000 		.4byte	0x8fc
 2431 0bbf 05       		.byte	0x5
 2432 0bc0 01       		.uleb128 0x1
 2433 0bc1 A0030000 		.4byte	.LASF148
 2434 0bc5 15       		.byte	0x15
 2435 0bc6 92       		.byte	0x92
 2436 0bc7 16       		.byte	0x16
 2437 0bc8 42030000 		.4byte	0x342
 2438 0bcc 08       		.byte	0x8
 2439 0bcd 01       		.uleb128 0x1
 2440 0bce 23020000 		.4byte	.LASF149
 2441 0bd2 15       		.byte	0x15
 2442 0bd3 96       		.byte	0x96
 2443 0bd4 16       		.byte	0x16
 2444 0bd5 020C0000 		.4byte	0xc02
 2445 0bd9 0C       		.byte	0xc
 2446 0bda 01       		.uleb128 0x1
 2447 0bdb 6E020000 		.4byte	.LASF150
 2448 0bdf 15       		.byte	0x15
 2449 0be0 9A       		.byte	0x9a
 2450 0be1 15       		.byte	0x15
ARM GAS  C:\Users\DEVELO~1\AppData\Local\Temp\ccyh9n5w.s 			page 45


 2451 0be2 070C0000 		.4byte	0xc07
 2452 0be6 10       		.byte	0x10
 2453 0be7 01       		.uleb128 0x1
 2454 0be8 EC010000 		.4byte	.LASF151
 2455 0bec 15       		.byte	0x15
 2456 0bed 9E       		.byte	0x9e
 2457 0bee 15       		.byte	0x15
 2458 0bef 700B0000 		.4byte	0xb70
 2459 0bf3 20       		.byte	0x20
 2460 0bf4 01       		.uleb128 0x1
 2461 0bf5 12080000 		.4byte	.LASF152
 2462 0bf9 15       		.byte	0x15
 2463 0bfa A3       		.byte	0xa3
 2464 0bfb 19       		.byte	0x19
 2465 0bfc 170C0000 		.4byte	0xc17
 2466 0c00 24       		.byte	0x24
 2467 0c01 00       		.byte	0
 2468 0c02 04       		.uleb128 0x4
 2469 0c03 4C030000 		.4byte	0x34c
 2470 0c07 0F       		.uleb128 0xf
 2471 0c08 4C030000 		.4byte	0x34c
 2472 0c0c 170C0000 		.4byte	0xc17
 2473 0c10 11       		.uleb128 0x11
 2474 0c11 39000000 		.4byte	0x39
 2475 0c15 0F       		.byte	0xf
 2476 0c16 00       		.byte	0
 2477 0c17 04       		.uleb128 0x4
 2478 0c18 640B0000 		.4byte	0xb64
 2479 0c1c 02       		.uleb128 0x2
 2480 0c1d 6D010000 		.4byte	.LASF153
 2481 0c21 15       		.byte	0x15
 2482 0c22 A5       		.byte	0xa5
 2483 0c23 03       		.byte	0x3
 2484 0c24 900B0000 		.4byte	0xb90
 2485 0c28 08       		.uleb128 0x8
 2486 0c29 10       		.byte	0x10
 2487 0c2a 15       		.byte	0x15
 2488 0c2b AA       		.byte	0xaa
 2489 0c2c 09       		.byte	0x9
 2490 0c2d 660C0000 		.4byte	0xc66
 2491 0c31 01       		.uleb128 0x1
 2492 0c32 6D030000 		.4byte	.LASF34
 2493 0c36 15       		.byte	0x15
 2494 0c37 AB       		.byte	0xab
 2495 0c38 0F       		.byte	0xf
 2496 0c39 42030000 		.4byte	0x342
 2497 0c3d 00       		.byte	0
 2498 0c3e 01       		.uleb128 0x1
 2499 0c3f 62050000 		.4byte	.LASF154
 2500 0c43 15       		.byte	0x15
 2501 0c44 AC       		.byte	0xac
 2502 0c45 0A       		.byte	0xa
 2503 0c46 670C0000 		.4byte	0xc67
 2504 0c4a 04       		.byte	0x4
 2505 0c4b 01       		.uleb128 0x1
 2506 0c4c F7020000 		.4byte	.LASF155
 2507 0c50 15       		.byte	0x15
ARM GAS  C:\Users\DEVELO~1\AppData\Local\Temp\ccyh9n5w.s 			page 46


 2508 0c51 AD       		.byte	0xad
 2509 0c52 0A       		.byte	0xa
 2510 0c53 670C0000 		.4byte	0xc67
 2511 0c57 08       		.byte	0x8
 2512 0c58 01       		.uleb128 0x1
 2513 0c59 FA050000 		.4byte	.LASF156
 2514 0c5d 15       		.byte	0x15
 2515 0c5e AE       		.byte	0xae
 2516 0c5f 0A       		.byte	0xa
 2517 0c60 670C0000 		.4byte	0xc67
 2518 0c64 0C       		.byte	0xc
 2519 0c65 00       		.byte	0
 2520 0c66 29       		.uleb128 0x29
 2521 0c67 04       		.uleb128 0x4
 2522 0c68 660C0000 		.4byte	0xc66
 2523 0c6c 02       		.uleb128 0x2
 2524 0c6d 46040000 		.4byte	.LASF157
 2525 0c71 15       		.byte	0x15
 2526 0c72 AF       		.byte	0xaf
 2527 0c73 03       		.byte	0x3
 2528 0c74 280C0000 		.4byte	0xc28
 2529 0c78 0B       		.uleb128 0xb
 2530 0c79 6C0C0000 		.4byte	0xc6c
 2531 0c7d 08       		.uleb128 0x8
 2532 0c7e 08       		.byte	0x8
 2533 0c7f 15       		.byte	0x15
 2534 0c80 B4       		.byte	0xb4
 2535 0c81 09       		.byte	0x9
 2536 0c82 A10C0000 		.4byte	0xca1
 2537 0c86 01       		.uleb128 0x1
 2538 0c87 6D030000 		.4byte	.LASF34
 2539 0c8b 15       		.byte	0x15
 2540 0c8c B5       		.byte	0xb5
 2541 0c8d 16       		.byte	0x16
 2542 0c8e 42030000 		.4byte	0x342
 2543 0c92 00       		.byte	0
 2544 0c93 01       		.uleb128 0x1
 2545 0c94 A8060000 		.4byte	.LASF158
 2546 0c98 15       		.byte	0x15
 2547 0c99 B6       		.byte	0xb6
 2548 0c9a 1E       		.byte	0x1e
 2549 0c9b A10C0000 		.4byte	0xca1
 2550 0c9f 04       		.byte	0x4
 2551 0ca0 00       		.byte	0
 2552 0ca1 04       		.uleb128 0x4
 2553 0ca2 AB0C0000 		.4byte	0xcab
 2554 0ca6 04       		.uleb128 0x4
 2555 0ca7 780C0000 		.4byte	0xc78
 2556 0cab 0B       		.uleb128 0xb
 2557 0cac A60C0000 		.4byte	0xca6
 2558 0cb0 02       		.uleb128 0x2
 2559 0cb1 85010000 		.4byte	.LASF159
 2560 0cb5 15       		.byte	0x15
 2561 0cb6 B7       		.byte	0xb7
 2562 0cb7 03       		.byte	0x3
 2563 0cb8 7D0C0000 		.4byte	0xc7d
 2564 0cbc 0B       		.uleb128 0xb
ARM GAS  C:\Users\DEVELO~1\AppData\Local\Temp\ccyh9n5w.s 			page 47


 2565 0cbd B00C0000 		.4byte	0xcb0
 2566 0cc1 2A       		.uleb128 0x2a
 2567 0cc2 88050000 		.4byte	.LASF160
 2568 0cc6 15       		.byte	0x15
 2569 0cc7 2901     		.2byte	0x129
 2570 0cc9 1A       		.byte	0x1a
 2571 0cca 1C0C0000 		.4byte	0xc1c
 2572 0cce 19       		.uleb128 0x19
 2573 0ccf 1E050000 		.4byte	.LASF161
 2574 0cd3 16       		.byte	0x16
 2575 0cd4 19       		.byte	0x19
 2576 0cd5 1D       		.byte	0x1d
 2577 0cd6 BC0C0000 		.4byte	0xcbc
 2578 0cda 0F       		.uleb128 0xf
 2579 0cdb BB000000 		.4byte	0xbb
 2580 0cdf EB0C0000 		.4byte	0xceb
 2581 0ce3 2B       		.uleb128 0x2b
 2582 0ce4 39000000 		.4byte	0x39
 2583 0ce8 6F08     		.2byte	0x86f
 2584 0cea 00       		.byte	0
 2585 0ceb 19       		.uleb128 0x19
 2586 0cec D2040000 		.4byte	.LASF162
 2587 0cf0 17       		.byte	0x17
 2588 0cf1 5E       		.byte	0x5e
 2589 0cf2 10       		.byte	0x10
 2590 0cf3 DA0C0000 		.4byte	0xcda
 2591 0cf7 0F       		.uleb128 0xf
 2592 0cf8 91040000 		.4byte	0x491
 2593 0cfc 070D0000 		.4byte	0xd07
 2594 0d00 11       		.uleb128 0x11
 2595 0d01 39000000 		.4byte	0x39
 2596 0d05 04       		.byte	0x4
 2597 0d06 00       		.byte	0
 2598 0d07 19       		.uleb128 0x19
 2599 0d08 65060000 		.4byte	.LASF163
 2600 0d0c 17       		.byte	0x17
 2601 0d0d 5F       		.byte	0x5f
 2602 0d0e 12       		.byte	0x12
 2603 0d0f F70C0000 		.4byte	0xcf7
 2604 0d13 0F       		.uleb128 0xf
 2605 0d14 98040000 		.4byte	0x498
 2606 0d18 230D0000 		.4byte	0xd23
 2607 0d1c 11       		.uleb128 0x11
 2608 0d1d 39000000 		.4byte	0x39
 2609 0d21 04       		.byte	0x4
 2610 0d22 00       		.byte	0
 2611 0d23 0B       		.uleb128 0xb
 2612 0d24 130D0000 		.4byte	0xd13
 2613 0d28 2C       		.uleb128 0x2c
 2614 0d29 776100   		.ascii	"wa\000"
 2615 0d2c 17       		.byte	0x17
 2616 0d2d 60       		.byte	0x60
 2617 0d2e 18       		.byte	0x18
 2618 0d2f 230D0000 		.4byte	0xd23
 2619 0d33 0D       		.uleb128 0xd
 2620 0d34 65090000 		.4byte	.LASF164
 2621 0d38 33       		.byte	0x33
ARM GAS  C:\Users\DEVELO~1\AppData\Local\Temp\ccyh9n5w.s 			page 48


 2622 0d39 16       		.byte	0x16
 2623 0d3a 57090000 		.4byte	0x957
 2624 0d3e 05       		.uleb128 0x5
 2625 0d3f 03       		.byte	0x3
 2626 0d40 00000000 		.4byte	heap1
 2627 0d44 13       		.uleb128 0x13
 2628 0d45 6D703100 		.ascii	"mp1\000"
 2629 0d49 36       		.byte	0x36
 2630 0d4a 16       		.byte	0x16
 2631 0d4b 7A0A0000 		.4byte	0xa7a
 2632 0d4f 05       		.uleb128 0x5
 2633 0d50 03       		.byte	0x3
 2634 0d51 00000000 		.4byte	mp1
 2635 0d55 0D       		.uleb128 0xd
 2636 0d56 3B020000 		.4byte	.LASF165
 2637 0d5a AB       		.byte	0xab
 2638 0d5b 19       		.byte	0x19
 2639 0d5c 780C0000 		.4byte	0xc78
 2640 0d60 05       		.uleb128 0x5
 2641 0d61 03       		.byte	0x3
 2642 0d62 00000000 		.4byte	rt_test_011_001
 2643 0d66 2D       		.uleb128 0x2d
 2644 0d67 03090000 		.4byte	.LASF166
 2645 0d6b 03       		.byte	0x3
 2646 0d6c 0F01     		.2byte	0x10f
 2647 0d6e 19       		.byte	0x19
 2648 0d6f 780C0000 		.4byte	0xc78
 2649 0d73 05       		.uleb128 0x5
 2650 0d74 03       		.byte	0x3
 2651 0d75 00000000 		.4byte	rt_test_011_002
 2652 0d79 0F       		.uleb128 0xf
 2653 0d7a AB0C0000 		.4byte	0xcab
 2654 0d7e 890D0000 		.4byte	0xd89
 2655 0d82 11       		.uleb128 0x11
 2656 0d83 39000000 		.4byte	0x39
 2657 0d87 02       		.byte	0x2
 2658 0d88 00       		.byte	0
 2659 0d89 0B       		.uleb128 0xb
 2660 0d8a 790D0000 		.4byte	0xd79
 2661 0d8e 2E       		.uleb128 0x2e
 2662 0d8f C9050000 		.4byte	.LASF167
 2663 0d93 03       		.byte	0x3
 2664 0d94 1E01     		.2byte	0x11e
 2665 0d96 1A       		.byte	0x1a
 2666 0d97 890D0000 		.4byte	0xd89
 2667 0d9b 05       		.uleb128 0x5
 2668 0d9c 03       		.byte	0x3
 2669 0d9d 00000000 		.4byte	rt_test_sequence_011_array
 2670 0da1 2F       		.uleb128 0x2f
 2671 0da2 CE0C0000 		.4byte	0xcce
 2672 0da6 03       		.byte	0x3
 2673 0da7 2B01     		.2byte	0x12b
 2674 0da9 16       		.byte	0x16
 2675 0daa 05       		.uleb128 0x5
 2676 0dab 03       		.byte	0x3
 2677 0dac 00000000 		.4byte	rt_test_sequence_011
 2678 0db0 14       		.uleb128 0x14
ARM GAS  C:\Users\DEVELO~1\AppData\Local\Temp\ccyh9n5w.s 			page 49


 2679 0db1 DA080000 		.4byte	.LASF168
 2680 0db5 02       		.byte	0x2
 2681 0db6 9A       		.byte	0x9a
 2682 0db7 09       		.byte	0x9
 2683 0db8 96040000 		.4byte	0x496
 2684 0dbc C60D0000 		.4byte	0xdc6
 2685 0dc0 03       		.uleb128 0x3
 2686 0dc1 C60D0000 		.4byte	0xdc6
 2687 0dc5 00       		.byte	0
 2688 0dc6 04       		.uleb128 0x4
 2689 0dc7 7A0A0000 		.4byte	0xa7a
 2690 0dcb 14       		.uleb128 0x14
 2691 0dcc C2070000 		.4byte	.LASF169
 2692 0dd0 19       		.byte	0x19
 2693 0dd1 54       		.byte	0x54
 2694 0dd2 0D       		.byte	0xd
 2695 0dd3 91040000 		.4byte	0x491
 2696 0dd7 F50D0000 		.4byte	0xdf5
 2697 0ddb 03       		.uleb128 0x3
 2698 0ddc C60D0000 		.4byte	0xdc6
 2699 0de0 03       		.uleb128 0x3
 2700 0de1 42030000 		.4byte	0x342
 2701 0de5 03       		.uleb128 0x3
 2702 0de6 3D010000 		.4byte	0x13d
 2703 0dea 03       		.uleb128 0x3
 2704 0deb CF080000 		.4byte	0x8cf
 2705 0def 03       		.uleb128 0x3
 2706 0df0 96040000 		.4byte	0x496
 2707 0df4 00       		.byte	0
 2708 0df5 1A       		.uleb128 0x1a
 2709 0df6 E6080000 		.4byte	.LASF170
 2710 0dfa 02       		.byte	0x2
 2711 0dfb 9C       		.byte	0x9c
 2712 0dfc 0B0E0000 		.4byte	0xe0b
 2713 0e00 03       		.uleb128 0x3
 2714 0e01 C60D0000 		.4byte	0xdc6
 2715 0e05 03       		.uleb128 0x3
 2716 0e06 96040000 		.4byte	0x496
 2717 0e0a 00       		.byte	0
 2718 0e0b 1A       		.uleb128 0x1a
 2719 0e0c DE040000 		.4byte	.LASF171
 2720 0e10 02       		.byte	0x2
 2721 0e11 96       		.byte	0x96
 2722 0e12 2B0E0000 		.4byte	0xe2b
 2723 0e16 03       		.uleb128 0x3
 2724 0e17 C60D0000 		.4byte	0xdc6
 2725 0e1b 03       		.uleb128 0x3
 2726 0e1c 2D000000 		.4byte	0x2d
 2727 0e20 03       		.uleb128 0x3
 2728 0e21 39000000 		.4byte	0x39
 2729 0e25 03       		.uleb128 0x3
 2730 0e26 03090000 		.4byte	0x903
 2731 0e2a 00       		.byte	0
 2732 0e2b 1D       		.uleb128 0x1d
 2733 0e2c 56010000 		.4byte	.LASF172
 2734 0e30 3101     		.2byte	0x131
 2735 0e32 FC080000 		.4byte	0x8fc
ARM GAS  C:\Users\DEVELO~1\AppData\Local\Temp\ccyh9n5w.s 			page 50


 2736 0e36 450E0000 		.4byte	0xe45
 2737 0e3a 03       		.uleb128 0x3
 2738 0e3b 020C0000 		.4byte	0xc02
 2739 0e3f 03       		.uleb128 0x3
 2740 0e40 42030000 		.4byte	0x342
 2741 0e44 00       		.byte	0
 2742 0e45 30       		.uleb128 0x30
 2743 0e46 0C050000 		.4byte	.LASF194
 2744 0e4a 17       		.byte	0x17
 2745 0e4b 64       		.byte	0x64
 2746 0e4c 06       		.byte	0x6
 2747 0e4d 14       		.uleb128 0x14
 2748 0e4e 94010000 		.4byte	.LASF173
 2749 0e52 19       		.byte	0x19
 2750 0e53 4F       		.byte	0x4f
 2751 0e54 0D       		.byte	0xd
 2752 0e55 91040000 		.4byte	0x491
 2753 0e59 7C0E0000 		.4byte	0xe7c
 2754 0e5d 03       		.uleb128 0x3
 2755 0e5e 170A0000 		.4byte	0xa17
 2756 0e62 03       		.uleb128 0x3
 2757 0e63 2D000000 		.4byte	0x2d
 2758 0e67 03       		.uleb128 0x3
 2759 0e68 42030000 		.4byte	0x342
 2760 0e6c 03       		.uleb128 0x3
 2761 0e6d 3D010000 		.4byte	0x13d
 2762 0e71 03       		.uleb128 0x3
 2763 0e72 CF080000 		.4byte	0x8cf
 2764 0e76 03       		.uleb128 0x3
 2765 0e77 96040000 		.4byte	0x496
 2766 0e7b 00       		.byte	0
 2767 0e7c 1D       		.uleb128 0x1d
 2768 0e7d 4E060000 		.4byte	.LASF174
 2769 0e81 3001     		.2byte	0x130
 2770 0e83 FC080000 		.4byte	0x8fc
 2771 0e87 960E0000 		.4byte	0xe96
 2772 0e8b 03       		.uleb128 0x3
 2773 0e8c FC080000 		.4byte	0x8fc
 2774 0e90 03       		.uleb128 0x3
 2775 0e91 42030000 		.4byte	0x342
 2776 0e95 00       		.byte	0
 2777 0e96 14       		.uleb128 0x14
 2778 0e97 44070000 		.4byte	.LASF175
 2779 0e9b 13       		.byte	0x13
 2780 0e9c 81       		.byte	0x81
 2781 0e9d 0A       		.byte	0xa
 2782 0e9e 2D000000 		.4byte	0x2d
 2783 0ea2 B60E0000 		.4byte	0xeb6
 2784 0ea6 03       		.uleb128 0x3
 2785 0ea7 170A0000 		.4byte	0xa17
 2786 0eab 03       		.uleb128 0x3
 2787 0eac B60E0000 		.4byte	0xeb6
 2788 0eb0 03       		.uleb128 0x3
 2789 0eb1 B60E0000 		.4byte	0xeb6
 2790 0eb5 00       		.byte	0
 2791 0eb6 04       		.uleb128 0x4
 2792 0eb7 2D000000 		.4byte	0x2d
ARM GAS  C:\Users\DEVELO~1\AppData\Local\Temp\ccyh9n5w.s 			page 51


 2793 0ebb 1A       		.uleb128 0x1a
 2794 0ebc 51040000 		.4byte	.LASF176
 2795 0ec0 13       		.byte	0x13
 2796 0ec1 7E       		.byte	0x7e
 2797 0ec2 D60E0000 		.4byte	0xed6
 2798 0ec6 03       		.uleb128 0x3
 2799 0ec7 170A0000 		.4byte	0xa17
 2800 0ecb 03       		.uleb128 0x3
 2801 0ecc 96040000 		.4byte	0x496
 2802 0ed0 03       		.uleb128 0x3
 2803 0ed1 2D000000 		.4byte	0x2d
 2804 0ed5 00       		.byte	0
 2805 0ed6 31       		.uleb128 0x31
 2806 0ed7 46010000 		.4byte	.LASF177
 2807 0edb 15       		.byte	0x15
 2808 0edc 3A01     		.2byte	0x13a
 2809 0ede 08       		.byte	0x8
 2810 0edf E90E0000 		.4byte	0xee9
 2811 0ee3 03       		.uleb128 0x3
 2812 0ee4 4C030000 		.4byte	0x34c
 2813 0ee8 00       		.byte	0
 2814 0ee9 15       		.uleb128 0x15
 2815 0eea B9060000 		.4byte	.LASF178
 2816 0eee 03       		.byte	0x3
 2817 0eef D1       		.byte	0xd1
 2818 0ef0 0D       		.byte	0xd
 2819 0ef1 00000000 		.4byte	.LFB440
 2820 0ef5 DC010000 		.4byte	.LFE440-.LFB440
 2821 0ef9 01       		.uleb128 0x1
 2822 0efa 9C       		.byte	0x9c
 2823 0efb 1A0F0000 		.4byte	0xf1a
 2824 0eff 13       		.uleb128 0x13
 2825 0f00 6900     		.ascii	"i\000"
 2826 0f02 D2       		.byte	0xd2
 2827 0f03 0C       		.byte	0xc
 2828 0f04 39000000 		.4byte	0x39
 2829 0f08 02       		.uleb128 0x2
 2830 0f09 91       		.byte	0x91
 2831 0f0a 74       		.sleb128 -12
 2832 0f0b 0D       		.uleb128 0xd
 2833 0f0c 7B050000 		.4byte	.LASF74
 2834 0f10 D3       		.byte	0xd3
 2835 0f11 0B       		.byte	0xb
 2836 0f12 3D010000 		.4byte	0x13d
 2837 0f16 02       		.uleb128 0x2
 2838 0f17 91       		.byte	0x91
 2839 0f18 70       		.sleb128 -16
 2840 0f19 00       		.byte	0
 2841 0f1a 1E       		.uleb128 0x1e
 2842 0f1b E4050000 		.4byte	.LASF184
 2843 0f1f CD       		.byte	0xcd
 2844 0f20 00000000 		.4byte	.LFB439
 2845 0f24 18000000 		.4byte	.LFE439-.LFB439
 2846 0f28 01       		.uleb128 0x1
 2847 0f29 9C       		.byte	0x9c
 2848 0f2a 15       		.uleb128 0x15
 2849 0f2b BD010000 		.4byte	.LASF179
ARM GAS  C:\Users\DEVELO~1\AppData\Local\Temp\ccyh9n5w.s 			page 52


 2850 0f2f 03       		.byte	0x3
 2851 0f30 62       		.byte	0x62
 2852 0f31 0D       		.byte	0xd
 2853 0f32 00000000 		.4byte	.LFB438
 2854 0f36 D4010000 		.4byte	.LFE438-.LFB438
 2855 0f3a 01       		.uleb128 0x1
 2856 0f3b 9C       		.byte	0x9c
 2857 0f3c A10F0000 		.4byte	0xfa1
 2858 0f40 13       		.uleb128 0x13
 2859 0f41 6E3100   		.ascii	"n1\000"
 2860 0f44 63       		.byte	0x63
 2861 0f45 0A       		.byte	0xa
 2862 0f46 2D000000 		.4byte	0x2d
 2863 0f4a 02       		.uleb128 0x2
 2864 0f4b 91       		.byte	0x91
 2865 0f4c 70       		.sleb128 -16
 2866 0f4d 0D       		.uleb128 0xd
 2867 0f4e B0080000 		.4byte	.LASF180
 2868 0f52 63       		.byte	0x63
 2869 0f53 0E       		.byte	0xe
 2870 0f54 2D000000 		.4byte	0x2d
 2871 0f58 02       		.uleb128 0x2
 2872 0f59 91       		.byte	0x91
 2873 0f5a 68       		.sleb128 -24
 2874 0f5b 0D       		.uleb128 0xd
 2875 0f5c 4C090000 		.4byte	.LASF181
 2876 0f60 63       		.byte	0x63
 2877 0f61 16       		.byte	0x16
 2878 0f62 2D000000 		.4byte	0x2d
 2879 0f66 02       		.uleb128 0x2
 2880 0f67 91       		.byte	0x91
 2881 0f68 64       		.sleb128 -28
 2882 0f69 13       		.uleb128 0x13
 2883 0f6a 6E3200   		.ascii	"n2\000"
 2884 0f6d 64       		.byte	0x64
 2885 0f6e 0A       		.byte	0xa
 2886 0f6f 2D000000 		.4byte	0x2d
 2887 0f73 02       		.uleb128 0x2
 2888 0f74 91       		.byte	0x91
 2889 0f75 6C       		.sleb128 -20
 2890 0f76 0D       		.uleb128 0xd
 2891 0f77 B7080000 		.4byte	.LASF182
 2892 0f7b 64       		.byte	0x64
 2893 0f7c 0E       		.byte	0xe
 2894 0f7d 2D000000 		.4byte	0x2d
 2895 0f81 02       		.uleb128 0x2
 2896 0f82 91       		.byte	0x91
 2897 0f83 60       		.sleb128 -32
 2898 0f84 0D       		.uleb128 0xd
 2899 0f85 5C090000 		.4byte	.LASF183
 2900 0f89 64       		.byte	0x64
 2901 0f8a 16       		.byte	0x16
 2902 0f8b 2D000000 		.4byte	0x2d
 2903 0f8f 02       		.uleb128 0x2
 2904 0f90 91       		.byte	0x91
 2905 0f91 5C       		.sleb128 -36
 2906 0f92 0D       		.uleb128 0xd
ARM GAS  C:\Users\DEVELO~1\AppData\Local\Temp\ccyh9n5w.s 			page 53


 2907 0f93 7B050000 		.4byte	.LASF74
 2908 0f97 65       		.byte	0x65
 2909 0f98 0B       		.byte	0xb
 2910 0f99 3D010000 		.4byte	0x13d
 2911 0f9d 02       		.uleb128 0x2
 2912 0f9e 91       		.byte	0x91
 2913 0f9f 74       		.sleb128 -12
 2914 0fa0 00       		.byte	0
 2915 0fa1 1E       		.uleb128 0x1e
 2916 0fa2 AF000000 		.4byte	.LASF185
 2917 0fa6 5E       		.byte	0x5e
 2918 0fa7 00000000 		.4byte	.LFB437
 2919 0fab 1C000000 		.4byte	.LFE437-.LFB437
 2920 0faf 01       		.uleb128 0x1
 2921 0fb0 9C       		.byte	0x9c
 2922 0fb1 15       		.uleb128 0x15
 2923 0fb2 CA030000 		.4byte	.LASF186
 2924 0fb6 03       		.byte	0x3
 2925 0fb7 39       		.byte	0x39
 2926 0fb8 08       		.byte	0x8
 2927 0fb9 00000000 		.4byte	.LFB436
 2928 0fbd 1A000000 		.4byte	.LFE436-.LFB436
 2929 0fc1 01       		.uleb128 0x1
 2930 0fc2 9C       		.byte	0x9c
 2931 0fc3 D50F0000 		.4byte	0xfd5
 2932 0fc7 1F       		.uleb128 0x1f
 2933 0fc8 7000     		.ascii	"p\000"
 2934 0fca 03       		.byte	0x3
 2935 0fcb 39       		.byte	0x39
 2936 0fcc 08       		.byte	0x8
 2937 0fcd 96040000 		.4byte	0x496
 2938 0fd1 02       		.uleb128 0x2
 2939 0fd2 91       		.byte	0x91
 2940 0fd3 74       		.sleb128 -12
 2941 0fd4 00       		.byte	0
 2942 0fd5 15       		.uleb128 0x15
 2943 0fd6 E6030000 		.4byte	.LASF187
 2944 0fda 02       		.byte	0x2
 2945 0fdb BD       		.byte	0xbd
 2946 0fdc 14       		.byte	0x14
 2947 0fdd 00000000 		.4byte	.LFB286
 2948 0fe1 20000000 		.4byte	.LFE286-.LFB286
 2949 0fe5 01       		.uleb128 0x1
 2950 0fe6 9C       		.byte	0x9c
 2951 0fe7 16100000 		.4byte	0x1016
 2952 0feb 1F       		.uleb128 0x1f
 2953 0fec 6D7000   		.ascii	"mp\000"
 2954 0fef 02       		.byte	0x2
 2955 0ff0 BD       		.byte	0xbd
 2956 0ff1 34       		.byte	0x34
 2957 0ff2 C60D0000 		.4byte	0xdc6
 2958 0ff6 02       		.uleb128 0x2
 2959 0ff7 91       		.byte	0x91
 2960 0ff8 74       		.sleb128 -12
 2961 0ff9 20       		.uleb128 0x20
 2962 0ffa 7E030000 		.4byte	.LASF87
 2963 0ffe BE       		.byte	0xbe
ARM GAS  C:\Users\DEVELO~1\AppData\Local\Temp\ccyh9n5w.s 			page 54


 2964 0fff 2C       		.byte	0x2c
 2965 1000 2D000000 		.4byte	0x2d
 2966 1004 02       		.uleb128 0x2
 2967 1005 91       		.byte	0x91
 2968 1006 70       		.sleb128 -16
 2969 1007 20       		.uleb128 0x20
 2970 1008 50000000 		.4byte	.LASF128
 2971 100c BF       		.byte	0xbf
 2972 100d 32       		.byte	0x32
 2973 100e 03090000 		.4byte	0x903
 2974 1012 02       		.uleb128 0x2
 2975 1013 91       		.byte	0x91
 2976 1014 6C       		.sleb128 -20
 2977 1015 00       		.byte	0
 2978 1016 32       		.uleb128 0x32
 2979 1017 6B090000 		.4byte	.LASF188
 2980 101b 01       		.byte	0x1
 2981 101c 6201     		.2byte	0x162
 2982 101e 17       		.byte	0x17
 2983 101f 3D010000 		.4byte	0x13d
 2984 1023 00000000 		.4byte	.LFB230
 2985 1027 10000000 		.4byte	.LFE230-.LFB230
 2986 102b 01       		.uleb128 0x1
 2987 102c 9C       		.byte	0x9c
 2988 102d 33       		.uleb128 0x33
 2989 102e C4080000 		.4byte	.LASF189
 2990 1032 01       		.byte	0x1
 2991 1033 5501     		.2byte	0x155
 2992 1035 19       		.byte	0x19
 2993 1036 91040000 		.4byte	0x491
 2994 103a 00000000 		.4byte	.LFB229
 2995 103e 14000000 		.4byte	.LFE229-.LFB229
 2996 1042 01       		.uleb128 0x1
 2997 1043 9C       		.byte	0x9c
 2998 1044 00       		.byte	0
 2999              		.section	.debug_abbrev,"",%progbits
 3000              	.Ldebug_abbrev0:
 3001 0000 01       		.uleb128 0x1
 3002 0001 0D       		.uleb128 0xd
 3003 0002 00       		.byte	0
 3004 0003 03       		.uleb128 0x3
 3005 0004 0E       		.uleb128 0xe
 3006 0005 3A       		.uleb128 0x3a
 3007 0006 0B       		.uleb128 0xb
 3008 0007 3B       		.uleb128 0x3b
 3009 0008 0B       		.uleb128 0xb
 3010 0009 39       		.uleb128 0x39
 3011 000a 0B       		.uleb128 0xb
 3012 000b 49       		.uleb128 0x49
 3013 000c 13       		.uleb128 0x13
 3014 000d 38       		.uleb128 0x38
 3015 000e 0B       		.uleb128 0xb
 3016 000f 00       		.byte	0
 3017 0010 00       		.byte	0
 3018 0011 02       		.uleb128 0x2
 3019 0012 16       		.uleb128 0x16
 3020 0013 00       		.byte	0
ARM GAS  C:\Users\DEVELO~1\AppData\Local\Temp\ccyh9n5w.s 			page 55


 3021 0014 03       		.uleb128 0x3
 3022 0015 0E       		.uleb128 0xe
 3023 0016 3A       		.uleb128 0x3a
 3024 0017 0B       		.uleb128 0xb
 3025 0018 3B       		.uleb128 0x3b
 3026 0019 0B       		.uleb128 0xb
 3027 001a 39       		.uleb128 0x39
 3028 001b 0B       		.uleb128 0xb
 3029 001c 49       		.uleb128 0x49
 3030 001d 13       		.uleb128 0x13
 3031 001e 00       		.byte	0
 3032 001f 00       		.byte	0
 3033 0020 03       		.uleb128 0x3
 3034 0021 05       		.uleb128 0x5
 3035 0022 00       		.byte	0
 3036 0023 49       		.uleb128 0x49
 3037 0024 13       		.uleb128 0x13
 3038 0025 00       		.byte	0
 3039 0026 00       		.byte	0
 3040 0027 04       		.uleb128 0x4
 3041 0028 0F       		.uleb128 0xf
 3042 0029 00       		.byte	0
 3043 002a 0B       		.uleb128 0xb
 3044 002b 21       		.uleb128 0x21
 3045 002c 04       		.sleb128 4
 3046 002d 49       		.uleb128 0x49
 3047 002e 13       		.uleb128 0x13
 3048 002f 00       		.byte	0
 3049 0030 00       		.byte	0
 3050 0031 05       		.uleb128 0x5
 3051 0032 0D       		.uleb128 0xd
 3052 0033 00       		.byte	0
 3053 0034 03       		.uleb128 0x3
 3054 0035 0E       		.uleb128 0xe
 3055 0036 3A       		.uleb128 0x3a
 3056 0037 21       		.uleb128 0x21
 3057 0038 09       		.sleb128 9
 3058 0039 3B       		.uleb128 0x3b
 3059 003a 05       		.uleb128 0x5
 3060 003b 39       		.uleb128 0x39
 3061 003c 0B       		.uleb128 0xb
 3062 003d 49       		.uleb128 0x49
 3063 003e 13       		.uleb128 0x13
 3064 003f 38       		.uleb128 0x38
 3065 0040 0B       		.uleb128 0xb
 3066 0041 00       		.byte	0
 3067 0042 00       		.byte	0
 3068 0043 06       		.uleb128 0x6
 3069 0044 13       		.uleb128 0x13
 3070 0045 01       		.byte	0x1
 3071 0046 03       		.uleb128 0x3
 3072 0047 0E       		.uleb128 0xe
 3073 0048 0B       		.uleb128 0xb
 3074 0049 0B       		.uleb128 0xb
 3075 004a 3A       		.uleb128 0x3a
 3076 004b 0B       		.uleb128 0xb
 3077 004c 3B       		.uleb128 0x3b
ARM GAS  C:\Users\DEVELO~1\AppData\Local\Temp\ccyh9n5w.s 			page 56


 3078 004d 0B       		.uleb128 0xb
 3079 004e 39       		.uleb128 0x39
 3080 004f 0B       		.uleb128 0xb
 3081 0050 01       		.uleb128 0x1
 3082 0051 13       		.uleb128 0x13
 3083 0052 00       		.byte	0
 3084 0053 00       		.byte	0
 3085 0054 07       		.uleb128 0x7
 3086 0055 0D       		.uleb128 0xd
 3087 0056 00       		.byte	0
 3088 0057 03       		.uleb128 0x3
 3089 0058 08       		.uleb128 0x8
 3090 0059 3A       		.uleb128 0x3a
 3091 005a 0B       		.uleb128 0xb
 3092 005b 3B       		.uleb128 0x3b
 3093 005c 0B       		.uleb128 0xb
 3094 005d 39       		.uleb128 0x39
 3095 005e 0B       		.uleb128 0xb
 3096 005f 49       		.uleb128 0x49
 3097 0060 13       		.uleb128 0x13
 3098 0061 38       		.uleb128 0x38
 3099 0062 0B       		.uleb128 0xb
 3100 0063 00       		.byte	0
 3101 0064 00       		.byte	0
 3102 0065 08       		.uleb128 0x8
 3103 0066 13       		.uleb128 0x13
 3104 0067 01       		.byte	0x1
 3105 0068 0B       		.uleb128 0xb
 3106 0069 0B       		.uleb128 0xb
 3107 006a 3A       		.uleb128 0x3a
 3108 006b 0B       		.uleb128 0xb
 3109 006c 3B       		.uleb128 0x3b
 3110 006d 0B       		.uleb128 0xb
 3111 006e 39       		.uleb128 0x39
 3112 006f 0B       		.uleb128 0xb
 3113 0070 01       		.uleb128 0x1
 3114 0071 13       		.uleb128 0x13
 3115 0072 00       		.byte	0
 3116 0073 00       		.byte	0
 3117 0074 09       		.uleb128 0x9
 3118 0075 24       		.uleb128 0x24
 3119 0076 00       		.byte	0
 3120 0077 0B       		.uleb128 0xb
 3121 0078 0B       		.uleb128 0xb
 3122 0079 3E       		.uleb128 0x3e
 3123 007a 0B       		.uleb128 0xb
 3124 007b 03       		.uleb128 0x3
 3125 007c 0E       		.uleb128 0xe
 3126 007d 00       		.byte	0
 3127 007e 00       		.byte	0
 3128 007f 0A       		.uleb128 0xa
 3129 0080 0D       		.uleb128 0xd
 3130 0081 00       		.byte	0
 3131 0082 03       		.uleb128 0x3
 3132 0083 08       		.uleb128 0x8
 3133 0084 3A       		.uleb128 0x3a
 3134 0085 0B       		.uleb128 0xb
ARM GAS  C:\Users\DEVELO~1\AppData\Local\Temp\ccyh9n5w.s 			page 57


 3135 0086 3B       		.uleb128 0x3b
 3136 0087 05       		.uleb128 0x5
 3137 0088 39       		.uleb128 0x39
 3138 0089 0B       		.uleb128 0xb
 3139 008a 49       		.uleb128 0x49
 3140 008b 13       		.uleb128 0x13
 3141 008c 38       		.uleb128 0x38
 3142 008d 0B       		.uleb128 0xb
 3143 008e 00       		.byte	0
 3144 008f 00       		.byte	0
 3145 0090 0B       		.uleb128 0xb
 3146 0091 26       		.uleb128 0x26
 3147 0092 00       		.byte	0
 3148 0093 49       		.uleb128 0x49
 3149 0094 13       		.uleb128 0x13
 3150 0095 00       		.byte	0
 3151 0096 00       		.byte	0
 3152 0097 0C       		.uleb128 0xc
 3153 0098 0D       		.uleb128 0xd
 3154 0099 00       		.byte	0
 3155 009a 03       		.uleb128 0x3
 3156 009b 0E       		.uleb128 0xe
 3157 009c 3A       		.uleb128 0x3a
 3158 009d 0B       		.uleb128 0xb
 3159 009e 3B       		.uleb128 0x3b
 3160 009f 0B       		.uleb128 0xb
 3161 00a0 39       		.uleb128 0x39
 3162 00a1 0B       		.uleb128 0xb
 3163 00a2 49       		.uleb128 0x49
 3164 00a3 13       		.uleb128 0x13
 3165 00a4 00       		.byte	0
 3166 00a5 00       		.byte	0
 3167 00a6 0D       		.uleb128 0xd
 3168 00a7 34       		.uleb128 0x34
 3169 00a8 00       		.byte	0
 3170 00a9 03       		.uleb128 0x3
 3171 00aa 0E       		.uleb128 0xe
 3172 00ab 3A       		.uleb128 0x3a
 3173 00ac 21       		.uleb128 0x21
 3174 00ad 03       		.sleb128 3
 3175 00ae 3B       		.uleb128 0x3b
 3176 00af 0B       		.uleb128 0xb
 3177 00b0 39       		.uleb128 0x39
 3178 00b1 0B       		.uleb128 0xb
 3179 00b2 49       		.uleb128 0x49
 3180 00b3 13       		.uleb128 0x13
 3181 00b4 02       		.uleb128 0x2
 3182 00b5 18       		.uleb128 0x18
 3183 00b6 00       		.byte	0
 3184 00b7 00       		.byte	0
 3185 00b8 0E       		.uleb128 0xe
 3186 00b9 15       		.uleb128 0x15
 3187 00ba 01       		.byte	0x1
 3188 00bb 27       		.uleb128 0x27
 3189 00bc 19       		.uleb128 0x19
 3190 00bd 49       		.uleb128 0x49
 3191 00be 13       		.uleb128 0x13
ARM GAS  C:\Users\DEVELO~1\AppData\Local\Temp\ccyh9n5w.s 			page 58


 3192 00bf 01       		.uleb128 0x1
 3193 00c0 13       		.uleb128 0x13
 3194 00c1 00       		.byte	0
 3195 00c2 00       		.byte	0
 3196 00c3 0F       		.uleb128 0xf
 3197 00c4 01       		.uleb128 0x1
 3198 00c5 01       		.byte	0x1
 3199 00c6 49       		.uleb128 0x49
 3200 00c7 13       		.uleb128 0x13
 3201 00c8 01       		.uleb128 0x1
 3202 00c9 13       		.uleb128 0x13
 3203 00ca 00       		.byte	0
 3204 00cb 00       		.byte	0
 3205 00cc 10       		.uleb128 0x10
 3206 00cd 0D       		.uleb128 0xd
 3207 00ce 00       		.byte	0
 3208 00cf 03       		.uleb128 0x3
 3209 00d0 0E       		.uleb128 0xe
 3210 00d1 3A       		.uleb128 0x3a
 3211 00d2 21       		.uleb128 0x21
 3212 00d3 09       		.sleb128 9
 3213 00d4 3B       		.uleb128 0x3b
 3214 00d5 05       		.uleb128 0x5
 3215 00d6 39       		.uleb128 0x39
 3216 00d7 0B       		.uleb128 0xb
 3217 00d8 49       		.uleb128 0x49
 3218 00d9 13       		.uleb128 0x13
 3219 00da 00       		.byte	0
 3220 00db 00       		.byte	0
 3221 00dc 11       		.uleb128 0x11
 3222 00dd 21       		.uleb128 0x21
 3223 00de 00       		.byte	0
 3224 00df 49       		.uleb128 0x49
 3225 00e0 13       		.uleb128 0x13
 3226 00e1 2F       		.uleb128 0x2f
 3227 00e2 0B       		.uleb128 0xb
 3228 00e3 00       		.byte	0
 3229 00e4 00       		.byte	0
 3230 00e5 12       		.uleb128 0x12
 3231 00e6 13       		.uleb128 0x13
 3232 00e7 01       		.byte	0x1
 3233 00e8 03       		.uleb128 0x3
 3234 00e9 0E       		.uleb128 0xe
 3235 00ea 0B       		.uleb128 0xb
 3236 00eb 0B       		.uleb128 0xb
 3237 00ec 3A       		.uleb128 0x3a
 3238 00ed 0B       		.uleb128 0xb
 3239 00ee 3B       		.uleb128 0x3b
 3240 00ef 05       		.uleb128 0x5
 3241 00f0 39       		.uleb128 0x39
 3242 00f1 0B       		.uleb128 0xb
 3243 00f2 01       		.uleb128 0x1
 3244 00f3 13       		.uleb128 0x13
 3245 00f4 00       		.byte	0
 3246 00f5 00       		.byte	0
 3247 00f6 13       		.uleb128 0x13
 3248 00f7 34       		.uleb128 0x34
ARM GAS  C:\Users\DEVELO~1\AppData\Local\Temp\ccyh9n5w.s 			page 59


 3249 00f8 00       		.byte	0
 3250 00f9 03       		.uleb128 0x3
 3251 00fa 08       		.uleb128 0x8
 3252 00fb 3A       		.uleb128 0x3a
 3253 00fc 21       		.uleb128 0x21
 3254 00fd 03       		.sleb128 3
 3255 00fe 3B       		.uleb128 0x3b
 3256 00ff 0B       		.uleb128 0xb
 3257 0100 39       		.uleb128 0x39
 3258 0101 0B       		.uleb128 0xb
 3259 0102 49       		.uleb128 0x49
 3260 0103 13       		.uleb128 0x13
 3261 0104 02       		.uleb128 0x2
 3262 0105 18       		.uleb128 0x18
 3263 0106 00       		.byte	0
 3264 0107 00       		.byte	0
 3265 0108 14       		.uleb128 0x14
 3266 0109 2E       		.uleb128 0x2e
 3267 010a 01       		.byte	0x1
 3268 010b 3F       		.uleb128 0x3f
 3269 010c 19       		.uleb128 0x19
 3270 010d 03       		.uleb128 0x3
 3271 010e 0E       		.uleb128 0xe
 3272 010f 3A       		.uleb128 0x3a
 3273 0110 0B       		.uleb128 0xb
 3274 0111 3B       		.uleb128 0x3b
 3275 0112 0B       		.uleb128 0xb
 3276 0113 39       		.uleb128 0x39
 3277 0114 0B       		.uleb128 0xb
 3278 0115 27       		.uleb128 0x27
 3279 0116 19       		.uleb128 0x19
 3280 0117 49       		.uleb128 0x49
 3281 0118 13       		.uleb128 0x13
 3282 0119 3C       		.uleb128 0x3c
 3283 011a 19       		.uleb128 0x19
 3284 011b 01       		.uleb128 0x1
 3285 011c 13       		.uleb128 0x13
 3286 011d 00       		.byte	0
 3287 011e 00       		.byte	0
 3288 011f 15       		.uleb128 0x15
 3289 0120 2E       		.uleb128 0x2e
 3290 0121 01       		.byte	0x1
 3291 0122 03       		.uleb128 0x3
 3292 0123 0E       		.uleb128 0xe
 3293 0124 3A       		.uleb128 0x3a
 3294 0125 0B       		.uleb128 0xb
 3295 0126 3B       		.uleb128 0x3b
 3296 0127 0B       		.uleb128 0xb
 3297 0128 39       		.uleb128 0x39
 3298 0129 0B       		.uleb128 0xb
 3299 012a 27       		.uleb128 0x27
 3300 012b 19       		.uleb128 0x19
 3301 012c 11       		.uleb128 0x11
 3302 012d 01       		.uleb128 0x1
 3303 012e 12       		.uleb128 0x12
 3304 012f 06       		.uleb128 0x6
 3305 0130 40       		.uleb128 0x40
ARM GAS  C:\Users\DEVELO~1\AppData\Local\Temp\ccyh9n5w.s 			page 60


 3306 0131 18       		.uleb128 0x18
 3307 0132 7C       		.uleb128 0x7c
 3308 0133 19       		.uleb128 0x19
 3309 0134 01       		.uleb128 0x1
 3310 0135 13       		.uleb128 0x13
 3311 0136 00       		.byte	0
 3312 0137 00       		.byte	0
 3313 0138 16       		.uleb128 0x16
 3314 0139 17       		.uleb128 0x17
 3315 013a 01       		.byte	0x1
 3316 013b 0B       		.uleb128 0xb
 3317 013c 0B       		.uleb128 0xb
 3318 013d 3A       		.uleb128 0x3a
 3319 013e 0B       		.uleb128 0xb
 3320 013f 3B       		.uleb128 0x3b
 3321 0140 0B       		.uleb128 0xb
 3322 0141 39       		.uleb128 0x39
 3323 0142 21       		.uleb128 0x21
 3324 0143 03       		.sleb128 3
 3325 0144 01       		.uleb128 0x1
 3326 0145 13       		.uleb128 0x13
 3327 0146 00       		.byte	0
 3328 0147 00       		.byte	0
 3329 0148 17       		.uleb128 0x17
 3330 0149 0D       		.uleb128 0xd
 3331 014a 00       		.byte	0
 3332 014b 03       		.uleb128 0x3
 3333 014c 08       		.uleb128 0x8
 3334 014d 3A       		.uleb128 0x3a
 3335 014e 21       		.uleb128 0x21
 3336 014f 0E       		.sleb128 14
 3337 0150 3B       		.uleb128 0x3b
 3338 0151 0B       		.uleb128 0xb
 3339 0152 39       		.uleb128 0x39
 3340 0153 21       		.uleb128 0x21
 3341 0154 07       		.sleb128 7
 3342 0155 49       		.uleb128 0x49
 3343 0156 13       		.uleb128 0x13
 3344 0157 00       		.byte	0
 3345 0158 00       		.byte	0
 3346 0159 18       		.uleb128 0x18
 3347 015a 0D       		.uleb128 0xd
 3348 015b 00       		.byte	0
 3349 015c 03       		.uleb128 0x3
 3350 015d 0E       		.uleb128 0xe
 3351 015e 3A       		.uleb128 0x3a
 3352 015f 21       		.uleb128 0x21
 3353 0160 0E       		.sleb128 14
 3354 0161 3B       		.uleb128 0x3b
 3355 0162 0B       		.uleb128 0xb
 3356 0163 39       		.uleb128 0x39
 3357 0164 21       		.uleb128 0x21
 3358 0165 19       		.sleb128 25
 3359 0166 49       		.uleb128 0x49
 3360 0167 13       		.uleb128 0x13
 3361 0168 0D       		.uleb128 0xd
 3362 0169 0B       		.uleb128 0xb
ARM GAS  C:\Users\DEVELO~1\AppData\Local\Temp\ccyh9n5w.s 			page 61


 3363 016a 6B       		.uleb128 0x6b
 3364 016b 0B       		.uleb128 0xb
 3365 016c 00       		.byte	0
 3366 016d 00       		.byte	0
 3367 016e 19       		.uleb128 0x19
 3368 016f 34       		.uleb128 0x34
 3369 0170 00       		.byte	0
 3370 0171 03       		.uleb128 0x3
 3371 0172 0E       		.uleb128 0xe
 3372 0173 3A       		.uleb128 0x3a
 3373 0174 0B       		.uleb128 0xb
 3374 0175 3B       		.uleb128 0x3b
 3375 0176 0B       		.uleb128 0xb
 3376 0177 39       		.uleb128 0x39
 3377 0178 0B       		.uleb128 0xb
 3378 0179 49       		.uleb128 0x49
 3379 017a 13       		.uleb128 0x13
 3380 017b 3F       		.uleb128 0x3f
 3381 017c 19       		.uleb128 0x19
 3382 017d 3C       		.uleb128 0x3c
 3383 017e 19       		.uleb128 0x19
 3384 017f 00       		.byte	0
 3385 0180 00       		.byte	0
 3386 0181 1A       		.uleb128 0x1a
 3387 0182 2E       		.uleb128 0x2e
 3388 0183 01       		.byte	0x1
 3389 0184 3F       		.uleb128 0x3f
 3390 0185 19       		.uleb128 0x19
 3391 0186 03       		.uleb128 0x3
 3392 0187 0E       		.uleb128 0xe
 3393 0188 3A       		.uleb128 0x3a
 3394 0189 0B       		.uleb128 0xb
 3395 018a 3B       		.uleb128 0x3b
 3396 018b 0B       		.uleb128 0xb
 3397 018c 39       		.uleb128 0x39
 3398 018d 21       		.uleb128 0x21
 3399 018e 08       		.sleb128 8
 3400 018f 27       		.uleb128 0x27
 3401 0190 19       		.uleb128 0x19
 3402 0191 3C       		.uleb128 0x3c
 3403 0192 19       		.uleb128 0x19
 3404 0193 01       		.uleb128 0x1
 3405 0194 13       		.uleb128 0x13
 3406 0195 00       		.byte	0
 3407 0196 00       		.byte	0
 3408 0197 1B       		.uleb128 0x1b
 3409 0198 35       		.uleb128 0x35
 3410 0199 00       		.byte	0
 3411 019a 49       		.uleb128 0x49
 3412 019b 13       		.uleb128 0x13
 3413 019c 00       		.byte	0
 3414 019d 00       		.byte	0
 3415 019e 1C       		.uleb128 0x1c
 3416 019f 16       		.uleb128 0x16
 3417 01a0 00       		.byte	0
 3418 01a1 03       		.uleb128 0x3
 3419 01a2 0E       		.uleb128 0xe
ARM GAS  C:\Users\DEVELO~1\AppData\Local\Temp\ccyh9n5w.s 			page 62


 3420 01a3 3A       		.uleb128 0x3a
 3421 01a4 21       		.uleb128 0x21
 3422 01a5 09       		.sleb128 9
 3423 01a6 3B       		.uleb128 0x3b
 3424 01a7 05       		.uleb128 0x5
 3425 01a8 39       		.uleb128 0x39
 3426 01a9 21       		.uleb128 0x21
 3427 01aa 03       		.sleb128 3
 3428 01ab 49       		.uleb128 0x49
 3429 01ac 13       		.uleb128 0x13
 3430 01ad 00       		.byte	0
 3431 01ae 00       		.byte	0
 3432 01af 1D       		.uleb128 0x1d
 3433 01b0 2E       		.uleb128 0x2e
 3434 01b1 01       		.byte	0x1
 3435 01b2 3F       		.uleb128 0x3f
 3436 01b3 19       		.uleb128 0x19
 3437 01b4 03       		.uleb128 0x3
 3438 01b5 0E       		.uleb128 0xe
 3439 01b6 3A       		.uleb128 0x3a
 3440 01b7 21       		.uleb128 0x21
 3441 01b8 15       		.sleb128 21
 3442 01b9 3B       		.uleb128 0x3b
 3443 01ba 05       		.uleb128 0x5
 3444 01bb 39       		.uleb128 0x39
 3445 01bc 21       		.uleb128 0x21
 3446 01bd 08       		.sleb128 8
 3447 01be 27       		.uleb128 0x27
 3448 01bf 19       		.uleb128 0x19
 3449 01c0 49       		.uleb128 0x49
 3450 01c1 13       		.uleb128 0x13
 3451 01c2 3C       		.uleb128 0x3c
 3452 01c3 19       		.uleb128 0x19
 3453 01c4 01       		.uleb128 0x1
 3454 01c5 13       		.uleb128 0x13
 3455 01c6 00       		.byte	0
 3456 01c7 00       		.byte	0
 3457 01c8 1E       		.uleb128 0x1e
 3458 01c9 2E       		.uleb128 0x2e
 3459 01ca 00       		.byte	0
 3460 01cb 03       		.uleb128 0x3
 3461 01cc 0E       		.uleb128 0xe
 3462 01cd 3A       		.uleb128 0x3a
 3463 01ce 21       		.uleb128 0x21
 3464 01cf 03       		.sleb128 3
 3465 01d0 3B       		.uleb128 0x3b
 3466 01d1 0B       		.uleb128 0xb
 3467 01d2 39       		.uleb128 0x39
 3468 01d3 21       		.uleb128 0x21
 3469 01d4 0D       		.sleb128 13
 3470 01d5 27       		.uleb128 0x27
 3471 01d6 19       		.uleb128 0x19
 3472 01d7 11       		.uleb128 0x11
 3473 01d8 01       		.uleb128 0x1
 3474 01d9 12       		.uleb128 0x12
 3475 01da 06       		.uleb128 0x6
 3476 01db 40       		.uleb128 0x40
ARM GAS  C:\Users\DEVELO~1\AppData\Local\Temp\ccyh9n5w.s 			page 63


 3477 01dc 18       		.uleb128 0x18
 3478 01dd 7C       		.uleb128 0x7c
 3479 01de 19       		.uleb128 0x19
 3480 01df 00       		.byte	0
 3481 01e0 00       		.byte	0
 3482 01e1 1F       		.uleb128 0x1f
 3483 01e2 05       		.uleb128 0x5
 3484 01e3 00       		.byte	0
 3485 01e4 03       		.uleb128 0x3
 3486 01e5 08       		.uleb128 0x8
 3487 01e6 3A       		.uleb128 0x3a
 3488 01e7 0B       		.uleb128 0xb
 3489 01e8 3B       		.uleb128 0x3b
 3490 01e9 0B       		.uleb128 0xb
 3491 01ea 39       		.uleb128 0x39
 3492 01eb 0B       		.uleb128 0xb
 3493 01ec 49       		.uleb128 0x49
 3494 01ed 13       		.uleb128 0x13
 3495 01ee 02       		.uleb128 0x2
 3496 01ef 18       		.uleb128 0x18
 3497 01f0 00       		.byte	0
 3498 01f1 00       		.byte	0
 3499 01f2 20       		.uleb128 0x20
 3500 01f3 05       		.uleb128 0x5
 3501 01f4 00       		.byte	0
 3502 01f5 03       		.uleb128 0x3
 3503 01f6 0E       		.uleb128 0xe
 3504 01f7 3A       		.uleb128 0x3a
 3505 01f8 21       		.uleb128 0x21
 3506 01f9 02       		.sleb128 2
 3507 01fa 3B       		.uleb128 0x3b
 3508 01fb 0B       		.uleb128 0xb
 3509 01fc 39       		.uleb128 0x39
 3510 01fd 0B       		.uleb128 0xb
 3511 01fe 49       		.uleb128 0x49
 3512 01ff 13       		.uleb128 0x13
 3513 0200 02       		.uleb128 0x2
 3514 0201 18       		.uleb128 0x18
 3515 0202 00       		.byte	0
 3516 0203 00       		.byte	0
 3517 0204 21       		.uleb128 0x21
 3518 0205 11       		.uleb128 0x11
 3519 0206 01       		.byte	0x1
 3520 0207 25       		.uleb128 0x25
 3521 0208 0E       		.uleb128 0xe
 3522 0209 13       		.uleb128 0x13
 3523 020a 0B       		.uleb128 0xb
 3524 020b 03       		.uleb128 0x3
 3525 020c 0E       		.uleb128 0xe
 3526 020d 1B       		.uleb128 0x1b
 3527 020e 0E       		.uleb128 0xe
 3528 020f 55       		.uleb128 0x55
 3529 0210 17       		.uleb128 0x17
 3530 0211 11       		.uleb128 0x11
 3531 0212 01       		.uleb128 0x1
 3532 0213 10       		.uleb128 0x10
 3533 0214 17       		.uleb128 0x17
ARM GAS  C:\Users\DEVELO~1\AppData\Local\Temp\ccyh9n5w.s 			page 64


 3534 0215 00       		.byte	0
 3535 0216 00       		.byte	0
 3536 0217 22       		.uleb128 0x22
 3537 0218 24       		.uleb128 0x24
 3538 0219 00       		.byte	0
 3539 021a 0B       		.uleb128 0xb
 3540 021b 0B       		.uleb128 0xb
 3541 021c 3E       		.uleb128 0x3e
 3542 021d 0B       		.uleb128 0xb
 3543 021e 03       		.uleb128 0x3
 3544 021f 08       		.uleb128 0x8
 3545 0220 00       		.byte	0
 3546 0221 00       		.byte	0
 3547 0222 23       		.uleb128 0x23
 3548 0223 13       		.uleb128 0x13
 3549 0224 01       		.byte	0x1
 3550 0225 03       		.uleb128 0x3
 3551 0226 0E       		.uleb128 0xe
 3552 0227 0B       		.uleb128 0xb
 3553 0228 05       		.uleb128 0x5
 3554 0229 3A       		.uleb128 0x3a
 3555 022a 0B       		.uleb128 0xb
 3556 022b 3B       		.uleb128 0x3b
 3557 022c 05       		.uleb128 0x5
 3558 022d 39       		.uleb128 0x39
 3559 022e 0B       		.uleb128 0xb
 3560 022f 01       		.uleb128 0x1
 3561 0230 13       		.uleb128 0x13
 3562 0231 00       		.byte	0
 3563 0232 00       		.byte	0
 3564 0233 24       		.uleb128 0x24
 3565 0234 0F       		.uleb128 0xf
 3566 0235 00       		.byte	0
 3567 0236 0B       		.uleb128 0xb
 3568 0237 0B       		.uleb128 0xb
 3569 0238 00       		.byte	0
 3570 0239 00       		.byte	0
 3571 023a 25       		.uleb128 0x25
 3572 023b 13       		.uleb128 0x13
 3573 023c 01       		.byte	0x1
 3574 023d 0B       		.uleb128 0xb
 3575 023e 05       		.uleb128 0x5
 3576 023f 3A       		.uleb128 0x3a
 3577 0240 0B       		.uleb128 0xb
 3578 0241 3B       		.uleb128 0x3b
 3579 0242 0B       		.uleb128 0xb
 3580 0243 39       		.uleb128 0x39
 3581 0244 0B       		.uleb128 0xb
 3582 0245 01       		.uleb128 0x1
 3583 0246 13       		.uleb128 0x13
 3584 0247 00       		.byte	0
 3585 0248 00       		.byte	0
 3586 0249 26       		.uleb128 0x26
 3587 024a 34       		.uleb128 0x34
 3588 024b 00       		.byte	0
 3589 024c 03       		.uleb128 0x3
 3590 024d 08       		.uleb128 0x8
ARM GAS  C:\Users\DEVELO~1\AppData\Local\Temp\ccyh9n5w.s 			page 65


 3591 024e 3A       		.uleb128 0x3a
 3592 024f 0B       		.uleb128 0xb
 3593 0250 3B       		.uleb128 0x3b
 3594 0251 05       		.uleb128 0x5
 3595 0252 39       		.uleb128 0x39
 3596 0253 0B       		.uleb128 0xb
 3597 0254 49       		.uleb128 0x49
 3598 0255 13       		.uleb128 0x13
 3599 0256 3F       		.uleb128 0x3f
 3600 0257 19       		.uleb128 0x19
 3601 0258 3C       		.uleb128 0x3c
 3602 0259 19       		.uleb128 0x19
 3603 025a 00       		.byte	0
 3604 025b 00       		.byte	0
 3605 025c 27       		.uleb128 0x27
 3606 025d 15       		.uleb128 0x15
 3607 025e 01       		.byte	0x1
 3608 025f 27       		.uleb128 0x27
 3609 0260 19       		.uleb128 0x19
 3610 0261 01       		.uleb128 0x1
 3611 0262 13       		.uleb128 0x13
 3612 0263 00       		.byte	0
 3613 0264 00       		.byte	0
 3614 0265 28       		.uleb128 0x28
 3615 0266 17       		.uleb128 0x17
 3616 0267 01       		.byte	0x1
 3617 0268 03       		.uleb128 0x3
 3618 0269 0E       		.uleb128 0xe
 3619 026a 0B       		.uleb128 0xb
 3620 026b 0B       		.uleb128 0xb
 3621 026c 3A       		.uleb128 0x3a
 3622 026d 0B       		.uleb128 0xb
 3623 026e 3B       		.uleb128 0x3b
 3624 026f 0B       		.uleb128 0xb
 3625 0270 39       		.uleb128 0x39
 3626 0271 0B       		.uleb128 0xb
 3627 0272 01       		.uleb128 0x1
 3628 0273 13       		.uleb128 0x13
 3629 0274 00       		.byte	0
 3630 0275 00       		.byte	0
 3631 0276 29       		.uleb128 0x29
 3632 0277 15       		.uleb128 0x15
 3633 0278 00       		.byte	0
 3634 0279 27       		.uleb128 0x27
 3635 027a 19       		.uleb128 0x19
 3636 027b 00       		.byte	0
 3637 027c 00       		.byte	0
 3638 027d 2A       		.uleb128 0x2a
 3639 027e 34       		.uleb128 0x34
 3640 027f 00       		.byte	0
 3641 0280 03       		.uleb128 0x3
 3642 0281 0E       		.uleb128 0xe
 3643 0282 3A       		.uleb128 0x3a
 3644 0283 0B       		.uleb128 0xb
 3645 0284 3B       		.uleb128 0x3b
 3646 0285 05       		.uleb128 0x5
 3647 0286 39       		.uleb128 0x39
ARM GAS  C:\Users\DEVELO~1\AppData\Local\Temp\ccyh9n5w.s 			page 66


 3648 0287 0B       		.uleb128 0xb
 3649 0288 49       		.uleb128 0x49
 3650 0289 13       		.uleb128 0x13
 3651 028a 3F       		.uleb128 0x3f
 3652 028b 19       		.uleb128 0x19
 3653 028c 3C       		.uleb128 0x3c
 3654 028d 19       		.uleb128 0x19
 3655 028e 00       		.byte	0
 3656 028f 00       		.byte	0
 3657 0290 2B       		.uleb128 0x2b
 3658 0291 21       		.uleb128 0x21
 3659 0292 00       		.byte	0
 3660 0293 49       		.uleb128 0x49
 3661 0294 13       		.uleb128 0x13
 3662 0295 2F       		.uleb128 0x2f
 3663 0296 05       		.uleb128 0x5
 3664 0297 00       		.byte	0
 3665 0298 00       		.byte	0
 3666 0299 2C       		.uleb128 0x2c
 3667 029a 34       		.uleb128 0x34
 3668 029b 00       		.byte	0
 3669 029c 03       		.uleb128 0x3
 3670 029d 08       		.uleb128 0x8
 3671 029e 3A       		.uleb128 0x3a
 3672 029f 0B       		.uleb128 0xb
 3673 02a0 3B       		.uleb128 0x3b
 3674 02a1 0B       		.uleb128 0xb
 3675 02a2 39       		.uleb128 0x39
 3676 02a3 0B       		.uleb128 0xb
 3677 02a4 49       		.uleb128 0x49
 3678 02a5 13       		.uleb128 0x13
 3679 02a6 3F       		.uleb128 0x3f
 3680 02a7 19       		.uleb128 0x19
 3681 02a8 3C       		.uleb128 0x3c
 3682 02a9 19       		.uleb128 0x19
 3683 02aa 00       		.byte	0
 3684 02ab 00       		.byte	0
 3685 02ac 2D       		.uleb128 0x2d
 3686 02ad 34       		.uleb128 0x34
 3687 02ae 00       		.byte	0
 3688 02af 03       		.uleb128 0x3
 3689 02b0 0E       		.uleb128 0xe
 3690 02b1 3A       		.uleb128 0x3a
 3691 02b2 0B       		.uleb128 0xb
 3692 02b3 3B       		.uleb128 0x3b
 3693 02b4 05       		.uleb128 0x5
 3694 02b5 39       		.uleb128 0x39
 3695 02b6 0B       		.uleb128 0xb
 3696 02b7 49       		.uleb128 0x49
 3697 02b8 13       		.uleb128 0x13
 3698 02b9 02       		.uleb128 0x2
 3699 02ba 18       		.uleb128 0x18
 3700 02bb 00       		.byte	0
 3701 02bc 00       		.byte	0
 3702 02bd 2E       		.uleb128 0x2e
 3703 02be 34       		.uleb128 0x34
 3704 02bf 00       		.byte	0
ARM GAS  C:\Users\DEVELO~1\AppData\Local\Temp\ccyh9n5w.s 			page 67


 3705 02c0 03       		.uleb128 0x3
 3706 02c1 0E       		.uleb128 0xe
 3707 02c2 3A       		.uleb128 0x3a
 3708 02c3 0B       		.uleb128 0xb
 3709 02c4 3B       		.uleb128 0x3b
 3710 02c5 05       		.uleb128 0x5
 3711 02c6 39       		.uleb128 0x39
 3712 02c7 0B       		.uleb128 0xb
 3713 02c8 49       		.uleb128 0x49
 3714 02c9 13       		.uleb128 0x13
 3715 02ca 3F       		.uleb128 0x3f
 3716 02cb 19       		.uleb128 0x19
 3717 02cc 02       		.uleb128 0x2
 3718 02cd 18       		.uleb128 0x18
 3719 02ce 00       		.byte	0
 3720 02cf 00       		.byte	0
 3721 02d0 2F       		.uleb128 0x2f
 3722 02d1 34       		.uleb128 0x34
 3723 02d2 00       		.byte	0
 3724 02d3 47       		.uleb128 0x47
 3725 02d4 13       		.uleb128 0x13
 3726 02d5 3A       		.uleb128 0x3a
 3727 02d6 0B       		.uleb128 0xb
 3728 02d7 3B       		.uleb128 0x3b
 3729 02d8 05       		.uleb128 0x5
 3730 02d9 39       		.uleb128 0x39
 3731 02da 0B       		.uleb128 0xb
 3732 02db 02       		.uleb128 0x2
 3733 02dc 18       		.uleb128 0x18
 3734 02dd 00       		.byte	0
 3735 02de 00       		.byte	0
 3736 02df 30       		.uleb128 0x30
 3737 02e0 2E       		.uleb128 0x2e
 3738 02e1 00       		.byte	0
 3739 02e2 3F       		.uleb128 0x3f
 3740 02e3 19       		.uleb128 0x19
 3741 02e4 03       		.uleb128 0x3
 3742 02e5 0E       		.uleb128 0xe
 3743 02e6 3A       		.uleb128 0x3a
 3744 02e7 0B       		.uleb128 0xb
 3745 02e8 3B       		.uleb128 0x3b
 3746 02e9 0B       		.uleb128 0xb
 3747 02ea 39       		.uleb128 0x39
 3748 02eb 0B       		.uleb128 0xb
 3749 02ec 27       		.uleb128 0x27
 3750 02ed 19       		.uleb128 0x19
 3751 02ee 3C       		.uleb128 0x3c
 3752 02ef 19       		.uleb128 0x19
 3753 02f0 00       		.byte	0
 3754 02f1 00       		.byte	0
 3755 02f2 31       		.uleb128 0x31
 3756 02f3 2E       		.uleb128 0x2e
 3757 02f4 01       		.byte	0x1
 3758 02f5 3F       		.uleb128 0x3f
 3759 02f6 19       		.uleb128 0x19
 3760 02f7 03       		.uleb128 0x3
 3761 02f8 0E       		.uleb128 0xe
ARM GAS  C:\Users\DEVELO~1\AppData\Local\Temp\ccyh9n5w.s 			page 68


 3762 02f9 3A       		.uleb128 0x3a
 3763 02fa 0B       		.uleb128 0xb
 3764 02fb 3B       		.uleb128 0x3b
 3765 02fc 05       		.uleb128 0x5
 3766 02fd 39       		.uleb128 0x39
 3767 02fe 0B       		.uleb128 0xb
 3768 02ff 27       		.uleb128 0x27
 3769 0300 19       		.uleb128 0x19
 3770 0301 3C       		.uleb128 0x3c
 3771 0302 19       		.uleb128 0x19
 3772 0303 01       		.uleb128 0x1
 3773 0304 13       		.uleb128 0x13
 3774 0305 00       		.byte	0
 3775 0306 00       		.byte	0
 3776 0307 32       		.uleb128 0x32
 3777 0308 2E       		.uleb128 0x2e
 3778 0309 00       		.byte	0
 3779 030a 03       		.uleb128 0x3
 3780 030b 0E       		.uleb128 0xe
 3781 030c 3A       		.uleb128 0x3a
 3782 030d 0B       		.uleb128 0xb
 3783 030e 3B       		.uleb128 0x3b
 3784 030f 05       		.uleb128 0x5
 3785 0310 39       		.uleb128 0x39
 3786 0311 0B       		.uleb128 0xb
 3787 0312 27       		.uleb128 0x27
 3788 0313 19       		.uleb128 0x19
 3789 0314 49       		.uleb128 0x49
 3790 0315 13       		.uleb128 0x13
 3791 0316 11       		.uleb128 0x11
 3792 0317 01       		.uleb128 0x1
 3793 0318 12       		.uleb128 0x12
 3794 0319 06       		.uleb128 0x6
 3795 031a 40       		.uleb128 0x40
 3796 031b 18       		.uleb128 0x18
 3797 031c 7C       		.uleb128 0x7c
 3798 031d 19       		.uleb128 0x19
 3799 031e 00       		.byte	0
 3800 031f 00       		.byte	0
 3801 0320 33       		.uleb128 0x33
 3802 0321 2E       		.uleb128 0x2e
 3803 0322 00       		.byte	0
 3804 0323 03       		.uleb128 0x3
 3805 0324 0E       		.uleb128 0xe
 3806 0325 3A       		.uleb128 0x3a
 3807 0326 0B       		.uleb128 0xb
 3808 0327 3B       		.uleb128 0x3b
 3809 0328 05       		.uleb128 0x5
 3810 0329 39       		.uleb128 0x39
 3811 032a 0B       		.uleb128 0xb
 3812 032b 27       		.uleb128 0x27
 3813 032c 19       		.uleb128 0x19
 3814 032d 49       		.uleb128 0x49
 3815 032e 13       		.uleb128 0x13
 3816 032f 11       		.uleb128 0x11
 3817 0330 01       		.uleb128 0x1
 3818 0331 12       		.uleb128 0x12
ARM GAS  C:\Users\DEVELO~1\AppData\Local\Temp\ccyh9n5w.s 			page 69


 3819 0332 06       		.uleb128 0x6
 3820 0333 40       		.uleb128 0x40
 3821 0334 18       		.uleb128 0x18
 3822 0335 7A       		.uleb128 0x7a
 3823 0336 19       		.uleb128 0x19
 3824 0337 00       		.byte	0
 3825 0338 00       		.byte	0
 3826 0339 00       		.byte	0
 3827              		.section	.debug_aranges,"",%progbits
 3828 0000 54000000 		.4byte	0x54
 3829 0004 0200     		.2byte	0x2
 3830 0006 00000000 		.4byte	.Ldebug_info0
 3831 000a 04       		.byte	0x4
 3832 000b 00       		.byte	0
 3833 000c 0000     		.2byte	0
 3834 000e 0000     		.2byte	0
 3835 0010 00000000 		.4byte	.LFB229
 3836 0014 14000000 		.4byte	.LFE229-.LFB229
 3837 0018 00000000 		.4byte	.LFB230
 3838 001c 10000000 		.4byte	.LFE230-.LFB230
 3839 0020 00000000 		.4byte	.LFB286
 3840 0024 20000000 		.4byte	.LFE286-.LFB286
 3841 0028 00000000 		.4byte	.LFB436
 3842 002c 1A000000 		.4byte	.LFE436-.LFB436
 3843 0030 00000000 		.4byte	.LFB437
 3844 0034 1C000000 		.4byte	.LFE437-.LFB437
 3845 0038 00000000 		.4byte	.LFB438
 3846 003c D4010000 		.4byte	.LFE438-.LFB438
 3847 0040 00000000 		.4byte	.LFB439
 3848 0044 18000000 		.4byte	.LFE439-.LFB439
 3849 0048 00000000 		.4byte	.LFB440
 3850 004c DC010000 		.4byte	.LFE440-.LFB440
 3851 0050 00000000 		.4byte	0
 3852 0054 00000000 		.4byte	0
 3853              		.section	.debug_rnglists,"",%progbits
 3854              	.Ldebug_ranges0:
 3855 0000 3B000000 		.4byte	.Ldebug_ranges3-.Ldebug_ranges2
 3856              	.Ldebug_ranges2:
 3857 0004 0500     		.2byte	0x5
 3858 0006 04       		.byte	0x4
 3859 0007 00       		.byte	0
 3860 0008 00000000 		.4byte	0
 3861              	.LLRL0:
 3862 000c 07       		.byte	0x7
 3863 000d 00000000 		.4byte	.LFB229
 3864 0011 14       		.uleb128 .LFE229-.LFB229
 3865 0012 07       		.byte	0x7
 3866 0013 00000000 		.4byte	.LFB230
 3867 0017 10       		.uleb128 .LFE230-.LFB230
 3868 0018 07       		.byte	0x7
 3869 0019 00000000 		.4byte	.LFB286
 3870 001d 20       		.uleb128 .LFE286-.LFB286
 3871 001e 07       		.byte	0x7
 3872 001f 00000000 		.4byte	.LFB436
 3873 0023 1A       		.uleb128 .LFE436-.LFB436
 3874 0024 07       		.byte	0x7
 3875 0025 00000000 		.4byte	.LFB437
ARM GAS  C:\Users\DEVELO~1\AppData\Local\Temp\ccyh9n5w.s 			page 70


 3876 0029 1C       		.uleb128 .LFE437-.LFB437
 3877 002a 07       		.byte	0x7
 3878 002b 00000000 		.4byte	.LFB438
 3879 002f D403     		.uleb128 .LFE438-.LFB438
 3880 0031 07       		.byte	0x7
 3881 0032 00000000 		.4byte	.LFB439
 3882 0036 18       		.uleb128 .LFE439-.LFB439
 3883 0037 07       		.byte	0x7
 3884 0038 00000000 		.4byte	.LFB440
 3885 003c DC03     		.uleb128 .LFE440-.LFB440
 3886 003e 00       		.byte	0
 3887              	.Ldebug_ranges3:
 3888              		.section	.debug_line,"",%progbits
 3889              	.Ldebug_line0:
 3890 0000 FC040000 		.section	.debug_str,"MS",%progbits,1
 3890      03005203 
 3890      00000201 
 3890      FB0E0D00 
 3890      01010101 
 3891              	.LASF121:
 3892 0000 7466756E 		.ascii	"tfunc_t\000"
 3892      635F7400 
 3893              	.LASF114:
 3894 0008 72656164 		.ascii	"ready_list_t\000"
 3894      795F6C69 
 3894      73745F74 
 3894      00
 3895              	.LASF4:
 3896 0015 73697A65 		.ascii	"size_t\000"
 3896      5F7400
 3897              	.LASF103:
 3898 001c 7264796D 		.ascii	"rdymsg\000"
 3898      736700
 3899              	.LASF52:
 3900 0023 72666375 		.ascii	"rfcu\000"
 3900      00
 3901              	.LASF5:
 3902 0028 5F5F7569 		.ascii	"__uint8_t\000"
 3902      6E74385F 
 3902      7400
 3903              	.LASF71:
 3904 0032 70726576 		.ascii	"prev\000"
 3904      00
 3905              	.LASF90:
 3906 0037 706F7274 		.ascii	"port_intctx\000"
 3906      5F696E74 
 3906      63747800 
 3907              	.LASF133:
 3908 0043 70616765 		.ascii	"pages\000"
 3908      7300
 3909              	.LASF49:
 3910 0049 76746C69 		.ascii	"vtlist\000"
 3910      737400
 3911              	.LASF128:
 3912 0050 70726F76 		.ascii	"provider\000"
 3912      69646572 
 3912      00
ARM GAS  C:\Users\DEVELO~1\AppData\Local\Temp\ccyh9n5w.s 			page 71


 3913              	.LASF82:
 3914 0059 74797065 		.ascii	"type\000"
 3914      00
 3915              	.LASF11:
 3916 005e 6C6F6E67 		.ascii	"long int\000"
 3916      20696E74 
 3916      00
 3917              	.LASF85:
 3918 0067 74726163 		.ascii	"trace_event_t\000"
 3918      655F6576 
 3918      656E745F 
 3918      7400
 3919              	.LASF120:
 3920 0075 6F735F69 		.ascii	"os_instance_config_t\000"
 3920      6E737461 
 3920      6E63655F 
 3920      636F6E66 
 3920      69675F74 
 3921              	.LASF124:
 3922 008a 6D656D67 		.ascii	"memgetfunc_t\000"
 3922      65746675 
 3922      6E635F74 
 3922      00
 3923              	.LASF86:
 3924 0097 73757370 		.ascii	"suspended\000"
 3924      656E6465 
 3924      6400
 3925              	.LASF80:
 3926 00a1 68616C74 		.ascii	"halt\000"
 3926      00
 3927              	.LASF104:
 3928 00a6 65786974 		.ascii	"exitcode\000"
 3928      636F6465 
 3928      00
 3929              	.LASF185:
 3930 00af 72745F74 		.ascii	"rt_test_011_001_setup\000"
 3930      6573745F 
 3930      3031315F 
 3930      3030315F 
 3930      73657475 
 3931              	.LASF106:
 3932 00c5 73656E74 		.ascii	"sentmsg\000"
 3932      6D736700 
 3933              	.LASF77:
 3934 00cd 64656C74 		.ascii	"delta\000"
 3934      6100
 3935              	.LASF68:
 3936 00d3 6E657874 		.ascii	"next\000"
 3936      00
 3937              	.LASF191:
 3938 00d8 2E2E2F2E 		.ascii	"../../../test/rt/source/test/rt_test_sequence_011.c"
 3938      2E2F2E2E 
 3938      2F746573 
 3938      742F7274 
 3938      2F736F75 
 3939 010b 00       		.ascii	"\000"
 3940              	.LASF1:
ARM GAS  C:\Users\DEVELO~1\AppData\Local\Temp\ccyh9n5w.s 			page 72


 3941 010c 6C6F6E67 		.ascii	"long long int\000"
 3941      206C6F6E 
 3941      6720696E 
 3941      7400
 3942              	.LASF3:
 3943 011a 7369676E 		.ascii	"signed char\000"
 3943      65642063 
 3943      68617200 
 3944              	.LASF13:
 3945 0126 6C6F6E67 		.ascii	"long unsigned int\000"
 3945      20756E73 
 3945      69676E65 
 3945      6420696E 
 3945      7400
 3946              	.LASF76:
 3947 0138 63685F64 		.ascii	"ch_delta_list\000"
 3947      656C7461 
 3947      5F6C6973 
 3947      7400
 3948              	.LASF177:
 3949 0146 74657374 		.ascii	"test_emit_token\000"
 3949      5F656D69 
 3949      745F746F 
 3949      6B656E00 
 3950              	.LASF172:
 3951 0156 5F5F7465 		.ascii	"__test_assert_sequence\000"
 3951      73745F61 
 3951      73736572 
 3951      745F7365 
 3951      7175656E 
 3952              	.LASF153:
 3953 016d 63685F74 		.ascii	"ch_test_context_t\000"
 3953      6573745F 
 3953      636F6E74 
 3953      6578745F 
 3953      7400
 3954              	.LASF36:
 3955 017f 73746174 		.ascii	"state\000"
 3955      6500
 3956              	.LASF159:
 3957 0185 74657374 		.ascii	"testsequence_t\000"
 3957      73657175 
 3957      656E6365 
 3957      5F7400
 3958              	.LASF173:
 3959 0194 63685468 		.ascii	"chThdCreateFromHeap\000"
 3959      64437265 
 3959      61746546 
 3959      726F6D48 
 3959      65617000 
 3960              	.LASF146:
 3961 01a8 676C6F62 		.ascii	"global_fail\000"
 3961      616C5F66 
 3961      61696C00 
 3962              	.LASF24:
 3963 01b4 74737461 		.ascii	"tstate_t\000"
 3963      74655F74 
ARM GAS  C:\Users\DEVELO~1\AppData\Local\Temp\ccyh9n5w.s 			page 73


 3963      00
 3964              	.LASF179:
 3965 01bd 72745F74 		.ascii	"rt_test_011_001_execute\000"
 3965      6573745F 
 3965      3031315F 
 3965      3030315F 
 3965      65786563 
 3966              	.LASF126:
 3967 01d5 6D656D6F 		.ascii	"memory_heap_t\000"
 3967      72795F68 
 3967      6561705F 
 3967      7400
 3968              	.LASF70:
 3969 01e3 63685F71 		.ascii	"ch_queue\000"
 3969      75657565 
 3969      00
 3970              	.LASF151:
 3971 01ec 70757463 		.ascii	"putchar\000"
 3971      68617200 
 3972              	.LASF17:
 3973 01f4 75696E74 		.ascii	"uint16_t\000"
 3973      31365F74 
 3973      00
 3974              	.LASF15:
 3975 01fd 6C6F6E67 		.ascii	"long long unsigned int\000"
 3975      206C6F6E 
 3975      6720756E 
 3975      7369676E 
 3975      65642069 
 3976              	.LASF89:
 3977 0214 74726163 		.ascii	"trace_buffer_t\000"
 3977      655F6275 
 3977      66666572 
 3977      5F7400
 3978              	.LASF149:
 3979 0223 746F6B70 		.ascii	"tokp\000"
 3979      00
 3980              	.LASF97:
 3981 0228 63685F72 		.ascii	"ch_registry\000"
 3981      65676973 
 3981      74727900 
 3982              	.LASF88:
 3983 0234 62756666 		.ascii	"buffer\000"
 3983      657200
 3984              	.LASF165:
 3985 023b 72745F74 		.ascii	"rt_test_011_001\000"
 3985      6573745F 
 3985      3031315F 
 3985      30303100 
 3986              	.LASF12:
 3987 024b 5F5F7569 		.ascii	"__uint32_t\000"
 3987      6E743332 
 3987      5F7400
 3988              	.LASF58:
 3989 0256 6D61736B 		.ascii	"mask\000"
 3989      00
 3990              	.LASF69:
ARM GAS  C:\Users\DEVELO~1\AppData\Local\Temp\ccyh9n5w.s 			page 74


 3991 025b 63685F71 		.ascii	"ch_queue_t\000"
 3991      75657565 
 3991      5F7400
 3992              	.LASF39:
 3993 0266 77616974 		.ascii	"waiting\000"
 3993      696E6700 
 3994              	.LASF150:
 3995 026e 746F6B65 		.ascii	"tokens_buffer\000"
 3995      6E735F62 
 3995      75666665 
 3995      7200
 3996              	.LASF116:
 3997 027c 6D61696E 		.ascii	"mainthread_base\000"
 3997      74687265 
 3997      61645F62 
 3997      61736500 
 3998              	.LASF122:
 3999 028c 6D757465 		.ascii	"mutex_t\000"
 3999      785F7400 
 4000              	.LASF137:
 4001 0294 616C6967 		.ascii	"align\000"
 4001      6E00
 4002              	.LASF65:
 4003 029a 73797369 		.ascii	"sysinterval_t\000"
 4003      6E746572 
 4003      76616C5F 
 4003      7400
 4004              	.LASF29:
 4005 02a8 636E745F 		.ascii	"cnt_t\000"
 4005      7400
 4006              	.LASF40:
 4007 02ae 6D736771 		.ascii	"msgqueue\000"
 4007      75657565 
 4007      00
 4008              	.LASF0:
 4009 02b7 756E7369 		.ascii	"unsigned int\000"
 4009      676E6564 
 4009      20696E74 
 4009      00
 4010              	.LASF118:
 4011 02c4 69646C65 		.ascii	"idlethread_base\000"
 4011      74687265 
 4011      61645F62 
 4011      61736500 
 4012              	.LASF107:
 4013 02d4 77747365 		.ascii	"wtsemp\000"
 4013      6D7000
 4014              	.LASF63:
 4015 02db 73797374 		.ascii	"system_debug_t\000"
 4015      656D5F64 
 4015      65627567 
 4015      5F7400
 4016              	.LASF105:
 4017 02ea 77747472 		.ascii	"wttrp\000"
 4017      7000
 4018              	.LASF32:
 4019 02f0 72717565 		.ascii	"rqueue\000"
ARM GAS  C:\Users\DEVELO~1\AppData\Local\Temp\ccyh9n5w.s 			page 75


 4019      756500
 4020              	.LASF155:
 4021 02f7 74656172 		.ascii	"teardown\000"
 4021      646F776E 
 4021      00
 4022              	.LASF192:
 4023 0300 433A5C50 		.ascii	"C:\\PROJET\\ChibiOS project\\ChibiOS_21.11.4\\demos"
 4023      524F4A45 
 4023      545C4368 
 4023      6962694F 
 4023      53207072 
 4024 032f 5C53544D 		.ascii	"\\STM32\\RT-STM32H743ZI_REV_XY-NUCLEO144_Quartz8M\000"
 4024      33325C52 
 4024      542D5354 
 4024      4D333248 
 4024      3734335A 
 4025              	.LASF138:
 4026 035f 6D656D6F 		.ascii	"memory_pool_t\000"
 4026      72795F70 
 4026      6F6F6C5F 
 4026      7400
 4027              	.LASF34:
 4028 036d 6E616D65 		.ascii	"name\000"
 4028      00
 4029              	.LASF98:
 4030 0372 71756575 		.ascii	"queue\000"
 4030      6500
 4031              	.LASF44:
 4032 0378 6D706F6F 		.ascii	"mpool\000"
 4032      6C00
 4033              	.LASF87:
 4034 037e 73697A65 		.ascii	"size\000"
 4034      00
 4035              	.LASF9:
 4036 0383 73686F72 		.ascii	"short unsigned int\000"
 4036      7420756E 
 4036      7369676E 
 4036      65642069 
 4036      6E7400
 4037              	.LASF46:
 4038 0396 63685F74 		.ascii	"ch_thread\000"
 4038      68726561 
 4038      6400
 4039              	.LASF148:
 4040 03a0 6661696C 		.ascii	"failure_message\000"
 4040      7572655F 
 4040      6D657373 
 4040      61676500 
 4041              	.LASF54:
 4042 03b0 6D61696E 		.ascii	"mainthread\000"
 4042      74687265 
 4042      616400
 4043              	.LASF27:
 4044 03bb 6D73675F 		.ascii	"msg_t\000"
 4044      7400
 4045              	.LASF41:
 4046 03c1 6570656E 		.ascii	"epending\000"
ARM GAS  C:\Users\DEVELO~1\AppData\Local\Temp\ccyh9n5w.s 			page 76


 4046      64696E67 
 4046      00
 4047              	.LASF186:
 4048 03ca 64796E5F 		.ascii	"dyn_thread1\000"
 4048      74687265 
 4048      61643100 
 4049              	.LASF23:
 4050 03d6 746D6F64 		.ascii	"tmode_t\000"
 4050      655F7400 
 4051              	.LASF67:
 4052 03de 63685F6C 		.ascii	"ch_list\000"
 4052      69737400 
 4053              	.LASF187:
 4054 03e6 6368506F 		.ascii	"chPoolObjectInit\000"
 4054      6F6C4F62 
 4054      6A656374 
 4054      496E6974 
 4054      00
 4055              	.LASF112:
 4056 03f7 63685F72 		.ascii	"ch_ready_list\000"
 4056      65616479 
 4056      5F6C6973 
 4056      7400
 4057              	.LASF28:
 4058 0405 6576656E 		.ascii	"eventmask_t\000"
 4058      746D6173 
 4058      6B5F7400 
 4059              	.LASF7:
 4060 0411 73686F72 		.ascii	"short int\000"
 4060      7420696E 
 4060      7400
 4061              	.LASF10:
 4062 041b 5F5F696E 		.ascii	"__int32_t\000"
 4062      7433325F 
 4062      7400
 4063              	.LASF96:
 4064 0425 76697274 		.ascii	"virtual_timers_list_t\000"
 4064      75616C5F 
 4064      74696D65 
 4064      72735F6C 
 4064      6973745F 
 4065              	.LASF22:
 4066 043b 73746B61 		.ascii	"stkalign_t\000"
 4066      6C69676E 
 4066      5F7400
 4067              	.LASF157:
 4068 0446 74657374 		.ascii	"testcase_t\000"
 4068      63617365 
 4068      5F7400
 4069              	.LASF176:
 4070 0451 63684865 		.ascii	"chHeapObjectInit\000"
 4070      61704F62 
 4070      6A656374 
 4070      496E6974 
 4070      00
 4071              	.LASF83:
 4072 0462 72747374 		.ascii	"rtstamp\000"
ARM GAS  C:\Users\DEVELO~1\AppData\Local\Temp\ccyh9n5w.s 			page 77


 4072      616D7000 
 4073              	.LASF95:
 4074 046a 6C617374 		.ascii	"laststamp\000"
 4074      7374616D 
 4074      7000
 4075              	.LASF141:
 4076 0474 77726974 		.ascii	"write\000"
 4076      6500
 4077              	.LASF43:
 4078 047a 7265616C 		.ascii	"realprio\000"
 4078      7072696F 
 4078      00
 4079              	.LASF56:
 4080 0483 72666375 		.ascii	"rfcu_mask_t\000"
 4080      5F6D6173 
 4080      6B5F7400 
 4081              	.LASF144:
 4082 048f 74657374 		.ascii	"test_putchar_t\000"
 4082      5F707574 
 4082      63686172 
 4082      5F7400
 4083              	.LASF100:
 4084 049e 74687265 		.ascii	"thread_reference_t\000"
 4084      61645F72 
 4084      65666572 
 4084      656E6365 
 4084      5F7400
 4085              	.LASF92:
 4086 04b1 63685F76 		.ascii	"ch_virtual_timers_list\000"
 4086      69727475 
 4086      616C5F74 
 4086      696D6572 
 4086      735F6C69 
 4087              	.LASF66:
 4088 04c8 63685F6C 		.ascii	"ch_list_t\000"
 4088      6973745F 
 4088      7400
 4089              	.LASF162:
 4090 04d2 74657374 		.ascii	"test_buffer\000"
 4090      5F627566 
 4090      66657200 
 4091              	.LASF171:
 4092 04de 6368506F 		.ascii	"chPoolObjectInitAligned\000"
 4092      6F6C4F62 
 4092      6A656374 
 4092      496E6974 
 4092      416C6967 
 4093              	.LASF145:
 4094 04f6 63757272 		.ascii	"current_step\000"
 4094      656E745F 
 4094      73746570 
 4094      00
 4095              	.LASF20:
 4096 0503 75696E74 		.ascii	"uint64_t\000"
 4096      36345F74 
 4096      00
 4097              	.LASF194:
ARM GAS  C:\Users\DEVELO~1\AppData\Local\Temp\ccyh9n5w.s 			page 78


 4098 050c 74657374 		.ascii	"test_wait_threads\000"
 4098      5F776169 
 4098      745F7468 
 4098      72656164 
 4098      7300
 4099              	.LASF161:
 4100 051e 72745F74 		.ascii	"rt_test_sequence_011\000"
 4100      6573745F 
 4100      73657175 
 4100      656E6365 
 4100      5F303131 
 4101              	.LASF115:
 4102 0533 63685F6F 		.ascii	"ch_os_instance_config\000"
 4102      735F696E 
 4102      7374616E 
 4102      63655F63 
 4102      6F6E6669 
 4103              	.LASF91:
 4104 0549 706F7274 		.ascii	"port_context\000"
 4104      5F636F6E 
 4104      74657874 
 4104      00
 4105              	.LASF136:
 4106 0556 6F626A65 		.ascii	"object_size\000"
 4106      63745F73 
 4106      697A6500 
 4107              	.LASF154:
 4108 0562 73657475 		.ascii	"setup\000"
 4108      7000
 4109              	.LASF125:
 4110 0568 6D656D67 		.ascii	"memgetfunc2_t\000"
 4110      65746675 
 4110      6E63325F 
 4110      7400
 4111              	.LASF84:
 4112 0576 74696D65 		.ascii	"time\000"
 4112      00
 4113              	.LASF74:
 4114 057b 7072696F 		.ascii	"prio\000"
 4114      00
 4115              	.LASF113:
 4116 0580 63757272 		.ascii	"current\000"
 4116      656E7400 
 4117              	.LASF160:
 4118 0588 63687465 		.ascii	"chtest\000"
 4118      737400
 4119              	.LASF147:
 4120 058f 6C6F6361 		.ascii	"local_fail\000"
 4120      6C5F6661 
 4120      696C00
 4121              	.LASF14:
 4122 059a 5F5F7569 		.ascii	"__uint64_t\000"
 4122      6E743634 
 4122      5F7400
 4123              	.LASF132:
 4124 05a5 75736564 		.ascii	"used\000"
 4124      00
ARM GAS  C:\Users\DEVELO~1\AppData\Local\Temp\ccyh9n5w.s 			page 79


 4125              	.LASF30:
 4126 05aa 636F7265 		.ascii	"core_id_t\000"
 4126      5F69645F 
 4126      7400
 4127              	.LASF25:
 4128 05b4 74726566 		.ascii	"trefs_t\000"
 4128      735F7400 
 4129              	.LASF57:
 4130 05bc 63685F72 		.ascii	"ch_rfcu\000"
 4130      66637500 
 4131              	.LASF38:
 4132 05c4 72656673 		.ascii	"refs\000"
 4132      00
 4133              	.LASF167:
 4134 05c9 72745F74 		.ascii	"rt_test_sequence_011_array\000"
 4134      6573745F 
 4134      73657175 
 4134      656E6365 
 4134      5F303131 
 4135              	.LASF184:
 4136 05e4 72745F74 		.ascii	"rt_test_011_002_setup\000"
 4136      6573745F 
 4136      3031315F 
 4136      3030325F 
 4136      73657475 
 4137              	.LASF156:
 4138 05fa 65786563 		.ascii	"execute\000"
 4138      75746500 
 4139              	.LASF26:
 4140 0602 74707269 		.ascii	"tprio_t\000"
 4140      6F5F7400 
 4141              	.LASF81:
 4142 060a 75736572 		.ascii	"user\000"
 4142      00
 4143              	.LASF60:
 4144 060f 63685F73 		.ascii	"ch_system_debug\000"
 4144      79737465 
 4144      6D5F6465 
 4144      62756700 
 4145              	.LASF123:
 4146 061f 5F426F6F 		.ascii	"_Bool\000"
 4146      6C00
 4147              	.LASF18:
 4148 0625 696E7433 		.ascii	"int32_t\000"
 4148      325F7400 
 4149              	.LASF6:
 4150 062d 756E7369 		.ascii	"unsigned char\000"
 4150      676E6564 
 4150      20636861 
 4150      7200
 4151              	.LASF193:
 4152 063b 68656170 		.ascii	"heap_header\000"
 4152      5F686561 
 4152      64657200 
 4153              	.LASF59:
 4154 0647 72666375 		.ascii	"rfcu_t\000"
 4154      5F7400
ARM GAS  C:\Users\DEVELO~1\AppData\Local\Temp\ccyh9n5w.s 			page 80


 4155              	.LASF174:
 4156 064e 5F5F7465 		.ascii	"__test_assert\000"
 4156      73745F61 
 4156      73736572 
 4156      7400
 4157              	.LASF94:
 4158 065c 6C617374 		.ascii	"lasttime\000"
 4158      74696D65 
 4158      00
 4159              	.LASF163:
 4160 0665 74687265 		.ascii	"threads\000"
 4160      61647300 
 4161              	.LASF109:
 4162 066d 65776D61 		.ascii	"ewmask\000"
 4162      736B00
 4163              	.LASF139:
 4164 0674 42617365 		.ascii	"BaseSequentialStreamVMT\000"
 4164      53657175 
 4164      656E7469 
 4164      616C5374 
 4164      7265616D 
 4165              	.LASF51:
 4166 068c 636F7265 		.ascii	"core_id\000"
 4166      5F696400 
 4167              	.LASF79:
 4168 0694 72656173 		.ascii	"reason\000"
 4168      6F6E00
 4169              	.LASF110:
 4170 069b 63685F73 		.ascii	"ch_semaphore\000"
 4170      656D6170 
 4170      686F7265 
 4170      00
 4171              	.LASF158:
 4172 06a8 63617365 		.ascii	"cases\000"
 4172      7300
 4173              	.LASF99:
 4174 06ae 72656769 		.ascii	"registry_t\000"
 4174      73747279 
 4174      5F7400
 4175              	.LASF178:
 4176 06b9 72745F74 		.ascii	"rt_test_011_002_execute\000"
 4176      6573745F 
 4176      3031315F 
 4176      3030325F 
 4176      65786563 
 4177              	.LASF19:
 4178 06d1 75696E74 		.ascii	"uint32_t\000"
 4178      33325F74 
 4178      00
 4179              	.LASF108:
 4180 06da 77746D74 		.ascii	"wtmtxp\000"
 4180      787000
 4181              	.LASF21:
 4182 06e1 706F7274 		.ascii	"port_stkalign_t\000"
 4182      5F73746B 
 4182      616C6967 
 4182      6E5F7400 
ARM GAS  C:\Users\DEVELO~1\AppData\Local\Temp\ccyh9n5w.s 			page 81


 4183              	.LASF33:
 4184 06f1 6F776E65 		.ascii	"owner\000"
 4184      7200
 4185              	.LASF134:
 4186 06f7 68656170 		.ascii	"heap\000"
 4186      00
 4187              	.LASF2:
 4188 06fc 6C6F6E67 		.ascii	"long double\000"
 4188      20646F75 
 4188      626C6500 
 4189              	.LASF35:
 4190 0708 77616261 		.ascii	"wabase\000"
 4190      736500
 4191              	.LASF62:
 4192 070f 63686172 		.ascii	"char\000"
 4192      00
 4193              	.LASF53:
 4194 0714 636F6E66 		.ascii	"config\000"
 4194      696700
 4195              	.LASF143:
 4196 071b 42617365 		.ascii	"BaseSequentialStream\000"
 4196      53657175 
 4196      656E7469 
 4196      616C5374 
 4196      7265616D 
 4197              	.LASF8:
 4198 0730 5F5F7569 		.ascii	"__uint16_t\000"
 4198      6E743136 
 4198      5F7400
 4199              	.LASF31:
 4200 073b 74687265 		.ascii	"thread_t\000"
 4200      61645F74 
 4200      00
 4201              	.LASF175:
 4202 0744 63684865 		.ascii	"chHeapStatus\000"
 4202      61705374 
 4202      61747573 
 4202      00
 4203              	.LASF93:
 4204 0751 646C6973 		.ascii	"dlist\000"
 4204      7400
 4205              	.LASF64:
 4206 0757 73797374 		.ascii	"systime_t\000"
 4206      696D655F 
 4206      7400
 4207              	.LASF130:
 4208 0761 68656170 		.ascii	"heap_header_t\000"
 4208      5F686561 
 4208      6465725F 
 4208      7400
 4209              	.LASF72:
 4210 076f 63685F70 		.ascii	"ch_priority_queue_t\000"
 4210      72696F72 
 4210      6974795F 
 4210      71756575 
 4210      655F7400 
 4211              	.LASF61:
ARM GAS  C:\Users\DEVELO~1\AppData\Local\Temp\ccyh9n5w.s 			page 82


 4212 0783 70616E69 		.ascii	"panic_msg\000"
 4212      635F6D73 
 4212      6700
 4213              	.LASF102:
 4214 078d 70717565 		.ascii	"pqueue\000"
 4214      756500
 4215              	.LASF47:
 4216 0794 63685F6F 		.ascii	"ch_os_instance\000"
 4216      735F696E 
 4216      7374616E 
 4216      636500
 4217              	.LASF45:
 4218 07a3 6F735F69 		.ascii	"os_instance_t\000"
 4218      6E737461 
 4218      6E63655F 
 4218      7400
 4219              	.LASF111:
 4220 07b1 63685F6D 		.ascii	"ch_mutex\000"
 4220      75746578 
 4220      00
 4221              	.LASF50:
 4222 07ba 7265676C 		.ascii	"reglist\000"
 4222      69737400 
 4223              	.LASF169:
 4224 07c2 63685468 		.ascii	"chThdCreateFromMemoryPool\000"
 4224      64437265 
 4224      61746546 
 4224      726F6D4D 
 4224      656D6F72 
 4225              	.LASF131:
 4226 07dc 66726565 		.ascii	"free\000"
 4226      00
 4227              	.LASF73:
 4228 07e1 63685F70 		.ascii	"ch_priority_queue\000"
 4228      72696F72 
 4228      6974795F 
 4228      71756575 
 4228      6500
 4229              	.LASF75:
 4230 07f3 63685F64 		.ascii	"ch_delta_list_t\000"
 4230      656C7461 
 4230      5F6C6973 
 4230      745F7400 
 4231              	.LASF117:
 4232 0803 6D61696E 		.ascii	"mainthread_end\000"
 4232      74687265 
 4232      61645F65 
 4232      6E6400
 4233              	.LASF152:
 4234 0812 73747265 		.ascii	"stream\000"
 4234      616D00
 4235              	.LASF190:
 4236 0819 474E5520 		.ascii	"GNU C17 11.3.1 20220712 -mcpu=cortex-m7 -mthumb -mf"
 4236      43313720 
 4236      31312E33 
 4236      2E312032 
 4236      30323230 
ARM GAS  C:\Users\DEVELO~1\AppData\Local\Temp\ccyh9n5w.s 			page 83


 4237 084c 6C6F6174 		.ascii	"loat-abi=soft -march=armv7e-m -ggdb -O0 -ffunction-"
 4237      2D616269 
 4237      3D736F66 
 4237      74202D6D 
 4237      61726368 
 4238 087f 73656374 		.ascii	"sections -fdata-sections -fno-common\000"
 4238      696F6E73 
 4238      202D6664 
 4238      6174612D 
 4238      73656374 
 4239              	.LASF135:
 4240 08a4 706F6F6C 		.ascii	"pool_header\000"
 4240      5F686561 
 4240      64657200 
 4241              	.LASF180:
 4242 08b0 746F7461 		.ascii	"total1\000"
 4242      6C3100
 4243              	.LASF182:
 4244 08b7 746F7461 		.ascii	"total2\000"
 4244      6C3200
 4245              	.LASF48:
 4246 08be 726C6973 		.ascii	"rlist\000"
 4246      7400
 4247              	.LASF189:
 4248 08c4 63685468 		.ascii	"chThdGetSelfX\000"
 4248      64476574 
 4248      53656C66 
 4248      5800
 4249              	.LASF16:
 4250 08d2 75696E74 		.ascii	"uint8_t\000"
 4250      385F7400 
 4251              	.LASF168:
 4252 08da 6368506F 		.ascii	"chPoolAlloc\000"
 4252      6F6C416C 
 4252      6C6F6300 
 4253              	.LASF170:
 4254 08e6 6368506F 		.ascii	"chPoolFree\000"
 4254      6F6C4672 
 4254      656500
 4255              	.LASF37:
 4256 08f1 666C6167 		.ascii	"flags\000"
 4256      7300
 4257              	.LASF142:
 4258 08f7 72656164 		.ascii	"read\000"
 4258      00
 4259              	.LASF78:
 4260 08fc 77746F62 		.ascii	"wtobjp\000"
 4260      6A7000
 4261              	.LASF166:
 4262 0903 72745F74 		.ascii	"rt_test_011_002\000"
 4262      6573745F 
 4262      3031315F 
 4262      30303200 
 4263              	.LASF55:
 4264 0913 74726163 		.ascii	"trace_buffer\000"
 4264      655F6275 
 4264      66666572 
ARM GAS  C:\Users\DEVELO~1\AppData\Local\Temp\ccyh9n5w.s 			page 84


 4264      00
 4265              	.LASF140:
 4266 0920 696E7374 		.ascii	"instance_offset\000"
 4266      616E6365 
 4266      5F6F6666 
 4266      73657400 
 4267              	.LASF101:
 4268 0930 6C697374 		.ascii	"list\000"
 4268      00
 4269              	.LASF119:
 4270 0935 69646C65 		.ascii	"idlethread_end\000"
 4270      74687265 
 4270      61645F65 
 4270      6E6400
 4271              	.LASF42:
 4272 0944 6D74786C 		.ascii	"mtxlist\000"
 4272      69737400 
 4273              	.LASF181:
 4274 094c 6C617267 		.ascii	"largest1\000"
 4274      65737431 
 4274      00
 4275              	.LASF129:
 4276 0955 68656164 		.ascii	"header\000"
 4276      657200
 4277              	.LASF183:
 4278 095c 6C617267 		.ascii	"largest2\000"
 4278      65737432 
 4278      00
 4279              	.LASF164:
 4280 0965 68656170 		.ascii	"heap1\000"
 4280      3100
 4281              	.LASF188:
 4282 096b 63685468 		.ascii	"chThdGetPriorityX\000"
 4282      64476574 
 4282      5072696F 
 4282      72697479 
 4282      5800
 4283              	.LASF127:
 4284 097d 6D656D6F 		.ascii	"memory_heap\000"
 4284      72795F68 
 4284      65617000 
 4285              		.ident	"GCC: (Arm GNU Toolchain 11.3.Rel1) 11.3.1 20220712"
ARM GAS  C:\Users\DEVELO~1\AppData\Local\Temp\ccyh9n5w.s 			page 85


DEFINED SYMBOLS
                            *ABS*:00000000 rt_test_sequence_011.c
C:\Users\DEVELO~1\AppData\Local\Temp\ccyh9n5w.s:18     .text.chThdGetSelfX:00000000 $t
C:\Users\DEVELO~1\AppData\Local\Temp\ccyh9n5w.s:23     .text.chThdGetSelfX:00000000 chThdGetSelfX
C:\Users\DEVELO~1\AppData\Local\Temp\ccyh9n5w.s:51     .text.chThdGetSelfX:00000010 $d
C:\Users\DEVELO~1\AppData\Local\Temp\ccyh9n5w.s:56     .text.chThdGetPriorityX:00000000 $t
C:\Users\DEVELO~1\AppData\Local\Temp\ccyh9n5w.s:61     .text.chThdGetPriorityX:00000000 chThdGetPriorityX
C:\Users\DEVELO~1\AppData\Local\Temp\ccyh9n5w.s:85     .text.chPoolObjectInit:00000000 $t
C:\Users\DEVELO~1\AppData\Local\Temp\ccyh9n5w.s:90     .text.chPoolObjectInit:00000000 chPoolObjectInit
C:\Users\DEVELO~1\AppData\Local\Temp\ccyh9n5w.s:126    .bss.heap1:00000000 $d
C:\Users\DEVELO~1\AppData\Local\Temp\ccyh9n5w.s:129    .bss.heap1:00000000 heap1
C:\Users\DEVELO~1\AppData\Local\Temp\ccyh9n5w.s:132    .bss.mp1:00000000 $d
C:\Users\DEVELO~1\AppData\Local\Temp\ccyh9n5w.s:135    .bss.mp1:00000000 mp1
C:\Users\DEVELO~1\AppData\Local\Temp\ccyh9n5w.s:138    .text.dyn_thread1:00000000 $t
C:\Users\DEVELO~1\AppData\Local\Temp\ccyh9n5w.s:143    .text.dyn_thread1:00000000 dyn_thread1
C:\Users\DEVELO~1\AppData\Local\Temp\ccyh9n5w.s:176    .text.rt_test_011_001_setup:00000000 $t
C:\Users\DEVELO~1\AppData\Local\Temp\ccyh9n5w.s:181    .text.rt_test_011_001_setup:00000000 rt_test_011_001_setup
C:\Users\DEVELO~1\AppData\Local\Temp\ccyh9n5w.s:204    .text.rt_test_011_001_setup:00000014 $d
C:\Users\DEVELO~1\AppData\Local\Temp\ccyh9n5w.s:210    .rodata:00000000 $d
C:\Users\DEVELO~1\AppData\Local\Temp\ccyh9n5w.s:253    .text.rt_test_011_001_execute:00000000 $t
C:\Users\DEVELO~1\AppData\Local\Temp\ccyh9n5w.s:258    .text.rt_test_011_001_execute:00000000 rt_test_011_001_execute
C:\Users\DEVELO~1\AppData\Local\Temp\ccyh9n5w.s:478    .text.rt_test_011_001_execute:0000018c $d
C:\Users\DEVELO~1\AppData\Local\Temp\ccyh9n5w.s:504    .rodata.rt_test_011_001:00000000 $d
C:\Users\DEVELO~1\AppData\Local\Temp\ccyh9n5w.s:507    .rodata.rt_test_011_001:00000000 rt_test_011_001
C:\Users\DEVELO~1\AppData\Local\Temp\ccyh9n5w.s:513    .text.rt_test_011_002_setup:00000000 $t
C:\Users\DEVELO~1\AppData\Local\Temp\ccyh9n5w.s:518    .text.rt_test_011_002_setup:00000000 rt_test_011_002_setup
C:\Users\DEVELO~1\AppData\Local\Temp\ccyh9n5w.s:541    .text.rt_test_011_002_setup:00000014 $d
C:\Users\DEVELO~1\AppData\Local\Temp\ccyh9n5w.s:568    .text.rt_test_011_002_execute:00000000 $t
C:\Users\DEVELO~1\AppData\Local\Temp\ccyh9n5w.s:573    .text.rt_test_011_002_execute:00000000 rt_test_011_002_execute
C:\Users\DEVELO~1\AppData\Local\Temp\ccyh9n5w.s:816    .text.rt_test_011_002_execute:00000188 $d
C:\Users\DEVELO~1\AppData\Local\Temp\ccyh9n5w.s:845    .rodata.rt_test_011_002:00000000 $d
C:\Users\DEVELO~1\AppData\Local\Temp\ccyh9n5w.s:848    .rodata.rt_test_011_002:00000000 rt_test_011_002
C:\Users\DEVELO~1\AppData\Local\Temp\ccyh9n5w.s:858    .rodata.rt_test_sequence_011_array:00000000 rt_test_sequence_011_array
C:\Users\DEVELO~1\AppData\Local\Temp\ccyh9n5w.s:855    .rodata.rt_test_sequence_011_array:00000000 $d
C:\Users\DEVELO~1\AppData\Local\Temp\ccyh9n5w.s:871    .rodata.rt_test_sequence_011:00000000 rt_test_sequence_011
C:\Users\DEVELO~1\AppData\Local\Temp\ccyh9n5w.s:868    .rodata.rt_test_sequence_011:00000000 $d

UNDEFINED SYMBOLS
ch0
chPoolObjectInitAligned
test_emit_token
chHeapObjectInit
test_buffer
chHeapStatus
__test_assert
chThdCreateFromHeap
test_wait_threads
__test_assert_sequence
chtest
threads
chPoolFree
chThdCreateFromMemoryPool
chPoolAlloc
wa
