ARM GAS  C:\Users\DEVELO~1\AppData\Local\Temp\ccq956aT.s 			page 1


   1              		.cpu cortex-m7
   2              		.arch armv7e-m
   3              		.fpu softvfp
   4              		.eabi_attribute 20, 1
   5              		.eabi_attribute 21, 1
   6              		.eabi_attribute 23, 3
   7              		.eabi_attribute 24, 1
   8              		.eabi_attribute 25, 1
   9              		.eabi_attribute 26, 1
  10              		.eabi_attribute 30, 6
  11              		.eabi_attribute 34, 1
  12              		.eabi_attribute 18, 4
  13              		.file	"rt_test_sequence_002.c"
  14              		.text
  15              	.Ltext0:
  16              		.cfi_sections	.debug_frame
  17              		.section	.text.chSysDisable,"ax",%progbits
  18              		.align	1
  19              		.syntax unified
  20              		.thumb
  21              		.thumb_func
  22              		.type	chSysDisable, %function
  23              	chSysDisable:
  24              	.LFB199:
  25              		.file 1 "../../../os/rt/include/chsys.h"
  26              		.loc 1 362 39
  27              		.cfi_startproc
  28              		@ args = 0, pretend = 0, frame = 0
  29              		@ frame_needed = 1, uses_anonymous_args = 0
  30              		@ link register save eliminated.
  31 0000 80B4     		push	{r7}
  32              		.cfi_def_cfa_offset 4
  33              		.cfi_offset 7, -4
  34 0002 00AF     		add	r7, sp, #0
  35              		.cfi_def_cfa_register 7
  36              	.LBB74:
  37              	.LBB75:
  38              	.LBB76:
  39              	.LBB77:
  40              		.file 2 "../../../os/common/ext/ARM/CMSIS/Core/Include/cmsis_gcc.h"
  41              		.loc 2 142 3
  42              		.syntax unified
  43              	@ 142 "../../../os/common/ext/ARM/CMSIS/Core/Include/cmsis_gcc.h" 1
  44 0004 72B6     		cpsid i
  45              	@ 0 "" 2
  46              		.loc 2 143 1
  47              		.thumb
  48              		.syntax unified
  49 0006 00BF     		nop
  50              	.LBE77:
  51              	.LBE76:
  52              		.file 3 "../../../os/common/ports/ARMv7-M/chcore.h"
  53              		.loc 3 886 1
  54 0008 00BF     		nop
  55              	.LBE75:
  56              	.LBE74:
  57              		.loc 1 366 1
ARM GAS  C:\Users\DEVELO~1\AppData\Local\Temp\ccq956aT.s 			page 2


  58 000a 00BF     		nop
  59 000c BD46     		mov	sp, r7
  60              		.cfi_def_cfa_register 13
  61              		@ sp needed
  62 000e 80BC     		pop	{r7}
  63              		.cfi_restore 7
  64              		.cfi_def_cfa_offset 0
  65 0010 7047     		bx	lr
  66              		.cfi_endproc
  67              	.LFE199:
  68              		.size	chSysDisable, .-chSysDisable
  69              		.section	.text.chSysSuspend,"ax",%progbits
  70              		.align	1
  71              		.syntax unified
  72              		.thumb
  73              		.thumb_func
  74              		.type	chSysSuspend, %function
  75              	chSysSuspend:
  76              	.LFB200:
  77              		.loc 1 379 39
  78              		.cfi_startproc
  79              		@ args = 0, pretend = 0, frame = 8
  80              		@ frame_needed = 1, uses_anonymous_args = 0
  81              		@ link register save eliminated.
  82 0000 80B4     		push	{r7}
  83              		.cfi_def_cfa_offset 4
  84              		.cfi_offset 7, -4
  85 0002 83B0     		sub	sp, sp, #12
  86              		.cfi_def_cfa_offset 16
  87 0004 00AF     		add	r7, sp, #0
  88              		.cfi_def_cfa_register 7
  89 0006 3023     		movs	r3, #48
  90 0008 7B60     		str	r3, [r7, #4]
  91              	.LBB78:
  92              	.LBB79:
  93              	.LBB80:
  94              	.LBB81:
  95              		.loc 2 493 3
  96 000a 7B68     		ldr	r3, [r7, #4]
  97              		.syntax unified
  98              	@ 493 "../../../os/common/ext/ARM/CMSIS/Core/Include/cmsis_gcc.h" 1
  99 000c 83F31188 		MSR basepri, r3
 100              	@ 0 "" 2
 101              		.loc 2 494 1
 102              		.thumb
 103              		.syntax unified
 104 0010 00BF     		nop
 105              	.LBE81:
 106              	.LBE80:
 107              	.LBB82:
 108              	.LBB83:
 109              		.loc 2 131 3
 110              		.syntax unified
 111              	@ 131 "../../../os/common/ext/ARM/CMSIS/Core/Include/cmsis_gcc.h" 1
 112 0012 62B6     		cpsie i
 113              	@ 0 "" 2
 114              		.loc 2 132 1
ARM GAS  C:\Users\DEVELO~1\AppData\Local\Temp\ccq956aT.s 			page 3


 115              		.thumb
 116              		.syntax unified
 117 0014 00BF     		nop
 118              	.LBE83:
 119              	.LBE82:
 120              		.loc 3 901 1
 121 0016 00BF     		nop
 122              	.LBE79:
 123              	.LBE78:
 124              		.loc 1 383 1
 125 0018 00BF     		nop
 126 001a 0C37     		adds	r7, r7, #12
 127              		.cfi_def_cfa_offset 4
 128 001c BD46     		mov	sp, r7
 129              		.cfi_def_cfa_register 13
 130              		@ sp needed
 131 001e 80BC     		pop	{r7}
 132              		.cfi_restore 7
 133              		.cfi_def_cfa_offset 0
 134 0020 7047     		bx	lr
 135              		.cfi_endproc
 136              	.LFE200:
 137              		.size	chSysSuspend, .-chSysSuspend
 138              		.section	.text.chSysEnable,"ax",%progbits
 139              		.align	1
 140              		.syntax unified
 141              		.thumb
 142              		.thumb_func
 143              		.type	chSysEnable, %function
 144              	chSysEnable:
 145              	.LFB201:
 146              		.loc 1 394 38
 147              		.cfi_startproc
 148              		@ args = 0, pretend = 0, frame = 8
 149              		@ frame_needed = 1, uses_anonymous_args = 0
 150              		@ link register save eliminated.
 151 0000 80B4     		push	{r7}
 152              		.cfi_def_cfa_offset 4
 153              		.cfi_offset 7, -4
 154 0002 83B0     		sub	sp, sp, #12
 155              		.cfi_def_cfa_offset 16
 156 0004 00AF     		add	r7, sp, #0
 157              		.cfi_def_cfa_register 7
 158 0006 0023     		movs	r3, #0
 159 0008 7B60     		str	r3, [r7, #4]
 160              	.LBB84:
 161              	.LBB85:
 162              	.LBB86:
 163              	.LBB87:
 164              		.loc 2 493 3
 165 000a 7B68     		ldr	r3, [r7, #4]
 166              		.syntax unified
 167              	@ 493 "../../../os/common/ext/ARM/CMSIS/Core/Include/cmsis_gcc.h" 1
 168 000c 83F31188 		MSR basepri, r3
 169              	@ 0 "" 2
 170              		.loc 2 494 1
 171              		.thumb
ARM GAS  C:\Users\DEVELO~1\AppData\Local\Temp\ccq956aT.s 			page 4


 172              		.syntax unified
 173 0010 00BF     		nop
 174              	.LBE87:
 175              	.LBE86:
 176              	.LBB88:
 177              	.LBB89:
 178              		.loc 2 131 3
 179              		.syntax unified
 180              	@ 131 "../../../os/common/ext/ARM/CMSIS/Core/Include/cmsis_gcc.h" 1
 181 0012 62B6     		cpsie i
 182              	@ 0 "" 2
 183              		.loc 2 132 1
 184              		.thumb
 185              		.syntax unified
 186 0014 00BF     		nop
 187              	.LBE89:
 188              	.LBE88:
 189              		.loc 3 913 1
 190 0016 00BF     		nop
 191              	.LBE85:
 192              	.LBE84:
 193              		.loc 1 398 1
 194 0018 00BF     		nop
 195 001a 0C37     		adds	r7, r7, #12
 196              		.cfi_def_cfa_offset 4
 197 001c BD46     		mov	sp, r7
 198              		.cfi_def_cfa_register 13
 199              		@ sp needed
 200 001e 80BC     		pop	{r7}
 201              		.cfi_restore 7
 202              		.cfi_def_cfa_offset 0
 203 0020 7047     		bx	lr
 204              		.cfi_endproc
 205              	.LFE201:
 206              		.size	chSysEnable, .-chSysEnable
 207              		.section	.text.chSysLock,"ax",%progbits
 208              		.align	1
 209              		.syntax unified
 210              		.thumb
 211              		.thumb_func
 212              		.type	chSysLock, %function
 213              	chSysLock:
 214              	.LFB202:
 215              		.loc 1 407 36
 216              		.cfi_startproc
 217              		@ args = 0, pretend = 0, frame = 8
 218              		@ frame_needed = 1, uses_anonymous_args = 0
 219              		@ link register save eliminated.
 220 0000 80B4     		push	{r7}
 221              		.cfi_def_cfa_offset 4
 222              		.cfi_offset 7, -4
 223 0002 83B0     		sub	sp, sp, #12
 224              		.cfi_def_cfa_offset 16
 225 0004 00AF     		add	r7, sp, #0
 226              		.cfi_def_cfa_register 7
 227 0006 3023     		movs	r3, #48
 228 0008 7B60     		str	r3, [r7, #4]
ARM GAS  C:\Users\DEVELO~1\AppData\Local\Temp\ccq956aT.s 			page 5


 229              	.LBB90:
 230              	.LBB91:
 231              	.LBB92:
 232              	.LBB93:
 233              		.loc 2 493 3
 234 000a 7B68     		ldr	r3, [r7, #4]
 235              		.syntax unified
 236              	@ 493 "../../../os/common/ext/ARM/CMSIS/Core/Include/cmsis_gcc.h" 1
 237 000c 83F31188 		MSR basepri, r3
 238              	@ 0 "" 2
 239              		.loc 2 494 1
 240              		.thumb
 241              		.syntax unified
 242 0010 00BF     		nop
 243              	.LBE93:
 244              	.LBE92:
 245              		.loc 3 840 1
 246 0012 00BF     		nop
 247              	.LBE91:
 248              	.LBE90:
 249              		.loc 1 412 1
 250 0014 00BF     		nop
 251 0016 0C37     		adds	r7, r7, #12
 252              		.cfi_def_cfa_offset 4
 253 0018 BD46     		mov	sp, r7
 254              		.cfi_def_cfa_register 13
 255              		@ sp needed
 256 001a 80BC     		pop	{r7}
 257              		.cfi_restore 7
 258              		.cfi_def_cfa_offset 0
 259 001c 7047     		bx	lr
 260              		.cfi_endproc
 261              	.LFE202:
 262              		.size	chSysLock, .-chSysLock
 263              		.section	.text.chSysUnlock,"ax",%progbits
 264              		.align	1
 265              		.syntax unified
 266              		.thumb
 267              		.thumb_func
 268              		.type	chSysUnlock, %function
 269              	chSysUnlock:
 270              	.LFB203:
 271              		.loc 1 421 38
 272              		.cfi_startproc
 273              		@ args = 0, pretend = 0, frame = 8
 274              		@ frame_needed = 1, uses_anonymous_args = 0
 275              		@ link register save eliminated.
 276 0000 80B4     		push	{r7}
 277              		.cfi_def_cfa_offset 4
 278              		.cfi_offset 7, -4
 279 0002 83B0     		sub	sp, sp, #12
 280              		.cfi_def_cfa_offset 16
 281 0004 00AF     		add	r7, sp, #0
 282              		.cfi_def_cfa_register 7
 283 0006 0023     		movs	r3, #0
 284 0008 7B60     		str	r3, [r7, #4]
 285              	.LBB94:
ARM GAS  C:\Users\DEVELO~1\AppData\Local\Temp\ccq956aT.s 			page 6


 286              	.LBB95:
 287              	.LBB96:
 288              	.LBB97:
 289              		.loc 2 493 3
 290 000a 7B68     		ldr	r3, [r7, #4]
 291              		.syntax unified
 292              	@ 493 "../../../os/common/ext/ARM/CMSIS/Core/Include/cmsis_gcc.h" 1
 293 000c 83F31188 		MSR basepri, r3
 294              	@ 0 "" 2
 295              		.loc 2 494 1
 296              		.thumb
 297              		.syntax unified
 298 0010 00BF     		nop
 299              	.LBE97:
 300              	.LBE96:
 301              		.loc 3 854 1
 302 0012 00BF     		nop
 303              	.LBE95:
 304              	.LBE94:
 305              		.loc 1 435 1
 306 0014 00BF     		nop
 307 0016 0C37     		adds	r7, r7, #12
 308              		.cfi_def_cfa_offset 4
 309 0018 BD46     		mov	sp, r7
 310              		.cfi_def_cfa_register 13
 311              		@ sp needed
 312 001a 80BC     		pop	{r7}
 313              		.cfi_restore 7
 314              		.cfi_def_cfa_offset 0
 315 001c 7047     		bx	lr
 316              		.cfi_endproc
 317              	.LFE203:
 318              		.size	chSysUnlock, .-chSysUnlock
 319              		.section	.text.chSysLockFromISR,"ax",%progbits
 320              		.align	1
 321              		.syntax unified
 322              		.thumb
 323              		.thumb_func
 324              		.type	chSysLockFromISR, %function
 325              	chSysLockFromISR:
 326              	.LFB204:
 327              		.loc 1 451 43
 328              		.cfi_startproc
 329              		@ args = 0, pretend = 0, frame = 8
 330              		@ frame_needed = 1, uses_anonymous_args = 0
 331              		@ link register save eliminated.
 332 0000 80B4     		push	{r7}
 333              		.cfi_def_cfa_offset 4
 334              		.cfi_offset 7, -4
 335 0002 83B0     		sub	sp, sp, #12
 336              		.cfi_def_cfa_offset 16
 337 0004 00AF     		add	r7, sp, #0
 338              		.cfi_def_cfa_register 7
 339 0006 3023     		movs	r3, #48
 340 0008 7B60     		str	r3, [r7, #4]
 341              	.LBB98:
 342              	.LBB99:
ARM GAS  C:\Users\DEVELO~1\AppData\Local\Temp\ccq956aT.s 			page 7


 343              	.LBB100:
 344              	.LBB101:
 345              	.LBB102:
 346              	.LBB103:
 347              		.loc 2 493 3
 348 000a 7B68     		ldr	r3, [r7, #4]
 349              		.syntax unified
 350              	@ 493 "../../../os/common/ext/ARM/CMSIS/Core/Include/cmsis_gcc.h" 1
 351 000c 83F31188 		MSR basepri, r3
 352              	@ 0 "" 2
 353              		.loc 2 494 1
 354              		.thumb
 355              		.syntax unified
 356 0010 00BF     		nop
 357              	.LBE103:
 358              	.LBE102:
 359              		.loc 3 840 1
 360 0012 00BF     		nop
 361              	.LBE101:
 362              	.LBE100:
 363              		.loc 3 865 1
 364 0014 00BF     		nop
 365              	.LBE99:
 366              	.LBE98:
 367              		.loc 1 456 1
 368 0016 00BF     		nop
 369 0018 0C37     		adds	r7, r7, #12
 370              		.cfi_def_cfa_offset 4
 371 001a BD46     		mov	sp, r7
 372              		.cfi_def_cfa_register 13
 373              		@ sp needed
 374 001c 80BC     		pop	{r7}
 375              		.cfi_restore 7
 376              		.cfi_def_cfa_offset 0
 377 001e 7047     		bx	lr
 378              		.cfi_endproc
 379              	.LFE204:
 380              		.size	chSysLockFromISR, .-chSysLockFromISR
 381              		.section	.text.chSysUnlockFromISR,"ax",%progbits
 382              		.align	1
 383              		.syntax unified
 384              		.thumb
 385              		.thumb_func
 386              		.type	chSysUnlockFromISR, %function
 387              	chSysUnlockFromISR:
 388              	.LFB205:
 389              		.loc 1 473 45
 390              		.cfi_startproc
 391              		@ args = 0, pretend = 0, frame = 8
 392              		@ frame_needed = 1, uses_anonymous_args = 0
 393              		@ link register save eliminated.
 394 0000 80B4     		push	{r7}
 395              		.cfi_def_cfa_offset 4
 396              		.cfi_offset 7, -4
 397 0002 83B0     		sub	sp, sp, #12
 398              		.cfi_def_cfa_offset 16
 399 0004 00AF     		add	r7, sp, #0
ARM GAS  C:\Users\DEVELO~1\AppData\Local\Temp\ccq956aT.s 			page 8


 400              		.cfi_def_cfa_register 7
 401 0006 0023     		movs	r3, #0
 402 0008 7B60     		str	r3, [r7, #4]
 403              	.LBB104:
 404              	.LBB105:
 405              	.LBB106:
 406              	.LBB107:
 407              	.LBB108:
 408              	.LBB109:
 409              		.loc 2 493 3
 410 000a 7B68     		ldr	r3, [r7, #4]
 411              		.syntax unified
 412              	@ 493 "../../../os/common/ext/ARM/CMSIS/Core/Include/cmsis_gcc.h" 1
 413 000c 83F31188 		MSR basepri, r3
 414              	@ 0 "" 2
 415              		.loc 2 494 1
 416              		.thumb
 417              		.syntax unified
 418 0010 00BF     		nop
 419              	.LBE109:
 420              	.LBE108:
 421              		.loc 3 854 1
 422 0012 00BF     		nop
 423              	.LBE107:
 424              	.LBE106:
 425              		.loc 3 876 1
 426 0014 00BF     		nop
 427              	.LBE105:
 428              	.LBE104:
 429              		.loc 1 478 1
 430 0016 00BF     		nop
 431 0018 0C37     		adds	r7, r7, #12
 432              		.cfi_def_cfa_offset 4
 433 001a BD46     		mov	sp, r7
 434              		.cfi_def_cfa_register 13
 435              		@ sp needed
 436 001c 80BC     		pop	{r7}
 437              		.cfi_restore 7
 438              		.cfi_def_cfa_offset 0
 439 001e 7047     		bx	lr
 440              		.cfi_endproc
 441              	.LFE205:
 442              		.size	chSysUnlockFromISR, .-chSysUnlockFromISR
 443              		.section	.text.chSysUnconditionalLock,"ax",%progbits
 444              		.align	1
 445              		.syntax unified
 446              		.thumb
 447              		.thumb_func
 448              		.type	chSysUnconditionalLock, %function
 449              	chSysUnconditionalLock:
 450              	.LFB206:
 451              		.loc 1 490 49
 452              		.cfi_startproc
 453              		@ args = 0, pretend = 0, frame = 16
 454              		@ frame_needed = 1, uses_anonymous_args = 0
 455 0000 80B5     		push	{r7, lr}
 456              		.cfi_def_cfa_offset 8
ARM GAS  C:\Users\DEVELO~1\AppData\Local\Temp\ccq956aT.s 			page 9


 457              		.cfi_offset 7, -8
 458              		.cfi_offset 14, -4
 459 0002 84B0     		sub	sp, sp, #16
 460              		.cfi_def_cfa_offset 24
 461 0004 00AF     		add	r7, sp, #0
 462              		.cfi_def_cfa_register 7
 463              	.LBB110:
 464              	.LBB111:
 465              	.LBB112:
 466              	.LBB113:
 467              		.loc 2 465 3
 468              		.syntax unified
 469              	@ 465 "../../../os/common/ext/ARM/CMSIS/Core/Include/cmsis_gcc.h" 1
 470 0006 EFF31183 		MRS r3, basepri
 471              	@ 0 "" 2
 472              		.thumb
 473              		.syntax unified
 474 000a BB60     		str	r3, [r7, #8]
 475              		.loc 2 466 9
 476 000c BB68     		ldr	r3, [r7, #8]
 477              	.LBE113:
 478              	.LBE112:
 479              		.loc 3 781 19
 480 000e 7B60     		str	r3, [r7, #4]
 481              		.loc 3 785 10
 482 0010 7B68     		ldr	r3, [r7, #4]
 483 0012 FB60     		str	r3, [r7, #12]
 484              	.LBE111:
 485              	.LBE110:
 486              	.LBB114:
 487              	.LBB115:
 488              		.loc 3 800 14
 489 0014 FB68     		ldr	r3, [r7, #12]
 490 0016 002B     		cmp	r3, #0
 491 0018 0CBF     		ite	eq
 492 001a 0123     		moveq	r3, #1
 493 001c 0023     		movne	r3, #0
 494 001e DBB2     		uxtb	r3, r3
 495              	.LBE115:
 496              	.LBE114:
 497              		.loc 1 492 6
 498 0020 002B     		cmp	r3, #0
 499 0022 01D0     		beq	.L13
 500              		.loc 1 493 5
 501 0024 FFF7FEFF 		bl	chSysLock
 502              	.L13:
 503              		.loc 1 495 1
 504 0028 00BF     		nop
 505 002a 1037     		adds	r7, r7, #16
 506              		.cfi_def_cfa_offset 8
 507 002c BD46     		mov	sp, r7
 508              		.cfi_def_cfa_register 13
 509              		@ sp needed
 510 002e 80BD     		pop	{r7, pc}
 511              		.cfi_endproc
 512              	.LFE206:
 513              		.size	chSysUnconditionalLock, .-chSysUnconditionalLock
ARM GAS  C:\Users\DEVELO~1\AppData\Local\Temp\ccq956aT.s 			page 10


 514              		.section	.text.chSysUnconditionalUnlock,"ax",%progbits
 515              		.align	1
 516              		.syntax unified
 517              		.thumb
 518              		.thumb_func
 519              		.type	chSysUnconditionalUnlock, %function
 520              	chSysUnconditionalUnlock:
 521              	.LFB207:
 522              		.loc 1 506 51
 523              		.cfi_startproc
 524              		@ args = 0, pretend = 0, frame = 16
 525              		@ frame_needed = 1, uses_anonymous_args = 0
 526 0000 80B5     		push	{r7, lr}
 527              		.cfi_def_cfa_offset 8
 528              		.cfi_offset 7, -8
 529              		.cfi_offset 14, -4
 530 0002 84B0     		sub	sp, sp, #16
 531              		.cfi_def_cfa_offset 24
 532 0004 00AF     		add	r7, sp, #0
 533              		.cfi_def_cfa_register 7
 534              	.LBB116:
 535              	.LBB117:
 536              	.LBB118:
 537              	.LBB119:
 538              		.loc 2 465 3
 539              		.syntax unified
 540              	@ 465 "../../../os/common/ext/ARM/CMSIS/Core/Include/cmsis_gcc.h" 1
 541 0006 EFF31183 		MRS r3, basepri
 542              	@ 0 "" 2
 543              		.thumb
 544              		.syntax unified
 545 000a BB60     		str	r3, [r7, #8]
 546              		.loc 2 466 9
 547 000c BB68     		ldr	r3, [r7, #8]
 548              	.LBE119:
 549              	.LBE118:
 550              		.loc 3 781 19
 551 000e 7B60     		str	r3, [r7, #4]
 552              		.loc 3 785 10
 553 0010 7B68     		ldr	r3, [r7, #4]
 554 0012 FB60     		str	r3, [r7, #12]
 555              	.LBE117:
 556              	.LBE116:
 557              	.LBB120:
 558              	.LBB121:
 559              		.loc 3 800 14
 560 0014 FB68     		ldr	r3, [r7, #12]
 561 0016 002B     		cmp	r3, #0
 562 0018 0CBF     		ite	eq
 563 001a 0123     		moveq	r3, #1
 564 001c 0023     		movne	r3, #0
 565 001e DBB2     		uxtb	r3, r3
 566              	.LBE121:
 567              	.LBE120:
 568              		.loc 1 508 7
 569 0020 83F00103 		eor	r3, r3, #1
 570 0024 DBB2     		uxtb	r3, r3
ARM GAS  C:\Users\DEVELO~1\AppData\Local\Temp\ccq956aT.s 			page 11


 571              		.loc 1 508 6
 572 0026 002B     		cmp	r3, #0
 573 0028 01D0     		beq	.L19
 574              		.loc 1 509 5
 575 002a FFF7FEFF 		bl	chSysUnlock
 576              	.L19:
 577              		.loc 1 511 1
 578 002e 00BF     		nop
 579 0030 1037     		adds	r7, r7, #16
 580              		.cfi_def_cfa_offset 8
 581 0032 BD46     		mov	sp, r7
 582              		.cfi_def_cfa_register 13
 583              		@ sp needed
 584 0034 80BD     		pop	{r7, pc}
 585              		.cfi_endproc
 586              	.LFE207:
 587              		.size	chSysUnconditionalUnlock, .-chSysUnconditionalUnlock
 588              		.section	.text.chVTObjectInit,"ax",%progbits
 589              		.align	1
 590              		.syntax unified
 591              		.thumb
 592              		.thumb_func
 593              		.type	chVTObjectInit, %function
 594              	chVTObjectInit:
 595              	.LFB208:
 596              		.file 4 "../../../os/rt/include/chvt.h"
 597              		.loc 4 104 57
 598              		.cfi_startproc
 599              		@ args = 0, pretend = 0, frame = 8
 600              		@ frame_needed = 1, uses_anonymous_args = 0
 601              		@ link register save eliminated.
 602 0000 80B4     		push	{r7}
 603              		.cfi_def_cfa_offset 4
 604              		.cfi_offset 7, -4
 605 0002 83B0     		sub	sp, sp, #12
 606              		.cfi_def_cfa_offset 16
 607 0004 00AF     		add	r7, sp, #0
 608              		.cfi_def_cfa_register 7
 609 0006 7860     		str	r0, [r7, #4]
 610              		.loc 4 106 19
 611 0008 7B68     		ldr	r3, [r7, #4]
 612 000a 0022     		movs	r2, #0
 613 000c 1A60     		str	r2, [r3]
 614              		.loc 4 107 1
 615 000e 00BF     		nop
 616 0010 0C37     		adds	r7, r7, #12
 617              		.cfi_def_cfa_offset 4
 618 0012 BD46     		mov	sp, r7
 619              		.cfi_def_cfa_register 13
 620              		@ sp needed
 621 0014 80BC     		pop	{r7}
 622              		.cfi_restore 7
 623              		.cfi_def_cfa_offset 0
 624 0016 7047     		bx	lr
 625              		.cfi_endproc
 626              	.LFE208:
 627              		.size	chVTObjectInit, .-chVTObjectInit
ARM GAS  C:\Users\DEVELO~1\AppData\Local\Temp\ccq956aT.s 			page 12


 628              		.section	.text.chVTIsArmedI,"ax",%progbits
 629              		.align	1
 630              		.syntax unified
 631              		.thumb
 632              		.thumb_func
 633              		.type	chVTIsArmedI, %function
 634              	chVTIsArmedI:
 635              	.LFB215:
 636              		.loc 4 248 61
 637              		.cfi_startproc
 638              		@ args = 0, pretend = 0, frame = 8
 639              		@ frame_needed = 1, uses_anonymous_args = 0
 640              		@ link register save eliminated.
 641 0000 80B4     		push	{r7}
 642              		.cfi_def_cfa_offset 4
 643              		.cfi_offset 7, -4
 644 0002 83B0     		sub	sp, sp, #12
 645              		.cfi_def_cfa_offset 16
 646 0004 00AF     		add	r7, sp, #0
 647              		.cfi_def_cfa_register 7
 648 0006 7860     		str	r0, [r7, #4]
 649              		.loc 4 252 27
 650 0008 7B68     		ldr	r3, [r7, #4]
 651 000a 1B68     		ldr	r3, [r3]
 652              		.loc 4 252 10
 653 000c 002B     		cmp	r3, #0
 654 000e 14BF     		ite	ne
 655 0010 0123     		movne	r3, #1
 656 0012 0023     		moveq	r3, #0
 657 0014 DBB2     		uxtb	r3, r3
 658              		.loc 4 253 1
 659 0016 1846     		mov	r0, r3
 660 0018 0C37     		adds	r7, r7, #12
 661              		.cfi_def_cfa_offset 4
 662 001a BD46     		mov	sp, r7
 663              		.cfi_def_cfa_register 13
 664              		@ sp needed
 665 001c 80BC     		pop	{r7}
 666              		.cfi_restore 7
 667              		.cfi_def_cfa_offset 0
 668 001e 7047     		bx	lr
 669              		.cfi_endproc
 670              	.LFE215:
 671              		.size	chVTIsArmedI, .-chVTIsArmedI
 672              		.section	.text.chVTIsArmed,"ax",%progbits
 673              		.align	1
 674              		.syntax unified
 675              		.thumb
 676              		.thumb_func
 677              		.type	chVTIsArmed, %function
 678              	chVTIsArmed:
 679              	.LFB216:
 680              		.loc 4 265 60
 681              		.cfi_startproc
 682              		@ args = 0, pretend = 0, frame = 16
 683              		@ frame_needed = 1, uses_anonymous_args = 0
 684 0000 80B5     		push	{r7, lr}
ARM GAS  C:\Users\DEVELO~1\AppData\Local\Temp\ccq956aT.s 			page 13


 685              		.cfi_def_cfa_offset 8
 686              		.cfi_offset 7, -8
 687              		.cfi_offset 14, -4
 688 0002 84B0     		sub	sp, sp, #16
 689              		.cfi_def_cfa_offset 24
 690 0004 00AF     		add	r7, sp, #0
 691              		.cfi_def_cfa_register 7
 692 0006 7860     		str	r0, [r7, #4]
 693              		.loc 4 268 3
 694 0008 FFF7FEFF 		bl	chSysLock
 695              		.loc 4 269 7
 696 000c 7868     		ldr	r0, [r7, #4]
 697 000e FFF7FEFF 		bl	chVTIsArmedI
 698 0012 0346     		mov	r3, r0
 699 0014 FB73     		strb	r3, [r7, #15]
 700              		.loc 4 270 3
 701 0016 FFF7FEFF 		bl	chSysUnlock
 702              		.loc 4 272 10
 703 001a FB7B     		ldrb	r3, [r7, #15]	@ zero_extendqisi2
 704              		.loc 4 273 1
 705 001c 1846     		mov	r0, r3
 706 001e 1037     		adds	r7, r7, #16
 707              		.cfi_def_cfa_offset 8
 708 0020 BD46     		mov	sp, r7
 709              		.cfi_def_cfa_register 13
 710              		@ sp needed
 711 0022 80BD     		pop	{r7, pc}
 712              		.cfi_endproc
 713              	.LFE216:
 714              		.size	chVTIsArmed, .-chVTIsArmed
 715              		.section	.text.chVTResetI,"ax",%progbits
 716              		.align	1
 717              		.syntax unified
 718              		.thumb
 719              		.thumb_func
 720              		.type	chVTResetI, %function
 721              	chVTResetI:
 722              	.LFB217:
 723              		.loc 4 285 53
 724              		.cfi_startproc
 725              		@ args = 0, pretend = 0, frame = 8
 726              		@ frame_needed = 1, uses_anonymous_args = 0
 727 0000 80B5     		push	{r7, lr}
 728              		.cfi_def_cfa_offset 8
 729              		.cfi_offset 7, -8
 730              		.cfi_offset 14, -4
 731 0002 82B0     		sub	sp, sp, #8
 732              		.cfi_def_cfa_offset 16
 733 0004 00AF     		add	r7, sp, #0
 734              		.cfi_def_cfa_register 7
 735 0006 7860     		str	r0, [r7, #4]
 736              		.loc 4 287 7
 737 0008 7868     		ldr	r0, [r7, #4]
 738 000a FFF7FEFF 		bl	chVTIsArmedI
 739 000e 0346     		mov	r3, r0
 740              		.loc 4 287 6
 741 0010 002B     		cmp	r3, #0
ARM GAS  C:\Users\DEVELO~1\AppData\Local\Temp\ccq956aT.s 			page 14


 742 0012 02D0     		beq	.L27
 743              		.loc 4 288 5
 744 0014 7868     		ldr	r0, [r7, #4]
 745 0016 FFF7FEFF 		bl	chVTDoResetI
 746              	.L27:
 747              		.loc 4 290 1
 748 001a 00BF     		nop
 749 001c 0837     		adds	r7, r7, #8
 750              		.cfi_def_cfa_offset 8
 751 001e BD46     		mov	sp, r7
 752              		.cfi_def_cfa_register 13
 753              		@ sp needed
 754 0020 80BD     		pop	{r7, pc}
 755              		.cfi_endproc
 756              	.LFE217:
 757              		.size	chVTResetI, .-chVTResetI
 758              		.section	.text.chVTSetI,"ax",%progbits
 759              		.align	1
 760              		.syntax unified
 761              		.thumb
 762              		.thumb_func
 763              		.type	chVTSetI, %function
 764              	chVTSetI:
 765              	.LFB219:
 766              		.loc 4 332 57
 767              		.cfi_startproc
 768              		@ args = 0, pretend = 0, frame = 16
 769              		@ frame_needed = 1, uses_anonymous_args = 0
 770 0000 80B5     		push	{r7, lr}
 771              		.cfi_def_cfa_offset 8
 772              		.cfi_offset 7, -8
 773              		.cfi_offset 14, -4
 774 0002 84B0     		sub	sp, sp, #16
 775              		.cfi_def_cfa_offset 24
 776 0004 00AF     		add	r7, sp, #0
 777              		.cfi_def_cfa_register 7
 778 0006 F860     		str	r0, [r7, #12]
 779 0008 B960     		str	r1, [r7, #8]
 780 000a 7A60     		str	r2, [r7, #4]
 781 000c 3B60     		str	r3, [r7]
 782              		.loc 4 334 3
 783 000e F868     		ldr	r0, [r7, #12]
 784 0010 FFF7FEFF 		bl	chVTResetI
 785              		.loc 4 335 3
 786 0014 3B68     		ldr	r3, [r7]
 787 0016 7A68     		ldr	r2, [r7, #4]
 788 0018 B968     		ldr	r1, [r7, #8]
 789 001a F868     		ldr	r0, [r7, #12]
 790 001c FFF7FEFF 		bl	chVTDoSetI
 791              		.loc 4 336 1
 792 0020 00BF     		nop
 793 0022 1037     		adds	r7, r7, #16
 794              		.cfi_def_cfa_offset 8
 795 0024 BD46     		mov	sp, r7
 796              		.cfi_def_cfa_register 13
 797              		@ sp needed
 798 0026 80BD     		pop	{r7, pc}
ARM GAS  C:\Users\DEVELO~1\AppData\Local\Temp\ccq956aT.s 			page 15


 799              		.cfi_endproc
 800              	.LFE219:
 801              		.size	chVTSetI, .-chVTSetI
 802              		.section	.text.chVTSet,"ax",%progbits
 803              		.align	1
 804              		.syntax unified
 805              		.thumb
 806              		.thumb_func
 807              		.type	chVTSet, %function
 808              	chVTSet:
 809              	.LFB220:
 810              		.loc 4 361 56
 811              		.cfi_startproc
 812              		@ args = 0, pretend = 0, frame = 16
 813              		@ frame_needed = 1, uses_anonymous_args = 0
 814 0000 80B5     		push	{r7, lr}
 815              		.cfi_def_cfa_offset 8
 816              		.cfi_offset 7, -8
 817              		.cfi_offset 14, -4
 818 0002 84B0     		sub	sp, sp, #16
 819              		.cfi_def_cfa_offset 24
 820 0004 00AF     		add	r7, sp, #0
 821              		.cfi_def_cfa_register 7
 822 0006 F860     		str	r0, [r7, #12]
 823 0008 B960     		str	r1, [r7, #8]
 824 000a 7A60     		str	r2, [r7, #4]
 825 000c 3B60     		str	r3, [r7]
 826              		.loc 4 363 3
 827 000e FFF7FEFF 		bl	chSysLock
 828              		.loc 4 364 3
 829 0012 3B68     		ldr	r3, [r7]
 830 0014 7A68     		ldr	r2, [r7, #4]
 831 0016 B968     		ldr	r1, [r7, #8]
 832 0018 F868     		ldr	r0, [r7, #12]
 833 001a FFF7FEFF 		bl	chVTSetI
 834              		.loc 4 365 3
 835 001e FFF7FEFF 		bl	chSysUnlock
 836              		.loc 4 366 1
 837 0022 00BF     		nop
 838 0024 1037     		adds	r7, r7, #16
 839              		.cfi_def_cfa_offset 8
 840 0026 BD46     		mov	sp, r7
 841              		.cfi_def_cfa_register 13
 842              		@ sp needed
 843 0028 80BD     		pop	{r7, pc}
 844              		.cfi_endproc
 845              	.LFE220:
 846              		.size	chVTSet, .-chVTSet
 847              		.section	.text.vtcb,"ax",%progbits
 848              		.align	1
 849              		.syntax unified
 850              		.thumb
 851              		.thumb_func
 852              		.type	vtcb, %function
 853              	vtcb:
 854              	.LFB436:
 855              		.file 5 "../../../test/rt/source/test/rt_test_sequence_002.c"
ARM GAS  C:\Users\DEVELO~1\AppData\Local\Temp\ccq956aT.s 			page 16


 856              		.loc 5 47 49
 857              		.cfi_startproc
 858              		@ args = 0, pretend = 0, frame = 16
 859              		@ frame_needed = 1, uses_anonymous_args = 0
 860 0000 80B5     		push	{r7, lr}
 861              		.cfi_def_cfa_offset 8
 862              		.cfi_offset 7, -8
 863              		.cfi_offset 14, -4
 864 0002 84B0     		sub	sp, sp, #16
 865              		.cfi_def_cfa_offset 24
 866 0004 00AF     		add	r7, sp, #0
 867              		.cfi_def_cfa_register 7
 868 0006 7860     		str	r0, [r7, #4]
 869 0008 3960     		str	r1, [r7]
 870              		.loc 5 54 3
 871 000a FFF7FEFF 		bl	chSysLockFromISR
 872              		.loc 5 55 3
 873 000e FFF7FEFF 		bl	chSysUnlockFromISR
 874              		.loc 5 58 3
 875 0012 FFF7FEFF 		bl	chSysLockFromISR
 876              		.loc 5 59 9
 877 0016 FFF7FEFF 		bl	chSysGetStatusAndLockX
 878 001a F860     		str	r0, [r7, #12]
 879              		.loc 5 60 3
 880 001c F868     		ldr	r0, [r7, #12]
 881 001e FFF7FEFF 		bl	chSysRestoreStatusX
 882              		.loc 5 61 3
 883 0022 FFF7FEFF 		bl	chSysUnlockFromISR
 884              		.loc 5 62 1
 885 0026 00BF     		nop
 886 0028 1037     		adds	r7, r7, #16
 887              		.cfi_def_cfa_offset 8
 888 002a BD46     		mov	sp, r7
 889              		.cfi_def_cfa_register 13
 890              		@ sp needed
 891 002c 80BD     		pop	{r7, pc}
 892              		.cfi_endproc
 893              	.LFE436:
 894              		.size	vtcb, .-vtcb
 895              		.section	.rodata
 896              		.align	2
 897              	.LC0:
 898 0000 72656164 		.ascii	"ready list check failed\000"
 898      79206C69 
 898      73742063 
 898      6865636B 
 898      20666169 
 899              		.align	2
 900              	.LC1:
 901 0018 76697274 		.ascii	"virtual timers list check failed\000"
 901      75616C20 
 901      74696D65 
 901      7273206C 
 901      69737420 
 902 0039 000000   		.align	2
 903              	.LC2:
 904 003c 72656769 		.ascii	"registry list check failed\000"
ARM GAS  C:\Users\DEVELO~1\AppData\Local\Temp\ccq956aT.s 			page 17


 904      73747279 
 904      206C6973 
 904      74206368 
 904      65636B20 
 905 0057 00       		.align	2
 906              	.LC3:
 907 0058 706F7274 		.ascii	"port layer check failed\000"
 907      206C6179 
 907      65722063 
 907      6865636B 
 907      20666169 
 908              		.section	.text.rt_test_002_001_execute,"ax",%progbits
 909              		.align	1
 910              		.syntax unified
 911              		.thumb
 912              		.thumb_func
 913              		.type	rt_test_002_001_execute, %function
 914              	rt_test_002_001_execute:
 915              	.LFB437:
 916              		.loc 5 83 43
 917              		.cfi_startproc
 918              		@ args = 0, pretend = 0, frame = 8
 919              		@ frame_needed = 1, uses_anonymous_args = 0
 920 0000 80B5     		push	{r7, lr}
 921              		.cfi_def_cfa_offset 8
 922              		.cfi_offset 7, -8
 923              		.cfi_offset 14, -4
 924 0002 82B0     		sub	sp, sp, #8
 925              		.cfi_def_cfa_offset 16
 926 0004 00AF     		add	r7, sp, #0
 927              		.cfi_def_cfa_register 7
 928              		.loc 5 87 3
 929 0006 3F4B     		ldr	r3, .L36
 930 0008 0122     		movs	r2, #1
 931 000a 1A60     		str	r2, [r3]
 932              		.loc 5 89 5
 933 000c FFF7FEFF 		bl	chSysLock
 934              		.loc 5 90 14
 935 0010 0120     		movs	r0, #1
 936 0012 FFF7FEFF 		bl	chSysIntegrityCheckI
 937 0016 0346     		mov	r3, r0
 938 0018 FB71     		strb	r3, [r7, #7]
 939              		.loc 5 91 5
 940 001a FFF7FEFF 		bl	chSysUnlock
 941              		.loc 5 92 5
 942 001e FB79     		ldrb	r3, [r7, #7]	@ zero_extendqisi2
 943 0020 002B     		cmp	r3, #0
 944 0022 14BF     		ite	ne
 945 0024 0123     		movne	r3, #1
 946 0026 0023     		moveq	r3, #0
 947 0028 DBB2     		uxtb	r3, r3
 948 002a 83F00103 		eor	r3, r3, #1
 949 002e DBB2     		uxtb	r3, r3
 950 0030 03F00103 		and	r3, r3, #1
 951 0034 DBB2     		uxtb	r3, r3
 952 0036 3449     		ldr	r1, .L36+4
 953 0038 1846     		mov	r0, r3
ARM GAS  C:\Users\DEVELO~1\AppData\Local\Temp\ccq956aT.s 			page 18


 954 003a FFF7FEFF 		bl	__test_assert
 955 003e 0346     		mov	r3, r0
 956 0040 002B     		cmp	r3, #0
 957 0042 5BD1     		bne	.L31
 958              		.loc 5 97 3
 959 0044 2F4B     		ldr	r3, .L36
 960 0046 0222     		movs	r2, #2
 961 0048 1A60     		str	r2, [r3]
 962              		.loc 5 99 5
 963 004a FFF7FEFF 		bl	chSysLock
 964              		.loc 5 100 14
 965 004e 0220     		movs	r0, #2
 966 0050 FFF7FEFF 		bl	chSysIntegrityCheckI
 967 0054 0346     		mov	r3, r0
 968 0056 FB71     		strb	r3, [r7, #7]
 969              		.loc 5 101 5
 970 0058 FFF7FEFF 		bl	chSysUnlock
 971              		.loc 5 102 5
 972 005c FB79     		ldrb	r3, [r7, #7]	@ zero_extendqisi2
 973 005e 002B     		cmp	r3, #0
 974 0060 14BF     		ite	ne
 975 0062 0123     		movne	r3, #1
 976 0064 0023     		moveq	r3, #0
 977 0066 DBB2     		uxtb	r3, r3
 978 0068 83F00103 		eor	r3, r3, #1
 979 006c DBB2     		uxtb	r3, r3
 980 006e 03F00103 		and	r3, r3, #1
 981 0072 DBB2     		uxtb	r3, r3
 982 0074 2549     		ldr	r1, .L36+8
 983 0076 1846     		mov	r0, r3
 984 0078 FFF7FEFF 		bl	__test_assert
 985 007c 0346     		mov	r3, r0
 986 007e 002B     		cmp	r3, #0
 987 0080 3CD1     		bne	.L31
 988              		.loc 5 107 3
 989 0082 204B     		ldr	r3, .L36
 990 0084 0322     		movs	r2, #3
 991 0086 1A60     		str	r2, [r3]
 992              		.loc 5 109 5
 993 0088 FFF7FEFF 		bl	chSysLock
 994              		.loc 5 110 14
 995 008c 0420     		movs	r0, #4
 996 008e FFF7FEFF 		bl	chSysIntegrityCheckI
 997 0092 0346     		mov	r3, r0
 998 0094 FB71     		strb	r3, [r7, #7]
 999              		.loc 5 111 5
 1000 0096 FFF7FEFF 		bl	chSysUnlock
 1001              		.loc 5 112 5
 1002 009a FB79     		ldrb	r3, [r7, #7]	@ zero_extendqisi2
 1003 009c 002B     		cmp	r3, #0
 1004 009e 14BF     		ite	ne
 1005 00a0 0123     		movne	r3, #1
 1006 00a2 0023     		moveq	r3, #0
 1007 00a4 DBB2     		uxtb	r3, r3
 1008 00a6 83F00103 		eor	r3, r3, #1
 1009 00aa DBB2     		uxtb	r3, r3
 1010 00ac 03F00103 		and	r3, r3, #1
ARM GAS  C:\Users\DEVELO~1\AppData\Local\Temp\ccq956aT.s 			page 19


 1011 00b0 DBB2     		uxtb	r3, r3
 1012 00b2 1749     		ldr	r1, .L36+12
 1013 00b4 1846     		mov	r0, r3
 1014 00b6 FFF7FEFF 		bl	__test_assert
 1015 00ba 0346     		mov	r3, r0
 1016 00bc 002B     		cmp	r3, #0
 1017 00be 1DD1     		bne	.L31
 1018              		.loc 5 117 3
 1019 00c0 104B     		ldr	r3, .L36
 1020 00c2 0422     		movs	r2, #4
 1021 00c4 1A60     		str	r2, [r3]
 1022              		.loc 5 119 5
 1023 00c6 FFF7FEFF 		bl	chSysLock
 1024              		.loc 5 120 14
 1025 00ca 0820     		movs	r0, #8
 1026 00cc FFF7FEFF 		bl	chSysIntegrityCheckI
 1027 00d0 0346     		mov	r3, r0
 1028 00d2 FB71     		strb	r3, [r7, #7]
 1029              		.loc 5 121 5
 1030 00d4 FFF7FEFF 		bl	chSysUnlock
 1031              		.loc 5 122 5
 1032 00d8 FB79     		ldrb	r3, [r7, #7]	@ zero_extendqisi2
 1033 00da 002B     		cmp	r3, #0
 1034 00dc 14BF     		ite	ne
 1035 00de 0123     		movne	r3, #1
 1036 00e0 0023     		moveq	r3, #0
 1037 00e2 DBB2     		uxtb	r3, r3
 1038 00e4 83F00103 		eor	r3, r3, #1
 1039 00e8 DBB2     		uxtb	r3, r3
 1040 00ea 03F00103 		and	r3, r3, #1
 1041 00ee DBB2     		uxtb	r3, r3
 1042 00f0 0849     		ldr	r1, .L36+16
 1043 00f2 1846     		mov	r0, r3
 1044 00f4 FFF7FEFF 		bl	__test_assert
 1045 00f8 0346     		mov	r3, r0
 1046 00fa 002B     		cmp	r3, #0
 1047              	.L31:
 1048              		.loc 5 125 1
 1049 00fc 0837     		adds	r7, r7, #8
 1050              		.cfi_def_cfa_offset 8
 1051 00fe BD46     		mov	sp, r7
 1052              		.cfi_def_cfa_register 13
 1053              		@ sp needed
 1054 0100 80BD     		pop	{r7, pc}
 1055              	.L37:
 1056 0102 00BF     		.align	2
 1057              	.L36:
 1058 0104 00000000 		.word	chtest
 1059 0108 00000000 		.word	.LC0
 1060 010c 18000000 		.word	.LC1
 1061 0110 3C000000 		.word	.LC2
 1062 0114 58000000 		.word	.LC3
 1063              		.cfi_endproc
 1064              	.LFE437:
 1065              		.size	rt_test_002_001_execute, .-rt_test_002_001_execute
 1066              		.section	.rodata
 1067              		.align	2
ARM GAS  C:\Users\DEVELO~1\AppData\Local\Temp\ccq956aT.s 			page 20


 1068              	.LC4:
 1069 0070 53797374 		.ascii	"System integrity functionality\000"
 1069      656D2069 
 1069      6E746567 
 1069      72697479 
 1069      2066756E 
 1070              		.section	.rodata.rt_test_002_001,"a"
 1071              		.align	2
 1072              		.type	rt_test_002_001, %object
 1073              		.size	rt_test_002_001, 16
 1074              	rt_test_002_001:
 1075 0000 70000000 		.word	.LC4
 1076 0004 00000000 		.word	0
 1077 0008 00000000 		.word	0
 1078 000c 00000000 		.word	rt_test_002_001_execute
 1079              		.section	.rodata
 1080 008f 00       		.align	2
 1081              	.LC5:
 1082 0090 74696D65 		.ascii	"timer still armed\000"
 1082      72207374 
 1082      696C6C20 
 1082      61726D65 
 1082      6400
 1083              		.section	.text.rt_test_002_002_execute,"ax",%progbits
 1084              		.align	1
 1085              		.syntax unified
 1086              		.thumb
 1087              		.thumb_func
 1088              		.type	rt_test_002_002_execute, %function
 1089              	rt_test_002_002_execute:
 1090              	.LFB438:
 1091              		.loc 5 158 43
 1092              		.cfi_startproc
 1093              		@ args = 0, pretend = 0, frame = 32
 1094              		@ frame_needed = 1, uses_anonymous_args = 0
 1095 0000 80B5     		push	{r7, lr}
 1096              		.cfi_def_cfa_offset 8
 1097              		.cfi_offset 7, -8
 1098              		.cfi_offset 14, -4
 1099 0002 88B0     		sub	sp, sp, #32
 1100              		.cfi_def_cfa_offset 40
 1101 0004 00AF     		add	r7, sp, #0
 1102              		.cfi_def_cfa_register 7
 1103              		.loc 5 164 3
 1104 0006 284B     		ldr	r3, .L41
 1105 0008 0122     		movs	r2, #1
 1106 000a 1A60     		str	r2, [r3]
 1107              		.loc 5 166 11
 1108 000c FFF7FEFF 		bl	chSysGetStatusAndLockX
 1109 0010 F861     		str	r0, [r7, #28]
 1110              		.loc 5 167 5
 1111 0012 F869     		ldr	r0, [r7, #28]
 1112 0014 FFF7FEFF 		bl	chSysRestoreStatusX
 1113              		.loc 5 173 3
 1114 0018 234B     		ldr	r3, .L41
 1115 001a 0222     		movs	r2, #2
 1116 001c 1A60     		str	r2, [r3]
ARM GAS  C:\Users\DEVELO~1\AppData\Local\Temp\ccq956aT.s 			page 21


 1117              		.loc 5 175 5
 1118 001e FFF7FEFF 		bl	chSysLock
 1119              		.loc 5 176 11
 1120 0022 FFF7FEFF 		bl	chSysGetStatusAndLockX
 1121 0026 F861     		str	r0, [r7, #28]
 1122              		.loc 5 177 5
 1123 0028 F869     		ldr	r0, [r7, #28]
 1124 002a FFF7FEFF 		bl	chSysRestoreStatusX
 1125              		.loc 5 178 5
 1126 002e FFF7FEFF 		bl	chSysUnlock
 1127              		.loc 5 183 3
 1128 0032 1D4B     		ldr	r3, .L41
 1129 0034 0322     		movs	r2, #3
 1130 0036 1A60     		str	r2, [r3]
 1131              		.loc 5 185 5
 1132 0038 FFF7FEFF 		bl	chSysUnconditionalLock
 1133              		.loc 5 186 5
 1134 003c FFF7FEFF 		bl	chSysUnconditionalLock
 1135              		.loc 5 187 5
 1136 0040 FFF7FEFF 		bl	chSysUnlock
 1137              		.loc 5 192 3
 1138 0044 184B     		ldr	r3, .L41
 1139 0046 0422     		movs	r2, #4
 1140 0048 1A60     		str	r2, [r3]
 1141              		.loc 5 194 5
 1142 004a FFF7FEFF 		bl	chSysLock
 1143              		.loc 5 195 5
 1144 004e FFF7FEFF 		bl	chSysUnconditionalUnlock
 1145              		.loc 5 196 5
 1146 0052 FFF7FEFF 		bl	chSysUnconditionalUnlock
 1147              		.loc 5 201 3
 1148 0056 144B     		ldr	r3, .L41
 1149 0058 0522     		movs	r2, #5
 1150 005a 1A60     		str	r2, [r3]
 1151              		.loc 5 203 5
 1152 005c 3B1D     		adds	r3, r7, #4
 1153 005e 1846     		mov	r0, r3
 1154 0060 FFF7FEFF 		bl	chVTObjectInit
 1155              		.loc 5 204 5
 1156 0064 381D     		adds	r0, r7, #4
 1157 0066 0023     		movs	r3, #0
 1158 0068 104A     		ldr	r2, .L41+4
 1159 006a 0121     		movs	r1, #1
 1160 006c FFF7FEFF 		bl	chVTSet
 1161              		.loc 5 205 5
 1162 0070 0A20     		movs	r0, #10
 1163 0072 FFF7FEFF 		bl	chThdSleep
 1164              		.loc 5 207 5
 1165 0076 3B1D     		adds	r3, r7, #4
 1166 0078 1846     		mov	r0, r3
 1167 007a FFF7FEFF 		bl	chVTIsArmed
 1168 007e 0346     		mov	r3, r0
 1169 0080 002B     		cmp	r3, #0
 1170 0082 14BF     		ite	ne
 1171 0084 0123     		movne	r3, #1
 1172 0086 0023     		moveq	r3, #0
 1173 0088 DBB2     		uxtb	r3, r3
ARM GAS  C:\Users\DEVELO~1\AppData\Local\Temp\ccq956aT.s 			page 22


 1174 008a 83F00103 		eor	r3, r3, #1
 1175 008e DBB2     		uxtb	r3, r3
 1176 0090 03F00103 		and	r3, r3, #1
 1177 0094 DBB2     		uxtb	r3, r3
 1178 0096 0649     		ldr	r1, .L41+8
 1179 0098 1846     		mov	r0, r3
 1180 009a FFF7FEFF 		bl	__test_assert
 1181 009e 0346     		mov	r3, r0
 1182 00a0 002B     		cmp	r3, #0
 1183              		.loc 5 210 1
 1184 00a2 2037     		adds	r7, r7, #32
 1185              		.cfi_def_cfa_offset 8
 1186 00a4 BD46     		mov	sp, r7
 1187              		.cfi_def_cfa_register 13
 1188              		@ sp needed
 1189 00a6 80BD     		pop	{r7, pc}
 1190              	.L42:
 1191              		.align	2
 1192              	.L41:
 1193 00a8 00000000 		.word	chtest
 1194 00ac 00000000 		.word	vtcb
 1195 00b0 90000000 		.word	.LC5
 1196              		.cfi_endproc
 1197              	.LFE438:
 1198              		.size	rt_test_002_002_execute, .-rt_test_002_002_execute
 1199              		.section	.rodata
 1200 00a2 0000     		.align	2
 1201              	.LC6:
 1202 00a4 43726974 		.ascii	"Critical zones functionality\000"
 1202      6963616C 
 1202      207A6F6E 
 1202      65732066 
 1202      756E6374 
 1203              		.section	.rodata.rt_test_002_002,"a"
 1204              		.align	2
 1205              		.type	rt_test_002_002, %object
 1206              		.size	rt_test_002_002, 16
 1207              	rt_test_002_002:
 1208 0000 A4000000 		.word	.LC6
 1209 0004 00000000 		.word	0
 1210 0008 00000000 		.word	0
 1211 000c 00000000 		.word	rt_test_002_002_execute
 1212              		.section	.text.rt_test_002_003_execute,"ax",%progbits
 1213              		.align	1
 1214              		.syntax unified
 1215              		.thumb
 1216              		.thumb_func
 1217              		.type	rt_test_002_003_execute, %function
 1218              	rt_test_002_003_execute:
 1219              	.LFB439:
 1220              		.loc 5 231 43
 1221              		.cfi_startproc
 1222              		@ args = 0, pretend = 0, frame = 0
 1223              		@ frame_needed = 1, uses_anonymous_args = 0
 1224 0000 80B5     		push	{r7, lr}
 1225              		.cfi_def_cfa_offset 8
 1226              		.cfi_offset 7, -8
ARM GAS  C:\Users\DEVELO~1\AppData\Local\Temp\ccq956aT.s 			page 23


 1227              		.cfi_offset 14, -4
 1228 0002 00AF     		add	r7, sp, #0
 1229              		.cfi_def_cfa_register 7
 1230              		.loc 5 235 3
 1231 0004 064B     		ldr	r3, .L44
 1232 0006 0122     		movs	r2, #1
 1233 0008 1A60     		str	r2, [r3]
 1234              		.loc 5 237 5
 1235 000a FFF7FEFF 		bl	chSysSuspend
 1236              		.loc 5 238 5
 1237 000e FFF7FEFF 		bl	chSysDisable
 1238              		.loc 5 239 5
 1239 0012 FFF7FEFF 		bl	chSysSuspend
 1240              		.loc 5 240 5
 1241 0016 FFF7FEFF 		bl	chSysEnable
 1242              		.loc 5 243 1
 1243 001a 00BF     		nop
 1244 001c 80BD     		pop	{r7, pc}
 1245              	.L45:
 1246 001e 00BF     		.align	2
 1247              	.L44:
 1248 0020 00000000 		.word	chtest
 1249              		.cfi_endproc
 1250              	.LFE439:
 1251              		.size	rt_test_002_003_execute, .-rt_test_002_003_execute
 1252              		.section	.rodata
 1253 00c1 000000   		.align	2
 1254              	.LC7:
 1255 00c4 496E7465 		.ascii	"Interrupts handling functionality\000"
 1255      72727570 
 1255      74732068 
 1255      616E646C 
 1255      696E6720 
 1256              		.section	.rodata.rt_test_002_003,"a"
 1257              		.align	2
 1258              		.type	rt_test_002_003, %object
 1259              		.size	rt_test_002_003, 16
 1260              	rt_test_002_003:
 1261 0000 C4000000 		.word	.LC7
 1262 0004 00000000 		.word	0
 1263 0008 00000000 		.word	0
 1264 000c 00000000 		.word	rt_test_002_003_execute
 1265              		.global	rt_test_sequence_002_array
 1266              		.section	.rodata.rt_test_sequence_002_array,"a"
 1267              		.align	2
 1268              		.type	rt_test_sequence_002_array, %object
 1269              		.size	rt_test_sequence_002_array, 16
 1270              	rt_test_sequence_002_array:
 1271 0000 00000000 		.word	rt_test_002_001
 1272 0004 00000000 		.word	rt_test_002_002
 1273 0008 00000000 		.word	rt_test_002_003
 1274 000c 00000000 		.word	0
 1275              		.global	rt_test_sequence_002
 1276              		.section	.rodata
 1277 00e6 0000     		.align	2
 1278              	.LC8:
 1279 00e8 53797374 		.ascii	"System layer and port interface\000"
ARM GAS  C:\Users\DEVELO~1\AppData\Local\Temp\ccq956aT.s 			page 24


 1279      656D206C 
 1279      61796572 
 1279      20616E64 
 1279      20706F72 
 1280              		.section	.rodata.rt_test_sequence_002,"a"
 1281              		.align	2
 1282              		.type	rt_test_sequence_002, %object
 1283              		.size	rt_test_sequence_002, 8
 1284              	rt_test_sequence_002:
 1285 0000 E8000000 		.word	.LC8
 1286 0004 00000000 		.word	rt_test_sequence_002_array
 1287              		.text
 1288              	.Letext0:
 1289              		.file 6 "c:\\chibistudio\\tools\\gnu tools arm embedded\\11.3 2022.08\\lib\\gcc\\arm-none-eabi\\11
 1290              		.file 7 "c:\\chibistudio\\tools\\gnu tools arm embedded\\11.3 2022.08\\arm-none-eabi\\include\\mac
 1291              		.file 8 "c:\\chibistudio\\tools\\gnu tools arm embedded\\11.3 2022.08\\arm-none-eabi\\include\\sys
 1292              		.file 9 "../../../os/common/ports/ARM-common/chtypes.h"
 1293              		.file 10 "../../../os/rt/include/chearly.h"
 1294              		.file 11 "../../../os/rt/include/chtime.h"
 1295              		.file 12 "../../../os/rt/include/chlists.h"
 1296              		.file 13 "../../../os/rt/include/chobjects.h"
 1297              		.file 14 "../../../os/hal/include/hal_streams.h"
 1298              		.file 15 "../../../os/test/include/ch_test.h"
 1299              		.file 16 "../../../test/rt/source/test/rt_test_sequence_002.h"
 1300              		.file 17 "../../../os/rt/include/chthreads.h"