ARM GAS  C:\Users\DEVELO~1\AppData\Local\Temp\ccyh9n5w.s 			page 1


   1              		.cpu cortex-m7
   2              		.arch armv7e-m
   3              		.fpu softvfp
   4              		.eabi_attribute 20, 1
   5              		.eabi_attribute 21, 1
   6              		.eabi_attribute 23, 3
   7              		.eabi_attribute 24, 1
   8              		.eabi_attribute 25, 1
   9              		.eabi_attribute 26, 1
  10              		.eabi_attribute 30, 6
  11              		.eabi_attribute 34, 1
  12              		.eabi_attribute 18, 4
  13              		.file	"rt_test_sequence_011.c"
  14              		.text
  15              	.Ltext0:
  16              		.cfi_sections	.debug_frame
  17              		.section	.text.chThdGetSelfX,"ax",%progbits
  18              		.align	1
  19              		.syntax unified
  20              		.thumb
  21              		.thumb_func
  22              		.type	chThdGetSelfX, %function
  23              	chThdGetSelfX:
  24              	.LFB229:
  25              		.file 1 "../../../os/rt/include/chthreads.h"
  26              		.loc 1 341 45
  27              		.cfi_startproc
  28              		@ args = 0, pretend = 0, frame = 0
  29              		@ frame_needed = 1, uses_anonymous_args = 0
  30              		@ link register save eliminated.
  31 0000 80B4     		push	{r7}
  32              		.cfi_def_cfa_offset 4
  33              		.cfi_offset 7, -4
  34 0002 00AF     		add	r7, sp, #0
  35              		.cfi_def_cfa_register 7
  36              		.loc 1 343 10
  37 0004 024B     		ldr	r3, .L3
  38 0006 DB68     		ldr	r3, [r3, #12]
  39              		.loc 1 344 1
  40 0008 1846     		mov	r0, r3
  41 000a BD46     		mov	sp, r7
  42              		.cfi_def_cfa_register 13
  43              		@ sp needed
  44 000c 80BC     		pop	{r7}
  45              		.cfi_restore 7
  46              		.cfi_def_cfa_offset 0
  47 000e 7047     		bx	lr
  48              	.L4:
  49              		.align	2
  50              	.L3:
  51 0010 00000000 		.word	ch0
  52              		.cfi_endproc
  53              	.LFE229:
  54              		.size	chThdGetSelfX, .-chThdGetSelfX
  55              		.section	.text.chThdGetPriorityX,"ax",%progbits
  56              		.align	1
  57              		.syntax unified
ARM GAS  C:\Users\DEVELO~1\AppData\Local\Temp\ccyh9n5w.s 			page 2


  58              		.thumb
  59              		.thumb_func
  60              		.type	chThdGetPriorityX, %function
  61              	chThdGetPriorityX:
  62              	.LFB230:
  63              		.loc 1 354 47
  64              		.cfi_startproc
  65              		@ args = 0, pretend = 0, frame = 0
  66              		@ frame_needed = 1, uses_anonymous_args = 0
  67 0000 80B5     		push	{r7, lr}
  68              		.cfi_def_cfa_offset 8
  69              		.cfi_offset 7, -8
  70              		.cfi_offset 14, -4
  71 0002 00AF     		add	r7, sp, #0
  72              		.cfi_def_cfa_register 7
  73              		.loc 1 356 10
  74 0004 FFF7FEFF 		bl	chThdGetSelfX
  75 0008 0346     		mov	r3, r0
  76              		.loc 1 356 37
  77 000a 9B68     		ldr	r3, [r3, #8]
  78              		.loc 1 357 1
  79 000c 1846     		mov	r0, r3
  80 000e 80BD     		pop	{r7, pc}
  81              		.cfi_endproc
  82              	.LFE230:
  83              		.size	chThdGetPriorityX, .-chThdGetPriorityX
  84              		.section	.text.chPoolObjectInit,"ax",%progbits
  85              		.align	1
  86              		.syntax unified
  87              		.thumb
  88              		.thumb_func
  89              		.type	chPoolObjectInit, %function
  90              	chPoolObjectInit:
  91              	.LFB286:
  92              		.file 2 "../../../os/oslib/include/chmempools.h"
  93              		.loc 2 191 60
  94              		.cfi_startproc
  95              		@ args = 0, pretend = 0, frame = 16
  96              		@ frame_needed = 1, uses_anonymous_args = 0
  97 0000 80B5     		push	{r7, lr}
  98              		.cfi_def_cfa_offset 8
  99              		.cfi_offset 7, -8
 100              		.cfi_offset 14, -4
 101 0002 84B0     		sub	sp, sp, #16
 102              		.cfi_def_cfa_offset 24
 103 0004 00AF     		add	r7, sp, #0
 104              		.cfi_def_cfa_register 7
 105 0006 F860     		str	r0, [r7, #12]
 106 0008 B960     		str	r1, [r7, #8]
 107 000a 7A60     		str	r2, [r7, #4]
 108              		.loc 2 193 3
 109 000c 7B68     		ldr	r3, [r7, #4]
 110 000e 0422     		movs	r2, #4
 111 0010 B968     		ldr	r1, [r7, #8]
 112 0012 F868     		ldr	r0, [r7, #12]
 113 0014 FFF7FEFF 		bl	chPoolObjectInitAligned
 114              		.loc 2 194 1
ARM GAS  C:\Users\DEVELO~1\AppData\Local\Temp\ccyh9n5w.s 			page 3


 115 0018 00BF     		nop
 116 001a 1037     		adds	r7, r7, #16
 117              		.cfi_def_cfa_offset 8
 118 001c BD46     		mov	sp, r7
 119              		.cfi_def_cfa_register 13
 120              		@ sp needed
 121 001e 80BD     		pop	{r7, pc}
 122              		.cfi_endproc
 123              	.LFE286:
 124              		.size	chPoolObjectInit, .-chPoolObjectInit
 125              		.section	.bss.heap1,"aw",%nobits
 126              		.align	2
 127              		.type	heap1, %object
 128              		.size	heap1, 28
 129              	heap1:
 130 0000 00000000 		.space	28
 130      00000000 
 130      00000000 
 130      00000000 
 130      00000000 
 131              		.section	.bss.mp1,"aw",%nobits
 132              		.align	2
 133              		.type	mp1, %object
 134              		.size	mp1, 16
 135              	mp1:
 136 0000 00000000 		.space	16
 136      00000000 
 136      00000000 
 136      00000000 
 137              		.section	.text.dyn_thread1,"ax",%progbits
 138              		.align	1
 139              		.syntax unified
 140              		.thumb
 141              		.thumb_func
 142              		.type	dyn_thread1, %function
 143              	dyn_thread1:
 144              	.LFB436:
 145              		.file 3 "../../../test/rt/source/test/rt_test_sequence_011.c"
 146              		.loc 3 57 37
 147              		.cfi_startproc
 148              		@ args = 0, pretend = 0, frame = 8
 149              		@ frame_needed = 1, uses_anonymous_args = 0
 150 0000 80B5     		push	{r7, lr}
 151              		.cfi_def_cfa_offset 8
 152              		.cfi_offset 7, -8
 153              		.cfi_offset 14, -4
 154 0002 82B0     		sub	sp, sp, #8
 155              		.cfi_def_cfa_offset 16
 156 0004 00AF     		add	r7, sp, #0
 157              		.cfi_def_cfa_register 7
 158 0006 7860     		str	r0, [r7, #4]
 159              		.loc 3 59 3
 160 0008 7B68     		ldr	r3, [r7, #4]
 161 000a 1B78     		ldrb	r3, [r3]	@ zero_extendqisi2
 162 000c 1846     		mov	r0, r3
 163 000e FFF7FEFF 		bl	test_emit_token
 164              		.loc 3 60 1
ARM GAS  C:\Users\DEVELO~1\AppData\Local\Temp\ccyh9n5w.s 			page 4


 165 0012 00BF     		nop
 166 0014 0837     		adds	r7, r7, #8
 167              		.cfi_def_cfa_offset 8
 168 0016 BD46     		mov	sp, r7
 169              		.cfi_def_cfa_register 13
 170              		@ sp needed
 171 0018 80BD     		pop	{r7, pc}
 172              		.cfi_endproc
 173              	.LFE436:
 174              		.size	dyn_thread1, .-dyn_thread1
 175              		.section	.text.rt_test_011_001_setup,"ax",%progbits
 176              		.align	1
 177              		.syntax unified
 178              		.thumb
 179              		.thumb_func
 180              		.type	rt_test_011_001_setup, %function
 181              	rt_test_011_001_setup:
 182              	.LFB437:
 183              		.loc 3 94 41
 184              		.cfi_startproc
 185              		@ args = 0, pretend = 0, frame = 0
 186              		@ frame_needed = 1, uses_anonymous_args = 0
 187 0000 80B5     		push	{r7, lr}
 188              		.cfi_def_cfa_offset 8
 189              		.cfi_offset 7, -8
 190              		.cfi_offset 14, -4
 191 0002 00AF     		add	r7, sp, #0
 192              		.cfi_def_cfa_register 7
 193              		.loc 3 95 3
 194 0004 4FF40762 		mov	r2, #2160
 195 0008 0249     		ldr	r1, .L10
 196 000a 0348     		ldr	r0, .L10+4
 197 000c FFF7FEFF 		bl	chHeapObjectInit
 198              		.loc 3 96 1
 199 0010 00BF     		nop
 200 0012 80BD     		pop	{r7, pc}
 201              	.L11:
 202              		.align	2
 203              	.L10:
 204 0014 00000000 		.word	test_buffer
 205 0018 00000000 		.word	heap1
 206              		.cfi_endproc
 207              	.LFE437:
 208              		.size	rt_test_011_001_setup, .-rt_test_011_001_setup
 209              		.section	.rodata
 210              		.align	2
 211              	.LC0:
 212 0000 68656170 		.ascii	"heap fragmented\000"
 212      20667261 
 212      676D656E 
 212      74656400 
 213              		.align	2
 214              	.LC1:
 215 0010 64796E31 		.ascii	"dyn1\000"
 215      00
 216 0015 000000   		.align	2
 217              	.LC2:
ARM GAS  C:\Users\DEVELO~1\AppData\Local\Temp\ccyh9n5w.s 			page 5


 218 0018 4100     		.ascii	"A\000"
 219 001a 0000     		.align	2
 220              	.LC3:
 221 001c 74687265 		.ascii	"thread creation failed\000"
 221      61642063 
 221      72656174 
 221      696F6E20 
 221      6661696C 
 222 0033 00       		.align	2
 223              	.LC4:
 224 0034 64796E32 		.ascii	"dyn2\000"
 224      00
 225 0039 000000   		.align	2
 226              	.LC5:
 227 003c 4200     		.ascii	"B\000"
 228 003e 0000     		.align	2
 229              	.LC6:
 230 0040 64796E33 		.ascii	"dyn3\000"
 230      00
 231 0045 000000   		.align	2
 232              	.LC7:
 233 0048 4300     		.ascii	"C\000"
 234 004a 0000     		.align	2
 235              	.LC8:
 236 004c 74687265 		.ascii	"thread creation not failed\000"
 236      61642063 
 236      72656174 
 236      696F6E20 
 236      6E6F7420 
 237 0067 00       		.align	2
 238              	.LC9:
 239 0068 696E7661 		.ascii	"invalid sequence\000"
 239      6C696420 
 239      73657175 
 239      656E6365 
 239      00
 240 0079 000000   		.align	2
 241              	.LC10:
 242 007c 414200   		.ascii	"AB\000"
 243 007f 00       		.align	2
 244              	.LC11:
 245 0080 66726167 		.ascii	"fragmentation changed\000"
 245      6D656E74 
 245      6174696F 
 245      6E206368 
 245      616E6765 
 246 0096 0000     		.align	2
 247              	.LC12:
 248 0098 746F7461 		.ascii	"total free space changed\000"
 248      6C206672 
 248      65652073 
 248      70616365 
 248      20636861 
 249 00b1 000000   		.align	2
 250              	.LC13:
 251 00b4 6C617267 		.ascii	"largest fragment size changed\000"
 251      65737420 
ARM GAS  C:\Users\DEVELO~1\AppData\Local\Temp\ccyh9n5w.s 			page 6


 251      66726167 
 251      6D656E74 
 251      2073697A 
 252              		.section	.text.rt_test_011_001_execute,"ax",%progbits
 253              		.align	1
 254              		.syntax unified
 255              		.thumb
 256              		.thumb_func
 257              		.type	rt_test_011_001_execute, %function
 258              	rt_test_011_001_execute:
 259              	.LFB438:
 260              		.loc 3 98 43
 261              		.cfi_startproc
 262              		@ args = 0, pretend = 0, frame = 32
 263              		@ frame_needed = 1, uses_anonymous_args = 0
 264 0000 80B5     		push	{r7, lr}
 265              		.cfi_def_cfa_offset 8
 266              		.cfi_offset 7, -8
 267              		.cfi_offset 14, -4
 268 0002 8AB0     		sub	sp, sp, #40
 269              		.cfi_def_cfa_offset 48
 270 0004 02AF     		add	r7, sp, #8
 271              		.cfi_def_cfa 7, 40
 272              		.loc 3 104 3
 273 0006 614B     		ldr	r3, .L23
 274 0008 0122     		movs	r2, #1
 275 000a 1A60     		str	r2, [r3]
 276              		.loc 3 106 12
 277 000c FFF7FEFF 		bl	chThdGetPriorityX
 278 0010 F861     		str	r0, [r7, #28]
 279              		.loc 3 111 3
 280 0012 5E4B     		ldr	r3, .L23
 281 0014 0222     		movs	r2, #2
 282 0016 1A60     		str	r2, [r3]
 283              		.loc 3 113 10
 284 0018 07F10C02 		add	r2, r7, #12
 285 001c 07F11003 		add	r3, r7, #16
 286 0020 1946     		mov	r1, r3
 287 0022 5B48     		ldr	r0, .L23+4
 288 0024 FFF7FEFF 		bl	chHeapStatus
 289 0028 B861     		str	r0, [r7, #24]
 290              		.loc 3 114 5
 291 002a BB69     		ldr	r3, [r7, #24]
 292 002c 012B     		cmp	r3, #1
 293 002e 0CBF     		ite	eq
 294 0030 0123     		moveq	r3, #1
 295 0032 0023     		movne	r3, #0
 296 0034 DBB2     		uxtb	r3, r3
 297 0036 5749     		ldr	r1, .L23+8
 298 0038 1846     		mov	r0, r3
 299 003a FFF7FEFF 		bl	__test_assert
 300 003e 0346     		mov	r3, r0
 301 0040 002B     		cmp	r3, #0
 302 0042 40F0A080 		bne	.L12
 303              		.loc 3 119 3
 304 0046 514B     		ldr	r3, .L23
 305 0048 0322     		movs	r2, #3
ARM GAS  C:\Users\DEVELO~1\AppData\Local\Temp\ccyh9n5w.s 			page 7


 306 004a 1A60     		str	r2, [r3]
 307              		.loc 3 121 18
 308 004c FB69     		ldr	r3, [r7, #28]
 309 004e 013B     		subs	r3, r3, #1
 310 0050 514A     		ldr	r2, .L23+12
 311 0052 0192     		str	r2, [sp, #4]
 312 0054 514A     		ldr	r2, .L23+16
 313 0056 0092     		str	r2, [sp]
 314 0058 514A     		ldr	r2, .L23+20
 315 005a 4FF4D871 		mov	r1, #432
 316 005e 4C48     		ldr	r0, .L23+4
 317 0060 FFF7FEFF 		bl	chThdCreateFromHeap
 318 0064 0346     		mov	r3, r0
 319              		.loc 3 121 16
 320 0066 4F4A     		ldr	r2, .L23+24
 321 0068 1360     		str	r3, [r2]
 322              		.loc 3 125 5
 323 006a 4E4B     		ldr	r3, .L23+24
 324 006c 1B68     		ldr	r3, [r3]
 325 006e 002B     		cmp	r3, #0
 326 0070 14BF     		ite	ne
 327 0072 0123     		movne	r3, #1
 328 0074 0023     		moveq	r3, #0
 329 0076 DBB2     		uxtb	r3, r3
 330 0078 4B49     		ldr	r1, .L23+28
 331 007a 1846     		mov	r0, r3
 332 007c FFF7FEFF 		bl	__test_assert
 333 0080 0346     		mov	r3, r0
 334 0082 002B     		cmp	r3, #0
 335 0084 7FD1     		bne	.L12
 336              		.loc 3 130 3
 337 0086 414B     		ldr	r3, .L23
 338 0088 0422     		movs	r2, #4
 339 008a 1A60     		str	r2, [r3]
 340              		.loc 3 132 18
 341 008c FB69     		ldr	r3, [r7, #28]
 342 008e 023B     		subs	r3, r3, #2
 343 0090 464A     		ldr	r2, .L23+32
 344 0092 0192     		str	r2, [sp, #4]
 345 0094 414A     		ldr	r2, .L23+16
 346 0096 0092     		str	r2, [sp]
 347 0098 454A     		ldr	r2, .L23+36
 348 009a 4FF4D871 		mov	r1, #432
 349 009e 3C48     		ldr	r0, .L23+4
 350 00a0 FFF7FEFF 		bl	chThdCreateFromHeap
 351 00a4 0346     		mov	r3, r0
 352              		.loc 3 132 16
 353 00a6 3F4A     		ldr	r2, .L23+24
 354 00a8 5360     		str	r3, [r2, #4]
 355              		.loc 3 136 5
 356 00aa 3E4B     		ldr	r3, .L23+24
 357 00ac 5B68     		ldr	r3, [r3, #4]
 358 00ae 002B     		cmp	r3, #0
 359 00b0 14BF     		ite	ne
 360 00b2 0123     		movne	r3, #1
 361 00b4 0023     		moveq	r3, #0
 362 00b6 DBB2     		uxtb	r3, r3
ARM GAS  C:\Users\DEVELO~1\AppData\Local\Temp\ccyh9n5w.s 			page 8


 363 00b8 3B49     		ldr	r1, .L23+28
 364 00ba 1846     		mov	r0, r3
 365 00bc FFF7FEFF 		bl	__test_assert
 366 00c0 0346     		mov	r3, r0
 367 00c2 002B     		cmp	r3, #0
 368 00c4 5FD1     		bne	.L12
 369              		.loc 3 141 3
 370 00c6 314B     		ldr	r3, .L23
 371 00c8 0522     		movs	r2, #5
 372 00ca 1A60     		str	r2, [r3]
 373              		.loc 3 143 18
 374 00cc FB69     		ldr	r3, [r7, #28]
 375 00ce 033B     		subs	r3, r3, #3
 376 00d0 384A     		ldr	r2, .L23+40
 377 00d2 0192     		str	r2, [sp, #4]
 378 00d4 314A     		ldr	r2, .L23+16
 379 00d6 0092     		str	r2, [sp]
 380 00d8 374A     		ldr	r2, .L23+44
 381 00da 4FF00041 		mov	r1, #-2147483648
 382 00de 2C48     		ldr	r0, .L23+4
 383 00e0 FFF7FEFF 		bl	chThdCreateFromHeap
 384 00e4 0346     		mov	r3, r0
 385              		.loc 3 143 16
 386 00e6 2F4A     		ldr	r2, .L23+24
 387 00e8 9360     		str	r3, [r2, #8]
 388              		.loc 3 147 5
 389 00ea 2E4B     		ldr	r3, .L23+24
 390 00ec 9B68     		ldr	r3, [r3, #8]
 391 00ee 002B     		cmp	r3, #0
 392 00f0 0CBF     		ite	eq
 393 00f2 0123     		moveq	r3, #1
 394 00f4 0023     		movne	r3, #0
 395 00f6 DBB2     		uxtb	r3, r3
 396 00f8 3049     		ldr	r1, .L23+48
 397 00fa 1846     		mov	r0, r3
 398 00fc FFF7FEFF 		bl	__test_assert
 399 0100 0346     		mov	r3, r0
 400 0102 002B     		cmp	r3, #0
 401 0104 3FD1     		bne	.L12
 402              		.loc 3 153 3
 403 0106 214B     		ldr	r3, .L23
 404 0108 0622     		movs	r2, #6
 405 010a 1A60     		str	r2, [r3]
 406              		.loc 3 155 5
 407 010c FFF7FEFF 		bl	test_wait_threads
 408              		.loc 3 156 5
 409 0110 2B49     		ldr	r1, .L23+52
 410 0112 2C48     		ldr	r0, .L23+56
 411 0114 FFF7FEFF 		bl	__test_assert_sequence
 412 0118 0346     		mov	r3, r0
 413 011a 002B     		cmp	r3, #0
 414 011c 33D1     		bne	.L12
 415              		.loc 3 161 3
 416 011e 1B4B     		ldr	r3, .L23
 417 0120 0722     		movs	r2, #7
 418 0122 1A60     		str	r2, [r3]
 419              		.loc 3 163 10
ARM GAS  C:\Users\DEVELO~1\AppData\Local\Temp\ccyh9n5w.s 			page 9


 420 0124 3A1D     		adds	r2, r7, #4
 421 0126 07F10803 		add	r3, r7, #8
 422 012a 1946     		mov	r1, r3
 423 012c 1848     		ldr	r0, .L23+4
 424 012e FFF7FEFF 		bl	chHeapStatus
 425 0132 7861     		str	r0, [r7, #20]
 426              		.loc 3 164 5
 427 0134 BA69     		ldr	r2, [r7, #24]
 428 0136 7B69     		ldr	r3, [r7, #20]
 429 0138 9A42     		cmp	r2, r3
 430 013a 0CBF     		ite	eq
 431 013c 0123     		moveq	r3, #1
 432 013e 0023     		movne	r3, #0
 433 0140 DBB2     		uxtb	r3, r3
 434 0142 2149     		ldr	r1, .L23+60
 435 0144 1846     		mov	r0, r3
 436 0146 FFF7FEFF 		bl	__test_assert
 437 014a 0346     		mov	r3, r0
 438 014c 002B     		cmp	r3, #0
 439 014e 1AD1     		bne	.L12
 440              		.loc 3 165 5
 441 0150 3A69     		ldr	r2, [r7, #16]
 442 0152 BB68     		ldr	r3, [r7, #8]
 443 0154 9A42     		cmp	r2, r3
 444 0156 0CBF     		ite	eq
 445 0158 0123     		moveq	r3, #1
 446 015a 0023     		movne	r3, #0
 447 015c DBB2     		uxtb	r3, r3
 448 015e 1B49     		ldr	r1, .L23+64
 449 0160 1846     		mov	r0, r3
 450 0162 FFF7FEFF 		bl	__test_assert
 451 0166 0346     		mov	r3, r0
 452 0168 002B     		cmp	r3, #0
 453 016a 0CD1     		bne	.L12
 454              		.loc 3 166 5
 455 016c FA68     		ldr	r2, [r7, #12]
 456 016e 7B68     		ldr	r3, [r7, #4]
 457 0170 9A42     		cmp	r2, r3
 458 0172 0CBF     		ite	eq
 459 0174 0123     		moveq	r3, #1
 460 0176 0023     		movne	r3, #0
 461 0178 DBB2     		uxtb	r3, r3
 462 017a 1549     		ldr	r1, .L23+68
 463 017c 1846     		mov	r0, r3
 464 017e FFF7FEFF 		bl	__test_assert
 465 0182 0346     		mov	r3, r0
 466 0184 002B     		cmp	r3, #0
 467              	.L12:
 468              		.loc 3 169 1
 469 0186 2037     		adds	r7, r7, #32
 470              		.cfi_def_cfa_offset 8
 471 0188 BD46     		mov	sp, r7
 472              		.cfi_def_cfa_register 13
 473              		@ sp needed
 474 018a 80BD     		pop	{r7, pc}
 475              	.L24:
 476              		.align	2
ARM GAS  C:\Users\DEVELO~1\AppData\Local\Temp\ccyh9n5w.s 			page 10


 477              	.L23:
 478 018c 00000000 		.word	chtest
 479 0190 00000000 		.word	heap1
 480 0194 00000000 		.word	.LC0
 481 0198 18000000 		.word	.LC2
 482 019c 00000000 		.word	dyn_thread1
 483 01a0 10000000 		.word	.LC1
 484 01a4 00000000 		.word	threads
 485 01a8 1C000000 		.word	.LC3
 486 01ac 3C000000 		.word	.LC5
 487 01b0 34000000 		.word	.LC4
 488 01b4 48000000 		.word	.LC7
 489 01b8 40000000 		.word	.LC6
 490 01bc 4C000000 		.word	.LC8
 491 01c0 68000000 		.word	.LC9
 492 01c4 7C000000 		.word	.LC10
 493 01c8 80000000 		.word	.LC11
 494 01cc 98000000 		.word	.LC12
 495 01d0 B4000000 		.word	.LC13
 496              		.cfi_endproc
 497              	.LFE438:
 498              		.size	rt_test_011_001_execute, .-rt_test_011_001_execute
 499              		.section	.rodata
 500 00d2 0000     		.align	2
 501              	.LC14:
 502 00d4 54687265 		.ascii	"Threads creation from Memory Heap\000"
 502      61647320 
 502      63726561 
 502      74696F6E 
 502      2066726F 
 503              		.section	.rodata.rt_test_011_001,"a"
 504              		.align	2
 505              		.type	rt_test_011_001, %object
 506              		.size	rt_test_011_001, 16
 507              	rt_test_011_001:
 508 0000 D4000000 		.word	.LC14
 509 0004 00000000 		.word	rt_test_011_001_setup
 510 0008 00000000 		.word	0
 511 000c 00000000 		.word	rt_test_011_001_execute
 512              		.section	.text.rt_test_011_002_setup,"ax",%progbits
 513              		.align	1
 514              		.syntax unified
 515              		.thumb
 516              		.thumb_func
 517              		.type	rt_test_011_002_setup, %function
 518              	rt_test_011_002_setup:
 519              	.LFB439:
 520              		.loc 3 205 41
 521              		.cfi_startproc
 522              		@ args = 0, pretend = 0, frame = 0
 523              		@ frame_needed = 1, uses_anonymous_args = 0
 524 0000 80B5     		push	{r7, lr}
 525              		.cfi_def_cfa_offset 8
 526              		.cfi_offset 7, -8
 527              		.cfi_offset 14, -4
 528 0002 00AF     		add	r7, sp, #0
 529              		.cfi_def_cfa_register 7
ARM GAS  C:\Users\DEVELO~1\AppData\Local\Temp\ccyh9n5w.s 			page 11


 530              		.loc 3 206 3
 531 0004 0022     		movs	r2, #0
 532 0006 4FF4D871 		mov	r1, #432
 533 000a 0248     		ldr	r0, .L26
 534 000c FFF7FEFF 		bl	chPoolObjectInit
 535              		.loc 3 207 1
 536 0010 00BF     		nop
 537 0012 80BD     		pop	{r7, pc}
 538              	.L27:
 539              		.align	2
 540              	.L26:
 541 0014 00000000 		.word	mp1
 542              		.cfi_endproc
 543              	.LFE439:
 544              		.size	rt_test_011_002_setup, .-rt_test_011_002_setup
 545              		.section	.rodata
 546 00f6 0000     		.align	2
 547              	.LC15:
 548 00f8 64796E34 		.ascii	"dyn4\000"
 548      00
 549 00fd 000000   		.align	2
 550              	.LC16:
 551 0100 4400     		.ascii	"D\000"
 552 0102 0000     		.align	2
 553              	.LC17:
 554 0104 64796E35 		.ascii	"dyn5\000"
 554      00
 555 0109 000000   		.align	2
 556              	.LC18:
 557 010c 4500     		.ascii	"E\000"
 558 010e 0000     		.align	2
 559              	.LC19:
 560 0110 41424344 		.ascii	"ABCD\000"
 560      00
 561 0115 000000   		.align	2
 562              	.LC20:
 563 0118 706F6F6C 		.ascii	"pool list empty\000"
 563      206C6973 
 563      7420656D 
 563      70747900 
 564              		.align	2
 565              	.LC21:
 566 0128 706F6F6C 		.ascii	"pool list not empty\000"
 566      206C6973 
 566      74206E6F 
 566      7420656D 
 566      70747900 
 567              		.section	.text.rt_test_011_002_execute,"ax",%progbits
 568              		.align	1
 569              		.syntax unified
 570              		.thumb
 571              		.thumb_func
 572              		.type	rt_test_011_002_execute, %function
 573              	rt_test_011_002_execute:
 574              	.LFB440:
 575              		.loc 3 209 43
 576              		.cfi_startproc
ARM GAS  C:\Users\DEVELO~1\AppData\Local\Temp\ccyh9n5w.s 			page 12


 577              		@ args = 0, pretend = 0, frame = 8
 578              		@ frame_needed = 1, uses_anonymous_args = 0
 579 0000 80B5     		push	{r7, lr}
 580              		.cfi_def_cfa_offset 8
 581              		.cfi_offset 7, -8
 582              		.cfi_offset 14, -4
 583 0002 84B0     		sub	sp, sp, #16
 584              		.cfi_def_cfa_offset 24
 585 0004 02AF     		add	r7, sp, #8
 586              		.cfi_def_cfa 7, 16
 587              		.loc 3 214 3
 588 0006 604B     		ldr	r3, .L40
 589 0008 0122     		movs	r2, #1
 590 000a 1A60     		str	r2, [r3]
 591              		.loc 3 216 12
 592 000c 0023     		movs	r3, #0
 593 000e 7B60     		str	r3, [r7, #4]
 594              		.loc 3 216 5
 595 0010 0AE0     		b	.L29
 596              	.L30:
 597              		.loc 3 217 26 discriminator 3
 598 0012 5E4A     		ldr	r2, .L40+4
 599 0014 7B68     		ldr	r3, [r7, #4]
 600 0016 52F82330 		ldr	r3, [r2, r3, lsl #2]
 601              		.loc 3 217 7 discriminator 3
 602 001a 1946     		mov	r1, r3
 603 001c 5C48     		ldr	r0, .L40+8
 604 001e FFF7FEFF 		bl	chPoolFree
 605              		.loc 3 216 25 discriminator 3
 606 0022 7B68     		ldr	r3, [r7, #4]
 607 0024 0133     		adds	r3, r3, #1
 608 0026 7B60     		str	r3, [r7, #4]
 609              	.L29:
 610              		.loc 3 216 19 discriminator 1
 611 0028 7B68     		ldr	r3, [r7, #4]
 612 002a 032B     		cmp	r3, #3
 613 002c F1D9     		bls	.L30
 614              		.loc 3 222 3
 615 002e 564B     		ldr	r3, .L40
 616 0030 0222     		movs	r2, #2
 617 0032 1A60     		str	r2, [r3]
 618              		.loc 3 224 12
 619 0034 FFF7FEFF 		bl	chThdGetPriorityX
 620 0038 3860     		str	r0, [r7]
 621              		.loc 3 229 3
 622 003a 534B     		ldr	r3, .L40
 623 003c 0322     		movs	r2, #3
 624 003e 1A60     		str	r2, [r3]
 625              		.loc 3 231 18
 626 0040 3B68     		ldr	r3, [r7]
 627 0042 5A1E     		subs	r2, r3, #1
 628 0044 534B     		ldr	r3, .L40+12
 629 0046 0093     		str	r3, [sp]
 630 0048 534B     		ldr	r3, .L40+16
 631 004a 5449     		ldr	r1, .L40+20
 632 004c 5048     		ldr	r0, .L40+8
 633 004e FFF7FEFF 		bl	chThdCreateFromMemoryPool
ARM GAS  C:\Users\DEVELO~1\AppData\Local\Temp\ccyh9n5w.s 			page 13


 634 0052 0346     		mov	r3, r0
 635              		.loc 3 231 16
 636 0054 524A     		ldr	r2, .L40+24
 637 0056 1360     		str	r3, [r2]
 638              		.loc 3 232 18
 639 0058 3B68     		ldr	r3, [r7]
 640 005a 9A1E     		subs	r2, r3, #2
 641 005c 514B     		ldr	r3, .L40+28
 642 005e 0093     		str	r3, [sp]
 643 0060 4D4B     		ldr	r3, .L40+16
 644 0062 5149     		ldr	r1, .L40+32
 645 0064 4A48     		ldr	r0, .L40+8
 646 0066 FFF7FEFF 		bl	chThdCreateFromMemoryPool
 647 006a 0346     		mov	r3, r0
 648              		.loc 3 232 16
 649 006c 4C4A     		ldr	r2, .L40+24
 650 006e 5360     		str	r3, [r2, #4]
 651              		.loc 3 233 18
 652 0070 3B68     		ldr	r3, [r7]
 653 0072 DA1E     		subs	r2, r3, #3
 654 0074 4D4B     		ldr	r3, .L40+36
 655 0076 0093     		str	r3, [sp]
 656 0078 474B     		ldr	r3, .L40+16
 657 007a 4D49     		ldr	r1, .L40+40
 658 007c 4448     		ldr	r0, .L40+8
 659 007e FFF7FEFF 		bl	chThdCreateFromMemoryPool
 660 0082 0346     		mov	r3, r0
 661              		.loc 3 233 16
 662 0084 464A     		ldr	r2, .L40+24
 663 0086 9360     		str	r3, [r2, #8]
 664              		.loc 3 234 18
 665 0088 3B68     		ldr	r3, [r7]
 666 008a 1A1F     		subs	r2, r3, #4
 667 008c 494B     		ldr	r3, .L40+44
 668 008e 0093     		str	r3, [sp]
 669 0090 414B     		ldr	r3, .L40+16
 670 0092 4949     		ldr	r1, .L40+48
 671 0094 3E48     		ldr	r0, .L40+8
 672 0096 FFF7FEFF 		bl	chThdCreateFromMemoryPool
 673 009a 0346     		mov	r3, r0
 674              		.loc 3 234 16
 675 009c 404A     		ldr	r2, .L40+24
 676 009e D360     		str	r3, [r2, #12]
 677              		.loc 3 235 18
 678 00a0 3B68     		ldr	r3, [r7]
 679 00a2 5A1F     		subs	r2, r3, #5
 680 00a4 454B     		ldr	r3, .L40+52
 681 00a6 0093     		str	r3, [sp]
 682 00a8 3B4B     		ldr	r3, .L40+16
 683 00aa 4549     		ldr	r1, .L40+56
 684 00ac 3848     		ldr	r0, .L40+8
 685 00ae FFF7FEFF 		bl	chThdCreateFromMemoryPool
 686 00b2 0346     		mov	r3, r0
 687              		.loc 3 235 16
 688 00b4 3A4A     		ldr	r2, .L40+24
 689 00b6 1361     		str	r3, [r2, #16]
 690              		.loc 3 240 3
ARM GAS  C:\Users\DEVELO~1\AppData\Local\Temp\ccyh9n5w.s 			page 14


 691 00b8 334B     		ldr	r3, .L40
 692 00ba 0422     		movs	r2, #4
 693 00bc 1A60     		str	r2, [r3]
 694              		.loc 3 242 5
 695 00be 384B     		ldr	r3, .L40+24
 696 00c0 1B68     		ldr	r3, [r3]
 697 00c2 002B     		cmp	r3, #0
 698 00c4 0DD0     		beq	.L31
 699              		.loc 3 242 5 is_stmt 0 discriminator 1
 700 00c6 364B     		ldr	r3, .L40+24
 701 00c8 5B68     		ldr	r3, [r3, #4]
 702 00ca 002B     		cmp	r3, #0
 703 00cc 09D0     		beq	.L31
 704              		.loc 3 242 5 discriminator 3
 705 00ce 344B     		ldr	r3, .L40+24
 706 00d0 9B68     		ldr	r3, [r3, #8]
 707 00d2 002B     		cmp	r3, #0
 708 00d4 05D0     		beq	.L31
 709              		.loc 3 242 5 discriminator 5
 710 00d6 324B     		ldr	r3, .L40+24
 711 00d8 DB68     		ldr	r3, [r3, #12]
 712 00da 002B     		cmp	r3, #0
 713 00dc 01D0     		beq	.L31
 714              		.loc 3 242 5 discriminator 7
 715 00de 0123     		movs	r3, #1
 716 00e0 00E0     		b	.L32
 717              	.L31:
 718              		.loc 3 242 5 discriminator 8
 719 00e2 0023     		movs	r3, #0
 720              	.L32:
 721              		.loc 3 242 5 discriminator 10
 722 00e4 03F00103 		and	r3, r3, #1
 723 00e8 DBB2     		uxtb	r3, r3
 724 00ea 3649     		ldr	r1, .L40+60
 725 00ec 1846     		mov	r0, r3
 726 00ee FFF7FEFF 		bl	__test_assert
 727 00f2 0346     		mov	r3, r0
 728 00f4 002B     		cmp	r3, #0
 729 00f6 44D1     		bne	.L28
 730              		.loc 3 247 5 is_stmt 1
 731 00f8 294B     		ldr	r3, .L40+24
 732 00fa 1B69     		ldr	r3, [r3, #16]
 733 00fc 002B     		cmp	r3, #0
 734 00fe 0CBF     		ite	eq
 735 0100 0123     		moveq	r3, #1
 736 0102 0023     		movne	r3, #0
 737 0104 DBB2     		uxtb	r3, r3
 738 0106 3049     		ldr	r1, .L40+64
 739 0108 1846     		mov	r0, r3
 740 010a FFF7FEFF 		bl	__test_assert
 741 010e 0346     		mov	r3, r0
 742 0110 002B     		cmp	r3, #0
 743 0112 36D1     		bne	.L28
 744              		.loc 3 254 3
 745 0114 1C4B     		ldr	r3, .L40
 746 0116 0522     		movs	r2, #5
 747 0118 1A60     		str	r2, [r3]
ARM GAS  C:\Users\DEVELO~1\AppData\Local\Temp\ccyh9n5w.s 			page 15


 748              		.loc 3 256 5
 749 011a FFF7FEFF 		bl	test_wait_threads
 750              		.loc 3 257 5
 751 011e 2B49     		ldr	r1, .L40+68
 752 0120 2B48     		ldr	r0, .L40+72
 753 0122 FFF7FEFF 		bl	__test_assert_sequence
 754 0126 0346     		mov	r3, r0
 755 0128 002B     		cmp	r3, #0
 756 012a 2AD1     		bne	.L28
 757              		.loc 3 262 3
 758 012c 164B     		ldr	r3, .L40
 759 012e 0622     		movs	r2, #6
 760 0130 1A60     		str	r2, [r3]
 761              		.loc 3 264 12
 762 0132 0023     		movs	r3, #0
 763 0134 7B60     		str	r3, [r7, #4]
 764              		.loc 3 264 5
 765 0136 12E0     		b	.L37
 766              	.L39:
 767              		.loc 3 265 7
 768 0138 1548     		ldr	r0, .L40+8
 769 013a FFF7FEFF 		bl	chPoolAlloc
 770 013e 0346     		mov	r3, r0
 771 0140 002B     		cmp	r3, #0
 772 0142 14BF     		ite	ne
 773 0144 0123     		movne	r3, #1
 774 0146 0023     		moveq	r3, #0
 775 0148 DBB2     		uxtb	r3, r3
 776 014a 2249     		ldr	r1, .L40+76
 777 014c 1846     		mov	r0, r3
 778 014e FFF7FEFF 		bl	__test_assert
 779 0152 0346     		mov	r3, r0
 780 0154 002B     		cmp	r3, #0
 781 0156 14D1     		bne	.L28
 782              		.loc 3 264 25 discriminator 2
 783 0158 7B68     		ldr	r3, [r7, #4]
 784 015a 0133     		adds	r3, r3, #1
 785 015c 7B60     		str	r3, [r7, #4]
 786              	.L37:
 787              		.loc 3 264 19 discriminator 1
 788 015e 7B68     		ldr	r3, [r7, #4]
 789 0160 032B     		cmp	r3, #3
 790 0162 E9D9     		bls	.L39
 791              		.loc 3 266 5
 792 0164 0A48     		ldr	r0, .L40+8
 793 0166 FFF7FEFF 		bl	chPoolAlloc
 794 016a 0346     		mov	r3, r0
 795 016c 002B     		cmp	r3, #0
 796 016e 0CBF     		ite	eq
 797 0170 0123     		moveq	r3, #1
 798 0172 0023     		movne	r3, #0
 799 0174 DBB2     		uxtb	r3, r3
 800 0176 1849     		ldr	r1, .L40+80
 801 0178 1846     		mov	r0, r3
 802 017a FFF7FEFF 		bl	__test_assert
 803 017e 0346     		mov	r3, r0
 804 0180 002B     		cmp	r3, #0
ARM GAS  C:\Users\DEVELO~1\AppData\Local\Temp\ccyh9n5w.s 			page 16


 805              	.L28:
 806              		.loc 3 269 1
 807 0182 0837     		adds	r7, r7, #8
 808              		.cfi_def_cfa_offset 8
 809 0184 BD46     		mov	sp, r7
 810              		.cfi_def_cfa_register 13
 811              		@ sp needed
 812 0186 80BD     		pop	{r7, pc}
 813              	.L41:
 814              		.align	2
 815              	.L40:
 816 0188 00000000 		.word	chtest
 817 018c 00000000 		.word	wa
 818 0190 00000000 		.word	mp1
 819 0194 18000000 		.word	.LC2
 820 0198 00000000 		.word	dyn_thread1
 821 019c 10000000 		.word	.LC1
 822 01a0 00000000 		.word	threads
 823 01a4 3C000000 		.word	.LC5
 824 01a8 34000000 		.word	.LC4
 825 01ac 48000000 		.word	.LC7
 826 01b0 40000000 		.word	.LC6
 827 01b4 00010000 		.word	.LC16
 828 01b8 F8000000 		.word	.LC15
 829 01bc 0C010000 		.word	.LC18
 830 01c0 04010000 		.word	.LC17
 831 01c4 1C000000 		.word	.LC3
 832 01c8 4C000000 		.word	.LC8
 833 01cc 68000000 		.word	.LC9
 834 01d0 10010000 		.word	.LC19
 835 01d4 18010000 		.word	.LC20
 836 01d8 28010000 		.word	.LC21
 837              		.cfi_endproc
 838              	.LFE440:
 839              		.size	rt_test_011_002_execute, .-rt_test_011_002_execute
 840              		.section	.rodata
 841              		.align	2
 842              	.LC22:
 843 013c 54687265 		.ascii	"Threads creation from Memory Pool\000"
 843      61647320 
 843      63726561 
 843      74696F6E 
 843      2066726F 
 844              		.section	.rodata.rt_test_011_002,"a"
 845              		.align	2
 846              		.type	rt_test_011_002, %object
 847              		.size	rt_test_011_002, 16
 848              	rt_test_011_002:
 849 0000 3C010000 		.word	.LC22
 850 0004 00000000 		.word	rt_test_011_002_setup
 851 0008 00000000 		.word	0
 852 000c 00000000 		.word	rt_test_011_002_execute
 853              		.global	rt_test_sequence_011_array
 854              		.section	.rodata.rt_test_sequence_011_array,"a"
 855              		.align	2
 856              		.type	rt_test_sequence_011_array, %object
 857              		.size	rt_test_sequence_011_array, 12
ARM GAS  C:\Users\DEVELO~1\AppData\Local\Temp\ccyh9n5w.s 			page 17


 858              	rt_test_sequence_011_array:
 859 0000 00000000 		.word	rt_test_011_001
 860 0004 00000000 		.word	rt_test_011_002
 861 0008 00000000 		.word	0
 862              		.global	rt_test_sequence_011
 863              		.section	.rodata
 864 015e 0000     		.align	2
 865              	.LC23:
 866 0160 44796E61 		.ascii	"Dynamic threads\000"
 866      6D696320 
 866      74687265 
 866      61647300 
 867              		.section	.rodata.rt_test_sequence_011,"a"
 868              		.align	2
 869              		.type	rt_test_sequence_011, %object
 870              		.size	rt_test_sequence_011, 8
 871              	rt_test_sequence_011:
 872 0000 60010000 		.word	.LC23
 873 0004 00000000 		.word	rt_test_sequence_011_array
 874              		.text
 875              	.Letext0:
 876              		.file 4 "c:\\chibistudio\\tools\\gnu tools arm embedded\\11.3 2022.08\\lib\\gcc\\arm-none-eabi\\11
 877              		.file 5 "c:\\chibistudio\\tools\\gnu tools arm embedded\\11.3 2022.08\\arm-none-eabi\\include\\mac
 878              		.file 6 "c:\\chibistudio\\tools\\gnu tools arm embedded\\11.3 2022.08\\arm-none-eabi\\include\\sys
 879              		.file 7 "../../../os/common/ports/ARM-common/chtypes.h"
 880              		.file 8 "../../../os/rt/include/chearly.h"
 881              		.file 9 "../../../os/rt/include/chobjects.h"
 882              		.file 10 "../../../os/rt/include/chrfcu.h"
 883              		.file 11 "../../../os/rt/include/chdebug.h"
 884              		.file 12 "../../../os/rt/include/chtime.h"
 885              		.file 13 "../../../os/rt/include/chlists.h"
 886              		.file 14 "../../../os/rt/include/chtrace.h"
 887              		.file 15 "../../../os/common/ports/ARMv7-M/chcore.h"
 888              		.file 16 "../../../os/rt/include/chsem.h"
 889              		.file 17 "../../../os/rt/include/chmtx.h"
 890              		.file 18 "../../../os/oslib/include/chmemcore.h"
 891              		.file 19 "../../../os/oslib/include/chmemheaps.h"
 892              		.file 20 "../../../os/hal/include/hal_streams.h"
 893              		.file 21 "../../../os/test/include/ch_test.h"
 894              		.file 22 "../../../test/rt/source/test/rt_test_sequence_011.h"
 895              		.file 23 "../../../test/rt/source/test/rt_test_root.h"
 896              		.file 24 "../../../os/rt/include/chsys.h"
 897              		.file 25 "../../../os/rt/include/chdynamic.h"