ARM GAS  C:\Users\DEVELO~1\AppData\Local\Temp\ccsIXObh.s 			page 1


   1              		.cpu cortex-m7
   2              		.arch armv7e-m
   3              		.fpu softvfp
   4              		.eabi_attribute 20, 1
   5              		.eabi_attribute 21, 1
   6              		.eabi_attribute 23, 3
   7              		.eabi_attribute 24, 1
   8              		.eabi_attribute 25, 1
   9              		.eabi_attribute 26, 1
  10              		.eabi_attribute 30, 6
  11              		.eabi_attribute 34, 1
  12              		.eabi_attribute 18, 4
  13              		.file	"rt_test_sequence_003.c"
  14              		.text
  15              	.Ltext0:
  16              		.cfi_sections	.debug_frame
  17              		.section	.text.chTimeIsInRangeX,"ax",%progbits
  18              		.align	1
  19              		.syntax unified
  20              		.thumb
  21              		.thumb_func
  22              		.type	chTimeIsInRangeX, %function
  23              	chTimeIsInRangeX:
  24              	.LFB10:
  25              		.file 1 "../../../os/rt/include/chtime.h"
  26              		.loc 1 486 52
  27              		.cfi_startproc
  28              		@ args = 0, pretend = 0, frame = 16
  29              		@ frame_needed = 1, uses_anonymous_args = 0
  30              		@ link register save eliminated.
  31 0000 80B4     		push	{r7}
  32              		.cfi_def_cfa_offset 4
  33              		.cfi_offset 7, -4
  34 0002 85B0     		sub	sp, sp, #20
  35              		.cfi_def_cfa_offset 24
  36 0004 00AF     		add	r7, sp, #0
  37              		.cfi_def_cfa_register 7
  38 0006 F860     		str	r0, [r7, #12]
  39 0008 B960     		str	r1, [r7, #8]
  40 000a 7A60     		str	r2, [r7, #4]
  41              		.loc 1 488 17
  42 000c FA68     		ldr	r2, [r7, #12]
  43 000e BB68     		ldr	r3, [r7, #8]
  44 0010 D21A     		subs	r2, r2, r3
  45              		.loc 1 489 17
  46 0012 7968     		ldr	r1, [r7, #4]
  47 0014 BB68     		ldr	r3, [r7, #8]
  48 0016 CB1A     		subs	r3, r1, r3
  49              		.loc 1 488 10
  50 0018 9A42     		cmp	r2, r3
  51 001a 34BF     		ite	cc
  52 001c 0123     		movcc	r3, #1
  53 001e 0023     		movcs	r3, #0
  54 0020 DBB2     		uxtb	r3, r3
  55              		.loc 1 490 1
  56 0022 1846     		mov	r0, r3
  57 0024 1437     		adds	r7, r7, #20
ARM GAS  C:\Users\DEVELO~1\AppData\Local\Temp\ccsIXObh.s 			page 2


  58              		.cfi_def_cfa_offset 4
  59 0026 BD46     		mov	sp, r7
  60              		.cfi_def_cfa_register 13
  61              		@ sp needed
  62 0028 80BC     		pop	{r7}
  63              		.cfi_restore 7
  64              		.cfi_def_cfa_offset 0
  65 002a 7047     		bx	lr
  66              		.cfi_endproc
  67              	.LFE10:
  68              		.size	chTimeIsInRangeX, .-chTimeIsInRangeX
  69              		.section	.text.port_timer_get_time,"ax",%progbits
  70              		.align	1
  71              		.syntax unified
  72              		.thumb
  73              		.thumb_func
  74              		.type	port_timer_get_time, %function
  75              	port_timer_get_time:
  76              	.LFB196:
  77              		.file 2 "../../../os/hal/osal/rt-nil/chcore_timer.h"
  78              		.loc 2 111 51
  79              		.cfi_startproc
  80              		@ args = 0, pretend = 0, frame = 0
  81              		@ frame_needed = 1, uses_anonymous_args = 0
  82 0000 80B5     		push	{r7, lr}
  83              		.cfi_def_cfa_offset 8
  84              		.cfi_offset 7, -8
  85              		.cfi_offset 14, -4
  86 0002 00AF     		add	r7, sp, #0
  87              		.cfi_def_cfa_register 7
  88              		.loc 2 113 10
  89 0004 FFF7FEFF 		bl	stGetCounter
  90 0008 0346     		mov	r3, r0
  91              		.loc 2 114 1
  92 000a 1846     		mov	r0, r3
  93 000c 80BD     		pop	{r7, pc}
  94              		.cfi_endproc
  95              	.LFE196:
  96              		.size	port_timer_get_time, .-port_timer_get_time
  97              		.section	.text.chVTGetSystemTimeX,"ax",%progbits
  98              		.align	1
  99              		.syntax unified
 100              		.thumb
 101              		.thumb_func
 102              		.type	chVTGetSystemTimeX, %function
 103              	chVTGetSystemTimeX:
 104              	.LFB209:
 105              		.file 3 "../../../os/rt/include/chvt.h"
 106              		.loc 3 122 50
 107              		.cfi_startproc
 108              		@ args = 0, pretend = 0, frame = 0
 109              		@ frame_needed = 1, uses_anonymous_args = 0
 110 0000 80B5     		push	{r7, lr}
 111              		.cfi_def_cfa_offset 8
 112              		.cfi_offset 7, -8
 113              		.cfi_offset 14, -4
 114 0002 00AF     		add	r7, sp, #0
ARM GAS  C:\Users\DEVELO~1\AppData\Local\Temp\ccsIXObh.s 			page 3


 115              		.cfi_def_cfa_register 7
 116              		.loc 3 127 10
 117 0004 FFF7FEFF 		bl	port_timer_get_time
 118 0008 0346     		mov	r3, r0
 119              		.loc 3 129 1
 120 000a 1846     		mov	r0, r3
 121 000c 80BD     		pop	{r7, pc}
 122              		.cfi_endproc
 123              	.LFE209:
 124              		.size	chVTGetSystemTimeX, .-chVTGetSystemTimeX
 125              		.section	.text.rt_test_003_001_execute,"ax",%progbits
 126              		.align	1
 127              		.syntax unified
 128              		.thumb
 129              		.thumb_func
 130              		.type	rt_test_003_001_execute, %function
 131              	rt_test_003_001_execute:
 132              	.LFB436:
 133              		.file 4 "../../../test/rt/source/test/rt_test_sequence_003.c"
 134              		.loc 4 60 43
 135              		.cfi_startproc
 136              		@ args = 0, pretend = 0, frame = 8
 137              		@ frame_needed = 1, uses_anonymous_args = 0
 138 0000 80B5     		push	{r7, lr}
 139              		.cfi_def_cfa_offset 8
 140              		.cfi_offset 7, -8
 141              		.cfi_offset 14, -4
 142 0002 82B0     		sub	sp, sp, #8
 143              		.cfi_def_cfa_offset 16
 144 0004 00AF     		add	r7, sp, #0
 145              		.cfi_def_cfa_register 7
 146              		.loc 4 64 3
 147 0006 094B     		ldr	r3, .L9
 148 0008 0122     		movs	r2, #1
 149 000a 1A60     		str	r2, [r3]
 150              	.LBB2:
 151              		.loc 4 66 22
 152 000c FFF7FEFF 		bl	chVTGetSystemTimeX
 153 0010 7860     		str	r0, [r7, #4]
 154              		.loc 4 67 11
 155 0012 00BF     		nop
 156              	.L8:
 157              		.loc 4 67 20 discriminator 1
 158 0014 FFF7FEFF 		bl	chVTGetSystemTimeX
 159 0018 0246     		mov	r2, r0
 160              		.loc 4 67 17 discriminator 1
 161 001a 7B68     		ldr	r3, [r7, #4]
 162 001c 9342     		cmp	r3, r2
 163 001e F9D0     		beq	.L8
 164              	.LBE2:
 165              		.loc 4 74 1
 166 0020 00BF     		nop
 167 0022 00BF     		nop
 168 0024 0837     		adds	r7, r7, #8
 169              		.cfi_def_cfa_offset 8
 170 0026 BD46     		mov	sp, r7
 171              		.cfi_def_cfa_register 13
ARM GAS  C:\Users\DEVELO~1\AppData\Local\Temp\ccsIXObh.s 			page 4


 172              		@ sp needed
 173 0028 80BD     		pop	{r7, pc}
 174              	.L10:
 175 002a 00BF     		.align	2
 176              	.L9:
 177 002c 00000000 		.word	chtest
 178              		.cfi_endproc
 179              	.LFE436:
 180              		.size	rt_test_003_001_execute, .-rt_test_003_001_execute
 181              		.section	.rodata
 182              		.align	2
 183              	.LC0:
 184 0000 53797374 		.ascii	"System Tick Counter functionality\000"
 184      656D2054 
 184      69636B20 
 184      436F756E 
 184      74657220 
 185              		.section	.rodata.rt_test_003_001,"a"
 186              		.align	2
 187              		.type	rt_test_003_001, %object
 188              		.size	rt_test_003_001, 16
 189              	rt_test_003_001:
 190 0000 00000000 		.word	.LC0
 191 0004 00000000 		.word	0
 192 0008 00000000 		.word	0
 193 000c 00000000 		.word	rt_test_003_001_execute
 194              		.section	.rodata
 195 0022 0000     		.align	2
 196              	.LC1:
 197 0024 696E2072 		.ascii	"in range\000"
 197      616E6765 
 197      00
 198 002d 000000   		.align	2
 199              	.LC2:
 200 0030 6E6F7420 		.ascii	"not in range\000"
 200      696E2072 
 200      616E6765 
 200      00
 201              		.section	.text.rt_test_003_002_execute,"ax",%progbits
 202              		.align	1
 203              		.syntax unified
 204              		.thumb
 205              		.thumb_func
 206              		.type	rt_test_003_002_execute, %function
 207              	rt_test_003_002_execute:
 208              	.LFB437:
 209              		.loc 4 97 43
 210              		.cfi_startproc
 211              		@ args = 0, pretend = 0, frame = 8
 212              		@ frame_needed = 1, uses_anonymous_args = 0
 213 0000 80B5     		push	{r7, lr}
 214              		.cfi_def_cfa_offset 8
 215              		.cfi_offset 7, -8
 216              		.cfi_offset 14, -4
 217 0002 82B0     		sub	sp, sp, #8
 218              		.cfi_def_cfa_offset 16
 219 0004 00AF     		add	r7, sp, #0
ARM GAS  C:\Users\DEVELO~1\AppData\Local\Temp\ccsIXObh.s 			page 5


 220              		.cfi_def_cfa_register 7
 221              		.loc 4 101 3
 222 0006 914B     		ldr	r3, .L24
 223 0008 0122     		movs	r2, #1
 224 000a 1A60     		str	r2, [r3]
 225              	.LBB3:
 226              		.loc 4 105 9
 227 000c 0022     		movs	r2, #0
 228 000e 0021     		movs	r1, #0
 229 0010 0020     		movs	r0, #0
 230 0012 FFF7FEFF 		bl	chTimeIsInRangeX
 231 0016 0346     		mov	r3, r0
 232 0018 FB71     		strb	r3, [r7, #7]
 233              		.loc 4 106 5
 234 001a FB79     		ldrb	r3, [r7, #7]	@ zero_extendqisi2
 235 001c 002B     		cmp	r3, #0
 236 001e 14BF     		ite	ne
 237 0020 0123     		movne	r3, #1
 238 0022 0023     		moveq	r3, #0
 239 0024 DBB2     		uxtb	r3, r3
 240 0026 83F00103 		eor	r3, r3, #1
 241 002a DBB2     		uxtb	r3, r3
 242 002c 03F00103 		and	r3, r3, #1
 243 0030 DBB2     		uxtb	r3, r3
 244 0032 8749     		ldr	r1, .L24+4
 245 0034 1846     		mov	r0, r3
 246 0036 FFF7FEFF 		bl	__test_assert
 247 003a 0346     		mov	r3, r0
 248 003c 002B     		cmp	r3, #0
 249 003e 40F00181 		bne	.L11
 250              		.loc 4 107 9
 251 0042 0022     		movs	r2, #0
 252 0044 0021     		movs	r1, #0
 253 0046 4FF0FF30 		mov	r0, #-1
 254 004a FFF7FEFF 		bl	chTimeIsInRangeX
 255 004e 0346     		mov	r3, r0
 256 0050 FB71     		strb	r3, [r7, #7]
 257              		.loc 4 108 5
 258 0052 FB79     		ldrb	r3, [r7, #7]	@ zero_extendqisi2
 259 0054 002B     		cmp	r3, #0
 260 0056 14BF     		ite	ne
 261 0058 0123     		movne	r3, #1
 262 005a 0023     		moveq	r3, #0
 263 005c DBB2     		uxtb	r3, r3
 264 005e 83F00103 		eor	r3, r3, #1
 265 0062 DBB2     		uxtb	r3, r3
 266 0064 03F00103 		and	r3, r3, #1
 267 0068 DBB2     		uxtb	r3, r3
 268 006a 7949     		ldr	r1, .L24+4
 269 006c 1846     		mov	r0, r3
 270 006e FFF7FEFF 		bl	__test_assert
 271 0072 0346     		mov	r3, r0
 272 0074 002B     		cmp	r3, #0
 273 0076 40F0E580 		bne	.L11
 274              		.loc 4 109 9
 275 007a 4FF0FF32 		mov	r2, #-1
 276 007e 4FF0FF31 		mov	r1, #-1
ARM GAS  C:\Users\DEVELO~1\AppData\Local\Temp\ccsIXObh.s 			page 6


 277 0082 0020     		movs	r0, #0
 278 0084 FFF7FEFF 		bl	chTimeIsInRangeX
 279 0088 0346     		mov	r3, r0
 280 008a FB71     		strb	r3, [r7, #7]
 281              		.loc 4 110 5
 282 008c FB79     		ldrb	r3, [r7, #7]	@ zero_extendqisi2
 283 008e 002B     		cmp	r3, #0
 284 0090 14BF     		ite	ne
 285 0092 0123     		movne	r3, #1
 286 0094 0023     		moveq	r3, #0
 287 0096 DBB2     		uxtb	r3, r3
 288 0098 83F00103 		eor	r3, r3, #1
 289 009c DBB2     		uxtb	r3, r3
 290 009e 03F00103 		and	r3, r3, #1
 291 00a2 DBB2     		uxtb	r3, r3
 292 00a4 6A49     		ldr	r1, .L24+4
 293 00a6 1846     		mov	r0, r3
 294 00a8 FFF7FEFF 		bl	__test_assert
 295 00ac 0346     		mov	r3, r0
 296 00ae 002B     		cmp	r3, #0
 297 00b0 40F0C880 		bne	.L11
 298              		.loc 4 111 9
 299 00b4 4FF0FF32 		mov	r2, #-1
 300 00b8 4FF0FF31 		mov	r1, #-1
 301 00bc 4FF0FF30 		mov	r0, #-1
 302 00c0 FFF7FEFF 		bl	chTimeIsInRangeX
 303 00c4 0346     		mov	r3, r0
 304 00c6 FB71     		strb	r3, [r7, #7]
 305              		.loc 4 112 5
 306 00c8 FB79     		ldrb	r3, [r7, #7]	@ zero_extendqisi2
 307 00ca 002B     		cmp	r3, #0
 308 00cc 14BF     		ite	ne
 309 00ce 0123     		movne	r3, #1
 310 00d0 0023     		moveq	r3, #0
 311 00d2 DBB2     		uxtb	r3, r3
 312 00d4 83F00103 		eor	r3, r3, #1
 313 00d8 DBB2     		uxtb	r3, r3
 314 00da 03F00103 		and	r3, r3, #1
 315 00de DBB2     		uxtb	r3, r3
 316 00e0 5B49     		ldr	r1, .L24+4
 317 00e2 1846     		mov	r0, r3
 318 00e4 FFF7FEFF 		bl	__test_assert
 319 00e8 0346     		mov	r3, r0
 320 00ea 002B     		cmp	r3, #0
 321 00ec 40F0AA80 		bne	.L11
 322              	.LBE3:
 323              		.loc 4 117 3
 324 00f0 564B     		ldr	r3, .L24
 325 00f2 0222     		movs	r2, #2
 326 00f4 1A60     		str	r2, [r3]
 327              	.LBB4:
 328              		.loc 4 121 9
 329 00f6 6422     		movs	r2, #100
 330 00f8 0A21     		movs	r1, #10
 331 00fa 0A20     		movs	r0, #10
 332 00fc FFF7FEFF 		bl	chTimeIsInRangeX
 333 0100 0346     		mov	r3, r0
ARM GAS  C:\Users\DEVELO~1\AppData\Local\Temp\ccsIXObh.s 			page 7


 334 0102 BB71     		strb	r3, [r7, #6]
 335              		.loc 4 122 5
 336 0104 BB79     		ldrb	r3, [r7, #6]	@ zero_extendqisi2
 337 0106 5349     		ldr	r1, .L24+8
 338 0108 1846     		mov	r0, r3
 339 010a FFF7FEFF 		bl	__test_assert
 340 010e 0346     		mov	r3, r0
 341 0110 002B     		cmp	r3, #0
 342 0112 40F09780 		bne	.L11
 343              		.loc 4 123 9
 344 0116 6422     		movs	r2, #100
 345 0118 0A21     		movs	r1, #10
 346 011a 0920     		movs	r0, #9
 347 011c FFF7FEFF 		bl	chTimeIsInRangeX
 348 0120 0346     		mov	r3, r0
 349 0122 BB71     		strb	r3, [r7, #6]
 350              		.loc 4 124 5
 351 0124 BB79     		ldrb	r3, [r7, #6]	@ zero_extendqisi2
 352 0126 002B     		cmp	r3, #0
 353 0128 14BF     		ite	ne
 354 012a 0123     		movne	r3, #1
 355 012c 0023     		moveq	r3, #0
 356 012e DBB2     		uxtb	r3, r3
 357 0130 83F00103 		eor	r3, r3, #1
 358 0134 DBB2     		uxtb	r3, r3
 359 0136 03F00103 		and	r3, r3, #1
 360 013a DBB2     		uxtb	r3, r3
 361 013c 4449     		ldr	r1, .L24+4
 362 013e 1846     		mov	r0, r3
 363 0140 FFF7FEFF 		bl	__test_assert
 364 0144 0346     		mov	r3, r0
 365 0146 002B     		cmp	r3, #0
 366 0148 7CD1     		bne	.L11
 367              		.loc 4 125 9
 368 014a 6422     		movs	r2, #100
 369 014c 0A21     		movs	r1, #10
 370 014e 6320     		movs	r0, #99
 371 0150 FFF7FEFF 		bl	chTimeIsInRangeX
 372 0154 0346     		mov	r3, r0
 373 0156 BB71     		strb	r3, [r7, #6]
 374              		.loc 4 126 5
 375 0158 BB79     		ldrb	r3, [r7, #6]	@ zero_extendqisi2
 376 015a 3E49     		ldr	r1, .L24+8
 377 015c 1846     		mov	r0, r3
 378 015e FFF7FEFF 		bl	__test_assert
 379 0162 0346     		mov	r3, r0
 380 0164 002B     		cmp	r3, #0
 381 0166 6DD1     		bne	.L11
 382              		.loc 4 127 9
 383 0168 6422     		movs	r2, #100
 384 016a 0A21     		movs	r1, #10
 385 016c 6420     		movs	r0, #100
 386 016e FFF7FEFF 		bl	chTimeIsInRangeX
 387 0172 0346     		mov	r3, r0
 388 0174 BB71     		strb	r3, [r7, #6]
 389              		.loc 4 128 5
 390 0176 BB79     		ldrb	r3, [r7, #6]	@ zero_extendqisi2
ARM GAS  C:\Users\DEVELO~1\AppData\Local\Temp\ccsIXObh.s 			page 8


 391 0178 002B     		cmp	r3, #0
 392 017a 14BF     		ite	ne
 393 017c 0123     		movne	r3, #1
 394 017e 0023     		moveq	r3, #0
 395 0180 DBB2     		uxtb	r3, r3
 396 0182 83F00103 		eor	r3, r3, #1
 397 0186 DBB2     		uxtb	r3, r3
 398 0188 03F00103 		and	r3, r3, #1
 399 018c DBB2     		uxtb	r3, r3
 400 018e 3049     		ldr	r1, .L24+4
 401 0190 1846     		mov	r0, r3
 402 0192 FFF7FEFF 		bl	__test_assert
 403 0196 0346     		mov	r3, r0
 404 0198 002B     		cmp	r3, #0
 405 019a 53D1     		bne	.L11
 406              	.LBE4:
 407              		.loc 4 133 3
 408 019c 2B4B     		ldr	r3, .L24
 409 019e 0322     		movs	r2, #3
 410 01a0 1A60     		str	r2, [r3]
 411              	.LBB5:
 412              		.loc 4 137 9
 413 01a2 0A22     		movs	r2, #10
 414 01a4 6421     		movs	r1, #100
 415 01a6 6420     		movs	r0, #100
 416 01a8 FFF7FEFF 		bl	chTimeIsInRangeX
 417 01ac 0346     		mov	r3, r0
 418 01ae 7B71     		strb	r3, [r7, #5]
 419              		.loc 4 138 5
 420 01b0 7B79     		ldrb	r3, [r7, #5]	@ zero_extendqisi2
 421 01b2 2849     		ldr	r1, .L24+8
 422 01b4 1846     		mov	r0, r3
 423 01b6 FFF7FEFF 		bl	__test_assert
 424 01ba 0346     		mov	r3, r0
 425 01bc 002B     		cmp	r3, #0
 426 01be 41D1     		bne	.L11
 427              		.loc 4 139 9
 428 01c0 0A22     		movs	r2, #10
 429 01c2 6421     		movs	r1, #100
 430 01c4 6320     		movs	r0, #99
 431 01c6 FFF7FEFF 		bl	chTimeIsInRangeX
 432 01ca 0346     		mov	r3, r0
 433 01cc 7B71     		strb	r3, [r7, #5]
 434              		.loc 4 140 5
 435 01ce 7B79     		ldrb	r3, [r7, #5]	@ zero_extendqisi2
 436 01d0 002B     		cmp	r3, #0
 437 01d2 14BF     		ite	ne
 438 01d4 0123     		movne	r3, #1
 439 01d6 0023     		moveq	r3, #0
 440 01d8 DBB2     		uxtb	r3, r3
 441 01da 83F00103 		eor	r3, r3, #1
 442 01de DBB2     		uxtb	r3, r3
 443 01e0 03F00103 		and	r3, r3, #1
 444 01e4 DBB2     		uxtb	r3, r3
 445 01e6 1A49     		ldr	r1, .L24+4
 446 01e8 1846     		mov	r0, r3
 447 01ea FFF7FEFF 		bl	__test_assert
ARM GAS  C:\Users\DEVELO~1\AppData\Local\Temp\ccsIXObh.s 			page 9


 448 01ee 0346     		mov	r3, r0
 449 01f0 002B     		cmp	r3, #0
 450 01f2 27D1     		bne	.L11
 451              		.loc 4 141 9
 452 01f4 0A22     		movs	r2, #10
 453 01f6 6421     		movs	r1, #100
 454 01f8 0920     		movs	r0, #9
 455 01fa FFF7FEFF 		bl	chTimeIsInRangeX
 456 01fe 0346     		mov	r3, r0
 457 0200 7B71     		strb	r3, [r7, #5]
 458              		.loc 4 142 5
 459 0202 7B79     		ldrb	r3, [r7, #5]	@ zero_extendqisi2
 460 0204 1349     		ldr	r1, .L24+8
 461 0206 1846     		mov	r0, r3
 462 0208 FFF7FEFF 		bl	__test_assert
 463 020c 0346     		mov	r3, r0
 464 020e 002B     		cmp	r3, #0
 465 0210 18D1     		bne	.L11
 466              		.loc 4 143 9
 467 0212 0A22     		movs	r2, #10
 468 0214 6421     		movs	r1, #100
 469 0216 0A20     		movs	r0, #10
 470 0218 FFF7FEFF 		bl	chTimeIsInRangeX
 471 021c 0346     		mov	r3, r0
 472 021e 7B71     		strb	r3, [r7, #5]
 473              		.loc 4 144 5
 474 0220 7B79     		ldrb	r3, [r7, #5]	@ zero_extendqisi2
 475 0222 002B     		cmp	r3, #0
 476 0224 14BF     		ite	ne
 477 0226 0123     		movne	r3, #1
 478 0228 0023     		moveq	r3, #0
 479 022a DBB2     		uxtb	r3, r3
 480 022c 83F00103 		eor	r3, r3, #1
 481 0230 DBB2     		uxtb	r3, r3
 482 0232 03F00103 		and	r3, r3, #1
 483 0236 DBB2     		uxtb	r3, r3
 484 0238 0549     		ldr	r1, .L24+4
 485 023a 1846     		mov	r0, r3
 486 023c FFF7FEFF 		bl	__test_assert
 487 0240 0346     		mov	r3, r0
 488 0242 002B     		cmp	r3, #0
 489              	.L11:
 490              	.LBE5:
 491              		.loc 4 147 1
 492 0244 0837     		adds	r7, r7, #8
 493              		.cfi_def_cfa_offset 8
 494 0246 BD46     		mov	sp, r7
 495              		.cfi_def_cfa_register 13
 496              		@ sp needed
 497 0248 80BD     		pop	{r7, pc}
 498              	.L25:
 499 024a 00BF     		.align	2
 500              	.L24:
 501 024c 00000000 		.word	chtest
 502 0250 24000000 		.word	.LC1
 503 0254 30000000 		.word	.LC2
 504              		.cfi_endproc
ARM GAS  C:\Users\DEVELO~1\AppData\Local\Temp\ccsIXObh.s 			page 10


 505              	.LFE437:
 506              		.size	rt_test_003_002_execute, .-rt_test_003_002_execute
 507              		.section	.rodata
 508 003d 000000   		.align	2
 509              	.LC3:
 510 0040 54696D65 		.ascii	"Time ranges functionality\000"
 510      2072616E 
 510      67657320 
 510      66756E63 
 510      74696F6E 
 511              		.section	.rodata.rt_test_003_002,"a"
 512              		.align	2
 513              		.type	rt_test_003_002, %object
 514              		.size	rt_test_003_002, 16
 515              	rt_test_003_002:
 516 0000 40000000 		.word	.LC3
 517 0004 00000000 		.word	0
 518 0008 00000000 		.word	0
 519 000c 00000000 		.word	rt_test_003_002_execute
 520              		.global	rt_test_sequence_003_array
 521              		.section	.rodata.rt_test_sequence_003_array,"a"
 522              		.align	2
 523              		.type	rt_test_sequence_003_array, %object
 524              		.size	rt_test_sequence_003_array, 12
 525              	rt_test_sequence_003_array:
 526 0000 00000000 		.word	rt_test_003_001
 527 0004 00000000 		.word	rt_test_003_002
 528 0008 00000000 		.word	0
 529              		.global	rt_test_sequence_003
 530              		.section	.rodata
 531 005a 0000     		.align	2
 532              	.LC4:
 533 005c 54696D65 		.ascii	"Time and Intervals Functionality\000"
 533      20616E64 
 533      20496E74 
 533      65727661 
 533      6C732046 
 534              		.section	.rodata.rt_test_sequence_003,"a"
 535              		.align	2
 536              		.type	rt_test_sequence_003, %object
 537              		.size	rt_test_sequence_003, 8
 538              	rt_test_sequence_003:
 539 0000 5C000000 		.word	.LC4
 540 0004 00000000 		.word	rt_test_sequence_003_array
 541              		.text
 542              	.Letext0:
 543              		.file 5 "c:\\chibistudio\\tools\\gnu tools arm embedded\\11.3 2022.08\\lib\\gcc\\arm-none-eabi\\11
 544              		.file 6 "c:\\chibistudio\\tools\\gnu tools arm embedded\\11.3 2022.08\\arm-none-eabi\\include\\mac
 545              		.file 7 "c:\\chibistudio\\tools\\gnu tools arm embedded\\11.3 2022.08\\arm-none-eabi\\include\\sys
 546              		.file 8 "../../../os/rt/include/chearly.h"
 547              		.file 9 "../../../os/hal/include/hal_streams.h"
 548              		.file 10 "../../../os/test/include/ch_test.h"
 549              		.file 11 "../../../test/rt/source/test/rt_test_sequence_003.h"
 550              		.file 12 "../../../os/hal/include/hal_st.h"