ARM GAS  C:\Users\DEVELO~1\AppData\Local\Temp\cc3dswDP.s 			page 1


   1              		.cpu cortex-m7
   2              		.arch armv7e-m
   3              		.fpu softvfp
   4              		.eabi_attribute 20, 1
   5              		.eabi_attribute 21, 1
   6              		.eabi_attribute 23, 3
   7              		.eabi_attribute 24, 1
   8              		.eabi_attribute 25, 1
   9              		.eabi_attribute 26, 1
  10              		.eabi_attribute 30, 6
  11              		.eabi_attribute 34, 1
  12              		.eabi_attribute 18, 4
  13              		.file	"rt_test_sequence_005.c"
  14              		.text
  15              	.Ltext0:
  16              		.cfi_sections	.debug_frame
  17              		.section	.text.chTimeAddX,"ax",%progbits
  18              		.align	1
  19              		.syntax unified
  20              		.thumb
  21              		.thumb_func
  22              		.type	chTimeAddX, %function
  23              	chTimeAddX:
  24              	.LFB8:
  25              		.file 1 "../../../os/rt/include/chtime.h"
  26              		.loc 1 443 60
  27              		.cfi_startproc
  28              		@ args = 0, pretend = 0, frame = 8
  29              		@ frame_needed = 1, uses_anonymous_args = 0
  30              		@ link register save eliminated.
  31 0000 80B4     		push	{r7}
  32              		.cfi_def_cfa_offset 4
  33              		.cfi_offset 7, -4
  34 0002 83B0     		sub	sp, sp, #12
  35              		.cfi_def_cfa_offset 16
  36 0004 00AF     		add	r7, sp, #0
  37              		.cfi_def_cfa_register 7
  38 0006 7860     		str	r0, [r7, #4]
  39 0008 3960     		str	r1, [r7]
  40              		.loc 1 449 18
  41 000a 7A68     		ldr	r2, [r7, #4]
  42 000c 3B68     		ldr	r3, [r7]
  43 000e 1344     		add	r3, r3, r2
  44              		.loc 1 450 1
  45 0010 1846     		mov	r0, r3
  46 0012 0C37     		adds	r7, r7, #12
  47              		.cfi_def_cfa_offset 4
  48 0014 BD46     		mov	sp, r7
  49              		.cfi_def_cfa_register 13
  50              		@ sp needed
  51 0016 80BC     		pop	{r7}
  52              		.cfi_restore 7
  53              		.cfi_def_cfa_offset 0
  54 0018 7047     		bx	lr
  55              		.cfi_endproc
  56              	.LFE8:
  57              		.size	chTimeAddX, .-chTimeAddX
ARM GAS  C:\Users\DEVELO~1\AppData\Local\Temp\cc3dswDP.s 			page 2


  58              		.section	.text.port_timer_get_time,"ax",%progbits
  59              		.align	1
  60              		.syntax unified
  61              		.thumb
  62              		.thumb_func
  63              		.type	port_timer_get_time, %function
  64              	port_timer_get_time:
  65              	.LFB196:
  66              		.file 2 "../../../os/hal/osal/rt-nil/chcore_timer.h"
  67              		.loc 2 111 51
  68              		.cfi_startproc
  69              		@ args = 0, pretend = 0, frame = 0
  70              		@ frame_needed = 1, uses_anonymous_args = 0
  71 0000 80B5     		push	{r7, lr}
  72              		.cfi_def_cfa_offset 8
  73              		.cfi_offset 7, -8
  74              		.cfi_offset 14, -4
  75 0002 00AF     		add	r7, sp, #0
  76              		.cfi_def_cfa_register 7
  77              		.loc 2 113 10
  78 0004 FFF7FEFF 		bl	stGetCounter
  79 0008 0346     		mov	r3, r0
  80              		.loc 2 114 1
  81 000a 1846     		mov	r0, r3
  82 000c 80BD     		pop	{r7, pc}
  83              		.cfi_endproc
  84              	.LFE196:
  85              		.size	port_timer_get_time, .-port_timer_get_time
  86              		.section	.text.chSysLock,"ax",%progbits
  87              		.align	1
  88              		.syntax unified
  89              		.thumb
  90              		.thumb_func
  91              		.type	chSysLock, %function
  92              	chSysLock:
  93              	.LFB202:
  94              		.file 3 "../../../os/rt/include/chsys.h"
  95              		.loc 3 407 36
  96              		.cfi_startproc
  97              		@ args = 0, pretend = 0, frame = 8
  98              		@ frame_needed = 1, uses_anonymous_args = 0
  99              		@ link register save eliminated.
 100 0000 80B4     		push	{r7}
 101              		.cfi_def_cfa_offset 4
 102              		.cfi_offset 7, -4
 103 0002 83B0     		sub	sp, sp, #12
 104              		.cfi_def_cfa_offset 16
 105 0004 00AF     		add	r7, sp, #0
 106              		.cfi_def_cfa_register 7
 107 0006 3023     		movs	r3, #48
 108 0008 7B60     		str	r3, [r7, #4]
 109              	.LBB14:
 110              	.LBB15:
 111              	.LBB16:
 112              	.LBB17:
 113              		.file 4 "../../../os/common/ext/ARM/CMSIS/Core/Include/cmsis_gcc.h"
 114              		.loc 4 493 3
ARM GAS  C:\Users\DEVELO~1\AppData\Local\Temp\cc3dswDP.s 			page 3


 115 000a 7B68     		ldr	r3, [r7, #4]
 116              		.syntax unified
 117              	@ 493 "../../../os/common/ext/ARM/CMSIS/Core/Include/cmsis_gcc.h" 1
 118 000c 83F31188 		MSR basepri, r3
 119              	@ 0 "" 2
 120              		.loc 4 494 1
 121              		.thumb
 122              		.syntax unified
 123 0010 00BF     		nop
 124              	.LBE17:
 125              	.LBE16:
 126              		.file 5 "../../../os/common/ports/ARMv7-M/chcore.h"
 127              		.loc 5 840 1
 128 0012 00BF     		nop
 129              	.LBE15:
 130              	.LBE14:
 131              		.loc 3 412 1
 132 0014 00BF     		nop
 133 0016 0C37     		adds	r7, r7, #12
 134              		.cfi_def_cfa_offset 4
 135 0018 BD46     		mov	sp, r7
 136              		.cfi_def_cfa_register 13
 137              		@ sp needed
 138 001a 80BC     		pop	{r7}
 139              		.cfi_restore 7
 140              		.cfi_def_cfa_offset 0
 141 001c 7047     		bx	lr
 142              		.cfi_endproc
 143              	.LFE202:
 144              		.size	chSysLock, .-chSysLock
 145              		.section	.text.chSysUnlock,"ax",%progbits
 146              		.align	1
 147              		.syntax unified
 148              		.thumb
 149              		.thumb_func
 150              		.type	chSysUnlock, %function
 151              	chSysUnlock:
 152              	.LFB203:
 153              		.loc 3 421 38
 154              		.cfi_startproc
 155              		@ args = 0, pretend = 0, frame = 8
 156              		@ frame_needed = 1, uses_anonymous_args = 0
 157              		@ link register save eliminated.
 158 0000 80B4     		push	{r7}
 159              		.cfi_def_cfa_offset 4
 160              		.cfi_offset 7, -4
 161 0002 83B0     		sub	sp, sp, #12
 162              		.cfi_def_cfa_offset 16
 163 0004 00AF     		add	r7, sp, #0
 164              		.cfi_def_cfa_register 7
 165 0006 0023     		movs	r3, #0
 166 0008 7B60     		str	r3, [r7, #4]
 167              	.LBB18:
 168              	.LBB19:
 169              	.LBB20:
 170              	.LBB21:
 171              		.loc 4 493 3
ARM GAS  C:\Users\DEVELO~1\AppData\Local\Temp\cc3dswDP.s 			page 4


 172 000a 7B68     		ldr	r3, [r7, #4]
 173              		.syntax unified
 174              	@ 493 "../../../os/common/ext/ARM/CMSIS/Core/Include/cmsis_gcc.h" 1
 175 000c 83F31188 		MSR basepri, r3
 176              	@ 0 "" 2
 177              		.loc 4 494 1
 178              		.thumb
 179              		.syntax unified
 180 0010 00BF     		nop
 181              	.LBE21:
 182              	.LBE20:
 183              		.loc 5 854 1
 184 0012 00BF     		nop
 185              	.LBE19:
 186              	.LBE18:
 187              		.loc 3 435 1
 188 0014 00BF     		nop
 189 0016 0C37     		adds	r7, r7, #12
 190              		.cfi_def_cfa_offset 4
 191 0018 BD46     		mov	sp, r7
 192              		.cfi_def_cfa_register 13
 193              		@ sp needed
 194 001a 80BC     		pop	{r7}
 195              		.cfi_restore 7
 196              		.cfi_def_cfa_offset 0
 197 001c 7047     		bx	lr
 198              		.cfi_endproc
 199              	.LFE203:
 200              		.size	chSysUnlock, .-chSysUnlock
 201              		.section	.text.chVTGetSystemTimeX,"ax",%progbits
 202              		.align	1
 203              		.syntax unified
 204              		.thumb
 205              		.thumb_func
 206              		.type	chVTGetSystemTimeX, %function
 207              	chVTGetSystemTimeX:
 208              	.LFB209:
 209              		.file 6 "../../../os/rt/include/chvt.h"
 210              		.loc 6 122 50
 211              		.cfi_startproc
 212              		@ args = 0, pretend = 0, frame = 0
 213              		@ frame_needed = 1, uses_anonymous_args = 0
 214 0000 80B5     		push	{r7, lr}
 215              		.cfi_def_cfa_offset 8
 216              		.cfi_offset 7, -8
 217              		.cfi_offset 14, -4
 218 0002 00AF     		add	r7, sp, #0
 219              		.cfi_def_cfa_register 7
 220              		.loc 6 127 10
 221 0004 FFF7FEFF 		bl	port_timer_get_time
 222 0008 0346     		mov	r3, r0
 223              		.loc 6 129 1
 224 000a 1846     		mov	r0, r3
 225 000c 80BD     		pop	{r7, pc}
 226              		.cfi_endproc
 227              	.LFE209:
 228              		.size	chVTGetSystemTimeX, .-chVTGetSystemTimeX
ARM GAS  C:\Users\DEVELO~1\AppData\Local\Temp\cc3dswDP.s 			page 5


 229              		.section	.text.chThdGetSelfX,"ax",%progbits
 230              		.align	1
 231              		.syntax unified
 232              		.thumb
 233              		.thumb_func
 234              		.type	chThdGetSelfX, %function
 235              	chThdGetSelfX:
 236              	.LFB229:
 237              		.file 7 "../../../os/rt/include/chthreads.h"
 238              		.loc 7 341 45
 239              		.cfi_startproc
 240              		@ args = 0, pretend = 0, frame = 0
 241              		@ frame_needed = 1, uses_anonymous_args = 0
 242              		@ link register save eliminated.
 243 0000 80B4     		push	{r7}
 244              		.cfi_def_cfa_offset 4
 245              		.cfi_offset 7, -4
 246 0002 00AF     		add	r7, sp, #0
 247              		.cfi_def_cfa_register 7
 248              		.loc 7 343 10
 249 0004 024B     		ldr	r3, .L11
 250 0006 DB68     		ldr	r3, [r3, #12]
 251              		.loc 7 344 1
 252 0008 1846     		mov	r0, r3
 253 000a BD46     		mov	sp, r7
 254              		.cfi_def_cfa_register 13
 255              		@ sp needed
 256 000c 80BC     		pop	{r7}
 257              		.cfi_restore 7
 258              		.cfi_def_cfa_offset 0
 259 000e 7047     		bx	lr
 260              	.L12:
 261              		.align	2
 262              	.L11:
 263 0010 00000000 		.word	ch0
 264              		.cfi_endproc
 265              	.LFE229:
 266              		.size	chThdGetSelfX, .-chThdGetSelfX
 267              		.section	.text.chThdGetPriorityX,"ax",%progbits
 268              		.align	1
 269              		.syntax unified
 270              		.thumb
 271              		.thumb_func
 272              		.type	chThdGetPriorityX, %function
 273              	chThdGetPriorityX:
 274              	.LFB230:
 275              		.loc 7 354 47
 276              		.cfi_startproc
 277              		@ args = 0, pretend = 0, frame = 0
 278              		@ frame_needed = 1, uses_anonymous_args = 0
 279 0000 80B5     		push	{r7, lr}
 280              		.cfi_def_cfa_offset 8
 281              		.cfi_offset 7, -8
 282              		.cfi_offset 14, -4
 283 0002 00AF     		add	r7, sp, #0
 284              		.cfi_def_cfa_register 7
 285              		.loc 7 356 10
ARM GAS  C:\Users\DEVELO~1\AppData\Local\Temp\cc3dswDP.s 			page 6


 286 0004 FFF7FEFF 		bl	chThdGetSelfX
 287 0008 0346     		mov	r3, r0
 288              		.loc 7 356 37
 289 000a 9B68     		ldr	r3, [r3, #8]
 290              		.loc 7 357 1
 291 000c 1846     		mov	r0, r3
 292 000e 80BD     		pop	{r7, pc}
 293              		.cfi_endproc
 294              	.LFE230:
 295              		.size	chThdGetPriorityX, .-chThdGetPriorityX
 296              		.section	.text.thread,"ax",%progbits
 297              		.align	1
 298              		.syntax unified
 299              		.thumb
 300              		.thumb_func
 301              		.type	thread, %function
 302              	thread:
 303              	.LFB436:
 304              		.file 8 "../../../test/rt/source/test/rt_test_sequence_005.c"
 305              		.loc 8 44 32
 306              		.cfi_startproc
 307              		@ args = 0, pretend = 0, frame = 8
 308              		@ frame_needed = 1, uses_anonymous_args = 0
 309 0000 80B5     		push	{r7, lr}
 310              		.cfi_def_cfa_offset 8
 311              		.cfi_offset 7, -8
 312              		.cfi_offset 14, -4
 313 0002 82B0     		sub	sp, sp, #8
 314              		.cfi_def_cfa_offset 16
 315 0004 00AF     		add	r7, sp, #0
 316              		.cfi_def_cfa_register 7
 317 0006 7860     		str	r0, [r7, #4]
 318              		.loc 8 46 3
 319 0008 7B68     		ldr	r3, [r7, #4]
 320 000a 1B78     		ldrb	r3, [r3]	@ zero_extendqisi2
 321 000c 1846     		mov	r0, r3
 322 000e FFF7FEFF 		bl	test_emit_token
 323              		.loc 8 47 1
 324 0012 00BF     		nop
 325 0014 0837     		adds	r7, r7, #8
 326              		.cfi_def_cfa_offset 8
 327 0016 BD46     		mov	sp, r7
 328              		.cfi_def_cfa_register 13
 329              		@ sp needed
 330 0018 80BD     		pop	{r7, pc}
 331              		.cfi_endproc
 332              	.LFE436:
 333              		.size	thread, .-thread
 334              		.section	.rodata
 335              		.align	2
 336              	.LC0:
 337 0000 6F757420 		.ascii	"out of time window\000"
 337      6F662074 
 337      696D6520 
 337      77696E64 
 337      6F7700
 338              		.section	.text.rt_test_005_001_execute,"ax",%progbits
ARM GAS  C:\Users\DEVELO~1\AppData\Local\Temp\cc3dswDP.s 			page 7


 339              		.align	1
 340              		.syntax unified
 341              		.thumb
 342              		.thumb_func
 343              		.type	rt_test_005_001_execute, %function
 344              	rt_test_005_001_execute:
 345              	.LFB437:
 346              		.loc 8 76 43
 347              		.cfi_startproc
 348              		@ args = 0, pretend = 0, frame = 8
 349              		@ frame_needed = 1, uses_anonymous_args = 0
 350 0000 90B5     		push	{r4, r7, lr}
 351              		.cfi_def_cfa_offset 12
 352              		.cfi_offset 4, -12
 353              		.cfi_offset 7, -8
 354              		.cfi_offset 14, -4
 355 0002 83B0     		sub	sp, sp, #12
 356              		.cfi_def_cfa_offset 24
 357 0004 00AF     		add	r7, sp, #0
 358              		.cfi_def_cfa_register 7
 359              		.loc 8 82 3
 360 0006 4B4B     		ldr	r3, .L22
 361 0008 0122     		movs	r2, #1
 362 000a 1A60     		str	r2, [r3]
 363              		.loc 8 84 12
 364 000c FFF7FEFF 		bl	chVTGetSystemTimeX
 365 0010 7860     		str	r0, [r7, #4]
 366              		.loc 8 85 5
 367 0012 6420     		movs	r0, #100
 368 0014 FFF7FEFF 		bl	chThdSleep
 369              		.loc 8 86 5
 370 0018 6421     		movs	r1, #100
 371 001a 7868     		ldr	r0, [r7, #4]
 372 001c FFF7FEFF 		bl	chTimeAddX
 373 0020 0446     		mov	r4, r0
 374 0022 6721     		movs	r1, #103
 375 0024 7868     		ldr	r0, [r7, #4]
 376 0026 FFF7FEFF 		bl	chTimeAddX
 377 002a 0346     		mov	r3, r0
 378 002c 424A     		ldr	r2, .L22+4
 379 002e 1946     		mov	r1, r3
 380 0030 2046     		mov	r0, r4
 381 0032 FFF7FEFF 		bl	__test_assert_time_window
 382 0036 0346     		mov	r3, r0
 383 0038 002B     		cmp	r3, #0
 384 003a 78D1     		bne	.L16
 385              		.loc 8 95 3
 386 003c 3D4B     		ldr	r3, .L22
 387 003e 0222     		movs	r2, #2
 388 0040 1A60     		str	r2, [r3]
 389              		.loc 8 97 12
 390 0042 FFF7FEFF 		bl	chVTGetSystemTimeX
 391 0046 7860     		str	r0, [r7, #4]
 392              		.loc 8 98 5
 393 0048 4FF47A70 		mov	r0, #1000
 394 004c FFF7FEFF 		bl	chThdSleep
 395              		.loc 8 99 5
ARM GAS  C:\Users\DEVELO~1\AppData\Local\Temp\cc3dswDP.s 			page 8


 396 0050 4FF47A71 		mov	r1, #1000
 397 0054 7868     		ldr	r0, [r7, #4]
 398 0056 FFF7FEFF 		bl	chTimeAddX
 399 005a 0446     		mov	r4, r0
 400 005c 40F2EB31 		movw	r1, #1003
 401 0060 7868     		ldr	r0, [r7, #4]
 402 0062 FFF7FEFF 		bl	chTimeAddX
 403 0066 0346     		mov	r3, r0
 404 0068 334A     		ldr	r2, .L22+4
 405 006a 1946     		mov	r1, r3
 406 006c 2046     		mov	r0, r4
 407 006e FFF7FEFF 		bl	__test_assert_time_window
 408 0072 0346     		mov	r3, r0
 409 0074 002B     		cmp	r3, #0
 410 0076 5AD1     		bne	.L16
 411              		.loc 8 108 3
 412 0078 2E4B     		ldr	r3, .L22
 413 007a 0322     		movs	r2, #3
 414 007c 1A60     		str	r2, [r3]
 415              		.loc 8 110 12
 416 007e FFF7FEFF 		bl	chVTGetSystemTimeX
 417 0082 7860     		str	r0, [r7, #4]
 418              		.loc 8 111 5
 419 0084 4FF47A70 		mov	r0, #1000
 420 0088 FFF7FEFF 		bl	chThdSleep
 421              		.loc 8 112 5
 422 008c 4FF47A71 		mov	r1, #1000
 423 0090 7868     		ldr	r0, [r7, #4]
 424 0092 FFF7FEFF 		bl	chTimeAddX
 425 0096 0446     		mov	r4, r0
 426 0098 40F2EB31 		movw	r1, #1003
 427 009c 7868     		ldr	r0, [r7, #4]
 428 009e FFF7FEFF 		bl	chTimeAddX
 429 00a2 0346     		mov	r3, r0
 430 00a4 244A     		ldr	r2, .L22+4
 431 00a6 1946     		mov	r1, r3
 432 00a8 2046     		mov	r0, r4
 433 00aa FFF7FEFF 		bl	__test_assert_time_window
 434 00ae 0346     		mov	r3, r0
 435 00b0 002B     		cmp	r3, #0
 436 00b2 3CD1     		bne	.L16
 437              		.loc 8 120 3
 438 00b4 1F4B     		ldr	r3, .L22
 439 00b6 0422     		movs	r2, #4
 440 00b8 1A60     		str	r2, [r3]
 441              		.loc 8 122 12
 442 00ba FFF7FEFF 		bl	chVTGetSystemTimeX
 443 00be 7860     		str	r0, [r7, #4]
 444              		.loc 8 123 5
 445 00c0 42F21070 		movw	r0, #10000
 446 00c4 FFF7FEFF 		bl	chThdSleep
 447              		.loc 8 124 5
 448 00c8 42F21071 		movw	r1, #10000
 449 00cc 7868     		ldr	r0, [r7, #4]
 450 00ce FFF7FEFF 		bl	chTimeAddX
 451 00d2 0446     		mov	r4, r0
 452 00d4 42F21371 		movw	r1, #10003
ARM GAS  C:\Users\DEVELO~1\AppData\Local\Temp\cc3dswDP.s 			page 9


 453 00d8 7868     		ldr	r0, [r7, #4]
 454 00da FFF7FEFF 		bl	chTimeAddX
 455 00de 0346     		mov	r3, r0
 456 00e0 154A     		ldr	r2, .L22+4
 457 00e2 1946     		mov	r1, r3
 458 00e4 2046     		mov	r0, r4
 459 00e6 FFF7FEFF 		bl	__test_assert_time_window
 460 00ea 0346     		mov	r3, r0
 461 00ec 002B     		cmp	r3, #0
 462 00ee 1ED1     		bne	.L16
 463              		.loc 8 132 3
 464 00f0 104B     		ldr	r3, .L22
 465 00f2 0522     		movs	r2, #5
 466 00f4 1A60     		str	r2, [r3]
 467              		.loc 8 134 12
 468 00f6 FFF7FEFF 		bl	chVTGetSystemTimeX
 469 00fa 7860     		str	r0, [r7, #4]
 470              		.loc 8 135 5
 471 00fc 6421     		movs	r1, #100
 472 00fe 7868     		ldr	r0, [r7, #4]
 473 0100 FFF7FEFF 		bl	chTimeAddX
 474 0104 0346     		mov	r3, r0
 475 0106 1846     		mov	r0, r3
 476 0108 FFF7FEFF 		bl	chThdSleepUntil
 477              		.loc 8 136 5
 478 010c 6421     		movs	r1, #100
 479 010e 7868     		ldr	r0, [r7, #4]
 480 0110 FFF7FEFF 		bl	chTimeAddX
 481 0114 0446     		mov	r4, r0
 482 0116 6721     		movs	r1, #103
 483 0118 7868     		ldr	r0, [r7, #4]
 484 011a FFF7FEFF 		bl	chTimeAddX
 485 011e 0346     		mov	r3, r0
 486 0120 054A     		ldr	r2, .L22+4
 487 0122 1946     		mov	r1, r3
 488 0124 2046     		mov	r0, r4
 489 0126 FFF7FEFF 		bl	__test_assert_time_window
 490 012a 0346     		mov	r3, r0
 491 012c 002B     		cmp	r3, #0
 492              	.L16:
 493              		.loc 8 141 1
 494 012e 0C37     		adds	r7, r7, #12
 495              		.cfi_def_cfa_offset 12
 496 0130 BD46     		mov	sp, r7
 497              		.cfi_def_cfa_register 13
 498              		@ sp needed
 499 0132 90BD     		pop	{r4, r7, pc}
 500              	.L23:
 501              		.align	2
 502              	.L22:
 503 0134 00000000 		.word	chtest
 504 0138 00000000 		.word	.LC0
 505              		.cfi_endproc
 506              	.LFE437:
 507              		.size	rt_test_005_001_execute, .-rt_test_005_001_execute
 508              		.section	.rodata
 509 0013 00       		.align	2
ARM GAS  C:\Users\DEVELO~1\AppData\Local\Temp\cc3dswDP.s 			page 10


 510              	.LC1:
 511 0014 54687265 		.ascii	"Thread Sleep functionality\000"
 511      61642053 
 511      6C656570 
 511      2066756E 
 511      6374696F 
 512              		.section	.rodata.rt_test_005_001,"a"
 513              		.align	2
 514              		.type	rt_test_005_001, %object
 515              		.size	rt_test_005_001, 16
 516              	rt_test_005_001:
 517 0000 14000000 		.word	.LC1
 518 0004 00000000 		.word	0
 519 0008 00000000 		.word	0
 520 000c 00000000 		.word	rt_test_005_001_execute
 521              		.section	.rodata
 522 002f 00       		.align	2
 523              	.LC2:
 524 0030 4500     		.ascii	"E\000"
 525 0032 0000     		.align	2
 526              	.LC3:
 527 0034 4400     		.ascii	"D\000"
 528 0036 0000     		.align	2
 529              	.LC4:
 530 0038 4300     		.ascii	"C\000"
 531 003a 0000     		.align	2
 532              	.LC5:
 533 003c 4200     		.ascii	"B\000"
 534 003e 0000     		.align	2
 535              	.LC6:
 536 0040 4100     		.ascii	"A\000"
 537 0042 0000     		.align	2
 538              	.LC7:
 539 0044 696E7661 		.ascii	"invalid sequence\000"
 539      6C696420 
 539      73657175 
 539      656E6365 
 539      00
 540 0055 000000   		.align	2
 541              	.LC8:
 542 0058 41424344 		.ascii	"ABCDE\000"
 542      4500
 543              		.section	.text.rt_test_005_002_execute,"ax",%progbits
 544              		.align	1
 545              		.syntax unified
 546              		.thumb
 547              		.thumb_func
 548              		.type	rt_test_005_002_execute, %function
 549              	rt_test_005_002_execute:
 550              	.LFB438:
 551              		.loc 8 168 43
 552              		.cfi_startproc
 553              		@ args = 0, pretend = 0, frame = 0
 554              		@ frame_needed = 1, uses_anonymous_args = 0
 555 0000 90B5     		push	{r4, r7, lr}
 556              		.cfi_def_cfa_offset 12
 557              		.cfi_offset 4, -12
ARM GAS  C:\Users\DEVELO~1\AppData\Local\Temp\cc3dswDP.s 			page 11


 558              		.cfi_offset 7, -8
 559              		.cfi_offset 14, -4
 560 0002 83B0     		sub	sp, sp, #12
 561              		.cfi_def_cfa_offset 24
 562 0004 02AF     		add	r7, sp, #8
 563              		.cfi_def_cfa 7, 16
 564              		.loc 8 172 3
 565 0006 934B     		ldr	r3, .L28
 566 0008 0122     		movs	r2, #1
 567 000a 1A60     		str	r2, [r3]
 568              		.loc 8 174 38
 569 000c 924B     		ldr	r3, .L28+4
 570 000e 1C68     		ldr	r4, [r3]
 571              		.loc 8 174 52
 572 0010 FFF7FEFF 		bl	chThdGetPriorityX
 573 0014 0346     		mov	r3, r0
 574              		.loc 8 174 18
 575 0016 5A1F     		subs	r2, r3, #5
 576 0018 904B     		ldr	r3, .L28+8
 577 001a 0093     		str	r3, [sp]
 578 001c 904B     		ldr	r3, .L28+12
 579 001e 4FF4D871 		mov	r1, #432
 580 0022 2046     		mov	r0, r4
 581 0024 FFF7FEFF 		bl	chThdCreateStatic
 582 0028 0346     		mov	r3, r0
 583              		.loc 8 174 16
 584 002a 8E4A     		ldr	r2, .L28+16
 585 002c 1360     		str	r3, [r2]
 586              		.loc 8 175 38
 587 002e 8A4B     		ldr	r3, .L28+4
 588 0030 5C68     		ldr	r4, [r3, #4]
 589              		.loc 8 175 52
 590 0032 FFF7FEFF 		bl	chThdGetPriorityX
 591 0036 0346     		mov	r3, r0
 592              		.loc 8 175 18
 593 0038 1A1F     		subs	r2, r3, #4
 594 003a 8B4B     		ldr	r3, .L28+20
 595 003c 0093     		str	r3, [sp]
 596 003e 884B     		ldr	r3, .L28+12
 597 0040 4FF4D871 		mov	r1, #432
 598 0044 2046     		mov	r0, r4
 599 0046 FFF7FEFF 		bl	chThdCreateStatic
 600 004a 0346     		mov	r3, r0
 601              		.loc 8 175 16
 602 004c 854A     		ldr	r2, .L28+16
 603 004e 5360     		str	r3, [r2, #4]
 604              		.loc 8 176 38
 605 0050 814B     		ldr	r3, .L28+4
 606 0052 9C68     		ldr	r4, [r3, #8]
 607              		.loc 8 176 52
 608 0054 FFF7FEFF 		bl	chThdGetPriorityX
 609 0058 0346     		mov	r3, r0
 610              		.loc 8 176 18
 611 005a DA1E     		subs	r2, r3, #3
 612 005c 834B     		ldr	r3, .L28+24
 613 005e 0093     		str	r3, [sp]
 614 0060 7F4B     		ldr	r3, .L28+12
ARM GAS  C:\Users\DEVELO~1\AppData\Local\Temp\cc3dswDP.s 			page 12


 615 0062 4FF4D871 		mov	r1, #432
 616 0066 2046     		mov	r0, r4
 617 0068 FFF7FEFF 		bl	chThdCreateStatic
 618 006c 0346     		mov	r3, r0
 619              		.loc 8 176 16
 620 006e 7D4A     		ldr	r2, .L28+16
 621 0070 9360     		str	r3, [r2, #8]
 622              		.loc 8 177 38
 623 0072 794B     		ldr	r3, .L28+4
 624 0074 DC68     		ldr	r4, [r3, #12]
 625              		.loc 8 177 52
 626 0076 FFF7FEFF 		bl	chThdGetPriorityX
 627 007a 0346     		mov	r3, r0
 628              		.loc 8 177 18
 629 007c 9A1E     		subs	r2, r3, #2
 630 007e 7C4B     		ldr	r3, .L28+28
 631 0080 0093     		str	r3, [sp]
 632 0082 774B     		ldr	r3, .L28+12
 633 0084 4FF4D871 		mov	r1, #432
 634 0088 2046     		mov	r0, r4
 635 008a FFF7FEFF 		bl	chThdCreateStatic
 636 008e 0346     		mov	r3, r0
 637              		.loc 8 177 16
 638 0090 744A     		ldr	r2, .L28+16
 639 0092 D360     		str	r3, [r2, #12]
 640              		.loc 8 178 38
 641 0094 704B     		ldr	r3, .L28+4
 642 0096 1C69     		ldr	r4, [r3, #16]
 643              		.loc 8 178 52
 644 0098 FFF7FEFF 		bl	chThdGetPriorityX
 645 009c 0346     		mov	r3, r0
 646              		.loc 8 178 18
 647 009e 5A1E     		subs	r2, r3, #1
 648 00a0 744B     		ldr	r3, .L28+32
 649 00a2 0093     		str	r3, [sp]
 650 00a4 6E4B     		ldr	r3, .L28+12
 651 00a6 4FF4D871 		mov	r1, #432
 652 00aa 2046     		mov	r0, r4
 653 00ac FFF7FEFF 		bl	chThdCreateStatic
 654 00b0 0346     		mov	r3, r0
 655              		.loc 8 178 16
 656 00b2 6C4A     		ldr	r2, .L28+16
 657 00b4 1361     		str	r3, [r2, #16]
 658              		.loc 8 179 5
 659 00b6 FFF7FEFF 		bl	test_wait_threads
 660              		.loc 8 180 5
 661 00ba 6F49     		ldr	r1, .L28+36
 662 00bc 6F48     		ldr	r0, .L28+40
 663 00be FFF7FEFF 		bl	__test_assert_sequence
 664 00c2 0346     		mov	r3, r0
 665 00c4 002B     		cmp	r3, #0
 666 00c6 40F0C180 		bne	.L24
 667              		.loc 8 186 3
 668 00ca 624B     		ldr	r3, .L28
 669 00cc 0222     		movs	r2, #2
 670 00ce 1A60     		str	r2, [r3]
 671              		.loc 8 188 38
ARM GAS  C:\Users\DEVELO~1\AppData\Local\Temp\cc3dswDP.s 			page 13


 672 00d0 614B     		ldr	r3, .L28+4
 673 00d2 1C69     		ldr	r4, [r3, #16]
 674              		.loc 8 188 52
 675 00d4 FFF7FEFF 		bl	chThdGetPriorityX
 676 00d8 0346     		mov	r3, r0
 677              		.loc 8 188 18
 678 00da 5A1E     		subs	r2, r3, #1
 679 00dc 654B     		ldr	r3, .L28+32
 680 00de 0093     		str	r3, [sp]
 681 00e0 5F4B     		ldr	r3, .L28+12
 682 00e2 4FF4D871 		mov	r1, #432
 683 00e6 2046     		mov	r0, r4
 684 00e8 FFF7FEFF 		bl	chThdCreateStatic
 685 00ec 0346     		mov	r3, r0
 686              		.loc 8 188 16
 687 00ee 5D4A     		ldr	r2, .L28+16
 688 00f0 1361     		str	r3, [r2, #16]
 689              		.loc 8 189 38
 690 00f2 594B     		ldr	r3, .L28+4
 691 00f4 DC68     		ldr	r4, [r3, #12]
 692              		.loc 8 189 52
 693 00f6 FFF7FEFF 		bl	chThdGetPriorityX
 694 00fa 0346     		mov	r3, r0
 695              		.loc 8 189 18
 696 00fc 9A1E     		subs	r2, r3, #2
 697 00fe 5C4B     		ldr	r3, .L28+28
 698 0100 0093     		str	r3, [sp]
 699 0102 574B     		ldr	r3, .L28+12
 700 0104 4FF4D871 		mov	r1, #432
 701 0108 2046     		mov	r0, r4
 702 010a FFF7FEFF 		bl	chThdCreateStatic
 703 010e 0346     		mov	r3, r0
 704              		.loc 8 189 16
 705 0110 544A     		ldr	r2, .L28+16
 706 0112 D360     		str	r3, [r2, #12]
 707              		.loc 8 190 38
 708 0114 504B     		ldr	r3, .L28+4
 709 0116 9C68     		ldr	r4, [r3, #8]
 710              		.loc 8 190 52
 711 0118 FFF7FEFF 		bl	chThdGetPriorityX
 712 011c 0346     		mov	r3, r0
 713              		.loc 8 190 18
 714 011e DA1E     		subs	r2, r3, #3
 715 0120 524B     		ldr	r3, .L28+24
 716 0122 0093     		str	r3, [sp]
 717 0124 4E4B     		ldr	r3, .L28+12
 718 0126 4FF4D871 		mov	r1, #432
 719 012a 2046     		mov	r0, r4
 720 012c FFF7FEFF 		bl	chThdCreateStatic
 721 0130 0346     		mov	r3, r0
 722              		.loc 8 190 16
 723 0132 4C4A     		ldr	r2, .L28+16
 724 0134 9360     		str	r3, [r2, #8]
 725              		.loc 8 191 38
 726 0136 484B     		ldr	r3, .L28+4
 727 0138 5C68     		ldr	r4, [r3, #4]
 728              		.loc 8 191 52
ARM GAS  C:\Users\DEVELO~1\AppData\Local\Temp\cc3dswDP.s 			page 14


 729 013a FFF7FEFF 		bl	chThdGetPriorityX
 730 013e 0346     		mov	r3, r0
 731              		.loc 8 191 18
 732 0140 1A1F     		subs	r2, r3, #4
 733 0142 494B     		ldr	r3, .L28+20
 734 0144 0093     		str	r3, [sp]
 735 0146 464B     		ldr	r3, .L28+12
 736 0148 4FF4D871 		mov	r1, #432
 737 014c 2046     		mov	r0, r4
 738 014e FFF7FEFF 		bl	chThdCreateStatic
 739 0152 0346     		mov	r3, r0
 740              		.loc 8 191 16
 741 0154 434A     		ldr	r2, .L28+16
 742 0156 5360     		str	r3, [r2, #4]
 743              		.loc 8 192 38
 744 0158 3F4B     		ldr	r3, .L28+4
 745 015a 1C68     		ldr	r4, [r3]
 746              		.loc 8 192 52
 747 015c FFF7FEFF 		bl	chThdGetPriorityX
 748 0160 0346     		mov	r3, r0
 749              		.loc 8 192 18
 750 0162 5A1F     		subs	r2, r3, #5
 751 0164 3D4B     		ldr	r3, .L28+8
 752 0166 0093     		str	r3, [sp]
 753 0168 3D4B     		ldr	r3, .L28+12
 754 016a 4FF4D871 		mov	r1, #432
 755 016e 2046     		mov	r0, r4
 756 0170 FFF7FEFF 		bl	chThdCreateStatic
 757 0174 0346     		mov	r3, r0
 758              		.loc 8 192 16
 759 0176 3B4A     		ldr	r2, .L28+16
 760 0178 1360     		str	r3, [r2]
 761              		.loc 8 193 5
 762 017a FFF7FEFF 		bl	test_wait_threads
 763              		.loc 8 194 5
 764 017e 3E49     		ldr	r1, .L28+36
 765 0180 3E48     		ldr	r0, .L28+40
 766 0182 FFF7FEFF 		bl	__test_assert_sequence
 767 0186 0346     		mov	r3, r0
 768 0188 002B     		cmp	r3, #0
 769 018a 5FD1     		bne	.L24
 770              		.loc 8 200 3
 771 018c 314B     		ldr	r3, .L28
 772 018e 0322     		movs	r2, #3
 773 0190 1A60     		str	r2, [r3]
 774              		.loc 8 202 38
 775 0192 314B     		ldr	r3, .L28+4
 776 0194 5C68     		ldr	r4, [r3, #4]
 777              		.loc 8 202 52
 778 0196 FFF7FEFF 		bl	chThdGetPriorityX
 779 019a 0346     		mov	r3, r0
 780              		.loc 8 202 18
 781 019c 1A1F     		subs	r2, r3, #4
 782 019e 324B     		ldr	r3, .L28+20
 783 01a0 0093     		str	r3, [sp]
 784 01a2 2F4B     		ldr	r3, .L28+12
 785 01a4 4FF4D871 		mov	r1, #432
ARM GAS  C:\Users\DEVELO~1\AppData\Local\Temp\cc3dswDP.s 			page 15


 786 01a8 2046     		mov	r0, r4
 787 01aa FFF7FEFF 		bl	chThdCreateStatic
 788 01ae 0346     		mov	r3, r0
 789              		.loc 8 202 16
 790 01b0 2C4A     		ldr	r2, .L28+16
 791 01b2 5360     		str	r3, [r2, #4]
 792              		.loc 8 203 38
 793 01b4 284B     		ldr	r3, .L28+4
 794 01b6 1C68     		ldr	r4, [r3]
 795              		.loc 8 203 52
 796 01b8 FFF7FEFF 		bl	chThdGetPriorityX
 797 01bc 0346     		mov	r3, r0
 798              		.loc 8 203 18
 799 01be 5A1F     		subs	r2, r3, #5
 800 01c0 264B     		ldr	r3, .L28+8
 801 01c2 0093     		str	r3, [sp]
 802 01c4 264B     		ldr	r3, .L28+12
 803 01c6 4FF4D871 		mov	r1, #432
 804 01ca 2046     		mov	r0, r4
 805 01cc FFF7FEFF 		bl	chThdCreateStatic
 806 01d0 0346     		mov	r3, r0
 807              		.loc 8 203 16
 808 01d2 244A     		ldr	r2, .L28+16
 809 01d4 1360     		str	r3, [r2]
 810              		.loc 8 204 38
 811 01d6 204B     		ldr	r3, .L28+4
 812 01d8 1C69     		ldr	r4, [r3, #16]
 813              		.loc 8 204 52
 814 01da FFF7FEFF 		bl	chThdGetPriorityX
 815 01de 0346     		mov	r3, r0
 816              		.loc 8 204 18
 817 01e0 5A1E     		subs	r2, r3, #1
 818 01e2 244B     		ldr	r3, .L28+32
 819 01e4 0093     		str	r3, [sp]
 820 01e6 1E4B     		ldr	r3, .L28+12
 821 01e8 4FF4D871 		mov	r1, #432
 822 01ec 2046     		mov	r0, r4
 823 01ee FFF7FEFF 		bl	chThdCreateStatic
 824 01f2 0346     		mov	r3, r0
 825              		.loc 8 204 16
 826 01f4 1B4A     		ldr	r2, .L28+16
 827 01f6 1361     		str	r3, [r2, #16]
 828              		.loc 8 205 38
 829 01f8 174B     		ldr	r3, .L28+4
 830 01fa DC68     		ldr	r4, [r3, #12]
 831              		.loc 8 205 52
 832 01fc FFF7FEFF 		bl	chThdGetPriorityX
 833 0200 0346     		mov	r3, r0
 834              		.loc 8 205 18
 835 0202 9A1E     		subs	r2, r3, #2
 836 0204 1A4B     		ldr	r3, .L28+28
 837 0206 0093     		str	r3, [sp]
 838 0208 154B     		ldr	r3, .L28+12
 839 020a 4FF4D871 		mov	r1, #432
 840 020e 2046     		mov	r0, r4
 841 0210 FFF7FEFF 		bl	chThdCreateStatic
 842 0214 0346     		mov	r3, r0
ARM GAS  C:\Users\DEVELO~1\AppData\Local\Temp\cc3dswDP.s 			page 16


 843              		.loc 8 205 16
 844 0216 134A     		ldr	r2, .L28+16
 845 0218 D360     		str	r3, [r2, #12]
 846              		.loc 8 206 38
 847 021a 0F4B     		ldr	r3, .L28+4
 848 021c 9C68     		ldr	r4, [r3, #8]
 849              		.loc 8 206 52
 850 021e FFF7FEFF 		bl	chThdGetPriorityX
 851 0222 0346     		mov	r3, r0
 852              		.loc 8 206 18
 853 0224 DA1E     		subs	r2, r3, #3
 854 0226 114B     		ldr	r3, .L28+24
 855 0228 0093     		str	r3, [sp]
 856 022a 0D4B     		ldr	r3, .L28+12
 857 022c 4FF4D871 		mov	r1, #432
 858 0230 2046     		mov	r0, r4
 859 0232 FFF7FEFF 		bl	chThdCreateStatic
 860 0236 0346     		mov	r3, r0
 861              		.loc 8 206 16
 862 0238 0A4A     		ldr	r2, .L28+16
 863 023a 9360     		str	r3, [r2, #8]
 864              		.loc 8 207 5
 865 023c FFF7FEFF 		bl	test_wait_threads
 866              		.loc 8 208 5
 867 0240 0D49     		ldr	r1, .L28+36
 868 0242 0E48     		ldr	r0, .L28+40
 869 0244 FFF7FEFF 		bl	__test_assert_sequence
 870 0248 0346     		mov	r3, r0
 871 024a 002B     		cmp	r3, #0
 872              	.L24:
 873              		.loc 8 211 1
 874 024c 0437     		adds	r7, r7, #4
 875              		.cfi_def_cfa_offset 12
 876 024e BD46     		mov	sp, r7
 877              		.cfi_def_cfa_register 13
 878              		@ sp needed
 879 0250 90BD     		pop	{r4, r7, pc}
 880              	.L29:
 881 0252 00BF     		.align	2
 882              	.L28:
 883 0254 00000000 		.word	chtest
 884 0258 00000000 		.word	wa
 885 025c 30000000 		.word	.LC2
 886 0260 00000000 		.word	thread
 887 0264 00000000 		.word	threads
 888 0268 34000000 		.word	.LC3
 889 026c 38000000 		.word	.LC4
 890 0270 3C000000 		.word	.LC5
 891 0274 40000000 		.word	.LC6
 892 0278 44000000 		.word	.LC7
 893 027c 58000000 		.word	.LC8
 894              		.cfi_endproc
 895              	.LFE438:
 896              		.size	rt_test_005_002_execute, .-rt_test_005_002_execute
 897              		.section	.rodata
 898 005e 0000     		.align	2
 899              	.LC9:
ARM GAS  C:\Users\DEVELO~1\AppData\Local\Temp\cc3dswDP.s 			page 17


 900 0060 52656164 		.ascii	"Ready List functionality, threads priority order\000"
 900      79204C69 
 900      73742066 
 900      756E6374 
 900      696F6E61 
 901              		.section	.rodata.rt_test_005_002,"a"
 902              		.align	2
 903              		.type	rt_test_005_002, %object
 904              		.size	rt_test_005_002, 16
 905              	rt_test_005_002:
 906 0000 60000000 		.word	.LC9
 907 0004 00000000 		.word	0
 908 0008 00000000 		.word	0
 909 000c 00000000 		.word	rt_test_005_002_execute
 910              		.section	.rodata
 911 0091 000000   		.align	2
 912              	.LC10:
 913 0094 756E6578 		.ascii	"unexpected returned priority level\000"
 913      70656374 
 913      65642072 
 913      65747572 
 913      6E656420 
 914 00b7 00       		.align	2
 915              	.LC11:
 916 00b8 756E6578 		.ascii	"unexpected priority level\000"
 916      70656374 
 916      65642070 
 916      72696F72 
 916      69747920 
 917              		.section	.text.rt_test_005_003_execute,"ax",%progbits
 918              		.align	1
 919              		.syntax unified
 920              		.thumb
 921              		.thumb_func
 922              		.type	rt_test_005_003_execute, %function
 923              	rt_test_005_003_execute:
 924              	.LFB439:
 925              		.loc 8 235 43
 926              		.cfi_startproc
 927              		@ args = 0, pretend = 0, frame = 8
 928              		@ frame_needed = 1, uses_anonymous_args = 0
 929 0000 80B5     		push	{r7, lr}
 930              		.cfi_def_cfa_offset 8
 931              		.cfi_offset 7, -8
 932              		.cfi_offset 14, -4
 933 0002 82B0     		sub	sp, sp, #8
 934              		.cfi_def_cfa_offset 16
 935 0004 00AF     		add	r7, sp, #0
 936              		.cfi_def_cfa_register 7
 937              		.loc 8 240 3
 938 0006 294B     		ldr	r3, .L35
 939 0008 0122     		movs	r2, #1
 940 000a 1A60     		str	r2, [r3]
 941              		.loc 8 242 12
 942 000c FFF7FEFF 		bl	chThdGetPriorityX
 943 0010 7860     		str	r0, [r7, #4]
 944              		.loc 8 243 10
ARM GAS  C:\Users\DEVELO~1\AppData\Local\Temp\cc3dswDP.s 			page 18


 945 0012 7B68     		ldr	r3, [r7, #4]
 946 0014 0133     		adds	r3, r3, #1
 947 0016 1846     		mov	r0, r3
 948 0018 FFF7FEFF 		bl	chThdSetPriority
 949 001c 3860     		str	r0, [r7]
 950              		.loc 8 244 5
 951 001e 3A68     		ldr	r2, [r7]
 952 0020 7B68     		ldr	r3, [r7, #4]
 953 0022 9A42     		cmp	r2, r3
 954 0024 0CBF     		ite	eq
 955 0026 0123     		moveq	r3, #1
 956 0028 0023     		movne	r3, #0
 957 002a DBB2     		uxtb	r3, r3
 958 002c 2049     		ldr	r1, .L35+4
 959 002e 1846     		mov	r0, r3
 960 0030 FFF7FEFF 		bl	__test_assert
 961 0034 0346     		mov	r3, r0
 962 0036 002B     		cmp	r3, #0
 963 0038 35D1     		bne	.L30
 964              		.loc 8 245 5
 965 003a FFF7FEFF 		bl	chThdGetPriorityX
 966 003e 0246     		mov	r2, r0
 967 0040 7B68     		ldr	r3, [r7, #4]
 968 0042 0133     		adds	r3, r3, #1
 969 0044 9A42     		cmp	r2, r3
 970 0046 0CBF     		ite	eq
 971 0048 0123     		moveq	r3, #1
 972 004a 0023     		movne	r3, #0
 973 004c DBB2     		uxtb	r3, r3
 974 004e 1949     		ldr	r1, .L35+8
 975 0050 1846     		mov	r0, r3
 976 0052 FFF7FEFF 		bl	__test_assert
 977 0056 0346     		mov	r3, r0
 978 0058 002B     		cmp	r3, #0
 979 005a 24D1     		bne	.L30
 980              		.loc 8 251 3
 981 005c 134B     		ldr	r3, .L35
 982 005e 0222     		movs	r2, #2
 983 0060 1A60     		str	r2, [r3]
 984              		.loc 8 253 10
 985 0062 3868     		ldr	r0, [r7]
 986 0064 FFF7FEFF 		bl	chThdSetPriority
 987 0068 3860     		str	r0, [r7]
 988              		.loc 8 254 5
 989 006a 7B68     		ldr	r3, [r7, #4]
 990 006c 0133     		adds	r3, r3, #1
 991 006e 3A68     		ldr	r2, [r7]
 992 0070 9A42     		cmp	r2, r3
 993 0072 0CBF     		ite	eq
 994 0074 0123     		moveq	r3, #1
 995 0076 0023     		movne	r3, #0
 996 0078 DBB2     		uxtb	r3, r3
 997 007a 0D49     		ldr	r1, .L35+4
 998 007c 1846     		mov	r0, r3
 999 007e FFF7FEFF 		bl	__test_assert
 1000 0082 0346     		mov	r3, r0
 1001 0084 002B     		cmp	r3, #0
ARM GAS  C:\Users\DEVELO~1\AppData\Local\Temp\cc3dswDP.s 			page 19


 1002 0086 0ED1     		bne	.L30
 1003              		.loc 8 255 5
 1004 0088 FFF7FEFF 		bl	chThdGetPriorityX
 1005 008c 0246     		mov	r2, r0
 1006 008e 7B68     		ldr	r3, [r7, #4]
 1007 0090 9342     		cmp	r3, r2
 1008 0092 0CBF     		ite	eq
 1009 0094 0123     		moveq	r3, #1
 1010 0096 0023     		movne	r3, #0
 1011 0098 DBB2     		uxtb	r3, r3
 1012 009a 0649     		ldr	r1, .L35+8
 1013 009c 1846     		mov	r0, r3
 1014 009e FFF7FEFF 		bl	__test_assert
 1015 00a2 0346     		mov	r3, r0
 1016 00a4 002B     		cmp	r3, #0
 1017              	.L30:
 1018              		.loc 8 258 1
 1019 00a6 0837     		adds	r7, r7, #8
 1020              		.cfi_def_cfa_offset 8
 1021 00a8 BD46     		mov	sp, r7
 1022              		.cfi_def_cfa_register 13
 1023              		@ sp needed
 1024 00aa 80BD     		pop	{r7, pc}
 1025              	.L36:
 1026              		.align	2
 1027              	.L35:
 1028 00ac 00000000 		.word	chtest
 1029 00b0 94000000 		.word	.LC10
 1030 00b4 B8000000 		.word	.LC11
 1031              		.cfi_endproc
 1032              	.LFE439:
 1033              		.size	rt_test_005_003_execute, .-rt_test_005_003_execute
 1034              		.section	.rodata
 1035 00d2 0000     		.align	2
 1036              	.LC12:
 1037 00d4 5072696F 		.ascii	"Priority change test\000"
 1037      72697479 
 1037      20636861 
 1037      6E676520 
 1037      74657374 
 1038              		.section	.rodata.rt_test_005_003,"a"
 1039              		.align	2
 1040              		.type	rt_test_005_003, %object
 1041              		.size	rt_test_005_003, 16
 1042              	rt_test_005_003:
 1043 0000 D4000000 		.word	.LC12
 1044 0004 00000000 		.word	0
 1045 0008 00000000 		.word	0
 1046 000c 00000000 		.word	rt_test_005_003_execute
 1047              		.section	.rodata
 1048 00e9 000000   		.align	2
 1049              	.LC13:
 1050 00ec 756E6578 		.ascii	"unexpected returned real priority level\000"
 1050      70656374 
 1050      65642072 
 1050      65747572 
 1050      6E656420 
ARM GAS  C:\Users\DEVELO~1\AppData\Local\Temp\cc3dswDP.s 			page 20


 1051              		.align	2
 1052              	.LC14:
 1053 0114 756E6578 		.ascii	"unexpected real priority level\000"
 1053      70656374 
 1053      65642072 
 1053      65616C20 
 1053      7072696F 
 1054              		.section	.text.rt_test_005_004_execute,"ax",%progbits
 1055              		.align	1
 1056              		.syntax unified
 1057              		.thumb
 1058              		.thumb_func
 1059              		.type	rt_test_005_004_execute, %function
 1060              	rt_test_005_004_execute:
 1061              	.LFB440:
 1062              		.loc 8 290 43
 1063              		.cfi_startproc
 1064              		@ args = 0, pretend = 0, frame = 8
 1065              		@ frame_needed = 1, uses_anonymous_args = 0
 1066 0000 80B5     		push	{r7, lr}
 1067              		.cfi_def_cfa_offset 8
 1068              		.cfi_offset 7, -8
 1069              		.cfi_offset 14, -4
 1070 0002 82B0     		sub	sp, sp, #8
 1071              		.cfi_def_cfa_offset 16
 1072 0004 00AF     		add	r7, sp, #0
 1073              		.cfi_def_cfa_register 7
 1074              		.loc 8 294 3
 1075 0006 544B     		ldr	r3, .L46
 1076 0008 0122     		movs	r2, #1
 1077 000a 1A60     		str	r2, [r3]
 1078              		.loc 8 296 12
 1079 000c FFF7FEFF 		bl	chThdGetPriorityX
 1080 0010 7860     		str	r0, [r7, #4]
 1081              		.loc 8 297 5
 1082 0012 FFF7FEFF 		bl	chThdGetSelfX
 1083 0016 0346     		mov	r3, r0
 1084              		.loc 8 297 38
 1085 0018 9A68     		ldr	r2, [r3, #8]
 1086 001a 0232     		adds	r2, r2, #2
 1087 001c 9A60     		str	r2, [r3, #8]
 1088              		.loc 8 298 5
 1089 001e FFF7FEFF 		bl	chThdGetPriorityX
 1090 0022 0246     		mov	r2, r0
 1091 0024 7B68     		ldr	r3, [r7, #4]
 1092 0026 0233     		adds	r3, r3, #2
 1093 0028 9A42     		cmp	r2, r3
 1094 002a 0CBF     		ite	eq
 1095 002c 0123     		moveq	r3, #1
 1096 002e 0023     		movne	r3, #0
 1097 0030 DBB2     		uxtb	r3, r3
 1098 0032 4A49     		ldr	r1, .L46+4
 1099 0034 1846     		mov	r0, r3
 1100 0036 FFF7FEFF 		bl	__test_assert
 1101 003a 0346     		mov	r3, r0
 1102 003c 002B     		cmp	r3, #0
 1103 003e 40F08880 		bne	.L37
ARM GAS  C:\Users\DEVELO~1\AppData\Local\Temp\cc3dswDP.s 			page 21


 1104              		.loc 8 304 3
 1105 0042 454B     		ldr	r3, .L46
 1106 0044 0222     		movs	r2, #2
 1107 0046 1A60     		str	r2, [r3]
 1108              		.loc 8 306 10
 1109 0048 7B68     		ldr	r3, [r7, #4]
 1110 004a 0133     		adds	r3, r3, #1
 1111 004c 1846     		mov	r0, r3
 1112 004e FFF7FEFF 		bl	chThdSetPriority
 1113 0052 3860     		str	r0, [r7]
 1114              		.loc 8 307 5
 1115 0054 3A68     		ldr	r2, [r7]
 1116 0056 7B68     		ldr	r3, [r7, #4]
 1117 0058 9A42     		cmp	r2, r3
 1118 005a 0CBF     		ite	eq
 1119 005c 0123     		moveq	r3, #1
 1120 005e 0023     		movne	r3, #0
 1121 0060 DBB2     		uxtb	r3, r3
 1122 0062 3F49     		ldr	r1, .L46+8
 1123 0064 1846     		mov	r0, r3
 1124 0066 FFF7FEFF 		bl	__test_assert
 1125 006a 0346     		mov	r3, r0
 1126 006c 002B     		cmp	r3, #0
 1127 006e 70D1     		bne	.L37
 1128              		.loc 8 308 5
 1129 0070 FFF7FEFF 		bl	chThdGetSelfX
 1130 0074 0346     		mov	r3, r0
 1131 0076 9A68     		ldr	r2, [r3, #8]
 1132 0078 7B68     		ldr	r3, [r7, #4]
 1133 007a 0233     		adds	r3, r3, #2
 1134 007c 9A42     		cmp	r2, r3
 1135 007e 0CBF     		ite	eq
 1136 0080 0123     		moveq	r3, #1
 1137 0082 0023     		movne	r3, #0
 1138 0084 DBB2     		uxtb	r3, r3
 1139 0086 3549     		ldr	r1, .L46+4
 1140 0088 1846     		mov	r0, r3
 1141 008a FFF7FEFF 		bl	__test_assert
 1142 008e 0346     		mov	r3, r0
 1143 0090 002B     		cmp	r3, #0
 1144 0092 5ED1     		bne	.L37
 1145              		.loc 8 309 5
 1146 0094 FFF7FEFF 		bl	chThdGetSelfX
 1147 0098 0346     		mov	r3, r0
 1148 009a 1A6C     		ldr	r2, [r3, #64]
 1149 009c 7B68     		ldr	r3, [r7, #4]
 1150 009e 0133     		adds	r3, r3, #1
 1151 00a0 9A42     		cmp	r2, r3
 1152 00a2 0CBF     		ite	eq
 1153 00a4 0123     		moveq	r3, #1
 1154 00a6 0023     		movne	r3, #0
 1155 00a8 DBB2     		uxtb	r3, r3
 1156 00aa 2E49     		ldr	r1, .L46+12
 1157 00ac 1846     		mov	r0, r3
 1158 00ae FFF7FEFF 		bl	__test_assert
 1159 00b2 0346     		mov	r3, r0
 1160 00b4 002B     		cmp	r3, #0
ARM GAS  C:\Users\DEVELO~1\AppData\Local\Temp\cc3dswDP.s 			page 22


 1161 00b6 4CD1     		bne	.L37
 1162              		.loc 8 314 3
 1163 00b8 274B     		ldr	r3, .L46
 1164 00ba 0322     		movs	r2, #3
 1165 00bc 1A60     		str	r2, [r3]
 1166              		.loc 8 316 10
 1167 00be 7B68     		ldr	r3, [r7, #4]
 1168 00c0 0333     		adds	r3, r3, #3
 1169 00c2 1846     		mov	r0, r3
 1170 00c4 FFF7FEFF 		bl	chThdSetPriority
 1171 00c8 3860     		str	r0, [r7]
 1172              		.loc 8 317 5
 1173 00ca 7B68     		ldr	r3, [r7, #4]
 1174 00cc 0133     		adds	r3, r3, #1
 1175 00ce 3A68     		ldr	r2, [r7]
 1176 00d0 9A42     		cmp	r2, r3
 1177 00d2 0CBF     		ite	eq
 1178 00d4 0123     		moveq	r3, #1
 1179 00d6 0023     		movne	r3, #0
 1180 00d8 DBB2     		uxtb	r3, r3
 1181 00da 2149     		ldr	r1, .L46+8
 1182 00dc 1846     		mov	r0, r3
 1183 00de FFF7FEFF 		bl	__test_assert
 1184 00e2 0346     		mov	r3, r0
 1185 00e4 002B     		cmp	r3, #0
 1186 00e6 34D1     		bne	.L37
 1187              		.loc 8 318 5
 1188 00e8 FFF7FEFF 		bl	chThdGetSelfX
 1189 00ec 0346     		mov	r3, r0
 1190 00ee 9A68     		ldr	r2, [r3, #8]
 1191 00f0 7B68     		ldr	r3, [r7, #4]
 1192 00f2 0333     		adds	r3, r3, #3
 1193 00f4 9A42     		cmp	r2, r3
 1194 00f6 0CBF     		ite	eq
 1195 00f8 0123     		moveq	r3, #1
 1196 00fa 0023     		movne	r3, #0
 1197 00fc DBB2     		uxtb	r3, r3
 1198 00fe 1749     		ldr	r1, .L46+4
 1199 0100 1846     		mov	r0, r3
 1200 0102 FFF7FEFF 		bl	__test_assert
 1201 0106 0346     		mov	r3, r0
 1202 0108 002B     		cmp	r3, #0
 1203 010a 22D1     		bne	.L37
 1204              		.loc 8 319 5
 1205 010c FFF7FEFF 		bl	chThdGetSelfX
 1206 0110 0346     		mov	r3, r0
 1207 0112 1A6C     		ldr	r2, [r3, #64]
 1208 0114 7B68     		ldr	r3, [r7, #4]
 1209 0116 0333     		adds	r3, r3, #3
 1210 0118 9A42     		cmp	r2, r3
 1211 011a 0CBF     		ite	eq
 1212 011c 0123     		moveq	r3, #1
 1213 011e 0023     		movne	r3, #0
 1214 0120 DBB2     		uxtb	r3, r3
 1215 0122 1149     		ldr	r1, .L46+16
 1216 0124 1846     		mov	r0, r3
 1217 0126 FFF7FEFF 		bl	__test_assert
ARM GAS  C:\Users\DEVELO~1\AppData\Local\Temp\cc3dswDP.s 			page 23


 1218 012a 0346     		mov	r3, r0
 1219 012c 002B     		cmp	r3, #0
 1220 012e 10D1     		bne	.L37
 1221              		.loc 8 324 3
 1222 0130 094B     		ldr	r3, .L46
 1223 0132 0422     		movs	r2, #4
 1224 0134 1A60     		str	r2, [r3]
 1225              		.loc 8 326 5
 1226 0136 FFF7FEFF 		bl	chSysLock
 1227              		.loc 8 327 5
 1228 013a FFF7FEFF 		bl	chThdGetSelfX
 1229 013e 0246     		mov	r2, r0
 1230              		.loc 8 327 38
 1231 0140 7B68     		ldr	r3, [r7, #4]
 1232 0142 9360     		str	r3, [r2, #8]
 1233              		.loc 8 328 5
 1234 0144 FFF7FEFF 		bl	chThdGetSelfX
 1235 0148 0246     		mov	r2, r0
 1236              		.loc 8 328 31
 1237 014a 7B68     		ldr	r3, [r7, #4]
 1238 014c 1364     		str	r3, [r2, #64]
 1239              		.loc 8 329 5
 1240 014e FFF7FEFF 		bl	chSysUnlock
 1241              	.L37:
 1242              		.loc 8 332 1
 1243 0152 0837     		adds	r7, r7, #8
 1244              		.cfi_def_cfa_offset 8
 1245 0154 BD46     		mov	sp, r7
 1246              		.cfi_def_cfa_register 13
 1247              		@ sp needed
 1248 0156 80BD     		pop	{r7, pc}
 1249              	.L47:
 1250              		.align	2
 1251              	.L46:
 1252 0158 00000000 		.word	chtest
 1253 015c B8000000 		.word	.LC11
 1254 0160 94000000 		.word	.LC10
 1255 0164 EC000000 		.word	.LC13
 1256 0168 14010000 		.word	.LC14
 1257              		.cfi_endproc
 1258              	.LFE440:
 1259              		.size	rt_test_005_004_execute, .-rt_test_005_004_execute
 1260              		.section	.rodata
 1261 0133 00       		.align	2
 1262              	.LC15:
 1263 0134 5072696F 		.ascii	"Priority change test with Priority Inheritance\000"
 1263      72697479 
 1263      20636861 
 1263      6E676520 
 1263      74657374 
 1264              		.section	.rodata.rt_test_005_004,"a"
 1265              		.align	2
 1266              		.type	rt_test_005_004, %object
 1267              		.size	rt_test_005_004, 16
 1268              	rt_test_005_004:
 1269 0000 34010000 		.word	.LC15
 1270 0004 00000000 		.word	0
ARM GAS  C:\Users\DEVELO~1\AppData\Local\Temp\cc3dswDP.s 			page 24


 1271 0008 00000000 		.word	0
 1272 000c 00000000 		.word	rt_test_005_004_execute
 1273              		.global	rt_test_sequence_005_array
 1274              		.section	.rodata.rt_test_sequence_005_array,"a"
 1275              		.align	2
 1276              		.type	rt_test_sequence_005_array, %object
 1277              		.size	rt_test_sequence_005_array, 20
 1278              	rt_test_sequence_005_array:
 1279 0000 00000000 		.word	rt_test_005_001
 1280 0004 00000000 		.word	rt_test_005_002
 1281 0008 00000000 		.word	rt_test_005_003
 1282 000c 00000000 		.word	rt_test_005_004
 1283 0010 00000000 		.word	0
 1284              		.global	rt_test_sequence_005
 1285              		.section	.rodata
 1286 0163 00       		.align	2
 1287              	.LC16:
 1288 0164 54687265 		.ascii	"Threads Functionality\000"
 1288      61647320 
 1288      46756E63 
 1288      74696F6E 
 1288      616C6974 
 1289              		.section	.rodata.rt_test_sequence_005,"a"
 1290              		.align	2
 1291              		.type	rt_test_sequence_005, %object
 1292              		.size	rt_test_sequence_005, 8
 1293              	rt_test_sequence_005:
 1294 0000 64010000 		.word	.LC16
 1295 0004 00000000 		.word	rt_test_sequence_005_array
 1296              		.text
 1297              	.Letext0:
 1298              		.file 9 "c:\\chibistudio\\tools\\gnu tools arm embedded\\11.3 2022.08\\lib\\gcc\\arm-none-eabi\\11
 1299              		.file 10 "c:\\chibistudio\\tools\\gnu tools arm embedded\\11.3 2022.08\\arm-none-eabi\\include\\ma
 1300              		.file 11 "c:\\chibistudio\\tools\\gnu tools arm embedded\\11.3 2022.08\\arm-none-eabi\\include\\sy
 1301              		.file 12 "../../../os/common/ports/ARM-common/chtypes.h"
 1302              		.file 13 "../../../os/rt/include/chearly.h"
 1303              		.file 14 "../../../os/rt/include/chobjects.h"
 1304              		.file 15 "../../../os/rt/include/chrfcu.h"
 1305              		.file 16 "../../../os/rt/include/chdebug.h"
 1306              		.file 17 "../../../os/rt/include/chlists.h"
 1307              		.file 18 "../../../os/rt/include/chtrace.h"
 1308              		.file 19 "../../../os/rt/include/chsem.h"
 1309              		.file 20 "../../../os/rt/include/chmtx.h"
 1310              		.file 21 "../../../os/hal/include/hal_streams.h"
 1311              		.file 22 "../../../os/test/include/ch_test.h"
 1312              		.file 23 "../../../test/rt/source/test/rt_test_sequence_005.h"
 1313              		.file 24 "../../../test/rt/source/test/rt_test_root.h"
 1314              		.file 25 "../../../os/hal/include/hal_st.h"