ARM GAS  C:\Users\DEVELO~1\AppData\Local\Temp\ccF0RT7m.s 			page 1


   1              		.cpu cortex-m7
   2              		.arch armv7e-m
   3              		.fpu softvfp
   4              		.eabi_attribute 20, 1
   5              		.eabi_attribute 21, 1
   6              		.eabi_attribute 23, 3
   7              		.eabi_attribute 24, 1
   8              		.eabi_attribute 25, 1
   9              		.eabi_attribute 26, 1
  10              		.eabi_attribute 30, 6
  11              		.eabi_attribute 34, 1
  12              		.eabi_attribute 18, 4
  13              		.file	"stm32h7xx_hal_chibios.c"
  14              		.text
  15              	.Ltext0:
  16              		.cfi_sections	.debug_frame
  17              		.section	.text.port_timer_get_time,"ax",%progbits
  18              		.align	1
  19              		.syntax unified
  20              		.thumb
  21              		.thumb_func
  22              		.type	port_timer_get_time, %function
  23              	port_timer_get_time:
  24              	.LFB196:
  25              		.file 1 "../../../os/hal/osal/rt-nil/chcore_timer.h"
  26              		.loc 1 111 51
  27              		.cfi_startproc
  28              		@ args = 0, pretend = 0, frame = 0
  29              		@ frame_needed = 1, uses_anonymous_args = 0
  30 0000 80B5     		push	{r7, lr}
  31              		.cfi_def_cfa_offset 8
  32              		.cfi_offset 7, -8
  33              		.cfi_offset 14, -4
  34 0002 00AF     		add	r7, sp, #0
  35              		.cfi_def_cfa_register 7
  36              		.loc 1 113 10
  37 0004 FFF7FEFF 		bl	stGetCounter
  38 0008 0346     		mov	r3, r0
  39              		.loc 1 114 1
  40 000a 1846     		mov	r0, r3
  41 000c 80BD     		pop	{r7, pc}
  42              		.cfi_endproc
  43              	.LFE196:
  44              		.size	port_timer_get_time, .-port_timer_get_time
  45              		.section	.text.chVTGetSystemTimeX,"ax",%progbits
  46              		.align	1
  47              		.syntax unified
  48              		.thumb
  49              		.thumb_func
  50              		.type	chVTGetSystemTimeX, %function
  51              	chVTGetSystemTimeX:
  52              	.LFB209:
  53              		.file 2 "../../../os/rt/include/chvt.h"
  54              		.loc 2 122 50
  55              		.cfi_startproc
  56              		@ args = 0, pretend = 0, frame = 0
  57              		@ frame_needed = 1, uses_anonymous_args = 0
ARM GAS  C:\Users\DEVELO~1\AppData\Local\Temp\ccF0RT7m.s 			page 2


  58 0000 80B5     		push	{r7, lr}
  59              		.cfi_def_cfa_offset 8
  60              		.cfi_offset 7, -8
  61              		.cfi_offset 14, -4
  62 0002 00AF     		add	r7, sp, #0
  63              		.cfi_def_cfa_register 7
  64              		.loc 2 127 10
  65 0004 FFF7FEFF 		bl	port_timer_get_time
  66 0008 0346     		mov	r3, r0
  67              		.loc 2 129 1
  68 000a 1846     		mov	r0, r3
  69 000c 80BD     		pop	{r7, pc}
  70              		.cfi_endproc
  71              	.LFE209:
  72              		.size	chVTGetSystemTimeX, .-chVTGetSystemTimeX
  73              		.global	uwTick
  74              		.section	.bss.uwTick,"aw",%nobits
  75              		.align	2
  76              		.type	uwTick, %object
  77              		.size	uwTick, 4
  78              	uwTick:
  79 0000 00000000 		.space	4
  80              		.global	uwTickPrio
  81              		.section	.bss.uwTickPrio,"aw",%nobits
  82              		.align	2
  83              		.type	uwTickPrio, %object
  84              		.size	uwTickPrio, 4
  85              	uwTickPrio:
  86 0000 00000000 		.space	4
  87              		.global	uwTickFreq
  88              		.section	.data.uwTickFreq,"aw"
  89              		.type	uwTickFreq, %object
  90              		.size	uwTickFreq, 1
  91              	uwTickFreq:
  92 0000 01       		.byte	1
  93              		.section	.text.HAL_Init,"ax",%progbits
  94              		.align	1
  95              		.global	HAL_Init
  96              		.syntax unified
  97              		.thumb
  98              		.thumb_func
  99              		.type	HAL_Init, %function
 100              	HAL_Init:
 101              	.LFB415:
 102              		.file 3 "drivers/stm32h7xx_hal_chibios.c"
 103              		.loc 3 29 34
 104              		.cfi_startproc
 105              		@ args = 0, pretend = 0, frame = 0
 106              		@ frame_needed = 1, uses_anonymous_args = 0
 107              		@ link register save eliminated.
 108 0000 80B4     		push	{r7}
 109              		.cfi_def_cfa_offset 4
 110              		.cfi_offset 7, -4
 111 0002 00AF     		add	r7, sp, #0
 112              		.cfi_def_cfa_register 7
 113              		.loc 3 30 10
 114 0004 0023     		movs	r3, #0
ARM GAS  C:\Users\DEVELO~1\AppData\Local\Temp\ccF0RT7m.s 			page 3


 115              		.loc 3 31 1
 116 0006 1846     		mov	r0, r3
 117 0008 BD46     		mov	sp, r7
 118              		.cfi_def_cfa_register 13
 119              		@ sp needed
 120 000a 80BC     		pop	{r7}
 121              		.cfi_restore 7
 122              		.cfi_def_cfa_offset 0
 123 000c 7047     		bx	lr
 124              		.cfi_endproc
 125              	.LFE415:
 126              		.size	HAL_Init, .-HAL_Init
 127              		.section	.text.HAL_DeInit,"ax",%progbits
 128              		.align	1
 129              		.global	HAL_DeInit
 130              		.syntax unified
 131              		.thumb
 132              		.thumb_func
 133              		.type	HAL_DeInit, %function
 134              	HAL_DeInit:
 135              	.LFB416:
 136              		.loc 3 33 36
 137              		.cfi_startproc
 138              		@ args = 0, pretend = 0, frame = 0
 139              		@ frame_needed = 1, uses_anonymous_args = 0
 140              		@ link register save eliminated.
 141 0000 80B4     		push	{r7}
 142              		.cfi_def_cfa_offset 4
 143              		.cfi_offset 7, -4
 144 0002 00AF     		add	r7, sp, #0
 145              		.cfi_def_cfa_register 7
 146              		.loc 3 34 10
 147 0004 0023     		movs	r3, #0
 148              		.loc 3 35 1
 149 0006 1846     		mov	r0, r3
 150 0008 BD46     		mov	sp, r7
 151              		.cfi_def_cfa_register 13
 152              		@ sp needed
 153 000a 80BC     		pop	{r7}
 154              		.cfi_restore 7
 155              		.cfi_def_cfa_offset 0
 156 000c 7047     		bx	lr
 157              		.cfi_endproc
 158              	.LFE416:
 159              		.size	HAL_DeInit, .-HAL_DeInit
 160              		.section	.text.HAL_InitTick,"ax",%progbits
 161              		.align	1
 162              		.global	HAL_InitTick
 163              		.syntax unified
 164              		.thumb
 165              		.thumb_func
 166              		.type	HAL_InitTick, %function
 167              	HAL_InitTick:
 168              	.LFB417:
 169              		.loc 3 37 55
 170              		.cfi_startproc
 171              		@ args = 0, pretend = 0, frame = 8
ARM GAS  C:\Users\DEVELO~1\AppData\Local\Temp\ccF0RT7m.s 			page 4


 172              		@ frame_needed = 1, uses_anonymous_args = 0
 173              		@ link register save eliminated.
 174 0000 80B4     		push	{r7}
 175              		.cfi_def_cfa_offset 4
 176              		.cfi_offset 7, -4
 177 0002 83B0     		sub	sp, sp, #12
 178              		.cfi_def_cfa_offset 16
 179 0004 00AF     		add	r7, sp, #0
 180              		.cfi_def_cfa_register 7
 181 0006 7860     		str	r0, [r7, #4]
 182              		.loc 3 39 10
 183 0008 0023     		movs	r3, #0
 184              		.loc 3 40 1
 185 000a 1846     		mov	r0, r3
 186 000c 0C37     		adds	r7, r7, #12
 187              		.cfi_def_cfa_offset 4
 188 000e BD46     		mov	sp, r7
 189              		.cfi_def_cfa_register 13
 190              		@ sp needed
 191 0010 80BC     		pop	{r7}
 192              		.cfi_restore 7
 193              		.cfi_def_cfa_offset 0
 194 0012 7047     		bx	lr
 195              		.cfi_endproc
 196              	.LFE417:
 197              		.size	HAL_InitTick, .-HAL_InitTick
 198              		.section	.text.HAL_IncTick,"ax",%progbits
 199              		.align	1
 200              		.global	HAL_IncTick
 201              		.syntax unified
 202              		.thumb
 203              		.thumb_func
 204              		.type	HAL_IncTick, %function
 205              	HAL_IncTick:
 206              	.LFB418:
 207              		.loc 3 42 24
 208              		.cfi_startproc
 209              		@ args = 0, pretend = 0, frame = 0
 210              		@ frame_needed = 1, uses_anonymous_args = 0
 211              		@ link register save eliminated.
 212 0000 80B4     		push	{r7}
 213              		.cfi_def_cfa_offset 4
 214              		.cfi_offset 7, -4
 215 0002 00AF     		add	r7, sp, #0
 216              		.cfi_def_cfa_register 7
 217              		.loc 3 44 1
 218 0004 00BF     		nop
 219 0006 BD46     		mov	sp, r7
 220              		.cfi_def_cfa_register 13
 221              		@ sp needed
 222 0008 80BC     		pop	{r7}
 223              		.cfi_restore 7
 224              		.cfi_def_cfa_offset 0
 225 000a 7047     		bx	lr
 226              		.cfi_endproc
 227              	.LFE418:
 228              		.size	HAL_IncTick, .-HAL_IncTick
ARM GAS  C:\Users\DEVELO~1\AppData\Local\Temp\ccF0RT7m.s 			page 5


 229              		.global	__aeabi_uldivmod
 230              		.section	.text.HAL_GetTick,"ax",%progbits
 231              		.align	1
 232              		.global	HAL_GetTick
 233              		.syntax unified
 234              		.thumb
 235              		.thumb_func
 236              		.type	HAL_GetTick, %function
 237              	HAL_GetTick:
 238              	.LFB419:
 239              		.loc 3 46 28
 240              		.cfi_startproc
 241              		@ args = 0, pretend = 0, frame = 8
 242              		@ frame_needed = 1, uses_anonymous_args = 0
 243 0000 2DE9B04F 		push	{r4, r5, r7, r8, r9, r10, fp, lr}
 244              		.cfi_def_cfa_offset 32
 245              		.cfi_offset 4, -32
 246              		.cfi_offset 5, -28
 247              		.cfi_offset 7, -24
 248              		.cfi_offset 8, -20
 249              		.cfi_offset 9, -16
 250              		.cfi_offset 10, -12
 251              		.cfi_offset 11, -8
 252              		.cfi_offset 14, -4
 253 0004 82B0     		sub	sp, sp, #8
 254              		.cfi_def_cfa_offset 40
 255 0006 00AF     		add	r7, sp, #0
 256              		.cfi_def_cfa_register 7
 257              		.loc 3 47 12
 258 0008 FFF7FEFF 		bl	chVTGetSystemTimeX
 259 000c 0346     		mov	r3, r0
 260 000e 0022     		movs	r2, #0
 261 0010 9846     		mov	r8, r3
 262 0012 9146     		mov	r9, r2
 263 0014 4246     		mov	r2, r8
 264 0016 4B46     		mov	r3, r9
 265 0018 4FF00000 		mov	r0, #0
 266 001c 4FF00001 		mov	r1, #0
 267 0020 5901     		lsls	r1, r3, #5
 268 0022 41EAD261 		orr	r1, r1, r2, lsr #27
 269 0026 5001     		lsls	r0, r2, #5
 270 0028 0246     		mov	r2, r0
 271 002a 0B46     		mov	r3, r1
 272 002c B2EB0804 		subs	r4, r2, r8
 273 0030 63EB0905 		sbc	r5, r3, r9
 274 0034 4FF00002 		mov	r2, #0
 275 0038 4FF00003 		mov	r3, #0
 276 003c AB00     		lsls	r3, r5, #2
 277 003e 43EA9473 		orr	r3, r3, r4, lsr #30
 278 0042 A200     		lsls	r2, r4, #2
 279 0044 1446     		mov	r4, r2
 280 0046 1D46     		mov	r5, r3
 281 0048 14EB080A 		adds	r10, r4, r8
 282 004c 45EB090B 		adc	fp, r5, r9
 283 0050 4FF00002 		mov	r2, #0
 284 0054 4FF00003 		mov	r3, #0
 285 0058 4FEACB03 		lsl	r3, fp, #3
ARM GAS  C:\Users\DEVELO~1\AppData\Local\Temp\ccF0RT7m.s 			page 6


 286 005c 43EA5A73 		orr	r3, r3, r10, lsr #29
 287 0060 4FEACA02 		lsl	r2, r10, #3
 288 0064 9246     		mov	r10, r2
 289 0066 9B46     		mov	fp, r3
 290 0068 5246     		mov	r2, r10
 291 006a 5B46     		mov	r3, fp
 292 006c 42F20F71 		movw	r1, #9999
 293 0070 5118     		adds	r1, r2, r1
 294 0072 3960     		str	r1, [r7]
 295 0074 43F10003 		adc	r3, r3, #0
 296 0078 7B60     		str	r3, [r7, #4]
 297 007a 42F21072 		movw	r2, #10000
 298 007e 4FF00003 		mov	r3, #0
 299 0082 D7E90001 		ldrd	r0, [r7]
 300 0086 FFF7FEFF 		bl	__aeabi_uldivmod
 301 008a 0246     		mov	r2, r0
 302 008c 0B46     		mov	r3, r1
 303              		.loc 3 47 10
 304 008e 044B     		ldr	r3, .L14
 305 0090 1A60     		str	r2, [r3]
 306              		.loc 3 48 10
 307 0092 034B     		ldr	r3, .L14
 308 0094 1B68     		ldr	r3, [r3]
 309              		.loc 3 49 1
 310 0096 1846     		mov	r0, r3
 311 0098 0837     		adds	r7, r7, #8
 312              		.cfi_def_cfa_offset 32
 313 009a BD46     		mov	sp, r7
 314              		.cfi_def_cfa_register 13
 315              		@ sp needed
 316 009c BDE8B08F 		pop	{r4, r5, r7, r8, r9, r10, fp, pc}
 317              	.L15:
 318              		.align	2
 319              	.L14:
 320 00a0 00000000 		.word	uwTick
 321              		.cfi_endproc
 322              	.LFE419:
 323              		.size	HAL_GetTick, .-HAL_GetTick
 324              		.section	.text.HAL_Delay,"ax",%progbits
 325              		.align	1
 326              		.global	HAL_Delay
 327              		.syntax unified
 328              		.thumb
 329              		.thumb_func
 330              		.type	HAL_Delay, %function
 331              	HAL_Delay:
 332              	.LFB420:
 333              		.loc 3 51 32
 334              		.cfi_startproc
 335              		@ args = 0, pretend = 0, frame = 32
 336              		@ frame_needed = 1, uses_anonymous_args = 0
 337 0000 2DE9F04F 		push	{r4, r5, r6, r7, r8, r9, r10, fp, lr}
 338              		.cfi_def_cfa_offset 36
 339              		.cfi_offset 4, -36
 340              		.cfi_offset 5, -32
 341              		.cfi_offset 6, -28
 342              		.cfi_offset 7, -24
ARM GAS  C:\Users\DEVELO~1\AppData\Local\Temp\ccF0RT7m.s 			page 7


 343              		.cfi_offset 8, -20
 344              		.cfi_offset 9, -16
 345              		.cfi_offset 10, -12
 346              		.cfi_offset 11, -8
 347              		.cfi_offset 14, -4
 348 0004 89B0     		sub	sp, sp, #36
 349              		.cfi_def_cfa_offset 72
 350 0006 00AF     		add	r7, sp, #0
 351              		.cfi_def_cfa_register 7
 352 0008 F861     		str	r0, [r7, #28]
 353              		.loc 3 52 6
 354 000a F969     		ldr	r1, [r7, #28]
 355 000c 0029     		cmp	r1, #0
 356 000e 5DD0     		beq	.L19
 357              		.loc 3 55 3
 358 0010 F969     		ldr	r1, [r7, #28]
 359 0012 0020     		movs	r0, #0
 360 0014 8846     		mov	r8, r1
 361 0016 8146     		mov	r9, r0
 362 0018 C7E90289 		strd	r8, [r7, #8]
 363 001c 4FF00000 		mov	r0, #0
 364 0020 4FF00001 		mov	r1, #0
 365 0024 C7E90401 		strd	r0, [r7, #16]
 366 0028 F968     		ldr	r1, [r7, #12]
 367 002a 8E00     		lsls	r6, r1, #2
 368 002c 7E61     		str	r6, [r7, #20]
 369 002e 7969     		ldr	r1, [r7, #20]
 370 0030 B868     		ldr	r0, [r7, #8]
 371 0032 41EA9071 		orr	r1, r1, r0, lsr #30
 372 0036 7961     		str	r1, [r7, #20]
 373 0038 B968     		ldr	r1, [r7, #8]
 374 003a 8900     		lsls	r1, r1, #2
 375 003c 3961     		str	r1, [r7, #16]
 376 003e D7E90401 		ldrd	r0, [r7, #16]
 377 0042 0646     		mov	r6, r0
 378 0044 16EB0804 		adds	r4, r6, r8
 379 0048 41EB0905 		adc	r5, r1, r9
 380 004c 4FF00000 		mov	r0, #0
 381 0050 4FF00001 		mov	r1, #0
 382 0054 E900     		lsls	r1, r5, #3
 383 0056 41EA5471 		orr	r1, r1, r4, lsr #29
 384 005a E000     		lsls	r0, r4, #3
 385 005c 0446     		mov	r4, r0
 386 005e 0D46     		mov	r5, r1
 387 0060 B4EB0802 		subs	r2, r4, r8
 388 0064 65EB0903 		sbc	r3, r5, r9
 389 0068 4FF00000 		mov	r0, #0
 390 006c 4FF00001 		mov	r1, #0
 391 0070 1901     		lsls	r1, r3, #4
 392 0072 41EA1271 		orr	r1, r1, r2, lsr #28
 393 0076 1001     		lsls	r0, r2, #4
 394 0078 0246     		mov	r2, r0
 395 007a 0B46     		mov	r3, r1
 396 007c 12EB080A 		adds	r10, r2, r8
 397 0080 43EB090B 		adc	fp, r3, r9
 398 0084 4FF00002 		mov	r2, #0
 399 0088 4FF00003 		mov	r3, #0
ARM GAS  C:\Users\DEVELO~1\AppData\Local\Temp\ccF0RT7m.s 			page 8


 400 008c 4FEA0B13 		lsl	r3, fp, #4
 401 0090 43EA1A73 		orr	r3, r3, r10, lsr #28
 402 0094 4FEA0A12 		lsl	r2, r10, #4
 403 0098 9246     		mov	r10, r2
 404 009a 9B46     		mov	fp, r3
 405 009c 5246     		mov	r2, r10
 406 009e 5B46     		mov	r3, fp
 407 00a0 40F2E731 		movw	r1, #999
 408 00a4 5118     		adds	r1, r2, r1
 409 00a6 3960     		str	r1, [r7]
 410 00a8 43F10003 		adc	r3, r3, #0
 411 00ac 7B60     		str	r3, [r7, #4]
 412 00ae 4FF47A72 		mov	r2, #1000
 413 00b2 4FF00003 		mov	r3, #0
 414 00b6 D7E90001 		ldrd	r0, [r7]
 415 00ba FFF7FEFF 		bl	__aeabi_uldivmod
 416 00be 0246     		mov	r2, r0
 417 00c0 0B46     		mov	r3, r1
 418 00c2 1346     		mov	r3, r2
 419 00c4 1846     		mov	r0, r3
 420 00c6 FFF7FEFF 		bl	chThdSleep
 421 00ca 00E0     		b	.L16
 422              	.L19:
 423              		.loc 3 53 5
 424 00cc 00BF     		nop
 425              	.L16:
 426              		.loc 3 56 1
 427 00ce 2437     		adds	r7, r7, #36
 428              		.cfi_def_cfa_offset 36
 429 00d0 BD46     		mov	sp, r7
 430              		.cfi_def_cfa_register 13
 431              		@ sp needed
 432 00d2 BDE8F08F 		pop	{r4, r5, r6, r7, r8, r9, r10, fp, pc}
 433              		.cfi_endproc
 434              	.LFE420:
 435              		.size	HAL_Delay, .-HAL_Delay
 436              		.section	.text.HAL_SetTickFreq,"ax",%progbits
 437              		.align	1
 438              		.global	HAL_SetTickFreq
 439              		.syntax unified
 440              		.thumb
 441              		.thumb_func
 442              		.type	HAL_SetTickFreq, %function
 443              	HAL_SetTickFreq:
 444              	.LFB421:
 445              		.loc 3 58 61
 446              		.cfi_startproc
 447              		@ args = 0, pretend = 0, frame = 8
 448              		@ frame_needed = 1, uses_anonymous_args = 0
 449              		@ link register save eliminated.
 450 0000 80B4     		push	{r7}
 451              		.cfi_def_cfa_offset 4
 452              		.cfi_offset 7, -4
 453 0002 83B0     		sub	sp, sp, #12
 454              		.cfi_def_cfa_offset 16
 455 0004 00AF     		add	r7, sp, #0
 456              		.cfi_def_cfa_register 7
ARM GAS  C:\Users\DEVELO~1\AppData\Local\Temp\ccF0RT7m.s 			page 9


 457 0006 0346     		mov	r3, r0
 458 0008 FB71     		strb	r3, [r7, #7]
 459              		.loc 3 59 14
 460 000a 044A     		ldr	r2, .L22
 461 000c FB79     		ldrb	r3, [r7, #7]
 462 000e 1370     		strb	r3, [r2]
 463              		.loc 3 60 10
 464 0010 0023     		movs	r3, #0
 465              		.loc 3 61 1
 466 0012 1846     		mov	r0, r3
 467 0014 0C37     		adds	r7, r7, #12
 468              		.cfi_def_cfa_offset 4
 469 0016 BD46     		mov	sp, r7
 470              		.cfi_def_cfa_register 13
 471              		@ sp needed
 472 0018 80BC     		pop	{r7}
 473              		.cfi_restore 7
 474              		.cfi_def_cfa_offset 0
 475 001a 7047     		bx	lr
 476              	.L23:
 477              		.align	2
 478              	.L22:
 479 001c 00000000 		.word	uwTickFreq
 480              		.cfi_endproc
 481              	.LFE421:
 482              		.size	HAL_SetTickFreq, .-HAL_SetTickFreq
 483              		.section	.text.HAL_GetTickFreq,"ax",%progbits
 484              		.align	1
 485              		.global	HAL_GetTickFreq
 486              		.syntax unified
 487              		.thumb
 488              		.thumb_func
 489              		.type	HAL_GetTickFreq, %function
 490              	HAL_GetTickFreq:
 491              	.LFB422:
 492              		.loc 3 63 43
 493              		.cfi_startproc
 494              		@ args = 0, pretend = 0, frame = 0
 495              		@ frame_needed = 1, uses_anonymous_args = 0
 496              		@ link register save eliminated.
 497 0000 80B4     		push	{r7}
 498              		.cfi_def_cfa_offset 4
 499              		.cfi_offset 7, -4
 500 0002 00AF     		add	r7, sp, #0
 501              		.cfi_def_cfa_register 7
 502              		.loc 3 64 10
 503 0004 024B     		ldr	r3, .L26
 504 0006 1B78     		ldrb	r3, [r3]	@ zero_extendqisi2
 505              		.loc 3 65 1
 506 0008 1846     		mov	r0, r3
 507 000a BD46     		mov	sp, r7
 508              		.cfi_def_cfa_register 13
 509              		@ sp needed
 510 000c 80BC     		pop	{r7}
 511              		.cfi_restore 7
 512              		.cfi_def_cfa_offset 0
 513 000e 7047     		bx	lr
ARM GAS  C:\Users\DEVELO~1\AppData\Local\Temp\ccF0RT7m.s 			page 10


 514              	.L27:
 515              		.align	2
 516              	.L26:
 517 0010 00000000 		.word	uwTickFreq
 518              		.cfi_endproc
 519              	.LFE422:
 520              		.size	HAL_GetTickFreq, .-HAL_GetTickFreq
 521              		.section	.text.HAL_GetTickPrio,"ax",%progbits
 522              		.align	1
 523              		.global	HAL_GetTickPrio
 524              		.syntax unified
 525              		.thumb
 526              		.thumb_func
 527              		.type	HAL_GetTickPrio, %function
 528              	HAL_GetTickPrio:
 529              	.LFB423:
 530              		.loc 3 67 32
 531              		.cfi_startproc
 532              		@ args = 0, pretend = 0, frame = 0
 533              		@ frame_needed = 1, uses_anonymous_args = 0
 534              		@ link register save eliminated.
 535 0000 80B4     		push	{r7}
 536              		.cfi_def_cfa_offset 4
 537              		.cfi_offset 7, -4
 538 0002 00AF     		add	r7, sp, #0
 539              		.cfi_def_cfa_register 7
 540              		.loc 3 68 10
 541 0004 024B     		ldr	r3, .L30
 542 0006 1B68     		ldr	r3, [r3]
 543              		.loc 3 69 1
 544 0008 1846     		mov	r0, r3
 545 000a BD46     		mov	sp, r7
 546              		.cfi_def_cfa_register 13
 547              		@ sp needed
 548 000c 80BC     		pop	{r7}
 549              		.cfi_restore 7
 550              		.cfi_def_cfa_offset 0
 551 000e 7047     		bx	lr
 552              	.L31:
 553              		.align	2
 554              	.L30:
 555 0010 00000000 		.word	uwTickPrio
 556              		.cfi_endproc
 557              	.LFE423:
 558              		.size	HAL_GetTickPrio, .-HAL_GetTickPrio
 559              		.section	.text.HAL_GetHalVersion,"ax",%progbits
 560              		.align	1
 561              		.global	HAL_GetHalVersion
 562              		.syntax unified
 563              		.thumb
 564              		.thumb_func
 565              		.type	HAL_GetHalVersion, %function
 566              	HAL_GetHalVersion:
 567              	.LFB424:
 568              		.loc 3 71 34
 569              		.cfi_startproc
 570              		@ args = 0, pretend = 0, frame = 0
ARM GAS  C:\Users\DEVELO~1\AppData\Local\Temp\ccF0RT7m.s 			page 11


 571              		@ frame_needed = 1, uses_anonymous_args = 0
 572              		@ link register save eliminated.
 573 0000 80B4     		push	{r7}
 574              		.cfi_def_cfa_offset 4
 575              		.cfi_offset 7, -4
 576 0002 00AF     		add	r7, sp, #0
 577              		.cfi_def_cfa_register 7
 578              		.loc 3 72 10
 579 0004 024B     		ldr	r3, .L34
 580              		.loc 3 73 1
 581 0006 1846     		mov	r0, r3
 582 0008 BD46     		mov	sp, r7
 583              		.cfi_def_cfa_register 13
 584              		@ sp needed
 585 000a 80BC     		pop	{r7}
 586              		.cfi_restore 7
 587              		.cfi_def_cfa_offset 0
 588 000c 7047     		bx	lr
 589              	.L35:
 590 000e 00BF     		.align	2
 591              	.L34:
 592 0010 00050B01 		.word	17499392
 593              		.cfi_endproc
 594              	.LFE424:
 595              		.size	HAL_GetHalVersion, .-HAL_GetHalVersion
 596              		.section	.text.HAL_GetREVID,"ax",%progbits
 597              		.align	1
 598              		.global	HAL_GetREVID
 599              		.syntax unified
 600              		.thumb
 601              		.thumb_func
 602              		.type	HAL_GetREVID, %function
 603              	HAL_GetREVID:
 604              	.LFB425:
 605              		.loc 3 75 29
 606              		.cfi_startproc
 607              		@ args = 0, pretend = 0, frame = 0
 608              		@ frame_needed = 1, uses_anonymous_args = 0
 609              		@ link register save eliminated.
 610 0000 80B4     		push	{r7}
 611              		.cfi_def_cfa_offset 4
 612              		.cfi_offset 7, -4
 613 0002 00AF     		add	r7, sp, #0
 614              		.cfi_def_cfa_register 7
 615              		.loc 3 76 18
 616 0004 034B     		ldr	r3, .L38
 617 0006 1B68     		ldr	r3, [r3]
 618              		.loc 3 76 28
 619 0008 1B0C     		lsrs	r3, r3, #16
 620              		.loc 3 77 1
 621 000a 1846     		mov	r0, r3
 622 000c BD46     		mov	sp, r7
 623              		.cfi_def_cfa_register 13
 624              		@ sp needed
 625 000e 80BC     		pop	{r7}
 626              		.cfi_restore 7
 627              		.cfi_def_cfa_offset 0
ARM GAS  C:\Users\DEVELO~1\AppData\Local\Temp\ccF0RT7m.s 			page 12


 628 0010 7047     		bx	lr
 629              	.L39:
 630 0012 00BF     		.align	2
 631              	.L38:
 632 0014 0010005C 		.word	1543507968
 633              		.cfi_endproc
 634              	.LFE425:
 635              		.size	HAL_GetREVID, .-HAL_GetREVID
 636              		.section	.text.HAL_GetDEVID,"ax",%progbits
 637              		.align	1
 638              		.global	HAL_GetDEVID
 639              		.syntax unified
 640              		.thumb
 641              		.thumb_func
 642              		.type	HAL_GetDEVID, %function
 643              	HAL_GetDEVID:
 644              	.LFB426:
 645              		.loc 3 79 29
 646              		.cfi_startproc
 647              		@ args = 0, pretend = 0, frame = 0
 648              		@ frame_needed = 1, uses_anonymous_args = 0
 649              		@ link register save eliminated.
 650 0000 80B4     		push	{r7}
 651              		.cfi_def_cfa_offset 4
 652              		.cfi_offset 7, -4
 653 0002 00AF     		add	r7, sp, #0
 654              		.cfi_def_cfa_register 7
 655              		.loc 3 80 17
 656 0004 034B     		ldr	r3, .L42
 657 0006 1B68     		ldr	r3, [r3]
 658              		.loc 3 80 26
 659 0008 C3F30B03 		ubfx	r3, r3, #0, #12
 660              		.loc 3 81 1
 661 000c 1846     		mov	r0, r3
 662 000e BD46     		mov	sp, r7
 663              		.cfi_def_cfa_register 13
 664              		@ sp needed
 665 0010 80BC     		pop	{r7}
 666              		.cfi_restore 7
 667              		.cfi_def_cfa_offset 0
 668 0012 7047     		bx	lr
 669              	.L43:
 670              		.align	2
 671              	.L42:
 672 0014 0010005C 		.word	1543507968
 673              		.cfi_endproc
 674              	.LFE426:
 675              		.size	HAL_GetDEVID, .-HAL_GetDEVID
 676              		.section	.text.HAL_GetUIDw0,"ax",%progbits
 677              		.align	1
 678              		.global	HAL_GetUIDw0
 679              		.syntax unified
 680              		.thumb
 681              		.thumb_func
 682              		.type	HAL_GetUIDw0, %function
 683              	HAL_GetUIDw0:
 684              	.LFB427:
ARM GAS  C:\Users\DEVELO~1\AppData\Local\Temp\ccF0RT7m.s 			page 13


 685              		.loc 3 83 29
 686              		.cfi_startproc
 687              		@ args = 0, pretend = 0, frame = 0
 688              		@ frame_needed = 1, uses_anonymous_args = 0
 689              		@ link register save eliminated.
 690 0000 80B4     		push	{r7}
 691              		.cfi_def_cfa_offset 4
 692              		.cfi_offset 7, -4
 693 0002 00AF     		add	r7, sp, #0
 694              		.cfi_def_cfa_register 7
 695              		.loc 3 84 10
 696 0004 024B     		ldr	r3, .L46
 697 0006 1B68     		ldr	r3, [r3]
 698              		.loc 3 85 1
 699 0008 1846     		mov	r0, r3
 700 000a BD46     		mov	sp, r7
 701              		.cfi_def_cfa_register 13
 702              		@ sp needed
 703 000c 80BC     		pop	{r7}
 704              		.cfi_restore 7
 705              		.cfi_def_cfa_offset 0
 706 000e 7047     		bx	lr
 707              	.L47:
 708              		.align	2
 709              	.L46:
 710 0010 00E8F11F 		.word	535947264
 711              		.cfi_endproc
 712              	.LFE427:
 713              		.size	HAL_GetUIDw0, .-HAL_GetUIDw0
 714              		.section	.text.HAL_GetUIDw1,"ax",%progbits
 715              		.align	1
 716              		.global	HAL_GetUIDw1
 717              		.syntax unified
 718              		.thumb
 719              		.thumb_func
 720              		.type	HAL_GetUIDw1, %function
 721              	HAL_GetUIDw1:
 722              	.LFB428:
 723              		.loc 3 87 29
 724              		.cfi_startproc
 725              		@ args = 0, pretend = 0, frame = 0
 726              		@ frame_needed = 1, uses_anonymous_args = 0
 727              		@ link register save eliminated.
 728 0000 80B4     		push	{r7}
 729              		.cfi_def_cfa_offset 4
 730              		.cfi_offset 7, -4
 731 0002 00AF     		add	r7, sp, #0
 732              		.cfi_def_cfa_register 7
 733              		.loc 3 88 10
 734 0004 024B     		ldr	r3, .L50
 735 0006 1B68     		ldr	r3, [r3]
 736              		.loc 3 89 1
 737 0008 1846     		mov	r0, r3
 738 000a BD46     		mov	sp, r7
 739              		.cfi_def_cfa_register 13
 740              		@ sp needed
 741 000c 80BC     		pop	{r7}
ARM GAS  C:\Users\DEVELO~1\AppData\Local\Temp\ccF0RT7m.s 			page 14


 742              		.cfi_restore 7
 743              		.cfi_def_cfa_offset 0
 744 000e 7047     		bx	lr
 745              	.L51:
 746              		.align	2
 747              	.L50:
 748 0010 04E8F11F 		.word	535947268
 749              		.cfi_endproc
 750              	.LFE428:
 751              		.size	HAL_GetUIDw1, .-HAL_GetUIDw1
 752              		.section	.text.HAL_GetUIDw2,"ax",%progbits
 753              		.align	1
 754              		.global	HAL_GetUIDw2
 755              		.syntax unified
 756              		.thumb
 757              		.thumb_func
 758              		.type	HAL_GetUIDw2, %function
 759              	HAL_GetUIDw2:
 760              	.LFB429:
 761              		.loc 3 91 29
 762              		.cfi_startproc
 763              		@ args = 0, pretend = 0, frame = 0
 764              		@ frame_needed = 1, uses_anonymous_args = 0
 765              		@ link register save eliminated.
 766 0000 80B4     		push	{r7}
 767              		.cfi_def_cfa_offset 4
 768              		.cfi_offset 7, -4
 769 0002 00AF     		add	r7, sp, #0
 770              		.cfi_def_cfa_register 7
 771              		.loc 3 92 10
 772 0004 024B     		ldr	r3, .L54
 773 0006 1B68     		ldr	r3, [r3]
 774              		.loc 3 93 1
 775 0008 1846     		mov	r0, r3
 776 000a BD46     		mov	sp, r7
 777              		.cfi_def_cfa_register 13
 778              		@ sp needed
 779 000c 80BC     		pop	{r7}
 780              		.cfi_restore 7
 781              		.cfi_def_cfa_offset 0
 782 000e 7047     		bx	lr
 783              	.L55:
 784              		.align	2
 785              	.L54:
 786 0010 08E8F11F 		.word	535947272
 787              		.cfi_endproc
 788              	.LFE429:
 789              		.size	HAL_GetUIDw2, .-HAL_GetUIDw2
 790              		.section	.text.HAL_RCCEx_GetPeriphCLKFreq,"ax",%progbits
 791              		.align	1
 792              		.global	HAL_RCCEx_GetPeriphCLKFreq
 793              		.syntax unified
 794              		.thumb
 795              		.thumb_func
 796              		.type	HAL_RCCEx_GetPeriphCLKFreq, %function
 797              	HAL_RCCEx_GetPeriphCLKFreq:
 798              	.LFB430:
ARM GAS  C:\Users\DEVELO~1\AppData\Local\Temp\ccF0RT7m.s 			page 15


 799              		.loc 3 95 57
 800              		.cfi_startproc
 801              		@ args = 0, pretend = 0, frame = 8
 802              		@ frame_needed = 1, uses_anonymous_args = 0
 803              		@ link register save eliminated.
 804 0000 80B4     		push	{r7}
 805              		.cfi_def_cfa_offset 4
 806              		.cfi_offset 7, -4
 807 0002 83B0     		sub	sp, sp, #12
 808              		.cfi_def_cfa_offset 16
 809 0004 00AF     		add	r7, sp, #0
 810              		.cfi_def_cfa_register 7
 811 0006 C7E90001 		strd	r0, [r7]
 812              		.loc 3 96 3
 813 000a D7E90023 		ldrd	r2, [r7]
 814 000e A2F50061 		sub	r1, r2, #2048
 815 0012 0B43     		orrs	r3, r3, r1
 816 0014 28D0     		beq	.L57
 817 0016 D7E90023 		ldrd	r2, [r7]
 818 001a 40F60101 		movw	r1, #2049
 819 001e 8A42     		cmp	r2, r1
 820 0020 73F10003 		sbcs	r3, r3, #0
 821 0024 22D2     		bcs	.L58
 822 0026 D7E90023 		ldrd	r2, [r7]
 823 002a A2F58061 		sub	r1, r2, #1024
 824 002e 0B43     		orrs	r3, r3, r1
 825 0030 18D0     		beq	.L59
 826 0032 D7E90023 		ldrd	r2, [r7]
 827 0036 40F20141 		movw	r1, #1025
 828 003a 8A42     		cmp	r2, r1
 829 003c 73F10003 		sbcs	r3, r3, #0
 830 0040 14D2     		bcs	.L58
 831 0042 D7E90023 		ldrd	r2, [r7]
 832 0046 A2F58071 		sub	r1, r2, #256
 833 004a 0B43     		orrs	r3, r3, r1
 834 004c 06D0     		beq	.L60
 835 004e D7E90023 		ldrd	r2, [r7]
 836 0052 A2F50071 		sub	r1, r2, #512
 837 0056 0B43     		orrs	r3, r3, r1
 838 0058 02D0     		beq	.L61
 839 005a 07E0     		b	.L58
 840              	.L60:
 841              		.loc 3 98 14
 842 005c 064B     		ldr	r3, .L63
 843 005e 06E0     		b	.L62
 844              	.L61:
 845              		.loc 3 101 14
 846 0060 064B     		ldr	r3, .L63+4
 847 0062 04E0     		b	.L62
 848              	.L59:
 849              		.loc 3 117 14
 850 0064 044B     		ldr	r3, .L63
 851 0066 02E0     		b	.L62
 852              	.L57:
 853              		.loc 3 121 14
 854 0068 034B     		ldr	r3, .L63
 855 006a 00E0     		b	.L62
ARM GAS  C:\Users\DEVELO~1\AppData\Local\Temp\ccF0RT7m.s 			page 16


 856              	.L58:
 857              		.loc 3 124 14
 858 006c 0023     		movs	r3, #0
 859              	.L62:
 860              		.loc 3 126 1
 861 006e 1846     		mov	r0, r3
 862 0070 0C37     		adds	r7, r7, #12
 863              		.cfi_def_cfa_offset 4
 864 0072 BD46     		mov	sp, r7
 865              		.cfi_def_cfa_register 13
 866              		@ sp needed
 867 0074 80BC     		pop	{r7}
 868              		.cfi_restore 7
 869              		.cfi_def_cfa_offset 0
 870 0076 7047     		bx	lr
 871              	.L64:
 872              		.align	2
 873              	.L63:
 874 0078 00B4C404 		.word	80000000
 875 007c 40AEEB02 		.word	49000000
 876              		.cfi_endproc
 877              	.LFE430:
 878              		.size	HAL_RCCEx_GetPeriphCLKFreq, .-HAL_RCCEx_GetPeriphCLKFreq
 879              		.text
 880              	.Letext0:
 881              		.file 4 "c:\\chibistudio\\tools\\gnu tools arm embedded\\11.3 2022.08\\arm-none-eabi\\include\\mac
 882              		.file 5 "c:\\chibistudio\\tools\\gnu tools arm embedded\\11.3 2022.08\\arm-none-eabi\\include\\sys
 883              		.file 6 "../../../os/rt/include/chtime.h"
 884              		.file 7 "../../../os/common/ext/ST/STM32H7xx/stm32h743xx.h"
 885              		.file 8 "drivers/stm32h7xx-hal-driver/Inc/stm32h7xx_hal_def.h"
 886              		.file 9 "drivers/stm32h7xx-hal-driver/Inc/stm32h7xx_hal.h"
 887              		.file 10 "../../../os/rt/include/chthreads.h"