ARM GAS  C:\Users\DEVELO~1\AppData\Local\Temp\ccN8r03g.s 			page 1


   1              		.cpu cortex-m7
   2              		.arch armv7e-m
   3              		.fpu softvfp
   4              		.eabi_attribute 20, 1
   5              		.eabi_attribute 21, 1
   6              		.eabi_attribute 23, 3
   7              		.eabi_attribute 24, 1
   8              		.eabi_attribute 25, 1
   9              		.eabi_attribute 26, 1
  10              		.eabi_attribute 30, 6
  11              		.eabi_attribute 34, 1
  12              		.eabi_attribute 18, 4
  13              		.file	"stm32h7xx_hal_sai_ex.c"
  14              		.text
  15              	.Ltext0:
  16              		.cfi_sections	.debug_frame
  17              		.section	.text.HAL_SAIEx_ConfigPdmMicDelay,"ax",%progbits
  18              		.align	1
  19              		.global	HAL_SAIEx_ConfigPdmMicDelay
  20              		.syntax unified
  21              		.thumb
  22              		.thumb_func
  23              		.type	HAL_SAIEx_ConfigPdmMicDelay, %function
  24              	HAL_SAIEx_ConfigPdmMicDelay:
  25              	.LFB141:
  26              		.file 1 "drivers/stm32h7xx-hal-driver/Src/stm32h7xx_hal_sai_ex.c"
  27              		.loc 1 72 1
  28              		.cfi_startproc
  29              		@ args = 0, pretend = 0, frame = 24
  30              		@ frame_needed = 1, uses_anonymous_args = 0
  31              		@ link register save eliminated.
  32 0000 80B4     		push	{r7}
  33              		.cfi_def_cfa_offset 4
  34              		.cfi_offset 7, -4
  35 0002 87B0     		sub	sp, sp, #28
  36              		.cfi_def_cfa_offset 32
  37 0004 00AF     		add	r7, sp, #0
  38              		.cfi_def_cfa_register 7
  39 0006 7860     		str	r0, [r7, #4]
  40 0008 3960     		str	r1, [r7]
  41              		.loc 1 73 21
  42 000a 0023     		movs	r3, #0
  43 000c FB75     		strb	r3, [r7, #23]
  44              		.loc 1 79 26
  45 000e 7B68     		ldr	r3, [r7, #4]
  46 0010 1B68     		ldr	r3, [r3]
  47              		.loc 1 79 61
  48 0012 214A     		ldr	r2, .L10
  49 0014 9342     		cmp	r3, r2
  50 0016 08D0     		beq	.L2
  51              		.loc 1 80 26
  52 0018 7B68     		ldr	r3, [r7, #4]
  53 001a 1B68     		ldr	r3, [r3]
  54              		.loc 1 80 61
  55 001c 1F4A     		ldr	r2, .L10+4
  56 001e 9342     		cmp	r3, r2
  57 0020 01D1     		bne	.L3
ARM GAS  C:\Users\DEVELO~1\AppData\Local\Temp\ccN8r03g.s 			page 2


  58              		.loc 1 80 61 is_stmt 0 discriminator 1
  59 0022 1F4B     		ldr	r3, .L10+8
  60 0024 02E0     		b	.L5
  61              	.L3:
  62              		.loc 1 80 61 discriminator 2
  63 0026 0023     		movs	r3, #0
  64 0028 00E0     		b	.L5
  65              	.L2:
  66              		.loc 1 79 61 is_stmt 1 discriminator 1
  67 002a 1E4B     		ldr	r3, .L10+12
  68              	.L5:
  69              		.loc 1 79 18 discriminator 3
  70 002c 3B61     		str	r3, [r7, #16]
  71              		.loc 1 87 6 discriminator 3
  72 002e 3B69     		ldr	r3, [r7, #16]
  73 0030 002B     		cmp	r3, #0
  74 0032 02D1     		bne	.L6
  75              		.loc 1 89 12
  76 0034 0123     		movs	r3, #1
  77 0036 FB75     		strb	r3, [r7, #23]
  78 0038 28E0     		b	.L7
  79              	.L6:
  80              		.loc 1 99 49
  81 003a 3B68     		ldr	r3, [r7]
  82 003c 1B68     		ldr	r3, [r3]
  83              		.loc 1 99 59
  84 003e 013B     		subs	r3, r3, #1
  85              		.loc 1 99 12
  86 0040 DB00     		lsls	r3, r3, #3
  87 0042 FB60     		str	r3, [r7, #12]
  88              		.loc 1 102 14
  89 0044 7B68     		ldr	r3, [r7, #4]
  90 0046 93F89130 		ldrb	r3, [r3, #145]
  91 004a DBB2     		uxtb	r3, r3
  92              		.loc 1 102 8
  93 004c 002B     		cmp	r3, #0
  94 004e 1BD0     		beq	.L8
  95              		.loc 1 102 46 discriminator 1
  96 0050 FB68     		ldr	r3, [r7, #12]
  97 0052 182B     		cmp	r3, #24
  98 0054 18D8     		bhi	.L8
  99              		.loc 1 105 30
 100 0056 3B69     		ldr	r3, [r7, #16]
 101 0058 9A6C     		ldr	r2, [r3, #72]
 102              		.loc 1 105 54
 103 005a 7721     		movs	r1, #119
 104 005c FB68     		ldr	r3, [r7, #12]
 105 005e 01FA03F3 		lsl	r3, r1, r3
 106              		.loc 1 105 33
 107 0062 DB43     		mvns	r3, r3
 108              		.loc 1 105 30
 109 0064 1A40     		ands	r2, r2, r3
 110 0066 3B69     		ldr	r3, [r7, #16]
 111 0068 9A64     		str	r2, [r3, #72]
 112              		.loc 1 108 30
 113 006a 3B69     		ldr	r3, [r7, #16]
 114 006c 9A6C     		ldr	r2, [r3, #72]
ARM GAS  C:\Users\DEVELO~1\AppData\Local\Temp\ccN8r03g.s 			page 3


 115              		.loc 1 108 47
 116 006e 3B68     		ldr	r3, [r7]
 117 0070 9B68     		ldr	r3, [r3, #8]
 118              		.loc 1 108 60
 119 0072 1901     		lsls	r1, r3, #4
 120              		.loc 1 108 104
 121 0074 3B68     		ldr	r3, [r7]
 122 0076 5B68     		ldr	r3, [r3, #4]
 123              		.loc 1 108 91
 124 0078 1943     		orrs	r1, r1, r3
 125              		.loc 1 108 117
 126 007a FB68     		ldr	r3, [r7, #12]
 127 007c 01FA03F3 		lsl	r3, r1, r3
 128              		.loc 1 108 30
 129 0080 1A43     		orrs	r2, r2, r3
 130 0082 3B69     		ldr	r3, [r7, #16]
 131 0084 9A64     		str	r2, [r3, #72]
 132 0086 01E0     		b	.L7
 133              	.L8:
 134              		.loc 1 112 14
 135 0088 0123     		movs	r3, #1
 136 008a FB75     		strb	r3, [r7, #23]
 137              	.L7:
 138              		.loc 1 115 10
 139 008c FB7D     		ldrb	r3, [r7, #23]	@ zero_extendqisi2
 140              		.loc 1 116 1
 141 008e 1846     		mov	r0, r3
 142 0090 1C37     		adds	r7, r7, #28
 143              		.cfi_def_cfa_offset 4
 144 0092 BD46     		mov	sp, r7
 145              		.cfi_def_cfa_register 13
 146              		@ sp needed
 147 0094 80BC     		pop	{r7}
 148              		.cfi_restore 7
 149              		.cfi_def_cfa_offset 0
 150 0096 7047     		bx	lr
 151              	.L11:
 152              		.align	2
 153              	.L10:
 154 0098 04580140 		.word	1073829892
 155 009c 04540058 		.word	1476416516
 156 00a0 00540058 		.word	1476416512
 157 00a4 00580140 		.word	1073829888
 158              		.cfi_endproc
 159              	.LFE141:
 160              		.size	HAL_SAIEx_ConfigPdmMicDelay, .-HAL_SAIEx_ConfigPdmMicDelay
 161              		.text
 162              	.Letext0:
 163              		.file 2 "c:\\chibistudio\\tools\\gnu tools arm embedded\\11.3 2022.08\\arm-none-eabi\\include\\mac
 164              		.file 3 "c:\\chibistudio\\tools\\gnu tools arm embedded\\11.3 2022.08\\arm-none-eabi\\include\\sys
 165              		.file 4 "../../../os/common/ext/ST/STM32H7xx/stm32h743xx.h"
 166              		.file 5 "../../../os/common/ext/ST/STM32H7xx/stm32h7xx.h"
 167              		.file 6 "drivers/stm32h7xx-hal-driver/Inc/stm32h7xx_hal_def.h"
 168              		.file 7 "drivers/stm32h7xx-hal-driver/Inc/stm32h7xx_hal_dma.h"
 169              		.file 8 "drivers/stm32h7xx-hal-driver/Inc/stm32h7xx_hal_sai.h"
 170              		.file 9 "drivers/stm32h7xx-hal-driver/Inc/stm32h7xx_hal_sai_ex.h"