ARM GAS  C:\Users\DEVELO~1\AppData\Local\Temp\cc6uSDOa.s 			page 1


   1              		.cpu cortex-m7
   2              		.arch armv7e-m
   3              		.fpu softvfp
   4              		.eabi_attribute 20, 1
   5              		.eabi_attribute 21, 1
   6              		.eabi_attribute 23, 3
   7              		.eabi_attribute 24, 1
   8              		.eabi_attribute 25, 1
   9              		.eabi_attribute 26, 1
  10              		.eabi_attribute 30, 6
  11              		.eabi_attribute 34, 1
  12              		.eabi_attribute 18, 4
  13              		.file	"stm32_isr.c"
  14              		.text
  15              	.Ltext0:
  16              		.cfi_sections	.debug_frame
  17              		.section	.text.exti0_irq_init,"ax",%progbits
  18              		.align	1
  19              		.syntax unified
  20              		.thumb
  21              		.thumb_func
  22              		.type	exti0_irq_init, %function
  23              	exti0_irq_init:
  24              	.LFB432:
  25              		.file 1 "../../../os/hal/ports/STM32/LLD/EXTIv1/stm32_exti0.inc"
  26              		.loc 1 55 41
  27              		.cfi_startproc
  28              		@ args = 0, pretend = 0, frame = 0
  29              		@ frame_needed = 1, uses_anonymous_args = 0
  30              		@ link register save eliminated.
  31 0000 80B4     		push	{r7}
  32              		.cfi_def_cfa_offset 4
  33              		.cfi_offset 7, -4
  34 0002 00AF     		add	r7, sp, #0
  35              		.cfi_def_cfa_register 7
  36              		.loc 1 59 1
  37 0004 00BF     		nop
  38 0006 BD46     		mov	sp, r7
  39              		.cfi_def_cfa_register 13
  40              		@ sp needed
  41 0008 80BC     		pop	{r7}
  42              		.cfi_restore 7
  43              		.cfi_def_cfa_offset 0
  44 000a 7047     		bx	lr
  45              		.cfi_endproc
  46              	.LFE432:
  47              		.size	exti0_irq_init, .-exti0_irq_init
  48              		.section	.text.exti0_irq_deinit,"ax",%progbits
  49              		.align	1
  50              		.syntax unified
  51              		.thumb
  52              		.thumb_func
  53              		.type	exti0_irq_deinit, %function
  54              	exti0_irq_deinit:
  55              	.LFB433:
  56              		.loc 1 61 43
  57              		.cfi_startproc
ARM GAS  C:\Users\DEVELO~1\AppData\Local\Temp\cc6uSDOa.s 			page 2


  58              		@ args = 0, pretend = 0, frame = 0
  59              		@ frame_needed = 1, uses_anonymous_args = 0
  60              		@ link register save eliminated.
  61 0000 80B4     		push	{r7}
  62              		.cfi_def_cfa_offset 4
  63              		.cfi_offset 7, -4
  64 0002 00AF     		add	r7, sp, #0
  65              		.cfi_def_cfa_register 7
  66              		.loc 1 65 1
  67 0004 00BF     		nop
  68 0006 BD46     		mov	sp, r7
  69              		.cfi_def_cfa_register 13
  70              		@ sp needed
  71 0008 80BC     		pop	{r7}
  72              		.cfi_restore 7
  73              		.cfi_def_cfa_offset 0
  74 000a 7047     		bx	lr
  75              		.cfi_endproc
  76              	.LFE433:
  77              		.size	exti0_irq_deinit, .-exti0_irq_deinit
  78              		.section	.text.exti1_irq_init,"ax",%progbits
  79              		.align	1
  80              		.syntax unified
  81              		.thumb
  82              		.thumb_func
  83              		.type	exti1_irq_init, %function
  84              	exti1_irq_init:
  85              	.LFB434:
  86              		.file 2 "../../../os/hal/ports/STM32/LLD/EXTIv1/stm32_exti1.inc"
  87              		.loc 2 55 41
  88              		.cfi_startproc
  89              		@ args = 0, pretend = 0, frame = 0
  90              		@ frame_needed = 1, uses_anonymous_args = 0
  91              		@ link register save eliminated.
  92 0000 80B4     		push	{r7}
  93              		.cfi_def_cfa_offset 4
  94              		.cfi_offset 7, -4
  95 0002 00AF     		add	r7, sp, #0
  96              		.cfi_def_cfa_register 7
  97              		.loc 2 59 1
  98 0004 00BF     		nop
  99 0006 BD46     		mov	sp, r7
 100              		.cfi_def_cfa_register 13
 101              		@ sp needed
 102 0008 80BC     		pop	{r7}
 103              		.cfi_restore 7
 104              		.cfi_def_cfa_offset 0
 105 000a 7047     		bx	lr
 106              		.cfi_endproc
 107              	.LFE434:
 108              		.size	exti1_irq_init, .-exti1_irq_init
 109              		.section	.text.exti1_irq_deinit,"ax",%progbits
 110              		.align	1
 111              		.syntax unified
 112              		.thumb
 113              		.thumb_func
 114              		.type	exti1_irq_deinit, %function
ARM GAS  C:\Users\DEVELO~1\AppData\Local\Temp\cc6uSDOa.s 			page 3


 115              	exti1_irq_deinit:
 116              	.LFB435:
 117              		.loc 2 61 43
 118              		.cfi_startproc
 119              		@ args = 0, pretend = 0, frame = 0
 120              		@ frame_needed = 1, uses_anonymous_args = 0
 121              		@ link register save eliminated.
 122 0000 80B4     		push	{r7}
 123              		.cfi_def_cfa_offset 4
 124              		.cfi_offset 7, -4
 125 0002 00AF     		add	r7, sp, #0
 126              		.cfi_def_cfa_register 7
 127              		.loc 2 65 1
 128 0004 00BF     		nop
 129 0006 BD46     		mov	sp, r7
 130              		.cfi_def_cfa_register 13
 131              		@ sp needed
 132 0008 80BC     		pop	{r7}
 133              		.cfi_restore 7
 134              		.cfi_def_cfa_offset 0
 135 000a 7047     		bx	lr
 136              		.cfi_endproc
 137              	.LFE435:
 138              		.size	exti1_irq_deinit, .-exti1_irq_deinit
 139              		.section	.text.exti2_irq_init,"ax",%progbits
 140              		.align	1
 141              		.syntax unified
 142              		.thumb
 143              		.thumb_func
 144              		.type	exti2_irq_init, %function
 145              	exti2_irq_init:
 146              	.LFB436:
 147              		.file 3 "../../../os/hal/ports/STM32/LLD/EXTIv1/stm32_exti2.inc"
 148              		.loc 3 55 41
 149              		.cfi_startproc
 150              		@ args = 0, pretend = 0, frame = 0
 151              		@ frame_needed = 1, uses_anonymous_args = 0
 152              		@ link register save eliminated.
 153 0000 80B4     		push	{r7}
 154              		.cfi_def_cfa_offset 4
 155              		.cfi_offset 7, -4
 156 0002 00AF     		add	r7, sp, #0
 157              		.cfi_def_cfa_register 7
 158              		.loc 3 59 1
 159 0004 00BF     		nop
 160 0006 BD46     		mov	sp, r7
 161              		.cfi_def_cfa_register 13
 162              		@ sp needed
 163 0008 80BC     		pop	{r7}
 164              		.cfi_restore 7
 165              		.cfi_def_cfa_offset 0
 166 000a 7047     		bx	lr
 167              		.cfi_endproc
 168              	.LFE436:
 169              		.size	exti2_irq_init, .-exti2_irq_init
 170              		.section	.text.exti2_irq_deinit,"ax",%progbits
 171              		.align	1
ARM GAS  C:\Users\DEVELO~1\AppData\Local\Temp\cc6uSDOa.s 			page 4


 172              		.syntax unified
 173              		.thumb
 174              		.thumb_func
 175              		.type	exti2_irq_deinit, %function
 176              	exti2_irq_deinit:
 177              	.LFB437:
 178              		.loc 3 61 43
 179              		.cfi_startproc
 180              		@ args = 0, pretend = 0, frame = 0
 181              		@ frame_needed = 1, uses_anonymous_args = 0
 182              		@ link register save eliminated.
 183 0000 80B4     		push	{r7}
 184              		.cfi_def_cfa_offset 4
 185              		.cfi_offset 7, -4
 186 0002 00AF     		add	r7, sp, #0
 187              		.cfi_def_cfa_register 7
 188              		.loc 3 65 1
 189 0004 00BF     		nop
 190 0006 BD46     		mov	sp, r7
 191              		.cfi_def_cfa_register 13
 192              		@ sp needed
 193 0008 80BC     		pop	{r7}
 194              		.cfi_restore 7
 195              		.cfi_def_cfa_offset 0
 196 000a 7047     		bx	lr
 197              		.cfi_endproc
 198              	.LFE437:
 199              		.size	exti2_irq_deinit, .-exti2_irq_deinit
 200              		.section	.text.exti3_irq_init,"ax",%progbits
 201              		.align	1
 202              		.syntax unified
 203              		.thumb
 204              		.thumb_func
 205              		.type	exti3_irq_init, %function
 206              	exti3_irq_init:
 207              	.LFB438:
 208              		.file 4 "../../../os/hal/ports/STM32/LLD/EXTIv1/stm32_exti3.inc"
 209              		.loc 4 55 41
 210              		.cfi_startproc
 211              		@ args = 0, pretend = 0, frame = 0
 212              		@ frame_needed = 1, uses_anonymous_args = 0
 213              		@ link register save eliminated.
 214 0000 80B4     		push	{r7}
 215              		.cfi_def_cfa_offset 4
 216              		.cfi_offset 7, -4
 217 0002 00AF     		add	r7, sp, #0
 218              		.cfi_def_cfa_register 7
 219              		.loc 4 59 1
 220 0004 00BF     		nop
 221 0006 BD46     		mov	sp, r7
 222              		.cfi_def_cfa_register 13
 223              		@ sp needed
 224 0008 80BC     		pop	{r7}
 225              		.cfi_restore 7
 226              		.cfi_def_cfa_offset 0
 227 000a 7047     		bx	lr
 228              		.cfi_endproc
ARM GAS  C:\Users\DEVELO~1\AppData\Local\Temp\cc6uSDOa.s 			page 5


 229              	.LFE438:
 230              		.size	exti3_irq_init, .-exti3_irq_init
 231              		.section	.text.exti3_irq_deinit,"ax",%progbits
 232              		.align	1
 233              		.syntax unified
 234              		.thumb
 235              		.thumb_func
 236              		.type	exti3_irq_deinit, %function
 237              	exti3_irq_deinit:
 238              	.LFB439:
 239              		.loc 4 61 43
 240              		.cfi_startproc
 241              		@ args = 0, pretend = 0, frame = 0
 242              		@ frame_needed = 1, uses_anonymous_args = 0
 243              		@ link register save eliminated.
 244 0000 80B4     		push	{r7}
 245              		.cfi_def_cfa_offset 4
 246              		.cfi_offset 7, -4
 247 0002 00AF     		add	r7, sp, #0
 248              		.cfi_def_cfa_register 7
 249              		.loc 4 65 1
 250 0004 00BF     		nop
 251 0006 BD46     		mov	sp, r7
 252              		.cfi_def_cfa_register 13
 253              		@ sp needed
 254 0008 80BC     		pop	{r7}
 255              		.cfi_restore 7
 256              		.cfi_def_cfa_offset 0
 257 000a 7047     		bx	lr
 258              		.cfi_endproc
 259              	.LFE439:
 260              		.size	exti3_irq_deinit, .-exti3_irq_deinit
 261              		.section	.text.exti4_irq_init,"ax",%progbits
 262              		.align	1
 263              		.syntax unified
 264              		.thumb
 265              		.thumb_func
 266              		.type	exti4_irq_init, %function
 267              	exti4_irq_init:
 268              	.LFB440:
 269              		.file 5 "../../../os/hal/ports/STM32/LLD/EXTIv1/stm32_exti4.inc"
 270              		.loc 5 55 41
 271              		.cfi_startproc
 272              		@ args = 0, pretend = 0, frame = 0
 273              		@ frame_needed = 1, uses_anonymous_args = 0
 274              		@ link register save eliminated.
 275 0000 80B4     		push	{r7}
 276              		.cfi_def_cfa_offset 4
 277              		.cfi_offset 7, -4
 278 0002 00AF     		add	r7, sp, #0
 279              		.cfi_def_cfa_register 7
 280              		.loc 5 59 1
 281 0004 00BF     		nop
 282 0006 BD46     		mov	sp, r7
 283              		.cfi_def_cfa_register 13
 284              		@ sp needed
 285 0008 80BC     		pop	{r7}
ARM GAS  C:\Users\DEVELO~1\AppData\Local\Temp\cc6uSDOa.s 			page 6


 286              		.cfi_restore 7
 287              		.cfi_def_cfa_offset 0
 288 000a 7047     		bx	lr
 289              		.cfi_endproc
 290              	.LFE440:
 291              		.size	exti4_irq_init, .-exti4_irq_init
 292              		.section	.text.exti4_irq_deinit,"ax",%progbits
 293              		.align	1
 294              		.syntax unified
 295              		.thumb
 296              		.thumb_func
 297              		.type	exti4_irq_deinit, %function
 298              	exti4_irq_deinit:
 299              	.LFB441:
 300              		.loc 5 61 43
 301              		.cfi_startproc
 302              		@ args = 0, pretend = 0, frame = 0
 303              		@ frame_needed = 1, uses_anonymous_args = 0
 304              		@ link register save eliminated.
 305 0000 80B4     		push	{r7}
 306              		.cfi_def_cfa_offset 4
 307              		.cfi_offset 7, -4
 308 0002 00AF     		add	r7, sp, #0
 309              		.cfi_def_cfa_register 7
 310              		.loc 5 65 1
 311 0004 00BF     		nop
 312 0006 BD46     		mov	sp, r7
 313              		.cfi_def_cfa_register 13
 314              		@ sp needed
 315 0008 80BC     		pop	{r7}
 316              		.cfi_restore 7
 317              		.cfi_def_cfa_offset 0
 318 000a 7047     		bx	lr
 319              		.cfi_endproc
 320              	.LFE441:
 321              		.size	exti4_irq_deinit, .-exti4_irq_deinit
 322              		.section	.text.exti5_9_irq_init,"ax",%progbits
 323              		.align	1
 324              		.syntax unified
 325              		.thumb
 326              		.thumb_func
 327              		.type	exti5_9_irq_init, %function
 328              	exti5_9_irq_init:
 329              	.LFB442:
 330              		.file 6 "../../../os/hal/ports/STM32/LLD/EXTIv1/stm32_exti5_9.inc"
 331              		.loc 6 55 43
 332              		.cfi_startproc
 333              		@ args = 0, pretend = 0, frame = 0
 334              		@ frame_needed = 1, uses_anonymous_args = 0
 335              		@ link register save eliminated.
 336 0000 80B4     		push	{r7}
 337              		.cfi_def_cfa_offset 4
 338              		.cfi_offset 7, -4
 339 0002 00AF     		add	r7, sp, #0
 340              		.cfi_def_cfa_register 7
 341              		.loc 6 59 1
 342 0004 00BF     		nop
ARM GAS  C:\Users\DEVELO~1\AppData\Local\Temp\cc6uSDOa.s 			page 7


 343 0006 BD46     		mov	sp, r7
 344              		.cfi_def_cfa_register 13
 345              		@ sp needed
 346 0008 80BC     		pop	{r7}
 347              		.cfi_restore 7
 348              		.cfi_def_cfa_offset 0
 349 000a 7047     		bx	lr
 350              		.cfi_endproc
 351              	.LFE442:
 352              		.size	exti5_9_irq_init, .-exti5_9_irq_init
 353              		.section	.text.exti5_9_irq_deinit,"ax",%progbits
 354              		.align	1
 355              		.syntax unified
 356              		.thumb
 357              		.thumb_func
 358              		.type	exti5_9_irq_deinit, %function
 359              	exti5_9_irq_deinit:
 360              	.LFB443:
 361              		.loc 6 61 45
 362              		.cfi_startproc
 363              		@ args = 0, pretend = 0, frame = 0
 364              		@ frame_needed = 1, uses_anonymous_args = 0
 365              		@ link register save eliminated.
 366 0000 80B4     		push	{r7}
 367              		.cfi_def_cfa_offset 4
 368              		.cfi_offset 7, -4
 369 0002 00AF     		add	r7, sp, #0
 370              		.cfi_def_cfa_register 7
 371              		.loc 6 65 1
 372 0004 00BF     		nop
 373 0006 BD46     		mov	sp, r7
 374              		.cfi_def_cfa_register 13
 375              		@ sp needed
 376 0008 80BC     		pop	{r7}
 377              		.cfi_restore 7
 378              		.cfi_def_cfa_offset 0
 379 000a 7047     		bx	lr
 380              		.cfi_endproc
 381              	.LFE443:
 382              		.size	exti5_9_irq_deinit, .-exti5_9_irq_deinit
 383              		.section	.text.exti10_15_irq_init,"ax",%progbits
 384              		.align	1
 385              		.syntax unified
 386              		.thumb
 387              		.thumb_func
 388              		.type	exti10_15_irq_init, %function
 389              	exti10_15_irq_init:
 390              	.LFB444:
 391              		.file 7 "../../../os/hal/ports/STM32/LLD/EXTIv1/stm32_exti10_15.inc"
 392              		.loc 7 55 45
 393              		.cfi_startproc
 394              		@ args = 0, pretend = 0, frame = 0
 395              		@ frame_needed = 1, uses_anonymous_args = 0
 396              		@ link register save eliminated.
 397 0000 80B4     		push	{r7}
 398              		.cfi_def_cfa_offset 4
 399              		.cfi_offset 7, -4
ARM GAS  C:\Users\DEVELO~1\AppData\Local\Temp\cc6uSDOa.s 			page 8


 400 0002 00AF     		add	r7, sp, #0
 401              		.cfi_def_cfa_register 7
 402              		.loc 7 59 1
 403 0004 00BF     		nop
 404 0006 BD46     		mov	sp, r7
 405              		.cfi_def_cfa_register 13
 406              		@ sp needed
 407 0008 80BC     		pop	{r7}
 408              		.cfi_restore 7
 409              		.cfi_def_cfa_offset 0
 410 000a 7047     		bx	lr
 411              		.cfi_endproc
 412              	.LFE444:
 413              		.size	exti10_15_irq_init, .-exti10_15_irq_init
 414              		.section	.text.exti10_15_irq_deinit,"ax",%progbits
 415              		.align	1
 416              		.syntax unified
 417              		.thumb
 418              		.thumb_func
 419              		.type	exti10_15_irq_deinit, %function
 420              	exti10_15_irq_deinit:
 421              	.LFB445:
 422              		.loc 7 61 47
 423              		.cfi_startproc
 424              		@ args = 0, pretend = 0, frame = 0
 425              		@ frame_needed = 1, uses_anonymous_args = 0
 426              		@ link register save eliminated.
 427 0000 80B4     		push	{r7}
 428              		.cfi_def_cfa_offset 4
 429              		.cfi_offset 7, -4
 430 0002 00AF     		add	r7, sp, #0
 431              		.cfi_def_cfa_register 7
 432              		.loc 7 65 1
 433 0004 00BF     		nop
 434 0006 BD46     		mov	sp, r7
 435              		.cfi_def_cfa_register 13
 436              		@ sp needed
 437 0008 80BC     		pop	{r7}
 438              		.cfi_restore 7
 439              		.cfi_def_cfa_offset 0
 440 000a 7047     		bx	lr
 441              		.cfi_endproc
 442              	.LFE445:
 443              		.size	exti10_15_irq_deinit, .-exti10_15_irq_deinit
 444              		.section	.text.exti16_irq_init,"ax",%progbits
 445              		.align	1
 446              		.syntax unified
 447              		.thumb
 448              		.thumb_func
 449              		.type	exti16_irq_init, %function
 450              	exti16_irq_init:
 451              	.LFB446:
 452              		.file 8 "../../../os/hal/ports/STM32/LLD/EXTIv1/stm32_exti16.inc"
 453              		.loc 8 55 42
 454              		.cfi_startproc
 455              		@ args = 0, pretend = 0, frame = 0
 456              		@ frame_needed = 1, uses_anonymous_args = 0
ARM GAS  C:\Users\DEVELO~1\AppData\Local\Temp\cc6uSDOa.s 			page 9


 457              		@ link register save eliminated.
 458 0000 80B4     		push	{r7}
 459              		.cfi_def_cfa_offset 4
 460              		.cfi_offset 7, -4
 461 0002 00AF     		add	r7, sp, #0
 462              		.cfi_def_cfa_register 7
 463              		.loc 8 59 1
 464 0004 00BF     		nop
 465 0006 BD46     		mov	sp, r7
 466              		.cfi_def_cfa_register 13
 467              		@ sp needed
 468 0008 80BC     		pop	{r7}
 469              		.cfi_restore 7
 470              		.cfi_def_cfa_offset 0
 471 000a 7047     		bx	lr
 472              		.cfi_endproc
 473              	.LFE446:
 474              		.size	exti16_irq_init, .-exti16_irq_init
 475              		.section	.text.exti16_irq_deinit,"ax",%progbits
 476              		.align	1
 477              		.syntax unified
 478              		.thumb
 479              		.thumb_func
 480              		.type	exti16_irq_deinit, %function
 481              	exti16_irq_deinit:
 482              	.LFB447:
 483              		.loc 8 61 44
 484              		.cfi_startproc
 485              		@ args = 0, pretend = 0, frame = 0
 486              		@ frame_needed = 1, uses_anonymous_args = 0
 487              		@ link register save eliminated.
 488 0000 80B4     		push	{r7}
 489              		.cfi_def_cfa_offset 4
 490              		.cfi_offset 7, -4
 491 0002 00AF     		add	r7, sp, #0
 492              		.cfi_def_cfa_register 7
 493              		.loc 8 65 1
 494 0004 00BF     		nop
 495 0006 BD46     		mov	sp, r7
 496              		.cfi_def_cfa_register 13
 497              		@ sp needed
 498 0008 80BC     		pop	{r7}
 499              		.cfi_restore 7
 500              		.cfi_def_cfa_offset 0
 501 000a 7047     		bx	lr
 502              		.cfi_endproc
 503              	.LFE447:
 504              		.size	exti16_irq_deinit, .-exti16_irq_deinit
 505              		.section	.text.exti17_irq_init,"ax",%progbits
 506              		.align	1
 507              		.syntax unified
 508              		.thumb
 509              		.thumb_func
 510              		.type	exti17_irq_init, %function
 511              	exti17_irq_init:
 512              	.LFB448:
 513              		.file 9 "../../../os/hal/ports/STM32/LLD/EXTIv1/stm32_exti17.inc"
ARM GAS  C:\Users\DEVELO~1\AppData\Local\Temp\cc6uSDOa.s 			page 10


 514              		.loc 9 55 42
 515              		.cfi_startproc
 516              		@ args = 0, pretend = 0, frame = 0
 517              		@ frame_needed = 1, uses_anonymous_args = 0
 518              		@ link register save eliminated.
 519 0000 80B4     		push	{r7}
 520              		.cfi_def_cfa_offset 4
 521              		.cfi_offset 7, -4
 522 0002 00AF     		add	r7, sp, #0
 523              		.cfi_def_cfa_register 7
 524              		.loc 9 59 1
 525 0004 00BF     		nop
 526 0006 BD46     		mov	sp, r7
 527              		.cfi_def_cfa_register 13
 528              		@ sp needed
 529 0008 80BC     		pop	{r7}
 530              		.cfi_restore 7
 531              		.cfi_def_cfa_offset 0
 532 000a 7047     		bx	lr
 533              		.cfi_endproc
 534              	.LFE448:
 535              		.size	exti17_irq_init, .-exti17_irq_init
 536              		.section	.text.exti17_irq_deinit,"ax",%progbits
 537              		.align	1
 538              		.syntax unified
 539              		.thumb
 540              		.thumb_func
 541              		.type	exti17_irq_deinit, %function
 542              	exti17_irq_deinit:
 543              	.LFB449:
 544              		.loc 9 61 44
 545              		.cfi_startproc
 546              		@ args = 0, pretend = 0, frame = 0
 547              		@ frame_needed = 1, uses_anonymous_args = 0
 548              		@ link register save eliminated.
 549 0000 80B4     		push	{r7}
 550              		.cfi_def_cfa_offset 4
 551              		.cfi_offset 7, -4
 552 0002 00AF     		add	r7, sp, #0
 553              		.cfi_def_cfa_register 7
 554              		.loc 9 65 1
 555 0004 00BF     		nop
 556 0006 BD46     		mov	sp, r7
 557              		.cfi_def_cfa_register 13
 558              		@ sp needed
 559 0008 80BC     		pop	{r7}
 560              		.cfi_restore 7
 561              		.cfi_def_cfa_offset 0
 562 000a 7047     		bx	lr
 563              		.cfi_endproc
 564              	.LFE449:
 565              		.size	exti17_irq_deinit, .-exti17_irq_deinit
 566              		.section	.text.exti18_irq_init,"ax",%progbits
 567              		.align	1
 568              		.syntax unified
 569              		.thumb
 570              		.thumb_func
ARM GAS  C:\Users\DEVELO~1\AppData\Local\Temp\cc6uSDOa.s 			page 11


 571              		.type	exti18_irq_init, %function
 572              	exti18_irq_init:
 573              	.LFB450:
 574              		.file 10 "../../../os/hal/ports/STM32/LLD/EXTIv1/stm32_exti18.inc"
 575              		.loc 10 55 42
 576              		.cfi_startproc
 577              		@ args = 0, pretend = 0, frame = 0
 578              		@ frame_needed = 1, uses_anonymous_args = 0
 579              		@ link register save eliminated.
 580 0000 80B4     		push	{r7}
 581              		.cfi_def_cfa_offset 4
 582              		.cfi_offset 7, -4
 583 0002 00AF     		add	r7, sp, #0
 584              		.cfi_def_cfa_register 7
 585              		.loc 10 59 1
 586 0004 00BF     		nop
 587 0006 BD46     		mov	sp, r7
 588              		.cfi_def_cfa_register 13
 589              		@ sp needed
 590 0008 80BC     		pop	{r7}
 591              		.cfi_restore 7
 592              		.cfi_def_cfa_offset 0
 593 000a 7047     		bx	lr
 594              		.cfi_endproc
 595              	.LFE450:
 596              		.size	exti18_irq_init, .-exti18_irq_init
 597              		.section	.text.exti18_irq_deinit,"ax",%progbits
 598              		.align	1
 599              		.syntax unified
 600              		.thumb
 601              		.thumb_func
 602              		.type	exti18_irq_deinit, %function
 603              	exti18_irq_deinit:
 604              	.LFB451:
 605              		.loc 10 61 44
 606              		.cfi_startproc
 607              		@ args = 0, pretend = 0, frame = 0
 608              		@ frame_needed = 1, uses_anonymous_args = 0
 609              		@ link register save eliminated.
 610 0000 80B4     		push	{r7}
 611              		.cfi_def_cfa_offset 4
 612              		.cfi_offset 7, -4
 613 0002 00AF     		add	r7, sp, #0
 614              		.cfi_def_cfa_register 7
 615              		.loc 10 65 1
 616 0004 00BF     		nop
 617 0006 BD46     		mov	sp, r7
 618              		.cfi_def_cfa_register 13
 619              		@ sp needed
 620 0008 80BC     		pop	{r7}
 621              		.cfi_restore 7
 622              		.cfi_def_cfa_offset 0
 623 000a 7047     		bx	lr
 624              		.cfi_endproc
 625              	.LFE451:
 626              		.size	exti18_irq_deinit, .-exti18_irq_deinit
 627              		.section	.text.exti19_irq_init,"ax",%progbits
ARM GAS  C:\Users\DEVELO~1\AppData\Local\Temp\cc6uSDOa.s 			page 12


 628              		.align	1
 629              		.syntax unified
 630              		.thumb
 631              		.thumb_func
 632              		.type	exti19_irq_init, %function
 633              	exti19_irq_init:
 634              	.LFB452:
 635              		.file 11 "../../../os/hal/ports/STM32/LLD/EXTIv1/stm32_exti19.inc"
 636              		.loc 11 55 42
 637              		.cfi_startproc
 638              		@ args = 0, pretend = 0, frame = 0
 639              		@ frame_needed = 1, uses_anonymous_args = 0
 640              		@ link register save eliminated.
 641 0000 80B4     		push	{r7}
 642              		.cfi_def_cfa_offset 4
 643              		.cfi_offset 7, -4
 644 0002 00AF     		add	r7, sp, #0
 645              		.cfi_def_cfa_register 7
 646              		.loc 11 59 1
 647 0004 00BF     		nop
 648 0006 BD46     		mov	sp, r7
 649              		.cfi_def_cfa_register 13
 650              		@ sp needed
 651 0008 80BC     		pop	{r7}
 652              		.cfi_restore 7
 653              		.cfi_def_cfa_offset 0
 654 000a 7047     		bx	lr
 655              		.cfi_endproc
 656              	.LFE452:
 657              		.size	exti19_irq_init, .-exti19_irq_init
 658              		.section	.text.exti19_irq_deinit,"ax",%progbits
 659              		.align	1
 660              		.syntax unified
 661              		.thumb
 662              		.thumb_func
 663              		.type	exti19_irq_deinit, %function
 664              	exti19_irq_deinit:
 665              	.LFB453:
 666              		.loc 11 61 44
 667              		.cfi_startproc
 668              		@ args = 0, pretend = 0, frame = 0
 669              		@ frame_needed = 1, uses_anonymous_args = 0
 670              		@ link register save eliminated.
 671 0000 80B4     		push	{r7}
 672              		.cfi_def_cfa_offset 4
 673              		.cfi_offset 7, -4
 674 0002 00AF     		add	r7, sp, #0
 675              		.cfi_def_cfa_register 7
 676              		.loc 11 65 1
 677 0004 00BF     		nop
 678 0006 BD46     		mov	sp, r7
 679              		.cfi_def_cfa_register 13
 680              		@ sp needed
 681 0008 80BC     		pop	{r7}
 682              		.cfi_restore 7
 683              		.cfi_def_cfa_offset 0
 684 000a 7047     		bx	lr
ARM GAS  C:\Users\DEVELO~1\AppData\Local\Temp\cc6uSDOa.s 			page 13


 685              		.cfi_endproc
 686              	.LFE453:
 687              		.size	exti19_irq_deinit, .-exti19_irq_deinit
 688              		.section	.text.exti20_exti21_irq_init,"ax",%progbits
 689              		.align	1
 690              		.syntax unified
 691              		.thumb
 692              		.thumb_func
 693              		.type	exti20_exti21_irq_init, %function
 694              	exti20_exti21_irq_init:
 695              	.LFB454:
 696              		.file 12 "../../../os/hal/ports/STM32/LLD/EXTIv1/stm32_exti20_21.inc"
 697              		.loc 12 55 49
 698              		.cfi_startproc
 699              		@ args = 0, pretend = 0, frame = 0
 700              		@ frame_needed = 1, uses_anonymous_args = 0
 701              		@ link register save eliminated.
 702 0000 80B4     		push	{r7}
 703              		.cfi_def_cfa_offset 4
 704              		.cfi_offset 7, -4
 705 0002 00AF     		add	r7, sp, #0
 706              		.cfi_def_cfa_register 7
 707              		.loc 12 59 1
 708 0004 00BF     		nop
 709 0006 BD46     		mov	sp, r7
 710              		.cfi_def_cfa_register 13
 711              		@ sp needed
 712 0008 80BC     		pop	{r7}
 713              		.cfi_restore 7
 714              		.cfi_def_cfa_offset 0
 715 000a 7047     		bx	lr
 716              		.cfi_endproc
 717              	.LFE454:
 718              		.size	exti20_exti21_irq_init, .-exti20_exti21_irq_init
 719              		.section	.text.exti20_exti21_irq_deinit,"ax",%progbits
 720              		.align	1
 721              		.syntax unified
 722              		.thumb
 723              		.thumb_func
 724              		.type	exti20_exti21_irq_deinit, %function
 725              	exti20_exti21_irq_deinit:
 726              	.LFB455:
 727              		.loc 12 61 51
 728              		.cfi_startproc
 729              		@ args = 0, pretend = 0, frame = 0
 730              		@ frame_needed = 1, uses_anonymous_args = 0
 731              		@ link register save eliminated.
 732 0000 80B4     		push	{r7}
 733              		.cfi_def_cfa_offset 4
 734              		.cfi_offset 7, -4
 735 0002 00AF     		add	r7, sp, #0
 736              		.cfi_def_cfa_register 7
 737              		.loc 12 65 1
 738 0004 00BF     		nop
 739 0006 BD46     		mov	sp, r7
 740              		.cfi_def_cfa_register 13
 741              		@ sp needed
ARM GAS  C:\Users\DEVELO~1\AppData\Local\Temp\cc6uSDOa.s 			page 14


 742 0008 80BC     		pop	{r7}
 743              		.cfi_restore 7
 744              		.cfi_def_cfa_offset 0
 745 000a 7047     		bx	lr
 746              		.cfi_endproc
 747              	.LFE455:
 748              		.size	exti20_exti21_irq_deinit, .-exti20_exti21_irq_deinit
 749              		.section	.text.fdcan1_irq_init,"ax",%progbits
 750              		.align	1
 751              		.syntax unified
 752              		.thumb
 753              		.thumb_func
 754              		.type	fdcan1_irq_init, %function
 755              	fdcan1_irq_init:
 756              	.LFB456:
 757              		.file 13 "../../../os/hal/ports/STM32/LLD/FDCANv2/stm32_fdcan1.inc"
 758              		.loc 13 70 42
 759              		.cfi_startproc
 760              		@ args = 0, pretend = 0, frame = 0
 761              		@ frame_needed = 1, uses_anonymous_args = 0
 762              		@ link register save eliminated.
 763 0000 80B4     		push	{r7}
 764              		.cfi_def_cfa_offset 4
 765              		.cfi_offset 7, -4
 766 0002 00AF     		add	r7, sp, #0
 767              		.cfi_def_cfa_register 7
 768              		.loc 13 74 1
 769 0004 00BF     		nop
 770 0006 BD46     		mov	sp, r7
 771              		.cfi_def_cfa_register 13
 772              		@ sp needed
 773 0008 80BC     		pop	{r7}
 774              		.cfi_restore 7
 775              		.cfi_def_cfa_offset 0
 776 000a 7047     		bx	lr
 777              		.cfi_endproc
 778              	.LFE456:
 779              		.size	fdcan1_irq_init, .-fdcan1_irq_init
 780              		.section	.text.fdcan1_irq_deinit,"ax",%progbits
 781              		.align	1
 782              		.syntax unified
 783              		.thumb
 784              		.thumb_func
 785              		.type	fdcan1_irq_deinit, %function
 786              	fdcan1_irq_deinit:
 787              	.LFB457:
 788              		.loc 13 76 44
 789              		.cfi_startproc
 790              		@ args = 0, pretend = 0, frame = 0
 791              		@ frame_needed = 1, uses_anonymous_args = 0
 792              		@ link register save eliminated.
 793 0000 80B4     		push	{r7}
 794              		.cfi_def_cfa_offset 4
 795              		.cfi_offset 7, -4
 796 0002 00AF     		add	r7, sp, #0
 797              		.cfi_def_cfa_register 7
 798              		.loc 13 80 1
ARM GAS  C:\Users\DEVELO~1\AppData\Local\Temp\cc6uSDOa.s 			page 15


 799 0004 00BF     		nop
 800 0006 BD46     		mov	sp, r7
 801              		.cfi_def_cfa_register 13
 802              		@ sp needed
 803 0008 80BC     		pop	{r7}
 804              		.cfi_restore 7
 805              		.cfi_def_cfa_offset 0
 806 000a 7047     		bx	lr
 807              		.cfi_endproc
 808              	.LFE457:
 809              		.size	fdcan1_irq_deinit, .-fdcan1_irq_deinit
 810              		.section	.text.fdcan2_irq_init,"ax",%progbits
 811              		.align	1
 812              		.syntax unified
 813              		.thumb
 814              		.thumb_func
 815              		.type	fdcan2_irq_init, %function
 816              	fdcan2_irq_init:
 817              	.LFB458:
 818              		.file 14 "../../../os/hal/ports/STM32/LLD/FDCANv2/stm32_fdcan2.inc"
 819              		.loc 14 70 42
 820              		.cfi_startproc
 821              		@ args = 0, pretend = 0, frame = 0
 822              		@ frame_needed = 1, uses_anonymous_args = 0
 823              		@ link register save eliminated.
 824 0000 80B4     		push	{r7}
 825              		.cfi_def_cfa_offset 4
 826              		.cfi_offset 7, -4
 827 0002 00AF     		add	r7, sp, #0
 828              		.cfi_def_cfa_register 7
 829              		.loc 14 74 1
 830 0004 00BF     		nop
 831 0006 BD46     		mov	sp, r7
 832              		.cfi_def_cfa_register 13
 833              		@ sp needed
 834 0008 80BC     		pop	{r7}
 835              		.cfi_restore 7
 836              		.cfi_def_cfa_offset 0
 837 000a 7047     		bx	lr
 838              		.cfi_endproc
 839              	.LFE458:
 840              		.size	fdcan2_irq_init, .-fdcan2_irq_init
 841              		.section	.text.fdcan2_irq_deinit,"ax",%progbits
 842              		.align	1
 843              		.syntax unified
 844              		.thumb
 845              		.thumb_func
 846              		.type	fdcan2_irq_deinit, %function
 847              	fdcan2_irq_deinit:
 848              	.LFB459:
 849              		.loc 14 76 44
 850              		.cfi_startproc
 851              		@ args = 0, pretend = 0, frame = 0
 852              		@ frame_needed = 1, uses_anonymous_args = 0
 853              		@ link register save eliminated.
 854 0000 80B4     		push	{r7}
 855              		.cfi_def_cfa_offset 4
ARM GAS  C:\Users\DEVELO~1\AppData\Local\Temp\cc6uSDOa.s 			page 16


 856              		.cfi_offset 7, -4
 857 0002 00AF     		add	r7, sp, #0
 858              		.cfi_def_cfa_register 7
 859              		.loc 14 80 1
 860 0004 00BF     		nop
 861 0006 BD46     		mov	sp, r7
 862              		.cfi_def_cfa_register 13
 863              		@ sp needed
 864 0008 80BC     		pop	{r7}
 865              		.cfi_restore 7
 866              		.cfi_def_cfa_offset 0
 867 000a 7047     		bx	lr
 868              		.cfi_endproc
 869              	.LFE459:
 870              		.size	fdcan2_irq_deinit, .-fdcan2_irq_deinit
 871              		.section	.text.fdcan3_irq_init,"ax",%progbits
 872              		.align	1
 873              		.syntax unified
 874              		.thumb
 875              		.thumb_func
 876              		.type	fdcan3_irq_init, %function
 877              	fdcan3_irq_init:
 878              	.LFB460:
 879              		.file 15 "../../../os/hal/ports/STM32/LLD/FDCANv2/stm32_fdcan3.inc"
 880              		.loc 15 70 42
 881              		.cfi_startproc
 882              		@ args = 0, pretend = 0, frame = 0
 883              		@ frame_needed = 1, uses_anonymous_args = 0
 884              		@ link register save eliminated.
 885 0000 80B4     		push	{r7}
 886              		.cfi_def_cfa_offset 4
 887              		.cfi_offset 7, -4
 888 0002 00AF     		add	r7, sp, #0
 889              		.cfi_def_cfa_register 7
 890              		.loc 15 74 1
 891 0004 00BF     		nop
 892 0006 BD46     		mov	sp, r7
 893              		.cfi_def_cfa_register 13
 894              		@ sp needed
 895 0008 80BC     		pop	{r7}
 896              		.cfi_restore 7
 897              		.cfi_def_cfa_offset 0
 898 000a 7047     		bx	lr
 899              		.cfi_endproc
 900              	.LFE460:
 901              		.size	fdcan3_irq_init, .-fdcan3_irq_init
 902              		.section	.text.fdcan3_irq_deinit,"ax",%progbits
 903              		.align	1
 904              		.syntax unified
 905              		.thumb
 906              		.thumb_func
 907              		.type	fdcan3_irq_deinit, %function
 908              	fdcan3_irq_deinit:
 909              	.LFB461:
 910              		.loc 15 76 44
 911              		.cfi_startproc
 912              		@ args = 0, pretend = 0, frame = 0
ARM GAS  C:\Users\DEVELO~1\AppData\Local\Temp\cc6uSDOa.s 			page 17


 913              		@ frame_needed = 1, uses_anonymous_args = 0
 914              		@ link register save eliminated.
 915 0000 80B4     		push	{r7}
 916              		.cfi_def_cfa_offset 4
 917              		.cfi_offset 7, -4
 918 0002 00AF     		add	r7, sp, #0
 919              		.cfi_def_cfa_register 7
 920              		.loc 15 80 1
 921 0004 00BF     		nop
 922 0006 BD46     		mov	sp, r7
 923              		.cfi_def_cfa_register 13
 924              		@ sp needed
 925 0008 80BC     		pop	{r7}
 926              		.cfi_restore 7
 927              		.cfi_def_cfa_offset 0
 928 000a 7047     		bx	lr
 929              		.cfi_endproc
 930              	.LFE461:
 931              		.size	fdcan3_irq_deinit, .-fdcan3_irq_deinit
 932              		.section	.text.quadspi1_irq_init,"ax",%progbits
 933              		.align	1
 934              		.syntax unified
 935              		.thumb
 936              		.thumb_func
 937              		.type	quadspi1_irq_init, %function
 938              	quadspi1_irq_init:
 939              	.LFB462:
 940              		.file 16 "../../../os/hal/ports/STM32/LLD/QUADSPIv2/stm32_quadspi1.inc"
 941              		.loc 16 70 44
 942              		.cfi_startproc
 943              		@ args = 0, pretend = 0, frame = 0
 944              		@ frame_needed = 1, uses_anonymous_args = 0
 945              		@ link register save eliminated.
 946 0000 80B4     		push	{r7}
 947              		.cfi_def_cfa_offset 4
 948              		.cfi_offset 7, -4
 949 0002 00AF     		add	r7, sp, #0
 950              		.cfi_def_cfa_register 7
 951              		.loc 16 74 1
 952 0004 00BF     		nop
 953 0006 BD46     		mov	sp, r7
 954              		.cfi_def_cfa_register 13
 955              		@ sp needed
 956 0008 80BC     		pop	{r7}
 957              		.cfi_restore 7
 958              		.cfi_def_cfa_offset 0
 959 000a 7047     		bx	lr
 960              		.cfi_endproc
 961              	.LFE462:
 962              		.size	quadspi1_irq_init, .-quadspi1_irq_init
 963              		.section	.text.quadspi1_irq_deinit,"ax",%progbits
 964              		.align	1
 965              		.syntax unified
 966              		.thumb
 967              		.thumb_func
 968              		.type	quadspi1_irq_deinit, %function
 969              	quadspi1_irq_deinit:
ARM GAS  C:\Users\DEVELO~1\AppData\Local\Temp\cc6uSDOa.s 			page 18


 970              	.LFB463:
 971              		.loc 16 76 46
 972              		.cfi_startproc
 973              		@ args = 0, pretend = 0, frame = 0
 974              		@ frame_needed = 1, uses_anonymous_args = 0
 975              		@ link register save eliminated.
 976 0000 80B4     		push	{r7}
 977              		.cfi_def_cfa_offset 4
 978              		.cfi_offset 7, -4
 979 0002 00AF     		add	r7, sp, #0
 980              		.cfi_def_cfa_register 7
 981              		.loc 16 80 1
 982 0004 00BF     		nop
 983 0006 BD46     		mov	sp, r7
 984              		.cfi_def_cfa_register 13
 985              		@ sp needed
 986 0008 80BC     		pop	{r7}
 987              		.cfi_restore 7
 988              		.cfi_def_cfa_offset 0
 989 000a 7047     		bx	lr
 990              		.cfi_endproc
 991              	.LFE463:
 992              		.size	quadspi1_irq_deinit, .-quadspi1_irq_deinit
 993              		.section	.text.sdmmc1_irq_init,"ax",%progbits
 994              		.align	1
 995              		.syntax unified
 996              		.thumb
 997              		.thumb_func
 998              		.type	sdmmc1_irq_init, %function
 999              	sdmmc1_irq_init:
 1000              	.LFB464:
 1001              		.file 17 "../../../os/hal/ports/STM32/LLD/SDMMCv2/stm32_sdmmc1.inc"
 1002              		.loc 17 70 42
 1003              		.cfi_startproc
 1004              		@ args = 0, pretend = 0, frame = 0
 1005              		@ frame_needed = 1, uses_anonymous_args = 0
 1006              		@ link register save eliminated.
 1007 0000 80B4     		push	{r7}
 1008              		.cfi_def_cfa_offset 4
 1009              		.cfi_offset 7, -4
 1010 0002 00AF     		add	r7, sp, #0
 1011              		.cfi_def_cfa_register 7
 1012              		.loc 17 74 1
 1013 0004 00BF     		nop
 1014 0006 BD46     		mov	sp, r7
 1015              		.cfi_def_cfa_register 13
 1016              		@ sp needed
 1017 0008 80BC     		pop	{r7}
 1018              		.cfi_restore 7
 1019              		.cfi_def_cfa_offset 0
 1020 000a 7047     		bx	lr
 1021              		.cfi_endproc
 1022              	.LFE464:
 1023              		.size	sdmmc1_irq_init, .-sdmmc1_irq_init
 1024              		.section	.text.sdmmc1_irq_deinit,"ax",%progbits
 1025              		.align	1
 1026              		.syntax unified
ARM GAS  C:\Users\DEVELO~1\AppData\Local\Temp\cc6uSDOa.s 			page 19


 1027              		.thumb
 1028              		.thumb_func
 1029              		.type	sdmmc1_irq_deinit, %function
 1030              	sdmmc1_irq_deinit:
 1031              	.LFB465:
 1032              		.loc 17 76 44
 1033              		.cfi_startproc
 1034              		@ args = 0, pretend = 0, frame = 0
 1035              		@ frame_needed = 1, uses_anonymous_args = 0
 1036              		@ link register save eliminated.
 1037 0000 80B4     		push	{r7}
 1038              		.cfi_def_cfa_offset 4
 1039              		.cfi_offset 7, -4
 1040 0002 00AF     		add	r7, sp, #0
 1041              		.cfi_def_cfa_register 7
 1042              		.loc 17 80 1
 1043 0004 00BF     		nop
 1044 0006 BD46     		mov	sp, r7
 1045              		.cfi_def_cfa_register 13
 1046              		@ sp needed
 1047 0008 80BC     		pop	{r7}
 1048              		.cfi_restore 7
 1049              		.cfi_def_cfa_offset 0
 1050 000a 7047     		bx	lr
 1051              		.cfi_endproc
 1052              	.LFE465:
 1053              		.size	sdmmc1_irq_deinit, .-sdmmc1_irq_deinit
 1054              		.section	.text.sdmmc2_irq_init,"ax",%progbits
 1055              		.align	1
 1056              		.syntax unified
 1057              		.thumb
 1058              		.thumb_func
 1059              		.type	sdmmc2_irq_init, %function
 1060              	sdmmc2_irq_init:
 1061              	.LFB466:
 1062              		.file 18 "../../../os/hal/ports/STM32/LLD/SDMMCv2/stm32_sdmmc2.inc"
 1063              		.loc 18 70 42
 1064              		.cfi_startproc
 1065              		@ args = 0, pretend = 0, frame = 0
 1066              		@ frame_needed = 1, uses_anonymous_args = 0
 1067              		@ link register save eliminated.
 1068 0000 80B4     		push	{r7}
 1069              		.cfi_def_cfa_offset 4
 1070              		.cfi_offset 7, -4
 1071 0002 00AF     		add	r7, sp, #0
 1072              		.cfi_def_cfa_register 7
 1073              		.loc 18 74 1
 1074 0004 00BF     		nop
 1075 0006 BD46     		mov	sp, r7
 1076              		.cfi_def_cfa_register 13
 1077              		@ sp needed
 1078 0008 80BC     		pop	{r7}
 1079              		.cfi_restore 7
 1080              		.cfi_def_cfa_offset 0
 1081 000a 7047     		bx	lr
 1082              		.cfi_endproc
 1083              	.LFE466:
ARM GAS  C:\Users\DEVELO~1\AppData\Local\Temp\cc6uSDOa.s 			page 20


 1084              		.size	sdmmc2_irq_init, .-sdmmc2_irq_init
 1085              		.section	.text.sdmmc2_irq_deinit,"ax",%progbits
 1086              		.align	1
 1087              		.syntax unified
 1088              		.thumb
 1089              		.thumb_func
 1090              		.type	sdmmc2_irq_deinit, %function
 1091              	sdmmc2_irq_deinit:
 1092              	.LFB467:
 1093              		.loc 18 76 44
 1094              		.cfi_startproc
 1095              		@ args = 0, pretend = 0, frame = 0
 1096              		@ frame_needed = 1, uses_anonymous_args = 0
 1097              		@ link register save eliminated.
 1098 0000 80B4     		push	{r7}
 1099              		.cfi_def_cfa_offset 4
 1100              		.cfi_offset 7, -4
 1101 0002 00AF     		add	r7, sp, #0
 1102              		.cfi_def_cfa_register 7
 1103              		.loc 18 80 1
 1104 0004 00BF     		nop
 1105 0006 BD46     		mov	sp, r7
 1106              		.cfi_def_cfa_register 13
 1107              		@ sp needed
 1108 0008 80BC     		pop	{r7}
 1109              		.cfi_restore 7
 1110              		.cfi_def_cfa_offset 0
 1111 000a 7047     		bx	lr
 1112              		.cfi_endproc
 1113              	.LFE467:
 1114              		.size	sdmmc2_irq_deinit, .-sdmmc2_irq_deinit
 1115              		.section	.text.usart1_irq_init,"ax",%progbits
 1116              		.align	1
 1117              		.syntax unified
 1118              		.thumb
 1119              		.thumb_func
 1120              		.type	usart1_irq_init, %function
 1121              	usart1_irq_init:
 1122              	.LFB468:
 1123              		.file 19 "../../../os/hal/ports/STM32/LLD/USART/stm32_usart1.inc"
 1124              		.loc 19 63 42
 1125              		.cfi_startproc
 1126              		@ args = 0, pretend = 0, frame = 0
 1127              		@ frame_needed = 1, uses_anonymous_args = 0
 1128 0000 80B5     		push	{r7, lr}
 1129              		.cfi_def_cfa_offset 8
 1130              		.cfi_offset 7, -8
 1131              		.cfi_offset 14, -4
 1132 0002 00AF     		add	r7, sp, #0
 1133              		.cfi_def_cfa_register 7
 1134              		.loc 19 65 3
 1135 0004 0C21     		movs	r1, #12
 1136 0006 2520     		movs	r0, #37
 1137 0008 FFF7FEFF 		bl	nvicEnableVector
 1138              		.loc 19 67 1
 1139 000c 00BF     		nop
 1140 000e 80BD     		pop	{r7, pc}
ARM GAS  C:\Users\DEVELO~1\AppData\Local\Temp\cc6uSDOa.s 			page 21


 1141              		.cfi_endproc
 1142              	.LFE468:
 1143              		.size	usart1_irq_init, .-usart1_irq_init
 1144              		.section	.text.usart1_irq_deinit,"ax",%progbits
 1145              		.align	1
 1146              		.syntax unified
 1147              		.thumb
 1148              		.thumb_func
 1149              		.type	usart1_irq_deinit, %function
 1150              	usart1_irq_deinit:
 1151              	.LFB469:
 1152              		.loc 19 69 44
 1153              		.cfi_startproc
 1154              		@ args = 0, pretend = 0, frame = 0
 1155              		@ frame_needed = 1, uses_anonymous_args = 0
 1156 0000 80B5     		push	{r7, lr}
 1157              		.cfi_def_cfa_offset 8
 1158              		.cfi_offset 7, -8
 1159              		.cfi_offset 14, -4
 1160 0002 00AF     		add	r7, sp, #0
 1161              		.cfi_def_cfa_register 7
 1162              		.loc 19 71 3
 1163 0004 2520     		movs	r0, #37
 1164 0006 FFF7FEFF 		bl	nvicDisableVector
 1165              		.loc 19 73 1
 1166 000a 00BF     		nop
 1167 000c 80BD     		pop	{r7, pc}
 1168              		.cfi_endproc
 1169              	.LFE469:
 1170              		.size	usart1_irq_deinit, .-usart1_irq_deinit
 1171              		.section	.text.VectorD4,"ax",%progbits
 1172              		.align	1
 1173              		.global	VectorD4
 1174              		.syntax unified
 1175              		.thumb
 1176              		.thumb_func
 1177              		.type	VectorD4, %function
 1178              	VectorD4:
 1179              	.LFB470:
 1180              		.loc 19 85 40
 1181              		.cfi_startproc
 1182              		@ args = 0, pretend = 0, frame = 0
 1183              		@ frame_needed = 1, uses_anonymous_args = 0
 1184 0000 80B5     		push	{r7, lr}
 1185              		.cfi_def_cfa_offset 8
 1186              		.cfi_offset 7, -8
 1187              		.cfi_offset 14, -4
 1188 0002 00AF     		add	r7, sp, #0
 1189              		.cfi_def_cfa_register 7
 1190              		.loc 19 87 3
 1191 0004 0648     		ldr	r0, .L40
 1192 0006 FFF7FEFF 		bl	__trace_isr_enter
 1193              		.loc 19 91 3
 1194 000a 0648     		ldr	r0, .L40+4
 1195 000c FFF7FEFF 		bl	sd_lld_serve_interrupt
 1196              		.loc 19 107 3
 1197 0010 0348     		ldr	r0, .L40
ARM GAS  C:\Users\DEVELO~1\AppData\Local\Temp\cc6uSDOa.s 			page 22


 1198 0012 FFF7FEFF 		bl	__trace_isr_leave
 1199 0016 FFF7FEFF 		bl	__port_irq_epilogue
 1200              		.loc 19 108 1
 1201 001a 00BF     		nop
 1202 001c 80BD     		pop	{r7, pc}
 1203              	.L41:
 1204 001e 00BF     		.align	2
 1205              	.L40:
 1206 0020 00000000 		.word	__func__.3
 1207 0024 00000000 		.word	SD1
 1208              		.cfi_endproc
 1209              	.LFE470:
 1210              		.size	VectorD4, .-VectorD4
 1211              		.section	.text.usart2_irq_init,"ax",%progbits
 1212              		.align	1
 1213              		.syntax unified
 1214              		.thumb
 1215              		.thumb_func
 1216              		.type	usart2_irq_init, %function
 1217              	usart2_irq_init:
 1218              	.LFB471:
 1219              		.file 20 "../../../os/hal/ports/STM32/LLD/USART/stm32_usart2.inc"
 1220              		.loc 20 63 42
 1221              		.cfi_startproc
 1222              		@ args = 0, pretend = 0, frame = 0
 1223              		@ frame_needed = 1, uses_anonymous_args = 0
 1224              		@ link register save eliminated.
 1225 0000 80B4     		push	{r7}
 1226              		.cfi_def_cfa_offset 4
 1227              		.cfi_offset 7, -4
 1228 0002 00AF     		add	r7, sp, #0
 1229              		.cfi_def_cfa_register 7
 1230              		.loc 20 67 1
 1231 0004 00BF     		nop
 1232 0006 BD46     		mov	sp, r7
 1233              		.cfi_def_cfa_register 13
 1234              		@ sp needed
 1235 0008 80BC     		pop	{r7}
 1236              		.cfi_restore 7
 1237              		.cfi_def_cfa_offset 0
 1238 000a 7047     		bx	lr
 1239              		.cfi_endproc
 1240              	.LFE471:
 1241              		.size	usart2_irq_init, .-usart2_irq_init
 1242              		.section	.text.usart2_irq_deinit,"ax",%progbits
 1243              		.align	1
 1244              		.syntax unified
 1245              		.thumb
 1246              		.thumb_func
 1247              		.type	usart2_irq_deinit, %function
 1248              	usart2_irq_deinit:
 1249              	.LFB472:
 1250              		.loc 20 69 44
 1251              		.cfi_startproc
 1252              		@ args = 0, pretend = 0, frame = 0
 1253              		@ frame_needed = 1, uses_anonymous_args = 0
 1254              		@ link register save eliminated.
ARM GAS  C:\Users\DEVELO~1\AppData\Local\Temp\cc6uSDOa.s 			page 23


 1255 0000 80B4     		push	{r7}
 1256              		.cfi_def_cfa_offset 4
 1257              		.cfi_offset 7, -4
 1258 0002 00AF     		add	r7, sp, #0
 1259              		.cfi_def_cfa_register 7
 1260              		.loc 20 73 1
 1261 0004 00BF     		nop
 1262 0006 BD46     		mov	sp, r7
 1263              		.cfi_def_cfa_register 13
 1264              		@ sp needed
 1265 0008 80BC     		pop	{r7}
 1266              		.cfi_restore 7
 1267              		.cfi_def_cfa_offset 0
 1268 000a 7047     		bx	lr
 1269              		.cfi_endproc
 1270              	.LFE472:
 1271              		.size	usart2_irq_deinit, .-usart2_irq_deinit
 1272              		.section	.text.usart3_irq_init,"ax",%progbits
 1273              		.align	1
 1274              		.syntax unified
 1275              		.thumb
 1276              		.thumb_func
 1277              		.type	usart3_irq_init, %function
 1278              	usart3_irq_init:
 1279              	.LFB473:
 1280              		.file 21 "../../../os/hal/ports/STM32/LLD/USART/stm32_usart3.inc"
 1281              		.loc 21 63 42
 1282              		.cfi_startproc
 1283              		@ args = 0, pretend = 0, frame = 0
 1284              		@ frame_needed = 1, uses_anonymous_args = 0
 1285              		@ link register save eliminated.
 1286 0000 80B4     		push	{r7}
 1287              		.cfi_def_cfa_offset 4
 1288              		.cfi_offset 7, -4
 1289 0002 00AF     		add	r7, sp, #0
 1290              		.cfi_def_cfa_register 7
 1291              		.loc 21 67 1
 1292 0004 00BF     		nop
 1293 0006 BD46     		mov	sp, r7
 1294              		.cfi_def_cfa_register 13
 1295              		@ sp needed
 1296 0008 80BC     		pop	{r7}
 1297              		.cfi_restore 7
 1298              		.cfi_def_cfa_offset 0
 1299 000a 7047     		bx	lr
 1300              		.cfi_endproc
 1301              	.LFE473:
 1302              		.size	usart3_irq_init, .-usart3_irq_init
 1303              		.section	.text.usart3_irq_deinit,"ax",%progbits
 1304              		.align	1
 1305              		.syntax unified
 1306              		.thumb
 1307              		.thumb_func
 1308              		.type	usart3_irq_deinit, %function
 1309              	usart3_irq_deinit:
 1310              	.LFB474:
 1311              		.loc 21 69 44
ARM GAS  C:\Users\DEVELO~1\AppData\Local\Temp\cc6uSDOa.s 			page 24


 1312              		.cfi_startproc
 1313              		@ args = 0, pretend = 0, frame = 0
 1314              		@ frame_needed = 1, uses_anonymous_args = 0
 1315              		@ link register save eliminated.
 1316 0000 80B4     		push	{r7}
 1317              		.cfi_def_cfa_offset 4
 1318              		.cfi_offset 7, -4
 1319 0002 00AF     		add	r7, sp, #0
 1320              		.cfi_def_cfa_register 7
 1321              		.loc 21 73 1
 1322 0004 00BF     		nop
 1323 0006 BD46     		mov	sp, r7
 1324              		.cfi_def_cfa_register 13
 1325              		@ sp needed
 1326 0008 80BC     		pop	{r7}
 1327              		.cfi_restore 7
 1328              		.cfi_def_cfa_offset 0
 1329 000a 7047     		bx	lr
 1330              		.cfi_endproc
 1331              	.LFE474:
 1332              		.size	usart3_irq_deinit, .-usart3_irq_deinit
 1333              		.section	.text.uart4_irq_init,"ax",%progbits
 1334              		.align	1
 1335              		.syntax unified
 1336              		.thumb
 1337              		.thumb_func
 1338              		.type	uart4_irq_init, %function
 1339              	uart4_irq_init:
 1340              	.LFB475:
 1341              		.file 22 "../../../os/hal/ports/STM32/LLD/USART/stm32_uart4.inc"
 1342              		.loc 22 63 41
 1343              		.cfi_startproc
 1344              		@ args = 0, pretend = 0, frame = 0
 1345              		@ frame_needed = 1, uses_anonymous_args = 0
 1346              		@ link register save eliminated.
 1347 0000 80B4     		push	{r7}
 1348              		.cfi_def_cfa_offset 4
 1349              		.cfi_offset 7, -4
 1350 0002 00AF     		add	r7, sp, #0
 1351              		.cfi_def_cfa_register 7
 1352              		.loc 22 67 1
 1353 0004 00BF     		nop
 1354 0006 BD46     		mov	sp, r7
 1355              		.cfi_def_cfa_register 13
 1356              		@ sp needed
 1357 0008 80BC     		pop	{r7}
 1358              		.cfi_restore 7
 1359              		.cfi_def_cfa_offset 0
 1360 000a 7047     		bx	lr
 1361              		.cfi_endproc
 1362              	.LFE475:
 1363              		.size	uart4_irq_init, .-uart4_irq_init
 1364              		.section	.text.uart4_irq_deinit,"ax",%progbits
 1365              		.align	1
 1366              		.syntax unified
 1367              		.thumb
 1368              		.thumb_func
ARM GAS  C:\Users\DEVELO~1\AppData\Local\Temp\cc6uSDOa.s 			page 25


 1369              		.type	uart4_irq_deinit, %function
 1370              	uart4_irq_deinit:
 1371              	.LFB476:
 1372              		.loc 22 69 43
 1373              		.cfi_startproc
 1374              		@ args = 0, pretend = 0, frame = 0
 1375              		@ frame_needed = 1, uses_anonymous_args = 0
 1376              		@ link register save eliminated.
 1377 0000 80B4     		push	{r7}
 1378              		.cfi_def_cfa_offset 4
 1379              		.cfi_offset 7, -4
 1380 0002 00AF     		add	r7, sp, #0
 1381              		.cfi_def_cfa_register 7
 1382              		.loc 22 73 1
 1383 0004 00BF     		nop
 1384 0006 BD46     		mov	sp, r7
 1385              		.cfi_def_cfa_register 13
 1386              		@ sp needed
 1387 0008 80BC     		pop	{r7}
 1388              		.cfi_restore 7
 1389              		.cfi_def_cfa_offset 0
 1390 000a 7047     		bx	lr
 1391              		.cfi_endproc
 1392              	.LFE476:
 1393              		.size	uart4_irq_deinit, .-uart4_irq_deinit
 1394              		.section	.text.uart5_irq_init,"ax",%progbits
 1395              		.align	1
 1396              		.syntax unified
 1397              		.thumb
 1398              		.thumb_func
 1399              		.type	uart5_irq_init, %function
 1400              	uart5_irq_init:
 1401              	.LFB477:
 1402              		.file 23 "../../../os/hal/ports/STM32/LLD/USART/stm32_uart5.inc"
 1403              		.loc 23 63 41
 1404              		.cfi_startproc
 1405              		@ args = 0, pretend = 0, frame = 0
 1406              		@ frame_needed = 1, uses_anonymous_args = 0
 1407 0000 80B5     		push	{r7, lr}
 1408              		.cfi_def_cfa_offset 8
 1409              		.cfi_offset 7, -8
 1410              		.cfi_offset 14, -4
 1411 0002 00AF     		add	r7, sp, #0
 1412              		.cfi_def_cfa_register 7
 1413              		.loc 23 65 3
 1414 0004 0C21     		movs	r1, #12
 1415 0006 3520     		movs	r0, #53
 1416 0008 FFF7FEFF 		bl	nvicEnableVector
 1417              		.loc 23 67 1
 1418 000c 00BF     		nop
 1419 000e 80BD     		pop	{r7, pc}
 1420              		.cfi_endproc
 1421              	.LFE477:
 1422              		.size	uart5_irq_init, .-uart5_irq_init
 1423              		.section	.text.uart5_irq_deinit,"ax",%progbits
 1424              		.align	1
 1425              		.syntax unified
ARM GAS  C:\Users\DEVELO~1\AppData\Local\Temp\cc6uSDOa.s 			page 26


 1426              		.thumb
 1427              		.thumb_func
 1428              		.type	uart5_irq_deinit, %function
 1429              	uart5_irq_deinit:
 1430              	.LFB478:
 1431              		.loc 23 69 43
 1432              		.cfi_startproc
 1433              		@ args = 0, pretend = 0, frame = 0
 1434              		@ frame_needed = 1, uses_anonymous_args = 0
 1435 0000 80B5     		push	{r7, lr}
 1436              		.cfi_def_cfa_offset 8
 1437              		.cfi_offset 7, -8
 1438              		.cfi_offset 14, -4
 1439 0002 00AF     		add	r7, sp, #0
 1440              		.cfi_def_cfa_register 7
 1441              		.loc 23 71 3
 1442 0004 3520     		movs	r0, #53
 1443 0006 FFF7FEFF 		bl	nvicDisableVector
 1444              		.loc 23 73 1
 1445 000a 00BF     		nop
 1446 000c 80BD     		pop	{r7, pc}
 1447              		.cfi_endproc
 1448              	.LFE478:
 1449              		.size	uart5_irq_deinit, .-uart5_irq_deinit
 1450              		.section	.text.Vector114,"ax",%progbits
 1451              		.align	1
 1452              		.global	Vector114
 1453              		.syntax unified
 1454              		.thumb
 1455              		.thumb_func
 1456              		.type	Vector114, %function
 1457              	Vector114:
 1458              	.LFB479:
 1459              		.loc 23 85 39
 1460              		.cfi_startproc
 1461              		@ args = 0, pretend = 0, frame = 0
 1462              		@ frame_needed = 1, uses_anonymous_args = 0
 1463 0000 80B5     		push	{r7, lr}
 1464              		.cfi_def_cfa_offset 8
 1465              		.cfi_offset 7, -8
 1466              		.cfi_offset 14, -4
 1467 0002 00AF     		add	r7, sp, #0
 1468              		.cfi_def_cfa_register 7
 1469              		.loc 23 87 3
 1470 0004 0648     		ldr	r0, .L51
 1471 0006 FFF7FEFF 		bl	__trace_isr_enter
 1472              		.loc 23 91 3
 1473 000a 0648     		ldr	r0, .L51+4
 1474 000c FFF7FEFF 		bl	sd_lld_serve_interrupt
 1475              		.loc 23 107 3
 1476 0010 0348     		ldr	r0, .L51
 1477 0012 FFF7FEFF 		bl	__trace_isr_leave
 1478 0016 FFF7FEFF 		bl	__port_irq_epilogue
 1479              		.loc 23 108 1
 1480 001a 00BF     		nop
 1481 001c 80BD     		pop	{r7, pc}
 1482              	.L52:
ARM GAS  C:\Users\DEVELO~1\AppData\Local\Temp\cc6uSDOa.s 			page 27


 1483 001e 00BF     		.align	2
 1484              	.L51:
 1485 0020 00000000 		.word	__func__.2
 1486 0024 00000000 		.word	SD5
 1487              		.cfi_endproc
 1488              	.LFE479:
 1489              		.size	Vector114, .-Vector114
 1490              		.section	.text.usart6_irq_init,"ax",%progbits
 1491              		.align	1
 1492              		.syntax unified
 1493              		.thumb
 1494              		.thumb_func
 1495              		.type	usart6_irq_init, %function
 1496              	usart6_irq_init:
 1497              	.LFB480:
 1498              		.file 24 "../../../os/hal/ports/STM32/LLD/USART/stm32_usart6.inc"
 1499              		.loc 24 63 42
 1500              		.cfi_startproc
 1501              		@ args = 0, pretend = 0, frame = 0
 1502              		@ frame_needed = 1, uses_anonymous_args = 0
 1503              		@ link register save eliminated.
 1504 0000 80B4     		push	{r7}
 1505              		.cfi_def_cfa_offset 4
 1506              		.cfi_offset 7, -4
 1507 0002 00AF     		add	r7, sp, #0
 1508              		.cfi_def_cfa_register 7
 1509              		.loc 24 67 1
 1510 0004 00BF     		nop
 1511 0006 BD46     		mov	sp, r7
 1512              		.cfi_def_cfa_register 13
 1513              		@ sp needed
 1514 0008 80BC     		pop	{r7}
 1515              		.cfi_restore 7
 1516              		.cfi_def_cfa_offset 0
 1517 000a 7047     		bx	lr
 1518              		.cfi_endproc
 1519              	.LFE480:
 1520              		.size	usart6_irq_init, .-usart6_irq_init
 1521              		.section	.text.usart6_irq_deinit,"ax",%progbits
 1522              		.align	1
 1523              		.syntax unified
 1524              		.thumb
 1525              		.thumb_func
 1526              		.type	usart6_irq_deinit, %function
 1527              	usart6_irq_deinit:
 1528              	.LFB481:
 1529              		.loc 24 69 44
 1530              		.cfi_startproc
 1531              		@ args = 0, pretend = 0, frame = 0
 1532              		@ frame_needed = 1, uses_anonymous_args = 0
 1533              		@ link register save eliminated.
 1534 0000 80B4     		push	{r7}
 1535              		.cfi_def_cfa_offset 4
 1536              		.cfi_offset 7, -4
 1537 0002 00AF     		add	r7, sp, #0
 1538              		.cfi_def_cfa_register 7
 1539              		.loc 24 73 1
ARM GAS  C:\Users\DEVELO~1\AppData\Local\Temp\cc6uSDOa.s 			page 28


 1540 0004 00BF     		nop
 1541 0006 BD46     		mov	sp, r7
 1542              		.cfi_def_cfa_register 13
 1543              		@ sp needed
 1544 0008 80BC     		pop	{r7}
 1545              		.cfi_restore 7
 1546              		.cfi_def_cfa_offset 0
 1547 000a 7047     		bx	lr
 1548              		.cfi_endproc
 1549              	.LFE481:
 1550              		.size	usart6_irq_deinit, .-usart6_irq_deinit
 1551              		.section	.text.uart7_irq_init,"ax",%progbits
 1552              		.align	1
 1553              		.syntax unified
 1554              		.thumb
 1555              		.thumb_func
 1556              		.type	uart7_irq_init, %function
 1557              	uart7_irq_init:
 1558              	.LFB482:
 1559              		.file 25 "../../../os/hal/ports/STM32/LLD/USART/stm32_uart7.inc"
 1560              		.loc 25 63 41
 1561              		.cfi_startproc
 1562              		@ args = 0, pretend = 0, frame = 0
 1563              		@ frame_needed = 1, uses_anonymous_args = 0
 1564              		@ link register save eliminated.
 1565 0000 80B4     		push	{r7}
 1566              		.cfi_def_cfa_offset 4
 1567              		.cfi_offset 7, -4
 1568 0002 00AF     		add	r7, sp, #0
 1569              		.cfi_def_cfa_register 7
 1570              		.loc 25 67 1
 1571 0004 00BF     		nop
 1572 0006 BD46     		mov	sp, r7
 1573              		.cfi_def_cfa_register 13
 1574              		@ sp needed
 1575 0008 80BC     		pop	{r7}
 1576              		.cfi_restore 7
 1577              		.cfi_def_cfa_offset 0
 1578 000a 7047     		bx	lr
 1579              		.cfi_endproc
 1580              	.LFE482:
 1581              		.size	uart7_irq_init, .-uart7_irq_init
 1582              		.section	.text.uart7_irq_deinit,"ax",%progbits
 1583              		.align	1
 1584              		.syntax unified
 1585              		.thumb
 1586              		.thumb_func
 1587              		.type	uart7_irq_deinit, %function
 1588              	uart7_irq_deinit:
 1589              	.LFB483:
 1590              		.loc 25 69 43
 1591              		.cfi_startproc
 1592              		@ args = 0, pretend = 0, frame = 0
 1593              		@ frame_needed = 1, uses_anonymous_args = 0
 1594              		@ link register save eliminated.
 1595 0000 80B4     		push	{r7}
 1596              		.cfi_def_cfa_offset 4
ARM GAS  C:\Users\DEVELO~1\AppData\Local\Temp\cc6uSDOa.s 			page 29


 1597              		.cfi_offset 7, -4
 1598 0002 00AF     		add	r7, sp, #0
 1599              		.cfi_def_cfa_register 7
 1600              		.loc 25 73 1
 1601 0004 00BF     		nop
 1602 0006 BD46     		mov	sp, r7
 1603              		.cfi_def_cfa_register 13
 1604              		@ sp needed
 1605 0008 80BC     		pop	{r7}
 1606              		.cfi_restore 7
 1607              		.cfi_def_cfa_offset 0
 1608 000a 7047     		bx	lr
 1609              		.cfi_endproc
 1610              	.LFE483:
 1611              		.size	uart7_irq_deinit, .-uart7_irq_deinit
 1612              		.section	.text.uart8_irq_init,"ax",%progbits
 1613              		.align	1
 1614              		.syntax unified
 1615              		.thumb
 1616              		.thumb_func
 1617              		.type	uart8_irq_init, %function
 1618              	uart8_irq_init:
 1619              	.LFB484:
 1620              		.file 26 "../../../os/hal/ports/STM32/LLD/USART/stm32_uart8.inc"
 1621              		.loc 26 63 41
 1622              		.cfi_startproc
 1623              		@ args = 0, pretend = 0, frame = 0
 1624              		@ frame_needed = 1, uses_anonymous_args = 0
 1625              		@ link register save eliminated.
 1626 0000 80B4     		push	{r7}
 1627              		.cfi_def_cfa_offset 4
 1628              		.cfi_offset 7, -4
 1629 0002 00AF     		add	r7, sp, #0
 1630              		.cfi_def_cfa_register 7
 1631              		.loc 26 67 1
 1632 0004 00BF     		nop
 1633 0006 BD46     		mov	sp, r7
 1634              		.cfi_def_cfa_register 13
 1635              		@ sp needed
 1636 0008 80BC     		pop	{r7}
 1637              		.cfi_restore 7
 1638              		.cfi_def_cfa_offset 0
 1639 000a 7047     		bx	lr
 1640              		.cfi_endproc
 1641              	.LFE484:
 1642              		.size	uart8_irq_init, .-uart8_irq_init
 1643              		.section	.text.uart8_irq_deinit,"ax",%progbits
 1644              		.align	1
 1645              		.syntax unified
 1646              		.thumb
 1647              		.thumb_func
 1648              		.type	uart8_irq_deinit, %function
 1649              	uart8_irq_deinit:
 1650              	.LFB485:
 1651              		.loc 26 69 43
 1652              		.cfi_startproc
 1653              		@ args = 0, pretend = 0, frame = 0
ARM GAS  C:\Users\DEVELO~1\AppData\Local\Temp\cc6uSDOa.s 			page 30


 1654              		@ frame_needed = 1, uses_anonymous_args = 0
 1655              		@ link register save eliminated.
 1656 0000 80B4     		push	{r7}
 1657              		.cfi_def_cfa_offset 4
 1658              		.cfi_offset 7, -4
 1659 0002 00AF     		add	r7, sp, #0
 1660              		.cfi_def_cfa_register 7
 1661              		.loc 26 73 1
 1662 0004 00BF     		nop
 1663 0006 BD46     		mov	sp, r7
 1664              		.cfi_def_cfa_register 13
 1665              		@ sp needed
 1666 0008 80BC     		pop	{r7}
 1667              		.cfi_restore 7
 1668              		.cfi_def_cfa_offset 0
 1669 000a 7047     		bx	lr
 1670              		.cfi_endproc
 1671              	.LFE485:
 1672              		.size	uart8_irq_deinit, .-uart8_irq_deinit
 1673              		.section	.text.uart9_irq_init,"ax",%progbits
 1674              		.align	1
 1675              		.syntax unified
 1676              		.thumb
 1677              		.thumb_func
 1678              		.type	uart9_irq_init, %function
 1679              	uart9_irq_init:
 1680              	.LFB486:
 1681              		.file 27 "../../../os/hal/ports/STM32/LLD/USART/stm32_uart9.inc"
 1682              		.loc 27 63 41
 1683              		.cfi_startproc
 1684              		@ args = 0, pretend = 0, frame = 0
 1685              		@ frame_needed = 1, uses_anonymous_args = 0
 1686              		@ link register save eliminated.
 1687 0000 80B4     		push	{r7}
 1688              		.cfi_def_cfa_offset 4
 1689              		.cfi_offset 7, -4
 1690 0002 00AF     		add	r7, sp, #0
 1691              		.cfi_def_cfa_register 7
 1692              		.loc 27 67 1
 1693 0004 00BF     		nop
 1694 0006 BD46     		mov	sp, r7
 1695              		.cfi_def_cfa_register 13
 1696              		@ sp needed
 1697 0008 80BC     		pop	{r7}
 1698              		.cfi_restore 7
 1699              		.cfi_def_cfa_offset 0
 1700 000a 7047     		bx	lr
 1701              		.cfi_endproc
 1702              	.LFE486:
 1703              		.size	uart9_irq_init, .-uart9_irq_init
 1704              		.section	.text.uart9_irq_deinit,"ax",%progbits
 1705              		.align	1
 1706              		.syntax unified
 1707              		.thumb
 1708              		.thumb_func
 1709              		.type	uart9_irq_deinit, %function
 1710              	uart9_irq_deinit:
ARM GAS  C:\Users\DEVELO~1\AppData\Local\Temp\cc6uSDOa.s 			page 31


 1711              	.LFB487:
 1712              		.loc 27 69 43
 1713              		.cfi_startproc
 1714              		@ args = 0, pretend = 0, frame = 0
 1715              		@ frame_needed = 1, uses_anonymous_args = 0
 1716              		@ link register save eliminated.
 1717 0000 80B4     		push	{r7}
 1718              		.cfi_def_cfa_offset 4
 1719              		.cfi_offset 7, -4
 1720 0002 00AF     		add	r7, sp, #0
 1721              		.cfi_def_cfa_register 7
 1722              		.loc 27 73 1
 1723 0004 00BF     		nop
 1724 0006 BD46     		mov	sp, r7
 1725              		.cfi_def_cfa_register 13
 1726              		@ sp needed
 1727 0008 80BC     		pop	{r7}
 1728              		.cfi_restore 7
 1729              		.cfi_def_cfa_offset 0
 1730 000a 7047     		bx	lr
 1731              		.cfi_endproc
 1732              	.LFE487:
 1733              		.size	uart9_irq_deinit, .-uart9_irq_deinit
 1734              		.section	.text.usart10_irq_init,"ax",%progbits
 1735              		.align	1
 1736              		.syntax unified
 1737              		.thumb
 1738              		.thumb_func
 1739              		.type	usart10_irq_init, %function
 1740              	usart10_irq_init:
 1741              	.LFB488:
 1742              		.file 28 "../../../os/hal/ports/STM32/LLD/USART/stm32_usart10.inc"
 1743              		.loc 28 63 43
 1744              		.cfi_startproc
 1745              		@ args = 0, pretend = 0, frame = 0
 1746              		@ frame_needed = 1, uses_anonymous_args = 0
 1747              		@ link register save eliminated.
 1748 0000 80B4     		push	{r7}
 1749              		.cfi_def_cfa_offset 4
 1750              		.cfi_offset 7, -4
 1751 0002 00AF     		add	r7, sp, #0
 1752              		.cfi_def_cfa_register 7
 1753              		.loc 28 67 1
 1754 0004 00BF     		nop
 1755 0006 BD46     		mov	sp, r7
 1756              		.cfi_def_cfa_register 13
 1757              		@ sp needed
 1758 0008 80BC     		pop	{r7}
 1759              		.cfi_restore 7
 1760              		.cfi_def_cfa_offset 0
 1761 000a 7047     		bx	lr
 1762              		.cfi_endproc
 1763              	.LFE488:
 1764              		.size	usart10_irq_init, .-usart10_irq_init
 1765              		.section	.text.usart10_irq_deinit,"ax",%progbits
 1766              		.align	1
 1767              		.syntax unified
ARM GAS  C:\Users\DEVELO~1\AppData\Local\Temp\cc6uSDOa.s 			page 32


 1768              		.thumb
 1769              		.thumb_func
 1770              		.type	usart10_irq_deinit, %function
 1771              	usart10_irq_deinit:
 1772              	.LFB489:
 1773              		.loc 28 69 45
 1774              		.cfi_startproc
 1775              		@ args = 0, pretend = 0, frame = 0
 1776              		@ frame_needed = 1, uses_anonymous_args = 0
 1777              		@ link register save eliminated.
 1778 0000 80B4     		push	{r7}
 1779              		.cfi_def_cfa_offset 4
 1780              		.cfi_offset 7, -4
 1781 0002 00AF     		add	r7, sp, #0
 1782              		.cfi_def_cfa_register 7
 1783              		.loc 28 73 1
 1784 0004 00BF     		nop
 1785 0006 BD46     		mov	sp, r7
 1786              		.cfi_def_cfa_register 13
 1787              		@ sp needed
 1788 0008 80BC     		pop	{r7}
 1789              		.cfi_restore 7
 1790              		.cfi_def_cfa_offset 0
 1791 000a 7047     		bx	lr
 1792              		.cfi_endproc
 1793              	.LFE489:
 1794              		.size	usart10_irq_deinit, .-usart10_irq_deinit
 1795              		.section	.text.lpuart1_irq_init,"ax",%progbits
 1796              		.align	1
 1797              		.syntax unified
 1798              		.thumb
 1799              		.thumb_func
 1800              		.type	lpuart1_irq_init, %function
 1801              	lpuart1_irq_init:
 1802              	.LFB490:
 1803              		.file 29 "../../../os/hal/ports/STM32/LLD/USART/stm32_lpuart1.inc"
 1804              		.loc 29 63 43
 1805              		.cfi_startproc
 1806              		@ args = 0, pretend = 0, frame = 0
 1807              		@ frame_needed = 1, uses_anonymous_args = 0
 1808              		@ link register save eliminated.
 1809 0000 80B4     		push	{r7}
 1810              		.cfi_def_cfa_offset 4
 1811              		.cfi_offset 7, -4
 1812 0002 00AF     		add	r7, sp, #0
 1813              		.cfi_def_cfa_register 7
 1814              		.loc 29 67 1
 1815 0004 00BF     		nop
 1816 0006 BD46     		mov	sp, r7
 1817              		.cfi_def_cfa_register 13
 1818              		@ sp needed
 1819 0008 80BC     		pop	{r7}
 1820              		.cfi_restore 7
 1821              		.cfi_def_cfa_offset 0
 1822 000a 7047     		bx	lr
 1823              		.cfi_endproc
 1824              	.LFE490:
ARM GAS  C:\Users\DEVELO~1\AppData\Local\Temp\cc6uSDOa.s 			page 33


 1825              		.size	lpuart1_irq_init, .-lpuart1_irq_init
 1826              		.section	.text.lpuart1_irq_deinit,"ax",%progbits
 1827              		.align	1
 1828              		.syntax unified
 1829              		.thumb
 1830              		.thumb_func
 1831              		.type	lpuart1_irq_deinit, %function
 1832              	lpuart1_irq_deinit:
 1833              	.LFB491:
 1834              		.loc 29 69 45
 1835              		.cfi_startproc
 1836              		@ args = 0, pretend = 0, frame = 0
 1837              		@ frame_needed = 1, uses_anonymous_args = 0
 1838              		@ link register save eliminated.
 1839 0000 80B4     		push	{r7}
 1840              		.cfi_def_cfa_offset 4
 1841              		.cfi_offset 7, -4
 1842 0002 00AF     		add	r7, sp, #0
 1843              		.cfi_def_cfa_register 7
 1844              		.loc 29 73 1
 1845 0004 00BF     		nop
 1846 0006 BD46     		mov	sp, r7
 1847              		.cfi_def_cfa_register 13
 1848              		@ sp needed
 1849 0008 80BC     		pop	{r7}
 1850              		.cfi_restore 7
 1851              		.cfi_def_cfa_offset 0
 1852 000a 7047     		bx	lr
 1853              		.cfi_endproc
 1854              	.LFE491:
 1855              		.size	lpuart1_irq_deinit, .-lpuart1_irq_deinit
 1856              		.section	.text.tim1_irq_init,"ax",%progbits
 1857              		.align	1
 1858              		.syntax unified
 1859              		.thumb
 1860              		.thumb_func
 1861              		.type	tim1_irq_init, %function
 1862              	tim1_irq_init:
 1863              	.LFB492:
 1864              		.file 30 "../../../os/hal/ports/STM32/LLD/TIMv1/stm32_tim1.inc"
 1865              		.loc 30 86 40
 1866              		.cfi_startproc
 1867              		@ args = 0, pretend = 0, frame = 0
 1868              		@ frame_needed = 1, uses_anonymous_args = 0
 1869              		@ link register save eliminated.
 1870 0000 80B4     		push	{r7}
 1871              		.cfi_def_cfa_offset 4
 1872              		.cfi_offset 7, -4
 1873 0002 00AF     		add	r7, sp, #0
 1874              		.cfi_def_cfa_register 7
 1875              		.loc 30 91 1
 1876 0004 00BF     		nop
 1877 0006 BD46     		mov	sp, r7
 1878              		.cfi_def_cfa_register 13
 1879              		@ sp needed
 1880 0008 80BC     		pop	{r7}
 1881              		.cfi_restore 7
ARM GAS  C:\Users\DEVELO~1\AppData\Local\Temp\cc6uSDOa.s 			page 34


 1882              		.cfi_def_cfa_offset 0
 1883 000a 7047     		bx	lr
 1884              		.cfi_endproc
 1885              	.LFE492:
 1886              		.size	tim1_irq_init, .-tim1_irq_init
 1887              		.section	.text.tim1_irq_deinit,"ax",%progbits
 1888              		.align	1
 1889              		.syntax unified
 1890              		.thumb
 1891              		.thumb_func
 1892              		.type	tim1_irq_deinit, %function
 1893              	tim1_irq_deinit:
 1894              	.LFB493:
 1895              		.loc 30 93 42
 1896              		.cfi_startproc
 1897              		@ args = 0, pretend = 0, frame = 0
 1898              		@ frame_needed = 1, uses_anonymous_args = 0
 1899              		@ link register save eliminated.
 1900 0000 80B4     		push	{r7}
 1901              		.cfi_def_cfa_offset 4
 1902              		.cfi_offset 7, -4
 1903 0002 00AF     		add	r7, sp, #0
 1904              		.cfi_def_cfa_register 7
 1905              		.loc 30 98 1
 1906 0004 00BF     		nop
 1907 0006 BD46     		mov	sp, r7
 1908              		.cfi_def_cfa_register 13
 1909              		@ sp needed
 1910 0008 80BC     		pop	{r7}
 1911              		.cfi_restore 7
 1912              		.cfi_def_cfa_offset 0
 1913 000a 7047     		bx	lr
 1914              		.cfi_endproc
 1915              	.LFE493:
 1916              		.size	tim1_irq_deinit, .-tim1_irq_deinit
 1917              		.section	.text.tim2_irq_init,"ax",%progbits
 1918              		.align	1
 1919              		.syntax unified
 1920              		.thumb
 1921              		.thumb_func
 1922              		.type	tim2_irq_init, %function
 1923              	tim2_irq_init:
 1924              	.LFB494:
 1925              		.file 31 "../../../os/hal/ports/STM32/LLD/TIMv1/stm32_tim2.inc"
 1926              		.loc 31 78 40
 1927              		.cfi_startproc
 1928              		@ args = 0, pretend = 0, frame = 0
 1929              		@ frame_needed = 1, uses_anonymous_args = 0
 1930 0000 80B5     		push	{r7, lr}
 1931              		.cfi_def_cfa_offset 8
 1932              		.cfi_offset 7, -8
 1933              		.cfi_offset 14, -4
 1934 0002 00AF     		add	r7, sp, #0
 1935              		.cfi_def_cfa_register 7
 1936              		.loc 31 80 3
 1937 0004 0721     		movs	r1, #7
 1938 0006 1C20     		movs	r0, #28
ARM GAS  C:\Users\DEVELO~1\AppData\Local\Temp\cc6uSDOa.s 			page 35


 1939 0008 FFF7FEFF 		bl	nvicEnableVector
 1940              		.loc 31 82 1
 1941 000c 00BF     		nop
 1942 000e 80BD     		pop	{r7, pc}
 1943              		.cfi_endproc
 1944              	.LFE494:
 1945              		.size	tim2_irq_init, .-tim2_irq_init
 1946              		.section	.text.tim2_irq_deinit,"ax",%progbits
 1947              		.align	1
 1948              		.syntax unified
 1949              		.thumb
 1950              		.thumb_func
 1951              		.type	tim2_irq_deinit, %function
 1952              	tim2_irq_deinit:
 1953              	.LFB495:
 1954              		.loc 31 84 42
 1955              		.cfi_startproc
 1956              		@ args = 0, pretend = 0, frame = 0
 1957              		@ frame_needed = 1, uses_anonymous_args = 0
 1958 0000 80B5     		push	{r7, lr}
 1959              		.cfi_def_cfa_offset 8
 1960              		.cfi_offset 7, -8
 1961              		.cfi_offset 14, -4
 1962 0002 00AF     		add	r7, sp, #0
 1963              		.cfi_def_cfa_register 7
 1964              		.loc 31 86 3
 1965 0004 1C20     		movs	r0, #28
 1966 0006 FFF7FEFF 		bl	nvicDisableVector
 1967              		.loc 31 88 1
 1968 000a 00BF     		nop
 1969 000c 80BD     		pop	{r7, pc}
 1970              		.cfi_endproc
 1971              	.LFE495:
 1972              		.size	tim2_irq_deinit, .-tim2_irq_deinit
 1973              		.section	.text.VectorB0,"ax",%progbits
 1974              		.align	1
 1975              		.global	VectorB0
 1976              		.syntax unified
 1977              		.thumb
 1978              		.thumb_func
 1979              		.type	VectorB0, %function
 1980              	VectorB0:
 1981              	.LFB496:
 1982              		.loc 31 100 38
 1983              		.cfi_startproc
 1984              		@ args = 0, pretend = 0, frame = 0
 1985              		@ frame_needed = 1, uses_anonymous_args = 0
 1986 0000 80B5     		push	{r7, lr}
 1987              		.cfi_def_cfa_offset 8
 1988              		.cfi_offset 7, -8
 1989              		.cfi_offset 14, -4
 1990 0002 00AF     		add	r7, sp, #0
 1991              		.cfi_def_cfa_register 7
 1992              		.loc 31 102 3
 1993 0004 0548     		ldr	r0, .L70
 1994 0006 FFF7FEFF 		bl	__trace_isr_enter
 1995              		.loc 31 121 3
ARM GAS  C:\Users\DEVELO~1\AppData\Local\Temp\cc6uSDOa.s 			page 36


 1996 000a FFF7FEFF 		bl	st_lld_serve_interrupt
 1997              		.loc 31 125 3
 1998 000e 0348     		ldr	r0, .L70
 1999 0010 FFF7FEFF 		bl	__trace_isr_leave
 2000 0014 FFF7FEFF 		bl	__port_irq_epilogue
 2001              		.loc 31 126 1
 2002 0018 00BF     		nop
 2003 001a 80BD     		pop	{r7, pc}
 2004              	.L71:
 2005              		.align	2
 2006              	.L70:
 2007 001c 00000000 		.word	__func__.1
 2008              		.cfi_endproc
 2009              	.LFE496:
 2010              		.size	VectorB0, .-VectorB0
 2011              		.section	.text.tim3_irq_init,"ax",%progbits
 2012              		.align	1
 2013              		.syntax unified
 2014              		.thumb
 2015              		.thumb_func
 2016              		.type	tim3_irq_init, %function
 2017              	tim3_irq_init:
 2018              	.LFB497:
 2019              		.file 32 "../../../os/hal/ports/STM32/LLD/TIMv1/stm32_tim3.inc"
 2020              		.loc 32 78 40
 2021              		.cfi_startproc
 2022              		@ args = 0, pretend = 0, frame = 0
 2023              		@ frame_needed = 1, uses_anonymous_args = 0
 2024              		@ link register save eliminated.
 2025 0000 80B4     		push	{r7}
 2026              		.cfi_def_cfa_offset 4
 2027              		.cfi_offset 7, -4
 2028 0002 00AF     		add	r7, sp, #0
 2029              		.cfi_def_cfa_register 7
 2030              		.loc 32 82 1
 2031 0004 00BF     		nop
 2032 0006 BD46     		mov	sp, r7
 2033              		.cfi_def_cfa_register 13
 2034              		@ sp needed
 2035 0008 80BC     		pop	{r7}
 2036              		.cfi_restore 7
 2037              		.cfi_def_cfa_offset 0
 2038 000a 7047     		bx	lr
 2039              		.cfi_endproc
 2040              	.LFE497:
 2041              		.size	tim3_irq_init, .-tim3_irq_init
 2042              		.section	.text.tim3_irq_deinit,"ax",%progbits
 2043              		.align	1
 2044              		.syntax unified
 2045              		.thumb
 2046              		.thumb_func
 2047              		.type	tim3_irq_deinit, %function
 2048              	tim3_irq_deinit:
 2049              	.LFB498:
 2050              		.loc 32 84 42
 2051              		.cfi_startproc
 2052              		@ args = 0, pretend = 0, frame = 0
ARM GAS  C:\Users\DEVELO~1\AppData\Local\Temp\cc6uSDOa.s 			page 37


 2053              		@ frame_needed = 1, uses_anonymous_args = 0
 2054              		@ link register save eliminated.
 2055 0000 80B4     		push	{r7}
 2056              		.cfi_def_cfa_offset 4
 2057              		.cfi_offset 7, -4
 2058 0002 00AF     		add	r7, sp, #0
 2059              		.cfi_def_cfa_register 7
 2060              		.loc 32 88 1
 2061 0004 00BF     		nop
 2062 0006 BD46     		mov	sp, r7
 2063              		.cfi_def_cfa_register 13
 2064              		@ sp needed
 2065 0008 80BC     		pop	{r7}
 2066              		.cfi_restore 7
 2067              		.cfi_def_cfa_offset 0
 2068 000a 7047     		bx	lr
 2069              		.cfi_endproc
 2070              	.LFE498:
 2071              		.size	tim3_irq_deinit, .-tim3_irq_deinit
 2072              		.section	.text.tim4_irq_init,"ax",%progbits
 2073              		.align	1
 2074              		.syntax unified
 2075              		.thumb
 2076              		.thumb_func
 2077              		.type	tim4_irq_init, %function
 2078              	tim4_irq_init:
 2079              	.LFB499:
 2080              		.file 33 "../../../os/hal/ports/STM32/LLD/TIMv1/stm32_tim4.inc"
 2081              		.loc 33 78 40
 2082              		.cfi_startproc
 2083              		@ args = 0, pretend = 0, frame = 0
 2084              		@ frame_needed = 1, uses_anonymous_args = 0
 2085 0000 80B5     		push	{r7, lr}
 2086              		.cfi_def_cfa_offset 8
 2087              		.cfi_offset 7, -8
 2088              		.cfi_offset 14, -4
 2089 0002 00AF     		add	r7, sp, #0
 2090              		.cfi_def_cfa_register 7
 2091              		.loc 33 80 3
 2092 0004 0721     		movs	r1, #7
 2093 0006 1E20     		movs	r0, #30
 2094 0008 FFF7FEFF 		bl	nvicEnableVector
 2095              		.loc 33 82 1
 2096 000c 00BF     		nop
 2097 000e 80BD     		pop	{r7, pc}
 2098              		.cfi_endproc
 2099              	.LFE499:
 2100              		.size	tim4_irq_init, .-tim4_irq_init
 2101              		.section	.text.tim4_irq_deinit,"ax",%progbits
 2102              		.align	1
 2103              		.syntax unified
 2104              		.thumb
 2105              		.thumb_func
 2106              		.type	tim4_irq_deinit, %function
 2107              	tim4_irq_deinit:
 2108              	.LFB500:
 2109              		.loc 33 84 42
ARM GAS  C:\Users\DEVELO~1\AppData\Local\Temp\cc6uSDOa.s 			page 38


 2110              		.cfi_startproc
 2111              		@ args = 0, pretend = 0, frame = 0
 2112              		@ frame_needed = 1, uses_anonymous_args = 0
 2113 0000 80B5     		push	{r7, lr}
 2114              		.cfi_def_cfa_offset 8
 2115              		.cfi_offset 7, -8
 2116              		.cfi_offset 14, -4
 2117 0002 00AF     		add	r7, sp, #0
 2118              		.cfi_def_cfa_register 7
 2119              		.loc 33 86 3
 2120 0004 1E20     		movs	r0, #30
 2121 0006 FFF7FEFF 		bl	nvicDisableVector
 2122              		.loc 33 88 1
 2123 000a 00BF     		nop
 2124 000c 80BD     		pop	{r7, pc}
 2125              		.cfi_endproc
 2126              	.LFE500:
 2127              		.size	tim4_irq_deinit, .-tim4_irq_deinit
 2128              		.section	.text.VectorB8,"ax",%progbits
 2129              		.align	1
 2130              		.global	VectorB8
 2131              		.syntax unified
 2132              		.thumb
 2133              		.thumb_func
 2134              		.type	VectorB8, %function
 2135              	VectorB8:
 2136              	.LFB501:
 2137              		.loc 33 100 38
 2138              		.cfi_startproc
 2139              		@ args = 0, pretend = 0, frame = 0
 2140              		@ frame_needed = 1, uses_anonymous_args = 0
 2141 0000 80B5     		push	{r7, lr}
 2142              		.cfi_def_cfa_offset 8
 2143              		.cfi_offset 7, -8
 2144              		.cfi_offset 14, -4
 2145 0002 00AF     		add	r7, sp, #0
 2146              		.cfi_def_cfa_register 7
 2147              		.loc 33 102 3
 2148 0004 0648     		ldr	r0, .L77
 2149 0006 FFF7FEFF 		bl	__trace_isr_enter
 2150              		.loc 33 106 3
 2151 000a 0648     		ldr	r0, .L77+4
 2152 000c FFF7FEFF 		bl	gpt_lld_serve_interrupt
 2153              		.loc 33 125 3
 2154 0010 0348     		ldr	r0, .L77
 2155 0012 FFF7FEFF 		bl	__trace_isr_leave
 2156 0016 FFF7FEFF 		bl	__port_irq_epilogue
 2157              		.loc 33 126 1
 2158 001a 00BF     		nop
 2159 001c 80BD     		pop	{r7, pc}
 2160              	.L78:
 2161 001e 00BF     		.align	2
 2162              	.L77:
 2163 0020 00000000 		.word	__func__.0
 2164 0024 00000000 		.word	GPTD4
 2165              		.cfi_endproc
 2166              	.LFE501:
ARM GAS  C:\Users\DEVELO~1\AppData\Local\Temp\cc6uSDOa.s 			page 39


 2167              		.size	VectorB8, .-VectorB8
 2168              		.section	.text.tim5_irq_init,"ax",%progbits
 2169              		.align	1
 2170              		.syntax unified
 2171              		.thumb
 2172              		.thumb_func
 2173              		.type	tim5_irq_init, %function
 2174              	tim5_irq_init:
 2175              	.LFB502:
 2176              		.file 34 "../../../os/hal/ports/STM32/LLD/TIMv1/stm32_tim5.inc"
 2177              		.loc 34 78 40
 2178              		.cfi_startproc
 2179              		@ args = 0, pretend = 0, frame = 0
 2180              		@ frame_needed = 1, uses_anonymous_args = 0
 2181              		@ link register save eliminated.
 2182 0000 80B4     		push	{r7}
 2183              		.cfi_def_cfa_offset 4
 2184              		.cfi_offset 7, -4
 2185 0002 00AF     		add	r7, sp, #0
 2186              		.cfi_def_cfa_register 7
 2187              		.loc 34 82 1
 2188 0004 00BF     		nop
 2189 0006 BD46     		mov	sp, r7
 2190              		.cfi_def_cfa_register 13
 2191              		@ sp needed
 2192 0008 80BC     		pop	{r7}
 2193              		.cfi_restore 7
 2194              		.cfi_def_cfa_offset 0
 2195 000a 7047     		bx	lr
 2196              		.cfi_endproc
 2197              	.LFE502:
 2198              		.size	tim5_irq_init, .-tim5_irq_init
 2199              		.section	.text.tim5_irq_deinit,"ax",%progbits
 2200              		.align	1
 2201              		.syntax unified
 2202              		.thumb
 2203              		.thumb_func
 2204              		.type	tim5_irq_deinit, %function
 2205              	tim5_irq_deinit:
 2206              	.LFB503:
 2207              		.loc 34 84 42
 2208              		.cfi_startproc
 2209              		@ args = 0, pretend = 0, frame = 0
 2210              		@ frame_needed = 1, uses_anonymous_args = 0
 2211              		@ link register save eliminated.
 2212 0000 80B4     		push	{r7}
 2213              		.cfi_def_cfa_offset 4
 2214              		.cfi_offset 7, -4
 2215 0002 00AF     		add	r7, sp, #0
 2216              		.cfi_def_cfa_register 7
 2217              		.loc 34 88 1
 2218 0004 00BF     		nop
 2219 0006 BD46     		mov	sp, r7
 2220              		.cfi_def_cfa_register 13
 2221              		@ sp needed
 2222 0008 80BC     		pop	{r7}
 2223              		.cfi_restore 7
ARM GAS  C:\Users\DEVELO~1\AppData\Local\Temp\cc6uSDOa.s 			page 40


 2224              		.cfi_def_cfa_offset 0
 2225 000a 7047     		bx	lr
 2226              		.cfi_endproc
 2227              	.LFE503:
 2228              		.size	tim5_irq_deinit, .-tim5_irq_deinit
 2229              		.section	.text.tim6_irq_init,"ax",%progbits
 2230              		.align	1
 2231              		.syntax unified
 2232              		.thumb
 2233              		.thumb_func
 2234              		.type	tim6_irq_init, %function
 2235              	tim6_irq_init:
 2236              	.LFB504:
 2237              		.file 35 "../../../os/hal/ports/STM32/LLD/TIMv1/stm32_tim6.inc"
 2238              		.loc 35 78 40
 2239              		.cfi_startproc
 2240              		@ args = 0, pretend = 0, frame = 0
 2241              		@ frame_needed = 1, uses_anonymous_args = 0
 2242              		@ link register save eliminated.
 2243 0000 80B4     		push	{r7}
 2244              		.cfi_def_cfa_offset 4
 2245              		.cfi_offset 7, -4
 2246 0002 00AF     		add	r7, sp, #0
 2247              		.cfi_def_cfa_register 7
 2248              		.loc 35 82 1
 2249 0004 00BF     		nop
 2250 0006 BD46     		mov	sp, r7
 2251              		.cfi_def_cfa_register 13
 2252              		@ sp needed
 2253 0008 80BC     		pop	{r7}
 2254              		.cfi_restore 7
 2255              		.cfi_def_cfa_offset 0
 2256 000a 7047     		bx	lr
 2257              		.cfi_endproc
 2258              	.LFE504:
 2259              		.size	tim6_irq_init, .-tim6_irq_init
 2260              		.section	.text.tim6_irq_deinit,"ax",%progbits
 2261              		.align	1
 2262              		.syntax unified
 2263              		.thumb
 2264              		.thumb_func
 2265              		.type	tim6_irq_deinit, %function
 2266              	tim6_irq_deinit:
 2267              	.LFB505:
 2268              		.loc 35 84 42
 2269              		.cfi_startproc
 2270              		@ args = 0, pretend = 0, frame = 0
 2271              		@ frame_needed = 1, uses_anonymous_args = 0
 2272              		@ link register save eliminated.
 2273 0000 80B4     		push	{r7}
 2274              		.cfi_def_cfa_offset 4
 2275              		.cfi_offset 7, -4
 2276 0002 00AF     		add	r7, sp, #0
 2277              		.cfi_def_cfa_register 7
 2278              		.loc 35 88 1
 2279 0004 00BF     		nop
 2280 0006 BD46     		mov	sp, r7
ARM GAS  C:\Users\DEVELO~1\AppData\Local\Temp\cc6uSDOa.s 			page 41


 2281              		.cfi_def_cfa_register 13
 2282              		@ sp needed
 2283 0008 80BC     		pop	{r7}
 2284              		.cfi_restore 7
 2285              		.cfi_def_cfa_offset 0
 2286 000a 7047     		bx	lr
 2287              		.cfi_endproc
 2288              	.LFE505:
 2289              		.size	tim6_irq_deinit, .-tim6_irq_deinit
 2290              		.section	.text.tim7_irq_init,"ax",%progbits
 2291              		.align	1
 2292              		.syntax unified
 2293              		.thumb
 2294              		.thumb_func
 2295              		.type	tim7_irq_init, %function
 2296              	tim7_irq_init:
 2297              	.LFB506:
 2298              		.file 36 "../../../os/hal/ports/STM32/LLD/TIMv1/stm32_tim7.inc"
 2299              		.loc 36 78 40
 2300              		.cfi_startproc
 2301              		@ args = 0, pretend = 0, frame = 0
 2302              		@ frame_needed = 1, uses_anonymous_args = 0
 2303              		@ link register save eliminated.
 2304 0000 80B4     		push	{r7}
 2305              		.cfi_def_cfa_offset 4
 2306              		.cfi_offset 7, -4
 2307 0002 00AF     		add	r7, sp, #0
 2308              		.cfi_def_cfa_register 7
 2309              		.loc 36 82 1
 2310 0004 00BF     		nop
 2311 0006 BD46     		mov	sp, r7
 2312              		.cfi_def_cfa_register 13
 2313              		@ sp needed
 2314 0008 80BC     		pop	{r7}
 2315              		.cfi_restore 7
 2316              		.cfi_def_cfa_offset 0
 2317 000a 7047     		bx	lr
 2318              		.cfi_endproc
 2319              	.LFE506:
 2320              		.size	tim7_irq_init, .-tim7_irq_init
 2321              		.section	.text.tim7_irq_deinit,"ax",%progbits
 2322              		.align	1
 2323              		.syntax unified
 2324              		.thumb
 2325              		.thumb_func
 2326              		.type	tim7_irq_deinit, %function
 2327              	tim7_irq_deinit:
 2328              	.LFB507:
 2329              		.loc 36 84 42
 2330              		.cfi_startproc
 2331              		@ args = 0, pretend = 0, frame = 0
 2332              		@ frame_needed = 1, uses_anonymous_args = 0
 2333              		@ link register save eliminated.
 2334 0000 80B4     		push	{r7}
 2335              		.cfi_def_cfa_offset 4
 2336              		.cfi_offset 7, -4
 2337 0002 00AF     		add	r7, sp, #0
ARM GAS  C:\Users\DEVELO~1\AppData\Local\Temp\cc6uSDOa.s 			page 42


 2338              		.cfi_def_cfa_register 7
 2339              		.loc 36 88 1
 2340 0004 00BF     		nop
 2341 0006 BD46     		mov	sp, r7
 2342              		.cfi_def_cfa_register 13
 2343              		@ sp needed
 2344 0008 80BC     		pop	{r7}
 2345              		.cfi_restore 7
 2346              		.cfi_def_cfa_offset 0
 2347 000a 7047     		bx	lr
 2348              		.cfi_endproc
 2349              	.LFE507:
 2350              		.size	tim7_irq_deinit, .-tim7_irq_deinit
 2351              		.section	.text.tim8_tim12_tim13_tim14_irq_init,"ax",%progbits
 2352              		.align	1
 2353              		.syntax unified
 2354              		.thumb
 2355              		.thumb_func
 2356              		.type	tim8_tim12_tim13_tim14_irq_init, %function
 2357              	tim8_tim12_tim13_tim14_irq_init:
 2358              	.LFB508:
 2359              		.file 37 "../../../os/hal/ports/STM32/LLD/TIMv1/stm32_tim8_12_13_14.inc"
 2360              		.loc 37 153 58
 2361              		.cfi_startproc
 2362              		@ args = 0, pretend = 0, frame = 0
 2363              		@ frame_needed = 1, uses_anonymous_args = 0
 2364              		@ link register save eliminated.
 2365 0000 80B4     		push	{r7}
 2366              		.cfi_def_cfa_offset 4
 2367              		.cfi_offset 7, -4
 2368 0002 00AF     		add	r7, sp, #0
 2369              		.cfi_def_cfa_register 7
 2370              		.loc 37 170 1
 2371 0004 00BF     		nop
 2372 0006 BD46     		mov	sp, r7
 2373              		.cfi_def_cfa_register 13
 2374              		@ sp needed
 2375 0008 80BC     		pop	{r7}
 2376              		.cfi_restore 7
 2377              		.cfi_def_cfa_offset 0
 2378 000a 7047     		bx	lr
 2379              		.cfi_endproc
 2380              	.LFE508:
 2381              		.size	tim8_tim12_tim13_tim14_irq_init, .-tim8_tim12_tim13_tim14_irq_init
 2382              		.section	.text.tim8_tim12_tim13_tim14_irq_deinit,"ax",%progbits
 2383              		.align	1
 2384              		.syntax unified
 2385              		.thumb
 2386              		.thumb_func
 2387              		.type	tim8_tim12_tim13_tim14_irq_deinit, %function
 2388              	tim8_tim12_tim13_tim14_irq_deinit:
 2389              	.LFB509:
 2390              		.loc 37 172 60
 2391              		.cfi_startproc
 2392              		@ args = 0, pretend = 0, frame = 0
 2393              		@ frame_needed = 1, uses_anonymous_args = 0
 2394              		@ link register save eliminated.
ARM GAS  C:\Users\DEVELO~1\AppData\Local\Temp\cc6uSDOa.s 			page 43


 2395 0000 80B4     		push	{r7}
 2396              		.cfi_def_cfa_offset 4
 2397              		.cfi_offset 7, -4
 2398 0002 00AF     		add	r7, sp, #0
 2399              		.cfi_def_cfa_register 7
 2400              		.loc 37 185 1
 2401 0004 00BF     		nop
 2402 0006 BD46     		mov	sp, r7
 2403              		.cfi_def_cfa_register 13
 2404              		@ sp needed
 2405 0008 80BC     		pop	{r7}
 2406              		.cfi_restore 7
 2407              		.cfi_def_cfa_offset 0
 2408 000a 7047     		bx	lr
 2409              		.cfi_endproc
 2410              	.LFE509:
 2411              		.size	tim8_tim12_tim13_tim14_irq_deinit, .-tim8_tim12_tim13_tim14_irq_deinit
 2412              		.section	.text.tim15_irq_init,"ax",%progbits
 2413              		.align	1
 2414              		.syntax unified
 2415              		.thumb
 2416              		.thumb_func
 2417              		.type	tim15_irq_init, %function
 2418              	tim15_irq_init:
 2419              	.LFB510:
 2420              		.file 38 "../../../os/hal/ports/STM32/LLD/TIMv1/stm32_tim15.inc"
 2421              		.loc 38 78 41
 2422              		.cfi_startproc
 2423              		@ args = 0, pretend = 0, frame = 0
 2424              		@ frame_needed = 1, uses_anonymous_args = 0
 2425              		@ link register save eliminated.
 2426 0000 80B4     		push	{r7}
 2427              		.cfi_def_cfa_offset 4
 2428              		.cfi_offset 7, -4
 2429 0002 00AF     		add	r7, sp, #0
 2430              		.cfi_def_cfa_register 7
 2431              		.loc 38 82 1
 2432 0004 00BF     		nop
 2433 0006 BD46     		mov	sp, r7
 2434              		.cfi_def_cfa_register 13
 2435              		@ sp needed
 2436 0008 80BC     		pop	{r7}
 2437              		.cfi_restore 7
 2438              		.cfi_def_cfa_offset 0
 2439 000a 7047     		bx	lr
 2440              		.cfi_endproc
 2441              	.LFE510:
 2442              		.size	tim15_irq_init, .-tim15_irq_init
 2443              		.section	.text.tim15_irq_deinit,"ax",%progbits
 2444              		.align	1
 2445              		.syntax unified
 2446              		.thumb
 2447              		.thumb_func
 2448              		.type	tim15_irq_deinit, %function
 2449              	tim15_irq_deinit:
 2450              	.LFB511:
 2451              		.loc 38 84 43
ARM GAS  C:\Users\DEVELO~1\AppData\Local\Temp\cc6uSDOa.s 			page 44


 2452              		.cfi_startproc
 2453              		@ args = 0, pretend = 0, frame = 0
 2454              		@ frame_needed = 1, uses_anonymous_args = 0
 2455              		@ link register save eliminated.
 2456 0000 80B4     		push	{r7}
 2457              		.cfi_def_cfa_offset 4
 2458              		.cfi_offset 7, -4
 2459 0002 00AF     		add	r7, sp, #0
 2460              		.cfi_def_cfa_register 7
 2461              		.loc 38 88 1
 2462 0004 00BF     		nop
 2463 0006 BD46     		mov	sp, r7
 2464              		.cfi_def_cfa_register 13
 2465              		@ sp needed
 2466 0008 80BC     		pop	{r7}
 2467              		.cfi_restore 7
 2468              		.cfi_def_cfa_offset 0
 2469 000a 7047     		bx	lr
 2470              		.cfi_endproc
 2471              	.LFE511:
 2472              		.size	tim15_irq_deinit, .-tim15_irq_deinit
 2473              		.section	.text.tim16_irq_init,"ax",%progbits
 2474              		.align	1
 2475              		.syntax unified
 2476              		.thumb
 2477              		.thumb_func
 2478              		.type	tim16_irq_init, %function
 2479              	tim16_irq_init:
 2480              	.LFB512:
 2481              		.file 39 "../../../os/hal/ports/STM32/LLD/TIMv1/stm32_tim16.inc"
 2482              		.loc 39 78 41
 2483              		.cfi_startproc
 2484              		@ args = 0, pretend = 0, frame = 0
 2485              		@ frame_needed = 1, uses_anonymous_args = 0
 2486              		@ link register save eliminated.
 2487 0000 80B4     		push	{r7}
 2488              		.cfi_def_cfa_offset 4
 2489              		.cfi_offset 7, -4
 2490 0002 00AF     		add	r7, sp, #0
 2491              		.cfi_def_cfa_register 7
 2492              		.loc 39 82 1
 2493 0004 00BF     		nop
 2494 0006 BD46     		mov	sp, r7
 2495              		.cfi_def_cfa_register 13
 2496              		@ sp needed
 2497 0008 80BC     		pop	{r7}
 2498              		.cfi_restore 7
 2499              		.cfi_def_cfa_offset 0
 2500 000a 7047     		bx	lr
 2501              		.cfi_endproc
 2502              	.LFE512:
 2503              		.size	tim16_irq_init, .-tim16_irq_init
 2504              		.section	.text.tim16_irq_deinit,"ax",%progbits
 2505              		.align	1
 2506              		.syntax unified
 2507              		.thumb
 2508              		.thumb_func
ARM GAS  C:\Users\DEVELO~1\AppData\Local\Temp\cc6uSDOa.s 			page 45


 2509              		.type	tim16_irq_deinit, %function
 2510              	tim16_irq_deinit:
 2511              	.LFB513:
 2512              		.loc 39 84 43
 2513              		.cfi_startproc
 2514              		@ args = 0, pretend = 0, frame = 0
 2515              		@ frame_needed = 1, uses_anonymous_args = 0
 2516              		@ link register save eliminated.
 2517 0000 80B4     		push	{r7}
 2518              		.cfi_def_cfa_offset 4
 2519              		.cfi_offset 7, -4
 2520 0002 00AF     		add	r7, sp, #0
 2521              		.cfi_def_cfa_register 7
 2522              		.loc 39 88 1
 2523 0004 00BF     		nop
 2524 0006 BD46     		mov	sp, r7
 2525              		.cfi_def_cfa_register 13
 2526              		@ sp needed
 2527 0008 80BC     		pop	{r7}
 2528              		.cfi_restore 7
 2529              		.cfi_def_cfa_offset 0
 2530 000a 7047     		bx	lr
 2531              		.cfi_endproc
 2532              	.LFE513:
 2533              		.size	tim16_irq_deinit, .-tim16_irq_deinit
 2534              		.section	.text.tim17_irq_init,"ax",%progbits
 2535              		.align	1
 2536              		.syntax unified
 2537              		.thumb
 2538              		.thumb_func
 2539              		.type	tim17_irq_init, %function
 2540              	tim17_irq_init:
 2541              	.LFB514:
 2542              		.file 40 "../../../os/hal/ports/STM32/LLD/TIMv1/stm32_tim17.inc"
 2543              		.loc 40 78 41
 2544              		.cfi_startproc
 2545              		@ args = 0, pretend = 0, frame = 0
 2546              		@ frame_needed = 1, uses_anonymous_args = 0
 2547              		@ link register save eliminated.
 2548 0000 80B4     		push	{r7}
 2549              		.cfi_def_cfa_offset 4
 2550              		.cfi_offset 7, -4
 2551 0002 00AF     		add	r7, sp, #0
 2552              		.cfi_def_cfa_register 7
 2553              		.loc 40 82 1
 2554 0004 00BF     		nop
 2555 0006 BD46     		mov	sp, r7
 2556              		.cfi_def_cfa_register 13
 2557              		@ sp needed
 2558 0008 80BC     		pop	{r7}
 2559              		.cfi_restore 7
 2560              		.cfi_def_cfa_offset 0
 2561 000a 7047     		bx	lr
 2562              		.cfi_endproc
 2563              	.LFE514:
 2564              		.size	tim17_irq_init, .-tim17_irq_init
 2565              		.section	.text.tim17_irq_deinit,"ax",%progbits
ARM GAS  C:\Users\DEVELO~1\AppData\Local\Temp\cc6uSDOa.s 			page 46


 2566              		.align	1
 2567              		.syntax unified
 2568              		.thumb
 2569              		.thumb_func
 2570              		.type	tim17_irq_deinit, %function
 2571              	tim17_irq_deinit:
 2572              	.LFB515:
 2573              		.loc 40 84 43
 2574              		.cfi_startproc
 2575              		@ args = 0, pretend = 0, frame = 0
 2576              		@ frame_needed = 1, uses_anonymous_args = 0
 2577              		@ link register save eliminated.
 2578 0000 80B4     		push	{r7}
 2579              		.cfi_def_cfa_offset 4
 2580              		.cfi_offset 7, -4
 2581 0002 00AF     		add	r7, sp, #0
 2582              		.cfi_def_cfa_register 7
 2583              		.loc 40 88 1
 2584 0004 00BF     		nop
 2585 0006 BD46     		mov	sp, r7
 2586              		.cfi_def_cfa_register 13
 2587              		@ sp needed
 2588 0008 80BC     		pop	{r7}
 2589              		.cfi_restore 7
 2590              		.cfi_def_cfa_offset 0
 2591 000a 7047     		bx	lr
 2592              		.cfi_endproc
 2593              	.LFE515:
 2594              		.size	tim17_irq_deinit, .-tim17_irq_deinit
 2595              		.section	.text.irqInit,"ax",%progbits
 2596              		.align	1
 2597              		.global	irqInit
 2598              		.syntax unified
 2599              		.thumb
 2600              		.thumb_func
 2601              		.type	irqInit, %function
 2602              	irqInit:
 2603              	.LFB516:
 2604              		.file 41 "../../../os/hal/ports/STM32/STM32H7xx/stm32_isr.c"
 2605              		.loc 41 114 20
 2606              		.cfi_startproc
 2607              		@ args = 0, pretend = 0, frame = 0
 2608              		@ frame_needed = 1, uses_anonymous_args = 0
 2609 0000 80B5     		push	{r7, lr}
 2610              		.cfi_def_cfa_offset 8
 2611              		.cfi_offset 7, -8
 2612              		.cfi_offset 14, -4
 2613 0002 00AF     		add	r7, sp, #0
 2614              		.cfi_def_cfa_register 7
 2615              		.loc 41 116 3
 2616 0004 FFF7FEFF 		bl	exti0_irq_init
 2617              		.loc 41 117 3
 2618 0008 FFF7FEFF 		bl	exti1_irq_init
 2619              		.loc 41 118 3
 2620 000c FFF7FEFF 		bl	exti2_irq_init
 2621              		.loc 41 119 3
 2622 0010 FFF7FEFF 		bl	exti3_irq_init
ARM GAS  C:\Users\DEVELO~1\AppData\Local\Temp\cc6uSDOa.s 			page 47


 2623              		.loc 41 120 3
 2624 0014 FFF7FEFF 		bl	exti4_irq_init
 2625              		.loc 41 121 3
 2626 0018 FFF7FEFF 		bl	exti5_9_irq_init
 2627              		.loc 41 122 3
 2628 001c FFF7FEFF 		bl	exti10_15_irq_init
 2629              		.loc 41 123 3
 2630 0020 FFF7FEFF 		bl	exti16_irq_init
 2631              		.loc 41 124 3
 2632 0024 FFF7FEFF 		bl	exti17_irq_init
 2633              		.loc 41 125 3
 2634 0028 FFF7FEFF 		bl	exti18_irq_init
 2635              		.loc 41 126 3
 2636 002c FFF7FEFF 		bl	exti19_irq_init
 2637              		.loc 41 127 3
 2638 0030 FFF7FEFF 		bl	exti20_exti21_irq_init
 2639              		.loc 41 129 3
 2640 0034 FFF7FEFF 		bl	fdcan1_irq_init
 2641              		.loc 41 130 3
 2642 0038 FFF7FEFF 		bl	fdcan2_irq_init
 2643              		.loc 41 131 3
 2644 003c FFF7FEFF 		bl	fdcan3_irq_init
 2645              		.loc 41 133 3
 2646 0040 0921     		movs	r1, #9
 2647 0042 7A20     		movs	r0, #122
 2648 0044 FFF7FEFF 		bl	nvicEnableVector
 2649              		.loc 41 136 3
 2650 0048 FFF7FEFF 		bl	quadspi1_irq_init
 2651              		.loc 41 142 3
 2652 004c FFF7FEFF 		bl	sdmmc1_irq_init
 2653              		.loc 41 143 3
 2654 0050 FFF7FEFF 		bl	sdmmc2_irq_init
 2655              		.loc 41 145 3
 2656 0054 FFF7FEFF 		bl	tim1_irq_init
 2657              		.loc 41 146 3
 2658 0058 FFF7FEFF 		bl	tim2_irq_init
 2659              		.loc 41 147 3
 2660 005c FFF7FEFF 		bl	tim3_irq_init
 2661              		.loc 41 148 3
 2662 0060 FFF7FEFF 		bl	tim4_irq_init
 2663              		.loc 41 149 3
 2664 0064 FFF7FEFF 		bl	tim5_irq_init
 2665              		.loc 41 150 3
 2666 0068 FFF7FEFF 		bl	tim6_irq_init
 2667              		.loc 41 151 3
 2668 006c FFF7FEFF 		bl	tim7_irq_init
 2669              		.loc 41 152 3
 2670 0070 FFF7FEFF 		bl	tim8_tim12_tim13_tim14_irq_init
 2671              		.loc 41 153 3
 2672 0074 FFF7FEFF 		bl	tim15_irq_init
 2673              		.loc 41 154 3
 2674 0078 FFF7FEFF 		bl	tim16_irq_init
 2675              		.loc 41 155 3
 2676 007c FFF7FEFF 		bl	tim17_irq_init
 2677              		.loc 41 157 3
 2678 0080 FFF7FEFF 		bl	usart1_irq_init
 2679              		.loc 41 158 3
ARM GAS  C:\Users\DEVELO~1\AppData\Local\Temp\cc6uSDOa.s 			page 48


 2680 0084 FFF7FEFF 		bl	usart2_irq_init
 2681              		.loc 41 159 3
 2682 0088 FFF7FEFF 		bl	usart3_irq_init
 2683              		.loc 41 160 3
 2684 008c FFF7FEFF 		bl	uart4_irq_init
 2685              		.loc 41 161 3
 2686 0090 FFF7FEFF 		bl	uart5_irq_init
 2687              		.loc 41 162 3
 2688 0094 FFF7FEFF 		bl	usart6_irq_init
 2689              		.loc 41 163 3
 2690 0098 FFF7FEFF 		bl	uart7_irq_init
 2691              		.loc 41 164 3
 2692 009c FFF7FEFF 		bl	uart8_irq_init
 2693              		.loc 41 165 3
 2694 00a0 FFF7FEFF 		bl	uart9_irq_init
 2695              		.loc 41 166 3
 2696 00a4 FFF7FEFF 		bl	usart10_irq_init
 2697              		.loc 41 167 3
 2698 00a8 FFF7FEFF 		bl	lpuart1_irq_init
 2699              		.loc 41 168 1
 2700 00ac 00BF     		nop
 2701 00ae 80BD     		pop	{r7, pc}
 2702              		.cfi_endproc
 2703              	.LFE516:
 2704              		.size	irqInit, .-irqInit
 2705              		.section	.text.irqDeinit,"ax",%progbits
 2706              		.align	1
 2707              		.global	irqDeinit
 2708              		.syntax unified
 2709              		.thumb
 2710              		.thumb_func
 2711              		.type	irqDeinit, %function
 2712              	irqDeinit:
 2713              	.LFB517:
 2714              		.loc 41 175 22
 2715              		.cfi_startproc
 2716              		@ args = 0, pretend = 0, frame = 0
 2717              		@ frame_needed = 1, uses_anonymous_args = 0
 2718 0000 80B5     		push	{r7, lr}
 2719              		.cfi_def_cfa_offset 8
 2720              		.cfi_offset 7, -8
 2721              		.cfi_offset 14, -4
 2722 0002 00AF     		add	r7, sp, #0
 2723              		.cfi_def_cfa_register 7
 2724              		.loc 41 177 3
 2725 0004 FFF7FEFF 		bl	exti0_irq_deinit
 2726              		.loc 41 178 3
 2727 0008 FFF7FEFF 		bl	exti1_irq_deinit
 2728              		.loc 41 179 3
 2729 000c FFF7FEFF 		bl	exti2_irq_deinit
 2730              		.loc 41 180 3
 2731 0010 FFF7FEFF 		bl	exti3_irq_deinit
 2732              		.loc 41 181 3
 2733 0014 FFF7FEFF 		bl	exti4_irq_deinit
 2734              		.loc 41 182 3
 2735 0018 FFF7FEFF 		bl	exti5_9_irq_deinit
 2736              		.loc 41 183 3
ARM GAS  C:\Users\DEVELO~1\AppData\Local\Temp\cc6uSDOa.s 			page 49


 2737 001c FFF7FEFF 		bl	exti10_15_irq_deinit
 2738              		.loc 41 184 3
 2739 0020 FFF7FEFF 		bl	exti16_irq_deinit
 2740              		.loc 41 185 3
 2741 0024 FFF7FEFF 		bl	exti17_irq_deinit
 2742              		.loc 41 186 3
 2743 0028 FFF7FEFF 		bl	exti18_irq_deinit
 2744              		.loc 41 187 3
 2745 002c FFF7FEFF 		bl	exti19_irq_deinit
 2746              		.loc 41 188 3
 2747 0030 FFF7FEFF 		bl	exti20_exti21_irq_deinit
 2748              		.loc 41 190 3
 2749 0034 FFF7FEFF 		bl	fdcan1_irq_deinit
 2750              		.loc 41 191 3
 2751 0038 FFF7FEFF 		bl	fdcan2_irq_deinit
 2752              		.loc 41 192 3
 2753 003c FFF7FEFF 		bl	fdcan3_irq_deinit
 2754              		.loc 41 194 3
 2755 0040 7A20     		movs	r0, #122
 2756 0042 FFF7FEFF 		bl	nvicDisableVector
 2757              		.loc 41 197 3
 2758 0046 FFF7FEFF 		bl	quadspi1_irq_deinit
 2759              		.loc 41 203 3
 2760 004a FFF7FEFF 		bl	sdmmc1_irq_deinit
 2761              		.loc 41 204 3
 2762 004e FFF7FEFF 		bl	sdmmc2_irq_deinit
 2763              		.loc 41 206 3
 2764 0052 FFF7FEFF 		bl	tim1_irq_deinit
 2765              		.loc 41 207 3
 2766 0056 FFF7FEFF 		bl	tim2_irq_deinit
 2767              		.loc 41 208 3
 2768 005a FFF7FEFF 		bl	tim3_irq_deinit
 2769              		.loc 41 209 3
 2770 005e FFF7FEFF 		bl	tim4_irq_deinit
 2771              		.loc 41 210 3
 2772 0062 FFF7FEFF 		bl	tim5_irq_deinit
 2773              		.loc 41 211 3
 2774 0066 FFF7FEFF 		bl	tim6_irq_deinit
 2775              		.loc 41 212 3
 2776 006a FFF7FEFF 		bl	tim7_irq_deinit
 2777              		.loc 41 213 3
 2778 006e FFF7FEFF 		bl	tim8_tim12_tim13_tim14_irq_deinit
 2779              		.loc 41 214 3
 2780 0072 FFF7FEFF 		bl	tim15_irq_deinit
 2781              		.loc 41 215 3
 2782 0076 FFF7FEFF 		bl	tim16_irq_deinit
 2783              		.loc 41 216 3
 2784 007a FFF7FEFF 		bl	tim17_irq_deinit
 2785              		.loc 41 218 3
 2786 007e FFF7FEFF 		bl	usart1_irq_deinit
 2787              		.loc 41 219 3
 2788 0082 FFF7FEFF 		bl	usart2_irq_deinit
 2789              		.loc 41 220 3
 2790 0086 FFF7FEFF 		bl	usart3_irq_deinit
 2791              		.loc 41 221 3
 2792 008a FFF7FEFF 		bl	uart4_irq_deinit
 2793              		.loc 41 222 3
ARM GAS  C:\Users\DEVELO~1\AppData\Local\Temp\cc6uSDOa.s 			page 50


 2794 008e FFF7FEFF 		bl	uart5_irq_deinit
 2795              		.loc 41 223 3
 2796 0092 FFF7FEFF 		bl	usart6_irq_deinit
 2797              		.loc 41 224 3
 2798 0096 FFF7FEFF 		bl	uart7_irq_deinit
 2799              		.loc 41 225 3
 2800 009a FFF7FEFF 		bl	uart8_irq_deinit
 2801              		.loc 41 226 3
 2802 009e FFF7FEFF 		bl	uart9_irq_deinit
 2803              		.loc 41 227 3
 2804 00a2 FFF7FEFF 		bl	usart10_irq_deinit
 2805              		.loc 41 228 3
 2806 00a6 FFF7FEFF 		bl	lpuart1_irq_deinit
 2807              		.loc 41 229 1
 2808 00aa 00BF     		nop
 2809 00ac 80BD     		pop	{r7, pc}
 2810              		.cfi_endproc
 2811              	.LFE517:
 2812              		.size	irqDeinit, .-irqDeinit
 2813              		.section	.rodata.__func__.3,"a"
 2814              		.align	2
 2815              		.type	__func__.3, %object
 2816              		.size	__func__.3, 9
 2817              	__func__.3:
 2818 0000 56656374 		.ascii	"VectorD4\000"
 2818      6F724434 
 2818      00
 2819              		.section	.rodata.__func__.2,"a"
 2820              		.align	2
 2821              		.type	__func__.2, %object
 2822              		.size	__func__.2, 10
 2823              	__func__.2:
 2824 0000 56656374 		.ascii	"Vector114\000"
 2824      6F723131 
 2824      3400
 2825              		.section	.rodata.__func__.1,"a"
 2826              		.align	2
 2827              		.type	__func__.1, %object
 2828              		.size	__func__.1, 9
 2829              	__func__.1:
 2830 0000 56656374 		.ascii	"VectorB0\000"
 2830      6F724230 
 2830      00
 2831              		.section	.rodata.__func__.0,"a"
 2832              		.align	2
 2833              		.type	__func__.0, %object
 2834              		.size	__func__.0, 9
 2835              	__func__.0:
 2836 0000 56656374 		.ascii	"VectorB8\000"
 2836      6F724238 
 2836      00
 2837              		.text
 2838              	.Letext0:
 2839              		.file 42 "c:\\chibistudio\\tools\\gnu tools arm embedded\\11.3 2022.08\\lib\\gcc\\arm-none-eabi\\1
 2840              		.file 43 "c:\\chibistudio\\tools\\gnu tools arm embedded\\11.3 2022.08\\arm-none-eabi\\include\\ma
 2841              		.file 44 "c:\\chibistudio\\tools\\gnu tools arm embedded\\11.3 2022.08\\arm-none-eabi\\include\\sy
 2842              		.file 45 "../../../os/common/ports/ARM-common/chtypes.h"
ARM GAS  C:\Users\DEVELO~1\AppData\Local\Temp\cc6uSDOa.s 			page 51


 2843              		.file 46 "../../../os/rt/include/chearly.h"
 2844              		.file 47 "../../../os/rt/include/chobjects.h"
 2845              		.file 48 "../../../os/rt/include/chrfcu.h"
 2846              		.file 49 "../../../os/rt/include/chdebug.h"
 2847              		.file 50 "../../../os/rt/include/chtime.h"
 2848              		.file 51 "../../../os/rt/include/chlists.h"
 2849              		.file 52 "../../../os/rt/include/chtrace.h"
 2850              		.file 53 "../../../os/common/ext/ST/STM32H7xx/stm32h743xx.h"
 2851              		.file 54 "../../../os/common/ports/ARMv7-M/chcore.h"
 2852              		.file 55 "../../../os/rt/include/chsem.h"
 2853              		.file 56 "../../../os/rt/include/chmtx.h"
 2854              		.file 57 "../../../os/rt/include/chevents.h"
 2855              		.file 58 "../../../os/hal/ports/STM32/LLD/TIMv1/stm32_tim.h"
 2856              		.file 59 "../../../os/hal/include/hal_queues.h"
 2857              		.file 60 "../../../os/hal/include/hal_gpt.h"
 2858              		.file 61 "../../../os/hal/ports/STM32/LLD/TIMv1/hal_gpt_lld.h"
 2859              		.file 62 "../../../os/hal/include/hal_serial.h"
 2860              		.file 63 "../../../os/hal/ports/STM32/LLD/USARTv3/hal_serial_lld.h"
 2861              		.file 64 "../../../os/hal/ports/common/ARMCMx/nvic.h"
 2862              		.file 65 "../../../os/hal/ports/STM32/LLD/SYSTICKv1/hal_st_lld.h"