ARM GAS  C:\Users\DEVELO~1\AppData\Local\Temp\ccN8r03g.s 			page 1


   1              		.cpu cortex-m7
   2              		.arch armv7e-m
   3              		.fpu softvfp
   4              		.eabi_attribute 20, 1
   5              		.eabi_attribute 21, 1
   6              		.eabi_attribute 23, 3
   7              		.eabi_attribute 24, 1
   8              		.eabi_attribute 25, 1
   9              		.eabi_attribute 26, 1
  10              		.eabi_attribute 30, 6
  11              		.eabi_attribute 34, 1
  12              		.eabi_attribute 18, 4
  13              		.file	"stm32h7xx_hal_sai_ex.c"
  14              		.text
  15              	.Ltext0:
  16              		.cfi_sections	.debug_frame
  17              		.section	.text.HAL_SAIEx_ConfigPdmMicDelay,"ax",%progbits
  18              		.align	1
  19              		.global	HAL_SAIEx_ConfigPdmMicDelay
  20              		.syntax unified
  21              		.thumb
  22              		.thumb_func
  23              		.type	HAL_SAIEx_ConfigPdmMicDelay, %function
  24              	HAL_SAIEx_ConfigPdmMicDelay:
  25              	.LFB141:
  26              		.file 1 "drivers/stm32h7xx-hal-driver/Src/stm32h7xx_hal_sai_ex.c"
  27              		.loc 1 72 1
  28              		.cfi_startproc
  29              		@ args = 0, pretend = 0, frame = 24
  30              		@ frame_needed = 1, uses_anonymous_args = 0
  31              		@ link register save eliminated.
  32 0000 80B4     		push	{r7}
  33              		.cfi_def_cfa_offset 4
  34              		.cfi_offset 7, -4
  35 0002 87B0     		sub	sp, sp, #28
  36              		.cfi_def_cfa_offset 32
  37 0004 00AF     		add	r7, sp, #0
  38              		.cfi_def_cfa_register 7
  39 0006 7860     		str	r0, [r7, #4]
  40 0008 3960     		str	r1, [r7]
  41              		.loc 1 73 21
  42 000a 0023     		movs	r3, #0
  43 000c FB75     		strb	r3, [r7, #23]
  44              		.loc 1 79 26
  45 000e 7B68     		ldr	r3, [r7, #4]
  46 0010 1B68     		ldr	r3, [r3]
  47              		.loc 1 79 61
  48 0012 214A     		ldr	r2, .L10
  49 0014 9342     		cmp	r3, r2
  50 0016 08D0     		beq	.L2
  51              		.loc 1 80 26
  52 0018 7B68     		ldr	r3, [r7, #4]
  53 001a 1B68     		ldr	r3, [r3]
  54              		.loc 1 80 61
  55 001c 1F4A     		ldr	r2, .L10+4
  56 001e 9342     		cmp	r3, r2
  57 0020 01D1     		bne	.L3
ARM GAS  C:\Users\DEVELO~1\AppData\Local\Temp\ccN8r03g.s 			page 2


  58              		.loc 1 80 61 is_stmt 0 discriminator 1
  59 0022 1F4B     		ldr	r3, .L10+8
  60 0024 02E0     		b	.L5
  61              	.L3:
  62              		.loc 1 80 61 discriminator 2
  63 0026 0023     		movs	r3, #0
  64 0028 00E0     		b	.L5
  65              	.L2:
  66              		.loc 1 79 61 is_stmt 1 discriminator 1
  67 002a 1E4B     		ldr	r3, .L10+12
  68              	.L5:
  69              		.loc 1 79 18 discriminator 3
  70 002c 3B61     		str	r3, [r7, #16]
  71              		.loc 1 87 6 discriminator 3
  72 002e 3B69     		ldr	r3, [r7, #16]
  73 0030 002B     		cmp	r3, #0
  74 0032 02D1     		bne	.L6
  75              		.loc 1 89 12
  76 0034 0123     		movs	r3, #1
  77 0036 FB75     		strb	r3, [r7, #23]
  78 0038 28E0     		b	.L7
  79              	.L6:
  80              		.loc 1 99 49
  81 003a 3B68     		ldr	r3, [r7]
  82 003c 1B68     		ldr	r3, [r3]
  83              		.loc 1 99 59
  84 003e 013B     		subs	r3, r3, #1
  85              		.loc 1 99 12
  86 0040 DB00     		lsls	r3, r3, #3
  87 0042 FB60     		str	r3, [r7, #12]
  88              		.loc 1 102 14
  89 0044 7B68     		ldr	r3, [r7, #4]
  90 0046 93F89130 		ldrb	r3, [r3, #145]
  91 004a DBB2     		uxtb	r3, r3
  92              		.loc 1 102 8
  93 004c 002B     		cmp	r3, #0
  94 004e 1BD0     		beq	.L8
  95              		.loc 1 102 46 discriminator 1
  96 0050 FB68     		ldr	r3, [r7, #12]
  97 0052 182B     		cmp	r3, #24
  98 0054 18D8     		bhi	.L8
  99              		.loc 1 105 30
 100 0056 3B69     		ldr	r3, [r7, #16]
 101 0058 9A6C     		ldr	r2, [r3, #72]
 102              		.loc 1 105 54
 103 005a 7721     		movs	r1, #119
 104 005c FB68     		ldr	r3, [r7, #12]
 105 005e 01FA03F3 		lsl	r3, r1, r3
 106              		.loc 1 105 33
 107 0062 DB43     		mvns	r3, r3
 108              		.loc 1 105 30
 109 0064 1A40     		ands	r2, r2, r3
 110 0066 3B69     		ldr	r3, [r7, #16]
 111 0068 9A64     		str	r2, [r3, #72]
 112              		.loc 1 108 30
 113 006a 3B69     		ldr	r3, [r7, #16]
 114 006c 9A6C     		ldr	r2, [r3, #72]
ARM GAS  C:\Users\DEVELO~1\AppData\Local\Temp\ccN8r03g.s 			page 3


 115              		.loc 1 108 47
 116 006e 3B68     		ldr	r3, [r7]
 117 0070 9B68     		ldr	r3, [r3, #8]
 118              		.loc 1 108 60
 119 0072 1901     		lsls	r1, r3, #4
 120              		.loc 1 108 104
 121 0074 3B68     		ldr	r3, [r7]
 122 0076 5B68     		ldr	r3, [r3, #4]
 123              		.loc 1 108 91
 124 0078 1943     		orrs	r1, r1, r3
 125              		.loc 1 108 117
 126 007a FB68     		ldr	r3, [r7, #12]
 127 007c 01FA03F3 		lsl	r3, r1, r3
 128              		.loc 1 108 30
 129 0080 1A43     		orrs	r2, r2, r3
 130 0082 3B69     		ldr	r3, [r7, #16]
 131 0084 9A64     		str	r2, [r3, #72]
 132 0086 01E0     		b	.L7
 133              	.L8:
 134              		.loc 1 112 14
 135 0088 0123     		movs	r3, #1
 136 008a FB75     		strb	r3, [r7, #23]
 137              	.L7:
 138              		.loc 1 115 10
 139 008c FB7D     		ldrb	r3, [r7, #23]	@ zero_extendqisi2
 140              		.loc 1 116 1
 141 008e 1846     		mov	r0, r3
 142 0090 1C37     		adds	r7, r7, #28
 143              		.cfi_def_cfa_offset 4
 144 0092 BD46     		mov	sp, r7
 145              		.cfi_def_cfa_register 13
 146              		@ sp needed
 147 0094 80BC     		pop	{r7}
 148              		.cfi_restore 7
 149              		.cfi_def_cfa_offset 0
 150 0096 7047     		bx	lr
 151              	.L11:
 152              		.align	2
 153              	.L10:
 154 0098 04580140 		.word	1073829892
 155 009c 04540058 		.word	1476416516
 156 00a0 00540058 		.word	1476416512
 157 00a4 00580140 		.word	1073829888
 158              		.cfi_endproc
 159              	.LFE141:
 160              		.size	HAL_SAIEx_ConfigPdmMicDelay, .-HAL_SAIEx_ConfigPdmMicDelay
 161              		.text
 162              	.Letext0:
 163              		.file 2 "c:\\chibistudio\\tools\\gnu tools arm embedded\\11.3 2022.08\\arm-none-eabi\\include\\mac
 164              		.file 3 "c:\\chibistudio\\tools\\gnu tools arm embedded\\11.3 2022.08\\arm-none-eabi\\include\\sys
 165              		.file 4 "../../../os/common/ext/ST/STM32H7xx/stm32h743xx.h"
 166              		.file 5 "../../../os/common/ext/ST/STM32H7xx/stm32h7xx.h"
 167              		.file 6 "drivers/stm32h7xx-hal-driver/Inc/stm32h7xx_hal_def.h"
 168              		.file 7 "drivers/stm32h7xx-hal-driver/Inc/stm32h7xx_hal_dma.h"
 169              		.file 8 "drivers/stm32h7xx-hal-driver/Inc/stm32h7xx_hal_sai.h"
 170              		.file 9 "drivers/stm32h7xx-hal-driver/Inc/stm32h7xx_hal_sai_ex.h"
 171              		.section	.debug_info,"",%progbits
ARM GAS  C:\Users\DEVELO~1\AppData\Local\Temp\ccN8r03g.s 			page 4


 172              	.Ldebug_info0:
 173 0000 C4080000 		.4byte	0x8c4
 174 0004 0500     		.2byte	0x5
 175 0006 01       		.byte	0x1
 176 0007 04       		.byte	0x4
 177 0008 00000000 		.4byte	.Ldebug_abbrev0
 178 000c 13       		.uleb128 0x13
 179 000d 76010000 		.4byte	.LASF146
 180 0011 1D       		.byte	0x1d
 181 0012 86070000 		.4byte	.LASF147
 182 0016 1D060000 		.4byte	.LASF148
 183 001a 0C000000 		.4byte	.LLRL0
 184 001e 00000000 		.4byte	0
 185 0022 00000000 		.4byte	.Ldebug_line0
 186 0026 05       		.uleb128 0x5
 187 0027 02       		.byte	0x2
 188 0028 05       		.byte	0x5
 189 0029 14040000 		.4byte	.LASF0
 190 002d 05       		.uleb128 0x5
 191 002e 01       		.byte	0x1
 192 002f 06       		.byte	0x6
 193 0030 1C010000 		.4byte	.LASF1
 194 0034 02       		.uleb128 0x2
 195 0035 50000000 		.4byte	.LASF3
 196 0039 02       		.byte	0x2
 197 003a 2B       		.byte	0x2b
 198 003b 18       		.byte	0x18
 199 003c 40000000 		.4byte	0x40
 200 0040 05       		.uleb128 0x5
 201 0041 01       		.byte	0x1
 202 0042 08       		.byte	0x8
 203 0043 8D050000 		.4byte	.LASF2
 204 0047 02       		.uleb128 0x2
 205 0048 4E070000 		.4byte	.LASF4
 206 004c 02       		.byte	0x2
 207 004d 39       		.byte	0x39
 208 004e 19       		.byte	0x19
 209 004f 53000000 		.4byte	0x53
 210 0053 05       		.uleb128 0x5
 211 0054 02       		.byte	0x2
 212 0055 07       		.byte	0x7
 213 0056 B1030000 		.4byte	.LASF5
 214 005a 05       		.uleb128 0x5
 215 005b 04       		.byte	0x4
 216 005c 05       		.byte	0x5
 217 005d 25020000 		.4byte	.LASF6
 218 0061 02       		.uleb128 0x2
 219 0062 C5020000 		.4byte	.LASF7
 220 0066 02       		.byte	0x2
 221 0067 4F       		.byte	0x4f
 222 0068 19       		.byte	0x19
 223 0069 6D000000 		.4byte	0x6d
 224 006d 05       		.uleb128 0x5
 225 006e 04       		.byte	0x4
 226 006f 07       		.byte	0x7
 227 0070 77030000 		.4byte	.LASF8
 228 0074 05       		.uleb128 0x5
ARM GAS  C:\Users\DEVELO~1\AppData\Local\Temp\ccN8r03g.s 			page 5


 229 0075 08       		.byte	0x8
 230 0076 05       		.byte	0x5
 231 0077 0E010000 		.4byte	.LASF9
 232 007b 05       		.uleb128 0x5
 233 007c 08       		.byte	0x8
 234 007d 07       		.byte	0x7
 235 007e 44010000 		.4byte	.LASF10
 236 0082 14       		.uleb128 0x14
 237 0083 04       		.byte	0x4
 238 0084 05       		.byte	0x5
 239 0085 696E7400 		.ascii	"int\000"
 240 0089 05       		.uleb128 0x5
 241 008a 04       		.byte	0x4
 242 008b 07       		.byte	0x7
 243 008c 24030000 		.4byte	.LASF11
 244 0090 02       		.uleb128 0x2
 245 0091 2C080000 		.4byte	.LASF12
 246 0095 03       		.byte	0x3
 247 0096 18       		.byte	0x18
 248 0097 13       		.byte	0x13
 249 0098 34000000 		.4byte	0x34
 250 009c 02       		.uleb128 0x2
 251 009d 69020000 		.4byte	.LASF13
 252 00a1 03       		.byte	0x3
 253 00a2 24       		.byte	0x24
 254 00a3 14       		.byte	0x14
 255 00a4 47000000 		.4byte	0x47
 256 00a8 02       		.uleb128 0x2
 257 00a9 DC060000 		.4byte	.LASF14
 258 00ad 03       		.byte	0x3
 259 00ae 30       		.byte	0x30
 260 00af 14       		.byte	0x14
 261 00b0 61000000 		.4byte	0x61
 262 00b4 0C       		.uleb128 0xc
 263 00b5 A8000000 		.4byte	0xa8
 264 00b9 08       		.uleb128 0x8
 265 00ba 04       		.byte	0x4
 266 00bb 5102     		.2byte	0x251
 267 00bd CF000000 		.4byte	0xcf
 268 00c1 06       		.uleb128 0x6
 269 00c2 43435200 		.ascii	"CCR\000"
 270 00c6 5302     		.2byte	0x253
 271 00c8 12       		.byte	0x12
 272 00c9 B4000000 		.4byte	0xb4
 273 00cd 00       		.byte	0
 274 00ce 00       		.byte	0
 275 00cf 09       		.uleb128 0x9
 276 00d0 FF070000 		.4byte	.LASF15
 277 00d4 5402     		.2byte	0x254
 278 00d6 02       		.byte	0x2
 279 00d7 B9000000 		.4byte	0xb9
 280 00db 08       		.uleb128 0x8
 281 00dc 08       		.byte	0x8
 282 00dd 5602     		.2byte	0x256
 283 00df FE000000 		.4byte	0xfe
 284 00e3 06       		.uleb128 0x6
 285 00e4 43535200 		.ascii	"CSR\000"
ARM GAS  C:\Users\DEVELO~1\AppData\Local\Temp\ccN8r03g.s 			page 6


 286 00e8 5802     		.2byte	0x258
 287 00ea 12       		.byte	0x12
 288 00eb B4000000 		.4byte	0xb4
 289 00ef 00       		.byte	0
 290 00f0 06       		.uleb128 0x6
 291 00f1 43465200 		.ascii	"CFR\000"
 292 00f5 5902     		.2byte	0x259
 293 00f7 12       		.byte	0x12
 294 00f8 B4000000 		.4byte	0xb4
 295 00fc 04       		.byte	0x4
 296 00fd 00       		.byte	0
 297 00fe 09       		.uleb128 0x9
 298 00ff 93000000 		.4byte	.LASF16
 299 0103 5A02     		.2byte	0x25a
 300 0105 02       		.byte	0x2
 301 0106 DB000000 		.4byte	0xdb
 302 010a 08       		.uleb128 0x8
 303 010b 04       		.byte	0x4
 304 010c 5C02     		.2byte	0x25c
 305 010e 20010000 		.4byte	0x120
 306 0112 07       		.uleb128 0x7
 307 0113 15050000 		.4byte	.LASF17
 308 0117 5E02     		.2byte	0x25e
 309 0119 12       		.byte	0x12
 310 011a B4000000 		.4byte	0xb4
 311 011e 00       		.byte	0
 312 011f 00       		.byte	0
 313 0120 09       		.uleb128 0x9
 314 0121 1E040000 		.4byte	.LASF18
 315 0125 5F02     		.2byte	0x25f
 316 0127 02       		.byte	0x2
 317 0128 0A010000 		.4byte	0x10a
 318 012c 08       		.uleb128 0x8
 319 012d 08       		.byte	0x8
 320 012e 6102     		.2byte	0x261
 321 0130 4F010000 		.4byte	0x14f
 322 0134 07       		.uleb128 0x7
 323 0135 A9060000 		.4byte	.LASF19
 324 0139 6302     		.2byte	0x263
 325 013b 12       		.byte	0x12
 326 013c B4000000 		.4byte	0xb4
 327 0140 00       		.byte	0
 328 0141 07       		.uleb128 0x7
 329 0142 FC030000 		.4byte	.LASF20
 330 0146 6402     		.2byte	0x264
 331 0148 12       		.byte	0x12
 332 0149 B4000000 		.4byte	0xb4
 333 014d 04       		.byte	0x4
 334 014e 00       		.byte	0
 335 014f 09       		.uleb128 0x9
 336 0150 62080000 		.4byte	.LASF21
 337 0154 6502     		.2byte	0x265
 338 0156 02       		.byte	0x2
 339 0157 2C010000 		.4byte	0x12c
 340 015b 08       		.uleb128 0x8
 341 015c 4C       		.byte	0x4c
 342 015d 5405     		.2byte	0x554
ARM GAS  C:\Users\DEVELO~1\AppData\Local\Temp\ccN8r03g.s 			page 7


 343 015f 98010000 		.4byte	0x198
 344 0163 06       		.uleb128 0x6
 345 0164 47435200 		.ascii	"GCR\000"
 346 0168 5605     		.2byte	0x556
 347 016a 11       		.byte	0x11
 348 016b B4000000 		.4byte	0xb4
 349 016f 00       		.byte	0
 350 0170 07       		.uleb128 0x7
 351 0171 53050000 		.4byte	.LASF22
 352 0175 5705     		.2byte	0x557
 353 0177 11       		.byte	0x11
 354 0178 98010000 		.4byte	0x198
 355 017c 04       		.byte	0x4
 356 017d 07       		.uleb128 0x7
 357 017e EE020000 		.4byte	.LASF23
 358 0182 5805     		.2byte	0x558
 359 0184 11       		.byte	0x11
 360 0185 B4000000 		.4byte	0xb4
 361 0189 44       		.byte	0x44
 362 018a 07       		.uleb128 0x7
 363 018b 92040000 		.4byte	.LASF24
 364 018f 5905     		.2byte	0x559
 365 0191 11       		.byte	0x11
 366 0192 B4000000 		.4byte	0xb4
 367 0196 48       		.byte	0x48
 368 0197 00       		.byte	0
 369 0198 15       		.uleb128 0x15
 370 0199 A8000000 		.4byte	0xa8
 371 019d A8010000 		.4byte	0x1a8
 372 01a1 16       		.uleb128 0x16
 373 01a2 89000000 		.4byte	0x89
 374 01a6 0F       		.byte	0xf
 375 01a7 00       		.byte	0
 376 01a8 09       		.uleb128 0x9
 377 01a9 00000000 		.4byte	.LASF25
 378 01ad 5A05     		.2byte	0x55a
 379 01af 03       		.byte	0x3
 380 01b0 5B010000 		.4byte	0x15b
 381 01b4 08       		.uleb128 0x8
 382 01b5 20       		.byte	0x20
 383 01b6 5C05     		.2byte	0x55c
 384 01b8 23020000 		.4byte	0x223
 385 01bc 06       		.uleb128 0x6
 386 01bd 43523100 		.ascii	"CR1\000"
 387 01c1 5E05     		.2byte	0x55e
 388 01c3 11       		.byte	0x11
 389 01c4 B4000000 		.4byte	0xb4
 390 01c8 00       		.byte	0
 391 01c9 06       		.uleb128 0x6
 392 01ca 43523200 		.ascii	"CR2\000"
 393 01ce 5F05     		.2byte	0x55f
 394 01d0 11       		.byte	0x11
 395 01d1 B4000000 		.4byte	0xb4
 396 01d5 04       		.byte	0x4
 397 01d6 07       		.uleb128 0x7
 398 01d7 34080000 		.4byte	.LASF26
 399 01db 6005     		.2byte	0x560
ARM GAS  C:\Users\DEVELO~1\AppData\Local\Temp\ccN8r03g.s 			page 8


 400 01dd 11       		.byte	0x11
 401 01de B4000000 		.4byte	0xb4
 402 01e2 08       		.byte	0x8
 403 01e3 07       		.uleb128 0x7
 404 01e4 70010000 		.4byte	.LASF27
 405 01e8 6105     		.2byte	0x561
 406 01ea 11       		.byte	0x11
 407 01eb B4000000 		.4byte	0xb4
 408 01ef 0C       		.byte	0xc
 409 01f0 06       		.uleb128 0x6
 410 01f1 494D5200 		.ascii	"IMR\000"
 411 01f5 6205     		.2byte	0x562
 412 01f7 11       		.byte	0x11
 413 01f8 B4000000 		.4byte	0xb4
 414 01fc 10       		.byte	0x10
 415 01fd 06       		.uleb128 0x6
 416 01fe 535200   		.ascii	"SR\000"
 417 0201 6305     		.2byte	0x563
 418 0203 11       		.byte	0x11
 419 0204 B4000000 		.4byte	0xb4
 420 0208 14       		.byte	0x14
 421 0209 07       		.uleb128 0x7
 422 020a C2060000 		.4byte	.LASF28
 423 020e 6405     		.2byte	0x564
 424 0210 11       		.byte	0x11
 425 0211 B4000000 		.4byte	0xb4
 426 0215 18       		.byte	0x18
 427 0216 06       		.uleb128 0x6
 428 0217 445200   		.ascii	"DR\000"
 429 021a 6505     		.2byte	0x565
 430 021c 11       		.byte	0x11
 431 021d B4000000 		.4byte	0xb4
 432 0221 1C       		.byte	0x1c
 433 0222 00       		.byte	0
 434 0223 09       		.uleb128 0x9
 435 0224 97060000 		.4byte	.LASF29
 436 0228 6605     		.2byte	0x566
 437 022a 03       		.byte	0x3
 438 022b B4010000 		.4byte	0x1b4
 439 022f 0B       		.uleb128 0xb
 440 0230 40000000 		.4byte	0x40
 441 0234 05       		.byte	0x5
 442 0235 BA       		.byte	0xba
 443 0236 47020000 		.4byte	0x247
 444 023a 03       		.uleb128 0x3
 445 023b 8B000000 		.4byte	.LASF30
 446 023f 00       		.byte	0
 447 0240 03       		.uleb128 0x3
 448 0241 58020000 		.4byte	.LASF31
 449 0245 01       		.byte	0x1
 450 0246 00       		.byte	0
 451 0247 02       		.uleb128 0x2
 452 0248 E8040000 		.4byte	.LASF32
 453 024c 05       		.byte	0x5
 454 024d BD       		.byte	0xbd
 455 024e 03       		.byte	0x3
 456 024f 2F020000 		.4byte	0x22f
ARM GAS  C:\Users\DEVELO~1\AppData\Local\Temp\ccN8r03g.s 			page 9


 457 0253 05       		.uleb128 0x5
 458 0254 08       		.byte	0x8
 459 0255 04       		.byte	0x4
 460 0256 0E070000 		.4byte	.LASF33
 461 025a 17       		.uleb128 0x17
 462 025b 04       		.byte	0x4
 463 025c 04       		.uleb128 0x4
 464 025d 61020000 		.4byte	0x261
 465 0261 18       		.uleb128 0x18
 466 0262 05       		.uleb128 0x5
 467 0263 01       		.byte	0x1
 468 0264 08       		.byte	0x8
 469 0265 28070000 		.4byte	.LASF34
 470 0269 05       		.uleb128 0x5
 471 026a 04       		.byte	0x4
 472 026b 04       		.byte	0x4
 473 026c 25050000 		.4byte	.LASF35
 474 0270 05       		.uleb128 0x5
 475 0271 08       		.byte	0x8
 476 0272 04       		.byte	0x4
 477 0273 79020000 		.4byte	.LASF36
 478 0277 0B       		.uleb128 0xb
 479 0278 40000000 		.4byte	0x40
 480 027c 06       		.byte	0x6
 481 027d 28       		.byte	0x28
 482 027e 9B020000 		.4byte	0x29b
 483 0282 03       		.uleb128 0x3
 484 0283 95030000 		.4byte	.LASF37
 485 0287 00       		.byte	0
 486 0288 03       		.uleb128 0x3
 487 0289 EE060000 		.4byte	.LASF38
 488 028d 01       		.byte	0x1
 489 028e 03       		.uleb128 0x3
 490 028f 6E000000 		.4byte	.LASF39
 491 0293 02       		.byte	0x2
 492 0294 03       		.uleb128 0x3
 493 0295 6B030000 		.4byte	.LASF40
 494 0299 03       		.byte	0x3
 495 029a 00       		.byte	0
 496 029b 02       		.uleb128 0x2
 497 029c 02040000 		.4byte	.LASF41
 498 02a0 06       		.byte	0x6
 499 02a1 2D       		.byte	0x2d
 500 02a2 03       		.byte	0x3
 501 02a3 77020000 		.4byte	0x277
 502 02a7 0B       		.uleb128 0xb
 503 02a8 40000000 		.4byte	0x40
 504 02ac 06       		.byte	0x6
 505 02ad 33       		.byte	0x33
 506 02ae BF020000 		.4byte	0x2bf
 507 02b2 03       		.uleb128 0x3
 508 02b3 55080000 		.4byte	.LASF42
 509 02b7 00       		.byte	0
 510 02b8 03       		.uleb128 0x3
 511 02b9 87040000 		.4byte	.LASF43
 512 02bd 01       		.byte	0x1
 513 02be 00       		.byte	0
ARM GAS  C:\Users\DEVELO~1\AppData\Local\Temp\ccN8r03g.s 			page 10


 514 02bf 02       		.uleb128 0x2
 515 02c0 01020000 		.4byte	.LASF44
 516 02c4 06       		.byte	0x6
 517 02c5 36       		.byte	0x36
 518 02c6 03       		.byte	0x3
 519 02c7 A7020000 		.4byte	0x2a7
 520 02cb 0A       		.uleb128 0xa
 521 02cc 30       		.byte	0x30
 522 02cd 07       		.byte	0x7
 523 02ce 30       		.byte	0x30
 524 02cf 70030000 		.4byte	0x370
 525 02d3 01       		.uleb128 0x1
 526 02d4 2D070000 		.4byte	.LASF45
 527 02d8 07       		.byte	0x7
 528 02d9 32       		.byte	0x32
 529 02da 0C       		.byte	0xc
 530 02db A8000000 		.4byte	0xa8
 531 02df 00       		.byte	0
 532 02e0 01       		.uleb128 0x1
 533 02e1 E4020000 		.4byte	.LASF46
 534 02e5 07       		.byte	0x7
 535 02e6 35       		.byte	0x35
 536 02e7 0C       		.byte	0xc
 537 02e8 A8000000 		.4byte	0xa8
 538 02ec 04       		.byte	0x4
 539 02ed 01       		.uleb128 0x1
 540 02ee 40020000 		.4byte	.LASF47
 541 02f2 07       		.byte	0x7
 542 02f3 39       		.byte	0x39
 543 02f4 0C       		.byte	0xc
 544 02f5 A8000000 		.4byte	0xa8
 545 02f9 08       		.byte	0x8
 546 02fa 01       		.uleb128 0x1
 547 02fb 62070000 		.4byte	.LASF48
 548 02ff 07       		.byte	0x7
 549 0300 3C       		.byte	0x3c
 550 0301 0C       		.byte	0xc
 551 0302 A8000000 		.4byte	0xa8
 552 0306 0C       		.byte	0xc
 553 0307 01       		.uleb128 0x1
 554 0308 CA070000 		.4byte	.LASF49
 555 030c 07       		.byte	0x7
 556 030d 3F       		.byte	0x3f
 557 030e 0C       		.byte	0xc
 558 030f A8000000 		.4byte	0xa8
 559 0313 10       		.byte	0x10
 560 0314 01       		.uleb128 0x1
 561 0315 EB030000 		.4byte	.LASF50
 562 0319 07       		.byte	0x7
 563 031a 42       		.byte	0x42
 564 031b 0C       		.byte	0xc
 565 031c A8000000 		.4byte	0xa8
 566 0320 14       		.byte	0x14
 567 0321 01       		.uleb128 0x1
 568 0322 DF020000 		.4byte	.LASF51
 569 0326 07       		.byte	0x7
 570 0327 45       		.byte	0x45
ARM GAS  C:\Users\DEVELO~1\AppData\Local\Temp\ccN8r03g.s 			page 11


 571 0328 0C       		.byte	0xc
 572 0329 A8000000 		.4byte	0xa8
 573 032d 18       		.byte	0x18
 574 032e 01       		.uleb128 0x1
 575 032f C4030000 		.4byte	.LASF52
 576 0333 07       		.byte	0x7
 577 0334 4A       		.byte	0x4a
 578 0335 0C       		.byte	0xc
 579 0336 A8000000 		.4byte	0xa8
 580 033a 1C       		.byte	0x1c
 581 033b 01       		.uleb128 0x1
 582 033c E5060000 		.4byte	.LASF53
 583 0340 07       		.byte	0x7
 584 0341 4D       		.byte	0x4d
 585 0342 0C       		.byte	0xc
 586 0343 A8000000 		.4byte	0xa8
 587 0347 20       		.byte	0x20
 588 0348 01       		.uleb128 0x1
 589 0349 1A070000 		.4byte	.LASF54
 590 034d 07       		.byte	0x7
 591 034e 52       		.byte	0x52
 592 034f 0C       		.byte	0xc
 593 0350 A8000000 		.4byte	0xa8
 594 0354 24       		.byte	0x24
 595 0355 01       		.uleb128 0x1
 596 0356 4F020000 		.4byte	.LASF55
 597 035a 07       		.byte	0x7
 598 035b 55       		.byte	0x55
 599 035c 0C       		.byte	0xc
 600 035d A8000000 		.4byte	0xa8
 601 0361 28       		.byte	0x28
 602 0362 01       		.uleb128 0x1
 603 0363 C0080000 		.4byte	.LASF56
 604 0367 07       		.byte	0x7
 605 0368 5B       		.byte	0x5b
 606 0369 0C       		.byte	0xc
 607 036a A8000000 		.4byte	0xa8
 608 036e 2C       		.byte	0x2c
 609 036f 00       		.byte	0
 610 0370 02       		.uleb128 0x2
 611 0371 36000000 		.4byte	.LASF57
 612 0375 07       		.byte	0x7
 613 0376 60       		.byte	0x60
 614 0377 02       		.byte	0x2
 615 0378 CB020000 		.4byte	0x2cb
 616 037c 0B       		.uleb128 0xb
 617 037d 40000000 		.4byte	0x40
 618 0381 07       		.byte	0x7
 619 0382 66       		.byte	0x66
 620 0383 A6030000 		.4byte	0x3a6
 621 0387 03       		.uleb128 0x3
 622 0388 31030000 		.4byte	.LASF58
 623 038c 00       		.byte	0
 624 038d 03       		.uleb128 0x3
 625 038e 5F040000 		.4byte	.LASF59
 626 0392 01       		.byte	0x1
 627 0393 03       		.uleb128 0x3
ARM GAS  C:\Users\DEVELO~1\AppData\Local\Temp\ccN8r03g.s 			page 12


 628 0394 0A060000 		.4byte	.LASF60
 629 0398 02       		.byte	0x2
 630 0399 03       		.uleb128 0x3
 631 039a 9B050000 		.4byte	.LASF61
 632 039e 03       		.byte	0x3
 633 039f 03       		.uleb128 0x3
 634 03a0 CD030000 		.4byte	.LASF62
 635 03a4 04       		.byte	0x4
 636 03a5 00       		.byte	0
 637 03a6 02       		.uleb128 0x2
 638 03a7 DE050000 		.4byte	.LASF63
 639 03ab 07       		.byte	0x7
 640 03ac 6C       		.byte	0x6c
 641 03ad 02       		.byte	0x2
 642 03ae 7C030000 		.4byte	0x37c
 643 03b2 0C       		.uleb128 0xc
 644 03b3 A6030000 		.4byte	0x3a6
 645 03b7 0E       		.uleb128 0xe
 646 03b8 C8060000 		.4byte	.LASF125
 647 03bc 78       		.byte	0x78
 648 03bd 07       		.byte	0x7
 649 03be 88       		.byte	0x88
 650 03bf C8040000 		.4byte	0x4c8
 651 03c3 01       		.uleb128 0x1
 652 03c4 5D050000 		.4byte	.LASF64
 653 03c8 07       		.byte	0x7
 654 03c9 8A       		.byte	0x8a
 655 03ca 24       		.byte	0x24
 656 03cb 5A020000 		.4byte	0x25a
 657 03cf 00       		.byte	0
 658 03d0 01       		.uleb128 0x1
 659 03d1 31000000 		.4byte	.LASF65
 660 03d5 07       		.byte	0x7
 661 03d6 8C       		.byte	0x8c
 662 03d7 23       		.byte	0x23
 663 03d8 70030000 		.4byte	0x370
 664 03dc 04       		.byte	0x4
 665 03dd 01       		.uleb128 0x1
 666 03de A2020000 		.4byte	.LASF66
 667 03e2 07       		.byte	0x7
 668 03e3 8E       		.byte	0x8e
 669 03e4 23       		.byte	0x23
 670 03e5 BF020000 		.4byte	0x2bf
 671 03e9 34       		.byte	0x34
 672 03ea 01       		.uleb128 0x1
 673 03eb 48070000 		.4byte	.LASF67
 674 03ef 07       		.byte	0x7
 675 03f0 90       		.byte	0x90
 676 03f1 23       		.byte	0x23
 677 03f2 B2030000 		.4byte	0x3b2
 678 03f6 35       		.byte	0x35
 679 03f7 01       		.uleb128 0x1
 680 03f8 92020000 		.4byte	.LASF68
 681 03fc 07       		.byte	0x7
 682 03fd 92       		.byte	0x92
 683 03fe 24       		.byte	0x24
 684 03ff 5A020000 		.4byte	0x25a
ARM GAS  C:\Users\DEVELO~1\AppData\Local\Temp\ccN8r03g.s 			page 13


 685 0403 38       		.byte	0x38
 686 0404 01       		.uleb128 0x1
 687 0405 AF080000 		.4byte	.LASF69
 688 0409 07       		.byte	0x7
 689 040a 94       		.byte	0x94
 690 040b 26       		.byte	0x26
 691 040c D8040000 		.4byte	0x4d8
 692 0410 3C       		.byte	0x3c
 693 0411 01       		.uleb128 0x1
 694 0412 2F010000 		.4byte	.LASF70
 695 0416 07       		.byte	0x7
 696 0417 96       		.byte	0x96
 697 0418 26       		.byte	0x26
 698 0419 D8040000 		.4byte	0x4d8
 699 041d 40       		.byte	0x40
 700 041e 01       		.uleb128 0x1
 701 041f FB000000 		.4byte	.LASF71
 702 0423 07       		.byte	0x7
 703 0424 98       		.byte	0x98
 704 0425 26       		.byte	0x26
 705 0426 D8040000 		.4byte	0x4d8
 706 042a 44       		.byte	0x44
 707 042b 01       		.uleb128 0x1
 708 042c 66050000 		.4byte	.LASF72
 709 0430 07       		.byte	0x7
 710 0431 9A       		.byte	0x9a
 711 0432 26       		.byte	0x26
 712 0433 D8040000 		.4byte	0x4d8
 713 0437 48       		.byte	0x48
 714 0438 01       		.uleb128 0x1
 715 0439 D6040000 		.4byte	.LASF73
 716 043d 07       		.byte	0x7
 717 043e 9C       		.byte	0x9c
 718 043f 26       		.byte	0x26
 719 0440 D8040000 		.4byte	0x4d8
 720 0444 4C       		.byte	0x4c
 721 0445 01       		.uleb128 0x1
 722 0446 82080000 		.4byte	.LASF74
 723 044a 07       		.byte	0x7
 724 044b 9E       		.byte	0x9e
 725 044c 26       		.byte	0x26
 726 044d D8040000 		.4byte	0x4d8
 727 0451 50       		.byte	0x50
 728 0452 01       		.uleb128 0x1
 729 0453 E1030000 		.4byte	.LASF75
 730 0457 07       		.byte	0x7
 731 0458 A0       		.byte	0xa0
 732 0459 23       		.byte	0x23
 733 045a B4000000 		.4byte	0xb4
 734 045e 54       		.byte	0x54
 735 045f 01       		.uleb128 0x1
 736 0460 80020000 		.4byte	.LASF76
 737 0464 07       		.byte	0x7
 738 0465 A2       		.byte	0xa2
 739 0466 23       		.byte	0x23
 740 0467 A8000000 		.4byte	0xa8
 741 046b 58       		.byte	0x58
ARM GAS  C:\Users\DEVELO~1\AppData\Local\Temp\ccN8r03g.s 			page 14


 742 046c 01       		.uleb128 0x1
 743 046d 89030000 		.4byte	.LASF77
 744 0471 07       		.byte	0x7
 745 0472 A4       		.byte	0xa4
 746 0473 23       		.byte	0x23
 747 0474 A8000000 		.4byte	0xa8
 748 0478 5C       		.byte	0x5c
 749 0479 01       		.uleb128 0x1
 750 047a 5D030000 		.4byte	.LASF78
 751 047e 07       		.byte	0x7
 752 047f A6       		.byte	0xa6
 753 0480 24       		.byte	0x24
 754 0481 DD040000 		.4byte	0x4dd
 755 0485 60       		.byte	0x60
 756 0486 01       		.uleb128 0x1
 757 0487 5A000000 		.4byte	.LASF79
 758 048b 07       		.byte	0x7
 759 048c A8       		.byte	0xa8
 760 048d 24       		.byte	0x24
 761 048e E2040000 		.4byte	0x4e2
 762 0492 64       		.byte	0x64
 763 0493 01       		.uleb128 0x1
 764 0494 DE070000 		.4byte	.LASF80
 765 0498 07       		.byte	0x7
 766 0499 AA       		.byte	0xaa
 767 049a 23       		.byte	0x23
 768 049b A8000000 		.4byte	0xa8
 769 049f 68       		.byte	0x68
 770 04a0 01       		.uleb128 0x1
 771 04a1 F4020000 		.4byte	.LASF81
 772 04a5 07       		.byte	0x7
 773 04a6 AD       		.byte	0xad
 774 04a7 24       		.byte	0x24
 775 04a8 E7040000 		.4byte	0x4e7
 776 04ac 6C       		.byte	0x6c
 777 04ad 01       		.uleb128 0x1
 778 04ae F3050000 		.4byte	.LASF82
 779 04b2 07       		.byte	0x7
 780 04b3 AF       		.byte	0xaf
 781 04b4 24       		.byte	0x24
 782 04b5 EC040000 		.4byte	0x4ec
 783 04b9 70       		.byte	0x70
 784 04ba 01       		.uleb128 0x1
 785 04bb 94080000 		.4byte	.LASF83
 786 04bf 07       		.byte	0x7
 787 04c0 B1       		.byte	0xb1
 788 04c1 23       		.byte	0x23
 789 04c2 A8000000 		.4byte	0xa8
 790 04c6 74       		.byte	0x74
 791 04c7 00       		.byte	0
 792 04c8 0F       		.uleb128 0xf
 793 04c9 D3040000 		.4byte	0x4d3
 794 04cd 10       		.uleb128 0x10
 795 04ce D3040000 		.4byte	0x4d3
 796 04d2 00       		.byte	0
 797 04d3 04       		.uleb128 0x4
 798 04d4 B7030000 		.4byte	0x3b7
ARM GAS  C:\Users\DEVELO~1\AppData\Local\Temp\ccN8r03g.s 			page 15


 799 04d8 04       		.uleb128 0x4
 800 04d9 C8040000 		.4byte	0x4c8
 801 04dd 04       		.uleb128 0x4
 802 04de CF000000 		.4byte	0xcf
 803 04e2 04       		.uleb128 0x4
 804 04e3 FE000000 		.4byte	0xfe
 805 04e7 04       		.uleb128 0x4
 806 04e8 20010000 		.4byte	0x120
 807 04ec 04       		.uleb128 0x4
 808 04ed 4F010000 		.4byte	0x14f
 809 04f1 02       		.uleb128 0x2
 810 04f2 AF040000 		.4byte	.LASF84
 811 04f6 07       		.byte	0x7
 812 04f7 B3       		.byte	0xb3
 813 04f8 02       		.byte	0x2
 814 04f9 B7030000 		.4byte	0x3b7
 815 04fd 0B       		.uleb128 0xb
 816 04fe 40000000 		.4byte	0x40
 817 0502 08       		.byte	0x8
 818 0503 2F       		.byte	0x2f
 819 0504 27050000 		.4byte	0x527
 820 0508 03       		.uleb128 0x3
 821 0509 39080000 		.4byte	.LASF85
 822 050d 00       		.byte	0
 823 050e 03       		.uleb128 0x3
 824 050f 77000000 		.4byte	.LASF86
 825 0513 01       		.byte	0x1
 826 0514 03       		.uleb128 0x3
 827 0515 35050000 		.4byte	.LASF87
 828 0519 02       		.byte	0x2
 829 051a 03       		.uleb128 0x3
 830 051b 1B000000 		.4byte	.LASF88
 831 051f 12       		.byte	0x12
 832 0520 03       		.uleb128 0x3
 833 0521 F8060000 		.4byte	.LASF89
 834 0525 22       		.byte	0x22
 835 0526 00       		.byte	0
 836 0527 02       		.uleb128 0x2
 837 0528 C1040000 		.4byte	.LASF90
 838 052c 08       		.byte	0x8
 839 052d 35       		.byte	0x35
 840 052e 03       		.byte	0x3
 841 052f FD040000 		.4byte	0x4fd
 842 0533 0C       		.uleb128 0xc
 843 0534 27050000 		.4byte	0x527
 844 0538 02       		.uleb128 0x2
 845 0539 0C030000 		.4byte	.LASF91
 846 053d 08       		.byte	0x8
 847 053e 3A       		.byte	0x3a
 848 053f 10       		.byte	0x10
 849 0540 5C020000 		.4byte	0x25c
 850 0544 0A       		.uleb128 0xa
 851 0545 0C       		.byte	0xc
 852 0546 08       		.byte	0x8
 853 0547 40       		.byte	0x40
 854 0548 74050000 		.4byte	0x574
 855 054c 01       		.uleb128 0x1
ARM GAS  C:\Users\DEVELO~1\AppData\Local\Temp\ccN8r03g.s 			page 16


 856 054d 48050000 		.4byte	.LASF92
 857 0551 08       		.byte	0x8
 858 0552 42       		.byte	0x42
 859 0553 14       		.byte	0x14
 860 0554 47020000 		.4byte	0x247
 861 0558 00       		.byte	0
 862 0559 01       		.uleb128 0x1
 863 055a BE070000 		.4byte	.LASF93
 864 055e 08       		.byte	0x8
 865 055f 43       		.byte	0x43
 866 0560 14       		.byte	0x14
 867 0561 A8000000 		.4byte	0xa8
 868 0565 04       		.byte	0x4
 869 0566 01       		.uleb128 0x1
 870 0567 AE060000 		.4byte	.LASF94
 871 056b 08       		.byte	0x8
 872 056c 45       		.byte	0x45
 873 056d 14       		.byte	0x14
 874 056e A8000000 		.4byte	0xa8
 875 0572 08       		.byte	0x8
 876 0573 00       		.byte	0
 877 0574 02       		.uleb128 0x2
 878 0575 35070000 		.4byte	.LASF95
 879 0579 08       		.byte	0x8
 880 057a 47       		.byte	0x47
 881 057b 03       		.byte	0x3
 882 057c 44050000 		.4byte	0x544
 883 0580 0A       		.uleb128 0xa
 884 0581 50       		.byte	0x50
 885 0582 08       		.byte	0x8
 886 0583 50       		.byte	0x50
 887 0584 73060000 		.4byte	0x673
 888 0588 01       		.uleb128 0x1
 889 0589 9C030000 		.4byte	.LASF96
 890 058d 08       		.byte	0x8
 891 058e 52       		.byte	0x52
 892 058f 0C       		.byte	0xc
 893 0590 A8000000 		.4byte	0xa8
 894 0594 00       		.byte	0
 895 0595 01       		.uleb128 0x1
 896 0596 4D080000 		.4byte	.LASF97
 897 059a 08       		.byte	0x8
 898 059b 55       		.byte	0x55
 899 059c 0C       		.byte	0xc
 900 059d A8000000 		.4byte	0xa8
 901 05a1 04       		.byte	0x4
 902 05a2 01       		.uleb128 0x1
 903 05a3 69070000 		.4byte	.LASF98
 904 05a7 08       		.byte	0x8
 905 05a8 58       		.byte	0x58
 906 05a9 0C       		.byte	0xc
 907 05aa A8000000 		.4byte	0xa8
 908 05ae 08       		.byte	0x8
 909 05af 01       		.uleb128 0x1
 910 05b0 2B050000 		.4byte	.LASF99
 911 05b4 08       		.byte	0x8
 912 05b5 5E       		.byte	0x5e
ARM GAS  C:\Users\DEVELO~1\AppData\Local\Temp\ccN8r03g.s 			page 17


 913 05b6 0C       		.byte	0xc
 914 05b7 A8000000 		.4byte	0xa8
 915 05bb 0C       		.byte	0xc
 916 05bc 01       		.uleb128 0x1
 917 05bd 18030000 		.4byte	.LASF100
 918 05c1 08       		.byte	0x8
 919 05c2 62       		.byte	0x62
 920 05c3 0C       		.byte	0xc
 921 05c4 A8000000 		.4byte	0xa8
 922 05c8 10       		.byte	0x10
 923 05c9 01       		.uleb128 0x1
 924 05ca 5F020000 		.4byte	.LASF101
 925 05ce 08       		.byte	0x8
 926 05cf 67       		.byte	0x67
 927 05d0 0C       		.byte	0xc
 928 05d1 A8000000 		.4byte	0xa8
 929 05d5 14       		.byte	0x14
 930 05d6 01       		.uleb128 0x1
 931 05d7 1A070000 		.4byte	.LASF54
 932 05db 08       		.byte	0x8
 933 05dc 6F       		.byte	0x6f
 934 05dd 0C       		.byte	0xc
 935 05de A8000000 		.4byte	0xa8
 936 05e2 18       		.byte	0x18
 937 05e3 01       		.uleb128 0x1
 938 05e4 7C060000 		.4byte	.LASF102
 939 05e8 08       		.byte	0x8
 940 05e9 72       		.byte	0x72
 941 05ea 0C       		.byte	0xc
 942 05eb A8000000 		.4byte	0xa8
 943 05ef 1C       		.byte	0x1c
 944 05f0 01       		.uleb128 0x1
 945 05f1 28010000 		.4byte	.LASF103
 946 05f5 08       		.byte	0x8
 947 05f6 75       		.byte	0x75
 948 05f7 0C       		.byte	0xc
 949 05f8 A8000000 		.4byte	0xa8
 950 05fc 20       		.byte	0x20
 951 05fd 01       		.uleb128 0x1
 952 05fe CE050000 		.4byte	.LASF104
 953 0602 08       		.byte	0x8
 954 0603 7A       		.byte	0x7a
 955 0604 0C       		.byte	0xc
 956 0605 A8000000 		.4byte	0xa8
 957 0609 24       		.byte	0x24
 958 060a 01       		.uleb128 0x1
 959 060b D0020000 		.4byte	.LASF105
 960 060f 08       		.byte	0x8
 961 0610 7D       		.byte	0x7d
 962 0611 0C       		.byte	0xc
 963 0612 A8000000 		.4byte	0xa8
 964 0616 28       		.byte	0x28
 965 0617 01       		.uleb128 0x1
 966 0618 0C000000 		.4byte	.LASF106
 967 061c 08       		.byte	0x8
 968 061d 80       		.byte	0x80
 969 061e 0C       		.byte	0xc
ARM GAS  C:\Users\DEVELO~1\AppData\Local\Temp\ccN8r03g.s 			page 18


 970 061f A8000000 		.4byte	0xa8
 971 0623 2C       		.byte	0x2c
 972 0624 01       		.uleb128 0x1
 973 0625 99020000 		.4byte	.LASF107
 974 0629 08       		.byte	0x8
 975 062a 83       		.byte	0x83
 976 062b 0C       		.byte	0xc
 977 062c A8000000 		.4byte	0xa8
 978 0630 30       		.byte	0x30
 979 0631 01       		.uleb128 0x1
 980 0632 BA060000 		.4byte	.LASF108
 981 0636 08       		.byte	0x8
 982 0637 86       		.byte	0x86
 983 0638 16       		.byte	0x16
 984 0639 74050000 		.4byte	0x574
 985 063d 34       		.byte	0x34
 986 063e 01       		.uleb128 0x1
 987 063f E8000000 		.4byte	.LASF109
 988 0643 08       		.byte	0x8
 989 0644 8B       		.byte	0x8b
 990 0645 0C       		.byte	0xc
 991 0646 A8000000 		.4byte	0xa8
 992 064a 40       		.byte	0x40
 993 064b 01       		.uleb128 0x1
 994 064c 59070000 		.4byte	.LASF110
 995 0650 08       		.byte	0x8
 996 0651 8E       		.byte	0x8e
 997 0652 0C       		.byte	0xc
 998 0653 A8000000 		.4byte	0xa8
 999 0657 44       		.byte	0x44
 1000 0658 01       		.uleb128 0x1
 1001 0659 FF040000 		.4byte	.LASF111
 1002 065d 08       		.byte	0x8
 1003 065e 91       		.byte	0x91
 1004 065f 0C       		.byte	0xc
 1005 0660 A8000000 		.4byte	0xa8
 1006 0664 48       		.byte	0x48
 1007 0665 01       		.uleb128 0x1
 1008 0666 C0050000 		.4byte	.LASF112
 1009 066a 08       		.byte	0x8
 1010 066b 94       		.byte	0x94
 1011 066c 0C       		.byte	0xc
 1012 066d A8000000 		.4byte	0xa8
 1013 0671 4C       		.byte	0x4c
 1014 0672 00       		.byte	0
 1015 0673 02       		.uleb128 0x2
 1016 0674 7D050000 		.4byte	.LASF113
 1017 0678 08       		.byte	0x8
 1018 0679 96       		.byte	0x96
 1019 067a 03       		.byte	0x3
 1020 067b 80050000 		.4byte	0x580
 1021 067f 0A       		.uleb128 0xa
 1022 0680 14       		.byte	0x14
 1023 0681 08       		.byte	0x8
 1024 0682 A0       		.byte	0xa0
 1025 0683 C9060000 		.4byte	0x6c9
 1026 0687 01       		.uleb128 0x1
ARM GAS  C:\Users\DEVELO~1\AppData\Local\Temp\ccN8r03g.s 			page 19


 1027 0688 8B060000 		.4byte	.LASF114
 1028 068c 08       		.byte	0x8
 1029 068d A3       		.byte	0xa3
 1030 068e 0C       		.byte	0xc
 1031 068f A8000000 		.4byte	0xa8
 1032 0693 00       		.byte	0
 1033 0694 01       		.uleb128 0x1
 1034 0695 74070000 		.4byte	.LASF115
 1035 0699 08       		.byte	0x8
 1036 069a A9       		.byte	0xa9
 1037 069b 0C       		.byte	0xc
 1038 069c A8000000 		.4byte	0xa8
 1039 06a0 04       		.byte	0x4
 1040 06a1 01       		.uleb128 0x1
 1041 06a2 A2040000 		.4byte	.LASF116
 1042 06a6 08       		.byte	0x8
 1043 06a7 AE       		.byte	0xae
 1044 06a8 0C       		.byte	0xc
 1045 06a9 A8000000 		.4byte	0xa8
 1046 06ad 08       		.byte	0x8
 1047 06ae 01       		.uleb128 0x1
 1048 06af 73040000 		.4byte	.LASF117
 1049 06b3 08       		.byte	0x8
 1050 06b4 B1       		.byte	0xb1
 1051 06b5 0C       		.byte	0xc
 1052 06b6 A8000000 		.4byte	0xa8
 1053 06ba 0C       		.byte	0xc
 1054 06bb 01       		.uleb128 0x1
 1055 06bc 54030000 		.4byte	.LASF118
 1056 06c0 08       		.byte	0x8
 1057 06c1 B4       		.byte	0xb4
 1058 06c2 0C       		.byte	0xc
 1059 06c3 A8000000 		.4byte	0xa8
 1060 06c7 10       		.byte	0x10
 1061 06c8 00       		.byte	0
 1062 06c9 02       		.uleb128 0x2
 1063 06ca 5B010000 		.4byte	.LASF119
 1064 06ce 08       		.byte	0x8
 1065 06cf B7       		.byte	0xb7
 1066 06d0 03       		.byte	0x3
 1067 06d1 7F060000 		.4byte	0x67f
 1068 06d5 0A       		.uleb128 0xa
 1069 06d6 10       		.byte	0x10
 1070 06d7 08       		.byte	0x8
 1071 06d8 C2       		.byte	0xc2
 1072 06d9 12070000 		.4byte	0x712
 1073 06dd 01       		.uleb128 0x1
 1074 06de 1D080000 		.4byte	.LASF120
 1075 06e2 08       		.byte	0x8
 1076 06e3 C4       		.byte	0xc4
 1077 06e4 0C       		.byte	0xc
 1078 06e5 A8000000 		.4byte	0xa8
 1079 06e9 00       		.byte	0
 1080 06ea 01       		.uleb128 0x1
 1081 06eb 99040000 		.4byte	.LASF121
 1082 06ef 08       		.byte	0x8
 1083 06f0 C7       		.byte	0xc7
ARM GAS  C:\Users\DEVELO~1\AppData\Local\Temp\ccN8r03g.s 			page 20


 1084 06f1 0C       		.byte	0xc
 1085 06f2 A8000000 		.4byte	0xa8
 1086 06f6 04       		.byte	0x4
 1087 06f7 01       		.uleb128 0x1
 1088 06f8 A6030000 		.4byte	.LASF122
 1089 06fc 08       		.byte	0x8
 1090 06fd CA       		.byte	0xca
 1091 06fe 0C       		.byte	0xc
 1092 06ff A8000000 		.4byte	0xa8
 1093 0703 08       		.byte	0x8
 1094 0704 01       		.uleb128 0x1
 1095 0705 38040000 		.4byte	.LASF123
 1096 0709 08       		.byte	0x8
 1097 070a CD       		.byte	0xcd
 1098 070b 0C       		.byte	0xc
 1099 070c A8000000 		.4byte	0xa8
 1100 0710 0C       		.byte	0xc
 1101 0711 00       		.byte	0
 1102 0712 02       		.uleb128 0x2
 1103 0713 D4000000 		.4byte	.LASF124
 1104 0717 08       		.byte	0x8
 1105 0718 CF       		.byte	0xcf
 1106 0719 03       		.byte	0x3
 1107 071a D5060000 		.4byte	0x6d5
 1108 071e 0E       		.uleb128 0xe
 1109 071f 11020000 		.4byte	.LASF126
 1110 0723 98       		.byte	0x98
 1111 0724 08       		.byte	0x8
 1112 0725 D8       		.byte	0xd8
 1113 0726 E1070000 		.4byte	0x7e1
 1114 072a 01       		.uleb128 0x1
 1115 072b 5D050000 		.4byte	.LASF64
 1116 072f 08       		.byte	0x8
 1117 0730 DA       		.byte	0xda
 1118 0731 1E       		.byte	0x1e
 1119 0732 E1070000 		.4byte	0x7e1
 1120 0736 00       		.byte	0
 1121 0737 01       		.uleb128 0x1
 1122 0738 31000000 		.4byte	.LASF65
 1123 073c 08       		.byte	0x8
 1124 073d DC       		.byte	0xdc
 1125 073e 1D       		.byte	0x1d
 1126 073f 73060000 		.4byte	0x673
 1127 0743 04       		.byte	0x4
 1128 0744 01       		.uleb128 0x1
 1129 0745 CC080000 		.4byte	.LASF127
 1130 0749 08       		.byte	0x8
 1131 074a DE       		.byte	0xde
 1132 074b 1D       		.byte	0x1d
 1133 074c C9060000 		.4byte	0x6c9
 1134 0750 54       		.byte	0x54
 1135 0751 01       		.uleb128 0x1
 1136 0752 7E040000 		.4byte	.LASF128
 1137 0756 08       		.byte	0x8
 1138 0757 E0       		.byte	0xe0
 1139 0758 1D       		.byte	0x1d
 1140 0759 12070000 		.4byte	0x712
ARM GAS  C:\Users\DEVELO~1\AppData\Local\Temp\ccN8r03g.s 			page 21


 1141 075d 68       		.byte	0x68
 1142 075e 01       		.uleb128 0x1
 1143 075f AF050000 		.4byte	.LASF129
 1144 0763 08       		.byte	0x8
 1145 0764 E2       		.byte	0xe2
 1146 0765 1D       		.byte	0x1d
 1147 0766 E6070000 		.4byte	0x7e6
 1148 076a 78       		.byte	0x78
 1149 076b 01       		.uleb128 0x1
 1150 076c F6070000 		.4byte	.LASF130
 1151 0770 08       		.byte	0x8
 1152 0771 E4       		.byte	0xe4
 1153 0772 1D       		.byte	0x1d
 1154 0773 9C000000 		.4byte	0x9c
 1155 0777 7C       		.byte	0x7c
 1156 0778 01       		.uleb128 0x1
 1157 0779 F1000000 		.4byte	.LASF131
 1158 077d 08       		.byte	0x8
 1159 077e E6       		.byte	0xe6
 1160 077f 1D       		.byte	0x1d
 1161 0780 9C000000 		.4byte	0x9c
 1162 0784 7E       		.byte	0x7e
 1163 0785 01       		.uleb128 0x1
 1164 0786 F8040000 		.4byte	.LASF132
 1165 078a 08       		.byte	0x8
 1166 078b E8       		.byte	0xe8
 1167 078c 1E       		.byte	0x1e
 1168 078d EB070000 		.4byte	0x7eb
 1169 0791 80       		.byte	0x80
 1170 0792 01       		.uleb128 0x1
 1171 0793 05030000 		.4byte	.LASF133
 1172 0797 08       		.byte	0x8
 1173 0798 EA       		.byte	0xea
 1174 0799 1E       		.byte	0x1e
 1175 079a EB070000 		.4byte	0x7eb
 1176 079e 84       		.byte	0x84
 1177 079f 01       		.uleb128 0x1
 1178 07a0 08050000 		.4byte	.LASF134
 1179 07a4 08       		.byte	0x8
 1180 07a5 EC       		.byte	0xec
 1181 07a6 1D       		.byte	0x1d
 1182 07a7 38050000 		.4byte	0x538
 1183 07ab 88       		.byte	0x88
 1184 07ac 01       		.uleb128 0x1
 1185 07ad B0000000 		.4byte	.LASF135
 1186 07b1 08       		.byte	0x8
 1187 07b2 EE       		.byte	0xee
 1188 07b3 0A       		.byte	0xa
 1189 07b4 00080000 		.4byte	0x800
 1190 07b8 8C       		.byte	0x8c
 1191 07b9 01       		.uleb128 0x1
 1192 07ba A2020000 		.4byte	.LASF66
 1193 07be 08       		.byte	0x8
 1194 07bf F0       		.byte	0xf0
 1195 07c0 1D       		.byte	0x1d
 1196 07c1 BF020000 		.4byte	0x2bf
 1197 07c5 90       		.byte	0x90
ARM GAS  C:\Users\DEVELO~1\AppData\Local\Temp\ccN8r03g.s 			page 22


 1198 07c6 01       		.uleb128 0x1
 1199 07c7 48070000 		.4byte	.LASF67
 1200 07cb 08       		.byte	0x8
 1201 07cc F2       		.byte	0xf2
 1202 07cd 1D       		.byte	0x1d
 1203 07ce 33050000 		.4byte	0x533
 1204 07d2 91       		.byte	0x91
 1205 07d3 01       		.uleb128 0x1
 1206 07d4 E1030000 		.4byte	.LASF75
 1207 07d8 08       		.byte	0x8
 1208 07d9 F4       		.byte	0xf4
 1209 07da 1D       		.byte	0x1d
 1210 07db B4000000 		.4byte	0xb4
 1211 07df 94       		.byte	0x94
 1212 07e0 00       		.byte	0
 1213 07e1 04       		.uleb128 0x4
 1214 07e2 23020000 		.4byte	0x223
 1215 07e6 04       		.uleb128 0x4
 1216 07e7 90000000 		.4byte	0x90
 1217 07eb 04       		.uleb128 0x4
 1218 07ec F1040000 		.4byte	0x4f1
 1219 07f0 0F       		.uleb128 0xf
 1220 07f1 FB070000 		.4byte	0x7fb
 1221 07f5 10       		.uleb128 0x10
 1222 07f6 FB070000 		.4byte	0x7fb
 1223 07fa 00       		.byte	0
 1224 07fb 04       		.uleb128 0x4
 1225 07fc 1E070000 		.4byte	0x71e
 1226 0800 04       		.uleb128 0x4
 1227 0801 F0070000 		.4byte	0x7f0
 1228 0805 02       		.uleb128 0x2
 1229 0806 2E020000 		.4byte	.LASF136
 1230 080a 08       		.byte	0x8
 1231 080b FF       		.byte	0xff
 1232 080c 03       		.byte	0x3
 1233 080d 1E070000 		.4byte	0x71e
 1234 0811 11       		.uleb128 0x11
 1235 0812 05080000 		.4byte	0x805
 1236 0816 0A       		.uleb128 0xa
 1237 0817 0C       		.byte	0xc
 1238 0818 09       		.byte	0x9
 1239 0819 2E       		.byte	0x2e
 1240 081a 46080000 		.4byte	0x846
 1241 081e 01       		.uleb128 0x1
 1242 081f B8050000 		.4byte	.LASF137
 1243 0823 09       		.byte	0x9
 1244 0824 30       		.byte	0x30
 1245 0825 0C       		.byte	0xc
 1246 0826 A8000000 		.4byte	0xa8
 1247 082a 00       		.byte	0
 1248 082b 01       		.uleb128 0x1
 1249 082c 46000000 		.4byte	.LASF138
 1250 0830 09       		.byte	0x9
 1251 0831 33       		.byte	0x33
 1252 0832 0C       		.byte	0xc
 1253 0833 A8000000 		.4byte	0xa8
 1254 0837 04       		.byte	0x4
ARM GAS  C:\Users\DEVELO~1\AppData\Local\Temp\ccN8r03g.s 			page 23


 1255 0838 01       		.uleb128 0x1
 1256 0839 1A050000 		.4byte	.LASF139
 1257 083d 09       		.byte	0x9
 1258 083e 36       		.byte	0x36
 1259 083f 0C       		.byte	0xc
 1260 0840 A8000000 		.4byte	0xa8
 1261 0844 08       		.byte	0x8
 1262 0845 00       		.byte	0
 1263 0846 02       		.uleb128 0x2
 1264 0847 A7020000 		.4byte	.LASF140
 1265 084b 09       		.byte	0x9
 1266 084c 38       		.byte	0x38
 1267 084d 03       		.byte	0x3
 1268 084e 16080000 		.4byte	0x816
 1269 0852 11       		.uleb128 0x11
 1270 0853 46080000 		.4byte	0x846
 1271 0857 19       		.uleb128 0x19
 1272 0858 43040000 		.4byte	.LASF149
 1273 085c 01       		.byte	0x1
 1274 085d 46       		.byte	0x46
 1275 085e 13       		.byte	0x13
 1276 085f 9B020000 		.4byte	0x29b
 1277 0863 00000000 		.4byte	.LFB141
 1278 0867 A8000000 		.4byte	.LFE141-.LFB141
 1279 086b 01       		.uleb128 0x1
 1280 086c 9C       		.byte	0x9c
 1281 086d B8080000 		.4byte	0x8b8
 1282 0871 12       		.uleb128 0x12
 1283 0872 4A020000 		.4byte	.LASF141
 1284 0876 46       		.byte	0x46
 1285 0877 48       		.byte	0x48
 1286 0878 B8080000 		.4byte	0x8b8
 1287 087c 02       		.uleb128 0x2
 1288 087d 91       		.byte	0x91
 1289 087e 64       		.sleb128 -28
 1290 087f 12       		.uleb128 0x12
 1291 0880 C8000000 		.4byte	.LASF142
 1292 0884 47       		.byte	0x47
 1293 0885 54       		.byte	0x54
 1294 0886 BD080000 		.4byte	0x8bd
 1295 088a 02       		.uleb128 0x2
 1296 088b 91       		.byte	0x91
 1297 088c 60       		.sleb128 -32
 1298 088d 0D       		.uleb128 0xd
 1299 088e 16080000 		.4byte	.LASF143
 1300 0892 49       		.byte	0x49
 1301 0893 15       		.byte	0x15
 1302 0894 9B020000 		.4byte	0x29b
 1303 0898 02       		.uleb128 0x2
 1304 0899 91       		.byte	0x91
 1305 089a 77       		.sleb128 -9
 1306 089b 0D       		.uleb128 0xd
 1307 089c 72020000 		.4byte	.LASF144
 1308 08a0 4A       		.byte	0x4a
 1309 08a1 0C       		.byte	0xc
 1310 08a2 A8000000 		.4byte	0xa8
 1311 08a6 02       		.uleb128 0x2
ARM GAS  C:\Users\DEVELO~1\AppData\Local\Temp\ccN8r03g.s 			page 24


 1312 08a7 91       		.byte	0x91
 1313 08a8 6C       		.sleb128 -20
 1314 08a9 0D       		.uleb128 0xd
 1315 08aa 45030000 		.4byte	.LASF145
 1316 08ae 4B       		.byte	0x4b
 1317 08af 10       		.byte	0x10
 1318 08b0 C2080000 		.4byte	0x8c2
 1319 08b4 02       		.uleb128 0x2
 1320 08b5 91       		.byte	0x91
 1321 08b6 70       		.sleb128 -16
 1322 08b7 00       		.byte	0
 1323 08b8 04       		.uleb128 0x4
 1324 08b9 11080000 		.4byte	0x811
 1325 08bd 04       		.uleb128 0x4
 1326 08be 52080000 		.4byte	0x852
 1327 08c2 04       		.uleb128 0x4
 1328 08c3 A8010000 		.4byte	0x1a8
 1329 08c7 00       		.byte	0
 1330              		.section	.debug_abbrev,"",%progbits
 1331              	.Ldebug_abbrev0:
 1332 0000 01       		.uleb128 0x1
 1333 0001 0D       		.uleb128 0xd
 1334 0002 00       		.byte	0
 1335 0003 03       		.uleb128 0x3
 1336 0004 0E       		.uleb128 0xe
 1337 0005 3A       		.uleb128 0x3a
 1338 0006 0B       		.uleb128 0xb
 1339 0007 3B       		.uleb128 0x3b
 1340 0008 0B       		.uleb128 0xb
 1341 0009 39       		.uleb128 0x39
 1342 000a 0B       		.uleb128 0xb
 1343 000b 49       		.uleb128 0x49
 1344 000c 13       		.uleb128 0x13
 1345 000d 38       		.uleb128 0x38
 1346 000e 0B       		.uleb128 0xb
 1347 000f 00       		.byte	0
 1348 0010 00       		.byte	0
 1349 0011 02       		.uleb128 0x2
 1350 0012 16       		.uleb128 0x16
 1351 0013 00       		.byte	0
 1352 0014 03       		.uleb128 0x3
 1353 0015 0E       		.uleb128 0xe
 1354 0016 3A       		.uleb128 0x3a
 1355 0017 0B       		.uleb128 0xb
 1356 0018 3B       		.uleb128 0x3b
 1357 0019 0B       		.uleb128 0xb
 1358 001a 39       		.uleb128 0x39
 1359 001b 0B       		.uleb128 0xb
 1360 001c 49       		.uleb128 0x49
 1361 001d 13       		.uleb128 0x13
 1362 001e 00       		.byte	0
 1363 001f 00       		.byte	0
 1364 0020 03       		.uleb128 0x3
 1365 0021 28       		.uleb128 0x28
 1366 0022 00       		.byte	0
 1367 0023 03       		.uleb128 0x3
 1368 0024 0E       		.uleb128 0xe
ARM GAS  C:\Users\DEVELO~1\AppData\Local\Temp\ccN8r03g.s 			page 25


 1369 0025 1C       		.uleb128 0x1c
 1370 0026 0B       		.uleb128 0xb
 1371 0027 00       		.byte	0
 1372 0028 00       		.byte	0
 1373 0029 04       		.uleb128 0x4
 1374 002a 0F       		.uleb128 0xf
 1375 002b 00       		.byte	0
 1376 002c 0B       		.uleb128 0xb
 1377 002d 21       		.uleb128 0x21
 1378 002e 04       		.sleb128 4
 1379 002f 49       		.uleb128 0x49
 1380 0030 13       		.uleb128 0x13
 1381 0031 00       		.byte	0
 1382 0032 00       		.byte	0
 1383 0033 05       		.uleb128 0x5
 1384 0034 24       		.uleb128 0x24
 1385 0035 00       		.byte	0
 1386 0036 0B       		.uleb128 0xb
 1387 0037 0B       		.uleb128 0xb
 1388 0038 3E       		.uleb128 0x3e
 1389 0039 0B       		.uleb128 0xb
 1390 003a 03       		.uleb128 0x3
 1391 003b 0E       		.uleb128 0xe
 1392 003c 00       		.byte	0
 1393 003d 00       		.byte	0
 1394 003e 06       		.uleb128 0x6
 1395 003f 0D       		.uleb128 0xd
 1396 0040 00       		.byte	0
 1397 0041 03       		.uleb128 0x3
 1398 0042 08       		.uleb128 0x8
 1399 0043 3A       		.uleb128 0x3a
 1400 0044 21       		.uleb128 0x21
 1401 0045 04       		.sleb128 4
 1402 0046 3B       		.uleb128 0x3b
 1403 0047 05       		.uleb128 0x5
 1404 0048 39       		.uleb128 0x39
 1405 0049 0B       		.uleb128 0xb
 1406 004a 49       		.uleb128 0x49
 1407 004b 13       		.uleb128 0x13
 1408 004c 38       		.uleb128 0x38
 1409 004d 0B       		.uleb128 0xb
 1410 004e 00       		.byte	0
 1411 004f 00       		.byte	0
 1412 0050 07       		.uleb128 0x7
 1413 0051 0D       		.uleb128 0xd
 1414 0052 00       		.byte	0
 1415 0053 03       		.uleb128 0x3
 1416 0054 0E       		.uleb128 0xe
 1417 0055 3A       		.uleb128 0x3a
 1418 0056 21       		.uleb128 0x21
 1419 0057 04       		.sleb128 4
 1420 0058 3B       		.uleb128 0x3b
 1421 0059 05       		.uleb128 0x5
 1422 005a 39       		.uleb128 0x39
 1423 005b 0B       		.uleb128 0xb
 1424 005c 49       		.uleb128 0x49
 1425 005d 13       		.uleb128 0x13
ARM GAS  C:\Users\DEVELO~1\AppData\Local\Temp\ccN8r03g.s 			page 26


 1426 005e 38       		.uleb128 0x38
 1427 005f 0B       		.uleb128 0xb
 1428 0060 00       		.byte	0
 1429 0061 00       		.byte	0
 1430 0062 08       		.uleb128 0x8
 1431 0063 13       		.uleb128 0x13
 1432 0064 01       		.byte	0x1
 1433 0065 0B       		.uleb128 0xb
 1434 0066 0B       		.uleb128 0xb
 1435 0067 3A       		.uleb128 0x3a
 1436 0068 21       		.uleb128 0x21
 1437 0069 04       		.sleb128 4
 1438 006a 3B       		.uleb128 0x3b
 1439 006b 05       		.uleb128 0x5
 1440 006c 39       		.uleb128 0x39
 1441 006d 21       		.uleb128 0x21
 1442 006e 09       		.sleb128 9
 1443 006f 01       		.uleb128 0x1
 1444 0070 13       		.uleb128 0x13
 1445 0071 00       		.byte	0
 1446 0072 00       		.byte	0
 1447 0073 09       		.uleb128 0x9
 1448 0074 16       		.uleb128 0x16
 1449 0075 00       		.byte	0
 1450 0076 03       		.uleb128 0x3
 1451 0077 0E       		.uleb128 0xe
 1452 0078 3A       		.uleb128 0x3a
 1453 0079 21       		.uleb128 0x21
 1454 007a 04       		.sleb128 4
 1455 007b 3B       		.uleb128 0x3b
 1456 007c 05       		.uleb128 0x5
 1457 007d 39       		.uleb128 0x39
 1458 007e 0B       		.uleb128 0xb
 1459 007f 49       		.uleb128 0x49
 1460 0080 13       		.uleb128 0x13
 1461 0081 00       		.byte	0
 1462 0082 00       		.byte	0
 1463 0083 0A       		.uleb128 0xa
 1464 0084 13       		.uleb128 0x13
 1465 0085 01       		.byte	0x1
 1466 0086 0B       		.uleb128 0xb
 1467 0087 0B       		.uleb128 0xb
 1468 0088 3A       		.uleb128 0x3a
 1469 0089 0B       		.uleb128 0xb
 1470 008a 3B       		.uleb128 0x3b
 1471 008b 0B       		.uleb128 0xb
 1472 008c 39       		.uleb128 0x39
 1473 008d 21       		.uleb128 0x21
 1474 008e 09       		.sleb128 9
 1475 008f 01       		.uleb128 0x1
 1476 0090 13       		.uleb128 0x13
 1477 0091 00       		.byte	0
 1478 0092 00       		.byte	0
 1479 0093 0B       		.uleb128 0xb
 1480 0094 04       		.uleb128 0x4
 1481 0095 01       		.byte	0x1
 1482 0096 3E       		.uleb128 0x3e
ARM GAS  C:\Users\DEVELO~1\AppData\Local\Temp\ccN8r03g.s 			page 27


 1483 0097 21       		.uleb128 0x21
 1484 0098 07       		.sleb128 7
 1485 0099 0B       		.uleb128 0xb
 1486 009a 21       		.uleb128 0x21
 1487 009b 01       		.sleb128 1
 1488 009c 49       		.uleb128 0x49
 1489 009d 13       		.uleb128 0x13
 1490 009e 3A       		.uleb128 0x3a
 1491 009f 0B       		.uleb128 0xb
 1492 00a0 3B       		.uleb128 0x3b
 1493 00a1 0B       		.uleb128 0xb
 1494 00a2 39       		.uleb128 0x39
 1495 00a3 21       		.uleb128 0x21
 1496 00a4 01       		.sleb128 1
 1497 00a5 01       		.uleb128 0x1
 1498 00a6 13       		.uleb128 0x13
 1499 00a7 00       		.byte	0
 1500 00a8 00       		.byte	0
 1501 00a9 0C       		.uleb128 0xc
 1502 00aa 35       		.uleb128 0x35
 1503 00ab 00       		.byte	0
 1504 00ac 49       		.uleb128 0x49
 1505 00ad 13       		.uleb128 0x13
 1506 00ae 00       		.byte	0
 1507 00af 00       		.byte	0
 1508 00b0 0D       		.uleb128 0xd
 1509 00b1 34       		.uleb128 0x34
 1510 00b2 00       		.byte	0
 1511 00b3 03       		.uleb128 0x3
 1512 00b4 0E       		.uleb128 0xe
 1513 00b5 3A       		.uleb128 0x3a
 1514 00b6 21       		.uleb128 0x21
 1515 00b7 01       		.sleb128 1
 1516 00b8 3B       		.uleb128 0x3b
 1517 00b9 0B       		.uleb128 0xb
 1518 00ba 39       		.uleb128 0x39
 1519 00bb 0B       		.uleb128 0xb
 1520 00bc 49       		.uleb128 0x49
 1521 00bd 13       		.uleb128 0x13
 1522 00be 02       		.uleb128 0x2
 1523 00bf 18       		.uleb128 0x18
 1524 00c0 00       		.byte	0
 1525 00c1 00       		.byte	0
 1526 00c2 0E       		.uleb128 0xe
 1527 00c3 13       		.uleb128 0x13
 1528 00c4 01       		.byte	0x1
 1529 00c5 03       		.uleb128 0x3
 1530 00c6 0E       		.uleb128 0xe
 1531 00c7 0B       		.uleb128 0xb
 1532 00c8 0B       		.uleb128 0xb
 1533 00c9 3A       		.uleb128 0x3a
 1534 00ca 0B       		.uleb128 0xb
 1535 00cb 3B       		.uleb128 0x3b
 1536 00cc 0B       		.uleb128 0xb
 1537 00cd 39       		.uleb128 0x39
 1538 00ce 21       		.uleb128 0x21
 1539 00cf 10       		.sleb128 16
ARM GAS  C:\Users\DEVELO~1\AppData\Local\Temp\ccN8r03g.s 			page 28


 1540 00d0 01       		.uleb128 0x1
 1541 00d1 13       		.uleb128 0x13
 1542 00d2 00       		.byte	0
 1543 00d3 00       		.byte	0
 1544 00d4 0F       		.uleb128 0xf
 1545 00d5 15       		.uleb128 0x15
 1546 00d6 01       		.byte	0x1
 1547 00d7 27       		.uleb128 0x27
 1548 00d8 19       		.uleb128 0x19
 1549 00d9 01       		.uleb128 0x1
 1550 00da 13       		.uleb128 0x13
 1551 00db 00       		.byte	0
 1552 00dc 00       		.byte	0
 1553 00dd 10       		.uleb128 0x10
 1554 00de 05       		.uleb128 0x5
 1555 00df 00       		.byte	0
 1556 00e0 49       		.uleb128 0x49
 1557 00e1 13       		.uleb128 0x13
 1558 00e2 00       		.byte	0
 1559 00e3 00       		.byte	0
 1560 00e4 11       		.uleb128 0x11
 1561 00e5 26       		.uleb128 0x26
 1562 00e6 00       		.byte	0
 1563 00e7 49       		.uleb128 0x49
 1564 00e8 13       		.uleb128 0x13
 1565 00e9 00       		.byte	0
 1566 00ea 00       		.byte	0
 1567 00eb 12       		.uleb128 0x12
 1568 00ec 05       		.uleb128 0x5
 1569 00ed 00       		.byte	0
 1570 00ee 03       		.uleb128 0x3
 1571 00ef 0E       		.uleb128 0xe
 1572 00f0 3A       		.uleb128 0x3a
 1573 00f1 21       		.uleb128 0x21
 1574 00f2 01       		.sleb128 1
 1575 00f3 3B       		.uleb128 0x3b
 1576 00f4 0B       		.uleb128 0xb
 1577 00f5 39       		.uleb128 0x39
 1578 00f6 0B       		.uleb128 0xb
 1579 00f7 49       		.uleb128 0x49
 1580 00f8 13       		.uleb128 0x13
 1581 00f9 02       		.uleb128 0x2
 1582 00fa 18       		.uleb128 0x18
 1583 00fb 00       		.byte	0
 1584 00fc 00       		.byte	0
 1585 00fd 13       		.uleb128 0x13
 1586 00fe 11       		.uleb128 0x11
 1587 00ff 01       		.byte	0x1
 1588 0100 25       		.uleb128 0x25
 1589 0101 0E       		.uleb128 0xe
 1590 0102 13       		.uleb128 0x13
 1591 0103 0B       		.uleb128 0xb
 1592 0104 03       		.uleb128 0x3
 1593 0105 0E       		.uleb128 0xe
 1594 0106 1B       		.uleb128 0x1b
 1595 0107 0E       		.uleb128 0xe
 1596 0108 55       		.uleb128 0x55
ARM GAS  C:\Users\DEVELO~1\AppData\Local\Temp\ccN8r03g.s 			page 29


 1597 0109 17       		.uleb128 0x17
 1598 010a 11       		.uleb128 0x11
 1599 010b 01       		.uleb128 0x1
 1600 010c 10       		.uleb128 0x10
 1601 010d 17       		.uleb128 0x17
 1602 010e 00       		.byte	0
 1603 010f 00       		.byte	0
 1604 0110 14       		.uleb128 0x14
 1605 0111 24       		.uleb128 0x24
 1606 0112 00       		.byte	0
 1607 0113 0B       		.uleb128 0xb
 1608 0114 0B       		.uleb128 0xb
 1609 0115 3E       		.uleb128 0x3e
 1610 0116 0B       		.uleb128 0xb
 1611 0117 03       		.uleb128 0x3
 1612 0118 08       		.uleb128 0x8
 1613 0119 00       		.byte	0
 1614 011a 00       		.byte	0
 1615 011b 15       		.uleb128 0x15
 1616 011c 01       		.uleb128 0x1
 1617 011d 01       		.byte	0x1
 1618 011e 49       		.uleb128 0x49
 1619 011f 13       		.uleb128 0x13
 1620 0120 01       		.uleb128 0x1
 1621 0121 13       		.uleb128 0x13
 1622 0122 00       		.byte	0
 1623 0123 00       		.byte	0
 1624 0124 16       		.uleb128 0x16
 1625 0125 21       		.uleb128 0x21
 1626 0126 00       		.byte	0
 1627 0127 49       		.uleb128 0x49
 1628 0128 13       		.uleb128 0x13
 1629 0129 2F       		.uleb128 0x2f
 1630 012a 0B       		.uleb128 0xb
 1631 012b 00       		.byte	0
 1632 012c 00       		.byte	0
 1633 012d 17       		.uleb128 0x17
 1634 012e 0F       		.uleb128 0xf
 1635 012f 00       		.byte	0
 1636 0130 0B       		.uleb128 0xb
 1637 0131 0B       		.uleb128 0xb
 1638 0132 00       		.byte	0
 1639 0133 00       		.byte	0
 1640 0134 18       		.uleb128 0x18
 1641 0135 15       		.uleb128 0x15
 1642 0136 00       		.byte	0
 1643 0137 27       		.uleb128 0x27
 1644 0138 19       		.uleb128 0x19
 1645 0139 00       		.byte	0
 1646 013a 00       		.byte	0
 1647 013b 19       		.uleb128 0x19
 1648 013c 2E       		.uleb128 0x2e
 1649 013d 01       		.byte	0x1
 1650 013e 3F       		.uleb128 0x3f
 1651 013f 19       		.uleb128 0x19
 1652 0140 03       		.uleb128 0x3
 1653 0141 0E       		.uleb128 0xe
ARM GAS  C:\Users\DEVELO~1\AppData\Local\Temp\ccN8r03g.s 			page 30


 1654 0142 3A       		.uleb128 0x3a
 1655 0143 0B       		.uleb128 0xb
 1656 0144 3B       		.uleb128 0x3b
 1657 0145 0B       		.uleb128 0xb
 1658 0146 39       		.uleb128 0x39
 1659 0147 0B       		.uleb128 0xb
 1660 0148 27       		.uleb128 0x27
 1661 0149 19       		.uleb128 0x19
 1662 014a 49       		.uleb128 0x49
 1663 014b 13       		.uleb128 0x13
 1664 014c 11       		.uleb128 0x11
 1665 014d 01       		.uleb128 0x1
 1666 014e 12       		.uleb128 0x12
 1667 014f 06       		.uleb128 0x6
 1668 0150 40       		.uleb128 0x40
 1669 0151 18       		.uleb128 0x18
 1670 0152 7A       		.uleb128 0x7a
 1671 0153 19       		.uleb128 0x19
 1672 0154 01       		.uleb128 0x1
 1673 0155 13       		.uleb128 0x13
 1674 0156 00       		.byte	0
 1675 0157 00       		.byte	0
 1676 0158 00       		.byte	0
 1677              		.section	.debug_aranges,"",%progbits
 1678 0000 1C000000 		.4byte	0x1c
 1679 0004 0200     		.2byte	0x2
 1680 0006 00000000 		.4byte	.Ldebug_info0
 1681 000a 04       		.byte	0x4
 1682 000b 00       		.byte	0
 1683 000c 0000     		.2byte	0
 1684 000e 0000     		.2byte	0
 1685 0010 00000000 		.4byte	.LFB141
 1686 0014 A8000000 		.4byte	.LFE141-.LFB141
 1687 0018 00000000 		.4byte	0
 1688 001c 00000000 		.4byte	0
 1689              		.section	.debug_rnglists,"",%progbits
 1690              	.Ldebug_ranges0:
 1691 0000 10000000 		.4byte	.Ldebug_ranges3-.Ldebug_ranges2
 1692              	.Ldebug_ranges2:
 1693 0004 0500     		.2byte	0x5
 1694 0006 04       		.byte	0x4
 1695 0007 00       		.byte	0
 1696 0008 00000000 		.4byte	0
 1697              	.LLRL0:
 1698 000c 07       		.byte	0x7
 1699 000d 00000000 		.4byte	.LFB141
 1700 0011 A801     		.uleb128 .LFE141-.LFB141
 1701 0013 00       		.byte	0
 1702              	.Ldebug_ranges3:
 1703              		.section	.debug_line,"",%progbits
 1704              	.Ldebug_line0:
 1705 0000 66020000 		.section	.debug_str,"MS",%progbits,1
 1705      0300DD01 
 1705      00000201 
 1705      FB0E0D00 
 1705      01010101 
 1706              	.LASF25:
ARM GAS  C:\Users\DEVELO~1\AppData\Local\Temp\ccN8r03g.s 			page 31


 1707 0000 5341495F 		.ascii	"SAI_TypeDef\000"
 1707      54797065 
 1707      44656600 
 1708              	.LASF106:
 1709 000c 436F6D70 		.ascii	"CompandingMode\000"
 1709      616E6469 
 1709      6E674D6F 
 1709      646500
 1710              	.LASF88:
 1711 001b 48414C5F 		.ascii	"HAL_SAI_STATE_BUSY_TX\000"
 1711      5341495F 
 1711      53544154 
 1711      455F4255 
 1711      53595F54 
 1712              	.LASF65:
 1713 0031 496E6974 		.ascii	"Init\000"
 1713      00
 1714              	.LASF57:
 1715 0036 444D415F 		.ascii	"DMA_InitTypeDef\000"
 1715      496E6974 
 1715      54797065 
 1715      44656600 
 1716              	.LASF138:
 1717 0046 4C656674 		.ascii	"LeftDelay\000"
 1717      44656C61 
 1717      7900
 1718              	.LASF3:
 1719 0050 5F5F7569 		.ascii	"__uint8_t\000"
 1719      6E74385F 
 1719      7400
 1720              	.LASF79:
 1721 005a 444D416D 		.ascii	"DMAmuxChannelStatus\000"
 1721      75784368 
 1721      616E6E65 
 1721      6C537461 
 1721      74757300 
 1722              	.LASF39:
 1723 006e 48414C5F 		.ascii	"HAL_BUSY\000"
 1723      42555359 
 1723      00
 1724              	.LASF86:
 1725 0077 48414C5F 		.ascii	"HAL_SAI_STATE_READY\000"
 1725      5341495F 
 1725      53544154 
 1725      455F5245 
 1725      41445900 
 1726              	.LASF30:
 1727 008b 44495341 		.ascii	"DISABLE\000"
 1727      424C4500 
 1728              	.LASF16:
 1729 0093 444D414D 		.ascii	"DMAMUX_ChannelStatus_TypeDef\000"
 1729      55585F43 
 1729      68616E6E 
 1729      656C5374 
 1729      61747573 
 1730              	.LASF135:
 1731 00b0 496E7465 		.ascii	"InterruptServiceRoutine\000"
ARM GAS  C:\Users\DEVELO~1\AppData\Local\Temp\ccN8r03g.s 			page 32


 1731      72727570 
 1731      74536572 
 1731      76696365 
 1731      526F7574 
 1732              	.LASF142:
 1733 00c8 70646D4D 		.ascii	"pdmMicDelay\000"
 1733      69634465 
 1733      6C617900 
 1734              	.LASF124:
 1735 00d4 5341495F 		.ascii	"SAI_SlotInitTypeDef\000"
 1735      536C6F74 
 1735      496E6974 
 1735      54797065 
 1735      44656600 
 1736              	.LASF109:
 1737 00e8 50726F74 		.ascii	"Protocol\000"
 1737      6F636F6C 
 1737      00
 1738              	.LASF131:
 1739 00f1 58666572 		.ascii	"XferCount\000"
 1739      436F756E 
 1739      7400
 1740              	.LASF71:
 1741 00fb 58666572 		.ascii	"XferM1CpltCallback\000"
 1741      4D314370 
 1741      6C744361 
 1741      6C6C6261 
 1741      636B00
 1742              	.LASF9:
 1743 010e 6C6F6E67 		.ascii	"long long int\000"
 1743      206C6F6E 
 1743      6720696E 
 1743      7400
 1744              	.LASF1:
 1745 011c 7369676E 		.ascii	"signed char\000"
 1745      65642063 
 1745      68617200 
 1746              	.LASF103:
 1747 0128 4D636B64 		.ascii	"Mckdiv\000"
 1747      697600
 1748              	.LASF70:
 1749 012f 58666572 		.ascii	"XferHalfCpltCallback\000"
 1749      48616C66 
 1749      43706C74 
 1749      43616C6C 
 1749      6261636B 
 1750              	.LASF10:
 1751 0144 6C6F6E67 		.ascii	"long long unsigned int\000"
 1751      206C6F6E 
 1751      6720756E 
 1751      7369676E 
 1751      65642069 
 1752              	.LASF119:
 1753 015b 5341495F 		.ascii	"SAI_FrameInitTypeDef\000"
 1753      4672616D 
 1753      65496E69 
 1753      74547970 
ARM GAS  C:\Users\DEVELO~1\AppData\Local\Temp\ccN8r03g.s 			page 33


 1753      65446566 
 1754              	.LASF27:
 1755 0170 534C4F54 		.ascii	"SLOTR\000"
 1755      5200
 1756              	.LASF146:
 1757 0176 474E5520 		.ascii	"GNU C17 11.3.1 20220712 -mcpu=cortex-m7 -mthumb -mf"
 1757      43313720 
 1757      31312E33 
 1757      2E312032 
 1757      30323230 
 1758 01a9 6C6F6174 		.ascii	"loat-abi=soft -march=armv7e-m -ggdb -O0 -ffunction-"
 1758      2D616269 
 1758      3D736F66 
 1758      74202D6D 
 1758      61726368 
 1759 01dc 73656374 		.ascii	"sections -fdata-sections -fno-common\000"
 1759      696F6E73 
 1759      202D6664 
 1759      6174612D 
 1759      73656374 
 1760              	.LASF44:
 1761 0201 48414C5F 		.ascii	"HAL_LockTypeDef\000"
 1761      4C6F636B 
 1761      54797065 
 1761      44656600 
 1762              	.LASF126:
 1763 0211 5F5F5341 		.ascii	"__SAI_HandleTypeDef\000"
 1763      495F4861 
 1763      6E646C65 
 1763      54797065 
 1763      44656600 
 1764              	.LASF6:
 1765 0225 6C6F6E67 		.ascii	"long int\000"
 1765      20696E74 
 1765      00
 1766              	.LASF136:
 1767 022e 5341495F 		.ascii	"SAI_HandleTypeDef\000"
 1767      48616E64 
 1767      6C655479 
 1767      70654465 
 1767      6600
 1768              	.LASF47:
 1769 0240 50657269 		.ascii	"PeriphInc\000"
 1769      7068496E 
 1769      6300
 1770              	.LASF141:
 1771 024a 68736169 		.ascii	"hsai\000"
 1771      00
 1772              	.LASF55:
 1773 024f 4D656D42 		.ascii	"MemBurst\000"
 1773      75727374 
 1773      00
 1774              	.LASF31:
 1775 0258 454E4142 		.ascii	"ENABLE\000"
 1775      4C4500
 1776              	.LASF101:
 1777 025f 4E6F4469 		.ascii	"NoDivider\000"
ARM GAS  C:\Users\DEVELO~1\AppData\Local\Temp\ccN8r03g.s 			page 34


 1777      76696465 
 1777      7200
 1778              	.LASF13:
 1779 0269 75696E74 		.ascii	"uint16_t\000"
 1779      31365F74 
 1779      00
 1780              	.LASF144:
 1781 0272 6F666673 		.ascii	"offset\000"
 1781      657400
 1782              	.LASF36:
 1783 0279 646F7562 		.ascii	"double\000"
 1783      6C6500
 1784              	.LASF76:
 1785 0280 53747265 		.ascii	"StreamBaseAddress\000"
 1785      616D4261 
 1785      73654164 
 1785      64726573 
 1785      7300
 1786              	.LASF68:
 1787 0292 50617265 		.ascii	"Parent\000"
 1787      6E7400
 1788              	.LASF107:
 1789 0299 54726953 		.ascii	"TriState\000"
 1789      74617465 
 1789      00
 1790              	.LASF66:
 1791 02a2 4C6F636B 		.ascii	"Lock\000"
 1791      00
 1792              	.LASF140:
 1793 02a7 53414945 		.ascii	"SAIEx_PdmMicDelayParamTypeDef\000"
 1793      785F5064 
 1793      6D4D6963 
 1793      44656C61 
 1793      79506172 
 1794              	.LASF7:
 1795 02c5 5F5F7569 		.ascii	"__uint32_t\000"
 1795      6E743332 
 1795      5F7400
 1796              	.LASF105:
 1797 02d0 4D6F6E6F 		.ascii	"MonoStereoMode\000"
 1797      53746572 
 1797      656F4D6F 
 1797      646500
 1798              	.LASF51:
 1799 02df 4D6F6465 		.ascii	"Mode\000"
 1799      00
 1800              	.LASF46:
 1801 02e4 44697265 		.ascii	"Direction\000"
 1801      6374696F 
 1801      6E00
 1802              	.LASF23:
 1803 02ee 50444D43 		.ascii	"PDMCR\000"
 1803      5200
 1804              	.LASF81:
 1805 02f4 444D416D 		.ascii	"DMAmuxRequestGen\000"
 1805      75785265 
 1805      71756573 
ARM GAS  C:\Users\DEVELO~1\AppData\Local\Temp\ccN8r03g.s 			page 35


 1805      7447656E 
 1805      00
 1806              	.LASF133:
 1807 0305 68646D61 		.ascii	"hdmarx\000"
 1807      727800
 1808              	.LASF91:
 1809 030c 53414963 		.ascii	"SAIcallback\000"
 1809      616C6C62 
 1809      61636B00 
 1810              	.LASF100:
 1811 0318 4F757470 		.ascii	"OutputDrive\000"
 1811      75744472 
 1811      69766500 
 1812              	.LASF11:
 1813 0324 756E7369 		.ascii	"unsigned int\000"
 1813      676E6564 
 1813      20696E74 
 1813      00
 1814              	.LASF58:
 1815 0331 48414C5F 		.ascii	"HAL_DMA_STATE_RESET\000"
 1815      444D415F 
 1815      53544154 
 1815      455F5245 
 1815      53455400 
 1816              	.LASF145:
 1817 0345 53616942 		.ascii	"SaiBaseAddress\000"
 1817      61736541 
 1817      64647265 
 1817      737300
 1818              	.LASF118:
 1819 0354 46534F66 		.ascii	"FSOffset\000"
 1819      66736574 
 1819      00
 1820              	.LASF78:
 1821 035d 444D416D 		.ascii	"DMAmuxChannel\000"
 1821      75784368 
 1821      616E6E65 
 1821      6C00
 1822              	.LASF40:
 1823 036b 48414C5F 		.ascii	"HAL_TIMEOUT\000"
 1823      54494D45 
 1823      4F555400 
 1824              	.LASF8:
 1825 0377 6C6F6E67 		.ascii	"long unsigned int\000"
 1825      20756E73 
 1825      69676E65 
 1825      6420696E 
 1825      7400
 1826              	.LASF77:
 1827 0389 53747265 		.ascii	"StreamIndex\000"
 1827      616D496E 
 1827      64657800 
 1828              	.LASF37:
 1829 0395 48414C5F 		.ascii	"HAL_OK\000"
 1829      4F4B00
 1830              	.LASF96:
 1831 039c 41756469 		.ascii	"AudioMode\000"
ARM GAS  C:\Users\DEVELO~1\AppData\Local\Temp\ccN8r03g.s 			page 36


 1831      6F4D6F64 
 1831      6500
 1832              	.LASF122:
 1833 03a6 536C6F74 		.ascii	"SlotNumber\000"
 1833      4E756D62 
 1833      657200
 1834              	.LASF5:
 1835 03b1 73686F72 		.ascii	"short unsigned int\000"
 1835      7420756E 
 1835      7369676E 
 1835      65642069 
 1835      6E7400
 1836              	.LASF52:
 1837 03c4 5072696F 		.ascii	"Priority\000"
 1837      72697479 
 1837      00
 1838              	.LASF62:
 1839 03cd 48414C5F 		.ascii	"HAL_DMA_STATE_ABORT\000"
 1839      444D415F 
 1839      53544154 
 1839      455F4142 
 1839      4F525400 
 1840              	.LASF75:
 1841 03e1 4572726F 		.ascii	"ErrorCode\000"
 1841      72436F64 
 1841      6500
 1842              	.LASF50:
 1843 03eb 4D656D44 		.ascii	"MemDataAlignment\000"
 1843      61746141 
 1843      6C69676E 
 1843      6D656E74 
 1843      00
 1844              	.LASF20:
 1845 03fc 52474346 		.ascii	"RGCFR\000"
 1845      5200
 1846              	.LASF41:
 1847 0402 48414C5F 		.ascii	"HAL_StatusTypeDef\000"
 1847      53746174 
 1847      75735479 
 1847      70654465 
 1847      6600
 1848              	.LASF0:
 1849 0414 73686F72 		.ascii	"short int\000"
 1849      7420696E 
 1849      7400
 1850              	.LASF18:
 1851 041e 444D414D 		.ascii	"DMAMUX_RequestGen_TypeDef\000"
 1851      55585F52 
 1851      65717565 
 1851      73744765 
 1851      6E5F5479 
 1852              	.LASF123:
 1853 0438 536C6F74 		.ascii	"SlotActive\000"
 1853      41637469 
 1853      766500
 1854              	.LASF149:
 1855 0443 48414C5F 		.ascii	"HAL_SAIEx_ConfigPdmMicDelay\000"
ARM GAS  C:\Users\DEVELO~1\AppData\Local\Temp\ccN8r03g.s 			page 37


 1855      53414945 
 1855      785F436F 
 1855      6E666967 
 1855      50646D4D 
 1856              	.LASF59:
 1857 045f 48414C5F 		.ascii	"HAL_DMA_STATE_READY\000"
 1857      444D415F 
 1857      53544154 
 1857      455F5245 
 1857      41445900 
 1858              	.LASF117:
 1859 0473 4653506F 		.ascii	"FSPolarity\000"
 1859      6C617269 
 1859      747900
 1860              	.LASF128:
 1861 047e 536C6F74 		.ascii	"SlotInit\000"
 1861      496E6974 
 1861      00
 1862              	.LASF43:
 1863 0487 48414C5F 		.ascii	"HAL_LOCKED\000"
 1863      4C4F434B 
 1863      454400
 1864              	.LASF24:
 1865 0492 50444D44 		.ascii	"PDMDLY\000"
 1865      4C5900
 1866              	.LASF121:
 1867 0499 536C6F74 		.ascii	"SlotSize\000"
 1867      53697A65 
 1867      00
 1868              	.LASF116:
 1869 04a2 46534465 		.ascii	"FSDefinition\000"
 1869      66696E69 
 1869      74696F6E 
 1869      00
 1870              	.LASF84:
 1871 04af 444D415F 		.ascii	"DMA_HandleTypeDef\000"
 1871      48616E64 
 1871      6C655479 
 1871      70654465 
 1871      6600
 1872              	.LASF90:
 1873 04c1 48414C5F 		.ascii	"HAL_SAI_StateTypeDef\000"
 1873      5341495F 
 1873      53746174 
 1873      65547970 
 1873      65446566 
 1874              	.LASF73:
 1875 04d6 58666572 		.ascii	"XferErrorCallback\000"
 1875      4572726F 
 1875      7243616C 
 1875      6C626163 
 1875      6B00
 1876              	.LASF32:
 1877 04e8 46756E63 		.ascii	"FunctionalState\000"
 1877      74696F6E 
 1877      616C5374 
 1877      61746500 
ARM GAS  C:\Users\DEVELO~1\AppData\Local\Temp\ccN8r03g.s 			page 38


 1878              	.LASF132:
 1879 04f8 68646D61 		.ascii	"hdmatx\000"
 1879      747800
 1880              	.LASF111:
 1881 04ff 46697273 		.ascii	"FirstBit\000"
 1881      74426974 
 1881      00
 1882              	.LASF134:
 1883 0508 6D757465 		.ascii	"mutecallback\000"
 1883      63616C6C 
 1883      6261636B 
 1883      00
 1884              	.LASF17:
 1885 0515 52474352 		.ascii	"RGCR\000"
 1885      00
 1886              	.LASF139:
 1887 051a 52696768 		.ascii	"RightDelay\000"
 1887      7444656C 
 1887      617900
 1888              	.LASF35:
 1889 0525 666C6F61 		.ascii	"float\000"
 1889      7400
 1890              	.LASF99:
 1891 052b 4D636B4F 		.ascii	"MckOutput\000"
 1891      75747075 
 1891      7400
 1892              	.LASF87:
 1893 0535 48414C5F 		.ascii	"HAL_SAI_STATE_BUSY\000"
 1893      5341495F 
 1893      53544154 
 1893      455F4255 
 1893      535900
 1894              	.LASF92:
 1895 0548 41637469 		.ascii	"Activation\000"
 1895      76617469 
 1895      6F6E00
 1896              	.LASF22:
 1897 0553 52455345 		.ascii	"RESERVED0\000"
 1897      52564544 
 1897      3000
 1898              	.LASF64:
 1899 055d 496E7374 		.ascii	"Instance\000"
 1899      616E6365 
 1899      00
 1900              	.LASF72:
 1901 0566 58666572 		.ascii	"XferM1HalfCpltCallback\000"
 1901      4D314861 
 1901      6C664370 
 1901      6C744361 
 1901      6C6C6261 
 1902              	.LASF113:
 1903 057d 5341495F 		.ascii	"SAI_InitTypeDef\000"
 1903      496E6974 
 1903      54797065 
 1903      44656600 
 1904              	.LASF2:
 1905 058d 756E7369 		.ascii	"unsigned char\000"
ARM GAS  C:\Users\DEVELO~1\AppData\Local\Temp\ccN8r03g.s 			page 39


 1905      676E6564 
 1905      20636861 
 1905      7200
 1906              	.LASF61:
 1907 059b 48414C5F 		.ascii	"HAL_DMA_STATE_ERROR\000"
 1907      444D415F 
 1907      53544154 
 1907      455F4552 
 1907      524F5200 
 1908              	.LASF129:
 1909 05af 70427566 		.ascii	"pBuffPtr\000"
 1909      66507472 
 1909      00
 1910              	.LASF137:
 1911 05b8 4D696350 		.ascii	"MicPair\000"
 1911      61697200 
 1912              	.LASF112:
 1913 05c0 436C6F63 		.ascii	"ClockStrobing\000"
 1913      6B537472 
 1913      6F62696E 
 1913      6700
 1914              	.LASF104:
 1915 05ce 4D636B4F 		.ascii	"MckOverSampling\000"
 1915      76657253 
 1915      616D706C 
 1915      696E6700 
 1916              	.LASF63:
 1917 05de 48414C5F 		.ascii	"HAL_DMA_StateTypeDef\000"
 1917      444D415F 
 1917      53746174 
 1917      65547970 
 1917      65446566 
 1918              	.LASF82:
 1919 05f3 444D416D 		.ascii	"DMAmuxRequestGenStatus\000"
 1919      75785265 
 1919      71756573 
 1919      7447656E 
 1919      53746174 
 1920              	.LASF60:
 1921 060a 48414C5F 		.ascii	"HAL_DMA_STATE_BUSY\000"
 1921      444D415F 
 1921      53544154 
 1921      455F4255 
 1921      535900
 1922              	.LASF148:
 1923 061d 433A5C50 		.ascii	"C:\\PROJET\\ChibiOS project\\ChibiOS_21.11.4\\demos"
 1923      524F4A45 
 1923      545C4368 
 1923      6962694F 
 1923      53207072 
 1924 064c 5C53544D 		.ascii	"\\STM32\\RT-STM32H743ZI_REV_XY-NUCLEO144_Quartz8M\000"
 1924      33325C52 
 1924      542D5354 
 1924      4D333248 
 1924      3734335A 
 1925              	.LASF102:
 1926 067c 41756469 		.ascii	"AudioFrequency\000"
ARM GAS  C:\Users\DEVELO~1\AppData\Local\Temp\ccN8r03g.s 			page 40


 1926      6F467265 
 1926      7175656E 
 1926      637900
 1927              	.LASF114:
 1928 068b 4672616D 		.ascii	"FrameLength\000"
 1928      654C656E 
 1928      67746800 
 1929              	.LASF29:
 1930 0697 5341495F 		.ascii	"SAI_Block_TypeDef\000"
 1930      426C6F63 
 1930      6B5F5479 
 1930      70654465 
 1930      6600
 1931              	.LASF19:
 1932 06a9 52475352 		.ascii	"RGSR\000"
 1932      00
 1933              	.LASF94:
 1934 06ae 436C6F63 		.ascii	"ClockEnable\000"
 1934      6B456E61 
 1934      626C6500 
 1935              	.LASF108:
 1936 06ba 50646D49 		.ascii	"PdmInit\000"
 1936      6E697400 
 1937              	.LASF28:
 1938 06c2 434C5246 		.ascii	"CLRFR\000"
 1938      5200
 1939              	.LASF125:
 1940 06c8 5F5F444D 		.ascii	"__DMA_HandleTypeDef\000"
 1940      415F4861 
 1940      6E646C65 
 1940      54797065 
 1940      44656600 
 1941              	.LASF14:
 1942 06dc 75696E74 		.ascii	"uint32_t\000"
 1942      33325F74 
 1942      00
 1943              	.LASF53:
 1944 06e5 4649464F 		.ascii	"FIFOMode\000"
 1944      4D6F6465 
 1944      00
 1945              	.LASF38:
 1946 06ee 48414C5F 		.ascii	"HAL_ERROR\000"
 1946      4552524F 
 1946      5200
 1947              	.LASF89:
 1948 06f8 48414C5F 		.ascii	"HAL_SAI_STATE_BUSY_RX\000"
 1948      5341495F 
 1948      53544154 
 1948      455F4255 
 1948      53595F52 
 1949              	.LASF33:
 1950 070e 6C6F6E67 		.ascii	"long double\000"
 1950      20646F75 
 1950      626C6500 
 1951              	.LASF54:
 1952 071a 4649464F 		.ascii	"FIFOThreshold\000"
 1952      54687265 
ARM GAS  C:\Users\DEVELO~1\AppData\Local\Temp\ccN8r03g.s 			page 41


 1952      73686F6C 
 1952      6400
 1953              	.LASF34:
 1954 0728 63686172 		.ascii	"char\000"
 1954      00
 1955              	.LASF45:
 1956 072d 52657175 		.ascii	"Request\000"
 1956      65737400 
 1957              	.LASF95:
 1958 0735 5341495F 		.ascii	"SAI_PdmInitTypeDef\000"
 1958      50646D49 
 1958      6E697454 
 1958      79706544 
 1958      656600
 1959              	.LASF67:
 1960 0748 53746174 		.ascii	"State\000"
 1960      6500
 1961              	.LASF4:
 1962 074e 5F5F7569 		.ascii	"__uint16_t\000"
 1962      6E743136 
 1962      5F7400
 1963              	.LASF110:
 1964 0759 44617461 		.ascii	"DataSize\000"
 1964      53697A65 
 1964      00
 1965              	.LASF48:
 1966 0762 4D656D49 		.ascii	"MemInc\000"
 1966      6E6300
 1967              	.LASF98:
 1968 0769 53796E63 		.ascii	"SynchroExt\000"
 1968      68726F45 
 1968      787400
 1969              	.LASF115:
 1970 0774 41637469 		.ascii	"ActiveFrameLength\000"
 1970      76654672 
 1970      616D654C 
 1970      656E6774 
 1970      6800
 1971              	.LASF147:
 1972 0786 64726976 		.ascii	"drivers/stm32h7xx-hal-driver/Src/stm32h7xx_hal_sai_"
 1972      6572732F 
 1972      73746D33 
 1972      32683778 
 1972      782D6861 
 1973 07b9 65782E63 		.ascii	"ex.c\000"
 1973      00
 1974              	.LASF93:
 1975 07be 4D696350 		.ascii	"MicPairsNbr\000"
 1975      61697273 
 1975      4E627200 
 1976              	.LASF49:
 1977 07ca 50657269 		.ascii	"PeriphDataAlignment\000"
 1977      70684461 
 1977      7461416C 
 1977      69676E6D 
 1977      656E7400 
 1978              	.LASF80:
ARM GAS  C:\Users\DEVELO~1\AppData\Local\Temp\ccN8r03g.s 			page 42


 1979 07de 444D416D 		.ascii	"DMAmuxChannelStatusMask\000"
 1979      75784368 
 1979      616E6E65 
 1979      6C537461 
 1979      7475734D 
 1980              	.LASF130:
 1981 07f6 58666572 		.ascii	"XferSize\000"
 1981      53697A65 
 1981      00
 1982              	.LASF15:
 1983 07ff 444D414D 		.ascii	"DMAMUX_Channel_TypeDef\000"
 1983      55585F43 
 1983      68616E6E 
 1983      656C5F54 
 1983      79706544 
 1984              	.LASF143:
 1985 0816 73746174 		.ascii	"status\000"
 1985      757300
 1986              	.LASF120:
 1987 081d 46697273 		.ascii	"FirstBitOffset\000"
 1987      74426974 
 1987      4F666673 
 1987      657400
 1988              	.LASF12:
 1989 082c 75696E74 		.ascii	"uint8_t\000"
 1989      385F7400 
 1990              	.LASF26:
 1991 0834 46524352 		.ascii	"FRCR\000"
 1991      00
 1992              	.LASF85:
 1993 0839 48414C5F 		.ascii	"HAL_SAI_STATE_RESET\000"
 1993      5341495F 
 1993      53544154 
 1993      455F5245 
 1993      53455400 
 1994              	.LASF97:
 1995 084d 53796E63 		.ascii	"Synchro\000"
 1995      68726F00 
 1996              	.LASF42:
 1997 0855 48414C5F 		.ascii	"HAL_UNLOCKED\000"
 1997      554E4C4F 
 1997      434B4544 
 1997      00
 1998              	.LASF21:
 1999 0862 444D414D 		.ascii	"DMAMUX_RequestGenStatus_TypeDef\000"
 1999      55585F52 
 1999      65717565 
 1999      73744765 
 1999      6E537461 
 2000              	.LASF74:
 2001 0882 58666572 		.ascii	"XferAbortCallback\000"
 2001      41626F72 
 2001      7443616C 
 2001      6C626163 
 2001      6B00
 2002              	.LASF83:
 2003 0894 444D416D 		.ascii	"DMAmuxRequestGenStatusMask\000"
ARM GAS  C:\Users\DEVELO~1\AppData\Local\Temp\ccN8r03g.s 			page 43


 2003      75785265 
 2003      71756573 
 2003      7447656E 
 2003      53746174 
 2004              	.LASF69:
 2005 08af 58666572 		.ascii	"XferCpltCallback\000"
 2005      43706C74 
 2005      43616C6C 
 2005      6261636B 
 2005      00
 2006              	.LASF56:
 2007 08c0 50657269 		.ascii	"PeriphBurst\000"
 2007      70684275 
 2007      72737400 
 2008              	.LASF127:
 2009 08cc 4672616D 		.ascii	"FrameInit\000"
 2009      65496E69 
 2009      7400
 2010              		.ident	"GCC: (Arm GNU Toolchain 11.3.Rel1) 11.3.1 20220712"
ARM GAS  C:\Users\DEVELO~1\AppData\Local\Temp\ccN8r03g.s 			page 44


DEFINED SYMBOLS
                            *ABS*:00000000 stm32h7xx_hal_sai_ex.c
C:\Users\DEVELO~1\AppData\Local\Temp\ccN8r03g.s:18     .text.HAL_SAIEx_ConfigPdmMicDelay:00000000 $t
C:\Users\DEVELO~1\AppData\Local\Temp\ccN8r03g.s:24     .text.HAL_SAIEx_ConfigPdmMicDelay:00000000 HAL_SAIEx_ConfigPdmMicDelay
C:\Users\DEVELO~1\AppData\Local\Temp\ccN8r03g.s:154    .text.HAL_SAIEx_ConfigPdmMicDelay:00000098 $d

NO UNDEFINED SYMBOLS
