ARM GAS  C:\Users\DEVELO~1\AppData\Local\Temp\ccbfMIIM.s 			page 1


   1              		.cpu cortex-m7
   2              		.arch armv7e-m
   3              		.fpu softvfp
   4              		.eabi_attribute 20, 1
   5              		.eabi_attribute 21, 1
   6              		.eabi_attribute 23, 3
   7              		.eabi_attribute 24, 1
   8              		.eabi_attribute 25, 1
   9              		.eabi_attribute 26, 1
  10              		.eabi_attribute 30, 6
  11              		.eabi_attribute 34, 1
  12              		.eabi_attribute 18, 4
  13              		.file	"stm32_dma.c"
  14              		.text
  15              	.Ltext0:
  16              		.cfi_sections	.debug_frame
  17              		.section	.text.chSysLock,"ax",%progbits
  18              		.align	1
  19              		.syntax unified
  20              		.thumb
  21              		.thumb_func
  22              		.type	chSysLock, %function
  23              	chSysLock:
  24              	.LFB202:
  25              		.file 1 "../../../os/rt/include/chsys.h"
  26              		.loc 1 407 36
  27              		.cfi_startproc
  28              		@ args = 0, pretend = 0, frame = 8
  29              		@ frame_needed = 1, uses_anonymous_args = 0
  30              		@ link register save eliminated.
  31 0000 80B4     		push	{r7}
  32              		.cfi_def_cfa_offset 4
  33              		.cfi_offset 7, -4
  34 0002 83B0     		sub	sp, sp, #12
  35              		.cfi_def_cfa_offset 16
  36 0004 00AF     		add	r7, sp, #0
  37              		.cfi_def_cfa_register 7
  38 0006 3023     		movs	r3, #48
  39 0008 7B60     		str	r3, [r7, #4]
  40              	.LBB14:
  41              	.LBB15:
  42              	.LBB16:
  43              	.LBB17:
  44              		.file 2 "../../../os/common/ext/ARM/CMSIS/Core/Include/cmsis_gcc.h"
  45              		.loc 2 493 3
  46 000a 7B68     		ldr	r3, [r7, #4]
  47              		.syntax unified
  48              	@ 493 "../../../os/common/ext/ARM/CMSIS/Core/Include/cmsis_gcc.h" 1
  49 000c 83F31188 		MSR basepri, r3
  50              	@ 0 "" 2
  51              		.loc 2 494 1
  52              		.thumb
  53              		.syntax unified
  54 0010 00BF     		nop
  55              	.LBE17:
  56              	.LBE16:
  57              		.file 3 "../../../os/common/ports/ARMv7-M/chcore.h"
ARM GAS  C:\Users\DEVELO~1\AppData\Local\Temp\ccbfMIIM.s 			page 2


  58              		.loc 3 840 1
  59 0012 00BF     		nop
  60              	.LBE15:
  61              	.LBE14:
  62              		.loc 1 412 1
  63 0014 00BF     		nop
  64 0016 0C37     		adds	r7, r7, #12
  65              		.cfi_def_cfa_offset 4
  66 0018 BD46     		mov	sp, r7
  67              		.cfi_def_cfa_register 13
  68              		@ sp needed
  69 001a 80BC     		pop	{r7}
  70              		.cfi_restore 7
  71              		.cfi_def_cfa_offset 0
  72 001c 7047     		bx	lr
  73              		.cfi_endproc
  74              	.LFE202:
  75              		.size	chSysLock, .-chSysLock
  76              		.section	.text.chSysUnlock,"ax",%progbits
  77              		.align	1
  78              		.syntax unified
  79              		.thumb
  80              		.thumb_func
  81              		.type	chSysUnlock, %function
  82              	chSysUnlock:
  83              	.LFB203:
  84              		.loc 1 421 38
  85              		.cfi_startproc
  86              		@ args = 0, pretend = 0, frame = 8
  87              		@ frame_needed = 1, uses_anonymous_args = 0
  88              		@ link register save eliminated.
  89 0000 80B4     		push	{r7}
  90              		.cfi_def_cfa_offset 4
  91              		.cfi_offset 7, -4
  92 0002 83B0     		sub	sp, sp, #12
  93              		.cfi_def_cfa_offset 16
  94 0004 00AF     		add	r7, sp, #0
  95              		.cfi_def_cfa_register 7
  96 0006 0023     		movs	r3, #0
  97 0008 7B60     		str	r3, [r7, #4]
  98              	.LBB18:
  99              	.LBB19:
 100              	.LBB20:
 101              	.LBB21:
 102              		.loc 2 493 3
 103 000a 7B68     		ldr	r3, [r7, #4]
 104              		.syntax unified
 105              	@ 493 "../../../os/common/ext/ARM/CMSIS/Core/Include/cmsis_gcc.h" 1
 106 000c 83F31188 		MSR basepri, r3
 107              	@ 0 "" 2
 108              		.loc 2 494 1
 109              		.thumb
 110              		.syntax unified
 111 0010 00BF     		nop
 112              	.LBE21:
 113              	.LBE20:
 114              		.loc 3 854 1
ARM GAS  C:\Users\DEVELO~1\AppData\Local\Temp\ccbfMIIM.s 			page 3


 115 0012 00BF     		nop
 116              	.LBE19:
 117              	.LBE18:
 118              		.loc 1 435 1
 119 0014 00BF     		nop
 120 0016 0C37     		adds	r7, r7, #12
 121              		.cfi_def_cfa_offset 4
 122 0018 BD46     		mov	sp, r7
 123              		.cfi_def_cfa_register 13
 124              		@ sp needed
 125 001a 80BC     		pop	{r7}
 126              		.cfi_restore 7
 127              		.cfi_def_cfa_offset 0
 128 001c 7047     		bx	lr
 129              		.cfi_endproc
 130              	.LFE203:
 131              		.size	chSysUnlock, .-chSysUnlock
 132              		.section	.text.osalSysLock,"ax",%progbits
 133              		.align	1
 134              		.syntax unified
 135              		.thumb
 136              		.thumb_func
 137              		.type	osalSysLock, %function
 138              	osalSysLock:
 139              	.LFB350:
 140              		.file 4 "../../../os/hal/osal/rt-nil/osal.h"
 141              		.loc 4 573 38
 142              		.cfi_startproc
 143              		@ args = 0, pretend = 0, frame = 0
 144              		@ frame_needed = 1, uses_anonymous_args = 0
 145 0000 80B5     		push	{r7, lr}
 146              		.cfi_def_cfa_offset 8
 147              		.cfi_offset 7, -8
 148              		.cfi_offset 14, -4
 149 0002 00AF     		add	r7, sp, #0
 150              		.cfi_def_cfa_register 7
 151              		.loc 4 575 3
 152 0004 FFF7FEFF 		bl	chSysLock
 153              		.loc 4 576 1
 154 0008 00BF     		nop
 155 000a 80BD     		pop	{r7, pc}
 156              		.cfi_endproc
 157              	.LFE350:
 158              		.size	osalSysLock, .-osalSysLock
 159              		.section	.text.osalSysUnlock,"ax",%progbits
 160              		.align	1
 161              		.syntax unified
 162              		.thumb
 163              		.thumb_func
 164              		.type	osalSysUnlock, %function
 165              	osalSysUnlock:
 166              	.LFB351:
 167              		.loc 4 584 40
 168              		.cfi_startproc
 169              		@ args = 0, pretend = 0, frame = 0
 170              		@ frame_needed = 1, uses_anonymous_args = 0
 171 0000 80B5     		push	{r7, lr}
ARM GAS  C:\Users\DEVELO~1\AppData\Local\Temp\ccbfMIIM.s 			page 4


 172              		.cfi_def_cfa_offset 8
 173              		.cfi_offset 7, -8
 174              		.cfi_offset 14, -4
 175 0002 00AF     		add	r7, sp, #0
 176              		.cfi_def_cfa_register 7
 177              		.loc 4 586 3
 178 0004 FFF7FEFF 		bl	chSysUnlock
 179              		.loc 4 587 1
 180 0008 00BF     		nop
 181 000a 80BD     		pop	{r7, pc}
 182              		.cfi_endproc
 183              	.LFE351:
 184              		.size	osalSysUnlock, .-osalSysUnlock
 185              		.section	.text.rccEnableAHB1,"ax",%progbits
 186              		.align	1
 187              		.syntax unified
 188              		.thumb
 189              		.thumb_func
 190              		.type	rccEnableAHB1, %function
 191              	rccEnableAHB1:
 192              	.LFB403:
 193              		.file 5 "../../../os/hal/ports/STM32/STM32H7xx/stm32_rcc.h"
 194              		.loc 5 586 60
 195              		.cfi_startproc
 196              		@ args = 0, pretend = 0, frame = 8
 197              		@ frame_needed = 1, uses_anonymous_args = 0
 198              		@ link register save eliminated.
 199 0000 80B4     		push	{r7}
 200              		.cfi_def_cfa_offset 4
 201              		.cfi_offset 7, -4
 202 0002 83B0     		sub	sp, sp, #12
 203              		.cfi_def_cfa_offset 16
 204 0004 00AF     		add	r7, sp, #0
 205              		.cfi_def_cfa_register 7
 206 0006 7860     		str	r0, [r7, #4]
 207 0008 0B46     		mov	r3, r1
 208 000a FB70     		strb	r3, [r7, #3]
 209              		.loc 5 590 19
 210 000c 124B     		ldr	r3, .L8
 211 000e D3F8D820 		ldr	r2, [r3, #216]
 212 0012 1149     		ldr	r1, .L8
 213 0014 7B68     		ldr	r3, [r7, #4]
 214 0016 1343     		orrs	r3, r3, r2
 215 0018 C1F8D830 		str	r3, [r1, #216]
 216              		.loc 5 591 6
 217 001c FB78     		ldrb	r3, [r7, #3]	@ zero_extendqisi2
 218 001e 002B     		cmp	r3, #0
 219 0020 08D0     		beq	.L6
 220              		.loc 5 592 23
 221 0022 0D4B     		ldr	r3, .L8
 222 0024 D3F80021 		ldr	r2, [r3, #256]
 223 0028 0B49     		ldr	r1, .L8
 224 002a 7B68     		ldr	r3, [r7, #4]
 225 002c 1343     		orrs	r3, r3, r2
 226 002e C1F80031 		str	r3, [r1, #256]
 227 0032 08E0     		b	.L7
 228              	.L6:
ARM GAS  C:\Users\DEVELO~1\AppData\Local\Temp\ccbfMIIM.s 			page 5


 229              		.loc 5 595 23
 230 0034 084B     		ldr	r3, .L8
 231 0036 D3F80021 		ldr	r2, [r3, #256]
 232              		.loc 5 595 26
 233 003a 7B68     		ldr	r3, [r7, #4]
 234 003c DB43     		mvns	r3, r3
 235              		.loc 5 595 23
 236 003e 0649     		ldr	r1, .L8
 237 0040 1340     		ands	r3, r3, r2
 238 0042 C1F80031 		str	r3, [r1, #256]
 239              	.L7:
 240              		.loc 5 597 15
 241 0046 044B     		ldr	r3, .L8
 242              		.loc 5 597 3
 243 0048 D3F80031 		ldr	r3, [r3, #256]
 244              		.loc 5 609 1
 245 004c 00BF     		nop
 246 004e 0C37     		adds	r7, r7, #12
 247              		.cfi_def_cfa_offset 4
 248 0050 BD46     		mov	sp, r7
 249              		.cfi_def_cfa_register 13
 250              		@ sp needed
 251 0052 80BC     		pop	{r7}
 252              		.cfi_restore 7
 253              		.cfi_def_cfa_offset 0
 254 0054 7047     		bx	lr
 255              	.L9:
 256 0056 00BF     		.align	2
 257              	.L8:
 258 0058 00440258 		.word	1476543488
 259              		.cfi_endproc
 260              	.LFE403:
 261              		.size	rccEnableAHB1, .-rccEnableAHB1
 262              		.section	.text.rccDisableAHB1,"ax",%progbits
 263              		.align	1
 264              		.syntax unified
 265              		.thumb
 266              		.thumb_func
 267              		.type	rccDisableAHB1, %function
 268              	rccDisableAHB1:
 269              	.LFB404:
 270              		.loc 5 618 52
 271              		.cfi_startproc
 272              		@ args = 0, pretend = 0, frame = 8
 273              		@ frame_needed = 1, uses_anonymous_args = 0
 274              		@ link register save eliminated.
 275 0000 80B4     		push	{r7}
 276              		.cfi_def_cfa_offset 4
 277              		.cfi_offset 7, -4
 278 0002 83B0     		sub	sp, sp, #12
 279              		.cfi_def_cfa_offset 16
 280 0004 00AF     		add	r7, sp, #0
 281              		.cfi_def_cfa_register 7
 282 0006 7860     		str	r0, [r7, #4]
 283              		.loc 5 628 19
 284 0008 0C4B     		ldr	r3, .L11
 285 000a D3F8D820 		ldr	r2, [r3, #216]
ARM GAS  C:\Users\DEVELO~1\AppData\Local\Temp\ccbfMIIM.s 			page 6


 286              		.loc 5 628 22
 287 000e 7B68     		ldr	r3, [r7, #4]
 288 0010 DB43     		mvns	r3, r3
 289              		.loc 5 628 19
 290 0012 0A49     		ldr	r1, .L11
 291 0014 1340     		ands	r3, r3, r2
 292 0016 C1F8D830 		str	r3, [r1, #216]
 293              		.loc 5 629 21
 294 001a 084B     		ldr	r3, .L11
 295 001c D3F80021 		ldr	r2, [r3, #256]
 296              		.loc 5 629 24
 297 0020 7B68     		ldr	r3, [r7, #4]
 298 0022 DB43     		mvns	r3, r3
 299              		.loc 5 629 21
 300 0024 0549     		ldr	r1, .L11
 301 0026 1340     		ands	r3, r3, r2
 302 0028 C1F80031 		str	r3, [r1, #256]
 303              		.loc 5 630 15
 304 002c 034B     		ldr	r3, .L11
 305              		.loc 5 630 3
 306 002e D3F80031 		ldr	r3, [r3, #256]
 307              		.loc 5 643 1
 308 0032 00BF     		nop
 309 0034 0C37     		adds	r7, r7, #12
 310              		.cfi_def_cfa_offset 4
 311 0036 BD46     		mov	sp, r7
 312              		.cfi_def_cfa_register 13
 313              		@ sp needed
 314 0038 80BC     		pop	{r7}
 315              		.cfi_restore 7
 316              		.cfi_def_cfa_offset 0
 317 003a 7047     		bx	lr
 318              	.L12:
 319              		.align	2
 320              	.L11:
 321 003c 00440258 		.word	1476543488
 322              		.cfi_endproc
 323              	.LFE404:
 324              		.size	rccDisableAHB1, .-rccDisableAHB1
 325              		.global	_stm32_dma_streams
 326              		.section	.rodata._stm32_dma_streams,"a"
 327              		.align	2
 328              		.type	_stm32_dma_streams, %object
 329              		.size	_stm32_dma_streams, 256
 330              	_stm32_dma_streams:
 331 0000 10000240 		.word	1073872912
 332 0004 08000240 		.word	1073872904
 333 0008 00080240 		.word	1073874944
 334 000c 00       		.byte	0
 335 000d 00       		.byte	0
 336 000e 0B       		.byte	11
 337 000f 00       		.space	1
 338 0010 28000240 		.word	1073872936
 339 0014 08000240 		.word	1073872904
 340 0018 04080240 		.word	1073874948
 341 001c 06       		.byte	6
 342 001d 01       		.byte	1
ARM GAS  C:\Users\DEVELO~1\AppData\Local\Temp\ccbfMIIM.s 			page 7


 343 001e 0C       		.byte	12
 344 001f 00       		.space	1
 345 0020 40000240 		.word	1073872960
 346 0024 08000240 		.word	1073872904
 347 0028 08080240 		.word	1073874952
 348 002c 10       		.byte	16
 349 002d 02       		.byte	2
 350 002e 0D       		.byte	13
 351 002f 00       		.space	1
 352 0030 58000240 		.word	1073872984
 353 0034 08000240 		.word	1073872904
 354 0038 0C080240 		.word	1073874956
 355 003c 16       		.byte	22
 356 003d 03       		.byte	3
 357 003e 0E       		.byte	14
 358 003f 00       		.space	1
 359 0040 70000240 		.word	1073873008
 360 0044 0C000240 		.word	1073872908
 361 0048 10080240 		.word	1073874960
 362 004c 00       		.byte	0
 363 004d 04       		.byte	4
 364 004e 0F       		.byte	15
 365 004f 00       		.space	1
 366 0050 88000240 		.word	1073873032
 367 0054 0C000240 		.word	1073872908
 368 0058 14080240 		.word	1073874964
 369 005c 06       		.byte	6
 370 005d 05       		.byte	5
 371 005e 10       		.byte	16
 372 005f 00       		.space	1
 373 0060 A0000240 		.word	1073873056
 374 0064 0C000240 		.word	1073872908
 375 0068 18080240 		.word	1073874968
 376 006c 10       		.byte	16
 377 006d 06       		.byte	6
 378 006e 11       		.byte	17
 379 006f 00       		.space	1
 380 0070 B8000240 		.word	1073873080
 381 0074 0C000240 		.word	1073872908
 382 0078 1C080240 		.word	1073874972
 383 007c 16       		.byte	22
 384 007d 07       		.byte	7
 385 007e 2F       		.byte	47
 386 007f 00       		.space	1
 387 0080 10040240 		.word	1073873936
 388 0084 08040240 		.word	1073873928
 389 0088 20080240 		.word	1073874976
 390 008c 00       		.byte	0
 391 008d 08       		.byte	8
 392 008e 38       		.byte	56
 393 008f 00       		.space	1
 394 0090 28040240 		.word	1073873960
 395 0094 08040240 		.word	1073873928
 396 0098 24080240 		.word	1073874980
 397 009c 06       		.byte	6
 398 009d 09       		.byte	9
 399 009e 39       		.byte	57
ARM GAS  C:\Users\DEVELO~1\AppData\Local\Temp\ccbfMIIM.s 			page 8


 400 009f 00       		.space	1
 401 00a0 40040240 		.word	1073873984
 402 00a4 08040240 		.word	1073873928
 403 00a8 28080240 		.word	1073874984
 404 00ac 10       		.byte	16
 405 00ad 0A       		.byte	10
 406 00ae 3A       		.byte	58
 407 00af 00       		.space	1
 408 00b0 58040240 		.word	1073874008
 409 00b4 08040240 		.word	1073873928
 410 00b8 2C080240 		.word	1073874988
 411 00bc 16       		.byte	22
 412 00bd 0B       		.byte	11
 413 00be 3B       		.byte	59
 414 00bf 00       		.space	1
 415 00c0 70040240 		.word	1073874032
 416 00c4 0C040240 		.word	1073873932
 417 00c8 30080240 		.word	1073874992
 418 00cc 00       		.byte	0
 419 00cd 0C       		.byte	12
 420 00ce 3C       		.byte	60
 421 00cf 00       		.space	1
 422 00d0 88040240 		.word	1073874056
 423 00d4 0C040240 		.word	1073873932
 424 00d8 34080240 		.word	1073874996
 425 00dc 06       		.byte	6
 426 00dd 0D       		.byte	13
 427 00de 44       		.byte	68
 428 00df 00       		.space	1
 429 00e0 A0040240 		.word	1073874080
 430 00e4 0C040240 		.word	1073873932
 431 00e8 38080240 		.word	1073875000
 432 00ec 10       		.byte	16
 433 00ed 0E       		.byte	14
 434 00ee 45       		.byte	69
 435 00ef 00       		.space	1
 436 00f0 B8040240 		.word	1073874104
 437 00f4 0C040240 		.word	1073873932
 438 00f8 3C080240 		.word	1073875004
 439 00fc 16       		.byte	22
 440 00fd 0F       		.byte	15
 441 00fe 46       		.byte	70
 442 00ff 00       		.space	1
 443              		.section	.bss.dma,"aw",%nobits
 444              		.align	2
 445              		.type	dma, %object
 446              		.size	dma, 132
 447              	dma:
 448 0000 00000000 		.space	132
 448      00000000 
 448      00000000 
 448      00000000 
 448      00000000 
 449              		.section	.text.Vector6C,"ax",%progbits
 450              		.align	1
 451              		.global	Vector6C
 452              		.syntax unified
ARM GAS  C:\Users\DEVELO~1\AppData\Local\Temp\ccbfMIIM.s 			page 9


 453              		.thumb
 454              		.thumb_func
 455              		.type	Vector6C, %function
 456              	Vector6C:
 457              	.LFB432:
 458              		.file 6 "../../../os/hal/ports/STM32/LLD/DMAv2/stm32_dma.c"
 459              		.loc 6 162 42
 460              		.cfi_startproc
 461              		@ args = 0, pretend = 0, frame = 8
 462              		@ frame_needed = 1, uses_anonymous_args = 0
 463 0000 80B5     		push	{r7, lr}
 464              		.cfi_def_cfa_offset 8
 465              		.cfi_offset 7, -8
 466              		.cfi_offset 14, -4
 467 0002 82B0     		sub	sp, sp, #8
 468              		.cfi_def_cfa_offset 16
 469 0004 00AF     		add	r7, sp, #0
 470              		.cfi_def_cfa_register 7
 471              		.loc 6 165 3
 472 0006 0F48     		ldr	r0, .L15
 473 0008 FFF7FEFF 		bl	__trace_isr_enter
 474              		.loc 6 167 16
 475 000c 0E4B     		ldr	r3, .L15+4
 476 000e 1B68     		ldr	r3, [r3]
 477              		.loc 6 167 9
 478 0010 03F03D03 		and	r3, r3, #61
 479 0014 7B60     		str	r3, [r7, #4]
 480              		.loc 6 168 7
 481 0016 0C4A     		ldr	r2, .L15+4
 482              		.loc 6 168 15
 483 0018 7B68     		ldr	r3, [r7, #4]
 484 001a 9360     		str	r3, [r2, #8]
 485              		.loc 6 169 21
 486 001c 0B4B     		ldr	r3, .L15+8
 487 001e 5B68     		ldr	r3, [r3, #4]
 488              		.loc 6 169 6
 489 0020 002B     		cmp	r3, #0
 490 0022 06D0     		beq	.L14
 491              		.loc 6 170 19
 492 0024 094B     		ldr	r3, .L15+8
 493 0026 5B68     		ldr	r3, [r3, #4]
 494              		.loc 6 170 5
 495 0028 084A     		ldr	r2, .L15+8
 496 002a 9268     		ldr	r2, [r2, #8]
 497 002c 7968     		ldr	r1, [r7, #4]
 498 002e 1046     		mov	r0, r2
 499 0030 9847     		blx	r3
 500              	.LVL0:
 501              	.L14:
 502              		.loc 6 172 3
 503 0032 0448     		ldr	r0, .L15
 504 0034 FFF7FEFF 		bl	__trace_isr_leave
 505 0038 FFF7FEFF 		bl	__port_irq_epilogue
 506              		.loc 6 173 1
 507 003c 00BF     		nop
 508 003e 0837     		adds	r7, r7, #8
 509              		.cfi_def_cfa_offset 8
ARM GAS  C:\Users\DEVELO~1\AppData\Local\Temp\ccbfMIIM.s 			page 10


 510 0040 BD46     		mov	sp, r7
 511              		.cfi_def_cfa_register 13
 512              		@ sp needed
 513 0042 80BD     		pop	{r7, pc}
 514              	.L16:
 515              		.align	2
 516              	.L15:
 517 0044 00000000 		.word	__func__.15
 518 0048 00000240 		.word	1073872896
 519 004c 00000000 		.word	dma
 520              		.cfi_endproc
 521              	.LFE432:
 522              		.size	Vector6C, .-Vector6C
 523              		.section	.text.Vector70,"ax",%progbits
 524              		.align	1
 525              		.global	Vector70
 526              		.syntax unified
 527              		.thumb
 528              		.thumb_func
 529              		.type	Vector70, %function
 530              	Vector70:
 531              	.LFB433:
 532              		.loc 6 180 42
 533              		.cfi_startproc
 534              		@ args = 0, pretend = 0, frame = 8
 535              		@ frame_needed = 1, uses_anonymous_args = 0
 536 0000 80B5     		push	{r7, lr}
 537              		.cfi_def_cfa_offset 8
 538              		.cfi_offset 7, -8
 539              		.cfi_offset 14, -4
 540 0002 82B0     		sub	sp, sp, #8
 541              		.cfi_def_cfa_offset 16
 542 0004 00AF     		add	r7, sp, #0
 543              		.cfi_def_cfa_register 7
 544              		.loc 6 183 3
 545 0006 1048     		ldr	r0, .L19
 546 0008 FFF7FEFF 		bl	__trace_isr_enter
 547              		.loc 6 185 16
 548 000c 0F4B     		ldr	r3, .L19+4
 549 000e 1B68     		ldr	r3, [r3]
 550              		.loc 6 185 23
 551 0010 9B09     		lsrs	r3, r3, #6
 552              		.loc 6 185 9
 553 0012 03F03D03 		and	r3, r3, #61
 554 0016 7B60     		str	r3, [r7, #4]
 555              		.loc 6 186 7
 556 0018 0C4A     		ldr	r2, .L19+4
 557              		.loc 6 186 23
 558 001a 7B68     		ldr	r3, [r7, #4]
 559 001c 9B01     		lsls	r3, r3, #6
 560              		.loc 6 186 15
 561 001e 9360     		str	r3, [r2, #8]
 562              		.loc 6 187 21
 563 0020 0B4B     		ldr	r3, .L19+8
 564 0022 DB68     		ldr	r3, [r3, #12]
 565              		.loc 6 187 6
 566 0024 002B     		cmp	r3, #0
ARM GAS  C:\Users\DEVELO~1\AppData\Local\Temp\ccbfMIIM.s 			page 11


 567 0026 06D0     		beq	.L18
 568              		.loc 6 188 19
 569 0028 094B     		ldr	r3, .L19+8
 570 002a DB68     		ldr	r3, [r3, #12]
 571              		.loc 6 188 5
 572 002c 084A     		ldr	r2, .L19+8
 573 002e 1269     		ldr	r2, [r2, #16]
 574 0030 7968     		ldr	r1, [r7, #4]
 575 0032 1046     		mov	r0, r2
 576 0034 9847     		blx	r3
 577              	.LVL1:
 578              	.L18:
 579              		.loc 6 190 3
 580 0036 0448     		ldr	r0, .L19
 581 0038 FFF7FEFF 		bl	__trace_isr_leave
 582 003c FFF7FEFF 		bl	__port_irq_epilogue
 583              		.loc 6 191 1
 584 0040 00BF     		nop
 585 0042 0837     		adds	r7, r7, #8
 586              		.cfi_def_cfa_offset 8
 587 0044 BD46     		mov	sp, r7
 588              		.cfi_def_cfa_register 13
 589              		@ sp needed
 590 0046 80BD     		pop	{r7, pc}
 591              	.L20:
 592              		.align	2
 593              	.L19:
 594 0048 00000000 		.word	__func__.14
 595 004c 00000240 		.word	1073872896
 596 0050 00000000 		.word	dma
 597              		.cfi_endproc
 598              	.LFE433:
 599              		.size	Vector70, .-Vector70
 600              		.section	.text.Vector74,"ax",%progbits
 601              		.align	1
 602              		.global	Vector74
 603              		.syntax unified
 604              		.thumb
 605              		.thumb_func
 606              		.type	Vector74, %function
 607              	Vector74:
 608              	.LFB434:
 609              		.loc 6 198 42
 610              		.cfi_startproc
 611              		@ args = 0, pretend = 0, frame = 8
 612              		@ frame_needed = 1, uses_anonymous_args = 0
 613 0000 80B5     		push	{r7, lr}
 614              		.cfi_def_cfa_offset 8
 615              		.cfi_offset 7, -8
 616              		.cfi_offset 14, -4
 617 0002 82B0     		sub	sp, sp, #8
 618              		.cfi_def_cfa_offset 16
 619 0004 00AF     		add	r7, sp, #0
 620              		.cfi_def_cfa_register 7
 621              		.loc 6 201 3
 622 0006 1048     		ldr	r0, .L23
 623 0008 FFF7FEFF 		bl	__trace_isr_enter
ARM GAS  C:\Users\DEVELO~1\AppData\Local\Temp\ccbfMIIM.s 			page 12


 624              		.loc 6 203 16
 625 000c 0F4B     		ldr	r3, .L23+4
 626 000e 1B68     		ldr	r3, [r3]
 627              		.loc 6 203 23
 628 0010 1B0C     		lsrs	r3, r3, #16
 629              		.loc 6 203 9
 630 0012 03F03D03 		and	r3, r3, #61
 631 0016 7B60     		str	r3, [r7, #4]
 632              		.loc 6 204 7
 633 0018 0C4A     		ldr	r2, .L23+4
 634              		.loc 6 204 23
 635 001a 7B68     		ldr	r3, [r7, #4]
 636 001c 1B04     		lsls	r3, r3, #16
 637              		.loc 6 204 15
 638 001e 9360     		str	r3, [r2, #8]
 639              		.loc 6 205 21
 640 0020 0B4B     		ldr	r3, .L23+8
 641 0022 5B69     		ldr	r3, [r3, #20]
 642              		.loc 6 205 6
 643 0024 002B     		cmp	r3, #0
 644 0026 06D0     		beq	.L22
 645              		.loc 6 206 19
 646 0028 094B     		ldr	r3, .L23+8
 647 002a 5B69     		ldr	r3, [r3, #20]
 648              		.loc 6 206 5
 649 002c 084A     		ldr	r2, .L23+8
 650 002e 9269     		ldr	r2, [r2, #24]
 651 0030 7968     		ldr	r1, [r7, #4]
 652 0032 1046     		mov	r0, r2
 653 0034 9847     		blx	r3
 654              	.LVL2:
 655              	.L22:
 656              		.loc 6 208 3
 657 0036 0448     		ldr	r0, .L23
 658 0038 FFF7FEFF 		bl	__trace_isr_leave
 659 003c FFF7FEFF 		bl	__port_irq_epilogue
 660              		.loc 6 209 1
 661 0040 00BF     		nop
 662 0042 0837     		adds	r7, r7, #8
 663              		.cfi_def_cfa_offset 8
 664 0044 BD46     		mov	sp, r7
 665              		.cfi_def_cfa_register 13
 666              		@ sp needed
 667 0046 80BD     		pop	{r7, pc}
 668              	.L24:
 669              		.align	2
 670              	.L23:
 671 0048 00000000 		.word	__func__.13
 672 004c 00000240 		.word	1073872896
 673 0050 00000000 		.word	dma
 674              		.cfi_endproc
 675              	.LFE434:
 676              		.size	Vector74, .-Vector74
 677              		.section	.text.Vector78,"ax",%progbits
 678              		.align	1
 679              		.global	Vector78
 680              		.syntax unified
ARM GAS  C:\Users\DEVELO~1\AppData\Local\Temp\ccbfMIIM.s 			page 13


 681              		.thumb
 682              		.thumb_func
 683              		.type	Vector78, %function
 684              	Vector78:
 685              	.LFB435:
 686              		.loc 6 216 42
 687              		.cfi_startproc
 688              		@ args = 0, pretend = 0, frame = 8
 689              		@ frame_needed = 1, uses_anonymous_args = 0
 690 0000 80B5     		push	{r7, lr}
 691              		.cfi_def_cfa_offset 8
 692              		.cfi_offset 7, -8
 693              		.cfi_offset 14, -4
 694 0002 82B0     		sub	sp, sp, #8
 695              		.cfi_def_cfa_offset 16
 696 0004 00AF     		add	r7, sp, #0
 697              		.cfi_def_cfa_register 7
 698              		.loc 6 219 3
 699 0006 1048     		ldr	r0, .L27
 700 0008 FFF7FEFF 		bl	__trace_isr_enter
 701              		.loc 6 221 16
 702 000c 0F4B     		ldr	r3, .L27+4
 703 000e 1B68     		ldr	r3, [r3]
 704              		.loc 6 221 23
 705 0010 9B0D     		lsrs	r3, r3, #22
 706              		.loc 6 221 9
 707 0012 03F03D03 		and	r3, r3, #61
 708 0016 7B60     		str	r3, [r7, #4]
 709              		.loc 6 222 7
 710 0018 0C4A     		ldr	r2, .L27+4
 711              		.loc 6 222 23
 712 001a 7B68     		ldr	r3, [r7, #4]
 713 001c 9B05     		lsls	r3, r3, #22
 714              		.loc 6 222 15
 715 001e 9360     		str	r3, [r2, #8]
 716              		.loc 6 223 21
 717 0020 0B4B     		ldr	r3, .L27+8
 718 0022 DB69     		ldr	r3, [r3, #28]
 719              		.loc 6 223 6
 720 0024 002B     		cmp	r3, #0
 721 0026 06D0     		beq	.L26
 722              		.loc 6 224 19
 723 0028 094B     		ldr	r3, .L27+8
 724 002a DB69     		ldr	r3, [r3, #28]
 725              		.loc 6 224 5
 726 002c 084A     		ldr	r2, .L27+8
 727 002e 126A     		ldr	r2, [r2, #32]
 728 0030 7968     		ldr	r1, [r7, #4]
 729 0032 1046     		mov	r0, r2
 730 0034 9847     		blx	r3
 731              	.LVL3:
 732              	.L26:
 733              		.loc 6 226 3
 734 0036 0448     		ldr	r0, .L27
 735 0038 FFF7FEFF 		bl	__trace_isr_leave
 736 003c FFF7FEFF 		bl	__port_irq_epilogue
 737              		.loc 6 227 1
ARM GAS  C:\Users\DEVELO~1\AppData\Local\Temp\ccbfMIIM.s 			page 14


 738 0040 00BF     		nop
 739 0042 0837     		adds	r7, r7, #8
 740              		.cfi_def_cfa_offset 8
 741 0044 BD46     		mov	sp, r7
 742              		.cfi_def_cfa_register 13
 743              		@ sp needed
 744 0046 80BD     		pop	{r7, pc}
 745              	.L28:
 746              		.align	2
 747              	.L27:
 748 0048 00000000 		.word	__func__.12
 749 004c 00000240 		.word	1073872896
 750 0050 00000000 		.word	dma
 751              		.cfi_endproc
 752              	.LFE435:
 753              		.size	Vector78, .-Vector78
 754              		.section	.text.Vector7C,"ax",%progbits
 755              		.align	1
 756              		.global	Vector7C
 757              		.syntax unified
 758              		.thumb
 759              		.thumb_func
 760              		.type	Vector7C, %function
 761              	Vector7C:
 762              	.LFB436:
 763              		.loc 6 234 42
 764              		.cfi_startproc
 765              		@ args = 0, pretend = 0, frame = 8
 766              		@ frame_needed = 1, uses_anonymous_args = 0
 767 0000 80B5     		push	{r7, lr}
 768              		.cfi_def_cfa_offset 8
 769              		.cfi_offset 7, -8
 770              		.cfi_offset 14, -4
 771 0002 82B0     		sub	sp, sp, #8
 772              		.cfi_def_cfa_offset 16
 773 0004 00AF     		add	r7, sp, #0
 774              		.cfi_def_cfa_register 7
 775              		.loc 6 237 3
 776 0006 0F48     		ldr	r0, .L31
 777 0008 FFF7FEFF 		bl	__trace_isr_enter
 778              		.loc 6 239 16
 779 000c 0E4B     		ldr	r3, .L31+4
 780 000e 5B68     		ldr	r3, [r3, #4]
 781              		.loc 6 239 9
 782 0010 03F03D03 		and	r3, r3, #61
 783 0014 7B60     		str	r3, [r7, #4]
 784              		.loc 6 240 7
 785 0016 0C4A     		ldr	r2, .L31+4
 786              		.loc 6 240 15
 787 0018 7B68     		ldr	r3, [r7, #4]
 788 001a D360     		str	r3, [r2, #12]
 789              		.loc 6 241 21
 790 001c 0B4B     		ldr	r3, .L31+8
 791 001e 5B6A     		ldr	r3, [r3, #36]
 792              		.loc 6 241 6
 793 0020 002B     		cmp	r3, #0
 794 0022 06D0     		beq	.L30
ARM GAS  C:\Users\DEVELO~1\AppData\Local\Temp\ccbfMIIM.s 			page 15


 795              		.loc 6 242 19
 796 0024 094B     		ldr	r3, .L31+8
 797 0026 5B6A     		ldr	r3, [r3, #36]
 798              		.loc 6 242 5
 799 0028 084A     		ldr	r2, .L31+8
 800 002a 926A     		ldr	r2, [r2, #40]
 801 002c 7968     		ldr	r1, [r7, #4]
 802 002e 1046     		mov	r0, r2
 803 0030 9847     		blx	r3
 804              	.LVL4:
 805              	.L30:
 806              		.loc 6 244 3
 807 0032 0448     		ldr	r0, .L31
 808 0034 FFF7FEFF 		bl	__trace_isr_leave
 809 0038 FFF7FEFF 		bl	__port_irq_epilogue
 810              		.loc 6 245 1
 811 003c 00BF     		nop
 812 003e 0837     		adds	r7, r7, #8
 813              		.cfi_def_cfa_offset 8
 814 0040 BD46     		mov	sp, r7
 815              		.cfi_def_cfa_register 13
 816              		@ sp needed
 817 0042 80BD     		pop	{r7, pc}
 818              	.L32:
 819              		.align	2
 820              	.L31:
 821 0044 00000000 		.word	__func__.11
 822 0048 00000240 		.word	1073872896
 823 004c 00000000 		.word	dma
 824              		.cfi_endproc
 825              	.LFE436:
 826              		.size	Vector7C, .-Vector7C
 827              		.section	.text.Vector80,"ax",%progbits
 828              		.align	1
 829              		.global	Vector80
 830              		.syntax unified
 831              		.thumb
 832              		.thumb_func
 833              		.type	Vector80, %function
 834              	Vector80:
 835              	.LFB437:
 836              		.loc 6 252 42
 837              		.cfi_startproc
 838              		@ args = 0, pretend = 0, frame = 8
 839              		@ frame_needed = 1, uses_anonymous_args = 0
 840 0000 80B5     		push	{r7, lr}
 841              		.cfi_def_cfa_offset 8
 842              		.cfi_offset 7, -8
 843              		.cfi_offset 14, -4
 844 0002 82B0     		sub	sp, sp, #8
 845              		.cfi_def_cfa_offset 16
 846 0004 00AF     		add	r7, sp, #0
 847              		.cfi_def_cfa_register 7
 848              		.loc 6 255 3
 849 0006 1048     		ldr	r0, .L35
 850 0008 FFF7FEFF 		bl	__trace_isr_enter
 851              		.loc 6 257 16
ARM GAS  C:\Users\DEVELO~1\AppData\Local\Temp\ccbfMIIM.s 			page 16


 852 000c 0F4B     		ldr	r3, .L35+4
 853 000e 5B68     		ldr	r3, [r3, #4]
 854              		.loc 6 257 23
 855 0010 9B09     		lsrs	r3, r3, #6
 856              		.loc 6 257 9
 857 0012 03F03D03 		and	r3, r3, #61
 858 0016 7B60     		str	r3, [r7, #4]
 859              		.loc 6 258 7
 860 0018 0C4A     		ldr	r2, .L35+4
 861              		.loc 6 258 23
 862 001a 7B68     		ldr	r3, [r7, #4]
 863 001c 9B01     		lsls	r3, r3, #6
 864              		.loc 6 258 15
 865 001e D360     		str	r3, [r2, #12]
 866              		.loc 6 259 21
 867 0020 0B4B     		ldr	r3, .L35+8
 868 0022 DB6A     		ldr	r3, [r3, #44]
 869              		.loc 6 259 6
 870 0024 002B     		cmp	r3, #0
 871 0026 06D0     		beq	.L34
 872              		.loc 6 260 19
 873 0028 094B     		ldr	r3, .L35+8
 874 002a DB6A     		ldr	r3, [r3, #44]
 875              		.loc 6 260 5
 876 002c 084A     		ldr	r2, .L35+8
 877 002e 126B     		ldr	r2, [r2, #48]
 878 0030 7968     		ldr	r1, [r7, #4]
 879 0032 1046     		mov	r0, r2
 880 0034 9847     		blx	r3
 881              	.LVL5:
 882              	.L34:
 883              		.loc 6 262 3
 884 0036 0448     		ldr	r0, .L35
 885 0038 FFF7FEFF 		bl	__trace_isr_leave
 886 003c FFF7FEFF 		bl	__port_irq_epilogue
 887              		.loc 6 263 1
 888 0040 00BF     		nop
 889 0042 0837     		adds	r7, r7, #8
 890              		.cfi_def_cfa_offset 8
 891 0044 BD46     		mov	sp, r7
 892              		.cfi_def_cfa_register 13
 893              		@ sp needed
 894 0046 80BD     		pop	{r7, pc}
 895              	.L36:
 896              		.align	2
 897              	.L35:
 898 0048 00000000 		.word	__func__.10
 899 004c 00000240 		.word	1073872896
 900 0050 00000000 		.word	dma
 901              		.cfi_endproc
 902              	.LFE437:
 903              		.size	Vector80, .-Vector80
 904              		.section	.text.Vector84,"ax",%progbits
 905              		.align	1
 906              		.global	Vector84
 907              		.syntax unified
 908              		.thumb
ARM GAS  C:\Users\DEVELO~1\AppData\Local\Temp\ccbfMIIM.s 			page 17


 909              		.thumb_func
 910              		.type	Vector84, %function
 911              	Vector84:
 912              	.LFB438:
 913              		.loc 6 270 42
 914              		.cfi_startproc
 915              		@ args = 0, pretend = 0, frame = 8
 916              		@ frame_needed = 1, uses_anonymous_args = 0
 917 0000 80B5     		push	{r7, lr}
 918              		.cfi_def_cfa_offset 8
 919              		.cfi_offset 7, -8
 920              		.cfi_offset 14, -4
 921 0002 82B0     		sub	sp, sp, #8
 922              		.cfi_def_cfa_offset 16
 923 0004 00AF     		add	r7, sp, #0
 924              		.cfi_def_cfa_register 7
 925              		.loc 6 273 3
 926 0006 1048     		ldr	r0, .L39
 927 0008 FFF7FEFF 		bl	__trace_isr_enter
 928              		.loc 6 275 16
 929 000c 0F4B     		ldr	r3, .L39+4
 930 000e 5B68     		ldr	r3, [r3, #4]
 931              		.loc 6 275 23
 932 0010 1B0C     		lsrs	r3, r3, #16
 933              		.loc 6 275 9
 934 0012 03F03D03 		and	r3, r3, #61
 935 0016 7B60     		str	r3, [r7, #4]
 936              		.loc 6 276 7
 937 0018 0C4A     		ldr	r2, .L39+4
 938              		.loc 6 276 23
 939 001a 7B68     		ldr	r3, [r7, #4]
 940 001c 1B04     		lsls	r3, r3, #16
 941              		.loc 6 276 15
 942 001e D360     		str	r3, [r2, #12]
 943              		.loc 6 277 21
 944 0020 0B4B     		ldr	r3, .L39+8
 945 0022 5B6B     		ldr	r3, [r3, #52]
 946              		.loc 6 277 6
 947 0024 002B     		cmp	r3, #0
 948 0026 06D0     		beq	.L38
 949              		.loc 6 278 19
 950 0028 094B     		ldr	r3, .L39+8
 951 002a 5B6B     		ldr	r3, [r3, #52]
 952              		.loc 6 278 5
 953 002c 084A     		ldr	r2, .L39+8
 954 002e 926B     		ldr	r2, [r2, #56]
 955 0030 7968     		ldr	r1, [r7, #4]
 956 0032 1046     		mov	r0, r2
 957 0034 9847     		blx	r3
 958              	.LVL6:
 959              	.L38:
 960              		.loc 6 280 3
 961 0036 0448     		ldr	r0, .L39
 962 0038 FFF7FEFF 		bl	__trace_isr_leave
 963 003c FFF7FEFF 		bl	__port_irq_epilogue
 964              		.loc 6 281 1
 965 0040 00BF     		nop
ARM GAS  C:\Users\DEVELO~1\AppData\Local\Temp\ccbfMIIM.s 			page 18


 966 0042 0837     		adds	r7, r7, #8
 967              		.cfi_def_cfa_offset 8
 968 0044 BD46     		mov	sp, r7
 969              		.cfi_def_cfa_register 13
 970              		@ sp needed
 971 0046 80BD     		pop	{r7, pc}
 972              	.L40:
 973              		.align	2
 974              	.L39:
 975 0048 00000000 		.word	__func__.9
 976 004c 00000240 		.word	1073872896
 977 0050 00000000 		.word	dma
 978              		.cfi_endproc
 979              	.LFE438:
 980              		.size	Vector84, .-Vector84
 981              		.section	.text.VectorFC,"ax",%progbits
 982              		.align	1
 983              		.global	VectorFC
 984              		.syntax unified
 985              		.thumb
 986              		.thumb_func
 987              		.type	VectorFC, %function
 988              	VectorFC:
 989              	.LFB439:
 990              		.loc 6 288 42
 991              		.cfi_startproc
 992              		@ args = 0, pretend = 0, frame = 8
 993              		@ frame_needed = 1, uses_anonymous_args = 0
 994 0000 80B5     		push	{r7, lr}
 995              		.cfi_def_cfa_offset 8
 996              		.cfi_offset 7, -8
 997              		.cfi_offset 14, -4
 998 0002 82B0     		sub	sp, sp, #8
 999              		.cfi_def_cfa_offset 16
 1000 0004 00AF     		add	r7, sp, #0
 1001              		.cfi_def_cfa_register 7
 1002              		.loc 6 291 3
 1003 0006 1048     		ldr	r0, .L43
 1004 0008 FFF7FEFF 		bl	__trace_isr_enter
 1005              		.loc 6 293 16
 1006 000c 0F4B     		ldr	r3, .L43+4
 1007 000e 5B68     		ldr	r3, [r3, #4]
 1008              		.loc 6 293 23
 1009 0010 9B0D     		lsrs	r3, r3, #22
 1010              		.loc 6 293 9
 1011 0012 03F03D03 		and	r3, r3, #61
 1012 0016 7B60     		str	r3, [r7, #4]
 1013              		.loc 6 294 7
 1014 0018 0C4A     		ldr	r2, .L43+4
 1015              		.loc 6 294 23
 1016 001a 7B68     		ldr	r3, [r7, #4]
 1017 001c 9B05     		lsls	r3, r3, #22
 1018              		.loc 6 294 15
 1019 001e D360     		str	r3, [r2, #12]
 1020              		.loc 6 295 21
 1021 0020 0B4B     		ldr	r3, .L43+8
 1022 0022 DB6B     		ldr	r3, [r3, #60]
ARM GAS  C:\Users\DEVELO~1\AppData\Local\Temp\ccbfMIIM.s 			page 19


 1023              		.loc 6 295 6
 1024 0024 002B     		cmp	r3, #0
 1025 0026 06D0     		beq	.L42
 1026              		.loc 6 296 19
 1027 0028 094B     		ldr	r3, .L43+8
 1028 002a DB6B     		ldr	r3, [r3, #60]
 1029              		.loc 6 296 5
 1030 002c 084A     		ldr	r2, .L43+8
 1031 002e 126C     		ldr	r2, [r2, #64]
 1032 0030 7968     		ldr	r1, [r7, #4]
 1033 0032 1046     		mov	r0, r2
 1034 0034 9847     		blx	r3
 1035              	.LVL7:
 1036              	.L42:
 1037              		.loc 6 298 3
 1038 0036 0448     		ldr	r0, .L43
 1039 0038 FFF7FEFF 		bl	__trace_isr_leave
 1040 003c FFF7FEFF 		bl	__port_irq_epilogue
 1041              		.loc 6 299 1
 1042 0040 00BF     		nop
 1043 0042 0837     		adds	r7, r7, #8
 1044              		.cfi_def_cfa_offset 8
 1045 0044 BD46     		mov	sp, r7
 1046              		.cfi_def_cfa_register 13
 1047              		@ sp needed
 1048 0046 80BD     		pop	{r7, pc}
 1049              	.L44:
 1050              		.align	2
 1051              	.L43:
 1052 0048 00000000 		.word	__func__.8
 1053 004c 00000240 		.word	1073872896
 1054 0050 00000000 		.word	dma
 1055              		.cfi_endproc
 1056              	.LFE439:
 1057              		.size	VectorFC, .-VectorFC
 1058              		.section	.text.Vector120,"ax",%progbits
 1059              		.align	1
 1060              		.global	Vector120
 1061              		.syntax unified
 1062              		.thumb
 1063              		.thumb_func
 1064              		.type	Vector120, %function
 1065              	Vector120:
 1066              	.LFB440:
 1067              		.loc 6 306 42
 1068              		.cfi_startproc
 1069              		@ args = 0, pretend = 0, frame = 8
 1070              		@ frame_needed = 1, uses_anonymous_args = 0
 1071 0000 80B5     		push	{r7, lr}
 1072              		.cfi_def_cfa_offset 8
 1073              		.cfi_offset 7, -8
 1074              		.cfi_offset 14, -4
 1075 0002 82B0     		sub	sp, sp, #8
 1076              		.cfi_def_cfa_offset 16
 1077 0004 00AF     		add	r7, sp, #0
 1078              		.cfi_def_cfa_register 7
 1079              		.loc 6 309 3
ARM GAS  C:\Users\DEVELO~1\AppData\Local\Temp\ccbfMIIM.s 			page 20


 1080 0006 0F48     		ldr	r0, .L47
 1081 0008 FFF7FEFF 		bl	__trace_isr_enter
 1082              		.loc 6 311 16
 1083 000c 0E4B     		ldr	r3, .L47+4
 1084 000e 1B68     		ldr	r3, [r3]
 1085              		.loc 6 311 9
 1086 0010 03F03D03 		and	r3, r3, #61
 1087 0014 7B60     		str	r3, [r7, #4]
 1088              		.loc 6 312 7
 1089 0016 0C4A     		ldr	r2, .L47+4
 1090              		.loc 6 312 15
 1091 0018 7B68     		ldr	r3, [r7, #4]
 1092 001a 9360     		str	r3, [r2, #8]
 1093              		.loc 6 313 21
 1094 001c 0B4B     		ldr	r3, .L47+8
 1095 001e 5B6C     		ldr	r3, [r3, #68]
 1096              		.loc 6 313 6
 1097 0020 002B     		cmp	r3, #0
 1098 0022 06D0     		beq	.L46
 1099              		.loc 6 314 19
 1100 0024 094B     		ldr	r3, .L47+8
 1101 0026 5B6C     		ldr	r3, [r3, #68]
 1102              		.loc 6 314 5
 1103 0028 084A     		ldr	r2, .L47+8
 1104 002a 926C     		ldr	r2, [r2, #72]
 1105 002c 7968     		ldr	r1, [r7, #4]
 1106 002e 1046     		mov	r0, r2
 1107 0030 9847     		blx	r3
 1108              	.LVL8:
 1109              	.L46:
 1110              		.loc 6 316 3
 1111 0032 0448     		ldr	r0, .L47
 1112 0034 FFF7FEFF 		bl	__trace_isr_leave
 1113 0038 FFF7FEFF 		bl	__port_irq_epilogue
 1114              		.loc 6 317 1
 1115 003c 00BF     		nop
 1116 003e 0837     		adds	r7, r7, #8
 1117              		.cfi_def_cfa_offset 8
 1118 0040 BD46     		mov	sp, r7
 1119              		.cfi_def_cfa_register 13
 1120              		@ sp needed
 1121 0042 80BD     		pop	{r7, pc}
 1122              	.L48:
 1123              		.align	2
 1124              	.L47:
 1125 0044 00000000 		.word	__func__.7
 1126 0048 00040240 		.word	1073873920
 1127 004c 00000000 		.word	dma
 1128              		.cfi_endproc
 1129              	.LFE440:
 1130              		.size	Vector120, .-Vector120
 1131              		.section	.text.Vector124,"ax",%progbits
 1132              		.align	1
 1133              		.global	Vector124
 1134              		.syntax unified
 1135              		.thumb
 1136              		.thumb_func
ARM GAS  C:\Users\DEVELO~1\AppData\Local\Temp\ccbfMIIM.s 			page 21


 1137              		.type	Vector124, %function
 1138              	Vector124:
 1139              	.LFB441:
 1140              		.loc 6 324 42
 1141              		.cfi_startproc
 1142              		@ args = 0, pretend = 0, frame = 8
 1143              		@ frame_needed = 1, uses_anonymous_args = 0
 1144 0000 80B5     		push	{r7, lr}
 1145              		.cfi_def_cfa_offset 8
 1146              		.cfi_offset 7, -8
 1147              		.cfi_offset 14, -4
 1148 0002 82B0     		sub	sp, sp, #8
 1149              		.cfi_def_cfa_offset 16
 1150 0004 00AF     		add	r7, sp, #0
 1151              		.cfi_def_cfa_register 7
 1152              		.loc 6 327 3
 1153 0006 1048     		ldr	r0, .L51
 1154 0008 FFF7FEFF 		bl	__trace_isr_enter
 1155              		.loc 6 329 16
 1156 000c 0F4B     		ldr	r3, .L51+4
 1157 000e 1B68     		ldr	r3, [r3]
 1158              		.loc 6 329 23
 1159 0010 9B09     		lsrs	r3, r3, #6
 1160              		.loc 6 329 9
 1161 0012 03F03D03 		and	r3, r3, #61
 1162 0016 7B60     		str	r3, [r7, #4]
 1163              		.loc 6 330 7
 1164 0018 0C4A     		ldr	r2, .L51+4
 1165              		.loc 6 330 23
 1166 001a 7B68     		ldr	r3, [r7, #4]
 1167 001c 9B01     		lsls	r3, r3, #6
 1168              		.loc 6 330 15
 1169 001e 9360     		str	r3, [r2, #8]
 1170              		.loc 6 331 21
 1171 0020 0B4B     		ldr	r3, .L51+8
 1172 0022 DB6C     		ldr	r3, [r3, #76]
 1173              		.loc 6 331 6
 1174 0024 002B     		cmp	r3, #0
 1175 0026 06D0     		beq	.L50
 1176              		.loc 6 332 19
 1177 0028 094B     		ldr	r3, .L51+8
 1178 002a DB6C     		ldr	r3, [r3, #76]
 1179              		.loc 6 332 5
 1180 002c 084A     		ldr	r2, .L51+8
 1181 002e 126D     		ldr	r2, [r2, #80]
 1182 0030 7968     		ldr	r1, [r7, #4]
 1183 0032 1046     		mov	r0, r2
 1184 0034 9847     		blx	r3
 1185              	.LVL9:
 1186              	.L50:
 1187              		.loc 6 334 3
 1188 0036 0448     		ldr	r0, .L51
 1189 0038 FFF7FEFF 		bl	__trace_isr_leave
 1190 003c FFF7FEFF 		bl	__port_irq_epilogue
 1191              		.loc 6 335 1
 1192 0040 00BF     		nop
 1193 0042 0837     		adds	r7, r7, #8
ARM GAS  C:\Users\DEVELO~1\AppData\Local\Temp\ccbfMIIM.s 			page 22


 1194              		.cfi_def_cfa_offset 8
 1195 0044 BD46     		mov	sp, r7
 1196              		.cfi_def_cfa_register 13
 1197              		@ sp needed
 1198 0046 80BD     		pop	{r7, pc}
 1199              	.L52:
 1200              		.align	2
 1201              	.L51:
 1202 0048 00000000 		.word	__func__.6
 1203 004c 00040240 		.word	1073873920
 1204 0050 00000000 		.word	dma
 1205              		.cfi_endproc
 1206              	.LFE441:
 1207              		.size	Vector124, .-Vector124
 1208              		.section	.text.Vector128,"ax",%progbits
 1209              		.align	1
 1210              		.global	Vector128
 1211              		.syntax unified
 1212              		.thumb
 1213              		.thumb_func
 1214              		.type	Vector128, %function
 1215              	Vector128:
 1216              	.LFB442:
 1217              		.loc 6 342 42
 1218              		.cfi_startproc
 1219              		@ args = 0, pretend = 0, frame = 8
 1220              		@ frame_needed = 1, uses_anonymous_args = 0
 1221 0000 80B5     		push	{r7, lr}
 1222              		.cfi_def_cfa_offset 8
 1223              		.cfi_offset 7, -8
 1224              		.cfi_offset 14, -4
 1225 0002 82B0     		sub	sp, sp, #8
 1226              		.cfi_def_cfa_offset 16
 1227 0004 00AF     		add	r7, sp, #0
 1228              		.cfi_def_cfa_register 7
 1229              		.loc 6 345 3
 1230 0006 1048     		ldr	r0, .L55
 1231 0008 FFF7FEFF 		bl	__trace_isr_enter
 1232              		.loc 6 347 16
 1233 000c 0F4B     		ldr	r3, .L55+4
 1234 000e 1B68     		ldr	r3, [r3]
 1235              		.loc 6 347 23
 1236 0010 1B0C     		lsrs	r3, r3, #16
 1237              		.loc 6 347 9
 1238 0012 03F03D03 		and	r3, r3, #61
 1239 0016 7B60     		str	r3, [r7, #4]
 1240              		.loc 6 348 7
 1241 0018 0C4A     		ldr	r2, .L55+4
 1242              		.loc 6 348 23
 1243 001a 7B68     		ldr	r3, [r7, #4]
 1244 001c 1B04     		lsls	r3, r3, #16
 1245              		.loc 6 348 15
 1246 001e 9360     		str	r3, [r2, #8]
 1247              		.loc 6 349 22
 1248 0020 0B4B     		ldr	r3, .L55+8
 1249 0022 5B6D     		ldr	r3, [r3, #84]
 1250              		.loc 6 349 6
ARM GAS  C:\Users\DEVELO~1\AppData\Local\Temp\ccbfMIIM.s 			page 23


 1251 0024 002B     		cmp	r3, #0
 1252 0026 06D0     		beq	.L54
 1253              		.loc 6 350 20
 1254 0028 094B     		ldr	r3, .L55+8
 1255 002a 5B6D     		ldr	r3, [r3, #84]
 1256              		.loc 6 350 5
 1257 002c 084A     		ldr	r2, .L55+8
 1258 002e 926D     		ldr	r2, [r2, #88]
 1259 0030 7968     		ldr	r1, [r7, #4]
 1260 0032 1046     		mov	r0, r2
 1261 0034 9847     		blx	r3
 1262              	.LVL10:
 1263              	.L54:
 1264              		.loc 6 352 3
 1265 0036 0448     		ldr	r0, .L55
 1266 0038 FFF7FEFF 		bl	__trace_isr_leave
 1267 003c FFF7FEFF 		bl	__port_irq_epilogue
 1268              		.loc 6 353 1
 1269 0040 00BF     		nop
 1270 0042 0837     		adds	r7, r7, #8
 1271              		.cfi_def_cfa_offset 8
 1272 0044 BD46     		mov	sp, r7
 1273              		.cfi_def_cfa_register 13
 1274              		@ sp needed
 1275 0046 80BD     		pop	{r7, pc}
 1276              	.L56:
 1277              		.align	2
 1278              	.L55:
 1279 0048 00000000 		.word	__func__.5
 1280 004c 00040240 		.word	1073873920
 1281 0050 00000000 		.word	dma
 1282              		.cfi_endproc
 1283              	.LFE442:
 1284              		.size	Vector128, .-Vector128
 1285              		.section	.text.Vector12C,"ax",%progbits
 1286              		.align	1
 1287              		.global	Vector12C
 1288              		.syntax unified
 1289              		.thumb
 1290              		.thumb_func
 1291              		.type	Vector12C, %function
 1292              	Vector12C:
 1293              	.LFB443:
 1294              		.loc 6 360 42
 1295              		.cfi_startproc
 1296              		@ args = 0, pretend = 0, frame = 8
 1297              		@ frame_needed = 1, uses_anonymous_args = 0
 1298 0000 80B5     		push	{r7, lr}
 1299              		.cfi_def_cfa_offset 8
 1300              		.cfi_offset 7, -8
 1301              		.cfi_offset 14, -4
 1302 0002 82B0     		sub	sp, sp, #8
 1303              		.cfi_def_cfa_offset 16
 1304 0004 00AF     		add	r7, sp, #0
 1305              		.cfi_def_cfa_register 7
 1306              		.loc 6 363 3
 1307 0006 1048     		ldr	r0, .L59
ARM GAS  C:\Users\DEVELO~1\AppData\Local\Temp\ccbfMIIM.s 			page 24


 1308 0008 FFF7FEFF 		bl	__trace_isr_enter
 1309              		.loc 6 365 16
 1310 000c 0F4B     		ldr	r3, .L59+4
 1311 000e 1B68     		ldr	r3, [r3]
 1312              		.loc 6 365 23
 1313 0010 9B0D     		lsrs	r3, r3, #22
 1314              		.loc 6 365 9
 1315 0012 03F03D03 		and	r3, r3, #61
 1316 0016 7B60     		str	r3, [r7, #4]
 1317              		.loc 6 366 7
 1318 0018 0C4A     		ldr	r2, .L59+4
 1319              		.loc 6 366 23
 1320 001a 7B68     		ldr	r3, [r7, #4]
 1321 001c 9B05     		lsls	r3, r3, #22
 1322              		.loc 6 366 15
 1323 001e 9360     		str	r3, [r2, #8]
 1324              		.loc 6 367 22
 1325 0020 0B4B     		ldr	r3, .L59+8
 1326 0022 DB6D     		ldr	r3, [r3, #92]
 1327              		.loc 6 367 6
 1328 0024 002B     		cmp	r3, #0
 1329 0026 06D0     		beq	.L58
 1330              		.loc 6 368 20
 1331 0028 094B     		ldr	r3, .L59+8
 1332 002a DB6D     		ldr	r3, [r3, #92]
 1333              		.loc 6 368 5
 1334 002c 084A     		ldr	r2, .L59+8
 1335 002e 126E     		ldr	r2, [r2, #96]
 1336 0030 7968     		ldr	r1, [r7, #4]
 1337 0032 1046     		mov	r0, r2
 1338 0034 9847     		blx	r3
 1339              	.LVL11:
 1340              	.L58:
 1341              		.loc 6 370 3
 1342 0036 0448     		ldr	r0, .L59
 1343 0038 FFF7FEFF 		bl	__trace_isr_leave
 1344 003c FFF7FEFF 		bl	__port_irq_epilogue
 1345              		.loc 6 371 1
 1346 0040 00BF     		nop
 1347 0042 0837     		adds	r7, r7, #8
 1348              		.cfi_def_cfa_offset 8
 1349 0044 BD46     		mov	sp, r7
 1350              		.cfi_def_cfa_register 13
 1351              		@ sp needed
 1352 0046 80BD     		pop	{r7, pc}
 1353              	.L60:
 1354              		.align	2
 1355              	.L59:
 1356 0048 00000000 		.word	__func__.4
 1357 004c 00040240 		.word	1073873920
 1358 0050 00000000 		.word	dma
 1359              		.cfi_endproc
 1360              	.LFE443:
 1361              		.size	Vector12C, .-Vector12C
 1362              		.section	.text.Vector130,"ax",%progbits
 1363              		.align	1
 1364              		.global	Vector130
ARM GAS  C:\Users\DEVELO~1\AppData\Local\Temp\ccbfMIIM.s 			page 25


 1365              		.syntax unified
 1366              		.thumb
 1367              		.thumb_func
 1368              		.type	Vector130, %function
 1369              	Vector130:
 1370              	.LFB444:
 1371              		.loc 6 378 42
 1372              		.cfi_startproc
 1373              		@ args = 0, pretend = 0, frame = 8
 1374              		@ frame_needed = 1, uses_anonymous_args = 0
 1375 0000 80B5     		push	{r7, lr}
 1376              		.cfi_def_cfa_offset 8
 1377              		.cfi_offset 7, -8
 1378              		.cfi_offset 14, -4
 1379 0002 82B0     		sub	sp, sp, #8
 1380              		.cfi_def_cfa_offset 16
 1381 0004 00AF     		add	r7, sp, #0
 1382              		.cfi_def_cfa_register 7
 1383              		.loc 6 381 3
 1384 0006 0F48     		ldr	r0, .L63
 1385 0008 FFF7FEFF 		bl	__trace_isr_enter
 1386              		.loc 6 383 16
 1387 000c 0E4B     		ldr	r3, .L63+4
 1388 000e 5B68     		ldr	r3, [r3, #4]
 1389              		.loc 6 383 9
 1390 0010 03F03D03 		and	r3, r3, #61
 1391 0014 7B60     		str	r3, [r7, #4]
 1392              		.loc 6 384 7
 1393 0016 0C4A     		ldr	r2, .L63+4
 1394              		.loc 6 384 15
 1395 0018 7B68     		ldr	r3, [r7, #4]
 1396 001a D360     		str	r3, [r2, #12]
 1397              		.loc 6 385 22
 1398 001c 0B4B     		ldr	r3, .L63+8
 1399 001e 5B6E     		ldr	r3, [r3, #100]
 1400              		.loc 6 385 6
 1401 0020 002B     		cmp	r3, #0
 1402 0022 06D0     		beq	.L62
 1403              		.loc 6 386 20
 1404 0024 094B     		ldr	r3, .L63+8
 1405 0026 5B6E     		ldr	r3, [r3, #100]
 1406              		.loc 6 386 5
 1407 0028 084A     		ldr	r2, .L63+8
 1408 002a 926E     		ldr	r2, [r2, #104]
 1409 002c 7968     		ldr	r1, [r7, #4]
 1410 002e 1046     		mov	r0, r2
 1411 0030 9847     		blx	r3
 1412              	.LVL12:
 1413              	.L62:
 1414              		.loc 6 388 3
 1415 0032 0448     		ldr	r0, .L63
 1416 0034 FFF7FEFF 		bl	__trace_isr_leave
 1417 0038 FFF7FEFF 		bl	__port_irq_epilogue
 1418              		.loc 6 389 1
 1419 003c 00BF     		nop
 1420 003e 0837     		adds	r7, r7, #8
 1421              		.cfi_def_cfa_offset 8
ARM GAS  C:\Users\DEVELO~1\AppData\Local\Temp\ccbfMIIM.s 			page 26


 1422 0040 BD46     		mov	sp, r7
 1423              		.cfi_def_cfa_register 13
 1424              		@ sp needed
 1425 0042 80BD     		pop	{r7, pc}
 1426              	.L64:
 1427              		.align	2
 1428              	.L63:
 1429 0044 00000000 		.word	__func__.3
 1430 0048 00040240 		.word	1073873920
 1431 004c 00000000 		.word	dma
 1432              		.cfi_endproc
 1433              	.LFE444:
 1434              		.size	Vector130, .-Vector130
 1435              		.section	.text.Vector150,"ax",%progbits
 1436              		.align	1
 1437              		.global	Vector150
 1438              		.syntax unified
 1439              		.thumb
 1440              		.thumb_func
 1441              		.type	Vector150, %function
 1442              	Vector150:
 1443              	.LFB445:
 1444              		.loc 6 396 42
 1445              		.cfi_startproc
 1446              		@ args = 0, pretend = 0, frame = 8
 1447              		@ frame_needed = 1, uses_anonymous_args = 0
 1448 0000 80B5     		push	{r7, lr}
 1449              		.cfi_def_cfa_offset 8
 1450              		.cfi_offset 7, -8
 1451              		.cfi_offset 14, -4
 1452 0002 82B0     		sub	sp, sp, #8
 1453              		.cfi_def_cfa_offset 16
 1454 0004 00AF     		add	r7, sp, #0
 1455              		.cfi_def_cfa_register 7
 1456              		.loc 6 399 3
 1457 0006 1048     		ldr	r0, .L67
 1458 0008 FFF7FEFF 		bl	__trace_isr_enter
 1459              		.loc 6 401 16
 1460 000c 0F4B     		ldr	r3, .L67+4
 1461 000e 5B68     		ldr	r3, [r3, #4]
 1462              		.loc 6 401 23
 1463 0010 9B09     		lsrs	r3, r3, #6
 1464              		.loc 6 401 9
 1465 0012 03F03D03 		and	r3, r3, #61
 1466 0016 7B60     		str	r3, [r7, #4]
 1467              		.loc 6 402 7
 1468 0018 0C4A     		ldr	r2, .L67+4
 1469              		.loc 6 402 23
 1470 001a 7B68     		ldr	r3, [r7, #4]
 1471 001c 9B01     		lsls	r3, r3, #6
 1472              		.loc 6 402 15
 1473 001e D360     		str	r3, [r2, #12]
 1474              		.loc 6 403 22
 1475 0020 0B4B     		ldr	r3, .L67+8
 1476 0022 DB6E     		ldr	r3, [r3, #108]
 1477              		.loc 6 403 6
 1478 0024 002B     		cmp	r3, #0
ARM GAS  C:\Users\DEVELO~1\AppData\Local\Temp\ccbfMIIM.s 			page 27


 1479 0026 06D0     		beq	.L66
 1480              		.loc 6 404 20
 1481 0028 094B     		ldr	r3, .L67+8
 1482 002a DB6E     		ldr	r3, [r3, #108]
 1483              		.loc 6 404 5
 1484 002c 084A     		ldr	r2, .L67+8
 1485 002e 126F     		ldr	r2, [r2, #112]
 1486 0030 7968     		ldr	r1, [r7, #4]
 1487 0032 1046     		mov	r0, r2
 1488 0034 9847     		blx	r3
 1489              	.LVL13:
 1490              	.L66:
 1491              		.loc 6 406 3
 1492 0036 0448     		ldr	r0, .L67
 1493 0038 FFF7FEFF 		bl	__trace_isr_leave
 1494 003c FFF7FEFF 		bl	__port_irq_epilogue
 1495              		.loc 6 407 1
 1496 0040 00BF     		nop
 1497 0042 0837     		adds	r7, r7, #8
 1498              		.cfi_def_cfa_offset 8
 1499 0044 BD46     		mov	sp, r7
 1500              		.cfi_def_cfa_register 13
 1501              		@ sp needed
 1502 0046 80BD     		pop	{r7, pc}
 1503              	.L68:
 1504              		.align	2
 1505              	.L67:
 1506 0048 00000000 		.word	__func__.2
 1507 004c 00040240 		.word	1073873920
 1508 0050 00000000 		.word	dma
 1509              		.cfi_endproc
 1510              	.LFE445:
 1511              		.size	Vector150, .-Vector150
 1512              		.section	.text.Vector154,"ax",%progbits
 1513              		.align	1
 1514              		.global	Vector154
 1515              		.syntax unified
 1516              		.thumb
 1517              		.thumb_func
 1518              		.type	Vector154, %function
 1519              	Vector154:
 1520              	.LFB446:
 1521              		.loc 6 414 42
 1522              		.cfi_startproc
 1523              		@ args = 0, pretend = 0, frame = 8
 1524              		@ frame_needed = 1, uses_anonymous_args = 0
 1525 0000 80B5     		push	{r7, lr}
 1526              		.cfi_def_cfa_offset 8
 1527              		.cfi_offset 7, -8
 1528              		.cfi_offset 14, -4
 1529 0002 82B0     		sub	sp, sp, #8
 1530              		.cfi_def_cfa_offset 16
 1531 0004 00AF     		add	r7, sp, #0
 1532              		.cfi_def_cfa_register 7
 1533              		.loc 6 417 3
 1534 0006 1048     		ldr	r0, .L71
 1535 0008 FFF7FEFF 		bl	__trace_isr_enter
ARM GAS  C:\Users\DEVELO~1\AppData\Local\Temp\ccbfMIIM.s 			page 28


 1536              		.loc 6 419 16
 1537 000c 0F4B     		ldr	r3, .L71+4
 1538 000e 5B68     		ldr	r3, [r3, #4]
 1539              		.loc 6 419 23
 1540 0010 1B0C     		lsrs	r3, r3, #16
 1541              		.loc 6 419 9
 1542 0012 03F03D03 		and	r3, r3, #61
 1543 0016 7B60     		str	r3, [r7, #4]
 1544              		.loc 6 420 7
 1545 0018 0C4A     		ldr	r2, .L71+4
 1546              		.loc 6 420 23
 1547 001a 7B68     		ldr	r3, [r7, #4]
 1548 001c 1B04     		lsls	r3, r3, #16
 1549              		.loc 6 420 15
 1550 001e D360     		str	r3, [r2, #12]
 1551              		.loc 6 421 22
 1552 0020 0B4B     		ldr	r3, .L71+8
 1553 0022 5B6F     		ldr	r3, [r3, #116]
 1554              		.loc 6 421 6
 1555 0024 002B     		cmp	r3, #0
 1556 0026 06D0     		beq	.L70
 1557              		.loc 6 422 20
 1558 0028 094B     		ldr	r3, .L71+8
 1559 002a 5B6F     		ldr	r3, [r3, #116]
 1560              		.loc 6 422 5
 1561 002c 084A     		ldr	r2, .L71+8
 1562 002e 926F     		ldr	r2, [r2, #120]
 1563 0030 7968     		ldr	r1, [r7, #4]
 1564 0032 1046     		mov	r0, r2
 1565 0034 9847     		blx	r3
 1566              	.LVL14:
 1567              	.L70:
 1568              		.loc 6 424 3
 1569 0036 0448     		ldr	r0, .L71
 1570 0038 FFF7FEFF 		bl	__trace_isr_leave
 1571 003c FFF7FEFF 		bl	__port_irq_epilogue
 1572              		.loc 6 425 1
 1573 0040 00BF     		nop
 1574 0042 0837     		adds	r7, r7, #8
 1575              		.cfi_def_cfa_offset 8
 1576 0044 BD46     		mov	sp, r7
 1577              		.cfi_def_cfa_register 13
 1578              		@ sp needed
 1579 0046 80BD     		pop	{r7, pc}
 1580              	.L72:
 1581              		.align	2
 1582              	.L71:
 1583 0048 00000000 		.word	__func__.1
 1584 004c 00040240 		.word	1073873920
 1585 0050 00000000 		.word	dma
 1586              		.cfi_endproc
 1587              	.LFE446:
 1588              		.size	Vector154, .-Vector154
 1589              		.section	.text.Vector158,"ax",%progbits
 1590              		.align	1
 1591              		.global	Vector158
 1592              		.syntax unified
ARM GAS  C:\Users\DEVELO~1\AppData\Local\Temp\ccbfMIIM.s 			page 29


 1593              		.thumb
 1594              		.thumb_func
 1595              		.type	Vector158, %function
 1596              	Vector158:
 1597              	.LFB447:
 1598              		.loc 6 432 42
 1599              		.cfi_startproc
 1600              		@ args = 0, pretend = 0, frame = 8
 1601              		@ frame_needed = 1, uses_anonymous_args = 0
 1602 0000 80B5     		push	{r7, lr}
 1603              		.cfi_def_cfa_offset 8
 1604              		.cfi_offset 7, -8
 1605              		.cfi_offset 14, -4
 1606 0002 82B0     		sub	sp, sp, #8
 1607              		.cfi_def_cfa_offset 16
 1608 0004 00AF     		add	r7, sp, #0
 1609              		.cfi_def_cfa_register 7
 1610              		.loc 6 435 3
 1611 0006 1148     		ldr	r0, .L75
 1612 0008 FFF7FEFF 		bl	__trace_isr_enter
 1613              		.loc 6 437 16
 1614 000c 104B     		ldr	r3, .L75+4
 1615 000e 5B68     		ldr	r3, [r3, #4]
 1616              		.loc 6 437 23
 1617 0010 9B0D     		lsrs	r3, r3, #22
 1618              		.loc 6 437 9
 1619 0012 03F03D03 		and	r3, r3, #61
 1620 0016 7B60     		str	r3, [r7, #4]
 1621              		.loc 6 438 7
 1622 0018 0D4A     		ldr	r2, .L75+4
 1623              		.loc 6 438 23
 1624 001a 7B68     		ldr	r3, [r7, #4]
 1625 001c 9B05     		lsls	r3, r3, #22
 1626              		.loc 6 438 15
 1627 001e D360     		str	r3, [r2, #12]
 1628              		.loc 6 439 22
 1629 0020 0C4B     		ldr	r3, .L75+8
 1630 0022 DB6F     		ldr	r3, [r3, #124]
 1631              		.loc 6 439 6
 1632 0024 002B     		cmp	r3, #0
 1633 0026 07D0     		beq	.L74
 1634              		.loc 6 440 20
 1635 0028 0A4B     		ldr	r3, .L75+8
 1636 002a DB6F     		ldr	r3, [r3, #124]
 1637              		.loc 6 440 5
 1638 002c 094A     		ldr	r2, .L75+8
 1639 002e D2F88020 		ldr	r2, [r2, #128]
 1640 0032 7968     		ldr	r1, [r7, #4]
 1641 0034 1046     		mov	r0, r2
 1642 0036 9847     		blx	r3
 1643              	.LVL15:
 1644              	.L74:
 1645              		.loc 6 442 3
 1646 0038 0448     		ldr	r0, .L75
 1647 003a FFF7FEFF 		bl	__trace_isr_leave
 1648 003e FFF7FEFF 		bl	__port_irq_epilogue
 1649              		.loc 6 443 1
ARM GAS  C:\Users\DEVELO~1\AppData\Local\Temp\ccbfMIIM.s 			page 30


 1650 0042 00BF     		nop
 1651 0044 0837     		adds	r7, r7, #8
 1652              		.cfi_def_cfa_offset 8
 1653 0046 BD46     		mov	sp, r7
 1654              		.cfi_def_cfa_register 13
 1655              		@ sp needed
 1656 0048 80BD     		pop	{r7, pc}
 1657              	.L76:
 1658 004a 00BF     		.align	2
 1659              	.L75:
 1660 004c 00000000 		.word	__func__.0
 1661 0050 00040240 		.word	1073873920
 1662 0054 00000000 		.word	dma
 1663              		.cfi_endproc
 1664              	.LFE447:
 1665              		.size	Vector158, .-Vector158
 1666              		.section	.text.dmaInit,"ax",%progbits
 1667              		.align	1
 1668              		.global	dmaInit
 1669              		.syntax unified
 1670              		.thumb
 1671              		.thumb_func
 1672              		.type	dmaInit, %function
 1673              	dmaInit:
 1674              	.LFB448:
 1675              		.loc 6 454 20
 1676              		.cfi_startproc
 1677              		@ args = 0, pretend = 0, frame = 8
 1678              		@ frame_needed = 1, uses_anonymous_args = 0
 1679              		@ link register save eliminated.
 1680 0000 80B4     		push	{r7}
 1681              		.cfi_def_cfa_offset 4
 1682              		.cfi_offset 7, -4
 1683 0002 83B0     		sub	sp, sp, #12
 1684              		.cfi_def_cfa_offset 16
 1685 0004 00AF     		add	r7, sp, #0
 1686              		.cfi_def_cfa_register 7
 1687              		.loc 6 457 22
 1688 0006 174B     		ldr	r3, .L80
 1689 0008 0022     		movs	r2, #0
 1690 000a 1A60     		str	r2, [r3]
 1691              		.loc 6 458 10
 1692 000c 0023     		movs	r3, #0
 1693 000e 7B60     		str	r3, [r7, #4]
 1694              		.loc 6 458 3
 1695 0010 0FE0     		b	.L78
 1696              	.L79:
 1697              		.loc 6 459 26 discriminator 3
 1698 0012 154A     		ldr	r2, .L80+4
 1699 0014 7B68     		ldr	r3, [r7, #4]
 1700 0016 1B01     		lsls	r3, r3, #4
 1701 0018 1344     		add	r3, r3, r2
 1702 001a 1B68     		ldr	r3, [r3]
 1703              		.loc 6 459 38 discriminator 3
 1704 001c 0022     		movs	r2, #0
 1705 001e 1A60     		str	r2, [r3]
 1706              		.loc 6 460 25 discriminator 3
ARM GAS  C:\Users\DEVELO~1\AppData\Local\Temp\ccbfMIIM.s 			page 31


 1707 0020 104A     		ldr	r2, .L80
 1708 0022 7B68     		ldr	r3, [r7, #4]
 1709 0024 DB00     		lsls	r3, r3, #3
 1710 0026 1344     		add	r3, r3, r2
 1711 0028 0022     		movs	r2, #0
 1712 002a 5A60     		str	r2, [r3, #4]
 1713              		.loc 6 458 40 discriminator 3
 1714 002c 7B68     		ldr	r3, [r7, #4]
 1715 002e 0133     		adds	r3, r3, #1
 1716 0030 7B60     		str	r3, [r7, #4]
 1717              	.L78:
 1718              		.loc 6 458 18 discriminator 1
 1719 0032 7B68     		ldr	r3, [r7, #4]
 1720 0034 0F2B     		cmp	r3, #15
 1721 0036 ECD9     		bls	.L79
 1722              		.loc 6 462 7
 1723 0038 0C4B     		ldr	r3, .L80+8
 1724              		.loc 6 462 15
 1725 003a 4FF0FF32 		mov	r2, #-1
 1726 003e 9A60     		str	r2, [r3, #8]
 1727              		.loc 6 463 7
 1728 0040 0A4B     		ldr	r3, .L80+8
 1729              		.loc 6 463 15
 1730 0042 4FF0FF32 		mov	r2, #-1
 1731 0046 DA60     		str	r2, [r3, #12]
 1732              		.loc 6 464 7
 1733 0048 094B     		ldr	r3, .L80+12
 1734              		.loc 6 464 15
 1735 004a 4FF0FF32 		mov	r2, #-1
 1736 004e 9A60     		str	r2, [r3, #8]
 1737              		.loc 6 465 7
 1738 0050 074B     		ldr	r3, .L80+12
 1739              		.loc 6 465 15
 1740 0052 4FF0FF32 		mov	r2, #-1
 1741 0056 DA60     		str	r2, [r3, #12]
 1742              		.loc 6 466 1
 1743 0058 00BF     		nop
 1744 005a 0C37     		adds	r7, r7, #12
 1745              		.cfi_def_cfa_offset 4
 1746 005c BD46     		mov	sp, r7
 1747              		.cfi_def_cfa_register 13
 1748              		@ sp needed
 1749 005e 80BC     		pop	{r7}
 1750              		.cfi_restore 7
 1751              		.cfi_def_cfa_offset 0
 1752 0060 7047     		bx	lr
 1753              	.L81:
 1754 0062 00BF     		.align	2
 1755              	.L80:
 1756 0064 00000000 		.word	dma
 1757 0068 00000000 		.word	_stm32_dma_streams
 1758 006c 00000240 		.word	1073872896
 1759 0070 00040240 		.word	1073873920
 1760              		.cfi_endproc
 1761              	.LFE448:
 1762              		.size	dmaInit, .-dmaInit
 1763              		.section	.text.dmaStreamAllocI,"ax",%progbits
ARM GAS  C:\Users\DEVELO~1\AppData\Local\Temp\ccbfMIIM.s 			page 32


 1764              		.align	1
 1765              		.global	dmaStreamAllocI
 1766              		.syntax unified
 1767              		.thumb
 1768              		.thumb_func
 1769              		.type	dmaStreamAllocI, %function
 1770              	dmaStreamAllocI:
 1771              	.LFB449:
 1772              		.loc 6 493 56
 1773              		.cfi_startproc
 1774              		@ args = 0, pretend = 0, frame = 40
 1775              		@ frame_needed = 1, uses_anonymous_args = 0
 1776 0000 80B5     		push	{r7, lr}
 1777              		.cfi_def_cfa_offset 8
 1778              		.cfi_offset 7, -8
 1779              		.cfi_offset 14, -4
 1780 0002 8AB0     		sub	sp, sp, #40
 1781              		.cfi_def_cfa_offset 48
 1782 0004 00AF     		add	r7, sp, #0
 1783              		.cfi_def_cfa_register 7
 1784 0006 F860     		str	r0, [r7, #12]
 1785 0008 B960     		str	r1, [r7, #8]
 1786 000a 7A60     		str	r2, [r7, #4]
 1787 000c 3B60     		str	r3, [r7]
 1788              		.loc 6 498 6
 1789 000e FB68     		ldr	r3, [r7, #12]
 1790 0010 0F2B     		cmp	r3, #15
 1791 0012 04D8     		bhi	.L83
 1792              		.loc 6 499 13
 1793 0014 FB68     		ldr	r3, [r7, #12]
 1794 0016 3B62     		str	r3, [r7, #32]
 1795              		.loc 6 500 13
 1796 0018 FB68     		ldr	r3, [r7, #12]
 1797 001a FB61     		str	r3, [r7, #28]
 1798 001c 19E0     		b	.L84
 1799              	.L83:
 1800              		.loc 6 503 11
 1801 001e FB68     		ldr	r3, [r7, #12]
 1802 0020 102B     		cmp	r3, #16
 1803 0022 04D1     		bne	.L85
 1804              		.loc 6 504 13
 1805 0024 0023     		movs	r3, #0
 1806 0026 3B62     		str	r3, [r7, #32]
 1807              		.loc 6 505 13
 1808 0028 0F23     		movs	r3, #15
 1809 002a FB61     		str	r3, [r7, #28]
 1810 002c 11E0     		b	.L84
 1811              	.L85:
 1812              		.loc 6 507 11
 1813 002e FB68     		ldr	r3, [r7, #12]
 1814 0030 112B     		cmp	r3, #17
 1815 0032 04D1     		bne	.L86
 1816              		.loc 6 508 13
 1817 0034 0023     		movs	r3, #0
 1818 0036 3B62     		str	r3, [r7, #32]
 1819              		.loc 6 509 13
 1820 0038 0723     		movs	r3, #7
ARM GAS  C:\Users\DEVELO~1\AppData\Local\Temp\ccbfMIIM.s 			page 33


 1821 003a FB61     		str	r3, [r7, #28]
 1822 003c 09E0     		b	.L84
 1823              	.L86:
 1824              		.loc 6 511 11
 1825 003e FB68     		ldr	r3, [r7, #12]
 1826 0040 122B     		cmp	r3, #18
 1827 0042 04D1     		bne	.L87
 1828              		.loc 6 512 13
 1829 0044 0723     		movs	r3, #7
 1830 0046 3B62     		str	r3, [r7, #32]
 1831              		.loc 6 513 13
 1832 0048 0F23     		movs	r3, #15
 1833 004a FB61     		str	r3, [r7, #28]
 1834 004c 01E0     		b	.L84
 1835              	.L87:
 1836              		.loc 6 518 12
 1837 004e 0023     		movs	r3, #0
 1838 0050 67E0     		b	.L88
 1839              	.L84:
 1840              		.loc 6 521 10
 1841 0052 3B6A     		ldr	r3, [r7, #32]
 1842 0054 7B62     		str	r3, [r7, #36]
 1843              		.loc 6 521 3
 1844 0056 5FE0     		b	.L89
 1845              	.L95:
 1846              	.LBB22:
 1847              		.loc 6 522 14
 1848 0058 0122     		movs	r2, #1
 1849 005a 7B6A     		ldr	r3, [r7, #36]
 1850 005c 02FA03F3 		lsl	r3, r2, r3
 1851 0060 BB61     		str	r3, [r7, #24]
 1852              		.loc 6 523 13
 1853 0062 324B     		ldr	r3, .L96
 1854 0064 1A68     		ldr	r2, [r3]
 1855              		.loc 6 523 29
 1856 0066 BB69     		ldr	r3, [r7, #24]
 1857 0068 1340     		ands	r3, r3, r2
 1858              		.loc 6 523 8
 1859 006a 002B     		cmp	r3, #0
 1860 006c 51D1     		bne	.L90
 1861              	.LBB23:
 1862              		.loc 6 524 33
 1863 006e 7B6A     		ldr	r3, [r7, #36]
 1864 0070 1B01     		lsls	r3, r3, #4
 1865 0072 2F4A     		ldr	r2, .L96+4
 1866 0074 1344     		add	r3, r3, r2
 1867 0076 7B61     		str	r3, [r7, #20]
 1868              		.loc 6 527 28
 1869 0078 2C4A     		ldr	r2, .L96
 1870 007a 7B6A     		ldr	r3, [r7, #36]
 1871 007c DB00     		lsls	r3, r3, #3
 1872 007e 1344     		add	r3, r3, r2
 1873 0080 7A68     		ldr	r2, [r7, #4]
 1874 0082 5A60     		str	r2, [r3, #4]
 1875              		.loc 6 528 28
 1876 0084 294A     		ldr	r2, .L96
 1877 0086 7B6A     		ldr	r3, [r7, #36]
ARM GAS  C:\Users\DEVELO~1\AppData\Local\Temp\ccbfMIIM.s 			page 34


 1878 0088 DB00     		lsls	r3, r3, #3
 1879 008a 1344     		add	r3, r3, r2
 1880 008c 3A68     		ldr	r2, [r7]
 1881 008e 9A60     		str	r2, [r3, #8]
 1882              		.loc 6 529 27
 1883 0090 264B     		ldr	r3, .L96
 1884 0092 1A68     		ldr	r2, [r3]
 1885 0094 BB69     		ldr	r3, [r7, #24]
 1886 0096 1343     		orrs	r3, r3, r2
 1887 0098 244A     		ldr	r2, .L96
 1888 009a 1360     		str	r3, [r2]
 1889              		.loc 6 532 36
 1890 009c BB69     		ldr	r3, [r7, #24]
 1891 009e DBB2     		uxtb	r3, r3
 1892              		.loc 6 532 10
 1893 00a0 002B     		cmp	r3, #0
 1894 00a2 03D0     		beq	.L91
 1895              		.loc 6 533 9
 1896 00a4 0121     		movs	r1, #1
 1897 00a6 0120     		movs	r0, #1
 1898 00a8 FFF7FEFF 		bl	rccEnableAHB1
 1899              	.L91:
 1900              		.loc 6 535 36
 1901 00ac BB69     		ldr	r3, [r7, #24]
 1902 00ae 03F47F43 		and	r3, r3, #65280
 1903              		.loc 6 535 10
 1904 00b2 002B     		cmp	r3, #0
 1905 00b4 03D0     		beq	.L92
 1906              		.loc 6 536 9
 1907 00b6 0121     		movs	r1, #1
 1908 00b8 0220     		movs	r0, #2
 1909 00ba FFF7FEFF 		bl	rccEnableAHB1
 1910              	.L92:
 1911              		.loc 6 547 7
 1912 00be 7B69     		ldr	r3, [r7, #20]
 1913 00c0 1B68     		ldr	r3, [r3]
 1914 00c2 1A68     		ldr	r2, [r3]
 1915 00c4 7B69     		ldr	r3, [r7, #20]
 1916 00c6 1B68     		ldr	r3, [r3]
 1917 00c8 22F01F02 		bic	r2, r2, #31
 1918 00cc 1A60     		str	r2, [r3]
 1919              	.L93:
 1920              		.loc 6 547 7 is_stmt 0 discriminator 2
 1921 00ce 7B69     		ldr	r3, [r7, #20]
 1922 00d0 1B68     		ldr	r3, [r3]
 1923 00d2 1B68     		ldr	r3, [r3]
 1924 00d4 03F00103 		and	r3, r3, #1
 1925 00d8 002B     		cmp	r3, #0
 1926 00da F8D1     		bne	.L93
 1927              		.loc 6 547 7 discriminator 3
 1928 00dc 7B69     		ldr	r3, [r7, #20]
 1929 00de 1B7B     		ldrb	r3, [r3, #12]	@ zero_extendqisi2
 1930 00e0 1946     		mov	r1, r3
 1931 00e2 7B69     		ldr	r3, [r7, #20]
 1932 00e4 5B68     		ldr	r3, [r3, #4]
 1933 00e6 3D22     		movs	r2, #61
 1934 00e8 8A40     		lsls	r2, r2, r1
ARM GAS  C:\Users\DEVELO~1\AppData\Local\Temp\ccbfMIIM.s 			page 35


 1935 00ea 1A60     		str	r2, [r3]
 1936              		.loc 6 548 13 is_stmt 1 discriminator 3
 1937 00ec 7B69     		ldr	r3, [r7, #20]
 1938 00ee 1B68     		ldr	r3, [r3]
 1939              		.loc 6 548 26 discriminator 3
 1940 00f0 0022     		movs	r2, #0
 1941 00f2 1A60     		str	r2, [r3]
 1942              		.loc 6 549 13 discriminator 3
 1943 00f4 7B69     		ldr	r3, [r7, #20]
 1944 00f6 1B68     		ldr	r3, [r3]
 1945              		.loc 6 549 27 discriminator 3
 1946 00f8 2122     		movs	r2, #33
 1947 00fa 5A61     		str	r2, [r3, #20]
 1948              		.loc 6 552 10 discriminator 3
 1949 00fc 7B68     		ldr	r3, [r7, #4]
 1950 00fe 002B     		cmp	r3, #0
 1951 0100 05D0     		beq	.L94
 1952              		.loc 6 553 32
 1953 0102 7B69     		ldr	r3, [r7, #20]
 1954 0104 9B7B     		ldrb	r3, [r3, #14]	@ zero_extendqisi2
 1955              		.loc 6 553 9
 1956 0106 B968     		ldr	r1, [r7, #8]
 1957 0108 1846     		mov	r0, r3
 1958 010a FFF7FEFF 		bl	nvicEnableVector
 1959              	.L94:
 1960              		.loc 6 556 14
 1961 010e 7B69     		ldr	r3, [r7, #20]
 1962 0110 07E0     		b	.L88
 1963              	.L90:
 1964              	.LBE23:
 1965              	.LBE22:
 1966              		.loc 6 521 34 discriminator 2
 1967 0112 7B6A     		ldr	r3, [r7, #36]
 1968 0114 0133     		adds	r3, r3, #1
 1969 0116 7B62     		str	r3, [r7, #36]
 1970              	.L89:
 1971              		.loc 6 521 23 discriminator 1
 1972 0118 7A6A     		ldr	r2, [r7, #36]
 1973 011a FB69     		ldr	r3, [r7, #28]
 1974 011c 9A42     		cmp	r2, r3
 1975 011e 9BD9     		bls	.L95
 1976              		.loc 6 560 10
 1977 0120 0023     		movs	r3, #0
 1978              	.L88:
 1979              		.loc 6 561 1
 1980 0122 1846     		mov	r0, r3
 1981 0124 2837     		adds	r7, r7, #40
 1982              		.cfi_def_cfa_offset 8
 1983 0126 BD46     		mov	sp, r7
 1984              		.cfi_def_cfa_register 13
 1985              		@ sp needed
 1986 0128 80BD     		pop	{r7, pc}
 1987              	.L97:
 1988 012a 00BF     		.align	2
 1989              	.L96:
 1990 012c 00000000 		.word	dma
 1991 0130 00000000 		.word	_stm32_dma_streams
ARM GAS  C:\Users\DEVELO~1\AppData\Local\Temp\ccbfMIIM.s 			page 36


 1992              		.cfi_endproc
 1993              	.LFE449:
 1994              		.size	dmaStreamAllocI, .-dmaStreamAllocI
 1995              		.section	.text.dmaStreamAlloc,"ax",%progbits
 1996              		.align	1
 1997              		.global	dmaStreamAlloc
 1998              		.syntax unified
 1999              		.thumb
 2000              		.thumb_func
 2001              		.type	dmaStreamAlloc, %function
 2002              	dmaStreamAlloc:
 2003              	.LFB450:
 2004              		.loc 6 588 55
 2005              		.cfi_startproc
 2006              		@ args = 0, pretend = 0, frame = 24
 2007              		@ frame_needed = 1, uses_anonymous_args = 0
 2008 0000 80B5     		push	{r7, lr}
 2009              		.cfi_def_cfa_offset 8
 2010              		.cfi_offset 7, -8
 2011              		.cfi_offset 14, -4
 2012 0002 86B0     		sub	sp, sp, #24
 2013              		.cfi_def_cfa_offset 32
 2014 0004 00AF     		add	r7, sp, #0
 2015              		.cfi_def_cfa_register 7
 2016 0006 F860     		str	r0, [r7, #12]
 2017 0008 B960     		str	r1, [r7, #8]
 2018 000a 7A60     		str	r2, [r7, #4]
 2019 000c 3B60     		str	r3, [r7]
 2020              		.loc 6 591 3
 2021 000e FFF7FEFF 		bl	osalSysLock
 2022              		.loc 6 592 12
 2023 0012 3B68     		ldr	r3, [r7]
 2024 0014 7A68     		ldr	r2, [r7, #4]
 2025 0016 B968     		ldr	r1, [r7, #8]
 2026 0018 F868     		ldr	r0, [r7, #12]
 2027 001a FFF7FEFF 		bl	dmaStreamAllocI
 2028 001e 7861     		str	r0, [r7, #20]
 2029              		.loc 6 593 3
 2030 0020 FFF7FEFF 		bl	osalSysUnlock
 2031              		.loc 6 595 10
 2032 0024 7B69     		ldr	r3, [r7, #20]
 2033              		.loc 6 596 1
 2034 0026 1846     		mov	r0, r3
 2035 0028 1837     		adds	r7, r7, #24
 2036              		.cfi_def_cfa_offset 8
 2037 002a BD46     		mov	sp, r7
 2038              		.cfi_def_cfa_register 13
 2039              		@ sp needed
 2040 002c 80BD     		pop	{r7, pc}
 2041              		.cfi_endproc
 2042              	.LFE450:
 2043              		.size	dmaStreamAlloc, .-dmaStreamAlloc
 2044              		.section	.text.dmaStreamFreeI,"ax",%progbits
 2045              		.align	1
 2046              		.global	dmaStreamFreeI
 2047              		.syntax unified
 2048              		.thumb
ARM GAS  C:\Users\DEVELO~1\AppData\Local\Temp\ccbfMIIM.s 			page 37


 2049              		.thumb_func
 2050              		.type	dmaStreamFreeI, %function
 2051              	dmaStreamFreeI:
 2052              	.LFB451:
 2053              		.loc 6 608 55
 2054              		.cfi_startproc
 2055              		@ args = 0, pretend = 0, frame = 8
 2056              		@ frame_needed = 1, uses_anonymous_args = 0
 2057 0000 80B5     		push	{r7, lr}
 2058              		.cfi_def_cfa_offset 8
 2059              		.cfi_offset 7, -8
 2060              		.cfi_offset 14, -4
 2061 0002 82B0     		sub	sp, sp, #8
 2062              		.cfi_def_cfa_offset 16
 2063 0004 00AF     		add	r7, sp, #0
 2064              		.cfi_def_cfa_register 7
 2065 0006 7860     		str	r0, [r7, #4]
 2066              		.loc 6 617 27
 2067 0008 7B68     		ldr	r3, [r7, #4]
 2068 000a 9B7B     		ldrb	r3, [r3, #14]	@ zero_extendqisi2
 2069              		.loc 6 617 3
 2070 000c 1846     		mov	r0, r3
 2071 000e FFF7FEFF 		bl	nvicDisableVector
 2072              		.loc 6 620 22
 2073 0012 104B     		ldr	r3, .L104
 2074 0014 1A68     		ldr	r2, [r3]
 2075              		.loc 6 620 39
 2076 0016 7B68     		ldr	r3, [r7, #4]
 2077 0018 5B7B     		ldrb	r3, [r3, #13]	@ zero_extendqisi2
 2078 001a 1946     		mov	r1, r3
 2079              		.loc 6 620 30
 2080 001c 0123     		movs	r3, #1
 2081 001e 8B40     		lsls	r3, r3, r1
 2082              		.loc 6 620 25
 2083 0020 DB43     		mvns	r3, r3
 2084              		.loc 6 620 22
 2085 0022 1340     		ands	r3, r3, r2
 2086 0024 0B4A     		ldr	r2, .L104
 2087 0026 1360     		str	r3, [r2]
 2088              		.loc 6 623 11
 2089 0028 0A4B     		ldr	r3, .L104
 2090 002a 1B68     		ldr	r3, [r3]
 2091              		.loc 6 623 27
 2092 002c DBB2     		uxtb	r3, r3
 2093              		.loc 6 623 6
 2094 002e 002B     		cmp	r3, #0
 2095 0030 02D1     		bne	.L101
 2096              		.loc 6 624 5
 2097 0032 0120     		movs	r0, #1
 2098 0034 FFF7FEFF 		bl	rccDisableAHB1
 2099              	.L101:
 2100              		.loc 6 626 11
 2101 0038 064B     		ldr	r3, .L104
 2102 003a 1B68     		ldr	r3, [r3]
 2103              		.loc 6 626 27
 2104 003c 03F47F43 		and	r3, r3, #65280
 2105              		.loc 6 626 6
ARM GAS  C:\Users\DEVELO~1\AppData\Local\Temp\ccbfMIIM.s 			page 38


 2106 0040 002B     		cmp	r3, #0
 2107 0042 02D1     		bne	.L103
 2108              		.loc 6 627 5
 2109 0044 0220     		movs	r0, #2
 2110 0046 FFF7FEFF 		bl	rccDisableAHB1
 2111              	.L103:
 2112              		.loc 6 636 1
 2113 004a 00BF     		nop
 2114 004c 0837     		adds	r7, r7, #8
 2115              		.cfi_def_cfa_offset 8
 2116 004e BD46     		mov	sp, r7
 2117              		.cfi_def_cfa_register 13
 2118              		@ sp needed
 2119 0050 80BD     		pop	{r7, pc}
 2120              	.L105:
 2121 0052 00BF     		.align	2
 2122              	.L104:
 2123 0054 00000000 		.word	dma
 2124              		.cfi_endproc
 2125              	.LFE451:
 2126              		.size	dmaStreamFreeI, .-dmaStreamFreeI
 2127              		.section	.text.dmaStreamFree,"ax",%progbits
 2128              		.align	1
 2129              		.global	dmaStreamFree
 2130              		.syntax unified
 2131              		.thumb
 2132              		.thumb_func
 2133              		.type	dmaStreamFree, %function
 2134              	dmaStreamFree:
 2135              	.LFB452:
 2136              		.loc 6 648 54
 2137              		.cfi_startproc
 2138              		@ args = 0, pretend = 0, frame = 8
 2139              		@ frame_needed = 1, uses_anonymous_args = 0
 2140 0000 80B5     		push	{r7, lr}
 2141              		.cfi_def_cfa_offset 8
 2142              		.cfi_offset 7, -8
 2143              		.cfi_offset 14, -4
 2144 0002 82B0     		sub	sp, sp, #8
 2145              		.cfi_def_cfa_offset 16
 2146 0004 00AF     		add	r7, sp, #0
 2147              		.cfi_def_cfa_register 7
 2148 0006 7860     		str	r0, [r7, #4]
 2149              		.loc 6 650 3
 2150 0008 FFF7FEFF 		bl	osalSysLock
 2151              		.loc 6 651 3
 2152 000c 7868     		ldr	r0, [r7, #4]
 2153 000e FFF7FEFF 		bl	dmaStreamFreeI
 2154              		.loc 6 652 3
 2155 0012 FFF7FEFF 		bl	osalSysUnlock
 2156              		.loc 6 653 1
 2157 0016 00BF     		nop
 2158 0018 0837     		adds	r7, r7, #8
 2159              		.cfi_def_cfa_offset 8
 2160 001a BD46     		mov	sp, r7
 2161              		.cfi_def_cfa_register 13
 2162              		@ sp needed
ARM GAS  C:\Users\DEVELO~1\AppData\Local\Temp\ccbfMIIM.s 			page 39


 2163 001c 80BD     		pop	{r7, pc}
 2164              		.cfi_endproc
 2165              	.LFE452:
 2166              		.size	dmaStreamFree, .-dmaStreamFree
 2167              		.section	.text.dmaSetRequestSource,"ax",%progbits
 2168              		.align	1
 2169              		.global	dmaSetRequestSource
 2170              		.syntax unified
 2171              		.thumb
 2172              		.thumb_func
 2173              		.type	dmaSetRequestSource, %function
 2174              	dmaSetRequestSource:
 2175              	.LFB453:
 2176              		.loc 6 665 74
 2177              		.cfi_startproc
 2178              		@ args = 0, pretend = 0, frame = 8
 2179              		@ frame_needed = 1, uses_anonymous_args = 0
 2180              		@ link register save eliminated.
 2181 0000 80B4     		push	{r7}
 2182              		.cfi_def_cfa_offset 4
 2183              		.cfi_offset 7, -4
 2184 0002 83B0     		sub	sp, sp, #12
 2185              		.cfi_def_cfa_offset 16
 2186 0004 00AF     		add	r7, sp, #0
 2187              		.cfi_def_cfa_register 7
 2188 0006 7860     		str	r0, [r7, #4]
 2189 0008 3960     		str	r1, [r7]
 2190              		.loc 6 669 9
 2191 000a 7B68     		ldr	r3, [r7, #4]
 2192 000c 9B68     		ldr	r3, [r3, #8]
 2193              		.loc 6 669 20
 2194 000e 3A68     		ldr	r2, [r7]
 2195 0010 1A60     		str	r2, [r3]
 2196              		.loc 6 670 1
 2197 0012 00BF     		nop
 2198 0014 0C37     		adds	r7, r7, #12
 2199              		.cfi_def_cfa_offset 4
 2200 0016 BD46     		mov	sp, r7
 2201              		.cfi_def_cfa_register 13
 2202              		@ sp needed
 2203 0018 80BC     		pop	{r7}
 2204              		.cfi_restore 7
 2205              		.cfi_def_cfa_offset 0
 2206 001a 7047     		bx	lr
 2207              		.cfi_endproc
 2208              	.LFE453:
 2209              		.size	dmaSetRequestSource, .-dmaSetRequestSource
 2210              		.section	.rodata.__func__.15,"a"
 2211              		.align	2
 2212              		.type	__func__.15, %object
 2213              		.size	__func__.15, 9
 2214              	__func__.15:
 2215 0000 56656374 		.ascii	"Vector6C\000"
 2215      6F723643 
 2215      00
 2216              		.section	.rodata.__func__.14,"a"
 2217              		.align	2
ARM GAS  C:\Users\DEVELO~1\AppData\Local\Temp\ccbfMIIM.s 			page 40


 2218              		.type	__func__.14, %object
 2219              		.size	__func__.14, 9
 2220              	__func__.14:
 2221 0000 56656374 		.ascii	"Vector70\000"
 2221      6F723730 
 2221      00
 2222              		.section	.rodata.__func__.13,"a"
 2223              		.align	2
 2224              		.type	__func__.13, %object
 2225              		.size	__func__.13, 9
 2226              	__func__.13:
 2227 0000 56656374 		.ascii	"Vector74\000"
 2227      6F723734 
 2227      00
 2228              		.section	.rodata.__func__.12,"a"
 2229              		.align	2
 2230              		.type	__func__.12, %object
 2231              		.size	__func__.12, 9
 2232              	__func__.12:
 2233 0000 56656374 		.ascii	"Vector78\000"
 2233      6F723738 
 2233      00
 2234              		.section	.rodata.__func__.11,"a"
 2235              		.align	2
 2236              		.type	__func__.11, %object
 2237              		.size	__func__.11, 9
 2238              	__func__.11:
 2239 0000 56656374 		.ascii	"Vector7C\000"
 2239      6F723743 
 2239      00
 2240              		.section	.rodata.__func__.10,"a"
 2241              		.align	2
 2242              		.type	__func__.10, %object
 2243              		.size	__func__.10, 9
 2244              	__func__.10:
 2245 0000 56656374 		.ascii	"Vector80\000"
 2245      6F723830 
 2245      00
 2246              		.section	.rodata.__func__.9,"a"
 2247              		.align	2
 2248              		.type	__func__.9, %object
 2249              		.size	__func__.9, 9
 2250              	__func__.9:
 2251 0000 56656374 		.ascii	"Vector84\000"
 2251      6F723834 
 2251      00
 2252              		.section	.rodata.__func__.8,"a"
 2253              		.align	2
 2254              		.type	__func__.8, %object
 2255              		.size	__func__.8, 9
 2256              	__func__.8:
 2257 0000 56656374 		.ascii	"VectorFC\000"
 2257      6F724643 
 2257      00
 2258              		.section	.rodata.__func__.7,"a"
 2259              		.align	2
 2260              		.type	__func__.7, %object
ARM GAS  C:\Users\DEVELO~1\AppData\Local\Temp\ccbfMIIM.s 			page 41


 2261              		.size	__func__.7, 10
 2262              	__func__.7:
 2263 0000 56656374 		.ascii	"Vector120\000"
 2263      6F723132 
 2263      3000
 2264              		.section	.rodata.__func__.6,"a"
 2265              		.align	2
 2266              		.type	__func__.6, %object
 2267              		.size	__func__.6, 10
 2268              	__func__.6:
 2269 0000 56656374 		.ascii	"Vector124\000"
 2269      6F723132 
 2269      3400
 2270              		.section	.rodata.__func__.5,"a"
 2271              		.align	2
 2272              		.type	__func__.5, %object
 2273              		.size	__func__.5, 10
 2274              	__func__.5:
 2275 0000 56656374 		.ascii	"Vector128\000"
 2275      6F723132 
 2275      3800
 2276              		.section	.rodata.__func__.4,"a"
 2277              		.align	2
 2278              		.type	__func__.4, %object
 2279              		.size	__func__.4, 10
 2280              	__func__.4:
 2281 0000 56656374 		.ascii	"Vector12C\000"
 2281      6F723132 
 2281      4300
 2282              		.section	.rodata.__func__.3,"a"
 2283              		.align	2
 2284              		.type	__func__.3, %object
 2285              		.size	__func__.3, 10
 2286              	__func__.3:
 2287 0000 56656374 		.ascii	"Vector130\000"
 2287      6F723133 
 2287      3000
 2288              		.section	.rodata.__func__.2,"a"
 2289              		.align	2
 2290              		.type	__func__.2, %object
 2291              		.size	__func__.2, 10
 2292              	__func__.2:
 2293 0000 56656374 		.ascii	"Vector150\000"
 2293      6F723135 
 2293      3000
 2294              		.section	.rodata.__func__.1,"a"
 2295              		.align	2
 2296              		.type	__func__.1, %object
 2297              		.size	__func__.1, 10
 2298              	__func__.1:
 2299 0000 56656374 		.ascii	"Vector154\000"
 2299      6F723135 
 2299      3400
 2300              		.section	.rodata.__func__.0,"a"
 2301              		.align	2
 2302              		.type	__func__.0, %object
 2303              		.size	__func__.0, 10
ARM GAS  C:\Users\DEVELO~1\AppData\Local\Temp\ccbfMIIM.s 			page 42


 2304              	__func__.0:
 2305 0000 56656374 		.ascii	"Vector158\000"
 2305      6F723135 
 2305      3800
 2306              		.text
 2307              	.Letext0:
 2308              		.file 7 "c:\\chibistudio\\tools\\gnu tools arm embedded\\11.3 2022.08\\arm-none-eabi\\include\\mac
 2309              		.file 8 "c:\\chibistudio\\tools\\gnu tools arm embedded\\11.3 2022.08\\arm-none-eabi\\include\\sys
 2310              		.file 9 "../../../os/common/ext/ST/STM32H7xx/stm32h743xx.h"
 2311              		.file 10 "../../../os/hal/ports/STM32/LLD/DMAv2/stm32_dma.h"
 2312              		.file 11 "../../../os/hal/ports/common/ARMCMx/nvic.h"
 2313              		.file 12 "../../../os/rt/include/chtrace.h"