ARM GAS  C:\Users\DEVELO~1\AppData\Local\Temp\cc4WljaS.s 			page 1


   1              		.cpu cortex-m7
   2              		.arch armv7e-m
   3              		.fpu softvfp
   4              		.eabi_attribute 20, 1
   5              		.eabi_attribute 21, 1
   6              		.eabi_attribute 23, 3
   7              		.eabi_attribute 24, 1
   8              		.eabi_attribute 25, 1
   9              		.eabi_attribute 26, 1
  10              		.eabi_attribute 30, 6
  11              		.eabi_attribute 34, 1
  12              		.eabi_attribute 18, 4
  13              		.file	"stm32h7xx_hal_gpio.c"
  14              		.text
  15              	.Ltext0:
  16              		.cfi_sections	.debug_frame
  17              		.section	.text.HAL_GPIO_Init,"ax",%progbits
  18              		.align	1
  19              		.global	HAL_GPIO_Init
  20              		.syntax unified
  21              		.thumb
  22              		.thumb_func
  23              		.type	HAL_GPIO_Init, %function
  24              	HAL_GPIO_Init:
  25              	.LFB141:
  26              		.file 1 "drivers/stm32h7xx-hal-driver/Src/stm32h7xx_hal_gpio.c"
  27              		.loc 1 166 1
  28              		.cfi_startproc
  29              		@ args = 0, pretend = 0, frame = 32
  30              		@ frame_needed = 1, uses_anonymous_args = 0
  31              		@ link register save eliminated.
  32 0000 80B4     		push	{r7}
  33              		.cfi_def_cfa_offset 4
  34              		.cfi_offset 7, -4
  35 0002 89B0     		sub	sp, sp, #36
  36              		.cfi_def_cfa_offset 40
  37 0004 00AF     		add	r7, sp, #0
  38              		.cfi_def_cfa_register 7
  39 0006 7860     		str	r0, [r7, #4]
  40 0008 3960     		str	r1, [r7]
  41              		.loc 1 167 12
  42 000a 0023     		movs	r3, #0
  43 000c FB61     		str	r3, [r7, #28]
  44              		.loc 1 175 19
  45 000e 8E4B     		ldr	r3, .L34
  46 0010 7B61     		str	r3, [r7, #20]
  47              		.loc 1 184 9
  48 0012 9EE1     		b	.L2
  49              	.L33:
  50              		.loc 1 187 27
  51 0014 3B68     		ldr	r3, [r7]
  52 0016 1A68     		ldr	r2, [r3]
  53              		.loc 1 187 41
  54 0018 0121     		movs	r1, #1
  55 001a FB69     		ldr	r3, [r7, #28]
  56 001c 01FA03F3 		lsl	r3, r1, r3
  57              		.loc 1 187 15
ARM GAS  C:\Users\DEVELO~1\AppData\Local\Temp\cc4WljaS.s 			page 2


  58 0020 1340     		ands	r3, r3, r2
  59 0022 3B61     		str	r3, [r7, #16]
  60              		.loc 1 189 8
  61 0024 3B69     		ldr	r3, [r7, #16]
  62 0026 002B     		cmp	r3, #0
  63 0028 00F09081 		beq	.L3
  64              		.loc 1 193 22
  65 002c 3B68     		ldr	r3, [r7]
  66 002e 5B68     		ldr	r3, [r3, #4]
  67              		.loc 1 193 29
  68 0030 03F00303 		and	r3, r3, #3
  69              		.loc 1 193 10
  70 0034 012B     		cmp	r3, #1
  71 0036 05D0     		beq	.L4
  72              		.loc 1 193 72 discriminator 1
  73 0038 3B68     		ldr	r3, [r7]
  74 003a 5B68     		ldr	r3, [r3, #4]
  75              		.loc 1 193 79 discriminator 1
  76 003c 03F00303 		and	r3, r3, #3
  77              		.loc 1 193 58 discriminator 1
  78 0040 022B     		cmp	r3, #2
  79 0042 30D1     		bne	.L5
  80              	.L4:
  81              		.loc 1 199 14
  82 0044 7B68     		ldr	r3, [r7, #4]
  83 0046 9B68     		ldr	r3, [r3, #8]
  84 0048 BB61     		str	r3, [r7, #24]
  85              		.loc 1 200 53
  86 004a FB69     		ldr	r3, [r7, #28]
  87 004c 5B00     		lsls	r3, r3, #1
  88              		.loc 1 200 40
  89 004e 0322     		movs	r2, #3
  90 0050 02FA03F3 		lsl	r3, r2, r3
  91              		.loc 1 200 17
  92 0054 DB43     		mvns	r3, r3
  93              		.loc 1 200 14
  94 0056 BA69     		ldr	r2, [r7, #24]
  95 0058 1340     		ands	r3, r3, r2
  96 005a BB61     		str	r3, [r7, #24]
  97              		.loc 1 201 27
  98 005c 3B68     		ldr	r3, [r7]
  99 005e DA68     		ldr	r2, [r3, #12]
 100              		.loc 1 201 48
 101 0060 FB69     		ldr	r3, [r7, #28]
 102 0062 5B00     		lsls	r3, r3, #1
 103              		.loc 1 201 35
 104 0064 02FA03F3 		lsl	r3, r2, r3
 105              		.loc 1 201 14
 106 0068 BA69     		ldr	r2, [r7, #24]
 107 006a 1343     		orrs	r3, r3, r2
 108 006c BB61     		str	r3, [r7, #24]
 109              		.loc 1 202 24
 110 006e 7B68     		ldr	r3, [r7, #4]
 111 0070 BA69     		ldr	r2, [r7, #24]
 112 0072 9A60     		str	r2, [r3, #8]
 113              		.loc 1 205 14
 114 0074 7B68     		ldr	r3, [r7, #4]
ARM GAS  C:\Users\DEVELO~1\AppData\Local\Temp\cc4WljaS.s 			page 3


 115 0076 5B68     		ldr	r3, [r3, #4]
 116 0078 BB61     		str	r3, [r7, #24]
 117              		.loc 1 206 35
 118 007a 0122     		movs	r2, #1
 119 007c FB69     		ldr	r3, [r7, #28]
 120 007e 02FA03F3 		lsl	r3, r2, r3
 121              		.loc 1 206 17
 122 0082 DB43     		mvns	r3, r3
 123              		.loc 1 206 14
 124 0084 BA69     		ldr	r2, [r7, #24]
 125 0086 1340     		ands	r3, r3, r2
 126 0088 BB61     		str	r3, [r7, #24]
 127              		.loc 1 207 29
 128 008a 3B68     		ldr	r3, [r7]
 129 008c 5B68     		ldr	r3, [r3, #4]
 130              		.loc 1 207 51
 131 008e 1B09     		lsrs	r3, r3, #4
 132 0090 03F00102 		and	r2, r3, #1
 133              		.loc 1 207 71
 134 0094 FB69     		ldr	r3, [r7, #28]
 135 0096 02FA03F3 		lsl	r3, r2, r3
 136              		.loc 1 207 14
 137 009a BA69     		ldr	r2, [r7, #24]
 138 009c 1343     		orrs	r3, r3, r2
 139 009e BB61     		str	r3, [r7, #24]
 140              		.loc 1 208 23
 141 00a0 7B68     		ldr	r3, [r7, #4]
 142 00a2 BA69     		ldr	r2, [r7, #24]
 143 00a4 5A60     		str	r2, [r3, #4]
 144              	.L5:
 145              		.loc 1 211 22
 146 00a6 3B68     		ldr	r3, [r7]
 147 00a8 5B68     		ldr	r3, [r3, #4]
 148              		.loc 1 211 29
 149 00aa 03F00303 		and	r3, r3, #3
 150              		.loc 1 211 10
 151 00ae 032B     		cmp	r3, #3
 152 00b0 09D1     		bne	.L6
 153              		.loc 1 212 23 discriminator 1
 154 00b2 3B68     		ldr	r3, [r7]
 155 00b4 5B68     		ldr	r3, [r3, #4]
 156              		.loc 1 212 30 discriminator 1
 157 00b6 03F00303 		and	r3, r3, #3
 158              		.loc 1 211 58 discriminator 1
 159 00ba 032B     		cmp	r3, #3
 160 00bc 1BD1     		bne	.L7
 161              		.loc 1 212 72
 162 00be 3B68     		ldr	r3, [r7]
 163 00c0 9B68     		ldr	r3, [r3, #8]
 164              		.loc 1 212 59
 165 00c2 012B     		cmp	r3, #1
 166 00c4 17D0     		beq	.L7
 167              	.L6:
 168              		.loc 1 218 12
 169 00c6 7B68     		ldr	r3, [r7, #4]
 170 00c8 DB68     		ldr	r3, [r3, #12]
 171 00ca BB61     		str	r3, [r7, #24]
ARM GAS  C:\Users\DEVELO~1\AppData\Local\Temp\cc4WljaS.s 			page 4


 172              		.loc 1 219 47
 173 00cc FB69     		ldr	r3, [r7, #28]
 174 00ce 5B00     		lsls	r3, r3, #1
 175              		.loc 1 219 34
 176 00d0 0322     		movs	r2, #3
 177 00d2 02FA03F3 		lsl	r3, r2, r3
 178              		.loc 1 219 15
 179 00d6 DB43     		mvns	r3, r3
 180              		.loc 1 219 12
 181 00d8 BA69     		ldr	r2, [r7, #24]
 182 00da 1340     		ands	r3, r3, r2
 183 00dc BB61     		str	r3, [r7, #24]
 184              		.loc 1 220 26
 185 00de 3B68     		ldr	r3, [r7]
 186 00e0 9A68     		ldr	r2, [r3, #8]
 187              		.loc 1 220 47
 188 00e2 FB69     		ldr	r3, [r7, #28]
 189 00e4 5B00     		lsls	r3, r3, #1
 190              		.loc 1 220 34
 191 00e6 02FA03F3 		lsl	r3, r2, r3
 192              		.loc 1 220 12
 193 00ea BA69     		ldr	r2, [r7, #24]
 194 00ec 1343     		orrs	r3, r3, r2
 195 00ee BB61     		str	r3, [r7, #24]
 196              		.loc 1 221 20
 197 00f0 7B68     		ldr	r3, [r7, #4]
 198 00f2 BA69     		ldr	r2, [r7, #24]
 199 00f4 DA60     		str	r2, [r3, #12]
 200              	.L7:
 201              		.loc 1 225 21
 202 00f6 3B68     		ldr	r3, [r7]
 203 00f8 5B68     		ldr	r3, [r3, #4]
 204              		.loc 1 225 28
 205 00fa 03F00303 		and	r3, r3, #3
 206              		.loc 1 225 10
 207 00fe 022B     		cmp	r3, #2
 208 0100 23D1     		bne	.L8
 209              		.loc 1 232 36
 210 0102 FB69     		ldr	r3, [r7, #28]
 211 0104 DA08     		lsrs	r2, r3, #3
 212              		.loc 1 232 14
 213 0106 7B68     		ldr	r3, [r7, #4]
 214 0108 0832     		adds	r2, r2, #8
 215 010a 53F82230 		ldr	r3, [r3, r2, lsl #2]
 216 010e BB61     		str	r3, [r7, #24]
 217              		.loc 1 233 38
 218 0110 FB69     		ldr	r3, [r7, #28]
 219 0112 03F00703 		and	r3, r3, #7
 220              		.loc 1 233 47
 221 0116 9B00     		lsls	r3, r3, #2
 222              		.loc 1 233 24
 223 0118 0F22     		movs	r2, #15
 224 011a 02FA03F3 		lsl	r3, r2, r3
 225              		.loc 1 233 17
 226 011e DB43     		mvns	r3, r3
 227              		.loc 1 233 14
 228 0120 BA69     		ldr	r2, [r7, #24]
ARM GAS  C:\Users\DEVELO~1\AppData\Local\Temp\cc4WljaS.s 			page 5


 229 0122 1340     		ands	r3, r3, r2
 230 0124 BB61     		str	r3, [r7, #24]
 231              		.loc 1 234 28
 232 0126 3B68     		ldr	r3, [r7]
 233 0128 1A69     		ldr	r2, [r3, #16]
 234              		.loc 1 234 55
 235 012a FB69     		ldr	r3, [r7, #28]
 236 012c 03F00703 		and	r3, r3, #7
 237              		.loc 1 234 64
 238 0130 9B00     		lsls	r3, r3, #2
 239              		.loc 1 234 41
 240 0132 02FA03F3 		lsl	r3, r2, r3
 241              		.loc 1 234 14
 242 0136 BA69     		ldr	r2, [r7, #24]
 243 0138 1343     		orrs	r3, r3, r2
 244 013a BB61     		str	r3, [r7, #24]
 245              		.loc 1 235 29
 246 013c FB69     		ldr	r3, [r7, #28]
 247 013e DA08     		lsrs	r2, r3, #3
 248              		.loc 1 235 36
 249 0140 7B68     		ldr	r3, [r7, #4]
 250 0142 0832     		adds	r2, r2, #8
 251 0144 B969     		ldr	r1, [r7, #24]
 252 0146 43F82210 		str	r1, [r3, r2, lsl #2]
 253              	.L8:
 254              		.loc 1 239 12
 255 014a 7B68     		ldr	r3, [r7, #4]
 256 014c 1B68     		ldr	r3, [r3]
 257 014e BB61     		str	r3, [r7, #24]
 258              		.loc 1 240 47
 259 0150 FB69     		ldr	r3, [r7, #28]
 260 0152 5B00     		lsls	r3, r3, #1
 261              		.loc 1 240 34
 262 0154 0322     		movs	r2, #3
 263 0156 02FA03F3 		lsl	r3, r2, r3
 264              		.loc 1 240 15
 265 015a DB43     		mvns	r3, r3
 266              		.loc 1 240 12
 267 015c BA69     		ldr	r2, [r7, #24]
 268 015e 1340     		ands	r3, r3, r2
 269 0160 BB61     		str	r3, [r7, #24]
 270              		.loc 1 241 26
 271 0162 3B68     		ldr	r3, [r7]
 272 0164 5B68     		ldr	r3, [r3, #4]
 273              		.loc 1 241 33
 274 0166 03F00302 		and	r2, r3, #3
 275              		.loc 1 241 59
 276 016a FB69     		ldr	r3, [r7, #28]
 277 016c 5B00     		lsls	r3, r3, #1
 278              		.loc 1 241 46
 279 016e 02FA03F3 		lsl	r3, r2, r3
 280              		.loc 1 241 12
 281 0172 BA69     		ldr	r2, [r7, #24]
 282 0174 1343     		orrs	r3, r3, r2
 283 0176 BB61     		str	r3, [r7, #24]
 284              		.loc 1 242 20
 285 0178 7B68     		ldr	r3, [r7, #4]
ARM GAS  C:\Users\DEVELO~1\AppData\Local\Temp\cc4WljaS.s 			page 6


 286 017a BA69     		ldr	r2, [r7, #24]
 287 017c 1A60     		str	r2, [r3]
 288              		.loc 1 246 21
 289 017e 3B68     		ldr	r3, [r7]
 290 0180 5B68     		ldr	r3, [r3, #4]
 291              		.loc 1 246 28
 292 0182 03F44033 		and	r3, r3, #196608
 293              		.loc 1 246 10
 294 0186 002B     		cmp	r3, #0
 295 0188 00F0E080 		beq	.L3
 296              	.LBB2:
 297              		.loc 1 249 9
 298 018c 2F4B     		ldr	r3, .L34+4
 299 018e D3F8F430 		ldr	r3, [r3, #244]
 300 0192 2E4A     		ldr	r2, .L34+4
 301 0194 43F00203 		orr	r3, r3, #2
 302 0198 C2F8F430 		str	r3, [r2, #244]
 303 019c 2B4B     		ldr	r3, .L34+4
 304 019e D3F8F430 		ldr	r3, [r3, #244]
 305 01a2 03F00203 		and	r3, r3, #2
 306 01a6 FB60     		str	r3, [r7, #12]
 307 01a8 FB68     		ldr	r3, [r7, #12]
 308              	.LBE2:
 309              		.loc 1 251 22
 310 01aa 294A     		ldr	r2, .L34+8
 311              		.loc 1 251 40
 312 01ac FB69     		ldr	r3, [r7, #28]
 313 01ae 9B08     		lsrs	r3, r3, #2
 314              		.loc 1 251 14
 315 01b0 0233     		adds	r3, r3, #2
 316 01b2 52F82330 		ldr	r3, [r2, r3, lsl #2]
 317 01b6 BB61     		str	r3, [r7, #24]
 318              		.loc 1 252 45
 319 01b8 FB69     		ldr	r3, [r7, #28]
 320 01ba 03F00303 		and	r3, r3, #3
 321              		.loc 1 252 33
 322 01be 9B00     		lsls	r3, r3, #2
 323              		.loc 1 252 26
 324 01c0 0F22     		movs	r2, #15
 325 01c2 02FA03F3 		lsl	r3, r2, r3
 326              		.loc 1 252 17
 327 01c6 DB43     		mvns	r3, r3
 328              		.loc 1 252 14
 329 01c8 BA69     		ldr	r2, [r7, #24]
 330 01ca 1340     		ands	r3, r3, r2
 331 01cc BB61     		str	r3, [r7, #24]
 332              		.loc 1 253 18
 333 01ce 7B68     		ldr	r3, [r7, #4]
 334 01d0 204A     		ldr	r2, .L34+12
 335 01d2 9342     		cmp	r3, r2
 336 01d4 52D0     		beq	.L9
 337              		.loc 1 253 18 is_stmt 0 discriminator 1
 338 01d6 7B68     		ldr	r3, [r7, #4]
 339 01d8 1F4A     		ldr	r2, .L34+16
 340 01da 9342     		cmp	r3, r2
 341 01dc 31D0     		beq	.L10
 342              		.loc 1 253 18 discriminator 3
ARM GAS  C:\Users\DEVELO~1\AppData\Local\Temp\cc4WljaS.s 			page 7


 343 01de 7B68     		ldr	r3, [r7, #4]
 344 01e0 1E4A     		ldr	r2, .L34+20
 345 01e2 9342     		cmp	r3, r2
 346 01e4 2BD0     		beq	.L11
 347              		.loc 1 253 18 discriminator 5
 348 01e6 7B68     		ldr	r3, [r7, #4]
 349 01e8 1D4A     		ldr	r2, .L34+24
 350 01ea 9342     		cmp	r3, r2
 351 01ec 25D0     		beq	.L12
 352              		.loc 1 253 18 discriminator 7
 353 01ee 7B68     		ldr	r3, [r7, #4]
 354 01f0 1C4A     		ldr	r2, .L34+28
 355 01f2 9342     		cmp	r3, r2
 356 01f4 1FD0     		beq	.L13
 357              		.loc 1 253 18 discriminator 9
 358 01f6 7B68     		ldr	r3, [r7, #4]
 359 01f8 1B4A     		ldr	r2, .L34+32
 360 01fa 9342     		cmp	r3, r2
 361 01fc 19D0     		beq	.L14
 362              		.loc 1 253 18 discriminator 11
 363 01fe 7B68     		ldr	r3, [r7, #4]
 364 0200 1A4A     		ldr	r2, .L34+36
 365 0202 9342     		cmp	r3, r2
 366 0204 13D0     		beq	.L15
 367              		.loc 1 253 18 discriminator 13
 368 0206 7B68     		ldr	r3, [r7, #4]
 369 0208 194A     		ldr	r2, .L34+40
 370 020a 9342     		cmp	r3, r2
 371 020c 0DD0     		beq	.L16
 372              		.loc 1 253 18 discriminator 15
 373 020e 7B68     		ldr	r3, [r7, #4]
 374 0210 184A     		ldr	r2, .L34+44
 375 0212 9342     		cmp	r3, r2
 376 0214 07D0     		beq	.L17
 377              		.loc 1 253 18 discriminator 17
 378 0216 7B68     		ldr	r3, [r7, #4]
 379 0218 174A     		ldr	r2, .L34+48
 380 021a 9342     		cmp	r3, r2
 381 021c 01D1     		bne	.L18
 382              		.loc 1 253 18 discriminator 19
 383 021e 0923     		movs	r3, #9
 384 0220 2DE0     		b	.L28
 385              	.L18:
 386              		.loc 1 253 18 discriminator 20
 387 0222 0A23     		movs	r3, #10
 388 0224 2BE0     		b	.L28
 389              	.L17:
 390              		.loc 1 253 18 discriminator 18
 391 0226 0823     		movs	r3, #8
 392 0228 29E0     		b	.L28
 393              	.L16:
 394              		.loc 1 253 18 discriminator 16
 395 022a 0723     		movs	r3, #7
 396 022c 27E0     		b	.L28
 397              	.L15:
 398              		.loc 1 253 18 discriminator 14
 399 022e 0623     		movs	r3, #6
ARM GAS  C:\Users\DEVELO~1\AppData\Local\Temp\cc4WljaS.s 			page 8


 400 0230 25E0     		b	.L28
 401              	.L14:
 402              		.loc 1 253 18 discriminator 12
 403 0232 0523     		movs	r3, #5
 404 0234 23E0     		b	.L28
 405              	.L13:
 406              		.loc 1 253 18 discriminator 10
 407 0236 0423     		movs	r3, #4
 408 0238 21E0     		b	.L28
 409              	.L12:
 410              		.loc 1 253 18 discriminator 8
 411 023a 0323     		movs	r3, #3
 412 023c 1FE0     		b	.L28
 413              	.L11:
 414              		.loc 1 253 18 discriminator 6
 415 023e 0223     		movs	r3, #2
 416 0240 1DE0     		b	.L28
 417              	.L10:
 418              		.loc 1 253 18 discriminator 4
 419 0242 0123     		movs	r3, #1
 420 0244 1BE0     		b	.L28
 421              	.L35:
 422 0246 00BF     		.align	2
 423              	.L34:
 424 0248 80000058 		.word	1476395136
 425 024c 00440258 		.word	1476543488
 426 0250 00040058 		.word	1476396032
 427 0254 00000258 		.word	1476526080
 428 0258 00040258 		.word	1476527104
 429 025c 00080258 		.word	1476528128
 430 0260 000C0258 		.word	1476529152
 431 0264 00100258 		.word	1476530176
 432 0268 00140258 		.word	1476531200
 433 026c 00180258 		.word	1476532224
 434 0270 001C0258 		.word	1476533248
 435 0274 00200258 		.word	1476534272
 436 0278 00240258 		.word	1476535296
 437              	.L9:
 438              		.loc 1 253 18 discriminator 2
 439 027c 0023     		movs	r3, #0
 440              	.L28:
 441              		.loc 1 253 59 is_stmt 1 discriminator 40
 442 027e FA69     		ldr	r2, [r7, #28]
 443 0280 02F00302 		and	r2, r2, #3
 444              		.loc 1 253 47 discriminator 40
 445 0284 9200     		lsls	r2, r2, #2
 446              		.loc 1 253 40 discriminator 40
 447 0286 9340     		lsls	r3, r3, r2
 448              		.loc 1 253 14 discriminator 40
 449 0288 BA69     		ldr	r2, [r7, #24]
 450 028a 1343     		orrs	r3, r3, r2
 451 028c BB61     		str	r3, [r7, #24]
 452              		.loc 1 254 15 discriminator 40
 453 028e 3849     		ldr	r1, .L36
 454              		.loc 1 254 33 discriminator 40
 455 0290 FB69     		ldr	r3, [r7, #28]
 456 0292 9B08     		lsrs	r3, r3, #2
ARM GAS  C:\Users\DEVELO~1\AppData\Local\Temp\cc4WljaS.s 			page 9


 457              		.loc 1 254 40 discriminator 40
 458 0294 0233     		adds	r3, r3, #2
 459 0296 BA69     		ldr	r2, [r7, #24]
 460 0298 41F82320 		str	r2, [r1, r3, lsl #2]
 461              		.loc 1 257 20 discriminator 40
 462 029c 4FF0B043 		mov	r3, #1476395008
 463              		.loc 1 257 14 discriminator 40
 464 02a0 1B68     		ldr	r3, [r3]
 465 02a2 BB61     		str	r3, [r7, #24]
 466              		.loc 1 258 17 discriminator 40
 467 02a4 3B69     		ldr	r3, [r7, #16]
 468 02a6 DB43     		mvns	r3, r3
 469              		.loc 1 258 14 discriminator 40
 470 02a8 BA69     		ldr	r2, [r7, #24]
 471 02aa 1340     		ands	r3, r3, r2
 472 02ac BB61     		str	r3, [r7, #24]
 473              		.loc 1 259 23 discriminator 40
 474 02ae 3B68     		ldr	r3, [r7]
 475 02b0 5B68     		ldr	r3, [r3, #4]
 476              		.loc 1 259 30 discriminator 40
 477 02b2 03F48013 		and	r3, r3, #1048576
 478              		.loc 1 259 12 discriminator 40
 479 02b6 002B     		cmp	r3, #0
 480 02b8 03D0     		beq	.L29
 481              		.loc 1 261 16
 482 02ba BA69     		ldr	r2, [r7, #24]
 483 02bc 3B69     		ldr	r3, [r7, #16]
 484 02be 1343     		orrs	r3, r3, r2
 485 02c0 BB61     		str	r3, [r7, #24]
 486              	.L29:
 487              		.loc 1 263 13
 488 02c2 4FF0B042 		mov	r2, #1476395008
 489              		.loc 1 263 21
 490 02c6 BB69     		ldr	r3, [r7, #24]
 491 02c8 1360     		str	r3, [r2]
 492              		.loc 1 265 20
 493 02ca 4FF0B043 		mov	r3, #1476395008
 494              		.loc 1 265 14
 495 02ce 5B68     		ldr	r3, [r3, #4]
 496 02d0 BB61     		str	r3, [r7, #24]
 497              		.loc 1 266 17
 498 02d2 3B69     		ldr	r3, [r7, #16]
 499 02d4 DB43     		mvns	r3, r3
 500              		.loc 1 266 14
 501 02d6 BA69     		ldr	r2, [r7, #24]
 502 02d8 1340     		ands	r3, r3, r2
 503 02da BB61     		str	r3, [r7, #24]
 504              		.loc 1 267 23
 505 02dc 3B68     		ldr	r3, [r7]
 506 02de 5B68     		ldr	r3, [r3, #4]
 507              		.loc 1 267 30
 508 02e0 03F40013 		and	r3, r3, #2097152
 509              		.loc 1 267 12
 510 02e4 002B     		cmp	r3, #0
 511 02e6 03D0     		beq	.L30
 512              		.loc 1 269 16
 513 02e8 BA69     		ldr	r2, [r7, #24]
ARM GAS  C:\Users\DEVELO~1\AppData\Local\Temp\cc4WljaS.s 			page 10


 514 02ea 3B69     		ldr	r3, [r7, #16]
 515 02ec 1343     		orrs	r3, r3, r2
 516 02ee BB61     		str	r3, [r7, #24]
 517              	.L30:
 518              		.loc 1 271 13
 519 02f0 4FF0B042 		mov	r2, #1476395008
 520              		.loc 1 271 21
 521 02f4 BB69     		ldr	r3, [r7, #24]
 522 02f6 5360     		str	r3, [r2, #4]
 523              		.loc 1 273 14
 524 02f8 7B69     		ldr	r3, [r7, #20]
 525 02fa 5B68     		ldr	r3, [r3, #4]
 526 02fc BB61     		str	r3, [r7, #24]
 527              		.loc 1 274 17
 528 02fe 3B69     		ldr	r3, [r7, #16]
 529 0300 DB43     		mvns	r3, r3
 530              		.loc 1 274 14
 531 0302 BA69     		ldr	r2, [r7, #24]
 532 0304 1340     		ands	r3, r3, r2
 533 0306 BB61     		str	r3, [r7, #24]
 534              		.loc 1 275 23
 535 0308 3B68     		ldr	r3, [r7]
 536 030a 5B68     		ldr	r3, [r3, #4]
 537              		.loc 1 275 30
 538 030c 03F40033 		and	r3, r3, #131072
 539              		.loc 1 275 12
 540 0310 002B     		cmp	r3, #0
 541 0312 03D0     		beq	.L31
 542              		.loc 1 277 16
 543 0314 BA69     		ldr	r2, [r7, #24]
 544 0316 3B69     		ldr	r3, [r7, #16]
 545 0318 1343     		orrs	r3, r3, r2
 546 031a BB61     		str	r3, [r7, #24]
 547              	.L31:
 548              		.loc 1 279 31
 549 031c 7B69     		ldr	r3, [r7, #20]
 550 031e BA69     		ldr	r2, [r7, #24]
 551 0320 5A60     		str	r2, [r3, #4]
 552              		.loc 1 282 14
 553 0322 7B69     		ldr	r3, [r7, #20]
 554 0324 1B68     		ldr	r3, [r3]
 555 0326 BB61     		str	r3, [r7, #24]
 556              		.loc 1 283 17
 557 0328 3B69     		ldr	r3, [r7, #16]
 558 032a DB43     		mvns	r3, r3
 559              		.loc 1 283 14
 560 032c BA69     		ldr	r2, [r7, #24]
 561 032e 1340     		ands	r3, r3, r2
 562 0330 BB61     		str	r3, [r7, #24]
 563              		.loc 1 284 23
 564 0332 3B68     		ldr	r3, [r7]
 565 0334 5B68     		ldr	r3, [r3, #4]
 566              		.loc 1 284 30
 567 0336 03F48033 		and	r3, r3, #65536
 568              		.loc 1 284 12
 569 033a 002B     		cmp	r3, #0
 570 033c 03D0     		beq	.L32
ARM GAS  C:\Users\DEVELO~1\AppData\Local\Temp\cc4WljaS.s 			page 11


 571              		.loc 1 286 16
 572 033e BA69     		ldr	r2, [r7, #24]
 573 0340 3B69     		ldr	r3, [r7, #16]
 574 0342 1343     		orrs	r3, r3, r2
 575 0344 BB61     		str	r3, [r7, #24]
 576              	.L32:
 577              		.loc 1 288 31
 578 0346 7B69     		ldr	r3, [r7, #20]
 579 0348 BA69     		ldr	r2, [r7, #24]
 580 034a 1A60     		str	r2, [r3]
 581              	.L3:
 582              		.loc 1 292 13
 583 034c FB69     		ldr	r3, [r7, #28]
 584 034e 0133     		adds	r3, r3, #1
 585 0350 FB61     		str	r3, [r7, #28]
 586              	.L2:
 587              		.loc 1 184 21
 588 0352 3B68     		ldr	r3, [r7]
 589 0354 1A68     		ldr	r2, [r3]
 590              		.loc 1 184 28
 591 0356 FB69     		ldr	r3, [r7, #28]
 592 0358 22FA03F3 		lsr	r3, r2, r3
 593              		.loc 1 184 41
 594 035c 002B     		cmp	r3, #0
 595 035e 7FF459AE 		bne	.L33
 596              		.loc 1 294 1
 597 0362 00BF     		nop
 598 0364 00BF     		nop
 599 0366 2437     		adds	r7, r7, #36
 600              		.cfi_def_cfa_offset 4
 601 0368 BD46     		mov	sp, r7
 602              		.cfi_def_cfa_register 13
 603              		@ sp needed
 604 036a 80BC     		pop	{r7}
 605              		.cfi_restore 7
 606              		.cfi_def_cfa_offset 0
 607 036c 7047     		bx	lr
 608              	.L37:
 609 036e 00BF     		.align	2
 610              	.L36:
 611 0370 00040058 		.word	1476396032
 612              		.cfi_endproc
 613              	.LFE141:
 614              		.size	HAL_GPIO_Init, .-HAL_GPIO_Init
 615              		.section	.text.HAL_GPIO_DeInit,"ax",%progbits
 616              		.align	1
 617              		.global	HAL_GPIO_DeInit
 618              		.syntax unified
 619              		.thumb
 620              		.thumb_func
 621              		.type	HAL_GPIO_DeInit, %function
 622              	HAL_GPIO_DeInit:
 623              	.LFB142:
 624              		.loc 1 304 1
 625              		.cfi_startproc
 626              		@ args = 0, pretend = 0, frame = 24
 627              		@ frame_needed = 1, uses_anonymous_args = 0
ARM GAS  C:\Users\DEVELO~1\AppData\Local\Temp\cc4WljaS.s 			page 12


 628              		@ link register save eliminated.
 629 0000 80B4     		push	{r7}
 630              		.cfi_def_cfa_offset 4
 631              		.cfi_offset 7, -4
 632 0002 87B0     		sub	sp, sp, #28
 633              		.cfi_def_cfa_offset 32
 634 0004 00AF     		add	r7, sp, #0
 635              		.cfi_def_cfa_register 7
 636 0006 7860     		str	r0, [r7, #4]
 637 0008 3960     		str	r1, [r7]
 638              		.loc 1 305 12
 639 000a 0023     		movs	r3, #0
 640 000c 7B61     		str	r3, [r7, #20]
 641              		.loc 1 313 19
 642 000e 754B     		ldr	r3, .L63
 643 0010 3B61     		str	r3, [r7, #16]
 644              		.loc 1 321 9
 645 0012 D9E0     		b	.L39
 646              	.L62:
 647              		.loc 1 324 33
 648 0014 0122     		movs	r2, #1
 649 0016 7B69     		ldr	r3, [r7, #20]
 650 0018 02FA03F3 		lsl	r3, r2, r3
 651              		.loc 1 324 15
 652 001c 3A68     		ldr	r2, [r7]
 653 001e 1340     		ands	r3, r3, r2
 654 0020 FB60     		str	r3, [r7, #12]
 655              		.loc 1 326 8
 656 0022 FB68     		ldr	r3, [r7, #12]
 657 0024 002B     		cmp	r3, #0
 658 0026 00F0CC80 		beq	.L40
 659              		.loc 1 330 19
 660 002a 6F4A     		ldr	r2, .L63+4
 661              		.loc 1 330 37
 662 002c 7B69     		ldr	r3, [r7, #20]
 663 002e 9B08     		lsrs	r3, r3, #2
 664              		.loc 1 330 11
 665 0030 0233     		adds	r3, r3, #2
 666 0032 52F82330 		ldr	r3, [r2, r3, lsl #2]
 667 0036 BB60     		str	r3, [r7, #8]
 668              		.loc 1 331 41
 669 0038 7B69     		ldr	r3, [r7, #20]
 670 003a 03F00303 		and	r3, r3, #3
 671              		.loc 1 331 29
 672 003e 9B00     		lsls	r3, r3, #2
 673              		.loc 1 331 22
 674 0040 0F22     		movs	r2, #15
 675 0042 02FA03F3 		lsl	r3, r2, r3
 676              		.loc 1 331 11
 677 0046 BA68     		ldr	r2, [r7, #8]
 678 0048 1340     		ands	r3, r3, r2
 679 004a BB60     		str	r3, [r7, #8]
 680              		.loc 1 332 19
 681 004c 7B68     		ldr	r3, [r7, #4]
 682 004e 674A     		ldr	r2, .L63+8
 683 0050 9342     		cmp	r3, r2
 684 0052 37D0     		beq	.L41
ARM GAS  C:\Users\DEVELO~1\AppData\Local\Temp\cc4WljaS.s 			page 13


 685              		.loc 1 332 19 is_stmt 0 discriminator 1
 686 0054 7B68     		ldr	r3, [r7, #4]
 687 0056 664A     		ldr	r2, .L63+12
 688 0058 9342     		cmp	r3, r2
 689 005a 31D0     		beq	.L42
 690              		.loc 1 332 19 discriminator 3
 691 005c 7B68     		ldr	r3, [r7, #4]
 692 005e 654A     		ldr	r2, .L63+16
 693 0060 9342     		cmp	r3, r2
 694 0062 2BD0     		beq	.L43
 695              		.loc 1 332 19 discriminator 5
 696 0064 7B68     		ldr	r3, [r7, #4]
 697 0066 644A     		ldr	r2, .L63+20
 698 0068 9342     		cmp	r3, r2
 699 006a 25D0     		beq	.L44
 700              		.loc 1 332 19 discriminator 7
 701 006c 7B68     		ldr	r3, [r7, #4]
 702 006e 634A     		ldr	r2, .L63+24
 703 0070 9342     		cmp	r3, r2
 704 0072 1FD0     		beq	.L45
 705              		.loc 1 332 19 discriminator 9
 706 0074 7B68     		ldr	r3, [r7, #4]
 707 0076 624A     		ldr	r2, .L63+28
 708 0078 9342     		cmp	r3, r2
 709 007a 19D0     		beq	.L46
 710              		.loc 1 332 19 discriminator 11
 711 007c 7B68     		ldr	r3, [r7, #4]
 712 007e 614A     		ldr	r2, .L63+32
 713 0080 9342     		cmp	r3, r2
 714 0082 13D0     		beq	.L47
 715              		.loc 1 332 19 discriminator 13
 716 0084 7B68     		ldr	r3, [r7, #4]
 717 0086 604A     		ldr	r2, .L63+36
 718 0088 9342     		cmp	r3, r2
 719 008a 0DD0     		beq	.L48
 720              		.loc 1 332 19 discriminator 15
 721 008c 7B68     		ldr	r3, [r7, #4]
 722 008e 5F4A     		ldr	r2, .L63+40
 723 0090 9342     		cmp	r3, r2
 724 0092 07D0     		beq	.L49
 725              		.loc 1 332 19 discriminator 17
 726 0094 7B68     		ldr	r3, [r7, #4]
 727 0096 5E4A     		ldr	r2, .L63+44
 728 0098 9342     		cmp	r3, r2
 729 009a 01D1     		bne	.L50
 730              		.loc 1 332 19 discriminator 19
 731 009c 0923     		movs	r3, #9
 732 009e 12E0     		b	.L60
 733              	.L50:
 734              		.loc 1 332 19 discriminator 20
 735 00a0 0A23     		movs	r3, #10
 736 00a2 10E0     		b	.L60
 737              	.L49:
 738              		.loc 1 332 19 discriminator 18
 739 00a4 0823     		movs	r3, #8
 740 00a6 0EE0     		b	.L60
 741              	.L48:
ARM GAS  C:\Users\DEVELO~1\AppData\Local\Temp\cc4WljaS.s 			page 14


 742              		.loc 1 332 19 discriminator 16
 743 00a8 0723     		movs	r3, #7
 744 00aa 0CE0     		b	.L60
 745              	.L47:
 746              		.loc 1 332 19 discriminator 14
 747 00ac 0623     		movs	r3, #6
 748 00ae 0AE0     		b	.L60
 749              	.L46:
 750              		.loc 1 332 19 discriminator 12
 751 00b0 0523     		movs	r3, #5
 752 00b2 08E0     		b	.L60
 753              	.L45:
 754              		.loc 1 332 19 discriminator 10
 755 00b4 0423     		movs	r3, #4
 756 00b6 06E0     		b	.L60
 757              	.L44:
 758              		.loc 1 332 19 discriminator 8
 759 00b8 0323     		movs	r3, #3
 760 00ba 04E0     		b	.L60
 761              	.L43:
 762              		.loc 1 332 19 discriminator 6
 763 00bc 0223     		movs	r3, #2
 764 00be 02E0     		b	.L60
 765              	.L42:
 766              		.loc 1 332 19 discriminator 4
 767 00c0 0123     		movs	r3, #1
 768 00c2 00E0     		b	.L60
 769              	.L41:
 770              		.loc 1 332 19 discriminator 2
 771 00c4 0023     		movs	r3, #0
 772              	.L60:
 773              		.loc 1 332 60 is_stmt 1 discriminator 40
 774 00c6 7A69     		ldr	r2, [r7, #20]
 775 00c8 02F00302 		and	r2, r2, #3
 776              		.loc 1 332 48 discriminator 40
 777 00cc 9200     		lsls	r2, r2, #2
 778              		.loc 1 332 41 discriminator 40
 779 00ce 9340     		lsls	r3, r3, r2
 780              		.loc 1 332 10 discriminator 40
 781 00d0 BA68     		ldr	r2, [r7, #8]
 782 00d2 9A42     		cmp	r2, r3
 783 00d4 36D1     		bne	.L61
 784              		.loc 1 335 31
 785 00d6 3B69     		ldr	r3, [r7, #16]
 786 00d8 1A68     		ldr	r2, [r3]
 787              		.loc 1 335 34
 788 00da FB68     		ldr	r3, [r7, #12]
 789 00dc DB43     		mvns	r3, r3
 790              		.loc 1 335 31
 791 00de 1A40     		ands	r2, r2, r3
 792 00e0 3B69     		ldr	r3, [r7, #16]
 793 00e2 1A60     		str	r2, [r3]
 794              		.loc 1 336 31
 795 00e4 3B69     		ldr	r3, [r7, #16]
 796 00e6 5A68     		ldr	r2, [r3, #4]
 797              		.loc 1 336 34
 798 00e8 FB68     		ldr	r3, [r7, #12]
ARM GAS  C:\Users\DEVELO~1\AppData\Local\Temp\cc4WljaS.s 			page 15


 799 00ea DB43     		mvns	r3, r3
 800              		.loc 1 336 31
 801 00ec 1A40     		ands	r2, r2, r3
 802 00ee 3B69     		ldr	r3, [r7, #16]
 803 00f0 5A60     		str	r2, [r3, #4]
 804              		.loc 1 339 21
 805 00f2 4FF0B043 		mov	r3, #1476395008
 806 00f6 5A68     		ldr	r2, [r3, #4]
 807              		.loc 1 339 24
 808 00f8 FB68     		ldr	r3, [r7, #12]
 809 00fa DB43     		mvns	r3, r3
 810              		.loc 1 339 21
 811 00fc 4FF0B041 		mov	r1, #1476395008
 812 0100 1340     		ands	r3, r3, r2
 813 0102 4B60     		str	r3, [r1, #4]
 814              		.loc 1 340 21
 815 0104 4FF0B043 		mov	r3, #1476395008
 816 0108 1A68     		ldr	r2, [r3]
 817              		.loc 1 340 24
 818 010a FB68     		ldr	r3, [r7, #12]
 819 010c DB43     		mvns	r3, r3
 820              		.loc 1 340 21
 821 010e 4FF0B041 		mov	r1, #1476395008
 822 0112 1340     		ands	r3, r3, r2
 823 0114 0B60     		str	r3, [r1]
 824              		.loc 1 342 41
 825 0116 7B69     		ldr	r3, [r7, #20]
 826 0118 03F00303 		and	r3, r3, #3
 827              		.loc 1 342 29
 828 011c 9B00     		lsls	r3, r3, #2
 829              		.loc 1 342 13
 830 011e 0F22     		movs	r2, #15
 831 0120 02FA03F3 		lsl	r3, r2, r3
 832 0124 BB60     		str	r3, [r7, #8]
 833              		.loc 1 343 40
 834 0126 304A     		ldr	r2, .L63+4
 835 0128 7B69     		ldr	r3, [r7, #20]
 836 012a 9B08     		lsrs	r3, r3, #2
 837 012c 0233     		adds	r3, r3, #2
 838 012e 52F82310 		ldr	r1, [r2, r3, lsl #2]
 839              		.loc 1 343 43
 840 0132 BB68     		ldr	r3, [r7, #8]
 841 0134 DA43     		mvns	r2, r3
 842              		.loc 1 343 40
 843 0136 2C48     		ldr	r0, .L63+4
 844 0138 7B69     		ldr	r3, [r7, #20]
 845 013a 9B08     		lsrs	r3, r3, #2
 846 013c 0A40     		ands	r2, r2, r1
 847 013e 0233     		adds	r3, r3, #2
 848 0140 40F82320 		str	r2, [r0, r3, lsl #2]
 849              	.L61:
 850              		.loc 1 348 20
 851 0144 7B68     		ldr	r3, [r7, #4]
 852 0146 1A68     		ldr	r2, [r3]
 853              		.loc 1 348 54
 854 0148 7B69     		ldr	r3, [r7, #20]
 855 014a 5B00     		lsls	r3, r3, #1
ARM GAS  C:\Users\DEVELO~1\AppData\Local\Temp\cc4WljaS.s 			page 16


 856              		.loc 1 348 41
 857 014c 0321     		movs	r1, #3
 858 014e 01FA03F3 		lsl	r3, r1, r3
 859              		.loc 1 348 20
 860 0152 1A43     		orrs	r2, r2, r3
 861 0154 7B68     		ldr	r3, [r7, #4]
 862 0156 1A60     		str	r2, [r3]
 863              		.loc 1 351 34
 864 0158 7B69     		ldr	r3, [r7, #20]
 865 015a DA08     		lsrs	r2, r3, #3
 866 015c 7B68     		ldr	r3, [r7, #4]
 867 015e 0832     		adds	r2, r2, #8
 868 0160 53F82210 		ldr	r1, [r3, r2, lsl #2]
 869              		.loc 1 351 58
 870 0164 7B69     		ldr	r3, [r7, #20]
 871 0166 03F00703 		and	r3, r3, #7
 872              		.loc 1 351 67
 873 016a 9B00     		lsls	r3, r3, #2
 874              		.loc 1 351 44
 875 016c 0F22     		movs	r2, #15
 876 016e 02FA03F3 		lsl	r3, r2, r3
 877              		.loc 1 351 37
 878 0172 DB43     		mvns	r3, r3
 879              		.loc 1 351 34
 880 0174 7A69     		ldr	r2, [r7, #20]
 881 0176 D208     		lsrs	r2, r2, #3
 882 0178 1940     		ands	r1, r1, r3
 883 017a 7B68     		ldr	r3, [r7, #4]
 884 017c 0832     		adds	r2, r2, #8
 885 017e 43F82210 		str	r1, [r3, r2, lsl #2]
 886              		.loc 1 354 20
 887 0182 7B68     		ldr	r3, [r7, #4]
 888 0184 DA68     		ldr	r2, [r3, #12]
 889              		.loc 1 354 55
 890 0186 7B69     		ldr	r3, [r7, #20]
 891 0188 5B00     		lsls	r3, r3, #1
 892              		.loc 1 354 42
 893 018a 0321     		movs	r1, #3
 894 018c 01FA03F3 		lsl	r3, r1, r3
 895              		.loc 1 354 23
 896 0190 DB43     		mvns	r3, r3
 897              		.loc 1 354 20
 898 0192 1A40     		ands	r2, r2, r3
 899 0194 7B68     		ldr	r3, [r7, #4]
 900 0196 DA60     		str	r2, [r3, #12]
 901              		.loc 1 357 22
 902 0198 7B68     		ldr	r3, [r7, #4]
 903 019a 5A68     		ldr	r2, [r3, #4]
 904              		.loc 1 357 43
 905 019c 0121     		movs	r1, #1
 906 019e 7B69     		ldr	r3, [r7, #20]
 907 01a0 01FA03F3 		lsl	r3, r1, r3
 908              		.loc 1 357 25
 909 01a4 DB43     		mvns	r3, r3
 910              		.loc 1 357 22
 911 01a6 1A40     		ands	r2, r2, r3
 912 01a8 7B68     		ldr	r3, [r7, #4]
ARM GAS  C:\Users\DEVELO~1\AppData\Local\Temp\cc4WljaS.s 			page 17


 913 01aa 5A60     		str	r2, [r3, #4]
 914              		.loc 1 360 22
 915 01ac 7B68     		ldr	r3, [r7, #4]
 916 01ae 9A68     		ldr	r2, [r3, #8]
 917              		.loc 1 360 61
 918 01b0 7B69     		ldr	r3, [r7, #20]
 919 01b2 5B00     		lsls	r3, r3, #1
 920              		.loc 1 360 48
 921 01b4 0321     		movs	r1, #3
 922 01b6 01FA03F3 		lsl	r3, r1, r3
 923              		.loc 1 360 25
 924 01ba DB43     		mvns	r3, r3
 925              		.loc 1 360 22
 926 01bc 1A40     		ands	r2, r2, r3
 927 01be 7B68     		ldr	r3, [r7, #4]
 928 01c0 9A60     		str	r2, [r3, #8]
 929              	.L40:
 930              		.loc 1 363 13
 931 01c2 7B69     		ldr	r3, [r7, #20]
 932 01c4 0133     		adds	r3, r3, #1
 933 01c6 7B61     		str	r3, [r7, #20]
 934              	.L39:
 935              		.loc 1 321 20
 936 01c8 3A68     		ldr	r2, [r7]
 937 01ca 7B69     		ldr	r3, [r7, #20]
 938 01cc 22FA03F3 		lsr	r3, r2, r3
 939              		.loc 1 321 33
 940 01d0 002B     		cmp	r3, #0
 941 01d2 7FF41FAF 		bne	.L62
 942              		.loc 1 365 1
 943 01d6 00BF     		nop
 944 01d8 00BF     		nop
 945 01da 1C37     		adds	r7, r7, #28
 946              		.cfi_def_cfa_offset 4
 947 01dc BD46     		mov	sp, r7
 948              		.cfi_def_cfa_register 13
 949              		@ sp needed
 950 01de 80BC     		pop	{r7}
 951              		.cfi_restore 7
 952              		.cfi_def_cfa_offset 0
 953 01e0 7047     		bx	lr
 954              	.L64:
 955 01e2 00BF     		.align	2
 956              	.L63:
 957 01e4 80000058 		.word	1476395136
 958 01e8 00040058 		.word	1476396032
 959 01ec 00000258 		.word	1476526080
 960 01f0 00040258 		.word	1476527104
 961 01f4 00080258 		.word	1476528128
 962 01f8 000C0258 		.word	1476529152
 963 01fc 00100258 		.word	1476530176
 964 0200 00140258 		.word	1476531200
 965 0204 00180258 		.word	1476532224
 966 0208 001C0258 		.word	1476533248
 967 020c 00200258 		.word	1476534272
 968 0210 00240258 		.word	1476535296
 969              		.cfi_endproc
ARM GAS  C:\Users\DEVELO~1\AppData\Local\Temp\cc4WljaS.s 			page 18


 970              	.LFE142:
 971              		.size	HAL_GPIO_DeInit, .-HAL_GPIO_DeInit
 972              		.section	.text.HAL_GPIO_ReadPin,"ax",%progbits
 973              		.align	1
 974              		.global	HAL_GPIO_ReadPin
 975              		.syntax unified
 976              		.thumb
 977              		.thumb_func
 978              		.type	HAL_GPIO_ReadPin, %function
 979              	HAL_GPIO_ReadPin:
 980              	.LFB143:
 981              		.loc 1 391 1
 982              		.cfi_startproc
 983              		@ args = 0, pretend = 0, frame = 16
 984              		@ frame_needed = 1, uses_anonymous_args = 0
 985              		@ link register save eliminated.
 986 0000 80B4     		push	{r7}
 987              		.cfi_def_cfa_offset 4
 988              		.cfi_offset 7, -4
 989 0002 85B0     		sub	sp, sp, #20
 990              		.cfi_def_cfa_offset 24
 991 0004 00AF     		add	r7, sp, #0
 992              		.cfi_def_cfa_register 7
 993 0006 7860     		str	r0, [r7, #4]
 994 0008 0B46     		mov	r3, r1
 995 000a 7B80     		strh	r3, [r7, #2]	@ movhi
 996              		.loc 1 397 13
 997 000c 7B68     		ldr	r3, [r7, #4]
 998 000e 1A69     		ldr	r2, [r3, #16]
 999              		.loc 1 397 19
 1000 0010 7B88     		ldrh	r3, [r7, #2]
 1001 0012 1340     		ands	r3, r3, r2
 1002              		.loc 1 397 6
 1003 0014 002B     		cmp	r3, #0
 1004 0016 02D0     		beq	.L66
 1005              		.loc 1 399 15
 1006 0018 0123     		movs	r3, #1
 1007 001a FB73     		strb	r3, [r7, #15]
 1008 001c 01E0     		b	.L67
 1009              	.L66:
 1010              		.loc 1 403 15
 1011 001e 0023     		movs	r3, #0
 1012 0020 FB73     		strb	r3, [r7, #15]
 1013              	.L67:
 1014              		.loc 1 405 10
 1015 0022 FB7B     		ldrb	r3, [r7, #15]	@ zero_extendqisi2
 1016              		.loc 1 406 1
 1017 0024 1846     		mov	r0, r3
 1018 0026 1437     		adds	r7, r7, #20
 1019              		.cfi_def_cfa_offset 4
 1020 0028 BD46     		mov	sp, r7
 1021              		.cfi_def_cfa_register 13
 1022              		@ sp needed
 1023 002a 80BC     		pop	{r7}
 1024              		.cfi_restore 7
 1025              		.cfi_def_cfa_offset 0
 1026 002c 7047     		bx	lr
ARM GAS  C:\Users\DEVELO~1\AppData\Local\Temp\cc4WljaS.s 			page 19


 1027              		.cfi_endproc
 1028              	.LFE143:
 1029              		.size	HAL_GPIO_ReadPin, .-HAL_GPIO_ReadPin
 1030              		.section	.text.HAL_GPIO_WritePin,"ax",%progbits
 1031              		.align	1
 1032              		.global	HAL_GPIO_WritePin
 1033              		.syntax unified
 1034              		.thumb
 1035              		.thumb_func
 1036              		.type	HAL_GPIO_WritePin, %function
 1037              	HAL_GPIO_WritePin:
 1038              	.LFB144:
 1039              		.loc 1 425 1
 1040              		.cfi_startproc
 1041              		@ args = 0, pretend = 0, frame = 8
 1042              		@ frame_needed = 1, uses_anonymous_args = 0
 1043              		@ link register save eliminated.
 1044 0000 80B4     		push	{r7}
 1045              		.cfi_def_cfa_offset 4
 1046              		.cfi_offset 7, -4
 1047 0002 83B0     		sub	sp, sp, #12
 1048              		.cfi_def_cfa_offset 16
 1049 0004 00AF     		add	r7, sp, #0
 1050              		.cfi_def_cfa_register 7
 1051 0006 7860     		str	r0, [r7, #4]
 1052 0008 0B46     		mov	r3, r1
 1053 000a 7B80     		strh	r3, [r7, #2]	@ movhi
 1054 000c 1346     		mov	r3, r2
 1055 000e 7B70     		strb	r3, [r7, #1]
 1056              		.loc 1 430 6
 1057 0010 7B78     		ldrb	r3, [r7, #1]	@ zero_extendqisi2
 1058 0012 002B     		cmp	r3, #0
 1059 0014 03D0     		beq	.L70
 1060              		.loc 1 432 17
 1061 0016 7A88     		ldrh	r2, [r7, #2]
 1062 0018 7B68     		ldr	r3, [r7, #4]
 1063 001a 9A61     		str	r2, [r3, #24]
 1064              		.loc 1 438 1
 1065 001c 03E0     		b	.L72
 1066              	.L70:
 1067              		.loc 1 436 19
 1068 001e 7B88     		ldrh	r3, [r7, #2]
 1069              		.loc 1 436 38
 1070 0020 1A04     		lsls	r2, r3, #16
 1071              		.loc 1 436 17
 1072 0022 7B68     		ldr	r3, [r7, #4]
 1073 0024 9A61     		str	r2, [r3, #24]
 1074              	.L72:
 1075              		.loc 1 438 1
 1076 0026 00BF     		nop
 1077 0028 0C37     		adds	r7, r7, #12
 1078              		.cfi_def_cfa_offset 4
 1079 002a BD46     		mov	sp, r7
 1080              		.cfi_def_cfa_register 13
 1081              		@ sp needed
 1082 002c 80BC     		pop	{r7}
 1083              		.cfi_restore 7
ARM GAS  C:\Users\DEVELO~1\AppData\Local\Temp\cc4WljaS.s 			page 20


 1084              		.cfi_def_cfa_offset 0
 1085 002e 7047     		bx	lr
 1086              		.cfi_endproc
 1087              	.LFE144:
 1088              		.size	HAL_GPIO_WritePin, .-HAL_GPIO_WritePin
 1089              		.section	.text.HAL_GPIO_TogglePin,"ax",%progbits
 1090              		.align	1
 1091              		.global	HAL_GPIO_TogglePin
 1092              		.syntax unified
 1093              		.thumb
 1094              		.thumb_func
 1095              		.type	HAL_GPIO_TogglePin, %function
 1096              	HAL_GPIO_TogglePin:
 1097              	.LFB145:
 1098              		.loc 1 447 1
 1099              		.cfi_startproc
 1100              		@ args = 0, pretend = 0, frame = 16
 1101              		@ frame_needed = 1, uses_anonymous_args = 0
 1102              		@ link register save eliminated.
 1103 0000 80B4     		push	{r7}
 1104              		.cfi_def_cfa_offset 4
 1105              		.cfi_offset 7, -4
 1106 0002 85B0     		sub	sp, sp, #20
 1107              		.cfi_def_cfa_offset 24
 1108 0004 00AF     		add	r7, sp, #0
 1109              		.cfi_def_cfa_register 7
 1110 0006 7860     		str	r0, [r7, #4]
 1111 0008 0B46     		mov	r3, r1
 1112 000a 7B80     		strh	r3, [r7, #2]	@ movhi
 1113              		.loc 1 454 7
 1114 000c 7B68     		ldr	r3, [r7, #4]
 1115 000e 5B69     		ldr	r3, [r3, #20]
 1116 0010 FB60     		str	r3, [r7, #12]
 1117              		.loc 1 457 23
 1118 0012 7A88     		ldrh	r2, [r7, #2]
 1119 0014 FB68     		ldr	r3, [r7, #12]
 1120 0016 1340     		ands	r3, r3, r2
 1121              		.loc 1 457 35
 1122 0018 1A04     		lsls	r2, r3, #16
 1123              		.loc 1 457 54
 1124 001a FB68     		ldr	r3, [r7, #12]
 1125 001c D943     		mvns	r1, r3
 1126              		.loc 1 457 59
 1127 001e 7B88     		ldrh	r3, [r7, #2]
 1128 0020 0B40     		ands	r3, r3, r1
 1129              		.loc 1 457 51
 1130 0022 1A43     		orrs	r2, r2, r3
 1131              		.loc 1 457 15
 1132 0024 7B68     		ldr	r3, [r7, #4]
 1133 0026 9A61     		str	r2, [r3, #24]
 1134              		.loc 1 458 1
 1135 0028 00BF     		nop
 1136 002a 1437     		adds	r7, r7, #20
 1137              		.cfi_def_cfa_offset 4
 1138 002c BD46     		mov	sp, r7
 1139              		.cfi_def_cfa_register 13
 1140              		@ sp needed
ARM GAS  C:\Users\DEVELO~1\AppData\Local\Temp\cc4WljaS.s 			page 21


 1141 002e 80BC     		pop	{r7}
 1142              		.cfi_restore 7
 1143              		.cfi_def_cfa_offset 0
 1144 0030 7047     		bx	lr
 1145              		.cfi_endproc
 1146              	.LFE145:
 1147              		.size	HAL_GPIO_TogglePin, .-HAL_GPIO_TogglePin
 1148              		.section	.text.HAL_GPIO_LockPin,"ax",%progbits
 1149              		.align	1
 1150              		.global	HAL_GPIO_LockPin
 1151              		.syntax unified
 1152              		.thumb
 1153              		.thumb_func
 1154              		.type	HAL_GPIO_LockPin, %function
 1155              	HAL_GPIO_LockPin:
 1156              	.LFB146:
 1157              		.loc 1 472 1
 1158              		.cfi_startproc
 1159              		@ args = 0, pretend = 0, frame = 16
 1160              		@ frame_needed = 1, uses_anonymous_args = 0
 1161              		@ link register save eliminated.
 1162 0000 80B4     		push	{r7}
 1163              		.cfi_def_cfa_offset 4
 1164              		.cfi_offset 7, -4
 1165 0002 85B0     		sub	sp, sp, #20
 1166              		.cfi_def_cfa_offset 24
 1167 0004 00AF     		add	r7, sp, #0
 1168              		.cfi_def_cfa_register 7
 1169 0006 7860     		str	r0, [r7, #4]
 1170 0008 0B46     		mov	r3, r1
 1171 000a 7B80     		strh	r3, [r7, #2]	@ movhi
 1172              		.loc 1 473 17
 1173 000c 4FF48033 		mov	r3, #65536
 1174 0010 FB60     		str	r3, [r7, #12]
 1175              		.loc 1 480 7
 1176 0012 7A88     		ldrh	r2, [r7, #2]
 1177 0014 FB68     		ldr	r3, [r7, #12]
 1178 0016 1343     		orrs	r3, r3, r2
 1179 0018 FB60     		str	r3, [r7, #12]
 1180              		.loc 1 482 15
 1181 001a FA68     		ldr	r2, [r7, #12]
 1182 001c 7B68     		ldr	r3, [r7, #4]
 1183 001e DA61     		str	r2, [r3, #28]
 1184              		.loc 1 484 15
 1185 0020 7A88     		ldrh	r2, [r7, #2]
 1186 0022 7B68     		ldr	r3, [r7, #4]
 1187 0024 DA61     		str	r2, [r3, #28]
 1188              		.loc 1 486 15
 1189 0026 FA68     		ldr	r2, [r7, #12]
 1190 0028 7B68     		ldr	r3, [r7, #4]
 1191 002a DA61     		str	r2, [r3, #28]
 1192              		.loc 1 488 14
 1193 002c 7B68     		ldr	r3, [r7, #4]
 1194 002e DB69     		ldr	r3, [r3, #28]
 1195              		.loc 1 488 7
 1196 0030 FB60     		str	r3, [r7, #12]
 1197              		.loc 1 491 13
ARM GAS  C:\Users\DEVELO~1\AppData\Local\Temp\cc4WljaS.s 			page 22


 1198 0032 7B68     		ldr	r3, [r7, #4]
 1199 0034 DB69     		ldr	r3, [r3, #28]
 1200              		.loc 1 491 20
 1201 0036 03F48033 		and	r3, r3, #65536
 1202              		.loc 1 491 6
 1203 003a 002B     		cmp	r3, #0
 1204 003c 01D0     		beq	.L75
 1205              		.loc 1 493 12
 1206 003e 0023     		movs	r3, #0
 1207 0040 00E0     		b	.L76
 1208              	.L75:
 1209              		.loc 1 497 12
 1210 0042 0123     		movs	r3, #1
 1211              	.L76:
 1212              		.loc 1 499 1
 1213 0044 1846     		mov	r0, r3
 1214 0046 1437     		adds	r7, r7, #20
 1215              		.cfi_def_cfa_offset 4
 1216 0048 BD46     		mov	sp, r7
 1217              		.cfi_def_cfa_register 13
 1218              		@ sp needed
 1219 004a 80BC     		pop	{r7}
 1220              		.cfi_restore 7
 1221              		.cfi_def_cfa_offset 0
 1222 004c 7047     		bx	lr
 1223              		.cfi_endproc
 1224              	.LFE146:
 1225              		.size	HAL_GPIO_LockPin, .-HAL_GPIO_LockPin
 1226              		.section	.text.HAL_GPIO_EXTI_IRQHandler,"ax",%progbits
 1227              		.align	1
 1228              		.global	HAL_GPIO_EXTI_IRQHandler
 1229              		.syntax unified
 1230              		.thumb
 1231              		.thumb_func
 1232              		.type	HAL_GPIO_EXTI_IRQHandler, %function
 1233              	HAL_GPIO_EXTI_IRQHandler:
 1234              	.LFB147:
 1235              		.loc 1 507 1
 1236              		.cfi_startproc
 1237              		@ args = 0, pretend = 0, frame = 8
 1238              		@ frame_needed = 1, uses_anonymous_args = 0
 1239 0000 80B5     		push	{r7, lr}
 1240              		.cfi_def_cfa_offset 8
 1241              		.cfi_offset 7, -8
 1242              		.cfi_offset 14, -4
 1243 0002 82B0     		sub	sp, sp, #8
 1244              		.cfi_def_cfa_offset 16
 1245 0004 00AF     		add	r7, sp, #0
 1246              		.cfi_def_cfa_register 7
 1247 0006 0346     		mov	r3, r0
 1248 0008 FB80     		strh	r3, [r7, #6]	@ movhi
 1249              		.loc 1 516 7
 1250 000a 4FF0B043 		mov	r3, #1476395008
 1251 000e D3F88820 		ldr	r2, [r3, #136]
 1252 0012 FB88     		ldrh	r3, [r7, #6]
 1253 0014 1340     		ands	r3, r3, r2
 1254              		.loc 1 516 6
ARM GAS  C:\Users\DEVELO~1\AppData\Local\Temp\cc4WljaS.s 			page 23


 1255 0016 002B     		cmp	r3, #0
 1256 0018 08D0     		beq	.L79
 1257              		.loc 1 518 5
 1258 001a 4FF0B042 		mov	r2, #1476395008
 1259 001e FB88     		ldrh	r3, [r7, #6]
 1260 0020 C2F88830 		str	r3, [r2, #136]
 1261              		.loc 1 519 5
 1262 0024 FB88     		ldrh	r3, [r7, #6]
 1263 0026 1846     		mov	r0, r3
 1264 0028 FFF7FEFF 		bl	HAL_GPIO_EXTI_Callback
 1265              	.L79:
 1266              		.loc 1 522 1
 1267 002c 00BF     		nop
 1268 002e 0837     		adds	r7, r7, #8
 1269              		.cfi_def_cfa_offset 8
 1270 0030 BD46     		mov	sp, r7
 1271              		.cfi_def_cfa_register 13
 1272              		@ sp needed
 1273 0032 80BD     		pop	{r7, pc}
 1274              		.cfi_endproc
 1275              	.LFE147:
 1276              		.size	HAL_GPIO_EXTI_IRQHandler, .-HAL_GPIO_EXTI_IRQHandler
 1277              		.section	.text.HAL_GPIO_EXTI_Callback,"ax",%progbits
 1278              		.align	1
 1279              		.weak	HAL_GPIO_EXTI_Callback
 1280              		.syntax unified
 1281              		.thumb
 1282              		.thumb_func
 1283              		.type	HAL_GPIO_EXTI_Callback, %function
 1284              	HAL_GPIO_EXTI_Callback:
 1285              	.LFB148:
 1286              		.loc 1 530 1
 1287              		.cfi_startproc
 1288              		@ args = 0, pretend = 0, frame = 8
 1289              		@ frame_needed = 1, uses_anonymous_args = 0
 1290              		@ link register save eliminated.
 1291 0000 80B4     		push	{r7}
 1292              		.cfi_def_cfa_offset 4
 1293              		.cfi_offset 7, -4
 1294 0002 83B0     		sub	sp, sp, #12
 1295              		.cfi_def_cfa_offset 16
 1296 0004 00AF     		add	r7, sp, #0
 1297              		.cfi_def_cfa_register 7
 1298 0006 0346     		mov	r3, r0
 1299 0008 FB80     		strh	r3, [r7, #6]	@ movhi
 1300              		.loc 1 537 1
 1301 000a 00BF     		nop
 1302 000c 0C37     		adds	r7, r7, #12
 1303              		.cfi_def_cfa_offset 4
 1304 000e BD46     		mov	sp, r7
 1305              		.cfi_def_cfa_register 13
 1306              		@ sp needed
 1307 0010 80BC     		pop	{r7}
 1308              		.cfi_restore 7
 1309              		.cfi_def_cfa_offset 0
 1310 0012 7047     		bx	lr
 1311              		.cfi_endproc
ARM GAS  C:\Users\DEVELO~1\AppData\Local\Temp\cc4WljaS.s 			page 24


 1312              	.LFE148:
 1313              		.size	HAL_GPIO_EXTI_Callback, .-HAL_GPIO_EXTI_Callback
 1314              		.text
 1315              	.Letext0:
 1316              		.file 2 "c:\\chibistudio\\tools\\gnu tools arm embedded\\11.3 2022.08\\arm-none-eabi\\include\\mac
 1317              		.file 3 "c:\\chibistudio\\tools\\gnu tools arm embedded\\11.3 2022.08\\arm-none-eabi\\include\\sys
 1318              		.file 4 "../../../os/common/ext/ST/STM32H7xx/stm32h743xx.h"
 1319              		.file 5 "drivers/stm32h7xx-hal-driver/Inc/stm32h7xx_hal_def.h"
 1320              		.file 6 "drivers/stm32h7xx-hal-driver/Inc/stm32h7xx_hal_gpio.h"